ARM GAS  C:\Users\gx\AppData\Local\Temp\cc4YDZlL.s 			page 1


   1              		.cpu cortex-m4
   2              		.eabi_attribute 27, 1
   3              		.eabi_attribute 28, 1
   4              		.eabi_attribute 20, 1
   5              		.eabi_attribute 21, 1
   6              		.eabi_attribute 23, 3
   7              		.eabi_attribute 24, 1
   8              		.eabi_attribute 25, 1
   9              		.eabi_attribute 26, 1
  10              		.eabi_attribute 30, 1
  11              		.eabi_attribute 34, 1
  12              		.eabi_attribute 18, 4
  13              		.file	"calender.c"
  14              		.text
  15              	.Ltext0:
  16              		.cfi_sections	.debug_frame
  17              		.section	.rodata._cbDialog.str1.4,"aMS",%progbits,1
  18              		.align	2
  19              	.LC0:
  20 0000 3A00     		.ascii	":\000"
  21 0002 0000     		.align	2
  22              	.LC1:
  23 0004 54696D65 		.ascii	"Time\000"
  23      00
  24 0009 000000   		.align	2
  25              	.LC2:
  26 000c 56697369 		.ascii	"Visible\000"
  26      626C6500 
  27              		.align	2
  28              	.LC3:
  29 0014 54696D65 		.ascii	"Time set error\015\000"
  29      20736574 
  29      20657272 
  29      6F720D00 
  30              		.align	2
  31              	.LC4:
  32 0024 44617461 		.ascii	"Data set error\015\000"
  32      20736574 
  32      20657272 
  32      6F720D00 
  33              		.section	.text._cbDialog,"ax",%progbits
  34              		.align	1
  35              		.arch armv7e-m
  36              		.syntax unified
  37              		.thumb
  38              		.thumb_func
  39              		.fpu fpv4-sp-d16
  41              	_cbDialog:
  42              	.LVL0:
  43              	.LFB126:
  44              		.file 1 "UI/calender.c"
   1:UI/calender.c **** /*********************************************************************
   2:UI/calender.c **** *                                                                    *
   3:UI/calender.c **** *                SEGGER Microcontroller GmbH & Co. KG                *
   4:UI/calender.c **** *        Solutions for real time microcontroller applications        *
   5:UI/calender.c **** *                                                                    *
   6:UI/calender.c **** **********************************************************************
ARM GAS  C:\Users\gx\AppData\Local\Temp\cc4YDZlL.s 			page 2


   7:UI/calender.c **** *                                                                    *
   8:UI/calender.c **** * C-file generated by:                                               *
   9:UI/calender.c **** *                                                                    *
  10:UI/calender.c **** *        GUI_Builder for emWin version 5.32                          *
  11:UI/calender.c **** *        Compiled Oct  8 2015, 11:59:02                              *
  12:UI/calender.c **** *        (c) 2015 Segger Microcontroller GmbH & Co. KG               *
  13:UI/calender.c **** *                                                                    *
  14:UI/calender.c **** **********************************************************************
  15:UI/calender.c **** *                                                                    *
  16:UI/calender.c **** *        Internet: www.segger.com  Support: support@segger.com       *
  17:UI/calender.c **** *                                                                    *
  18:UI/calender.c **** **********************************************************************
  19:UI/calender.c **** */
  20:UI/calender.c **** 
  21:UI/calender.c **** // USER START (Optionally insert additional includes)
  22:UI/calender.c **** // USER END
  23:UI/calender.c **** 
  24:UI/calender.c **** #include "DIALOG.h"
  25:UI/calender.c **** #include "rtc.h"
  26:UI/calender.c **** #include "stm32f4xx_hal.h"
  27:UI/calender.c **** /*********************************************************************
  28:UI/calender.c **** *
  29:UI/calender.c **** *       Defines
  30:UI/calender.c **** *
  31:UI/calender.c **** **********************************************************************
  32:UI/calender.c **** */
  33:UI/calender.c **** #define ID_WINDOW_0 (GUI_ID_USER + 0x00)
  34:UI/calender.c **** #define ID_BUTTON_0 (GUI_ID_USER + 0x02)
  35:UI/calender.c **** #define ID_BUTTON_1 (GUI_ID_USER + 0x03)
  36:UI/calender.c **** #define ID_BUTTON_2 (GUI_ID_USER + 0x04)
  37:UI/calender.c **** 
  38:UI/calender.c **** #define ID_CHECKBOX_0 (GUI_ID_USER + 0x05)
  39:UI/calender.c **** 
  40:UI/calender.c **** #define ID_SPINBOX_0 (GUI_ID_USER + 0x07)
  41:UI/calender.c **** #define ID_SPINBOX_1 (GUI_ID_USER + 0x08)
  42:UI/calender.c **** #define ID_SPINBOX_2 (GUI_ID_USER + 0x09)
  43:UI/calender.c **** // USER START (Optionally insert additional defines)
  44:UI/calender.c **** // USER END
  45:UI/calender.c **** 
  46:UI/calender.c **** /*********************************************************************
  47:UI/calender.c **** *
  48:UI/calender.c **** *       Static data
  49:UI/calender.c **** *
  50:UI/calender.c **** **********************************************************************
  51:UI/calender.c **** */
  52:UI/calender.c **** 
  53:UI/calender.c **** // USER START (Optionally insert additional static data)
  54:UI/calender.c **** // USER END
  55:UI/calender.c **** 
  56:UI/calender.c **** /*********************************************************************
  57:UI/calender.c **** *
  58:UI/calender.c **** *       _aDialogCreate
  59:UI/calender.c **** */
  60:UI/calender.c **** static const GUI_WIDGET_CREATE_INFO _aDialogCreate[] = {
  61:UI/calender.c ****     {WINDOW_CreateIndirect, "Window", ID_WINDOW_0, 0, 40, 480, 280, 0, 0x0, 0},
  62:UI/calender.c ****     {SPINBOX_CreateIndirect, "Spinbox", ID_SPINBOX_0, 100, 240, 55, 40, 0, 0x0, 0},
  63:UI/calender.c ****     {SPINBOX_CreateIndirect, "Spinbox", ID_SPINBOX_1, 170, 240, 55, 40, 0, 0x0, 0},
ARM GAS  C:\Users\gx\AppData\Local\Temp\cc4YDZlL.s 			page 3


  64:UI/calender.c ****     {SPINBOX_CreateIndirect, "Spinbox", ID_SPINBOX_2, 240, 240, 55, 40, 0, 0x0, 0},
  65:UI/calender.c **** 
  66:UI/calender.c ****     {CHECKBOX_CreateIndirect, "check", ID_CHECKBOX_0, 345, 40, 100, 20, 0, 0x0, 0},
  67:UI/calender.c **** 
  68:UI/calender.c ****     //	{ BUTTON_CreateIndirect, "Upgrade", ID_BUTTON_0, 350, 70, 80, 40, 0, 0x0, 0 },
  69:UI/calender.c ****     {BUTTON_CreateIndirect, "CANCEL", ID_BUTTON_1, 350, 160, 80, 40, 0, 0x0, 0},
  70:UI/calender.c ****     {BUTTON_CreateIndirect, "OK", ID_BUTTON_2, 350, 230, 80, 40, 0, 0x0, 0},
  71:UI/calender.c **** 
  72:UI/calender.c ****     // USER START (Optionally insert additional widgets)
  73:UI/calender.c ****     // USER END
  74:UI/calender.c **** };
  75:UI/calender.c **** 
  76:UI/calender.c **** /*********************************************************************
  77:UI/calender.c **** *
  78:UI/calender.c **** *       Static code
  79:UI/calender.c **** *
  80:UI/calender.c **** **********************************************************************
  81:UI/calender.c **** */
  82:UI/calender.c **** 
  83:UI/calender.c **** // USER START (Optionally insert additional static code)
  84:UI/calender.c **** // USER END
  85:UI/calender.c **** extern WM_HWIN CreateSoftWare(void);
  86:UI/calender.c **** 
  87:UI/calender.c **** CALENDAR_DATE Date;
  88:UI/calender.c **** 
  89:UI/calender.c **** int Hour;
  90:UI/calender.c **** int Min;
  91:UI/calender.c **** int Sec;
  92:UI/calender.c **** 
  93:UI/calender.c **** /*********************************************************************
  94:UI/calender.c **** *
  95:UI/calender.c **** *       _cbDialog
  96:UI/calender.c **** */
  97:UI/calender.c **** extern WM_HWIN hWinBk;
  98:UI/calender.c **** 
  99:UI/calender.c **** //uint8_t RTC_SetFlag = 0;
 100:UI/calender.c **** 
 101:UI/calender.c **** extern RTC_TimeTypeDef RTC_Time;
 102:UI/calender.c **** extern RTC_DateTypeDef RTC_Date;
 103:UI/calender.c **** static void _cbDialog(WM_MESSAGE *pMsg)
 104:UI/calender.c **** {
  45              		.loc 1 104 1 view -0
  46              		.cfi_startproc
  47              		@ args = 0, pretend = 0, frame = 24
  48              		@ frame_needed = 0, uses_anonymous_args = 0
  49              		.loc 1 104 1 is_stmt 0 view .LVU1
  50 0000 F0B5     		push	{r4, r5, r6, r7, lr}
  51              	.LCFI0:
  52              		.cfi_def_cfa_offset 20
  53              		.cfi_offset 4, -20
  54              		.cfi_offset 5, -16
  55              		.cfi_offset 6, -12
  56              		.cfi_offset 7, -8
  57              		.cfi_offset 14, -4
  58 0002 8DB0     		sub	sp, sp, #52
  59              	.LCFI1:
  60              		.cfi_def_cfa_offset 72
ARM GAS  C:\Users\gx\AppData\Local\Temp\cc4YDZlL.s 			page 4


  61 0004 0446     		mov	r4, r0
 105:UI/calender.c ****   WM_HWIN hItem;
  62              		.loc 1 105 3 is_stmt 1 view .LVU2
 106:UI/calender.c ****   int NCode;
  63              		.loc 1 106 3 view .LVU3
 107:UI/calender.c ****   int Id;
  64              		.loc 1 107 3 view .LVU4
 108:UI/calender.c ****   static WM_HWIN hCalen;
  65              		.loc 1 108 3 view .LVU5
 109:UI/calender.c ****   int i;
  66              		.loc 1 109 3 view .LVU6
 110:UI/calender.c ****   GUI_HMEM H_QR;
  67              		.loc 1 110 3 view .LVU7
 111:UI/calender.c **** 
 112:UI/calender.c ****   RTC_TimeTypeDef sTime;
  68              		.loc 1 112 3 view .LVU8
 113:UI/calender.c ****   RTC_DateTypeDef sDate;
  69              		.loc 1 113 3 view .LVU9
 114:UI/calender.c ****   // USER START (Optionally insert additional variables)
 115:UI/calender.c ****   // USER END
 116:UI/calender.c **** 
 117:UI/calender.c ****   switch (pMsg->MsgId)
  70              		.loc 1 117 3 view .LVU10
  71              		.loc 1 117 15 is_stmt 0 view .LVU11
  72 0006 0368     		ldr	r3, [r0]
  73              		.loc 1 117 3 view .LVU12
  74 0008 1D2B     		cmp	r3, #29
  75 000a 00F0BE80 		beq	.L11
  76 000e 262B     		cmp	r3, #38
  77 0010 00F0BD80 		beq	.L3
  78 0014 0F2B     		cmp	r3, #15
  79 0016 02D0     		beq	.L13
 118:UI/calender.c ****   {
 119:UI/calender.c ****   case WM_PAINT:
 120:UI/calender.c ****     GUI_DrawGradientV(0, 0, 479, 280, GUI_LIGHTBLUE, GUI_BLUE);
 121:UI/calender.c **** 
 122:UI/calender.c ****     GUI_SetTextMode(GUI_TM_TRANS);
 123:UI/calender.c ****     GUI_SetColor(GUI_BLACK);
 124:UI/calender.c ****     GUI_SetFont(&GUI_Font20_1);
 125:UI/calender.c **** 
 126:UI/calender.c ****     GUI_DispStringAt(":", 160, 250);
 127:UI/calender.c ****     GUI_DispStringAt(":", 230, 250);
 128:UI/calender.c **** 
 129:UI/calender.c ****     GUI_SetFont(&GUI_Font20_1);
 130:UI/calender.c ****     GUI_DispStringAt("Time", 30, 250);
 131:UI/calender.c **** 
 132:UI/calender.c ****     //	H_QR = GUI_QR_Create("http://www.baidu.com",3,GUI_QR_ECLEVEL_L,0);
 133:UI/calender.c ****     //	GUI_QR_Draw(H_QR,320,200);
 134:UI/calender.c ****     break;
 135:UI/calender.c ****   case WM_INIT_DIALOG:
 136:UI/calender.c ****     //
 137:UI/calender.c ****     // Initialization of 'Listwheel'
 138:UI/calender.c ****     //
 139:UI/calender.c ****     /*
 140:UI/calender.c **** 			for(i = 0;i < 3;i++)
 141:UI/calender.c **** 			{
 142:UI/calender.c **** 				hItem = WM_GetDialogItem(pMsg->hWin, ID_BUTTON_0+i);
ARM GAS  C:\Users\gx\AppData\Local\Temp\cc4YDZlL.s 			page 5


 143:UI/calender.c **** 				BUTTON_SetFont(hItem,GUI_FONT_20_1);	
 144:UI/calender.c **** 			}
 145:UI/calender.c **** 	*/
 146:UI/calender.c ****     for (i = 0; i < 2; i++)
 147:UI/calender.c ****     {
 148:UI/calender.c ****       hItem = WM_GetDialogItem(pMsg->hWin, ID_BUTTON_1 + i);
 149:UI/calender.c **** 
 150:UI/calender.c ****       BUTTON_SetFont(hItem, &GUI_Font20_1);
 151:UI/calender.c ****     }
 152:UI/calender.c **** 
 153:UI/calender.c ****     hItem = WM_GetDialogItem(pMsg->hWin, ID_SPINBOX_0);
 154:UI/calender.c ****     SPINBOX_SetRange(hItem, 0, 23);
 155:UI/calender.c ****     SPINBOX_SetFont(hItem, GUI_FONT_20B_1);
 156:UI/calender.c ****     //SPINBOX_SetEdge(hItem,SPINBOX_EDGE_RIGHT);
 157:UI/calender.c ****     SPINBOX_SetButtonSize(hItem, 25);
 158:UI/calender.c ****     SPINBOX_SetValue(hItem, RTC_Time.Hours);
 159:UI/calender.c **** 
 160:UI/calender.c ****     hItem = WM_GetDialogItem(pMsg->hWin, ID_SPINBOX_1);
 161:UI/calender.c ****     SPINBOX_SetFont(hItem, GUI_FONT_20B_1);
 162:UI/calender.c ****     SPINBOX_SetRange(hItem, 0, 59);
 163:UI/calender.c ****     SPINBOX_SetButtonSize(hItem, 25);
 164:UI/calender.c ****     SPINBOX_SetValue(hItem, RTC_Time.Minutes);
 165:UI/calender.c **** 
 166:UI/calender.c ****     hItem = WM_GetDialogItem(pMsg->hWin, ID_SPINBOX_2);
 167:UI/calender.c ****     SPINBOX_SetRange(hItem, 0, 59);
 168:UI/calender.c ****     SPINBOX_SetFont(hItem, GUI_FONT_20B_1);
 169:UI/calender.c ****     SPINBOX_SetButtonSize(hItem, 25);
 170:UI/calender.c ****     SPINBOX_SetValue(hItem, RTC_Time.Seconds);
 171:UI/calender.c **** 
 172:UI/calender.c ****     hItem = WM_GetDialogItem(pMsg->hWin, ID_CHECKBOX_0);
 173:UI/calender.c **** 
 174:UI/calender.c ****     CHECKBOX_SetFont(hItem, &GUI_Font20_1);
 175:UI/calender.c ****     CHECKBOX_SetText(hItem, "Visible");
 176:UI/calender.c ****     /*		
 177:UI/calender.c **** 			CHECKBOX_SetFont(hItem,GUI_FONT_20B_1);
 178:UI/calender.c **** 			CHECKBOX_SetText(hItem, "visible");
 179:UI/calender.c **** 			*/
 180:UI/calender.c ****     CHECKBOX_SetState(hItem, 1);
 181:UI/calender.c **** 
 182:UI/calender.c ****     CALENDAR_SetDefaultFont(CALENDAR_FI_CONTENT, &GUI_Font20B_1);
 183:UI/calender.c ****     CALENDAR_SetDefaultFont(CALENDAR_FI_HEADER, &GUI_Font20_1);
 184:UI/calender.c **** 
 185:UI/calender.c ****     CALENDAR_SetDefaultSize(CALENDAR_SI_HEADER, 30);
 186:UI/calender.c ****     CALENDAR_SetDefaultSize(CALENDAR_SI_CELL_X, 40);
 187:UI/calender.c ****     CALENDAR_SetDefaultSize(CALENDAR_SI_CELL_Y, 25);
 188:UI/calender.c **** 
 189:UI/calender.c ****     hCalen = CALENDAR_Create(pMsg->hWin, 20, 20, 2000 + RTC_Date.Year, RTC_Date.Month, RTC_Date.Dat
 190:UI/calender.c ****     // USER START (Optionally insert additional code for further widget initialization)
 191:UI/calender.c ****     // USER END
 192:UI/calender.c ****     break;
 193:UI/calender.c ****   case WM_NOTIFY_PARENT:
 194:UI/calender.c ****     Id = WM_GetId(pMsg->hWinSrc);
 195:UI/calender.c ****     NCode = pMsg->Data.v;
 196:UI/calender.c ****     switch (Id)
 197:UI/calender.c ****     {
 198:UI/calender.c ****     case ID_CHECKBOX_0: // Notifications sent by 'check'
 199:UI/calender.c ****       switch (NCode)
ARM GAS  C:\Users\gx\AppData\Local\Temp\cc4YDZlL.s 			page 6


 200:UI/calender.c ****       {
 201:UI/calender.c ****       case WM_NOTIFICATION_CLICKED:
 202:UI/calender.c ****         // USER START (Optionally insert code for reacting on notification message)
 203:UI/calender.c ****         // USER END
 204:UI/calender.c ****         break;
 205:UI/calender.c ****       case WM_NOTIFICATION_RELEASED:
 206:UI/calender.c ****         // USER START (Optionally insert code for reacting on notification message)
 207:UI/calender.c ****         // USER END
 208:UI/calender.c ****         break;
 209:UI/calender.c ****       case WM_NOTIFICATION_VALUE_CHANGED:
 210:UI/calender.c ****         // USER START (Optionally insert code for reacting on notification message)
 211:UI/calender.c ****         // USER END
 212:UI/calender.c ****         break;
 213:UI/calender.c ****         // USER START (Optionally insert additional code for further notification handling)
 214:UI/calender.c ****         // USER END
 215:UI/calender.c ****       }
 216:UI/calender.c ****       break;
 217:UI/calender.c ****       // USER START (Optionally insert additional code for further Ids)
 218:UI/calender.c ****       // USER END
 219:UI/calender.c ****     case ID_BUTTON_0: // Notifications sent by 'return'
 220:UI/calender.c ****       switch (NCode)
 221:UI/calender.c ****       {
 222:UI/calender.c ****       case WM_NOTIFICATION_CLICKED:
 223:UI/calender.c ****         // USER START (Optionally insert code for reacting on notification message)
 224:UI/calender.c ****         // USER END
 225:UI/calender.c ****         break;
 226:UI/calender.c ****       case WM_NOTIFICATION_RELEASED:
 227:UI/calender.c ****         // USER START (Optionally insert code for reacting on notification message)
 228:UI/calender.c **** 
 229:UI/calender.c ****         // USER END
 230:UI/calender.c ****         break;
 231:UI/calender.c ****         // USER START (Optionally insert additional code for further notification handling)
 232:UI/calender.c ****         // USER END
 233:UI/calender.c ****       }
 234:UI/calender.c ****       break;
 235:UI/calender.c ****     case ID_BUTTON_1: // Notifications sent by 'return'
 236:UI/calender.c ****       switch (NCode)
 237:UI/calender.c ****       {
 238:UI/calender.c ****       case WM_NOTIFICATION_CLICKED:
 239:UI/calender.c ****         // USER START (Optionally insert code for reacting on notification message)
 240:UI/calender.c ****         // USER END
 241:UI/calender.c ****         break;
 242:UI/calender.c ****       case WM_NOTIFICATION_RELEASED:
 243:UI/calender.c ****         // USER START (Optionally insert code for reacting on notification message)
 244:UI/calender.c **** 
 245:UI/calender.c ****         WM_DeleteWindow(pMsg->hWin);
 246:UI/calender.c ****         CreateSoftWare();
 247:UI/calender.c **** 
 248:UI/calender.c ****         // USER END
 249:UI/calender.c ****         break;
 250:UI/calender.c ****         // USER START (Optionally insert additional code for further notification handling)
 251:UI/calender.c ****         // USER END
 252:UI/calender.c ****       }
 253:UI/calender.c ****       break;
 254:UI/calender.c ****     case ID_BUTTON_2: // Notifications sent by 'OK'
 255:UI/calender.c ****       switch (NCode)
 256:UI/calender.c ****       {
ARM GAS  C:\Users\gx\AppData\Local\Temp\cc4YDZlL.s 			page 7


 257:UI/calender.c ****       case WM_NOTIFICATION_CLICKED:
 258:UI/calender.c ****         // USER START (Optionally insert code for reacting on notification message)
 259:UI/calender.c ****         // USER END
 260:UI/calender.c ****         break;
 261:UI/calender.c ****       case WM_NOTIFICATION_RELEASED:
 262:UI/calender.c ****         // USER START (Optionally insert code for reacting on notification message)
 263:UI/calender.c ****         // hCalen
 264:UI/calender.c **** 
 265:UI/calender.c ****         CALENDAR_GetSel(hCalen, &Date);
 266:UI/calender.c ****         CALENDAR_SetDate(hCalen, &Date);
 267:UI/calender.c ****         hItem = WM_GetDialogItem(pMsg->hWin, ID_SPINBOX_0);
 268:UI/calender.c ****         sTime.Hours = SPINBOX_GetValue(hItem);
 269:UI/calender.c ****         hItem = WM_GetDialogItem(pMsg->hWin, ID_SPINBOX_1);
 270:UI/calender.c ****         sTime.Minutes = SPINBOX_GetValue(hItem);
 271:UI/calender.c ****         hItem = WM_GetDialogItem(pMsg->hWin, ID_SPINBOX_2);
 272:UI/calender.c ****         sTime.Seconds = SPINBOX_GetValue(hItem);
 273:UI/calender.c ****         sTime.DayLightSaving = RTC_DAYLIGHTSAVING_NONE;
 274:UI/calender.c ****         sTime.StoreOperation = RTC_STOREOPERATION_RESET;
 275:UI/calender.c ****         if (HAL_OK != HAL_RTC_SetTime(&hrtc, &sTime, RTC_FORMAT_BIN))
 276:UI/calender.c ****         {
 277:UI/calender.c ****           printf("Time set error\r\n");
 278:UI/calender.c ****         };
 279:UI/calender.c **** 
 280:UI/calender.c ****         sDate.WeekDay = 0;
 281:UI/calender.c ****         sDate.Month = Date.Month;
 282:UI/calender.c ****         sDate.Date = Date.Day;
 283:UI/calender.c ****         sDate.Year = Date.Year - 2000;
 284:UI/calender.c ****         if (HAL_OK != HAL_RTC_SetDate(&hrtc, &sDate, RTC_FORMAT_BIN))
 285:UI/calender.c ****         {
 286:UI/calender.c ****           printf("Data set error\r\n");
 287:UI/calender.c ****         }
 288:UI/calender.c **** 
 289:UI/calender.c ****         hItem = WM_GetDialogItem(pMsg->hWin, ID_CHECKBOX_0);
 290:UI/calender.c ****         //Set.visable = CHECKBOX_GetState(hItem);
 291:UI/calender.c ****         //Setting_Save();
 292:UI/calender.c ****         // WM_SendMessageNoPara(WIN_Header, DATE_DIS);
 293:UI/calender.c ****         WM_InvalidateWindow(pMsg->hWin);
 294:UI/calender.c ****         WM_DeleteWindow(pMsg->hWin);
 295:UI/calender.c ****         CreateSoftWare();
 296:UI/calender.c ****         // USER END
 297:UI/calender.c ****         break;
 298:UI/calender.c ****         // USER START (Optionally insert additional code for further notification handling)
 299:UI/calender.c ****         // USER END
 300:UI/calender.c ****       }
 301:UI/calender.c ****       break;
 302:UI/calender.c ****       // USER START (Optionally insert additional code for further Ids)
 303:UI/calender.c ****       // USER END
 304:UI/calender.c ****     }
 305:UI/calender.c ****     break;
 306:UI/calender.c ****   // USER START (Optionally insert additional message handling)
 307:UI/calender.c ****   // USER END
 308:UI/calender.c ****   default:
 309:UI/calender.c ****     WM_DefaultProc(pMsg);
  80              		.loc 1 309 5 is_stmt 1 view .LVU13
  81 0018 FFF7FEFF 		bl	WM_DefaultProc
  82              	.LVL1:
 310:UI/calender.c ****     break;
ARM GAS  C:\Users\gx\AppData\Local\Temp\cc4YDZlL.s 			page 8


  83              		.loc 1 310 5 view .LVU14
 311:UI/calender.c ****   }
 312:UI/calender.c **** }
  84              		.loc 1 312 1 is_stmt 0 view .LVU15
  85 001c 29E0     		b	.L1
  86              	.LVL2:
  87              	.L13:
 120:UI/calender.c **** 
  88              		.loc 1 120 5 is_stmt 1 view .LVU16
  89 001e 4FF47F03 		mov	r3, #16711680
  90 0022 0193     		str	r3, [sp, #4]
  91 0024 914B     		ldr	r3, .L16
  92 0026 0093     		str	r3, [sp]
  93 0028 4FF48C73 		mov	r3, #280
  94 002c 40F2DF12 		movw	r2, #479
  95 0030 0021     		movs	r1, #0
  96 0032 0846     		mov	r0, r1
  97              	.LVL3:
 120:UI/calender.c **** 
  98              		.loc 1 120 5 is_stmt 0 view .LVU17
  99 0034 FFF7FEFF 		bl	GUI_DrawGradientV
 100              	.LVL4:
 122:UI/calender.c ****     GUI_SetColor(GUI_BLACK);
 101              		.loc 1 122 5 is_stmt 1 view .LVU18
 102 0038 0220     		movs	r0, #2
 103 003a FFF7FEFF 		bl	GUI_SetTextMode
 104              	.LVL5:
 123:UI/calender.c ****     GUI_SetFont(&GUI_Font20_1);
 105              		.loc 1 123 5 view .LVU19
 106 003e 0020     		movs	r0, #0
 107 0040 FFF7FEFF 		bl	GUI_SetColor
 108              	.LVL6:
 124:UI/calender.c **** 
 109              		.loc 1 124 5 view .LVU20
 110 0044 8A4C     		ldr	r4, .L16+4
 111              	.LVL7:
 124:UI/calender.c **** 
 112              		.loc 1 124 5 is_stmt 0 view .LVU21
 113 0046 2046     		mov	r0, r4
 114 0048 FFF7FEFF 		bl	GUI_SetFont
 115              	.LVL8:
 126:UI/calender.c ****     GUI_DispStringAt(":", 230, 250);
 116              		.loc 1 126 5 is_stmt 1 view .LVU22
 117 004c 894D     		ldr	r5, .L16+8
 118 004e FA22     		movs	r2, #250
 119 0050 A021     		movs	r1, #160
 120 0052 2846     		mov	r0, r5
 121 0054 FFF7FEFF 		bl	GUI_DispStringAt
 122              	.LVL9:
 127:UI/calender.c **** 
 123              		.loc 1 127 5 view .LVU23
 124 0058 FA22     		movs	r2, #250
 125 005a E621     		movs	r1, #230
 126 005c 2846     		mov	r0, r5
 127 005e FFF7FEFF 		bl	GUI_DispStringAt
 128              	.LVL10:
 129:UI/calender.c ****     GUI_DispStringAt("Time", 30, 250);
ARM GAS  C:\Users\gx\AppData\Local\Temp\cc4YDZlL.s 			page 9


 129              		.loc 1 129 5 view .LVU24
 130 0062 2046     		mov	r0, r4
 131 0064 FFF7FEFF 		bl	GUI_SetFont
 132              	.LVL11:
 130:UI/calender.c **** 
 133              		.loc 1 130 5 view .LVU25
 134 0068 FA22     		movs	r2, #250
 135 006a 1E21     		movs	r1, #30
 136 006c 8248     		ldr	r0, .L16+12
 137 006e FFF7FEFF 		bl	GUI_DispStringAt
 138              	.LVL12:
 134:UI/calender.c ****   case WM_INIT_DIALOG:
 139              		.loc 1 134 5 view .LVU26
 140              	.L1:
 141              		.loc 1 312 1 is_stmt 0 view .LVU27
 142 0072 0DB0     		add	sp, sp, #52
 143              	.LCFI2:
 144              		.cfi_remember_state
 145              		.cfi_def_cfa_offset 20
 146              		@ sp needed
 147 0074 F0BD     		pop	{r4, r5, r6, r7, pc}
 148              	.LVL13:
 149              	.L6:
 150              	.LCFI3:
 151              		.cfi_restore_state
 148:UI/calender.c **** 
 152              		.loc 1 148 7 is_stmt 1 discriminator 3 view .LVU28
 148:UI/calender.c **** 
 153              		.loc 1 148 15 is_stmt 0 discriminator 3 view .LVU29
 154 0076 05F60301 		addw	r1, r5, #2051
 155 007a 6068     		ldr	r0, [r4, #4]
 156 007c FFF7FEFF 		bl	WM_GetDialogItem
 157              	.LVL14:
 150:UI/calender.c ****     }
 158              		.loc 1 150 7 is_stmt 1 discriminator 3 view .LVU30
 159 0080 7B49     		ldr	r1, .L16+4
 160 0082 FFF7FEFF 		bl	BUTTON_SetFont
 161              	.LVL15:
 146:UI/calender.c ****     {
 162              		.loc 1 146 24 discriminator 3 view .LVU31
 146:UI/calender.c ****     {
 163              		.loc 1 146 25 is_stmt 0 discriminator 3 view .LVU32
 164 0086 0135     		adds	r5, r5, #1
 165              	.LVL16:
 166              	.L2:
 146:UI/calender.c ****     {
 167              		.loc 1 146 17 is_stmt 1 discriminator 1 view .LVU33
 146:UI/calender.c ****     {
 168              		.loc 1 146 5 is_stmt 0 discriminator 1 view .LVU34
 169 0088 012D     		cmp	r5, #1
 170 008a F4DD     		ble	.L6
 153:UI/calender.c ****     SPINBOX_SetRange(hItem, 0, 23);
 171              		.loc 1 153 5 is_stmt 1 view .LVU35
 153:UI/calender.c ****     SPINBOX_SetRange(hItem, 0, 23);
 172              		.loc 1 153 13 is_stmt 0 view .LVU36
 173 008c 40F60701 		movw	r1, #2055
 174 0090 6068     		ldr	r0, [r4, #4]
ARM GAS  C:\Users\gx\AppData\Local\Temp\cc4YDZlL.s 			page 10


 175 0092 FFF7FEFF 		bl	WM_GetDialogItem
 176              	.LVL17:
 177 0096 0546     		mov	r5, r0
 178              	.LVL18:
 154:UI/calender.c ****     SPINBOX_SetFont(hItem, GUI_FONT_20B_1);
 179              		.loc 1 154 5 is_stmt 1 view .LVU37
 180 0098 1722     		movs	r2, #23
 181 009a 0021     		movs	r1, #0
 182 009c FFF7FEFF 		bl	SPINBOX_SetRange
 183              	.LVL19:
 155:UI/calender.c ****     //SPINBOX_SetEdge(hItem,SPINBOX_EDGE_RIGHT);
 184              		.loc 1 155 5 view .LVU38
 185 00a0 764E     		ldr	r6, .L16+16
 186 00a2 3146     		mov	r1, r6
 187 00a4 2846     		mov	r0, r5
 188 00a6 FFF7FEFF 		bl	SPINBOX_SetFont
 189              	.LVL20:
 157:UI/calender.c ****     SPINBOX_SetValue(hItem, RTC_Time.Hours);
 190              		.loc 1 157 5 view .LVU39
 191 00aa 1921     		movs	r1, #25
 192 00ac 2846     		mov	r0, r5
 193 00ae FFF7FEFF 		bl	SPINBOX_SetButtonSize
 194              	.LVL21:
 158:UI/calender.c **** 
 195              		.loc 1 158 5 view .LVU40
 158:UI/calender.c **** 
 196              		.loc 1 158 37 is_stmt 0 view .LVU41
 197 00b2 734F     		ldr	r7, .L16+20
 158:UI/calender.c **** 
 198              		.loc 1 158 5 view .LVU42
 199 00b4 3978     		ldrb	r1, [r7]	@ zero_extendqisi2
 200 00b6 2846     		mov	r0, r5
 201 00b8 FFF7FEFF 		bl	SPINBOX_SetValue
 202              	.LVL22:
 160:UI/calender.c ****     SPINBOX_SetFont(hItem, GUI_FONT_20B_1);
 203              		.loc 1 160 5 is_stmt 1 view .LVU43
 160:UI/calender.c ****     SPINBOX_SetFont(hItem, GUI_FONT_20B_1);
 204              		.loc 1 160 13 is_stmt 0 view .LVU44
 205 00bc 40F60801 		movw	r1, #2056
 206 00c0 6068     		ldr	r0, [r4, #4]
 207 00c2 FFF7FEFF 		bl	WM_GetDialogItem
 208              	.LVL23:
 209 00c6 0546     		mov	r5, r0
 210              	.LVL24:
 161:UI/calender.c ****     SPINBOX_SetRange(hItem, 0, 59);
 211              		.loc 1 161 5 is_stmt 1 view .LVU45
 212 00c8 3146     		mov	r1, r6
 213 00ca FFF7FEFF 		bl	SPINBOX_SetFont
 214              	.LVL25:
 162:UI/calender.c ****     SPINBOX_SetButtonSize(hItem, 25);
 215              		.loc 1 162 5 view .LVU46
 216 00ce 3B22     		movs	r2, #59
 217 00d0 0021     		movs	r1, #0
 218 00d2 2846     		mov	r0, r5
 219 00d4 FFF7FEFF 		bl	SPINBOX_SetRange
 220              	.LVL26:
 163:UI/calender.c ****     SPINBOX_SetValue(hItem, RTC_Time.Minutes);
ARM GAS  C:\Users\gx\AppData\Local\Temp\cc4YDZlL.s 			page 11


 221              		.loc 1 163 5 view .LVU47
 222 00d8 1921     		movs	r1, #25
 223 00da 2846     		mov	r0, r5
 224 00dc FFF7FEFF 		bl	SPINBOX_SetButtonSize
 225              	.LVL27:
 164:UI/calender.c **** 
 226              		.loc 1 164 5 view .LVU48
 227 00e0 7978     		ldrb	r1, [r7, #1]	@ zero_extendqisi2
 228 00e2 2846     		mov	r0, r5
 229 00e4 FFF7FEFF 		bl	SPINBOX_SetValue
 230              	.LVL28:
 166:UI/calender.c ****     SPINBOX_SetRange(hItem, 0, 59);
 231              		.loc 1 166 5 view .LVU49
 166:UI/calender.c ****     SPINBOX_SetRange(hItem, 0, 59);
 232              		.loc 1 166 13 is_stmt 0 view .LVU50
 233 00e8 40F60901 		movw	r1, #2057
 234 00ec 6068     		ldr	r0, [r4, #4]
 235 00ee FFF7FEFF 		bl	WM_GetDialogItem
 236              	.LVL29:
 237 00f2 0546     		mov	r5, r0
 238              	.LVL30:
 167:UI/calender.c ****     SPINBOX_SetFont(hItem, GUI_FONT_20B_1);
 239              		.loc 1 167 5 is_stmt 1 view .LVU51
 240 00f4 3B22     		movs	r2, #59
 241 00f6 0021     		movs	r1, #0
 242 00f8 FFF7FEFF 		bl	SPINBOX_SetRange
 243              	.LVL31:
 168:UI/calender.c ****     SPINBOX_SetButtonSize(hItem, 25);
 244              		.loc 1 168 5 view .LVU52
 245 00fc 3146     		mov	r1, r6
 246 00fe 2846     		mov	r0, r5
 247 0100 FFF7FEFF 		bl	SPINBOX_SetFont
 248              	.LVL32:
 169:UI/calender.c ****     SPINBOX_SetValue(hItem, RTC_Time.Seconds);
 249              		.loc 1 169 5 view .LVU53
 250 0104 1921     		movs	r1, #25
 251 0106 2846     		mov	r0, r5
 252 0108 FFF7FEFF 		bl	SPINBOX_SetButtonSize
 253              	.LVL33:
 170:UI/calender.c **** 
 254              		.loc 1 170 5 view .LVU54
 255 010c B978     		ldrb	r1, [r7, #2]	@ zero_extendqisi2
 256 010e 2846     		mov	r0, r5
 257 0110 FFF7FEFF 		bl	SPINBOX_SetValue
 258              	.LVL34:
 172:UI/calender.c **** 
 259              		.loc 1 172 5 view .LVU55
 172:UI/calender.c **** 
 260              		.loc 1 172 13 is_stmt 0 view .LVU56
 261 0114 40F60501 		movw	r1, #2053
 262 0118 6068     		ldr	r0, [r4, #4]
 263 011a FFF7FEFF 		bl	WM_GetDialogItem
 264              	.LVL35:
 265 011e 0546     		mov	r5, r0
 266              	.LVL36:
 174:UI/calender.c ****     CHECKBOX_SetText(hItem, "Visible");
 267              		.loc 1 174 5 is_stmt 1 view .LVU57
ARM GAS  C:\Users\gx\AppData\Local\Temp\cc4YDZlL.s 			page 12


 268 0120 534F     		ldr	r7, .L16+4
 269 0122 3946     		mov	r1, r7
 270 0124 FFF7FEFF 		bl	CHECKBOX_SetFont
 271              	.LVL37:
 175:UI/calender.c ****     /*		
 272              		.loc 1 175 5 view .LVU58
 273 0128 5649     		ldr	r1, .L16+24
 274 012a 2846     		mov	r0, r5
 275 012c FFF7FEFF 		bl	CHECKBOX_SetText
 276              	.LVL38:
 180:UI/calender.c **** 
 277              		.loc 1 180 5 view .LVU59
 278 0130 0121     		movs	r1, #1
 279 0132 2846     		mov	r0, r5
 280 0134 FFF7FEFF 		bl	CHECKBOX_SetState
 281              	.LVL39:
 182:UI/calender.c ****     CALENDAR_SetDefaultFont(CALENDAR_FI_HEADER, &GUI_Font20_1);
 282              		.loc 1 182 5 view .LVU60
 283 0138 3146     		mov	r1, r6
 284 013a 0020     		movs	r0, #0
 285 013c FFF7FEFF 		bl	CALENDAR_SetDefaultFont
 286              	.LVL40:
 183:UI/calender.c **** 
 287              		.loc 1 183 5 view .LVU61
 288 0140 3946     		mov	r1, r7
 289 0142 0120     		movs	r0, #1
 290 0144 FFF7FEFF 		bl	CALENDAR_SetDefaultFont
 291              	.LVL41:
 185:UI/calender.c ****     CALENDAR_SetDefaultSize(CALENDAR_SI_CELL_X, 40);
 292              		.loc 1 185 5 view .LVU62
 293 0148 1E21     		movs	r1, #30
 294 014a 0020     		movs	r0, #0
 295 014c FFF7FEFF 		bl	CALENDAR_SetDefaultSize
 296              	.LVL42:
 186:UI/calender.c ****     CALENDAR_SetDefaultSize(CALENDAR_SI_CELL_Y, 25);
 297              		.loc 1 186 5 view .LVU63
 298 0150 2821     		movs	r1, #40
 299 0152 0120     		movs	r0, #1
 300 0154 FFF7FEFF 		bl	CALENDAR_SetDefaultSize
 301              	.LVL43:
 187:UI/calender.c **** 
 302              		.loc 1 187 5 view .LVU64
 303 0158 1921     		movs	r1, #25
 304 015a 0220     		movs	r0, #2
 305 015c FFF7FEFF 		bl	CALENDAR_SetDefaultSize
 306              	.LVL44:
 189:UI/calender.c ****     // USER START (Optionally insert additional code for further widget initialization)
 307              		.loc 1 189 5 view .LVU65
 189:UI/calender.c ****     // USER START (Optionally insert additional code for further widget initialization)
 308              		.loc 1 189 65 is_stmt 0 view .LVU66
 309 0160 494A     		ldr	r2, .L16+28
 310 0162 D378     		ldrb	r3, [r2, #3]	@ zero_extendqisi2
 189:UI/calender.c ****     // USER START (Optionally insert additional code for further widget initialization)
 311              		.loc 1 189 80 view .LVU67
 312 0164 5178     		ldrb	r1, [r2, #1]	@ zero_extendqisi2
 189:UI/calender.c ****     // USER START (Optionally insert additional code for further widget initialization)
 313              		.loc 1 189 96 view .LVU68
ARM GAS  C:\Users\gx\AppData\Local\Temp\cc4YDZlL.s 			page 13


 314 0166 9078     		ldrb	r0, [r2, #2]	@ zero_extendqisi2
 189:UI/calender.c ****     // USER START (Optionally insert additional code for further widget initialization)
 315              		.loc 1 189 14 view .LVU69
 316 0168 0022     		movs	r2, #0
 317 016a 0492     		str	r2, [sp, #16]
 318 016c 0392     		str	r2, [sp, #12]
 319 016e 0222     		movs	r2, #2
 320 0170 0292     		str	r2, [sp, #8]
 321 0172 0190     		str	r0, [sp, #4]
 322 0174 0091     		str	r1, [sp]
 323 0176 03F5FA63 		add	r3, r3, #2000
 324 017a 1422     		movs	r2, #20
 325 017c 1146     		mov	r1, r2
 326 017e 6068     		ldr	r0, [r4, #4]
 327 0180 FFF7FEFF 		bl	CALENDAR_Create
 328              	.LVL45:
 189:UI/calender.c ****     // USER START (Optionally insert additional code for further widget initialization)
 329              		.loc 1 189 12 view .LVU70
 330 0184 414B     		ldr	r3, .L16+32
 331 0186 1860     		str	r0, [r3]
 192:UI/calender.c ****   case WM_NOTIFY_PARENT:
 332              		.loc 1 192 5 is_stmt 1 view .LVU71
 333 0188 73E7     		b	.L1
 334              	.LVL46:
 335              	.L11:
 117:UI/calender.c ****   {
 336              		.loc 1 117 3 is_stmt 0 view .LVU72
 337 018a 0025     		movs	r5, #0
 338 018c 7CE7     		b	.L2
 339              	.L3:
 194:UI/calender.c ****     NCode = pMsg->Data.v;
 340              		.loc 1 194 5 is_stmt 1 view .LVU73
 194:UI/calender.c ****     NCode = pMsg->Data.v;
 341              		.loc 1 194 10 is_stmt 0 view .LVU74
 342 018e 8068     		ldr	r0, [r0, #8]
 343              	.LVL47:
 194:UI/calender.c ****     NCode = pMsg->Data.v;
 344              		.loc 1 194 10 view .LVU75
 345 0190 FFF7FEFF 		bl	WM_GetId
 346              	.LVL48:
 195:UI/calender.c ****     switch (Id)
 347              		.loc 1 195 5 is_stmt 1 view .LVU76
 195:UI/calender.c ****     switch (Id)
 348              		.loc 1 195 11 is_stmt 0 view .LVU77
 349 0194 E268     		ldr	r2, [r4, #12]
 350              	.LVL49:
 196:UI/calender.c ****     {
 351              		.loc 1 196 5 is_stmt 1 view .LVU78
 352 0196 40F60303 		movw	r3, #2051
 353 019a 9842     		cmp	r0, r3
 354 019c 55D0     		beq	.L7
 355 019e 40F60403 		movw	r3, #2052
 356 01a2 9842     		cmp	r0, r3
 357 01a4 7FF465AF 		bne	.L1
 255:UI/calender.c ****       {
 358              		.loc 1 255 7 discriminator 3 view .LVU79
 359 01a8 022A     		cmp	r2, #2
ARM GAS  C:\Users\gx\AppData\Local\Temp\cc4YDZlL.s 			page 14


 360 01aa 7FF462AF 		bne	.L1
 265:UI/calender.c ****         CALENDAR_SetDate(hCalen, &Date);
 361              		.loc 1 265 9 view .LVU80
 362 01ae 384E     		ldr	r6, .L16+36
 363 01b0 364D     		ldr	r5, .L16+32
 364 01b2 3146     		mov	r1, r6
 365 01b4 2868     		ldr	r0, [r5]
 366              	.LVL50:
 265:UI/calender.c ****         CALENDAR_SetDate(hCalen, &Date);
 367              		.loc 1 265 9 is_stmt 0 view .LVU81
 368 01b6 FFF7FEFF 		bl	CALENDAR_GetSel
 369              	.LVL51:
 266:UI/calender.c ****         hItem = WM_GetDialogItem(pMsg->hWin, ID_SPINBOX_0);
 370              		.loc 1 266 9 is_stmt 1 view .LVU82
 371 01ba 3146     		mov	r1, r6
 372 01bc 2868     		ldr	r0, [r5]
 373 01be FFF7FEFF 		bl	CALENDAR_SetDate
 374              	.LVL52:
 267:UI/calender.c ****         sTime.Hours = SPINBOX_GetValue(hItem);
 375              		.loc 1 267 9 view .LVU83
 267:UI/calender.c ****         sTime.Hours = SPINBOX_GetValue(hItem);
 376              		.loc 1 267 17 is_stmt 0 view .LVU84
 377 01c2 40F60701 		movw	r1, #2055
 378 01c6 6068     		ldr	r0, [r4, #4]
 379 01c8 FFF7FEFF 		bl	WM_GetDialogItem
 380              	.LVL53:
 268:UI/calender.c ****         hItem = WM_GetDialogItem(pMsg->hWin, ID_SPINBOX_1);
 381              		.loc 1 268 9 is_stmt 1 view .LVU85
 268:UI/calender.c ****         hItem = WM_GetDialogItem(pMsg->hWin, ID_SPINBOX_1);
 382              		.loc 1 268 23 is_stmt 0 view .LVU86
 383 01cc FFF7FEFF 		bl	SPINBOX_GetValue
 384              	.LVL54:
 268:UI/calender.c ****         hItem = WM_GetDialogItem(pMsg->hWin, ID_SPINBOX_1);
 385              		.loc 1 268 21 view .LVU87
 386 01d0 8DF81C00 		strb	r0, [sp, #28]
 269:UI/calender.c ****         sTime.Minutes = SPINBOX_GetValue(hItem);
 387              		.loc 1 269 9 is_stmt 1 view .LVU88
 269:UI/calender.c ****         sTime.Minutes = SPINBOX_GetValue(hItem);
 388              		.loc 1 269 17 is_stmt 0 view .LVU89
 389 01d4 40F60801 		movw	r1, #2056
 390 01d8 6068     		ldr	r0, [r4, #4]
 391 01da FFF7FEFF 		bl	WM_GetDialogItem
 392              	.LVL55:
 270:UI/calender.c ****         hItem = WM_GetDialogItem(pMsg->hWin, ID_SPINBOX_2);
 393              		.loc 1 270 9 is_stmt 1 view .LVU90
 270:UI/calender.c ****         hItem = WM_GetDialogItem(pMsg->hWin, ID_SPINBOX_2);
 394              		.loc 1 270 25 is_stmt 0 view .LVU91
 395 01de FFF7FEFF 		bl	SPINBOX_GetValue
 396              	.LVL56:
 270:UI/calender.c ****         hItem = WM_GetDialogItem(pMsg->hWin, ID_SPINBOX_2);
 397              		.loc 1 270 23 view .LVU92
 398 01e2 8DF81D00 		strb	r0, [sp, #29]
 271:UI/calender.c ****         sTime.Seconds = SPINBOX_GetValue(hItem);
 399              		.loc 1 271 9 is_stmt 1 view .LVU93
 271:UI/calender.c ****         sTime.Seconds = SPINBOX_GetValue(hItem);
 400              		.loc 1 271 17 is_stmt 0 view .LVU94
 401 01e6 40F60901 		movw	r1, #2057
ARM GAS  C:\Users\gx\AppData\Local\Temp\cc4YDZlL.s 			page 15


 402 01ea 6068     		ldr	r0, [r4, #4]
 403 01ec FFF7FEFF 		bl	WM_GetDialogItem
 404              	.LVL57:
 272:UI/calender.c ****         sTime.DayLightSaving = RTC_DAYLIGHTSAVING_NONE;
 405              		.loc 1 272 9 is_stmt 1 view .LVU95
 272:UI/calender.c ****         sTime.DayLightSaving = RTC_DAYLIGHTSAVING_NONE;
 406              		.loc 1 272 25 is_stmt 0 view .LVU96
 407 01f0 FFF7FEFF 		bl	SPINBOX_GetValue
 408              	.LVL58:
 272:UI/calender.c ****         sTime.DayLightSaving = RTC_DAYLIGHTSAVING_NONE;
 409              		.loc 1 272 23 view .LVU97
 410 01f4 8DF81E00 		strb	r0, [sp, #30]
 273:UI/calender.c ****         sTime.StoreOperation = RTC_STOREOPERATION_RESET;
 411              		.loc 1 273 9 is_stmt 1 view .LVU98
 273:UI/calender.c ****         sTime.StoreOperation = RTC_STOREOPERATION_RESET;
 412              		.loc 1 273 30 is_stmt 0 view .LVU99
 413 01f8 0022     		movs	r2, #0
 414 01fa 0A92     		str	r2, [sp, #40]
 274:UI/calender.c ****         if (HAL_OK != HAL_RTC_SetTime(&hrtc, &sTime, RTC_FORMAT_BIN))
 415              		.loc 1 274 9 is_stmt 1 view .LVU100
 274:UI/calender.c ****         if (HAL_OK != HAL_RTC_SetTime(&hrtc, &sTime, RTC_FORMAT_BIN))
 416              		.loc 1 274 30 is_stmt 0 view .LVU101
 417 01fc 0B92     		str	r2, [sp, #44]
 275:UI/calender.c ****         {
 418              		.loc 1 275 9 is_stmt 1 view .LVU102
 275:UI/calender.c ****         {
 419              		.loc 1 275 23 is_stmt 0 view .LVU103
 420 01fe 07A9     		add	r1, sp, #28
 421 0200 2448     		ldr	r0, .L16+40
 422 0202 FFF7FEFF 		bl	HAL_RTC_SetTime
 423              	.LVL59:
 275:UI/calender.c ****         {
 424              		.loc 1 275 12 view .LVU104
 425 0206 48BB     		cbnz	r0, .L14
 426              	.L9:
 278:UI/calender.c **** 
 427              		.loc 1 278 10 is_stmt 1 view .LVU105
 280:UI/calender.c ****         sDate.Month = Date.Month;
 428              		.loc 1 280 9 view .LVU106
 280:UI/calender.c ****         sDate.Month = Date.Month;
 429              		.loc 1 280 23 is_stmt 0 view .LVU107
 430 0208 0022     		movs	r2, #0
 431 020a 8DF81820 		strb	r2, [sp, #24]
 281:UI/calender.c ****         sDate.Date = Date.Day;
 432              		.loc 1 281 9 is_stmt 1 view .LVU108
 281:UI/calender.c ****         sDate.Date = Date.Day;
 433              		.loc 1 281 27 is_stmt 0 view .LVU109
 434 020e 204B     		ldr	r3, .L16+36
 435 0210 5968     		ldr	r1, [r3, #4]
 281:UI/calender.c ****         sDate.Date = Date.Day;
 436              		.loc 1 281 21 view .LVU110
 437 0212 8DF81910 		strb	r1, [sp, #25]
 282:UI/calender.c ****         sDate.Year = Date.Year - 2000;
 438              		.loc 1 282 9 is_stmt 1 view .LVU111
 282:UI/calender.c ****         sDate.Year = Date.Year - 2000;
 439              		.loc 1 282 26 is_stmt 0 view .LVU112
 440 0216 9968     		ldr	r1, [r3, #8]
ARM GAS  C:\Users\gx\AppData\Local\Temp\cc4YDZlL.s 			page 16


 282:UI/calender.c ****         sDate.Year = Date.Year - 2000;
 441              		.loc 1 282 20 view .LVU113
 442 0218 8DF81A10 		strb	r1, [sp, #26]
 283:UI/calender.c ****         if (HAL_OK != HAL_RTC_SetDate(&hrtc, &sDate, RTC_FORMAT_BIN))
 443              		.loc 1 283 9 is_stmt 1 view .LVU114
 283:UI/calender.c ****         if (HAL_OK != HAL_RTC_SetDate(&hrtc, &sDate, RTC_FORMAT_BIN))
 444              		.loc 1 283 26 is_stmt 0 view .LVU115
 445 021c 1B68     		ldr	r3, [r3]
 283:UI/calender.c ****         if (HAL_OK != HAL_RTC_SetDate(&hrtc, &sDate, RTC_FORMAT_BIN))
 446              		.loc 1 283 32 view .LVU116
 447 021e 3033     		adds	r3, r3, #48
 283:UI/calender.c ****         if (HAL_OK != HAL_RTC_SetDate(&hrtc, &sDate, RTC_FORMAT_BIN))
 448              		.loc 1 283 20 view .LVU117
 449 0220 8DF81B30 		strb	r3, [sp, #27]
 284:UI/calender.c ****         {
 450              		.loc 1 284 9 is_stmt 1 view .LVU118
 284:UI/calender.c ****         {
 451              		.loc 1 284 23 is_stmt 0 view .LVU119
 452 0224 06A9     		add	r1, sp, #24
 453 0226 1B48     		ldr	r0, .L16+40
 454 0228 FFF7FEFF 		bl	HAL_RTC_SetDate
 455              	.LVL60:
 284:UI/calender.c ****         {
 456              		.loc 1 284 12 view .LVU120
 457 022c D0B9     		cbnz	r0, .L15
 458              	.L10:
 289:UI/calender.c ****         //Set.visable = CHECKBOX_GetState(hItem);
 459              		.loc 1 289 9 is_stmt 1 view .LVU121
 289:UI/calender.c ****         //Set.visable = CHECKBOX_GetState(hItem);
 460              		.loc 1 289 17 is_stmt 0 view .LVU122
 461 022e 40F60501 		movw	r1, #2053
 462 0232 6068     		ldr	r0, [r4, #4]
 463 0234 FFF7FEFF 		bl	WM_GetDialogItem
 464              	.LVL61:
 293:UI/calender.c ****         WM_DeleteWindow(pMsg->hWin);
 465              		.loc 1 293 9 is_stmt 1 view .LVU123
 466 0238 6068     		ldr	r0, [r4, #4]
 467 023a FFF7FEFF 		bl	WM_InvalidateWindow
 468              	.LVL62:
 294:UI/calender.c ****         CreateSoftWare();
 469              		.loc 1 294 9 view .LVU124
 470 023e 6068     		ldr	r0, [r4, #4]
 471 0240 FFF7FEFF 		bl	WM_DeleteWindow
 472              	.LVL63:
 295:UI/calender.c ****         // USER END
 473              		.loc 1 295 9 view .LVU125
 474 0244 FFF7FEFF 		bl	CreateSoftWare
 475              	.LVL64:
 297:UI/calender.c ****         // USER START (Optionally insert additional code for further notification handling)
 476              		.loc 1 297 9 view .LVU126
 477 0248 13E7     		b	.L1
 478              	.LVL65:
 479              	.L7:
 236:UI/calender.c ****       {
 480              		.loc 1 236 7 discriminator 2 view .LVU127
 481 024a 022A     		cmp	r2, #2
 482 024c 7FF411AF 		bne	.L1
ARM GAS  C:\Users\gx\AppData\Local\Temp\cc4YDZlL.s 			page 17


 245:UI/calender.c ****         CreateSoftWare();
 483              		.loc 1 245 9 view .LVU128
 484 0250 6068     		ldr	r0, [r4, #4]
 485              	.LVL66:
 245:UI/calender.c ****         CreateSoftWare();
 486              		.loc 1 245 9 is_stmt 0 view .LVU129
 487 0252 FFF7FEFF 		bl	WM_DeleteWindow
 488              	.LVL67:
 246:UI/calender.c **** 
 489              		.loc 1 246 9 is_stmt 1 view .LVU130
 490 0256 FFF7FEFF 		bl	CreateSoftWare
 491              	.LVL68:
 249:UI/calender.c ****         // USER START (Optionally insert additional code for further notification handling)
 492              		.loc 1 249 9 view .LVU131
 493 025a 0AE7     		b	.L1
 494              	.L14:
 277:UI/calender.c ****         };
 495              		.loc 1 277 11 view .LVU132
 496 025c 0E48     		ldr	r0, .L16+44
 497 025e FFF7FEFF 		bl	puts
 498              	.LVL69:
 499 0262 D1E7     		b	.L9
 500              	.L15:
 286:UI/calender.c ****         }
 501              		.loc 1 286 11 view .LVU133
 502 0264 0D48     		ldr	r0, .L16+48
 503 0266 FFF7FEFF 		bl	puts
 504              	.LVL70:
 505 026a E0E7     		b	.L10
 506              	.L17:
 507              		.align	2
 508              	.L16:
 509 026c 8080FF00 		.word	16744576
 510 0270 00000000 		.word	GUI_Font20_1
 511 0274 00000000 		.word	.LC0
 512 0278 04000000 		.word	.LC1
 513 027c 00000000 		.word	GUI_Font20B_1
 514 0280 00000000 		.word	RTC_Time
 515 0284 0C000000 		.word	.LC2
 516 0288 00000000 		.word	RTC_Date
 517 028c 00000000 		.word	.LANCHOR0
 518 0290 00000000 		.word	Date
 519 0294 00000000 		.word	hrtc
 520 0298 14000000 		.word	.LC3
 521 029c 24000000 		.word	.LC4
 522              		.cfi_endproc
 523              	.LFE126:
 525              		.section	.text.CalenderWindow,"ax",%progbits
 526              		.align	1
 527              		.global	CalenderWindow
 528              		.syntax unified
 529              		.thumb
 530              		.thumb_func
 531              		.fpu fpv4-sp-d16
 533              	CalenderWindow:
 534              	.LFB127:
 313:UI/calender.c **** 
ARM GAS  C:\Users\gx\AppData\Local\Temp\cc4YDZlL.s 			page 18


 314:UI/calender.c **** /*********************************************************************
 315:UI/calender.c **** *
 316:UI/calender.c **** *       Public code
 317:UI/calender.c **** *
 318:UI/calender.c **** **********************************************************************
 319:UI/calender.c **** */
 320:UI/calender.c **** /*********************************************************************
 321:UI/calender.c **** *
 322:UI/calender.c **** *       CreateWindow
 323:UI/calender.c **** */
 324:UI/calender.c **** WM_HWIN CalenderWindow(void);
 325:UI/calender.c **** WM_HWIN CalenderWindow(void)
 326:UI/calender.c **** {
 535              		.loc 1 326 1 view -0
 536              		.cfi_startproc
 537              		@ args = 0, pretend = 0, frame = 0
 538              		@ frame_needed = 0, uses_anonymous_args = 0
 539 0000 00B5     		push	{lr}
 540              	.LCFI4:
 541              		.cfi_def_cfa_offset 4
 542              		.cfi_offset 14, -4
 543 0002 83B0     		sub	sp, sp, #12
 544              	.LCFI5:
 545              		.cfi_def_cfa_offset 16
 327:UI/calender.c ****   WM_HWIN hWin;
 546              		.loc 1 327 3 view .LVU135
 328:UI/calender.c **** 
 329:UI/calender.c ****   hWin = GUI_CreateDialogBox(_aDialogCreate, GUI_COUNTOF(_aDialogCreate), _cbDialog, WM_HBKWIN, 0, 
 547              		.loc 1 329 3 view .LVU136
 548              		.loc 1 329 10 is_stmt 0 view .LVU137
 549 0004 FFF7FEFF 		bl	WM_GetDesktopWindow
 550              	.LVL71:
 551 0008 0346     		mov	r3, r0
 552 000a 0022     		movs	r2, #0
 553 000c 0192     		str	r2, [sp, #4]
 554 000e 0092     		str	r2, [sp]
 555 0010 034A     		ldr	r2, .L20
 556 0012 0721     		movs	r1, #7
 557 0014 0348     		ldr	r0, .L20+4
 558 0016 FFF7FEFF 		bl	GUI_CreateDialogBox
 559              	.LVL72:
 330:UI/calender.c ****   return hWin;
 560              		.loc 1 330 3 is_stmt 1 view .LVU138
 331:UI/calender.c **** }
 561              		.loc 1 331 1 is_stmt 0 view .LVU139
 562 001a 03B0     		add	sp, sp, #12
 563              	.LCFI6:
 564              		.cfi_def_cfa_offset 4
 565              		@ sp needed
 566 001c 5DF804FB 		ldr	pc, [sp], #4
 567              	.L21:
 568              		.align	2
 569              	.L20:
 570 0020 00000000 		.word	_cbDialog
 571 0024 00000000 		.word	.LANCHOR1
 572              		.cfi_endproc
 573              	.LFE127:
ARM GAS  C:\Users\gx\AppData\Local\Temp\cc4YDZlL.s 			page 19


 575              		.comm	Sec,4,4
 576              		.comm	Min,4,4
 577              		.comm	Hour,4,4
 578              		.comm	Date,12,4
 579              		.section	.rodata.str1.4,"aMS",%progbits,1
 580              		.align	2
 581              	.LC5:
 582 0000 57696E64 		.ascii	"Window\000"
 582      6F7700
 583 0007 00       		.align	2
 584              	.LC6:
 585 0008 5370696E 		.ascii	"Spinbox\000"
 585      626F7800 
 586              		.align	2
 587              	.LC7:
 588 0010 63686563 		.ascii	"check\000"
 588      6B00
 589 0016 0000     		.align	2
 590              	.LC8:
 591 0018 43414E43 		.ascii	"CANCEL\000"
 591      454C00
 592 001f 00       		.align	2
 593              	.LC9:
 594 0020 4F4B00   		.ascii	"OK\000"
 595              		.section	.bss.hCalen.19871,"aw",%nobits
 596              		.align	2
 597              		.set	.LANCHOR0,. + 0
 600              	hCalen.19871:
 601 0000 00000000 		.space	4
 602              		.section	.rodata._aDialogCreate,"a"
 603              		.align	2
 604              		.set	.LANCHOR1,. + 0
 607              	_aDialogCreate:
 608 0000 00000000 		.word	WINDOW_CreateIndirect
 609 0004 00000000 		.word	.LC5
 610 0008 0008     		.short	2048
 611 000a 0000     		.short	0
 612 000c 2800     		.short	40
 613 000e E001     		.short	480
 614 0010 1801     		.short	280
 615 0012 0000     		.short	0
 616 0014 00000000 		.word	0
 617 0018 00000000 		.word	0
 618 001c 00000000 		.word	SPINBOX_CreateIndirect
 619 0020 08000000 		.word	.LC6
 620 0024 0708     		.short	2055
 621 0026 6400     		.short	100
 622 0028 F000     		.short	240
 623 002a 3700     		.short	55
 624 002c 2800     		.short	40
 625 002e 0000     		.short	0
 626 0030 00000000 		.word	0
 627 0034 00000000 		.word	0
 628 0038 00000000 		.word	SPINBOX_CreateIndirect
 629 003c 08000000 		.word	.LC6
 630 0040 0808     		.short	2056
 631 0042 AA00     		.short	170
ARM GAS  C:\Users\gx\AppData\Local\Temp\cc4YDZlL.s 			page 20


 632 0044 F000     		.short	240
 633 0046 3700     		.short	55
 634 0048 2800     		.short	40
 635 004a 0000     		.short	0
 636 004c 00000000 		.word	0
 637 0050 00000000 		.word	0
 638 0054 00000000 		.word	SPINBOX_CreateIndirect
 639 0058 08000000 		.word	.LC6
 640 005c 0908     		.short	2057
 641 005e F000     		.short	240
 642 0060 F000     		.short	240
 643 0062 3700     		.short	55
 644 0064 2800     		.short	40
 645 0066 0000     		.short	0
 646 0068 00000000 		.word	0
 647 006c 00000000 		.word	0
 648 0070 00000000 		.word	CHECKBOX_CreateIndirect
 649 0074 10000000 		.word	.LC7
 650 0078 0508     		.short	2053
 651 007a 5901     		.short	345
 652 007c 2800     		.short	40
 653 007e 6400     		.short	100
 654 0080 1400     		.short	20
 655 0082 0000     		.short	0
 656 0084 00000000 		.word	0
 657 0088 00000000 		.word	0
 658 008c 00000000 		.word	BUTTON_CreateIndirect
 659 0090 18000000 		.word	.LC8
 660 0094 0308     		.short	2051
 661 0096 5E01     		.short	350
 662 0098 A000     		.short	160
 663 009a 5000     		.short	80
 664 009c 2800     		.short	40
 665 009e 0000     		.short	0
 666 00a0 00000000 		.word	0
 667 00a4 00000000 		.word	0
 668 00a8 00000000 		.word	BUTTON_CreateIndirect
 669 00ac 20000000 		.word	.LC9
 670 00b0 0408     		.short	2052
 671 00b2 5E01     		.short	350
 672 00b4 E600     		.short	230
 673 00b6 5000     		.short	80
 674 00b8 2800     		.short	40
 675 00ba 0000     		.short	0
 676 00bc 00000000 		.word	0
 677 00c0 00000000 		.word	0
 678              		.text
 679              	.Letext0:
 680              		.file 2 "emWin/inc/LCD.h"
 681              		.file 3 "emWin/inc/GUI.h"
 682              		.file 4 "emWin/inc/GUI_Type.h"
 683              		.file 5 "emWin/inc/WM.h"
 684              		.file 6 "emWin/inc/DIALOG_Intern.h"
 685              		.file 7 "emWin/inc/LCD_Protected.h"
 686              		.file 8 "emWin/inc/GUI_Private.h"
 687              		.file 9 "emWin/inc/WM_Intern.h"
 688              		.file 10 "emWin/inc/WIDGET.h"
ARM GAS  C:\Users\gx\AppData\Local\Temp\cc4YDZlL.s 			page 21


 689              		.file 11 "emWin/inc/CALENDAR.h"
 690              		.file 12 "c:\\program files (x86)\\gnu arm embedded toolchain\\9 2020-q2-update\\arm-none-eabi\\in
 691              		.file 13 "c:\\program files (x86)\\gnu arm embedded toolchain\\9 2020-q2-update\\arm-none-eabi\\in
 692              		.file 14 "Drivers/CMSIS/Include/core_cm4.h"
 693              		.file 15 "Drivers/CMSIS/Device/ST/STM32F4xx/Include/system_stm32f4xx.h"
 694              		.file 16 "Drivers/CMSIS/Device/ST/STM32F4xx/Include/stm32f407xx.h"
 695              		.file 17 "c:\\program files (x86)\\gnu arm embedded toolchain\\9 2020-q2-update\\lib\\gcc\\arm-non
 696              		.file 18 "c:\\program files (x86)\\gnu arm embedded toolchain\\9 2020-q2-update\\arm-none-eabi\\in
 697              		.file 19 "c:\\program files (x86)\\gnu arm embedded toolchain\\9 2020-q2-update\\arm-none-eabi\\in
 698              		.file 20 "c:\\program files (x86)\\gnu arm embedded toolchain\\9 2020-q2-update\\arm-none-eabi\\in
 699              		.file 21 "Drivers/STM32F4xx_HAL_Driver/Inc/stm32f4xx_hal_def.h"
 700              		.file 22 "Drivers/STM32F4xx_HAL_Driver/Inc/stm32f4xx_hal_rtc.h"
 701              		.file 23 "Inc/rtc.h"
 702              		.file 24 "emWin/inc/BUTTON.h"
 703              		.file 25 "emWin/inc/SPINBOX.h"
 704              		.file 26 "emWin/inc/CHECKBOX.h"
 705              		.file 27 "<built-in>"
ARM GAS  C:\Users\gx\AppData\Local\Temp\cc4YDZlL.s 			page 22

