ARM GAS  C:\Users\gx\AppData\Local\Temp\ccjb4bzN.s 			page 1


   1              		.cpu cortex-m4
   2              		.eabi_attribute 27, 1
   3              		.eabi_attribute 28, 1
   4              		.eabi_attribute 20, 1
   5              		.eabi_attribute 21, 1
   6              		.eabi_attribute 23, 3
   7              		.eabi_attribute 24, 1
   8              		.eabi_attribute 25, 1
   9              		.eabi_attribute 26, 1
  10              		.eabi_attribute 30, 1
  11              		.eabi_attribute 34, 1
  12              		.eabi_attribute 18, 4
  13              		.file	"freertos.c"
  14              		.section	.rodata.str1.4,"aMS",%progbits,1
  15              		.align	2
  16              	.LC0:
  17 0000 64656661 		.ascii	"defaultTask\000"
  17      756C7454 
  17      61736B00 
  18              		.align	2
  19              	.LC2:
  20 000c 4C45445F 		.ascii	"LED_task\000"
  20      7461736B 
  20      00
  21 0015 000000   		.align	2
  22              	.LC4:
  23 0018 55495F74 		.ascii	"UI_task\000"
  23      61736B00 
  24              		.align	2
  25              	.LC6:
  26 0020 746F7563 		.ascii	"touch_task\000"
  26      685F7461 
  26      736B00
  27              		.text
  28              	.Ltext0:
  29              		.cfi_sections	.debug_frame
  30              		.section	.rodata.LED_Flicker.str1.4,"aMS",%progbits,1
  31              		.align	2
  32              	.LC8:
  33 0000 47434320 		.ascii	"GCC printf test\015\000"
  33      7072696E 
  33      74662074 
  33      6573740D 
  33      00
  34 0011 000000   		.align	2
  35              	.LC9:
  36 0014 5B746173 		.ascii	"[task information]\015\000"
  36      6B20696E 
  36      666F726D 
  36      6174696F 
  36      6E5D0D00 
  37              		.align	2
  38              	.LC10:
  39 0028 7461736B 		.ascii	"task name\011state\011prior\011stack\011number\015\000"
  39      206E616D 
  39      65097374 
  39      61746509 
ARM GAS  C:\Users\gx\AppData\Local\Temp\ccjb4bzN.s 			page 2


  39      7072696F 
  40              		.align	2
  41              	.LC11:
  42 004c 2D2D2D2D 		.ascii	"------------------------------------------------\015"
  42      2D2D2D2D 
  42      2D2D2D2D 
  42      2D2D2D2D 
  42      2D2D2D2D 
  43 007d 00       		.ascii	"\000"
  44 007e 0000     		.align	2
  45              	.LC12:
  46 0080 25730D0A 		.ascii	"%s\015\012\000"
  46      00
  47              		.section	.text.LED_Flicker,"ax",%progbits
  48              		.align	1
  49              		.global	LED_Flicker
  50              		.arch armv7e-m
  51              		.syntax unified
  52              		.thumb
  53              		.thumb_func
  54              		.fpu fpv4-sp-d16
  56              	LED_Flicker:
  57              	.LVL0:
  58              	.LFB131:
  59              		.file 1 "Src/freertos.c"
   1:Src/freertos.c **** /* USER CODE BEGIN Header */
   2:Src/freertos.c **** /**
   3:Src/freertos.c ****   ******************************************************************************
   4:Src/freertos.c ****   * File Name          : freertos.c
   5:Src/freertos.c ****   * Description        : Code for freertos applications
   6:Src/freertos.c ****   ******************************************************************************
   7:Src/freertos.c ****   * This notice applies to any and all portions of this file
   8:Src/freertos.c ****   * that are not between comment pairs USER CODE BEGIN and
   9:Src/freertos.c ****   * USER CODE END. Other portions of this file, whether 
  10:Src/freertos.c ****   * inserted by the user or by software development tools
  11:Src/freertos.c ****   * are owned by their respective copyright owners.
  12:Src/freertos.c ****   *
  13:Src/freertos.c ****   * Copyright (c) 2020 STMicroelectronics International N.V. 
  14:Src/freertos.c ****   * All rights reserved.
  15:Src/freertos.c ****   *
  16:Src/freertos.c ****   * Redistribution and use in source and binary forms, with or without 
  17:Src/freertos.c ****   * modification, are permitted, provided that the following conditions are met:
  18:Src/freertos.c ****   *
  19:Src/freertos.c ****   * 1. Redistribution of source code must retain the above copyright notice, 
  20:Src/freertos.c ****   *    this list of conditions and the following disclaimer.
  21:Src/freertos.c ****   * 2. Redistributions in binary form must reproduce the above copyright notice,
  22:Src/freertos.c ****   *    this list of conditions and the following disclaimer in the documentation
  23:Src/freertos.c ****   *    and/or other materials provided with the distribution.
  24:Src/freertos.c ****   * 3. Neither the name of STMicroelectronics nor the names of other 
  25:Src/freertos.c ****   *    contributors to this software may be used to endorse or promote products 
  26:Src/freertos.c ****   *    derived from this software without specific written permission.
  27:Src/freertos.c ****   * 4. This software, including modifications and/or derivative works of this 
  28:Src/freertos.c ****   *    software, must execute solely and exclusively on microcontroller or
  29:Src/freertos.c ****   *    microprocessor devices manufactured by or for STMicroelectronics.
  30:Src/freertos.c ****   * 5. Redistribution and use of this software other than as permitted under 
  31:Src/freertos.c ****   *    this license is void and will automatically terminate your rights under 
  32:Src/freertos.c ****   *    this license. 
ARM GAS  C:\Users\gx\AppData\Local\Temp\ccjb4bzN.s 			page 3


  33:Src/freertos.c ****   *
  34:Src/freertos.c ****   * THIS SOFTWARE IS PROVIDED BY STMICROELECTRONICS AND CONTRIBUTORS "AS IS" 
  35:Src/freertos.c ****   * AND ANY EXPRESS, IMPLIED OR STATUTORY WARRANTIES, INCLUDING, BUT NOT 
  36:Src/freertos.c ****   * LIMITED TO, THE IMPLIED WARRANTIES OF MERCHANTABILITY, FITNESS FOR A 
  37:Src/freertos.c ****   * PARTICULAR PURPOSE AND NON-INFRINGEMENT OF THIRD PARTY INTELLECTUAL PROPERTY
  38:Src/freertos.c ****   * RIGHTS ARE DISCLAIMED TO THE FULLEST EXTENT PERMITTED BY LAW. IN NO EVENT 
  39:Src/freertos.c ****   * SHALL STMICROELECTRONICS OR CONTRIBUTORS BE LIABLE FOR ANY DIRECT, INDIRECT,
  40:Src/freertos.c ****   * INCIDENTAL, SPECIAL, EXEMPLARY, OR CONSEQUENTIAL DAMAGES (INCLUDING, BUT NOT
  41:Src/freertos.c ****   * LIMITED TO, PROCUREMENT OF SUBSTITUTE GOODS OR SERVICES; LOSS OF USE, DATA, 
  42:Src/freertos.c ****   * OR PROFITS; OR BUSINESS INTERRUPTION) HOWEVER CAUSED AND ON ANY THEORY OF 
  43:Src/freertos.c ****   * LIABILITY, WHETHER IN CONTRACT, STRICT LIABILITY, OR TORT (INCLUDING 
  44:Src/freertos.c ****   * NEGLIGENCE OR OTHERWISE) ARISING IN ANY WAY OUT OF THE USE OF THIS SOFTWARE,
  45:Src/freertos.c ****   * EVEN IF ADVISED OF THE POSSIBILITY OF SUCH DAMAGE.
  46:Src/freertos.c ****   *
  47:Src/freertos.c ****   ******************************************************************************
  48:Src/freertos.c ****   */
  49:Src/freertos.c **** /* USER CODE END Header */
  50:Src/freertos.c **** 
  51:Src/freertos.c **** /* Includes ------------------------------------------------------------------*/
  52:Src/freertos.c **** #include "FreeRTOS.h"
  53:Src/freertos.c **** #include "task.h"
  54:Src/freertos.c **** #include "main.h"
  55:Src/freertos.c **** #include "cmsis_os.h"
  56:Src/freertos.c **** 
  57:Src/freertos.c **** /* Private includes ----------------------------------------------------------*/
  58:Src/freertos.c **** /* USER CODE BEGIN Includes */     
  59:Src/freertos.c **** 
  60:Src/freertos.c **** 
  61:Src/freertos.c **** /*
  62:Src/freertos.c **** void LCD_Init(void);
  63:Src/freertos.c **** void LCD_Clear(uin16_t Color);
  64:Src/freertos.c **** */
  65:Src/freertos.c **** osThreadId LEDHandle;
  66:Src/freertos.c **** char pWriteBuffer[2048];
  67:Src/freertos.c **** void LED_Flicker(void *pvparameters)
  68:Src/freertos.c **** {
  60              		.loc 1 68 1 view -0
  61              		.cfi_startproc
  62              		@ Volatile: function does not return.
  63              		@ args = 0, pretend = 0, frame = 0
  64              		@ frame_needed = 0, uses_anonymous_args = 0
  65              		.loc 1 68 1 is_stmt 0 view .LVU1
  66 0000 08B5     		push	{r3, lr}
  67              	.LCFI0:
  68              		.cfi_def_cfa_offset 8
  69              		.cfi_offset 3, -8
  70              		.cfi_offset 14, -4
  69:Src/freertos.c ****   vTaskDelay(500);
  71              		.loc 1 69 3 is_stmt 1 view .LVU2
  72 0002 4FF4FA70 		mov	r0, #500
  73              	.LVL1:
  74              		.loc 1 69 3 is_stmt 0 view .LVU3
  75 0006 FFF7FEFF 		bl	vTaskDelay
  76              	.LVL2:
  70:Src/freertos.c ****   printf("GCC printf test\r\n");
  77              		.loc 1 70 3 is_stmt 1 view .LVU4
  78 000a 0F48     		ldr	r0, .L4
ARM GAS  C:\Users\gx\AppData\Local\Temp\ccjb4bzN.s 			page 4


  79 000c FFF7FEFF 		bl	puts
  80              	.LVL3:
  81              	.L2:
  71:Src/freertos.c **** 
  72:Src/freertos.c ****   while (1)
  82              		.loc 1 72 3 discriminator 1 view .LVU5
  73:Src/freertos.c ****   {
  74:Src/freertos.c ****     HAL_GPIO_TogglePin(GPIOF, GPIO_PIN_9 | GPIO_PIN_10);
  83              		.loc 1 74 5 discriminator 1 view .LVU6
  84 0010 4FF4C061 		mov	r1, #1536
  85 0014 0D48     		ldr	r0, .L4+4
  86 0016 FFF7FEFF 		bl	HAL_GPIO_TogglePin
  87              	.LVL4:
  75:Src/freertos.c ****     vTaskDelay(2000);
  88              		.loc 1 75 5 discriminator 1 view .LVU7
  89 001a 4FF4FA60 		mov	r0, #2000
  90 001e FFF7FEFF 		bl	vTaskDelay
  91              	.LVL5:
  76:Src/freertos.c **** 
  77:Src/freertos.c ****     vTaskList((char *)&pWriteBuffer);
  92              		.loc 1 77 5 discriminator 1 view .LVU8
  93 0022 0B4C     		ldr	r4, .L4+8
  94 0024 2046     		mov	r0, r4
  95 0026 FFF7FEFF 		bl	vTaskList
  96              	.LVL6:
  78:Src/freertos.c ****     printf("[task information]\r\n");
  97              		.loc 1 78 5 discriminator 1 view .LVU9
  98 002a 0A48     		ldr	r0, .L4+12
  99 002c FFF7FEFF 		bl	puts
 100              	.LVL7:
  79:Src/freertos.c ****     printf("task name\tstate\tprior\tstack\tnumber\r\n");
 101              		.loc 1 79 5 discriminator 1 view .LVU10
 102 0030 0948     		ldr	r0, .L4+16
 103 0032 FFF7FEFF 		bl	puts
 104              	.LVL8:
  80:Src/freertos.c ****     printf("------------------------------------------------\r\n");
 105              		.loc 1 80 5 discriminator 1 view .LVU11
 106 0036 0948     		ldr	r0, .L4+20
 107 0038 FFF7FEFF 		bl	puts
 108              	.LVL9:
  81:Src/freertos.c ****     printf("%s\r\n", pWriteBuffer);
 109              		.loc 1 81 5 discriminator 1 view .LVU12
 110 003c 2146     		mov	r1, r4
 111 003e 0848     		ldr	r0, .L4+24
 112 0040 FFF7FEFF 		bl	printf
 113              	.LVL10:
  72:Src/freertos.c ****   {
 114              		.loc 1 72 9 discriminator 1 view .LVU13
 115 0044 E4E7     		b	.L2
 116              	.L5:
 117 0046 00BF     		.align	2
 118              	.L4:
 119 0048 00000000 		.word	.LC8
 120 004c 00140240 		.word	1073878016
 121 0050 00000000 		.word	pWriteBuffer
 122 0054 14000000 		.word	.LC9
 123 0058 28000000 		.word	.LC10
ARM GAS  C:\Users\gx\AppData\Local\Temp\ccjb4bzN.s 			page 5


 124 005c 4C000000 		.word	.LC11
 125 0060 80000000 		.word	.LC12
 126              		.cfi_endproc
 127              	.LFE131:
 129              		.section	.text.UI_task,"ax",%progbits
 130              		.align	1
 131              		.global	UI_task
 132              		.syntax unified
 133              		.thumb
 134              		.thumb_func
 135              		.fpu fpv4-sp-d16
 137              	UI_task:
 138              	.LVL11:
 139              	.LFB132:
  82:Src/freertos.c ****   }
  83:Src/freertos.c **** }
  84:Src/freertos.c **** 
  85:Src/freertos.c **** osThreadId UIHandle;
  86:Src/freertos.c **** 
  87:Src/freertos.c **** #ifdef EMWIN
  88:Src/freertos.c **** 
  89:Src/freertos.c **** #include "lcd.h"
  90:Src/freertos.c **** #include "GUIDEMO.h"
  91:Src/freertos.c **** #include "GUI.h"
  92:Src/freertos.c **** #include "touch.h"
  93:Src/freertos.c **** 
  94:Src/freertos.c **** extern WM_HWIN CreateSoftWare(void);
  95:Src/freertos.c **** extern WM_HWIN HeadWindow(void);
  96:Src/freertos.c **** extern void GIFTask(void); 
  97:Src/freertos.c **** 
  98:Src/freertos.c **** 
  99:Src/freertos.c **** /*
 100:Src/freertos.c **** extern void GUIDEMO_Main();
 101:Src/freertos.c **** STemWin/GUI_DEMO/GUIDEMO_Bitmap.c \
 102:Src/freertos.c **** STemWin/GUI_DEMO/GUIDEMO_ColorBar.c \
 103:Src/freertos.c **** STemWin/GUI_DEMO/GUIDEMO_Conf.c \
 104:Src/freertos.c **** STemWin/GUI_DEMO/GUIDEMO_Cursor.c \
 105:Src/freertos.c **** STemWin/GUI_DEMO/GUIDEMO_Graph.c \
 106:Src/freertos.c **** STemWin/GUI_DEMO/GUIDEMO_IconView.c \
 107:Src/freertos.c **** STemWin/GUI_DEMO/GUIDEMO_Intro.c \
 108:Src/freertos.c **** STemWin/GUI_DEMO/GUIDEMO_Listview.c \
 109:Src/freertos.c **** STemWin/GUI_DEMO/GUIDEMO_RadialMenu.c \
 110:Src/freertos.c **** STemWin/GUI_DEMO/GUIDEMO_Resource.c \
 111:Src/freertos.c **** STemWin/GUI_DEMO/GUIDEMO_Speed.c \
 112:Src/freertos.c **** STemWin/GUI_DEMO/GUIDEMO_Start.c \
 113:Src/freertos.c **** STemWin/GUI_DEMO/GUIDEMO_Treeview.c \
 114:Src/freertos.c **** STemWin/GUI_DEMO/GUIDEMO_VScreen.c \
 115:Src/freertos.c **** STemWin/GUI_DEMO/GUIDEMO.c
 116:Src/freertos.c **** */
 117:Src/freertos.c **** extern void GUIDEMO_Main(void);
 118:Src/freertos.c **** 
 119:Src/freertos.c **** void UI_task(void *pvparameters)
 120:Src/freertos.c **** {
 140              		.loc 1 120 1 view -0
 141              		.cfi_startproc
 142              		@ Volatile: function does not return.
 143              		@ args = 0, pretend = 0, frame = 0
ARM GAS  C:\Users\gx\AppData\Local\Temp\ccjb4bzN.s 			page 6


 144              		@ frame_needed = 0, uses_anonymous_args = 0
 145              		.loc 1 120 1 is_stmt 0 view .LVU15
 146 0000 08B5     		push	{r3, lr}
 147              	.LCFI1:
 148              		.cfi_def_cfa_offset 8
 149              		.cfi_offset 3, -8
 150              		.cfi_offset 14, -4
 121:Src/freertos.c **** 
 122:Src/freertos.c ****   LCD_Init();
 151              		.loc 1 122 3 is_stmt 1 view .LVU16
 152 0002 FFF7FEFF 		bl	LCD_Init
 153              	.LVL12:
 123:Src/freertos.c ****   WM_SetCreateFlags(WM_CF_MEMDEV);
 154              		.loc 1 123 3 view .LVU17
 155 0006 0420     		movs	r0, #4
 156 0008 FFF7FEFF 		bl	WM_SetCreateFlags
 157              	.LVL13:
 124:Src/freertos.c ****   GUI_Init();
 158              		.loc 1 124 3 view .LVU18
 159 000c FFF7FEFF 		bl	GUI_Init
 160              	.LVL14:
 125:Src/freertos.c ****   // GUIDEMO_Main();
 126:Src/freertos.c ****   // GIFTask();
 127:Src/freertos.c ****   CreateSoftWare();
 161              		.loc 1 127 3 view .LVU19
 162 0010 FFF7FEFF 		bl	CreateSoftWare
 163              	.LVL15:
 128:Src/freertos.c ****   HeadWindow();
 164              		.loc 1 128 3 view .LVU20
 165 0014 FFF7FEFF 		bl	HeadWindow
 166              	.LVL16:
 167              	.L7:
 129:Src/freertos.c ****   while (1)
 168              		.loc 1 129 3 discriminator 1 view .LVU21
 130:Src/freertos.c ****   {
 131:Src/freertos.c ****     GUI_Exec();
 169              		.loc 1 131 5 discriminator 1 view .LVU22
 170 0018 FFF7FEFF 		bl	GUI_Exec
 171              	.LVL17:
 129:Src/freertos.c ****   while (1)
 172              		.loc 1 129 9 discriminator 1 view .LVU23
 173 001c FCE7     		b	.L7
 174              		.cfi_endproc
 175              	.LFE132:
 177              		.section	.text.Touch_task,"ax",%progbits
 178              		.align	1
 179              		.syntax unified
 180              		.thumb
 181              		.thumb_func
 182              		.fpu fpv4-sp-d16
 184              	Touch_task:
 185              	.LFB133:
 132:Src/freertos.c ****   }
 133:Src/freertos.c **** }
 134:Src/freertos.c **** 
 135:Src/freertos.c **** #else
 136:Src/freertos.c **** #include "lv_port_disp.h"
ARM GAS  C:\Users\gx\AppData\Local\Temp\ccjb4bzN.s 			page 7


 137:Src/freertos.c **** #include "lvgl/lvgl.h"
 138:Src/freertos.c **** #include "../lvgl/lvgl/examples/lv_examples.h"
 139:Src/freertos.c **** void lv_example_btn_3(void)
 140:Src/freertos.c **** {
 141:Src/freertos.c ****     /*Properties to transition*/
 142:Src/freertos.c ****     static lv_style_prop_t props[] = {
 143:Src/freertos.c ****             LV_STYLE_TRANSFORM_WIDTH, LV_STYLE_TRANSFORM_HEIGHT, LV_STYLE_TEXT_LETTER_SPACE, 0
 144:Src/freertos.c ****     };
 145:Src/freertos.c **** 
 146:Src/freertos.c ****     /*Transition descriptor when going back to the default state.
 147:Src/freertos.c ****      *Add some delay to be sure the press transition is visible even if the press was very short*/
 148:Src/freertos.c ****     static lv_style_transition_dsc_t transition_dsc_def;
 149:Src/freertos.c ****     lv_style_transition_dsc_init(&transition_dsc_def, props, lv_anim_path_overshoot, 250, 100, NULL
 150:Src/freertos.c **** 
 151:Src/freertos.c ****     /*Transition descriptor when going to pressed state.
 152:Src/freertos.c ****      *No delay, go to presses state immediately*/
 153:Src/freertos.c ****     static lv_style_transition_dsc_t transition_dsc_pr;
 154:Src/freertos.c ****     lv_style_transition_dsc_init(&transition_dsc_pr, props, lv_anim_path_ease_in_out, 250, 0, NULL)
 155:Src/freertos.c **** 
 156:Src/freertos.c ****     /*Add only the new transition to he default state*/
 157:Src/freertos.c ****     static lv_style_t style_def;
 158:Src/freertos.c ****     lv_style_init(&style_def);
 159:Src/freertos.c ****     lv_style_set_transition(&style_def, &transition_dsc_def);
 160:Src/freertos.c **** 
 161:Src/freertos.c ****     /*Add the transition and some transformation to the presses state.*/
 162:Src/freertos.c ****     static lv_style_t style_pr;
 163:Src/freertos.c ****     lv_style_init(&style_pr);
 164:Src/freertos.c ****     lv_style_set_transform_width(&style_pr, 10);
 165:Src/freertos.c ****     lv_style_set_transform_height(&style_pr, -10);
 166:Src/freertos.c ****     lv_style_set_text_letter_space(&style_pr, 10);
 167:Src/freertos.c ****     lv_style_set_transition(&style_pr, &transition_dsc_pr);
 168:Src/freertos.c **** 
 169:Src/freertos.c ****     lv_obj_t * btn1 = lv_btn_create(lv_scr_act());
 170:Src/freertos.c ****     lv_obj_align(btn1, LV_ALIGN_CENTER, 0, -80);
 171:Src/freertos.c ****     lv_obj_add_style(btn1, &style_pr, LV_STATE_PRESSED);
 172:Src/freertos.c ****     lv_obj_add_style(btn1, &style_def, 0);
 173:Src/freertos.c **** 
 174:Src/freertos.c ****     lv_obj_t * label = lv_label_create(btn1);
 175:Src/freertos.c ****     lv_label_set_text(label, "Gum");
 176:Src/freertos.c **** }
 177:Src/freertos.c **** void UI_task(void *pvparameters)
 178:Src/freertos.c **** {
 179:Src/freertos.c ****   lv_init();
 180:Src/freertos.c ****   lv_port_disp_init();
 181:Src/freertos.c ****   lv_example_btn_3();
 182:Src/freertos.c ****   while(1)
 183:Src/freertos.c ****   {
 184:Src/freertos.c ****     vTaskDelay(5);
 185:Src/freertos.c ****     lv_task_handler();
 186:Src/freertos.c ****     lv_tick_inc(5);
 187:Src/freertos.c ****   }
 188:Src/freertos.c **** }
 189:Src/freertos.c **** #endif
 190:Src/freertos.c **** 
 191:Src/freertos.c **** osThreadId TouchHandle;
 192:Src/freertos.c **** static void Touch_task(void *pvParameters)//触摸
 193:Src/freertos.c **** {
ARM GAS  C:\Users\gx\AppData\Local\Temp\ccjb4bzN.s 			page 8


 186              		.loc 1 193 1 view -0
 187              		.cfi_startproc
 188              		@ Volatile: function does not return.
 189              		@ args = 0, pretend = 0, frame = 0
 190              		@ frame_needed = 0, uses_anonymous_args = 0
 191              	.LVL18:
 192              		.loc 1 193 1 is_stmt 0 view .LVU25
 193 0000 08B5     		push	{r3, lr}
 194              	.LCFI2:
 195              		.cfi_def_cfa_offset 8
 196              		.cfi_offset 3, -8
 197              		.cfi_offset 14, -4
 198              	.LVL19:
 199              	.L10:
 194:Src/freertos.c **** 	while(1)
 200              		.loc 1 194 2 is_stmt 1 discriminator 1 view .LVU26
 195:Src/freertos.c **** 	{
 196:Src/freertos.c ****     #ifdef EMWIN
 197:Src/freertos.c **** 		GUI_TOUCH_Exec();	
 201              		.loc 1 197 3 discriminator 1 view .LVU27
 202 0002 FFF7FEFF 		bl	GUI_TOUCH_Exec
 203              	.LVL20:
 198:Src/freertos.c ****     #endif
 199:Src/freertos.c **** 		vTaskDelay(10);
 204              		.loc 1 199 3 discriminator 1 view .LVU28
 205 0006 0A20     		movs	r0, #10
 206 0008 FFF7FEFF 		bl	vTaskDelay
 207              	.LVL21:
 194:Src/freertos.c **** 	{
 208              		.loc 1 194 7 discriminator 1 view .LVU29
 209 000c F9E7     		b	.L10
 210              		.cfi_endproc
 211              	.LFE133:
 213              		.section	.text.StartDefaultTask,"ax",%progbits
 214              		.align	1
 215              		.global	StartDefaultTask
 216              		.syntax unified
 217              		.thumb
 218              		.thumb_func
 219              		.fpu fpv4-sp-d16
 221              	StartDefaultTask:
 222              	.LVL22:
 223              	.LFB137:
 200:Src/freertos.c **** 	}
 201:Src/freertos.c **** }
 202:Src/freertos.c **** 
 203:Src/freertos.c **** /* USER CODE END Includes */
 204:Src/freertos.c **** 
 205:Src/freertos.c **** /* Private typedef -----------------------------------------------------------*/
 206:Src/freertos.c **** /* USER CODE BEGIN PTD */
 207:Src/freertos.c **** 
 208:Src/freertos.c **** /* USER CODE END PTD */
 209:Src/freertos.c **** 
 210:Src/freertos.c **** /* Private define ------------------------------------------------------------*/
 211:Src/freertos.c **** /* USER CODE BEGIN PD */
 212:Src/freertos.c **** 
 213:Src/freertos.c **** /* USER CODE END PD */
ARM GAS  C:\Users\gx\AppData\Local\Temp\ccjb4bzN.s 			page 9


 214:Src/freertos.c **** 
 215:Src/freertos.c **** /* Private macro -------------------------------------------------------------*/
 216:Src/freertos.c **** /* USER CODE BEGIN PM */
 217:Src/freertos.c **** 
 218:Src/freertos.c **** /* USER CODE END PM */
 219:Src/freertos.c **** 
 220:Src/freertos.c **** /* Private variables ---------------------------------------------------------*/
 221:Src/freertos.c **** /* USER CODE BEGIN Variables */
 222:Src/freertos.c **** 
 223:Src/freertos.c **** /* USER CODE END Variables */
 224:Src/freertos.c **** osThreadId defaultTaskHandle;
 225:Src/freertos.c **** 
 226:Src/freertos.c **** /* Private function prototypes -----------------------------------------------*/
 227:Src/freertos.c **** /* USER CODE BEGIN FunctionPrototypes */
 228:Src/freertos.c **** 
 229:Src/freertos.c **** /* USER CODE END FunctionPrototypes */
 230:Src/freertos.c **** 
 231:Src/freertos.c **** void StartDefaultTask(void const * argument);
 232:Src/freertos.c **** 
 233:Src/freertos.c **** extern void MX_FATFS_Init(void);
 234:Src/freertos.c **** extern void MX_USB_DEVICE_Init(void);
 235:Src/freertos.c **** void MX_FREERTOS_Init(void); /* (MISRA C 2004 rule 8.1) */
 236:Src/freertos.c **** 
 237:Src/freertos.c **** /* Pre/Post sleep processing prototypes */
 238:Src/freertos.c **** void PreSleepProcessing(uint32_t *ulExpectedIdleTime);
 239:Src/freertos.c **** void PostSleepProcessing(uint32_t *ulExpectedIdleTime);
 240:Src/freertos.c **** 
 241:Src/freertos.c **** /* USER CODE BEGIN PREPOSTSLEEP */
 242:Src/freertos.c **** __weak void PreSleepProcessing(uint32_t *ulExpectedIdleTime)
 243:Src/freertos.c **** {
 244:Src/freertos.c ****   /* place for user code */
 245:Src/freertos.c **** }
 246:Src/freertos.c **** 
 247:Src/freertos.c **** __weak void PostSleepProcessing(uint32_t *ulExpectedIdleTime)
 248:Src/freertos.c **** {
 249:Src/freertos.c ****   /* place for user code */
 250:Src/freertos.c **** }
 251:Src/freertos.c **** /* USER CODE END PREPOSTSLEEP */
 252:Src/freertos.c **** 
 253:Src/freertos.c **** /**
 254:Src/freertos.c ****   * @brief  FreeRTOS initialization
 255:Src/freertos.c ****   * @param  None
 256:Src/freertos.c ****   * @retval None
 257:Src/freertos.c ****   */
 258:Src/freertos.c **** void MX_FREERTOS_Init(void) {
 259:Src/freertos.c ****   /* USER CODE BEGIN Init */
 260:Src/freertos.c **** 
 261:Src/freertos.c ****   /* USER CODE END Init */
 262:Src/freertos.c **** 
 263:Src/freertos.c ****   /* USER CODE BEGIN RTOS_MUTEX */
 264:Src/freertos.c ****   /* add mutexes, ... */
 265:Src/freertos.c ****   /* USER CODE END RTOS_MUTEX */
 266:Src/freertos.c **** 
 267:Src/freertos.c ****   /* USER CODE BEGIN RTOS_SEMAPHORES */
 268:Src/freertos.c ****   /* add semaphores, ... */
 269:Src/freertos.c ****   /* USER CODE END RTOS_SEMAPHORES */
 270:Src/freertos.c **** 
ARM GAS  C:\Users\gx\AppData\Local\Temp\ccjb4bzN.s 			page 10


 271:Src/freertos.c ****   /* USER CODE BEGIN RTOS_TIMERS */
 272:Src/freertos.c ****   /* start timers, add new ones, ... */
 273:Src/freertos.c ****   /* USER CODE END RTOS_TIMERS */
 274:Src/freertos.c **** 
 275:Src/freertos.c ****   /* Create the thread(s) */
 276:Src/freertos.c ****   /* definition and creation of defaultTask */
 277:Src/freertos.c ****   osThreadDef(defaultTask, StartDefaultTask, osPriorityNormal, 0, 128);
 278:Src/freertos.c ****   defaultTaskHandle = osThreadCreate(osThread(defaultTask), NULL);
 279:Src/freertos.c **** 
 280:Src/freertos.c ****   /* USER CODE BEGIN RTOS_THREADS */
 281:Src/freertos.c ****   /* add threads, ... */
 282:Src/freertos.c ****   osThreadDef(LED_task, LED_Flicker, osPriorityNormal, 0, 128);
 283:Src/freertos.c ****   LEDHandle = osThreadCreate(osThread(LED_task), NULL);
 284:Src/freertos.c **** 
 285:Src/freertos.c ****   osThreadDef(UI_task, UI_task, osPriorityBelowNormal, 0, 1024 * 2);
 286:Src/freertos.c ****   UIHandle = osThreadCreate(osThread(UI_task), NULL);
 287:Src/freertos.c **** 
 288:Src/freertos.c ****     osThreadDef(touch_task, Touch_task, osPriorityBelowNormal, 0, 512);
 289:Src/freertos.c ****   TouchHandle = osThreadCreate(osThread(touch_task), NULL);
 290:Src/freertos.c ****   /* USER CODE END RTOS_THREADS */
 291:Src/freertos.c **** 
 292:Src/freertos.c ****   /* USER CODE BEGIN RTOS_QUEUES */
 293:Src/freertos.c ****   /* add queues, ... */
 294:Src/freertos.c ****   /* USER CODE END RTOS_QUEUES */
 295:Src/freertos.c **** }
 296:Src/freertos.c **** 
 297:Src/freertos.c **** /* USER CODE BEGIN Header_StartDefaultTask */
 298:Src/freertos.c **** /**
 299:Src/freertos.c ****   * @brief  Function implementing the defaultTask thread.
 300:Src/freertos.c ****   * @param  argument: Not used 
 301:Src/freertos.c ****   * @retval None
 302:Src/freertos.c ****   */
 303:Src/freertos.c **** /* USER CODE END Header_StartDefaultTask */
 304:Src/freertos.c **** void StartDefaultTask(void const * argument)
 305:Src/freertos.c **** {
 224              		.loc 1 305 1 view -0
 225              		.cfi_startproc
 226              		@ Volatile: function does not return.
 227              		@ args = 0, pretend = 0, frame = 0
 228              		@ frame_needed = 0, uses_anonymous_args = 0
 229              		.loc 1 305 1 is_stmt 0 view .LVU31
 230 0000 08B5     		push	{r3, lr}
 231              	.LCFI3:
 232              		.cfi_def_cfa_offset 8
 233              		.cfi_offset 3, -8
 234              		.cfi_offset 14, -4
 306:Src/freertos.c ****   /* init code for FATFS */
 307:Src/freertos.c ****   MX_FATFS_Init();
 235              		.loc 1 307 3 is_stmt 1 view .LVU32
 236 0002 FFF7FEFF 		bl	MX_FATFS_Init
 237              	.LVL23:
 308:Src/freertos.c **** 
 309:Src/freertos.c ****   /* init code for USB_DEVICE */
 310:Src/freertos.c ****   MX_USB_DEVICE_Init();
 238              		.loc 1 310 3 view .LVU33
 239 0006 FFF7FEFF 		bl	MX_USB_DEVICE_Init
 240              	.LVL24:
ARM GAS  C:\Users\gx\AppData\Local\Temp\ccjb4bzN.s 			page 11


 241              	.L13:
 311:Src/freertos.c **** 
 312:Src/freertos.c ****   /* USER CODE BEGIN StartDefaultTask */
 313:Src/freertos.c ****   /* Infinite loop */
 314:Src/freertos.c ****   for (;;)
 242              		.loc 1 314 3 discriminator 1 view .LVU34
 315:Src/freertos.c ****   {
 316:Src/freertos.c ****     osDelay(1);
 243              		.loc 1 316 5 discriminator 1 view .LVU35
 244 000a 0120     		movs	r0, #1
 245 000c FFF7FEFF 		bl	osDelay
 246              	.LVL25:
 314:Src/freertos.c ****   {
 247              		.loc 1 314 9 discriminator 1 view .LVU36
 248 0010 FBE7     		b	.L13
 249              		.cfi_endproc
 250              	.LFE137:
 252              		.section	.text.PreSleepProcessing,"ax",%progbits
 253              		.align	1
 254              		.weak	PreSleepProcessing
 255              		.syntax unified
 256              		.thumb
 257              		.thumb_func
 258              		.fpu fpv4-sp-d16
 260              	PreSleepProcessing:
 261              	.LVL26:
 262              	.LFB134:
 243:Src/freertos.c ****   /* place for user code */
 263              		.loc 1 243 1 view -0
 264              		.cfi_startproc
 265              		@ args = 0, pretend = 0, frame = 0
 266              		@ frame_needed = 0, uses_anonymous_args = 0
 267              		@ link register save eliminated.
 245:Src/freertos.c **** 
 268              		.loc 1 245 1 view .LVU38
 269 0000 7047     		bx	lr
 270              		.cfi_endproc
 271              	.LFE134:
 273              		.section	.text.PostSleepProcessing,"ax",%progbits
 274              		.align	1
 275              		.weak	PostSleepProcessing
 276              		.syntax unified
 277              		.thumb
 278              		.thumb_func
 279              		.fpu fpv4-sp-d16
 281              	PostSleepProcessing:
 282              	.LVL27:
 283              	.LFB135:
 248:Src/freertos.c ****   /* place for user code */
 284              		.loc 1 248 1 view -0
 285              		.cfi_startproc
 286              		@ args = 0, pretend = 0, frame = 0
 287              		@ frame_needed = 0, uses_anonymous_args = 0
 288              		@ link register save eliminated.
 250:Src/freertos.c **** /* USER CODE END PREPOSTSLEEP */
 289              		.loc 1 250 1 view .LVU40
 290 0000 7047     		bx	lr
ARM GAS  C:\Users\gx\AppData\Local\Temp\ccjb4bzN.s 			page 12


 291              		.cfi_endproc
 292              	.LFE135:
 294              		.section	.text.MX_FREERTOS_Init,"ax",%progbits
 295              		.align	1
 296              		.global	MX_FREERTOS_Init
 297              		.syntax unified
 298              		.thumb
 299              		.thumb_func
 300              		.fpu fpv4-sp-d16
 302              	MX_FREERTOS_Init:
 303              	.LFB136:
 258:Src/freertos.c ****   /* USER CODE BEGIN Init */
 304              		.loc 1 258 29 view -0
 305              		.cfi_startproc
 306              		@ args = 0, pretend = 0, frame = 80
 307              		@ frame_needed = 0, uses_anonymous_args = 0
 308 0000 70B5     		push	{r4, r5, r6, lr}
 309              	.LCFI4:
 310              		.cfi_def_cfa_offset 16
 311              		.cfi_offset 4, -16
 312              		.cfi_offset 5, -12
 313              		.cfi_offset 6, -8
 314              		.cfi_offset 14, -4
 315 0002 94B0     		sub	sp, sp, #80
 316              	.LCFI5:
 317              		.cfi_def_cfa_offset 96
 277:Src/freertos.c ****   defaultTaskHandle = osThreadCreate(osThread(defaultTask), NULL);
 318              		.loc 1 277 3 view .LVU42
 319 0004 1A4C     		ldr	r4, .L19
 320 0006 0FAD     		add	r5, sp, #60
 321 0008 2646     		mov	r6, r4
 322 000a 0FCE     		ldmia	r6!, {r0, r1, r2, r3}
 323 000c 0FC5     		stmia	r5!, {r0, r1, r2, r3}
 324 000e 3368     		ldr	r3, [r6]
 325 0010 2B60     		str	r3, [r5]
 278:Src/freertos.c **** 
 326              		.loc 1 278 3 view .LVU43
 278:Src/freertos.c **** 
 327              		.loc 1 278 23 is_stmt 0 view .LVU44
 328 0012 0021     		movs	r1, #0
 329 0014 0FA8     		add	r0, sp, #60
 330 0016 FFF7FEFF 		bl	osThreadCreate
 331              	.LVL28:
 278:Src/freertos.c **** 
 332              		.loc 1 278 21 view .LVU45
 333 001a 164B     		ldr	r3, .L19+4
 334 001c 1860     		str	r0, [r3]
 282:Src/freertos.c ****   LEDHandle = osThreadCreate(osThread(LED_task), NULL);
 335              		.loc 1 282 3 is_stmt 1 view .LVU46
 336 001e 0AAD     		add	r5, sp, #40
 337 0020 04F11406 		add	r6, r4, #20
 338 0024 0FCE     		ldmia	r6!, {r0, r1, r2, r3}
 339 0026 0FC5     		stmia	r5!, {r0, r1, r2, r3}
 340 0028 3368     		ldr	r3, [r6]
 341 002a 2B60     		str	r3, [r5]
 283:Src/freertos.c **** 
 342              		.loc 1 283 3 view .LVU47
ARM GAS  C:\Users\gx\AppData\Local\Temp\ccjb4bzN.s 			page 13


 283:Src/freertos.c **** 
 343              		.loc 1 283 15 is_stmt 0 view .LVU48
 344 002c 0021     		movs	r1, #0
 345 002e 0AA8     		add	r0, sp, #40
 346 0030 FFF7FEFF 		bl	osThreadCreate
 347              	.LVL29:
 283:Src/freertos.c **** 
 348              		.loc 1 283 13 view .LVU49
 349 0034 104B     		ldr	r3, .L19+8
 350 0036 1860     		str	r0, [r3]
 285:Src/freertos.c ****   UIHandle = osThreadCreate(osThread(UI_task), NULL);
 351              		.loc 1 285 3 is_stmt 1 view .LVU50
 352 0038 05AD     		add	r5, sp, #20
 353 003a 04F12806 		add	r6, r4, #40
 354 003e 0FCE     		ldmia	r6!, {r0, r1, r2, r3}
 355 0040 0FC5     		stmia	r5!, {r0, r1, r2, r3}
 356 0042 3368     		ldr	r3, [r6]
 357 0044 2B60     		str	r3, [r5]
 286:Src/freertos.c **** 
 358              		.loc 1 286 3 view .LVU51
 286:Src/freertos.c **** 
 359              		.loc 1 286 14 is_stmt 0 view .LVU52
 360 0046 0021     		movs	r1, #0
 361 0048 05A8     		add	r0, sp, #20
 362 004a FFF7FEFF 		bl	osThreadCreate
 363              	.LVL30:
 286:Src/freertos.c **** 
 364              		.loc 1 286 12 view .LVU53
 365 004e 0B4B     		ldr	r3, .L19+12
 366 0050 1860     		str	r0, [r3]
 288:Src/freertos.c ****   TouchHandle = osThreadCreate(osThread(touch_task), NULL);
 367              		.loc 1 288 5 is_stmt 1 view .LVU54
 368 0052 6D46     		mov	r5, sp
 369 0054 3C34     		adds	r4, r4, #60
 370 0056 0FCC     		ldmia	r4!, {r0, r1, r2, r3}
 371 0058 0FC5     		stmia	r5!, {r0, r1, r2, r3}
 372 005a 2368     		ldr	r3, [r4]
 373 005c 2B60     		str	r3, [r5]
 289:Src/freertos.c ****   /* USER CODE END RTOS_THREADS */
 374              		.loc 1 289 3 view .LVU55
 289:Src/freertos.c ****   /* USER CODE END RTOS_THREADS */
 375              		.loc 1 289 17 is_stmt 0 view .LVU56
 376 005e 0021     		movs	r1, #0
 377 0060 6846     		mov	r0, sp
 378 0062 FFF7FEFF 		bl	osThreadCreate
 379              	.LVL31:
 289:Src/freertos.c ****   /* USER CODE END RTOS_THREADS */
 380              		.loc 1 289 15 view .LVU57
 381 0066 064B     		ldr	r3, .L19+16
 382 0068 1860     		str	r0, [r3]
 295:Src/freertos.c **** 
 383              		.loc 1 295 1 view .LVU58
 384 006a 14B0     		add	sp, sp, #80
 385              	.LCFI6:
 386              		.cfi_def_cfa_offset 16
 387              		@ sp needed
 388 006c 70BD     		pop	{r4, r5, r6, pc}
ARM GAS  C:\Users\gx\AppData\Local\Temp\ccjb4bzN.s 			page 14


 389              	.L20:
 390 006e 00BF     		.align	2
 391              	.L19:
 392 0070 00000000 		.word	.LANCHOR0
 393 0074 00000000 		.word	defaultTaskHandle
 394 0078 00000000 		.word	LEDHandle
 395 007c 00000000 		.word	UIHandle
 396 0080 00000000 		.word	TouchHandle
 397              		.cfi_endproc
 398              	.LFE136:
 400              		.comm	defaultTaskHandle,4,4
 401              		.comm	TouchHandle,4,4
 402              		.comm	UIHandle,4,4
 403              		.comm	pWriteBuffer,2048,4
 404              		.comm	LEDHandle,4,4
 405              		.section	.rodata
 406              		.align	2
 407              		.set	.LANCHOR0,. + 0
 408              	.LC13:
 409 0000 00000000 		.word	.LC0
 410 0004 00000000 		.word	StartDefaultTask
 411 0008 0000     		.short	0
 412 000a 0000     		.space	2
 413 000c 00000000 		.word	0
 414 0010 80000000 		.word	128
 415              	.LC14:
 416 0014 0C000000 		.word	.LC2
 417 0018 00000000 		.word	LED_Flicker
 418 001c 0000     		.short	0
 419 001e 0000     		.space	2
 420 0020 00000000 		.word	0
 421 0024 80000000 		.word	128
 422              	.LC15:
 423 0028 18000000 		.word	.LC4
 424 002c 00000000 		.word	UI_task
 425 0030 FFFF     		.short	-1
 426 0032 0000     		.space	2
 427 0034 00000000 		.word	0
 428 0038 00080000 		.word	2048
 429              	.LC16:
 430 003c 20000000 		.word	.LC6
 431 0040 00000000 		.word	Touch_task
 432 0044 FFFF     		.short	-1
 433 0046 0000     		.space	2
 434 0048 00000000 		.word	0
 435 004c 00020000 		.word	512
 436              		.text
 437              	.Letext0:
 438              		.file 2 "c:\\program files (x86)\\gnu arm embedded toolchain\\9 2020-q2-update\\arm-none-eabi\\inc
 439              		.file 3 "c:\\program files (x86)\\gnu arm embedded toolchain\\9 2020-q2-update\\arm-none-eabi\\inc
 440              		.file 4 "Middlewares/Third_Party/FreeRTOS/Source/include/task.h"
 441              		.file 5 "Inc/FreeRTOSConfig.h"
 442              		.file 6 "Drivers/CMSIS/Include/core_cm4.h"
 443              		.file 7 "Drivers/CMSIS/Device/ST/STM32F4xx/Include/system_stm32f4xx.h"
 444              		.file 8 "Drivers/CMSIS/Device/ST/STM32F4xx/Include/stm32f407xx.h"
 445              		.file 9 "c:\\program files (x86)\\gnu arm embedded toolchain\\9 2020-q2-update\\lib\\gcc\\arm-none
 446              		.file 10 "c:\\program files (x86)\\gnu arm embedded toolchain\\9 2020-q2-update\\arm-none-eabi\\in
ARM GAS  C:\Users\gx\AppData\Local\Temp\ccjb4bzN.s 			page 15


 447              		.file 11 "c:\\program files (x86)\\gnu arm embedded toolchain\\9 2020-q2-update\\arm-none-eabi\\in
 448              		.file 12 "c:\\program files (x86)\\gnu arm embedded toolchain\\9 2020-q2-update\\arm-none-eabi\\in
 449              		.file 13 "Middlewares/Third_Party/FreeRTOS/Source/CMSIS_RTOS/cmsis_os.h"
 450              		.file 14 "emWin/inc/LCD.h"
 451              		.file 15 "emWin/inc/GUI.h"
 452              		.file 16 "emWin/inc/GUI_Type.h"
 453              		.file 17 "emWin/inc/WM.h"
 454              		.file 18 "emWin/inc/LCD_Protected.h"
 455              		.file 19 "emWin/inc/GUI_Private.h"
 456              		.file 20 "emWin/inc/WM_Intern.h"
 457              		.file 21 "emWin/inc/WIDGET.h"
 458              		.file 22 "emWin/GUI_Demo/GUIDEMO.h"
 459              		.file 23 "user/lcd.h"
 460              		.file 24 "Drivers/STM32F4xx_HAL_Driver/Inc/stm32f4xx_hal_gpio.h"
 461              		.file 25 "c:\\program files (x86)\\gnu arm embedded toolchain\\9 2020-q2-update\\arm-none-eabi\\in
 462              		.file 26 "<built-in>"
ARM GAS  C:\Users\gx\AppData\Local\Temp\ccjb4bzN.s 			page 16

