ARM GAS  C:\Users\gx\AppData\Local\Temp\ccN2xjep.s 			page 1


   1              		.cpu cortex-m4
   2              		.eabi_attribute 27, 1
   3              		.eabi_attribute 28, 1
   4              		.eabi_attribute 20, 1
   5              		.eabi_attribute 21, 1
   6              		.eabi_attribute 23, 3
   7              		.eabi_attribute 24, 1
   8              		.eabi_attribute 25, 1
   9              		.eabi_attribute 26, 1
  10              		.eabi_attribute 30, 1
  11              		.eabi_attribute 34, 1
  12              		.eabi_attribute 18, 4
  13              		.file	"gpio.c"
  14              		.text
  15              	.Ltext0:
  16              		.cfi_sections	.debug_frame
  17              		.section	.text.MX_GPIO_Init,"ax",%progbits
  18              		.align	1
  19              		.global	MX_GPIO_Init
  20              		.arch armv7e-m
  21              		.syntax unified
  22              		.thumb
  23              		.thumb_func
  24              		.fpu fpv4-sp-d16
  26              	MX_GPIO_Init:
  27              	.LFB126:
  28              		.file 1 "Src/gpio.c"
   1:Src/gpio.c    **** /**
   2:Src/gpio.c    ****   ******************************************************************************
   3:Src/gpio.c    ****   * File Name          : gpio.c
   4:Src/gpio.c    ****   * Description        : This file provides code for the configuration
   5:Src/gpio.c    ****   *                      of all used GPIO pins.
   6:Src/gpio.c    ****   ******************************************************************************
   7:Src/gpio.c    ****   * This notice applies to any and all portions of this file
   8:Src/gpio.c    ****   * that are not between comment pairs USER CODE BEGIN and
   9:Src/gpio.c    ****   * USER CODE END. Other portions of this file, whether 
  10:Src/gpio.c    ****   * inserted by the user or by software development tools
  11:Src/gpio.c    ****   * are owned by their respective copyright owners.
  12:Src/gpio.c    ****   *
  13:Src/gpio.c    ****   * Copyright (c) 2020 STMicroelectronics International N.V. 
  14:Src/gpio.c    ****   * All rights reserved.
  15:Src/gpio.c    ****   *
  16:Src/gpio.c    ****   * Redistribution and use in source and binary forms, with or without 
  17:Src/gpio.c    ****   * modification, are permitted, provided that the following conditions are met:
  18:Src/gpio.c    ****   *
  19:Src/gpio.c    ****   * 1. Redistribution of source code must retain the above copyright notice, 
  20:Src/gpio.c    ****   *    this list of conditions and the following disclaimer.
  21:Src/gpio.c    ****   * 2. Redistributions in binary form must reproduce the above copyright notice,
  22:Src/gpio.c    ****   *    this list of conditions and the following disclaimer in the documentation
  23:Src/gpio.c    ****   *    and/or other materials provided with the distribution.
  24:Src/gpio.c    ****   * 3. Neither the name of STMicroelectronics nor the names of other 
  25:Src/gpio.c    ****   *    contributors to this software may be used to endorse or promote products 
  26:Src/gpio.c    ****   *    derived from this software without specific written permission.
  27:Src/gpio.c    ****   * 4. This software, including modifications and/or derivative works of this 
  28:Src/gpio.c    ****   *    software, must execute solely and exclusively on microcontroller or
  29:Src/gpio.c    ****   *    microprocessor devices manufactured by or for STMicroelectronics.
  30:Src/gpio.c    ****   * 5. Redistribution and use of this software other than as permitted under 
ARM GAS  C:\Users\gx\AppData\Local\Temp\ccN2xjep.s 			page 2


  31:Src/gpio.c    ****   *    this license is void and will automatically terminate your rights under 
  32:Src/gpio.c    ****   *    this license. 
  33:Src/gpio.c    ****   *
  34:Src/gpio.c    ****   * THIS SOFTWARE IS PROVIDED BY STMICROELECTRONICS AND CONTRIBUTORS "AS IS" 
  35:Src/gpio.c    ****   * AND ANY EXPRESS, IMPLIED OR STATUTORY WARRANTIES, INCLUDING, BUT NOT 
  36:Src/gpio.c    ****   * LIMITED TO, THE IMPLIED WARRANTIES OF MERCHANTABILITY, FITNESS FOR A 
  37:Src/gpio.c    ****   * PARTICULAR PURPOSE AND NON-INFRINGEMENT OF THIRD PARTY INTELLECTUAL PROPERTY
  38:Src/gpio.c    ****   * RIGHTS ARE DISCLAIMED TO THE FULLEST EXTENT PERMITTED BY LAW. IN NO EVENT 
  39:Src/gpio.c    ****   * SHALL STMICROELECTRONICS OR CONTRIBUTORS BE LIABLE FOR ANY DIRECT, INDIRECT,
  40:Src/gpio.c    ****   * INCIDENTAL, SPECIAL, EXEMPLARY, OR CONSEQUENTIAL DAMAGES (INCLUDING, BUT NOT
  41:Src/gpio.c    ****   * LIMITED TO, PROCUREMENT OF SUBSTITUTE GOODS OR SERVICES; LOSS OF USE, DATA, 
  42:Src/gpio.c    ****   * OR PROFITS; OR BUSINESS INTERRUPTION) HOWEVER CAUSED AND ON ANY THEORY OF 
  43:Src/gpio.c    ****   * LIABILITY, WHETHER IN CONTRACT, STRICT LIABILITY, OR TORT (INCLUDING 
  44:Src/gpio.c    ****   * NEGLIGENCE OR OTHERWISE) ARISING IN ANY WAY OUT OF THE USE OF THIS SOFTWARE,
  45:Src/gpio.c    ****   * EVEN IF ADVISED OF THE POSSIBILITY OF SUCH DAMAGE.
  46:Src/gpio.c    ****   *
  47:Src/gpio.c    ****   ******************************************************************************
  48:Src/gpio.c    ****   */
  49:Src/gpio.c    **** 
  50:Src/gpio.c    **** /* Includes ------------------------------------------------------------------*/
  51:Src/gpio.c    **** #include "gpio.h"
  52:Src/gpio.c    **** /* USER CODE BEGIN 0 */
  53:Src/gpio.c    **** 
  54:Src/gpio.c    **** /* USER CODE END 0 */
  55:Src/gpio.c    **** 
  56:Src/gpio.c    **** /*----------------------------------------------------------------------------*/
  57:Src/gpio.c    **** /* Configure GPIO                                                             */
  58:Src/gpio.c    **** /*----------------------------------------------------------------------------*/
  59:Src/gpio.c    **** /* USER CODE BEGIN 1 */
  60:Src/gpio.c    **** 
  61:Src/gpio.c    **** /* USER CODE END 1 */
  62:Src/gpio.c    **** 
  63:Src/gpio.c    **** /** Configure pins as 
  64:Src/gpio.c    ****         * Analog 
  65:Src/gpio.c    ****         * Input 
  66:Src/gpio.c    ****         * Output
  67:Src/gpio.c    ****         * EVENT_OUT
  68:Src/gpio.c    ****         * EXTI
  69:Src/gpio.c    ****      PB8   ------> I2C1_SCL
  70:Src/gpio.c    ****      PB9   ------> I2C1_SDA
  71:Src/gpio.c    **** */
  72:Src/gpio.c    **** void MX_GPIO_Init(void)
  73:Src/gpio.c    **** {
  29              		.loc 1 73 1 view -0
  30              		.cfi_startproc
  31              		@ args = 0, pretend = 0, frame = 56
  32              		@ frame_needed = 0, uses_anonymous_args = 0
  33 0000 F0B5     		push	{r4, r5, r6, r7, lr}
  34              	.LCFI0:
  35              		.cfi_def_cfa_offset 20
  36              		.cfi_offset 4, -20
  37              		.cfi_offset 5, -16
  38              		.cfi_offset 6, -12
  39              		.cfi_offset 7, -8
  40              		.cfi_offset 14, -4
  41 0002 8FB0     		sub	sp, sp, #60
  42              	.LCFI1:
ARM GAS  C:\Users\gx\AppData\Local\Temp\ccN2xjep.s 			page 3


  43              		.cfi_def_cfa_offset 80
  74:Src/gpio.c    **** 
  75:Src/gpio.c    ****   GPIO_InitTypeDef GPIO_InitStruct = {0};
  44              		.loc 1 75 3 view .LVU1
  45              		.loc 1 75 20 is_stmt 0 view .LVU2
  46 0004 0024     		movs	r4, #0
  47 0006 0994     		str	r4, [sp, #36]
  48 0008 0A94     		str	r4, [sp, #40]
  49 000a 0B94     		str	r4, [sp, #44]
  50 000c 0C94     		str	r4, [sp, #48]
  51 000e 0D94     		str	r4, [sp, #52]
  76:Src/gpio.c    **** 
  77:Src/gpio.c    ****   /* GPIO Ports Clock Enable */
  78:Src/gpio.c    ****   __HAL_RCC_GPIOE_CLK_ENABLE();
  52              		.loc 1 78 3 is_stmt 1 view .LVU3
  53              	.LBB2:
  54              		.loc 1 78 3 view .LVU4
  55 0010 0194     		str	r4, [sp, #4]
  56              		.loc 1 78 3 view .LVU5
  57 0012 494B     		ldr	r3, .L3
  58 0014 1A6B     		ldr	r2, [r3, #48]
  59 0016 42F01002 		orr	r2, r2, #16
  60 001a 1A63     		str	r2, [r3, #48]
  61              		.loc 1 78 3 view .LVU6
  62 001c 1A6B     		ldr	r2, [r3, #48]
  63 001e 02F01002 		and	r2, r2, #16
  64 0022 0192     		str	r2, [sp, #4]
  65              		.loc 1 78 3 view .LVU7
  66 0024 019A     		ldr	r2, [sp, #4]
  67              	.LBE2:
  68              		.loc 1 78 3 view .LVU8
  79:Src/gpio.c    ****   __HAL_RCC_GPIOC_CLK_ENABLE();
  69              		.loc 1 79 3 view .LVU9
  70              	.LBB3:
  71              		.loc 1 79 3 view .LVU10
  72 0026 0294     		str	r4, [sp, #8]
  73              		.loc 1 79 3 view .LVU11
  74 0028 1A6B     		ldr	r2, [r3, #48]
  75 002a 42F00402 		orr	r2, r2, #4
  76 002e 1A63     		str	r2, [r3, #48]
  77              		.loc 1 79 3 view .LVU12
  78 0030 1A6B     		ldr	r2, [r3, #48]
  79 0032 02F00402 		and	r2, r2, #4
  80 0036 0292     		str	r2, [sp, #8]
  81              		.loc 1 79 3 view .LVU13
  82 0038 029A     		ldr	r2, [sp, #8]
  83              	.LBE3:
  84              		.loc 1 79 3 view .LVU14
  80:Src/gpio.c    ****   __HAL_RCC_GPIOF_CLK_ENABLE();
  85              		.loc 1 80 3 view .LVU15
  86              	.LBB4:
  87              		.loc 1 80 3 view .LVU16
  88 003a 0394     		str	r4, [sp, #12]
  89              		.loc 1 80 3 view .LVU17
  90 003c 1A6B     		ldr	r2, [r3, #48]
  91 003e 42F02002 		orr	r2, r2, #32
  92 0042 1A63     		str	r2, [r3, #48]
ARM GAS  C:\Users\gx\AppData\Local\Temp\ccN2xjep.s 			page 4


  93              		.loc 1 80 3 view .LVU18
  94 0044 1A6B     		ldr	r2, [r3, #48]
  95 0046 02F02002 		and	r2, r2, #32
  96 004a 0392     		str	r2, [sp, #12]
  97              		.loc 1 80 3 view .LVU19
  98 004c 039A     		ldr	r2, [sp, #12]
  99              	.LBE4:
 100              		.loc 1 80 3 view .LVU20
  81:Src/gpio.c    ****   __HAL_RCC_GPIOH_CLK_ENABLE();
 101              		.loc 1 81 3 view .LVU21
 102              	.LBB5:
 103              		.loc 1 81 3 view .LVU22
 104 004e 0494     		str	r4, [sp, #16]
 105              		.loc 1 81 3 view .LVU23
 106 0050 1A6B     		ldr	r2, [r3, #48]
 107 0052 42F08002 		orr	r2, r2, #128
 108 0056 1A63     		str	r2, [r3, #48]
 109              		.loc 1 81 3 view .LVU24
 110 0058 1A6B     		ldr	r2, [r3, #48]
 111 005a 02F08002 		and	r2, r2, #128
 112 005e 0492     		str	r2, [sp, #16]
 113              		.loc 1 81 3 view .LVU25
 114 0060 049A     		ldr	r2, [sp, #16]
 115              	.LBE5:
 116              		.loc 1 81 3 view .LVU26
  82:Src/gpio.c    ****   __HAL_RCC_GPIOA_CLK_ENABLE();
 117              		.loc 1 82 3 view .LVU27
 118              	.LBB6:
 119              		.loc 1 82 3 view .LVU28
 120 0062 0594     		str	r4, [sp, #20]
 121              		.loc 1 82 3 view .LVU29
 122 0064 1A6B     		ldr	r2, [r3, #48]
 123 0066 42F00102 		orr	r2, r2, #1
 124 006a 1A63     		str	r2, [r3, #48]
 125              		.loc 1 82 3 view .LVU30
 126 006c 1A6B     		ldr	r2, [r3, #48]
 127 006e 02F00102 		and	r2, r2, #1
 128 0072 0592     		str	r2, [sp, #20]
 129              		.loc 1 82 3 view .LVU31
 130 0074 059A     		ldr	r2, [sp, #20]
 131              	.LBE6:
 132              		.loc 1 82 3 view .LVU32
  83:Src/gpio.c    ****   __HAL_RCC_GPIOB_CLK_ENABLE();
 133              		.loc 1 83 3 view .LVU33
 134              	.LBB7:
 135              		.loc 1 83 3 view .LVU34
 136 0076 0694     		str	r4, [sp, #24]
 137              		.loc 1 83 3 view .LVU35
 138 0078 1A6B     		ldr	r2, [r3, #48]
 139 007a 42F00202 		orr	r2, r2, #2
 140 007e 1A63     		str	r2, [r3, #48]
 141              		.loc 1 83 3 view .LVU36
 142 0080 1A6B     		ldr	r2, [r3, #48]
 143 0082 02F00202 		and	r2, r2, #2
 144 0086 0692     		str	r2, [sp, #24]
 145              		.loc 1 83 3 view .LVU37
 146 0088 069A     		ldr	r2, [sp, #24]
ARM GAS  C:\Users\gx\AppData\Local\Temp\ccN2xjep.s 			page 5


 147              	.LBE7:
 148              		.loc 1 83 3 view .LVU38
  84:Src/gpio.c    ****   __HAL_RCC_GPIOD_CLK_ENABLE();
 149              		.loc 1 84 3 view .LVU39
 150              	.LBB8:
 151              		.loc 1 84 3 view .LVU40
 152 008a 0794     		str	r4, [sp, #28]
 153              		.loc 1 84 3 view .LVU41
 154 008c 1A6B     		ldr	r2, [r3, #48]
 155 008e 42F00802 		orr	r2, r2, #8
 156 0092 1A63     		str	r2, [r3, #48]
 157              		.loc 1 84 3 view .LVU42
 158 0094 1A6B     		ldr	r2, [r3, #48]
 159 0096 02F00802 		and	r2, r2, #8
 160 009a 0792     		str	r2, [sp, #28]
 161              		.loc 1 84 3 view .LVU43
 162 009c 079A     		ldr	r2, [sp, #28]
 163              	.LBE8:
 164              		.loc 1 84 3 view .LVU44
  85:Src/gpio.c    ****   __HAL_RCC_GPIOG_CLK_ENABLE();
 165              		.loc 1 85 3 view .LVU45
 166              	.LBB9:
 167              		.loc 1 85 3 view .LVU46
 168 009e 0894     		str	r4, [sp, #32]
 169              		.loc 1 85 3 view .LVU47
 170 00a0 1A6B     		ldr	r2, [r3, #48]
 171 00a2 42F04002 		orr	r2, r2, #64
 172 00a6 1A63     		str	r2, [r3, #48]
 173              		.loc 1 85 3 view .LVU48
 174 00a8 1B6B     		ldr	r3, [r3, #48]
 175 00aa 03F04003 		and	r3, r3, #64
 176 00ae 0893     		str	r3, [sp, #32]
 177              		.loc 1 85 3 view .LVU49
 178 00b0 089B     		ldr	r3, [sp, #32]
 179              	.LBE9:
 180              		.loc 1 85 3 view .LVU50
  86:Src/gpio.c    **** 
  87:Src/gpio.c    ****   /*Configure GPIO pin Output Level */
  88:Src/gpio.c    ****   HAL_GPIO_WritePin(GPIOF, GPIO_PIN_9|GPIO_PIN_10, GPIO_PIN_RESET);
 181              		.loc 1 88 3 view .LVU51
 182 00b2 224F     		ldr	r7, .L3+4
 183 00b4 2246     		mov	r2, r4
 184 00b6 4FF4C061 		mov	r1, #1536
 185 00ba 3846     		mov	r0, r7
 186 00bc FFF7FEFF 		bl	HAL_GPIO_WritePin
 187              	.LVL0:
  89:Src/gpio.c    **** 
  90:Src/gpio.c    ****   /*Configure GPIO pin Output Level */
  91:Src/gpio.c    ****   HAL_GPIO_WritePin(GPIOB, GPIO_PIN_14|GPIO_PIN_15, GPIO_PIN_RESET);
 188              		.loc 1 91 3 view .LVU52
 189 00c0 1F4E     		ldr	r6, .L3+8
 190 00c2 2246     		mov	r2, r4
 191 00c4 4FF44041 		mov	r1, #49152
 192 00c8 3046     		mov	r0, r6
 193 00ca FFF7FEFF 		bl	HAL_GPIO_WritePin
 194              	.LVL1:
  92:Src/gpio.c    **** 
ARM GAS  C:\Users\gx\AppData\Local\Temp\ccN2xjep.s 			page 6


  93:Src/gpio.c    ****   /*Configure GPIO pins : PE2 PE3 PE4 */
  94:Src/gpio.c    ****   GPIO_InitStruct.Pin = GPIO_PIN_2|GPIO_PIN_3|GPIO_PIN_4;
 195              		.loc 1 94 3 view .LVU53
 196              		.loc 1 94 23 is_stmt 0 view .LVU54
 197 00ce 1C23     		movs	r3, #28
 198 00d0 0993     		str	r3, [sp, #36]
  95:Src/gpio.c    ****   GPIO_InitStruct.Mode = GPIO_MODE_INPUT;
 199              		.loc 1 95 3 is_stmt 1 view .LVU55
 200              		.loc 1 95 24 is_stmt 0 view .LVU56
 201 00d2 0A94     		str	r4, [sp, #40]
  96:Src/gpio.c    ****   GPIO_InitStruct.Pull = GPIO_NOPULL;
 202              		.loc 1 96 3 is_stmt 1 view .LVU57
 203              		.loc 1 96 24 is_stmt 0 view .LVU58
 204 00d4 0B94     		str	r4, [sp, #44]
  97:Src/gpio.c    ****   HAL_GPIO_Init(GPIOE, &GPIO_InitStruct);
 205              		.loc 1 97 3 is_stmt 1 view .LVU59
 206 00d6 09A9     		add	r1, sp, #36
 207 00d8 1A48     		ldr	r0, .L3+12
 208 00da FFF7FEFF 		bl	HAL_GPIO_Init
 209              	.LVL2:
  98:Src/gpio.c    **** 
  99:Src/gpio.c    ****   /*Configure GPIO pins : PF9 PF10 */
 100:Src/gpio.c    ****   GPIO_InitStruct.Pin = GPIO_PIN_9|GPIO_PIN_10;
 210              		.loc 1 100 3 view .LVU60
 211              		.loc 1 100 23 is_stmt 0 view .LVU61
 212 00de 4FF4C063 		mov	r3, #1536
 213 00e2 0993     		str	r3, [sp, #36]
 101:Src/gpio.c    ****   GPIO_InitStruct.Mode = GPIO_MODE_OUTPUT_PP;
 214              		.loc 1 101 3 is_stmt 1 view .LVU62
 215              		.loc 1 101 24 is_stmt 0 view .LVU63
 216 00e4 0125     		movs	r5, #1
 217 00e6 0A95     		str	r5, [sp, #40]
 102:Src/gpio.c    ****   GPIO_InitStruct.Pull = GPIO_NOPULL;
 218              		.loc 1 102 3 is_stmt 1 view .LVU64
 219              		.loc 1 102 24 is_stmt 0 view .LVU65
 220 00e8 0B94     		str	r4, [sp, #44]
 103:Src/gpio.c    ****   GPIO_InitStruct.Speed = GPIO_SPEED_FREQ_LOW;
 221              		.loc 1 103 3 is_stmt 1 view .LVU66
 222              		.loc 1 103 25 is_stmt 0 view .LVU67
 223 00ea 0C94     		str	r4, [sp, #48]
 104:Src/gpio.c    ****   HAL_GPIO_Init(GPIOF, &GPIO_InitStruct);
 224              		.loc 1 104 3 is_stmt 1 view .LVU68
 225 00ec 09A9     		add	r1, sp, #36
 226 00ee 3846     		mov	r0, r7
 227 00f0 FFF7FEFF 		bl	HAL_GPIO_Init
 228              	.LVL3:
 105:Src/gpio.c    **** 
 106:Src/gpio.c    ****   /*Configure GPIO pin : PA0 */
 107:Src/gpio.c    ****   GPIO_InitStruct.Pin = GPIO_PIN_0;
 229              		.loc 1 107 3 view .LVU69
 230              		.loc 1 107 23 is_stmt 0 view .LVU70
 231 00f4 0995     		str	r5, [sp, #36]
 108:Src/gpio.c    ****   GPIO_InitStruct.Mode = GPIO_MODE_INPUT;
 232              		.loc 1 108 3 is_stmt 1 view .LVU71
 233              		.loc 1 108 24 is_stmt 0 view .LVU72
 234 00f6 0A94     		str	r4, [sp, #40]
 109:Src/gpio.c    ****   GPIO_InitStruct.Pull = GPIO_NOPULL;
ARM GAS  C:\Users\gx\AppData\Local\Temp\ccN2xjep.s 			page 7


 235              		.loc 1 109 3 is_stmt 1 view .LVU73
 236              		.loc 1 109 24 is_stmt 0 view .LVU74
 237 00f8 0B94     		str	r4, [sp, #44]
 110:Src/gpio.c    ****   HAL_GPIO_Init(GPIOA, &GPIO_InitStruct);
 238              		.loc 1 110 3 is_stmt 1 view .LVU75
 239 00fa 09A9     		add	r1, sp, #36
 240 00fc 1248     		ldr	r0, .L3+16
 241 00fe FFF7FEFF 		bl	HAL_GPIO_Init
 242              	.LVL4:
 111:Src/gpio.c    **** 
 112:Src/gpio.c    ****   /*Configure GPIO pins : PB14 PB15 */
 113:Src/gpio.c    ****   GPIO_InitStruct.Pin = GPIO_PIN_14|GPIO_PIN_15;
 243              		.loc 1 113 3 view .LVU76
 244              		.loc 1 113 23 is_stmt 0 view .LVU77
 245 0102 4FF44043 		mov	r3, #49152
 246 0106 0993     		str	r3, [sp, #36]
 114:Src/gpio.c    ****   GPIO_InitStruct.Mode = GPIO_MODE_OUTPUT_PP;
 247              		.loc 1 114 3 is_stmt 1 view .LVU78
 248              		.loc 1 114 24 is_stmt 0 view .LVU79
 249 0108 0A95     		str	r5, [sp, #40]
 115:Src/gpio.c    ****   GPIO_InitStruct.Pull = GPIO_NOPULL;
 250              		.loc 1 115 3 is_stmt 1 view .LVU80
 251              		.loc 1 115 24 is_stmt 0 view .LVU81
 252 010a 0B94     		str	r4, [sp, #44]
 116:Src/gpio.c    ****   GPIO_InitStruct.Speed = GPIO_SPEED_FREQ_LOW;
 253              		.loc 1 116 3 is_stmt 1 view .LVU82
 254              		.loc 1 116 25 is_stmt 0 view .LVU83
 255 010c 0C94     		str	r4, [sp, #48]
 117:Src/gpio.c    ****   HAL_GPIO_Init(GPIOB, &GPIO_InitStruct);
 256              		.loc 1 117 3 is_stmt 1 view .LVU84
 257 010e 09A9     		add	r1, sp, #36
 258 0110 3046     		mov	r0, r6
 259 0112 FFF7FEFF 		bl	HAL_GPIO_Init
 260              	.LVL5:
 118:Src/gpio.c    **** 
 119:Src/gpio.c    ****   /*Configure GPIO pins : PB8 PB9 */
 120:Src/gpio.c    ****   GPIO_InitStruct.Pin = GPIO_PIN_8|GPIO_PIN_9;
 261              		.loc 1 120 3 view .LVU85
 262              		.loc 1 120 23 is_stmt 0 view .LVU86
 263 0116 4FF44073 		mov	r3, #768
 264 011a 0993     		str	r3, [sp, #36]
 121:Src/gpio.c    ****   GPIO_InitStruct.Mode = GPIO_MODE_AF_OD;
 265              		.loc 1 121 3 is_stmt 1 view .LVU87
 266              		.loc 1 121 24 is_stmt 0 view .LVU88
 267 011c 1223     		movs	r3, #18
 268 011e 0A93     		str	r3, [sp, #40]
 122:Src/gpio.c    ****   GPIO_InitStruct.Pull = GPIO_PULLUP;
 269              		.loc 1 122 3 is_stmt 1 view .LVU89
 270              		.loc 1 122 24 is_stmt 0 view .LVU90
 271 0120 0B95     		str	r5, [sp, #44]
 123:Src/gpio.c    ****   GPIO_InitStruct.Speed = GPIO_SPEED_FREQ_VERY_HIGH;
 272              		.loc 1 123 3 is_stmt 1 view .LVU91
 273              		.loc 1 123 25 is_stmt 0 view .LVU92
 274 0122 0323     		movs	r3, #3
 275 0124 0C93     		str	r3, [sp, #48]
 124:Src/gpio.c    ****   GPIO_InitStruct.Alternate = GPIO_AF4_I2C1;
 276              		.loc 1 124 3 is_stmt 1 view .LVU93
ARM GAS  C:\Users\gx\AppData\Local\Temp\ccN2xjep.s 			page 8


 277              		.loc 1 124 29 is_stmt 0 view .LVU94
 278 0126 0423     		movs	r3, #4
 279 0128 0D93     		str	r3, [sp, #52]
 125:Src/gpio.c    ****   HAL_GPIO_Init(GPIOB, &GPIO_InitStruct);
 280              		.loc 1 125 3 is_stmt 1 view .LVU95
 281 012a 09A9     		add	r1, sp, #36
 282 012c 3046     		mov	r0, r6
 283 012e FFF7FEFF 		bl	HAL_GPIO_Init
 284              	.LVL6:
 126:Src/gpio.c    **** 
 127:Src/gpio.c    **** }
 285              		.loc 1 127 1 is_stmt 0 view .LVU96
 286 0132 0FB0     		add	sp, sp, #60
 287              	.LCFI2:
 288              		.cfi_def_cfa_offset 20
 289              		@ sp needed
 290 0134 F0BD     		pop	{r4, r5, r6, r7, pc}
 291              	.L4:
 292 0136 00BF     		.align	2
 293              	.L3:
 294 0138 00380240 		.word	1073887232
 295 013c 00140240 		.word	1073878016
 296 0140 00040240 		.word	1073873920
 297 0144 00100240 		.word	1073876992
 298 0148 00000240 		.word	1073872896
 299              		.cfi_endproc
 300              	.LFE126:
 302              		.text
 303              	.Letext0:
 304              		.file 2 "c:\\program files (x86)\\gnu arm embedded toolchain\\9 2020-q2-update\\arm-none-eabi\\inc
 305              		.file 3 "c:\\program files (x86)\\gnu arm embedded toolchain\\9 2020-q2-update\\arm-none-eabi\\inc
 306              		.file 4 "Drivers/CMSIS/Include/core_cm4.h"
 307              		.file 5 "Drivers/CMSIS/Device/ST/STM32F4xx/Include/system_stm32f4xx.h"
 308              		.file 6 "Drivers/CMSIS/Device/ST/STM32F4xx/Include/stm32f407xx.h"
 309              		.file 7 "c:\\program files (x86)\\gnu arm embedded toolchain\\9 2020-q2-update\\lib\\gcc\\arm-none
 310              		.file 8 "c:\\program files (x86)\\gnu arm embedded toolchain\\9 2020-q2-update\\arm-none-eabi\\inc
 311              		.file 9 "c:\\program files (x86)\\gnu arm embedded toolchain\\9 2020-q2-update\\arm-none-eabi\\inc
 312              		.file 10 "c:\\program files (x86)\\gnu arm embedded toolchain\\9 2020-q2-update\\arm-none-eabi\\in
 313              		.file 11 "Drivers/STM32F4xx_HAL_Driver/Inc/stm32f4xx_hal_gpio.h"
ARM GAS  C:\Users\gx\AppData\Local\Temp\ccN2xjep.s 			page 9

