ARM GAS  C:\Users\gx\AppData\Local\Temp\ccjJNnuW.s 			page 1


   1              		.cpu cortex-m4
   2              		.eabi_attribute 27, 1
   3              		.eabi_attribute 28, 1
   4              		.eabi_attribute 20, 1
   5              		.eabi_attribute 21, 1
   6              		.eabi_attribute 23, 3
   7              		.eabi_attribute 24, 1
   8              		.eabi_attribute 25, 1
   9              		.eabi_attribute 26, 1
  10              		.eabi_attribute 30, 1
  11              		.eabi_attribute 34, 1
  12              		.eabi_attribute 18, 4
  13              		.file	"GUIDEMO_Bitmap.c"
  14              		.text
  15              	.Ltext0:
  16              		.cfi_sections	.debug_frame
  17              		.section	.rodata._ShowMagnifiedBitmap.str1.4,"aMS",%progbits,1
  18              		.align	2
  19              	.LC0:
  20 0000 4269746D 		.ascii	"Bitmaps can be\012magnified\000"
  20      61707320 
  20      63616E20 
  20      62650A6D 
  20      61676E69 
  21              		.section	.text._ShowMagnifiedBitmap,"ax",%progbits
  22              		.align	1
  23              		.arch armv7e-m
  24              		.syntax unified
  25              		.thumb
  26              		.thumb_func
  27              		.fpu fpv4-sp-d16
  29              	_ShowMagnifiedBitmap:
  30              	.LFB0:
  31              		.file 1 "emWin/GUI_Demo/GUIDEMO_Bitmap.c"
   1:emWin/GUI_Demo/GUIDEMO_Bitmap.c **** /*********************************************************************
   2:emWin/GUI_Demo/GUIDEMO_Bitmap.c **** *          Portions COPYRIGHT 2017 STMicroelectronics                 *
   3:emWin/GUI_Demo/GUIDEMO_Bitmap.c **** *          Portions SEGGER Microcontroller GmbH & Co. KG             *
   4:emWin/GUI_Demo/GUIDEMO_Bitmap.c **** *        Solutions for real time microcontroller applications        *
   5:emWin/GUI_Demo/GUIDEMO_Bitmap.c **** **********************************************************************
   6:emWin/GUI_Demo/GUIDEMO_Bitmap.c **** *                                                                    *
   7:emWin/GUI_Demo/GUIDEMO_Bitmap.c **** *        (c) 1996 - 2015  SEGGER Microcontroller GmbH & Co. KG       *
   8:emWin/GUI_Demo/GUIDEMO_Bitmap.c **** *                                                                    *
   9:emWin/GUI_Demo/GUIDEMO_Bitmap.c **** *        Internet: www.segger.com    Support:  support@segger.com    *
  10:emWin/GUI_Demo/GUIDEMO_Bitmap.c **** *                                                                    *
  11:emWin/GUI_Demo/GUIDEMO_Bitmap.c **** **********************************************************************
  12:emWin/GUI_Demo/GUIDEMO_Bitmap.c **** 
  13:emWin/GUI_Demo/GUIDEMO_Bitmap.c **** ** emWin V5.28 - Graphical user interface for embedded applications **
  14:emWin/GUI_Demo/GUIDEMO_Bitmap.c **** All  Intellectual Property rights  in the Software belongs to  SEGGER.
  15:emWin/GUI_Demo/GUIDEMO_Bitmap.c **** emWin is protected by  international copyright laws.  Knowledge of the
  16:emWin/GUI_Demo/GUIDEMO_Bitmap.c **** source code may not be used to write a similar product.  This file may
  17:emWin/GUI_Demo/GUIDEMO_Bitmap.c **** only be used in accordance with the following terms:
  18:emWin/GUI_Demo/GUIDEMO_Bitmap.c **** 
  19:emWin/GUI_Demo/GUIDEMO_Bitmap.c **** The  software has  been licensed  to STMicroelectronics International
  20:emWin/GUI_Demo/GUIDEMO_Bitmap.c **** N.V. a Dutch company with a Swiss branch and its headquarters in Plan-
  21:emWin/GUI_Demo/GUIDEMO_Bitmap.c **** les-Ouates, Geneva, 39 Chemin du Champ des Filles, Switzerland for the
  22:emWin/GUI_Demo/GUIDEMO_Bitmap.c **** purposes of creating libraries for ARM Cortex-M-based 32-bit microcon_
  23:emWin/GUI_Demo/GUIDEMO_Bitmap.c **** troller products commercialized by Licensee only, sublicensed and dis_
ARM GAS  C:\Users\gx\AppData\Local\Temp\ccjJNnuW.s 			page 2


  24:emWin/GUI_Demo/GUIDEMO_Bitmap.c **** tributed under the terms and conditions of the End User License Agree_
  25:emWin/GUI_Demo/GUIDEMO_Bitmap.c **** ment supplied by STMicroelectronics International N.V.
  26:emWin/GUI_Demo/GUIDEMO_Bitmap.c **** Full source code is available at: www.segger.com
  27:emWin/GUI_Demo/GUIDEMO_Bitmap.c **** 
  28:emWin/GUI_Demo/GUIDEMO_Bitmap.c **** We appreciate your understanding and fairness.
  29:emWin/GUI_Demo/GUIDEMO_Bitmap.c **** ----------------------------------------------------------------------
  30:emWin/GUI_Demo/GUIDEMO_Bitmap.c **** File        : GUIDEMO_Bitmap.c
  31:emWin/GUI_Demo/GUIDEMO_Bitmap.c **** Purpose     : Draws bitmaps with and without compression
  32:emWin/GUI_Demo/GUIDEMO_Bitmap.c **** ----------------------------------------------------------------------
  33:emWin/GUI_Demo/GUIDEMO_Bitmap.c **** */
  34:emWin/GUI_Demo/GUIDEMO_Bitmap.c **** 
  35:emWin/GUI_Demo/GUIDEMO_Bitmap.c **** /**
  36:emWin/GUI_Demo/GUIDEMO_Bitmap.c ****   ******************************************************************************
  37:emWin/GUI_Demo/GUIDEMO_Bitmap.c ****   * @file    GUIDEMO_Bitmap.c
  38:emWin/GUI_Demo/GUIDEMO_Bitmap.c ****   * @author  MCD Application Team
  39:emWin/GUI_Demo/GUIDEMO_Bitmap.c ****   * @brief   Draws bitmaps with and without compression
  40:emWin/GUI_Demo/GUIDEMO_Bitmap.c ****   ******************************************************************************
  41:emWin/GUI_Demo/GUIDEMO_Bitmap.c ****   * @attention
  42:emWin/GUI_Demo/GUIDEMO_Bitmap.c ****   *
  43:emWin/GUI_Demo/GUIDEMO_Bitmap.c ****   * <h2><center>&copy; Copyright © 2017 STMicroelectronics International N.V. 
  44:emWin/GUI_Demo/GUIDEMO_Bitmap.c ****   * All rights reserved.</center></h2>
  45:emWin/GUI_Demo/GUIDEMO_Bitmap.c ****   *
  46:emWin/GUI_Demo/GUIDEMO_Bitmap.c ****   * Redistribution and use in source and binary forms, with or without 
  47:emWin/GUI_Demo/GUIDEMO_Bitmap.c ****   * modification, are permitted, provided that the following conditions are met:
  48:emWin/GUI_Demo/GUIDEMO_Bitmap.c ****   *
  49:emWin/GUI_Demo/GUIDEMO_Bitmap.c ****   * 1. Redistribution of source code must retain the above copyright notice, 
  50:emWin/GUI_Demo/GUIDEMO_Bitmap.c ****   *    this list of conditions and the following disclaimer.
  51:emWin/GUI_Demo/GUIDEMO_Bitmap.c ****   * 2. Redistributions in binary form must reproduce the above copyright notice,
  52:emWin/GUI_Demo/GUIDEMO_Bitmap.c ****   *    this list of conditions and the following disclaimer in the documentation
  53:emWin/GUI_Demo/GUIDEMO_Bitmap.c ****   *    and/or other materials provided with the distribution.
  54:emWin/GUI_Demo/GUIDEMO_Bitmap.c ****   * 3. Neither the name of STMicroelectronics nor the names of other 
  55:emWin/GUI_Demo/GUIDEMO_Bitmap.c ****   *    contributors to this software may be used to endorse or promote products 
  56:emWin/GUI_Demo/GUIDEMO_Bitmap.c ****   *    derived from this software without specific written permission.
  57:emWin/GUI_Demo/GUIDEMO_Bitmap.c ****   * 4. This software, including modifications and/or derivative works of this 
  58:emWin/GUI_Demo/GUIDEMO_Bitmap.c ****   *    software, must execute solely and exclusively on microcontroller or
  59:emWin/GUI_Demo/GUIDEMO_Bitmap.c ****   *    microprocessor devices manufactured by or for STMicroelectronics.
  60:emWin/GUI_Demo/GUIDEMO_Bitmap.c ****   * 5. Redistribution and use of this software other than as permitted under 
  61:emWin/GUI_Demo/GUIDEMO_Bitmap.c ****   *    this license is void and will automatically terminate your rights under 
  62:emWin/GUI_Demo/GUIDEMO_Bitmap.c ****   *    this license. 
  63:emWin/GUI_Demo/GUIDEMO_Bitmap.c ****   *
  64:emWin/GUI_Demo/GUIDEMO_Bitmap.c ****   * THIS SOFTWARE IS PROVIDED BY STMICROELECTRONICS AND CONTRIBUTORS "AS IS" 
  65:emWin/GUI_Demo/GUIDEMO_Bitmap.c ****   * AND ANY EXPRESS, IMPLIED OR STATUTORY WARRANTIES, INCLUDING, BUT NOT 
  66:emWin/GUI_Demo/GUIDEMO_Bitmap.c ****   * LIMITED TO, THE IMPLIED WARRANTIES OF MERCHANTABILITY, FITNESS FOR A 
  67:emWin/GUI_Demo/GUIDEMO_Bitmap.c ****   * PARTICULAR PURPOSE AND NON-INFRINGEMENT OF THIRD PARTY INTELLECTUAL PROPERTY
  68:emWin/GUI_Demo/GUIDEMO_Bitmap.c ****   * RIGHTS ARE DISCLAIMED TO THE FULLEST EXTENT PERMITTED BY LAW. IN NO EVENT 
  69:emWin/GUI_Demo/GUIDEMO_Bitmap.c ****   * SHALL STMICROELECTRONICS OR CONTRIBUTORS BE LIABLE FOR ANY DIRECT, INDIRECT,
  70:emWin/GUI_Demo/GUIDEMO_Bitmap.c ****   * INCIDENTAL, SPECIAL, EXEMPLARY, OR CONSEQUENTIAL DAMAGES (INCLUDING, BUT NOT
  71:emWin/GUI_Demo/GUIDEMO_Bitmap.c ****   * LIMITED TO, PROCUREMENT OF SUBSTITUTE GOODS OR SERVICES; LOSS OF USE, DATA, 
  72:emWin/GUI_Demo/GUIDEMO_Bitmap.c ****   * OR PROFITS; OR BUSINESS INTERRUPTION) HOWEVER CAUSED AND ON ANY THEORY OF 
  73:emWin/GUI_Demo/GUIDEMO_Bitmap.c ****   * LIABILITY, WHETHER IN CONTRACT, STRICT LIABILITY, OR TORT (INCLUDING 
  74:emWin/GUI_Demo/GUIDEMO_Bitmap.c ****   * NEGLIGENCE OR OTHERWISE) ARISING IN ANY WAY OUT OF THE USE OF THIS SOFTWARE,
  75:emWin/GUI_Demo/GUIDEMO_Bitmap.c ****   * EVEN IF ADVISED OF THE POSSIBILITY OF SUCH DAMAGE.
  76:emWin/GUI_Demo/GUIDEMO_Bitmap.c ****   *
  77:emWin/GUI_Demo/GUIDEMO_Bitmap.c ****   ******************************************************************************
  78:emWin/GUI_Demo/GUIDEMO_Bitmap.c ****   */
  79:emWin/GUI_Demo/GUIDEMO_Bitmap.c **** 
  80:emWin/GUI_Demo/GUIDEMO_Bitmap.c **** #include "GUIDEMO.h"
ARM GAS  C:\Users\gx\AppData\Local\Temp\ccjJNnuW.s 			page 3


  81:emWin/GUI_Demo/GUIDEMO_Bitmap.c **** #include <math.h>
  82:emWin/GUI_Demo/GUIDEMO_Bitmap.c **** 
  83:emWin/GUI_Demo/GUIDEMO_Bitmap.c **** #if (SHOW_GUIDEMO_BITMAP)
  84:emWin/GUI_Demo/GUIDEMO_Bitmap.c **** 
  85:emWin/GUI_Demo/GUIDEMO_Bitmap.c **** #if GUI_WINSUPPORT
  86:emWin/GUI_Demo/GUIDEMO_Bitmap.c ****   #include "WM.h"
  87:emWin/GUI_Demo/GUIDEMO_Bitmap.c **** #endif
  88:emWin/GUI_Demo/GUIDEMO_Bitmap.c **** 
  89:emWin/GUI_Demo/GUIDEMO_Bitmap.c **** #define PI4 12.5663706f
  90:emWin/GUI_Demo/GUIDEMO_Bitmap.c **** 
  91:emWin/GUI_Demo/GUIDEMO_Bitmap.c **** /*********************************************************************
  92:emWin/GUI_Demo/GUIDEMO_Bitmap.c **** *
  93:emWin/GUI_Demo/GUIDEMO_Bitmap.c **** *       Static data
  94:emWin/GUI_Demo/GUIDEMO_Bitmap.c **** *
  95:emWin/GUI_Demo/GUIDEMO_Bitmap.c **** **********************************************************************
  96:emWin/GUI_Demo/GUIDEMO_Bitmap.c **** */
  97:emWin/GUI_Demo/GUIDEMO_Bitmap.c **** 
  98:emWin/GUI_Demo/GUIDEMO_Bitmap.c **** /*********************************************************************
  99:emWin/GUI_Demo/GUIDEMO_Bitmap.c **** *
 100:emWin/GUI_Demo/GUIDEMO_Bitmap.c **** *       GUIDEMO_bm4bpp
 101:emWin/GUI_Demo/GUIDEMO_Bitmap.c **** *
 102:emWin/GUI_Demo/GUIDEMO_Bitmap.c **** **********************************************************************
 103:emWin/GUI_Demo/GUIDEMO_Bitmap.c **** */
 104:emWin/GUI_Demo/GUIDEMO_Bitmap.c **** static GUI_CONST_STORAGE GUI_COLOR ColorsNature[] = {
 105:emWin/GUI_Demo/GUIDEMO_Bitmap.c ****      0x000000,0x111111,0x222222,0x333333
 106:emWin/GUI_Demo/GUIDEMO_Bitmap.c ****     ,0x444444,0x555555,0x666666,0x777777
 107:emWin/GUI_Demo/GUIDEMO_Bitmap.c ****     ,0x888888,0x999999,0xAAAAAA,0xBBBBBB
 108:emWin/GUI_Demo/GUIDEMO_Bitmap.c ****     ,0xCCCCCC,0xDDDDDD,0xEEEEEE,0xFFFFFF
 109:emWin/GUI_Demo/GUIDEMO_Bitmap.c **** };
 110:emWin/GUI_Demo/GUIDEMO_Bitmap.c **** 
 111:emWin/GUI_Demo/GUIDEMO_Bitmap.c **** static GUI_CONST_STORAGE GUI_LOGPALETTE _PalNature = {
 112:emWin/GUI_Demo/GUIDEMO_Bitmap.c ****   16,	/* number of entries */
 113:emWin/GUI_Demo/GUIDEMO_Bitmap.c ****   0, 	/* No transparency */
 114:emWin/GUI_Demo/GUIDEMO_Bitmap.c ****   &ColorsNature[0]
 115:emWin/GUI_Demo/GUIDEMO_Bitmap.c **** };
 116:emWin/GUI_Demo/GUIDEMO_Bitmap.c **** 
 117:emWin/GUI_Demo/GUIDEMO_Bitmap.c **** static GUI_CONST_STORAGE unsigned char _acNature[] = {
 118:emWin/GUI_Demo/GUIDEMO_Bitmap.c ****   0x44, 0x44, 0x44, 0x44, 0x44, 0x44, 0x44, 0x33, 0x33, 0x33, 0x44, 0x44, 0x44, 0x44, 0x44, 0x45, 0
 119:emWin/GUI_Demo/GUIDEMO_Bitmap.c ****   0x44, 0x43, 0x44, 0x44, 0x44, 0x43, 0x33, 0x33, 0x33, 0x33, 0x34, 0x44, 0x44, 0x43, 0x34, 0x55, 0
 120:emWin/GUI_Demo/GUIDEMO_Bitmap.c ****   0x44, 0x33, 0x33, 0x44, 0x44, 0x33, 0x33, 0x33, 0x33, 0x33, 0x33, 0x33, 0x33, 0x33, 0x44, 0x54, 0
 121:emWin/GUI_Demo/GUIDEMO_Bitmap.c ****   0x44, 0x33, 0x33, 0x33, 0x43, 0x33, 0x33, 0x33, 0x33, 0x33, 0x22, 0x22, 0x33, 0x32, 0x45, 0x44, 0
 122:emWin/GUI_Demo/GUIDEMO_Bitmap.c ****   0x43, 0x33, 0x33, 0x33, 0x43, 0x33, 0x33, 0x33, 0x33, 0x32, 0x21, 0x11, 0x23, 0x32, 0x35, 0x54, 0
 123:emWin/GUI_Demo/GUIDEMO_Bitmap.c ****   0x33, 0x33, 0x33, 0x33, 0x33, 0x33, 0x33, 0x33, 0x33, 0x21, 0x12, 0x10, 0x12, 0x32, 0x34, 0x44, 0
 124:emWin/GUI_Demo/GUIDEMO_Bitmap.c ****   0x33, 0x33, 0x33, 0x33, 0x33, 0x33, 0x33, 0x33, 0x33, 0x11, 0x22, 0x10, 0x02, 0x34, 0x44, 0x43, 0
 125:emWin/GUI_Demo/GUIDEMO_Bitmap.c ****   0x43, 0x33, 0x33, 0x33, 0x33, 0x33, 0x33, 0x33, 0x32, 0x10, 0x11, 0x10, 0x01, 0x33, 0x54, 0x55, 0
 126:emWin/GUI_Demo/GUIDEMO_Bitmap.c ****   0x43, 0x33, 0x33, 0x33, 0x33, 0x33, 0x33, 0x33, 0x21, 0x12, 0x20, 0x01, 0x12, 0x33, 0x44, 0x44, 0
 127:emWin/GUI_Demo/GUIDEMO_Bitmap.c ****   0x33, 0x33, 0x33, 0x33, 0x33, 0x33, 0x33, 0x32, 0x11, 0x47, 0x52, 0x12, 0x23, 0x34, 0x44, 0x55, 0
 128:emWin/GUI_Demo/GUIDEMO_Bitmap.c ****   0x33, 0x33, 0x33, 0x33, 0x33, 0x33, 0x33, 0x22, 0x14, 0x66, 0x54, 0x43, 0x33, 0x43, 0x45, 0x57, 0
 129:emWin/GUI_Demo/GUIDEMO_Bitmap.c ****   0x33, 0x33, 0x33, 0x33, 0x33, 0x33, 0x33, 0x22, 0x36, 0x66, 0x43, 0x56, 0x55, 0x54, 0x57, 0x88, 0
 130:emWin/GUI_Demo/GUIDEMO_Bitmap.c ****   0x33, 0x33, 0x33, 0x33, 0x33, 0x33, 0x32, 0x23, 0x44, 0x34, 0x45, 0x46, 0x78, 0x78, 0x9A, 0xAB, 0
 131:emWin/GUI_Demo/GUIDEMO_Bitmap.c ****   0x33, 0x33, 0x33, 0x33, 0x33, 0x33, 0x22, 0x33, 0x45, 0x54, 0x45, 0x66, 0x8A, 0xBB, 0xCD, 0xCD, 0
 132:emWin/GUI_Demo/GUIDEMO_Bitmap.c ****   0x33, 0x33, 0x22, 0x22, 0x33, 0x33, 0x23, 0x34, 0x45, 0x65, 0x45, 0x78, 0xAA, 0xBB, 0xCD, 0xDD, 0
 133:emWin/GUI_Demo/GUIDEMO_Bitmap.c ****   0x33, 0x32, 0x22, 0x22, 0x33, 0x33, 0x23, 0x45, 0x45, 0x43, 0x36, 0x89, 0xAA, 0xBC, 0xCC, 0xDE, 0
 134:emWin/GUI_Demo/GUIDEMO_Bitmap.c ****   0x33, 0x32, 0x22, 0x22, 0x33, 0x33, 0x33, 0x44, 0x45, 0x44, 0x56, 0x88, 0x9A, 0xAB, 0xBD, 0xDE, 0
 135:emWin/GUI_Demo/GUIDEMO_Bitmap.c ****   0x33, 0x22, 0x22, 0x22, 0x23, 0x33, 0x33, 0x32, 0x35, 0x44, 0x57, 0x78, 0x99, 0x9A, 0xBC, 0xEE, 0
 136:emWin/GUI_Demo/GUIDEMO_Bitmap.c ****   0x33, 0x22, 0x22, 0x22, 0x23, 0x22, 0x12, 0x34, 0x54, 0x44, 0x67, 0x78, 0x89, 0x9A, 0xAC, 0xDE, 0
 137:emWin/GUI_Demo/GUIDEMO_Bitmap.c ****   0x33, 0x32, 0x22, 0x22, 0x22, 0x22, 0x33, 0x35, 0x54, 0x33, 0x77, 0x68, 0x89, 0x9A, 0xBC, 0xDE, 0
ARM GAS  C:\Users\gx\AppData\Local\Temp\ccjJNnuW.s 			page 4


 138:emWin/GUI_Demo/GUIDEMO_Bitmap.c ****   0x33, 0x22, 0x22, 0x22, 0x21, 0x02, 0x31, 0x33, 0x43, 0x34, 0x66, 0x67, 0x89, 0xAA, 0xBC, 0xDE, 0
 139:emWin/GUI_Demo/GUIDEMO_Bitmap.c ****   0x33, 0x22, 0x22, 0x22, 0x21, 0x02, 0x22, 0x32, 0x45, 0x65, 0x76, 0x67, 0x89, 0x9A, 0xBB, 0xDE, 0
 140:emWin/GUI_Demo/GUIDEMO_Bitmap.c ****   0x32, 0x22, 0x22, 0x22, 0x20, 0x01, 0x22, 0x12, 0x46, 0x86, 0x76, 0x77, 0x89, 0x9B, 0xCD, 0xEE, 0
 141:emWin/GUI_Demo/GUIDEMO_Bitmap.c ****   0x22, 0x22, 0x22, 0x22, 0x21, 0x10, 0x11, 0x12, 0x35, 0x65, 0x66, 0x67, 0x88, 0xAA, 0xAA, 0xBC, 0
 142:emWin/GUI_Demo/GUIDEMO_Bitmap.c ****   0x22, 0x22, 0x22, 0x22, 0x22, 0x10, 0x00, 0x02, 0x54, 0x44, 0x55, 0x66, 0x89, 0x76, 0x56, 0x79, 0
 143:emWin/GUI_Demo/GUIDEMO_Bitmap.c ****   0x22, 0x22, 0x22, 0x22, 0x22, 0x00, 0x00, 0x11, 0x32, 0x33, 0x45, 0x66, 0x87, 0x76, 0x65, 0x67, 0
 144:emWin/GUI_Demo/GUIDEMO_Bitmap.c ****   0x22, 0x22, 0x22, 0x22, 0x22, 0x00, 0x00, 0x01, 0x21, 0x43, 0x46, 0x65, 0x77, 0x99, 0x98, 0x66, 0
 145:emWin/GUI_Demo/GUIDEMO_Bitmap.c ****   0x22, 0x22, 0x22, 0x22, 0x22, 0x10, 0x00, 0x01, 0x43, 0x22, 0x46, 0x65, 0x58, 0x98, 0x99, 0x76, 0
 146:emWin/GUI_Demo/GUIDEMO_Bitmap.c ****   0x22, 0x22, 0x22, 0x22, 0x22, 0x10, 0x00, 0x00, 0x23, 0x23, 0x57, 0x75, 0x67, 0x78, 0xAA, 0x86, 0
 147:emWin/GUI_Demo/GUIDEMO_Bitmap.c ****   0x22, 0x22, 0x22, 0x22, 0x22, 0x10, 0x00, 0x00, 0x12, 0x34, 0x67, 0x76, 0x77, 0x55, 0x56, 0x46, 0
 148:emWin/GUI_Demo/GUIDEMO_Bitmap.c ****   0x22, 0x22, 0x22, 0x22, 0x22, 0x10, 0x00, 0x01, 0x12, 0x44, 0x68, 0x78, 0x75, 0x38, 0x74, 0xA9, 0
 149:emWin/GUI_Demo/GUIDEMO_Bitmap.c ****   0x22, 0x22, 0x22, 0x22, 0x22, 0x10, 0x00, 0x00, 0x12, 0x44, 0x67, 0x88, 0x76, 0x59, 0xBB, 0xCD, 0
 150:emWin/GUI_Demo/GUIDEMO_Bitmap.c ****   0x22, 0x22, 0x22, 0x22, 0x22, 0x21, 0x00, 0x01, 0x01, 0x23, 0x57, 0x89, 0x88, 0x78, 0xAA, 0xBD, 0
 151:emWin/GUI_Demo/GUIDEMO_Bitmap.c ****   0x22, 0x22, 0x22, 0x22, 0x22, 0x21, 0x00, 0x13, 0x10, 0x13, 0x47, 0x8A, 0xBA, 0x9A, 0xBD, 0xED, 0
 152:emWin/GUI_Demo/GUIDEMO_Bitmap.c ****   0x22, 0x22, 0x22, 0x22, 0x22, 0x21, 0x00, 0x15, 0x20, 0x13, 0x46, 0x8A, 0xBB, 0xBC, 0xDE, 0xEC, 0
 153:emWin/GUI_Demo/GUIDEMO_Bitmap.c ****   0x22, 0x22, 0x22, 0x22, 0x22, 0x11, 0x00, 0x17, 0x41, 0x13, 0x35, 0x8A, 0xBC, 0xCD, 0xEE, 0xEC, 0
 154:emWin/GUI_Demo/GUIDEMO_Bitmap.c ****   0x22, 0x22, 0x22, 0x22, 0x22, 0x11, 0x00, 0x17, 0x62, 0x23, 0x34, 0x7A, 0xBC, 0xDE, 0xEE, 0xEC, 0
 155:emWin/GUI_Demo/GUIDEMO_Bitmap.c ****   0x22, 0x22, 0x22, 0x22, 0x21, 0x11, 0x00, 0x06, 0x63, 0x23, 0x34, 0x69, 0xAC, 0xDE, 0xEE, 0xEC, 0
 156:emWin/GUI_Demo/GUIDEMO_Bitmap.c ****   0x22, 0x22, 0x22, 0x22, 0x21, 0x11, 0x00, 0x04, 0x54, 0x23, 0x34, 0x69, 0xAB, 0xCD, 0xDE, 0xDB, 0
 157:emWin/GUI_Demo/GUIDEMO_Bitmap.c ****   0x22, 0x22, 0x22, 0x22, 0x21, 0x11, 0x00, 0x02, 0x65, 0x23, 0x34, 0x68, 0xAB, 0xBD, 0xDE, 0xDA, 0
 158:emWin/GUI_Demo/GUIDEMO_Bitmap.c ****   0x22, 0x22, 0x22, 0x22, 0x11, 0x11, 0x10, 0x01, 0x66, 0x22, 0x34, 0x68, 0x9A, 0xBD, 0xDD, 0xC8, 0
 159:emWin/GUI_Demo/GUIDEMO_Bitmap.c ****   0x22, 0x22, 0x22, 0x21, 0x11, 0x11, 0x10, 0x01, 0x56, 0x22, 0x34, 0x78, 0x9A, 0xBC, 0xDD, 0xD7, 0
 160:emWin/GUI_Demo/GUIDEMO_Bitmap.c ****   0x22, 0x22, 0x22, 0x21, 0x11, 0x11, 0x11, 0x00, 0x35, 0x22, 0x34, 0x78, 0x9A, 0xBC, 0xDD, 0xDA, 0
 161:emWin/GUI_Demo/GUIDEMO_Bitmap.c ****   0x22, 0x22, 0x22, 0x11, 0x11, 0x11, 0x11, 0x00, 0x01, 0x01, 0x24, 0x68, 0x9A, 0xBC, 0xDD, 0xCA, 0
 162:emWin/GUI_Demo/GUIDEMO_Bitmap.c ****   0x22, 0x22, 0x22, 0x11, 0x11, 0x11, 0x11, 0x10, 0x00, 0x01, 0x23, 0x68, 0x9A, 0xBC, 0xB9, 0x96, 0
 163:emWin/GUI_Demo/GUIDEMO_Bitmap.c ****   0x22, 0x22, 0x21, 0x11, 0x11, 0x11, 0x11, 0x11, 0x00, 0x00, 0x24, 0x57, 0x9A, 0xBB, 0x86, 0x53, 0
 164:emWin/GUI_Demo/GUIDEMO_Bitmap.c ****   0x22, 0x21, 0x11, 0x11, 0x11, 0x11, 0x11, 0x11, 0x00, 0x00, 0x24, 0x56, 0x89, 0xAA, 0x43, 0x33, 0
 165:emWin/GUI_Demo/GUIDEMO_Bitmap.c ****   0x21, 0x11, 0x11, 0x11, 0x11, 0x11, 0x10, 0x00, 0x00, 0x00, 0x13, 0x66, 0x78, 0xA9, 0x32, 0x22, 0
 166:emWin/GUI_Demo/GUIDEMO_Bitmap.c ****   0x11, 0x11, 0x11, 0x11, 0x11, 0x10, 0x00, 0x00, 0x00, 0x00, 0x02, 0x56, 0x68, 0x98, 0x32, 0x33, 0
 167:emWin/GUI_Demo/GUIDEMO_Bitmap.c ****   0x11, 0x01, 0x11, 0x11, 0x11, 0x11, 0x00, 0x00, 0x00, 0x00, 0x01, 0x45, 0x66, 0x88, 0x45, 0x66, 0
 168:emWin/GUI_Demo/GUIDEMO_Bitmap.c ****   0x11, 0x11, 0x22, 0x22, 0x22, 0x21, 0x00, 0x00, 0x00, 0x01, 0x00, 0x35, 0x55, 0x77, 0x67, 0x78, 0
 169:emWin/GUI_Demo/GUIDEMO_Bitmap.c ****   0x22, 0x22, 0x33, 0x33, 0x33, 0x21, 0x00, 0x01, 0x10, 0x13, 0x00, 0x14, 0x54, 0x56, 0x67, 0x89, 0
 170:emWin/GUI_Demo/GUIDEMO_Bitmap.c ****   0x22, 0x23, 0x33, 0x44, 0x43, 0x31, 0x11, 0x11, 0x20, 0x24, 0x41, 0x12, 0x44, 0x46, 0x67, 0x88, 0
 171:emWin/GUI_Demo/GUIDEMO_Bitmap.c ****   0x33, 0x33, 0x44, 0x44, 0x43, 0x21, 0x11, 0x22, 0x31, 0x25, 0x54, 0x22, 0x33, 0x46, 0x56, 0x79, 0
 172:emWin/GUI_Demo/GUIDEMO_Bitmap.c ****   0x33, 0x34, 0x44, 0x44, 0x43, 0x22, 0x12, 0x23, 0x31, 0x25, 0x66, 0x43, 0x22, 0x34, 0x55, 0x7B, 0
 173:emWin/GUI_Demo/GUIDEMO_Bitmap.c ****   0x44, 0x44, 0x44, 0x44, 0x43, 0x32, 0x22, 0x23, 0x41, 0x05, 0x77, 0x64, 0x22, 0x23, 0x35, 0x9B, 0
 174:emWin/GUI_Demo/GUIDEMO_Bitmap.c ****   0x44, 0x44, 0x44, 0x44, 0x43, 0x32, 0x22, 0x33, 0x42, 0x03, 0x77, 0x76, 0x42, 0x22, 0x26, 0xAA, 0
 175:emWin/GUI_Demo/GUIDEMO_Bitmap.c ****   0x44, 0x44, 0x44, 0x44, 0x33, 0x32, 0x22, 0x33, 0x42, 0x01, 0x68, 0x78, 0x83, 0x21, 0x16, 0x9A, 0
 176:emWin/GUI_Demo/GUIDEMO_Bitmap.c ****   0x44, 0x44, 0x44, 0x44, 0x33, 0x32, 0x22, 0x33, 0x43, 0x10, 0x37, 0x8A, 0xB7, 0x11, 0x15, 0x7C, 0
 177:emWin/GUI_Demo/GUIDEMO_Bitmap.c ****   0x44, 0x44, 0x44, 0x43, 0x33, 0x22, 0x32, 0x23, 0x46, 0x51, 0x15, 0x8C, 0xDA, 0x40, 0x13, 0x6B, 0
 178:emWin/GUI_Demo/GUIDEMO_Bitmap.c ****   0x44, 0x44, 0x44, 0x33, 0x33, 0x22, 0x32, 0x23, 0x48, 0xA3, 0x02, 0x7E, 0xEC, 0x71, 0x22, 0x5A, 0
 179:emWin/GUI_Demo/GUIDEMO_Bitmap.c ****   0x44, 0x44, 0x44, 0x33, 0x32, 0x23, 0x32, 0x23, 0x48, 0xE8, 0x11, 0x7E, 0xEC, 0x93, 0x12, 0x69, 0
 180:emWin/GUI_Demo/GUIDEMO_Bitmap.c ****   0x44, 0x44, 0x43, 0x22, 0x32, 0x22, 0x22, 0x23, 0x47, 0xFC, 0x51, 0x9F, 0xEC, 0xA6, 0x11, 0x58, 0
 181:emWin/GUI_Demo/GUIDEMO_Bitmap.c ****   0x44, 0x43, 0x33, 0x21, 0x23, 0x22, 0x22, 0x23, 0x47, 0xFE, 0xA4, 0xAE, 0xDC, 0x97, 0x11, 0x37, 0
 182:emWin/GUI_Demo/GUIDEMO_Bitmap.c ****   0x44, 0x43, 0x33, 0x30, 0x22, 0x22, 0x23, 0x22, 0x46, 0xFF, 0xE9, 0x79, 0x88, 0x64, 0x10, 0x25, 0
 183:emWin/GUI_Demo/GUIDEMO_Bitmap.c ****   0x43, 0x33, 0x33, 0x31, 0x12, 0x22, 0x22, 0x23, 0x45, 0xEF, 0xFE, 0x72, 0x11, 0x00, 0x00, 0x13, 0
 184:emWin/GUI_Demo/GUIDEMO_Bitmap.c ****   0x43, 0x33, 0x23, 0x31, 0x12, 0x22, 0x23, 0x33, 0x45, 0xEF, 0xFF, 0xC4, 0x11, 0x00, 0x00, 0x02, 0
 185:emWin/GUI_Demo/GUIDEMO_Bitmap.c ****   0x33, 0x33, 0x33, 0x32, 0x32, 0x22, 0x23, 0x33, 0x45, 0xDF, 0xFF, 0xE7, 0x10, 0x00, 0x00, 0x01, 0
 186:emWin/GUI_Demo/GUIDEMO_Bitmap.c ****   0x33, 0x33, 0x33, 0x23, 0x32, 0x22, 0x33, 0x33, 0x45, 0xCF, 0xFF, 0xF9, 0x20, 0x00, 0x00, 0x00, 0
 187:emWin/GUI_Demo/GUIDEMO_Bitmap.c ****   0x33, 0x33, 0x22, 0x33, 0x32, 0x23, 0x33, 0x34, 0x44, 0xBF, 0xFF, 0xFA, 0x41, 0x00, 0x00, 0x01, 0
 188:emWin/GUI_Demo/GUIDEMO_Bitmap.c ****   0x33, 0x33, 0x23, 0x33, 0x33, 0x33, 0x33, 0x44, 0x44, 0xAF, 0xFF, 0xFC, 0x51, 0x00, 0x00, 0x03, 0
 189:emWin/GUI_Demo/GUIDEMO_Bitmap.c ****   0x33, 0x32, 0x23, 0x33, 0x33, 0x33, 0x33, 0x34, 0x44, 0x9F, 0xFF, 0xFD, 0x83, 0x00, 0x00, 0x03, 0
 190:emWin/GUI_Demo/GUIDEMO_Bitmap.c ****   0x22, 0x32, 0x13, 0x33, 0x33, 0x33, 0x33, 0x34, 0x44, 0x8F, 0xFF, 0xFE, 0xB4, 0x10, 0x00, 0x12, 0
 191:emWin/GUI_Demo/GUIDEMO_Bitmap.c ****   0x22, 0x22, 0x02, 0x33, 0x33, 0x33, 0x33, 0x34, 0x44, 0x7F, 0xFF, 0xFF, 0xC5, 0x11, 0x00, 0x21, 0
 192:emWin/GUI_Demo/GUIDEMO_Bitmap.c ****   0x22, 0x22, 0x02, 0x33, 0x32, 0x32, 0x33, 0x34, 0x44, 0x6E, 0xFF, 0xFF, 0xE6, 0x22, 0x00, 0x31, 0
 193:emWin/GUI_Demo/GUIDEMO_Bitmap.c ****   0x22, 0x22, 0x11, 0x33, 0x32, 0x22, 0x33, 0x33, 0x44, 0x5E, 0xFF, 0xFF, 0xE6, 0x32, 0x10, 0x30, 0
 194:emWin/GUI_Demo/GUIDEMO_Bitmap.c ****   0x22, 0x22, 0x10, 0x33, 0x33, 0x22, 0x23, 0x34, 0x44, 0x5E, 0xFF, 0xFF, 0xC4, 0x32, 0x12, 0x30, 0
ARM GAS  C:\Users\gx\AppData\Local\Temp\ccjJNnuW.s 			page 5


 195:emWin/GUI_Demo/GUIDEMO_Bitmap.c ****   0x11, 0x22, 0x20, 0x23, 0x33, 0x22, 0x23, 0x34, 0x44, 0x4D, 0xFF, 0xFD, 0x52, 0x33, 0x23, 0x20, 0
 196:emWin/GUI_Demo/GUIDEMO_Bitmap.c ****   0x11, 0x12, 0x21, 0x13, 0x33, 0x22, 0x23, 0x34, 0x44, 0x4C, 0xFF, 0xE7, 0x33, 0x33, 0x33, 0x10, 0
 197:emWin/GUI_Demo/GUIDEMO_Bitmap.c ****   0x00, 0x11, 0x21, 0x02, 0x33, 0x22, 0x23, 0x33, 0x44, 0x4B, 0xFF, 0xB5, 0x43, 0x44, 0x31, 0x00, 0
 198:emWin/GUI_Demo/GUIDEMO_Bitmap.c ****   0x00, 0x01, 0x12, 0x11, 0x22, 0x21, 0x12, 0x33, 0x34, 0x3A, 0xFE, 0x75, 0x44, 0x43, 0x31, 0x01, 0
 199:emWin/GUI_Demo/GUIDEMO_Bitmap.c ****   0x00, 0x01, 0x11, 0x10, 0x22, 0x11, 0x12, 0x23, 0x34, 0x38, 0xFB, 0x55, 0x44, 0x44, 0x31, 0x02, 0
 200:emWin/GUI_Demo/GUIDEMO_Bitmap.c ****   0x00, 0x00, 0x10, 0x00, 0x12, 0x11, 0x11, 0x22, 0x34, 0x36, 0xD7, 0x54, 0x44, 0x44, 0x31, 0x23, 0
 201:emWin/GUI_Demo/GUIDEMO_Bitmap.c ****   0x00, 0x00, 0x10, 0x00, 0x01, 0x11, 0x11, 0x12, 0x33, 0x35, 0xA5, 0x44, 0x44, 0x44, 0x31, 0x23, 0
 202:emWin/GUI_Demo/GUIDEMO_Bitmap.c ****   0x10, 0x00, 0x00, 0x00, 0x01, 0x11, 0x11, 0x12, 0x23, 0x34, 0x64, 0x44, 0x44, 0x43, 0x21, 0x32, 0
 203:emWin/GUI_Demo/GUIDEMO_Bitmap.c ****   0x20, 0x00, 0x01, 0x00, 0x00, 0x11, 0x00, 0x01, 0x23, 0x33, 0x44, 0x44, 0x44, 0x43, 0x22, 0x22, 0
 204:emWin/GUI_Demo/GUIDEMO_Bitmap.c ****   0x10, 0x00, 0x00, 0x00, 0x00, 0x10, 0x00, 0x01, 0x12, 0x23, 0x44, 0x44, 0x44, 0x43, 0x12, 0x21, 0
 205:emWin/GUI_Demo/GUIDEMO_Bitmap.c ****   0x00, 0x00, 0x00, 0x00, 0x00, 0x00, 0x00, 0x00, 0x12, 0x23, 0x44, 0x44, 0x44, 0x32, 0x12, 0x21, 0
 206:emWin/GUI_Demo/GUIDEMO_Bitmap.c ****   0x00, 0x00, 0x00, 0x00, 0x00, 0x00, 0x00, 0x00, 0x12, 0x22, 0x34, 0x44, 0x44, 0x31, 0x22, 0x11, 0
 207:emWin/GUI_Demo/GUIDEMO_Bitmap.c ****   0x00, 0x00, 0x00, 0x00, 0x00, 0x00, 0x00, 0x00, 0x01, 0x22, 0x34, 0x44, 0x43, 0x21, 0x21, 0x11, 0
 208:emWin/GUI_Demo/GUIDEMO_Bitmap.c ****   0x00, 0x00, 0x00, 0x00, 0x00, 0x00, 0x00, 0x00, 0x01, 0x21, 0x35, 0x65, 0x33, 0x12, 0x21, 0x01, 0
 209:emWin/GUI_Demo/GUIDEMO_Bitmap.c ****   0x00, 0x00, 0x00, 0x00, 0x00, 0x00, 0x00, 0x00, 0x01, 0x11, 0x21, 0x25, 0x42, 0x12, 0x10, 0x01, 0
 210:emWin/GUI_Demo/GUIDEMO_Bitmap.c **** };
 211:emWin/GUI_Demo/GUIDEMO_Bitmap.c **** 
 212:emWin/GUI_Demo/GUIDEMO_Bitmap.c **** const GUI_BITMAP GUIDEMO_bm4bpp = {
 213:emWin/GUI_Demo/GUIDEMO_Bitmap.c ****   61,        /* XSize */
 214:emWin/GUI_Demo/GUIDEMO_Bitmap.c ****   92,        /* YSize */
 215:emWin/GUI_Demo/GUIDEMO_Bitmap.c ****   31,        /* BytesPerLine */
 216:emWin/GUI_Demo/GUIDEMO_Bitmap.c ****   4,         /* BitsPerPixel */
 217:emWin/GUI_Demo/GUIDEMO_Bitmap.c ****   _acNature,  /* Pointer to picture data (indices) */
 218:emWin/GUI_Demo/GUIDEMO_Bitmap.c ****   &_PalNature /* Pointer to palette */
 219:emWin/GUI_Demo/GUIDEMO_Bitmap.c **** };
 220:emWin/GUI_Demo/GUIDEMO_Bitmap.c **** 
 221:emWin/GUI_Demo/GUIDEMO_Bitmap.c **** /*********************************************************************
 222:emWin/GUI_Demo/GUIDEMO_Bitmap.c **** *
 223:emWin/GUI_Demo/GUIDEMO_Bitmap.c **** *       Bug bitmap
 224:emWin/GUI_Demo/GUIDEMO_Bitmap.c **** *
 225:emWin/GUI_Demo/GUIDEMO_Bitmap.c **** **********************************************************************
 226:emWin/GUI_Demo/GUIDEMO_Bitmap.c **** */
 227:emWin/GUI_Demo/GUIDEMO_Bitmap.c **** 
 228:emWin/GUI_Demo/GUIDEMO_Bitmap.c **** static const GUI_COLOR _ColorsLadyBug[] = {
 229:emWin/GUI_Demo/GUIDEMO_Bitmap.c ****   0xFFFFFF, 0x000000, 0x0000ff, 0xFFCCCC
 230:emWin/GUI_Demo/GUIDEMO_Bitmap.c **** };
 231:emWin/GUI_Demo/GUIDEMO_Bitmap.c **** 
 232:emWin/GUI_Demo/GUIDEMO_Bitmap.c **** static const GUI_LOGPALETTE _PalLadyBug = {
 233:emWin/GUI_Demo/GUIDEMO_Bitmap.c ****   4,	/* number of entries */
 234:emWin/GUI_Demo/GUIDEMO_Bitmap.c ****   0, 	/* No transparency */
 235:emWin/GUI_Demo/GUIDEMO_Bitmap.c ****   &_ColorsLadyBug[0]
 236:emWin/GUI_Demo/GUIDEMO_Bitmap.c **** };
 237:emWin/GUI_Demo/GUIDEMO_Bitmap.c **** 
 238:emWin/GUI_Demo/GUIDEMO_Bitmap.c **** static const unsigned char _acLadyBug[] = {
 239:emWin/GUI_Demo/GUIDEMO_Bitmap.c ****   /* RLE: 056 Pixels @ 000,000*/ 56, 0x00, 
 240:emWin/GUI_Demo/GUIDEMO_Bitmap.c ****   /* RLE: 007 Pixels @ 056,000*/ 7, 0x01, 
 241:emWin/GUI_Demo/GUIDEMO_Bitmap.c ****   /* RLE: 152 Pixels @ 063,000*/ 152, 0x00, 
 242:emWin/GUI_Demo/GUIDEMO_Bitmap.c ****   /* RLE: 009 Pixels @ 055,001*/ 9, 0x01, 
 243:emWin/GUI_Demo/GUIDEMO_Bitmap.c ****   /* RLE: 150 Pixels @ 064,001*/ 150, 0x00, 
 244:emWin/GUI_Demo/GUIDEMO_Bitmap.c ****   /* RLE: 010 Pixels @ 054,002*/ 10, 0x01, 
 245:emWin/GUI_Demo/GUIDEMO_Bitmap.c ****   /* RLE: 149 Pixels @ 064,002*/ 149, 0x00, 
 246:emWin/GUI_Demo/GUIDEMO_Bitmap.c ****   /* RLE: 012 Pixels @ 053,003*/ 12, 0x01, 
 247:emWin/GUI_Demo/GUIDEMO_Bitmap.c ****   /* RLE: 148 Pixels @ 065,003*/ 148, 0x00, 
 248:emWin/GUI_Demo/GUIDEMO_Bitmap.c ****   /* RLE: 012 Pixels @ 053,004*/ 12, 0x01, 
 249:emWin/GUI_Demo/GUIDEMO_Bitmap.c ****   /* RLE: 147 Pixels @ 065,004*/ 147, 0x00, 
 250:emWin/GUI_Demo/GUIDEMO_Bitmap.c ****   /* RLE: 013 Pixels @ 052,005*/ 13, 0x01, 
 251:emWin/GUI_Demo/GUIDEMO_Bitmap.c ****   /* RLE: 147 Pixels @ 065,005*/ 147, 0x00, 
ARM GAS  C:\Users\gx\AppData\Local\Temp\ccjJNnuW.s 			page 6


 252:emWin/GUI_Demo/GUIDEMO_Bitmap.c ****   /* RLE: 013 Pixels @ 052,006*/ 13, 0x01, 
 253:emWin/GUI_Demo/GUIDEMO_Bitmap.c ****   /* RLE: 146 Pixels @ 065,006*/ 146, 0x00, 
 254:emWin/GUI_Demo/GUIDEMO_Bitmap.c ****   /* RLE: 014 Pixels @ 051,007*/ 14, 0x01, 
 255:emWin/GUI_Demo/GUIDEMO_Bitmap.c ****   /* RLE: 146 Pixels @ 065,007*/ 146, 0x00, 
 256:emWin/GUI_Demo/GUIDEMO_Bitmap.c ****   /* RLE: 014 Pixels @ 051,008*/ 14, 0x01, 
 257:emWin/GUI_Demo/GUIDEMO_Bitmap.c ****   /* RLE: 146 Pixels @ 065,008*/ 146, 0x00, 
 258:emWin/GUI_Demo/GUIDEMO_Bitmap.c ****   /* RLE: 014 Pixels @ 051,009*/ 14, 0x01, 
 259:emWin/GUI_Demo/GUIDEMO_Bitmap.c ****   /* RLE: 145 Pixels @ 065,009*/ 145, 0x00, 
 260:emWin/GUI_Demo/GUIDEMO_Bitmap.c ****   /* RLE: 014 Pixels @ 050,010*/ 14, 0x01, 
 261:emWin/GUI_Demo/GUIDEMO_Bitmap.c ****   /* RLE: 146 Pixels @ 064,010*/ 146, 0x00, 
 262:emWin/GUI_Demo/GUIDEMO_Bitmap.c ****   /* RLE: 014 Pixels @ 050,011*/ 14, 0x01, 
 263:emWin/GUI_Demo/GUIDEMO_Bitmap.c ****   /* RLE: 146 Pixels @ 064,011*/ 146, 0x00, 
 264:emWin/GUI_Demo/GUIDEMO_Bitmap.c ****   /* RLE: 014 Pixels @ 050,012*/ 14, 0x01, 
 265:emWin/GUI_Demo/GUIDEMO_Bitmap.c ****   /* RLE: 146 Pixels @ 064,012*/ 146, 0x00, 
 266:emWin/GUI_Demo/GUIDEMO_Bitmap.c ****   /* RLE: 013 Pixels @ 050,013*/ 13, 0x01, 
 267:emWin/GUI_Demo/GUIDEMO_Bitmap.c ****   /* RLE: 146 Pixels @ 063,013*/ 146, 0x00, 
 268:emWin/GUI_Demo/GUIDEMO_Bitmap.c ****   /* RLE: 014 Pixels @ 049,014*/ 14, 0x01, 
 269:emWin/GUI_Demo/GUIDEMO_Bitmap.c ****   /* RLE: 146 Pixels @ 063,014*/ 146, 0x00, 
 270:emWin/GUI_Demo/GUIDEMO_Bitmap.c ****   /* RLE: 013 Pixels @ 049,015*/ 13, 0x01, 
 271:emWin/GUI_Demo/GUIDEMO_Bitmap.c ****   /* RLE: 147 Pixels @ 062,015*/ 147, 0x00, 
 272:emWin/GUI_Demo/GUIDEMO_Bitmap.c ****   /* RLE: 013 Pixels @ 049,016*/ 13, 0x01, 
 273:emWin/GUI_Demo/GUIDEMO_Bitmap.c ****   /* RLE: 147 Pixels @ 062,016*/ 147, 0x00, 
 274:emWin/GUI_Demo/GUIDEMO_Bitmap.c ****   /* RLE: 012 Pixels @ 049,017*/ 12, 0x01, 
 275:emWin/GUI_Demo/GUIDEMO_Bitmap.c ****   /* RLE: 148 Pixels @ 061,017*/ 148, 0x00, 
 276:emWin/GUI_Demo/GUIDEMO_Bitmap.c ****   /* RLE: 012 Pixels @ 049,018*/ 12, 0x01, 
 277:emWin/GUI_Demo/GUIDEMO_Bitmap.c ****   /* RLE: 148 Pixels @ 061,018*/ 148, 0x00, 
 278:emWin/GUI_Demo/GUIDEMO_Bitmap.c ****   /* RLE: 012 Pixels @ 049,019*/ 12, 0x01, 
 279:emWin/GUI_Demo/GUIDEMO_Bitmap.c ****   /* RLE: 147 Pixels @ 061,019*/ 147, 0x00, 
 280:emWin/GUI_Demo/GUIDEMO_Bitmap.c ****   /* RLE: 012 Pixels @ 048,020*/ 12, 0x01, 
 281:emWin/GUI_Demo/GUIDEMO_Bitmap.c ****   /* RLE: 148 Pixels @ 060,020*/ 148, 0x00, 
 282:emWin/GUI_Demo/GUIDEMO_Bitmap.c ****   /* RLE: 012 Pixels @ 048,021*/ 12, 0x01, 
 283:emWin/GUI_Demo/GUIDEMO_Bitmap.c ****   /* RLE: 148 Pixels @ 060,021*/ 148, 0x00, 
 284:emWin/GUI_Demo/GUIDEMO_Bitmap.c ****   /* RLE: 011 Pixels @ 048,022*/ 11, 0x01, 
 285:emWin/GUI_Demo/GUIDEMO_Bitmap.c ****   /* RLE: 149 Pixels @ 059,022*/ 149, 0x00, 
 286:emWin/GUI_Demo/GUIDEMO_Bitmap.c ****   /* RLE: 011 Pixels @ 048,023*/ 11, 0x01, 
 287:emWin/GUI_Demo/GUIDEMO_Bitmap.c ****   /* RLE: 149 Pixels @ 059,023*/ 149, 0x00, 
 288:emWin/GUI_Demo/GUIDEMO_Bitmap.c ****   /* RLE: 011 Pixels @ 048,024*/ 11, 0x01, 
 289:emWin/GUI_Demo/GUIDEMO_Bitmap.c ****   /* RLE: 149 Pixels @ 059,024*/ 149, 0x00, 
 290:emWin/GUI_Demo/GUIDEMO_Bitmap.c ****   /* RLE: 010 Pixels @ 048,025*/ 10, 0x01, 
 291:emWin/GUI_Demo/GUIDEMO_Bitmap.c ****   /* RLE: 150 Pixels @ 058,025*/ 150, 0x00, 
 292:emWin/GUI_Demo/GUIDEMO_Bitmap.c ****   /* RLE: 010 Pixels @ 048,026*/ 10, 0x01, 
 293:emWin/GUI_Demo/GUIDEMO_Bitmap.c ****   /* RLE: 150 Pixels @ 058,026*/ 150, 0x00, 
 294:emWin/GUI_Demo/GUIDEMO_Bitmap.c ****   /* RLE: 010 Pixels @ 048,027*/ 10, 0x01, 
 295:emWin/GUI_Demo/GUIDEMO_Bitmap.c ****   /* RLE: 150 Pixels @ 058,027*/ 150, 0x00, 
 296:emWin/GUI_Demo/GUIDEMO_Bitmap.c ****   /* RLE: 009 Pixels @ 048,028*/ 9, 0x01, 
 297:emWin/GUI_Demo/GUIDEMO_Bitmap.c ****   /* RLE: 152 Pixels @ 057,028*/ 152, 0x00, 
 298:emWin/GUI_Demo/GUIDEMO_Bitmap.c ****   /* RLE: 008 Pixels @ 049,029*/ 8, 0x01, 
 299:emWin/GUI_Demo/GUIDEMO_Bitmap.c ****   /* RLE: 152 Pixels @ 057,029*/ 152, 0x00, 
 300:emWin/GUI_Demo/GUIDEMO_Bitmap.c ****   /* RLE: 008 Pixels @ 049,030*/ 8, 0x01, 
 301:emWin/GUI_Demo/GUIDEMO_Bitmap.c ****   /* RLE: 152 Pixels @ 057,030*/ 152, 0x00, 
 302:emWin/GUI_Demo/GUIDEMO_Bitmap.c ****   /* RLE: 008 Pixels @ 049,031*/ 8, 0x01, 
 303:emWin/GUI_Demo/GUIDEMO_Bitmap.c ****   /* RLE: 152 Pixels @ 057,031*/ 152, 0x00, 
 304:emWin/GUI_Demo/GUIDEMO_Bitmap.c ****   /* RLE: 008 Pixels @ 049,032*/ 8, 0x01, 
 305:emWin/GUI_Demo/GUIDEMO_Bitmap.c ****   /* RLE: 152 Pixels @ 057,032*/ 152, 0x00, 
 306:emWin/GUI_Demo/GUIDEMO_Bitmap.c ****   /* RLE: 008 Pixels @ 049,033*/ 8, 0x01, 
 307:emWin/GUI_Demo/GUIDEMO_Bitmap.c ****   /* RLE: 152 Pixels @ 057,033*/ 152, 0x00, 
 308:emWin/GUI_Demo/GUIDEMO_Bitmap.c ****   /* RLE: 008 Pixels @ 049,034*/ 8, 0x01, 
ARM GAS  C:\Users\gx\AppData\Local\Temp\ccjJNnuW.s 			page 7


 309:emWin/GUI_Demo/GUIDEMO_Bitmap.c ****   /* RLE: 153 Pixels @ 057,034*/ 153, 0x00, 
 310:emWin/GUI_Demo/GUIDEMO_Bitmap.c ****   /* RLE: 007 Pixels @ 050,035*/ 7, 0x01, 
 311:emWin/GUI_Demo/GUIDEMO_Bitmap.c ****   /* RLE: 153 Pixels @ 057,035*/ 153, 0x00, 
 312:emWin/GUI_Demo/GUIDEMO_Bitmap.c ****   /* RLE: 007 Pixels @ 050,036*/ 7, 0x01, 
 313:emWin/GUI_Demo/GUIDEMO_Bitmap.c ****   /* RLE: 153 Pixels @ 057,036*/ 153, 0x00, 
 314:emWin/GUI_Demo/GUIDEMO_Bitmap.c ****   /* RLE: 007 Pixels @ 050,037*/ 7, 0x01, 
 315:emWin/GUI_Demo/GUIDEMO_Bitmap.c ****   /* RLE: 153 Pixels @ 057,037*/ 153, 0x00, 
 316:emWin/GUI_Demo/GUIDEMO_Bitmap.c ****   /* RLE: 007 Pixels @ 050,038*/ 7, 0x01, 
 317:emWin/GUI_Demo/GUIDEMO_Bitmap.c ****   /* RLE: 154 Pixels @ 057,038*/ 154, 0x00, 
 318:emWin/GUI_Demo/GUIDEMO_Bitmap.c ****   /* RLE: 006 Pixels @ 051,039*/ 6, 0x01, 
 319:emWin/GUI_Demo/GUIDEMO_Bitmap.c ****   /* RLE: 154 Pixels @ 057,039*/ 154, 0x00, 
 320:emWin/GUI_Demo/GUIDEMO_Bitmap.c ****   /* RLE: 007 Pixels @ 051,040*/ 7, 0x01, 
 321:emWin/GUI_Demo/GUIDEMO_Bitmap.c ****   /* RLE: 154 Pixels @ 058,040*/ 154, 0x00, 
 322:emWin/GUI_Demo/GUIDEMO_Bitmap.c ****   /* RLE: 006 Pixels @ 052,041*/ 6, 0x01, 
 323:emWin/GUI_Demo/GUIDEMO_Bitmap.c ****   /* RLE: 154 Pixels @ 058,041*/ 154, 0x00, 
 324:emWin/GUI_Demo/GUIDEMO_Bitmap.c ****   /* RLE: 007 Pixels @ 052,042*/ 7, 0x01, 
 325:emWin/GUI_Demo/GUIDEMO_Bitmap.c ****   /* RLE: 154 Pixels @ 059,042*/ 154, 0x00, 
 326:emWin/GUI_Demo/GUIDEMO_Bitmap.c ****   /* RLE: 006 Pixels @ 053,043*/ 6, 0x01, 
 327:emWin/GUI_Demo/GUIDEMO_Bitmap.c ****   /* RLE: 154 Pixels @ 059,043*/ 154, 0x00, 
 328:emWin/GUI_Demo/GUIDEMO_Bitmap.c ****   /* RLE: 007 Pixels @ 053,044*/ 7, 0x01, 
 329:emWin/GUI_Demo/GUIDEMO_Bitmap.c ****   /* RLE: 049 Pixels @ 060,044*/ 49, 0x00, 
 330:emWin/GUI_Demo/GUIDEMO_Bitmap.c ****   /* RLE: 010 Pixels @ 109,044*/ 10, 0x01, 
 331:emWin/GUI_Demo/GUIDEMO_Bitmap.c ****   /* RLE: 095 Pixels @ 119,044*/ 95, 0x00, 
 332:emWin/GUI_Demo/GUIDEMO_Bitmap.c ****   /* RLE: 006 Pixels @ 054,045*/ 6, 0x01, 
 333:emWin/GUI_Demo/GUIDEMO_Bitmap.c ****   /* RLE: 046 Pixels @ 060,045*/ 46, 0x00, 
 334:emWin/GUI_Demo/GUIDEMO_Bitmap.c ****   /* RLE: 014 Pixels @ 106,045*/ 14, 0x01, 
 335:emWin/GUI_Demo/GUIDEMO_Bitmap.c ****   /* RLE: 095 Pixels @ 120,045*/ 95, 0x00, 
 336:emWin/GUI_Demo/GUIDEMO_Bitmap.c ****   /* RLE: 006 Pixels @ 055,046*/ 6, 0x01, 
 337:emWin/GUI_Demo/GUIDEMO_Bitmap.c ****   /* RLE: 043 Pixels @ 061,046*/ 43, 0x00, 
 338:emWin/GUI_Demo/GUIDEMO_Bitmap.c ****   /* RLE: 017 Pixels @ 104,046*/ 17, 0x01, 
 339:emWin/GUI_Demo/GUIDEMO_Bitmap.c ****   /* RLE: 094 Pixels @ 121,046*/ 94, 0x00, 
 340:emWin/GUI_Demo/GUIDEMO_Bitmap.c ****   /* RLE: 007 Pixels @ 055,047*/ 7, 0x01, 
 341:emWin/GUI_Demo/GUIDEMO_Bitmap.c ****   /* RLE: 040 Pixels @ 062,047*/ 40, 0x00, 
 342:emWin/GUI_Demo/GUIDEMO_Bitmap.c ****   /* RLE: 020 Pixels @ 102,047*/ 20, 0x01, 
 343:emWin/GUI_Demo/GUIDEMO_Bitmap.c ****   /* RLE: 054 Pixels @ 122,047*/ 54, 0x00, 
 344:emWin/GUI_Demo/GUIDEMO_Bitmap.c ****   /* RLE: 019 Pixels @ 016,048*/ 19, 0x01, 
 345:emWin/GUI_Demo/GUIDEMO_Bitmap.c ****   /* RLE: 021 Pixels @ 035,048*/ 21, 0x00, 
 346:emWin/GUI_Demo/GUIDEMO_Bitmap.c ****   /* RLE: 006 Pixels @ 056,048*/ 6, 0x01, 
 347:emWin/GUI_Demo/GUIDEMO_Bitmap.c ****   /* RLE: 004 Pixels @ 062,048*/ 4, 0x00, 
 348:emWin/GUI_Demo/GUIDEMO_Bitmap.c ****   /* RLE: 006 Pixels @ 066,048*/ 6, 0x01, 
 349:emWin/GUI_Demo/GUIDEMO_Bitmap.c ****   /* RLE: 029 Pixels @ 072,048*/ 29, 0x00, 
 350:emWin/GUI_Demo/GUIDEMO_Bitmap.c ****   /* RLE: 022 Pixels @ 101,048*/ 22, 0x01, 
 351:emWin/GUI_Demo/GUIDEMO_Bitmap.c ****   /* RLE: 049 Pixels @ 123,048*/ 49, 0x00, 
 352:emWin/GUI_Demo/GUIDEMO_Bitmap.c ****   /* RLE: 027 Pixels @ 012,049*/ 27, 0x01, 
 353:emWin/GUI_Demo/GUIDEMO_Bitmap.c ****   /* RLE: 018 Pixels @ 039,049*/ 18, 0x00, 
 354:emWin/GUI_Demo/GUIDEMO_Bitmap.c ****   /* RLE: 006 Pixels @ 057,049*/ 6, 0x01, 
 355:emWin/GUI_Demo/GUIDEMO_Bitmap.c ****   /* RLE: 001 Pixels @ 063,049*/ 1, 0x00, 
 356:emWin/GUI_Demo/GUIDEMO_Bitmap.c ****   /* RLE: 009 Pixels @ 064,049*/ 9, 0x01, 
 357:emWin/GUI_Demo/GUIDEMO_Bitmap.c ****   /* RLE: 026 Pixels @ 073,049*/ 26, 0x00, 
 358:emWin/GUI_Demo/GUIDEMO_Bitmap.c ****   /* RLE: 024 Pixels @ 099,049*/ 24, 0x01, 
 359:emWin/GUI_Demo/GUIDEMO_Bitmap.c ****   /* RLE: 046 Pixels @ 123,049*/ 46, 0x00, 
 360:emWin/GUI_Demo/GUIDEMO_Bitmap.c ****   /* RLE: 032 Pixels @ 009,050*/ 32, 0x01, 
 361:emWin/GUI_Demo/GUIDEMO_Bitmap.c ****   /* RLE: 017 Pixels @ 041,050*/ 17, 0x00, 
 362:emWin/GUI_Demo/GUIDEMO_Bitmap.c ****   /* RLE: 016 Pixels @ 058,050*/ 16, 0x01, 
 363:emWin/GUI_Demo/GUIDEMO_Bitmap.c ****   /* RLE: 024 Pixels @ 074,050*/ 24, 0x00, 
 364:emWin/GUI_Demo/GUIDEMO_Bitmap.c ****   /* RLE: 026 Pixels @ 098,050*/ 26, 0x01, 
 365:emWin/GUI_Demo/GUIDEMO_Bitmap.c ****   /* RLE: 043 Pixels @ 124,050*/ 43, 0x00, 
ARM GAS  C:\Users\gx\AppData\Local\Temp\ccjJNnuW.s 			page 8


 366:emWin/GUI_Demo/GUIDEMO_Bitmap.c ****   /* RLE: 036 Pixels @ 007,051*/ 36, 0x01, 
 367:emWin/GUI_Demo/GUIDEMO_Bitmap.c ****   /* RLE: 015 Pixels @ 043,051*/ 15, 0x00, 
 368:emWin/GUI_Demo/GUIDEMO_Bitmap.c ****   /* RLE: 017 Pixels @ 058,051*/ 17, 0x01, 
 369:emWin/GUI_Demo/GUIDEMO_Bitmap.c ****   /* RLE: 022 Pixels @ 075,051*/ 22, 0x00, 
 370:emWin/GUI_Demo/GUIDEMO_Bitmap.c ****   /* RLE: 027 Pixels @ 097,051*/ 27, 0x01, 
 371:emWin/GUI_Demo/GUIDEMO_Bitmap.c ****   /* RLE: 040 Pixels @ 124,051*/ 40, 0x00, 
 372:emWin/GUI_Demo/GUIDEMO_Bitmap.c ****   /* RLE: 041 Pixels @ 004,052*/ 41, 0x01, 
 373:emWin/GUI_Demo/GUIDEMO_Bitmap.c ****   /* RLE: 014 Pixels @ 045,052*/ 14, 0x00, 
 374:emWin/GUI_Demo/GUIDEMO_Bitmap.c ****   /* RLE: 016 Pixels @ 059,052*/ 16, 0x01, 
 375:emWin/GUI_Demo/GUIDEMO_Bitmap.c ****   /* RLE: 021 Pixels @ 075,052*/ 21, 0x00, 
 376:emWin/GUI_Demo/GUIDEMO_Bitmap.c ****   /* RLE: 016 Pixels @ 096,052*/ 16, 0x01, 
 377:emWin/GUI_Demo/GUIDEMO_Bitmap.c ****   /* RLE: 005 Pixels @ 112,052*/ 5, 0x00, 
 378:emWin/GUI_Demo/GUIDEMO_Bitmap.c ****   /* RLE: 012 Pixels @ 117,052*/ 12, 0x01, 
 379:emWin/GUI_Demo/GUIDEMO_Bitmap.c ****   /* RLE: 034 Pixels @ 129,052*/ 34, 0x00, 
 380:emWin/GUI_Demo/GUIDEMO_Bitmap.c ****   /* RLE: 044 Pixels @ 003,053*/ 44, 0x01, 
 381:emWin/GUI_Demo/GUIDEMO_Bitmap.c ****   /* RLE: 010 Pixels @ 047,053*/ 10, 0x00, 
 382:emWin/GUI_Demo/GUIDEMO_Bitmap.c ****   /* RLE: 018 Pixels @ 057,053*/ 18, 0x01, 
 383:emWin/GUI_Demo/GUIDEMO_Bitmap.c ****   /* RLE: 020 Pixels @ 075,053*/ 20, 0x00, 
 384:emWin/GUI_Demo/GUIDEMO_Bitmap.c ****   /* RLE: 016 Pixels @ 095,053*/ 16, 0x01, 
 385:emWin/GUI_Demo/GUIDEMO_Bitmap.c ****   /* RLE: 007 Pixels @ 111,053*/ 7, 0x00, 
 386:emWin/GUI_Demo/GUIDEMO_Bitmap.c ****   /* RLE: 013 Pixels @ 118,053*/ 13, 0x01, 
 387:emWin/GUI_Demo/GUIDEMO_Bitmap.c ****   /* RLE: 031 Pixels @ 131,053*/ 31, 0x00, 
 388:emWin/GUI_Demo/GUIDEMO_Bitmap.c ****   /* RLE: 046 Pixels @ 002,054*/ 46, 0x01, 
 389:emWin/GUI_Demo/GUIDEMO_Bitmap.c ****   /* RLE: 008 Pixels @ 048,054*/ 8, 0x00, 
 390:emWin/GUI_Demo/GUIDEMO_Bitmap.c ****   /* RLE: 020 Pixels @ 056,054*/ 20, 0x01, 
 391:emWin/GUI_Demo/GUIDEMO_Bitmap.c ****   /* RLE: 018 Pixels @ 076,054*/ 18, 0x00, 
 392:emWin/GUI_Demo/GUIDEMO_Bitmap.c ****   /* RLE: 015 Pixels @ 094,054*/ 15, 0x01, 
 393:emWin/GUI_Demo/GUIDEMO_Bitmap.c ****   /* RLE: 008 Pixels @ 109,054*/ 8, 0x00, 
 394:emWin/GUI_Demo/GUIDEMO_Bitmap.c ****   /* RLE: 016 Pixels @ 117,054*/ 16, 0x01, 
 395:emWin/GUI_Demo/GUIDEMO_Bitmap.c ****   /* RLE: 028 Pixels @ 133,054*/ 28, 0x00, 
 396:emWin/GUI_Demo/GUIDEMO_Bitmap.c ****   /* RLE: 049 Pixels @ 001,055*/ 49, 0x01, 
 397:emWin/GUI_Demo/GUIDEMO_Bitmap.c ****   /* RLE: 005 Pixels @ 050,055*/ 5, 0x00, 
 398:emWin/GUI_Demo/GUIDEMO_Bitmap.c ****   /* RLE: 021 Pixels @ 055,055*/ 21, 0x01, 
 399:emWin/GUI_Demo/GUIDEMO_Bitmap.c ****   /* RLE: 003 Pixels @ 076,055*/ 3, 0x00, 
 400:emWin/GUI_Demo/GUIDEMO_Bitmap.c ****   /* RLE: 030 Pixels @ 079,055*/ 30, 0x01, 
 401:emWin/GUI_Demo/GUIDEMO_Bitmap.c ****   /* RLE: 006 Pixels @ 109,055*/ 6, 0x00, 
 402:emWin/GUI_Demo/GUIDEMO_Bitmap.c ****   /* RLE: 018 Pixels @ 115,055*/ 18, 0x01, 
 403:emWin/GUI_Demo/GUIDEMO_Bitmap.c ****   /* RLE: 027 Pixels @ 133,055*/ 27, 0x00, 
 404:emWin/GUI_Demo/GUIDEMO_Bitmap.c ****   /* RLE: 028 Pixels @ 000,056*/ 28, 0x01, 
 405:emWin/GUI_Demo/GUIDEMO_Bitmap.c ****   /* RLE: 012 Pixels @ 028,056*/ 12, 0x00, 
 406:emWin/GUI_Demo/GUIDEMO_Bitmap.c ****   /* RLE: 011 Pixels @ 040,056*/ 11, 0x01, 
 407:emWin/GUI_Demo/GUIDEMO_Bitmap.c ****   /* RLE: 003 Pixels @ 051,056*/ 3, 0x00, 
 408:emWin/GUI_Demo/GUIDEMO_Bitmap.c ****   /* RLE: 054 Pixels @ 054,056*/ 54, 0x01, 
 409:emWin/GUI_Demo/GUIDEMO_Bitmap.c ****   /* RLE: 006 Pixels @ 108,056*/ 6, 0x00, 
 410:emWin/GUI_Demo/GUIDEMO_Bitmap.c ****   /* RLE: 020 Pixels @ 114,056*/ 20, 0x01, 
 411:emWin/GUI_Demo/GUIDEMO_Bitmap.c ****   /* RLE: 026 Pixels @ 134,056*/ 26, 0x00, 
 412:emWin/GUI_Demo/GUIDEMO_Bitmap.c ****   /* RLE: 025 Pixels @ 000,057*/ 25, 0x01, 
 413:emWin/GUI_Demo/GUIDEMO_Bitmap.c ****   /* RLE: 018 Pixels @ 025,057*/ 18, 0x00, 
 414:emWin/GUI_Demo/GUIDEMO_Bitmap.c ****   /* RLE: 009 Pixels @ 043,057*/ 9, 0x01, 
 415:emWin/GUI_Demo/GUIDEMO_Bitmap.c ****   /* ABS: 002 Pixels @ 052,057*/ 0, 2, 0x00, 
 416:emWin/GUI_Demo/GUIDEMO_Bitmap.c ****   /* RLE: 053 Pixels @ 054,057*/ 53, 0x01, 
 417:emWin/GUI_Demo/GUIDEMO_Bitmap.c ****   /* RLE: 005 Pixels @ 107,057*/ 5, 0x00, 
 418:emWin/GUI_Demo/GUIDEMO_Bitmap.c ****   /* RLE: 023 Pixels @ 112,057*/ 23, 0x01, 
 419:emWin/GUI_Demo/GUIDEMO_Bitmap.c ****   /* RLE: 025 Pixels @ 135,057*/ 25, 0x00, 
 420:emWin/GUI_Demo/GUIDEMO_Bitmap.c ****   /* RLE: 023 Pixels @ 000,058*/ 23, 0x01, 
 421:emWin/GUI_Demo/GUIDEMO_Bitmap.c ****   /* RLE: 022 Pixels @ 023,058*/ 22, 0x00, 
 422:emWin/GUI_Demo/GUIDEMO_Bitmap.c ****   /* RLE: 061 Pixels @ 045,058*/ 61, 0x01, 
ARM GAS  C:\Users\gx\AppData\Local\Temp\ccjJNnuW.s 			page 9


 423:emWin/GUI_Demo/GUIDEMO_Bitmap.c ****   /* RLE: 005 Pixels @ 106,058*/ 5, 0x00, 
 424:emWin/GUI_Demo/GUIDEMO_Bitmap.c ****   /* RLE: 024 Pixels @ 111,058*/ 24, 0x01, 
 425:emWin/GUI_Demo/GUIDEMO_Bitmap.c ****   /* RLE: 025 Pixels @ 135,058*/ 25, 0x00, 
 426:emWin/GUI_Demo/GUIDEMO_Bitmap.c ****   /* RLE: 021 Pixels @ 000,059*/ 21, 0x01, 
 427:emWin/GUI_Demo/GUIDEMO_Bitmap.c ****   /* RLE: 026 Pixels @ 021,059*/ 26, 0x00, 
 428:emWin/GUI_Demo/GUIDEMO_Bitmap.c ****   /* RLE: 058 Pixels @ 047,059*/ 58, 0x01, 
 429:emWin/GUI_Demo/GUIDEMO_Bitmap.c ****   /* RLE: 004 Pixels @ 105,059*/ 4, 0x00, 
 430:emWin/GUI_Demo/GUIDEMO_Bitmap.c ****   /* RLE: 027 Pixels @ 109,059*/ 27, 0x01, 
 431:emWin/GUI_Demo/GUIDEMO_Bitmap.c ****   /* RLE: 024 Pixels @ 136,059*/ 24, 0x00, 
 432:emWin/GUI_Demo/GUIDEMO_Bitmap.c ****   /* RLE: 019 Pixels @ 000,060*/ 19, 0x01, 
 433:emWin/GUI_Demo/GUIDEMO_Bitmap.c ****   /* RLE: 029 Pixels @ 019,060*/ 29, 0x00, 
 434:emWin/GUI_Demo/GUIDEMO_Bitmap.c ****   /* RLE: 059 Pixels @ 048,060*/ 59, 0x01, 
 435:emWin/GUI_Demo/GUIDEMO_Bitmap.c ****   /* RLE: 001 Pixels @ 107,060*/ 1, 0x00, 
 436:emWin/GUI_Demo/GUIDEMO_Bitmap.c ****   /* RLE: 029 Pixels @ 108,060*/ 29, 0x01, 
 437:emWin/GUI_Demo/GUIDEMO_Bitmap.c ****   /* RLE: 023 Pixels @ 137,060*/ 23, 0x00, 
 438:emWin/GUI_Demo/GUIDEMO_Bitmap.c ****   /* RLE: 017 Pixels @ 000,061*/ 17, 0x01, 
 439:emWin/GUI_Demo/GUIDEMO_Bitmap.c ****   /* RLE: 033 Pixels @ 017,061*/ 33, 0x00, 
 440:emWin/GUI_Demo/GUIDEMO_Bitmap.c ****   /* RLE: 030 Pixels @ 050,061*/ 30, 0x01, 
 441:emWin/GUI_Demo/GUIDEMO_Bitmap.c ****   /* RLE: 004 Pixels @ 080,061*/ 4, 0x03, 
 442:emWin/GUI_Demo/GUIDEMO_Bitmap.c ****   /* RLE: 053 Pixels @ 084,061*/ 53, 0x01, 
 443:emWin/GUI_Demo/GUIDEMO_Bitmap.c ****   /* RLE: 023 Pixels @ 137,061*/ 23, 0x00, 
 444:emWin/GUI_Demo/GUIDEMO_Bitmap.c ****   /* RLE: 015 Pixels @ 000,062*/ 15, 0x01, 
 445:emWin/GUI_Demo/GUIDEMO_Bitmap.c ****   /* RLE: 036 Pixels @ 015,062*/ 36, 0x00, 
 446:emWin/GUI_Demo/GUIDEMO_Bitmap.c ****   /* RLE: 028 Pixels @ 051,062*/ 28, 0x01, 
 447:emWin/GUI_Demo/GUIDEMO_Bitmap.c ****   /* RLE: 005 Pixels @ 079,062*/ 5, 0x03, 
 448:emWin/GUI_Demo/GUIDEMO_Bitmap.c ****   /* RLE: 038 Pixels @ 084,062*/ 38, 0x01, 
 449:emWin/GUI_Demo/GUIDEMO_Bitmap.c ****   /* RLE: 001 Pixels @ 122,062*/ 1, 0x00, 
 450:emWin/GUI_Demo/GUIDEMO_Bitmap.c ****   /* RLE: 014 Pixels @ 123,062*/ 14, 0x01, 
 451:emWin/GUI_Demo/GUIDEMO_Bitmap.c ****   /* RLE: 024 Pixels @ 137,062*/ 24, 0x00, 
 452:emWin/GUI_Demo/GUIDEMO_Bitmap.c ****   /* RLE: 012 Pixels @ 001,063*/ 12, 0x01, 
 453:emWin/GUI_Demo/GUIDEMO_Bitmap.c ****   /* RLE: 038 Pixels @ 013,063*/ 38, 0x00, 
 454:emWin/GUI_Demo/GUIDEMO_Bitmap.c ****   /* RLE: 027 Pixels @ 051,063*/ 27, 0x01, 
 455:emWin/GUI_Demo/GUIDEMO_Bitmap.c ****   /* RLE: 006 Pixels @ 078,063*/ 6, 0x03, 
 456:emWin/GUI_Demo/GUIDEMO_Bitmap.c ****   /* RLE: 009 Pixels @ 084,063*/ 9, 0x01, 
 457:emWin/GUI_Demo/GUIDEMO_Bitmap.c ****   /* RLE: 005 Pixels @ 093,063*/ 5, 0x02, 
 458:emWin/GUI_Demo/GUIDEMO_Bitmap.c ****   /* RLE: 023 Pixels @ 098,063*/ 23, 0x01, 
 459:emWin/GUI_Demo/GUIDEMO_Bitmap.c ****   /* ABS: 002 Pixels @ 121,063*/ 0, 2, 0x00, 
 460:emWin/GUI_Demo/GUIDEMO_Bitmap.c ****   /* RLE: 015 Pixels @ 123,063*/ 15, 0x01, 
 461:emWin/GUI_Demo/GUIDEMO_Bitmap.c ****   /* RLE: 025 Pixels @ 138,063*/ 25, 0x00, 
 462:emWin/GUI_Demo/GUIDEMO_Bitmap.c ****   /* RLE: 007 Pixels @ 003,064*/ 7, 0x01, 
 463:emWin/GUI_Demo/GUIDEMO_Bitmap.c ****   /* RLE: 041 Pixels @ 010,064*/ 41, 0x00, 
 464:emWin/GUI_Demo/GUIDEMO_Bitmap.c ****   /* RLE: 027 Pixels @ 051,064*/ 27, 0x01, 
 465:emWin/GUI_Demo/GUIDEMO_Bitmap.c ****   /* RLE: 006 Pixels @ 078,064*/ 6, 0x03, 
 466:emWin/GUI_Demo/GUIDEMO_Bitmap.c ****   /* RLE: 008 Pixels @ 084,064*/ 8, 0x01, 
 467:emWin/GUI_Demo/GUIDEMO_Bitmap.c ****   /* RLE: 011 Pixels @ 092,064*/ 11, 0x02, 
 468:emWin/GUI_Demo/GUIDEMO_Bitmap.c ****   /* RLE: 017 Pixels @ 103,064*/ 17, 0x01, 
 469:emWin/GUI_Demo/GUIDEMO_Bitmap.c ****   /* RLE: 004 Pixels @ 120,064*/ 4, 0x00, 
 470:emWin/GUI_Demo/GUIDEMO_Bitmap.c ****   /* RLE: 014 Pixels @ 124,064*/ 14, 0x01, 
 471:emWin/GUI_Demo/GUIDEMO_Bitmap.c ****   /* RLE: 072 Pixels @ 138,064*/ 72, 0x00, 
 472:emWin/GUI_Demo/GUIDEMO_Bitmap.c ****   /* RLE: 028 Pixels @ 050,065*/ 28, 0x01, 
 473:emWin/GUI_Demo/GUIDEMO_Bitmap.c ****   /* RLE: 006 Pixels @ 078,065*/ 6, 0x03, 
 474:emWin/GUI_Demo/GUIDEMO_Bitmap.c ****   /* RLE: 006 Pixels @ 084,065*/ 6, 0x01, 
 475:emWin/GUI_Demo/GUIDEMO_Bitmap.c ****   /* RLE: 015 Pixels @ 090,065*/ 15, 0x02, 
 476:emWin/GUI_Demo/GUIDEMO_Bitmap.c ****   /* RLE: 014 Pixels @ 105,065*/ 14, 0x01, 
 477:emWin/GUI_Demo/GUIDEMO_Bitmap.c ****   /* RLE: 006 Pixels @ 119,065*/ 6, 0x00, 
 478:emWin/GUI_Demo/GUIDEMO_Bitmap.c ****   /* RLE: 013 Pixels @ 125,065*/ 13, 0x01, 
 479:emWin/GUI_Demo/GUIDEMO_Bitmap.c ****   /* RLE: 072 Pixels @ 138,065*/ 72, 0x00, 
ARM GAS  C:\Users\gx\AppData\Local\Temp\ccjJNnuW.s 			page 10


 480:emWin/GUI_Demo/GUIDEMO_Bitmap.c ****   /* RLE: 028 Pixels @ 050,066*/ 28, 0x01, 
 481:emWin/GUI_Demo/GUIDEMO_Bitmap.c ****   /* RLE: 006 Pixels @ 078,066*/ 6, 0x03, 
 482:emWin/GUI_Demo/GUIDEMO_Bitmap.c ****   /* RLE: 006 Pixels @ 084,066*/ 6, 0x01, 
 483:emWin/GUI_Demo/GUIDEMO_Bitmap.c ****   /* RLE: 017 Pixels @ 090,066*/ 17, 0x02, 
 484:emWin/GUI_Demo/GUIDEMO_Bitmap.c ****   /* RLE: 012 Pixels @ 107,066*/ 12, 0x01, 
 485:emWin/GUI_Demo/GUIDEMO_Bitmap.c ****   /* RLE: 007 Pixels @ 119,066*/ 7, 0x00, 
 486:emWin/GUI_Demo/GUIDEMO_Bitmap.c ****   /* RLE: 013 Pixels @ 126,066*/ 13, 0x01, 
 487:emWin/GUI_Demo/GUIDEMO_Bitmap.c ****   /* RLE: 006 Pixels @ 139,066*/ 6, 0x00, 
 488:emWin/GUI_Demo/GUIDEMO_Bitmap.c ****   /* ABS: 002 Pixels @ 145,066*/ 0, 2, 0x11, 
 489:emWin/GUI_Demo/GUIDEMO_Bitmap.c ****   /* RLE: 063 Pixels @ 147,066*/ 63, 0x00, 
 490:emWin/GUI_Demo/GUIDEMO_Bitmap.c ****   /* RLE: 028 Pixels @ 050,067*/ 28, 0x01, 
 491:emWin/GUI_Demo/GUIDEMO_Bitmap.c ****   /* RLE: 005 Pixels @ 078,067*/ 5, 0x03, 
 492:emWin/GUI_Demo/GUIDEMO_Bitmap.c ****   /* RLE: 006 Pixels @ 083,067*/ 6, 0x01, 
 493:emWin/GUI_Demo/GUIDEMO_Bitmap.c ****   /* RLE: 011 Pixels @ 089,067*/ 11, 0x02, 
 494:emWin/GUI_Demo/GUIDEMO_Bitmap.c ****   /* ABS: 002 Pixels @ 100,067*/ 0, 2, 0x11, 
 495:emWin/GUI_Demo/GUIDEMO_Bitmap.c ****   /* RLE: 006 Pixels @ 102,067*/ 6, 0x02, 
 496:emWin/GUI_Demo/GUIDEMO_Bitmap.c ****   /* RLE: 010 Pixels @ 108,067*/ 10, 0x01, 
 497:emWin/GUI_Demo/GUIDEMO_Bitmap.c ****   /* RLE: 009 Pixels @ 118,067*/ 9, 0x00, 
 498:emWin/GUI_Demo/GUIDEMO_Bitmap.c ****   /* RLE: 013 Pixels @ 127,067*/ 13, 0x01, 
 499:emWin/GUI_Demo/GUIDEMO_Bitmap.c ****   /* RLE: 004 Pixels @ 140,067*/ 4, 0x00, 
 500:emWin/GUI_Demo/GUIDEMO_Bitmap.c ****   /* RLE: 004 Pixels @ 144,067*/ 4, 0x01, 
 501:emWin/GUI_Demo/GUIDEMO_Bitmap.c ****   /* RLE: 062 Pixels @ 148,067*/ 62, 0x00, 
 502:emWin/GUI_Demo/GUIDEMO_Bitmap.c ****   /* RLE: 038 Pixels @ 050,068*/ 38, 0x01, 
 503:emWin/GUI_Demo/GUIDEMO_Bitmap.c ****   /* RLE: 010 Pixels @ 088,068*/ 10, 0x02, 
 504:emWin/GUI_Demo/GUIDEMO_Bitmap.c ****   /* RLE: 006 Pixels @ 098,068*/ 6, 0x01, 
 505:emWin/GUI_Demo/GUIDEMO_Bitmap.c ****   /* RLE: 006 Pixels @ 104,068*/ 6, 0x02, 
 506:emWin/GUI_Demo/GUIDEMO_Bitmap.c ****   /* RLE: 007 Pixels @ 110,068*/ 7, 0x01, 
 507:emWin/GUI_Demo/GUIDEMO_Bitmap.c ****   /* RLE: 012 Pixels @ 117,068*/ 12, 0x00, 
 508:emWin/GUI_Demo/GUIDEMO_Bitmap.c ****   /* RLE: 012 Pixels @ 129,068*/ 12, 0x01, 
 509:emWin/GUI_Demo/GUIDEMO_Bitmap.c ****   /* RLE: 003 Pixels @ 141,068*/ 3, 0x00, 
 510:emWin/GUI_Demo/GUIDEMO_Bitmap.c ****   /* RLE: 004 Pixels @ 144,068*/ 4, 0x01, 
 511:emWin/GUI_Demo/GUIDEMO_Bitmap.c ****   /* RLE: 062 Pixels @ 148,068*/ 62, 0x00, 
 512:emWin/GUI_Demo/GUIDEMO_Bitmap.c ****   /* RLE: 038 Pixels @ 050,069*/ 38, 0x01, 
 513:emWin/GUI_Demo/GUIDEMO_Bitmap.c ****   /* RLE: 009 Pixels @ 088,069*/ 9, 0x02, 
 514:emWin/GUI_Demo/GUIDEMO_Bitmap.c ****   /* RLE: 008 Pixels @ 097,069*/ 8, 0x01, 
 515:emWin/GUI_Demo/GUIDEMO_Bitmap.c ****   /* RLE: 006 Pixels @ 105,069*/ 6, 0x02, 
 516:emWin/GUI_Demo/GUIDEMO_Bitmap.c ****   /* RLE: 007 Pixels @ 111,069*/ 7, 0x01, 
 517:emWin/GUI_Demo/GUIDEMO_Bitmap.c ****   /* RLE: 013 Pixels @ 118,069*/ 13, 0x00, 
 518:emWin/GUI_Demo/GUIDEMO_Bitmap.c ****   /* RLE: 011 Pixels @ 131,069*/ 11, 0x01, 
 519:emWin/GUI_Demo/GUIDEMO_Bitmap.c ****   /* RLE: 001 Pixels @ 142,069*/ 1, 0x00, 
 520:emWin/GUI_Demo/GUIDEMO_Bitmap.c ****   /* RLE: 006 Pixels @ 143,069*/ 6, 0x01, 
 521:emWin/GUI_Demo/GUIDEMO_Bitmap.c ****   /* RLE: 061 Pixels @ 149,069*/ 61, 0x00, 
 522:emWin/GUI_Demo/GUIDEMO_Bitmap.c ****   /* RLE: 037 Pixels @ 050,070*/ 37, 0x01, 
 523:emWin/GUI_Demo/GUIDEMO_Bitmap.c ****   /* RLE: 009 Pixels @ 087,070*/ 9, 0x02, 
 524:emWin/GUI_Demo/GUIDEMO_Bitmap.c ****   /* RLE: 010 Pixels @ 096,070*/ 10, 0x01, 
 525:emWin/GUI_Demo/GUIDEMO_Bitmap.c ****   /* RLE: 006 Pixels @ 106,070*/ 6, 0x02, 
 526:emWin/GUI_Demo/GUIDEMO_Bitmap.c ****   /* RLE: 006 Pixels @ 112,070*/ 6, 0x01, 
 527:emWin/GUI_Demo/GUIDEMO_Bitmap.c ****   /* RLE: 010 Pixels @ 118,070*/ 10, 0x00, 
 528:emWin/GUI_Demo/GUIDEMO_Bitmap.c ****   /* RLE: 021 Pixels @ 128,070*/ 21, 0x01, 
 529:emWin/GUI_Demo/GUIDEMO_Bitmap.c ****   /* RLE: 061 Pixels @ 149,070*/ 61, 0x00, 
 530:emWin/GUI_Demo/GUIDEMO_Bitmap.c ****   /* RLE: 037 Pixels @ 050,071*/ 37, 0x01, 
 531:emWin/GUI_Demo/GUIDEMO_Bitmap.c ****   /* RLE: 008 Pixels @ 087,071*/ 8, 0x02, 
 532:emWin/GUI_Demo/GUIDEMO_Bitmap.c ****   /* RLE: 012 Pixels @ 095,071*/ 12, 0x01, 
 533:emWin/GUI_Demo/GUIDEMO_Bitmap.c ****   /* RLE: 006 Pixels @ 107,071*/ 6, 0x02, 
 534:emWin/GUI_Demo/GUIDEMO_Bitmap.c ****   /* RLE: 006 Pixels @ 113,071*/ 6, 0x01, 
 535:emWin/GUI_Demo/GUIDEMO_Bitmap.c ****   /* RLE: 007 Pixels @ 119,071*/ 7, 0x00, 
 536:emWin/GUI_Demo/GUIDEMO_Bitmap.c ****   /* RLE: 023 Pixels @ 126,071*/ 23, 0x01, 
ARM GAS  C:\Users\gx\AppData\Local\Temp\ccjJNnuW.s 			page 11


 537:emWin/GUI_Demo/GUIDEMO_Bitmap.c ****   /* RLE: 061 Pixels @ 149,071*/ 61, 0x00, 
 538:emWin/GUI_Demo/GUIDEMO_Bitmap.c ****   /* RLE: 037 Pixels @ 050,072*/ 37, 0x01, 
 539:emWin/GUI_Demo/GUIDEMO_Bitmap.c ****   /* RLE: 008 Pixels @ 087,072*/ 8, 0x02, 
 540:emWin/GUI_Demo/GUIDEMO_Bitmap.c ****   /* RLE: 012 Pixels @ 095,072*/ 12, 0x01, 
 541:emWin/GUI_Demo/GUIDEMO_Bitmap.c ****   /* RLE: 007 Pixels @ 107,072*/ 7, 0x02, 
 542:emWin/GUI_Demo/GUIDEMO_Bitmap.c ****   /* RLE: 006 Pixels @ 114,072*/ 6, 0x01, 
 543:emWin/GUI_Demo/GUIDEMO_Bitmap.c ****   /* RLE: 005 Pixels @ 120,072*/ 5, 0x00, 
 544:emWin/GUI_Demo/GUIDEMO_Bitmap.c ****   /* RLE: 025 Pixels @ 125,072*/ 25, 0x01, 
 545:emWin/GUI_Demo/GUIDEMO_Bitmap.c ****   /* RLE: 060 Pixels @ 150,072*/ 60, 0x00, 
 546:emWin/GUI_Demo/GUIDEMO_Bitmap.c ****   /* RLE: 036 Pixels @ 050,073*/ 36, 0x01, 
 547:emWin/GUI_Demo/GUIDEMO_Bitmap.c ****   /* RLE: 008 Pixels @ 086,073*/ 8, 0x02, 
 548:emWin/GUI_Demo/GUIDEMO_Bitmap.c ****   /* RLE: 014 Pixels @ 094,073*/ 14, 0x01, 
 549:emWin/GUI_Demo/GUIDEMO_Bitmap.c ****   /* RLE: 007 Pixels @ 108,073*/ 7, 0x02, 
 550:emWin/GUI_Demo/GUIDEMO_Bitmap.c ****   /* RLE: 006 Pixels @ 115,073*/ 6, 0x01, 
 551:emWin/GUI_Demo/GUIDEMO_Bitmap.c ****   /* ABS: 002 Pixels @ 121,073*/ 0, 2, 0x00, 
 552:emWin/GUI_Demo/GUIDEMO_Bitmap.c ****   /* RLE: 027 Pixels @ 123,073*/ 27, 0x01, 
 553:emWin/GUI_Demo/GUIDEMO_Bitmap.c ****   /* RLE: 060 Pixels @ 150,073*/ 60, 0x00, 
 554:emWin/GUI_Demo/GUIDEMO_Bitmap.c ****   /* RLE: 037 Pixels @ 050,074*/ 37, 0x01, 
 555:emWin/GUI_Demo/GUIDEMO_Bitmap.c ****   /* RLE: 007 Pixels @ 087,074*/ 7, 0x02, 
 556:emWin/GUI_Demo/GUIDEMO_Bitmap.c ****   /* RLE: 014 Pixels @ 094,074*/ 14, 0x01, 
 557:emWin/GUI_Demo/GUIDEMO_Bitmap.c ****   /* RLE: 007 Pixels @ 108,074*/ 7, 0x02, 
 558:emWin/GUI_Demo/GUIDEMO_Bitmap.c ****   /* RLE: 006 Pixels @ 115,074*/ 6, 0x01, 
 559:emWin/GUI_Demo/GUIDEMO_Bitmap.c ****   /* RLE: 001 Pixels @ 121,074*/ 1, 0x00, 
 560:emWin/GUI_Demo/GUIDEMO_Bitmap.c ****   /* RLE: 028 Pixels @ 122,074*/ 28, 0x01, 
 561:emWin/GUI_Demo/GUIDEMO_Bitmap.c ****   /* RLE: 062 Pixels @ 150,074*/ 62, 0x00, 
 562:emWin/GUI_Demo/GUIDEMO_Bitmap.c ****   /* RLE: 013 Pixels @ 052,075*/ 13, 0x01, 
 563:emWin/GUI_Demo/GUIDEMO_Bitmap.c ****   /* RLE: 004 Pixels @ 065,075*/ 4, 0x03, 
 564:emWin/GUI_Demo/GUIDEMO_Bitmap.c ****   /* RLE: 018 Pixels @ 069,075*/ 18, 0x01, 
 565:emWin/GUI_Demo/GUIDEMO_Bitmap.c ****   /* RLE: 008 Pixels @ 087,075*/ 8, 0x02, 
 566:emWin/GUI_Demo/GUIDEMO_Bitmap.c ****   /* RLE: 013 Pixels @ 095,075*/ 13, 0x01, 
 567:emWin/GUI_Demo/GUIDEMO_Bitmap.c ****   /* RLE: 008 Pixels @ 108,075*/ 8, 0x02, 
 568:emWin/GUI_Demo/GUIDEMO_Bitmap.c ****   /* RLE: 033 Pixels @ 116,075*/ 33, 0x01, 
 569:emWin/GUI_Demo/GUIDEMO_Bitmap.c ****   /* RLE: 068 Pixels @ 149,075*/ 68, 0x00, 
 570:emWin/GUI_Demo/GUIDEMO_Bitmap.c ****   /* RLE: 007 Pixels @ 057,076*/ 7, 0x01, 
 571:emWin/GUI_Demo/GUIDEMO_Bitmap.c ****   /* RLE: 006 Pixels @ 064,076*/ 6, 0x03, 
 572:emWin/GUI_Demo/GUIDEMO_Bitmap.c ****   /* RLE: 018 Pixels @ 070,076*/ 18, 0x01, 
 573:emWin/GUI_Demo/GUIDEMO_Bitmap.c ****   /* RLE: 007 Pixels @ 088,076*/ 7, 0x02, 
 574:emWin/GUI_Demo/GUIDEMO_Bitmap.c ****   /* RLE: 013 Pixels @ 095,076*/ 13, 0x01, 
 575:emWin/GUI_Demo/GUIDEMO_Bitmap.c ****   /* RLE: 009 Pixels @ 108,076*/ 9, 0x02, 
 576:emWin/GUI_Demo/GUIDEMO_Bitmap.c ****   /* RLE: 019 Pixels @ 117,076*/ 19, 0x01, 
 577:emWin/GUI_Demo/GUIDEMO_Bitmap.c ****   /* RLE: 003 Pixels @ 136,076*/ 3, 0x00, 
 578:emWin/GUI_Demo/GUIDEMO_Bitmap.c ****   /* RLE: 009 Pixels @ 139,076*/ 9, 0x01, 
 579:emWin/GUI_Demo/GUIDEMO_Bitmap.c ****   /* RLE: 069 Pixels @ 148,076*/ 69, 0x00, 
 580:emWin/GUI_Demo/GUIDEMO_Bitmap.c ****   /* RLE: 007 Pixels @ 057,077*/ 7, 0x01, 
 581:emWin/GUI_Demo/GUIDEMO_Bitmap.c ****   /* RLE: 006 Pixels @ 064,077*/ 6, 0x03, 
 582:emWin/GUI_Demo/GUIDEMO_Bitmap.c ****   /* RLE: 019 Pixels @ 070,077*/ 19, 0x01, 
 583:emWin/GUI_Demo/GUIDEMO_Bitmap.c ****   /* RLE: 007 Pixels @ 089,077*/ 7, 0x02, 
 584:emWin/GUI_Demo/GUIDEMO_Bitmap.c ****   /* RLE: 012 Pixels @ 096,077*/ 12, 0x01, 
 585:emWin/GUI_Demo/GUIDEMO_Bitmap.c ****   /* RLE: 009 Pixels @ 108,077*/ 9, 0x02, 
 586:emWin/GUI_Demo/GUIDEMO_Bitmap.c ****   /* RLE: 017 Pixels @ 117,077*/ 17, 0x01, 
 587:emWin/GUI_Demo/GUIDEMO_Bitmap.c ****   /* RLE: 006 Pixels @ 134,077*/ 6, 0x00, 
 588:emWin/GUI_Demo/GUIDEMO_Bitmap.c ****   /* RLE: 008 Pixels @ 140,077*/ 8, 0x01, 
 589:emWin/GUI_Demo/GUIDEMO_Bitmap.c ****   /* RLE: 069 Pixels @ 148,077*/ 69, 0x00, 
 590:emWin/GUI_Demo/GUIDEMO_Bitmap.c ****   /* RLE: 007 Pixels @ 057,078*/ 7, 0x01, 
 591:emWin/GUI_Demo/GUIDEMO_Bitmap.c ****   /* RLE: 006 Pixels @ 064,078*/ 6, 0x03, 
 592:emWin/GUI_Demo/GUIDEMO_Bitmap.c ****   /* RLE: 020 Pixels @ 070,078*/ 20, 0x01, 
 593:emWin/GUI_Demo/GUIDEMO_Bitmap.c ****   /* RLE: 007 Pixels @ 090,078*/ 7, 0x02, 
ARM GAS  C:\Users\gx\AppData\Local\Temp\ccjJNnuW.s 			page 12


 594:emWin/GUI_Demo/GUIDEMO_Bitmap.c ****   /* RLE: 011 Pixels @ 097,078*/ 11, 0x01, 
 595:emWin/GUI_Demo/GUIDEMO_Bitmap.c ****   /* RLE: 010 Pixels @ 108,078*/ 10, 0x02, 
 596:emWin/GUI_Demo/GUIDEMO_Bitmap.c ****   /* RLE: 015 Pixels @ 118,078*/ 15, 0x01, 
 597:emWin/GUI_Demo/GUIDEMO_Bitmap.c ****   /* RLE: 008 Pixels @ 133,078*/ 8, 0x00, 
 598:emWin/GUI_Demo/GUIDEMO_Bitmap.c ****   /* RLE: 007 Pixels @ 141,078*/ 7, 0x01, 
 599:emWin/GUI_Demo/GUIDEMO_Bitmap.c ****   /* RLE: 069 Pixels @ 148,078*/ 69, 0x00, 
 600:emWin/GUI_Demo/GUIDEMO_Bitmap.c ****   /* RLE: 007 Pixels @ 057,079*/ 7, 0x01, 
 601:emWin/GUI_Demo/GUIDEMO_Bitmap.c ****   /* RLE: 005 Pixels @ 064,079*/ 5, 0x03, 
 602:emWin/GUI_Demo/GUIDEMO_Bitmap.c ****   /* RLE: 013 Pixels @ 069,079*/ 13, 0x01, 
 603:emWin/GUI_Demo/GUIDEMO_Bitmap.c ****   /* RLE: 001 Pixels @ 082,079*/ 1, 0x02, 
 604:emWin/GUI_Demo/GUIDEMO_Bitmap.c ****   /* RLE: 008 Pixels @ 083,079*/ 8, 0x01, 
 605:emWin/GUI_Demo/GUIDEMO_Bitmap.c ****   /* RLE: 007 Pixels @ 091,079*/ 7, 0x02, 
 606:emWin/GUI_Demo/GUIDEMO_Bitmap.c ****   /* RLE: 010 Pixels @ 098,079*/ 10, 0x01, 
 607:emWin/GUI_Demo/GUIDEMO_Bitmap.c ****   /* RLE: 010 Pixels @ 108,079*/ 10, 0x02, 
 608:emWin/GUI_Demo/GUIDEMO_Bitmap.c ****   /* RLE: 014 Pixels @ 118,079*/ 14, 0x01, 
 609:emWin/GUI_Demo/GUIDEMO_Bitmap.c ****   /* RLE: 010 Pixels @ 132,079*/ 10, 0x00, 
 610:emWin/GUI_Demo/GUIDEMO_Bitmap.c ****   /* RLE: 006 Pixels @ 142,079*/ 6, 0x01, 
 611:emWin/GUI_Demo/GUIDEMO_Bitmap.c ****   /* RLE: 069 Pixels @ 148,079*/ 69, 0x00, 
 612:emWin/GUI_Demo/GUIDEMO_Bitmap.c ****   /* RLE: 007 Pixels @ 057,080*/ 7, 0x01, 
 613:emWin/GUI_Demo/GUIDEMO_Bitmap.c ****   /* RLE: 005 Pixels @ 064,080*/ 5, 0x03, 
 614:emWin/GUI_Demo/GUIDEMO_Bitmap.c ****   /* RLE: 008 Pixels @ 069,080*/ 8, 0x01, 
 615:emWin/GUI_Demo/GUIDEMO_Bitmap.c ****   /* RLE: 008 Pixels @ 077,080*/ 8, 0x02, 
 616:emWin/GUI_Demo/GUIDEMO_Bitmap.c ****   /* RLE: 007 Pixels @ 085,080*/ 7, 0x01, 
 617:emWin/GUI_Demo/GUIDEMO_Bitmap.c ****   /* RLE: 008 Pixels @ 092,080*/ 8, 0x02, 
 618:emWin/GUI_Demo/GUIDEMO_Bitmap.c ****   /* RLE: 007 Pixels @ 100,080*/ 7, 0x01, 
 619:emWin/GUI_Demo/GUIDEMO_Bitmap.c ****   /* RLE: 012 Pixels @ 107,080*/ 12, 0x02, 
 620:emWin/GUI_Demo/GUIDEMO_Bitmap.c ****   /* RLE: 012 Pixels @ 119,080*/ 12, 0x01, 
 621:emWin/GUI_Demo/GUIDEMO_Bitmap.c ****   /* RLE: 011 Pixels @ 131,080*/ 11, 0x00, 
 622:emWin/GUI_Demo/GUIDEMO_Bitmap.c ****   /* RLE: 007 Pixels @ 142,080*/ 7, 0x01, 
 623:emWin/GUI_Demo/GUIDEMO_Bitmap.c ****   /* RLE: 067 Pixels @ 149,080*/ 67, 0x00, 
 624:emWin/GUI_Demo/GUIDEMO_Bitmap.c ****   /* RLE: 008 Pixels @ 056,081*/ 8, 0x01, 
 625:emWin/GUI_Demo/GUIDEMO_Bitmap.c ****   /* RLE: 004 Pixels @ 064,081*/ 4, 0x03, 
 626:emWin/GUI_Demo/GUIDEMO_Bitmap.c ****   /* RLE: 006 Pixels @ 068,081*/ 6, 0x01, 
 627:emWin/GUI_Demo/GUIDEMO_Bitmap.c ****   /* RLE: 013 Pixels @ 074,081*/ 13, 0x02, 
 628:emWin/GUI_Demo/GUIDEMO_Bitmap.c ****   /* RLE: 007 Pixels @ 087,081*/ 7, 0x01, 
 629:emWin/GUI_Demo/GUIDEMO_Bitmap.c ****   /* RLE: 025 Pixels @ 094,081*/ 25, 0x02, 
 630:emWin/GUI_Demo/GUIDEMO_Bitmap.c ****   /* RLE: 011 Pixels @ 119,081*/ 11, 0x01, 
 631:emWin/GUI_Demo/GUIDEMO_Bitmap.c ****   /* RLE: 013 Pixels @ 130,081*/ 13, 0x00, 
 632:emWin/GUI_Demo/GUIDEMO_Bitmap.c ****   /* RLE: 006 Pixels @ 143,081*/ 6, 0x01, 
 633:emWin/GUI_Demo/GUIDEMO_Bitmap.c ****   /* RLE: 067 Pixels @ 149,081*/ 67, 0x00, 
 634:emWin/GUI_Demo/GUIDEMO_Bitmap.c ****   /* RLE: 016 Pixels @ 056,082*/ 16, 0x01, 
 635:emWin/GUI_Demo/GUIDEMO_Bitmap.c ****   /* RLE: 016 Pixels @ 072,082*/ 16, 0x02, 
 636:emWin/GUI_Demo/GUIDEMO_Bitmap.c ****   /* RLE: 007 Pixels @ 088,082*/ 7, 0x01, 
 637:emWin/GUI_Demo/GUIDEMO_Bitmap.c ****   /* RLE: 016 Pixels @ 095,082*/ 16, 0x02, 
 638:emWin/GUI_Demo/GUIDEMO_Bitmap.c ****   /* RLE: 005 Pixels @ 111,082*/ 5, 0x01, 
 639:emWin/GUI_Demo/GUIDEMO_Bitmap.c ****   /* RLE: 004 Pixels @ 116,082*/ 4, 0x02, 
 640:emWin/GUI_Demo/GUIDEMO_Bitmap.c ****   /* RLE: 009 Pixels @ 120,082*/ 9, 0x01, 
 641:emWin/GUI_Demo/GUIDEMO_Bitmap.c ****   /* RLE: 014 Pixels @ 129,082*/ 14, 0x00, 
 642:emWin/GUI_Demo/GUIDEMO_Bitmap.c ****   /* RLE: 007 Pixels @ 143,082*/ 7, 0x01, 
 643:emWin/GUI_Demo/GUIDEMO_Bitmap.c ****   /* RLE: 006 Pixels @ 150,082*/ 6, 0x00, 
 644:emWin/GUI_Demo/GUIDEMO_Bitmap.c ****   /* ABS: 002 Pixels @ 156,082*/ 0, 2, 0x11, 
 645:emWin/GUI_Demo/GUIDEMO_Bitmap.c ****   /* RLE: 058 Pixels @ 158,082*/ 58, 0x00, 
 646:emWin/GUI_Demo/GUIDEMO_Bitmap.c ****   /* RLE: 014 Pixels @ 056,083*/ 14, 0x01, 
 647:emWin/GUI_Demo/GUIDEMO_Bitmap.c ****   /* RLE: 019 Pixels @ 070,083*/ 19, 0x02, 
 648:emWin/GUI_Demo/GUIDEMO_Bitmap.c ****   /* RLE: 007 Pixels @ 089,083*/ 7, 0x01, 
 649:emWin/GUI_Demo/GUIDEMO_Bitmap.c ****   /* RLE: 013 Pixels @ 096,083*/ 13, 0x02, 
 650:emWin/GUI_Demo/GUIDEMO_Bitmap.c ****   /* RLE: 008 Pixels @ 109,083*/ 8, 0x01, 
ARM GAS  C:\Users\gx\AppData\Local\Temp\ccjJNnuW.s 			page 13


 651:emWin/GUI_Demo/GUIDEMO_Bitmap.c ****   /* RLE: 003 Pixels @ 117,083*/ 3, 0x02, 
 652:emWin/GUI_Demo/GUIDEMO_Bitmap.c ****   /* RLE: 009 Pixels @ 120,083*/ 9, 0x01, 
 653:emWin/GUI_Demo/GUIDEMO_Bitmap.c ****   /* RLE: 015 Pixels @ 129,083*/ 15, 0x00, 
 654:emWin/GUI_Demo/GUIDEMO_Bitmap.c ****   /* RLE: 007 Pixels @ 144,083*/ 7, 0x01, 
 655:emWin/GUI_Demo/GUIDEMO_Bitmap.c ****   /* RLE: 004 Pixels @ 151,083*/ 4, 0x00, 
 656:emWin/GUI_Demo/GUIDEMO_Bitmap.c ****   /* RLE: 003 Pixels @ 155,083*/ 3, 0x01, 
 657:emWin/GUI_Demo/GUIDEMO_Bitmap.c ****   /* RLE: 058 Pixels @ 158,083*/ 58, 0x00, 
 658:emWin/GUI_Demo/GUIDEMO_Bitmap.c ****   /* RLE: 013 Pixels @ 056,084*/ 13, 0x01, 
 659:emWin/GUI_Demo/GUIDEMO_Bitmap.c ****   /* RLE: 007 Pixels @ 069,084*/ 7, 0x02, 
 660:emWin/GUI_Demo/GUIDEMO_Bitmap.c ****   /* RLE: 007 Pixels @ 076,084*/ 7, 0x01, 
 661:emWin/GUI_Demo/GUIDEMO_Bitmap.c ****   /* RLE: 007 Pixels @ 083,084*/ 7, 0x02, 
 662:emWin/GUI_Demo/GUIDEMO_Bitmap.c ****   /* RLE: 007 Pixels @ 090,084*/ 7, 0x01, 
 663:emWin/GUI_Demo/GUIDEMO_Bitmap.c ****   /* RLE: 011 Pixels @ 097,084*/ 11, 0x02, 
 664:emWin/GUI_Demo/GUIDEMO_Bitmap.c ****   /* RLE: 010 Pixels @ 108,084*/ 10, 0x01, 
 665:emWin/GUI_Demo/GUIDEMO_Bitmap.c ****   /* RLE: 003 Pixels @ 118,084*/ 3, 0x02, 
 666:emWin/GUI_Demo/GUIDEMO_Bitmap.c ****   /* RLE: 007 Pixels @ 121,084*/ 7, 0x01, 
 667:emWin/GUI_Demo/GUIDEMO_Bitmap.c ****   /* RLE: 016 Pixels @ 128,084*/ 16, 0x00, 
 668:emWin/GUI_Demo/GUIDEMO_Bitmap.c ****   /* RLE: 007 Pixels @ 144,084*/ 7, 0x01, 
 669:emWin/GUI_Demo/GUIDEMO_Bitmap.c ****   /* RLE: 004 Pixels @ 151,084*/ 4, 0x00, 
 670:emWin/GUI_Demo/GUIDEMO_Bitmap.c ****   /* RLE: 004 Pixels @ 155,084*/ 4, 0x01, 
 671:emWin/GUI_Demo/GUIDEMO_Bitmap.c ****   /* RLE: 057 Pixels @ 159,084*/ 57, 0x00, 
 672:emWin/GUI_Demo/GUIDEMO_Bitmap.c ****   /* RLE: 012 Pixels @ 056,085*/ 12, 0x01, 
 673:emWin/GUI_Demo/GUIDEMO_Bitmap.c ****   /* RLE: 007 Pixels @ 068,085*/ 7, 0x02, 
 674:emWin/GUI_Demo/GUIDEMO_Bitmap.c ****   /* RLE: 009 Pixels @ 075,085*/ 9, 0x01, 
 675:emWin/GUI_Demo/GUIDEMO_Bitmap.c ****   /* RLE: 008 Pixels @ 084,085*/ 8, 0x02, 
 676:emWin/GUI_Demo/GUIDEMO_Bitmap.c ****   /* RLE: 006 Pixels @ 092,085*/ 6, 0x01, 
 677:emWin/GUI_Demo/GUIDEMO_Bitmap.c ****   /* RLE: 009 Pixels @ 098,085*/ 9, 0x02, 
 678:emWin/GUI_Demo/GUIDEMO_Bitmap.c ****   /* RLE: 011 Pixels @ 107,085*/ 11, 0x01, 
 679:emWin/GUI_Demo/GUIDEMO_Bitmap.c ****   /* RLE: 003 Pixels @ 118,085*/ 3, 0x02, 
 680:emWin/GUI_Demo/GUIDEMO_Bitmap.c ****   /* RLE: 006 Pixels @ 121,085*/ 6, 0x01, 
 681:emWin/GUI_Demo/GUIDEMO_Bitmap.c ****   /* RLE: 018 Pixels @ 127,085*/ 18, 0x00, 
 682:emWin/GUI_Demo/GUIDEMO_Bitmap.c ****   /* RLE: 008 Pixels @ 145,085*/ 8, 0x01, 
 683:emWin/GUI_Demo/GUIDEMO_Bitmap.c ****   /* RLE: 001 Pixels @ 153,085*/ 1, 0x00, 
 684:emWin/GUI_Demo/GUIDEMO_Bitmap.c ****   /* RLE: 006 Pixels @ 154,085*/ 6, 0x01, 
 685:emWin/GUI_Demo/GUIDEMO_Bitmap.c ****   /* RLE: 056 Pixels @ 000,086*/ 56, 0x00, 
 686:emWin/GUI_Demo/GUIDEMO_Bitmap.c ****   /* RLE: 012 Pixels @ 056,086*/ 12, 0x01, 
 687:emWin/GUI_Demo/GUIDEMO_Bitmap.c ****   /* RLE: 006 Pixels @ 068,086*/ 6, 0x02, 
 688:emWin/GUI_Demo/GUIDEMO_Bitmap.c ****   /* RLE: 010 Pixels @ 074,086*/ 10, 0x01, 
 689:emWin/GUI_Demo/GUIDEMO_Bitmap.c ****   /* RLE: 009 Pixels @ 084,086*/ 9, 0x02, 
 690:emWin/GUI_Demo/GUIDEMO_Bitmap.c ****   /* RLE: 006 Pixels @ 093,086*/ 6, 0x01, 
 691:emWin/GUI_Demo/GUIDEMO_Bitmap.c ****   /* RLE: 008 Pixels @ 099,086*/ 8, 0x02, 
 692:emWin/GUI_Demo/GUIDEMO_Bitmap.c ****   /* RLE: 012 Pixels @ 107,086*/ 12, 0x01, 
 693:emWin/GUI_Demo/GUIDEMO_Bitmap.c ****   /* RLE: 003 Pixels @ 119,086*/ 3, 0x02, 
 694:emWin/GUI_Demo/GUIDEMO_Bitmap.c ****   /* RLE: 005 Pixels @ 122,086*/ 5, 0x01, 
 695:emWin/GUI_Demo/GUIDEMO_Bitmap.c ****   /* RLE: 018 Pixels @ 127,086*/ 18, 0x00, 
 696:emWin/GUI_Demo/GUIDEMO_Bitmap.c ****   /* RLE: 015 Pixels @ 145,086*/ 15, 0x01, 
 697:emWin/GUI_Demo/GUIDEMO_Bitmap.c ****   /* RLE: 056 Pixels @ 000,087*/ 56, 0x00, 
 698:emWin/GUI_Demo/GUIDEMO_Bitmap.c ****   /* RLE: 011 Pixels @ 056,087*/ 11, 0x01, 
 699:emWin/GUI_Demo/GUIDEMO_Bitmap.c ****   /* RLE: 006 Pixels @ 067,087*/ 6, 0x02, 
 700:emWin/GUI_Demo/GUIDEMO_Bitmap.c ****   /* RLE: 012 Pixels @ 073,087*/ 12, 0x01, 
 701:emWin/GUI_Demo/GUIDEMO_Bitmap.c ****   /* RLE: 009 Pixels @ 085,087*/ 9, 0x02, 
 702:emWin/GUI_Demo/GUIDEMO_Bitmap.c ****   /* RLE: 007 Pixels @ 094,087*/ 7, 0x01, 
 703:emWin/GUI_Demo/GUIDEMO_Bitmap.c ****   /* RLE: 005 Pixels @ 101,087*/ 5, 0x02, 
 704:emWin/GUI_Demo/GUIDEMO_Bitmap.c ****   /* RLE: 013 Pixels @ 106,087*/ 13, 0x01, 
 705:emWin/GUI_Demo/GUIDEMO_Bitmap.c ****   /* RLE: 003 Pixels @ 119,087*/ 3, 0x02, 
 706:emWin/GUI_Demo/GUIDEMO_Bitmap.c ****   /* RLE: 005 Pixels @ 122,087*/ 5, 0x01, 
 707:emWin/GUI_Demo/GUIDEMO_Bitmap.c ****   /* RLE: 019 Pixels @ 127,087*/ 19, 0x00, 
ARM GAS  C:\Users\gx\AppData\Local\Temp\ccjJNnuW.s 			page 14


 708:emWin/GUI_Demo/GUIDEMO_Bitmap.c ****   /* RLE: 014 Pixels @ 146,087*/ 14, 0x01, 
 709:emWin/GUI_Demo/GUIDEMO_Bitmap.c ****   /* RLE: 056 Pixels @ 000,088*/ 56, 0x00, 
 710:emWin/GUI_Demo/GUIDEMO_Bitmap.c ****   /* RLE: 011 Pixels @ 056,088*/ 11, 0x01, 
 711:emWin/GUI_Demo/GUIDEMO_Bitmap.c ****   /* RLE: 006 Pixels @ 067,088*/ 6, 0x02, 
 712:emWin/GUI_Demo/GUIDEMO_Bitmap.c ****   /* RLE: 012 Pixels @ 073,088*/ 12, 0x01, 
 713:emWin/GUI_Demo/GUIDEMO_Bitmap.c ****   /* RLE: 010 Pixels @ 085,088*/ 10, 0x02, 
 714:emWin/GUI_Demo/GUIDEMO_Bitmap.c ****   /* RLE: 007 Pixels @ 095,088*/ 7, 0x01, 
 715:emWin/GUI_Demo/GUIDEMO_Bitmap.c ****   /* RLE: 004 Pixels @ 102,088*/ 4, 0x02, 
 716:emWin/GUI_Demo/GUIDEMO_Bitmap.c ****   /* RLE: 013 Pixels @ 106,088*/ 13, 0x01, 
 717:emWin/GUI_Demo/GUIDEMO_Bitmap.c ****   /* RLE: 003 Pixels @ 119,088*/ 3, 0x02, 
 718:emWin/GUI_Demo/GUIDEMO_Bitmap.c ****   /* RLE: 006 Pixels @ 122,088*/ 6, 0x01, 
 719:emWin/GUI_Demo/GUIDEMO_Bitmap.c ****   /* RLE: 018 Pixels @ 128,088*/ 18, 0x00, 
 720:emWin/GUI_Demo/GUIDEMO_Bitmap.c ****   /* RLE: 014 Pixels @ 146,088*/ 14, 0x01, 
 721:emWin/GUI_Demo/GUIDEMO_Bitmap.c ****   /* RLE: 056 Pixels @ 000,089*/ 56, 0x00, 
 722:emWin/GUI_Demo/GUIDEMO_Bitmap.c ****   /* RLE: 010 Pixels @ 056,089*/ 10, 0x01, 
 723:emWin/GUI_Demo/GUIDEMO_Bitmap.c ****   /* RLE: 007 Pixels @ 066,089*/ 7, 0x02, 
 724:emWin/GUI_Demo/GUIDEMO_Bitmap.c ****   /* RLE: 013 Pixels @ 073,089*/ 13, 0x01, 
 725:emWin/GUI_Demo/GUIDEMO_Bitmap.c ****   /* RLE: 010 Pixels @ 086,089*/ 10, 0x02, 
 726:emWin/GUI_Demo/GUIDEMO_Bitmap.c ****   /* RLE: 007 Pixels @ 096,089*/ 7, 0x01, 
 727:emWin/GUI_Demo/GUIDEMO_Bitmap.c ****   /* RLE: 004 Pixels @ 103,089*/ 4, 0x02, 
 728:emWin/GUI_Demo/GUIDEMO_Bitmap.c ****   /* RLE: 012 Pixels @ 107,089*/ 12, 0x01, 
 729:emWin/GUI_Demo/GUIDEMO_Bitmap.c ****   /* RLE: 004 Pixels @ 119,089*/ 4, 0x02, 
 730:emWin/GUI_Demo/GUIDEMO_Bitmap.c ****   /* RLE: 005 Pixels @ 123,089*/ 5, 0x01, 
 731:emWin/GUI_Demo/GUIDEMO_Bitmap.c ****   /* RLE: 019 Pixels @ 128,089*/ 19, 0x00, 
 732:emWin/GUI_Demo/GUIDEMO_Bitmap.c ****   /* RLE: 013 Pixels @ 147,089*/ 13, 0x01, 
 733:emWin/GUI_Demo/GUIDEMO_Bitmap.c ****   /* RLE: 056 Pixels @ 000,090*/ 56, 0x00, 
 734:emWin/GUI_Demo/GUIDEMO_Bitmap.c ****   /* RLE: 010 Pixels @ 056,090*/ 10, 0x01, 
 735:emWin/GUI_Demo/GUIDEMO_Bitmap.c ****   /* RLE: 007 Pixels @ 066,090*/ 7, 0x02, 
 736:emWin/GUI_Demo/GUIDEMO_Bitmap.c ****   /* RLE: 013 Pixels @ 073,090*/ 13, 0x01, 
 737:emWin/GUI_Demo/GUIDEMO_Bitmap.c ****   /* RLE: 011 Pixels @ 086,090*/ 11, 0x02, 
 738:emWin/GUI_Demo/GUIDEMO_Bitmap.c ****   /* RLE: 007 Pixels @ 097,090*/ 7, 0x01, 
 739:emWin/GUI_Demo/GUIDEMO_Bitmap.c ****   /* RLE: 003 Pixels @ 104,090*/ 3, 0x02, 
 740:emWin/GUI_Demo/GUIDEMO_Bitmap.c ****   /* RLE: 012 Pixels @ 107,090*/ 12, 0x01, 
 741:emWin/GUI_Demo/GUIDEMO_Bitmap.c ****   /* RLE: 004 Pixels @ 119,090*/ 4, 0x02, 
 742:emWin/GUI_Demo/GUIDEMO_Bitmap.c ****   /* RLE: 005 Pixels @ 123,090*/ 5, 0x01, 
 743:emWin/GUI_Demo/GUIDEMO_Bitmap.c ****   /* RLE: 020 Pixels @ 128,090*/ 20, 0x00, 
 744:emWin/GUI_Demo/GUIDEMO_Bitmap.c ****   /* RLE: 012 Pixels @ 148,090*/ 12, 0x01, 
 745:emWin/GUI_Demo/GUIDEMO_Bitmap.c ****   /* RLE: 055 Pixels @ 000,091*/ 55, 0x00, 
 746:emWin/GUI_Demo/GUIDEMO_Bitmap.c ****   /* RLE: 010 Pixels @ 055,091*/ 10, 0x01, 
 747:emWin/GUI_Demo/GUIDEMO_Bitmap.c ****   /* RLE: 008 Pixels @ 065,091*/ 8, 0x02, 
 748:emWin/GUI_Demo/GUIDEMO_Bitmap.c ****   /* RLE: 013 Pixels @ 073,091*/ 13, 0x01, 
 749:emWin/GUI_Demo/GUIDEMO_Bitmap.c ****   /* RLE: 011 Pixels @ 086,091*/ 11, 0x02, 
 750:emWin/GUI_Demo/GUIDEMO_Bitmap.c ****   /* RLE: 007 Pixels @ 097,091*/ 7, 0x01, 
 751:emWin/GUI_Demo/GUIDEMO_Bitmap.c ****   /* RLE: 003 Pixels @ 104,091*/ 3, 0x02, 
 752:emWin/GUI_Demo/GUIDEMO_Bitmap.c ****   /* RLE: 012 Pixels @ 107,091*/ 12, 0x01, 
 753:emWin/GUI_Demo/GUIDEMO_Bitmap.c ****   /* RLE: 004 Pixels @ 119,091*/ 4, 0x02, 
 754:emWin/GUI_Demo/GUIDEMO_Bitmap.c ****   /* RLE: 005 Pixels @ 123,091*/ 5, 0x01, 
 755:emWin/GUI_Demo/GUIDEMO_Bitmap.c ****   /* RLE: 021 Pixels @ 128,091*/ 21, 0x00, 
 756:emWin/GUI_Demo/GUIDEMO_Bitmap.c ****   /* RLE: 011 Pixels @ 149,091*/ 11, 0x01, 
 757:emWin/GUI_Demo/GUIDEMO_Bitmap.c ****   /* RLE: 053 Pixels @ 000,092*/ 53, 0x00, 
 758:emWin/GUI_Demo/GUIDEMO_Bitmap.c ****   /* RLE: 012 Pixels @ 053,092*/ 12, 0x01, 
 759:emWin/GUI_Demo/GUIDEMO_Bitmap.c ****   /* RLE: 008 Pixels @ 065,092*/ 8, 0x02, 
 760:emWin/GUI_Demo/GUIDEMO_Bitmap.c ****   /* RLE: 013 Pixels @ 073,092*/ 13, 0x01, 
 761:emWin/GUI_Demo/GUIDEMO_Bitmap.c ****   /* RLE: 012 Pixels @ 086,092*/ 12, 0x02, 
 762:emWin/GUI_Demo/GUIDEMO_Bitmap.c ****   /* RLE: 007 Pixels @ 098,092*/ 7, 0x01, 
 763:emWin/GUI_Demo/GUIDEMO_Bitmap.c ****   /* RLE: 003 Pixels @ 105,092*/ 3, 0x02, 
 764:emWin/GUI_Demo/GUIDEMO_Bitmap.c ****   /* RLE: 011 Pixels @ 108,092*/ 11, 0x01, 
ARM GAS  C:\Users\gx\AppData\Local\Temp\ccjJNnuW.s 			page 15


 765:emWin/GUI_Demo/GUIDEMO_Bitmap.c ****   /* RLE: 004 Pixels @ 119,092*/ 4, 0x02, 
 766:emWin/GUI_Demo/GUIDEMO_Bitmap.c ****   /* RLE: 005 Pixels @ 123,092*/ 5, 0x01, 
 767:emWin/GUI_Demo/GUIDEMO_Bitmap.c ****   /* RLE: 023 Pixels @ 128,092*/ 23, 0x00, 
 768:emWin/GUI_Demo/GUIDEMO_Bitmap.c ****   /* RLE: 008 Pixels @ 151,092*/ 8, 0x01, 
 769:emWin/GUI_Demo/GUIDEMO_Bitmap.c ****   /* RLE: 052 Pixels @ 159,092*/ 52, 0x00, 
 770:emWin/GUI_Demo/GUIDEMO_Bitmap.c ****   /* RLE: 014 Pixels @ 051,093*/ 14, 0x01, 
 771:emWin/GUI_Demo/GUIDEMO_Bitmap.c ****   /* RLE: 009 Pixels @ 065,093*/ 9, 0x02, 
 772:emWin/GUI_Demo/GUIDEMO_Bitmap.c ****   /* RLE: 012 Pixels @ 074,093*/ 12, 0x01, 
 773:emWin/GUI_Demo/GUIDEMO_Bitmap.c ****   /* RLE: 013 Pixels @ 086,093*/ 13, 0x02, 
 774:emWin/GUI_Demo/GUIDEMO_Bitmap.c ****   /* RLE: 007 Pixels @ 099,093*/ 7, 0x01, 
 775:emWin/GUI_Demo/GUIDEMO_Bitmap.c ****   /* RLE: 003 Pixels @ 106,093*/ 3, 0x02, 
 776:emWin/GUI_Demo/GUIDEMO_Bitmap.c ****   /* RLE: 010 Pixels @ 109,093*/ 10, 0x01, 
 777:emWin/GUI_Demo/GUIDEMO_Bitmap.c ****   /* RLE: 005 Pixels @ 119,093*/ 5, 0x02, 
 778:emWin/GUI_Demo/GUIDEMO_Bitmap.c ****   /* RLE: 004 Pixels @ 124,093*/ 4, 0x01, 
 779:emWin/GUI_Demo/GUIDEMO_Bitmap.c ****   /* RLE: 025 Pixels @ 128,093*/ 25, 0x00, 
 780:emWin/GUI_Demo/GUIDEMO_Bitmap.c ****   /* RLE: 004 Pixels @ 153,093*/ 4, 0x01, 
 781:emWin/GUI_Demo/GUIDEMO_Bitmap.c ****   /* RLE: 052 Pixels @ 157,093*/ 52, 0x00, 
 782:emWin/GUI_Demo/GUIDEMO_Bitmap.c ****   /* RLE: 015 Pixels @ 049,094*/ 15, 0x01, 
 783:emWin/GUI_Demo/GUIDEMO_Bitmap.c ****   /* RLE: 011 Pixels @ 064,094*/ 11, 0x02, 
 784:emWin/GUI_Demo/GUIDEMO_Bitmap.c ****   /* RLE: 011 Pixels @ 075,094*/ 11, 0x01, 
 785:emWin/GUI_Demo/GUIDEMO_Bitmap.c ****   /* RLE: 014 Pixels @ 086,094*/ 14, 0x02, 
 786:emWin/GUI_Demo/GUIDEMO_Bitmap.c ****   /* RLE: 006 Pixels @ 100,094*/ 6, 0x01, 
 787:emWin/GUI_Demo/GUIDEMO_Bitmap.c ****   /* RLE: 004 Pixels @ 106,094*/ 4, 0x02, 
 788:emWin/GUI_Demo/GUIDEMO_Bitmap.c ****   /* RLE: 008 Pixels @ 110,094*/ 8, 0x01, 
 789:emWin/GUI_Demo/GUIDEMO_Bitmap.c ****   /* RLE: 006 Pixels @ 118,094*/ 6, 0x02, 
 790:emWin/GUI_Demo/GUIDEMO_Bitmap.c ****   /* RLE: 005 Pixels @ 124,094*/ 5, 0x01, 
 791:emWin/GUI_Demo/GUIDEMO_Bitmap.c ****   /* RLE: 079 Pixels @ 129,094*/ 79, 0x00, 
 792:emWin/GUI_Demo/GUIDEMO_Bitmap.c ****   /* RLE: 016 Pixels @ 048,095*/ 16, 0x01, 
 793:emWin/GUI_Demo/GUIDEMO_Bitmap.c ****   /* RLE: 012 Pixels @ 064,095*/ 12, 0x02, 
 794:emWin/GUI_Demo/GUIDEMO_Bitmap.c ****   /* RLE: 010 Pixels @ 076,095*/ 10, 0x01, 
 795:emWin/GUI_Demo/GUIDEMO_Bitmap.c ****   /* RLE: 015 Pixels @ 086,095*/ 15, 0x02, 
 796:emWin/GUI_Demo/GUIDEMO_Bitmap.c ****   /* RLE: 006 Pixels @ 101,095*/ 6, 0x01, 
 797:emWin/GUI_Demo/GUIDEMO_Bitmap.c ****   /* RLE: 004 Pixels @ 107,095*/ 4, 0x02, 
 798:emWin/GUI_Demo/GUIDEMO_Bitmap.c ****   /* RLE: 007 Pixels @ 111,095*/ 7, 0x01, 
 799:emWin/GUI_Demo/GUIDEMO_Bitmap.c ****   /* RLE: 006 Pixels @ 118,095*/ 6, 0x02, 
 800:emWin/GUI_Demo/GUIDEMO_Bitmap.c ****   /* RLE: 005 Pixels @ 124,095*/ 5, 0x01, 
 801:emWin/GUI_Demo/GUIDEMO_Bitmap.c ****   /* RLE: 077 Pixels @ 129,095*/ 77, 0x00, 
 802:emWin/GUI_Demo/GUIDEMO_Bitmap.c ****   /* RLE: 018 Pixels @ 046,096*/ 18, 0x01, 
 803:emWin/GUI_Demo/GUIDEMO_Bitmap.c ****   /* RLE: 014 Pixels @ 064,096*/ 14, 0x02, 
 804:emWin/GUI_Demo/GUIDEMO_Bitmap.c ****   /* RLE: 007 Pixels @ 078,096*/ 7, 0x01, 
 805:emWin/GUI_Demo/GUIDEMO_Bitmap.c ****   /* RLE: 016 Pixels @ 085,096*/ 16, 0x02, 
 806:emWin/GUI_Demo/GUIDEMO_Bitmap.c ****   /* RLE: 007 Pixels @ 101,096*/ 7, 0x01, 
 807:emWin/GUI_Demo/GUIDEMO_Bitmap.c ****   /* RLE: 005 Pixels @ 108,096*/ 5, 0x02, 
 808:emWin/GUI_Demo/GUIDEMO_Bitmap.c ****   /* RLE: 004 Pixels @ 113,096*/ 4, 0x01, 
 809:emWin/GUI_Demo/GUIDEMO_Bitmap.c ****   /* RLE: 007 Pixels @ 117,096*/ 7, 0x02, 
 810:emWin/GUI_Demo/GUIDEMO_Bitmap.c ****   /* RLE: 005 Pixels @ 124,096*/ 5, 0x01, 
 811:emWin/GUI_Demo/GUIDEMO_Bitmap.c ****   /* RLE: 076 Pixels @ 129,096*/ 76, 0x00, 
 812:emWin/GUI_Demo/GUIDEMO_Bitmap.c ****   /* RLE: 019 Pixels @ 045,097*/ 19, 0x01, 
 813:emWin/GUI_Demo/GUIDEMO_Bitmap.c ****   /* RLE: 016 Pixels @ 064,097*/ 16, 0x02, 
 814:emWin/GUI_Demo/GUIDEMO_Bitmap.c ****   /* RLE: 004 Pixels @ 080,097*/ 4, 0x01, 
 815:emWin/GUI_Demo/GUIDEMO_Bitmap.c ****   /* RLE: 018 Pixels @ 084,097*/ 18, 0x02, 
 816:emWin/GUI_Demo/GUIDEMO_Bitmap.c ****   /* RLE: 006 Pixels @ 102,097*/ 6, 0x01, 
 817:emWin/GUI_Demo/GUIDEMO_Bitmap.c ****   /* RLE: 016 Pixels @ 108,097*/ 16, 0x02, 
 818:emWin/GUI_Demo/GUIDEMO_Bitmap.c ****   /* RLE: 005 Pixels @ 124,097*/ 5, 0x01, 
 819:emWin/GUI_Demo/GUIDEMO_Bitmap.c ****   /* RLE: 075 Pixels @ 129,097*/ 75, 0x00, 
 820:emWin/GUI_Demo/GUIDEMO_Bitmap.c ****   /* RLE: 020 Pixels @ 044,098*/ 20, 0x01, 
 821:emWin/GUI_Demo/GUIDEMO_Bitmap.c ****   /* RLE: 028 Pixels @ 064,098*/ 28, 0x02, 
ARM GAS  C:\Users\gx\AppData\Local\Temp\ccjJNnuW.s 			page 16


 822:emWin/GUI_Demo/GUIDEMO_Bitmap.c ****   /* RLE: 005 Pixels @ 092,098*/ 5, 0x01, 
 823:emWin/GUI_Demo/GUIDEMO_Bitmap.c ****   /* RLE: 005 Pixels @ 097,098*/ 5, 0x02, 
 824:emWin/GUI_Demo/GUIDEMO_Bitmap.c ****   /* RLE: 007 Pixels @ 102,098*/ 7, 0x01, 
 825:emWin/GUI_Demo/GUIDEMO_Bitmap.c ****   /* RLE: 015 Pixels @ 109,098*/ 15, 0x02, 
 826:emWin/GUI_Demo/GUIDEMO_Bitmap.c ****   /* RLE: 005 Pixels @ 124,098*/ 5, 0x01, 
 827:emWin/GUI_Demo/GUIDEMO_Bitmap.c ****   /* RLE: 074 Pixels @ 129,098*/ 74, 0x00, 
 828:emWin/GUI_Demo/GUIDEMO_Bitmap.c ****   /* RLE: 021 Pixels @ 043,099*/ 21, 0x01, 
 829:emWin/GUI_Demo/GUIDEMO_Bitmap.c ****   /* RLE: 027 Pixels @ 064,099*/ 27, 0x02, 
 830:emWin/GUI_Demo/GUIDEMO_Bitmap.c ****   /* RLE: 008 Pixels @ 091,099*/ 8, 0x01, 
 831:emWin/GUI_Demo/GUIDEMO_Bitmap.c ****   /* RLE: 004 Pixels @ 099,099*/ 4, 0x02, 
 832:emWin/GUI_Demo/GUIDEMO_Bitmap.c ****   /* RLE: 007 Pixels @ 103,099*/ 7, 0x01, 
 833:emWin/GUI_Demo/GUIDEMO_Bitmap.c ****   /* RLE: 014 Pixels @ 110,099*/ 14, 0x02, 
 834:emWin/GUI_Demo/GUIDEMO_Bitmap.c ****   /* RLE: 005 Pixels @ 124,099*/ 5, 0x01, 
 835:emWin/GUI_Demo/GUIDEMO_Bitmap.c ****   /* RLE: 073 Pixels @ 129,099*/ 73, 0x00, 
 836:emWin/GUI_Demo/GUIDEMO_Bitmap.c ****   /* RLE: 022 Pixels @ 042,100*/ 22, 0x01, 
 837:emWin/GUI_Demo/GUIDEMO_Bitmap.c ****   /* RLE: 026 Pixels @ 064,100*/ 26, 0x02, 
 838:emWin/GUI_Demo/GUIDEMO_Bitmap.c ****   /* RLE: 009 Pixels @ 090,100*/ 9, 0x01, 
 839:emWin/GUI_Demo/GUIDEMO_Bitmap.c ****   /* RLE: 005 Pixels @ 099,100*/ 5, 0x02, 
 840:emWin/GUI_Demo/GUIDEMO_Bitmap.c ****   /* RLE: 006 Pixels @ 104,100*/ 6, 0x01, 
 841:emWin/GUI_Demo/GUIDEMO_Bitmap.c ****   /* RLE: 014 Pixels @ 110,100*/ 14, 0x02, 
 842:emWin/GUI_Demo/GUIDEMO_Bitmap.c ****   /* RLE: 005 Pixels @ 124,100*/ 5, 0x01, 
 843:emWin/GUI_Demo/GUIDEMO_Bitmap.c ****   /* RLE: 072 Pixels @ 129,100*/ 72, 0x00, 
 844:emWin/GUI_Demo/GUIDEMO_Bitmap.c ****   /* RLE: 023 Pixels @ 041,101*/ 23, 0x01, 
 845:emWin/GUI_Demo/GUIDEMO_Bitmap.c ****   /* RLE: 025 Pixels @ 064,101*/ 25, 0x02, 
 846:emWin/GUI_Demo/GUIDEMO_Bitmap.c ****   /* RLE: 011 Pixels @ 089,101*/ 11, 0x01, 
 847:emWin/GUI_Demo/GUIDEMO_Bitmap.c ****   /* RLE: 004 Pixels @ 100,101*/ 4, 0x02, 
 848:emWin/GUI_Demo/GUIDEMO_Bitmap.c ****   /* RLE: 007 Pixels @ 104,101*/ 7, 0x01, 
 849:emWin/GUI_Demo/GUIDEMO_Bitmap.c ****   /* RLE: 013 Pixels @ 111,101*/ 13, 0x02, 
 850:emWin/GUI_Demo/GUIDEMO_Bitmap.c ****   /* RLE: 005 Pixels @ 124,101*/ 5, 0x01, 
 851:emWin/GUI_Demo/GUIDEMO_Bitmap.c ****   /* RLE: 071 Pixels @ 129,101*/ 71, 0x00, 
 852:emWin/GUI_Demo/GUIDEMO_Bitmap.c ****   /* RLE: 025 Pixels @ 040,102*/ 25, 0x01, 
 853:emWin/GUI_Demo/GUIDEMO_Bitmap.c ****   /* RLE: 015 Pixels @ 065,102*/ 15, 0x02, 
 854:emWin/GUI_Demo/GUIDEMO_Bitmap.c ****   /* ABS: 002 Pixels @ 080,102*/ 0, 2, 0x11, 
 855:emWin/GUI_Demo/GUIDEMO_Bitmap.c ****   /* RLE: 006 Pixels @ 082,102*/ 6, 0x02, 
 856:emWin/GUI_Demo/GUIDEMO_Bitmap.c ****   /* RLE: 012 Pixels @ 088,102*/ 12, 0x01, 
 857:emWin/GUI_Demo/GUIDEMO_Bitmap.c ****   /* RLE: 005 Pixels @ 100,102*/ 5, 0x02, 
 858:emWin/GUI_Demo/GUIDEMO_Bitmap.c ****   /* RLE: 006 Pixels @ 105,102*/ 6, 0x01, 
 859:emWin/GUI_Demo/GUIDEMO_Bitmap.c ****   /* RLE: 013 Pixels @ 111,102*/ 13, 0x02, 
 860:emWin/GUI_Demo/GUIDEMO_Bitmap.c ****   /* RLE: 005 Pixels @ 124,102*/ 5, 0x01, 
 861:emWin/GUI_Demo/GUIDEMO_Bitmap.c ****   /* RLE: 071 Pixels @ 129,102*/ 71, 0x00, 
 862:emWin/GUI_Demo/GUIDEMO_Bitmap.c ****   /* RLE: 015 Pixels @ 040,103*/ 15, 0x01, 
 863:emWin/GUI_Demo/GUIDEMO_Bitmap.c ****   /* RLE: 005 Pixels @ 055,103*/ 5, 0x00, 
 864:emWin/GUI_Demo/GUIDEMO_Bitmap.c ****   /* RLE: 005 Pixels @ 060,103*/ 5, 0x01, 
 865:emWin/GUI_Demo/GUIDEMO_Bitmap.c ****   /* RLE: 012 Pixels @ 065,103*/ 12, 0x02, 
 866:emWin/GUI_Demo/GUIDEMO_Bitmap.c ****   /* RLE: 007 Pixels @ 077,103*/ 7, 0x01, 
 867:emWin/GUI_Demo/GUIDEMO_Bitmap.c ****   /* RLE: 004 Pixels @ 084,103*/ 4, 0x02, 
 868:emWin/GUI_Demo/GUIDEMO_Bitmap.c ****   /* RLE: 013 Pixels @ 088,103*/ 13, 0x01, 
 869:emWin/GUI_Demo/GUIDEMO_Bitmap.c ****   /* RLE: 004 Pixels @ 101,103*/ 4, 0x02, 
 870:emWin/GUI_Demo/GUIDEMO_Bitmap.c ****   /* RLE: 007 Pixels @ 105,103*/ 7, 0x01, 
 871:emWin/GUI_Demo/GUIDEMO_Bitmap.c ****   /* RLE: 012 Pixels @ 112,103*/ 12, 0x02, 
 872:emWin/GUI_Demo/GUIDEMO_Bitmap.c ****   /* RLE: 005 Pixels @ 124,103*/ 5, 0x01, 
 873:emWin/GUI_Demo/GUIDEMO_Bitmap.c ****   /* RLE: 070 Pixels @ 129,103*/ 70, 0x00, 
 874:emWin/GUI_Demo/GUIDEMO_Bitmap.c ****   /* RLE: 013 Pixels @ 039,104*/ 13, 0x01, 
 875:emWin/GUI_Demo/GUIDEMO_Bitmap.c ****   /* RLE: 008 Pixels @ 052,104*/ 8, 0x00, 
 876:emWin/GUI_Demo/GUIDEMO_Bitmap.c ****   /* RLE: 005 Pixels @ 060,104*/ 5, 0x01, 
 877:emWin/GUI_Demo/GUIDEMO_Bitmap.c ****   /* RLE: 011 Pixels @ 065,104*/ 11, 0x02, 
 878:emWin/GUI_Demo/GUIDEMO_Bitmap.c ****   /* RLE: 009 Pixels @ 076,104*/ 9, 0x01, 
ARM GAS  C:\Users\gx\AppData\Local\Temp\ccjJNnuW.s 			page 17


 879:emWin/GUI_Demo/GUIDEMO_Bitmap.c ****   /* RLE: 003 Pixels @ 085,104*/ 3, 0x02, 
 880:emWin/GUI_Demo/GUIDEMO_Bitmap.c ****   /* RLE: 013 Pixels @ 088,104*/ 13, 0x01, 
 881:emWin/GUI_Demo/GUIDEMO_Bitmap.c ****   /* RLE: 004 Pixels @ 101,104*/ 4, 0x02, 
 882:emWin/GUI_Demo/GUIDEMO_Bitmap.c ****   /* RLE: 007 Pixels @ 105,104*/ 7, 0x01, 
 883:emWin/GUI_Demo/GUIDEMO_Bitmap.c ****   /* RLE: 012 Pixels @ 112,104*/ 12, 0x02, 
 884:emWin/GUI_Demo/GUIDEMO_Bitmap.c ****   /* RLE: 004 Pixels @ 124,104*/ 4, 0x01, 
 885:emWin/GUI_Demo/GUIDEMO_Bitmap.c ****   /* RLE: 071 Pixels @ 128,104*/ 71, 0x00, 
 886:emWin/GUI_Demo/GUIDEMO_Bitmap.c ****   /* RLE: 010 Pixels @ 039,105*/ 10, 0x01, 
 887:emWin/GUI_Demo/GUIDEMO_Bitmap.c ****   /* RLE: 011 Pixels @ 049,105*/ 11, 0x00, 
 888:emWin/GUI_Demo/GUIDEMO_Bitmap.c ****   /* RLE: 006 Pixels @ 060,105*/ 6, 0x01, 
 889:emWin/GUI_Demo/GUIDEMO_Bitmap.c ****   /* RLE: 009 Pixels @ 066,105*/ 9, 0x02, 
 890:emWin/GUI_Demo/GUIDEMO_Bitmap.c ****   /* RLE: 011 Pixels @ 075,105*/ 11, 0x01, 
 891:emWin/GUI_Demo/GUIDEMO_Bitmap.c ****   /* ABS: 002 Pixels @ 086,105*/ 0, 2, 0x22, 
 892:emWin/GUI_Demo/GUIDEMO_Bitmap.c ****   /* RLE: 013 Pixels @ 088,105*/ 13, 0x01, 
 893:emWin/GUI_Demo/GUIDEMO_Bitmap.c ****   /* RLE: 005 Pixels @ 101,105*/ 5, 0x02, 
 894:emWin/GUI_Demo/GUIDEMO_Bitmap.c ****   /* RLE: 007 Pixels @ 106,105*/ 7, 0x01, 
 895:emWin/GUI_Demo/GUIDEMO_Bitmap.c ****   /* RLE: 010 Pixels @ 113,105*/ 10, 0x02, 
 896:emWin/GUI_Demo/GUIDEMO_Bitmap.c ****   /* RLE: 005 Pixels @ 123,105*/ 5, 0x01, 
 897:emWin/GUI_Demo/GUIDEMO_Bitmap.c ****   /* RLE: 071 Pixels @ 128,105*/ 71, 0x00, 
 898:emWin/GUI_Demo/GUIDEMO_Bitmap.c ****   /* RLE: 009 Pixels @ 039,106*/ 9, 0x01, 
 899:emWin/GUI_Demo/GUIDEMO_Bitmap.c ****   /* RLE: 013 Pixels @ 048,106*/ 13, 0x00, 
 900:emWin/GUI_Demo/GUIDEMO_Bitmap.c ****   /* RLE: 005 Pixels @ 061,106*/ 5, 0x01, 
 901:emWin/GUI_Demo/GUIDEMO_Bitmap.c ****   /* RLE: 009 Pixels @ 066,106*/ 9, 0x02, 
 902:emWin/GUI_Demo/GUIDEMO_Bitmap.c ****   /* RLE: 011 Pixels @ 075,106*/ 11, 0x01, 
 903:emWin/GUI_Demo/GUIDEMO_Bitmap.c ****   /* ABS: 002 Pixels @ 086,106*/ 0, 2, 0x22, 
 904:emWin/GUI_Demo/GUIDEMO_Bitmap.c ****   /* RLE: 013 Pixels @ 088,106*/ 13, 0x01, 
 905:emWin/GUI_Demo/GUIDEMO_Bitmap.c ****   /* RLE: 005 Pixels @ 101,106*/ 5, 0x02, 
 906:emWin/GUI_Demo/GUIDEMO_Bitmap.c ****   /* RLE: 007 Pixels @ 106,106*/ 7, 0x01, 
 907:emWin/GUI_Demo/GUIDEMO_Bitmap.c ****   /* RLE: 010 Pixels @ 113,106*/ 10, 0x02, 
 908:emWin/GUI_Demo/GUIDEMO_Bitmap.c ****   /* RLE: 005 Pixels @ 123,106*/ 5, 0x01, 
 909:emWin/GUI_Demo/GUIDEMO_Bitmap.c ****   /* RLE: 071 Pixels @ 128,106*/ 71, 0x00, 
 910:emWin/GUI_Demo/GUIDEMO_Bitmap.c ****   /* RLE: 008 Pixels @ 039,107*/ 8, 0x01, 
 911:emWin/GUI_Demo/GUIDEMO_Bitmap.c ****   /* RLE: 014 Pixels @ 047,107*/ 14, 0x00, 
 912:emWin/GUI_Demo/GUIDEMO_Bitmap.c ****   /* RLE: 006 Pixels @ 061,107*/ 6, 0x01, 
 913:emWin/GUI_Demo/GUIDEMO_Bitmap.c ****   /* RLE: 007 Pixels @ 067,107*/ 7, 0x02, 
 914:emWin/GUI_Demo/GUIDEMO_Bitmap.c ****   /* RLE: 013 Pixels @ 074,107*/ 13, 0x01, 
 915:emWin/GUI_Demo/GUIDEMO_Bitmap.c ****   /* ABS: 002 Pixels @ 087,107*/ 0, 2, 0x22, 
 916:emWin/GUI_Demo/GUIDEMO_Bitmap.c ****   /* RLE: 012 Pixels @ 089,107*/ 12, 0x01, 
 917:emWin/GUI_Demo/GUIDEMO_Bitmap.c ****   /* RLE: 005 Pixels @ 101,107*/ 5, 0x02, 
 918:emWin/GUI_Demo/GUIDEMO_Bitmap.c ****   /* RLE: 008 Pixels @ 106,107*/ 8, 0x01, 
 919:emWin/GUI_Demo/GUIDEMO_Bitmap.c ****   /* RLE: 008 Pixels @ 114,107*/ 8, 0x02, 
 920:emWin/GUI_Demo/GUIDEMO_Bitmap.c ****   /* RLE: 006 Pixels @ 122,107*/ 6, 0x01, 
 921:emWin/GUI_Demo/GUIDEMO_Bitmap.c ****   /* RLE: 071 Pixels @ 128,107*/ 71, 0x00, 
 922:emWin/GUI_Demo/GUIDEMO_Bitmap.c ****   /* RLE: 008 Pixels @ 039,108*/ 8, 0x01, 
 923:emWin/GUI_Demo/GUIDEMO_Bitmap.c ****   /* RLE: 015 Pixels @ 047,108*/ 15, 0x00, 
 924:emWin/GUI_Demo/GUIDEMO_Bitmap.c ****   /* RLE: 006 Pixels @ 062,108*/ 6, 0x01, 
 925:emWin/GUI_Demo/GUIDEMO_Bitmap.c ****   /* RLE: 006 Pixels @ 068,108*/ 6, 0x02, 
 926:emWin/GUI_Demo/GUIDEMO_Bitmap.c ****   /* RLE: 013 Pixels @ 074,108*/ 13, 0x01, 
 927:emWin/GUI_Demo/GUIDEMO_Bitmap.c ****   /* RLE: 003 Pixels @ 087,108*/ 3, 0x02, 
 928:emWin/GUI_Demo/GUIDEMO_Bitmap.c ****   /* RLE: 011 Pixels @ 090,108*/ 11, 0x01, 
 929:emWin/GUI_Demo/GUIDEMO_Bitmap.c ****   /* RLE: 006 Pixels @ 101,108*/ 6, 0x02, 
 930:emWin/GUI_Demo/GUIDEMO_Bitmap.c ****   /* RLE: 007 Pixels @ 107,108*/ 7, 0x01, 
 931:emWin/GUI_Demo/GUIDEMO_Bitmap.c ****   /* RLE: 008 Pixels @ 114,108*/ 8, 0x02, 
 932:emWin/GUI_Demo/GUIDEMO_Bitmap.c ****   /* RLE: 006 Pixels @ 122,108*/ 6, 0x01, 
 933:emWin/GUI_Demo/GUIDEMO_Bitmap.c ****   /* RLE: 071 Pixels @ 128,108*/ 71, 0x00, 
 934:emWin/GUI_Demo/GUIDEMO_Bitmap.c ****   /* RLE: 007 Pixels @ 039,109*/ 7, 0x01, 
 935:emWin/GUI_Demo/GUIDEMO_Bitmap.c ****   /* RLE: 017 Pixels @ 046,109*/ 17, 0x00, 
ARM GAS  C:\Users\gx\AppData\Local\Temp\ccjJNnuW.s 			page 18


 936:emWin/GUI_Demo/GUIDEMO_Bitmap.c ****   /* RLE: 005 Pixels @ 063,109*/ 5, 0x01, 
 937:emWin/GUI_Demo/GUIDEMO_Bitmap.c ****   /* RLE: 006 Pixels @ 068,109*/ 6, 0x02, 
 938:emWin/GUI_Demo/GUIDEMO_Bitmap.c ****   /* RLE: 013 Pixels @ 074,109*/ 13, 0x01, 
 939:emWin/GUI_Demo/GUIDEMO_Bitmap.c ****   /* RLE: 004 Pixels @ 087,109*/ 4, 0x02, 
 940:emWin/GUI_Demo/GUIDEMO_Bitmap.c ****   /* RLE: 010 Pixels @ 091,109*/ 10, 0x01, 
 941:emWin/GUI_Demo/GUIDEMO_Bitmap.c ****   /* RLE: 006 Pixels @ 101,109*/ 6, 0x02, 
 942:emWin/GUI_Demo/GUIDEMO_Bitmap.c ****   /* RLE: 008 Pixels @ 107,109*/ 8, 0x01, 
 943:emWin/GUI_Demo/GUIDEMO_Bitmap.c ****   /* RLE: 006 Pixels @ 115,109*/ 6, 0x02, 
 944:emWin/GUI_Demo/GUIDEMO_Bitmap.c ****   /* RLE: 006 Pixels @ 121,109*/ 6, 0x01, 
 945:emWin/GUI_Demo/GUIDEMO_Bitmap.c ****   /* RLE: 072 Pixels @ 127,109*/ 72, 0x00, 
 946:emWin/GUI_Demo/GUIDEMO_Bitmap.c ****   /* RLE: 007 Pixels @ 039,110*/ 7, 0x01, 
 947:emWin/GUI_Demo/GUIDEMO_Bitmap.c ****   /* RLE: 015 Pixels @ 046,110*/ 15, 0x00, 
 948:emWin/GUI_Demo/GUIDEMO_Bitmap.c ****   /* RLE: 008 Pixels @ 061,110*/ 8, 0x01, 
 949:emWin/GUI_Demo/GUIDEMO_Bitmap.c ****   /* RLE: 005 Pixels @ 069,110*/ 5, 0x02, 
 950:emWin/GUI_Demo/GUIDEMO_Bitmap.c ****   /* RLE: 013 Pixels @ 074,110*/ 13, 0x01, 
 951:emWin/GUI_Demo/GUIDEMO_Bitmap.c ****   /* RLE: 005 Pixels @ 087,110*/ 5, 0x02, 
 952:emWin/GUI_Demo/GUIDEMO_Bitmap.c ****   /* RLE: 009 Pixels @ 092,110*/ 9, 0x01, 
 953:emWin/GUI_Demo/GUIDEMO_Bitmap.c ****   /* RLE: 006 Pixels @ 101,110*/ 6, 0x02, 
 954:emWin/GUI_Demo/GUIDEMO_Bitmap.c ****   /* RLE: 008 Pixels @ 107,110*/ 8, 0x01, 
 955:emWin/GUI_Demo/GUIDEMO_Bitmap.c ****   /* RLE: 005 Pixels @ 115,110*/ 5, 0x02, 
 956:emWin/GUI_Demo/GUIDEMO_Bitmap.c ****   /* RLE: 007 Pixels @ 120,110*/ 7, 0x01, 
 957:emWin/GUI_Demo/GUIDEMO_Bitmap.c ****   /* RLE: 072 Pixels @ 127,110*/ 72, 0x00, 
 958:emWin/GUI_Demo/GUIDEMO_Bitmap.c ****   /* RLE: 008 Pixels @ 039,111*/ 8, 0x01, 
 959:emWin/GUI_Demo/GUIDEMO_Bitmap.c ****   /* RLE: 012 Pixels @ 047,111*/ 12, 0x00, 
 960:emWin/GUI_Demo/GUIDEMO_Bitmap.c ****   /* RLE: 011 Pixels @ 059,111*/ 11, 0x01, 
 961:emWin/GUI_Demo/GUIDEMO_Bitmap.c ****   /* RLE: 005 Pixels @ 070,111*/ 5, 0x02, 
 962:emWin/GUI_Demo/GUIDEMO_Bitmap.c ****   /* RLE: 013 Pixels @ 075,111*/ 13, 0x01, 
 963:emWin/GUI_Demo/GUIDEMO_Bitmap.c ****   /* RLE: 006 Pixels @ 088,111*/ 6, 0x02, 
 964:emWin/GUI_Demo/GUIDEMO_Bitmap.c ****   /* RLE: 006 Pixels @ 094,111*/ 6, 0x01, 
 965:emWin/GUI_Demo/GUIDEMO_Bitmap.c ****   /* RLE: 007 Pixels @ 100,111*/ 7, 0x02, 
 966:emWin/GUI_Demo/GUIDEMO_Bitmap.c ****   /* RLE: 009 Pixels @ 107,111*/ 9, 0x01, 
 967:emWin/GUI_Demo/GUIDEMO_Bitmap.c ****   /* RLE: 003 Pixels @ 116,111*/ 3, 0x02, 
 968:emWin/GUI_Demo/GUIDEMO_Bitmap.c ****   /* RLE: 008 Pixels @ 119,111*/ 8, 0x01, 
 969:emWin/GUI_Demo/GUIDEMO_Bitmap.c ****   /* RLE: 073 Pixels @ 127,111*/ 73, 0x00, 
 970:emWin/GUI_Demo/GUIDEMO_Bitmap.c ****   /* RLE: 007 Pixels @ 040,112*/ 7, 0x01, 
 971:emWin/GUI_Demo/GUIDEMO_Bitmap.c ****   /* RLE: 011 Pixels @ 047,112*/ 11, 0x00, 
 972:emWin/GUI_Demo/GUIDEMO_Bitmap.c ****   /* RLE: 013 Pixels @ 058,112*/ 13, 0x01, 
 973:emWin/GUI_Demo/GUIDEMO_Bitmap.c ****   /* RLE: 004 Pixels @ 071,112*/ 4, 0x02, 
 974:emWin/GUI_Demo/GUIDEMO_Bitmap.c ****   /* RLE: 013 Pixels @ 075,112*/ 13, 0x01, 
 975:emWin/GUI_Demo/GUIDEMO_Bitmap.c ****   /* RLE: 019 Pixels @ 088,112*/ 19, 0x02, 
 976:emWin/GUI_Demo/GUIDEMO_Bitmap.c ****   /* RLE: 009 Pixels @ 107,112*/ 9, 0x01, 
 977:emWin/GUI_Demo/GUIDEMO_Bitmap.c ****   /* ABS: 002 Pixels @ 116,112*/ 0, 2, 0x22, 
 978:emWin/GUI_Demo/GUIDEMO_Bitmap.c ****   /* RLE: 008 Pixels @ 118,112*/ 8, 0x01, 
 979:emWin/GUI_Demo/GUIDEMO_Bitmap.c ****   /* RLE: 074 Pixels @ 126,112*/ 74, 0x00, 
 980:emWin/GUI_Demo/GUIDEMO_Bitmap.c ****   /* RLE: 008 Pixels @ 040,113*/ 8, 0x01, 
 981:emWin/GUI_Demo/GUIDEMO_Bitmap.c ****   /* RLE: 008 Pixels @ 048,113*/ 8, 0x00, 
 982:emWin/GUI_Demo/GUIDEMO_Bitmap.c ****   /* RLE: 016 Pixels @ 056,113*/ 16, 0x01, 
 983:emWin/GUI_Demo/GUIDEMO_Bitmap.c ****   /* RLE: 004 Pixels @ 072,113*/ 4, 0x02, 
 984:emWin/GUI_Demo/GUIDEMO_Bitmap.c ****   /* RLE: 011 Pixels @ 076,113*/ 11, 0x01, 
 985:emWin/GUI_Demo/GUIDEMO_Bitmap.c ****   /* RLE: 020 Pixels @ 087,113*/ 20, 0x02, 
 986:emWin/GUI_Demo/GUIDEMO_Bitmap.c ****   /* RLE: 019 Pixels @ 107,113*/ 19, 0x01, 
 987:emWin/GUI_Demo/GUIDEMO_Bitmap.c ****   /* RLE: 075 Pixels @ 126,113*/ 75, 0x00, 
 988:emWin/GUI_Demo/GUIDEMO_Bitmap.c ****   /* RLE: 008 Pixels @ 041,114*/ 8, 0x01, 
 989:emWin/GUI_Demo/GUIDEMO_Bitmap.c ****   /* RLE: 006 Pixels @ 049,114*/ 6, 0x00, 
 990:emWin/GUI_Demo/GUIDEMO_Bitmap.c ****   /* RLE: 018 Pixels @ 055,114*/ 18, 0x01, 
 991:emWin/GUI_Demo/GUIDEMO_Bitmap.c ****   /* RLE: 005 Pixels @ 073,114*/ 5, 0x02, 
 992:emWin/GUI_Demo/GUIDEMO_Bitmap.c ****   /* RLE: 009 Pixels @ 078,114*/ 9, 0x01, 
ARM GAS  C:\Users\gx\AppData\Local\Temp\ccjJNnuW.s 			page 19


 993:emWin/GUI_Demo/GUIDEMO_Bitmap.c ****   /* RLE: 020 Pixels @ 087,114*/ 20, 0x02, 
 994:emWin/GUI_Demo/GUIDEMO_Bitmap.c ****   /* RLE: 018 Pixels @ 107,114*/ 18, 0x01, 
 995:emWin/GUI_Demo/GUIDEMO_Bitmap.c ****   /* RLE: 077 Pixels @ 125,114*/ 77, 0x00, 
 996:emWin/GUI_Demo/GUIDEMO_Bitmap.c ****   /* RLE: 007 Pixels @ 042,115*/ 7, 0x01, 
 997:emWin/GUI_Demo/GUIDEMO_Bitmap.c ****   /* RLE: 005 Pixels @ 049,115*/ 5, 0x00, 
 998:emWin/GUI_Demo/GUIDEMO_Bitmap.c ****   /* RLE: 020 Pixels @ 054,115*/ 20, 0x01, 
 999:emWin/GUI_Demo/GUIDEMO_Bitmap.c ****   /* RLE: 005 Pixels @ 074,115*/ 5, 0x02, 
1000:emWin/GUI_Demo/GUIDEMO_Bitmap.c ****   /* RLE: 008 Pixels @ 079,115*/ 8, 0x01, 
1001:emWin/GUI_Demo/GUIDEMO_Bitmap.c ****   /* RLE: 021 Pixels @ 087,115*/ 21, 0x02, 
1002:emWin/GUI_Demo/GUIDEMO_Bitmap.c ****   /* RLE: 017 Pixels @ 108,115*/ 17, 0x01, 
1003:emWin/GUI_Demo/GUIDEMO_Bitmap.c ****   /* RLE: 077 Pixels @ 125,115*/ 77, 0x00, 
1004:emWin/GUI_Demo/GUIDEMO_Bitmap.c ****   /* RLE: 008 Pixels @ 042,116*/ 8, 0x01, 
1005:emWin/GUI_Demo/GUIDEMO_Bitmap.c ****   /* RLE: 003 Pixels @ 050,116*/ 3, 0x00, 
1006:emWin/GUI_Demo/GUIDEMO_Bitmap.c ****   /* RLE: 022 Pixels @ 053,116*/ 22, 0x01, 
1007:emWin/GUI_Demo/GUIDEMO_Bitmap.c ****   /* RLE: 007 Pixels @ 075,116*/ 7, 0x02, 
1008:emWin/GUI_Demo/GUIDEMO_Bitmap.c ****   /* RLE: 003 Pixels @ 082,116*/ 3, 0x01, 
1009:emWin/GUI_Demo/GUIDEMO_Bitmap.c ****   /* RLE: 023 Pixels @ 085,116*/ 23, 0x02, 
1010:emWin/GUI_Demo/GUIDEMO_Bitmap.c ****   /* RLE: 016 Pixels @ 108,116*/ 16, 0x01, 
1011:emWin/GUI_Demo/GUIDEMO_Bitmap.c ****   /* RLE: 079 Pixels @ 124,116*/ 79, 0x00, 
1012:emWin/GUI_Demo/GUIDEMO_Bitmap.c ****   /* RLE: 008 Pixels @ 043,117*/ 8, 0x01, 
1013:emWin/GUI_Demo/GUIDEMO_Bitmap.c ****   /* RLE: 001 Pixels @ 051,117*/ 1, 0x00, 
1014:emWin/GUI_Demo/GUIDEMO_Bitmap.c ****   /* RLE: 024 Pixels @ 052,117*/ 24, 0x01, 
1015:emWin/GUI_Demo/GUIDEMO_Bitmap.c ****   /* RLE: 032 Pixels @ 076,117*/ 32, 0x02, 
1016:emWin/GUI_Demo/GUIDEMO_Bitmap.c ****   /* RLE: 016 Pixels @ 108,117*/ 16, 0x01, 
1017:emWin/GUI_Demo/GUIDEMO_Bitmap.c ****   /* RLE: 080 Pixels @ 124,117*/ 80, 0x00, 
1018:emWin/GUI_Demo/GUIDEMO_Bitmap.c ****   /* RLE: 035 Pixels @ 044,118*/ 35, 0x01, 
1019:emWin/GUI_Demo/GUIDEMO_Bitmap.c ****   /* RLE: 028 Pixels @ 079,118*/ 28, 0x02, 
1020:emWin/GUI_Demo/GUIDEMO_Bitmap.c ****   /* RLE: 016 Pixels @ 107,118*/ 16, 0x01, 
1021:emWin/GUI_Demo/GUIDEMO_Bitmap.c ****   /* RLE: 082 Pixels @ 123,118*/ 82, 0x00, 
1022:emWin/GUI_Demo/GUIDEMO_Bitmap.c ****   /* RLE: 025 Pixels @ 045,119*/ 25, 0x01, 
1023:emWin/GUI_Demo/GUIDEMO_Bitmap.c ****   /* RLE: 001 Pixels @ 070,119*/ 1, 0x00, 
1024:emWin/GUI_Demo/GUIDEMO_Bitmap.c ****   /* RLE: 008 Pixels @ 071,119*/ 8, 0x01, 
1025:emWin/GUI_Demo/GUIDEMO_Bitmap.c ****   /* RLE: 028 Pixels @ 079,119*/ 28, 0x02, 
1026:emWin/GUI_Demo/GUIDEMO_Bitmap.c ****   /* RLE: 006 Pixels @ 107,119*/ 6, 0x01, 
1027:emWin/GUI_Demo/GUIDEMO_Bitmap.c ****   /* RLE: 001 Pixels @ 113,119*/ 1, 0x00, 
1028:emWin/GUI_Demo/GUIDEMO_Bitmap.c ****   /* RLE: 008 Pixels @ 114,119*/ 8, 0x01, 
1029:emWin/GUI_Demo/GUIDEMO_Bitmap.c ****   /* RLE: 084 Pixels @ 122,119*/ 84, 0x00, 
1030:emWin/GUI_Demo/GUIDEMO_Bitmap.c ****   /* RLE: 019 Pixels @ 046,120*/ 19, 0x01, 
1031:emWin/GUI_Demo/GUIDEMO_Bitmap.c ****   /* RLE: 007 Pixels @ 065,120*/ 7, 0x00, 
1032:emWin/GUI_Demo/GUIDEMO_Bitmap.c ****   /* RLE: 009 Pixels @ 072,120*/ 9, 0x01, 
1033:emWin/GUI_Demo/GUIDEMO_Bitmap.c ****   /* RLE: 026 Pixels @ 081,120*/ 26, 0x02, 
1034:emWin/GUI_Demo/GUIDEMO_Bitmap.c ****   /* RLE: 005 Pixels @ 107,120*/ 5, 0x01, 
1035:emWin/GUI_Demo/GUIDEMO_Bitmap.c ****   /* RLE: 004 Pixels @ 112,120*/ 4, 0x00, 
1036:emWin/GUI_Demo/GUIDEMO_Bitmap.c ****   /* RLE: 005 Pixels @ 116,120*/ 5, 0x01, 
1037:emWin/GUI_Demo/GUIDEMO_Bitmap.c ****   /* RLE: 086 Pixels @ 121,120*/ 86, 0x00, 
1038:emWin/GUI_Demo/GUIDEMO_Bitmap.c ****   /* RLE: 015 Pixels @ 047,121*/ 15, 0x01, 
1039:emWin/GUI_Demo/GUIDEMO_Bitmap.c ****   /* RLE: 011 Pixels @ 062,121*/ 11, 0x00, 
1040:emWin/GUI_Demo/GUIDEMO_Bitmap.c ****   /* RLE: 010 Pixels @ 073,121*/ 10, 0x01, 
1041:emWin/GUI_Demo/GUIDEMO_Bitmap.c ****   /* RLE: 024 Pixels @ 083,121*/ 24, 0x02, 
1042:emWin/GUI_Demo/GUIDEMO_Bitmap.c ****   /* RLE: 005 Pixels @ 107,121*/ 5, 0x01, 
1043:emWin/GUI_Demo/GUIDEMO_Bitmap.c ****   /* RLE: 005 Pixels @ 112,121*/ 5, 0x00, 
1044:emWin/GUI_Demo/GUIDEMO_Bitmap.c ****   /* RLE: 004 Pixels @ 117,121*/ 4, 0x01, 
1045:emWin/GUI_Demo/GUIDEMO_Bitmap.c ****   /* RLE: 086 Pixels @ 121,121*/ 86, 0x00, 
1046:emWin/GUI_Demo/GUIDEMO_Bitmap.c ****   /* RLE: 013 Pixels @ 047,122*/ 13, 0x01, 
1047:emWin/GUI_Demo/GUIDEMO_Bitmap.c ****   /* RLE: 013 Pixels @ 060,122*/ 13, 0x00, 
1048:emWin/GUI_Demo/GUIDEMO_Bitmap.c ****   /* RLE: 012 Pixels @ 073,122*/ 12, 0x01, 
1049:emWin/GUI_Demo/GUIDEMO_Bitmap.c ****   /* RLE: 021 Pixels @ 085,122*/ 21, 0x02, 
ARM GAS  C:\Users\gx\AppData\Local\Temp\ccjJNnuW.s 			page 20


1050:emWin/GUI_Demo/GUIDEMO_Bitmap.c ****   /* RLE: 006 Pixels @ 106,122*/ 6, 0x01, 
1051:emWin/GUI_Demo/GUIDEMO_Bitmap.c ****   /* RLE: 096 Pixels @ 112,122*/ 96, 0x00, 
1052:emWin/GUI_Demo/GUIDEMO_Bitmap.c ****   /* RLE: 010 Pixels @ 048,123*/ 10, 0x01, 
1053:emWin/GUI_Demo/GUIDEMO_Bitmap.c ****   /* RLE: 014 Pixels @ 058,123*/ 14, 0x00, 
1054:emWin/GUI_Demo/GUIDEMO_Bitmap.c ****   /* RLE: 014 Pixels @ 072,123*/ 14, 0x01, 
1055:emWin/GUI_Demo/GUIDEMO_Bitmap.c ****   /* RLE: 020 Pixels @ 086,123*/ 20, 0x02, 
1056:emWin/GUI_Demo/GUIDEMO_Bitmap.c ****   /* RLE: 007 Pixels @ 106,123*/ 7, 0x01, 
1057:emWin/GUI_Demo/GUIDEMO_Bitmap.c ****   /* RLE: 095 Pixels @ 113,123*/ 95, 0x00, 
1058:emWin/GUI_Demo/GUIDEMO_Bitmap.c ****   /* RLE: 009 Pixels @ 048,124*/ 9, 0x01, 
1059:emWin/GUI_Demo/GUIDEMO_Bitmap.c ****   /* RLE: 014 Pixels @ 057,124*/ 14, 0x00, 
1060:emWin/GUI_Demo/GUIDEMO_Bitmap.c ****   /* RLE: 019 Pixels @ 071,124*/ 19, 0x01, 
1061:emWin/GUI_Demo/GUIDEMO_Bitmap.c ****   /* RLE: 014 Pixels @ 090,124*/ 14, 0x02, 
1062:emWin/GUI_Demo/GUIDEMO_Bitmap.c ****   /* RLE: 009 Pixels @ 104,124*/ 9, 0x01, 
1063:emWin/GUI_Demo/GUIDEMO_Bitmap.c ****   /* RLE: 096 Pixels @ 113,124*/ 96, 0x00, 
1064:emWin/GUI_Demo/GUIDEMO_Bitmap.c ****   /* RLE: 008 Pixels @ 049,125*/ 8, 0x01, 
1065:emWin/GUI_Demo/GUIDEMO_Bitmap.c ****   /* RLE: 012 Pixels @ 057,125*/ 12, 0x00, 
1066:emWin/GUI_Demo/GUIDEMO_Bitmap.c ****   /* RLE: 025 Pixels @ 069,125*/ 25, 0x01, 
1067:emWin/GUI_Demo/GUIDEMO_Bitmap.c ****   /* RLE: 007 Pixels @ 094,125*/ 7, 0x02, 
1068:emWin/GUI_Demo/GUIDEMO_Bitmap.c ****   /* RLE: 012 Pixels @ 101,125*/ 12, 0x01, 
1069:emWin/GUI_Demo/GUIDEMO_Bitmap.c ****   /* RLE: 095 Pixels @ 113,125*/ 95, 0x00, 
1070:emWin/GUI_Demo/GUIDEMO_Bitmap.c ****   /* RLE: 008 Pixels @ 048,126*/ 8, 0x01, 
1071:emWin/GUI_Demo/GUIDEMO_Bitmap.c ****   /* RLE: 012 Pixels @ 056,126*/ 12, 0x00, 
1072:emWin/GUI_Demo/GUIDEMO_Bitmap.c ****   /* RLE: 045 Pixels @ 068,126*/ 45, 0x01, 
1073:emWin/GUI_Demo/GUIDEMO_Bitmap.c ****   /* RLE: 093 Pixels @ 113,126*/ 93, 0x00, 
1074:emWin/GUI_Demo/GUIDEMO_Bitmap.c ****   /* RLE: 010 Pixels @ 046,127*/ 10, 0x01, 
1075:emWin/GUI_Demo/GUIDEMO_Bitmap.c ****   /* RLE: 012 Pixels @ 056,127*/ 12, 0x00, 
1076:emWin/GUI_Demo/GUIDEMO_Bitmap.c ****   /* RLE: 044 Pixels @ 068,127*/ 44, 0x01, 
1077:emWin/GUI_Demo/GUIDEMO_Bitmap.c ****   /* RLE: 092 Pixels @ 112,127*/ 92, 0x00, 
1078:emWin/GUI_Demo/GUIDEMO_Bitmap.c ****   /* RLE: 013 Pixels @ 044,128*/ 13, 0x01, 
1079:emWin/GUI_Demo/GUIDEMO_Bitmap.c ****   /* RLE: 010 Pixels @ 057,128*/ 10, 0x00, 
1080:emWin/GUI_Demo/GUIDEMO_Bitmap.c ****   /* RLE: 044 Pixels @ 067,128*/ 44, 0x01, 
1081:emWin/GUI_Demo/GUIDEMO_Bitmap.c ****   /* RLE: 093 Pixels @ 111,128*/ 93, 0x00, 
1082:emWin/GUI_Demo/GUIDEMO_Bitmap.c ****   /* RLE: 013 Pixels @ 044,129*/ 13, 0x01, 
1083:emWin/GUI_Demo/GUIDEMO_Bitmap.c ****   /* RLE: 009 Pixels @ 057,129*/ 9, 0x00, 
1084:emWin/GUI_Demo/GUIDEMO_Bitmap.c ****   /* RLE: 018 Pixels @ 066,129*/ 18, 0x01, 
1085:emWin/GUI_Demo/GUIDEMO_Bitmap.c ****   /* RLE: 004 Pixels @ 084,129*/ 4, 0x00, 
1086:emWin/GUI_Demo/GUIDEMO_Bitmap.c ****   /* RLE: 020 Pixels @ 088,129*/ 20, 0x01, 
1087:emWin/GUI_Demo/GUIDEMO_Bitmap.c ****   /* RLE: 097 Pixels @ 108,129*/ 97, 0x00, 
1088:emWin/GUI_Demo/GUIDEMO_Bitmap.c ****   /* RLE: 013 Pixels @ 045,130*/ 13, 0x01, 
1089:emWin/GUI_Demo/GUIDEMO_Bitmap.c ****   /* RLE: 008 Pixels @ 058,130*/ 8, 0x00, 
1090:emWin/GUI_Demo/GUIDEMO_Bitmap.c ****   /* RLE: 013 Pixels @ 066,130*/ 13, 0x01, 
1091:emWin/GUI_Demo/GUIDEMO_Bitmap.c ****   /* RLE: 014 Pixels @ 079,130*/ 14, 0x00, 
1092:emWin/GUI_Demo/GUIDEMO_Bitmap.c ****   /* RLE: 010 Pixels @ 093,130*/ 10, 0x01, 
1093:emWin/GUI_Demo/GUIDEMO_Bitmap.c ****   /* RLE: 102 Pixels @ 103,130*/ 102, 0x00, 
1094:emWin/GUI_Demo/GUIDEMO_Bitmap.c ****   /* RLE: 013 Pixels @ 045,131*/ 13, 0x01, 
1095:emWin/GUI_Demo/GUIDEMO_Bitmap.c ****   /* RLE: 007 Pixels @ 058,131*/ 7, 0x00, 
1096:emWin/GUI_Demo/GUIDEMO_Bitmap.c ****   /* RLE: 011 Pixels @ 065,131*/ 11, 0x01, 
1097:emWin/GUI_Demo/GUIDEMO_Bitmap.c ****   /* RLE: 130 Pixels @ 076,131*/ 130, 0x00, 
1098:emWin/GUI_Demo/GUIDEMO_Bitmap.c ****   /* RLE: 013 Pixels @ 046,132*/ 13, 0x01, 
1099:emWin/GUI_Demo/GUIDEMO_Bitmap.c ****   /* RLE: 006 Pixels @ 059,132*/ 6, 0x00, 
1100:emWin/GUI_Demo/GUIDEMO_Bitmap.c ****   /* RLE: 010 Pixels @ 065,132*/ 10, 0x01, 
1101:emWin/GUI_Demo/GUIDEMO_Bitmap.c ****   /* RLE: 132 Pixels @ 075,132*/ 132, 0x00, 
1102:emWin/GUI_Demo/GUIDEMO_Bitmap.c ****   /* RLE: 013 Pixels @ 047,133*/ 13, 0x01, 
1103:emWin/GUI_Demo/GUIDEMO_Bitmap.c ****   /* RLE: 005 Pixels @ 060,133*/ 5, 0x00, 
1104:emWin/GUI_Demo/GUIDEMO_Bitmap.c ****   /* RLE: 009 Pixels @ 065,133*/ 9, 0x01, 
1105:emWin/GUI_Demo/GUIDEMO_Bitmap.c ****   /* RLE: 134 Pixels @ 074,133*/ 134, 0x00, 
1106:emWin/GUI_Demo/GUIDEMO_Bitmap.c ****   /* RLE: 013 Pixels @ 048,134*/ 13, 0x01, 
ARM GAS  C:\Users\gx\AppData\Local\Temp\ccjJNnuW.s 			page 21


1107:emWin/GUI_Demo/GUIDEMO_Bitmap.c ****   /* RLE: 004 Pixels @ 061,134*/ 4, 0x00, 
1108:emWin/GUI_Demo/GUIDEMO_Bitmap.c ****   /* RLE: 008 Pixels @ 065,134*/ 8, 0x01, 
1109:emWin/GUI_Demo/GUIDEMO_Bitmap.c ****   /* RLE: 141 Pixels @ 073,134*/ 141, 0x00, 
1110:emWin/GUI_Demo/GUIDEMO_Bitmap.c ****   /* RLE: 008 Pixels @ 054,135*/ 8, 0x01, 
1111:emWin/GUI_Demo/GUIDEMO_Bitmap.c ****   /* RLE: 003 Pixels @ 062,135*/ 3, 0x00, 
1112:emWin/GUI_Demo/GUIDEMO_Bitmap.c ****   /* RLE: 007 Pixels @ 065,135*/ 7, 0x01, 
1113:emWin/GUI_Demo/GUIDEMO_Bitmap.c ****   /* RLE: 143 Pixels @ 072,135*/ 143, 0x00, 
1114:emWin/GUI_Demo/GUIDEMO_Bitmap.c ****   /* RLE: 008 Pixels @ 055,136*/ 8, 0x01, 
1115:emWin/GUI_Demo/GUIDEMO_Bitmap.c ****   /* ABS: 002 Pixels @ 063,136*/ 0, 2, 0x00, 
1116:emWin/GUI_Demo/GUIDEMO_Bitmap.c ****   /* RLE: 007 Pixels @ 065,136*/ 7, 0x01, 
1117:emWin/GUI_Demo/GUIDEMO_Bitmap.c ****   /* RLE: 144 Pixels @ 072,136*/ 144, 0x00, 
1118:emWin/GUI_Demo/GUIDEMO_Bitmap.c ****   /* RLE: 008 Pixels @ 056,137*/ 8, 0x01, 
1119:emWin/GUI_Demo/GUIDEMO_Bitmap.c ****   /* RLE: 001 Pixels @ 064,137*/ 1, 0x00, 
1120:emWin/GUI_Demo/GUIDEMO_Bitmap.c ****   /* RLE: 007 Pixels @ 065,137*/ 7, 0x01, 
1121:emWin/GUI_Demo/GUIDEMO_Bitmap.c ****   /* RLE: 145 Pixels @ 072,137*/ 145, 0x00, 
1122:emWin/GUI_Demo/GUIDEMO_Bitmap.c ****   /* RLE: 007 Pixels @ 057,138*/ 7, 0x01, 
1123:emWin/GUI_Demo/GUIDEMO_Bitmap.c ****   /* RLE: 001 Pixels @ 064,138*/ 1, 0x00, 
1124:emWin/GUI_Demo/GUIDEMO_Bitmap.c ****   /* RLE: 008 Pixels @ 065,138*/ 8, 0x01, 
1125:emWin/GUI_Demo/GUIDEMO_Bitmap.c ****   /* RLE: 144 Pixels @ 073,138*/ 144, 0x00, 
1126:emWin/GUI_Demo/GUIDEMO_Bitmap.c ****   /* RLE: 008 Pixels @ 057,139*/ 8, 0x01, 
1127:emWin/GUI_Demo/GUIDEMO_Bitmap.c ****   /* RLE: 001 Pixels @ 065,139*/ 1, 0x00, 
1128:emWin/GUI_Demo/GUIDEMO_Bitmap.c ****   /* RLE: 007 Pixels @ 066,139*/ 7, 0x01, 
1129:emWin/GUI_Demo/GUIDEMO_Bitmap.c ****   /* RLE: 145 Pixels @ 073,139*/ 145, 0x00, 
1130:emWin/GUI_Demo/GUIDEMO_Bitmap.c ****   /* RLE: 007 Pixels @ 058,140*/ 7, 0x01, 
1131:emWin/GUI_Demo/GUIDEMO_Bitmap.c ****   /* RLE: 001 Pixels @ 065,140*/ 1, 0x00, 
1132:emWin/GUI_Demo/GUIDEMO_Bitmap.c ****   /* RLE: 008 Pixels @ 066,140*/ 8, 0x01, 
1133:emWin/GUI_Demo/GUIDEMO_Bitmap.c ****   /* RLE: 144 Pixels @ 074,140*/ 144, 0x00, 
1134:emWin/GUI_Demo/GUIDEMO_Bitmap.c ****   /* RLE: 007 Pixels @ 058,141*/ 7, 0x01, 
1135:emWin/GUI_Demo/GUIDEMO_Bitmap.c ****   /* ABS: 002 Pixels @ 065,141*/ 0, 2, 0x00, 
1136:emWin/GUI_Demo/GUIDEMO_Bitmap.c ****   /* RLE: 008 Pixels @ 067,141*/ 8, 0x01, 
1137:emWin/GUI_Demo/GUIDEMO_Bitmap.c ****   /* RLE: 144 Pixels @ 075,141*/ 144, 0x00, 
1138:emWin/GUI_Demo/GUIDEMO_Bitmap.c ****   /* RLE: 006 Pixels @ 059,142*/ 6, 0x01, 
1139:emWin/GUI_Demo/GUIDEMO_Bitmap.c ****   /* RLE: 003 Pixels @ 065,142*/ 3, 0x00, 
1140:emWin/GUI_Demo/GUIDEMO_Bitmap.c ****   /* RLE: 008 Pixels @ 068,142*/ 8, 0x01, 
1141:emWin/GUI_Demo/GUIDEMO_Bitmap.c ****   /* RLE: 142 Pixels @ 076,142*/ 142, 0x00, 
1142:emWin/GUI_Demo/GUIDEMO_Bitmap.c ****   /* RLE: 007 Pixels @ 058,143*/ 7, 0x01, 
1143:emWin/GUI_Demo/GUIDEMO_Bitmap.c ****   /* RLE: 004 Pixels @ 065,143*/ 4, 0x00, 
1144:emWin/GUI_Demo/GUIDEMO_Bitmap.c ****   /* RLE: 008 Pixels @ 069,143*/ 8, 0x01, 
1145:emWin/GUI_Demo/GUIDEMO_Bitmap.c ****   /* RLE: 139 Pixels @ 077,143*/ 139, 0x00, 
1146:emWin/GUI_Demo/GUIDEMO_Bitmap.c ****   /* RLE: 010 Pixels @ 056,144*/ 10, 0x01, 
1147:emWin/GUI_Demo/GUIDEMO_Bitmap.c ****   /* RLE: 004 Pixels @ 066,144*/ 4, 0x00, 
1148:emWin/GUI_Demo/GUIDEMO_Bitmap.c ****   /* RLE: 008 Pixels @ 070,144*/ 8, 0x01, 
1149:emWin/GUI_Demo/GUIDEMO_Bitmap.c ****   /* RLE: 136 Pixels @ 078,144*/ 136, 0x00, 
1150:emWin/GUI_Demo/GUIDEMO_Bitmap.c ****   /* RLE: 012 Pixels @ 054,145*/ 12, 0x01, 
1151:emWin/GUI_Demo/GUIDEMO_Bitmap.c ****   /* RLE: 005 Pixels @ 066,145*/ 5, 0x00, 
1152:emWin/GUI_Demo/GUIDEMO_Bitmap.c ****   /* RLE: 008 Pixels @ 071,145*/ 8, 0x01, 
1153:emWin/GUI_Demo/GUIDEMO_Bitmap.c ****   /* RLE: 135 Pixels @ 079,145*/ 135, 0x00, 
1154:emWin/GUI_Demo/GUIDEMO_Bitmap.c ****   /* RLE: 011 Pixels @ 054,146*/ 11, 0x01, 
1155:emWin/GUI_Demo/GUIDEMO_Bitmap.c ****   /* RLE: 007 Pixels @ 065,146*/ 7, 0x00, 
1156:emWin/GUI_Demo/GUIDEMO_Bitmap.c ****   /* RLE: 007 Pixels @ 072,146*/ 7, 0x01, 
1157:emWin/GUI_Demo/GUIDEMO_Bitmap.c ****   /* RLE: 136 Pixels @ 079,146*/ 136, 0x00, 
1158:emWin/GUI_Demo/GUIDEMO_Bitmap.c ****   /* RLE: 010 Pixels @ 055,147*/ 10, 0x01, 
1159:emWin/GUI_Demo/GUIDEMO_Bitmap.c ****   /* RLE: 007 Pixels @ 065,147*/ 7, 0x00, 
1160:emWin/GUI_Demo/GUIDEMO_Bitmap.c ****   /* RLE: 008 Pixels @ 072,147*/ 8, 0x01, 
1161:emWin/GUI_Demo/GUIDEMO_Bitmap.c ****   /* RLE: 135 Pixels @ 080,147*/ 135, 0x00, 
1162:emWin/GUI_Demo/GUIDEMO_Bitmap.c ****   /* RLE: 010 Pixels @ 055,148*/ 10, 0x01, 
1163:emWin/GUI_Demo/GUIDEMO_Bitmap.c ****   /* RLE: 008 Pixels @ 065,148*/ 8, 0x00, 
ARM GAS  C:\Users\gx\AppData\Local\Temp\ccjJNnuW.s 			page 22


1164:emWin/GUI_Demo/GUIDEMO_Bitmap.c ****   /* RLE: 007 Pixels @ 073,148*/ 7, 0x01, 
1165:emWin/GUI_Demo/GUIDEMO_Bitmap.c ****   /* RLE: 136 Pixels @ 080,148*/ 136, 0x00, 
1166:emWin/GUI_Demo/GUIDEMO_Bitmap.c ****   /* RLE: 009 Pixels @ 056,149*/ 9, 0x01, 
1167:emWin/GUI_Demo/GUIDEMO_Bitmap.c ****   /* RLE: 009 Pixels @ 065,149*/ 9, 0x00, 
1168:emWin/GUI_Demo/GUIDEMO_Bitmap.c ****   /* RLE: 007 Pixels @ 074,149*/ 7, 0x01, 
1169:emWin/GUI_Demo/GUIDEMO_Bitmap.c ****   /* RLE: 136 Pixels @ 081,149*/ 136, 0x00, 
1170:emWin/GUI_Demo/GUIDEMO_Bitmap.c ****   /* RLE: 007 Pixels @ 057,150*/ 7, 0x01, 
1171:emWin/GUI_Demo/GUIDEMO_Bitmap.c ****   /* RLE: 010 Pixels @ 064,150*/ 10, 0x00, 
1172:emWin/GUI_Demo/GUIDEMO_Bitmap.c ****   /* RLE: 007 Pixels @ 074,150*/ 7, 0x01, 
1173:emWin/GUI_Demo/GUIDEMO_Bitmap.c ****   /* RLE: 137 Pixels @ 081,150*/ 137, 0x00, 
1174:emWin/GUI_Demo/GUIDEMO_Bitmap.c ****   /* RLE: 005 Pixels @ 058,151*/ 5, 0x01, 
1175:emWin/GUI_Demo/GUIDEMO_Bitmap.c ****   /* RLE: 012 Pixels @ 063,151*/ 12, 0x00, 
1176:emWin/GUI_Demo/GUIDEMO_Bitmap.c ****   /* RLE: 006 Pixels @ 075,151*/ 6, 0x01, 
1177:emWin/GUI_Demo/GUIDEMO_Bitmap.c ****   /* RLE: 154 Pixels @ 081,151*/ 154, 0x00, 
1178:emWin/GUI_Demo/GUIDEMO_Bitmap.c ****   /* RLE: 006 Pixels @ 075,152*/ 6, 0x01, 
1179:emWin/GUI_Demo/GUIDEMO_Bitmap.c ****   /* RLE: 153 Pixels @ 081,152*/ 153, 0x00, 
1180:emWin/GUI_Demo/GUIDEMO_Bitmap.c ****   /* RLE: 008 Pixels @ 074,153*/ 8, 0x01, 
1181:emWin/GUI_Demo/GUIDEMO_Bitmap.c ****   /* RLE: 148 Pixels @ 082,153*/ 148, 0x00, 
1182:emWin/GUI_Demo/GUIDEMO_Bitmap.c ****   /* RLE: 012 Pixels @ 070,154*/ 12, 0x01, 
1183:emWin/GUI_Demo/GUIDEMO_Bitmap.c ****   /* RLE: 148 Pixels @ 082,154*/ 148, 0x00, 
1184:emWin/GUI_Demo/GUIDEMO_Bitmap.c ****   /* RLE: 012 Pixels @ 070,155*/ 12, 0x01, 
1185:emWin/GUI_Demo/GUIDEMO_Bitmap.c ****   /* RLE: 148 Pixels @ 082,155*/ 148, 0x00, 
1186:emWin/GUI_Demo/GUIDEMO_Bitmap.c ****   /* RLE: 011 Pixels @ 070,156*/ 11, 0x01, 
1187:emWin/GUI_Demo/GUIDEMO_Bitmap.c ****   /* RLE: 150 Pixels @ 081,156*/ 150, 0x00, 
1188:emWin/GUI_Demo/GUIDEMO_Bitmap.c ****   /* RLE: 010 Pixels @ 071,157*/ 10, 0x01, 
1189:emWin/GUI_Demo/GUIDEMO_Bitmap.c ****   /* RLE: 150 Pixels @ 081,157*/ 150, 0x00, 
1190:emWin/GUI_Demo/GUIDEMO_Bitmap.c ****   /* RLE: 010 Pixels @ 071,158*/ 10, 0x01, 
1191:emWin/GUI_Demo/GUIDEMO_Bitmap.c ****   /* RLE: 151 Pixels @ 081,158*/ 151, 0x00, 
1192:emWin/GUI_Demo/GUIDEMO_Bitmap.c ****   /* RLE: 008 Pixels @ 072,159*/ 8, 0x01, 
1193:emWin/GUI_Demo/GUIDEMO_Bitmap.c ****   /* RLE: 153 Pixels @ 080,159*/ 153, 0x00, 
1194:emWin/GUI_Demo/GUIDEMO_Bitmap.c ****   /* RLE: 006 Pixels @ 073,160*/ 6, 0x01, 
1195:emWin/GUI_Demo/GUIDEMO_Bitmap.c ****   /* RLE: 081 Pixels @ 079,160*/ 81, 0x00, 
1196:emWin/GUI_Demo/GUIDEMO_Bitmap.c ****   0
1197:emWin/GUI_Demo/GUIDEMO_Bitmap.c **** };  /* 1927 for 25760 pixels */
1198:emWin/GUI_Demo/GUIDEMO_Bitmap.c **** 
1199:emWin/GUI_Demo/GUIDEMO_Bitmap.c **** static const GUI_BITMAP _bmLadyBug = {
1200:emWin/GUI_Demo/GUIDEMO_Bitmap.c ****   160,               /* XSize */
1201:emWin/GUI_Demo/GUIDEMO_Bitmap.c ****   161,               /* YSize */
1202:emWin/GUI_Demo/GUIDEMO_Bitmap.c ****   40,                /* BytesPerLine */
1203:emWin/GUI_Demo/GUIDEMO_Bitmap.c ****   GUI_COMPRESS_RLE4, /* BitsPerPixel */
1204:emWin/GUI_Demo/GUIDEMO_Bitmap.c ****   _acLadyBug,        /* Pointer to picture data (indices) */
1205:emWin/GUI_Demo/GUIDEMO_Bitmap.c ****   &_PalLadyBug       /* Pointer to palette */
1206:emWin/GUI_Demo/GUIDEMO_Bitmap.c ****   ,GUI_DRAW_RLE4
1207:emWin/GUI_Demo/GUIDEMO_Bitmap.c **** };
1208:emWin/GUI_Demo/GUIDEMO_Bitmap.c **** 
1209:emWin/GUI_Demo/GUIDEMO_Bitmap.c **** /*********************************************************************
1210:emWin/GUI_Demo/GUIDEMO_Bitmap.c **** *
1211:emWin/GUI_Demo/GUIDEMO_Bitmap.c **** *       static code
1212:emWin/GUI_Demo/GUIDEMO_Bitmap.c **** *
1213:emWin/GUI_Demo/GUIDEMO_Bitmap.c **** **********************************************************************
1214:emWin/GUI_Demo/GUIDEMO_Bitmap.c **** */
1215:emWin/GUI_Demo/GUIDEMO_Bitmap.c **** #define MAG_FACTOR 3
1216:emWin/GUI_Demo/GUIDEMO_Bitmap.c **** 
1217:emWin/GUI_Demo/GUIDEMO_Bitmap.c **** /*********************************************************************
1218:emWin/GUI_Demo/GUIDEMO_Bitmap.c **** *
1219:emWin/GUI_Demo/GUIDEMO_Bitmap.c **** *       _ShowMagnifiedBitmap
1220:emWin/GUI_Demo/GUIDEMO_Bitmap.c **** */
ARM GAS  C:\Users\gx\AppData\Local\Temp\ccjJNnuW.s 			page 23


1221:emWin/GUI_Demo/GUIDEMO_Bitmap.c **** static void _ShowMagnifiedBitmap(void) {
  32              		.loc 1 1221 40 view -0
  33              		.cfi_startproc
  34              		@ args = 0, pretend = 0, frame = 0
  35              		@ frame_needed = 0, uses_anonymous_args = 0
  36 0000 10B5     		push	{r4, lr}
  37              	.LCFI0:
  38              		.cfi_def_cfa_offset 8
  39              		.cfi_offset 4, -8
  40              		.cfi_offset 14, -4
  41 0002 82B0     		sub	sp, sp, #8
  42              	.LCFI1:
  43              		.cfi_def_cfa_offset 16
1222:emWin/GUI_Demo/GUIDEMO_Bitmap.c ****   int xCenter, yCenter, x0, y0;
  44              		.loc 1 1222 3 view .LVU1
1223:emWin/GUI_Demo/GUIDEMO_Bitmap.c **** 
1224:emWin/GUI_Demo/GUIDEMO_Bitmap.c ****   xCenter = LCD_GetXSize() >> 1;
  45              		.loc 1 1224 3 view .LVU2
  46              		.loc 1 1224 13 is_stmt 0 view .LVU3
  47 0004 FFF7FEFF 		bl	LCD_GetXSize
  48              	.LVL0:
  49              		.loc 1 1224 11 view .LVU4
  50 0008 4410     		asrs	r4, r0, #1
  51              	.LVL1:
1225:emWin/GUI_Demo/GUIDEMO_Bitmap.c ****   yCenter = LCD_GetYSize() >> 1;
  52              		.loc 1 1225 3 is_stmt 1 view .LVU5
  53              		.loc 1 1225 13 is_stmt 0 view .LVU6
  54 000a FFF7FEFF 		bl	LCD_GetYSize
  55              	.LVL2:
  56              		.loc 1 1225 11 view .LVU7
  57 000e 4210     		asrs	r2, r0, #1
  58              	.LVL3:
1226:emWin/GUI_Demo/GUIDEMO_Bitmap.c ****   x0      = xCenter - (GUIDEMO_bm4bpp.XSize >> 1) * MAG_FACTOR;
  59              		.loc 1 1226 3 is_stmt 1 view .LVU8
1227:emWin/GUI_Demo/GUIDEMO_Bitmap.c ****   y0      = yCenter - (GUIDEMO_bm4bpp.YSize >> 1) * MAG_FACTOR;
  60              		.loc 1 1227 3 view .LVU9
1228:emWin/GUI_Demo/GUIDEMO_Bitmap.c ****   GUI_DrawBitmapMag(&GUIDEMO_bm4bpp, x0, y0, MAG_FACTOR, MAG_FACTOR);
  61              		.loc 1 1228 3 view .LVU10
  62 0010 0323     		movs	r3, #3
  63 0012 0093     		str	r3, [sp]
  64 0014 8A3A     		subs	r2, r2, #138
  65              	.LVL4:
  66              		.loc 1 1228 3 is_stmt 0 view .LVU11
  67 0016 A4F15A01 		sub	r1, r4, #90
  68              	.LVL5:
  69              		.loc 1 1228 3 view .LVU12
  70 001a 0448     		ldr	r0, .L3
  71 001c FFF7FEFF 		bl	GUI_DrawBitmapMag
  72              	.LVL6:
1229:emWin/GUI_Demo/GUIDEMO_Bitmap.c ****   GUIDEMO_ShowInfo("Bitmaps can be\n"
  73              		.loc 1 1229 3 is_stmt 1 view .LVU13
  74 0020 0348     		ldr	r0, .L3+4
  75 0022 FFF7FEFF 		bl	GUIDEMO_ShowInfo
  76              	.LVL7:
1230:emWin/GUI_Demo/GUIDEMO_Bitmap.c ****                    "magnified");
1231:emWin/GUI_Demo/GUIDEMO_Bitmap.c **** }
  77              		.loc 1 1231 1 is_stmt 0 view .LVU14
ARM GAS  C:\Users\gx\AppData\Local\Temp\ccjJNnuW.s 			page 24


  78 0026 02B0     		add	sp, sp, #8
  79              	.LCFI2:
  80              		.cfi_def_cfa_offset 8
  81              		@ sp needed
  82 0028 10BD     		pop	{r4, pc}
  83              	.LVL8:
  84              	.L4:
  85              		.loc 1 1231 1 view .LVU15
  86 002a 00BF     		.align	2
  87              	.L3:
  88 002c 00000000 		.word	.LANCHOR0
  89 0030 00000000 		.word	.LC0
  90              		.cfi_endproc
  91              	.LFE0:
  93              		.section	.rodata._BitmapDemo.str1.4,"aMS",%progbits,1
  94              		.align	2
  95              	.LC1:
  96 0000 524C4520 		.ascii	"RLE Compressed\012bitmaps\000"
  96      436F6D70 
  96      72657373 
  96      65640A62 
  96      69746D61 
  97 0017 00       		.align	2
  98              	.LC2:
  99 0018 312F322F 		.ascii	"1/2/4/8 bpp bitmaps\000"
  99      342F3820 
  99      62707020 
  99      6269746D 
  99      61707300 
 100              		.section	.text._BitmapDemo,"ax",%progbits
 101              		.align	1
 102              		.syntax unified
 103              		.thumb
 104              		.thumb_func
 105              		.fpu fpv4-sp-d16
 107              	_BitmapDemo:
 108              	.LFB1:
1232:emWin/GUI_Demo/GUIDEMO_Bitmap.c **** 
1233:emWin/GUI_Demo/GUIDEMO_Bitmap.c **** 
1234:emWin/GUI_Demo/GUIDEMO_Bitmap.c **** 
1235:emWin/GUI_Demo/GUIDEMO_Bitmap.c **** /*********************************************************************
1236:emWin/GUI_Demo/GUIDEMO_Bitmap.c **** *
1237:emWin/GUI_Demo/GUIDEMO_Bitmap.c **** *       _BitmapDemo 
1238:emWin/GUI_Demo/GUIDEMO_Bitmap.c **** */
1239:emWin/GUI_Demo/GUIDEMO_Bitmap.c **** static void _BitmapDemo(void) {
 109              		.loc 1 1239 31 is_stmt 1 view -0
 110              		.cfi_startproc
 111              		@ args = 0, pretend = 0, frame = 0
 112              		@ frame_needed = 0, uses_anonymous_args = 0
 113 0000 F8B5     		push	{r3, r4, r5, r6, r7, lr}
 114              	.LCFI3:
 115              		.cfi_def_cfa_offset 24
 116              		.cfi_offset 3, -24
 117              		.cfi_offset 4, -20
 118              		.cfi_offset 5, -16
 119              		.cfi_offset 6, -12
 120              		.cfi_offset 7, -8
ARM GAS  C:\Users\gx\AppData\Local\Temp\ccjJNnuW.s 			page 25


 121              		.cfi_offset 14, -4
1240:emWin/GUI_Demo/GUIDEMO_Bitmap.c ****   int x,     y;
 122              		.loc 1 1240 3 view .LVU17
1241:emWin/GUI_Demo/GUIDEMO_Bitmap.c ****   int xSize, ySize;
 123              		.loc 1 1241 3 view .LVU18
1242:emWin/GUI_Demo/GUIDEMO_Bitmap.c **** 
1243:emWin/GUI_Demo/GUIDEMO_Bitmap.c ****   xSize = LCD_GetXSize();
 124              		.loc 1 1243 3 view .LVU19
 125              		.loc 1 1243 11 is_stmt 0 view .LVU20
 126 0002 FFF7FEFF 		bl	LCD_GetXSize
 127              	.LVL9:
 128 0006 0746     		mov	r7, r0
 129              	.LVL10:
1244:emWin/GUI_Demo/GUIDEMO_Bitmap.c ****   ySize = LCD_GetYSize();
 130              		.loc 1 1244 3 is_stmt 1 view .LVU21
 131              		.loc 1 1244 11 is_stmt 0 view .LVU22
 132 0008 FFF7FEFF 		bl	LCD_GetYSize
 133              	.LVL11:
 134              		.loc 1 1244 11 view .LVU23
 135 000c 0546     		mov	r5, r0
 136              	.LVL12:
1245:emWin/GUI_Demo/GUIDEMO_Bitmap.c ****   //
1246:emWin/GUI_Demo/GUIDEMO_Bitmap.c ****   // RLE Bitmap
1247:emWin/GUI_Demo/GUIDEMO_Bitmap.c ****   //
1248:emWin/GUI_Demo/GUIDEMO_Bitmap.c ****   GUI_DrawBitmap(&_bmLadyBug, 20, 50);
 137              		.loc 1 1248 3 is_stmt 1 view .LVU24
 138 000e 3222     		movs	r2, #50
 139 0010 1421     		movs	r1, #20
 140 0012 2048     		ldr	r0, .L12
 141              	.LVL13:
 142              		.loc 1 1248 3 is_stmt 0 view .LVU25
 143 0014 FFF7FEFF 		bl	GUI_DrawBitmap
 144              	.LVL14:
1249:emWin/GUI_Demo/GUIDEMO_Bitmap.c ****   GUIDEMO_ShowInfo("RLE Compressed\n"
 145              		.loc 1 1249 3 is_stmt 1 view .LVU26
 146 0018 1F48     		ldr	r0, .L12+4
 147 001a FFF7FEFF 		bl	GUIDEMO_ShowInfo
 148              	.LVL15:
1250:emWin/GUI_Demo/GUIDEMO_Bitmap.c ****                    "bitmaps");
1251:emWin/GUI_Demo/GUIDEMO_Bitmap.c ****   GUIDEMO_Wait(3000);
 149              		.loc 1 1251 3 view .LVU27
 150 001e 40F6B830 		movw	r0, #3000
 151 0022 FFF7FEFF 		bl	GUIDEMO_Wait
 152              	.LVL16:
1252:emWin/GUI_Demo/GUIDEMO_Bitmap.c ****   GUIDEMO_DrawBk(0);
 153              		.loc 1 1252 3 view .LVU28
 154 0026 0020     		movs	r0, #0
 155 0028 FFF7FEFF 		bl	GUIDEMO_DrawBk
 156              	.LVL17:
1253:emWin/GUI_Demo/GUIDEMO_Bitmap.c ****   //
1254:emWin/GUI_Demo/GUIDEMO_Bitmap.c ****   // 1/2/4/8 bpp bitmaps
1255:emWin/GUI_Demo/GUIDEMO_Bitmap.c ****   //
1256:emWin/GUI_Demo/GUIDEMO_Bitmap.c ****   GUI_DrawBitmap(&GUIDEMO_bm4bpp, 20, 50);
 157              		.loc 1 1256 3 view .LVU29
 158 002c 3222     		movs	r2, #50
 159 002e 1421     		movs	r1, #20
 160 0030 1A48     		ldr	r0, .L12+8
ARM GAS  C:\Users\gx\AppData\Local\Temp\ccjJNnuW.s 			page 26


 161 0032 FFF7FEFF 		bl	GUI_DrawBitmap
 162              	.LVL18:
1257:emWin/GUI_Demo/GUIDEMO_Bitmap.c ****   GUIDEMO_ShowInfo("1/2/4/8 bpp bitmaps");
 163              		.loc 1 1257 3 view .LVU30
 164 0036 1A48     		ldr	r0, .L12+12
 165 0038 FFF7FEFF 		bl	GUIDEMO_ShowInfo
 166              	.LVL19:
1258:emWin/GUI_Demo/GUIDEMO_Bitmap.c ****   GUIDEMO_Wait(3000);
 167              		.loc 1 1258 3 view .LVU31
 168 003c 40F6B830 		movw	r0, #3000
 169 0040 FFF7FEFF 		bl	GUIDEMO_Wait
 170              	.LVL20:
1259:emWin/GUI_Demo/GUIDEMO_Bitmap.c ****   //
1260:emWin/GUI_Demo/GUIDEMO_Bitmap.c ****   // Tile display with image
1261:emWin/GUI_Demo/GUIDEMO_Bitmap.c ****   //
1262:emWin/GUI_Demo/GUIDEMO_Bitmap.c ****   for (x = 0; x < xSize / GUIDEMO_bm4bpp.XSize + 1; x++) {
 171              		.loc 1 1262 3 view .LVU32
 172              		.loc 1 1262 10 is_stmt 0 view .LVU33
 173 0044 0026     		movs	r6, #0
 174              		.loc 1 1262 3 view .LVU34
 175 0046 14E0     		b	.L6
 176              	.LVL21:
 177              	.L7:
1263:emWin/GUI_Demo/GUIDEMO_Bitmap.c ****     for (y = 0; y < ySize / GUIDEMO_bm4bpp.YSize + 1; y++) {
1264:emWin/GUI_Demo/GUIDEMO_Bitmap.c ****       GUI_DrawBitmap(&GUIDEMO_bm4bpp, GUIDEMO_bm4bpp.XSize * x, GUIDEMO_bm4bpp.YSize * y);
 178              		.loc 1 1264 7 is_stmt 1 discriminator 3 view .LVU35
 179 0048 C6EB0611 		rsb	r1, r6, r6, lsl #4
 180 004c 5C22     		movs	r2, #92
 181 004e 02FB04F2 		mul	r2, r2, r4
 182 0052 06EB8101 		add	r1, r6, r1, lsl #2
 183 0056 1148     		ldr	r0, .L12+8
 184 0058 FFF7FEFF 		bl	GUI_DrawBitmap
 185              	.LVL22:
1263:emWin/GUI_Demo/GUIDEMO_Bitmap.c ****     for (y = 0; y < ySize / GUIDEMO_bm4bpp.YSize + 1; y++) {
 186              		.loc 1 1263 55 discriminator 3 view .LVU36
1263:emWin/GUI_Demo/GUIDEMO_Bitmap.c ****     for (y = 0; y < ySize / GUIDEMO_bm4bpp.YSize + 1; y++) {
 187              		.loc 1 1263 56 is_stmt 0 discriminator 3 view .LVU37
 188 005c 0134     		adds	r4, r4, #1
 189              	.LVL23:
 190              	.L8:
1263:emWin/GUI_Demo/GUIDEMO_Bitmap.c ****     for (y = 0; y < ySize / GUIDEMO_bm4bpp.YSize + 1; y++) {
 191              		.loc 1 1263 17 is_stmt 1 discriminator 1 view .LVU38
1263:emWin/GUI_Demo/GUIDEMO_Bitmap.c ****     for (y = 0; y < ySize / GUIDEMO_bm4bpp.YSize + 1; y++) {
 192              		.loc 1 1263 27 is_stmt 0 discriminator 1 view .LVU39
 193 005e 114B     		ldr	r3, .L12+16
 194 0060 83FB0523 		smull	r2, r3, r3, r5
 195 0064 2B44     		add	r3, r3, r5
 196 0066 EA17     		asrs	r2, r5, #31
 197 0068 C2EBA313 		rsb	r3, r2, r3, asr #6
1263:emWin/GUI_Demo/GUIDEMO_Bitmap.c ****     for (y = 0; y < ySize / GUIDEMO_bm4bpp.YSize + 1; y++) {
 198              		.loc 1 1263 5 discriminator 1 view .LVU40
 199 006c A342     		cmp	r3, r4
 200 006e EBDA     		bge	.L7
1262:emWin/GUI_Demo/GUIDEMO_Bitmap.c ****     for (y = 0; y < ySize / GUIDEMO_bm4bpp.YSize + 1; y++) {
 201              		.loc 1 1262 53 is_stmt 1 discriminator 2 view .LVU41
1262:emWin/GUI_Demo/GUIDEMO_Bitmap.c ****     for (y = 0; y < ySize / GUIDEMO_bm4bpp.YSize + 1; y++) {
 202              		.loc 1 1262 54 is_stmt 0 discriminator 2 view .LVU42
ARM GAS  C:\Users\gx\AppData\Local\Temp\ccjJNnuW.s 			page 27


 203 0070 0136     		adds	r6, r6, #1
 204              	.LVL24:
 205              	.L6:
1262:emWin/GUI_Demo/GUIDEMO_Bitmap.c ****     for (y = 0; y < ySize / GUIDEMO_bm4bpp.YSize + 1; y++) {
 206              		.loc 1 1262 15 is_stmt 1 discriminator 1 view .LVU43
1262:emWin/GUI_Demo/GUIDEMO_Bitmap.c ****     for (y = 0; y < ySize / GUIDEMO_bm4bpp.YSize + 1; y++) {
 207              		.loc 1 1262 25 is_stmt 0 discriminator 1 view .LVU44
 208 0072 0D4A     		ldr	r2, .L12+20
 209 0074 82FB0732 		smull	r3, r2, r2, r7
 210 0078 FB17     		asrs	r3, r7, #31
 211 007a C3EB2213 		rsb	r3, r3, r2, asr #4
1262:emWin/GUI_Demo/GUIDEMO_Bitmap.c ****     for (y = 0; y < ySize / GUIDEMO_bm4bpp.YSize + 1; y++) {
 212              		.loc 1 1262 3 discriminator 1 view .LVU45
 213 007e B342     		cmp	r3, r6
 214 0080 01DB     		blt	.L11
1263:emWin/GUI_Demo/GUIDEMO_Bitmap.c ****     for (y = 0; y < ySize / GUIDEMO_bm4bpp.YSize + 1; y++) {
 215              		.loc 1 1263 12 view .LVU46
 216 0082 0024     		movs	r4, #0
 217 0084 EBE7     		b	.L8
 218              	.L11:
1265:emWin/GUI_Demo/GUIDEMO_Bitmap.c ****     }
1266:emWin/GUI_Demo/GUIDEMO_Bitmap.c ****   }
1267:emWin/GUI_Demo/GUIDEMO_Bitmap.c ****   GUIDEMO_Wait(2000);
 219              		.loc 1 1267 3 is_stmt 1 view .LVU47
 220 0086 4FF4FA60 		mov	r0, #2000
 221 008a FFF7FEFF 		bl	GUIDEMO_Wait
 222              	.LVL25:
1268:emWin/GUI_Demo/GUIDEMO_Bitmap.c ****   //
1269:emWin/GUI_Demo/GUIDEMO_Bitmap.c ****   // Magnified bitmap
1270:emWin/GUI_Demo/GUIDEMO_Bitmap.c ****   //
1271:emWin/GUI_Demo/GUIDEMO_Bitmap.c ****   _ShowMagnifiedBitmap();
 223              		.loc 1 1271 3 view .LVU48
 224 008e FFF7FEFF 		bl	_ShowMagnifiedBitmap
 225              	.LVL26:
1272:emWin/GUI_Demo/GUIDEMO_Bitmap.c **** }
 226              		.loc 1 1272 1 is_stmt 0 view .LVU49
 227 0092 F8BD     		pop	{r3, r4, r5, r6, r7, pc}
 228              	.LVL27:
 229              	.L13:
 230              		.loc 1 1272 1 view .LVU50
 231              		.align	2
 232              	.L12:
 233 0094 00000000 		.word	.LANCHOR1
 234 0098 00000000 		.word	.LC1
 235 009c 00000000 		.word	.LANCHOR0
 236 00a0 18000000 		.word	.LC2
 237 00a4 C94216B2 		.word	-1307163959
 238 00a8 3FC52543 		.word	1126548799
 239              		.cfi_endproc
 240              	.LFE1:
 242              		.section	.rodata.GUIDEMO_Bitmap.str1.4,"aMS",%progbits,1
 243              		.align	2
 244              	.LC3:
 245 0000 53686F77 		.ascii	"Showing\012different bitmaps with\012and without co"
 245      696E670A 
 245      64696666 
 245      6572656E 
ARM GAS  C:\Users\gx\AppData\Local\Temp\ccjJNnuW.s 			page 28


 245      74206269 
 246 002d 6D707265 		.ascii	"mpression\000"
 246      7373696F 
 246      6E00
 247 0037 00       		.align	2
 248              	.LC4:
 249 0038 4269746D 		.ascii	"Bitmaps\000"
 249      61707300 
 250              		.section	.text.GUIDEMO_Bitmap,"ax",%progbits
 251              		.align	1
 252              		.global	GUIDEMO_Bitmap
 253              		.syntax unified
 254              		.thumb
 255              		.thumb_func
 256              		.fpu fpv4-sp-d16
 258              	GUIDEMO_Bitmap:
 259              	.LFB2:
1273:emWin/GUI_Demo/GUIDEMO_Bitmap.c **** 
1274:emWin/GUI_Demo/GUIDEMO_Bitmap.c **** /*********************************************************************
1275:emWin/GUI_Demo/GUIDEMO_Bitmap.c **** *
1276:emWin/GUI_Demo/GUIDEMO_Bitmap.c **** *       public code
1277:emWin/GUI_Demo/GUIDEMO_Bitmap.c **** *
1278:emWin/GUI_Demo/GUIDEMO_Bitmap.c **** **********************************************************************
1279:emWin/GUI_Demo/GUIDEMO_Bitmap.c **** */
1280:emWin/GUI_Demo/GUIDEMO_Bitmap.c **** /*********************************************************************
1281:emWin/GUI_Demo/GUIDEMO_Bitmap.c **** *
1282:emWin/GUI_Demo/GUIDEMO_Bitmap.c **** *       GUIDEMO_Bitmap
1283:emWin/GUI_Demo/GUIDEMO_Bitmap.c **** */
1284:emWin/GUI_Demo/GUIDEMO_Bitmap.c **** void GUIDEMO_Bitmap(void) {
 260              		.loc 1 1284 27 is_stmt 1 view -0
 261              		.cfi_startproc
 262              		@ args = 0, pretend = 0, frame = 0
 263              		@ frame_needed = 0, uses_anonymous_args = 0
 264 0000 08B5     		push	{r3, lr}
 265              	.LCFI4:
 266              		.cfi_def_cfa_offset 8
 267              		.cfi_offset 3, -8
 268              		.cfi_offset 14, -4
1285:emWin/GUI_Demo/GUIDEMO_Bitmap.c ****   GUIDEMO_ShowIntro("Bitmaps", "Showing\n"
 269              		.loc 1 1285 3 view .LVU52
 270 0002 0849     		ldr	r1, .L16
 271 0004 0848     		ldr	r0, .L16+4
 272 0006 FFF7FEFF 		bl	GUIDEMO_ShowIntro
 273              	.LVL28:
1286:emWin/GUI_Demo/GUIDEMO_Bitmap.c ****                                "different bitmaps with\n"
1287:emWin/GUI_Demo/GUIDEMO_Bitmap.c ****                                "and without compression");
1288:emWin/GUI_Demo/GUIDEMO_Bitmap.c ****   GUIDEMO_ShowInfoWin();
 274              		.loc 1 1288 3 view .LVU53
 275 000a FFF7FEFF 		bl	GUIDEMO_ShowInfoWin
 276              	.LVL29:
1289:emWin/GUI_Demo/GUIDEMO_Bitmap.c ****   GUIDEMO_DrawBk(0);
 277              		.loc 1 1289 3 view .LVU54
 278 000e 0020     		movs	r0, #0
 279 0010 FFF7FEFF 		bl	GUIDEMO_DrawBk
 280              	.LVL30:
1290:emWin/GUI_Demo/GUIDEMO_Bitmap.c ****   _BitmapDemo();
 281              		.loc 1 1290 3 view .LVU55
ARM GAS  C:\Users\gx\AppData\Local\Temp\ccjJNnuW.s 			page 29


 282 0014 FFF7FEFF 		bl	_BitmapDemo
 283              	.LVL31:
1291:emWin/GUI_Demo/GUIDEMO_Bitmap.c ****   GUIDEMO_Wait(4000);
 284              		.loc 1 1291 3 view .LVU56
 285 0018 4FF47A60 		mov	r0, #4000
 286 001c FFF7FEFF 		bl	GUIDEMO_Wait
 287              	.LVL32:
1292:emWin/GUI_Demo/GUIDEMO_Bitmap.c **** }
 288              		.loc 1 1292 1 is_stmt 0 view .LVU57
 289 0020 08BD     		pop	{r3, pc}
 290              	.L17:
 291 0022 00BF     		.align	2
 292              	.L16:
 293 0024 00000000 		.word	.LC3
 294 0028 38000000 		.word	.LC4
 295              		.cfi_endproc
 296              	.LFE2:
 298              		.global	GUIDEMO_bm4bpp
 299              		.section	.rodata.ColorsNature,"a"
 300              		.align	2
 303              	ColorsNature:
 304 0000 00000000 		.word	0
 305 0004 11111100 		.word	1118481
 306 0008 22222200 		.word	2236962
 307 000c 33333300 		.word	3355443
 308 0010 44444400 		.word	4473924
 309 0014 55555500 		.word	5592405
 310 0018 66666600 		.word	6710886
 311 001c 77777700 		.word	7829367
 312 0020 88888800 		.word	8947848
 313 0024 99999900 		.word	10066329
 314 0028 AAAAAA00 		.word	11184810
 315 002c BBBBBB00 		.word	12303291
 316 0030 CCCCCC00 		.word	13421772
 317 0034 DDDDDD00 		.word	14540253
 318 0038 EEEEEE00 		.word	15658734
 319 003c FFFFFF00 		.word	16777215
 320              		.section	.rodata.GUIDEMO_bm4bpp,"a"
 321              		.align	2
 322              		.set	.LANCHOR0,. + 0
 325              	GUIDEMO_bm4bpp:
 326 0000 3D00     		.short	61
 327 0002 5C00     		.short	92
 328 0004 1F00     		.short	31
 329 0006 0400     		.short	4
 330 0008 00000000 		.word	_acNature
 331 000c 00000000 		.word	_PalNature
 332 0010 00000000 		.space	4
 333              		.section	.rodata._ColorsLadyBug,"a"
 334              		.align	2
 337              	_ColorsLadyBug:
 338 0000 FFFFFF00 		.word	16777215
 339 0004 00000000 		.word	0
 340 0008 FF000000 		.word	255
 341 000c CCCCFF00 		.word	16764108
 342              		.section	.rodata._PalLadyBug,"a"
 343              		.align	2
ARM GAS  C:\Users\gx\AppData\Local\Temp\ccjJNnuW.s 			page 30


 346              	_PalLadyBug:
 347 0000 04000000 		.word	4
 348 0004 00       		.byte	0
 349 0005 000000   		.space	3
 350 0008 00000000 		.word	_ColorsLadyBug
 351              		.section	.rodata._PalNature,"a"
 352              		.align	2
 355              	_PalNature:
 356 0000 10000000 		.word	16
 357 0004 00       		.byte	0
 358 0005 000000   		.space	3
 359 0008 00000000 		.word	ColorsNature
 360              		.section	.rodata._acLadyBug,"a"
 361              		.align	2
 364              	_acLadyBug:
 365 0000 38000701 		.ascii	"8\000\007\001\230\000\011\001\226\000\012\001\225\000"
 365      98000901 
 365      96000A01 
 365      9500
 366 000e 0C019400 		.ascii	"\014\001\224\000\014\001\223\000\015\001\223\000\015"
 366      0C019300 
 366      0D019300 
 366      0D
 367 001b 0192000E 		.ascii	"\001\222\000\016\001\222\000\016\001\222\000\016\001"
 367      0192000E 
 367      0192000E 
 367      01
 368 0028 91000E01 		.ascii	"\221\000\016\001\222\000\016\001\222\000\016\001\222"
 368      92000E01 
 368      92000E01 
 368      92
 369 0035 000D0192 		.ascii	"\000\015\001\222\000\016\001\222\000\015\001\223\000"
 369      000E0192 
 369      000D0193 
 369      00
 370 0042 0D019300 		.ascii	"\015\001\223\000\014\001\224\000\014\001\224\000\014"
 370      0C019400 
 370      0C019400 
 370      0C
 371 004f 0193000C 		.ascii	"\001\223\000\014\001\224\000\014\001\224\000\013\001"
 371      0194000C 
 371      0194000B 
 371      01
 372 005c 95000B01 		.ascii	"\225\000\013\001\225\000\013\001\225\000\012\001\226"
 372      95000B01 
 372      95000A01 
 372      96
 373 0069 000A0196 		.ascii	"\000\012\001\226\000\012\001\226\000\011\001\230\000"
 373      000A0196 
 373      00090198 
 373      00
 374 0076 08019800 		.ascii	"\010\001\230\000\010\001\230\000\010\001\230\000\010"
 374      08019800 
 374      08019800 
 374      08
 375 0083 01980008 		.ascii	"\001\230\000\010\001\230\000\010\001\231\000\007\001"
 375      01980008 
ARM GAS  C:\Users\gx\AppData\Local\Temp\ccjJNnuW.s 			page 31


 375      01990007 
 375      01
 376 0090 99000701 		.ascii	"\231\000\007\001\231\000\007\001\231\000\007\001\232"
 376      99000701 
 376      99000701 
 376      9A
 377 009d 0006019A 		.ascii	"\000\006\001\232\000\007\001\232\000\006\001\232\000"
 377      0007019A 
 377      0006019A 
 377      00
 378 00aa 07019A00 		.ascii	"\007\001\232\000\006\001\232\000\007\0011\000\012\001"
 378      06019A00 
 378      07013100 
 378      0A01
 379 00b8 5F000601 		.ascii	"_\000\006\001.\000\016\001_\000\006\001+\000\021\001"
 379      2E000E01 
 379      5F000601 
 379      2B001101 
 380 00c8 5E000701 		.ascii	"^\000\007\001(\000\024\0016\000\023\001\025\000\006"
 380      28001401 
 380      36001301 
 380      150006
 381 00d7 01040006 		.ascii	"\001\004\000\006\001\035\000\026\0011\000\033\001\022"
 381      011D0016 
 381      0131001B 
 381      0112
 382 00e5 00060101 		.ascii	"\000\006\001\001\000\011\001\032\000\030\001.\000 \001"
 382      0009011A 
 382      0018012E 
 382      002001
 383 00f4 11001001 		.ascii	"\021\000\020\001\030\000\032\001+\000$\001\017\000\021"
 383      18001A01 
 383      2B002401 
 383      0F0011
 384 0103 0116001B 		.ascii	"\001\026\000\033\001(\000)\001\016\000\020\001\025\000"
 384      01280029 
 384      010E0010 
 384      011500
 385 0112 10010500 		.ascii	"\020\001\005\000\014\001\"\000,\001\012\000\022\001"
 385      0C012200 
 385      2C010A00 
 385      1201
 386 0120 14001001 		.ascii	"\024\000\020\001\007\000\015\001\037\000.\001\010\000"
 386      07000D01 
 386      1F002E01 
 386      0800
 387 012e 14011200 		.ascii	"\024\001\022\000\017\001\010\000\020\001\034\0001\001"
 387      0F010800 
 387      10011C00 
 387      3101
 388 013c 05001501 		.ascii	"\005\000\025\001\003\000\036\001\006\000\022\001\033"
 388      03001E01 
 388      06001201 
 388      1B
 389 0149 001C010C 		.ascii	"\000\034\001\014\000\013\001\003\0006\001\006\000\024"
 389      000B0103 
 389      00360106 
ARM GAS  C:\Users\gx\AppData\Local\Temp\ccjJNnuW.s 			page 32


 389      0014
 390 0157 011A0019 		.ascii	"\001\032\000\031\001\022\000\011\001\000\002\0005\001"
 390      01120009 
 390      01000200 
 390      3501
 391 0165 05001701 		.ascii	"\005\000\027\001\031\000\027\001\026\000=\001\005\000"
 391      19001701 
 391      16003D01 
 391      0500
 392 0173 18011900 		.ascii	"\030\001\031\000\025\001\032\000:\001\004\000\033\001"
 392      15011A00 
 392      3A010400 
 392      1B01
 393 0181 18001301 		.ascii	"\030\000\023\001\035\000;\001\001\000\035\001\027\000"
 393      1D003B01 
 393      01001D01 
 393      1700
 394 018f 11012100 		.ascii	"\021\001!\000\036\001\004\0035\001\027\000\017\001$"
 394      1E010403 
 394      35011700 
 394      0F0124
 395 019e 001C0105 		.ascii	"\000\034\001\005\003&\001\001\000\016\001\030\000\014"
 395      03260101 
 395      000E0118 
 395      000C
 396 01ac 0126001B 		.ascii	"\001&\000\033\001\006\003\011\001\005\002\027\001\000"
 396      01060309 
 396      01050217 
 396      0100
 397 01ba 02000F01 		.ascii	"\002\000\017\001\031\000\007\001)\000\033\001\006\003"
 397      19000701 
 397      29001B01 
 397      0603
 398 01c8 08010B02 		.ascii	"\010\001\013\002\021\001\004\000\016\001H\000\034\001"
 398      11010400 
 398      0E014800 
 398      1C01
 399 01d6 06030601 		.ascii	"\006\003\006\001\017\002\016\001\006\000\015\001H\000"
 399      0F020E01 
 399      06000D01 
 399      4800
 400 01e4 1C010603 		.ascii	"\034\001\006\003\006\001\021\002\014\001\007\000\015"
 400      06011102 
 400      0C010700 
 400      0D
 401 01f1 01060000 		.ascii	"\001\006\000\000\002\021?\000\034\001\005\003\006\001"
 401      02113F00 
 401      1C010503 
 401      0601
 402 01ff 0B020002 		.ascii	"\013\002\000\002\021\006\002\012\001\011\000\015\001"
 402      1106020A 
 402      0109000D 
 402      01
 403 020c 04000401 		.ascii	"\004\000\004\001>\000&\001\012\002\006\001\006\002\007"
 403      3E002601 
 403      0A020601 
 403      060207
ARM GAS  C:\Users\gx\AppData\Local\Temp\ccjJNnuW.s 			page 33


 404 021b 010C000C 		.ascii	"\001\014\000\014\001\003\000\004\001>\000&\001\011\002"
 404      01030004 
 404      013E0026 
 404      010902
 405 022a 08010602 		.ascii	"\010\001\006\002\007\001\015\000\013\001\001\000\006"
 405      07010D00 
 405      0B010100 
 405      06
 406 0237 013D0025 		.ascii	"\001=\000%\001\011\002\012\001\006\002\006\001\012\000"
 406      0109020A 
 406      01060206 
 406      010A00
 407 0246 15013D00 		.ascii	"\025\001=\000%\001\010\002\014\001\006\002\006\001\007"
 407      25010802 
 407      0C010602 
 407      060107
 408 0255 0017013D 		.ascii	"\000\027\001=\000%\001\010\002\014\001\007\002\006\001"
 408      00250108 
 408      020C0107 
 408      020601
 409 0264 05001901 		.ascii	"\005\000\031\001<\000$\001\010\002\016\001\007\002\006"
 409      3C002401 
 409      08020E01 
 409      070206
 410 0273 01000200 		.ascii	"\001\000\002\000\033\001<\000%\001\007\002\016\001\007"
 410      1B013C00 
 410      25010702 
 410      0E0107
 411 0282 02060101 		.ascii	"\002\006\001\001\000\034\001>\000\015\001\004\003\022"
 411      001C013E 
 411      000D0104 
 411      0312
 412 0290 0108020D 		.ascii	"\001\010\002\015\001\010\002!\001D\000\007\001\006\003"
 412      01080221 
 412      01440007 
 412      010603
 413 029f 12010702 		.ascii	"\022\001\007\002\015\001\011\002\023\001\003\000\011"
 413      0D010902 
 413      13010300 
 413      09
 414 02ac 01450007 		.ascii	"\001E\000\007\001\006\003\023\001\007\002\014\001\011"
 414      01060313 
 414      0107020C 
 414      0109
 415 02ba 02110106 		.ascii	"\002\021\001\006\000\010\001E\000\007\001\006\003\024"
 415      00080145 
 415      00070106 
 415      0314
 416 02c8 0107020B 		.ascii	"\001\007\002\013\001\012\002\017\001\010\000\007\001"
 416      010A020F 
 416      01080007 
 416      01
 417 02d5 45000701 		.ascii	"E\000\007\001\005\003\015\001\001\002\010\001\007\002"
 417      05030D01 
 417      01020801 
 417      0702
 418 02e3 0A010A02 		.ascii	"\012\001\012\002\016\001\012\000\006\001E\000\007\001"
ARM GAS  C:\Users\gx\AppData\Local\Temp\ccjJNnuW.s 			page 34


 418      0E010A00 
 418      06014500 
 418      0701
 419 02f1 05030801 		.ascii	"\005\003\010\001\010\002\007\001\010\002\007\001\014"
 419      08020701 
 419      08020701 
 419      0C
 420 02fe 020C010B 		.ascii	"\002\014\001\013\000\007\001C\000\010\001\004\003\006"
 420      00070143 
 420      00080104 
 420      0306
 421 030c 010D0207 		.ascii	"\001\015\002\007\001\031\002\013\001\015\000\006\001"
 421      0119020B 
 421      010D0006 
 421      01
 422 0319 43001001 		.ascii	"C\000\020\001\020\002\007\001\020\002\005\001\004\002"
 422      10020701 
 422      10020501 
 422      0402
 423 0327 09010E00 		.ascii	"\011\001\016\000\007\001\006\000\000\002\021:\000\016"
 423      07010600 
 423      0002113A 
 423      000E
 424 0335 01130207 		.ascii	"\001\023\002\007\001\015\002\010\001\003\002\011\001"
 424      010D0208 
 424      01030209 
 424      01
 425 0342 0F000701 		.ascii	"\017\000\007\001\004\000\003\001:\000\015\001\007\002"
 425      04000301 
 425      3A000D01 
 425      0702
 426 0350 07010702 		.ascii	"\007\001\007\002\007\001\013\002\012\001\003\002\007"
 426      07010B02 
 426      0A010302 
 426      07
 427 035d 01100007 		.ascii	"\001\020\000\007\001\004\000\004\0019\000\014\001\007"
 427      01040004 
 427      0139000C 
 427      0107
 428 036b 02090108 		.ascii	"\002\011\001\010\002\006\001\011\002\013\001\003\002"
 428      02060109 
 428      020B0103 
 428      02
 429 0378 06011200 		.ascii	"\006\001\022\000\010\001\001\000\006\0018\000\014\001"
 429      08010100 
 429      06013800 
 429      0C01
 430 0386 06020A01 		.ascii	"\006\002\012\001\011\002\006\001\010\002\014\001\003"
 430      09020601 
 430      08020C01 
 430      03
 431 0393 02050112 		.ascii	"\002\005\001\022\000\017\0018\000\013\001\006\002\014"
 431      000F0138 
 431      000B0106 
 431      020C
 432 03a1 01090207 		.ascii	"\001\011\002\007\001\005\002\015\001\003\002\005\001"
 432      0105020D 
ARM GAS  C:\Users\gx\AppData\Local\Temp\ccjJNnuW.s 			page 35


 432      01030205 
 432      01
 433 03ae 13000E01 		.ascii	"\023\000\016\0018\000\013\001\006\002\014\001\012\002"
 433      38000B01 
 433      06020C01 
 433      0A02
 434 03bc 07010402 		.ascii	"\007\001\004\002\015\001\003\002\006\001\022\000\016"
 434      0D010302 
 434      06011200 
 434      0E
 435 03c9 0138000A 		.ascii	"\0018\000\012\001\007\002\015\001\012\002\007\001\004"
 435      0107020D 
 435      010A0207 
 435      0104
 436 03d7 020C0104 		.ascii	"\002\014\001\004\002\005\001\023\000\015\0018\000\012"
 436      02050113 
 436      000D0138 
 436      000A
 437 03e5 0107020D 		.ascii	"\001\007\002\015\001\013\002\007\001\003\002\014\001"
 437      010B0207 
 437      0103020C 
 437      01
 438 03f2 04020501 		.ascii	"\004\002\005\001\024\000\014\0017\000\012\001\010\002"
 438      14000C01 
 438      37000A01 
 438      0802
 439 0400 0D010B02 		.ascii	"\015\001\013\002\007\001\003\002\014\001\004\002\005"
 439      07010302 
 439      0C010402 
 439      05
 440 040d 0115000B 		.ascii	"\001\025\000\013\0015\000\014\001\010\002\015\001\014"
 440      0135000C 
 440      0108020D 
 440      010C
 441 041b 02070103 		.ascii	"\002\007\001\003\002\013\001\004\002\005\001\027\000"
 441      020B0104 
 441      02050117 
 441      00
 442 0428 08013400 		.ascii	"\010\0014\000\016\001\011\002\014\001\015\002\007\001"
 442      0E010902 
 442      0C010D02 
 442      0701
 443 0436 03020A01 		.ascii	"\003\002\012\001\005\002\004\001\031\000\004\0014\000"
 443      05020401 
 443      19000401 
 443      3400
 444 0444 0F010B02 		.ascii	"\017\001\013\002\013\001\016\002\006\001\004\002\010"
 444      0B010E02 
 444      06010402 
 444      08
 445 0451 01060205 		.ascii	"\001\006\002\005\001O\000\020\001\014\002\012\001\017"
 445      014F0010 
 445      010C020A 
 445      010F
 446 045f 02060104 		.ascii	"\002\006\001\004\002\007\001\006\002\005\001M\000\022"
 446      02070106 
 446      0205014D 
ARM GAS  C:\Users\gx\AppData\Local\Temp\ccjJNnuW.s 			page 36


 446      0012
 447 046d 010E0207 		.ascii	"\001\016\002\007\001\020\002\007\001\005\002\004\001"
 447      01100207 
 447      01050204 
 447      01
 448 047a 07020501 		.ascii	"\007\002\005\001L\000\023\001\020\002\004\001\022\002"
 448      4C001301 
 448      10020401 
 448      1202
 449 0488 06011002 		.ascii	"\006\001\020\002\005\001K\000\024\001\034\002\005\001"
 449      05014B00 
 449      14011C02 
 449      0501
 450 0496 05020701 		.ascii	"\005\002\007\001\017\002\005\001J\000\025\001\033\002"
 450      0F020501 
 450      4A001501 
 450      1B02
 451 04a4 08010402 		.ascii	"\010\001\004\002\007\001\016\002\005\001I\000\026\001"
 451      07010E02 
 451      05014900 
 451      1601
 452 04b2 1A020901 		.ascii	"\032\002\011\001\005\002\006\001\016\002\005\001H\000"
 452      05020601 
 452      0E020501 
 452      4800
 453 04c0 17011902 		.ascii	"\027\001\031\002\013\001\004\002\007\001\015\002\005"
 453      0B010402 
 453      07010D02 
 453      05
 454 04cd 01470019 		.ascii	"\001G\000\031\001\017\002\000\002\021\006\002\014\001"
 454      010F0200 
 454      02110602 
 454      0C01
 455 04db 05020601 		.ascii	"\005\002\006\001\015\002\005\001G\000\017\001\005\000"
 455      0D020501 
 455      47000F01 
 455      0500
 456 04e9 05010C02 		.ascii	"\005\001\014\002\007\001\004\002\015\001\004\002\007"
 456      07010402 
 456      0D010402 
 456      07
 457 04f6 010C0205 		.ascii	"\001\014\002\005\001F\000\015\001\010\000\005\001\013"
 457      0146000D 
 457      01080005 
 457      010B
 458 0504 02090103 		.ascii	"\002\011\001\003\002\015\001\004\002\007\001\014\002"
 458      020D0104 
 458      0207010C 
 458      02
 459 0511 04014700 		.ascii	"\004\001G\000\012\001\013\000\006\001\011\002\013\001"
 459      0A010B00 
 459      06010902 
 459      0B01
 460 051f 0002220D 		.ascii	"\000\002\"\015\001\005\002\007\001\012\002\005\001G"
 460      01050207 
 460      010A0205 
 460      0147
ARM GAS  C:\Users\gx\AppData\Local\Temp\ccjJNnuW.s 			page 37


 461 052d 0009010D 		.ascii	"\000\011\001\015\000\005\001\011\002\013\001\000\002"
 461      00050109 
 461      020B0100 
 461      02
 462 053a 220D0105 		.ascii	"\"\015\001\005\002\007\001\012\002\005\001G\000\010"
 462      0207010A 
 462      02050147 
 462      0008
 463 0548 010E0006 		.ascii	"\001\016\000\006\001\007\002\015\001\000\002\"\014\001"
 463      0107020D 
 463      01000222 
 463      0C01
 464 0556 05020801 		.ascii	"\005\002\010\001\010\002\006\001G\000\010\001\017\000"
 464      08020601 
 464      47000801 
 464      0F00
 465 0564 06010602 		.ascii	"\006\001\006\002\015\001\003\002\013\001\006\002\007"
 465      0D010302 
 465      0B010602 
 465      07
 466 0571 01080206 		.ascii	"\001\010\002\006\001G\000\007\001\021\000\005\001\006"
 466      01470007 
 466      01110005 
 466      0106
 467 057f 020D0104 		.ascii	"\002\015\001\004\002\012\001\006\002\010\001\006\002"
 467      020A0106 
 467      02080106 
 467      02
 468 058c 06014800 		.ascii	"\006\001H\000\007\001\017\000\010\001\005\002\015\001"
 468      07010F00 
 468      08010502 
 468      0D01
 469 059a 05020901 		.ascii	"\005\002\011\001\006\002\010\001\005\002\007\001H\000"
 469      06020801 
 469      05020701 
 469      4800
 470 05a8 08010C00 		.ascii	"\010\001\014\000\013\001\005\002\015\001\006\002\006"
 470      0B010502 
 470      0D010602 
 470      06
 471 05b5 01070209 		.ascii	"\001\007\002\011\001\003\002\010\001I\000\007\001\013"
 471      01030208 
 471      01490007 
 471      010B
 472 05c3 000D0104 		.ascii	"\000\015\001\004\002\015\001\023\002\011\001\000\002"
 472      020D0113 
 472      02090100 
 472      02
 473 05d0 2208014A 		.ascii	"\"\010\001J\000\010\001\010\000\020\001\004\002\013"
 473      00080108 
 473      00100104 
 473      020B
 474 05de 01140213 		.ascii	"\001\024\002\023\001K\000\010\001\006\000\022\001\005"
 474      014B0008 
 474      01060012 
 474      0105
 475 05ec 02090114 		.ascii	"\002\011\001\024\002\022\001M\000\007\001\005\000\024"
ARM GAS  C:\Users\gx\AppData\Local\Temp\ccjJNnuW.s 			page 38


 475      0212014D 
 475      00070105 
 475      0014
 476 05fa 01050208 		.ascii	"\001\005\002\010\001\025\002\021\001M\000\010\001\003"
 476      01150211 
 476      014D0008 
 476      0103
 477 0608 00160107 		.ascii	"\000\026\001\007\002\003\001\027\002\020\001O\000\010"
 477      02030117 
 477      0210014F 
 477      0008
 478 0616 01010018 		.ascii	"\001\001\000\030\001 \002\020\001P\000#\001\034\002"
 478      01200210 
 478      01500023 
 478      011C02
 479 0625 10015200 		.ascii	"\020\001R\000\031\001\001\000\010\001\034\002\006\001"
 479      19010100 
 479      08011C02 
 479      0601
 480 0633 01000801 		.ascii	"\001\000\010\001T\000\023\001\007\000\011\001\032\002"
 480      54001301 
 480      07000901 
 480      1A02
 481 0641 05010400 		.ascii	"\005\001\004\000\005\001V\000\017\001\013\000\012\001"
 481      05015600 
 481      0F010B00 
 481      0A01
 482 064f 18020501 		.ascii	"\030\002\005\001\005\000\004\001V\000\015\001\015\000"
 482      05000401 
 482      56000D01 
 482      0D00
 483 065d 0C011502 		.ascii	"\014\001\025\002\006\001`\000\012\001\016\000\016\001"
 483      06016000 
 483      0A010E00 
 483      0E01
 484 066b 14020701 		.ascii	"\024\002\007\001_\000\011\001\016\000\023\001\016\002"
 484      5F000901 
 484      0E001301 
 484      0E02
 485 0679 09016000 		.ascii	"\011\001`\000\010\001\014\000\031\001\007\002\014\001"
 485      08010C00 
 485      19010702 
 485      0C01
 486 0687 5F000801 		.ascii	"_\000\010\001\014\000-\001]\000\012\001\014\000,\001"
 486      0C002D01 
 486      5D000A01 
 486      0C002C01 
 487 0697 5C000D01 		.ascii	"\\\000\015\001\012\000,\001]\000\015\001\011\000\022"
 487      0A002C01 
 487      5D000D01 
 487      090012
 488 06a6 01040014 		.ascii	"\001\004\000\024\001a\000\015\001\010\000\015\001\016"
 488      0161000D 
 488      0108000D 
 488      010E
 489 06b4 000A0166 		.ascii	"\000\012\001f\000\015\001\007\000\013\001\202\000\015"
 489      000D0107 
ARM GAS  C:\Users\gx\AppData\Local\Temp\ccjJNnuW.s 			page 39


 489      000B0182 
 489      000D
 490 06c2 0106000A 		.ascii	"\001\006\000\012\001\204\000\015\001\005\000\011\001"
 490      0184000D 
 490      01050009 
 490      01
 491 06cf 86000D01 		.ascii	"\206\000\015\001\004\000\010\001\215\000\010\001\003"
 491      04000801 
 491      8D000801 
 491      03
 492 06dc 0007018F 		.ascii	"\000\007\001\217\000\010\001\000\002\000\007\001\220"
 492      00080100 
 492      02000701 
 492      90
 493 06e9 00080101 		.ascii	"\000\010\001\001\000\007\001\221\000\007\001\001\000"
 493      00070191 
 493      00070101 
 493      00
 494 06f6 08019000 		.ascii	"\010\001\220\000\010\001\001\000\007\001\221\000\007"
 494      08010100 
 494      07019100 
 494      07
 495 0703 01010008 		.ascii	"\001\001\000\010\001\220\000\007\001\000\002\000\010"
 495      01900007 
 495      01000200 
 495      08
 496 0710 01900006 		.ascii	"\001\220\000\006\001\003\000\010\001\216\000\007\001"
 496      01030008 
 496      018E0007 
 496      01
 497 071d 04000801 		.ascii	"\004\000\010\001\213\000\012\001\004\000\010\001\210"
 497      8B000A01 
 497      04000801 
 497      88
 498 072a 000C0105 		.ascii	"\000\014\001\005\000\010\001\207\000\013\001\007\000"
 498      00080187 
 498      000B0107 
 498      00
 499 0737 07018800 		.ascii	"\007\001\210\000\012\001\007\000\010\001\207\000\012"
 499      0A010700 
 499      08018700 
 499      0A
 500 0744 01080007 		.ascii	"\001\010\000\007\001\210\000\011\001\011\000\007\001"
 500      01880009 
 500      01090007 
 500      01
 501 0751 88000701 		.ascii	"\210\000\007\001\012\000\007\001\211\000\005\001\014"
 501      0A000701 
 501      89000501 
 501      0C
 502 075e 0006019A 		.ascii	"\000\006\001\232\000\006\001\231\000\010\001\224\000"
 502      00060199 
 502      00080194 
 502      00
 503 076b 0C019400 		.ascii	"\014\001\224\000\014\001\224\000\013\001\226\000\012"
 503      0C019400 
 503      0B019600 
ARM GAS  C:\Users\gx\AppData\Local\Temp\ccjJNnuW.s 			page 40


 503      0A
 504 0778 0196000A 		.ascii	"\001\226\000\012\001\227\000\010\001\231\000\006\001"
 504      01970008 
 504      01990006 
 504      01
 505 0785 510000   		.ascii	"Q\000\000"
 506              		.section	.rodata._acNature,"a"
 507              		.align	2
 510              	_acNature:
 511 0000 44444444 		.ascii	"DDDDDDD333DDDDDEUUTDC3332\"\"\"\"\" DCDDDC33334DDC4"
 511      44444433 
 511      33334444 
 511      44444445 
 511      55555444 
 512 002e 55555544 		.ascii	"UUUDDDC332\"\"\"\"\" D33DD333333333DTETTDDC332\"\"\""
 512      44444333 
 512      33322222 
 512      22222220 
 512      44333344 
 513 005a 22222044 		.ascii	"\"\" D333C33333\"\"32EDD34DDD332\"\"\"\"\" C333C333"
 513      33333343 
 513      33333333 
 513      33222233 
 513      32454444 
 514 0084 33322111 		.ascii	"32!\021#25T2334D3332\"\"\"\"\" 333333333!\022\020\022"
 514      23323554 
 514      32333334 
 514      44333333 
 514      32222222 
 515 00a8 32344431 		.ascii	"24D14#44C332\"\"\"\"\" 333333333\021\"\020\0024DC3C"
 515      34233434 
 515      43333332 
 515      22222222 
 515      22203333 
 516 00cc 33334433 		.ascii	"33D3332\"\"\"\"\" C33333332\020\021\020\0013TU324DC"
 516      33333222 
 516      22222222 
 516      20433333 
 516      33333333 
 517 00ee 33223332 		.ascii	"3\"32\"\"\"\"\" C3333333!\022 \001\0223DDDDD433\"33"
 517      22222222 
 517      22204333 
 517      33333333 
 517      33332112 
 518 0111 22222222 		.ascii	"\"\"\"\"\" 33333332\021GR\022#4DUUUTC34233\"\"\"\"\""
 518      22203333 
 518      33333333 
 518      33321147 
 518      52122334 
 519 0135 20333333 		.ascii	" 3333333\"\024fTC3CEWg\207UD2#C33\"\"\"\"\" 3333333"
 519      33333333 
 519      22146654 
 519      43334345 
 519      57678755 
 520 015c 22366643 		.ascii	"\"6fCVUTW\210\232\272\206eC#D33\"\"\"\"\" 3333332#D"
 520      56555457 
 520      889ABA86 
ARM GAS  C:\Users\gx\AppData\Local\Temp\ccjJNnuW.s 			page 41


 520      65432344 
 520      33332222 
 521 017d 34454678 		.ascii	"4EFxx\232\253\315\334\272\230vCC#32\"\"\"\" 333333\""
 521      789AABCD 
 521      DCBA9876 
 521      43432333 
 521      32222222 
 522 019a 33455445 		.ascii	"3ETEf\212\273\315\315\335\355\335\314\272\204D#32\""
 522      668ABBCD 
 522      CDDDEDDD 
 522      CCBA8444 
 522      23333222 
 523 01ae 22222220 		.ascii	"\"\"\" 33\"\"33#4EeEx\252\273\315\335\336\356\335\335"
 523      33332222 
 523      33332334 
 523      45654578 
 523      AABBCDDD 
 524 01c6 DCA74432 		.ascii	"\334\247D232\"\"\"\" 32\"\"33#EEC6\211\252\274\314\336"
 524      33322222 
 524      22222033 
 524      32222233 
 524      33234545 
 525 01e1 EEEEEEDD 		.ascii	"\356\356\356\335\334\312UC32\"\"\"\" 32\"\"333DEDV\210"
 525      DCCA5543 
 525      33322222 
 525      22222033 
 525      32222233 
 526 01fc 9AABBDDE 		.ascii	"\232\253\275\336\356\356\356\356\335\312uc#3\"\"\"\""
 526      EEEEEEEE 
 526      DDCA7563 
 526      23332222 
 526      2222
 527 020e 20332222 		.ascii	" 3\"\"\"#3325DWx\231\232\274\356\356\356\356\356\334"
 527      22233333 
 527      32354457 
 527      78999ABC 
 527      EEEEEEEE 
 528 0224 CB955523 		.ascii	"\313\225U#2\"\"\"\" 3\"\"\"#\"\0224TDgx\211\232\254"
 528      32222222 
 528      22203322 
 528      22222322 
 528      12345444 
 529 023d DEEEEEEE 		.ascii	"\336\356\356\356\356\335\313\227EB2\"\"\"\" 32\"\"\""
 529      EEDDCB97 
 529      45423222 
 529      22222220 
 529      33322222 
 530 0252 22333554 		.ascii	"\"35T3wh\211\232\274\336\356\377\356\355\334\273\247"
 530      33776889 
 530      9ABCDEEE 
 530      FFEEEDDC 
 530      BBA7
 531 0264 45532222 		.ascii	"ES\"\"\"\"\" 3\"\"\"!\00213C4fg\211\252\274\336\356"
 531      22222220 
 531      33222222 
 531      21023133 
 531      43346667 
ARM GAS  C:\Users\gx\AppData\Local\Temp\ccjJNnuW.s 			page 42


 532 027d FFEEEDDC 		.ascii	"\377\356\355\334\313\250ET\"\"\"\"\" 3\"\"\"!\002\""
 532      CBA84554 
 532      22222222 
 532      22203322 
 532      22222102 
 533 0292 32456576 		.ascii	"2Eevg\211\232\273\336\376\357\376\355\334\313\251TT"
 533      67899ABB 
 533      DEFEEFFE 
 533      EDDCCBA9 
 533      5454
 534 02a4 32222222 		.ascii	"2\"\"\"\" 2\"\"\" \001\"\022F\206vw\211\233\315\356"
 534      22203222 
 534      22222001 
 534      22124686 
 534      7677899B 
 535 02ba FFFFFEFE 		.ascii	"\377\377\376\376\355\313\251s42\"\"\"\" \"\"\"\"!\020"
 535      EDCBA973 
 535      34322222 
 535      22222022 
 535      22222221 
 536 02cf 11123565 		.ascii	"\021\0225efg\210\252\252\274\357\377\376\376\356\333"
 536      666788AA 
 536      AABCEFFF 
 536      FEFEEEDB 
 537 02df B9643322 		.ascii	"\271d3\"\022\"\"\" \"\"\"\"\"\020\000\002TDUf\211vV"
 537      12222222 
 537      20222222 
 537      22221000 
 537      02544455 
 538 02f7 79CEFEFE 		.ascii	"y\316\376\376\356\335\334\271cA\022\"\"\"\" \"\"\"\""
 538      EEDDDCB9 
 538      63411222 
 538      22222220 
 538      22222222 
 539 030b 22000011 		.ascii	"\"\000\000\02123Ef\207veg\255\356\355\334\252\253\272"
 539      32334566 
 539      87766567 
 539      ADEEEDDC 
 539      AAABBA
 540 031e 63320122 		.ascii	"c2\001\"\"\"\" \"\"\"\"\"\000\000\001!CFew\231\230f"
 540      22222220 
 540      22222222 
 540      22000001 
 540      21434665 
 541 0336 8BCEEDC9 		.ascii	"\213\316\355\311eW\252s2\021\022\"\"\" \"\"\"\"\"\020"
 541      6557AA73 
 541      32111222 
 541      22222022 
 541      22222222 
 542 034b 00014322 		.ascii	"\000\001C\"FeX\230\231vi\315\334\227Uh\232\203B\021"
 542      46655898 
 542      997669CD 
 542      DC975568 
 542      9A834211 
 543 035f 12222222 		.ascii	"\022\"\"\" \"\"\"\"\"\020\000\000##Wugx\252\206g\276"
 543      20222222 
 543      22221000 
ARM GAS  C:\Users\gx\AppData\Local\Temp\ccjJNnuW.s 			page 43


 543      00232357 
 543      756778AA 
 544 0376 DA878979 		.ascii	"\332\207\211y\232\2031\000\022\"\"\" \"\"\"\"\"\020"
 544      9A833100 
 544      12222222 
 544      20222222 
 544      222210
 545 0389 00001234 		.ascii	"\000\000\0224gvwUVFf\256\311x\232\230\231\2241\000\022"
 545      67767755 
 545      564666AE 
 545      C9789A98 
 545      99943100 
 546 039e 22222220 		.ascii	"\"\"\" \"\"\"\"\"\020\000\001\022Dhxu8t\251\206\276"
 546      22222222 
 546      22100001 
 546      12446878 
 546      753874A9 
 547 03b4 CA898536 		.ascii	"\312\211\2056\232\224 \000\022\"\"\" \"\"\"\"\"\020"
 547      9A942000 
 547      12222222 
 547      20222222 
 547      222210
 548 03c7 00001244 		.ascii	"\000\000\022Dg\210vY\273\315\250\275\314\315\265f\232"
 548      67887659 
 548      BBCDA8BD 
 548      CCCDB566 
 548      9A
 549 03d8 94001122 		.ascii	"\224\000\021\"\"\"\" \"\"\"\"\"!\000\001\001#W\211\210"
 549      22222220 
 549      22222222 
 549      22210001 
 549      01235789 
 550 03ed 78AABDA9 		.ascii	"x\252\275\251\255\315\314\312\227\233\223\000\021\""
 550      ADCDCCCA 
 550      979B9300 
 550      1122
 551 03fb 22222220 		.ascii	"\"\"\" \"\"\"\"\"!\000\023\020\023G\212\272\232\275"
 551      22222222 
 551      22210013 
 551      1013478A 
 551      BA9ABD
 552 040e EDB9ADCC 		.ascii	"\355\271\255\314\333\252\232\273\202\000\022\"\"\"\""
 552      DBAA9ABB 
 552      82001222 
 552      222222
 553 041d 20222222 		.ascii	" \"\"\"\"\"!\000\025 \023F\212\273\274\336\354\251\254"
 553      22222100 
 553      15201346 
 553      8ABBBCDE 
 553      ECA9AC
 554 0430 DCDDCBBC 		.ascii	"\334\335\313\274\314\201\000\022\"\"\"\" \"\"\"\"\""
 554      CC810012 
 554      22222222 
 554      20222222 
 554      2222
 555 0442 11001741 		.ascii	"\021\000\027A\0235\212\274\315\356\354\252\254\334\315"
 555      13358ABC 
ARM GAS  C:\Users\gx\AppData\Local\Temp\ccjJNnuW.s 			page 44


 555      CDEEECAA 
 555      ACDCCD
 556 0451 DDCDCB72 		.ascii	"\335\315\313r\020\022\"\"\"\" \"\"\"\"\"\021\000\027"
 556      10122222 
 556      22222022 
 556      22222222 
 556      110017
 557 0464 6223347A 		.ascii	"b#4z\274\336\356\354\251\254\334\316\355\335\332b\000"
 557      BCDEEEEC 
 557      A9ACDCCE 
 557      EDDDDA62 
 557      00
 558 0475 12222222 		.ascii	"\022\"\"\"\" \"\"\"\"!\021\000\006c#4i\254\336\356\354"
 558      22202222 
 558      22222111 
 558      00066323 
 558      3469ACDE 
 559 048b 96ACDDCD 		.ascii	"\226\254\335\315\356\335\312A\001\"\"\"\"\" \"\"\"\""
 559      EEDDCA41 
 559      01222222 
 559      22222022 
 559      222222
 560 049e 21110004 		.ascii	"!\021\000\004T#4i\253\315\336\333\206\255\355\315\356"
 560      54233469 
 560      ABCDDEDB 
 560      86ADEDCD 
 560      EE
 561 04af DDC93112 		.ascii	"\335\3111\022\"\"\"\"\" \"\"\"\"!\021\000\002e#4h\253"
 561      22222222 
 561      22202222 
 561      22222111 
 561      00026523 
 562 04c6 BDDEDA97 		.ascii	"\275\336\332\227\214\376\315\356\335\3111\"\"\"\"\""
 562      8CFECDEE 
 562      DDC93122 
 562      22222222 
 563 04d6 22202222 		.ascii	"\" \"\"\"\"\021\021\020\001f\"4h\232\275\335\310vZ\334"
 563      22221111 
 563      10016622 
 563      34689ABD 
 563      DDC8765A 
 564 04eb BDEDDDC8 		.ascii	"\275\355\335\3103\"\"\"\"\"\" \"\"\"!\021\021\020\001"
 564      33222222 
 564      22222220 
 564      22222221 
 564      11111001 
 565 04ff 56223478 		.ascii	"V\"4x\232\274\335\327B7\251\215\335\335\2673\"\"\"\""
 565      9ABCDDD7 
 565      4237A98D 
 565      DDDDB733 
 565      22222222 
 566 0513 22222022 		.ascii	"\"\" \"\"\"!\021\021\021\0005\"4x\232\274\335\332B\024"
 566      22222111 
 566      11110035 
 566      2234789A 
 566      BCDDDA42 
 567 0528 559DDDDC 		.ascii	"U\235\335\334\267C\"\"\"\"\"\" \"\"\"\021\021\021\021"
ARM GAS  C:\Users\gx\AppData\Local\Temp\ccjJNnuW.s 			page 45


 567      B7432222 
 567      22222222 
 567      20222222 
 567      11111111 
 568 053c 00010124 		.ascii	"\000\001\001$h\232\274\335\312S4V\275\335\334\267C\""
 568      689ABCDD 
 568      CA533456 
 568      BDDDDCB7 
 568      4322
 569 054e 22222222 		.ascii	"\"\"\"\"\" \"\"\"\021\021\021\021\020\000\001#h\232"
 569      22202222 
 569      22111111 
 569      11100001 
 569      23689A
 570 0561 BCB99634 		.ascii	"\274\271\2264TT\213\315\334\2453\"\"\"\"\"\" \"\"!\021"
 570      54548BCD 
 570      DCA53322 
 570      22222222 
 570      22202222 
 571 0577 11111111 		.ascii	"\021\021\021\021\000\000$W\232\273\206S#CCG\213\314"
 571      00002457 
 571      9ABB8653 
 571      23434347 
 571      8BCC
 572 0589 95322222 		.ascii	"\2252\"\"\"\"\"\" \"!\021\021\021\021\021\021\000\000"
 572      22222222 
 572      20222111 
 572      11111111 
 572      110000
 573 059c 245689AA 		.ascii	"$V\211\252C3\"DC4H\273t2\"\"\"\"\"\" !\021\021\021\021"
 573      43332244 
 573      433448BB 
 573      74322222 
 573      22222222 
 574 05b6 11100000 		.ascii	"\021\020\000\000\000\023fx\2512\"\022FB#G\272S\"\"\""
 574      00136678 
 574      A9322212 
 574      46422347 
 574      BA532222 
 575 05cb 22222222 		.ascii	"\"\"\"\" \021\021\021\021\021\020\000\000\000\000\002"
 575      20111111 
 575      11111000 
 575      00000002 
 576 05db 56689832 		.ascii	"Vh\23023FgR27\2472\"\"\"\"\"\"\" \021\001\021\021\021"
 576      33466752 
 576      3237A732 
 576      22222222 
 576      22222220 
 577 05f4 11000000 		.ascii	"\021\000\000\000\000\001Ef\210Efy\252\227d8\225\"\""
 577      00014566 
 577      88456679 
 577      AA976438 
 577      952222
 578 0607 22222222 		.ascii	"\"\"\"\"\"\" \021\021\"\"\"!\000\000\000\001\0005Uw"
 578      22222011 
 578      11222222 
 578      21000000 
ARM GAS  C:\Users\gx\AppData\Local\Temp\ccjJNnuW.s 			page 46


 578      01003555 
 579 061c 67787677 		.ascii	"gxvw\232\250z\203\"\"\"\"\"\"\"\" \"\"333!\000\001\020"
 579      9AA87A83 
 579      22222222 
 579      22222222 
 579      20222233 
 580 0636 13001454 		.ascii	"\023\000\024TVg\211\212\251\253\272\231c\"\"\"\"\"\""
 580      5667898A 
 580      A9ABBA99 
 580      63222222 
 580      222222
 581 0649 22222022 		.ascii	"\"\" \"#3DC1\021\021 $A\022DFg\210\276\356\355\313\250"
 581      23334443 
 581      31111120 
 581      24411244 
 581      466788BE 
 582 0661 52222222 		.ascii	"R\"\"\"\"\"\"\"\" 33DDC!\021\"1%T\"3FVy\316\377\377"
 582      22222222 
 582      22203333 
 582      44444321 
 582      11223125 
 583 067e EEDB8322 		.ascii	"\356\333\203\"\"\"\"\"\"\"\" 34DDC\"\022#1%fC\"4U{\314"
 583      22222222 
 583      22222220 
 583      33344444 
 583      43221223 
 584 069b DEEEEEED 		.ascii	"\336\356\356\355\266\"\"\"\"\"\"\"\" DDDDC2\"#A\005"
 584      B6222222 
 584      22222222 
 584      22204444 
 584      44444332 
 585 06b3 77642223 		.ascii	"wd\"#5\233\272\253\315\335\335\312B\"\"\"\"\"\"\" D"
 585      359BBAAB 
 585      CDDDDDCA 
 585      42222222 
 585      22222222 
 586 06c9 44444443 		.ascii	"DDDC2\"3B\003wvB\"&\252\252\315\336\356\356\334\224"
 586      32223342 
 586      03777642 
 586      2226AAAA 
 586      CDDEEEEE 
 587 06df 22222222 		.ascii	"\"\"\"\"\"\"\" DDDD32\"3B\001hx\203!\026\232\314\336"
 587      22222220 
 587      44444444 
 587      33322233 
 587      42016878 
 588 06f9 EEEEEFEE 		.ascii	"\356\356\357\356\3112\"\"\"\"\"\" DDDD32\"3C\0207\212"
 588      C9322222 
 588      22222222 
 588      20444444 
 588      44333222 
 589 0712 B711157C 		.ascii	"\267\021\025|\335\336\355\315\357\376\354\203\"\"\""
 589      DDDEEDCD 
 589      EFFEEC83 
 589      222222
 590 0721 22222220 		.ascii	"\"\"\" DDDC3\"2#FQ\025\214\332@\023k\313\274\313\315"
 590      44444443 
ARM GAS  C:\Users\gx\AppData\Local\Temp\ccjJNnuW.s 			page 47


 590      33223223 
 590      4651158C 
 590      DA40136B 
 591 0739 EEEEEEC7 		.ascii	"\356\356\356\3072\"\"\"\"\" DDD33\"2#H\243\002~\354"
 591      32222222 
 591      22222044 
 591      44443333 
 591      22322348 
 592 0751 71225A99 		.ascii	"q\"Z\231\233\315\335\356\356\356\354c\"\"\"\"\" DDD"
 592      9BCDDDEE 
 592      EEEEEC63 
 592      22222222 
 592      22204444 
 593 0766 33322332 		.ascii	"32#2#H\350\021~\354\223\022i\232\274\335\335\357\356"
 593      2348E811 
 593      7EEC9312 
 593      699ABCDD 
 593      DDEFEE
 594 0779 EEEEC532 		.ascii	"\356\356\3052\"\"\"\" DDC\"2\"\"#G\374Q\237\354\246"
 594      22222222 
 594      20444443 
 594      22322222 
 594      2347FC51 
 595 0790 1158BBCD 		.ascii	"\021X\273\315\335\315\336\356\356\356\353C\"\"\"\" "
 595      DDCDDEEE 
 595      EEEEEB43 
 595      22222222 
 595      20
 596 07a1 44433321 		.ascii	"DC3!#\"\"#G\376\244\256\334\227\0217\273\314\273\315"
 596      23222223 
 596      47FEA4AE 
 596      DC971137 
 596      BBCCBBCD 
 597 07b5 EEEEEFFE 		.ascii	"\356\356\357\376\355\223\"\"\"\" DC30\"\"#\"F\377\351"
 597      ED932222 
 597      22222044 
 597      43333022 
 597      22232246 
 598 07cb 79886410 		.ascii	"y\210d\020%"
 598      25
 599 07d0 88ABCCDE 		.ascii	"\210\253\314\336\357\376\356\357\356\3302\"\"\" C33"
 599      EFFEEEEF 
 599      EED83222 
 599      22222043 
 599      3333
 600 07e2 31122222 		.ascii	"1\022\"\"#E\357\376r\021\000\000\023z\273\314\336\357"
 600      2345EFFE 
 600      72110000 
 600      137ABBCC 
 600      DEEF
 601 07f4 FEEEEEFE 		.ascii	"\376\356\356\376\354\203\"\"\" C3#1\022\"#3E\357\377"
 601      EC832222 
 601      22204333 
 601      23311222 
 601      233345EF 
 602 0809 C4110000 		.ascii	"\304\021\000\000\002j\252\274\315\336\356\356\356\357"
 602      026AAABC 
ARM GAS  C:\Users\gx\AppData\Local\Temp\ccjJNnuW.s 			page 48


 602      CDDEEEEE 
 602      EEEF
 603 0817 EDC83222 		.ascii	"\355\3102\"\" 33322\"#3E\337\377\347\020\000\000\001"
 603      22203333 
 603      33323222 
 603      233345DF 
 603      FFE71000 
 604 082d 389999AB 		.ascii	"8\231\231\253\315\336\356\356\357\356\334s\"\" 333#"
 604      CDDEEEEE 
 604      EFEEDC73 
 604      22222033 
 604      333323
 605 0840 32223333 		.ascii	"2\"33E\317\377\371 \000\000\000%uBG\253\315\336\356"
 605      45CFFFF9 
 605      20000000 
 605      25754247 
 605      ABCDDEEE 
 606 0854 EFFEEDB6 		.ascii	"\357\376\355\266\"\" 33\"32#34D\277\377\372A\000\000"
 606      22222033 
 606      33223332 
 606      23333444 
 606      BFFFFA41 
 607 086a 01347410 		.ascii	"\0014t\020\003y\274\335\356\356\377\356\312B\" 33#3"
 607      0379BCDD 
 607      EEEEFFEE 
 607      CA422220 
 607      33332333 
 608 087e 33333344 		.ascii	"333DD\257\377\374Q\000\000\003#wR\000\025\213\315\356"
 608      44AFFFFC 
 608      51000003 
 608      23775200 
 608      158BCDEE 
 609 0892 EEEFFEDC 		.ascii	"\356\357\376\334\2033032#33334D\237\377\375\203\000"
 609      83333033 
 609      32233333 
 609      33333444 
 609      9FFFFD83 
 610 08a7 00031047 		.ascii	"\000\003\020Gu\020\001G\274\335\356\357\377\355\265"
 610      75100147 
 610      BCDDEEEF 
 610      FFEDB5
 611 08b6 33202232 		.ascii	"3 \"2\02333334D\217\377\376\264\020\000\022\000\001"
 611      13333333 
 611      3334448F 
 611      FFFEB410 
 611      00120001 
 612 08ca 22000014 		.ascii	"\"\000\000\024z\315\336\356\357\376\33030\"\"\00233"
 612      7ACDDEEE 
 612      EFFED833 
 612      30222202 
 612      3333
 613 08dc 33333444 		.ascii	"334D\177\377\377\305\021\000!\000\000\000\000\000\001"
 613      7FFFFFC5 
 613      11002100 
 613      00000000 
 613      01
 614 08ed 47ABCDEE 		.ascii	"G\253\315\356\357\377\35330\"\"\00232234Dn\377\377\346"
ARM GAS  C:\Users\gx\AppData\Local\Temp\ccjJNnuW.s 			page 49


 614      EFFFEB33 
 614      30222202 
 614      33323233 
 614      34446EFF 
 615 0903 22003100 		.ascii	"\"\0001\000\000\000\000\000\000\023h\253\335\356\377"
 615      00000000 
 615      001368AB 
 615      DDEEFF
 616 0912 ED333022 		.ascii	"\35530\"\"\02132\"33D^\377\377\3462\0200\000\000\000"
 616      22113332 
 616      22333344 
 616      5EFFFFE6 
 616      32103000 
 617 0928 00000022 		.ascii	"\000\000\000\"5\211\274\336\357\3754@\"\"\02033\"#4"
 617      3589BCDE 
 617      EFFD3440 
 617      22221033 
 617      33222334 
 618 093c 445EFFFF 		.ascii	"D^\377\377\3042\0220\000\000\000\000\000\000\"\"G\254"
 618      C4321230 
 618      00000000 
 618      00002222 
 618      47AC
 619 094e DEEFEC24 		.ascii	"\336\357\354$@\021\" #3\"#4DM\377\375R3# \000\000\000"
 619      40112220 
 619      23332223 
 619      34444DFF 
 619      FD523323 
 620 0966 00000022 		.ascii	"\000\000\000\"2\023z\315\356\352$@\021\022!\0233\"#"
 620      32137ACD 
 620      EEEA2440 
 620      11122113 
 620      332223
 621 0979 34444CFF 		.ascii	"4DL\377\347333\020\000\000\000\000\000\000\022#\021"
 621      E7333333 
 621      10000000 
 621      00000012 
 621      2311
 622 098b 59CDEEE8 		.ascii	"Y\315\356\350$@\000\021!\0023\"#3DK\377\265CD1\000\021"
 622      24400011 
 622      21023322 
 622      2333444B 
 622      FFB54344 
 623 09a2 00000000 		.ascii	"\000\000\000\000\000\022\"\022Z\315\356\353$0\000\001"
 623      00122212 
 623      5ACDEEEB 
 623      24300001 
 624 09b2 12112221 		.ascii	"\022\021\"!\02234:\376uDC1\001!\020\000\000\000\000"
 624      1233343A 
 624      FE754443 
 624      31012110 
 624      00000000 
 625 09c6 01110579 		.ascii	"\001\021\005y\275\336\373#0\000\001\021\020\"\021\022"
 625      BDDEFB23 
 625      30000111 
 625      10221112 
 626 09d6 233438FB 		.ascii	"#48\373UDD1\002!\020\000\000\000\000\000\000\002\231"
ARM GAS  C:\Users\gx\AppData\Local\Temp\ccjJNnuW.s 			page 50


 626      55444431 
 626      02211000 
 626      00000000 
 626      000299
 627 09e9 BDEFE933 		.ascii	"\275\357\35130\000\000\020\000\022\021\021\"46\327T"
 627      30000010 
 627      00121111 
 627      223436D7 
 627      54
 628 09fa 44443123 		.ascii	"DD1#!\020\000\000\000\000\000\000\000G\255\357\326C"
 628      21100000 
 628      00000000 
 628      0047ADEF 
 628      D643
 629 0a0c 30000010 		.ascii	"0\000\000\020\000\001\021\021\02235\245DDD1#!\020\000"
 629      00011111 
 629      123335A5 
 629      44444431 
 629      23211000 
 630 0a20 00000000 		.ascii	"\000\000\000\000\000\0003|\355\30430\020\000\000\000"
 630      0000337C 
 630      EDC43330 
 630      10000000 
 631 0a30 01111112 		.ascii	"\001\021\021\022#4dDDC!2!\020\000\000\000\000\000\000"
 631      23346444 
 631      44432132 
 631      21100000 
 631      00000000 
 632 0a44 00135BDD 		.ascii	"\000\023[\335\20230 \000\001\000\000\021\000\001#3D"
 632      82333020 
 632      00010000 
 632      11000123 
 632      3344
 633 0a56 44444322 		.ascii	"DDC\"\"\021\021\000\000\000\000\000\000\000\003G\334"
 633      22111100 
 633      00000000 
 633      00000347 
 633      DC
 634 0a67 61333010 		.ascii	"a30\020\000\000\000\000\020\000\001\022#DDDC\022!\021"
 634      00000000 
 634      10000112 
 634      23444444 
 634      43122111 
 635 0a7b 11100000 		.ascii	"\021\020\000\000\000\000\000\000\001$\207A# \000\000"
 635      00000000 
 635      01248741 
 635      23200000 
 636 0a8b 00000000 		.ascii	"\000\000\000\000\000\000\022#DDD2\022!\021\021\020\000"
 636      00001223 
 636      44444432 
 636      12211111 
 636      1000
 637 0a9d 00000000 		.ascii	"\000\000\000\000\000\000\000\0012\023\020\000\000\000"
 637      00000001 
 637      32131000 
 637      0000
 638 0aab 00000000 		.ascii	"\000\000\000\000\000\022\"4DD1\"\021\001\021\021\000"
ARM GAS  C:\Users\gx\AppData\Local\Temp\ccjJNnuW.s 			page 51


 638      00122234 
 638      44443122 
 638      11011111 
 638      00
 639 0abc 00000000 		.ascii	"\000\000\000\000\000\000\000\000#\002\020\000\000\000"
 639      00000000 
 639      23021000 
 639      0000
 640 0aca 00000000 		.ascii	"\000\000\000\000\000\001\"4DC!!\021\000\021\021\000"
 640      00012234 
 640      44432121 
 640      11001111 
 640      00
 641 0adb 00000000 		.ascii	"\000\000\000\000\000\000\000\000\023\022\000\000\000"
 641      00000000 
 641      13120000 
 641      00
 642 0ae8 00000000 		.ascii	"\000\000\000\000\000\000\001!5e3\022!\001\021\021!\000"
 642      00000121 
 642      35653312 
 642      21011111 
 642      2100
 643 0afa 00000000 		.ascii	"\000\000\000\000\000\000\000\000\002! \000\000\000\000"
 643      00000000 
 643      02212000 
 643      000000
 644 0b09 00000000 		.ascii	"\000\000\000\000\001\021!%B\022\020\001\021\021!\000"
 644      01112125 
 644      42121001 
 644      11112100 
 645 0b19 00000000 		.ascii	"\000\000\000\000\000\000\000\000\0021 "
 645      00000000 
 645      023120
 646              		.section	.rodata._bmLadyBug,"a"
 647              		.align	2
 648              		.set	.LANCHOR1,. + 0
 651              	_bmLadyBug:
 652 0000 A000     		.short	160
 653 0002 A100     		.short	161
 654 0004 2800     		.short	40
 655 0006 0000     		.short	0
 656 0008 00000000 		.word	_acLadyBug
 657 000c 00000000 		.word	_PalLadyBug
 658 0010 00000000 		.word	GUI_BitmapMethodsRLE4
 659              		.text
 660              	.Letext0:
 661              		.file 2 "emWin/inc/LCD.h"
 662              		.file 3 "emWin/inc/GUI.h"
 663              		.file 4 "emWin/inc/GUI_Type.h"
 664              		.file 5 "emWin/inc/WM.h"
 665              		.file 6 "emWin/inc/LCD_Protected.h"
 666              		.file 7 "emWin/inc/GUI_Private.h"
 667              		.file 8 "emWin/inc/WM_Intern.h"
 668              		.file 9 "emWin/inc/WIDGET.h"
 669              		.file 10 "emWin/GUI_Demo/GUIDEMO.h"
 670              		.file 11 "c:\\program files (x86)\\gnu arm embedded toolchain\\9 2020-q2-update\\lib\\gcc\\arm-non
 671              		.file 12 "c:\\program files (x86)\\gnu arm embedded toolchain\\9 2020-q2-update\\arm-none-eabi\\in
ARM GAS  C:\Users\gx\AppData\Local\Temp\ccjJNnuW.s 			page 52


 672              		.file 13 "c:\\program files (x86)\\gnu arm embedded toolchain\\9 2020-q2-update\\arm-none-eabi\\in
 673              		.file 14 "c:\\program files (x86)\\gnu arm embedded toolchain\\9 2020-q2-update\\arm-none-eabi\\in
 674              		.file 15 "c:\\program files (x86)\\gnu arm embedded toolchain\\9 2020-q2-update\\arm-none-eabi\\in
ARM GAS  C:\Users\gx\AppData\Local\Temp\ccjJNnuW.s 			page 53


DEFINED SYMBOLS
                            *ABS*:00000000 GUIDEMO_Bitmap.c
C:\Users\gx\AppData\Local\Temp\ccjJNnuW.s:18     .rodata._ShowMagnifiedBitmap.str1.4:00000000 $d
C:\Users\gx\AppData\Local\Temp\ccjJNnuW.s:22     .text._ShowMagnifiedBitmap:00000000 $t
C:\Users\gx\AppData\Local\Temp\ccjJNnuW.s:29     .text._ShowMagnifiedBitmap:00000000 _ShowMagnifiedBitmap
C:\Users\gx\AppData\Local\Temp\ccjJNnuW.s:88     .text._ShowMagnifiedBitmap:0000002c $d
C:\Users\gx\AppData\Local\Temp\ccjJNnuW.s:94     .rodata._BitmapDemo.str1.4:00000000 $d
C:\Users\gx\AppData\Local\Temp\ccjJNnuW.s:101    .text._BitmapDemo:00000000 $t
C:\Users\gx\AppData\Local\Temp\ccjJNnuW.s:107    .text._BitmapDemo:00000000 _BitmapDemo
C:\Users\gx\AppData\Local\Temp\ccjJNnuW.s:233    .text._BitmapDemo:00000094 $d
C:\Users\gx\AppData\Local\Temp\ccjJNnuW.s:243    .rodata.GUIDEMO_Bitmap.str1.4:00000000 $d
C:\Users\gx\AppData\Local\Temp\ccjJNnuW.s:251    .text.GUIDEMO_Bitmap:00000000 $t
C:\Users\gx\AppData\Local\Temp\ccjJNnuW.s:258    .text.GUIDEMO_Bitmap:00000000 GUIDEMO_Bitmap
C:\Users\gx\AppData\Local\Temp\ccjJNnuW.s:293    .text.GUIDEMO_Bitmap:00000024 $d
C:\Users\gx\AppData\Local\Temp\ccjJNnuW.s:325    .rodata.GUIDEMO_bm4bpp:00000000 GUIDEMO_bm4bpp
C:\Users\gx\AppData\Local\Temp\ccjJNnuW.s:300    .rodata.ColorsNature:00000000 $d
C:\Users\gx\AppData\Local\Temp\ccjJNnuW.s:303    .rodata.ColorsNature:00000000 ColorsNature
C:\Users\gx\AppData\Local\Temp\ccjJNnuW.s:321    .rodata.GUIDEMO_bm4bpp:00000000 $d
C:\Users\gx\AppData\Local\Temp\ccjJNnuW.s:510    .rodata._acNature:00000000 _acNature
C:\Users\gx\AppData\Local\Temp\ccjJNnuW.s:355    .rodata._PalNature:00000000 _PalNature
C:\Users\gx\AppData\Local\Temp\ccjJNnuW.s:334    .rodata._ColorsLadyBug:00000000 $d
C:\Users\gx\AppData\Local\Temp\ccjJNnuW.s:337    .rodata._ColorsLadyBug:00000000 _ColorsLadyBug
C:\Users\gx\AppData\Local\Temp\ccjJNnuW.s:343    .rodata._PalLadyBug:00000000 $d
C:\Users\gx\AppData\Local\Temp\ccjJNnuW.s:346    .rodata._PalLadyBug:00000000 _PalLadyBug
C:\Users\gx\AppData\Local\Temp\ccjJNnuW.s:352    .rodata._PalNature:00000000 $d
C:\Users\gx\AppData\Local\Temp\ccjJNnuW.s:361    .rodata._acLadyBug:00000000 $d
C:\Users\gx\AppData\Local\Temp\ccjJNnuW.s:364    .rodata._acLadyBug:00000000 _acLadyBug
C:\Users\gx\AppData\Local\Temp\ccjJNnuW.s:507    .rodata._acNature:00000000 $d
C:\Users\gx\AppData\Local\Temp\ccjJNnuW.s:647    .rodata._bmLadyBug:00000000 $d
C:\Users\gx\AppData\Local\Temp\ccjJNnuW.s:651    .rodata._bmLadyBug:00000000 _bmLadyBug

UNDEFINED SYMBOLS
LCD_GetXSize
LCD_GetYSize
GUI_DrawBitmapMag
GUIDEMO_ShowInfo
GUI_DrawBitmap
GUIDEMO_Wait
GUIDEMO_DrawBk
GUIDEMO_ShowIntro
GUIDEMO_ShowInfoWin
GUI_BitmapMethodsRLE4
