ARM GAS  C:\Users\gx\AppData\Local\Temp\cckFEPXy.s 			page 1


   1              		.cpu cortex-m4
   2              		.eabi_attribute 27, 1
   3              		.eabi_attribute 28, 1
   4              		.eabi_attribute 20, 1
   5              		.eabi_attribute 21, 1
   6              		.eabi_attribute 23, 3
   7              		.eabi_attribute 24, 1
   8              		.eabi_attribute 25, 1
   9              		.eabi_attribute 26, 1
  10              		.eabi_attribute 30, 1
  11              		.eabi_attribute 34, 1
  12              		.eabi_attribute 18, 4
  13              		.file	"GUIDEMO_Listview.c"
  14              		.text
  15              	.Ltext0:
  16              		.cfi_sections	.debug_frame
  17              		.section	.text._InitListview,"ax",%progbits
  18              		.align	1
  19              		.arch armv7e-m
  20              		.syntax unified
  21              		.thumb
  22              		.thumb_func
  23              		.fpu fpv4-sp-d16
  25              	_InitListview:
  26              	.LVL0:
  27              	.LFB4:
  28              		.file 1 "emWin/GUI_Demo/GUIDEMO_Listview.c"
   1:emWin/GUI_Demo/GUIDEMO_Listview.c **** /*********************************************************************
   2:emWin/GUI_Demo/GUIDEMO_Listview.c **** *          Portions COPYRIGHT 2017 STMicroelectronics                 *
   3:emWin/GUI_Demo/GUIDEMO_Listview.c **** *          Portions SEGGER Microcontroller GmbH & Co. KG             *
   4:emWin/GUI_Demo/GUIDEMO_Listview.c **** *        Solutions for real time microcontroller applications        *
   5:emWin/GUI_Demo/GUIDEMO_Listview.c **** **********************************************************************
   6:emWin/GUI_Demo/GUIDEMO_Listview.c **** *                                                                    *
   7:emWin/GUI_Demo/GUIDEMO_Listview.c **** *        (c) 1996 - 2015  SEGGER Microcontroller GmbH & Co. KG       *
   8:emWin/GUI_Demo/GUIDEMO_Listview.c **** *                                                                    *
   9:emWin/GUI_Demo/GUIDEMO_Listview.c **** *        Internet: www.segger.com    Support:  support@segger.com    *
  10:emWin/GUI_Demo/GUIDEMO_Listview.c **** *                                                                    *
  11:emWin/GUI_Demo/GUIDEMO_Listview.c **** **********************************************************************
  12:emWin/GUI_Demo/GUIDEMO_Listview.c **** 
  13:emWin/GUI_Demo/GUIDEMO_Listview.c **** ** emWin V5.28 - Graphical user interface for embedded applications **
  14:emWin/GUI_Demo/GUIDEMO_Listview.c **** All  Intellectual Property rights  in the Software belongs to  SEGGER.
  15:emWin/GUI_Demo/GUIDEMO_Listview.c **** emWin is protected by  international copyright laws.  Knowledge of the
  16:emWin/GUI_Demo/GUIDEMO_Listview.c **** source code may not be used to write a similar product.  This file may
  17:emWin/GUI_Demo/GUIDEMO_Listview.c **** only be used in accordance with the following terms:
  18:emWin/GUI_Demo/GUIDEMO_Listview.c **** 
  19:emWin/GUI_Demo/GUIDEMO_Listview.c **** The  software has  been licensed  to STMicroelectronics International
  20:emWin/GUI_Demo/GUIDEMO_Listview.c **** N.V. a Dutch company with a Swiss branch and its headquarters in Plan-
  21:emWin/GUI_Demo/GUIDEMO_Listview.c **** les-Ouates, Geneva, 39 Chemin du Champ des Filles, Switzerland for the
  22:emWin/GUI_Demo/GUIDEMO_Listview.c **** purposes of creating libraries for ARM Cortex-M-based 32-bit microcon_
  23:emWin/GUI_Demo/GUIDEMO_Listview.c **** troller products commercialized by Licensee only, sublicensed and dis_
  24:emWin/GUI_Demo/GUIDEMO_Listview.c **** tributed under the terms and conditions of the End User License Agree_
  25:emWin/GUI_Demo/GUIDEMO_Listview.c **** ment supplied by STMicroelectronics International N.V.
  26:emWin/GUI_Demo/GUIDEMO_Listview.c **** Full source code is available at: www.segger.com
  27:emWin/GUI_Demo/GUIDEMO_Listview.c **** 
  28:emWin/GUI_Demo/GUIDEMO_Listview.c **** We appreciate your understanding and fairness.
  29:emWin/GUI_Demo/GUIDEMO_Listview.c **** ----------------------------------------------------------------------
  30:emWin/GUI_Demo/GUIDEMO_Listview.c **** File        : GUIDEMO_Listview.c
ARM GAS  C:\Users\gx\AppData\Local\Temp\cckFEPXy.s 			page 2


  31:emWin/GUI_Demo/GUIDEMO_Listview.c **** Purpose     : Listview demo
  32:emWin/GUI_Demo/GUIDEMO_Listview.c **** ----------------------------------------------------------------------
  33:emWin/GUI_Demo/GUIDEMO_Listview.c **** */
  34:emWin/GUI_Demo/GUIDEMO_Listview.c **** 
  35:emWin/GUI_Demo/GUIDEMO_Listview.c **** /**
  36:emWin/GUI_Demo/GUIDEMO_Listview.c ****   ******************************************************************************
  37:emWin/GUI_Demo/GUIDEMO_Listview.c ****   * @file    GUIDEMO_Listview.c
  38:emWin/GUI_Demo/GUIDEMO_Listview.c ****   * @author  MCD Application Team
  39:emWin/GUI_Demo/GUIDEMO_Listview.c ****   * @brief   Listview demo
  40:emWin/GUI_Demo/GUIDEMO_Listview.c ****   ******************************************************************************
  41:emWin/GUI_Demo/GUIDEMO_Listview.c ****   * @attention
  42:emWin/GUI_Demo/GUIDEMO_Listview.c ****   *
  43:emWin/GUI_Demo/GUIDEMO_Listview.c ****   * <h2><center>&copy; Copyright © 2017 STMicroelectronics International N.V. 
  44:emWin/GUI_Demo/GUIDEMO_Listview.c ****   * All rights reserved.</center></h2>
  45:emWin/GUI_Demo/GUIDEMO_Listview.c ****   *
  46:emWin/GUI_Demo/GUIDEMO_Listview.c ****   * Redistribution and use in source and binary forms, with or without 
  47:emWin/GUI_Demo/GUIDEMO_Listview.c ****   * modification, are permitted, provided that the following conditions are met:
  48:emWin/GUI_Demo/GUIDEMO_Listview.c ****   *
  49:emWin/GUI_Demo/GUIDEMO_Listview.c ****   * 1. Redistribution of source code must retain the above copyright notice, 
  50:emWin/GUI_Demo/GUIDEMO_Listview.c ****   *    this list of conditions and the following disclaimer.
  51:emWin/GUI_Demo/GUIDEMO_Listview.c ****   * 2. Redistributions in binary form must reproduce the above copyright notice,
  52:emWin/GUI_Demo/GUIDEMO_Listview.c ****   *    this list of conditions and the following disclaimer in the documentation
  53:emWin/GUI_Demo/GUIDEMO_Listview.c ****   *    and/or other materials provided with the distribution.
  54:emWin/GUI_Demo/GUIDEMO_Listview.c ****   * 3. Neither the name of STMicroelectronics nor the names of other 
  55:emWin/GUI_Demo/GUIDEMO_Listview.c ****   *    contributors to this software may be used to endorse or promote products 
  56:emWin/GUI_Demo/GUIDEMO_Listview.c ****   *    derived from this software without specific written permission.
  57:emWin/GUI_Demo/GUIDEMO_Listview.c ****   * 4. This software, including modifications and/or derivative works of this 
  58:emWin/GUI_Demo/GUIDEMO_Listview.c ****   *    software, must execute solely and exclusively on microcontroller or
  59:emWin/GUI_Demo/GUIDEMO_Listview.c ****   *    microprocessor devices manufactured by or for STMicroelectronics.
  60:emWin/GUI_Demo/GUIDEMO_Listview.c ****   * 5. Redistribution and use of this software other than as permitted under 
  61:emWin/GUI_Demo/GUIDEMO_Listview.c ****   *    this license is void and will automatically terminate your rights under 
  62:emWin/GUI_Demo/GUIDEMO_Listview.c ****   *    this license. 
  63:emWin/GUI_Demo/GUIDEMO_Listview.c ****   *
  64:emWin/GUI_Demo/GUIDEMO_Listview.c ****   * THIS SOFTWARE IS PROVIDED BY STMICROELECTRONICS AND CONTRIBUTORS "AS IS" 
  65:emWin/GUI_Demo/GUIDEMO_Listview.c ****   * AND ANY EXPRESS, IMPLIED OR STATUTORY WARRANTIES, INCLUDING, BUT NOT 
  66:emWin/GUI_Demo/GUIDEMO_Listview.c ****   * LIMITED TO, THE IMPLIED WARRANTIES OF MERCHANTABILITY, FITNESS FOR A 
  67:emWin/GUI_Demo/GUIDEMO_Listview.c ****   * PARTICULAR PURPOSE AND NON-INFRINGEMENT OF THIRD PARTY INTELLECTUAL PROPERTY
  68:emWin/GUI_Demo/GUIDEMO_Listview.c ****   * RIGHTS ARE DISCLAIMED TO THE FULLEST EXTENT PERMITTED BY LAW. IN NO EVENT 
  69:emWin/GUI_Demo/GUIDEMO_Listview.c ****   * SHALL STMICROELECTRONICS OR CONTRIBUTORS BE LIABLE FOR ANY DIRECT, INDIRECT,
  70:emWin/GUI_Demo/GUIDEMO_Listview.c ****   * INCIDENTAL, SPECIAL, EXEMPLARY, OR CONSEQUENTIAL DAMAGES (INCLUDING, BUT NOT
  71:emWin/GUI_Demo/GUIDEMO_Listview.c ****   * LIMITED TO, PROCUREMENT OF SUBSTITUTE GOODS OR SERVICES; LOSS OF USE, DATA, 
  72:emWin/GUI_Demo/GUIDEMO_Listview.c ****   * OR PROFITS; OR BUSINESS INTERRUPTION) HOWEVER CAUSED AND ON ANY THEORY OF 
  73:emWin/GUI_Demo/GUIDEMO_Listview.c ****   * LIABILITY, WHETHER IN CONTRACT, STRICT LIABILITY, OR TORT (INCLUDING 
  74:emWin/GUI_Demo/GUIDEMO_Listview.c ****   * NEGLIGENCE OR OTHERWISE) ARISING IN ANY WAY OUT OF THE USE OF THIS SOFTWARE,
  75:emWin/GUI_Demo/GUIDEMO_Listview.c ****   * EVEN IF ADVISED OF THE POSSIBILITY OF SUCH DAMAGE.
  76:emWin/GUI_Demo/GUIDEMO_Listview.c ****   *
  77:emWin/GUI_Demo/GUIDEMO_Listview.c ****   ******************************************************************************
  78:emWin/GUI_Demo/GUIDEMO_Listview.c ****   */
  79:emWin/GUI_Demo/GUIDEMO_Listview.c **** 
  80:emWin/GUI_Demo/GUIDEMO_Listview.c **** #include <stdlib.h>
  81:emWin/GUI_Demo/GUIDEMO_Listview.c **** #include <string.h>
  82:emWin/GUI_Demo/GUIDEMO_Listview.c **** #include <stdio.h>
  83:emWin/GUI_Demo/GUIDEMO_Listview.c **** 
  84:emWin/GUI_Demo/GUIDEMO_Listview.c **** #include "GUIDEMO.h"
  85:emWin/GUI_Demo/GUIDEMO_Listview.c **** 
  86:emWin/GUI_Demo/GUIDEMO_Listview.c **** #if (SHOW_GUIDEMO_LISTVIEW && GUI_WINSUPPORT)
  87:emWin/GUI_Demo/GUIDEMO_Listview.c **** 
ARM GAS  C:\Users\gx\AppData\Local\Temp\cckFEPXy.s 			page 3


  88:emWin/GUI_Demo/GUIDEMO_Listview.c **** /*********************************************************************
  89:emWin/GUI_Demo/GUIDEMO_Listview.c **** *
  90:emWin/GUI_Demo/GUIDEMO_Listview.c **** *       Defines
  91:emWin/GUI_Demo/GUIDEMO_Listview.c **** *
  92:emWin/GUI_Demo/GUIDEMO_Listview.c **** **********************************************************************
  93:emWin/GUI_Demo/GUIDEMO_Listview.c **** */
  94:emWin/GUI_Demo/GUIDEMO_Listview.c **** #define LISTVIEW_SIZE_X 210
  95:emWin/GUI_Demo/GUIDEMO_Listview.c **** #define MIN_SPACE       5
  96:emWin/GUI_Demo/GUIDEMO_Listview.c **** 
  97:emWin/GUI_Demo/GUIDEMO_Listview.c **** /*********************************************************************
  98:emWin/GUI_Demo/GUIDEMO_Listview.c **** *
  99:emWin/GUI_Demo/GUIDEMO_Listview.c **** *       Types
 100:emWin/GUI_Demo/GUIDEMO_Listview.c **** *
 101:emWin/GUI_Demo/GUIDEMO_Listview.c **** **********************************************************************
 102:emWin/GUI_Demo/GUIDEMO_Listview.c **** */
 103:emWin/GUI_Demo/GUIDEMO_Listview.c **** enum {
 104:emWin/GUI_Demo/GUIDEMO_Listview.c ****   JOB_ADDROWS = 1,
 105:emWin/GUI_Demo/GUIDEMO_Listview.c ****   JOB_SETSORT,
 106:emWin/GUI_Demo/GUIDEMO_Listview.c ****   JOB_REVERSE,
 107:emWin/GUI_Demo/GUIDEMO_Listview.c ****   JOB_INCSEL,
 108:emWin/GUI_Demo/GUIDEMO_Listview.c ****   JOB_DECSEL,
 109:emWin/GUI_Demo/GUIDEMO_Listview.c ****   JOB_COLOR
 110:emWin/GUI_Demo/GUIDEMO_Listview.c **** };
 111:emWin/GUI_Demo/GUIDEMO_Listview.c **** 
 112:emWin/GUI_Demo/GUIDEMO_Listview.c **** /*********************************************************************
 113:emWin/GUI_Demo/GUIDEMO_Listview.c **** *
 114:emWin/GUI_Demo/GUIDEMO_Listview.c **** *       COL_PROP
 115:emWin/GUI_Demo/GUIDEMO_Listview.c **** */
 116:emWin/GUI_Demo/GUIDEMO_Listview.c **** typedef struct {
 117:emWin/GUI_Demo/GUIDEMO_Listview.c ****   char * pText;
 118:emWin/GUI_Demo/GUIDEMO_Listview.c ****   int    Width;
 119:emWin/GUI_Demo/GUIDEMO_Listview.c ****   int    Align;
 120:emWin/GUI_Demo/GUIDEMO_Listview.c ****   int (* fpCompare)(const void * p0, const void * p1);
 121:emWin/GUI_Demo/GUIDEMO_Listview.c **** } COL_PROP;
 122:emWin/GUI_Demo/GUIDEMO_Listview.c **** 
 123:emWin/GUI_Demo/GUIDEMO_Listview.c **** /*********************************************************************
 124:emWin/GUI_Demo/GUIDEMO_Listview.c **** *
 125:emWin/GUI_Demo/GUIDEMO_Listview.c **** *       ACTION_ITEM
 126:emWin/GUI_Demo/GUIDEMO_Listview.c **** */
 127:emWin/GUI_Demo/GUIDEMO_Listview.c **** typedef struct {
 128:emWin/GUI_Demo/GUIDEMO_Listview.c ****   int          Delay;
 129:emWin/GUI_Demo/GUIDEMO_Listview.c ****   int          Job;
 130:emWin/GUI_Demo/GUIDEMO_Listview.c ****   const char * pDescription;
 131:emWin/GUI_Demo/GUIDEMO_Listview.c **** } ACTION_ITEM;
 132:emWin/GUI_Demo/GUIDEMO_Listview.c **** 
 133:emWin/GUI_Demo/GUIDEMO_Listview.c **** /*********************************************************************
 134:emWin/GUI_Demo/GUIDEMO_Listview.c **** *
 135:emWin/GUI_Demo/GUIDEMO_Listview.c **** *       Static data
 136:emWin/GUI_Demo/GUIDEMO_Listview.c **** *
 137:emWin/GUI_Demo/GUIDEMO_Listview.c **** **********************************************************************
 138:emWin/GUI_Demo/GUIDEMO_Listview.c **** */
 139:emWin/GUI_Demo/GUIDEMO_Listview.c **** /*********************************************************************
 140:emWin/GUI_Demo/GUIDEMO_Listview.c **** *
 141:emWin/GUI_Demo/GUIDEMO_Listview.c **** *       _pNames
 142:emWin/GUI_Demo/GUIDEMO_Listview.c **** */
 143:emWin/GUI_Demo/GUIDEMO_Listview.c **** static const char * _pNames[] = {
 144:emWin/GUI_Demo/GUIDEMO_Listview.c ****   "Adina", "Adis", "Aimee", "Alea", "Alessio", "Aletta", "Alexia", "Alissa", "Amelia", 
ARM GAS  C:\Users\gx\AppData\Local\Temp\cckFEPXy.s 			page 4


 145:emWin/GUI_Demo/GUIDEMO_Listview.c ****   "Anakin", "Ania", "Ankea", "Annalies", "Annina", "Annrike", "Arkadius", "Arvin", 
 146:emWin/GUI_Demo/GUIDEMO_Listview.c ****   "Aurelia", "Ava", "Beeke", "Benita", "Bennit", "Bent", "Berenike", "Berit", "Birk", 
 147:emWin/GUI_Demo/GUIDEMO_Listview.c ****   "Bosse", "Carsta", "Catalina", "Celia", "Charis", "Charlin", "Charlotta", "Cordelia", 
 148:emWin/GUI_Demo/GUIDEMO_Listview.c ****   "Corey", "Cornelis", "Corvin", "Cosima", "Crisula", "Darian", "Darina", "Deik", "Derek", 
 149:emWin/GUI_Demo/GUIDEMO_Listview.c ****   "Destina", "Devin", "Diane", "Dina", "Dion", "Dorette", "Dorle", "Duncan", "Eddy", 
 150:emWin/GUI_Demo/GUIDEMO_Listview.c ****   "Einar", "Elea", "Elin", "Elita", "Elona", "Elouise", "Emilian", "Emina", "Emmeline", 
 151:emWin/GUI_Demo/GUIDEMO_Listview.c ****   "Enna", "Estelle", "Etta", "Fabiola", "Fabrice", "Falko", "Felice", "Feline", "Femke", 
 152:emWin/GUI_Demo/GUIDEMO_Listview.c ****   "Fiete", "Filippa", "Fine", "Finia", "Finley", "Fleur", "Florentine" "Florenz", "Florin", 
 153:emWin/GUI_Demo/GUIDEMO_Listview.c ****   "Floyd", "Fokko", "Fritzi", "Gero", "Gerret", "Gerwin", "Gideon", "Gillian", "Glen", 
 154:emWin/GUI_Demo/GUIDEMO_Listview.c ****   "Gunilla", "Hanka", "Heinke", "Helmar", "Henner", "Hennes", "Henrieke", "Immo", 
 155:emWin/GUI_Demo/GUIDEMO_Listview.c ****   "India", "Isalie", "Iven", "Jade", "Janice", "Janika", "Janka", "Janneke", "Jannika", 
 156:emWin/GUI_Demo/GUIDEMO_Listview.c ****   "Jano", "Jarla", "Jarne", "Jarno", "Jaromir", "Jaron", "Jelana", "Jesper", "Joleen", "Jolie", 
 157:emWin/GUI_Demo/GUIDEMO_Listview.c ****   "Jonte", "Joost", "Jördis", "Joris", "Josie", "Josina", "Jula", "Julina", "Jytte", "Kalle", 
 158:emWin/GUI_Demo/GUIDEMO_Listview.c ****   "Kennet", "Keno", "Kiana", "Kieran", "Laila", "Laureen", "Laurens", "Laurent", 
 159:emWin/GUI_Demo/GUIDEMO_Listview.c ****   "Lauritz", "Leana", "Leandra", "Leandro", "Len", "Lenore", "Leona", "Leonore", 
 160:emWin/GUI_Demo/GUIDEMO_Listview.c ****   "Levke", "Lewin", "Lientje", "Lilith", "Line", "Linna", "Linnea", "Lisanne", "Livia", 
 161:emWin/GUI_Demo/GUIDEMO_Listview.c ****   "Lorena", "Lorna", "Lovis", "Luana", "Ludger", "Madita", "Mads", "Maiga", "Mailin", 
 162:emWin/GUI_Demo/GUIDEMO_Listview.c ****   "Malina", "Manja", "Marieke", "Marielle", "Mariette", "Mariola", "Marla", "Marlena", 
 163:emWin/GUI_Demo/GUIDEMO_Listview.c ****   "Marlin", "Marlo", "Marthe", "Martje", "Matz", "Maureen", "Mayra", "Medina", 
 164:emWin/GUI_Demo/GUIDEMO_Listview.c ****   "Melda", "Melek", "Melike", "Melinda", "Melis", "Melisa", "Merit", "Mieke", "Mila", 
 165:emWin/GUI_Demo/GUIDEMO_Listview.c ****   "Mina", "Mio", "Mirella", "Momke", "Momme", "Morris", "Nantke", "Nelson", "Nika", 
 166:emWin/GUI_Demo/GUIDEMO_Listview.c ****   "Norwin", "Oke", "Onno", "Otis", "Ove", "Peer", "Pelle", "Philine", "Philomena", 
 167:emWin/GUI_Demo/GUIDEMO_Listview.c ****   "Quentin", "Quint", "Rahel", "Raik", "Riana", "Ricardo", "Rika", "Rixa", "Rolex", 
 168:emWin/GUI_Demo/GUIDEMO_Listview.c ****   "Ruwen", "Ryan", "Salma", "Sandrine", "Severin", "Sidonie", "Silas", "Silja", "Simeon", 
 169:emWin/GUI_Demo/GUIDEMO_Listview.c ****   "Sinja", "Smilla", "Stig", "Stine", "Talisa", "Tamina", "Tammo", "Tara", "Thyra", 
 170:emWin/GUI_Demo/GUIDEMO_Listview.c ****   "Tiana", "Tjalf", "Tjark", "Tjelle", "Tjorben", "Tomma", "Tore", "Vanity", "Violet", 
 171:emWin/GUI_Demo/GUIDEMO_Listview.c ****   "Violetta", "Wilko", "Wulf", "Yasmina", "Ylvie", "Younes", "Yves", "Yvette",
 172:emWin/GUI_Demo/GUIDEMO_Listview.c **** };
 173:emWin/GUI_Demo/GUIDEMO_Listview.c **** 
 174:emWin/GUI_Demo/GUIDEMO_Listview.c **** /*********************************************************************
 175:emWin/GUI_Demo/GUIDEMO_Listview.c **** *
 176:emWin/GUI_Demo/GUIDEMO_Listview.c **** *       _aColProps
 177:emWin/GUI_Demo/GUIDEMO_Listview.c **** */
 178:emWin/GUI_Demo/GUIDEMO_Listview.c **** static const COL_PROP _aColProps[] = {
 179:emWin/GUI_Demo/GUIDEMO_Listview.c ****   { "Name",    70, GUI_TA_LEFT,    LISTVIEW_CompareText},
 180:emWin/GUI_Demo/GUIDEMO_Listview.c ****   { "Code",    50, GUI_TA_HCENTER, LISTVIEW_CompareText},
 181:emWin/GUI_Demo/GUIDEMO_Listview.c ****   { "Balance", 60, GUI_TA_RIGHT,   LISTVIEW_CompareDec }
 182:emWin/GUI_Demo/GUIDEMO_Listview.c **** };
 183:emWin/GUI_Demo/GUIDEMO_Listview.c **** 
 184:emWin/GUI_Demo/GUIDEMO_Listview.c **** /*********************************************************************
 185:emWin/GUI_Demo/GUIDEMO_Listview.c **** *
 186:emWin/GUI_Demo/GUIDEMO_Listview.c **** *       _aAction
 187:emWin/GUI_Demo/GUIDEMO_Listview.c **** */
 188:emWin/GUI_Demo/GUIDEMO_Listview.c **** static const ACTION_ITEM _aAction[] = {
 189:emWin/GUI_Demo/GUIDEMO_Listview.c ****   {   0, JOB_ADDROWS,    "Adding some rows" },
 190:emWin/GUI_Demo/GUIDEMO_Listview.c ****   { 900, 0,              NULL },
 191:emWin/GUI_Demo/GUIDEMO_Listview.c ****   { 500, 0,              "Enable sorting" },
 192:emWin/GUI_Demo/GUIDEMO_Listview.c ****   { 500, 0,              NULL },
 193:emWin/GUI_Demo/GUIDEMO_Listview.c ****   { 600, JOB_SETSORT,    NULL  },
 194:emWin/GUI_Demo/GUIDEMO_Listview.c ****   { 600, JOB_SETSORT,    NULL  },
 195:emWin/GUI_Demo/GUIDEMO_Listview.c ****   { 600, JOB_SETSORT,    NULL  },
 196:emWin/GUI_Demo/GUIDEMO_Listview.c ****   { 500, 0,              "Using reverse/normal\nsorting order" },
 197:emWin/GUI_Demo/GUIDEMO_Listview.c ****   { 500, 0,              NULL },
 198:emWin/GUI_Demo/GUIDEMO_Listview.c ****   { 600, JOB_REVERSE,    NULL  },
 199:emWin/GUI_Demo/GUIDEMO_Listview.c ****   { 600, JOB_REVERSE,    NULL  },
 200:emWin/GUI_Demo/GUIDEMO_Listview.c ****   { 600, JOB_REVERSE,    NULL  },
 201:emWin/GUI_Demo/GUIDEMO_Listview.c ****   { 500, 0,              "Changing selection" },
ARM GAS  C:\Users\gx\AppData\Local\Temp\cckFEPXy.s 			page 5


 202:emWin/GUI_Demo/GUIDEMO_Listview.c ****   { 500, 0,              NULL },
 203:emWin/GUI_Demo/GUIDEMO_Listview.c ****   {  50, JOB_INCSEL,     NULL  },
 204:emWin/GUI_Demo/GUIDEMO_Listview.c ****   {  50, JOB_INCSEL,     NULL  },
 205:emWin/GUI_Demo/GUIDEMO_Listview.c ****   {  50, JOB_INCSEL,     NULL  },
 206:emWin/GUI_Demo/GUIDEMO_Listview.c ****   {  50, JOB_INCSEL,     NULL  },
 207:emWin/GUI_Demo/GUIDEMO_Listview.c ****   {  50, JOB_INCSEL,     NULL  },
 208:emWin/GUI_Demo/GUIDEMO_Listview.c ****   {  50, JOB_INCSEL,     NULL  },
 209:emWin/GUI_Demo/GUIDEMO_Listview.c ****   {  50, JOB_INCSEL,     NULL  },
 210:emWin/GUI_Demo/GUIDEMO_Listview.c ****   {  50, JOB_INCSEL,     NULL  },
 211:emWin/GUI_Demo/GUIDEMO_Listview.c ****   {  50, JOB_INCSEL,     NULL  },
 212:emWin/GUI_Demo/GUIDEMO_Listview.c ****   {  50, JOB_INCSEL,     NULL  },
 213:emWin/GUI_Demo/GUIDEMO_Listview.c ****   {  50, JOB_DECSEL,     NULL  },
 214:emWin/GUI_Demo/GUIDEMO_Listview.c ****   {  50, JOB_DECSEL,     NULL  },
 215:emWin/GUI_Demo/GUIDEMO_Listview.c ****   {  50, JOB_DECSEL,     NULL  },
 216:emWin/GUI_Demo/GUIDEMO_Listview.c ****   {  50, JOB_DECSEL,     NULL  },
 217:emWin/GUI_Demo/GUIDEMO_Listview.c ****   {  50, JOB_DECSEL,     NULL  },
 218:emWin/GUI_Demo/GUIDEMO_Listview.c ****   { 500, 0,              "Setting some\nindividual colors" },
 219:emWin/GUI_Demo/GUIDEMO_Listview.c ****   { 500, 0,              NULL },
 220:emWin/GUI_Demo/GUIDEMO_Listview.c ****   {  50, JOB_COLOR,      NULL  },
 221:emWin/GUI_Demo/GUIDEMO_Listview.c ****   {1800, 0,              NULL },
 222:emWin/GUI_Demo/GUIDEMO_Listview.c **** };
 223:emWin/GUI_Demo/GUIDEMO_Listview.c **** 
 224:emWin/GUI_Demo/GUIDEMO_Listview.c **** /*********************************************************************
 225:emWin/GUI_Demo/GUIDEMO_Listview.c **** *
 226:emWin/GUI_Demo/GUIDEMO_Listview.c **** *       _aColor
 227:emWin/GUI_Demo/GUIDEMO_Listview.c **** */
 228:emWin/GUI_Demo/GUIDEMO_Listview.c **** static const GUI_COLOR _aColor[] = {
 229:emWin/GUI_Demo/GUIDEMO_Listview.c ****   GUI_BLUE        , GUI_GREEN       , GUI_RED         , GUI_CYAN        , 
 230:emWin/GUI_Demo/GUIDEMO_Listview.c ****   GUI_MAGENTA     , GUI_YELLOW      , GUI_LIGHTBLUE   , GUI_LIGHTGREEN  , 
 231:emWin/GUI_Demo/GUIDEMO_Listview.c ****   GUI_LIGHTRED    , GUI_LIGHTCYAN   , GUI_LIGHTMAGENTA, GUI_LIGHTYELLOW , 
 232:emWin/GUI_Demo/GUIDEMO_Listview.c ****   GUI_DARKBLUE    , GUI_DARKGREEN   , GUI_DARKRED     , GUI_DARKCYAN    , 
 233:emWin/GUI_Demo/GUIDEMO_Listview.c ****   GUI_DARKMAGENTA , GUI_DARKYELLOW  , GUI_WHITE       , GUI_LIGHTGRAY   , 
 234:emWin/GUI_Demo/GUIDEMO_Listview.c ****   GUI_GRAY        , GUI_DARKGRAY    , GUI_BLACK       , GUI_BROWN       , 
 235:emWin/GUI_Demo/GUIDEMO_Listview.c **** };
 236:emWin/GUI_Demo/GUIDEMO_Listview.c **** 
 237:emWin/GUI_Demo/GUIDEMO_Listview.c **** /*********************************************************************
 238:emWin/GUI_Demo/GUIDEMO_Listview.c **** *
 239:emWin/GUI_Demo/GUIDEMO_Listview.c **** *       Static code
 240:emWin/GUI_Demo/GUIDEMO_Listview.c **** *
 241:emWin/GUI_Demo/GUIDEMO_Listview.c **** **********************************************************************
 242:emWin/GUI_Demo/GUIDEMO_Listview.c **** */
 243:emWin/GUI_Demo/GUIDEMO_Listview.c **** /*********************************************************************
 244:emWin/GUI_Demo/GUIDEMO_Listview.c **** *
 245:emWin/GUI_Demo/GUIDEMO_Listview.c **** *       _AddRow
 246:emWin/GUI_Demo/GUIDEMO_Listview.c **** *
 247:emWin/GUI_Demo/GUIDEMO_Listview.c **** * Purpose:
 248:emWin/GUI_Demo/GUIDEMO_Listview.c **** *   Inserts or adds a new row of data to the given LISTVIEW
 249:emWin/GUI_Demo/GUIDEMO_Listview.c **** *
 250:emWin/GUI_Demo/GUIDEMO_Listview.c **** * Parameter:
 251:emWin/GUI_Demo/GUIDEMO_Listview.c **** *   hItem  - Handle of LISTVIEW widget
 252:emWin/GUI_Demo/GUIDEMO_Listview.c **** *   Insert - 1 for inserting a row,0 for adding a row
 253:emWin/GUI_Demo/GUIDEMO_Listview.c **** */
 254:emWin/GUI_Demo/GUIDEMO_Listview.c **** static int _AddRow(WM_HWIN hItem, int Insert) {
 255:emWin/GUI_Demo/GUIDEMO_Listview.c ****   int    i, r;
 256:emWin/GUI_Demo/GUIDEMO_Listview.c ****   char * pText[3];
 257:emWin/GUI_Demo/GUIDEMO_Listview.c ****   char   acText[3][20] = {0};
 258:emWin/GUI_Demo/GUIDEMO_Listview.c **** 
ARM GAS  C:\Users\gx\AppData\Local\Temp\cckFEPXy.s 			page 6


 259:emWin/GUI_Demo/GUIDEMO_Listview.c ****   //
 260:emWin/GUI_Demo/GUIDEMO_Listview.c ****   // Create name field
 261:emWin/GUI_Demo/GUIDEMO_Listview.c ****   //
 262:emWin/GUI_Demo/GUIDEMO_Listview.c ****   i = rand() % GUI_COUNTOF(_pNames);
 263:emWin/GUI_Demo/GUIDEMO_Listview.c ****   strcpy(acText[0], _pNames[i]);
 264:emWin/GUI_Demo/GUIDEMO_Listview.c ****   //
 265:emWin/GUI_Demo/GUIDEMO_Listview.c ****   // Create code field
 266:emWin/GUI_Demo/GUIDEMO_Listview.c ****   //
 267:emWin/GUI_Demo/GUIDEMO_Listview.c ****   for (i = 0; i < 5; i++) {
 268:emWin/GUI_Demo/GUIDEMO_Listview.c ****     acText[1][i] = rand() % 26 + 'A';
 269:emWin/GUI_Demo/GUIDEMO_Listview.c ****   }
 270:emWin/GUI_Demo/GUIDEMO_Listview.c ****   //
 271:emWin/GUI_Demo/GUIDEMO_Listview.c ****   // Create balance field
 272:emWin/GUI_Demo/GUIDEMO_Listview.c ****   //
 273:emWin/GUI_Demo/GUIDEMO_Listview.c **** 	i = (rand() % 10000) - 5000;
 274:emWin/GUI_Demo/GUIDEMO_Listview.c **** 	sprintf(acText[2], "%i", i);
 275:emWin/GUI_Demo/GUIDEMO_Listview.c ****   //
 276:emWin/GUI_Demo/GUIDEMO_Listview.c ****   // Fill pointer array
 277:emWin/GUI_Demo/GUIDEMO_Listview.c ****   //
 278:emWin/GUI_Demo/GUIDEMO_Listview.c ****   for (i = 0; i < 3; i++) {
 279:emWin/GUI_Demo/GUIDEMO_Listview.c ****     pText[i] = acText[i];
 280:emWin/GUI_Demo/GUIDEMO_Listview.c ****   }
 281:emWin/GUI_Demo/GUIDEMO_Listview.c ****   //
 282:emWin/GUI_Demo/GUIDEMO_Listview.c ****   // Add/Insert row
 283:emWin/GUI_Demo/GUIDEMO_Listview.c ****   //
 284:emWin/GUI_Demo/GUIDEMO_Listview.c ****   if (Insert) {
 285:emWin/GUI_Demo/GUIDEMO_Listview.c ****     r = LISTVIEW_InsertRow(hItem, 0, (const GUI_ConstString *)pText);
 286:emWin/GUI_Demo/GUIDEMO_Listview.c ****   } else {
 287:emWin/GUI_Demo/GUIDEMO_Listview.c ****     r = LISTVIEW_AddRow(hItem, (const GUI_ConstString *)pText);
 288:emWin/GUI_Demo/GUIDEMO_Listview.c ****   }
 289:emWin/GUI_Demo/GUIDEMO_Listview.c ****   return r;
 290:emWin/GUI_Demo/GUIDEMO_Listview.c **** }
 291:emWin/GUI_Demo/GUIDEMO_Listview.c **** 
 292:emWin/GUI_Demo/GUIDEMO_Listview.c **** /*********************************************************************
 293:emWin/GUI_Demo/GUIDEMO_Listview.c **** *
 294:emWin/GUI_Demo/GUIDEMO_Listview.c **** *       _InitListview
 295:emWin/GUI_Demo/GUIDEMO_Listview.c **** *
 296:emWin/GUI_Demo/GUIDEMO_Listview.c **** * Purpose:
 297:emWin/GUI_Demo/GUIDEMO_Listview.c **** *   Adds some data to the listview widget
 298:emWin/GUI_Demo/GUIDEMO_Listview.c **** */
 299:emWin/GUI_Demo/GUIDEMO_Listview.c **** static void _InitListview(WM_HWIN hList) {
  29              		.loc 1 299 42 view -0
  30              		.cfi_startproc
  31              		@ args = 0, pretend = 0, frame = 0
  32              		@ frame_needed = 0, uses_anonymous_args = 0
  33              		.loc 1 299 42 is_stmt 0 view .LVU1
  34 0000 70B5     		push	{r4, r5, r6, lr}
  35              	.LCFI0:
  36              		.cfi_def_cfa_offset 16
  37              		.cfi_offset 4, -16
  38              		.cfi_offset 5, -12
  39              		.cfi_offset 6, -8
  40              		.cfi_offset 14, -4
  41 0002 0546     		mov	r5, r0
 300:emWin/GUI_Demo/GUIDEMO_Listview.c ****   int i;
  42              		.loc 1 300 3 is_stmt 1 view .LVU2
 301:emWin/GUI_Demo/GUIDEMO_Listview.c **** 
ARM GAS  C:\Users\gx\AppData\Local\Temp\cckFEPXy.s 			page 7


 302:emWin/GUI_Demo/GUIDEMO_Listview.c ****   HEADER_SetDragLimit(LISTVIEW_GetHeader(hList), 1);
  43              		.loc 1 302 3 view .LVU3
  44 0004 FFF7FEFF 		bl	LISTVIEW_GetHeader
  45              	.LVL1:
  46              		.loc 1 302 3 is_stmt 0 view .LVU4
  47 0008 0121     		movs	r1, #1
  48 000a FFF7FEFF 		bl	HEADER_SetDragLimit
  49              	.LVL2:
 303:emWin/GUI_Demo/GUIDEMO_Listview.c ****   LISTVIEW_SetAutoScrollV(hList, 1);
  50              		.loc 1 303 3 is_stmt 1 view .LVU5
  51 000e 0121     		movs	r1, #1
  52 0010 2846     		mov	r0, r5
  53 0012 FFF7FEFF 		bl	LISTVIEW_SetAutoScrollV
  54              	.LVL3:
 304:emWin/GUI_Demo/GUIDEMO_Listview.c ****   LISTVIEW_SetGridVis(hList, 1);
  55              		.loc 1 304 3 view .LVU6
  56 0016 0121     		movs	r1, #1
  57 0018 2846     		mov	r0, r5
  58 001a FFF7FEFF 		bl	LISTVIEW_SetGridVis
  59              	.LVL4:
 305:emWin/GUI_Demo/GUIDEMO_Listview.c ****   LISTVIEW_SetRBorder(hList, 5);
  60              		.loc 1 305 3 view .LVU7
  61 001e 0521     		movs	r1, #5
  62 0020 2846     		mov	r0, r5
  63 0022 FFF7FEFF 		bl	LISTVIEW_SetRBorder
  64              	.LVL5:
 306:emWin/GUI_Demo/GUIDEMO_Listview.c ****   LISTVIEW_SetLBorder(hList, 5);
  65              		.loc 1 306 3 view .LVU8
  66 0026 0521     		movs	r1, #5
  67 0028 2846     		mov	r0, r5
  68 002a FFF7FEFF 		bl	LISTVIEW_SetLBorder
  69              	.LVL6:
 307:emWin/GUI_Demo/GUIDEMO_Listview.c ****   for (i = 0; i < 3; i++) {
  70              		.loc 1 307 3 view .LVU9
  71              		.loc 1 307 10 is_stmt 0 view .LVU10
  72 002e 0024     		movs	r4, #0
  73              		.loc 1 307 3 view .LVU11
  74 0030 0FE0     		b	.L2
  75              	.LVL7:
  76              	.L3:
 308:emWin/GUI_Demo/GUIDEMO_Listview.c ****     LISTVIEW_AddColumn(hList, _aColProps[i].Width, _aColProps[i].pText, _aColProps[i].Align);
  77              		.loc 1 308 5 is_stmt 1 discriminator 3 view .LVU12
  78              		.loc 1 308 65 is_stmt 0 discriminator 3 view .LVU13
  79 0032 0B4A     		ldr	r2, .L5
  80 0034 2101     		lsls	r1, r4, #4
  81 0036 02EB0416 		add	r6, r2, r4, lsl #4
  82              		.loc 1 308 5 discriminator 3 view .LVU14
  83 003a B368     		ldr	r3, [r6, #8]
  84 003c 5258     		ldr	r2, [r2, r1]
  85 003e 7168     		ldr	r1, [r6, #4]
  86 0040 2846     		mov	r0, r5
  87 0042 FFF7FEFF 		bl	LISTVIEW_AddColumn
  88              	.LVL8:
 309:emWin/GUI_Demo/GUIDEMO_Listview.c ****     LISTVIEW_SetCompareFunc(hList, i, _aColProps[i].fpCompare);
  89              		.loc 1 309 5 is_stmt 1 discriminator 3 view .LVU15
  90 0046 F268     		ldr	r2, [r6, #12]
  91 0048 2146     		mov	r1, r4
ARM GAS  C:\Users\gx\AppData\Local\Temp\cckFEPXy.s 			page 8


  92 004a 2846     		mov	r0, r5
  93 004c FFF7FEFF 		bl	LISTVIEW_SetCompareFunc
  94              	.LVL9:
 307:emWin/GUI_Demo/GUIDEMO_Listview.c ****   for (i = 0; i < 3; i++) {
  95              		.loc 1 307 22 discriminator 3 view .LVU16
 307:emWin/GUI_Demo/GUIDEMO_Listview.c ****   for (i = 0; i < 3; i++) {
  96              		.loc 1 307 23 is_stmt 0 discriminator 3 view .LVU17
  97 0050 0134     		adds	r4, r4, #1
  98              	.LVL10:
  99              	.L2:
 307:emWin/GUI_Demo/GUIDEMO_Listview.c ****   for (i = 0; i < 3; i++) {
 100              		.loc 1 307 15 is_stmt 1 discriminator 1 view .LVU18
 307:emWin/GUI_Demo/GUIDEMO_Listview.c ****   for (i = 0; i < 3; i++) {
 101              		.loc 1 307 3 is_stmt 0 discriminator 1 view .LVU19
 102 0052 022C     		cmp	r4, #2
 103 0054 EDDD     		ble	.L3
 310:emWin/GUI_Demo/GUIDEMO_Listview.c ****   }
 311:emWin/GUI_Demo/GUIDEMO_Listview.c ****   LISTVIEW_EnableSort(hList);
 104              		.loc 1 311 3 is_stmt 1 view .LVU20
 105 0056 2846     		mov	r0, r5
 106 0058 FFF7FEFF 		bl	LISTVIEW_EnableSort
 107              	.LVL11:
 312:emWin/GUI_Demo/GUIDEMO_Listview.c **** }
 108              		.loc 1 312 1 is_stmt 0 view .LVU21
 109 005c 70BD     		pop	{r4, r5, r6, pc}
 110              	.LVL12:
 111              	.L6:
 112              		.loc 1 312 1 view .LVU22
 113 005e 00BF     		.align	2
 114              	.L5:
 115 0060 00000000 		.word	.LANCHOR0
 116              		.cfi_endproc
 117              	.LFE4:
 119              		.section	.rodata._AddRow.str1.4,"aMS",%progbits,1
 120              		.align	2
 121              	.LC0:
 122 0000 256900   		.ascii	"%i\000"
 123              		.section	.text._AddRow,"ax",%progbits
 124              		.align	1
 125              		.syntax unified
 126              		.thumb
 127              		.thumb_func
 128              		.fpu fpv4-sp-d16
 130              	_AddRow:
 131              	.LVL13:
 132              	.LFB3:
 254:emWin/GUI_Demo/GUIDEMO_Listview.c ****   int    i, r;
 133              		.loc 1 254 47 is_stmt 1 view -0
 134              		.cfi_startproc
 135              		@ args = 0, pretend = 0, frame = 72
 136              		@ frame_needed = 0, uses_anonymous_args = 0
 254:emWin/GUI_Demo/GUIDEMO_Listview.c ****   int    i, r;
 137              		.loc 1 254 47 is_stmt 0 view .LVU24
 138 0000 70B5     		push	{r4, r5, r6, lr}
 139              	.LCFI1:
 140              		.cfi_def_cfa_offset 16
 141              		.cfi_offset 4, -16
ARM GAS  C:\Users\gx\AppData\Local\Temp\cckFEPXy.s 			page 9


 142              		.cfi_offset 5, -12
 143              		.cfi_offset 6, -8
 144              		.cfi_offset 14, -4
 145 0002 92B0     		sub	sp, sp, #72
 146              	.LCFI2:
 147              		.cfi_def_cfa_offset 88
 148 0004 0546     		mov	r5, r0
 149 0006 0E46     		mov	r6, r1
 255:emWin/GUI_Demo/GUIDEMO_Listview.c ****   char * pText[3];
 150              		.loc 1 255 3 is_stmt 1 view .LVU25
 256:emWin/GUI_Demo/GUIDEMO_Listview.c ****   char   acText[3][20] = {0};
 151              		.loc 1 256 3 view .LVU26
 257:emWin/GUI_Demo/GUIDEMO_Listview.c **** 
 152              		.loc 1 257 3 view .LVU27
 257:emWin/GUI_Demo/GUIDEMO_Listview.c **** 
 153              		.loc 1 257 10 is_stmt 0 view .LVU28
 154 0008 3C22     		movs	r2, #60
 155 000a 0021     		movs	r1, #0
 156              	.LVL14:
 257:emWin/GUI_Demo/GUIDEMO_Listview.c **** 
 157              		.loc 1 257 10 view .LVU29
 158 000c 6846     		mov	r0, sp
 159              	.LVL15:
 257:emWin/GUI_Demo/GUIDEMO_Listview.c **** 
 160              		.loc 1 257 10 view .LVU30
 161 000e FFF7FEFF 		bl	memset
 162              	.LVL16:
 262:emWin/GUI_Demo/GUIDEMO_Listview.c ****   strcpy(acText[0], _pNames[i]);
 163              		.loc 1 262 3 is_stmt 1 view .LVU31
 262:emWin/GUI_Demo/GUIDEMO_Listview.c ****   strcpy(acText[0], _pNames[i]);
 164              		.loc 1 262 7 is_stmt 0 view .LVU32
 165 0012 FFF7FEFF 		bl	rand
 166              	.LVL17:
 262:emWin/GUI_Demo/GUIDEMO_Listview.c ****   strcpy(acText[0], _pNames[i]);
 167              		.loc 1 262 14 view .LVU33
 168 0016 294B     		ldr	r3, .L16
 169 0018 A3FB0023 		umull	r2, r3, r3, r0
 170 001c C21A     		subs	r2, r0, r3
 171 001e 03EB5203 		add	r3, r3, r2, lsr #1
 172 0022 DB09     		lsrs	r3, r3, #7
 173 0024 F522     		movs	r2, #245
 174 0026 02FB1303 		mls	r3, r2, r3, r0
 175              	.LVL18:
 263:emWin/GUI_Demo/GUIDEMO_Listview.c ****   //
 176              		.loc 1 263 3 is_stmt 1 view .LVU34
 177 002a 254A     		ldr	r2, .L16+4
 178 002c 52F82310 		ldr	r1, [r2, r3, lsl #2]
 179 0030 6846     		mov	r0, sp
 180 0032 FFF7FEFF 		bl	strcpy
 181              	.LVL19:
 267:emWin/GUI_Demo/GUIDEMO_Listview.c ****     acText[1][i] = rand() % 26 + 'A';
 182              		.loc 1 267 3 view .LVU35
 267:emWin/GUI_Demo/GUIDEMO_Listview.c ****     acText[1][i] = rand() % 26 + 'A';
 183              		.loc 1 267 10 is_stmt 0 view .LVU36
 184 0036 0024     		movs	r4, #0
 185              	.LVL20:
 186              	.L8:
ARM GAS  C:\Users\gx\AppData\Local\Temp\cckFEPXy.s 			page 10


 267:emWin/GUI_Demo/GUIDEMO_Listview.c ****     acText[1][i] = rand() % 26 + 'A';
 187              		.loc 1 267 15 is_stmt 1 discriminator 1 view .LVU37
 267:emWin/GUI_Demo/GUIDEMO_Listview.c ****     acText[1][i] = rand() % 26 + 'A';
 188              		.loc 1 267 3 is_stmt 0 discriminator 1 view .LVU38
 189 0038 042C     		cmp	r4, #4
 190 003a 11DC     		bgt	.L15
 268:emWin/GUI_Demo/GUIDEMO_Listview.c ****   }
 191              		.loc 1 268 5 is_stmt 1 discriminator 3 view .LVU39
 268:emWin/GUI_Demo/GUIDEMO_Listview.c ****   }
 192              		.loc 1 268 20 is_stmt 0 discriminator 3 view .LVU40
 193 003c FFF7FEFF 		bl	rand
 194              	.LVL21:
 268:emWin/GUI_Demo/GUIDEMO_Listview.c ****   }
 195              		.loc 1 268 27 discriminator 3 view .LVU41
 196 0040 204A     		ldr	r2, .L16+8
 197 0042 82FB0032 		smull	r3, r2, r2, r0
 198 0046 C317     		asrs	r3, r0, #31
 199 0048 C3EBE203 		rsb	r3, r3, r2, asr #3
 200 004c 1A22     		movs	r2, #26
 201 004e 02FB1303 		mls	r3, r2, r3, r0
 268:emWin/GUI_Demo/GUIDEMO_Listview.c ****   }
 202              		.loc 1 268 32 discriminator 3 view .LVU42
 203 0052 4133     		adds	r3, r3, #65
 268:emWin/GUI_Demo/GUIDEMO_Listview.c ****   }
 204              		.loc 1 268 18 discriminator 3 view .LVU43
 205 0054 12AA     		add	r2, sp, #72
 206 0056 2244     		add	r2, r2, r4
 207 0058 02F8343C 		strb	r3, [r2, #-52]
 267:emWin/GUI_Demo/GUIDEMO_Listview.c ****     acText[1][i] = rand() % 26 + 'A';
 208              		.loc 1 267 22 is_stmt 1 discriminator 3 view .LVU44
 267:emWin/GUI_Demo/GUIDEMO_Listview.c ****     acText[1][i] = rand() % 26 + 'A';
 209              		.loc 1 267 23 is_stmt 0 discriminator 3 view .LVU45
 210 005c 0134     		adds	r4, r4, #1
 211              	.LVL22:
 267:emWin/GUI_Demo/GUIDEMO_Listview.c ****     acText[1][i] = rand() % 26 + 'A';
 212              		.loc 1 267 23 discriminator 3 view .LVU46
 213 005e EBE7     		b	.L8
 214              	.L15:
 273:emWin/GUI_Demo/GUIDEMO_Listview.c **** 	sprintf(acText[2], "%i", i);
 215              		.loc 1 273 2 is_stmt 1 view .LVU47
 273:emWin/GUI_Demo/GUIDEMO_Listview.c **** 	sprintf(acText[2], "%i", i);
 216              		.loc 1 273 7 is_stmt 0 view .LVU48
 217 0060 FFF7FEFF 		bl	rand
 218              	.LVL23:
 273:emWin/GUI_Demo/GUIDEMO_Listview.c **** 	sprintf(acText[2], "%i", i);
 219              		.loc 1 273 14 view .LVU49
 220 0064 184B     		ldr	r3, .L16+12
 221 0066 83FB0023 		smull	r2, r3, r3, r0
 222 006a C217     		asrs	r2, r0, #31
 223 006c C2EB2332 		rsb	r2, r2, r3, asr #12
 224 0070 42F21073 		movw	r3, #10000
 225 0074 03FB1202 		mls	r2, r3, r2, r0
 226              	.LVL24:
 274:emWin/GUI_Demo/GUIDEMO_Listview.c ****   //
 227              		.loc 1 274 2 is_stmt 1 view .LVU50
 228 0078 A2F59C52 		sub	r2, r2, #4992
 229              	.LVL25:
ARM GAS  C:\Users\gx\AppData\Local\Temp\cckFEPXy.s 			page 11


 274:emWin/GUI_Demo/GUIDEMO_Listview.c ****   //
 230              		.loc 1 274 2 is_stmt 0 view .LVU51
 231 007c 083A     		subs	r2, r2, #8
 232              	.LVL26:
 274:emWin/GUI_Demo/GUIDEMO_Listview.c ****   //
 233              		.loc 1 274 2 view .LVU52
 234 007e 1349     		ldr	r1, .L16+16
 235 0080 0AA8     		add	r0, sp, #40
 236 0082 FFF7FEFF 		bl	sprintf
 237              	.LVL27:
 278:emWin/GUI_Demo/GUIDEMO_Listview.c ****     pText[i] = acText[i];
 238              		.loc 1 278 3 is_stmt 1 view .LVU53
 278:emWin/GUI_Demo/GUIDEMO_Listview.c ****     pText[i] = acText[i];
 239              		.loc 1 278 10 is_stmt 0 view .LVU54
 240 0086 0023     		movs	r3, #0
 278:emWin/GUI_Demo/GUIDEMO_Listview.c ****     pText[i] = acText[i];
 241              		.loc 1 278 3 view .LVU55
 242 0088 09E0     		b	.L10
 243              	.LVL28:
 244              	.L11:
 279:emWin/GUI_Demo/GUIDEMO_Listview.c ****   }
 245              		.loc 1 279 5 is_stmt 1 discriminator 3 view .LVU56
 279:emWin/GUI_Demo/GUIDEMO_Listview.c ****   }
 246              		.loc 1 279 16 is_stmt 0 discriminator 3 view .LVU57
 247 008a 03EB8302 		add	r2, r3, r3, lsl #2
 248 008e 0DEB8202 		add	r2, sp, r2, lsl #2
 279:emWin/GUI_Demo/GUIDEMO_Listview.c ****   }
 249              		.loc 1 279 14 discriminator 3 view .LVU58
 250 0092 12A9     		add	r1, sp, #72
 251 0094 01EB8301 		add	r1, r1, r3, lsl #2
 252 0098 41F80C2C 		str	r2, [r1, #-12]
 278:emWin/GUI_Demo/GUIDEMO_Listview.c ****     pText[i] = acText[i];
 253              		.loc 1 278 22 is_stmt 1 discriminator 3 view .LVU59
 278:emWin/GUI_Demo/GUIDEMO_Listview.c ****     pText[i] = acText[i];
 254              		.loc 1 278 23 is_stmt 0 discriminator 3 view .LVU60
 255 009c 0133     		adds	r3, r3, #1
 256              	.LVL29:
 257              	.L10:
 278:emWin/GUI_Demo/GUIDEMO_Listview.c ****     pText[i] = acText[i];
 258              		.loc 1 278 15 is_stmt 1 discriminator 1 view .LVU61
 278:emWin/GUI_Demo/GUIDEMO_Listview.c ****     pText[i] = acText[i];
 259              		.loc 1 278 3 is_stmt 0 discriminator 1 view .LVU62
 260 009e 022B     		cmp	r3, #2
 261 00a0 F3DD     		ble	.L11
 284:emWin/GUI_Demo/GUIDEMO_Listview.c ****     r = LISTVIEW_InsertRow(hItem, 0, (const GUI_ConstString *)pText);
 262              		.loc 1 284 3 is_stmt 1 view .LVU63
 284:emWin/GUI_Demo/GUIDEMO_Listview.c ****     r = LISTVIEW_InsertRow(hItem, 0, (const GUI_ConstString *)pText);
 263              		.loc 1 284 6 is_stmt 0 view .LVU64
 264 00a2 36B1     		cbz	r6, .L12
 285:emWin/GUI_Demo/GUIDEMO_Listview.c ****   } else {
 265              		.loc 1 285 5 is_stmt 1 view .LVU65
 285:emWin/GUI_Demo/GUIDEMO_Listview.c ****   } else {
 266              		.loc 1 285 9 is_stmt 0 view .LVU66
 267 00a4 0FAA     		add	r2, sp, #60
 268 00a6 0021     		movs	r1, #0
 269 00a8 2846     		mov	r0, r5
 270 00aa FFF7FEFF 		bl	LISTVIEW_InsertRow
ARM GAS  C:\Users\gx\AppData\Local\Temp\cckFEPXy.s 			page 12


 271              	.LVL30:
 272              	.L7:
 290:emWin/GUI_Demo/GUIDEMO_Listview.c **** 
 273              		.loc 1 290 1 view .LVU67
 274 00ae 12B0     		add	sp, sp, #72
 275              	.LCFI3:
 276              		.cfi_remember_state
 277              		.cfi_def_cfa_offset 16
 278              		@ sp needed
 279 00b0 70BD     		pop	{r4, r5, r6, pc}
 280              	.LVL31:
 281              	.L12:
 282              	.LCFI4:
 283              		.cfi_restore_state
 287:emWin/GUI_Demo/GUIDEMO_Listview.c ****   }
 284              		.loc 1 287 5 is_stmt 1 view .LVU68
 287:emWin/GUI_Demo/GUIDEMO_Listview.c ****   }
 285              		.loc 1 287 9 is_stmt 0 view .LVU69
 286 00b2 0FA9     		add	r1, sp, #60
 287 00b4 2846     		mov	r0, r5
 288 00b6 FFF7FEFF 		bl	LISTVIEW_AddRow
 289              	.LVL32:
 289:emWin/GUI_Demo/GUIDEMO_Listview.c **** }
 290              		.loc 1 289 3 is_stmt 1 view .LVU70
 289:emWin/GUI_Demo/GUIDEMO_Listview.c **** }
 291              		.loc 1 289 10 is_stmt 0 view .LVU71
 292 00ba F8E7     		b	.L7
 293              	.L17:
 294              		.align	2
 295              	.L16:
 296 00bc C36E7E0B 		.word	192835267
 297 00c0 00000000 		.word	.LANCHOR1
 298 00c4 4FECC44E 		.word	1321528399
 299 00c8 AD8BDB68 		.word	1759218605
 300 00cc 00000000 		.word	.LC0
 301              		.cfi_endproc
 302              	.LFE3:
 304              		.section	.text._Action,"ax",%progbits
 305              		.align	1
 306              		.syntax unified
 307              		.thumb
 308              		.thumb_func
 309              		.fpu fpv4-sp-d16
 311              	_Action:
 312              	.LVL33:
 313              	.LFB5:
 313:emWin/GUI_Demo/GUIDEMO_Listview.c **** 
 314:emWin/GUI_Demo/GUIDEMO_Listview.c **** /*********************************************************************
 315:emWin/GUI_Demo/GUIDEMO_Listview.c **** *
 316:emWin/GUI_Demo/GUIDEMO_Listview.c **** *       _Action
 317:emWin/GUI_Demo/GUIDEMO_Listview.c **** *
 318:emWin/GUI_Demo/GUIDEMO_Listview.c **** * Purpose:
 319:emWin/GUI_Demo/GUIDEMO_Listview.c **** *   Does some action with the widget
 320:emWin/GUI_Demo/GUIDEMO_Listview.c **** */
 321:emWin/GUI_Demo/GUIDEMO_Listview.c **** static void _Action(WM_HWIN hList) {
 314              		.loc 1 321 36 is_stmt 1 view -0
 315              		.cfi_startproc
ARM GAS  C:\Users\gx\AppData\Local\Temp\cckFEPXy.s 			page 13


 316              		@ args = 0, pretend = 0, frame = 8
 317              		@ frame_needed = 0, uses_anonymous_args = 0
 318              		.loc 1 321 36 is_stmt 0 view .LVU73
 319 0000 2DE9F04F 		push	{r4, r5, r6, r7, r8, r9, r10, fp, lr}
 320              	.LCFI5:
 321              		.cfi_def_cfa_offset 36
 322              		.cfi_offset 4, -36
 323              		.cfi_offset 5, -32
 324              		.cfi_offset 6, -28
 325              		.cfi_offset 7, -24
 326              		.cfi_offset 8, -20
 327              		.cfi_offset 9, -16
 328              		.cfi_offset 10, -12
 329              		.cfi_offset 11, -8
 330              		.cfi_offset 14, -4
 331 0004 85B0     		sub	sp, sp, #20
 332              	.LCFI6:
 333              		.cfi_def_cfa_offset 56
 334 0006 0546     		mov	r5, r0
 322:emWin/GUI_Demo/GUIDEMO_Listview.c ****   unsigned ColoredCol   = 0;
 335              		.loc 1 322 3 is_stmt 1 view .LVU74
 336              	.LVL34:
 323:emWin/GUI_Demo/GUIDEMO_Listview.c ****   unsigned ColoredRow   = 0;
 337              		.loc 1 323 3 view .LVU75
 324:emWin/GUI_Demo/GUIDEMO_Listview.c ****   unsigned i, NumRows;
 338              		.loc 1 324 3 view .LVU76
 325:emWin/GUI_Demo/GUIDEMO_Listview.c ****   int      ColorIndex   = 0;
 339              		.loc 1 325 3 view .LVU77
 326:emWin/GUI_Demo/GUIDEMO_Listview.c ****   int      Reverse      = 0;
 340              		.loc 1 326 3 view .LVU78
 327:emWin/GUI_Demo/GUIDEMO_Listview.c ****   int      SortedColumn = -1;
 341              		.loc 1 327 3 view .LVU79
 328:emWin/GUI_Demo/GUIDEMO_Listview.c ****   int      Index;
 342              		.loc 1 328 3 view .LVU80
 329:emWin/GUI_Demo/GUIDEMO_Listview.c **** 
 330:emWin/GUI_Demo/GUIDEMO_Listview.c ****   Index = 0;
 343              		.loc 1 330 3 view .LVU81
 344              		.loc 1 330 9 is_stmt 0 view .LVU82
 345 0008 0024     		movs	r4, #0
 327:emWin/GUI_Demo/GUIDEMO_Listview.c ****   int      Index;
 346              		.loc 1 327 12 view .LVU83
 347 000a 4FF0FF3B 		mov	fp, #-1
 326:emWin/GUI_Demo/GUIDEMO_Listview.c ****   int      SortedColumn = -1;
 348              		.loc 1 326 12 view .LVU84
 349 000e 0394     		str	r4, [sp, #12]
 325:emWin/GUI_Demo/GUIDEMO_Listview.c ****   int      Reverse      = 0;
 350              		.loc 1 325 12 view .LVU85
 351 0010 A046     		mov	r8, r4
 323:emWin/GUI_Demo/GUIDEMO_Listview.c ****   unsigned i, NumRows;
 352              		.loc 1 323 12 view .LVU86
 353 0012 2746     		mov	r7, r4
 322:emWin/GUI_Demo/GUIDEMO_Listview.c ****   unsigned ColoredRow   = 0;
 354              		.loc 1 322 12 view .LVU87
 355 0014 2646     		mov	r6, r4
 356 0016 52E0     		b	.L36
 357              	.LVL35:
 358              	.L21:
ARM GAS  C:\Users\gx\AppData\Local\Temp\cckFEPXy.s 			page 14


 331:emWin/GUI_Demo/GUIDEMO_Listview.c ****   do {
 332:emWin/GUI_Demo/GUIDEMO_Listview.c ****     if (_aAction[Index].pDescription) {
 333:emWin/GUI_Demo/GUIDEMO_Listview.c ****       GUIDEMO_ShowInfo(_aAction[Index].pDescription);
 334:emWin/GUI_Demo/GUIDEMO_Listview.c ****     }
 335:emWin/GUI_Demo/GUIDEMO_Listview.c ****     switch (_aAction[Index].Job) {
 336:emWin/GUI_Demo/GUIDEMO_Listview.c ****     case JOB_COLOR:
 337:emWin/GUI_Demo/GUIDEMO_Listview.c ****       NumRows = LISTVIEW_GetNumRows(hList);
 359              		.loc 1 337 7 is_stmt 1 view .LVU88
 360              		.loc 1 337 17 is_stmt 0 view .LVU89
 361 0018 2846     		mov	r0, r5
 362 001a FFF7FEFF 		bl	LISTVIEW_GetNumRows
 363              	.LVL36:
 364 001e 8246     		mov	r10, r0
 365              	.LVL37:
 338:emWin/GUI_Demo/GUIDEMO_Listview.c ****       for (i = 0; i < NumRows; i++) {
 366              		.loc 1 338 7 is_stmt 1 view .LVU90
 367              		.loc 1 338 14 is_stmt 0 view .LVU91
 368 0020 4FF00009 		mov	r9, #0
 369              		.loc 1 338 7 view .LVU92
 370 0024 06E0     		b	.L28
 371              	.LVL38:
 372              	.L44:
 339:emWin/GUI_Demo/GUIDEMO_Listview.c ****         LISTVIEW_SetItemBkColor(hList, ColoredCol, ColoredRow, LISTVIEW_CI_UNSEL, _aColor[ColorInde
 340:emWin/GUI_Demo/GUIDEMO_Listview.c ****         if (++ColorIndex == GUI_COUNTOF(_aColor)) {
 341:emWin/GUI_Demo/GUIDEMO_Listview.c ****           ColorIndex = 0;
 373              		.loc 1 341 22 view .LVU93
 374 0026 4FF00008 		mov	r8, #0
 375              	.LVL39:
 376              		.loc 1 341 22 view .LVU94
 377 002a 14E0     		b	.L29
 378              	.LVL40:
 379              	.L45:
 342:emWin/GUI_Demo/GUIDEMO_Listview.c ****         }
 343:emWin/GUI_Demo/GUIDEMO_Listview.c ****         if (++ColoredCol == LISTVIEW_GetNumColumns(hList)) {
 344:emWin/GUI_Demo/GUIDEMO_Listview.c ****           ColoredCol = 0;
 380              		.loc 1 344 22 view .LVU95
 381 002c 0026     		movs	r6, #0
 382              	.LVL41:
 383              		.loc 1 344 22 view .LVU96
 384 002e 18E0     		b	.L30
 385              	.LVL42:
 386              	.L31:
 338:emWin/GUI_Demo/GUIDEMO_Listview.c ****         LISTVIEW_SetItemBkColor(hList, ColoredCol, ColoredRow, LISTVIEW_CI_UNSEL, _aColor[ColorInde
 387              		.loc 1 338 32 is_stmt 1 discriminator 2 view .LVU97
 338:emWin/GUI_Demo/GUIDEMO_Listview.c ****         LISTVIEW_SetItemBkColor(hList, ColoredCol, ColoredRow, LISTVIEW_CI_UNSEL, _aColor[ColorInde
 388              		.loc 1 338 33 is_stmt 0 discriminator 2 view .LVU98
 389 0030 09F10109 		add	r9, r9, #1
 390              	.LVL43:
 391              	.L28:
 338:emWin/GUI_Demo/GUIDEMO_Listview.c ****         LISTVIEW_SetItemBkColor(hList, ColoredCol, ColoredRow, LISTVIEW_CI_UNSEL, _aColor[ColorInde
 392              		.loc 1 338 19 is_stmt 1 discriminator 1 view .LVU99
 338:emWin/GUI_Demo/GUIDEMO_Listview.c ****         LISTVIEW_SetItemBkColor(hList, ColoredCol, ColoredRow, LISTVIEW_CI_UNSEL, _aColor[ColorInde
 393              		.loc 1 338 7 is_stmt 0 discriminator 1 view .LVU100
 394 0034 D145     		cmp	r9, r10
 395 0036 34D2     		bcs	.L20
 339:emWin/GUI_Demo/GUIDEMO_Listview.c ****         LISTVIEW_SetItemBkColor(hList, ColoredCol, ColoredRow, LISTVIEW_CI_UNSEL, _aColor[ColorInde
 396              		.loc 1 339 9 is_stmt 1 view .LVU101
ARM GAS  C:\Users\gx\AppData\Local\Temp\cckFEPXy.s 			page 15


 397 0038 3F4B     		ldr	r3, .L47
 398 003a 53F82830 		ldr	r3, [r3, r8, lsl #2]
 399 003e 0093     		str	r3, [sp]
 400 0040 0023     		movs	r3, #0
 401 0042 3A46     		mov	r2, r7
 402 0044 3146     		mov	r1, r6
 403 0046 2846     		mov	r0, r5
 404 0048 FFF7FEFF 		bl	LISTVIEW_SetItemBkColor
 405              	.LVL44:
 340:emWin/GUI_Demo/GUIDEMO_Listview.c ****           ColorIndex = 0;
 406              		.loc 1 340 9 view .LVU102
 340:emWin/GUI_Demo/GUIDEMO_Listview.c ****           ColorIndex = 0;
 407              		.loc 1 340 12 is_stmt 0 view .LVU103
 408 004c 08F10108 		add	r8, r8, #1
 409              	.LVL45:
 340:emWin/GUI_Demo/GUIDEMO_Listview.c ****           ColorIndex = 0;
 410              		.loc 1 340 12 view .LVU104
 411 0050 B8F1180F 		cmp	r8, #24
 412 0054 E7D0     		beq	.L44
 413              	.LVL46:
 414              	.L29:
 343:emWin/GUI_Demo/GUIDEMO_Listview.c ****           ColoredCol = 0;
 415              		.loc 1 343 9 is_stmt 1 view .LVU105
 343:emWin/GUI_Demo/GUIDEMO_Listview.c ****           ColoredCol = 0;
 416              		.loc 1 343 12 is_stmt 0 view .LVU106
 417 0056 0136     		adds	r6, r6, #1
 418              	.LVL47:
 343:emWin/GUI_Demo/GUIDEMO_Listview.c ****           ColoredCol = 0;
 419              		.loc 1 343 29 view .LVU107
 420 0058 2846     		mov	r0, r5
 421 005a FFF7FEFF 		bl	LISTVIEW_GetNumColumns
 422              	.LVL48:
 343:emWin/GUI_Demo/GUIDEMO_Listview.c ****           ColoredCol = 0;
 423              		.loc 1 343 12 view .LVU108
 424 005e B042     		cmp	r0, r6
 425 0060 E4D0     		beq	.L45
 426              	.LVL49:
 427              	.L30:
 345:emWin/GUI_Demo/GUIDEMO_Listview.c ****         }
 346:emWin/GUI_Demo/GUIDEMO_Listview.c ****         if (++ColoredRow == NumRows) {
 428              		.loc 1 346 9 is_stmt 1 view .LVU109
 429              		.loc 1 346 12 is_stmt 0 view .LVU110
 430 0062 0137     		adds	r7, r7, #1
 431              	.LVL50:
 432              		.loc 1 346 12 view .LVU111
 433 0064 BA45     		cmp	r10, r7
 434 0066 E3D1     		bne	.L31
 347:emWin/GUI_Demo/GUIDEMO_Listview.c ****           ColoredRow = 0;
 435              		.loc 1 347 22 view .LVU112
 436 0068 0027     		movs	r7, #0
 437              	.LVL51:
 438              		.loc 1 347 22 view .LVU113
 439 006a E1E7     		b	.L31
 440              	.LVL52:
 441              	.L24:
 348:emWin/GUI_Demo/GUIDEMO_Listview.c ****         }
 349:emWin/GUI_Demo/GUIDEMO_Listview.c ****       }
ARM GAS  C:\Users\gx\AppData\Local\Temp\cckFEPXy.s 			page 16


 350:emWin/GUI_Demo/GUIDEMO_Listview.c ****       break;
 351:emWin/GUI_Demo/GUIDEMO_Listview.c ****     case JOB_INCSEL:
 352:emWin/GUI_Demo/GUIDEMO_Listview.c ****       LISTVIEW_IncSel(hList);
 442              		.loc 1 352 7 is_stmt 1 view .LVU114
 443 006c 2846     		mov	r0, r5
 444 006e FFF7FEFF 		bl	LISTVIEW_IncSel
 445              	.LVL53:
 353:emWin/GUI_Demo/GUIDEMO_Listview.c ****       break;
 446              		.loc 1 353 7 view .LVU115
 447 0072 16E0     		b	.L20
 448              	.L23:
 354:emWin/GUI_Demo/GUIDEMO_Listview.c ****     case JOB_DECSEL:
 355:emWin/GUI_Demo/GUIDEMO_Listview.c ****       LISTVIEW_DecSel(hList);
 449              		.loc 1 355 7 view .LVU116
 450 0074 2846     		mov	r0, r5
 451 0076 FFF7FEFF 		bl	LISTVIEW_DecSel
 452              	.LVL54:
 356:emWin/GUI_Demo/GUIDEMO_Listview.c ****       break;
 453              		.loc 1 356 7 view .LVU117
 454 007a 12E0     		b	.L20
 455              	.L25:
 357:emWin/GUI_Demo/GUIDEMO_Listview.c ****     case JOB_REVERSE:
 358:emWin/GUI_Demo/GUIDEMO_Listview.c ****       Reverse ^= 1;
 456              		.loc 1 358 7 view .LVU118
 457              		.loc 1 358 15 is_stmt 0 view .LVU119
 458 007c 039B     		ldr	r3, [sp, #12]
 459 007e 83F00103 		eor	r3, r3, #1
 460 0082 0393     		str	r3, [sp, #12]
 461              	.LVL55:
 359:emWin/GUI_Demo/GUIDEMO_Listview.c ****       LISTVIEW_SetSort(hList, SortedColumn, Reverse);
 462              		.loc 1 359 7 is_stmt 1 view .LVU120
 463 0084 1A46     		mov	r2, r3
 464 0086 5946     		mov	r1, fp
 465 0088 2846     		mov	r0, r5
 466 008a FFF7FEFF 		bl	LISTVIEW_SetSort
 467              	.LVL56:
 360:emWin/GUI_Demo/GUIDEMO_Listview.c ****       break;
 468              		.loc 1 360 7 view .LVU121
 469 008e 08E0     		b	.L20
 470              	.LVL57:
 471              	.L33:
 361:emWin/GUI_Demo/GUIDEMO_Listview.c ****     case JOB_ADDROWS:
 362:emWin/GUI_Demo/GUIDEMO_Listview.c ****       for (i = 0; i < 40; i++) {
 363:emWin/GUI_Demo/GUIDEMO_Listview.c ****         _AddRow(hList, 0);
 472              		.loc 1 363 9 discriminator 3 view .LVU122
 473 0090 0021     		movs	r1, #0
 474 0092 2846     		mov	r0, r5
 475 0094 FFF7FEFF 		bl	_AddRow
 476              	.LVL58:
 362:emWin/GUI_Demo/GUIDEMO_Listview.c ****         _AddRow(hList, 0);
 477              		.loc 1 362 27 discriminator 3 view .LVU123
 362:emWin/GUI_Demo/GUIDEMO_Listview.c ****         _AddRow(hList, 0);
 478              		.loc 1 362 28 is_stmt 0 discriminator 3 view .LVU124
 479 0098 09F10109 		add	r9, r9, #1
 480              	.LVL59:
 481              	.L27:
 362:emWin/GUI_Demo/GUIDEMO_Listview.c ****         _AddRow(hList, 0);
ARM GAS  C:\Users\gx\AppData\Local\Temp\cckFEPXy.s 			page 17


 482              		.loc 1 362 19 is_stmt 1 discriminator 1 view .LVU125
 362:emWin/GUI_Demo/GUIDEMO_Listview.c ****         _AddRow(hList, 0);
 483              		.loc 1 362 7 is_stmt 0 discriminator 1 view .LVU126
 484 009c B9F1270F 		cmp	r9, #39
 485 00a0 F6D9     		bls	.L33
 486              	.LVL60:
 487              	.L20:
 364:emWin/GUI_Demo/GUIDEMO_Listview.c ****       }
 365:emWin/GUI_Demo/GUIDEMO_Listview.c ****       break;
 366:emWin/GUI_Demo/GUIDEMO_Listview.c ****     case JOB_SETSORT:
 367:emWin/GUI_Demo/GUIDEMO_Listview.c ****       if (SortedColumn == -1) {
 368:emWin/GUI_Demo/GUIDEMO_Listview.c ****         SortedColumn = 0;
 369:emWin/GUI_Demo/GUIDEMO_Listview.c ****       } else {
 370:emWin/GUI_Demo/GUIDEMO_Listview.c ****         SortedColumn++;
 371:emWin/GUI_Demo/GUIDEMO_Listview.c ****         if (SortedColumn == (int)LISTVIEW_GetNumColumns(hList)) {
 372:emWin/GUI_Demo/GUIDEMO_Listview.c ****           SortedColumn = 0;
 373:emWin/GUI_Demo/GUIDEMO_Listview.c ****         }
 374:emWin/GUI_Demo/GUIDEMO_Listview.c ****       }
 375:emWin/GUI_Demo/GUIDEMO_Listview.c ****       LISTVIEW_SetSort(hList, SortedColumn, Reverse);
 376:emWin/GUI_Demo/GUIDEMO_Listview.c ****       break;
 377:emWin/GUI_Demo/GUIDEMO_Listview.c ****     }
 378:emWin/GUI_Demo/GUIDEMO_Listview.c ****     GUI_Delay(_aAction[Index].Delay);
 488              		.loc 1 378 5 is_stmt 1 view .LVU127
 489 00a2 04EB4402 		add	r2, r4, r4, lsl #1
 490 00a6 254B     		ldr	r3, .L47+4
 491 00a8 53F82200 		ldr	r0, [r3, r2, lsl #2]
 492 00ac FFF7FEFF 		bl	GUI_Delay
 493              	.LVL61:
 379:emWin/GUI_Demo/GUIDEMO_Listview.c ****   } while ((++Index < GUI_COUNTOF(_aAction)) && (GUIDEMO_CheckCancel() == 0));
 494              		.loc 1 379 11 view .LVU128
 495              		.loc 1 379 3 is_stmt 0 view .LVU129
 496 00b0 0134     		adds	r4, r4, #1
 497              	.LVL62:
 498              		.loc 1 379 3 view .LVU130
 499 00b2 202C     		cmp	r4, #32
 500 00b4 3CD8     		bhi	.L18
 501              		.loc 1 379 50 discriminator 1 view .LVU131
 502 00b6 FFF7FEFF 		bl	GUIDEMO_CheckCancel
 503              	.LVL63:
 504              		.loc 1 379 46 discriminator 1 view .LVU132
 505 00ba 0028     		cmp	r0, #0
 506 00bc 38D1     		bne	.L18
 507              	.LVL64:
 508              	.L36:
 331:emWin/GUI_Demo/GUIDEMO_Listview.c ****     if (_aAction[Index].pDescription) {
 509              		.loc 1 331 3 is_stmt 1 view .LVU133
 332:emWin/GUI_Demo/GUIDEMO_Listview.c ****       GUIDEMO_ShowInfo(_aAction[Index].pDescription);
 510              		.loc 1 332 5 view .LVU134
 332:emWin/GUI_Demo/GUIDEMO_Listview.c ****       GUIDEMO_ShowInfo(_aAction[Index].pDescription);
 511              		.loc 1 332 24 is_stmt 0 view .LVU135
 512 00be 04EB4403 		add	r3, r4, r4, lsl #1
 513 00c2 1E4A     		ldr	r2, .L47+4
 514 00c4 02EB8303 		add	r3, r2, r3, lsl #2
 515 00c8 9868     		ldr	r0, [r3, #8]
 332:emWin/GUI_Demo/GUIDEMO_Listview.c ****       GUIDEMO_ShowInfo(_aAction[Index].pDescription);
 516              		.loc 1 332 8 view .LVU136
 517 00ca 08B1     		cbz	r0, .L19
ARM GAS  C:\Users\gx\AppData\Local\Temp\cckFEPXy.s 			page 18


 333:emWin/GUI_Demo/GUIDEMO_Listview.c ****     }
 518              		.loc 1 333 7 is_stmt 1 view .LVU137
 519 00cc FFF7FEFF 		bl	GUIDEMO_ShowInfo
 520              	.LVL65:
 521              	.L19:
 335:emWin/GUI_Demo/GUIDEMO_Listview.c ****     case JOB_COLOR:
 522              		.loc 1 335 5 view .LVU138
 335:emWin/GUI_Demo/GUIDEMO_Listview.c ****     case JOB_COLOR:
 523              		.loc 1 335 28 is_stmt 0 view .LVU139
 524 00d0 04EB4403 		add	r3, r4, r4, lsl #1
 525 00d4 194A     		ldr	r2, .L47+4
 526 00d6 02EB8303 		add	r3, r2, r3, lsl #2
 527 00da 5B68     		ldr	r3, [r3, #4]
 528 00dc 013B     		subs	r3, r3, #1
 529 00de 052B     		cmp	r3, #5
 530 00e0 DFD8     		bhi	.L20
 531 00e2 01A2     		adr	r2, .L22
 532 00e4 52F823F0 		ldr	pc, [r2, r3, lsl #2]
 533              		.p2align 2
 534              	.L22:
 535 00e8 01010000 		.word	.L37+1
 536 00ec 07010000 		.word	.L26+1
 537 00f0 7D000000 		.word	.L25+1
 538 00f4 6D000000 		.word	.L24+1
 539 00f8 75000000 		.word	.L23+1
 540 00fc 19000000 		.word	.L21+1
 541              		.p2align 1
 542              	.L37:
 543 0100 4FF00009 		mov	r9, #0
 544 0104 CAE7     		b	.L27
 545              	.L26:
 367:emWin/GUI_Demo/GUIDEMO_Listview.c ****         SortedColumn = 0;
 546              		.loc 1 367 7 is_stmt 1 view .LVU140
 367:emWin/GUI_Demo/GUIDEMO_Listview.c ****         SortedColumn = 0;
 547              		.loc 1 367 10 is_stmt 0 view .LVU141
 548 0106 BBF1FF3F 		cmp	fp, #-1
 549 010a 07D1     		bne	.L46
 368:emWin/GUI_Demo/GUIDEMO_Listview.c ****       } else {
 550              		.loc 1 368 22 view .LVU142
 551 010c 4FF0000B 		mov	fp, #0
 552              	.LVL66:
 553              	.L34:
 375:emWin/GUI_Demo/GUIDEMO_Listview.c ****       break;
 554              		.loc 1 375 7 is_stmt 1 view .LVU143
 555 0110 039A     		ldr	r2, [sp, #12]
 556 0112 5946     		mov	r1, fp
 557 0114 2846     		mov	r0, r5
 558 0116 FFF7FEFF 		bl	LISTVIEW_SetSort
 559              	.LVL67:
 376:emWin/GUI_Demo/GUIDEMO_Listview.c ****     }
 560              		.loc 1 376 7 view .LVU144
 561 011a C2E7     		b	.L20
 562              	.L46:
 370:emWin/GUI_Demo/GUIDEMO_Listview.c ****         if (SortedColumn == (int)LISTVIEW_GetNumColumns(hList)) {
 563              		.loc 1 370 9 view .LVU145
 370:emWin/GUI_Demo/GUIDEMO_Listview.c ****         if (SortedColumn == (int)LISTVIEW_GetNumColumns(hList)) {
 564              		.loc 1 370 21 is_stmt 0 view .LVU146
ARM GAS  C:\Users\gx\AppData\Local\Temp\cckFEPXy.s 			page 19


 565 011c 0BF1010B 		add	fp, fp, #1
 566              	.LVL68:
 371:emWin/GUI_Demo/GUIDEMO_Listview.c ****           SortedColumn = 0;
 567              		.loc 1 371 9 is_stmt 1 view .LVU147
 371:emWin/GUI_Demo/GUIDEMO_Listview.c ****           SortedColumn = 0;
 568              		.loc 1 371 34 is_stmt 0 view .LVU148
 569 0120 2846     		mov	r0, r5
 570 0122 FFF7FEFF 		bl	LISTVIEW_GetNumColumns
 571              	.LVL69:
 371:emWin/GUI_Demo/GUIDEMO_Listview.c ****           SortedColumn = 0;
 572              		.loc 1 371 12 view .LVU149
 573 0126 5845     		cmp	r0, fp
 574 0128 F2D1     		bne	.L34
 372:emWin/GUI_Demo/GUIDEMO_Listview.c ****         }
 575              		.loc 1 372 24 view .LVU150
 576 012a 4FF0000B 		mov	fp, #0
 577              	.LVL70:
 372:emWin/GUI_Demo/GUIDEMO_Listview.c ****         }
 578              		.loc 1 372 24 view .LVU151
 579 012e EFE7     		b	.L34
 580              	.LVL71:
 581              	.L18:
 380:emWin/GUI_Demo/GUIDEMO_Listview.c **** }
 582              		.loc 1 380 1 view .LVU152
 583 0130 05B0     		add	sp, sp, #20
 584              	.LCFI7:
 585              		.cfi_def_cfa_offset 36
 586              		@ sp needed
 587 0132 BDE8F08F 		pop	{r4, r5, r6, r7, r8, r9, r10, fp, pc}
 588              	.LVL72:
 589              	.L48:
 590              		.loc 1 380 1 view .LVU153
 591 0136 00BF     		.align	2
 592              	.L47:
 593 0138 00000000 		.word	.LANCHOR3
 594 013c 00000000 		.word	.LANCHOR2
 595              		.cfi_endproc
 596              	.LFE5:
 598              		.section	.text._DemoListview,"ax",%progbits
 599              		.align	1
 600              		.syntax unified
 601              		.thumb
 602              		.thumb_func
 603              		.fpu fpv4-sp-d16
 605              	_DemoListview:
 606              	.LFB6:
 381:emWin/GUI_Demo/GUIDEMO_Listview.c **** 
 382:emWin/GUI_Demo/GUIDEMO_Listview.c **** /*********************************************************************
 383:emWin/GUI_Demo/GUIDEMO_Listview.c **** *
 384:emWin/GUI_Demo/GUIDEMO_Listview.c **** *       _DemoListview
 385:emWin/GUI_Demo/GUIDEMO_Listview.c **** */
 386:emWin/GUI_Demo/GUIDEMO_Listview.c **** static void _DemoListview(void) {
 607              		.loc 1 386 33 is_stmt 1 view -0
 608              		.cfi_startproc
 609              		@ args = 0, pretend = 0, frame = 0
 610              		@ frame_needed = 0, uses_anonymous_args = 0
 611 0000 70B5     		push	{r4, r5, r6, lr}
ARM GAS  C:\Users\gx\AppData\Local\Temp\cckFEPXy.s 			page 20


 612              	.LCFI8:
 613              		.cfi_def_cfa_offset 16
 614              		.cfi_offset 4, -16
 615              		.cfi_offset 5, -12
 616              		.cfi_offset 6, -8
 617              		.cfi_offset 14, -4
 618 0002 84B0     		sub	sp, sp, #16
 619              	.LCFI9:
 620              		.cfi_def_cfa_offset 32
 387:emWin/GUI_Demo/GUIDEMO_Listview.c ****   WM_HWIN hList;
 621              		.loc 1 387 3 view .LVU155
 388:emWin/GUI_Demo/GUIDEMO_Listview.c ****   int     xSize, ySize, xSpace, ySpace;
 622              		.loc 1 388 3 view .LVU156
 389:emWin/GUI_Demo/GUIDEMO_Listview.c **** 
 390:emWin/GUI_Demo/GUIDEMO_Listview.c ****   xSize  = LCD_GetXSize();
 623              		.loc 1 390 3 view .LVU157
 624              		.loc 1 390 12 is_stmt 0 view .LVU158
 625 0004 FFF7FEFF 		bl	LCD_GetXSize
 626              	.LVL73:
 627 0008 0446     		mov	r4, r0
 628              	.LVL74:
 391:emWin/GUI_Demo/GUIDEMO_Listview.c ****   ySize  = LCD_GetYSize();
 629              		.loc 1 391 3 is_stmt 1 view .LVU159
 630              		.loc 1 391 12 is_stmt 0 view .LVU160
 631 000a FFF7FEFF 		bl	LCD_GetYSize
 632              	.LVL75:
 392:emWin/GUI_Demo/GUIDEMO_Listview.c ****   if ((CONTROL_SIZE_X + MIN_SPACE) < ((xSize - LISTVIEW_SIZE_X) >> 1)) {
 633              		.loc 1 392 3 is_stmt 1 view .LVU161
 634              		.loc 1 392 46 is_stmt 0 view .LVU162
 635 000e A4F1D203 		sub	r3, r4, #210
 636              		.loc 1 392 65 view .LVU163
 637 0012 5E10     		asrs	r6, r3, #1
 638              		.loc 1 392 6 view .LVU164
 639 0014 AB2B     		cmp	r3, #171
 640 0016 02DC     		bgt	.L50
 393:emWin/GUI_Demo/GUIDEMO_Listview.c ****     xSpace = (xSize - LISTVIEW_SIZE_X) >> 1;
 394:emWin/GUI_Demo/GUIDEMO_Listview.c ****   } else {
 395:emWin/GUI_Demo/GUIDEMO_Listview.c ****     xSpace = (xSize - LISTVIEW_SIZE_X - CONTROL_SIZE_X) >> 1;
 641              		.loc 1 395 5 is_stmt 1 view .LVU165
 642              		.loc 1 395 39 is_stmt 0 view .LVU166
 643 0018 A4F59174 		sub	r4, r4, #290
 644              	.LVL76:
 645              		.loc 1 395 12 view .LVU167
 646 001c 6610     		asrs	r6, r4, #1
 647              	.LVL77:
 648              	.L50:
 396:emWin/GUI_Demo/GUIDEMO_Listview.c ****   }
 397:emWin/GUI_Demo/GUIDEMO_Listview.c ****   ySpace = (ySize - INFO_SIZE_Y) >> 3;
 649              		.loc 1 397 3 is_stmt 1 view .LVU168
 650              		.loc 1 397 19 is_stmt 0 view .LVU169
 651 001e 4138     		subs	r0, r0, #65
 652              	.LVL78:
 653              		.loc 1 397 10 view .LVU170
 654 0020 C510     		asrs	r5, r0, #3
 655              	.LVL79:
 398:emWin/GUI_Demo/GUIDEMO_Listview.c ****   hList  = LISTVIEW_CreateEx(xSpace+30, ySpace+40, LISTVIEW_SIZE_X, ySize - INFO_SIZE_Y - (ySpace <
 656              		.loc 1 398 3 is_stmt 1 view .LVU171
ARM GAS  C:\Users\gx\AppData\Local\Temp\cckFEPXy.s 			page 21


 657              		.loc 1 398 89 is_stmt 0 view .LVU172
 658 0022 A0EB4504 		sub	r4, r0, r5, lsl #1
 659              		.loc 1 398 12 view .LVU173
 660 0026 FFF7FEFF 		bl	WM_GetDesktopWindow
 661              	.LVL80:
 662              		.loc 1 398 12 view .LVU174
 663 002a 4FF40073 		mov	r3, #512
 664 002e 0393     		str	r3, [sp, #12]
 665 0030 0023     		movs	r3, #0
 666 0032 0293     		str	r3, [sp, #8]
 667 0034 0223     		movs	r3, #2
 668 0036 0193     		str	r3, [sp, #4]
 669 0038 0090     		str	r0, [sp]
 670 003a A4F10A03 		sub	r3, r4, #10
 671 003e D222     		movs	r2, #210
 672 0040 05F12801 		add	r1, r5, #40
 673 0044 06F11E00 		add	r0, r6, #30
 674 0048 FFF7FEFF 		bl	LISTVIEW_CreateEx
 675              	.LVL81:
 676 004c 0446     		mov	r4, r0
 677              	.LVL82:
 399:emWin/GUI_Demo/GUIDEMO_Listview.c ****   WM_SetFocus(hList);
 678              		.loc 1 399 3 is_stmt 1 view .LVU175
 679 004e FFF7FEFF 		bl	WM_SetFocus
 680              	.LVL83:
 400:emWin/GUI_Demo/GUIDEMO_Listview.c ****   _InitListview(hList);
 681              		.loc 1 400 3 view .LVU176
 682 0052 2046     		mov	r0, r4
 683 0054 FFF7FEFF 		bl	_InitListview
 684              	.LVL84:
 401:emWin/GUI_Demo/GUIDEMO_Listview.c ****   _Action(hList);
 685              		.loc 1 401 3 view .LVU177
 686 0058 2046     		mov	r0, r4
 687 005a FFF7FEFF 		bl	_Action
 688              	.LVL85:
 402:emWin/GUI_Demo/GUIDEMO_Listview.c ****   WM_DeleteWindow(hList);
 689              		.loc 1 402 3 view .LVU178
 690 005e 2046     		mov	r0, r4
 691 0060 FFF7FEFF 		bl	WM_DeleteWindow
 692              	.LVL86:
 403:emWin/GUI_Demo/GUIDEMO_Listview.c **** }
 693              		.loc 1 403 1 is_stmt 0 view .LVU179
 694 0064 04B0     		add	sp, sp, #16
 695              	.LCFI10:
 696              		.cfi_def_cfa_offset 16
 697              		@ sp needed
 698 0066 70BD     		pop	{r4, r5, r6, pc}
 699              		.loc 1 403 1 view .LVU180
 700              		.cfi_endproc
 701              	.LFE6:
 703              		.section	.rodata.GUIDEMO_Listview.str1.4,"aMS",%progbits,1
 704              		.align	2
 705              	.LC1:
 706 0000 53686F77 		.ascii	"Shows some features of\012the LISTVEW widget\000"
 706      7320736F 
 706      6D652066 
 706      65617475 
ARM GAS  C:\Users\gx\AppData\Local\Temp\cckFEPXy.s 			page 22


 706      72657320 
 707 002a 0000     		.align	2
 708              	.LC2:
 709 002c 4C697374 		.ascii	"Listview demo\000"
 709      76696577 
 709      2064656D 
 709      6F00
 710              		.section	.text.GUIDEMO_Listview,"ax",%progbits
 711              		.align	1
 712              		.global	GUIDEMO_Listview
 713              		.syntax unified
 714              		.thumb
 715              		.thumb_func
 716              		.fpu fpv4-sp-d16
 718              	GUIDEMO_Listview:
 719              	.LFB7:
 404:emWin/GUI_Demo/GUIDEMO_Listview.c **** 
 405:emWin/GUI_Demo/GUIDEMO_Listview.c **** /*********************************************************************
 406:emWin/GUI_Demo/GUIDEMO_Listview.c **** *
 407:emWin/GUI_Demo/GUIDEMO_Listview.c **** *       Public code
 408:emWin/GUI_Demo/GUIDEMO_Listview.c **** *
 409:emWin/GUI_Demo/GUIDEMO_Listview.c **** **********************************************************************
 410:emWin/GUI_Demo/GUIDEMO_Listview.c **** */
 411:emWin/GUI_Demo/GUIDEMO_Listview.c **** /*********************************************************************
 412:emWin/GUI_Demo/GUIDEMO_Listview.c **** *
 413:emWin/GUI_Demo/GUIDEMO_Listview.c **** *       GUIDEMO_Listview
 414:emWin/GUI_Demo/GUIDEMO_Listview.c **** */
 415:emWin/GUI_Demo/GUIDEMO_Listview.c **** void GUIDEMO_Listview(void) {
 720              		.loc 1 415 29 is_stmt 1 view -0
 721              		.cfi_startproc
 722              		@ args = 0, pretend = 0, frame = 0
 723              		@ frame_needed = 0, uses_anonymous_args = 0
 724 0000 08B5     		push	{r3, lr}
 725              	.LCFI11:
 726              		.cfi_def_cfa_offset 8
 727              		.cfi_offset 3, -8
 728              		.cfi_offset 14, -4
 416:emWin/GUI_Demo/GUIDEMO_Listview.c ****   GUIDEMO_ShowIntro("Listview demo",
 729              		.loc 1 416 3 view .LVU182
 730 0002 0649     		ldr	r1, .L54
 731 0004 0648     		ldr	r0, .L54+4
 732 0006 FFF7FEFF 		bl	GUIDEMO_ShowIntro
 733              	.LVL87:
 417:emWin/GUI_Demo/GUIDEMO_Listview.c ****                     "Shows some features of\n"
 418:emWin/GUI_Demo/GUIDEMO_Listview.c ****                     "the LISTVEW widget");
 419:emWin/GUI_Demo/GUIDEMO_Listview.c ****   GUIDEMO_DrawBk(1);
 734              		.loc 1 419 3 view .LVU183
 735 000a 0120     		movs	r0, #1
 736 000c FFF7FEFF 		bl	GUIDEMO_DrawBk
 737              	.LVL88:
 420:emWin/GUI_Demo/GUIDEMO_Listview.c ****   GUIDEMO_ShowInfoWin();
 738              		.loc 1 420 3 view .LVU184
 739 0010 FFF7FEFF 		bl	GUIDEMO_ShowInfoWin
 740              	.LVL89:
 421:emWin/GUI_Demo/GUIDEMO_Listview.c ****   _DemoListview();
 741              		.loc 1 421 3 view .LVU185
 742 0014 FFF7FEFF 		bl	_DemoListview
ARM GAS  C:\Users\gx\AppData\Local\Temp\cckFEPXy.s 			page 23


 743              	.LVL90:
 422:emWin/GUI_Demo/GUIDEMO_Listview.c **** }
 744              		.loc 1 422 1 is_stmt 0 view .LVU186
 745 0018 08BD     		pop	{r3, pc}
 746              	.L55:
 747 001a 00BF     		.align	2
 748              	.L54:
 749 001c 00000000 		.word	.LC1
 750 0020 2C000000 		.word	.LC2
 751              		.cfi_endproc
 752              	.LFE7:
 754              		.section	.rodata.str1.4,"aMS",%progbits,1
 755              		.align	2
 756              	.LC3:
 757 0000 41646469 		.ascii	"Adding some rows\000"
 757      6E672073 
 757      6F6D6520 
 757      726F7773 
 757      00
 758 0011 000000   		.align	2
 759              	.LC4:
 760 0014 456E6162 		.ascii	"Enable sorting\000"
 760      6C652073 
 760      6F727469 
 760      6E6700
 761 0023 00       		.align	2
 762              	.LC5:
 763 0024 5573696E 		.ascii	"Using reverse/normal\012sorting order\000"
 763      67207265 
 763      76657273 
 763      652F6E6F 
 763      726D616C 
 764 0047 00       		.align	2
 765              	.LC6:
 766 0048 4368616E 		.ascii	"Changing selection\000"
 766      67696E67 
 766      2073656C 
 766      65637469 
 766      6F6E00
 767 005b 00       		.align	2
 768              	.LC7:
 769 005c 53657474 		.ascii	"Setting some\012individual colors\000"
 769      696E6720 
 769      736F6D65 
 769      0A696E64 
 769      69766964 
 770 007b 00       		.align	2
 771              	.LC8:
 772 007c 4E616D65 		.ascii	"Name\000"
 772      00
 773 0081 000000   		.align	2
 774              	.LC9:
 775 0084 436F6465 		.ascii	"Code\000"
 775      00
 776 0089 000000   		.align	2
 777              	.LC10:
 778 008c 42616C61 		.ascii	"Balance\000"
ARM GAS  C:\Users\gx\AppData\Local\Temp\cckFEPXy.s 			page 24


 778      6E636500 
 779              		.align	2
 780              	.LC11:
 781 0094 4164696E 		.ascii	"Adina\000"
 781      6100
 782 009a 0000     		.align	2
 783              	.LC12:
 784 009c 41646973 		.ascii	"Adis\000"
 784      00
 785 00a1 000000   		.align	2
 786              	.LC13:
 787 00a4 41696D65 		.ascii	"Aimee\000"
 787      6500
 788 00aa 0000     		.align	2
 789              	.LC14:
 790 00ac 416C6561 		.ascii	"Alea\000"
 790      00
 791 00b1 000000   		.align	2
 792              	.LC15:
 793 00b4 416C6573 		.ascii	"Alessio\000"
 793      73696F00 
 794              		.align	2
 795              	.LC16:
 796 00bc 416C6574 		.ascii	"Aletta\000"
 796      746100
 797 00c3 00       		.align	2
 798              	.LC17:
 799 00c4 416C6578 		.ascii	"Alexia\000"
 799      696100
 800 00cb 00       		.align	2
 801              	.LC18:
 802 00cc 416C6973 		.ascii	"Alissa\000"
 802      736100
 803 00d3 00       		.align	2
 804              	.LC19:
 805 00d4 416D656C 		.ascii	"Amelia\000"
 805      696100
 806 00db 00       		.align	2
 807              	.LC20:
 808 00dc 416E616B 		.ascii	"Anakin\000"
 808      696E00
 809 00e3 00       		.align	2
 810              	.LC21:
 811 00e4 416E6961 		.ascii	"Ania\000"
 811      00
 812 00e9 000000   		.align	2
 813              	.LC22:
 814 00ec 416E6B65 		.ascii	"Ankea\000"
 814      6100
 815 00f2 0000     		.align	2
 816              	.LC23:
 817 00f4 416E6E61 		.ascii	"Annalies\000"
 817      6C696573 
 817      00
 818 00fd 000000   		.align	2
 819              	.LC24:
 820 0100 416E6E69 		.ascii	"Annina\000"
ARM GAS  C:\Users\gx\AppData\Local\Temp\cckFEPXy.s 			page 25


 820      6E6100
 821 0107 00       		.align	2
 822              	.LC25:
 823 0108 416E6E72 		.ascii	"Annrike\000"
 823      696B6500 
 824              		.align	2
 825              	.LC26:
 826 0110 41726B61 		.ascii	"Arkadius\000"
 826      64697573 
 826      00
 827 0119 000000   		.align	2
 828              	.LC27:
 829 011c 41727669 		.ascii	"Arvin\000"
 829      6E00
 830 0122 0000     		.align	2
 831              	.LC28:
 832 0124 41757265 		.ascii	"Aurelia\000"
 832      6C696100 
 833              		.align	2
 834              	.LC29:
 835 012c 41766100 		.ascii	"Ava\000"
 836              		.align	2
 837              	.LC30:
 838 0130 4265656B 		.ascii	"Beeke\000"
 838      6500
 839 0136 0000     		.align	2
 840              	.LC31:
 841 0138 42656E69 		.ascii	"Benita\000"
 841      746100
 842 013f 00       		.align	2
 843              	.LC32:
 844 0140 42656E6E 		.ascii	"Bennit\000"
 844      697400
 845 0147 00       		.align	2
 846              	.LC33:
 847 0148 42656E74 		.ascii	"Bent\000"
 847      00
 848 014d 000000   		.align	2
 849              	.LC34:
 850 0150 42657265 		.ascii	"Berenike\000"
 850      6E696B65 
 850      00
 851 0159 000000   		.align	2
 852              	.LC35:
 853 015c 42657269 		.ascii	"Berit\000"
 853      7400
 854 0162 0000     		.align	2
 855              	.LC36:
 856 0164 4269726B 		.ascii	"Birk\000"
 856      00
 857 0169 000000   		.align	2
 858              	.LC37:
 859 016c 426F7373 		.ascii	"Bosse\000"
 859      6500
 860 0172 0000     		.align	2
 861              	.LC38:
 862 0174 43617273 		.ascii	"Carsta\000"
ARM GAS  C:\Users\gx\AppData\Local\Temp\cckFEPXy.s 			page 26


 862      746100
 863 017b 00       		.align	2
 864              	.LC39:
 865 017c 43617461 		.ascii	"Catalina\000"
 865      6C696E61 
 865      00
 866 0185 000000   		.align	2
 867              	.LC40:
 868 0188 43656C69 		.ascii	"Celia\000"
 868      6100
 869 018e 0000     		.align	2
 870              	.LC41:
 871 0190 43686172 		.ascii	"Charis\000"
 871      697300
 872 0197 00       		.align	2
 873              	.LC42:
 874 0198 43686172 		.ascii	"Charlin\000"
 874      6C696E00 
 875              		.align	2
 876              	.LC43:
 877 01a0 43686172 		.ascii	"Charlotta\000"
 877      6C6F7474 
 877      6100
 878 01aa 0000     		.align	2
 879              	.LC44:
 880 01ac 436F7264 		.ascii	"Cordelia\000"
 880      656C6961 
 880      00
 881 01b5 000000   		.align	2
 882              	.LC45:
 883 01b8 436F7265 		.ascii	"Corey\000"
 883      7900
 884 01be 0000     		.align	2
 885              	.LC46:
 886 01c0 436F726E 		.ascii	"Cornelis\000"
 886      656C6973 
 886      00
 887 01c9 000000   		.align	2
 888              	.LC47:
 889 01cc 436F7276 		.ascii	"Corvin\000"
 889      696E00
 890 01d3 00       		.align	2
 891              	.LC48:
 892 01d4 436F7369 		.ascii	"Cosima\000"
 892      6D6100
 893 01db 00       		.align	2
 894              	.LC49:
 895 01dc 43726973 		.ascii	"Crisula\000"
 895      756C6100 
 896              		.align	2
 897              	.LC50:
 898 01e4 44617269 		.ascii	"Darian\000"
 898      616E00
 899 01eb 00       		.align	2
 900              	.LC51:
 901 01ec 44617269 		.ascii	"Darina\000"
 901      6E6100
ARM GAS  C:\Users\gx\AppData\Local\Temp\cckFEPXy.s 			page 27


 902 01f3 00       		.align	2
 903              	.LC52:
 904 01f4 4465696B 		.ascii	"Deik\000"
 904      00
 905 01f9 000000   		.align	2
 906              	.LC53:
 907 01fc 44657265 		.ascii	"Derek\000"
 907      6B00
 908 0202 0000     		.align	2
 909              	.LC54:
 910 0204 44657374 		.ascii	"Destina\000"
 910      696E6100 
 911              		.align	2
 912              	.LC55:
 913 020c 44657669 		.ascii	"Devin\000"
 913      6E00
 914 0212 0000     		.align	2
 915              	.LC56:
 916 0214 4469616E 		.ascii	"Diane\000"
 916      6500
 917 021a 0000     		.align	2
 918              	.LC57:
 919 021c 44696E61 		.ascii	"Dina\000"
 919      00
 920 0221 000000   		.align	2
 921              	.LC58:
 922 0224 44696F6E 		.ascii	"Dion\000"
 922      00
 923 0229 000000   		.align	2
 924              	.LC59:
 925 022c 446F7265 		.ascii	"Dorette\000"
 925      74746500 
 926              		.align	2
 927              	.LC60:
 928 0234 446F726C 		.ascii	"Dorle\000"
 928      6500
 929 023a 0000     		.align	2
 930              	.LC61:
 931 023c 44756E63 		.ascii	"Duncan\000"
 931      616E00
 932 0243 00       		.align	2
 933              	.LC62:
 934 0244 45646479 		.ascii	"Eddy\000"
 934      00
 935 0249 000000   		.align	2
 936              	.LC63:
 937 024c 45696E61 		.ascii	"Einar\000"
 937      7200
 938 0252 0000     		.align	2
 939              	.LC64:
 940 0254 456C6561 		.ascii	"Elea\000"
 940      00
 941 0259 000000   		.align	2
 942              	.LC65:
 943 025c 456C696E 		.ascii	"Elin\000"
 943      00
 944 0261 000000   		.align	2
ARM GAS  C:\Users\gx\AppData\Local\Temp\cckFEPXy.s 			page 28


 945              	.LC66:
 946 0264 456C6974 		.ascii	"Elita\000"
 946      6100
 947 026a 0000     		.align	2
 948              	.LC67:
 949 026c 456C6F6E 		.ascii	"Elona\000"
 949      6100
 950 0272 0000     		.align	2
 951              	.LC68:
 952 0274 456C6F75 		.ascii	"Elouise\000"
 952      69736500 
 953              		.align	2
 954              	.LC69:
 955 027c 456D696C 		.ascii	"Emilian\000"
 955      69616E00 
 956              		.align	2
 957              	.LC70:
 958 0284 456D696E 		.ascii	"Emina\000"
 958      6100
 959 028a 0000     		.align	2
 960              	.LC71:
 961 028c 456D6D65 		.ascii	"Emmeline\000"
 961      6C696E65 
 961      00
 962 0295 000000   		.align	2
 963              	.LC72:
 964 0298 456E6E61 		.ascii	"Enna\000"
 964      00
 965 029d 000000   		.align	2
 966              	.LC73:
 967 02a0 45737465 		.ascii	"Estelle\000"
 967      6C6C6500 
 968              		.align	2
 969              	.LC74:
 970 02a8 45747461 		.ascii	"Etta\000"
 970      00
 971 02ad 000000   		.align	2
 972              	.LC75:
 973 02b0 46616269 		.ascii	"Fabiola\000"
 973      6F6C6100 
 974              		.align	2
 975              	.LC76:
 976 02b8 46616272 		.ascii	"Fabrice\000"
 976      69636500 
 977              		.align	2
 978              	.LC77:
 979 02c0 46616C6B 		.ascii	"Falko\000"
 979      6F00
 980 02c6 0000     		.align	2
 981              	.LC78:
 982 02c8 46656C69 		.ascii	"Felice\000"
 982      636500
 983 02cf 00       		.align	2
 984              	.LC79:
 985 02d0 46656C69 		.ascii	"Feline\000"
 985      6E6500
 986 02d7 00       		.align	2
ARM GAS  C:\Users\gx\AppData\Local\Temp\cckFEPXy.s 			page 29


 987              	.LC80:
 988 02d8 46656D6B 		.ascii	"Femke\000"
 988      6500
 989 02de 0000     		.align	2
 990              	.LC81:
 991 02e0 46696574 		.ascii	"Fiete\000"
 991      6500
 992 02e6 0000     		.align	2
 993              	.LC82:
 994 02e8 46696C69 		.ascii	"Filippa\000"
 994      70706100 
 995              		.align	2
 996              	.LC83:
 997 02f0 46696E65 		.ascii	"Fine\000"
 997      00
 998 02f5 000000   		.align	2
 999              	.LC84:
 1000 02f8 46696E69 		.ascii	"Finia\000"
 1000      6100
 1001 02fe 0000     		.align	2
 1002              	.LC85:
 1003 0300 46696E6C 		.ascii	"Finley\000"
 1003      657900
 1004 0307 00       		.align	2
 1005              	.LC86:
 1006 0308 466C6575 		.ascii	"Fleur\000"
 1006      7200
 1007 030e 0000     		.align	2
 1008              	.LC87:
 1009 0310 466C6F72 		.ascii	"FlorentineFlorenz\000"
 1009      656E7469 
 1009      6E65466C 
 1009      6F72656E 
 1009      7A00
 1010 0322 0000     		.align	2
 1011              	.LC88:
 1012 0324 466C6F72 		.ascii	"Florin\000"
 1012      696E00
 1013 032b 00       		.align	2
 1014              	.LC89:
 1015 032c 466C6F79 		.ascii	"Floyd\000"
 1015      6400
 1016 0332 0000     		.align	2
 1017              	.LC90:
 1018 0334 466F6B6B 		.ascii	"Fokko\000"
 1018      6F00
 1019 033a 0000     		.align	2
 1020              	.LC91:
 1021 033c 46726974 		.ascii	"Fritzi\000"
 1021      7A6900
 1022 0343 00       		.align	2
 1023              	.LC92:
 1024 0344 4765726F 		.ascii	"Gero\000"
 1024      00
 1025 0349 000000   		.align	2
 1026              	.LC93:
 1027 034c 47657272 		.ascii	"Gerret\000"
ARM GAS  C:\Users\gx\AppData\Local\Temp\cckFEPXy.s 			page 30


 1027      657400
 1028 0353 00       		.align	2
 1029              	.LC94:
 1030 0354 47657277 		.ascii	"Gerwin\000"
 1030      696E00
 1031 035b 00       		.align	2
 1032              	.LC95:
 1033 035c 47696465 		.ascii	"Gideon\000"
 1033      6F6E00
 1034 0363 00       		.align	2
 1035              	.LC96:
 1036 0364 47696C6C 		.ascii	"Gillian\000"
 1036      69616E00 
 1037              		.align	2
 1038              	.LC97:
 1039 036c 476C656E 		.ascii	"Glen\000"
 1039      00
 1040 0371 000000   		.align	2
 1041              	.LC98:
 1042 0374 47756E69 		.ascii	"Gunilla\000"
 1042      6C6C6100 
 1043              		.align	2
 1044              	.LC99:
 1045 037c 48616E6B 		.ascii	"Hanka\000"
 1045      6100
 1046 0382 0000     		.align	2
 1047              	.LC100:
 1048 0384 4865696E 		.ascii	"Heinke\000"
 1048      6B6500
 1049 038b 00       		.align	2
 1050              	.LC101:
 1051 038c 48656C6D 		.ascii	"Helmar\000"
 1051      617200
 1052 0393 00       		.align	2
 1053              	.LC102:
 1054 0394 48656E6E 		.ascii	"Henner\000"
 1054      657200
 1055 039b 00       		.align	2
 1056              	.LC103:
 1057 039c 48656E6E 		.ascii	"Hennes\000"
 1057      657300
 1058 03a3 00       		.align	2
 1059              	.LC104:
 1060 03a4 48656E72 		.ascii	"Henrieke\000"
 1060      69656B65 
 1060      00
 1061 03ad 000000   		.align	2
 1062              	.LC105:
 1063 03b0 496D6D6F 		.ascii	"Immo\000"
 1063      00
 1064 03b5 000000   		.align	2
 1065              	.LC106:
 1066 03b8 496E6469 		.ascii	"India\000"
 1066      6100
 1067 03be 0000     		.align	2
 1068              	.LC107:
 1069 03c0 4973616C 		.ascii	"Isalie\000"
ARM GAS  C:\Users\gx\AppData\Local\Temp\cckFEPXy.s 			page 31


 1069      696500
 1070 03c7 00       		.align	2
 1071              	.LC108:
 1072 03c8 4976656E 		.ascii	"Iven\000"
 1072      00
 1073 03cd 000000   		.align	2
 1074              	.LC109:
 1075 03d0 4A616465 		.ascii	"Jade\000"
 1075      00
 1076 03d5 000000   		.align	2
 1077              	.LC110:
 1078 03d8 4A616E69 		.ascii	"Janice\000"
 1078      636500
 1079 03df 00       		.align	2
 1080              	.LC111:
 1081 03e0 4A616E69 		.ascii	"Janika\000"
 1081      6B6100
 1082 03e7 00       		.align	2
 1083              	.LC112:
 1084 03e8 4A616E6B 		.ascii	"Janka\000"
 1084      6100
 1085 03ee 0000     		.align	2
 1086              	.LC113:
 1087 03f0 4A616E6E 		.ascii	"Janneke\000"
 1087      656B6500 
 1088              		.align	2
 1089              	.LC114:
 1090 03f8 4A616E6E 		.ascii	"Jannika\000"
 1090      696B6100 
 1091              		.align	2
 1092              	.LC115:
 1093 0400 4A616E6F 		.ascii	"Jano\000"
 1093      00
 1094 0405 000000   		.align	2
 1095              	.LC116:
 1096 0408 4A61726C 		.ascii	"Jarla\000"
 1096      6100
 1097 040e 0000     		.align	2
 1098              	.LC117:
 1099 0410 4A61726E 		.ascii	"Jarne\000"
 1099      6500
 1100 0416 0000     		.align	2
 1101              	.LC118:
 1102 0418 4A61726E 		.ascii	"Jarno\000"
 1102      6F00
 1103 041e 0000     		.align	2
 1104              	.LC119:
 1105 0420 4A61726F 		.ascii	"Jaromir\000"
 1105      6D697200 
 1106              		.align	2
 1107              	.LC120:
 1108 0428 4A61726F 		.ascii	"Jaron\000"
 1108      6E00
 1109 042e 0000     		.align	2
 1110              	.LC121:
 1111 0430 4A656C61 		.ascii	"Jelana\000"
 1111      6E6100
ARM GAS  C:\Users\gx\AppData\Local\Temp\cckFEPXy.s 			page 32


 1112 0437 00       		.align	2
 1113              	.LC122:
 1114 0438 4A657370 		.ascii	"Jesper\000"
 1114      657200
 1115 043f 00       		.align	2
 1116              	.LC123:
 1117 0440 4A6F6C65 		.ascii	"Joleen\000"
 1117      656E00
 1118 0447 00       		.align	2
 1119              	.LC124:
 1120 0448 4A6F6C69 		.ascii	"Jolie\000"
 1120      6500
 1121 044e 0000     		.align	2
 1122              	.LC125:
 1123 0450 4A6F6E74 		.ascii	"Jonte\000"
 1123      6500
 1124 0456 0000     		.align	2
 1125              	.LC126:
 1126 0458 4A6F6F73 		.ascii	"Joost\000"
 1126      7400
 1127 045e 0000     		.align	2
 1128              	.LC127:
 1129 0460 4AF67264 		.ascii	"J\366rdis\000"
 1129      697300
 1130 0467 00       		.align	2
 1131              	.LC128:
 1132 0468 4A6F7269 		.ascii	"Joris\000"
 1132      7300
 1133 046e 0000     		.align	2
 1134              	.LC129:
 1135 0470 4A6F7369 		.ascii	"Josie\000"
 1135      6500
 1136 0476 0000     		.align	2
 1137              	.LC130:
 1138 0478 4A6F7369 		.ascii	"Josina\000"
 1138      6E6100
 1139 047f 00       		.align	2
 1140              	.LC131:
 1141 0480 4A756C61 		.ascii	"Jula\000"
 1141      00
 1142 0485 000000   		.align	2
 1143              	.LC132:
 1144 0488 4A756C69 		.ascii	"Julina\000"
 1144      6E6100
 1145 048f 00       		.align	2
 1146              	.LC133:
 1147 0490 4A797474 		.ascii	"Jytte\000"
 1147      6500
 1148 0496 0000     		.align	2
 1149              	.LC134:
 1150 0498 4B616C6C 		.ascii	"Kalle\000"
 1150      6500
 1151 049e 0000     		.align	2
 1152              	.LC135:
 1153 04a0 4B656E6E 		.ascii	"Kennet\000"
 1153      657400
 1154 04a7 00       		.align	2
ARM GAS  C:\Users\gx\AppData\Local\Temp\cckFEPXy.s 			page 33


 1155              	.LC136:
 1156 04a8 4B656E6F 		.ascii	"Keno\000"
 1156      00
 1157 04ad 000000   		.align	2
 1158              	.LC137:
 1159 04b0 4B69616E 		.ascii	"Kiana\000"
 1159      6100
 1160 04b6 0000     		.align	2
 1161              	.LC138:
 1162 04b8 4B696572 		.ascii	"Kieran\000"
 1162      616E00
 1163 04bf 00       		.align	2
 1164              	.LC139:
 1165 04c0 4C61696C 		.ascii	"Laila\000"
 1165      6100
 1166 04c6 0000     		.align	2
 1167              	.LC140:
 1168 04c8 4C617572 		.ascii	"Laureen\000"
 1168      65656E00 
 1169              		.align	2
 1170              	.LC141:
 1171 04d0 4C617572 		.ascii	"Laurens\000"
 1171      656E7300 
 1172              		.align	2
 1173              	.LC142:
 1174 04d8 4C617572 		.ascii	"Laurent\000"
 1174      656E7400 
 1175              		.align	2
 1176              	.LC143:
 1177 04e0 4C617572 		.ascii	"Lauritz\000"
 1177      69747A00 
 1178              		.align	2
 1179              	.LC144:
 1180 04e8 4C65616E 		.ascii	"Leana\000"
 1180      6100
 1181 04ee 0000     		.align	2
 1182              	.LC145:
 1183 04f0 4C65616E 		.ascii	"Leandra\000"
 1183      64726100 
 1184              		.align	2
 1185              	.LC146:
 1186 04f8 4C65616E 		.ascii	"Leandro\000"
 1186      64726F00 
 1187              		.align	2
 1188              	.LC147:
 1189 0500 4C656E00 		.ascii	"Len\000"
 1190              		.align	2
 1191              	.LC148:
 1192 0504 4C656E6F 		.ascii	"Lenore\000"
 1192      726500
 1193 050b 00       		.align	2
 1194              	.LC149:
 1195 050c 4C656F6E 		.ascii	"Leona\000"
 1195      6100
 1196 0512 0000     		.align	2
 1197              	.LC150:
 1198 0514 4C656F6E 		.ascii	"Leonore\000"
ARM GAS  C:\Users\gx\AppData\Local\Temp\cckFEPXy.s 			page 34


 1198      6F726500 
 1199              		.align	2
 1200              	.LC151:
 1201 051c 4C65766B 		.ascii	"Levke\000"
 1201      6500
 1202 0522 0000     		.align	2
 1203              	.LC152:
 1204 0524 4C657769 		.ascii	"Lewin\000"
 1204      6E00
 1205 052a 0000     		.align	2
 1206              	.LC153:
 1207 052c 4C69656E 		.ascii	"Lientje\000"
 1207      746A6500 
 1208              		.align	2
 1209              	.LC154:
 1210 0534 4C696C69 		.ascii	"Lilith\000"
 1210      746800
 1211 053b 00       		.align	2
 1212              	.LC155:
 1213 053c 4C696E65 		.ascii	"Line\000"
 1213      00
 1214 0541 000000   		.align	2
 1215              	.LC156:
 1216 0544 4C696E6E 		.ascii	"Linna\000"
 1216      6100
 1217 054a 0000     		.align	2
 1218              	.LC157:
 1219 054c 4C696E6E 		.ascii	"Linnea\000"
 1219      656100
 1220 0553 00       		.align	2
 1221              	.LC158:
 1222 0554 4C697361 		.ascii	"Lisanne\000"
 1222      6E6E6500 
 1223              		.align	2
 1224              	.LC159:
 1225 055c 4C697669 		.ascii	"Livia\000"
 1225      6100
 1226 0562 0000     		.align	2
 1227              	.LC160:
 1228 0564 4C6F7265 		.ascii	"Lorena\000"
 1228      6E6100
 1229 056b 00       		.align	2
 1230              	.LC161:
 1231 056c 4C6F726E 		.ascii	"Lorna\000"
 1231      6100
 1232 0572 0000     		.align	2
 1233              	.LC162:
 1234 0574 4C6F7669 		.ascii	"Lovis\000"
 1234      7300
 1235 057a 0000     		.align	2
 1236              	.LC163:
 1237 057c 4C75616E 		.ascii	"Luana\000"
 1237      6100
 1238 0582 0000     		.align	2
 1239              	.LC164:
 1240 0584 4C756467 		.ascii	"Ludger\000"
 1240      657200
ARM GAS  C:\Users\gx\AppData\Local\Temp\cckFEPXy.s 			page 35


 1241 058b 00       		.align	2
 1242              	.LC165:
 1243 058c 4D616469 		.ascii	"Madita\000"
 1243      746100
 1244 0593 00       		.align	2
 1245              	.LC166:
 1246 0594 4D616473 		.ascii	"Mads\000"
 1246      00
 1247 0599 000000   		.align	2
 1248              	.LC167:
 1249 059c 4D616967 		.ascii	"Maiga\000"
 1249      6100
 1250 05a2 0000     		.align	2
 1251              	.LC168:
 1252 05a4 4D61696C 		.ascii	"Mailin\000"
 1252      696E00
 1253 05ab 00       		.align	2
 1254              	.LC169:
 1255 05ac 4D616C69 		.ascii	"Malina\000"
 1255      6E6100
 1256 05b3 00       		.align	2
 1257              	.LC170:
 1258 05b4 4D616E6A 		.ascii	"Manja\000"
 1258      6100
 1259 05ba 0000     		.align	2
 1260              	.LC171:
 1261 05bc 4D617269 		.ascii	"Marieke\000"
 1261      656B6500 
 1262              		.align	2
 1263              	.LC172:
 1264 05c4 4D617269 		.ascii	"Marielle\000"
 1264      656C6C65 
 1264      00
 1265 05cd 000000   		.align	2
 1266              	.LC173:
 1267 05d0 4D617269 		.ascii	"Mariette\000"
 1267      65747465 
 1267      00
 1268 05d9 000000   		.align	2
 1269              	.LC174:
 1270 05dc 4D617269 		.ascii	"Mariola\000"
 1270      6F6C6100 
 1271              		.align	2
 1272              	.LC175:
 1273 05e4 4D61726C 		.ascii	"Marla\000"
 1273      6100
 1274 05ea 0000     		.align	2
 1275              	.LC176:
 1276 05ec 4D61726C 		.ascii	"Marlena\000"
 1276      656E6100 
 1277              		.align	2
 1278              	.LC177:
 1279 05f4 4D61726C 		.ascii	"Marlin\000"
 1279      696E00
 1280 05fb 00       		.align	2
 1281              	.LC178:
 1282 05fc 4D61726C 		.ascii	"Marlo\000"
ARM GAS  C:\Users\gx\AppData\Local\Temp\cckFEPXy.s 			page 36


 1282      6F00
 1283 0602 0000     		.align	2
 1284              	.LC179:
 1285 0604 4D617274 		.ascii	"Marthe\000"
 1285      686500
 1286 060b 00       		.align	2
 1287              	.LC180:
 1288 060c 4D617274 		.ascii	"Martje\000"
 1288      6A6500
 1289 0613 00       		.align	2
 1290              	.LC181:
 1291 0614 4D61747A 		.ascii	"Matz\000"
 1291      00
 1292 0619 000000   		.align	2
 1293              	.LC182:
 1294 061c 4D617572 		.ascii	"Maureen\000"
 1294      65656E00 
 1295              		.align	2
 1296              	.LC183:
 1297 0624 4D617972 		.ascii	"Mayra\000"
 1297      6100
 1298 062a 0000     		.align	2
 1299              	.LC184:
 1300 062c 4D656469 		.ascii	"Medina\000"
 1300      6E6100
 1301 0633 00       		.align	2
 1302              	.LC185:
 1303 0634 4D656C64 		.ascii	"Melda\000"
 1303      6100
 1304 063a 0000     		.align	2
 1305              	.LC186:
 1306 063c 4D656C65 		.ascii	"Melek\000"
 1306      6B00
 1307 0642 0000     		.align	2
 1308              	.LC187:
 1309 0644 4D656C69 		.ascii	"Melike\000"
 1309      6B6500
 1310 064b 00       		.align	2
 1311              	.LC188:
 1312 064c 4D656C69 		.ascii	"Melinda\000"
 1312      6E646100 
 1313              		.align	2
 1314              	.LC189:
 1315 0654 4D656C69 		.ascii	"Melis\000"
 1315      7300
 1316 065a 0000     		.align	2
 1317              	.LC190:
 1318 065c 4D656C69 		.ascii	"Melisa\000"
 1318      736100
 1319 0663 00       		.align	2
 1320              	.LC191:
 1321 0664 4D657269 		.ascii	"Merit\000"
 1321      7400
 1322 066a 0000     		.align	2
 1323              	.LC192:
 1324 066c 4D69656B 		.ascii	"Mieke\000"
 1324      6500
ARM GAS  C:\Users\gx\AppData\Local\Temp\cckFEPXy.s 			page 37


 1325 0672 0000     		.align	2
 1326              	.LC193:
 1327 0674 4D696C61 		.ascii	"Mila\000"
 1327      00
 1328 0679 000000   		.align	2
 1329              	.LC194:
 1330 067c 4D696E61 		.ascii	"Mina\000"
 1330      00
 1331 0681 000000   		.align	2
 1332              	.LC195:
 1333 0684 4D696F00 		.ascii	"Mio\000"
 1334              		.align	2
 1335              	.LC196:
 1336 0688 4D697265 		.ascii	"Mirella\000"
 1336      6C6C6100 
 1337              		.align	2
 1338              	.LC197:
 1339 0690 4D6F6D6B 		.ascii	"Momke\000"
 1339      6500
 1340 0696 0000     		.align	2
 1341              	.LC198:
 1342 0698 4D6F6D6D 		.ascii	"Momme\000"
 1342      6500
 1343 069e 0000     		.align	2
 1344              	.LC199:
 1345 06a0 4D6F7272 		.ascii	"Morris\000"
 1345      697300
 1346 06a7 00       		.align	2
 1347              	.LC200:
 1348 06a8 4E616E74 		.ascii	"Nantke\000"
 1348      6B6500
 1349 06af 00       		.align	2
 1350              	.LC201:
 1351 06b0 4E656C73 		.ascii	"Nelson\000"
 1351      6F6E00
 1352 06b7 00       		.align	2
 1353              	.LC202:
 1354 06b8 4E696B61 		.ascii	"Nika\000"
 1354      00
 1355 06bd 000000   		.align	2
 1356              	.LC203:
 1357 06c0 4E6F7277 		.ascii	"Norwin\000"
 1357      696E00
 1358 06c7 00       		.align	2
 1359              	.LC204:
 1360 06c8 4F6B6500 		.ascii	"Oke\000"
 1361              		.align	2
 1362              	.LC205:
 1363 06cc 4F6E6E6F 		.ascii	"Onno\000"
 1363      00
 1364 06d1 000000   		.align	2
 1365              	.LC206:
 1366 06d4 4F746973 		.ascii	"Otis\000"
 1366      00
 1367 06d9 000000   		.align	2
 1368              	.LC207:
 1369 06dc 4F766500 		.ascii	"Ove\000"
ARM GAS  C:\Users\gx\AppData\Local\Temp\cckFEPXy.s 			page 38


 1370              		.align	2
 1371              	.LC208:
 1372 06e0 50656572 		.ascii	"Peer\000"
 1372      00
 1373 06e5 000000   		.align	2
 1374              	.LC209:
 1375 06e8 50656C6C 		.ascii	"Pelle\000"
 1375      6500
 1376 06ee 0000     		.align	2
 1377              	.LC210:
 1378 06f0 5068696C 		.ascii	"Philine\000"
 1378      696E6500 
 1379              		.align	2
 1380              	.LC211:
 1381 06f8 5068696C 		.ascii	"Philomena\000"
 1381      6F6D656E 
 1381      6100
 1382 0702 0000     		.align	2
 1383              	.LC212:
 1384 0704 5175656E 		.ascii	"Quentin\000"
 1384      74696E00 
 1385              		.align	2
 1386              	.LC213:
 1387 070c 5175696E 		.ascii	"Quint\000"
 1387      7400
 1388 0712 0000     		.align	2
 1389              	.LC214:
 1390 0714 52616865 		.ascii	"Rahel\000"
 1390      6C00
 1391 071a 0000     		.align	2
 1392              	.LC215:
 1393 071c 5261696B 		.ascii	"Raik\000"
 1393      00
 1394 0721 000000   		.align	2
 1395              	.LC216:
 1396 0724 5269616E 		.ascii	"Riana\000"
 1396      6100
 1397 072a 0000     		.align	2
 1398              	.LC217:
 1399 072c 52696361 		.ascii	"Ricardo\000"
 1399      72646F00 
 1400              		.align	2
 1401              	.LC218:
 1402 0734 52696B61 		.ascii	"Rika\000"
 1402      00
 1403 0739 000000   		.align	2
 1404              	.LC219:
 1405 073c 52697861 		.ascii	"Rixa\000"
 1405      00
 1406 0741 000000   		.align	2
 1407              	.LC220:
 1408 0744 526F6C65 		.ascii	"Rolex\000"
 1408      7800
 1409 074a 0000     		.align	2
 1410              	.LC221:
 1411 074c 52757765 		.ascii	"Ruwen\000"
 1411      6E00
ARM GAS  C:\Users\gx\AppData\Local\Temp\cckFEPXy.s 			page 39


 1412 0752 0000     		.align	2
 1413              	.LC222:
 1414 0754 5279616E 		.ascii	"Ryan\000"
 1414      00
 1415 0759 000000   		.align	2
 1416              	.LC223:
 1417 075c 53616C6D 		.ascii	"Salma\000"
 1417      6100
 1418 0762 0000     		.align	2
 1419              	.LC224:
 1420 0764 53616E64 		.ascii	"Sandrine\000"
 1420      72696E65 
 1420      00
 1421 076d 000000   		.align	2
 1422              	.LC225:
 1423 0770 53657665 		.ascii	"Severin\000"
 1423      72696E00 
 1424              		.align	2
 1425              	.LC226:
 1426 0778 5369646F 		.ascii	"Sidonie\000"
 1426      6E696500 
 1427              		.align	2
 1428              	.LC227:
 1429 0780 53696C61 		.ascii	"Silas\000"
 1429      7300
 1430 0786 0000     		.align	2
 1431              	.LC228:
 1432 0788 53696C6A 		.ascii	"Silja\000"
 1432      6100
 1433 078e 0000     		.align	2
 1434              	.LC229:
 1435 0790 53696D65 		.ascii	"Simeon\000"
 1435      6F6E00
 1436 0797 00       		.align	2
 1437              	.LC230:
 1438 0798 53696E6A 		.ascii	"Sinja\000"
 1438      6100
 1439 079e 0000     		.align	2
 1440              	.LC231:
 1441 07a0 536D696C 		.ascii	"Smilla\000"
 1441      6C6100
 1442 07a7 00       		.align	2
 1443              	.LC232:
 1444 07a8 53746967 		.ascii	"Stig\000"
 1444      00
 1445 07ad 000000   		.align	2
 1446              	.LC233:
 1447 07b0 5374696E 		.ascii	"Stine\000"
 1447      6500
 1448 07b6 0000     		.align	2
 1449              	.LC234:
 1450 07b8 54616C69 		.ascii	"Talisa\000"
 1450      736100
 1451 07bf 00       		.align	2
 1452              	.LC235:
 1453 07c0 54616D69 		.ascii	"Tamina\000"
 1453      6E6100
ARM GAS  C:\Users\gx\AppData\Local\Temp\cckFEPXy.s 			page 40


 1454 07c7 00       		.align	2
 1455              	.LC236:
 1456 07c8 54616D6D 		.ascii	"Tammo\000"
 1456      6F00
 1457 07ce 0000     		.align	2
 1458              	.LC237:
 1459 07d0 54617261 		.ascii	"Tara\000"
 1459      00
 1460 07d5 000000   		.align	2
 1461              	.LC238:
 1462 07d8 54687972 		.ascii	"Thyra\000"
 1462      6100
 1463 07de 0000     		.align	2
 1464              	.LC239:
 1465 07e0 5469616E 		.ascii	"Tiana\000"
 1465      6100
 1466 07e6 0000     		.align	2
 1467              	.LC240:
 1468 07e8 546A616C 		.ascii	"Tjalf\000"
 1468      6600
 1469 07ee 0000     		.align	2
 1470              	.LC241:
 1471 07f0 546A6172 		.ascii	"Tjark\000"
 1471      6B00
 1472 07f6 0000     		.align	2
 1473              	.LC242:
 1474 07f8 546A656C 		.ascii	"Tjelle\000"
 1474      6C6500
 1475 07ff 00       		.align	2
 1476              	.LC243:
 1477 0800 546A6F72 		.ascii	"Tjorben\000"
 1477      62656E00 
 1478              		.align	2
 1479              	.LC244:
 1480 0808 546F6D6D 		.ascii	"Tomma\000"
 1480      6100
 1481 080e 0000     		.align	2
 1482              	.LC245:
 1483 0810 546F7265 		.ascii	"Tore\000"
 1483      00
 1484 0815 000000   		.align	2
 1485              	.LC246:
 1486 0818 56616E69 		.ascii	"Vanity\000"
 1486      747900
 1487 081f 00       		.align	2
 1488              	.LC247:
 1489 0820 56696F6C 		.ascii	"Violet\000"
 1489      657400
 1490 0827 00       		.align	2
 1491              	.LC248:
 1492 0828 56696F6C 		.ascii	"Violetta\000"
 1492      65747461 
 1492      00
 1493 0831 000000   		.align	2
 1494              	.LC249:
 1495 0834 57696C6B 		.ascii	"Wilko\000"
 1495      6F00
ARM GAS  C:\Users\gx\AppData\Local\Temp\cckFEPXy.s 			page 41


 1496 083a 0000     		.align	2
 1497              	.LC250:
 1498 083c 57756C66 		.ascii	"Wulf\000"
 1498      00
 1499 0841 000000   		.align	2
 1500              	.LC251:
 1501 0844 5961736D 		.ascii	"Yasmina\000"
 1501      696E6100 
 1502              		.align	2
 1503              	.LC252:
 1504 084c 596C7669 		.ascii	"Ylvie\000"
 1504      6500
 1505 0852 0000     		.align	2
 1506              	.LC253:
 1507 0854 596F756E 		.ascii	"Younes\000"
 1507      657300
 1508 085b 00       		.align	2
 1509              	.LC254:
 1510 085c 59766573 		.ascii	"Yves\000"
 1510      00
 1511 0861 000000   		.align	2
 1512              	.LC255:
 1513 0864 59766574 		.ascii	"Yvette\000"
 1513      746500
 1514              		.section	.rodata._aAction,"a"
 1515              		.align	2
 1516              		.set	.LANCHOR2,. + 0
 1519              	_aAction:
 1520 0000 00000000 		.word	0
 1521 0004 01000000 		.word	1
 1522 0008 00000000 		.word	.LC3
 1523 000c 84030000 		.word	900
 1524 0010 00000000 		.word	0
 1525 0014 00000000 		.word	0
 1526 0018 F4010000 		.word	500
 1527 001c 00000000 		.word	0
 1528 0020 14000000 		.word	.LC4
 1529 0024 F4010000 		.word	500
 1530 0028 00000000 		.word	0
 1531 002c 00000000 		.word	0
 1532 0030 58020000 		.word	600
 1533 0034 02000000 		.word	2
 1534 0038 00000000 		.word	0
 1535 003c 58020000 		.word	600
 1536 0040 02000000 		.word	2
 1537 0044 00000000 		.word	0
 1538 0048 58020000 		.word	600
 1539 004c 02000000 		.word	2
 1540 0050 00000000 		.word	0
 1541 0054 F4010000 		.word	500
 1542 0058 00000000 		.word	0
 1543 005c 24000000 		.word	.LC5
 1544 0060 F4010000 		.word	500
 1545 0064 00000000 		.word	0
 1546 0068 00000000 		.word	0
 1547 006c 58020000 		.word	600
 1548 0070 03000000 		.word	3
ARM GAS  C:\Users\gx\AppData\Local\Temp\cckFEPXy.s 			page 42


 1549 0074 00000000 		.word	0
 1550 0078 58020000 		.word	600
 1551 007c 03000000 		.word	3
 1552 0080 00000000 		.word	0
 1553 0084 58020000 		.word	600
 1554 0088 03000000 		.word	3
 1555 008c 00000000 		.word	0
 1556 0090 F4010000 		.word	500
 1557 0094 00000000 		.word	0
 1558 0098 48000000 		.word	.LC6
 1559 009c F4010000 		.word	500
 1560 00a0 00000000 		.word	0
 1561 00a4 00000000 		.word	0
 1562 00a8 32000000 		.word	50
 1563 00ac 04000000 		.word	4
 1564 00b0 00000000 		.word	0
 1565 00b4 32000000 		.word	50
 1566 00b8 04000000 		.word	4
 1567 00bc 00000000 		.word	0
 1568 00c0 32000000 		.word	50
 1569 00c4 04000000 		.word	4
 1570 00c8 00000000 		.word	0
 1571 00cc 32000000 		.word	50
 1572 00d0 04000000 		.word	4
 1573 00d4 00000000 		.word	0
 1574 00d8 32000000 		.word	50
 1575 00dc 04000000 		.word	4
 1576 00e0 00000000 		.word	0
 1577 00e4 32000000 		.word	50
 1578 00e8 04000000 		.word	4
 1579 00ec 00000000 		.word	0
 1580 00f0 32000000 		.word	50
 1581 00f4 04000000 		.word	4
 1582 00f8 00000000 		.word	0
 1583 00fc 32000000 		.word	50
 1584 0100 04000000 		.word	4
 1585 0104 00000000 		.word	0
 1586 0108 32000000 		.word	50
 1587 010c 04000000 		.word	4
 1588 0110 00000000 		.word	0
 1589 0114 32000000 		.word	50
 1590 0118 04000000 		.word	4
 1591 011c 00000000 		.word	0
 1592 0120 32000000 		.word	50
 1593 0124 05000000 		.word	5
 1594 0128 00000000 		.word	0
 1595 012c 32000000 		.word	50
 1596 0130 05000000 		.word	5
 1597 0134 00000000 		.word	0
 1598 0138 32000000 		.word	50
 1599 013c 05000000 		.word	5
 1600 0140 00000000 		.word	0
 1601 0144 32000000 		.word	50
 1602 0148 05000000 		.word	5
 1603 014c 00000000 		.word	0
 1604 0150 32000000 		.word	50
 1605 0154 05000000 		.word	5
ARM GAS  C:\Users\gx\AppData\Local\Temp\cckFEPXy.s 			page 43


 1606 0158 00000000 		.word	0
 1607 015c F4010000 		.word	500
 1608 0160 00000000 		.word	0
 1609 0164 5C000000 		.word	.LC7
 1610 0168 F4010000 		.word	500
 1611 016c 00000000 		.word	0
 1612 0170 00000000 		.word	0
 1613 0174 32000000 		.word	50
 1614 0178 06000000 		.word	6
 1615 017c 00000000 		.word	0
 1616 0180 08070000 		.word	1800
 1617 0184 00000000 		.word	0
 1618 0188 00000000 		.word	0
 1619              		.section	.rodata._aColProps,"a"
 1620              		.align	2
 1621              		.set	.LANCHOR0,. + 0
 1624              	_aColProps:
 1625 0000 7C000000 		.word	.LC8
 1626 0004 46000000 		.word	70
 1627 0008 00000000 		.word	0
 1628 000c 00000000 		.word	LISTVIEW_CompareText
 1629 0010 84000000 		.word	.LC9
 1630 0014 32000000 		.word	50
 1631 0018 02000000 		.word	2
 1632 001c 00000000 		.word	LISTVIEW_CompareText
 1633 0020 8C000000 		.word	.LC10
 1634 0024 3C000000 		.word	60
 1635 0028 01000000 		.word	1
 1636 002c 00000000 		.word	LISTVIEW_CompareDec
 1637              		.section	.rodata._aColor,"a"
 1638              		.align	2
 1639              		.set	.LANCHOR3,. + 0
 1642              	_aColor:
 1643 0000 0000FF00 		.word	16711680
 1644 0004 00FF0000 		.word	65280
 1645 0008 FF000000 		.word	255
 1646 000c 00FFFF00 		.word	16776960
 1647 0010 FF00FF00 		.word	16711935
 1648 0014 FFFF0000 		.word	65535
 1649 0018 8080FF00 		.word	16744576
 1650 001c 80FF8000 		.word	8454016
 1651 0020 FF808000 		.word	8421631
 1652 0024 80FFFF00 		.word	16777088
 1653 0028 FF80FF00 		.word	16744703
 1654 002c FFFF8000 		.word	8454143
 1655 0030 00008000 		.word	8388608
 1656 0034 00800000 		.word	32768
 1657 0038 80000000 		.word	128
 1658 003c 00808000 		.word	8421376
 1659 0040 80008000 		.word	8388736
 1660 0044 80800000 		.word	32896
 1661 0048 FFFFFF00 		.word	16777215
 1662 004c D3D3D300 		.word	13882323
 1663 0050 80808000 		.word	8421504
 1664 0054 40404000 		.word	4210752
 1665 0058 00000000 		.word	0
 1666 005c A52A2A00 		.word	2763429
ARM GAS  C:\Users\gx\AppData\Local\Temp\cckFEPXy.s 			page 44


 1667              		.section	.rodata._pNames,"a"
 1668              		.align	2
 1669              		.set	.LANCHOR1,. + 0
 1672              	_pNames:
 1673 0000 94000000 		.word	.LC11
 1674 0004 9C000000 		.word	.LC12
 1675 0008 A4000000 		.word	.LC13
 1676 000c AC000000 		.word	.LC14
 1677 0010 B4000000 		.word	.LC15
 1678 0014 BC000000 		.word	.LC16
 1679 0018 C4000000 		.word	.LC17
 1680 001c CC000000 		.word	.LC18
 1681 0020 D4000000 		.word	.LC19
 1682 0024 DC000000 		.word	.LC20
 1683 0028 E4000000 		.word	.LC21
 1684 002c EC000000 		.word	.LC22
 1685 0030 F4000000 		.word	.LC23
 1686 0034 00010000 		.word	.LC24
 1687 0038 08010000 		.word	.LC25
 1688 003c 10010000 		.word	.LC26
 1689 0040 1C010000 		.word	.LC27
 1690 0044 24010000 		.word	.LC28
 1691 0048 2C010000 		.word	.LC29
 1692 004c 30010000 		.word	.LC30
 1693 0050 38010000 		.word	.LC31
 1694 0054 40010000 		.word	.LC32
 1695 0058 48010000 		.word	.LC33
 1696 005c 50010000 		.word	.LC34
 1697 0060 5C010000 		.word	.LC35
 1698 0064 64010000 		.word	.LC36
 1699 0068 6C010000 		.word	.LC37
 1700 006c 74010000 		.word	.LC38
 1701 0070 7C010000 		.word	.LC39
 1702 0074 88010000 		.word	.LC40
 1703 0078 90010000 		.word	.LC41
 1704 007c 98010000 		.word	.LC42
 1705 0080 A0010000 		.word	.LC43
 1706 0084 AC010000 		.word	.LC44
 1707 0088 B8010000 		.word	.LC45
 1708 008c C0010000 		.word	.LC46
 1709 0090 CC010000 		.word	.LC47
 1710 0094 D4010000 		.word	.LC48
 1711 0098 DC010000 		.word	.LC49
 1712 009c E4010000 		.word	.LC50
 1713 00a0 EC010000 		.word	.LC51
 1714 00a4 F4010000 		.word	.LC52
 1715 00a8 FC010000 		.word	.LC53
 1716 00ac 04020000 		.word	.LC54
 1717 00b0 0C020000 		.word	.LC55
 1718 00b4 14020000 		.word	.LC56
 1719 00b8 1C020000 		.word	.LC57
 1720 00bc 24020000 		.word	.LC58
 1721 00c0 2C020000 		.word	.LC59
 1722 00c4 34020000 		.word	.LC60
 1723 00c8 3C020000 		.word	.LC61
 1724 00cc 44020000 		.word	.LC62
 1725 00d0 4C020000 		.word	.LC63
ARM GAS  C:\Users\gx\AppData\Local\Temp\cckFEPXy.s 			page 45


 1726 00d4 54020000 		.word	.LC64
 1727 00d8 5C020000 		.word	.LC65
 1728 00dc 64020000 		.word	.LC66
 1729 00e0 6C020000 		.word	.LC67
 1730 00e4 74020000 		.word	.LC68
 1731 00e8 7C020000 		.word	.LC69
 1732 00ec 84020000 		.word	.LC70
 1733 00f0 8C020000 		.word	.LC71
 1734 00f4 98020000 		.word	.LC72
 1735 00f8 A0020000 		.word	.LC73
 1736 00fc A8020000 		.word	.LC74
 1737 0100 B0020000 		.word	.LC75
 1738 0104 B8020000 		.word	.LC76
 1739 0108 C0020000 		.word	.LC77
 1740 010c C8020000 		.word	.LC78
 1741 0110 D0020000 		.word	.LC79
 1742 0114 D8020000 		.word	.LC80
 1743 0118 E0020000 		.word	.LC81
 1744 011c E8020000 		.word	.LC82
 1745 0120 F0020000 		.word	.LC83
 1746 0124 F8020000 		.word	.LC84
 1747 0128 00030000 		.word	.LC85
 1748 012c 08030000 		.word	.LC86
 1749 0130 10030000 		.word	.LC87
 1750 0134 24030000 		.word	.LC88
 1751 0138 2C030000 		.word	.LC89
 1752 013c 34030000 		.word	.LC90
 1753 0140 3C030000 		.word	.LC91
 1754 0144 44030000 		.word	.LC92
 1755 0148 4C030000 		.word	.LC93
 1756 014c 54030000 		.word	.LC94
 1757 0150 5C030000 		.word	.LC95
 1758 0154 64030000 		.word	.LC96
 1759 0158 6C030000 		.word	.LC97
 1760 015c 74030000 		.word	.LC98
 1761 0160 7C030000 		.word	.LC99
 1762 0164 84030000 		.word	.LC100
 1763 0168 8C030000 		.word	.LC101
 1764 016c 94030000 		.word	.LC102
 1765 0170 9C030000 		.word	.LC103
 1766 0174 A4030000 		.word	.LC104
 1767 0178 B0030000 		.word	.LC105
 1768 017c B8030000 		.word	.LC106
 1769 0180 C0030000 		.word	.LC107
 1770 0184 C8030000 		.word	.LC108
 1771 0188 D0030000 		.word	.LC109
 1772 018c D8030000 		.word	.LC110
 1773 0190 E0030000 		.word	.LC111
 1774 0194 E8030000 		.word	.LC112
 1775 0198 F0030000 		.word	.LC113
 1776 019c F8030000 		.word	.LC114
 1777 01a0 00040000 		.word	.LC115
 1778 01a4 08040000 		.word	.LC116
 1779 01a8 10040000 		.word	.LC117
 1780 01ac 18040000 		.word	.LC118
 1781 01b0 20040000 		.word	.LC119
 1782 01b4 28040000 		.word	.LC120
ARM GAS  C:\Users\gx\AppData\Local\Temp\cckFEPXy.s 			page 46


 1783 01b8 30040000 		.word	.LC121
 1784 01bc 38040000 		.word	.LC122
 1785 01c0 40040000 		.word	.LC123
 1786 01c4 48040000 		.word	.LC124
 1787 01c8 50040000 		.word	.LC125
 1788 01cc 58040000 		.word	.LC126
 1789 01d0 60040000 		.word	.LC127
 1790 01d4 68040000 		.word	.LC128
 1791 01d8 70040000 		.word	.LC129
 1792 01dc 78040000 		.word	.LC130
 1793 01e0 80040000 		.word	.LC131
 1794 01e4 88040000 		.word	.LC132
 1795 01e8 90040000 		.word	.LC133
 1796 01ec 98040000 		.word	.LC134
 1797 01f0 A0040000 		.word	.LC135
 1798 01f4 A8040000 		.word	.LC136
 1799 01f8 B0040000 		.word	.LC137
 1800 01fc B8040000 		.word	.LC138
 1801 0200 C0040000 		.word	.LC139
 1802 0204 C8040000 		.word	.LC140
 1803 0208 D0040000 		.word	.LC141
 1804 020c D8040000 		.word	.LC142
 1805 0210 E0040000 		.word	.LC143
 1806 0214 E8040000 		.word	.LC144
 1807 0218 F0040000 		.word	.LC145
 1808 021c F8040000 		.word	.LC146
 1809 0220 00050000 		.word	.LC147
 1810 0224 04050000 		.word	.LC148
 1811 0228 0C050000 		.word	.LC149
 1812 022c 14050000 		.word	.LC150
 1813 0230 1C050000 		.word	.LC151
 1814 0234 24050000 		.word	.LC152
 1815 0238 2C050000 		.word	.LC153
 1816 023c 34050000 		.word	.LC154
 1817 0240 3C050000 		.word	.LC155
 1818 0244 44050000 		.word	.LC156
 1819 0248 4C050000 		.word	.LC157
 1820 024c 54050000 		.word	.LC158
 1821 0250 5C050000 		.word	.LC159
 1822 0254 64050000 		.word	.LC160
 1823 0258 6C050000 		.word	.LC161
 1824 025c 74050000 		.word	.LC162
 1825 0260 7C050000 		.word	.LC163
 1826 0264 84050000 		.word	.LC164
 1827 0268 8C050000 		.word	.LC165
 1828 026c 94050000 		.word	.LC166
 1829 0270 9C050000 		.word	.LC167
 1830 0274 A4050000 		.word	.LC168
 1831 0278 AC050000 		.word	.LC169
 1832 027c B4050000 		.word	.LC170
 1833 0280 BC050000 		.word	.LC171
 1834 0284 C4050000 		.word	.LC172
 1835 0288 D0050000 		.word	.LC173
 1836 028c DC050000 		.word	.LC174
 1837 0290 E4050000 		.word	.LC175
 1838 0294 EC050000 		.word	.LC176
 1839 0298 F4050000 		.word	.LC177
ARM GAS  C:\Users\gx\AppData\Local\Temp\cckFEPXy.s 			page 47


 1840 029c FC050000 		.word	.LC178
 1841 02a0 04060000 		.word	.LC179
 1842 02a4 0C060000 		.word	.LC180
 1843 02a8 14060000 		.word	.LC181
 1844 02ac 1C060000 		.word	.LC182
 1845 02b0 24060000 		.word	.LC183
 1846 02b4 2C060000 		.word	.LC184
 1847 02b8 34060000 		.word	.LC185
 1848 02bc 3C060000 		.word	.LC186
 1849 02c0 44060000 		.word	.LC187
 1850 02c4 4C060000 		.word	.LC188
 1851 02c8 54060000 		.word	.LC189
 1852 02cc 5C060000 		.word	.LC190
 1853 02d0 64060000 		.word	.LC191
 1854 02d4 6C060000 		.word	.LC192
 1855 02d8 74060000 		.word	.LC193
 1856 02dc 7C060000 		.word	.LC194
 1857 02e0 84060000 		.word	.LC195
 1858 02e4 88060000 		.word	.LC196
 1859 02e8 90060000 		.word	.LC197
 1860 02ec 98060000 		.word	.LC198
 1861 02f0 A0060000 		.word	.LC199
 1862 02f4 A8060000 		.word	.LC200
 1863 02f8 B0060000 		.word	.LC201
 1864 02fc B8060000 		.word	.LC202
 1865 0300 C0060000 		.word	.LC203
 1866 0304 C8060000 		.word	.LC204
 1867 0308 CC060000 		.word	.LC205
 1868 030c D4060000 		.word	.LC206
 1869 0310 DC060000 		.word	.LC207
 1870 0314 E0060000 		.word	.LC208
 1871 0318 E8060000 		.word	.LC209
 1872 031c F0060000 		.word	.LC210
 1873 0320 F8060000 		.word	.LC211
 1874 0324 04070000 		.word	.LC212
 1875 0328 0C070000 		.word	.LC213
 1876 032c 14070000 		.word	.LC214
 1877 0330 1C070000 		.word	.LC215
 1878 0334 24070000 		.word	.LC216
 1879 0338 2C070000 		.word	.LC217
 1880 033c 34070000 		.word	.LC218
 1881 0340 3C070000 		.word	.LC219
 1882 0344 44070000 		.word	.LC220
 1883 0348 4C070000 		.word	.LC221
 1884 034c 54070000 		.word	.LC222
 1885 0350 5C070000 		.word	.LC223
 1886 0354 64070000 		.word	.LC224
 1887 0358 70070000 		.word	.LC225
 1888 035c 78070000 		.word	.LC226
 1889 0360 80070000 		.word	.LC227
 1890 0364 88070000 		.word	.LC228
 1891 0368 90070000 		.word	.LC229
 1892 036c 98070000 		.word	.LC230
 1893 0370 A0070000 		.word	.LC231
 1894 0374 A8070000 		.word	.LC232
 1895 0378 B0070000 		.word	.LC233
 1896 037c B8070000 		.word	.LC234
ARM GAS  C:\Users\gx\AppData\Local\Temp\cckFEPXy.s 			page 48


 1897 0380 C0070000 		.word	.LC235
 1898 0384 C8070000 		.word	.LC236
 1899 0388 D0070000 		.word	.LC237
 1900 038c D8070000 		.word	.LC238
 1901 0390 E0070000 		.word	.LC239
 1902 0394 E8070000 		.word	.LC240
 1903 0398 F0070000 		.word	.LC241
 1904 039c F8070000 		.word	.LC242
 1905 03a0 00080000 		.word	.LC243
 1906 03a4 08080000 		.word	.LC244
 1907 03a8 10080000 		.word	.LC245
 1908 03ac 18080000 		.word	.LC246
 1909 03b0 20080000 		.word	.LC247
 1910 03b4 28080000 		.word	.LC248
 1911 03b8 34080000 		.word	.LC249
 1912 03bc 3C080000 		.word	.LC250
 1913 03c0 44080000 		.word	.LC251
 1914 03c4 4C080000 		.word	.LC252
 1915 03c8 54080000 		.word	.LC253
 1916 03cc 5C080000 		.word	.LC254
 1917 03d0 64080000 		.word	.LC255
 1918              		.text
 1919              	.Letext0:
 1920              		.file 2 "c:\\program files (x86)\\gnu arm embedded toolchain\\9 2020-q2-update\\lib\\gcc\\arm-none
 1921              		.file 3 "c:\\program files (x86)\\gnu arm embedded toolchain\\9 2020-q2-update\\arm-none-eabi\\inc
 1922              		.file 4 "c:\\program files (x86)\\gnu arm embedded toolchain\\9 2020-q2-update\\arm-none-eabi\\inc
 1923              		.file 5 "c:\\program files (x86)\\gnu arm embedded toolchain\\9 2020-q2-update\\arm-none-eabi\\inc
 1924              		.file 6 "c:\\program files (x86)\\gnu arm embedded toolchain\\9 2020-q2-update\\arm-none-eabi\\inc
 1925              		.file 7 "emWin/inc/LCD.h"
 1926              		.file 8 "emWin/inc/GUI.h"
 1927              		.file 9 "emWin/inc/GUI_Type.h"
 1928              		.file 10 "emWin/inc/WM.h"
 1929              		.file 11 "emWin/inc/LCD_Protected.h"
 1930              		.file 12 "emWin/inc/GUI_Private.h"
 1931              		.file 13 "emWin/inc/WM_Intern.h"
 1932              		.file 14 "emWin/inc/WIDGET.h"
 1933              		.file 15 "emWin/GUI_Demo/GUIDEMO.h"
 1934              		.file 16 "emWin/inc/LISTVIEW.h"
 1935              		.file 17 "emWin/inc/HEADER.h"
 1936              		.file 18 "c:\\program files (x86)\\gnu arm embedded toolchain\\9 2020-q2-update\\arm-none-eabi\\in
 1937              		.file 19 "c:\\program files (x86)\\gnu arm embedded toolchain\\9 2020-q2-update\\arm-none-eabi\\in
 1938              		.file 20 "<built-in>"
ARM GAS  C:\Users\gx\AppData\Local\Temp\cckFEPXy.s 			page 49

