ARM GAS  C:\Users\gx\AppData\Local\Temp\cc34ZnBG.s 			page 1


   1              		.cpu cortex-m4
   2              		.eabi_attribute 27, 1
   3              		.eabi_attribute 28, 1
   4              		.eabi_attribute 20, 1
   5              		.eabi_attribute 21, 1
   6              		.eabi_attribute 23, 3
   7              		.eabi_attribute 24, 1
   8              		.eabi_attribute 25, 1
   9              		.eabi_attribute 26, 1
  10              		.eabi_attribute 30, 1
  11              		.eabi_attribute 34, 1
  12              		.eabi_attribute 18, 4
  13              		.file	"head.c"
  14              		.text
  15              	.Ltext0:
  16              		.cfi_sections	.debug_frame
  17              		.section	.rodata._cbDialog.str1.4,"aMS",%progbits,1
  18              		.align	2
  19              	.LC0:
  20 0000 47582065 		.ascii	"GX emwin test\000"
  20      6D77696E 
  20      20746573 
  20      7400
  21 000e 0000     		.align	2
  22              	.LC1:
  23 0010 25303264 		.ascii	"%02d:%02d:%02d\000"
  23      3A253032 
  23      643A2530 
  23      326400
  24 001f 00       		.align	2
  25              	.LC2:
  26 0020 32302530 		.ascii	"20%02d/%d/%d\000"
  26      32642F25 
  26      642F2564 
  26      00
  27              		.section	.text._cbDialog,"ax",%progbits
  28              		.align	1
  29              		.arch armv7e-m
  30              		.syntax unified
  31              		.thumb
  32              		.thumb_func
  33              		.fpu fpv4-sp-d16
  35              	_cbDialog:
  36              	.LVL0:
  37              	.LFB126:
  38              		.file 1 "UI/head.c"
   1:UI/head.c     **** /*********************************************************************
   2:UI/head.c     **** *                                                                    *
   3:UI/head.c     **** *                SEGGER Microcontroller GmbH & Co. KG                *
   4:UI/head.c     **** *        Solutions for real time microcontroller applications        *
   5:UI/head.c     **** *                                                                    *
   6:UI/head.c     **** **********************************************************************
   7:UI/head.c     **** *                                                                    *
   8:UI/head.c     **** * C-file generated by:                                               *
   9:UI/head.c     **** *                                                                    *
  10:UI/head.c     **** *        GUI_Builder for emWin version 5.22                          *
  11:UI/head.c     **** *        Compiled Jul  4 2013, 15:16:01                              *
ARM GAS  C:\Users\gx\AppData\Local\Temp\cc34ZnBG.s 			page 2


  12:UI/head.c     **** *        (c) 2013 Segger Microcontroller GmbH & Co. KG               *
  13:UI/head.c     **** *                                                                    *
  14:UI/head.c     **** **********************************************************************
  15:UI/head.c     **** *                                                                    *
  16:UI/head.c     **** *        Internet: www.segger.com  Support: support@segger.com       *
  17:UI/head.c     **** *                                                                    *
  18:UI/head.c     **** **********************************************************************
  19:UI/head.c     **** */
  20:UI/head.c     **** 
  21:UI/head.c     **** // USER START (Optionally insert additional includes)
  22:UI/head.c     **** // USER END
  23:UI/head.c     **** 
  24:UI/head.c     **** #include "DIALOG.h"
  25:UI/head.c     **** #include "stm32f4xx_hal.h"
  26:UI/head.c     **** #include "rtc.h"
  27:UI/head.c     **** /*********************************************************************
  28:UI/head.c     **** *
  29:UI/head.c     **** *       Defines
  30:UI/head.c     **** *
  31:UI/head.c     **** **********************************************************************
  32:UI/head.c     **** */
  33:UI/head.c     **** #define ID_WINDOW_0 (GUI_ID_USER + 0x00)
  34:UI/head.c     **** #define ID_IMAGE_0 (GUI_ID_USER + 0x02)
  35:UI/head.c     **** // USER START (Optionally insert additional defines)
  36:UI/head.c     **** // USER END
  37:UI/head.c     **** 
  38:UI/head.c     **** /*********************************************************************
  39:UI/head.c     **** *
  40:UI/head.c     **** *       Static data
  41:UI/head.c     **** *
  42:UI/head.c     **** **********************************************************************
  43:UI/head.c     **** */
  44:UI/head.c     **** 
  45:UI/head.c     **** // USER START (Optionally insert additional static data)
  46:UI/head.c     **** // USER END
  47:UI/head.c     **** 
  48:UI/head.c     **** /*********************************************************************
  49:UI/head.c     **** *
  50:UI/head.c     **** *       _aDialogCreate
  51:UI/head.c     **** */
  52:UI/head.c     **** static const GUI_WIDGET_CREATE_INFO _aDialogCreate[] = {
  53:UI/head.c     **** 	{WINDOW_CreateIndirect, "Window", ID_WINDOW_0, 0, 0, 480, 40, 0, 0x0, 0},
  54:UI/head.c     **** 	{IMAGE_CreateIndirect, "Image", ID_IMAGE_0, 0, 0, 100, 40, 0, 0, 0},
  55:UI/head.c     **** 	// USER START (Optionally insert additional widgets)
  56:UI/head.c     **** 	// USER END
  57:UI/head.c     **** };
  58:UI/head.c     **** //IMAGE_CF_TILE		IMAGE_CF_ALPHA
  59:UI/head.c     **** /*********************************************************************
  60:UI/head.c     **** *
  61:UI/head.c     **** *       Static code
  62:UI/head.c     **** *
  63:UI/head.c     **** **********************************************************************
  64:UI/head.c     **** */
  65:UI/head.c     **** 
  66:UI/head.c     **** // USER START (Optionally insert additional static code)
  67:UI/head.c     **** // USER END
  68:UI/head.c     **** 
ARM GAS  C:\Users\gx\AppData\Local\Temp\cc34ZnBG.s 			page 3


  69:UI/head.c     **** /*********************************************************************
  70:UI/head.c     **** *
  71:UI/head.c     **** *       _cbDialog
  72:UI/head.c     **** */
  73:UI/head.c     **** char str_time[15];
  74:UI/head.c     **** 
  75:UI/head.c     **** RTC_TimeTypeDef RTC_Time;
  76:UI/head.c     **** RTC_DateTypeDef RTC_Date;
  77:UI/head.c     **** 
  78:UI/head.c     **** extern unsigned char acPic[37641UL + 1];
  79:UI/head.c     **** static void _cbDialog(WM_MESSAGE *pMsg)
  80:UI/head.c     **** {
  39              		.loc 1 80 1 view -0
  40              		.cfi_startproc
  41              		@ args = 0, pretend = 0, frame = 8
  42              		@ frame_needed = 0, uses_anonymous_args = 0
  43              		.loc 1 80 1 is_stmt 0 view .LVU1
  44 0000 30B5     		push	{r4, r5, lr}
  45              	.LCFI0:
  46              		.cfi_def_cfa_offset 12
  47              		.cfi_offset 4, -12
  48              		.cfi_offset 5, -8
  49              		.cfi_offset 14, -4
  50 0002 85B0     		sub	sp, sp, #20
  51              	.LCFI1:
  52              		.cfi_def_cfa_offset 32
  53 0004 0446     		mov	r4, r0
  81:UI/head.c     **** 	WM_HWIN hItem;
  54              		.loc 1 81 2 is_stmt 1 view .LVU2
  82:UI/head.c     **** 	GUI_RECT Rect;
  55              		.loc 1 82 2 view .LVU3
  83:UI/head.c     **** 	U32 FileSize;
  56              		.loc 1 83 2 view .LVU4
  84:UI/head.c     **** 	// USER START (Optionally insert additional variables)
  85:UI/head.c     **** 	// USER END
  86:UI/head.c     **** 
  87:UI/head.c     **** 	switch (pMsg->MsgId)
  57              		.loc 1 87 2 view .LVU5
  58              		.loc 1 87 14 is_stmt 0 view .LVU6
  59 0006 0368     		ldr	r3, [r0]
  60              		.loc 1 87 2 view .LVU7
  61 0008 1D2B     		cmp	r3, #29
  62 000a 08D0     		beq	.L2
  63 000c 40F21312 		movw	r2, #275
  64 0010 9342     		cmp	r3, r2
  65 0012 10D0     		beq	.L3
  66 0014 0F2B     		cmp	r3, #15
  67 0016 30D0     		beq	.L9
  88:UI/head.c     **** 	{
  89:UI/head.c     **** 	case WM_INIT_DIALOG:
  90:UI/head.c     **** 		//
  91:UI/head.c     **** 		// Initialization of 'Image'
  92:UI/head.c     **** 		//
  93:UI/head.c     **** 		hItem = WM_GetDialogItem(pMsg->hWin, ID_IMAGE_0);
  94:UI/head.c     **** 		//	GUI_GIF_GetInfo(acPic, sizeof(acPic), &GifInfo);
  95:UI/head.c     **** 
  96:UI/head.c     **** 		IMAGE_SetGIF(hItem, acPic, sizeof(acPic));
ARM GAS  C:\Users\gx\AppData\Local\Temp\cc34ZnBG.s 			page 4


  97:UI/head.c     **** 		// USER START (Optionally insert additional code for further widget initialization)
  98:UI/head.c     **** 		// USER END
  99:UI/head.c     **** 		break;
 100:UI/head.c     **** 		// USER START (Optionally insert additional message handling)
 101:UI/head.c     **** 	case WM_TIMER:
 102:UI/head.c     **** 
 103:UI/head.c     **** 		HAL_RTC_GetTime(&hrtc, &RTC_Time, RTC_FORMAT_BIN);
 104:UI/head.c     **** 		HAL_RTC_GetDate(&hrtc, &RTC_Date, RTC_FORMAT_BIN);
 105:UI/head.c     **** 
 106:UI/head.c     **** 		WM_RestartTimer(pMsg->Data.v, 1000);
 107:UI/head.c     **** 
 108:UI/head.c     **** 		Rect.x0 = 400;
 109:UI/head.c     **** 		Rect.x1 = 480;
 110:UI/head.c     **** 		Rect.y0 = 0;
 111:UI/head.c     **** 		Rect.y1 = 40;
 112:UI/head.c     **** 
 113:UI/head.c     **** 		WM_InvalidateArea(&Rect);
 114:UI/head.c     **** 		//WM_InvalidateWindow(pMsg->hWin);
 115:UI/head.c     **** 		break;
 116:UI/head.c     **** 	case WM_PAINT:
 117:UI/head.c     **** 		GUI_DrawGradientV(100 ,0, 479, 20, GUI_LIGHTBLUE, 0x00FF3030);
 118:UI/head.c     **** 		GUI_DrawGradientV(100, 15, 479, 40, 0x00FF3030, GUI_LIGHTBLUE);
 119:UI/head.c     **** 
 120:UI/head.c     **** 		GUI_SetTextMode(GUI_TM_TRANS);
 121:UI/head.c     **** 		GUI_SetFont(GUI_FONT_20B_1);
 122:UI/head.c     **** 		GUI_SetColor(GUI_BLACK);
 123:UI/head.c     **** 		GUI_DispStringHCenterAt("GX emwin test", 240, 5);
 124:UI/head.c     **** 
 125:UI/head.c     **** 		GUI_SetFont(GUI_FONT_16B_1);
 126:UI/head.c     **** 		if (1)
 127:UI/head.c     **** 		{
 128:UI/head.c     **** 			sprintf(str_time, "%02d:%02d:%02d", RTC_Time.Hours, RTC_Time.Minutes, RTC_Time.Seconds);
 129:UI/head.c     **** 			GUI_DispStringHCenterAt(str_time, 440, 2);
 130:UI/head.c     **** 			sprintf(str_time, "20%02d/%d/%d", RTC_Date.Year, RTC_Date.Month, RTC_Date.Date);
 131:UI/head.c     **** 			GUI_DispStringHCenterAt(str_time, 440, 22);
 132:UI/head.c     **** 		}
 133:UI/head.c     **** 
 134:UI/head.c     **** 		break;
 135:UI/head.c     **** 	// USER END
 136:UI/head.c     **** 	default:
 137:UI/head.c     **** 		WM_DefaultProc(pMsg);
  68              		.loc 1 137 3 is_stmt 1 view .LVU8
  69 0018 FFF7FEFF 		bl	WM_DefaultProc
  70              	.LVL1:
 138:UI/head.c     **** 		break;
  71              		.loc 1 138 3 view .LVU9
 139:UI/head.c     **** 	}
 140:UI/head.c     **** }
  72              		.loc 1 140 1 is_stmt 0 view .LVU10
  73 001c 09E0     		b	.L1
  74              	.LVL2:
  75              	.L2:
  93:UI/head.c     **** 		//	GUI_GIF_GetInfo(acPic, sizeof(acPic), &GifInfo);
  76              		.loc 1 93 3 is_stmt 1 view .LVU11
  93:UI/head.c     **** 		//	GUI_GIF_GetInfo(acPic, sizeof(acPic), &GifInfo);
  77              		.loc 1 93 11 is_stmt 0 view .LVU12
  78 001e 40F60201 		movw	r1, #2050
ARM GAS  C:\Users\gx\AppData\Local\Temp\cc34ZnBG.s 			page 5


  79 0022 4068     		ldr	r0, [r0, #4]
  80              	.LVL3:
  93:UI/head.c     **** 		//	GUI_GIF_GetInfo(acPic, sizeof(acPic), &GifInfo);
  81              		.loc 1 93 11 view .LVU13
  82 0024 FFF7FEFF 		bl	WM_GetDialogItem
  83              	.LVL4:
  96:UI/head.c     **** 		// USER START (Optionally insert additional code for further widget initialization)
  84              		.loc 1 96 3 is_stmt 1 view .LVU14
  85 0028 49F20A32 		movw	r2, #37642
  86 002c 3549     		ldr	r1, .L10
  87 002e FFF7FEFF 		bl	IMAGE_SetGIF
  88              	.LVL5:
  99:UI/head.c     **** 		// USER START (Optionally insert additional message handling)
  89              		.loc 1 99 3 view .LVU15
  90              	.L1:
  91              		.loc 1 140 1 is_stmt 0 view .LVU16
  92 0032 05B0     		add	sp, sp, #20
  93              	.LCFI2:
  94              		.cfi_remember_state
  95              		.cfi_def_cfa_offset 12
  96              		@ sp needed
  97 0034 30BD     		pop	{r4, r5, pc}
  98              	.LVL6:
  99              	.L3:
 100              	.LCFI3:
 101              		.cfi_restore_state
 103:UI/head.c     **** 		HAL_RTC_GetDate(&hrtc, &RTC_Date, RTC_FORMAT_BIN);
 102              		.loc 1 103 3 is_stmt 1 view .LVU17
 103 0036 344D     		ldr	r5, .L10+4
 104 0038 0022     		movs	r2, #0
 105 003a 3449     		ldr	r1, .L10+8
 106 003c 2846     		mov	r0, r5
 107              	.LVL7:
 103:UI/head.c     **** 		HAL_RTC_GetDate(&hrtc, &RTC_Date, RTC_FORMAT_BIN);
 108              		.loc 1 103 3 is_stmt 0 view .LVU18
 109 003e FFF7FEFF 		bl	HAL_RTC_GetTime
 110              	.LVL8:
 104:UI/head.c     **** 
 111              		.loc 1 104 3 is_stmt 1 view .LVU19
 112 0042 0022     		movs	r2, #0
 113 0044 3249     		ldr	r1, .L10+12
 114 0046 2846     		mov	r0, r5
 115 0048 FFF7FEFF 		bl	HAL_RTC_GetDate
 116              	.LVL9:
 106:UI/head.c     **** 
 117              		.loc 1 106 3 view .LVU20
 118 004c 4FF47A71 		mov	r1, #1000
 119 0050 E068     		ldr	r0, [r4, #12]
 120 0052 FFF7FEFF 		bl	WM_RestartTimer
 121              	.LVL10:
 108:UI/head.c     **** 		Rect.x1 = 480;
 122              		.loc 1 108 3 view .LVU21
 108:UI/head.c     **** 		Rect.x1 = 480;
 123              		.loc 1 108 11 is_stmt 0 view .LVU22
 124 0056 4FF4C873 		mov	r3, #400
 125 005a ADF80830 		strh	r3, [sp, #8]	@ movhi
 109:UI/head.c     **** 		Rect.y0 = 0;
ARM GAS  C:\Users\gx\AppData\Local\Temp\cc34ZnBG.s 			page 6


 126              		.loc 1 109 3 is_stmt 1 view .LVU23
 109:UI/head.c     **** 		Rect.y0 = 0;
 127              		.loc 1 109 11 is_stmt 0 view .LVU24
 128 005e 4FF4F073 		mov	r3, #480
 129 0062 ADF80C30 		strh	r3, [sp, #12]	@ movhi
 110:UI/head.c     **** 		Rect.y1 = 40;
 130              		.loc 1 110 3 is_stmt 1 view .LVU25
 110:UI/head.c     **** 		Rect.y1 = 40;
 131              		.loc 1 110 11 is_stmt 0 view .LVU26
 132 0066 0023     		movs	r3, #0
 133 0068 ADF80A30 		strh	r3, [sp, #10]	@ movhi
 111:UI/head.c     **** 
 134              		.loc 1 111 3 is_stmt 1 view .LVU27
 111:UI/head.c     **** 
 135              		.loc 1 111 11 is_stmt 0 view .LVU28
 136 006c 2823     		movs	r3, #40
 137 006e ADF80E30 		strh	r3, [sp, #14]	@ movhi
 113:UI/head.c     **** 		//WM_InvalidateWindow(pMsg->hWin);
 138              		.loc 1 113 3 is_stmt 1 view .LVU29
 139 0072 02A8     		add	r0, sp, #8
 140 0074 FFF7FEFF 		bl	WM_InvalidateArea
 141              	.LVL11:
 115:UI/head.c     **** 	case WM_PAINT:
 142              		.loc 1 115 3 view .LVU30
 143 0078 DBE7     		b	.L1
 144              	.LVL12:
 145              	.L9:
 117:UI/head.c     **** 		GUI_DrawGradientV(100, 15, 479, 40, 0x00FF3030, GUI_LIGHTBLUE);
 146              		.loc 1 117 3 view .LVU31
 147 007a 264C     		ldr	r4, .L10+16
 148 007c 0194     		str	r4, [sp, #4]
 149 007e 264D     		ldr	r5, .L10+20
 150 0080 0095     		str	r5, [sp]
 151 0082 1423     		movs	r3, #20
 152 0084 40F2DF12 		movw	r2, #479
 153 0088 0021     		movs	r1, #0
 154 008a 6420     		movs	r0, #100
 155              	.LVL13:
 117:UI/head.c     **** 		GUI_DrawGradientV(100, 15, 479, 40, 0x00FF3030, GUI_LIGHTBLUE);
 156              		.loc 1 117 3 is_stmt 0 view .LVU32
 157 008c FFF7FEFF 		bl	GUI_DrawGradientV
 158              	.LVL14:
 118:UI/head.c     **** 
 159              		.loc 1 118 3 is_stmt 1 view .LVU33
 160 0090 0195     		str	r5, [sp, #4]
 161 0092 0094     		str	r4, [sp]
 162 0094 2823     		movs	r3, #40
 163 0096 40F2DF12 		movw	r2, #479
 164 009a 0F21     		movs	r1, #15
 165 009c 6420     		movs	r0, #100
 166 009e FFF7FEFF 		bl	GUI_DrawGradientV
 167              	.LVL15:
 120:UI/head.c     **** 		GUI_SetFont(GUI_FONT_20B_1);
 168              		.loc 1 120 3 view .LVU34
 169 00a2 0220     		movs	r0, #2
 170 00a4 FFF7FEFF 		bl	GUI_SetTextMode
 171              	.LVL16:
ARM GAS  C:\Users\gx\AppData\Local\Temp\cc34ZnBG.s 			page 7


 121:UI/head.c     **** 		GUI_SetColor(GUI_BLACK);
 172              		.loc 1 121 3 view .LVU35
 173 00a8 1C48     		ldr	r0, .L10+24
 174 00aa FFF7FEFF 		bl	GUI_SetFont
 175              	.LVL17:
 122:UI/head.c     **** 		GUI_DispStringHCenterAt("GX emwin test", 240, 5);
 176              		.loc 1 122 3 view .LVU36
 177 00ae 0020     		movs	r0, #0
 178 00b0 FFF7FEFF 		bl	GUI_SetColor
 179              	.LVL18:
 123:UI/head.c     **** 
 180              		.loc 1 123 3 view .LVU37
 181 00b4 0522     		movs	r2, #5
 182 00b6 F021     		movs	r1, #240
 183 00b8 1948     		ldr	r0, .L10+28
 184 00ba FFF7FEFF 		bl	GUI_DispStringHCenterAt
 185              	.LVL19:
 125:UI/head.c     **** 		if (1)
 186              		.loc 1 125 3 view .LVU38
 187 00be 1948     		ldr	r0, .L10+32
 188 00c0 FFF7FEFF 		bl	GUI_SetFont
 189              	.LVL20:
 126:UI/head.c     **** 		{
 190              		.loc 1 126 3 view .LVU39
 128:UI/head.c     **** 			GUI_DispStringHCenterAt(str_time, 440, 2);
 191              		.loc 1 128 4 view .LVU40
 128:UI/head.c     **** 			GUI_DispStringHCenterAt(str_time, 440, 2);
 192              		.loc 1 128 48 is_stmt 0 view .LVU41
 193 00c4 114A     		ldr	r2, .L10+8
 128:UI/head.c     **** 			GUI_DispStringHCenterAt(str_time, 440, 2);
 194              		.loc 1 128 82 view .LVU42
 195 00c6 9378     		ldrb	r3, [r2, #2]	@ zero_extendqisi2
 128:UI/head.c     **** 			GUI_DispStringHCenterAt(str_time, 440, 2);
 196              		.loc 1 128 4 view .LVU43
 197 00c8 174C     		ldr	r4, .L10+36
 198 00ca 0093     		str	r3, [sp]
 199 00cc 5378     		ldrb	r3, [r2, #1]	@ zero_extendqisi2
 200 00ce 1278     		ldrb	r2, [r2]	@ zero_extendqisi2
 201 00d0 1649     		ldr	r1, .L10+40
 202 00d2 2046     		mov	r0, r4
 203 00d4 FFF7FEFF 		bl	sprintf
 204              	.LVL21:
 129:UI/head.c     **** 			sprintf(str_time, "20%02d/%d/%d", RTC_Date.Year, RTC_Date.Month, RTC_Date.Date);
 205              		.loc 1 129 4 is_stmt 1 view .LVU44
 206 00d8 0222     		movs	r2, #2
 207 00da 4FF4DC71 		mov	r1, #440
 208 00de 2046     		mov	r0, r4
 209 00e0 FFF7FEFF 		bl	GUI_DispStringHCenterAt
 210              	.LVL22:
 130:UI/head.c     **** 			GUI_DispStringHCenterAt(str_time, 440, 22);
 211              		.loc 1 130 4 view .LVU45
 130:UI/head.c     **** 			GUI_DispStringHCenterAt(str_time, 440, 22);
 212              		.loc 1 130 46 is_stmt 0 view .LVU46
 213 00e4 0A4A     		ldr	r2, .L10+12
 130:UI/head.c     **** 			GUI_DispStringHCenterAt(str_time, 440, 22);
 214              		.loc 1 130 77 view .LVU47
 215 00e6 9378     		ldrb	r3, [r2, #2]	@ zero_extendqisi2
ARM GAS  C:\Users\gx\AppData\Local\Temp\cc34ZnBG.s 			page 8


 130:UI/head.c     **** 			GUI_DispStringHCenterAt(str_time, 440, 22);
 216              		.loc 1 130 4 view .LVU48
 217 00e8 0093     		str	r3, [sp]
 218 00ea 5378     		ldrb	r3, [r2, #1]	@ zero_extendqisi2
 219 00ec D278     		ldrb	r2, [r2, #3]	@ zero_extendqisi2
 220 00ee 1049     		ldr	r1, .L10+44
 221 00f0 2046     		mov	r0, r4
 222 00f2 FFF7FEFF 		bl	sprintf
 223              	.LVL23:
 131:UI/head.c     **** 		}
 224              		.loc 1 131 4 is_stmt 1 view .LVU49
 225 00f6 1622     		movs	r2, #22
 226 00f8 4FF4DC71 		mov	r1, #440
 227 00fc 2046     		mov	r0, r4
 228 00fe FFF7FEFF 		bl	GUI_DispStringHCenterAt
 229              	.LVL24:
 230 0102 96E7     		b	.L1
 231              	.L11:
 232              		.align	2
 233              	.L10:
 234 0104 00000000 		.word	acPic
 235 0108 00000000 		.word	hrtc
 236 010c 00000000 		.word	RTC_Time
 237 0110 00000000 		.word	RTC_Date
 238 0114 3030FF00 		.word	16724016
 239 0118 8080FF00 		.word	16744576
 240 011c 00000000 		.word	GUI_Font20B_1
 241 0120 00000000 		.word	.LC0
 242 0124 00000000 		.word	GUI_Font16B_1
 243 0128 00000000 		.word	str_time
 244 012c 10000000 		.word	.LC1
 245 0130 20000000 		.word	.LC2
 246              		.cfi_endproc
 247              	.LFE126:
 249              		.section	.text.HeadWindow,"ax",%progbits
 250              		.align	1
 251              		.global	HeadWindow
 252              		.syntax unified
 253              		.thumb
 254              		.thumb_func
 255              		.fpu fpv4-sp-d16
 257              	HeadWindow:
 258              	.LFB127:
 141:UI/head.c     **** 
 142:UI/head.c     **** /*********************************************************************
 143:UI/head.c     **** *
 144:UI/head.c     **** *       Public code
 145:UI/head.c     **** *
 146:UI/head.c     **** **********************************************************************
 147:UI/head.c     **** */
 148:UI/head.c     **** /*********************************************************************
 149:UI/head.c     **** *
 150:UI/head.c     **** *       CreateWindow
 151:UI/head.c     **** */
 152:UI/head.c     **** WM_HWIN HeadWindow(void);
 153:UI/head.c     **** WM_HWIN HeadWindow(void)
 154:UI/head.c     **** {
ARM GAS  C:\Users\gx\AppData\Local\Temp\cc34ZnBG.s 			page 9


 259              		.loc 1 154 1 view -0
 260              		.cfi_startproc
 261              		@ args = 0, pretend = 0, frame = 0
 262              		@ frame_needed = 0, uses_anonymous_args = 0
 263 0000 30B5     		push	{r4, r5, lr}
 264              	.LCFI4:
 265              		.cfi_def_cfa_offset 12
 266              		.cfi_offset 4, -12
 267              		.cfi_offset 5, -8
 268              		.cfi_offset 14, -4
 269 0002 83B0     		sub	sp, sp, #12
 270              	.LCFI5:
 271              		.cfi_def_cfa_offset 24
 155:UI/head.c     **** 	WM_HWIN hWin;
 272              		.loc 1 155 2 view .LVU51
 156:UI/head.c     **** 	WM_HTIMER h_timer;
 273              		.loc 1 156 2 view .LVU52
 157:UI/head.c     **** 	hWin = GUI_CreateDialogBox(_aDialogCreate, GUI_COUNTOF(_aDialogCreate), _cbDialog, WM_HBKWIN, 0, 0
 274              		.loc 1 157 2 view .LVU53
 275              		.loc 1 157 9 is_stmt 0 view .LVU54
 276 0004 FFF7FEFF 		bl	WM_GetDesktopWindow
 277              	.LVL25:
 278 0008 0346     		mov	r3, r0
 279 000a 0024     		movs	r4, #0
 280 000c 0194     		str	r4, [sp, #4]
 281 000e 0094     		str	r4, [sp]
 282 0010 074A     		ldr	r2, .L14
 283 0012 0221     		movs	r1, #2
 284 0014 0748     		ldr	r0, .L14+4
 285 0016 FFF7FEFF 		bl	GUI_CreateDialogBox
 286              	.LVL26:
 287 001a 0546     		mov	r5, r0
 288              	.LVL27:
 158:UI/head.c     **** 	h_timer = WM_CreateTimer(hWin, 0, 1000, 0);
 289              		.loc 1 158 2 is_stmt 1 view .LVU55
 290              		.loc 1 158 12 is_stmt 0 view .LVU56
 291 001c 2346     		mov	r3, r4
 292 001e 4FF47A72 		mov	r2, #1000
 293 0022 2146     		mov	r1, r4
 294 0024 FFF7FEFF 		bl	WM_CreateTimer
 295              	.LVL28:
 159:UI/head.c     **** 	return hWin;
 296              		.loc 1 159 2 is_stmt 1 view .LVU57
 160:UI/head.c     **** }
 297              		.loc 1 160 1 is_stmt 0 view .LVU58
 298 0028 2846     		mov	r0, r5
 299 002a 03B0     		add	sp, sp, #12
 300              	.LCFI6:
 301              		.cfi_def_cfa_offset 12
 302              		@ sp needed
 303 002c 30BD     		pop	{r4, r5, pc}
 304              	.LVL29:
 305              	.L15:
 306              		.loc 1 160 1 view .LVU59
 307 002e 00BF     		.align	2
 308              	.L14:
 309 0030 00000000 		.word	_cbDialog
ARM GAS  C:\Users\gx\AppData\Local\Temp\cc34ZnBG.s 			page 10


 310 0034 00000000 		.word	.LANCHOR0
 311              		.cfi_endproc
 312              	.LFE127:
 314              		.comm	RTC_Date,4,4
 315              		.comm	RTC_Time,20,4
 316              		.comm	str_time,15,4
 317              		.section	.rodata.str1.4,"aMS",%progbits,1
 318              		.align	2
 319              	.LC3:
 320 0000 57696E64 		.ascii	"Window\000"
 320      6F7700
 321 0007 00       		.align	2
 322              	.LC4:
 323 0008 496D6167 		.ascii	"Image\000"
 323      6500
 324              		.section	.rodata._aDialogCreate,"a"
 325              		.align	2
 326              		.set	.LANCHOR0,. + 0
 329              	_aDialogCreate:
 330 0000 00000000 		.word	WINDOW_CreateIndirect
 331 0004 00000000 		.word	.LC3
 332 0008 0008     		.short	2048
 333 000a 0000     		.short	0
 334 000c 0000     		.short	0
 335 000e E001     		.short	480
 336 0010 2800     		.short	40
 337 0012 0000     		.short	0
 338 0014 00000000 		.word	0
 339 0018 00000000 		.word	0
 340 001c 00000000 		.word	IMAGE_CreateIndirect
 341 0020 08000000 		.word	.LC4
 342 0024 0208     		.short	2050
 343 0026 0000     		.short	0
 344 0028 0000     		.short	0
 345 002a 6400     		.short	100
 346 002c 2800     		.short	40
 347 002e 0000     		.short	0
 348 0030 00000000 		.word	0
 349 0034 00000000 		.word	0
 350              		.text
 351              	.Letext0:
 352              		.file 2 "emWin/inc/LCD.h"
 353              		.file 3 "emWin/inc/GUI.h"
 354              		.file 4 "emWin/inc/GUI_Type.h"
 355              		.file 5 "emWin/inc/WM.h"
 356              		.file 6 "emWin/inc/DIALOG_Intern.h"
 357              		.file 7 "emWin/inc/LCD_Protected.h"
 358              		.file 8 "emWin/inc/GUI_Private.h"
 359              		.file 9 "emWin/inc/WM_Intern.h"
 360              		.file 10 "emWin/inc/WIDGET.h"
 361              		.file 11 "c:\\program files (x86)\\gnu arm embedded toolchain\\9 2020-q2-update\\arm-none-eabi\\in
 362              		.file 12 "c:\\program files (x86)\\gnu arm embedded toolchain\\9 2020-q2-update\\arm-none-eabi\\in
 363              		.file 13 "Drivers/CMSIS/Include/core_cm4.h"
 364              		.file 14 "Drivers/CMSIS/Device/ST/STM32F4xx/Include/system_stm32f4xx.h"
 365              		.file 15 "Drivers/CMSIS/Device/ST/STM32F4xx/Include/stm32f407xx.h"
 366              		.file 16 "c:\\program files (x86)\\gnu arm embedded toolchain\\9 2020-q2-update\\lib\\gcc\\arm-non
 367              		.file 17 "c:\\program files (x86)\\gnu arm embedded toolchain\\9 2020-q2-update\\arm-none-eabi\\in
ARM GAS  C:\Users\gx\AppData\Local\Temp\cc34ZnBG.s 			page 11


 368              		.file 18 "c:\\program files (x86)\\gnu arm embedded toolchain\\9 2020-q2-update\\arm-none-eabi\\in
 369              		.file 19 "c:\\program files (x86)\\gnu arm embedded toolchain\\9 2020-q2-update\\arm-none-eabi\\in
 370              		.file 20 "Drivers/STM32F4xx_HAL_Driver/Inc/stm32f4xx_hal_def.h"
 371              		.file 21 "Drivers/STM32F4xx_HAL_Driver/Inc/stm32f4xx_hal_rtc.h"
 372              		.file 22 "Inc/rtc.h"
 373              		.file 23 "emWin/inc/IMAGE.h"
 374              		.file 24 "c:\\program files (x86)\\gnu arm embedded toolchain\\9 2020-q2-update\\arm-none-eabi\\in
ARM GAS  C:\Users\gx\AppData\Local\Temp\cc34ZnBG.s 			page 12

