ARM GAS  C:\Users\gx\AppData\Local\Temp\cc6XjXW5.s 			page 1


   1              		.cpu cortex-m4
   2              		.eabi_attribute 27, 1
   3              		.eabi_attribute 28, 1
   4              		.eabi_attribute 20, 1
   5              		.eabi_attribute 21, 1
   6              		.eabi_attribute 23, 3
   7              		.eabi_attribute 24, 1
   8              		.eabi_attribute 25, 1
   9              		.eabi_attribute 26, 1
  10              		.eabi_attribute 30, 1
  11              		.eabi_attribute 34, 1
  12              		.eabi_attribute 18, 4
  13              		.file	"info.c"
  14              		.text
  15              	.Ltext0:
  16              		.cfi_sections	.debug_frame
  17              		.section	.rodata._cbDialog.str1.4,"aMS",%progbits,1
  18              		.align	2
  19              	.LC0:
  20 0000 76657273 		.ascii	"version:\015\012%d.%d\000"
  20      696F6E3A 
  20      0D0A2564 
  20      2E256400 
  21              		.align	2
  22              	.LC1:
  23 0010 43505520 		.ascii	"CPU ID:\015\012%08X.%08X.%08X\000"
  23      49443A0D 
  23      0A253038 
  23      582E2530 
  23      38582E25 
  24              		.align	2
  25              	.LC2:
  26 0028 32333A35 		.ascii	"23:54:49\000"
  26      343A3439 
  26      00
  27 0031 000000   		.align	2
  28              	.LC3:
  29 0034 41756720 		.ascii	"Aug  7 2021\000"
  29      20372032 
  29      30323100 
  30              		.align	2
  31              	.LC4:
  32 0040 436F6D70 		.ascii	"Compile time:\015\012%s--%s\000"
  32      696C6520 
  32      74696D65 
  32      3A0D0A25 
  32      732D2D25 
  33 0056 0000     		.align	2
  34              	.LC5:
  35 0058 656D7769 		.ascii	"emwin test!\000"
  35      6E207465 
  35      73742100 
  36              		.align	2
  37              	.LC6:
  38 0064 52657475 		.ascii	"Return\000"
  38      726E00
  39 006b 00       		.align	2
ARM GAS  C:\Users\gx\AppData\Local\Temp\cc6XjXW5.s 			page 2


  40              	.LC7:
  41 006c 55706772 		.ascii	"Upgrade\000"
  41      61646500 
  42              		.section	.text._cbDialog,"ax",%progbits
  43              		.align	1
  44              		.arch armv7e-m
  45              		.syntax unified
  46              		.thumb
  47              		.thumb_func
  48              		.fpu fpv4-sp-d16
  50              	_cbDialog:
  51              	.LVL0:
  52              	.LFB126:
  53              		.file 1 "UI/info.c"
   1:UI/info.c     **** /*********************************************************************
   2:UI/info.c     **** *                                                                    *
   3:UI/info.c     **** *                SEGGER Microcontroller GmbH & Co. KG                *
   4:UI/info.c     **** *        Solutions for real time microcontroller applications        *
   5:UI/info.c     **** *                                                                    *
   6:UI/info.c     **** **********************************************************************
   7:UI/info.c     **** *                                                                    *
   8:UI/info.c     **** * C-file generated by:                                               *
   9:UI/info.c     **** *                                                                    *
  10:UI/info.c     **** *        GUI_Builder for emWin version 5.22                          *
  11:UI/info.c     **** *        Compiled Jul  4 2013, 15:16:01                              *
  12:UI/info.c     **** *        (c) 2013 Segger Microcontroller GmbH & Co. KG               *
  13:UI/info.c     **** *                                                                    *
  14:UI/info.c     **** **********************************************************************
  15:UI/info.c     **** *                                                                    *
  16:UI/info.c     **** *        Internet: www.segger.com  Support: support@segger.com       *
  17:UI/info.c     **** *                                                                    *
  18:UI/info.c     **** **********************************************************************
  19:UI/info.c     **** */
  20:UI/info.c     **** 
  21:UI/info.c     **** // USER START (Optionally insert additional includes)
  22:UI/info.c     **** // USER END
  23:UI/info.c     **** 
  24:UI/info.c     **** #include "DIALOG.h"
  25:UI/info.c     **** #include "stdio.h"
  26:UI/info.c     **** #include "stdint.h"
  27:UI/info.c     **** #include "stm32f4xx_hal.h"
  28:UI/info.c     **** 
  29:UI/info.c     **** /*********************************************************************
  30:UI/info.c     **** *
  31:UI/info.c     **** *       Defines
  32:UI/info.c     **** *
  33:UI/info.c     **** **********************************************************************
  34:UI/info.c     **** */
  35:UI/info.c     **** #define ID_WINDOW_0 (GUI_ID_USER + 0x00)
  36:UI/info.c     **** #define ID_BUTTON_0 (GUI_ID_USER + 0x01)
  37:UI/info.c     **** #define ID_BUTTON_1 (GUI_ID_USER + 0x02)
  38:UI/info.c     **** // USER START (Optionally insert additional defines)
  39:UI/info.c     **** 
  40:UI/info.c     **** // USER END
  41:UI/info.c     **** 
  42:UI/info.c     **** /*********************************************************************
  43:UI/info.c     **** *
ARM GAS  C:\Users\gx\AppData\Local\Temp\cc6XjXW5.s 			page 3


  44:UI/info.c     **** *       Static data
  45:UI/info.c     **** *
  46:UI/info.c     **** **********************************************************************
  47:UI/info.c     **** */
  48:UI/info.c     **** 
  49:UI/info.c     **** // USER START (Optionally insert additional static data)
  50:UI/info.c     **** // USER END
  51:UI/info.c     **** 
  52:UI/info.c     **** /*********************************************************************
  53:UI/info.c     **** *
  54:UI/info.c     **** *       _aDialogCreate
  55:UI/info.c     **** */
  56:UI/info.c     **** static const GUI_WIDGET_CREATE_INFO _aDialogCreate[] = {
  57:UI/info.c     ****     {WINDOW_CreateIndirect, "Window", ID_WINDOW_0, 0, 40, 480, 280, 0, 0x0, 0},
  58:UI/info.c     ****     // USER START (Optionally insert additional widgets)
  59:UI/info.c     ****     {BUTTON_CreateIndirect, "Return", ID_BUTTON_0, 300, 210, 80, 40, 0, 0x0, 0},
  60:UI/info.c     ****     {BUTTON_CreateIndirect, "Upgrade", ID_BUTTON_1, 100, 210, 80, 40, 0, 0x0, 0},
  61:UI/info.c     ****     // USER END
  62:UI/info.c     **** };
  63:UI/info.c     **** 
  64:UI/info.c     **** /*********************************************************************
  65:UI/info.c     **** *
  66:UI/info.c     **** *       Static code
  67:UI/info.c     **** *
  68:UI/info.c     **** **********************************************************************
  69:UI/info.c     **** */
  70:UI/info.c     **** 
  71:UI/info.c     **** // USER START (Optionally insert additional static code)
  72:UI/info.c     **** extern WM_HWIN H_Hand;
  73:UI/info.c     **** #define VH 0
  74:UI/info.c     **** #define VL 0
  75:UI/info.c     **** char str[40];
  76:UI/info.c     **** // USER END
  77:UI/info.c     **** 
  78:UI/info.c     **** /*********************************************************************
  79:UI/info.c     **** *
  80:UI/info.c     **** *       _cbDialog
  81:UI/info.c     **** */
  82:UI/info.c     **** extern WM_HWIN CalenderWindow(void);
  83:UI/info.c     **** extern void Startup(WM_HWIN hWin, uint16_t xpos, uint16_t ypos);
  84:UI/info.c     **** static void _cbDialog(WM_MESSAGE *pMsg)
  85:UI/info.c     **** {
  54              		.loc 1 85 1 view -0
  55              		.cfi_startproc
  56              		@ args = 0, pretend = 0, frame = 0
  57              		@ frame_needed = 0, uses_anonymous_args = 0
  58              		.loc 1 85 1 is_stmt 0 view .LVU1
  59 0000 70B5     		push	{r4, r5, r6, lr}
  60              	.LCFI0:
  61              		.cfi_def_cfa_offset 16
  62              		.cfi_offset 4, -16
  63              		.cfi_offset 5, -12
  64              		.cfi_offset 6, -8
  65              		.cfi_offset 14, -4
  66 0002 82B0     		sub	sp, sp, #8
  67              	.LCFI1:
  68              		.cfi_def_cfa_offset 24
ARM GAS  C:\Users\gx\AppData\Local\Temp\cc6XjXW5.s 			page 4


  69 0004 0446     		mov	r4, r0
  86:UI/info.c     **** 
  87:UI/info.c     ****   WM_HWIN hItem;
  70              		.loc 1 87 3 is_stmt 1 view .LVU2
  88:UI/info.c     ****   // USER START (Optionally insert additional variables)
  89:UI/info.c     ****   int NCode;
  71              		.loc 1 89 3 view .LVU3
  90:UI/info.c     ****   int Id;
  72              		.loc 1 90 3 view .LVU4
  91:UI/info.c     ****   int ver_h, ver_l;
  73              		.loc 1 91 3 view .LVU5
  92:UI/info.c     ****   uint32_t *CPU_ID;
  74              		.loc 1 92 3 view .LVU6
  93:UI/info.c     ****   // USER END
  94:UI/info.c     **** 
  95:UI/info.c     ****   switch (pMsg->MsgId)
  75              		.loc 1 95 3 view .LVU7
  76              		.loc 1 95 15 is_stmt 0 view .LVU8
  77 0006 0368     		ldr	r3, [r0]
  78              		.loc 1 95 3 view .LVU9
  79 0008 1D2B     		cmp	r3, #29
  80 000a 4CD0     		beq	.L2
  81 000c 262B     		cmp	r3, #38
  82 000e 66D0     		beq	.L3
  83 0010 0F2B     		cmp	r3, #15
  84 0012 02D0     		beq	.L9
  96:UI/info.c     ****   {
  97:UI/info.c     ****   case WM_PAINT:
  98:UI/info.c     ****     GUI_DrawGradientV(0, 0, 479, 280, GUI_LIGHTBLUE, GUI_BLUE);
  99:UI/info.c     ****     GUI_SetTextMode(GUI_TM_TRANS);
 100:UI/info.c     ****     GUI_SetFont(GUI_FONT_20_1);
 101:UI/info.c     ****     ver_h = VH;
 102:UI/info.c     ****     ver_l = VL;
 103:UI/info.c     ****     sprintf(str, "version:\r\n%d.%d", ver_h, ver_l);
 104:UI/info.c     ****     GUI_DispStringHCenterAt(str, 240, 20);
 105:UI/info.c     **** 
 106:UI/info.c     ****     CPU_ID = (uint32_t *)(0x1fff7a10);
 107:UI/info.c     ****     sprintf(str, "CPU ID:\r\n%08X.%08X.%08X", CPU_ID[0], CPU_ID[1], CPU_ID[2]);
 108:UI/info.c     ****     GUI_DispStringHCenterAt(str, 240, 70);
 109:UI/info.c     **** 
 110:UI/info.c     ****     sprintf(str, "Compile time:\r\n%s--%s", __DATE__, __TIME__);
 111:UI/info.c     ****     GUI_DispStringHCenterAt(str, 240, 120);
 112:UI/info.c     **** 
 113:UI/info.c     ****     sprintf(str, "emwin test!");
 114:UI/info.c     ****     GUI_DispStringHCenterAt(str, 240, 170);
 115:UI/info.c     **** 
 116:UI/info.c     ****     break;
 117:UI/info.c     ****   case WM_INIT_DIALOG:
 118:UI/info.c     ****     //
 119:UI/info.c     ****     // Initialization of 'SoftWare'
 120:UI/info.c     ****     //
 121:UI/info.c     **** 
 122:UI/info.c     ****     hItem = WM_GetDialogItem(pMsg->hWin, ID_BUTTON_0);
 123:UI/info.c     ****     BUTTON_SetFont(hItem, &GUI_Font20_1);
 124:UI/info.c     ****     BUTTON_SetText(hItem, "Return");
 125:UI/info.c     **** 
 126:UI/info.c     ****     hItem = WM_GetDialogItem(pMsg->hWin, ID_BUTTON_1);
ARM GAS  C:\Users\gx\AppData\Local\Temp\cc6XjXW5.s 			page 5


 127:UI/info.c     ****     BUTTON_SetFont(hItem, &GUI_Font20_1);
 128:UI/info.c     ****     BUTTON_SetText(hItem, "Upgrade");
 129:UI/info.c     **** 
 130:UI/info.c     ****     // USER START (Optionally insert additional code for further widget initialization)
 131:UI/info.c     ****     // USER END
 132:UI/info.c     ****     break;
 133:UI/info.c     ****     // USER START (Optionally insert additional message handling)
 134:UI/info.c     ****   case WM_NOTIFY_PARENT:
 135:UI/info.c     ****     Id = WM_GetId(pMsg->hWinSrc);
 136:UI/info.c     ****     NCode = pMsg->Data.v;
 137:UI/info.c     ****     switch (Id)
 138:UI/info.c     ****     {
 139:UI/info.c     ****     case ID_BUTTON_0: // Notifications sent by 'Button'
 140:UI/info.c     ****       switch (NCode)
 141:UI/info.c     ****       {
 142:UI/info.c     ****       case WM_NOTIFICATION_CLICKED:
 143:UI/info.c     ****         // USER START (Optionally insert code for reacting on notification message)
 144:UI/info.c     ****         // USER END
 145:UI/info.c     ****         break;
 146:UI/info.c     ****       case WM_NOTIFICATION_RELEASED:
 147:UI/info.c     ****         // USER START (Optionally insert code for reacting on notification message)
 148:UI/info.c     ****         hItem = pMsg->hWin;
 149:UI/info.c     ****         WM_DeleteWindow(hItem);
 150:UI/info.c     ****         CalenderWindow();
 151:UI/info.c     ****         //	H_Hand = SelectWindow();
 152:UI/info.c     ****         // USER END
 153:UI/info.c     ****         break;
 154:UI/info.c     ****         // USER START (Optionally insert additional code for further notification handling)
 155:UI/info.c     ****         // USER END
 156:UI/info.c     ****       }
 157:UI/info.c     ****       break;
 158:UI/info.c     ****     case ID_BUTTON_1: // Notifications sent by 'upgrade'
 159:UI/info.c     ****       switch (NCode)
 160:UI/info.c     ****       {
 161:UI/info.c     ****       case WM_NOTIFICATION_CLICKED:
 162:UI/info.c     ****         // USER START (Optionally insert code for reacting on notification message)
 163:UI/info.c     ****         // USER END
 164:UI/info.c     ****         break;
 165:UI/info.c     ****       case WM_NOTIFICATION_RELEASED:
 166:UI/info.c     ****         // USER START (Optionally insert code for reacting on notification message)
 167:UI/info.c     ****         /*
 168:UI/info.c     **** 		  			HAL_FLASH_Unlock();
 169:UI/info.c     **** 			FLASH_WaitForLastOperation((uint32_t)5000);
 170:UI/info.c     **** 			if (HAL_OK!=HAL_FLASH_Program(FLASH_TYPEPROGRAM_WORD,0x080E0000,0XB9F9D0C2))
 171:UI/info.c     **** 				printf("write error\r\n");
 172:UI/info.c     **** 			FLASH_WaitForLastOperation((uint32_t)5000);
 173:UI/info.c     **** 			HAL_FLASH_Lock();
 174:UI/info.c     **** 			*/
 175:UI/info.c     ****      hItem = pMsg->hWin;
 176:UI/info.c     ****     Startup(hItem,20,0);
 177:UI/info.c     ****        // NVIC_SystemReset();
 178:UI/info.c     ****         // USER END
 179:UI/info.c     ****         break;
 180:UI/info.c     ****         // USER START (Optionally insert additional code for further notification handling)
 181:UI/info.c     ****         // USER END
 182:UI/info.c     ****       }
 183:UI/info.c     ****       break;
ARM GAS  C:\Users\gx\AppData\Local\Temp\cc6XjXW5.s 			page 6


 184:UI/info.c     ****     }
 185:UI/info.c     ****     break;
 186:UI/info.c     ****   // USER END
 187:UI/info.c     ****   default:
 188:UI/info.c     ****     WM_DefaultProc(pMsg);
  85              		.loc 1 188 5 is_stmt 1 view .LVU10
  86 0014 FFF7FEFF 		bl	WM_DefaultProc
  87              	.LVL1:
 189:UI/info.c     ****     break;
  88              		.loc 1 189 5 view .LVU11
 190:UI/info.c     ****   }
 191:UI/info.c     **** }
  89              		.loc 1 191 1 is_stmt 0 view .LVU12
  90 0018 43E0     		b	.L1
  91              	.LVL2:
  92              	.L9:
  98:UI/info.c     ****     GUI_SetTextMode(GUI_TM_TRANS);
  93              		.loc 1 98 5 is_stmt 1 view .LVU13
  94 001a 4FF47F03 		mov	r3, #16711680
  95 001e 0193     		str	r3, [sp, #4]
  96 0020 3D4B     		ldr	r3, .L10
  97 0022 0093     		str	r3, [sp]
  98 0024 4FF48C73 		mov	r3, #280
  99 0028 40F2DF12 		movw	r2, #479
 100 002c 0021     		movs	r1, #0
 101 002e 0846     		mov	r0, r1
 102              	.LVL3:
  98:UI/info.c     ****     GUI_SetTextMode(GUI_TM_TRANS);
 103              		.loc 1 98 5 is_stmt 0 view .LVU14
 104 0030 FFF7FEFF 		bl	GUI_DrawGradientV
 105              	.LVL4:
  99:UI/info.c     ****     GUI_SetFont(GUI_FONT_20_1);
 106              		.loc 1 99 5 is_stmt 1 view .LVU15
 107 0034 0220     		movs	r0, #2
 108 0036 FFF7FEFF 		bl	GUI_SetTextMode
 109              	.LVL5:
 100:UI/info.c     ****     ver_h = VH;
 110              		.loc 1 100 5 view .LVU16
 111 003a 3848     		ldr	r0, .L10+4
 112 003c FFF7FEFF 		bl	GUI_SetFont
 113              	.LVL6:
 101:UI/info.c     ****     ver_l = VL;
 114              		.loc 1 101 5 view .LVU17
 102:UI/info.c     ****     sprintf(str, "version:\r\n%d.%d", ver_h, ver_l);
 115              		.loc 1 102 5 view .LVU18
 103:UI/info.c     ****     GUI_DispStringHCenterAt(str, 240, 20);
 116              		.loc 1 103 5 view .LVU19
 117 0040 374C     		ldr	r4, .L10+8
 118              	.LVL7:
 103:UI/info.c     ****     GUI_DispStringHCenterAt(str, 240, 20);
 119              		.loc 1 103 5 is_stmt 0 view .LVU20
 120 0042 0023     		movs	r3, #0
 121 0044 1A46     		mov	r2, r3
 122 0046 3749     		ldr	r1, .L10+12
 123 0048 2046     		mov	r0, r4
 124 004a FFF7FEFF 		bl	sprintf
 125              	.LVL8:
ARM GAS  C:\Users\gx\AppData\Local\Temp\cc6XjXW5.s 			page 7


 104:UI/info.c     **** 
 126              		.loc 1 104 5 is_stmt 1 view .LVU21
 127 004e 1422     		movs	r2, #20
 128 0050 F021     		movs	r1, #240
 129 0052 2046     		mov	r0, r4
 130 0054 FFF7FEFF 		bl	GUI_DispStringHCenterAt
 131              	.LVL9:
 106:UI/info.c     ****     sprintf(str, "CPU ID:\r\n%08X.%08X.%08X", CPU_ID[0], CPU_ID[1], CPU_ID[2]);
 132              		.loc 1 106 5 view .LVU22
 107:UI/info.c     ****     GUI_DispStringHCenterAt(str, 240, 70);
 133              		.loc 1 107 5 view .LVU23
 134 0058 334B     		ldr	r3, .L10+16
 135 005a 1B68     		ldr	r3, [r3]
 136 005c 334A     		ldr	r2, .L10+20
 137 005e 1268     		ldr	r2, [r2]
 138 0060 3349     		ldr	r1, .L10+24
 139 0062 0968     		ldr	r1, [r1]
 140 0064 0091     		str	r1, [sp]
 141 0066 3349     		ldr	r1, .L10+28
 142 0068 2046     		mov	r0, r4
 143 006a FFF7FEFF 		bl	sprintf
 144              	.LVL10:
 108:UI/info.c     **** 
 145              		.loc 1 108 5 view .LVU24
 146 006e 4622     		movs	r2, #70
 147 0070 F021     		movs	r1, #240
 148 0072 2046     		mov	r0, r4
 149 0074 FFF7FEFF 		bl	GUI_DispStringHCenterAt
 150              	.LVL11:
 110:UI/info.c     ****     GUI_DispStringHCenterAt(str, 240, 120);
 151              		.loc 1 110 5 view .LVU25
 152 0078 2F4B     		ldr	r3, .L10+32
 153 007a 304A     		ldr	r2, .L10+36
 154 007c 3049     		ldr	r1, .L10+40
 155 007e 2046     		mov	r0, r4
 156 0080 FFF7FEFF 		bl	sprintf
 157              	.LVL12:
 111:UI/info.c     **** 
 158              		.loc 1 111 5 view .LVU26
 159 0084 7822     		movs	r2, #120
 160 0086 F021     		movs	r1, #240
 161 0088 2046     		mov	r0, r4
 162 008a FFF7FEFF 		bl	GUI_DispStringHCenterAt
 163              	.LVL13:
 113:UI/info.c     ****     GUI_DispStringHCenterAt(str, 240, 170);
 164              		.loc 1 113 5 view .LVU27
 165 008e 2D4B     		ldr	r3, .L10+44
 166 0090 07CB     		ldmia	r3!, {r0, r1, r2}
 167 0092 2060     		str	r0, [r4]	@ unaligned
 168 0094 6160     		str	r1, [r4, #4]	@ unaligned
 169 0096 A260     		str	r2, [r4, #8]	@ unaligned
 114:UI/info.c     **** 
 170              		.loc 1 114 5 view .LVU28
 171 0098 AA22     		movs	r2, #170
 172 009a F021     		movs	r1, #240
 173 009c 2046     		mov	r0, r4
 174 009e FFF7FEFF 		bl	GUI_DispStringHCenterAt
ARM GAS  C:\Users\gx\AppData\Local\Temp\cc6XjXW5.s 			page 8


 175              	.LVL14:
 116:UI/info.c     ****   case WM_INIT_DIALOG:
 176              		.loc 1 116 5 view .LVU29
 177              	.L1:
 178              		.loc 1 191 1 is_stmt 0 view .LVU30
 179 00a2 02B0     		add	sp, sp, #8
 180              	.LCFI2:
 181              		.cfi_remember_state
 182              		.cfi_def_cfa_offset 16
 183              		@ sp needed
 184 00a4 70BD     		pop	{r4, r5, r6, pc}
 185              	.LVL15:
 186              	.L2:
 187              	.LCFI3:
 188              		.cfi_restore_state
 122:UI/info.c     ****     BUTTON_SetFont(hItem, &GUI_Font20_1);
 189              		.loc 1 122 5 is_stmt 1 view .LVU31
 122:UI/info.c     ****     BUTTON_SetFont(hItem, &GUI_Font20_1);
 190              		.loc 1 122 13 is_stmt 0 view .LVU32
 191 00a6 40F60101 		movw	r1, #2049
 192 00aa 4068     		ldr	r0, [r0, #4]
 193              	.LVL16:
 122:UI/info.c     ****     BUTTON_SetFont(hItem, &GUI_Font20_1);
 194              		.loc 1 122 13 view .LVU33
 195 00ac FFF7FEFF 		bl	WM_GetDialogItem
 196              	.LVL17:
 197 00b0 0546     		mov	r5, r0
 198              	.LVL18:
 123:UI/info.c     ****     BUTTON_SetText(hItem, "Return");
 199              		.loc 1 123 5 is_stmt 1 view .LVU34
 200 00b2 1A4E     		ldr	r6, .L10+4
 201 00b4 3146     		mov	r1, r6
 202 00b6 FFF7FEFF 		bl	BUTTON_SetFont
 203              	.LVL19:
 124:UI/info.c     **** 
 204              		.loc 1 124 5 view .LVU35
 205 00ba 2349     		ldr	r1, .L10+48
 206 00bc 2846     		mov	r0, r5
 207 00be FFF7FEFF 		bl	BUTTON_SetText
 208              	.LVL20:
 126:UI/info.c     ****     BUTTON_SetFont(hItem, &GUI_Font20_1);
 209              		.loc 1 126 5 view .LVU36
 126:UI/info.c     ****     BUTTON_SetFont(hItem, &GUI_Font20_1);
 210              		.loc 1 126 13 is_stmt 0 view .LVU37
 211 00c2 40F60201 		movw	r1, #2050
 212 00c6 6068     		ldr	r0, [r4, #4]
 213 00c8 FFF7FEFF 		bl	WM_GetDialogItem
 214              	.LVL21:
 215 00cc 0446     		mov	r4, r0
 216              	.LVL22:
 127:UI/info.c     ****     BUTTON_SetText(hItem, "Upgrade");
 217              		.loc 1 127 5 is_stmt 1 view .LVU38
 218 00ce 3146     		mov	r1, r6
 219 00d0 FFF7FEFF 		bl	BUTTON_SetFont
 220              	.LVL23:
 128:UI/info.c     **** 
 221              		.loc 1 128 5 view .LVU39
ARM GAS  C:\Users\gx\AppData\Local\Temp\cc6XjXW5.s 			page 9


 222 00d4 1D49     		ldr	r1, .L10+52
 223 00d6 2046     		mov	r0, r4
 224 00d8 FFF7FEFF 		bl	BUTTON_SetText
 225              	.LVL24:
 132:UI/info.c     ****     // USER START (Optionally insert additional message handling)
 226              		.loc 1 132 5 view .LVU40
 227 00dc E1E7     		b	.L1
 228              	.LVL25:
 229              	.L3:
 135:UI/info.c     ****     NCode = pMsg->Data.v;
 230              		.loc 1 135 5 view .LVU41
 135:UI/info.c     ****     NCode = pMsg->Data.v;
 231              		.loc 1 135 10 is_stmt 0 view .LVU42
 232 00de 8068     		ldr	r0, [r0, #8]
 233              	.LVL26:
 135:UI/info.c     ****     NCode = pMsg->Data.v;
 234              		.loc 1 135 10 view .LVU43
 235 00e0 FFF7FEFF 		bl	WM_GetId
 236              	.LVL27:
 136:UI/info.c     ****     switch (Id)
 237              		.loc 1 136 5 is_stmt 1 view .LVU44
 136:UI/info.c     ****     switch (Id)
 238              		.loc 1 136 11 is_stmt 0 view .LVU45
 239 00e4 E268     		ldr	r2, [r4, #12]
 240              	.LVL28:
 137:UI/info.c     ****     {
 241              		.loc 1 137 5 is_stmt 1 view .LVU46
 242 00e6 40F60103 		movw	r3, #2049
 243 00ea 9842     		cmp	r0, r3
 244 00ec 0BD0     		beq	.L6
 245 00ee 40F60203 		movw	r3, #2050
 246 00f2 9842     		cmp	r0, r3
 247 00f4 D5D1     		bne	.L1
 159:UI/info.c     ****       {
 248              		.loc 1 159 7 discriminator 2 view .LVU47
 249 00f6 022A     		cmp	r2, #2
 250 00f8 D3D1     		bne	.L1
 175:UI/info.c     ****     Startup(hItem,20,0);
 251              		.loc 1 175 6 view .LVU48
 252              	.LVL29:
 176:UI/info.c     ****        // NVIC_SystemReset();
 253              		.loc 1 176 5 view .LVU49
 254 00fa 0022     		movs	r2, #0
 255              	.LVL30:
 176:UI/info.c     ****        // NVIC_SystemReset();
 256              		.loc 1 176 5 is_stmt 0 view .LVU50
 257 00fc 1421     		movs	r1, #20
 258 00fe 6068     		ldr	r0, [r4, #4]
 259              	.LVL31:
 176:UI/info.c     ****        // NVIC_SystemReset();
 260              		.loc 1 176 5 view .LVU51
 261 0100 FFF7FEFF 		bl	Startup
 262              	.LVL32:
 179:UI/info.c     ****         // USER START (Optionally insert additional code for further notification handling)
 263              		.loc 1 179 9 is_stmt 1 view .LVU52
 264 0104 CDE7     		b	.L1
 265              	.LVL33:
ARM GAS  C:\Users\gx\AppData\Local\Temp\cc6XjXW5.s 			page 10


 266              	.L6:
 140:UI/info.c     ****       {
 267              		.loc 1 140 7 discriminator 1 view .LVU53
 268 0106 022A     		cmp	r2, #2
 269 0108 CBD1     		bne	.L1
 148:UI/info.c     ****         WM_DeleteWindow(hItem);
 270              		.loc 1 148 9 view .LVU54
 271              	.LVL34:
 149:UI/info.c     ****         CalenderWindow();
 272              		.loc 1 149 9 view .LVU55
 273 010a 6068     		ldr	r0, [r4, #4]
 274              	.LVL35:
 149:UI/info.c     ****         CalenderWindow();
 275              		.loc 1 149 9 is_stmt 0 view .LVU56
 276 010c FFF7FEFF 		bl	WM_DeleteWindow
 277              	.LVL36:
 150:UI/info.c     ****         //	H_Hand = SelectWindow();
 278              		.loc 1 150 9 is_stmt 1 view .LVU57
 279 0110 FFF7FEFF 		bl	CalenderWindow
 280              	.LVL37:
 153:UI/info.c     ****         // USER START (Optionally insert additional code for further notification handling)
 281              		.loc 1 153 9 view .LVU58
 282 0114 C5E7     		b	.L1
 283              	.L11:
 284 0116 00BF     		.align	2
 285              	.L10:
 286 0118 8080FF00 		.word	16744576
 287 011c 00000000 		.word	GUI_Font20_1
 288 0120 00000000 		.word	str
 289 0124 00000000 		.word	.LC0
 290 0128 147AFF1F 		.word	536836628
 291 012c 107AFF1F 		.word	536836624
 292 0130 187AFF1F 		.word	536836632
 293 0134 10000000 		.word	.LC1
 294 0138 28000000 		.word	.LC2
 295 013c 34000000 		.word	.LC3
 296 0140 40000000 		.word	.LC4
 297 0144 58000000 		.word	.LC5
 298 0148 64000000 		.word	.LC6
 299 014c 6C000000 		.word	.LC7
 300              		.cfi_endproc
 301              	.LFE126:
 303              		.section	.text.CreateSoftWare,"ax",%progbits
 304              		.align	1
 305              		.global	CreateSoftWare
 306              		.syntax unified
 307              		.thumb
 308              		.thumb_func
 309              		.fpu fpv4-sp-d16
 311              	CreateSoftWare:
 312              	.LFB127:
 192:UI/info.c     **** 
 193:UI/info.c     **** /*********************************************************************
 194:UI/info.c     **** *
 195:UI/info.c     **** *       Public code
 196:UI/info.c     **** *
 197:UI/info.c     **** **********************************************************************
ARM GAS  C:\Users\gx\AppData\Local\Temp\cc6XjXW5.s 			page 11


 198:UI/info.c     **** */
 199:UI/info.c     **** /*********************************************************************
 200:UI/info.c     **** *
 201:UI/info.c     **** *       CreateSoftWare
 202:UI/info.c     **** */
 203:UI/info.c     **** WM_HWIN CreateSoftWare(void);
 204:UI/info.c     **** WM_HWIN CreateSoftWare(void)
 205:UI/info.c     **** {
 313              		.loc 1 205 1 view -0
 314              		.cfi_startproc
 315              		@ args = 0, pretend = 0, frame = 0
 316              		@ frame_needed = 0, uses_anonymous_args = 0
 317 0000 00B5     		push	{lr}
 318              	.LCFI4:
 319              		.cfi_def_cfa_offset 4
 320              		.cfi_offset 14, -4
 321 0002 83B0     		sub	sp, sp, #12
 322              	.LCFI5:
 323              		.cfi_def_cfa_offset 16
 206:UI/info.c     ****   WM_HWIN hWin;
 324              		.loc 1 206 3 view .LVU60
 207:UI/info.c     **** 
 208:UI/info.c     ****   hWin = GUI_CreateDialogBox(_aDialogCreate, GUI_COUNTOF(_aDialogCreate), _cbDialog, WM_HBKWIN, 0, 
 325              		.loc 1 208 3 view .LVU61
 326              		.loc 1 208 10 is_stmt 0 view .LVU62
 327 0004 FFF7FEFF 		bl	WM_GetDesktopWindow
 328              	.LVL38:
 329 0008 0346     		mov	r3, r0
 330 000a 0022     		movs	r2, #0
 331 000c 0192     		str	r2, [sp, #4]
 332 000e 0092     		str	r2, [sp]
 333 0010 034A     		ldr	r2, .L14
 334 0012 0321     		movs	r1, #3
 335 0014 0348     		ldr	r0, .L14+4
 336 0016 FFF7FEFF 		bl	GUI_CreateDialogBox
 337              	.LVL39:
 209:UI/info.c     ****   return hWin;
 338              		.loc 1 209 3 is_stmt 1 view .LVU63
 210:UI/info.c     **** }
 339              		.loc 1 210 1 is_stmt 0 view .LVU64
 340 001a 03B0     		add	sp, sp, #12
 341              	.LCFI6:
 342              		.cfi_def_cfa_offset 4
 343              		@ sp needed
 344 001c 5DF804FB 		ldr	pc, [sp], #4
 345              	.L15:
 346              		.align	2
 347              	.L14:
 348 0020 00000000 		.word	_cbDialog
 349 0024 00000000 		.word	.LANCHOR0
 350              		.cfi_endproc
 351              	.LFE127:
 353              		.comm	str,40,4
 354              		.section	.rodata.str1.4,"aMS",%progbits,1
 355              		.align	2
 356              	.LC8:
 357 0000 57696E64 		.ascii	"Window\000"
ARM GAS  C:\Users\gx\AppData\Local\Temp\cc6XjXW5.s 			page 12


 357      6F7700
 358              		.section	.rodata._aDialogCreate,"a"
 359              		.align	2
 360              		.set	.LANCHOR0,. + 0
 363              	_aDialogCreate:
 364 0000 00000000 		.word	WINDOW_CreateIndirect
 365 0004 00000000 		.word	.LC8
 366 0008 0008     		.short	2048
 367 000a 0000     		.short	0
 368 000c 2800     		.short	40
 369 000e E001     		.short	480
 370 0010 1801     		.short	280
 371 0012 0000     		.short	0
 372 0014 00000000 		.word	0
 373 0018 00000000 		.word	0
 374 001c 00000000 		.word	BUTTON_CreateIndirect
 375 0020 64000000 		.word	.LC6
 376 0024 0108     		.short	2049
 377 0026 2C01     		.short	300
 378 0028 D200     		.short	210
 379 002a 5000     		.short	80
 380 002c 2800     		.short	40
 381 002e 0000     		.short	0
 382 0030 00000000 		.word	0
 383 0034 00000000 		.word	0
 384 0038 00000000 		.word	BUTTON_CreateIndirect
 385 003c 6C000000 		.word	.LC7
 386 0040 0208     		.short	2050
 387 0042 6400     		.short	100
 388 0044 D200     		.short	210
 389 0046 5000     		.short	80
 390 0048 2800     		.short	40
 391 004a 0000     		.short	0
 392 004c 00000000 		.word	0
 393 0050 00000000 		.word	0
 394              		.text
 395              	.Letext0:
 396              		.file 2 "emWin/inc/LCD.h"
 397              		.file 3 "emWin/inc/GUI.h"
 398              		.file 4 "emWin/inc/GUI_Type.h"
 399              		.file 5 "emWin/inc/WM.h"
 400              		.file 6 "emWin/inc/DIALOG_Intern.h"
 401              		.file 7 "emWin/inc/LCD_Protected.h"
 402              		.file 8 "emWin/inc/GUI_Private.h"
 403              		.file 9 "emWin/inc/WM_Intern.h"
 404              		.file 10 "emWin/inc/WIDGET.h"
 405              		.file 11 "c:\\program files (x86)\\gnu arm embedded toolchain\\9 2020-q2-update\\arm-none-eabi\\in
 406              		.file 12 "c:\\program files (x86)\\gnu arm embedded toolchain\\9 2020-q2-update\\lib\\gcc\\arm-non
 407              		.file 13 "c:\\program files (x86)\\gnu arm embedded toolchain\\9 2020-q2-update\\arm-none-eabi\\in
 408              		.file 14 "c:\\program files (x86)\\gnu arm embedded toolchain\\9 2020-q2-update\\arm-none-eabi\\in
 409              		.file 15 "c:\\program files (x86)\\gnu arm embedded toolchain\\9 2020-q2-update\\arm-none-eabi\\in
 410              		.file 16 "c:\\program files (x86)\\gnu arm embedded toolchain\\9 2020-q2-update\\arm-none-eabi\\in
 411              		.file 17 "Drivers/CMSIS/Include/core_cm4.h"
 412              		.file 18 "Drivers/CMSIS/Device/ST/STM32F4xx/Include/system_stm32f4xx.h"
 413              		.file 19 "c:\\program files (x86)\\gnu arm embedded toolchain\\9 2020-q2-update\\arm-none-eabi\\in
 414              		.file 20 "emWin/inc/BUTTON.h"
ARM GAS  C:\Users\gx\AppData\Local\Temp\cc6XjXW5.s 			page 13

