ARM GAS  C:\Users\gx\AppData\Local\Temp\ccp1x1Ug.s 			page 1


   1              		.cpu cortex-m4
   2              		.eabi_attribute 27, 1
   3              		.eabi_attribute 28, 1
   4              		.eabi_attribute 20, 1
   5              		.eabi_attribute 21, 1
   6              		.eabi_attribute 23, 3
   7              		.eabi_attribute 24, 1
   8              		.eabi_attribute 25, 1
   9              		.eabi_attribute 26, 1
  10              		.eabi_attribute 30, 1
  11              		.eabi_attribute 34, 1
  12              		.eabi_attribute 18, 4
  13              		.file	"lcd.c"
  14              		.text
  15              	.Ltext0:
  16              		.cfi_sections	.debug_frame
  17              		.section	.text.LCD_WRITE_CMD,"ax",%progbits
  18              		.align	1
  19              		.global	LCD_WRITE_CMD
  20              		.arch armv7e-m
  21              		.syntax unified
  22              		.thumb
  23              		.thumb_func
  24              		.fpu fpv4-sp-d16
  26              	LCD_WRITE_CMD:
  27              	.LVL0:
  28              	.LFB126:
  29              		.file 1 "user/lcd.c"
   1:user/lcd.c    **** #include "lcd.h"
   2:user/lcd.c    **** 
   3:user/lcd.c    **** void LCD_WRITE_CMD(uint16_t data)
   4:user/lcd.c    **** {
  30              		.loc 1 4 1 view -0
  31              		.cfi_startproc
  32              		@ args = 0, pretend = 0, frame = 0
  33              		@ frame_needed = 0, uses_anonymous_args = 0
  34              		@ link register save eliminated.
   5:user/lcd.c    **** 	LCD->LCD_REG = data; //写入要写的寄存器序号
  35              		.loc 1 5 2 view .LVU1
  36              		.loc 1 5 15 is_stmt 0 view .LVU2
  37 0000 014B     		ldr	r3, .L2
  38 0002 1880     		strh	r0, [r3]	@ movhi
   6:user/lcd.c    **** }
  39              		.loc 1 6 1 view .LVU3
  40 0004 7047     		bx	lr
  41              	.L3:
  42 0006 00BF     		.align	2
  43              	.L2:
  44 0008 7E00006C 		.word	1811939454
  45              		.cfi_endproc
  46              	.LFE126:
  48              		.section	.text.LCD_WRITE_DATA,"ax",%progbits
  49              		.align	1
  50              		.global	LCD_WRITE_DATA
  51              		.syntax unified
  52              		.thumb
  53              		.thumb_func
ARM GAS  C:\Users\gx\AppData\Local\Temp\ccp1x1Ug.s 			page 2


  54              		.fpu fpv4-sp-d16
  56              	LCD_WRITE_DATA:
  57              	.LVL1:
  58              	.LFB127:
   7:user/lcd.c    **** 
   8:user/lcd.c    **** void LCD_WRITE_DATA(uint16_t data)
   9:user/lcd.c    **** {
  59              		.loc 1 9 1 is_stmt 1 view -0
  60              		.cfi_startproc
  61              		@ args = 0, pretend = 0, frame = 0
  62              		@ frame_needed = 0, uses_anonymous_args = 0
  63              		@ link register save eliminated.
  10:user/lcd.c    **** 	LCD->LCD_RAM = data;
  64              		.loc 1 10 2 view .LVU5
  65              		.loc 1 10 15 is_stmt 0 view .LVU6
  66 0000 014B     		ldr	r3, .L5
  67 0002 5880     		strh	r0, [r3, #2]	@ movhi
  11:user/lcd.c    **** }
  68              		.loc 1 11 1 view .LVU7
  69 0004 7047     		bx	lr
  70              	.L6:
  71 0006 00BF     		.align	2
  72              	.L5:
  73 0008 7E00006C 		.word	1811939454
  74              		.cfi_endproc
  75              	.LFE127:
  77              		.section	.text.LCD_READ_DATA,"ax",%progbits
  78              		.align	1
  79              		.global	LCD_READ_DATA
  80              		.syntax unified
  81              		.thumb
  82              		.thumb_func
  83              		.fpu fpv4-sp-d16
  85              	LCD_READ_DATA:
  86              	.LFB128:
  12:user/lcd.c    **** uint16_t LCD_READ_DATA(void)
  13:user/lcd.c    **** {
  87              		.loc 1 13 1 is_stmt 1 view -0
  88              		.cfi_startproc
  89              		@ args = 0, pretend = 0, frame = 0
  90              		@ frame_needed = 0, uses_anonymous_args = 0
  91              		@ link register save eliminated.
  14:user/lcd.c    **** 	return LCD->LCD_RAM;
  92              		.loc 1 14 2 view .LVU9
  93              		.loc 1 14 12 is_stmt 0 view .LVU10
  94 0000 014B     		ldr	r3, .L8
  95 0002 5888     		ldrh	r0, [r3, #2]
  15:user/lcd.c    **** }
  96              		.loc 1 15 1 view .LVU11
  97 0004 80B2     		uxth	r0, r0
  98 0006 7047     		bx	lr
  99              	.L9:
 100              		.align	2
 101              	.L8:
 102 0008 7E00006C 		.word	1811939454
 103              		.cfi_endproc
 104              	.LFE128:
ARM GAS  C:\Users\gx\AppData\Local\Temp\ccp1x1Ug.s 			page 3


 106              		.section	.text.LCD_ReadID,"ax",%progbits
 107              		.align	1
 108              		.syntax unified
 109              		.thumb
 110              		.thumb_func
 111              		.fpu fpv4-sp-d16
 113              	LCD_ReadID:
 114              	.LFB129:
  16:user/lcd.c    **** 
  17:user/lcd.c    **** //0x548066
  18:user/lcd.c    **** static uint32_t LCD_ReadID(void)
  19:user/lcd.c    **** {
 115              		.loc 1 19 1 is_stmt 1 view -0
 116              		.cfi_startproc
 117              		@ args = 0, pretend = 0, frame = 0
 118              		@ frame_needed = 0, uses_anonymous_args = 0
 119 0000 38B5     		push	{r3, r4, r5, lr}
 120              	.LCFI0:
 121              		.cfi_def_cfa_offset 16
 122              		.cfi_offset 3, -16
 123              		.cfi_offset 4, -12
 124              		.cfi_offset 5, -8
 125              		.cfi_offset 14, -4
  20:user/lcd.c    **** 	uint16_t buf[4];
 126              		.loc 1 20 2 view .LVU13
  21:user/lcd.c    **** 
  22:user/lcd.c    **** 	LCD_WRITE_CMD(0x04);
 127              		.loc 1 22 2 view .LVU14
 128 0002 0420     		movs	r0, #4
 129 0004 FFF7FEFF 		bl	LCD_WRITE_CMD
 130              	.LVL2:
  23:user/lcd.c    **** 	buf[0] = LCD_READ_DATA();		   // 第一个读取数据无效
 131              		.loc 1 23 2 view .LVU15
 132              		.loc 1 23 11 is_stmt 0 view .LVU16
 133 0008 FFF7FEFF 		bl	LCD_READ_DATA
 134              	.LVL3:
  24:user/lcd.c    **** 	buf[1] = LCD_READ_DATA() & 0x00ff; // 只有低8位数据有效
 135              		.loc 1 24 2 is_stmt 1 view .LVU17
 136              		.loc 1 24 11 is_stmt 0 view .LVU18
 137 000c FFF7FEFF 		bl	LCD_READ_DATA
 138              	.LVL4:
 139              		.loc 1 24 27 view .LVU19
 140 0010 C5B2     		uxtb	r5, r0
  25:user/lcd.c    **** 	buf[2] = LCD_READ_DATA() & 0x00ff; // 只有低8位数据有效
 141              		.loc 1 25 2 is_stmt 1 view .LVU20
 142              		.loc 1 25 11 is_stmt 0 view .LVU21
 143 0012 FFF7FEFF 		bl	LCD_READ_DATA
 144              	.LVL5:
 145              		.loc 1 25 27 view .LVU22
 146 0016 C4B2     		uxtb	r4, r0
  26:user/lcd.c    **** 	buf[3] = LCD_READ_DATA() & 0x00ff; // 只有低8位数据有效
 147              		.loc 1 26 2 is_stmt 1 view .LVU23
 148              		.loc 1 26 11 is_stmt 0 view .LVU24
 149 0018 FFF7FEFF 		bl	LCD_READ_DATA
 150              	.LVL6:
  27:user/lcd.c    **** 	return (buf[1] << 16) + (buf[2] << 8) + buf[3];
 151              		.loc 1 27 2 is_stmt 1 view .LVU25
ARM GAS  C:\Users\gx\AppData\Local\Temp\ccp1x1Ug.s 			page 4


 152              		.loc 1 27 34 is_stmt 0 view .LVU26
 153 001c 2402     		lsls	r4, r4, #8
 154              		.loc 1 27 24 view .LVU27
 155 001e 04EB0544 		add	r4, r4, r5, lsl #16
  28:user/lcd.c    **** }
 156              		.loc 1 28 1 view .LVU28
 157 0022 54FA80F0 		uxtab	r0, r4, r0
 158 0026 38BD     		pop	{r3, r4, r5, pc}
 159              		.cfi_endproc
 160              	.LFE129:
 162              		.section	.rodata.LCD_Init.str1.4,"aMS",%progbits,1
 163              		.align	2
 164              	.LC0:
 165 0000 4944203D 		.ascii	"ID = %x\015\012\000"
 165      2025780D 
 165      0A00
 166              		.section	.text.LCD_Init,"ax",%progbits
 167              		.align	1
 168              		.global	LCD_Init
 169              		.syntax unified
 170              		.thumb
 171              		.thumb_func
 172              		.fpu fpv4-sp-d16
 174              	LCD_Init:
 175              	.LFB130:
  29:user/lcd.c    **** //ILI9488
  30:user/lcd.c    **** #if 1
  31:user/lcd.c    **** void LCD_Init(void)
  32:user/lcd.c    **** {
 176              		.loc 1 32 1 is_stmt 1 view -0
 177              		.cfi_startproc
 178              		@ args = 0, pretend = 0, frame = 0
 179              		@ frame_needed = 0, uses_anonymous_args = 0
 180 0000 08B5     		push	{r3, lr}
 181              	.LCFI1:
 182              		.cfi_def_cfa_offset 8
 183              		.cfi_offset 3, -8
 184              		.cfi_offset 14, -4
  33:user/lcd.c    **** 	//------------------------------------
  34:user/lcd.c    **** 	uint32_t ID;
 185              		.loc 1 34 2 view .LVU30
  35:user/lcd.c    **** 	ID = LCD_ReadID();
 186              		.loc 1 35 2 view .LVU31
 187              		.loc 1 35 7 is_stmt 0 view .LVU32
 188 0002 FFF7FEFF 		bl	LCD_ReadID
 189              	.LVL7:
 190 0006 0146     		mov	r1, r0
 191              	.LVL8:
  36:user/lcd.c    **** 	printf("ID = %x\r\n",ID);
 192              		.loc 1 36 2 is_stmt 1 view .LVU33
 193 0008 8448     		ldr	r0, .L14
 194              	.LVL9:
 195              		.loc 1 36 2 is_stmt 0 view .LVU34
 196 000a FFF7FEFF 		bl	printf
 197              	.LVL10:
  37:user/lcd.c    **** 	//------------------------------------
  38:user/lcd.c    **** 	LCD_WRITE_CMD(0XF1);
ARM GAS  C:\Users\gx\AppData\Local\Temp\ccp1x1Ug.s 			page 5


 198              		.loc 1 38 2 is_stmt 1 view .LVU35
 199 000e F120     		movs	r0, #241
 200 0010 FFF7FEFF 		bl	LCD_WRITE_CMD
 201              	.LVL11:
  39:user/lcd.c    **** 	LCD_WRITE_DATA(0x36);
 202              		.loc 1 39 2 view .LVU36
 203 0014 3620     		movs	r0, #54
 204 0016 FFF7FEFF 		bl	LCD_WRITE_DATA
 205              	.LVL12:
  40:user/lcd.c    **** 	LCD_WRITE_DATA(0x04);
 206              		.loc 1 40 2 view .LVU37
 207 001a 0420     		movs	r0, #4
 208 001c FFF7FEFF 		bl	LCD_WRITE_DATA
 209              	.LVL13:
  41:user/lcd.c    **** 	LCD_WRITE_DATA(0x00);
 210              		.loc 1 41 2 view .LVU38
 211 0020 0020     		movs	r0, #0
 212 0022 FFF7FEFF 		bl	LCD_WRITE_DATA
 213              	.LVL14:
  42:user/lcd.c    **** 	LCD_WRITE_DATA(0x3C);
 214              		.loc 1 42 2 view .LVU39
 215 0026 3C20     		movs	r0, #60
 216 0028 FFF7FEFF 		bl	LCD_WRITE_DATA
 217              	.LVL15:
  43:user/lcd.c    **** 	LCD_WRITE_DATA(0x0F);
 218              		.loc 1 43 2 view .LVU40
 219 002c 0F20     		movs	r0, #15
 220 002e FFF7FEFF 		bl	LCD_WRITE_DATA
 221              	.LVL16:
  44:user/lcd.c    **** 	LCD_WRITE_DATA(0x8F);
 222              		.loc 1 44 2 view .LVU41
 223 0032 8F20     		movs	r0, #143
 224 0034 FFF7FEFF 		bl	LCD_WRITE_DATA
 225              	.LVL17:
  45:user/lcd.c    **** 
  46:user/lcd.c    **** 	LCD_WRITE_CMD(0XF2);
 226              		.loc 1 46 2 view .LVU42
 227 0038 F220     		movs	r0, #242
 228 003a FFF7FEFF 		bl	LCD_WRITE_CMD
 229              	.LVL18:
  47:user/lcd.c    **** 	LCD_WRITE_DATA(0x18);
 230              		.loc 1 47 2 view .LVU43
 231 003e 1820     		movs	r0, #24
 232 0040 FFF7FEFF 		bl	LCD_WRITE_DATA
 233              	.LVL19:
  48:user/lcd.c    **** 	LCD_WRITE_DATA(0xA3);
 234              		.loc 1 48 2 view .LVU44
 235 0044 A320     		movs	r0, #163
 236 0046 FFF7FEFF 		bl	LCD_WRITE_DATA
 237              	.LVL20:
  49:user/lcd.c    **** 	LCD_WRITE_DATA(0x12);
 238              		.loc 1 49 2 view .LVU45
 239 004a 1220     		movs	r0, #18
 240 004c FFF7FEFF 		bl	LCD_WRITE_DATA
 241              	.LVL21:
  50:user/lcd.c    **** 	LCD_WRITE_DATA(0x02);
 242              		.loc 1 50 2 view .LVU46
ARM GAS  C:\Users\gx\AppData\Local\Temp\ccp1x1Ug.s 			page 6


 243 0050 0220     		movs	r0, #2
 244 0052 FFF7FEFF 		bl	LCD_WRITE_DATA
 245              	.LVL22:
  51:user/lcd.c    **** 	LCD_WRITE_DATA(0xB2);
 246              		.loc 1 51 2 view .LVU47
 247 0056 B220     		movs	r0, #178
 248 0058 FFF7FEFF 		bl	LCD_WRITE_DATA
 249              	.LVL23:
  52:user/lcd.c    **** 	LCD_WRITE_DATA(0x12);
 250              		.loc 1 52 2 view .LVU48
 251 005c 1220     		movs	r0, #18
 252 005e FFF7FEFF 		bl	LCD_WRITE_DATA
 253              	.LVL24:
  53:user/lcd.c    **** 	LCD_WRITE_DATA(0xFF);
 254              		.loc 1 53 2 view .LVU49
 255 0062 FF20     		movs	r0, #255
 256 0064 FFF7FEFF 		bl	LCD_WRITE_DATA
 257              	.LVL25:
  54:user/lcd.c    **** 	LCD_WRITE_DATA(0x10);
 258              		.loc 1 54 2 view .LVU50
 259 0068 1020     		movs	r0, #16
 260 006a FFF7FEFF 		bl	LCD_WRITE_DATA
 261              	.LVL26:
  55:user/lcd.c    **** 	LCD_WRITE_DATA(0x00);
 262              		.loc 1 55 2 view .LVU51
 263 006e 0020     		movs	r0, #0
 264 0070 FFF7FEFF 		bl	LCD_WRITE_DATA
 265              	.LVL27:
  56:user/lcd.c    **** 
  57:user/lcd.c    **** 	LCD_WRITE_CMD(0XF8);
 266              		.loc 1 57 2 view .LVU52
 267 0074 F820     		movs	r0, #248
 268 0076 FFF7FEFF 		bl	LCD_WRITE_CMD
 269              	.LVL28:
  58:user/lcd.c    **** 	LCD_WRITE_DATA(0x21);
 270              		.loc 1 58 2 view .LVU53
 271 007a 2120     		movs	r0, #33
 272 007c FFF7FEFF 		bl	LCD_WRITE_DATA
 273              	.LVL29:
  59:user/lcd.c    **** 	LCD_WRITE_DATA(0x04);
 274              		.loc 1 59 2 view .LVU54
 275 0080 0420     		movs	r0, #4
 276 0082 FFF7FEFF 		bl	LCD_WRITE_DATA
 277              	.LVL30:
  60:user/lcd.c    **** 
  61:user/lcd.c    **** 	LCD_WRITE_CMD(0XF9);
 278              		.loc 1 61 2 view .LVU55
 279 0086 F920     		movs	r0, #249
 280 0088 FFF7FEFF 		bl	LCD_WRITE_CMD
 281              	.LVL31:
  62:user/lcd.c    **** 	LCD_WRITE_DATA(0x00);
 282              		.loc 1 62 2 view .LVU56
 283 008c 0020     		movs	r0, #0
 284 008e FFF7FEFF 		bl	LCD_WRITE_DATA
 285              	.LVL32:
  63:user/lcd.c    **** 	LCD_WRITE_DATA(0x08);
 286              		.loc 1 63 2 view .LVU57
ARM GAS  C:\Users\gx\AppData\Local\Temp\ccp1x1Ug.s 			page 7


 287 0092 0820     		movs	r0, #8
 288 0094 FFF7FEFF 		bl	LCD_WRITE_DATA
 289              	.LVL33:
  64:user/lcd.c    **** /* PGAMCTRL (Positive Gamma Control) (E0h) */
  65:user/lcd.c    **** 	LCD_WRITE_CMD(0xE0);
 290              		.loc 1 65 2 view .LVU58
 291 0098 E020     		movs	r0, #224
 292 009a FFF7FEFF 		bl	LCD_WRITE_CMD
 293              	.LVL34:
  66:user/lcd.c    **** 	/*
  67:user/lcd.c    **** 	LCD_WRITE_DATA(0x07);
  68:user/lcd.c    **** 	LCD_WRITE_DATA(0x10);
  69:user/lcd.c    **** 	LCD_WRITE_DATA(0x0F);
  70:user/lcd.c    **** 	LCD_WRITE_DATA(0x0E);
  71:user/lcd.c    **** 	LCD_WRITE_DATA(0x11);
  72:user/lcd.c    **** 	LCD_WRITE_DATA(0x0A);
  73:user/lcd.c    **** 	LCD_WRITE_DATA(0x41);
  74:user/lcd.c    **** 	LCD_WRITE_DATA(0x77);
  75:user/lcd.c    **** 	LCD_WRITE_DATA(0x38);
  76:user/lcd.c    **** 	LCD_WRITE_DATA(0x08);
  77:user/lcd.c    **** 	LCD_WRITE_DATA(0x13);
  78:user/lcd.c    **** 	LCD_WRITE_DATA(0x05);
  79:user/lcd.c    **** 	LCD_WRITE_DATA(0x0B);
  80:user/lcd.c    **** 	LCD_WRITE_DATA(0x02);
  81:user/lcd.c    **** 	LCD_WRITE_DATA(0x0F);
  82:user/lcd.c    **** 	*/
  83:user/lcd.c    **** 	LCD_WRITE_DATA(0x0F);
 294              		.loc 1 83 2 view .LVU59
 295 009e 0F20     		movs	r0, #15
 296 00a0 FFF7FEFF 		bl	LCD_WRITE_DATA
 297              	.LVL35:
  84:user/lcd.c    **** 	LCD_WRITE_DATA(0x36);
 298              		.loc 1 84 2 view .LVU60
 299 00a4 3620     		movs	r0, #54
 300 00a6 FFF7FEFF 		bl	LCD_WRITE_DATA
 301              	.LVL36:
  85:user/lcd.c    **** 	LCD_WRITE_DATA(0x2E);
 302              		.loc 1 85 2 view .LVU61
 303 00aa 2E20     		movs	r0, #46
 304 00ac FFF7FEFF 		bl	LCD_WRITE_DATA
 305              	.LVL37:
  86:user/lcd.c    **** 	LCD_WRITE_DATA(0x09);
 306              		.loc 1 86 2 view .LVU62
 307 00b0 0920     		movs	r0, #9
 308 00b2 FFF7FEFF 		bl	LCD_WRITE_DATA
 309              	.LVL38:
  87:user/lcd.c    **** 	LCD_WRITE_DATA(0x0A);
 310              		.loc 1 87 2 view .LVU63
 311 00b6 0A20     		movs	r0, #10
 312 00b8 FFF7FEFF 		bl	LCD_WRITE_DATA
 313              	.LVL39:
  88:user/lcd.c    **** 	LCD_WRITE_DATA(0x04);
 314              		.loc 1 88 2 view .LVU64
 315 00bc 0420     		movs	r0, #4
 316 00be FFF7FEFF 		bl	LCD_WRITE_DATA
 317              	.LVL40:
  89:user/lcd.c    **** 	LCD_WRITE_DATA(0x46);
ARM GAS  C:\Users\gx\AppData\Local\Temp\ccp1x1Ug.s 			page 8


 318              		.loc 1 89 2 view .LVU65
 319 00c2 4620     		movs	r0, #70
 320 00c4 FFF7FEFF 		bl	LCD_WRITE_DATA
 321              	.LVL41:
  90:user/lcd.c    **** 	LCD_WRITE_DATA(0x66);
 322              		.loc 1 90 2 view .LVU66
 323 00c8 6620     		movs	r0, #102
 324 00ca FFF7FEFF 		bl	LCD_WRITE_DATA
 325              	.LVL42:
  91:user/lcd.c    **** 	LCD_WRITE_DATA(0x37);
 326              		.loc 1 91 2 view .LVU67
 327 00ce 3720     		movs	r0, #55
 328 00d0 FFF7FEFF 		bl	LCD_WRITE_DATA
 329              	.LVL43:
  92:user/lcd.c    **** 	LCD_WRITE_DATA(0x06);
 330              		.loc 1 92 2 view .LVU68
 331 00d4 0620     		movs	r0, #6
 332 00d6 FFF7FEFF 		bl	LCD_WRITE_DATA
 333              	.LVL44:
  93:user/lcd.c    **** 	LCD_WRITE_DATA(0x10);
 334              		.loc 1 93 2 view .LVU69
 335 00da 1020     		movs	r0, #16
 336 00dc FFF7FEFF 		bl	LCD_WRITE_DATA
 337              	.LVL45:
  94:user/lcd.c    **** 	LCD_WRITE_DATA(0x04);
 338              		.loc 1 94 2 view .LVU70
 339 00e0 0420     		movs	r0, #4
 340 00e2 FFF7FEFF 		bl	LCD_WRITE_DATA
 341              	.LVL46:
  95:user/lcd.c    **** 	LCD_WRITE_DATA(0x24);
 342              		.loc 1 95 2 view .LVU71
 343 00e6 2420     		movs	r0, #36
 344 00e8 FFF7FEFF 		bl	LCD_WRITE_DATA
 345              	.LVL47:
  96:user/lcd.c    **** 	LCD_WRITE_DATA(0x20);
 346              		.loc 1 96 2 view .LVU72
 347 00ec 2020     		movs	r0, #32
 348 00ee FFF7FEFF 		bl	LCD_WRITE_DATA
 349              	.LVL48:
  97:user/lcd.c    **** 	LCD_WRITE_DATA(0x00);
 350              		.loc 1 97 2 view .LVU73
 351 00f2 0020     		movs	r0, #0
 352 00f4 FFF7FEFF 		bl	LCD_WRITE_DATA
 353              	.LVL49:
  98:user/lcd.c    **** /* NGAMCTRL (Negative Gamma Control) (E1h)  */
  99:user/lcd.c    **** 	LCD_WRITE_CMD(0XE1);
 354              		.loc 1 99 2 view .LVU74
 355 00f8 E120     		movs	r0, #225
 356 00fa FFF7FEFF 		bl	LCD_WRITE_CMD
 357              	.LVL50:
 100:user/lcd.c    **** 	LCD_WRITE_DATA(0x0F);
 358              		.loc 1 100 2 view .LVU75
 359 00fe 0F20     		movs	r0, #15
 360 0100 FFF7FEFF 		bl	LCD_WRITE_DATA
 361              	.LVL51:
 101:user/lcd.c    **** 	LCD_WRITE_DATA(0x3B);
 362              		.loc 1 101 2 view .LVU76
ARM GAS  C:\Users\gx\AppData\Local\Temp\ccp1x1Ug.s 			page 9


 363 0104 3B20     		movs	r0, #59
 364 0106 FFF7FEFF 		bl	LCD_WRITE_DATA
 365              	.LVL52:
 102:user/lcd.c    **** 	LCD_WRITE_DATA(0x39);
 366              		.loc 1 102 2 view .LVU77
 367 010a 3920     		movs	r0, #57
 368 010c FFF7FEFF 		bl	LCD_WRITE_DATA
 369              	.LVL53:
 103:user/lcd.c    **** 	LCD_WRITE_DATA(0x0D);
 370              		.loc 1 103 2 view .LVU78
 371 0110 0D20     		movs	r0, #13
 372 0112 FFF7FEFF 		bl	LCD_WRITE_DATA
 373              	.LVL54:
 104:user/lcd.c    **** 	LCD_WRITE_DATA(0x0F);
 374              		.loc 1 104 2 view .LVU79
 375 0116 0F20     		movs	r0, #15
 376 0118 FFF7FEFF 		bl	LCD_WRITE_DATA
 377              	.LVL55:
 105:user/lcd.c    **** 	LCD_WRITE_DATA(0x05);
 378              		.loc 1 105 2 view .LVU80
 379 011c 0520     		movs	r0, #5
 380 011e FFF7FEFF 		bl	LCD_WRITE_DATA
 381              	.LVL56:
 106:user/lcd.c    **** 	LCD_WRITE_DATA(0x53);
 382              		.loc 1 106 2 view .LVU81
 383 0122 5320     		movs	r0, #83
 384 0124 FFF7FEFF 		bl	LCD_WRITE_DATA
 385              	.LVL57:
 107:user/lcd.c    **** 	LCD_WRITE_DATA(0x43);
 386              		.loc 1 107 2 view .LVU82
 387 0128 4320     		movs	r0, #67
 388 012a FFF7FEFF 		bl	LCD_WRITE_DATA
 389              	.LVL58:
 108:user/lcd.c    **** 	LCD_WRITE_DATA(0x3D);
 390              		.loc 1 108 2 view .LVU83
 391 012e 3D20     		movs	r0, #61
 392 0130 FFF7FEFF 		bl	LCD_WRITE_DATA
 393              	.LVL59:
 109:user/lcd.c    **** 	LCD_WRITE_DATA(0x05);
 394              		.loc 1 109 2 view .LVU84
 395 0134 0520     		movs	r0, #5
 396 0136 FFF7FEFF 		bl	LCD_WRITE_DATA
 397              	.LVL60:
 110:user/lcd.c    **** 	LCD_WRITE_DATA(0x0F);
 398              		.loc 1 110 2 view .LVU85
 399 013a 0F20     		movs	r0, #15
 400 013c FFF7FEFF 		bl	LCD_WRITE_DATA
 401              	.LVL61:
 111:user/lcd.c    **** 	LCD_WRITE_DATA(0x04);
 402              		.loc 1 111 2 view .LVU86
 403 0140 0420     		movs	r0, #4
 404 0142 FFF7FEFF 		bl	LCD_WRITE_DATA
 405              	.LVL62:
 112:user/lcd.c    **** 	LCD_WRITE_DATA(0x23);
 406              		.loc 1 112 2 view .LVU87
 407 0146 2320     		movs	r0, #35
 408 0148 FFF7FEFF 		bl	LCD_WRITE_DATA
ARM GAS  C:\Users\gx\AppData\Local\Temp\ccp1x1Ug.s 			page 10


 409              	.LVL63:
 113:user/lcd.c    **** 	LCD_WRITE_DATA(0x1F);
 410              		.loc 1 113 2 view .LVU88
 411 014c 1F20     		movs	r0, #31
 412 014e FFF7FEFF 		bl	LCD_WRITE_DATA
 413              	.LVL64:
 114:user/lcd.c    **** 	LCD_WRITE_DATA(0x0F);
 414              		.loc 1 114 2 view .LVU89
 415 0152 0F20     		movs	r0, #15
 416 0154 FFF7FEFF 		bl	LCD_WRITE_DATA
 417              	.LVL65:
 115:user/lcd.c    **** 
 116:user/lcd.c    **** 	LCD_WRITE_CMD(0x36);
 418              		.loc 1 116 2 view .LVU90
 419 0158 3620     		movs	r0, #54
 420 015a FFF7FEFF 		bl	LCD_WRITE_CMD
 421              	.LVL66:
 117:user/lcd.c    **** 	LCD_WRITE_DATA(0x08);
 422              		.loc 1 117 2 view .LVU91
 423 015e 0820     		movs	r0, #8
 424 0160 FFF7FEFF 		bl	LCD_WRITE_DATA
 425              	.LVL67:
 118:user/lcd.c    **** 
 119:user/lcd.c    **** 	LCD_WRITE_CMD(0x3A);
 426              		.loc 1 119 2 view .LVU92
 427 0164 3A20     		movs	r0, #58
 428 0166 FFF7FEFF 		bl	LCD_WRITE_CMD
 429              	.LVL68:
 120:user/lcd.c    **** 	LCD_WRITE_DATA(0x55); // 8bit,16bit=0x55 18bit=0x66
 430              		.loc 1 120 2 view .LVU93
 431 016a 5520     		movs	r0, #85
 432 016c FFF7FEFF 		bl	LCD_WRITE_DATA
 433              	.LVL69:
 121:user/lcd.c    **** 
 122:user/lcd.c    **** 	LCD_WRITE_CMD(0XB1); // Frame rate 70Hz b0 11
 434              		.loc 1 122 2 view .LVU94
 435 0170 B120     		movs	r0, #177
 436 0172 FFF7FEFF 		bl	LCD_WRITE_CMD
 437              	.LVL70:
 123:user/lcd.c    **** 	LCD_WRITE_DATA(0xB0);
 438              		.loc 1 123 2 view .LVU95
 439 0176 B020     		movs	r0, #176
 440 0178 FFF7FEFF 		bl	LCD_WRITE_DATA
 441              	.LVL71:
 124:user/lcd.c    **** 	LCD_WRITE_DATA(0x11);
 442              		.loc 1 124 2 view .LVU96
 443 017c 1120     		movs	r0, #17
 444 017e FFF7FEFF 		bl	LCD_WRITE_DATA
 445              	.LVL72:
 125:user/lcd.c    **** 
 126:user/lcd.c    **** 	LCD_WRITE_CMD(0XB4);
 446              		.loc 1 126 2 view .LVU97
 447 0182 B420     		movs	r0, #180
 448 0184 FFF7FEFF 		bl	LCD_WRITE_CMD
 449              	.LVL73:
 127:user/lcd.c    **** 	LCD_WRITE_DATA(0x02);
 450              		.loc 1 127 2 view .LVU98
ARM GAS  C:\Users\gx\AppData\Local\Temp\ccp1x1Ug.s 			page 11


 451 0188 0220     		movs	r0, #2
 452 018a FFF7FEFF 		bl	LCD_WRITE_DATA
 453              	.LVL74:
 128:user/lcd.c    **** 
 129:user/lcd.c    **** 	LCD_WRITE_CMD(0XB6);
 454              		.loc 1 129 2 view .LVU99
 455 018e B620     		movs	r0, #182
 456 0190 FFF7FEFF 		bl	LCD_WRITE_CMD
 457              	.LVL75:
 130:user/lcd.c    **** 	LCD_WRITE_DATA(0x00); //MCU:0x02  RGB:0x22
 458              		.loc 1 130 2 view .LVU100
 459 0194 0020     		movs	r0, #0
 460 0196 FFF7FEFF 		bl	LCD_WRITE_DATA
 461              	.LVL76:
 131:user/lcd.c    **** 	LCD_WRITE_DATA(0x42); // rotate 180 degree 0x42
 462              		.loc 1 131 2 view .LVU101
 463 019a 4220     		movs	r0, #66
 464 019c FFF7FEFF 		bl	LCD_WRITE_DATA
 465              	.LVL77:
 132:user/lcd.c    **** 	LCD_WRITE_DATA(0x3B);
 466              		.loc 1 132 2 view .LVU102
 467 01a0 3B20     		movs	r0, #59
 468 01a2 FFF7FEFF 		bl	LCD_WRITE_DATA
 469              	.LVL78:
 133:user/lcd.c    **** 
 134:user/lcd.c    **** 	LCD_WRITE_CMD(0XB7);
 470              		.loc 1 134 2 view .LVU103
 471 01a6 B720     		movs	r0, #183
 472 01a8 FFF7FEFF 		bl	LCD_WRITE_CMD
 473              	.LVL79:
 135:user/lcd.c    **** 	LCD_WRITE_DATA(0xC6);
 474              		.loc 1 135 2 view .LVU104
 475 01ac C620     		movs	r0, #198
 476 01ae FFF7FEFF 		bl	LCD_WRITE_DATA
 477              	.LVL80:
 136:user/lcd.c    **** 
 137:user/lcd.c    **** 	LCD_WRITE_CMD(0XC0);
 478              		.loc 1 137 2 view .LVU105
 479 01b2 C020     		movs	r0, #192
 480 01b4 FFF7FEFF 		bl	LCD_WRITE_CMD
 481              	.LVL81:
 138:user/lcd.c    **** 	LCD_WRITE_DATA(0x05);
 482              		.loc 1 138 2 view .LVU106
 483 01b8 0520     		movs	r0, #5
 484 01ba FFF7FEFF 		bl	LCD_WRITE_DATA
 485              	.LVL82:
 139:user/lcd.c    **** 	LCD_WRITE_DATA(0x05);
 486              		.loc 1 139 2 view .LVU107
 487 01be 0520     		movs	r0, #5
 488 01c0 FFF7FEFF 		bl	LCD_WRITE_DATA
 489              	.LVL83:
 140:user/lcd.c    **** 
 141:user/lcd.c    **** 	LCD_WRITE_CMD(0XC1);
 490              		.loc 1 141 2 view .LVU108
 491 01c4 C120     		movs	r0, #193
 492 01c6 FFF7FEFF 		bl	LCD_WRITE_CMD
 493              	.LVL84:
ARM GAS  C:\Users\gx\AppData\Local\Temp\ccp1x1Ug.s 			page 12


 142:user/lcd.c    **** 	LCD_WRITE_DATA(0x41);
 494              		.loc 1 142 2 view .LVU109
 495 01ca 4120     		movs	r0, #65
 496 01cc FFF7FEFF 		bl	LCD_WRITE_DATA
 497              	.LVL85:
 143:user/lcd.c    **** 	LCD_WRITE_DATA(0x00);
 498              		.loc 1 143 2 view .LVU110
 499 01d0 0020     		movs	r0, #0
 500 01d2 FFF7FEFF 		bl	LCD_WRITE_DATA
 501              	.LVL86:
 144:user/lcd.c    **** 
 145:user/lcd.c    **** 	LCD_WRITE_CMD(0XC2);
 502              		.loc 1 145 2 view .LVU111
 503 01d6 C220     		movs	r0, #194
 504 01d8 FFF7FEFF 		bl	LCD_WRITE_CMD
 505              	.LVL87:
 146:user/lcd.c    **** 	LCD_WRITE_DATA(0x22);
 506              		.loc 1 146 2 view .LVU112
 507 01dc 2220     		movs	r0, #34
 508 01de FFF7FEFF 		bl	LCD_WRITE_DATA
 509              	.LVL88:
 147:user/lcd.c    **** 
 148:user/lcd.c    **** 	LCD_WRITE_CMD(0XC5);
 510              		.loc 1 148 2 view .LVU113
 511 01e2 C520     		movs	r0, #197
 512 01e4 FFF7FEFF 		bl	LCD_WRITE_CMD
 513              	.LVL89:
 149:user/lcd.c    **** 	LCD_WRITE_DATA(0x00);
 514              		.loc 1 149 2 view .LVU114
 515 01e8 0020     		movs	r0, #0
 516 01ea FFF7FEFF 		bl	LCD_WRITE_DATA
 517              	.LVL90:
 150:user/lcd.c    **** 	LCD_WRITE_DATA(0x31); // Adjust Flicker
 518              		.loc 1 150 2 view .LVU115
 519 01ee 3120     		movs	r0, #49
 520 01f0 FFF7FEFF 		bl	LCD_WRITE_DATA
 521              	.LVL91:
 151:user/lcd.c    **** 	LCD_WRITE_DATA(0x80);
 522              		.loc 1 151 2 view .LVU116
 523 01f4 8020     		movs	r0, #128
 524 01f6 FFF7FEFF 		bl	LCD_WRITE_DATA
 525              	.LVL92:
 152:user/lcd.c    **** 
 153:user/lcd.c    **** 	LCD_WRITE_CMD(0x11);//Exit Sleep
 526              		.loc 1 153 2 view .LVU117
 527 01fa 1120     		movs	r0, #17
 528 01fc FFF7FEFF 		bl	LCD_WRITE_CMD
 529              	.LVL93:
 154:user/lcd.c    **** 	HAL_Delay(120);
 530              		.loc 1 154 2 view .LVU118
 531 0200 7820     		movs	r0, #120
 532 0202 FFF7FEFF 		bl	HAL_Delay
 533              	.LVL94:
 155:user/lcd.c    **** 	LCD_WRITE_CMD(0x29);//display on
 534              		.loc 1 155 2 view .LVU119
 535 0206 2920     		movs	r0, #41
 536 0208 FFF7FEFF 		bl	LCD_WRITE_CMD
ARM GAS  C:\Users\gx\AppData\Local\Temp\ccp1x1Ug.s 			page 13


 537              	.LVL95:
 156:user/lcd.c    **** 
 157:user/lcd.c    **** 	HAL_GPIO_WritePin(GPIOB, GPIO_PIN_15, 1); //点亮背光
 538              		.loc 1 157 2 view .LVU120
 539 020c 0122     		movs	r2, #1
 540 020e 4FF40041 		mov	r1, #32768
 541 0212 0348     		ldr	r0, .L14+4
 542 0214 FFF7FEFF 		bl	HAL_GPIO_WritePin
 543              	.LVL96:
 158:user/lcd.c    **** }
 544              		.loc 1 158 1 is_stmt 0 view .LVU121
 545 0218 08BD     		pop	{r3, pc}
 546              	.L15:
 547 021a 00BF     		.align	2
 548              	.L14:
 549 021c 00000000 		.word	.LC0
 550 0220 00040240 		.word	1073873920
 551              		.cfi_endproc
 552              	.LFE130:
 554              		.section	.text.LCD_SetWindow,"ax",%progbits
 555              		.align	1
 556              		.global	LCD_SetWindow
 557              		.syntax unified
 558              		.thumb
 559              		.thumb_func
 560              		.fpu fpv4-sp-d16
 562              	LCD_SetWindow:
 563              	.LVL97:
 564              	.LFB131:
 159:user/lcd.c    **** #else
 160:user/lcd.c    **** void LCD_Init(void)
 161:user/lcd.c    **** {
 162:user/lcd.c    **** 	/* PGAMCTRL (Positive Gamma Control) (E0h) */
 163:user/lcd.c    **** 	LCD_WRITE_CMD(0xE0);
 164:user/lcd.c    **** 	LCD_WRITE_DATA(0x00);
 165:user/lcd.c    **** 	LCD_WRITE_DATA(0x07);
 166:user/lcd.c    **** 	LCD_WRITE_DATA(0x10);
 167:user/lcd.c    **** 	LCD_WRITE_DATA(0x09);
 168:user/lcd.c    **** 	LCD_WRITE_DATA(0x17);
 169:user/lcd.c    **** 	LCD_WRITE_DATA(0x0B);
 170:user/lcd.c    **** 	LCD_WRITE_DATA(0x41);
 171:user/lcd.c    **** 	LCD_WRITE_DATA(0x89);
 172:user/lcd.c    **** 	LCD_WRITE_DATA(0x4B);
 173:user/lcd.c    **** 	LCD_WRITE_DATA(0x0A);
 174:user/lcd.c    **** 	LCD_WRITE_DATA(0x0C);
 175:user/lcd.c    **** 	LCD_WRITE_DATA(0x0E);
 176:user/lcd.c    **** 	LCD_WRITE_DATA(0x18);
 177:user/lcd.c    **** 	LCD_WRITE_DATA(0x1B);
 178:user/lcd.c    **** 	LCD_WRITE_DATA(0x0F);
 179:user/lcd.c    **** 
 180:user/lcd.c    **** 	/* NGAMCTRL (Negative Gamma Control) (E1h)  */
 181:user/lcd.c    **** 	LCD_WRITE_CMD(0XE1);
 182:user/lcd.c    **** 	LCD_WRITE_DATA(0x00);
 183:user/lcd.c    **** 	LCD_WRITE_DATA(0x17);
 184:user/lcd.c    **** 	LCD_WRITE_DATA(0x1A);
 185:user/lcd.c    **** 	LCD_WRITE_DATA(0x04);
 186:user/lcd.c    **** 	LCD_WRITE_DATA(0x0E);
ARM GAS  C:\Users\gx\AppData\Local\Temp\ccp1x1Ug.s 			page 14


 187:user/lcd.c    **** 	LCD_WRITE_DATA(0x06);
 188:user/lcd.c    **** 	LCD_WRITE_DATA(0x2F);
 189:user/lcd.c    **** 	LCD_WRITE_DATA(0x45);
 190:user/lcd.c    **** 	LCD_WRITE_DATA(0x43);
 191:user/lcd.c    **** 	LCD_WRITE_DATA(0x02);
 192:user/lcd.c    **** 	LCD_WRITE_DATA(0x0A);
 193:user/lcd.c    **** 	LCD_WRITE_DATA(0x09);
 194:user/lcd.c    **** 	LCD_WRITE_DATA(0x32);
 195:user/lcd.c    **** 	LCD_WRITE_DATA(0x36);
 196:user/lcd.c    **** 	LCD_WRITE_DATA(0x0F);
 197:user/lcd.c    **** 
 198:user/lcd.c    **** 	/* Adjust Control 3 (F7h)  */
 199:user/lcd.c    **** 	LCD_WRITE_CMD(0XF7);
 200:user/lcd.c    **** 	LCD_WRITE_DATA(0xA9);
 201:user/lcd.c    **** 	LCD_WRITE_DATA(0x51);
 202:user/lcd.c    **** 	LCD_WRITE_DATA(0x2C);
 203:user/lcd.c    **** 	LCD_WRITE_DATA(0x82); /* DSI write DCS command, use loose packet RGB 666 */
 204:user/lcd.c    **** 
 205:user/lcd.c    **** 	/* Power Control 1 (C0h)  */
 206:user/lcd.c    **** 	LCD_WRITE_CMD(0xC0);
 207:user/lcd.c    **** 	LCD_WRITE_DATA(0x11);
 208:user/lcd.c    **** 	LCD_WRITE_DATA(0x09);
 209:user/lcd.c    **** 
 210:user/lcd.c    **** 	/* Power Control 2 (C1h) */
 211:user/lcd.c    **** 	LCD_WRITE_CMD(0xC1);
 212:user/lcd.c    **** 	LCD_WRITE_DATA(0x41);
 213:user/lcd.c    **** 
 214:user/lcd.c    **** 	/* VCOM Control (C5h)  */
 215:user/lcd.c    **** 	LCD_WRITE_CMD(0XC5);
 216:user/lcd.c    **** 	LCD_WRITE_DATA(0x00);
 217:user/lcd.c    **** 	LCD_WRITE_DATA(0x0A);
 218:user/lcd.c    **** 	LCD_WRITE_DATA(0x80);
 219:user/lcd.c    **** 
 220:user/lcd.c    **** 	/* Frame Rate Control (In Normal Mode/Full Colors) (B1h) */
 221:user/lcd.c    **** 	LCD_WRITE_CMD(0xB1);
 222:user/lcd.c    **** 	LCD_WRITE_DATA(0xB0);
 223:user/lcd.c    **** 	LCD_WRITE_DATA(0x11);
 224:user/lcd.c    **** 
 225:user/lcd.c    **** 	/* Display Inversion Control (B4h) */
 226:user/lcd.c    **** 	LCD_WRITE_CMD(0xB4);
 227:user/lcd.c    **** 	LCD_WRITE_DATA(0x02);
 228:user/lcd.c    **** 
 229:user/lcd.c    **** 	/* Display Function Control (B6h)  */
 230:user/lcd.c    **** 	LCD_WRITE_CMD(0xB6);
 231:user/lcd.c    **** 	LCD_WRITE_DATA(0x02);
 232:user/lcd.c    **** 	LCD_WRITE_DATA(0x22);
 233:user/lcd.c    **** 
 234:user/lcd.c    **** 	/* Entry Mode Set (B7h)  */
 235:user/lcd.c    **** 	LCD_WRITE_CMD(0xB7);
 236:user/lcd.c    **** 	LCD_WRITE_DATA(0xc6);
 237:user/lcd.c    **** 
 238:user/lcd.c    **** 	/* HS Lanes Control (BEh) */
 239:user/lcd.c    **** 	LCD_WRITE_CMD(0xBE);
 240:user/lcd.c    **** 	LCD_WRITE_DATA(0x00);
 241:user/lcd.c    **** 	LCD_WRITE_DATA(0x04);
 242:user/lcd.c    **** 
 243:user/lcd.c    **** 	/* Set Image Function (E9h)  */
ARM GAS  C:\Users\gx\AppData\Local\Temp\ccp1x1Ug.s 			page 15


 244:user/lcd.c    **** 	LCD_WRITE_CMD(0xE9);
 245:user/lcd.c    **** 	LCD_WRITE_DATA(0x00);
 246:user/lcd.c    **** 
 247:user/lcd.c    **** 	/* 设置屏幕方向和尺寸 */
 248:user/lcd.c    **** 	LCD_WRITE_CMD(0x36);
 249:user/lcd.c    **** 	LCD_WRITE_DATA(0x08);
 250:user/lcd.c    **** 	LCD_WRITE_CMD(0x2A);
 251:user/lcd.c    **** 	LCD_WRITE_DATA(0x00); /* x start */
 252:user/lcd.c    **** 	LCD_WRITE_DATA(0x00);
 253:user/lcd.c    **** 	LCD_WRITE_DATA(0x01); /* x end */
 254:user/lcd.c    **** 	LCD_WRITE_DATA(0x3F);
 255:user/lcd.c    **** 
 256:user/lcd.c    **** 	LCD_WRITE_CMD(0x2B);
 257:user/lcd.c    **** 	LCD_WRITE_DATA(0x00); /* y start */
 258:user/lcd.c    **** 	LCD_WRITE_DATA(0x00);
 259:user/lcd.c    **** 	LCD_WRITE_DATA(0x01); /* y end */
 260:user/lcd.c    **** 	LCD_WRITE_DATA(0xdF);
 261:user/lcd.c    **** 
 262:user/lcd.c    **** 	/* write gram start */
 263:user/lcd.c    **** 	LCD_WRITE_CMD(0x2C);
 264:user/lcd.c    **** 
 265:user/lcd.c    **** 	/* Interface Pixel Format (3Ah) */
 266:user/lcd.c    **** 	LCD_WRITE_CMD(0x3A);
 267:user/lcd.c    **** 	LCD_WRITE_DATA(0x55); /* 0x55 : 16 bits/pixel  */
 268:user/lcd.c    **** 
 269:user/lcd.c    **** 	/* Sleep Out (11h) */
 270:user/lcd.c    **** 	LCD_WRITE_CMD(0x11);
 271:user/lcd.c    **** 	HAL_Delay(120);
 272:user/lcd.c    **** 	/* Display On */
 273:user/lcd.c    **** 	LCD_WRITE_CMD(0x29);
 274:user/lcd.c    **** 
 275:user/lcd.c    **** 	HAL_GPIO_WritePin(GPIOB, GPIO_PIN_15, 1); //点亮背光
 276:user/lcd.c    **** }
 277:user/lcd.c    **** 
 278:user/lcd.c    **** #endif
 279:user/lcd.c    **** void LCD_SetWindow(uint16_t xStar, uint16_t yStar, uint16_t xEnd, uint16_t yEnd)
 280:user/lcd.c    **** {
 565              		.loc 1 280 1 is_stmt 1 view -0
 566              		.cfi_startproc
 567              		@ args = 0, pretend = 0, frame = 0
 568              		@ frame_needed = 0, uses_anonymous_args = 0
 569              		.loc 1 280 1 is_stmt 0 view .LVU123
 570 0000 F8B5     		push	{r3, r4, r5, r6, r7, lr}
 571              	.LCFI2:
 572              		.cfi_def_cfa_offset 24
 573              		.cfi_offset 3, -24
 574              		.cfi_offset 4, -20
 575              		.cfi_offset 5, -16
 576              		.cfi_offset 6, -12
 577              		.cfi_offset 7, -8
 578              		.cfi_offset 14, -4
 579 0002 0746     		mov	r7, r0
 580 0004 0D46     		mov	r5, r1
 581 0006 1646     		mov	r6, r2
 582 0008 1C46     		mov	r4, r3
 281:user/lcd.c    **** 	LCD_WRITE_CMD(0x2A);
 583              		.loc 1 281 2 is_stmt 1 view .LVU124
ARM GAS  C:\Users\gx\AppData\Local\Temp\ccp1x1Ug.s 			page 16


 584 000a 2A20     		movs	r0, #42
 585              	.LVL98:
 586              		.loc 1 281 2 is_stmt 0 view .LVU125
 587 000c FFF7FEFF 		bl	LCD_WRITE_CMD
 588              	.LVL99:
 282:user/lcd.c    **** 	LCD_WRITE_DATA(xStar >> 8);
 589              		.loc 1 282 2 is_stmt 1 view .LVU126
 590 0010 380A     		lsrs	r0, r7, #8
 591 0012 FFF7FEFF 		bl	LCD_WRITE_DATA
 592              	.LVL100:
 283:user/lcd.c    **** 	LCD_WRITE_DATA(0x00FF & xStar);
 593              		.loc 1 283 2 view .LVU127
 594 0016 F8B2     		uxtb	r0, r7
 595 0018 FFF7FEFF 		bl	LCD_WRITE_DATA
 596              	.LVL101:
 284:user/lcd.c    **** 	LCD_WRITE_DATA(xEnd >> 8);
 597              		.loc 1 284 2 view .LVU128
 598 001c 300A     		lsrs	r0, r6, #8
 599 001e FFF7FEFF 		bl	LCD_WRITE_DATA
 600              	.LVL102:
 285:user/lcd.c    **** 	LCD_WRITE_DATA(0x00FF & xEnd);
 601              		.loc 1 285 2 view .LVU129
 602 0022 F0B2     		uxtb	r0, r6
 603 0024 FFF7FEFF 		bl	LCD_WRITE_DATA
 604              	.LVL103:
 286:user/lcd.c    **** 
 287:user/lcd.c    **** 	LCD_WRITE_CMD(0x2B);
 605              		.loc 1 287 2 view .LVU130
 606 0028 2B20     		movs	r0, #43
 607 002a FFF7FEFF 		bl	LCD_WRITE_CMD
 608              	.LVL104:
 288:user/lcd.c    **** 	LCD_WRITE_DATA(yStar >> 8);
 609              		.loc 1 288 2 view .LVU131
 610 002e 280A     		lsrs	r0, r5, #8
 611 0030 FFF7FEFF 		bl	LCD_WRITE_DATA
 612              	.LVL105:
 289:user/lcd.c    **** 	LCD_WRITE_DATA(0x00FF & yStar);
 613              		.loc 1 289 2 view .LVU132
 614 0034 E8B2     		uxtb	r0, r5
 615 0036 FFF7FEFF 		bl	LCD_WRITE_DATA
 616              	.LVL106:
 290:user/lcd.c    **** 	LCD_WRITE_DATA(yEnd >> 8);
 617              		.loc 1 290 2 view .LVU133
 618 003a 200A     		lsrs	r0, r4, #8
 619 003c FFF7FEFF 		bl	LCD_WRITE_DATA
 620              	.LVL107:
 291:user/lcd.c    **** 	LCD_WRITE_DATA(0x00FF & yEnd);
 621              		.loc 1 291 2 view .LVU134
 622 0040 E0B2     		uxtb	r0, r4
 623 0042 FFF7FEFF 		bl	LCD_WRITE_DATA
 624              	.LVL108:
 292:user/lcd.c    **** 
 293:user/lcd.c    **** 	LCD_WRITE_CMD(0x2C);
 625              		.loc 1 293 2 view .LVU135
 626 0046 2C20     		movs	r0, #44
 627 0048 FFF7FEFF 		bl	LCD_WRITE_CMD
 628              	.LVL109:
ARM GAS  C:\Users\gx\AppData\Local\Temp\ccp1x1Ug.s 			page 17


 294:user/lcd.c    **** }
 629              		.loc 1 294 1 is_stmt 0 view .LVU136
 630 004c F8BD     		pop	{r3, r4, r5, r6, r7, pc}
 631              		.cfi_endproc
 632              	.LFE131:
 634              		.section	.text.LCD_Clear,"ax",%progbits
 635              		.align	1
 636              		.global	LCD_Clear
 637              		.syntax unified
 638              		.thumb
 639              		.thumb_func
 640              		.fpu fpv4-sp-d16
 642              	LCD_Clear:
 643              	.LVL110:
 644              	.LFB132:
 295:user/lcd.c    **** 
 296:user/lcd.c    **** void LCD_Clear(uint16_t Color)
 297:user/lcd.c    **** {
 645              		.loc 1 297 1 is_stmt 1 view -0
 646              		.cfi_startproc
 647              		@ args = 0, pretend = 0, frame = 0
 648              		@ frame_needed = 0, uses_anonymous_args = 0
 649              		.loc 1 297 1 is_stmt 0 view .LVU138
 650 0000 10B5     		push	{r4, lr}
 651              	.LCFI3:
 652              		.cfi_def_cfa_offset 8
 653              		.cfi_offset 4, -8
 654              		.cfi_offset 14, -4
 655 0002 0446     		mov	r4, r0
 298:user/lcd.c    **** 	uint32_t index = 0;
 656              		.loc 1 298 2 is_stmt 1 view .LVU139
 657              	.LVL111:
 299:user/lcd.c    **** 
 300:user/lcd.c    **** 	LCD_SetWindow(0, 0, 320, 480);
 658              		.loc 1 300 2 view .LVU140
 659 0004 4FF4F073 		mov	r3, #480
 660 0008 4FF4A072 		mov	r2, #320
 661 000c 0021     		movs	r1, #0
 662 000e 0846     		mov	r0, r1
 663              	.LVL112:
 664              		.loc 1 300 2 is_stmt 0 view .LVU141
 665 0010 FFF7FEFF 		bl	LCD_SetWindow
 666              	.LVL113:
 301:user/lcd.c    **** 
 302:user/lcd.c    **** 	for (index = 0; index < 320 * 480; index++)
 667              		.loc 1 302 2 is_stmt 1 view .LVU142
 668              		.loc 1 302 13 is_stmt 0 view .LVU143
 669 0014 0023     		movs	r3, #0
 670              	.LVL114:
 671              	.L19:
 672              		.loc 1 302 18 is_stmt 1 discriminator 1 view .LVU144
 673              		.loc 1 302 2 is_stmt 0 discriminator 1 view .LVU145
 674 0016 B3F5163F 		cmp	r3, #153600
 675 001a 03D2     		bcs	.L22
 303:user/lcd.c    **** 	{
 304:user/lcd.c    **** 		LCD->LCD_RAM = Color;
 676              		.loc 1 304 3 is_stmt 1 discriminator 3 view .LVU146
ARM GAS  C:\Users\gx\AppData\Local\Temp\ccp1x1Ug.s 			page 18


 677              		.loc 1 304 16 is_stmt 0 discriminator 3 view .LVU147
 678 001c 024A     		ldr	r2, .L23
 679 001e 5480     		strh	r4, [r2, #2]	@ movhi
 302:user/lcd.c    **** 	{
 680              		.loc 1 302 37 is_stmt 1 discriminator 3 view .LVU148
 302:user/lcd.c    **** 	{
 681              		.loc 1 302 42 is_stmt 0 discriminator 3 view .LVU149
 682 0020 0133     		adds	r3, r3, #1
 683              	.LVL115:
 302:user/lcd.c    **** 	{
 684              		.loc 1 302 42 discriminator 3 view .LVU150
 685 0022 F8E7     		b	.L19
 686              	.L22:
 305:user/lcd.c    **** 	}
 306:user/lcd.c    **** }
 687              		.loc 1 306 1 view .LVU151
 688 0024 10BD     		pop	{r4, pc}
 689              	.L24:
 690 0026 00BF     		.align	2
 691              	.L23:
 692 0028 7E00006C 		.word	1811939454
 693              		.cfi_endproc
 694              	.LFE132:
 696              		.section	.text.LCD_DrawPoint,"ax",%progbits
 697              		.align	1
 698              		.global	LCD_DrawPoint
 699              		.syntax unified
 700              		.thumb
 701              		.thumb_func
 702              		.fpu fpv4-sp-d16
 704              	LCD_DrawPoint:
 705              	.LVL116:
 706              	.LFB133:
 307:user/lcd.c    **** 
 308:user/lcd.c    **** void LCD_DrawPoint(uint16_t x, uint16_t y, uint16_t color)
 309:user/lcd.c    **** {
 707              		.loc 1 309 1 is_stmt 1 view -0
 708              		.cfi_startproc
 709              		@ args = 0, pretend = 0, frame = 0
 710              		@ frame_needed = 0, uses_anonymous_args = 0
 711              		.loc 1 309 1 is_stmt 0 view .LVU153
 712 0000 10B5     		push	{r4, lr}
 713              	.LCFI4:
 714              		.cfi_def_cfa_offset 8
 715              		.cfi_offset 4, -8
 716              		.cfi_offset 14, -4
 717 0002 0B46     		mov	r3, r1
 718 0004 1446     		mov	r4, r2
 310:user/lcd.c    **** 	LCD_SetWindow(x, y, x, y);
 719              		.loc 1 310 2 is_stmt 1 view .LVU154
 720 0006 0246     		mov	r2, r0
 721              	.LVL117:
 722              		.loc 1 310 2 is_stmt 0 view .LVU155
 723 0008 FFF7FEFF 		bl	LCD_SetWindow
 724              	.LVL118:
 311:user/lcd.c    **** 	LCD_WRITE_DATA(color);
 725              		.loc 1 311 2 is_stmt 1 view .LVU156
ARM GAS  C:\Users\gx\AppData\Local\Temp\ccp1x1Ug.s 			page 19


 726 000c 2046     		mov	r0, r4
 727 000e FFF7FEFF 		bl	LCD_WRITE_DATA
 728              	.LVL119:
 312:user/lcd.c    **** }
 729              		.loc 1 312 1 is_stmt 0 view .LVU157
 730 0012 10BD     		pop	{r4, pc}
 731              		.cfi_endproc
 732              	.LFE133:
 734              		.section	.text.LCD_Draw,"ax",%progbits
 735              		.align	1
 736              		.global	LCD_Draw
 737              		.syntax unified
 738              		.thumb
 739              		.thumb_func
 740              		.fpu fpv4-sp-d16
 742              	LCD_Draw:
 743              	.LVL120:
 744              	.LFB134:
 313:user/lcd.c    **** 
 314:user/lcd.c    **** void LCD_Draw(uint16_t x1, uint16_t y1,uint16_t x2, uint16_t y2,uint16_t *data)
 315:user/lcd.c    **** {
 745              		.loc 1 315 1 is_stmt 1 view -0
 746              		.cfi_startproc
 747              		@ args = 4, pretend = 0, frame = 0
 748              		@ frame_needed = 0, uses_anonymous_args = 0
 749              		.loc 1 315 1 is_stmt 0 view .LVU159
 750 0000 2DE9F84F 		push	{r3, r4, r5, r6, r7, r8, r9, r10, fp, lr}
 751              	.LCFI5:
 752              		.cfi_def_cfa_offset 40
 753              		.cfi_offset 3, -40
 754              		.cfi_offset 4, -36
 755              		.cfi_offset 5, -32
 756              		.cfi_offset 6, -28
 757              		.cfi_offset 7, -24
 758              		.cfi_offset 8, -20
 759              		.cfi_offset 9, -16
 760              		.cfi_offset 10, -12
 761              		.cfi_offset 11, -8
 762              		.cfi_offset 14, -4
 763 0004 8346     		mov	fp, r0
 764 0006 8A46     		mov	r10, r1
 765 0008 9146     		mov	r9, r2
 766 000a 9846     		mov	r8, r3
 767 000c 0A9C     		ldr	r4, [sp, #40]
 316:user/lcd.c    **** 	uint32_t i;
 768              		.loc 1 316 2 is_stmt 1 view .LVU160
 317:user/lcd.c    **** 	LCD_SetWindow(x1, y1, x2, y2);
 769              		.loc 1 317 2 view .LVU161
 770 000e FFF7FEFF 		bl	LCD_SetWindow
 771              	.LVL121:
 318:user/lcd.c    **** 	for (i = 0; i < (x2-x1)*(y2-y1); i++)
 772              		.loc 1 318 2 view .LVU162
 773              		.loc 1 318 9 is_stmt 0 view .LVU163
 774 0012 0027     		movs	r7, #0
 775              	.LVL122:
 776              	.L28:
 777              		.loc 1 318 14 is_stmt 1 discriminator 1 view .LVU164
ARM GAS  C:\Users\gx\AppData\Local\Temp\ccp1x1Ug.s 			page 20


 778              		.loc 1 318 21 is_stmt 0 discriminator 1 view .LVU165
 779 0014 A9EB0B05 		sub	r5, r9, fp
 780              		.loc 1 318 29 discriminator 1 view .LVU166
 781 0018 A8EB0A06 		sub	r6, r8, r10
 782              		.loc 1 318 25 discriminator 1 view .LVU167
 783 001c 06FB05F5 		mul	r5, r6, r5
 784              		.loc 1 318 2 discriminator 1 view .LVU168
 785 0020 BD42     		cmp	r5, r7
 786 0022 05D9     		bls	.L31
 319:user/lcd.c    **** 	{
 320:user/lcd.c    **** 		LCD_WRITE_DATA(*data++);
 787              		.loc 1 320 3 is_stmt 1 discriminator 3 view .LVU169
 788              	.LVL123:
 789              		.loc 1 320 3 is_stmt 0 discriminator 3 view .LVU170
 790 0024 34F8020B 		ldrh	r0, [r4], #2
 791              	.LVL124:
 792              		.loc 1 320 3 discriminator 3 view .LVU171
 793 0028 FFF7FEFF 		bl	LCD_WRITE_DATA
 794              	.LVL125:
 318:user/lcd.c    **** 	for (i = 0; i < (x2-x1)*(y2-y1); i++)
 795              		.loc 1 318 35 is_stmt 1 discriminator 3 view .LVU172
 318:user/lcd.c    **** 	for (i = 0; i < (x2-x1)*(y2-y1); i++)
 796              		.loc 1 318 36 is_stmt 0 discriminator 3 view .LVU173
 797 002c 0137     		adds	r7, r7, #1
 798              	.LVL126:
 318:user/lcd.c    **** 	for (i = 0; i < (x2-x1)*(y2-y1); i++)
 799              		.loc 1 318 36 discriminator 3 view .LVU174
 800 002e F1E7     		b	.L28
 801              	.L31:
 321:user/lcd.c    **** 	}
 322:user/lcd.c    **** 	
 323:user/lcd.c    **** 
 324:user/lcd.c    **** }
 802              		.loc 1 324 1 view .LVU175
 803 0030 BDE8F88F 		pop	{r3, r4, r5, r6, r7, r8, r9, r10, fp, pc}
 804              		.loc 1 324 1 view .LVU176
 805              		.cfi_endproc
 806              	.LFE134:
 808              		.section	.text.LCD_DraWR,"ax",%progbits
 809              		.align	1
 810              		.global	LCD_DraWR
 811              		.syntax unified
 812              		.thumb
 813              		.thumb_func
 814              		.fpu fpv4-sp-d16
 816              	LCD_DraWR:
 817              	.LFB135:
 325:user/lcd.c    **** void LCD_DraWR()
 326:user/lcd.c    **** {
 818              		.loc 1 326 1 is_stmt 1 view -0
 819              		.cfi_startproc
 820              		@ args = 0, pretend = 0, frame = 0
 821              		@ frame_needed = 0, uses_anonymous_args = 0
 822 0000 08B5     		push	{r3, lr}
 823              	.LCFI6:
 824              		.cfi_def_cfa_offset 8
 825              		.cfi_offset 3, -8
ARM GAS  C:\Users\gx\AppData\Local\Temp\ccp1x1Ug.s 			page 21


 826              		.cfi_offset 14, -4
 327:user/lcd.c    **** 	uint32_t index = 0;
 827              		.loc 1 327 2 view .LVU178
 828              	.LVL127:
 328:user/lcd.c    **** 
 329:user/lcd.c    **** 	LCD_SetWindow(40, 40, 80, 80);
 829              		.loc 1 329 2 view .LVU179
 830 0002 5023     		movs	r3, #80
 831 0004 1A46     		mov	r2, r3
 832 0006 2821     		movs	r1, #40
 833 0008 0846     		mov	r0, r1
 834 000a FFF7FEFF 		bl	LCD_SetWindow
 835              	.LVL128:
 330:user/lcd.c    **** 
 331:user/lcd.c    **** 	for (index = 0; index < 153600; index++)
 836              		.loc 1 331 2 view .LVU180
 837              		.loc 1 331 13 is_stmt 0 view .LVU181
 838 000e 0023     		movs	r3, #0
 839              	.LVL129:
 840              	.L33:
 841              		.loc 1 331 18 is_stmt 1 discriminator 1 view .LVU182
 842              		.loc 1 331 2 is_stmt 0 discriminator 1 view .LVU183
 843 0010 B3F5163F 		cmp	r3, #153600
 844 0014 05D2     		bcs	.L36
 332:user/lcd.c    **** 	{
 333:user/lcd.c    **** 		LCD->LCD_RAM = 0x1180;
 845              		.loc 1 333 3 is_stmt 1 discriminator 3 view .LVU184
 846              		.loc 1 333 16 is_stmt 0 discriminator 3 view .LVU185
 847 0016 034A     		ldr	r2, .L37
 848 0018 4FF48C51 		mov	r1, #4480
 849 001c 5180     		strh	r1, [r2, #2]	@ movhi
 331:user/lcd.c    **** 	{
 850              		.loc 1 331 34 is_stmt 1 discriminator 3 view .LVU186
 331:user/lcd.c    **** 	{
 851              		.loc 1 331 39 is_stmt 0 discriminator 3 view .LVU187
 852 001e 0133     		adds	r3, r3, #1
 853              	.LVL130:
 331:user/lcd.c    **** 	{
 854              		.loc 1 331 39 discriminator 3 view .LVU188
 855 0020 F6E7     		b	.L33
 856              	.L36:
 334:user/lcd.c    **** 	}
 335:user/lcd.c    **** }
 857              		.loc 1 335 1 view .LVU189
 858 0022 08BD     		pop	{r3, pc}
 859              	.LVL131:
 860              	.L38:
 861              		.loc 1 335 1 view .LVU190
 862              		.align	2
 863              	.L37:
 864 0024 7E00006C 		.word	1811939454
 865              		.cfi_endproc
 866              	.LFE135:
 868              		.section	.text.LCD_DrawLine,"ax",%progbits
 869              		.align	1
 870              		.global	LCD_DrawLine
 871              		.syntax unified
ARM GAS  C:\Users\gx\AppData\Local\Temp\ccp1x1Ug.s 			page 22


 872              		.thumb
 873              		.thumb_func
 874              		.fpu fpv4-sp-d16
 876              	LCD_DrawLine:
 877              	.LFB136:
 336:user/lcd.c    **** void LCD_DrawLine()
 337:user/lcd.c    **** {
 878              		.loc 1 337 1 is_stmt 1 view -0
 879              		.cfi_startproc
 880              		@ args = 0, pretend = 0, frame = 0
 881              		@ frame_needed = 0, uses_anonymous_args = 0
 882 0000 10B5     		push	{r4, lr}
 883              	.LCFI7:
 884              		.cfi_def_cfa_offset 8
 885              		.cfi_offset 4, -8
 886              		.cfi_offset 14, -4
 338:user/lcd.c    **** 	uint16_t i, j;
 887              		.loc 1 338 2 view .LVU192
 339:user/lcd.c    **** 	LCD_DraWR();
 888              		.loc 1 339 2 view .LVU193
 889 0002 FFF7FEFF 		bl	LCD_DraWR
 890              	.LVL132:
 340:user/lcd.c    **** 	for (i = 0; i < 100; i++)
 891              		.loc 1 340 2 view .LVU194
 892              		.loc 1 340 9 is_stmt 0 view .LVU195
 893 0006 0024     		movs	r4, #0
 894              	.LVL133:
 895              	.L40:
 896              		.loc 1 340 14 is_stmt 1 discriminator 1 view .LVU196
 897              		.loc 1 340 2 is_stmt 0 discriminator 1 view .LVU197
 898 0008 632C     		cmp	r4, #99
 899 000a 07D8     		bhi	.L45
 341:user/lcd.c    **** 	{
 342:user/lcd.c    **** 		LCD_DrawPoint(50, i, 0xFF);
 900              		.loc 1 342 3 is_stmt 1 discriminator 3 view .LVU198
 901 000c FF22     		movs	r2, #255
 902 000e 2146     		mov	r1, r4
 903 0010 3220     		movs	r0, #50
 904 0012 FFF7FEFF 		bl	LCD_DrawPoint
 905              	.LVL134:
 340:user/lcd.c    **** 	for (i = 0; i < 100; i++)
 906              		.loc 1 340 23 discriminator 3 view .LVU199
 340:user/lcd.c    **** 	for (i = 0; i < 100; i++)
 907              		.loc 1 340 24 is_stmt 0 discriminator 3 view .LVU200
 908 0016 0134     		adds	r4, r4, #1
 909              	.LVL135:
 340:user/lcd.c    **** 	for (i = 0; i < 100; i++)
 910              		.loc 1 340 24 discriminator 3 view .LVU201
 911 0018 A4B2     		uxth	r4, r4
 912              	.LVL136:
 340:user/lcd.c    **** 	for (i = 0; i < 100; i++)
 913              		.loc 1 340 24 discriminator 3 view .LVU202
 914 001a F5E7     		b	.L40
 915              	.L45:
 343:user/lcd.c    **** 	}
 344:user/lcd.c    **** 	for (i = 0; i < 100; i++)
 916              		.loc 1 344 9 view .LVU203
ARM GAS  C:\Users\gx\AppData\Local\Temp\ccp1x1Ug.s 			page 23


 917 001c 0024     		movs	r4, #0
 918              	.LVL137:
 919              	.L42:
 920              		.loc 1 344 14 is_stmt 1 discriminator 1 view .LVU204
 921              		.loc 1 344 2 is_stmt 0 discriminator 1 view .LVU205
 922 001e 632C     		cmp	r4, #99
 923 0020 08D8     		bhi	.L46
 345:user/lcd.c    **** 	{
 346:user/lcd.c    **** 		LCD_DrawPoint(i, 50, 0xF000);
 924              		.loc 1 346 3 is_stmt 1 discriminator 3 view .LVU206
 925 0022 4FF47042 		mov	r2, #61440
 926 0026 3221     		movs	r1, #50
 927 0028 2046     		mov	r0, r4
 928 002a FFF7FEFF 		bl	LCD_DrawPoint
 929              	.LVL138:
 344:user/lcd.c    **** 	{
 930              		.loc 1 344 23 discriminator 3 view .LVU207
 344:user/lcd.c    **** 	{
 931              		.loc 1 344 24 is_stmt 0 discriminator 3 view .LVU208
 932 002e 0134     		adds	r4, r4, #1
 933              	.LVL139:
 344:user/lcd.c    **** 	{
 934              		.loc 1 344 24 discriminator 3 view .LVU209
 935 0030 A4B2     		uxth	r4, r4
 936              	.LVL140:
 344:user/lcd.c    **** 	{
 937              		.loc 1 344 24 discriminator 3 view .LVU210
 938 0032 F4E7     		b	.L42
 939              	.L46:
 347:user/lcd.c    **** 	}
 348:user/lcd.c    **** }
 940              		.loc 1 348 1 view .LVU211
 941 0034 10BD     		pop	{r4, pc}
 942              		.loc 1 348 1 view .LVU212
 943              		.cfi_endproc
 944              	.LFE136:
 946              		.text
 947              	.Letext0:
 948              		.file 2 "c:\\program files (x86)\\gnu arm embedded toolchain\\9 2020-q2-update\\arm-none-eabi\\inc
 949              		.file 3 "c:\\program files (x86)\\gnu arm embedded toolchain\\9 2020-q2-update\\arm-none-eabi\\inc
 950              		.file 4 "Drivers/CMSIS/Include/core_cm4.h"
 951              		.file 5 "Drivers/CMSIS/Device/ST/STM32F4xx/Include/system_stm32f4xx.h"
 952              		.file 6 "Drivers/CMSIS/Device/ST/STM32F4xx/Include/stm32f407xx.h"
 953              		.file 7 "c:\\program files (x86)\\gnu arm embedded toolchain\\9 2020-q2-update\\lib\\gcc\\arm-none
 954              		.file 8 "c:\\program files (x86)\\gnu arm embedded toolchain\\9 2020-q2-update\\arm-none-eabi\\inc
 955              		.file 9 "c:\\program files (x86)\\gnu arm embedded toolchain\\9 2020-q2-update\\arm-none-eabi\\inc
 956              		.file 10 "c:\\program files (x86)\\gnu arm embedded toolchain\\9 2020-q2-update\\arm-none-eabi\\in
 957              		.file 11 "user/lcd.h"
 958              		.file 12 "c:\\program files (x86)\\gnu arm embedded toolchain\\9 2020-q2-update\\arm-none-eabi\\in
 959              		.file 13 "Drivers/STM32F4xx_HAL_Driver/Inc/stm32f4xx_hal.h"
 960              		.file 14 "Drivers/STM32F4xx_HAL_Driver/Inc/stm32f4xx_hal_gpio.h"
ARM GAS  C:\Users\gx\AppData\Local\Temp\ccp1x1Ug.s 			page 24

