ARM GAS  C:\Users\gx\AppData\Local\Temp\cc5DyzIW.s 			page 1


   1              		.cpu cortex-m4
   2              		.eabi_attribute 27, 1
   3              		.eabi_attribute 28, 1
   4              		.eabi_attribute 20, 1
   5              		.eabi_attribute 21, 1
   6              		.eabi_attribute 23, 3
   7              		.eabi_attribute 24, 1
   8              		.eabi_attribute 25, 1
   9              		.eabi_attribute 26, 1
  10              		.eabi_attribute 30, 1
  11              		.eabi_attribute 34, 1
  12              		.eabi_attribute 18, 4
  13              		.file	"lv_async.c"
  14              		.text
  15              	.Ltext0:
  16              		.cfi_sections	.debug_frame
  17              		.section	.text.lv_async_timer_cb,"ax",%progbits
  18              		.align	1
  19              		.arch armv7e-m
  20              		.syntax unified
  21              		.thumb
  22              		.thumb_func
  23              		.fpu fpv4-sp-d16
  25              	lv_async_timer_cb:
  26              	.LVL0:
  27              	.LFB2:
  28              		.file 1 "lvgl/lvgl/src/misc/lv_async.c"
   1:lvgl/lvgl/src/misc/lv_async.c **** /**
   2:lvgl/lvgl/src/misc/lv_async.c ****  * @file lv_async.c
   3:lvgl/lvgl/src/misc/lv_async.c ****  *
   4:lvgl/lvgl/src/misc/lv_async.c ****  */
   5:lvgl/lvgl/src/misc/lv_async.c **** 
   6:lvgl/lvgl/src/misc/lv_async.c **** /*********************
   7:lvgl/lvgl/src/misc/lv_async.c ****  *      INCLUDES
   8:lvgl/lvgl/src/misc/lv_async.c ****  *********************/
   9:lvgl/lvgl/src/misc/lv_async.c **** 
  10:lvgl/lvgl/src/misc/lv_async.c **** #include "lv_async.h"
  11:lvgl/lvgl/src/misc/lv_async.c **** 
  12:lvgl/lvgl/src/misc/lv_async.c **** /*********************
  13:lvgl/lvgl/src/misc/lv_async.c ****  *      DEFINES
  14:lvgl/lvgl/src/misc/lv_async.c ****  *********************/
  15:lvgl/lvgl/src/misc/lv_async.c **** 
  16:lvgl/lvgl/src/misc/lv_async.c **** /**********************
  17:lvgl/lvgl/src/misc/lv_async.c ****  *      TYPEDEFS
  18:lvgl/lvgl/src/misc/lv_async.c ****  **********************/
  19:lvgl/lvgl/src/misc/lv_async.c **** 
  20:lvgl/lvgl/src/misc/lv_async.c **** typedef struct _lv_async_info_t {
  21:lvgl/lvgl/src/misc/lv_async.c ****     lv_async_cb_t cb;
  22:lvgl/lvgl/src/misc/lv_async.c ****     void * user_data;
  23:lvgl/lvgl/src/misc/lv_async.c **** } lv_async_info_t;
  24:lvgl/lvgl/src/misc/lv_async.c **** 
  25:lvgl/lvgl/src/misc/lv_async.c **** /**********************
  26:lvgl/lvgl/src/misc/lv_async.c ****  *  STATIC PROTOTYPES
  27:lvgl/lvgl/src/misc/lv_async.c ****  **********************/
  28:lvgl/lvgl/src/misc/lv_async.c **** 
  29:lvgl/lvgl/src/misc/lv_async.c **** static void lv_async_timer_cb(lv_timer_t * timer);
  30:lvgl/lvgl/src/misc/lv_async.c **** 
ARM GAS  C:\Users\gx\AppData\Local\Temp\cc5DyzIW.s 			page 2


  31:lvgl/lvgl/src/misc/lv_async.c **** /**********************
  32:lvgl/lvgl/src/misc/lv_async.c ****  *  STATIC VARIABLES
  33:lvgl/lvgl/src/misc/lv_async.c ****  **********************/
  34:lvgl/lvgl/src/misc/lv_async.c **** 
  35:lvgl/lvgl/src/misc/lv_async.c **** /**********************
  36:lvgl/lvgl/src/misc/lv_async.c ****  *      MACROS
  37:lvgl/lvgl/src/misc/lv_async.c ****  **********************/
  38:lvgl/lvgl/src/misc/lv_async.c **** 
  39:lvgl/lvgl/src/misc/lv_async.c **** /**********************
  40:lvgl/lvgl/src/misc/lv_async.c ****  *   GLOBAL FUNCTIONS
  41:lvgl/lvgl/src/misc/lv_async.c ****  **********************/
  42:lvgl/lvgl/src/misc/lv_async.c **** 
  43:lvgl/lvgl/src/misc/lv_async.c **** lv_res_t lv_async_call(lv_async_cb_t async_xcb, void * user_data)
  44:lvgl/lvgl/src/misc/lv_async.c **** {
  45:lvgl/lvgl/src/misc/lv_async.c ****     /*Allocate an info structure*/
  46:lvgl/lvgl/src/misc/lv_async.c ****     lv_async_info_t * info = lv_mem_alloc(sizeof(lv_async_info_t));
  47:lvgl/lvgl/src/misc/lv_async.c **** 
  48:lvgl/lvgl/src/misc/lv_async.c ****     if(info == NULL)
  49:lvgl/lvgl/src/misc/lv_async.c ****         return LV_RES_INV;
  50:lvgl/lvgl/src/misc/lv_async.c **** 
  51:lvgl/lvgl/src/misc/lv_async.c ****     /*Create a new timer*/
  52:lvgl/lvgl/src/misc/lv_async.c ****     /*Use highest priority so that it will run before a refresh*/
  53:lvgl/lvgl/src/misc/lv_async.c ****     lv_timer_t * timer = lv_timer_create(lv_async_timer_cb, 0, info);
  54:lvgl/lvgl/src/misc/lv_async.c **** 
  55:lvgl/lvgl/src/misc/lv_async.c ****     if(timer == NULL) {
  56:lvgl/lvgl/src/misc/lv_async.c ****         lv_mem_free(info);
  57:lvgl/lvgl/src/misc/lv_async.c ****         return LV_RES_INV;
  58:lvgl/lvgl/src/misc/lv_async.c ****     }
  59:lvgl/lvgl/src/misc/lv_async.c **** 
  60:lvgl/lvgl/src/misc/lv_async.c ****     info->cb = async_xcb;
  61:lvgl/lvgl/src/misc/lv_async.c ****     info->user_data = user_data;
  62:lvgl/lvgl/src/misc/lv_async.c **** 
  63:lvgl/lvgl/src/misc/lv_async.c ****     lv_timer_set_repeat_count(timer, 1);
  64:lvgl/lvgl/src/misc/lv_async.c ****     return LV_RES_OK;
  65:lvgl/lvgl/src/misc/lv_async.c **** }
  66:lvgl/lvgl/src/misc/lv_async.c **** 
  67:lvgl/lvgl/src/misc/lv_async.c **** /**********************
  68:lvgl/lvgl/src/misc/lv_async.c ****  *   STATIC FUNCTIONS
  69:lvgl/lvgl/src/misc/lv_async.c ****  **********************/
  70:lvgl/lvgl/src/misc/lv_async.c **** 
  71:lvgl/lvgl/src/misc/lv_async.c **** static void lv_async_timer_cb(lv_timer_t * timer)
  72:lvgl/lvgl/src/misc/lv_async.c **** {
  29              		.loc 1 72 1 view -0
  30              		.cfi_startproc
  31              		@ args = 0, pretend = 0, frame = 0
  32              		@ frame_needed = 0, uses_anonymous_args = 0
  33              		.loc 1 72 1 is_stmt 0 view .LVU1
  34 0000 10B5     		push	{r4, lr}
  35              	.LCFI0:
  36              		.cfi_def_cfa_offset 8
  37              		.cfi_offset 4, -8
  38              		.cfi_offset 14, -4
  73:lvgl/lvgl/src/misc/lv_async.c ****     lv_async_info_t * info = (lv_async_info_t *)timer->user_data;
  39              		.loc 1 73 5 is_stmt 1 view .LVU2
  40              		.loc 1 73 23 is_stmt 0 view .LVU3
  41 0002 C468     		ldr	r4, [r0, #12]
  42              	.LVL1:
ARM GAS  C:\Users\gx\AppData\Local\Temp\cc5DyzIW.s 			page 3


  74:lvgl/lvgl/src/misc/lv_async.c **** 
  75:lvgl/lvgl/src/misc/lv_async.c ****     info->cb(info->user_data);
  43              		.loc 1 75 5 is_stmt 1 view .LVU4
  44              		.loc 1 75 9 is_stmt 0 view .LVU5
  45 0004 2368     		ldr	r3, [r4]
  46              		.loc 1 75 5 view .LVU6
  47 0006 6068     		ldr	r0, [r4, #4]
  48              	.LVL2:
  49              		.loc 1 75 5 view .LVU7
  50 0008 9847     		blx	r3
  51              	.LVL3:
  76:lvgl/lvgl/src/misc/lv_async.c **** 
  77:lvgl/lvgl/src/misc/lv_async.c ****     lv_mem_free(info);
  52              		.loc 1 77 5 is_stmt 1 view .LVU8
  53 000a 2046     		mov	r0, r4
  54 000c FFF7FEFF 		bl	lv_mem_free
  55              	.LVL4:
  78:lvgl/lvgl/src/misc/lv_async.c **** }
  56              		.loc 1 78 1 is_stmt 0 view .LVU9
  57 0010 10BD     		pop	{r4, pc}
  58              		.loc 1 78 1 view .LVU10
  59              		.cfi_endproc
  60              	.LFE2:
  62              		.section	.text.lv_async_call,"ax",%progbits
  63              		.align	1
  64              		.global	lv_async_call
  65              		.syntax unified
  66              		.thumb
  67              		.thumb_func
  68              		.fpu fpv4-sp-d16
  70              	lv_async_call:
  71              	.LVL5:
  72              	.LFB1:
  44:lvgl/lvgl/src/misc/lv_async.c ****     /*Allocate an info structure*/
  73              		.loc 1 44 1 is_stmt 1 view -0
  74              		.cfi_startproc
  75              		@ args = 0, pretend = 0, frame = 0
  76              		@ frame_needed = 0, uses_anonymous_args = 0
  44:lvgl/lvgl/src/misc/lv_async.c ****     /*Allocate an info structure*/
  77              		.loc 1 44 1 is_stmt 0 view .LVU12
  78 0000 70B5     		push	{r4, r5, r6, lr}
  79              	.LCFI1:
  80              		.cfi_def_cfa_offset 16
  81              		.cfi_offset 4, -16
  82              		.cfi_offset 5, -12
  83              		.cfi_offset 6, -8
  84              		.cfi_offset 14, -4
  85 0002 0546     		mov	r5, r0
  86 0004 0C46     		mov	r4, r1
  46:lvgl/lvgl/src/misc/lv_async.c **** 
  87              		.loc 1 46 5 is_stmt 1 view .LVU13
  46:lvgl/lvgl/src/misc/lv_async.c **** 
  88              		.loc 1 46 30 is_stmt 0 view .LVU14
  89 0006 0820     		movs	r0, #8
  90              	.LVL6:
  46:lvgl/lvgl/src/misc/lv_async.c **** 
  91              		.loc 1 46 30 view .LVU15
ARM GAS  C:\Users\gx\AppData\Local\Temp\cc5DyzIW.s 			page 4


  92 0008 FFF7FEFF 		bl	lv_mem_alloc
  93              	.LVL7:
  48:lvgl/lvgl/src/misc/lv_async.c ****         return LV_RES_INV;
  94              		.loc 1 48 5 is_stmt 1 view .LVU16
  48:lvgl/lvgl/src/misc/lv_async.c ****         return LV_RES_INV;
  95              		.loc 1 48 7 is_stmt 0 view .LVU17
  96 000c 90B1     		cbz	r0, .L6
  97 000e 0646     		mov	r6, r0
  53:lvgl/lvgl/src/misc/lv_async.c **** 
  98              		.loc 1 53 5 is_stmt 1 view .LVU18
  53:lvgl/lvgl/src/misc/lv_async.c **** 
  99              		.loc 1 53 26 is_stmt 0 view .LVU19
 100 0010 0246     		mov	r2, r0
 101 0012 0021     		movs	r1, #0
 102 0014 0848     		ldr	r0, .L9
 103              	.LVL8:
  53:lvgl/lvgl/src/misc/lv_async.c **** 
 104              		.loc 1 53 26 view .LVU20
 105 0016 FFF7FEFF 		bl	lv_timer_create
 106              	.LVL9:
  55:lvgl/lvgl/src/misc/lv_async.c ****         lv_mem_free(info);
 107              		.loc 1 55 5 is_stmt 1 view .LVU21
  55:lvgl/lvgl/src/misc/lv_async.c ****         lv_mem_free(info);
 108              		.loc 1 55 7 is_stmt 0 view .LVU22
 109 001a 30B1     		cbz	r0, .L8
  60:lvgl/lvgl/src/misc/lv_async.c ****     info->user_data = user_data;
 110              		.loc 1 60 5 is_stmt 1 view .LVU23
  60:lvgl/lvgl/src/misc/lv_async.c ****     info->user_data = user_data;
 111              		.loc 1 60 14 is_stmt 0 view .LVU24
 112 001c 3560     		str	r5, [r6]
  61:lvgl/lvgl/src/misc/lv_async.c **** 
 113              		.loc 1 61 5 is_stmt 1 view .LVU25
  61:lvgl/lvgl/src/misc/lv_async.c **** 
 114              		.loc 1 61 21 is_stmt 0 view .LVU26
 115 001e 7460     		str	r4, [r6, #4]
  63:lvgl/lvgl/src/misc/lv_async.c ****     return LV_RES_OK;
 116              		.loc 1 63 5 is_stmt 1 view .LVU27
 117 0020 0121     		movs	r1, #1
 118 0022 FFF7FEFF 		bl	lv_timer_set_repeat_count
 119              	.LVL10:
  64:lvgl/lvgl/src/misc/lv_async.c **** }
 120              		.loc 1 64 5 view .LVU28
  64:lvgl/lvgl/src/misc/lv_async.c **** }
 121              		.loc 1 64 12 is_stmt 0 view .LVU29
 122 0026 0120     		movs	r0, #1
 123              	.LVL11:
 124              	.L4:
  65:lvgl/lvgl/src/misc/lv_async.c **** 
 125              		.loc 1 65 1 view .LVU30
 126 0028 70BD     		pop	{r4, r5, r6, pc}
 127              	.LVL12:
 128              	.L8:
  56:lvgl/lvgl/src/misc/lv_async.c ****         return LV_RES_INV;
 129              		.loc 1 56 9 is_stmt 1 view .LVU31
 130 002a 3046     		mov	r0, r6
 131              	.LVL13:
  56:lvgl/lvgl/src/misc/lv_async.c ****         return LV_RES_INV;
ARM GAS  C:\Users\gx\AppData\Local\Temp\cc5DyzIW.s 			page 5


 132              		.loc 1 56 9 is_stmt 0 view .LVU32
 133 002c FFF7FEFF 		bl	lv_mem_free
 134              	.LVL14:
  57:lvgl/lvgl/src/misc/lv_async.c ****     }
 135              		.loc 1 57 9 is_stmt 1 view .LVU33
  57:lvgl/lvgl/src/misc/lv_async.c ****     }
 136              		.loc 1 57 16 is_stmt 0 view .LVU34
 137 0030 0020     		movs	r0, #0
 138 0032 F9E7     		b	.L4
 139              	.LVL15:
 140              	.L6:
  49:lvgl/lvgl/src/misc/lv_async.c **** 
 141              		.loc 1 49 16 view .LVU35
 142 0034 0020     		movs	r0, #0
 143              	.LVL16:
  49:lvgl/lvgl/src/misc/lv_async.c **** 
 144              		.loc 1 49 16 view .LVU36
 145 0036 F7E7     		b	.L4
 146              	.L10:
 147              		.align	2
 148              	.L9:
 149 0038 00000000 		.word	lv_async_timer_cb
 150              		.cfi_endproc
 151              	.LFE1:
 153              		.text
 154              	.Letext0:
 155              		.file 2 "c:\\program files (x86)\\gnu arm embedded toolchain\\9 2020-q2-update\\arm-none-eabi\\inc
 156              		.file 3 "c:\\program files (x86)\\gnu arm embedded toolchain\\9 2020-q2-update\\arm-none-eabi\\inc
 157              		.file 4 "lvgl/lvgl/src/misc/lv_types.h"
 158              		.file 5 "lvgl/lvgl/src/misc/lv_timer.h"
 159              		.file 6 "lvgl/lvgl/src/misc/lv_async.h"
 160              		.file 7 "lvgl/lvgl/src/misc/lv_mem.h"
ARM GAS  C:\Users\gx\AppData\Local\Temp\cc5DyzIW.s 			page 6

