ARM GAS  C:\Users\gx\AppData\Local\Temp\ccHZ8fHg.s 			page 1


   1              		.cpu cortex-m4
   2              		.eabi_attribute 27, 1
   3              		.eabi_attribute 28, 1
   4              		.eabi_attribute 20, 1
   5              		.eabi_attribute 21, 1
   6              		.eabi_attribute 23, 3
   7              		.eabi_attribute 24, 1
   8              		.eabi_attribute 25, 1
   9              		.eabi_attribute 26, 1
  10              		.eabi_attribute 30, 1
  11              		.eabi_attribute 34, 1
  12              		.eabi_attribute 18, 4
  13              		.file	"lv_calendar_header_arrow.c"
  14              		.text
  15              	.Ltext0:
  16              		.cfi_sections	.debug_frame
  17              		.section	.rodata.month_event_cb.str1.4,"aMS",%progbits,1
  18              		.align	2
  19              	.LC0:
  20 0000 25642025 		.ascii	"%d %s\000"
  20      7300
  21              		.section	.text.month_event_cb,"ax",%progbits
  22              		.align	1
  23              		.arch armv7e-m
  24              		.syntax unified
  25              		.thumb
  26              		.thumb_func
  27              		.fpu fpv4-sp-d16
  29              	month_event_cb:
  30              	.LVL0:
  31              	.LFB159:
  32              		.file 1 "lvgl/lvgl/src/extra/widgets/calendar/lv_calendar_header_arrow.c"
   1:lvgl/lvgl/src/extra/widgets/calendar/lv_calendar_header_arrow.c **** /**
   2:lvgl/lvgl/src/extra/widgets/calendar/lv_calendar_header_arrow.c ****  * @file lv_calendar_header_arrow.c
   3:lvgl/lvgl/src/extra/widgets/calendar/lv_calendar_header_arrow.c ****  *
   4:lvgl/lvgl/src/extra/widgets/calendar/lv_calendar_header_arrow.c ****  */
   5:lvgl/lvgl/src/extra/widgets/calendar/lv_calendar_header_arrow.c **** 
   6:lvgl/lvgl/src/extra/widgets/calendar/lv_calendar_header_arrow.c **** /*********************
   7:lvgl/lvgl/src/extra/widgets/calendar/lv_calendar_header_arrow.c ****  *      INCLUDES
   8:lvgl/lvgl/src/extra/widgets/calendar/lv_calendar_header_arrow.c ****  *********************/
   9:lvgl/lvgl/src/extra/widgets/calendar/lv_calendar_header_arrow.c **** #include "lv_calendar_header_arrow.h"
  10:lvgl/lvgl/src/extra/widgets/calendar/lv_calendar_header_arrow.c **** #if LV_USE_CALENDAR_HEADER_ARROW
  11:lvgl/lvgl/src/extra/widgets/calendar/lv_calendar_header_arrow.c **** 
  12:lvgl/lvgl/src/extra/widgets/calendar/lv_calendar_header_arrow.c **** #include "lv_calendar.h"
  13:lvgl/lvgl/src/extra/widgets/calendar/lv_calendar_header_arrow.c **** #include "../../../widgets/lv_btn.h"
  14:lvgl/lvgl/src/extra/widgets/calendar/lv_calendar_header_arrow.c **** #include "../../../widgets/lv_label.h"
  15:lvgl/lvgl/src/extra/widgets/calendar/lv_calendar_header_arrow.c **** #include "../../layouts/flex/lv_flex.h"
  16:lvgl/lvgl/src/extra/widgets/calendar/lv_calendar_header_arrow.c **** 
  17:lvgl/lvgl/src/extra/widgets/calendar/lv_calendar_header_arrow.c **** /*********************
  18:lvgl/lvgl/src/extra/widgets/calendar/lv_calendar_header_arrow.c ****  *      DEFINES
  19:lvgl/lvgl/src/extra/widgets/calendar/lv_calendar_header_arrow.c ****  *********************/
  20:lvgl/lvgl/src/extra/widgets/calendar/lv_calendar_header_arrow.c **** 
  21:lvgl/lvgl/src/extra/widgets/calendar/lv_calendar_header_arrow.c **** /**********************
  22:lvgl/lvgl/src/extra/widgets/calendar/lv_calendar_header_arrow.c ****  *      TYPEDEFS
  23:lvgl/lvgl/src/extra/widgets/calendar/lv_calendar_header_arrow.c ****  **********************/
  24:lvgl/lvgl/src/extra/widgets/calendar/lv_calendar_header_arrow.c **** 
  25:lvgl/lvgl/src/extra/widgets/calendar/lv_calendar_header_arrow.c **** /**********************
ARM GAS  C:\Users\gx\AppData\Local\Temp\ccHZ8fHg.s 			page 2


  26:lvgl/lvgl/src/extra/widgets/calendar/lv_calendar_header_arrow.c ****  *  STATIC PROTOTYPES
  27:lvgl/lvgl/src/extra/widgets/calendar/lv_calendar_header_arrow.c ****  **********************/
  28:lvgl/lvgl/src/extra/widgets/calendar/lv_calendar_header_arrow.c **** static void my_constructor(const lv_obj_class_t * class_p, lv_obj_t * obj);
  29:lvgl/lvgl/src/extra/widgets/calendar/lv_calendar_header_arrow.c **** static void month_event_cb(lv_event_t * e);
  30:lvgl/lvgl/src/extra/widgets/calendar/lv_calendar_header_arrow.c **** 
  31:lvgl/lvgl/src/extra/widgets/calendar/lv_calendar_header_arrow.c **** /**********************
  32:lvgl/lvgl/src/extra/widgets/calendar/lv_calendar_header_arrow.c ****  *  STATIC VARIABLES
  33:lvgl/lvgl/src/extra/widgets/calendar/lv_calendar_header_arrow.c ****  **********************/
  34:lvgl/lvgl/src/extra/widgets/calendar/lv_calendar_header_arrow.c **** const lv_obj_class_t lv_calendar_header_arrow_class = {
  35:lvgl/lvgl/src/extra/widgets/calendar/lv_calendar_header_arrow.c ****      .base_class = &lv_obj_class,
  36:lvgl/lvgl/src/extra/widgets/calendar/lv_calendar_header_arrow.c ****      .constructor_cb = my_constructor
  37:lvgl/lvgl/src/extra/widgets/calendar/lv_calendar_header_arrow.c **** };
  38:lvgl/lvgl/src/extra/widgets/calendar/lv_calendar_header_arrow.c **** 
  39:lvgl/lvgl/src/extra/widgets/calendar/lv_calendar_header_arrow.c **** static const char * month_names_def[12] = LV_CALENDAR_DEFAULT_MONTH_NAMES;
  40:lvgl/lvgl/src/extra/widgets/calendar/lv_calendar_header_arrow.c **** static lv_obj_t * calendar_param;
  41:lvgl/lvgl/src/extra/widgets/calendar/lv_calendar_header_arrow.c **** static lv_coord_t btn_size_param;
  42:lvgl/lvgl/src/extra/widgets/calendar/lv_calendar_header_arrow.c **** 
  43:lvgl/lvgl/src/extra/widgets/calendar/lv_calendar_header_arrow.c **** /**********************
  44:lvgl/lvgl/src/extra/widgets/calendar/lv_calendar_header_arrow.c ****  *      MACROS
  45:lvgl/lvgl/src/extra/widgets/calendar/lv_calendar_header_arrow.c ****  **********************/
  46:lvgl/lvgl/src/extra/widgets/calendar/lv_calendar_header_arrow.c **** 
  47:lvgl/lvgl/src/extra/widgets/calendar/lv_calendar_header_arrow.c **** /**********************
  48:lvgl/lvgl/src/extra/widgets/calendar/lv_calendar_header_arrow.c ****  *   GLOBAL FUNCTIONS
  49:lvgl/lvgl/src/extra/widgets/calendar/lv_calendar_header_arrow.c ****  **********************/
  50:lvgl/lvgl/src/extra/widgets/calendar/lv_calendar_header_arrow.c **** 
  51:lvgl/lvgl/src/extra/widgets/calendar/lv_calendar_header_arrow.c **** lv_obj_t * lv_calendar_header_arrow_create(lv_obj_t * parent, lv_obj_t * calendar, lv_coord_t btn_s
  52:lvgl/lvgl/src/extra/widgets/calendar/lv_calendar_header_arrow.c **** {
  53:lvgl/lvgl/src/extra/widgets/calendar/lv_calendar_header_arrow.c ****     calendar_param = calendar;
  54:lvgl/lvgl/src/extra/widgets/calendar/lv_calendar_header_arrow.c ****     btn_size_param = btn_size;
  55:lvgl/lvgl/src/extra/widgets/calendar/lv_calendar_header_arrow.c ****     lv_obj_t * obj = lv_obj_class_create_obj(&lv_calendar_header_arrow_class, parent);
  56:lvgl/lvgl/src/extra/widgets/calendar/lv_calendar_header_arrow.c ****     lv_obj_class_init_obj(obj);
  57:lvgl/lvgl/src/extra/widgets/calendar/lv_calendar_header_arrow.c ****     return obj;
  58:lvgl/lvgl/src/extra/widgets/calendar/lv_calendar_header_arrow.c **** }
  59:lvgl/lvgl/src/extra/widgets/calendar/lv_calendar_header_arrow.c **** 
  60:lvgl/lvgl/src/extra/widgets/calendar/lv_calendar_header_arrow.c **** /**********************
  61:lvgl/lvgl/src/extra/widgets/calendar/lv_calendar_header_arrow.c ****  *  STATIC FUNCTIONS
  62:lvgl/lvgl/src/extra/widgets/calendar/lv_calendar_header_arrow.c ****  **********************/
  63:lvgl/lvgl/src/extra/widgets/calendar/lv_calendar_header_arrow.c **** 
  64:lvgl/lvgl/src/extra/widgets/calendar/lv_calendar_header_arrow.c **** static void my_constructor(const lv_obj_class_t * class_p, lv_obj_t * obj)
  65:lvgl/lvgl/src/extra/widgets/calendar/lv_calendar_header_arrow.c **** {
  66:lvgl/lvgl/src/extra/widgets/calendar/lv_calendar_header_arrow.c ****     LV_TRACE_OBJ_CREATE("begin");
  67:lvgl/lvgl/src/extra/widgets/calendar/lv_calendar_header_arrow.c **** 
  68:lvgl/lvgl/src/extra/widgets/calendar/lv_calendar_header_arrow.c ****     LV_UNUSED(class_p);
  69:lvgl/lvgl/src/extra/widgets/calendar/lv_calendar_header_arrow.c **** 
  70:lvgl/lvgl/src/extra/widgets/calendar/lv_calendar_header_arrow.c ****     /*Use the same paddings as the calendar_param*/
  71:lvgl/lvgl/src/extra/widgets/calendar/lv_calendar_header_arrow.c ****     lv_obj_set_style_pad_left(obj, lv_obj_get_style_pad_left(calendar_param, LV_PART_MAIN), 0);
  72:lvgl/lvgl/src/extra/widgets/calendar/lv_calendar_header_arrow.c ****     lv_obj_set_style_pad_right(obj, lv_obj_get_style_pad_right(calendar_param, LV_PART_MAIN), 0);
  73:lvgl/lvgl/src/extra/widgets/calendar/lv_calendar_header_arrow.c ****     lv_obj_set_style_pad_top(obj, lv_obj_get_style_pad_top(calendar_param, LV_PART_MAIN), 0);
  74:lvgl/lvgl/src/extra/widgets/calendar/lv_calendar_header_arrow.c ****     lv_obj_set_style_pad_bottom(obj, lv_obj_get_style_pad_bottom(calendar_param, LV_PART_MAIN), 0);
  75:lvgl/lvgl/src/extra/widgets/calendar/lv_calendar_header_arrow.c ****     lv_obj_set_style_pad_column(obj, lv_obj_get_style_pad_column(calendar_param, LV_PART_MAIN), 0);
  76:lvgl/lvgl/src/extra/widgets/calendar/lv_calendar_header_arrow.c ****     lv_obj_set_style_radius(obj, lv_obj_get_style_radius(calendar_param, LV_PART_MAIN), 0);
  77:lvgl/lvgl/src/extra/widgets/calendar/lv_calendar_header_arrow.c **** 
  78:lvgl/lvgl/src/extra/widgets/calendar/lv_calendar_header_arrow.c ****     const lv_calendar_date_t * cur_date = lv_calendar_get_showed_date(calendar_param);
  79:lvgl/lvgl/src/extra/widgets/calendar/lv_calendar_header_arrow.c **** 
  80:lvgl/lvgl/src/extra/widgets/calendar/lv_calendar_header_arrow.c ****     lv_obj_update_layout(calendar_param);
  81:lvgl/lvgl/src/extra/widgets/calendar/lv_calendar_header_arrow.c ****     lv_coord_t w = lv_obj_get_width(calendar_param);
  82:lvgl/lvgl/src/extra/widgets/calendar/lv_calendar_header_arrow.c ****     lv_obj_set_size(obj,  w, LV_SIZE_CONTENT);
ARM GAS  C:\Users\gx\AppData\Local\Temp\ccHZ8fHg.s 			page 3


  83:lvgl/lvgl/src/extra/widgets/calendar/lv_calendar_header_arrow.c ****     lv_obj_set_flex_flow(obj, LV_FLEX_FLOW_ROW);
  84:lvgl/lvgl/src/extra/widgets/calendar/lv_calendar_header_arrow.c ****     lv_obj_set_flex_align(obj, LV_FLEX_ALIGN_START, LV_FLEX_ALIGN_CENTER, LV_FLEX_ALIGN_START);
  85:lvgl/lvgl/src/extra/widgets/calendar/lv_calendar_header_arrow.c **** 
  86:lvgl/lvgl/src/extra/widgets/calendar/lv_calendar_header_arrow.c ****     lv_obj_t * mo_prev = lv_btn_create(obj);
  87:lvgl/lvgl/src/extra/widgets/calendar/lv_calendar_header_arrow.c ****     lv_obj_set_style_bg_img_src(mo_prev, LV_SYMBOL_LEFT, 0);
  88:lvgl/lvgl/src/extra/widgets/calendar/lv_calendar_header_arrow.c ****     lv_obj_set_size(mo_prev, btn_size_param, btn_size_param);
  89:lvgl/lvgl/src/extra/widgets/calendar/lv_calendar_header_arrow.c ****     lv_obj_add_event_cb(mo_prev, month_event_cb, LV_EVENT_CLICKED, calendar_param);
  90:lvgl/lvgl/src/extra/widgets/calendar/lv_calendar_header_arrow.c ****     lv_obj_clear_flag(mo_prev, LV_OBJ_FLAG_CLICK_FOCUSABLE);
  91:lvgl/lvgl/src/extra/widgets/calendar/lv_calendar_header_arrow.c **** 
  92:lvgl/lvgl/src/extra/widgets/calendar/lv_calendar_header_arrow.c ****     lv_obj_t * label = lv_label_create(obj);
  93:lvgl/lvgl/src/extra/widgets/calendar/lv_calendar_header_arrow.c ****     lv_label_set_long_mode(label, LV_LABEL_LONG_SCROLL_CIRCULAR);
  94:lvgl/lvgl/src/extra/widgets/calendar/lv_calendar_header_arrow.c ****     lv_obj_set_style_text_align(label, LV_TEXT_ALIGN_CENTER, 0);
  95:lvgl/lvgl/src/extra/widgets/calendar/lv_calendar_header_arrow.c ****     lv_obj_set_flex_grow(label, 1);
  96:lvgl/lvgl/src/extra/widgets/calendar/lv_calendar_header_arrow.c ****     lv_label_set_text_fmt(label, "%d %s", cur_date->year, month_names_def[cur_date->month - 1]);
  97:lvgl/lvgl/src/extra/widgets/calendar/lv_calendar_header_arrow.c **** 
  98:lvgl/lvgl/src/extra/widgets/calendar/lv_calendar_header_arrow.c ****     lv_obj_t * mo_next = lv_btn_create(obj);
  99:lvgl/lvgl/src/extra/widgets/calendar/lv_calendar_header_arrow.c ****     lv_obj_set_style_bg_img_src(mo_next, LV_SYMBOL_RIGHT, 0);
 100:lvgl/lvgl/src/extra/widgets/calendar/lv_calendar_header_arrow.c ****     lv_obj_set_size(mo_next, btn_size_param, btn_size_param);
 101:lvgl/lvgl/src/extra/widgets/calendar/lv_calendar_header_arrow.c ****     lv_obj_add_event_cb(mo_next, month_event_cb, LV_EVENT_CLICKED, calendar_param);
 102:lvgl/lvgl/src/extra/widgets/calendar/lv_calendar_header_arrow.c ****     lv_obj_clear_flag(mo_next, LV_OBJ_FLAG_CLICK_FOCUSABLE);
 103:lvgl/lvgl/src/extra/widgets/calendar/lv_calendar_header_arrow.c **** 
 104:lvgl/lvgl/src/extra/widgets/calendar/lv_calendar_header_arrow.c ****     lv_obj_align_to(obj, calendar_param, LV_ALIGN_OUT_TOP_MID, 0, 0);
 105:lvgl/lvgl/src/extra/widgets/calendar/lv_calendar_header_arrow.c **** }
 106:lvgl/lvgl/src/extra/widgets/calendar/lv_calendar_header_arrow.c **** 
 107:lvgl/lvgl/src/extra/widgets/calendar/lv_calendar_header_arrow.c **** static void month_event_cb(lv_event_t * e)
 108:lvgl/lvgl/src/extra/widgets/calendar/lv_calendar_header_arrow.c **** {
  33              		.loc 1 108 1 view -0
  34              		.cfi_startproc
  35              		@ args = 0, pretend = 0, frame = 8
  36              		@ frame_needed = 0, uses_anonymous_args = 0
  37              		.loc 1 108 1 is_stmt 0 view .LVU1
  38 0000 F0B5     		push	{r4, r5, r6, r7, lr}
  39              	.LCFI0:
  40              		.cfi_def_cfa_offset 20
  41              		.cfi_offset 4, -20
  42              		.cfi_offset 5, -16
  43              		.cfi_offset 6, -12
  44              		.cfi_offset 7, -8
  45              		.cfi_offset 14, -4
  46 0002 83B0     		sub	sp, sp, #12
  47              	.LCFI1:
  48              		.cfi_def_cfa_offset 32
  49 0004 0646     		mov	r6, r0
 109:lvgl/lvgl/src/extra/widgets/calendar/lv_calendar_header_arrow.c ****     lv_obj_t * btn = lv_event_get_target(e);
  50              		.loc 1 109 5 is_stmt 1 view .LVU2
  51              		.loc 1 109 22 is_stmt 0 view .LVU3
  52 0006 FFF7FEFF 		bl	lv_event_get_target
  53              	.LVL1:
  54              		.loc 1 109 22 view .LVU4
  55 000a 0446     		mov	r4, r0
  56              	.LVL2:
 110:lvgl/lvgl/src/extra/widgets/calendar/lv_calendar_header_arrow.c **** 
 111:lvgl/lvgl/src/extra/widgets/calendar/lv_calendar_header_arrow.c ****     lv_obj_t * header = lv_obj_get_parent(btn);
  57              		.loc 1 111 5 is_stmt 1 view .LVU5
  58              		.loc 1 111 25 is_stmt 0 view .LVU6
  59 000c FFF7FEFF 		bl	lv_obj_get_parent
  60              	.LVL3:
ARM GAS  C:\Users\gx\AppData\Local\Temp\ccHZ8fHg.s 			page 4


  61              		.loc 1 111 25 view .LVU7
  62 0010 0546     		mov	r5, r0
  63              	.LVL4:
 112:lvgl/lvgl/src/extra/widgets/calendar/lv_calendar_header_arrow.c ****     lv_obj_t * calendar = lv_event_get_user_data(e);
  64              		.loc 1 112 5 is_stmt 1 view .LVU8
  65              		.loc 1 112 27 is_stmt 0 view .LVU9
  66 0012 3046     		mov	r0, r6
  67              	.LVL5:
  68              		.loc 1 112 27 view .LVU10
  69 0014 FFF7FEFF 		bl	lv_event_get_user_data
  70              	.LVL6:
  71 0018 0646     		mov	r6, r0
  72              	.LVL7:
 113:lvgl/lvgl/src/extra/widgets/calendar/lv_calendar_header_arrow.c **** 
 114:lvgl/lvgl/src/extra/widgets/calendar/lv_calendar_header_arrow.c ****     const lv_calendar_date_t * d;
  73              		.loc 1 114 5 is_stmt 1 view .LVU11
 115:lvgl/lvgl/src/extra/widgets/calendar/lv_calendar_header_arrow.c ****     d = lv_calendar_get_showed_date(calendar);
  74              		.loc 1 115 5 view .LVU12
  75              		.loc 1 115 9 is_stmt 0 view .LVU13
  76 001a FFF7FEFF 		bl	lv_calendar_get_showed_date
  77              	.LVL8:
 116:lvgl/lvgl/src/extra/widgets/calendar/lv_calendar_header_arrow.c ****     lv_calendar_date_t newd = *d;
  78              		.loc 1 116 5 is_stmt 1 view .LVU14
  79              		.loc 1 116 24 is_stmt 0 view .LVU15
  80 001e 0068     		ldr	r0, [r0]	@ unaligned
  81              	.LVL9:
  82              		.loc 1 116 24 view .LVU16
  83 0020 0190     		str	r0, [sp, #4]
 117:lvgl/lvgl/src/extra/widgets/calendar/lv_calendar_header_arrow.c **** 
 118:lvgl/lvgl/src/extra/widgets/calendar/lv_calendar_header_arrow.c ****     /*The last child is the right button*/
 119:lvgl/lvgl/src/extra/widgets/calendar/lv_calendar_header_arrow.c ****     if(lv_obj_get_child(header, 0) == btn) {
  84              		.loc 1 119 5 is_stmt 1 view .LVU17
  85              		.loc 1 119 8 is_stmt 0 view .LVU18
  86 0022 0021     		movs	r1, #0
  87 0024 2846     		mov	r0, r5
  88 0026 FFF7FEFF 		bl	lv_obj_get_child
  89              	.LVL10:
  90              		.loc 1 119 7 view .LVU19
  91 002a 8442     		cmp	r4, r0
  92 002c 1DD0     		beq	.L7
 120:lvgl/lvgl/src/extra/widgets/calendar/lv_calendar_header_arrow.c ****         if(newd.month == 1) {
 121:lvgl/lvgl/src/extra/widgets/calendar/lv_calendar_header_arrow.c ****             newd.month = 12;
 122:lvgl/lvgl/src/extra/widgets/calendar/lv_calendar_header_arrow.c ****             newd.year --;
 123:lvgl/lvgl/src/extra/widgets/calendar/lv_calendar_header_arrow.c ****         } else {
 124:lvgl/lvgl/src/extra/widgets/calendar/lv_calendar_header_arrow.c ****             newd.month --;
 125:lvgl/lvgl/src/extra/widgets/calendar/lv_calendar_header_arrow.c ****         }
 126:lvgl/lvgl/src/extra/widgets/calendar/lv_calendar_header_arrow.c ****     } else {
 127:lvgl/lvgl/src/extra/widgets/calendar/lv_calendar_header_arrow.c ****         if(newd.month == 12) {
  93              		.loc 1 127 9 is_stmt 1 view .LVU20
  94              		.loc 1 127 16 is_stmt 0 view .LVU21
  95 002e 9DF90630 		ldrsb	r3, [sp, #6]
  96              		.loc 1 127 11 view .LVU22
  97 0032 0C2B     		cmp	r3, #12
  98 0034 2AD0     		beq	.L8
 128:lvgl/lvgl/src/extra/widgets/calendar/lv_calendar_header_arrow.c ****             newd.month = 1;
 129:lvgl/lvgl/src/extra/widgets/calendar/lv_calendar_header_arrow.c ****             newd.year ++;
 130:lvgl/lvgl/src/extra/widgets/calendar/lv_calendar_header_arrow.c ****         } else {
ARM GAS  C:\Users\gx\AppData\Local\Temp\ccHZ8fHg.s 			page 5


 131:lvgl/lvgl/src/extra/widgets/calendar/lv_calendar_header_arrow.c ****             newd.month ++;
  99              		.loc 1 131 13 is_stmt 1 view .LVU23
 100              		.loc 1 131 24 is_stmt 0 view .LVU24
 101 0036 0133     		adds	r3, r3, #1
 102 0038 8DF80630 		strb	r3, [sp, #6]
 103              	.L4:
 132:lvgl/lvgl/src/extra/widgets/calendar/lv_calendar_header_arrow.c ****         }
 133:lvgl/lvgl/src/extra/widgets/calendar/lv_calendar_header_arrow.c ****     }
 134:lvgl/lvgl/src/extra/widgets/calendar/lv_calendar_header_arrow.c **** 
 135:lvgl/lvgl/src/extra/widgets/calendar/lv_calendar_header_arrow.c ****     lv_calendar_set_showed_date(calendar, newd.year, newd.month);
 104              		.loc 1 135 5 is_stmt 1 view .LVU25
 105              		.loc 1 135 47 is_stmt 0 view .LVU26
 106 003c BDF80470 		ldrh	r7, [sp, #4]
 107              		.loc 1 135 58 view .LVU27
 108 0040 9DF90640 		ldrsb	r4, [sp, #6]
 109              	.LVL11:
 110              		.loc 1 135 5 view .LVU28
 111 0044 2246     		mov	r2, r4
 112 0046 3946     		mov	r1, r7
 113 0048 3046     		mov	r0, r6
 114 004a FFF7FEFF 		bl	lv_calendar_set_showed_date
 115              	.LVL12:
 136:lvgl/lvgl/src/extra/widgets/calendar/lv_calendar_header_arrow.c **** 
 137:lvgl/lvgl/src/extra/widgets/calendar/lv_calendar_header_arrow.c ****     lv_obj_t * label = lv_obj_get_child(header, 1);
 116              		.loc 1 137 5 is_stmt 1 view .LVU29
 117              		.loc 1 137 24 is_stmt 0 view .LVU30
 118 004e 0121     		movs	r1, #1
 119 0050 2846     		mov	r0, r5
 120 0052 FFF7FEFF 		bl	lv_obj_get_child
 121              	.LVL13:
 138:lvgl/lvgl/src/extra/widgets/calendar/lv_calendar_header_arrow.c ****     lv_label_set_text_fmt(label, "%d %s", newd.year, month_names_def[newd.month - 1]);
 122              		.loc 1 138 5 is_stmt 1 view .LVU31
 123              		.loc 1 138 81 is_stmt 0 view .LVU32
 124 0056 013C     		subs	r4, r4, #1
 125              		.loc 1 138 5 view .LVU33
 126 0058 114B     		ldr	r3, .L10
 127 005a 53F82430 		ldr	r3, [r3, r4, lsl #2]
 128 005e 3A46     		mov	r2, r7
 129 0060 1049     		ldr	r1, .L10+4
 130 0062 FFF7FEFF 		bl	lv_label_set_text_fmt
 131              	.LVL14:
 139:lvgl/lvgl/src/extra/widgets/calendar/lv_calendar_header_arrow.c **** }
 132              		.loc 1 139 1 view .LVU34
 133 0066 03B0     		add	sp, sp, #12
 134              	.LCFI2:
 135              		.cfi_remember_state
 136              		.cfi_def_cfa_offset 20
 137              		@ sp needed
 138 0068 F0BD     		pop	{r4, r5, r6, r7, pc}
 139              	.LVL15:
 140              	.L7:
 141              	.LCFI3:
 142              		.cfi_restore_state
 120:lvgl/lvgl/src/extra/widgets/calendar/lv_calendar_header_arrow.c ****             newd.month = 12;
 143              		.loc 1 120 9 is_stmt 1 view .LVU35
 120:lvgl/lvgl/src/extra/widgets/calendar/lv_calendar_header_arrow.c ****             newd.month = 12;
 144              		.loc 1 120 16 is_stmt 0 view .LVU36
ARM GAS  C:\Users\gx\AppData\Local\Temp\ccHZ8fHg.s 			page 6


 145 006a 9DF90630 		ldrsb	r3, [sp, #6]
 120:lvgl/lvgl/src/extra/widgets/calendar/lv_calendar_header_arrow.c ****             newd.month = 12;
 146              		.loc 1 120 11 view .LVU37
 147 006e 012B     		cmp	r3, #1
 148 0070 03D0     		beq	.L9
 124:lvgl/lvgl/src/extra/widgets/calendar/lv_calendar_header_arrow.c ****         }
 149              		.loc 1 124 13 is_stmt 1 view .LVU38
 124:lvgl/lvgl/src/extra/widgets/calendar/lv_calendar_header_arrow.c ****         }
 150              		.loc 1 124 24 is_stmt 0 view .LVU39
 151 0072 013B     		subs	r3, r3, #1
 152 0074 8DF80630 		strb	r3, [sp, #6]
 153 0078 E0E7     		b	.L4
 154              	.L9:
 121:lvgl/lvgl/src/extra/widgets/calendar/lv_calendar_header_arrow.c ****             newd.year --;
 155              		.loc 1 121 13 is_stmt 1 view .LVU40
 121:lvgl/lvgl/src/extra/widgets/calendar/lv_calendar_header_arrow.c ****             newd.year --;
 156              		.loc 1 121 24 is_stmt 0 view .LVU41
 157 007a 0C23     		movs	r3, #12
 158 007c 8DF80630 		strb	r3, [sp, #6]
 122:lvgl/lvgl/src/extra/widgets/calendar/lv_calendar_header_arrow.c ****         } else {
 159              		.loc 1 122 13 is_stmt 1 view .LVU42
 122:lvgl/lvgl/src/extra/widgets/calendar/lv_calendar_header_arrow.c ****         } else {
 160              		.loc 1 122 17 is_stmt 0 view .LVU43
 161 0080 BDF80430 		ldrh	r3, [sp, #4]
 122:lvgl/lvgl/src/extra/widgets/calendar/lv_calendar_header_arrow.c ****         } else {
 162              		.loc 1 122 23 view .LVU44
 163 0084 013B     		subs	r3, r3, #1
 164 0086 ADF80430 		strh	r3, [sp, #4]	@ movhi
 165 008a D7E7     		b	.L4
 166              	.L8:
 128:lvgl/lvgl/src/extra/widgets/calendar/lv_calendar_header_arrow.c ****             newd.year ++;
 167              		.loc 1 128 13 is_stmt 1 view .LVU45
 128:lvgl/lvgl/src/extra/widgets/calendar/lv_calendar_header_arrow.c ****             newd.year ++;
 168              		.loc 1 128 24 is_stmt 0 view .LVU46
 169 008c 0123     		movs	r3, #1
 170 008e 8DF80630 		strb	r3, [sp, #6]
 129:lvgl/lvgl/src/extra/widgets/calendar/lv_calendar_header_arrow.c ****         } else {
 171              		.loc 1 129 13 is_stmt 1 view .LVU47
 129:lvgl/lvgl/src/extra/widgets/calendar/lv_calendar_header_arrow.c ****         } else {
 172              		.loc 1 129 17 is_stmt 0 view .LVU48
 173 0092 BDF80430 		ldrh	r3, [sp, #4]
 129:lvgl/lvgl/src/extra/widgets/calendar/lv_calendar_header_arrow.c ****         } else {
 174              		.loc 1 129 23 view .LVU49
 175 0096 0133     		adds	r3, r3, #1
 176 0098 ADF80430 		strh	r3, [sp, #4]	@ movhi
 177 009c CEE7     		b	.L4
 178              	.L11:
 179 009e 00BF     		.align	2
 180              	.L10:
 181 00a0 00000000 		.word	.LANCHOR0
 182 00a4 00000000 		.word	.LC0
 183              		.cfi_endproc
 184              	.LFE159:
 186              		.section	.rodata.my_constructor.str1.4,"aMS",%progbits,1
 187              		.align	2
 188              	.LC1:
 189 0000 EF819300 		.ascii	"\357\201\223\000"
ARM GAS  C:\Users\gx\AppData\Local\Temp\ccHZ8fHg.s 			page 7


 190              		.align	2
 191              	.LC2:
 192 0004 EF819400 		.ascii	"\357\201\224\000"
 193              		.section	.text.my_constructor,"ax",%progbits
 194              		.align	1
 195              		.syntax unified
 196              		.thumb
 197              		.thumb_func
 198              		.fpu fpv4-sp-d16
 200              	my_constructor:
 201              	.LVL16:
 202              	.LFB158:
  65:lvgl/lvgl/src/extra/widgets/calendar/lv_calendar_header_arrow.c ****     LV_TRACE_OBJ_CREATE("begin");
 203              		.loc 1 65 1 is_stmt 1 view -0
 204              		.cfi_startproc
 205              		@ args = 0, pretend = 0, frame = 0
 206              		@ frame_needed = 0, uses_anonymous_args = 0
  65:lvgl/lvgl/src/extra/widgets/calendar/lv_calendar_header_arrow.c ****     LV_TRACE_OBJ_CREATE("begin");
 207              		.loc 1 65 1 is_stmt 0 view .LVU51
 208 0000 2DE9F043 		push	{r4, r5, r6, r7, r8, r9, lr}
 209              	.LCFI4:
 210              		.cfi_def_cfa_offset 28
 211              		.cfi_offset 4, -28
 212              		.cfi_offset 5, -24
 213              		.cfi_offset 6, -20
 214              		.cfi_offset 7, -16
 215              		.cfi_offset 8, -12
 216              		.cfi_offset 9, -8
 217              		.cfi_offset 14, -4
 218 0004 83B0     		sub	sp, sp, #12
 219              	.LCFI5:
 220              		.cfi_def_cfa_offset 40
 221 0006 0C46     		mov	r4, r1
  66:lvgl/lvgl/src/extra/widgets/calendar/lv_calendar_header_arrow.c **** 
 222              		.loc 1 66 5 is_stmt 1 view .LVU52
  66:lvgl/lvgl/src/extra/widgets/calendar/lv_calendar_header_arrow.c **** 
 223              		.loc 1 66 5 view .LVU53
  66:lvgl/lvgl/src/extra/widgets/calendar/lv_calendar_header_arrow.c **** 
 224              		.loc 1 66 5 view .LVU54
  66:lvgl/lvgl/src/extra/widgets/calendar/lv_calendar_header_arrow.c **** 
 225              		.loc 1 66 33 view .LVU55
  68:lvgl/lvgl/src/extra/widgets/calendar/lv_calendar_header_arrow.c **** 
 226              		.loc 1 68 5 view .LVU56
  71:lvgl/lvgl/src/extra/widgets/calendar/lv_calendar_header_arrow.c ****     lv_obj_set_style_pad_right(obj, lv_obj_get_style_pad_right(calendar_param, LV_PART_MAIN), 0);
 227              		.loc 1 71 5 view .LVU57
 228 0008 5A4D     		ldr	r5, .L14
 229              	.LVL17:
 230              	.LBB14:
 231              	.LBI14:
 232              		.file 2 "d:\\practise\\f407_disc\\lvgl\\lvgl\\src\\core\\lv_obj_style_gen.h"
   1:d:\practise\f407_disc\lvgl\lvgl\src\core\lv_obj_style_gen.h **** static inline lv_coord_t lv_obj_get_style_width(const struct _lv_obj_t * obj, uint32_t part)
   2:d:\practise\f407_disc\lvgl\lvgl\src\core\lv_obj_style_gen.h **** {
   3:d:\practise\f407_disc\lvgl\lvgl\src\core\lv_obj_style_gen.h ****     lv_style_value_t v = lv_obj_get_style_prop(obj, part, LV_STYLE_WIDTH);
   4:d:\practise\f407_disc\lvgl\lvgl\src\core\lv_obj_style_gen.h ****     return (lv_coord_t)v.num;
   5:d:\practise\f407_disc\lvgl\lvgl\src\core\lv_obj_style_gen.h **** }
   6:d:\practise\f407_disc\lvgl\lvgl\src\core\lv_obj_style_gen.h **** 
   7:d:\practise\f407_disc\lvgl\lvgl\src\core\lv_obj_style_gen.h **** static inline lv_coord_t lv_obj_get_style_min_width(const struct _lv_obj_t * obj, uint32_t part)
ARM GAS  C:\Users\gx\AppData\Local\Temp\ccHZ8fHg.s 			page 8


   8:d:\practise\f407_disc\lvgl\lvgl\src\core\lv_obj_style_gen.h **** {
   9:d:\practise\f407_disc\lvgl\lvgl\src\core\lv_obj_style_gen.h ****     lv_style_value_t v = lv_obj_get_style_prop(obj, part, LV_STYLE_MIN_WIDTH);
  10:d:\practise\f407_disc\lvgl\lvgl\src\core\lv_obj_style_gen.h ****     return (lv_coord_t)v.num;
  11:d:\practise\f407_disc\lvgl\lvgl\src\core\lv_obj_style_gen.h **** }
  12:d:\practise\f407_disc\lvgl\lvgl\src\core\lv_obj_style_gen.h **** 
  13:d:\practise\f407_disc\lvgl\lvgl\src\core\lv_obj_style_gen.h **** static inline lv_coord_t lv_obj_get_style_max_width(const struct _lv_obj_t * obj, uint32_t part)
  14:d:\practise\f407_disc\lvgl\lvgl\src\core\lv_obj_style_gen.h **** {
  15:d:\practise\f407_disc\lvgl\lvgl\src\core\lv_obj_style_gen.h ****     lv_style_value_t v = lv_obj_get_style_prop(obj, part, LV_STYLE_MAX_WIDTH);
  16:d:\practise\f407_disc\lvgl\lvgl\src\core\lv_obj_style_gen.h ****     return (lv_coord_t)v.num;
  17:d:\practise\f407_disc\lvgl\lvgl\src\core\lv_obj_style_gen.h **** }
  18:d:\practise\f407_disc\lvgl\lvgl\src\core\lv_obj_style_gen.h **** 
  19:d:\practise\f407_disc\lvgl\lvgl\src\core\lv_obj_style_gen.h **** static inline lv_coord_t lv_obj_get_style_height(const struct _lv_obj_t * obj, uint32_t part)
  20:d:\practise\f407_disc\lvgl\lvgl\src\core\lv_obj_style_gen.h **** {
  21:d:\practise\f407_disc\lvgl\lvgl\src\core\lv_obj_style_gen.h ****     lv_style_value_t v = lv_obj_get_style_prop(obj, part, LV_STYLE_HEIGHT);
  22:d:\practise\f407_disc\lvgl\lvgl\src\core\lv_obj_style_gen.h ****     return (lv_coord_t)v.num;
  23:d:\practise\f407_disc\lvgl\lvgl\src\core\lv_obj_style_gen.h **** }
  24:d:\practise\f407_disc\lvgl\lvgl\src\core\lv_obj_style_gen.h **** 
  25:d:\practise\f407_disc\lvgl\lvgl\src\core\lv_obj_style_gen.h **** static inline lv_coord_t lv_obj_get_style_min_height(const struct _lv_obj_t * obj, uint32_t part)
  26:d:\practise\f407_disc\lvgl\lvgl\src\core\lv_obj_style_gen.h **** {
  27:d:\practise\f407_disc\lvgl\lvgl\src\core\lv_obj_style_gen.h ****     lv_style_value_t v = lv_obj_get_style_prop(obj, part, LV_STYLE_MIN_HEIGHT);
  28:d:\practise\f407_disc\lvgl\lvgl\src\core\lv_obj_style_gen.h ****     return (lv_coord_t)v.num;
  29:d:\practise\f407_disc\lvgl\lvgl\src\core\lv_obj_style_gen.h **** }
  30:d:\practise\f407_disc\lvgl\lvgl\src\core\lv_obj_style_gen.h **** 
  31:d:\practise\f407_disc\lvgl\lvgl\src\core\lv_obj_style_gen.h **** static inline lv_coord_t lv_obj_get_style_max_height(const struct _lv_obj_t * obj, uint32_t part)
  32:d:\practise\f407_disc\lvgl\lvgl\src\core\lv_obj_style_gen.h **** {
  33:d:\practise\f407_disc\lvgl\lvgl\src\core\lv_obj_style_gen.h ****     lv_style_value_t v = lv_obj_get_style_prop(obj, part, LV_STYLE_MAX_HEIGHT);
  34:d:\practise\f407_disc\lvgl\lvgl\src\core\lv_obj_style_gen.h ****     return (lv_coord_t)v.num;
  35:d:\practise\f407_disc\lvgl\lvgl\src\core\lv_obj_style_gen.h **** }
  36:d:\practise\f407_disc\lvgl\lvgl\src\core\lv_obj_style_gen.h **** 
  37:d:\practise\f407_disc\lvgl\lvgl\src\core\lv_obj_style_gen.h **** static inline lv_coord_t lv_obj_get_style_x(const struct _lv_obj_t * obj, uint32_t part)
  38:d:\practise\f407_disc\lvgl\lvgl\src\core\lv_obj_style_gen.h **** {
  39:d:\practise\f407_disc\lvgl\lvgl\src\core\lv_obj_style_gen.h ****     lv_style_value_t v = lv_obj_get_style_prop(obj, part, LV_STYLE_X);
  40:d:\practise\f407_disc\lvgl\lvgl\src\core\lv_obj_style_gen.h ****     return (lv_coord_t)v.num;
  41:d:\practise\f407_disc\lvgl\lvgl\src\core\lv_obj_style_gen.h **** }
  42:d:\practise\f407_disc\lvgl\lvgl\src\core\lv_obj_style_gen.h **** 
  43:d:\practise\f407_disc\lvgl\lvgl\src\core\lv_obj_style_gen.h **** static inline lv_coord_t lv_obj_get_style_y(const struct _lv_obj_t * obj, uint32_t part)
  44:d:\practise\f407_disc\lvgl\lvgl\src\core\lv_obj_style_gen.h **** {
  45:d:\practise\f407_disc\lvgl\lvgl\src\core\lv_obj_style_gen.h ****     lv_style_value_t v = lv_obj_get_style_prop(obj, part, LV_STYLE_Y);
  46:d:\practise\f407_disc\lvgl\lvgl\src\core\lv_obj_style_gen.h ****     return (lv_coord_t)v.num;
  47:d:\practise\f407_disc\lvgl\lvgl\src\core\lv_obj_style_gen.h **** }
  48:d:\practise\f407_disc\lvgl\lvgl\src\core\lv_obj_style_gen.h **** 
  49:d:\practise\f407_disc\lvgl\lvgl\src\core\lv_obj_style_gen.h **** static inline lv_align_t lv_obj_get_style_align(const struct _lv_obj_t * obj, uint32_t part)
  50:d:\practise\f407_disc\lvgl\lvgl\src\core\lv_obj_style_gen.h **** {
  51:d:\practise\f407_disc\lvgl\lvgl\src\core\lv_obj_style_gen.h ****     lv_style_value_t v = lv_obj_get_style_prop(obj, part, LV_STYLE_ALIGN);
  52:d:\practise\f407_disc\lvgl\lvgl\src\core\lv_obj_style_gen.h ****     return (lv_align_t)v.num;
  53:d:\practise\f407_disc\lvgl\lvgl\src\core\lv_obj_style_gen.h **** }
  54:d:\practise\f407_disc\lvgl\lvgl\src\core\lv_obj_style_gen.h **** 
  55:d:\practise\f407_disc\lvgl\lvgl\src\core\lv_obj_style_gen.h **** static inline lv_coord_t lv_obj_get_style_transform_width(const struct _lv_obj_t * obj, uint32_t pa
  56:d:\practise\f407_disc\lvgl\lvgl\src\core\lv_obj_style_gen.h **** {
  57:d:\practise\f407_disc\lvgl\lvgl\src\core\lv_obj_style_gen.h ****     lv_style_value_t v = lv_obj_get_style_prop(obj, part, LV_STYLE_TRANSFORM_WIDTH);
  58:d:\practise\f407_disc\lvgl\lvgl\src\core\lv_obj_style_gen.h ****     return (lv_coord_t)v.num;
  59:d:\practise\f407_disc\lvgl\lvgl\src\core\lv_obj_style_gen.h **** }
  60:d:\practise\f407_disc\lvgl\lvgl\src\core\lv_obj_style_gen.h **** 
  61:d:\practise\f407_disc\lvgl\lvgl\src\core\lv_obj_style_gen.h **** static inline lv_coord_t lv_obj_get_style_transform_height(const struct _lv_obj_t * obj, uint32_t p
  62:d:\practise\f407_disc\lvgl\lvgl\src\core\lv_obj_style_gen.h **** {
  63:d:\practise\f407_disc\lvgl\lvgl\src\core\lv_obj_style_gen.h ****     lv_style_value_t v = lv_obj_get_style_prop(obj, part, LV_STYLE_TRANSFORM_HEIGHT);
  64:d:\practise\f407_disc\lvgl\lvgl\src\core\lv_obj_style_gen.h ****     return (lv_coord_t)v.num;
ARM GAS  C:\Users\gx\AppData\Local\Temp\ccHZ8fHg.s 			page 9


  65:d:\practise\f407_disc\lvgl\lvgl\src\core\lv_obj_style_gen.h **** }
  66:d:\practise\f407_disc\lvgl\lvgl\src\core\lv_obj_style_gen.h **** 
  67:d:\practise\f407_disc\lvgl\lvgl\src\core\lv_obj_style_gen.h **** static inline lv_coord_t lv_obj_get_style_translate_x(const struct _lv_obj_t * obj, uint32_t part)
  68:d:\practise\f407_disc\lvgl\lvgl\src\core\lv_obj_style_gen.h **** {
  69:d:\practise\f407_disc\lvgl\lvgl\src\core\lv_obj_style_gen.h ****     lv_style_value_t v = lv_obj_get_style_prop(obj, part, LV_STYLE_TRANSLATE_X);
  70:d:\practise\f407_disc\lvgl\lvgl\src\core\lv_obj_style_gen.h ****     return (lv_coord_t)v.num;
  71:d:\practise\f407_disc\lvgl\lvgl\src\core\lv_obj_style_gen.h **** }
  72:d:\practise\f407_disc\lvgl\lvgl\src\core\lv_obj_style_gen.h **** 
  73:d:\practise\f407_disc\lvgl\lvgl\src\core\lv_obj_style_gen.h **** static inline lv_coord_t lv_obj_get_style_translate_y(const struct _lv_obj_t * obj, uint32_t part)
  74:d:\practise\f407_disc\lvgl\lvgl\src\core\lv_obj_style_gen.h **** {
  75:d:\practise\f407_disc\lvgl\lvgl\src\core\lv_obj_style_gen.h ****     lv_style_value_t v = lv_obj_get_style_prop(obj, part, LV_STYLE_TRANSLATE_Y);
  76:d:\practise\f407_disc\lvgl\lvgl\src\core\lv_obj_style_gen.h ****     return (lv_coord_t)v.num;
  77:d:\practise\f407_disc\lvgl\lvgl\src\core\lv_obj_style_gen.h **** }
  78:d:\practise\f407_disc\lvgl\lvgl\src\core\lv_obj_style_gen.h **** 
  79:d:\practise\f407_disc\lvgl\lvgl\src\core\lv_obj_style_gen.h **** static inline lv_coord_t lv_obj_get_style_transform_zoom(const struct _lv_obj_t * obj, uint32_t par
  80:d:\practise\f407_disc\lvgl\lvgl\src\core\lv_obj_style_gen.h **** {
  81:d:\practise\f407_disc\lvgl\lvgl\src\core\lv_obj_style_gen.h ****     lv_style_value_t v = lv_obj_get_style_prop(obj, part, LV_STYLE_TRANSFORM_ZOOM);
  82:d:\practise\f407_disc\lvgl\lvgl\src\core\lv_obj_style_gen.h ****     return (lv_coord_t)v.num;
  83:d:\practise\f407_disc\lvgl\lvgl\src\core\lv_obj_style_gen.h **** }
  84:d:\practise\f407_disc\lvgl\lvgl\src\core\lv_obj_style_gen.h **** 
  85:d:\practise\f407_disc\lvgl\lvgl\src\core\lv_obj_style_gen.h **** static inline lv_coord_t lv_obj_get_style_transform_angle(const struct _lv_obj_t * obj, uint32_t pa
  86:d:\practise\f407_disc\lvgl\lvgl\src\core\lv_obj_style_gen.h **** {
  87:d:\practise\f407_disc\lvgl\lvgl\src\core\lv_obj_style_gen.h ****     lv_style_value_t v = lv_obj_get_style_prop(obj, part, LV_STYLE_TRANSFORM_ANGLE);
  88:d:\practise\f407_disc\lvgl\lvgl\src\core\lv_obj_style_gen.h ****     return (lv_coord_t)v.num;
  89:d:\practise\f407_disc\lvgl\lvgl\src\core\lv_obj_style_gen.h **** }
  90:d:\practise\f407_disc\lvgl\lvgl\src\core\lv_obj_style_gen.h **** 
  91:d:\practise\f407_disc\lvgl\lvgl\src\core\lv_obj_style_gen.h **** static inline lv_coord_t lv_obj_get_style_pad_top(const struct _lv_obj_t * obj, uint32_t part)
  92:d:\practise\f407_disc\lvgl\lvgl\src\core\lv_obj_style_gen.h **** {
  93:d:\practise\f407_disc\lvgl\lvgl\src\core\lv_obj_style_gen.h ****     lv_style_value_t v = lv_obj_get_style_prop(obj, part, LV_STYLE_PAD_TOP);
  94:d:\practise\f407_disc\lvgl\lvgl\src\core\lv_obj_style_gen.h ****     return (lv_coord_t)v.num;
  95:d:\practise\f407_disc\lvgl\lvgl\src\core\lv_obj_style_gen.h **** }
  96:d:\practise\f407_disc\lvgl\lvgl\src\core\lv_obj_style_gen.h **** 
  97:d:\practise\f407_disc\lvgl\lvgl\src\core\lv_obj_style_gen.h **** static inline lv_coord_t lv_obj_get_style_pad_bottom(const struct _lv_obj_t * obj, uint32_t part)
  98:d:\practise\f407_disc\lvgl\lvgl\src\core\lv_obj_style_gen.h **** {
  99:d:\practise\f407_disc\lvgl\lvgl\src\core\lv_obj_style_gen.h ****     lv_style_value_t v = lv_obj_get_style_prop(obj, part, LV_STYLE_PAD_BOTTOM);
 100:d:\practise\f407_disc\lvgl\lvgl\src\core\lv_obj_style_gen.h ****     return (lv_coord_t)v.num;
 101:d:\practise\f407_disc\lvgl\lvgl\src\core\lv_obj_style_gen.h **** }
 102:d:\practise\f407_disc\lvgl\lvgl\src\core\lv_obj_style_gen.h **** 
 103:d:\practise\f407_disc\lvgl\lvgl\src\core\lv_obj_style_gen.h **** static inline lv_coord_t lv_obj_get_style_pad_left(const struct _lv_obj_t * obj, uint32_t part)
 233              		.loc 2 103 26 view .LVU58
 234              	.LBB15:
 104:d:\practise\f407_disc\lvgl\lvgl\src\core\lv_obj_style_gen.h **** {
 105:d:\practise\f407_disc\lvgl\lvgl\src\core\lv_obj_style_gen.h ****     lv_style_value_t v = lv_obj_get_style_prop(obj, part, LV_STYLE_PAD_LEFT);
 235              		.loc 2 105 5 view .LVU59
 236              		.loc 2 105 26 is_stmt 0 view .LVU60
 237 000a 41F21202 		movw	r2, #4114
 238 000e 0021     		movs	r1, #0
 239              	.LVL18:
 240              		.loc 2 105 26 view .LVU61
 241 0010 2868     		ldr	r0, [r5]
 242              	.LVL19:
 243              		.loc 2 105 26 view .LVU62
 244 0012 FFF7FEFF 		bl	lv_obj_get_style_prop
 245              	.LVL20:
 106:d:\practise\f407_disc\lvgl\lvgl\src\core\lv_obj_style_gen.h ****     return (lv_coord_t)v.num;
 246              		.loc 2 106 5 is_stmt 1 view .LVU63
 247              		.loc 2 106 5 is_stmt 0 view .LVU64
ARM GAS  C:\Users\gx\AppData\Local\Temp\ccHZ8fHg.s 			page 10


 248              	.LBE15:
 249              	.LBE14:
  71:lvgl/lvgl/src/extra/widgets/calendar/lv_calendar_header_arrow.c ****     lv_obj_set_style_pad_right(obj, lv_obj_get_style_pad_right(calendar_param, LV_PART_MAIN), 0);
 250              		.loc 1 71 5 view .LVU65
 251 0016 0022     		movs	r2, #0
 252 0018 01B2     		sxth	r1, r0
 253 001a 2046     		mov	r0, r4
 254 001c FFF7FEFF 		bl	lv_obj_set_style_pad_left
 255              	.LVL21:
  72:lvgl/lvgl/src/extra/widgets/calendar/lv_calendar_header_arrow.c ****     lv_obj_set_style_pad_top(obj, lv_obj_get_style_pad_top(calendar_param, LV_PART_MAIN), 0);
 256              		.loc 1 72 5 is_stmt 1 view .LVU66
 257              	.LBB16:
 258              	.LBI16:
 107:d:\practise\f407_disc\lvgl\lvgl\src\core\lv_obj_style_gen.h **** }
 108:d:\practise\f407_disc\lvgl\lvgl\src\core\lv_obj_style_gen.h **** 
 109:d:\practise\f407_disc\lvgl\lvgl\src\core\lv_obj_style_gen.h **** static inline lv_coord_t lv_obj_get_style_pad_right(const struct _lv_obj_t * obj, uint32_t part)
 259              		.loc 2 109 26 view .LVU67
 260              	.LBB17:
 110:d:\practise\f407_disc\lvgl\lvgl\src\core\lv_obj_style_gen.h **** {
 111:d:\practise\f407_disc\lvgl\lvgl\src\core\lv_obj_style_gen.h ****     lv_style_value_t v = lv_obj_get_style_prop(obj, part, LV_STYLE_PAD_RIGHT);
 261              		.loc 2 111 5 view .LVU68
 262              		.loc 2 111 26 is_stmt 0 view .LVU69
 263 0020 41F21302 		movw	r2, #4115
 264 0024 0021     		movs	r1, #0
 265 0026 2868     		ldr	r0, [r5]
 266 0028 FFF7FEFF 		bl	lv_obj_get_style_prop
 267              	.LVL22:
 112:d:\practise\f407_disc\lvgl\lvgl\src\core\lv_obj_style_gen.h ****     return (lv_coord_t)v.num;
 268              		.loc 2 112 5 is_stmt 1 view .LVU70
 269              		.loc 2 112 5 is_stmt 0 view .LVU71
 270              	.LBE17:
 271              	.LBE16:
  72:lvgl/lvgl/src/extra/widgets/calendar/lv_calendar_header_arrow.c ****     lv_obj_set_style_pad_top(obj, lv_obj_get_style_pad_top(calendar_param, LV_PART_MAIN), 0);
 272              		.loc 1 72 5 view .LVU72
 273 002c 0022     		movs	r2, #0
 274 002e 01B2     		sxth	r1, r0
 275 0030 2046     		mov	r0, r4
 276 0032 FFF7FEFF 		bl	lv_obj_set_style_pad_right
 277              	.LVL23:
  73:lvgl/lvgl/src/extra/widgets/calendar/lv_calendar_header_arrow.c ****     lv_obj_set_style_pad_bottom(obj, lv_obj_get_style_pad_bottom(calendar_param, LV_PART_MAIN), 0);
 278              		.loc 1 73 5 is_stmt 1 view .LVU73
 279              	.LBB18:
 280              	.LBI18:
  91:d:\practise\f407_disc\lvgl\lvgl\src\core\lv_obj_style_gen.h **** {
 281              		.loc 2 91 26 view .LVU74
 282              	.LBB19:
  93:d:\practise\f407_disc\lvgl\lvgl\src\core\lv_obj_style_gen.h ****     return (lv_coord_t)v.num;
 283              		.loc 2 93 5 view .LVU75
  93:d:\practise\f407_disc\lvgl\lvgl\src\core\lv_obj_style_gen.h ****     return (lv_coord_t)v.num;
 284              		.loc 2 93 26 is_stmt 0 view .LVU76
 285 0036 41F21002 		movw	r2, #4112
 286 003a 0021     		movs	r1, #0
 287 003c 2868     		ldr	r0, [r5]
 288 003e FFF7FEFF 		bl	lv_obj_get_style_prop
 289              	.LVL24:
  94:d:\practise\f407_disc\lvgl\lvgl\src\core\lv_obj_style_gen.h **** }
 290              		.loc 2 94 5 is_stmt 1 view .LVU77
ARM GAS  C:\Users\gx\AppData\Local\Temp\ccHZ8fHg.s 			page 11


  94:d:\practise\f407_disc\lvgl\lvgl\src\core\lv_obj_style_gen.h **** }
 291              		.loc 2 94 5 is_stmt 0 view .LVU78
 292              	.LBE19:
 293              	.LBE18:
  73:lvgl/lvgl/src/extra/widgets/calendar/lv_calendar_header_arrow.c ****     lv_obj_set_style_pad_bottom(obj, lv_obj_get_style_pad_bottom(calendar_param, LV_PART_MAIN), 0);
 294              		.loc 1 73 5 view .LVU79
 295 0042 0022     		movs	r2, #0
 296 0044 01B2     		sxth	r1, r0
 297 0046 2046     		mov	r0, r4
 298 0048 FFF7FEFF 		bl	lv_obj_set_style_pad_top
 299              	.LVL25:
  74:lvgl/lvgl/src/extra/widgets/calendar/lv_calendar_header_arrow.c ****     lv_obj_set_style_pad_column(obj, lv_obj_get_style_pad_column(calendar_param, LV_PART_MAIN), 0);
 300              		.loc 1 74 5 is_stmt 1 view .LVU80
 301              	.LBB20:
 302              	.LBI20:
  97:d:\practise\f407_disc\lvgl\lvgl\src\core\lv_obj_style_gen.h **** {
 303              		.loc 2 97 26 view .LVU81
 304              	.LBB21:
  99:d:\practise\f407_disc\lvgl\lvgl\src\core\lv_obj_style_gen.h ****     return (lv_coord_t)v.num;
 305              		.loc 2 99 5 view .LVU82
  99:d:\practise\f407_disc\lvgl\lvgl\src\core\lv_obj_style_gen.h ****     return (lv_coord_t)v.num;
 306              		.loc 2 99 26 is_stmt 0 view .LVU83
 307 004c 41F21102 		movw	r2, #4113
 308 0050 0021     		movs	r1, #0
 309 0052 2868     		ldr	r0, [r5]
 310 0054 FFF7FEFF 		bl	lv_obj_get_style_prop
 311              	.LVL26:
 100:d:\practise\f407_disc\lvgl\lvgl\src\core\lv_obj_style_gen.h **** }
 312              		.loc 2 100 5 is_stmt 1 view .LVU84
 100:d:\practise\f407_disc\lvgl\lvgl\src\core\lv_obj_style_gen.h **** }
 313              		.loc 2 100 5 is_stmt 0 view .LVU85
 314              	.LBE21:
 315              	.LBE20:
  74:lvgl/lvgl/src/extra/widgets/calendar/lv_calendar_header_arrow.c ****     lv_obj_set_style_pad_column(obj, lv_obj_get_style_pad_column(calendar_param, LV_PART_MAIN), 0);
 316              		.loc 1 74 5 view .LVU86
 317 0058 0022     		movs	r2, #0
 318 005a 01B2     		sxth	r1, r0
 319 005c 2046     		mov	r0, r4
 320 005e FFF7FEFF 		bl	lv_obj_set_style_pad_bottom
 321              	.LVL27:
  75:lvgl/lvgl/src/extra/widgets/calendar/lv_calendar_header_arrow.c ****     lv_obj_set_style_radius(obj, lv_obj_get_style_radius(calendar_param, LV_PART_MAIN), 0);
 322              		.loc 1 75 5 is_stmt 1 view .LVU87
 323              	.LBB22:
 324              	.LBI22:
 113:d:\practise\f407_disc\lvgl\lvgl\src\core\lv_obj_style_gen.h **** }
 114:d:\practise\f407_disc\lvgl\lvgl\src\core\lv_obj_style_gen.h **** 
 115:d:\practise\f407_disc\lvgl\lvgl\src\core\lv_obj_style_gen.h **** static inline lv_coord_t lv_obj_get_style_pad_row(const struct _lv_obj_t * obj, uint32_t part)
 116:d:\practise\f407_disc\lvgl\lvgl\src\core\lv_obj_style_gen.h **** {
 117:d:\practise\f407_disc\lvgl\lvgl\src\core\lv_obj_style_gen.h ****     lv_style_value_t v = lv_obj_get_style_prop(obj, part, LV_STYLE_PAD_ROW);
 118:d:\practise\f407_disc\lvgl\lvgl\src\core\lv_obj_style_gen.h ****     return (lv_coord_t)v.num;
 119:d:\practise\f407_disc\lvgl\lvgl\src\core\lv_obj_style_gen.h **** }
 120:d:\practise\f407_disc\lvgl\lvgl\src\core\lv_obj_style_gen.h **** 
 121:d:\practise\f407_disc\lvgl\lvgl\src\core\lv_obj_style_gen.h **** static inline lv_coord_t lv_obj_get_style_pad_column(const struct _lv_obj_t * obj, uint32_t part)
 325              		.loc 2 121 26 view .LVU88
 326              	.LBB23:
 122:d:\practise\f407_disc\lvgl\lvgl\src\core\lv_obj_style_gen.h **** {
 123:d:\practise\f407_disc\lvgl\lvgl\src\core\lv_obj_style_gen.h ****     lv_style_value_t v = lv_obj_get_style_prop(obj, part, LV_STYLE_PAD_COLUMN);
ARM GAS  C:\Users\gx\AppData\Local\Temp\ccHZ8fHg.s 			page 12


 327              		.loc 2 123 5 view .LVU89
 328              		.loc 2 123 26 is_stmt 0 view .LVU90
 329 0062 41F21502 		movw	r2, #4117
 330 0066 0021     		movs	r1, #0
 331 0068 2868     		ldr	r0, [r5]
 332 006a FFF7FEFF 		bl	lv_obj_get_style_prop
 333              	.LVL28:
 124:d:\practise\f407_disc\lvgl\lvgl\src\core\lv_obj_style_gen.h ****     return (lv_coord_t)v.num;
 334              		.loc 2 124 5 is_stmt 1 view .LVU91
 335              		.loc 2 124 5 is_stmt 0 view .LVU92
 336              	.LBE23:
 337              	.LBE22:
  75:lvgl/lvgl/src/extra/widgets/calendar/lv_calendar_header_arrow.c ****     lv_obj_set_style_radius(obj, lv_obj_get_style_radius(calendar_param, LV_PART_MAIN), 0);
 338              		.loc 1 75 5 view .LVU93
 339 006e 0022     		movs	r2, #0
 340 0070 01B2     		sxth	r1, r0
 341 0072 2046     		mov	r0, r4
 342 0074 FFF7FEFF 		bl	lv_obj_set_style_pad_column
 343              	.LVL29:
  76:lvgl/lvgl/src/extra/widgets/calendar/lv_calendar_header_arrow.c **** 
 344              		.loc 1 76 5 is_stmt 1 view .LVU94
 345              	.LBB24:
 346              	.LBI24:
 125:d:\practise\f407_disc\lvgl\lvgl\src\core\lv_obj_style_gen.h **** }
 126:d:\practise\f407_disc\lvgl\lvgl\src\core\lv_obj_style_gen.h **** 
 127:d:\practise\f407_disc\lvgl\lvgl\src\core\lv_obj_style_gen.h **** static inline lv_coord_t lv_obj_get_style_radius(const struct _lv_obj_t * obj, uint32_t part)
 347              		.loc 2 127 26 view .LVU95
 348              	.LBB25:
 128:d:\practise\f407_disc\lvgl\lvgl\src\core\lv_obj_style_gen.h **** {
 129:d:\practise\f407_disc\lvgl\lvgl\src\core\lv_obj_style_gen.h ****     lv_style_value_t v = lv_obj_get_style_prop(obj, part, LV_STYLE_RADIUS);
 349              		.loc 2 129 5 view .LVU96
 350              		.loc 2 129 26 is_stmt 0 view .LVU97
 351 0078 6022     		movs	r2, #96
 352 007a 0021     		movs	r1, #0
 353 007c 2868     		ldr	r0, [r5]
 354 007e FFF7FEFF 		bl	lv_obj_get_style_prop
 355              	.LVL30:
 130:d:\practise\f407_disc\lvgl\lvgl\src\core\lv_obj_style_gen.h ****     return (lv_coord_t)v.num;
 356              		.loc 2 130 5 is_stmt 1 view .LVU98
 357              		.loc 2 130 5 is_stmt 0 view .LVU99
 358              	.LBE25:
 359              	.LBE24:
  76:lvgl/lvgl/src/extra/widgets/calendar/lv_calendar_header_arrow.c **** 
 360              		.loc 1 76 5 view .LVU100
 361 0082 0022     		movs	r2, #0
 362 0084 01B2     		sxth	r1, r0
 363 0086 2046     		mov	r0, r4
 364 0088 FFF7FEFF 		bl	lv_obj_set_style_radius
 365              	.LVL31:
  78:lvgl/lvgl/src/extra/widgets/calendar/lv_calendar_header_arrow.c **** 
 366              		.loc 1 78 5 is_stmt 1 view .LVU101
  78:lvgl/lvgl/src/extra/widgets/calendar/lv_calendar_header_arrow.c **** 
 367              		.loc 1 78 43 is_stmt 0 view .LVU102
 368 008c 2868     		ldr	r0, [r5]
 369 008e FFF7FEFF 		bl	lv_calendar_get_showed_date
 370              	.LVL32:
 371 0092 8146     		mov	r9, r0
ARM GAS  C:\Users\gx\AppData\Local\Temp\ccHZ8fHg.s 			page 13


 372              	.LVL33:
  80:lvgl/lvgl/src/extra/widgets/calendar/lv_calendar_header_arrow.c ****     lv_coord_t w = lv_obj_get_width(calendar_param);
 373              		.loc 1 80 5 is_stmt 1 view .LVU103
 374 0094 2868     		ldr	r0, [r5]
 375              	.LVL34:
  80:lvgl/lvgl/src/extra/widgets/calendar/lv_calendar_header_arrow.c ****     lv_coord_t w = lv_obj_get_width(calendar_param);
 376              		.loc 1 80 5 is_stmt 0 view .LVU104
 377 0096 FFF7FEFF 		bl	lv_obj_update_layout
 378              	.LVL35:
  81:lvgl/lvgl/src/extra/widgets/calendar/lv_calendar_header_arrow.c ****     lv_obj_set_size(obj,  w, LV_SIZE_CONTENT);
 379              		.loc 1 81 5 is_stmt 1 view .LVU105
  81:lvgl/lvgl/src/extra/widgets/calendar/lv_calendar_header_arrow.c ****     lv_obj_set_size(obj,  w, LV_SIZE_CONTENT);
 380              		.loc 1 81 20 is_stmt 0 view .LVU106
 381 009a 2868     		ldr	r0, [r5]
 382 009c FFF7FEFF 		bl	lv_obj_get_width
 383              	.LVL36:
 384 00a0 0146     		mov	r1, r0
 385              	.LVL37:
  82:lvgl/lvgl/src/extra/widgets/calendar/lv_calendar_header_arrow.c ****     lv_obj_set_flex_flow(obj, LV_FLEX_FLOW_ROW);
 386              		.loc 1 82 5 is_stmt 1 view .LVU107
 387 00a2 42F2D172 		movw	r2, #10193
 388 00a6 2046     		mov	r0, r4
 389 00a8 FFF7FEFF 		bl	lv_obj_set_size
 390              	.LVL38:
  83:lvgl/lvgl/src/extra/widgets/calendar/lv_calendar_header_arrow.c ****     lv_obj_set_flex_align(obj, LV_FLEX_ALIGN_START, LV_FLEX_ALIGN_CENTER, LV_FLEX_ALIGN_START);
 391              		.loc 1 83 5 view .LVU108
 392 00ac 0021     		movs	r1, #0
 393 00ae 2046     		mov	r0, r4
 394 00b0 FFF7FEFF 		bl	lv_obj_set_flex_flow
 395              	.LVL39:
  84:lvgl/lvgl/src/extra/widgets/calendar/lv_calendar_header_arrow.c **** 
 396              		.loc 1 84 5 view .LVU109
 397 00b4 0023     		movs	r3, #0
 398 00b6 0222     		movs	r2, #2
 399 00b8 1946     		mov	r1, r3
 400 00ba 2046     		mov	r0, r4
 401 00bc FFF7FEFF 		bl	lv_obj_set_flex_align
 402              	.LVL40:
  86:lvgl/lvgl/src/extra/widgets/calendar/lv_calendar_header_arrow.c ****     lv_obj_set_style_bg_img_src(mo_prev, LV_SYMBOL_LEFT, 0);
 403              		.loc 1 86 5 view .LVU110
  86:lvgl/lvgl/src/extra/widgets/calendar/lv_calendar_header_arrow.c ****     lv_obj_set_style_bg_img_src(mo_prev, LV_SYMBOL_LEFT, 0);
 404              		.loc 1 86 26 is_stmt 0 view .LVU111
 405 00c0 2046     		mov	r0, r4
 406 00c2 FFF7FEFF 		bl	lv_btn_create
 407              	.LVL41:
 408 00c6 0646     		mov	r6, r0
 409              	.LVL42:
  87:lvgl/lvgl/src/extra/widgets/calendar/lv_calendar_header_arrow.c ****     lv_obj_set_size(mo_prev, btn_size_param, btn_size_param);
 410              		.loc 1 87 5 is_stmt 1 view .LVU112
 411 00c8 0022     		movs	r2, #0
 412 00ca 2B49     		ldr	r1, .L14+4
 413 00cc FFF7FEFF 		bl	lv_obj_set_style_bg_img_src
 414              	.LVL43:
  88:lvgl/lvgl/src/extra/widgets/calendar/lv_calendar_header_arrow.c ****     lv_obj_add_event_cb(mo_prev, month_event_cb, LV_EVENT_CLICKED, calendar_param);
 415              		.loc 1 88 5 view .LVU113
 416 00d0 DFF8B880 		ldr	r8, .L14+24
 417 00d4 B8F90010 		ldrsh	r1, [r8]
ARM GAS  C:\Users\gx\AppData\Local\Temp\ccHZ8fHg.s 			page 14


 418 00d8 0A46     		mov	r2, r1
 419 00da 3046     		mov	r0, r6
 420 00dc FFF7FEFF 		bl	lv_obj_set_size
 421              	.LVL44:
  89:lvgl/lvgl/src/extra/widgets/calendar/lv_calendar_header_arrow.c ****     lv_obj_clear_flag(mo_prev, LV_OBJ_FLAG_CLICK_FOCUSABLE);
 422              		.loc 1 89 5 view .LVU114
 423 00e0 264F     		ldr	r7, .L14+8
 424 00e2 2B68     		ldr	r3, [r5]
 425 00e4 0722     		movs	r2, #7
 426 00e6 3946     		mov	r1, r7
 427 00e8 3046     		mov	r0, r6
 428 00ea FFF7FEFF 		bl	lv_obj_add_event_cb
 429              	.LVL45:
  90:lvgl/lvgl/src/extra/widgets/calendar/lv_calendar_header_arrow.c **** 
 430              		.loc 1 90 5 view .LVU115
 431 00ee 0421     		movs	r1, #4
 432 00f0 3046     		mov	r0, r6
 433 00f2 FFF7FEFF 		bl	lv_obj_clear_flag
 434              	.LVL46:
  92:lvgl/lvgl/src/extra/widgets/calendar/lv_calendar_header_arrow.c ****     lv_label_set_long_mode(label, LV_LABEL_LONG_SCROLL_CIRCULAR);
 435              		.loc 1 92 5 view .LVU116
  92:lvgl/lvgl/src/extra/widgets/calendar/lv_calendar_header_arrow.c ****     lv_label_set_long_mode(label, LV_LABEL_LONG_SCROLL_CIRCULAR);
 436              		.loc 1 92 24 is_stmt 0 view .LVU117
 437 00f6 2046     		mov	r0, r4
 438 00f8 FFF7FEFF 		bl	lv_label_create
 439              	.LVL47:
 440 00fc 0646     		mov	r6, r0
 441              	.LVL48:
  93:lvgl/lvgl/src/extra/widgets/calendar/lv_calendar_header_arrow.c ****     lv_obj_set_style_text_align(label, LV_TEXT_ALIGN_CENTER, 0);
 442              		.loc 1 93 5 is_stmt 1 view .LVU118
 443 00fe 0321     		movs	r1, #3
 444 0100 FFF7FEFF 		bl	lv_label_set_long_mode
 445              	.LVL49:
  94:lvgl/lvgl/src/extra/widgets/calendar/lv_calendar_header_arrow.c ****     lv_obj_set_flex_grow(label, 1);
 446              		.loc 1 94 5 view .LVU119
 447 0104 0022     		movs	r2, #0
 448 0106 0221     		movs	r1, #2
 449 0108 3046     		mov	r0, r6
 450 010a FFF7FEFF 		bl	lv_obj_set_style_text_align
 451              	.LVL50:
  95:lvgl/lvgl/src/extra/widgets/calendar/lv_calendar_header_arrow.c ****     lv_label_set_text_fmt(label, "%d %s", cur_date->year, month_names_def[cur_date->month - 1]);
 452              		.loc 1 95 5 view .LVU120
 453 010e 0121     		movs	r1, #1
 454 0110 3046     		mov	r0, r6
 455 0112 FFF7FEFF 		bl	lv_obj_set_flex_grow
 456              	.LVL51:
  96:lvgl/lvgl/src/extra/widgets/calendar/lv_calendar_header_arrow.c **** 
 457              		.loc 1 96 5 view .LVU121
  96:lvgl/lvgl/src/extra/widgets/calendar/lv_calendar_header_arrow.c **** 
 458              		.loc 1 96 83 is_stmt 0 view .LVU122
 459 0116 99F90230 		ldrsb	r3, [r9, #2]
  96:lvgl/lvgl/src/extra/widgets/calendar/lv_calendar_header_arrow.c **** 
 460              		.loc 1 96 91 view .LVU123
 461 011a 013B     		subs	r3, r3, #1
  96:lvgl/lvgl/src/extra/widgets/calendar/lv_calendar_header_arrow.c **** 
 462              		.loc 1 96 5 view .LVU124
 463 011c 184A     		ldr	r2, .L14+12
ARM GAS  C:\Users\gx\AppData\Local\Temp\ccHZ8fHg.s 			page 15


 464 011e 52F82330 		ldr	r3, [r2, r3, lsl #2]
 465 0122 B9F80020 		ldrh	r2, [r9]
 466 0126 1749     		ldr	r1, .L14+16
 467 0128 3046     		mov	r0, r6
 468 012a FFF7FEFF 		bl	lv_label_set_text_fmt
 469              	.LVL52:
  98:lvgl/lvgl/src/extra/widgets/calendar/lv_calendar_header_arrow.c ****     lv_obj_set_style_bg_img_src(mo_next, LV_SYMBOL_RIGHT, 0);
 470              		.loc 1 98 5 is_stmt 1 view .LVU125
  98:lvgl/lvgl/src/extra/widgets/calendar/lv_calendar_header_arrow.c ****     lv_obj_set_style_bg_img_src(mo_next, LV_SYMBOL_RIGHT, 0);
 471              		.loc 1 98 26 is_stmt 0 view .LVU126
 472 012e 2046     		mov	r0, r4
 473 0130 FFF7FEFF 		bl	lv_btn_create
 474              	.LVL53:
 475 0134 0646     		mov	r6, r0
 476              	.LVL54:
  99:lvgl/lvgl/src/extra/widgets/calendar/lv_calendar_header_arrow.c ****     lv_obj_set_size(mo_next, btn_size_param, btn_size_param);
 477              		.loc 1 99 5 is_stmt 1 view .LVU127
 478 0136 0022     		movs	r2, #0
 479 0138 1349     		ldr	r1, .L14+20
 480 013a FFF7FEFF 		bl	lv_obj_set_style_bg_img_src
 481              	.LVL55:
 100:lvgl/lvgl/src/extra/widgets/calendar/lv_calendar_header_arrow.c ****     lv_obj_add_event_cb(mo_next, month_event_cb, LV_EVENT_CLICKED, calendar_param);
 482              		.loc 1 100 5 view .LVU128
 483 013e B8F90010 		ldrsh	r1, [r8]
 484 0142 0A46     		mov	r2, r1
 485 0144 3046     		mov	r0, r6
 486 0146 FFF7FEFF 		bl	lv_obj_set_size
 487              	.LVL56:
 101:lvgl/lvgl/src/extra/widgets/calendar/lv_calendar_header_arrow.c ****     lv_obj_clear_flag(mo_next, LV_OBJ_FLAG_CLICK_FOCUSABLE);
 488              		.loc 1 101 5 view .LVU129
 489 014a 2B68     		ldr	r3, [r5]
 490 014c 0722     		movs	r2, #7
 491 014e 3946     		mov	r1, r7
 492 0150 3046     		mov	r0, r6
 493 0152 FFF7FEFF 		bl	lv_obj_add_event_cb
 494              	.LVL57:
 102:lvgl/lvgl/src/extra/widgets/calendar/lv_calendar_header_arrow.c **** 
 495              		.loc 1 102 5 view .LVU130
 496 0156 0421     		movs	r1, #4
 497 0158 3046     		mov	r0, r6
 498 015a FFF7FEFF 		bl	lv_obj_clear_flag
 499              	.LVL58:
 104:lvgl/lvgl/src/extra/widgets/calendar/lv_calendar_header_arrow.c **** }
 500              		.loc 1 104 5 view .LVU131
 501 015e 0023     		movs	r3, #0
 502 0160 0093     		str	r3, [sp]
 503 0162 0B22     		movs	r2, #11
 504 0164 2968     		ldr	r1, [r5]
 505 0166 2046     		mov	r0, r4
 506 0168 FFF7FEFF 		bl	lv_obj_align_to
 507              	.LVL59:
 105:lvgl/lvgl/src/extra/widgets/calendar/lv_calendar_header_arrow.c **** 
 508              		.loc 1 105 1 is_stmt 0 view .LVU132
 509 016c 03B0     		add	sp, sp, #12
 510              	.LCFI6:
 511              		.cfi_def_cfa_offset 28
 512              		@ sp needed
ARM GAS  C:\Users\gx\AppData\Local\Temp\ccHZ8fHg.s 			page 16


 513 016e BDE8F083 		pop	{r4, r5, r6, r7, r8, r9, pc}
 514              	.LVL60:
 515              	.L15:
 105:lvgl/lvgl/src/extra/widgets/calendar/lv_calendar_header_arrow.c **** 
 516              		.loc 1 105 1 view .LVU133
 517 0172 00BF     		.align	2
 518              	.L14:
 519 0174 00000000 		.word	.LANCHOR1
 520 0178 00000000 		.word	.LC1
 521 017c 00000000 		.word	month_event_cb
 522 0180 00000000 		.word	.LANCHOR0
 523 0184 00000000 		.word	.LC0
 524 0188 04000000 		.word	.LC2
 525 018c 00000000 		.word	.LANCHOR2
 526              		.cfi_endproc
 527              	.LFE158:
 529              		.section	.text.lv_calendar_header_arrow_create,"ax",%progbits
 530              		.align	1
 531              		.global	lv_calendar_header_arrow_create
 532              		.syntax unified
 533              		.thumb
 534              		.thumb_func
 535              		.fpu fpv4-sp-d16
 537              	lv_calendar_header_arrow_create:
 538              	.LVL61:
 539              	.LFB157:
  52:lvgl/lvgl/src/extra/widgets/calendar/lv_calendar_header_arrow.c ****     calendar_param = calendar;
 540              		.loc 1 52 1 is_stmt 1 view -0
 541              		.cfi_startproc
 542              		@ args = 0, pretend = 0, frame = 0
 543              		@ frame_needed = 0, uses_anonymous_args = 0
  52:lvgl/lvgl/src/extra/widgets/calendar/lv_calendar_header_arrow.c ****     calendar_param = calendar;
 544              		.loc 1 52 1 is_stmt 0 view .LVU135
 545 0000 10B5     		push	{r4, lr}
 546              	.LCFI7:
 547              		.cfi_def_cfa_offset 8
 548              		.cfi_offset 4, -8
 549              		.cfi_offset 14, -4
  53:lvgl/lvgl/src/extra/widgets/calendar/lv_calendar_header_arrow.c ****     btn_size_param = btn_size;
 550              		.loc 1 53 5 is_stmt 1 view .LVU136
  53:lvgl/lvgl/src/extra/widgets/calendar/lv_calendar_header_arrow.c ****     btn_size_param = btn_size;
 551              		.loc 1 53 20 is_stmt 0 view .LVU137
 552 0002 064B     		ldr	r3, .L18
 553 0004 1960     		str	r1, [r3]
  54:lvgl/lvgl/src/extra/widgets/calendar/lv_calendar_header_arrow.c ****     lv_obj_t * obj = lv_obj_class_create_obj(&lv_calendar_header_arrow_class, parent);
 554              		.loc 1 54 5 is_stmt 1 view .LVU138
  54:lvgl/lvgl/src/extra/widgets/calendar/lv_calendar_header_arrow.c ****     lv_obj_t * obj = lv_obj_class_create_obj(&lv_calendar_header_arrow_class, parent);
 555              		.loc 1 54 20 is_stmt 0 view .LVU139
 556 0006 064B     		ldr	r3, .L18+4
 557 0008 1A80     		strh	r2, [r3]	@ movhi
  55:lvgl/lvgl/src/extra/widgets/calendar/lv_calendar_header_arrow.c ****     lv_obj_class_init_obj(obj);
 558              		.loc 1 55 5 is_stmt 1 view .LVU140
  55:lvgl/lvgl/src/extra/widgets/calendar/lv_calendar_header_arrow.c ****     lv_obj_class_init_obj(obj);
 559              		.loc 1 55 22 is_stmt 0 view .LVU141
 560 000a 0146     		mov	r1, r0
 561              	.LVL62:
  55:lvgl/lvgl/src/extra/widgets/calendar/lv_calendar_header_arrow.c ****     lv_obj_class_init_obj(obj);
ARM GAS  C:\Users\gx\AppData\Local\Temp\ccHZ8fHg.s 			page 17


 562              		.loc 1 55 22 view .LVU142
 563 000c 0548     		ldr	r0, .L18+8
 564              	.LVL63:
  55:lvgl/lvgl/src/extra/widgets/calendar/lv_calendar_header_arrow.c ****     lv_obj_class_init_obj(obj);
 565              		.loc 1 55 22 view .LVU143
 566 000e FFF7FEFF 		bl	lv_obj_class_create_obj
 567              	.LVL64:
  55:lvgl/lvgl/src/extra/widgets/calendar/lv_calendar_header_arrow.c ****     lv_obj_class_init_obj(obj);
 568              		.loc 1 55 22 view .LVU144
 569 0012 0446     		mov	r4, r0
 570              	.LVL65:
  56:lvgl/lvgl/src/extra/widgets/calendar/lv_calendar_header_arrow.c ****     return obj;
 571              		.loc 1 56 5 is_stmt 1 view .LVU145
 572 0014 FFF7FEFF 		bl	lv_obj_class_init_obj
 573              	.LVL66:
  57:lvgl/lvgl/src/extra/widgets/calendar/lv_calendar_header_arrow.c **** }
 574              		.loc 1 57 5 view .LVU146
  58:lvgl/lvgl/src/extra/widgets/calendar/lv_calendar_header_arrow.c **** 
 575              		.loc 1 58 1 is_stmt 0 view .LVU147
 576 0018 2046     		mov	r0, r4
 577 001a 10BD     		pop	{r4, pc}
 578              	.LVL67:
 579              	.L19:
  58:lvgl/lvgl/src/extra/widgets/calendar/lv_calendar_header_arrow.c **** 
 580              		.loc 1 58 1 view .LVU148
 581              		.align	2
 582              	.L18:
 583 001c 00000000 		.word	.LANCHOR1
 584 0020 00000000 		.word	.LANCHOR2
 585 0024 00000000 		.word	.LANCHOR3
 586              		.cfi_endproc
 587              	.LFE157:
 589              		.section	.rodata.str1.4,"aMS",%progbits,1
 590              		.align	2
 591              	.LC3:
 592 0000 4A616E75 		.ascii	"January\000"
 592      61727900 
 593              		.align	2
 594              	.LC4:
 595 0008 46656272 		.ascii	"February\000"
 595      75617279 
 595      00
 596 0011 000000   		.align	2
 597              	.LC5:
 598 0014 4D617263 		.ascii	"March\000"
 598      6800
 599 001a 0000     		.align	2
 600              	.LC6:
 601 001c 41707269 		.ascii	"April\000"
 601      6C00
 602 0022 0000     		.align	2
 603              	.LC7:
 604 0024 4D617900 		.ascii	"May\000"
 605              		.align	2
 606              	.LC8:
 607 0028 4A756E65 		.ascii	"June\000"
 607      00
ARM GAS  C:\Users\gx\AppData\Local\Temp\ccHZ8fHg.s 			page 18


 608 002d 000000   		.align	2
 609              	.LC9:
 610 0030 4A756C79 		.ascii	"July\000"
 610      00
 611 0035 000000   		.align	2
 612              	.LC10:
 613 0038 41756775 		.ascii	"August\000"
 613      737400
 614 003f 00       		.align	2
 615              	.LC11:
 616 0040 53657074 		.ascii	"September\000"
 616      656D6265 
 616      7200
 617 004a 0000     		.align	2
 618              	.LC12:
 619 004c 4F63746F 		.ascii	"October\000"
 619      62657200 
 620              		.align	2
 621              	.LC13:
 622 0054 4E6F7665 		.ascii	"November\000"
 622      6D626572 
 622      00
 623 005d 000000   		.align	2
 624              	.LC14:
 625 0060 44656365 		.ascii	"December\000"
 625      6D626572 
 625      00
 626              		.global	lv_calendar_header_arrow_class
 627              		.section	.bss.btn_size_param,"aw",%nobits
 628              		.align	1
 629              		.set	.LANCHOR2,. + 0
 632              	btn_size_param:
 633 0000 0000     		.space	2
 634              		.section	.bss.calendar_param,"aw",%nobits
 635              		.align	2
 636              		.set	.LANCHOR1,. + 0
 639              	calendar_param:
 640 0000 00000000 		.space	4
 641              		.section	.rodata.lv_calendar_header_arrow_class,"a"
 642              		.align	2
 643              		.set	.LANCHOR3,. + 0
 646              	lv_calendar_header_arrow_class:
 647 0000 00000000 		.word	lv_obj_class
 648 0004 00000000 		.word	my_constructor
 649 0008 00000000 		.space	20
 649      00000000 
 649      00000000 
 649      00000000 
 649      00000000 
 650              		.section	.rodata.month_names_def,"a"
 651              		.align	2
 652              		.set	.LANCHOR0,. + 0
 655              	month_names_def:
 656 0000 00000000 		.word	.LC3
 657 0004 08000000 		.word	.LC4
 658 0008 14000000 		.word	.LC5
 659 000c 1C000000 		.word	.LC6
ARM GAS  C:\Users\gx\AppData\Local\Temp\ccHZ8fHg.s 			page 19


 660 0010 24000000 		.word	.LC7
 661 0014 28000000 		.word	.LC8
 662 0018 30000000 		.word	.LC9
 663 001c 38000000 		.word	.LC10
 664 0020 40000000 		.word	.LC11
 665 0024 4C000000 		.word	.LC12
 666 0028 54000000 		.word	.LC13
 667 002c 60000000 		.word	.LC14
 668              		.text
 669              	.Letext0:
 670              		.file 3 "c:\\program files (x86)\\gnu arm embedded toolchain\\9 2020-q2-update\\arm-none-eabi\\inc
 671              		.file 4 "c:\\program files (x86)\\gnu arm embedded toolchain\\9 2020-q2-update\\arm-none-eabi\\inc
 672              		.file 5 "c:\\program files (x86)\\gnu arm embedded toolchain\\9 2020-q2-update\\lib\\gcc\\arm-none
 673              		.file 6 "c:\\program files (x86)\\gnu arm embedded toolchain\\9 2020-q2-update\\arm-none-eabi\\inc
 674              		.file 7 "c:\\program files (x86)\\gnu arm embedded toolchain\\9 2020-q2-update\\arm-none-eabi\\inc
 675              		.file 8 "c:\\program files (x86)\\gnu arm embedded toolchain\\9 2020-q2-update\\arm-none-eabi\\inc
 676              		.file 9 "d:\\practise\\f407_disc\\lvgl\\lvgl\\src\\misc\\lv_area.h"
 677              		.file 10 "d:\\practise\\f407_disc\\lvgl\\lvgl\\src\\font\\lv_font.h"
 678              		.file 11 "d:\\practise\\f407_disc\\lvgl\\lvgl\\src\\misc\\lv_color.h"
 679              		.file 12 "d:\\practise\\f407_disc\\lvgl\\lvgl\\src\\misc\\lv_txt.h"
 680              		.file 13 "d:\\practise\\f407_disc\\lvgl\\lvgl\\src\\misc\\lv_style.h"
 681              		.file 14 "d:\\practise\\f407_disc\\lvgl\\lvgl\\src\\misc\\lv_ll.h"
 682              		.file 15 "d:\\practise\\f407_disc\\lvgl\\lvgl\\src\\core\\lv_obj.h"
 683              		.file 16 "d:\\practise\\f407_disc\\lvgl\\lvgl\\src\\core\\lv_group.h"
 684              		.file 17 "d:\\practise\\f407_disc\\lvgl\\lvgl\\src\\core\\lv_obj_scroll.h"
 685              		.file 18 "d:\\practise\\f407_disc\\lvgl\\lvgl\\src\\core\\lv_obj_style.h"
 686              		.file 19 "d:\\practise\\f407_disc\\lvgl\\lvgl\\src\\draw\\lv_draw_label.h"
 687              		.file 20 "d:\\practise\\f407_disc\\lvgl\\lvgl\\src\\core\\lv_obj_class.h"
 688              		.file 21 "d:\\practise\\f407_disc\\lvgl\\lvgl\\src\\core\\lv_event.h"
 689              		.file 22 "lvgl/lvgl/src/extra/widgets/calendar/lv_calendar_header_arrow.h"
 690              		.file 23 "d:\\practise\\f407_disc\\lvgl\\lvgl\\src\\widgets\\lv_btnmatrix.h"
 691              		.file 24 "lvgl/lvgl/src/extra/widgets/calendar/lv_calendar.h"
 692              		.file 25 "d:\\practise\\f407_disc\\lvgl\\lvgl\\src\\widgets\\lv_btn.h"
 693              		.file 26 "d:\\practise\\f407_disc\\lvgl\\lvgl\\src\\widgets\\lv_label.h"
 694              		.file 27 "d:\\practise\\f407_disc\\lvgl\\lvgl\\src\\extra\\layouts\\flex\\lv_flex.h"
 695              		.file 28 "d:\\practise\\f407_disc\\lvgl\\lvgl\\src\\core\\lv_obj_tree.h"
 696              		.file 29 "d:\\practise\\f407_disc\\lvgl\\lvgl\\src\\core\\lv_obj_pos.h"
ARM GAS  C:\Users\gx\AppData\Local\Temp\ccHZ8fHg.s 			page 20

