ARM GAS  C:\Users\gx\AppData\Local\Temp\ccN8omSo.s 			page 1


   1              		.cpu cortex-m4
   2              		.eabi_attribute 27, 1
   3              		.eabi_attribute 28, 1
   4              		.eabi_attribute 20, 1
   5              		.eabi_attribute 21, 1
   6              		.eabi_attribute 23, 3
   7              		.eabi_attribute 24, 1
   8              		.eabi_attribute 25, 1
   9              		.eabi_attribute 26, 1
  10              		.eabi_attribute 30, 1
  11              		.eabi_attribute 34, 1
  12              		.eabi_attribute 18, 4
  13              		.file	"lv_calendar.c"
  14              		.text
  15              	.Ltext0:
  16              		.cfi_sections	.debug_frame
  17              		.section	.text.is_leap_year,"ax",%progbits
  18              		.align	1
  19              		.arch armv7e-m
  20              		.syntax unified
  21              		.thumb
  22              		.thumb_func
  23              		.fpu fpv4-sp-d16
  25              	is_leap_year:
  26              	.LVL0:
  27              	.LFB202:
  28              		.file 1 "lvgl/lvgl/src/extra/widgets/calendar/lv_calendar.c"
   1:lvgl/lvgl/src/extra/widgets/calendar/lv_calendar.c **** /**
   2:lvgl/lvgl/src/extra/widgets/calendar/lv_calendar.c ****  * @file lv_calendar.c
   3:lvgl/lvgl/src/extra/widgets/calendar/lv_calendar.c ****  *
   4:lvgl/lvgl/src/extra/widgets/calendar/lv_calendar.c ****  */
   5:lvgl/lvgl/src/extra/widgets/calendar/lv_calendar.c **** 
   6:lvgl/lvgl/src/extra/widgets/calendar/lv_calendar.c **** /*********************
   7:lvgl/lvgl/src/extra/widgets/calendar/lv_calendar.c ****  *      INCLUDES
   8:lvgl/lvgl/src/extra/widgets/calendar/lv_calendar.c ****  *********************/
   9:lvgl/lvgl/src/extra/widgets/calendar/lv_calendar.c **** #include "lv_calendar.h"
  10:lvgl/lvgl/src/extra/widgets/calendar/lv_calendar.c **** #include "../../../lvgl.h"
  11:lvgl/lvgl/src/extra/widgets/calendar/lv_calendar.c **** #if LV_USE_CALENDAR
  12:lvgl/lvgl/src/extra/widgets/calendar/lv_calendar.c **** 
  13:lvgl/lvgl/src/extra/widgets/calendar/lv_calendar.c **** /*********************
  14:lvgl/lvgl/src/extra/widgets/calendar/lv_calendar.c ****  *      DEFINES
  15:lvgl/lvgl/src/extra/widgets/calendar/lv_calendar.c ****  *********************/
  16:lvgl/lvgl/src/extra/widgets/calendar/lv_calendar.c **** #define LV_CALENDAR_CTRL_TODAY      LV_BTNMATRIX_CTRL_CUSTOM_1
  17:lvgl/lvgl/src/extra/widgets/calendar/lv_calendar.c **** #define LV_CALENDAR_CTRL_HIGHLIGHT  LV_BTNMATRIX_CTRL_CUSTOM_2
  18:lvgl/lvgl/src/extra/widgets/calendar/lv_calendar.c **** 
  19:lvgl/lvgl/src/extra/widgets/calendar/lv_calendar.c **** /**********************
  20:lvgl/lvgl/src/extra/widgets/calendar/lv_calendar.c ****  *      TYPEDEFS
  21:lvgl/lvgl/src/extra/widgets/calendar/lv_calendar.c ****  **********************/
  22:lvgl/lvgl/src/extra/widgets/calendar/lv_calendar.c **** 
  23:lvgl/lvgl/src/extra/widgets/calendar/lv_calendar.c **** /**********************
  24:lvgl/lvgl/src/extra/widgets/calendar/lv_calendar.c ****  *  STATIC PROTOTYPES
  25:lvgl/lvgl/src/extra/widgets/calendar/lv_calendar.c ****  **********************/
  26:lvgl/lvgl/src/extra/widgets/calendar/lv_calendar.c **** static void lv_calendar_constructor(const lv_obj_class_t * class_p, lv_obj_t * obj);
  27:lvgl/lvgl/src/extra/widgets/calendar/lv_calendar.c **** static void draw_part_begin_event_cb(lv_event_t * e);
  28:lvgl/lvgl/src/extra/widgets/calendar/lv_calendar.c **** 
  29:lvgl/lvgl/src/extra/widgets/calendar/lv_calendar.c **** static uint8_t get_day_of_week(uint32_t year, uint32_t month, uint32_t day);
  30:lvgl/lvgl/src/extra/widgets/calendar/lv_calendar.c **** static uint8_t get_month_length(int32_t year, int32_t month);
ARM GAS  C:\Users\gx\AppData\Local\Temp\ccN8omSo.s 			page 2


  31:lvgl/lvgl/src/extra/widgets/calendar/lv_calendar.c **** static uint8_t is_leap_year(uint32_t year);
  32:lvgl/lvgl/src/extra/widgets/calendar/lv_calendar.c **** static void highlight_update(lv_obj_t * calendar);
  33:lvgl/lvgl/src/extra/widgets/calendar/lv_calendar.c **** 
  34:lvgl/lvgl/src/extra/widgets/calendar/lv_calendar.c **** /**********************
  35:lvgl/lvgl/src/extra/widgets/calendar/lv_calendar.c ****  *  STATIC VARIABLES
  36:lvgl/lvgl/src/extra/widgets/calendar/lv_calendar.c ****  **********************/
  37:lvgl/lvgl/src/extra/widgets/calendar/lv_calendar.c **** const lv_obj_class_t lv_calendar_class = {
  38:lvgl/lvgl/src/extra/widgets/calendar/lv_calendar.c ****     .constructor_cb = lv_calendar_constructor,
  39:lvgl/lvgl/src/extra/widgets/calendar/lv_calendar.c ****     .width_def = (LV_DPI_DEF * 3) / 2,
  40:lvgl/lvgl/src/extra/widgets/calendar/lv_calendar.c ****     .height_def =(LV_DPI_DEF * 3) / 2,
  41:lvgl/lvgl/src/extra/widgets/calendar/lv_calendar.c ****     .group_def = LV_OBJ_CLASS_GROUP_DEF_TRUE,
  42:lvgl/lvgl/src/extra/widgets/calendar/lv_calendar.c ****     .instance_size = sizeof(lv_calendar_t),
  43:lvgl/lvgl/src/extra/widgets/calendar/lv_calendar.c ****     .base_class = &lv_btnmatrix_class
  44:lvgl/lvgl/src/extra/widgets/calendar/lv_calendar.c **** };
  45:lvgl/lvgl/src/extra/widgets/calendar/lv_calendar.c **** 
  46:lvgl/lvgl/src/extra/widgets/calendar/lv_calendar.c **** 
  47:lvgl/lvgl/src/extra/widgets/calendar/lv_calendar.c **** static const char * day_names_def[7] = LV_CALENDAR_DEFAULT_DAY_NAMES;
  48:lvgl/lvgl/src/extra/widgets/calendar/lv_calendar.c **** 
  49:lvgl/lvgl/src/extra/widgets/calendar/lv_calendar.c **** /**********************
  50:lvgl/lvgl/src/extra/widgets/calendar/lv_calendar.c ****  *      MACROS
  51:lvgl/lvgl/src/extra/widgets/calendar/lv_calendar.c ****  **********************/
  52:lvgl/lvgl/src/extra/widgets/calendar/lv_calendar.c **** 
  53:lvgl/lvgl/src/extra/widgets/calendar/lv_calendar.c **** /**********************
  54:lvgl/lvgl/src/extra/widgets/calendar/lv_calendar.c ****  *   GLOBAL FUNCTIONS
  55:lvgl/lvgl/src/extra/widgets/calendar/lv_calendar.c ****  **********************/
  56:lvgl/lvgl/src/extra/widgets/calendar/lv_calendar.c **** 
  57:lvgl/lvgl/src/extra/widgets/calendar/lv_calendar.c **** lv_obj_t * lv_calendar_create(lv_obj_t * parent)
  58:lvgl/lvgl/src/extra/widgets/calendar/lv_calendar.c **** {
  59:lvgl/lvgl/src/extra/widgets/calendar/lv_calendar.c ****     LV_LOG_INFO("begin")
  60:lvgl/lvgl/src/extra/widgets/calendar/lv_calendar.c ****     lv_obj_t * obj = lv_obj_class_create_obj(&lv_calendar_class, parent);
  61:lvgl/lvgl/src/extra/widgets/calendar/lv_calendar.c ****     lv_obj_class_init_obj(obj);
  62:lvgl/lvgl/src/extra/widgets/calendar/lv_calendar.c ****     return obj;
  63:lvgl/lvgl/src/extra/widgets/calendar/lv_calendar.c **** }
  64:lvgl/lvgl/src/extra/widgets/calendar/lv_calendar.c **** 
  65:lvgl/lvgl/src/extra/widgets/calendar/lv_calendar.c **** /*=====================
  66:lvgl/lvgl/src/extra/widgets/calendar/lv_calendar.c ****  * Setter functions
  67:lvgl/lvgl/src/extra/widgets/calendar/lv_calendar.c ****  *====================*/
  68:lvgl/lvgl/src/extra/widgets/calendar/lv_calendar.c **** 
  69:lvgl/lvgl/src/extra/widgets/calendar/lv_calendar.c **** void lv_calendar_set_day_names(lv_obj_t * obj, const char * day_names[])
  70:lvgl/lvgl/src/extra/widgets/calendar/lv_calendar.c **** {
  71:lvgl/lvgl/src/extra/widgets/calendar/lv_calendar.c ****     lv_calendar_t * calendar = (lv_calendar_t *)obj;
  72:lvgl/lvgl/src/extra/widgets/calendar/lv_calendar.c ****     uint32_t i;
  73:lvgl/lvgl/src/extra/widgets/calendar/lv_calendar.c ****     for(i = 0; i < 7; i++) {
  74:lvgl/lvgl/src/extra/widgets/calendar/lv_calendar.c ****         calendar->map[i] = day_names[i];
  75:lvgl/lvgl/src/extra/widgets/calendar/lv_calendar.c ****     }
  76:lvgl/lvgl/src/extra/widgets/calendar/lv_calendar.c **** }
  77:lvgl/lvgl/src/extra/widgets/calendar/lv_calendar.c **** 
  78:lvgl/lvgl/src/extra/widgets/calendar/lv_calendar.c **** void lv_calendar_set_today_date(lv_obj_t * obj, uint32_t year, uint32_t month, uint32_t day)
  79:lvgl/lvgl/src/extra/widgets/calendar/lv_calendar.c **** {
  80:lvgl/lvgl/src/extra/widgets/calendar/lv_calendar.c ****     lv_calendar_t * calendar = (lv_calendar_t *)obj;
  81:lvgl/lvgl/src/extra/widgets/calendar/lv_calendar.c ****     calendar->today.year         = year;
  82:lvgl/lvgl/src/extra/widgets/calendar/lv_calendar.c ****     calendar->today.month        = month;
  83:lvgl/lvgl/src/extra/widgets/calendar/lv_calendar.c ****     calendar->today.day          = day;
  84:lvgl/lvgl/src/extra/widgets/calendar/lv_calendar.c **** 
  85:lvgl/lvgl/src/extra/widgets/calendar/lv_calendar.c ****     highlight_update(obj);
  86:lvgl/lvgl/src/extra/widgets/calendar/lv_calendar.c **** }
  87:lvgl/lvgl/src/extra/widgets/calendar/lv_calendar.c **** 
ARM GAS  C:\Users\gx\AppData\Local\Temp\ccN8omSo.s 			page 3


  88:lvgl/lvgl/src/extra/widgets/calendar/lv_calendar.c **** void lv_calendar_set_highlighted_dates(lv_obj_t * obj, lv_calendar_date_t highlighted[], uint16_t d
  89:lvgl/lvgl/src/extra/widgets/calendar/lv_calendar.c **** {
  90:lvgl/lvgl/src/extra/widgets/calendar/lv_calendar.c ****     LV_ASSERT_NULL(highlighted);
  91:lvgl/lvgl/src/extra/widgets/calendar/lv_calendar.c **** 
  92:lvgl/lvgl/src/extra/widgets/calendar/lv_calendar.c ****     lv_calendar_t * calendar = (lv_calendar_t *)obj;
  93:lvgl/lvgl/src/extra/widgets/calendar/lv_calendar.c ****     calendar->highlighted_dates     = highlighted;
  94:lvgl/lvgl/src/extra/widgets/calendar/lv_calendar.c ****     calendar->highlighted_dates_num = date_num;
  95:lvgl/lvgl/src/extra/widgets/calendar/lv_calendar.c **** 
  96:lvgl/lvgl/src/extra/widgets/calendar/lv_calendar.c ****     highlight_update(obj);
  97:lvgl/lvgl/src/extra/widgets/calendar/lv_calendar.c **** }
  98:lvgl/lvgl/src/extra/widgets/calendar/lv_calendar.c **** 
  99:lvgl/lvgl/src/extra/widgets/calendar/lv_calendar.c **** void lv_calendar_set_showed_date(lv_obj_t * obj, uint32_t year, uint32_t month)
 100:lvgl/lvgl/src/extra/widgets/calendar/lv_calendar.c **** {
 101:lvgl/lvgl/src/extra/widgets/calendar/lv_calendar.c ****     lv_calendar_t * calendar = (lv_calendar_t *)obj;
 102:lvgl/lvgl/src/extra/widgets/calendar/lv_calendar.c ****     calendar->showed_date.year   = year;
 103:lvgl/lvgl/src/extra/widgets/calendar/lv_calendar.c ****     calendar->showed_date.month  = month;
 104:lvgl/lvgl/src/extra/widgets/calendar/lv_calendar.c ****     calendar->showed_date.day    = 1;
 105:lvgl/lvgl/src/extra/widgets/calendar/lv_calendar.c **** 
 106:lvgl/lvgl/src/extra/widgets/calendar/lv_calendar.c ****     lv_calendar_date_t d;
 107:lvgl/lvgl/src/extra/widgets/calendar/lv_calendar.c ****     d.year = calendar->showed_date.year;
 108:lvgl/lvgl/src/extra/widgets/calendar/lv_calendar.c ****     d.month = calendar->showed_date.month;
 109:lvgl/lvgl/src/extra/widgets/calendar/lv_calendar.c ****     d.day = calendar->showed_date.day;
 110:lvgl/lvgl/src/extra/widgets/calendar/lv_calendar.c **** 
 111:lvgl/lvgl/src/extra/widgets/calendar/lv_calendar.c ****     uint8_t i;
 112:lvgl/lvgl/src/extra/widgets/calendar/lv_calendar.c **** 
 113:lvgl/lvgl/src/extra/widgets/calendar/lv_calendar.c ****     /*Remove the disabled state but revert it for day names*/
 114:lvgl/lvgl/src/extra/widgets/calendar/lv_calendar.c ****     lv_btnmatrix_clear_btn_ctrl_all(obj, LV_BTNMATRIX_CTRL_DISABLED);
 115:lvgl/lvgl/src/extra/widgets/calendar/lv_calendar.c ****     for(i = 0; i < 7; i++) {
 116:lvgl/lvgl/src/extra/widgets/calendar/lv_calendar.c ****         lv_btnmatrix_set_btn_ctrl(obj, i, LV_BTNMATRIX_CTRL_DISABLED);
 117:lvgl/lvgl/src/extra/widgets/calendar/lv_calendar.c ****     }
 118:lvgl/lvgl/src/extra/widgets/calendar/lv_calendar.c **** 
 119:lvgl/lvgl/src/extra/widgets/calendar/lv_calendar.c ****     uint8_t act_mo_len = get_month_length(d.year, d.month);
 120:lvgl/lvgl/src/extra/widgets/calendar/lv_calendar.c ****     uint8_t day_first = get_day_of_week(d.year, d.month, 1);
 121:lvgl/lvgl/src/extra/widgets/calendar/lv_calendar.c ****     uint8_t c;
 122:lvgl/lvgl/src/extra/widgets/calendar/lv_calendar.c ****     for(i = day_first, c = 1; i < act_mo_len + day_first; i++, c++) {
 123:lvgl/lvgl/src/extra/widgets/calendar/lv_calendar.c ****         lv_snprintf(calendar->nums[i], sizeof(calendar->nums[0]), "%d", c);
 124:lvgl/lvgl/src/extra/widgets/calendar/lv_calendar.c ****     }
 125:lvgl/lvgl/src/extra/widgets/calendar/lv_calendar.c **** 
 126:lvgl/lvgl/src/extra/widgets/calendar/lv_calendar.c ****     uint8_t prev_mo_len = get_month_length(d.year, d.month - 1);
 127:lvgl/lvgl/src/extra/widgets/calendar/lv_calendar.c ****     for(i = 0, c = prev_mo_len - day_first + 1; i < day_first; i++, c++) {
 128:lvgl/lvgl/src/extra/widgets/calendar/lv_calendar.c ****         lv_snprintf(calendar->nums[i], sizeof(calendar->nums[0]), "%d", c);
 129:lvgl/lvgl/src/extra/widgets/calendar/lv_calendar.c ****         lv_btnmatrix_set_btn_ctrl(obj, i + 7, LV_BTNMATRIX_CTRL_DISABLED);
 130:lvgl/lvgl/src/extra/widgets/calendar/lv_calendar.c ****     }
 131:lvgl/lvgl/src/extra/widgets/calendar/lv_calendar.c **** 
 132:lvgl/lvgl/src/extra/widgets/calendar/lv_calendar.c ****     for(i = day_first + act_mo_len, c = 1; i < 6 * 7; i++, c++) {
 133:lvgl/lvgl/src/extra/widgets/calendar/lv_calendar.c ****         lv_snprintf(calendar->nums[i], sizeof(calendar->nums[0]), "%d", c);
 134:lvgl/lvgl/src/extra/widgets/calendar/lv_calendar.c ****         lv_btnmatrix_set_btn_ctrl(obj, i + 7, LV_BTNMATRIX_CTRL_DISABLED);
 135:lvgl/lvgl/src/extra/widgets/calendar/lv_calendar.c ****     }
 136:lvgl/lvgl/src/extra/widgets/calendar/lv_calendar.c **** 
 137:lvgl/lvgl/src/extra/widgets/calendar/lv_calendar.c ****     highlight_update(obj);
 138:lvgl/lvgl/src/extra/widgets/calendar/lv_calendar.c **** 
 139:lvgl/lvgl/src/extra/widgets/calendar/lv_calendar.c ****     /*Reset the focused button if the days changes*/
 140:lvgl/lvgl/src/extra/widgets/calendar/lv_calendar.c ****     if(lv_btnmatrix_get_selected_btn(obj) != LV_BTNMATRIX_BTN_NONE) {
 141:lvgl/lvgl/src/extra/widgets/calendar/lv_calendar.c ****         lv_btnmatrix_set_selected_btn(obj, day_first + 7);
 142:lvgl/lvgl/src/extra/widgets/calendar/lv_calendar.c ****     }
 143:lvgl/lvgl/src/extra/widgets/calendar/lv_calendar.c **** 
 144:lvgl/lvgl/src/extra/widgets/calendar/lv_calendar.c ****     lv_obj_invalidate(obj);
ARM GAS  C:\Users\gx\AppData\Local\Temp\ccN8omSo.s 			page 4


 145:lvgl/lvgl/src/extra/widgets/calendar/lv_calendar.c **** }
 146:lvgl/lvgl/src/extra/widgets/calendar/lv_calendar.c **** 
 147:lvgl/lvgl/src/extra/widgets/calendar/lv_calendar.c **** /*=====================
 148:lvgl/lvgl/src/extra/widgets/calendar/lv_calendar.c ****  * Getter functions
 149:lvgl/lvgl/src/extra/widgets/calendar/lv_calendar.c ****  *====================*/
 150:lvgl/lvgl/src/extra/widgets/calendar/lv_calendar.c **** 
 151:lvgl/lvgl/src/extra/widgets/calendar/lv_calendar.c **** /**
 152:lvgl/lvgl/src/extra/widgets/calendar/lv_calendar.c ****  * Get the today's date
 153:lvgl/lvgl/src/extra/widgets/calendar/lv_calendar.c ****  * @param calendar pointer to a calendar object
 154:lvgl/lvgl/src/extra/widgets/calendar/lv_calendar.c ****  * @return return pointer to an `lv_calendar_date_t` variable containing the date of today.
 155:lvgl/lvgl/src/extra/widgets/calendar/lv_calendar.c ****  */
 156:lvgl/lvgl/src/extra/widgets/calendar/lv_calendar.c **** const lv_calendar_date_t * lv_calendar_get_today_date(const lv_obj_t * obj)
 157:lvgl/lvgl/src/extra/widgets/calendar/lv_calendar.c **** {
 158:lvgl/lvgl/src/extra/widgets/calendar/lv_calendar.c ****     const lv_calendar_t * calendar = (lv_calendar_t *)obj;
 159:lvgl/lvgl/src/extra/widgets/calendar/lv_calendar.c ****     return &calendar->today;
 160:lvgl/lvgl/src/extra/widgets/calendar/lv_calendar.c **** }
 161:lvgl/lvgl/src/extra/widgets/calendar/lv_calendar.c **** 
 162:lvgl/lvgl/src/extra/widgets/calendar/lv_calendar.c **** /**
 163:lvgl/lvgl/src/extra/widgets/calendar/lv_calendar.c ****  * Get the currently showed
 164:lvgl/lvgl/src/extra/widgets/calendar/lv_calendar.c ****  * @param calendar pointer to a calendar object
 165:lvgl/lvgl/src/extra/widgets/calendar/lv_calendar.c ****  * @return pointer to an `lv_calendar_date_t` variable containing the date is being shown.
 166:lvgl/lvgl/src/extra/widgets/calendar/lv_calendar.c ****  */
 167:lvgl/lvgl/src/extra/widgets/calendar/lv_calendar.c **** const lv_calendar_date_t * lv_calendar_get_showed_date(const lv_obj_t * obj)
 168:lvgl/lvgl/src/extra/widgets/calendar/lv_calendar.c **** {
 169:lvgl/lvgl/src/extra/widgets/calendar/lv_calendar.c ****     const lv_calendar_t * calendar = (lv_calendar_t *)obj;
 170:lvgl/lvgl/src/extra/widgets/calendar/lv_calendar.c ****     return &calendar->showed_date;
 171:lvgl/lvgl/src/extra/widgets/calendar/lv_calendar.c **** }
 172:lvgl/lvgl/src/extra/widgets/calendar/lv_calendar.c **** 
 173:lvgl/lvgl/src/extra/widgets/calendar/lv_calendar.c **** /**
 174:lvgl/lvgl/src/extra/widgets/calendar/lv_calendar.c ****  * Get the the highlighted dates
 175:lvgl/lvgl/src/extra/widgets/calendar/lv_calendar.c ****  * @param calendar pointer to a calendar object
 176:lvgl/lvgl/src/extra/widgets/calendar/lv_calendar.c ****  * @return pointer to an `lv_calendar_date_t` array containing the dates.
 177:lvgl/lvgl/src/extra/widgets/calendar/lv_calendar.c ****  */
 178:lvgl/lvgl/src/extra/widgets/calendar/lv_calendar.c **** lv_calendar_date_t * lv_calendar_get_highlighted_dates(const lv_obj_t * obj)
 179:lvgl/lvgl/src/extra/widgets/calendar/lv_calendar.c **** {
 180:lvgl/lvgl/src/extra/widgets/calendar/lv_calendar.c ****     lv_calendar_t * calendar = (lv_calendar_t *)obj;
 181:lvgl/lvgl/src/extra/widgets/calendar/lv_calendar.c ****     return calendar->highlighted_dates;
 182:lvgl/lvgl/src/extra/widgets/calendar/lv_calendar.c **** }
 183:lvgl/lvgl/src/extra/widgets/calendar/lv_calendar.c **** 
 184:lvgl/lvgl/src/extra/widgets/calendar/lv_calendar.c **** uint16_t lv_calendar_get_highlighted_dates_num(const lv_obj_t * obj)
 185:lvgl/lvgl/src/extra/widgets/calendar/lv_calendar.c **** {
 186:lvgl/lvgl/src/extra/widgets/calendar/lv_calendar.c ****     lv_calendar_t * calendar = (lv_calendar_t *)obj;
 187:lvgl/lvgl/src/extra/widgets/calendar/lv_calendar.c ****     return calendar->highlighted_dates_num;
 188:lvgl/lvgl/src/extra/widgets/calendar/lv_calendar.c **** }
 189:lvgl/lvgl/src/extra/widgets/calendar/lv_calendar.c **** 
 190:lvgl/lvgl/src/extra/widgets/calendar/lv_calendar.c **** lv_res_t lv_calendar_get_pressed_date(const lv_obj_t * obj, lv_calendar_date_t * date)
 191:lvgl/lvgl/src/extra/widgets/calendar/lv_calendar.c **** {
 192:lvgl/lvgl/src/extra/widgets/calendar/lv_calendar.c ****     lv_calendar_t * calendar = (lv_calendar_t *)obj;
 193:lvgl/lvgl/src/extra/widgets/calendar/lv_calendar.c ****     uint16_t d = lv_btnmatrix_get_selected_btn(obj);
 194:lvgl/lvgl/src/extra/widgets/calendar/lv_calendar.c ****     if(d == LV_BTNMATRIX_BTN_NONE) {
 195:lvgl/lvgl/src/extra/widgets/calendar/lv_calendar.c ****         date->year = 0;
 196:lvgl/lvgl/src/extra/widgets/calendar/lv_calendar.c ****         date->month = 0;
 197:lvgl/lvgl/src/extra/widgets/calendar/lv_calendar.c ****         date->day = 0;
 198:lvgl/lvgl/src/extra/widgets/calendar/lv_calendar.c ****         return LV_RES_INV;
 199:lvgl/lvgl/src/extra/widgets/calendar/lv_calendar.c ****     }
 200:lvgl/lvgl/src/extra/widgets/calendar/lv_calendar.c **** 
 201:lvgl/lvgl/src/extra/widgets/calendar/lv_calendar.c ****     const char * txt = lv_btnmatrix_get_btn_text(obj, lv_btnmatrix_get_selected_btn(obj));
ARM GAS  C:\Users\gx\AppData\Local\Temp\ccN8omSo.s 			page 5


 202:lvgl/lvgl/src/extra/widgets/calendar/lv_calendar.c **** 
 203:lvgl/lvgl/src/extra/widgets/calendar/lv_calendar.c ****     if(txt[1] == 0) date->day = txt[0] - '0';
 204:lvgl/lvgl/src/extra/widgets/calendar/lv_calendar.c ****     else date->day = (txt[0] - '0') * 10 + (txt[1] - '0');
 205:lvgl/lvgl/src/extra/widgets/calendar/lv_calendar.c **** 
 206:lvgl/lvgl/src/extra/widgets/calendar/lv_calendar.c ****     date->year = calendar->showed_date.year;
 207:lvgl/lvgl/src/extra/widgets/calendar/lv_calendar.c ****     date->month = calendar->showed_date.month;
 208:lvgl/lvgl/src/extra/widgets/calendar/lv_calendar.c **** 
 209:lvgl/lvgl/src/extra/widgets/calendar/lv_calendar.c ****     return LV_RES_OK;
 210:lvgl/lvgl/src/extra/widgets/calendar/lv_calendar.c **** }
 211:lvgl/lvgl/src/extra/widgets/calendar/lv_calendar.c **** 
 212:lvgl/lvgl/src/extra/widgets/calendar/lv_calendar.c **** 
 213:lvgl/lvgl/src/extra/widgets/calendar/lv_calendar.c **** /**********************
 214:lvgl/lvgl/src/extra/widgets/calendar/lv_calendar.c ****  *  STATIC FUNCTIONS
 215:lvgl/lvgl/src/extra/widgets/calendar/lv_calendar.c ****  **********************/
 216:lvgl/lvgl/src/extra/widgets/calendar/lv_calendar.c **** 
 217:lvgl/lvgl/src/extra/widgets/calendar/lv_calendar.c **** static void lv_calendar_constructor(const lv_obj_class_t * class_p, lv_obj_t * obj)
 218:lvgl/lvgl/src/extra/widgets/calendar/lv_calendar.c **** {
 219:lvgl/lvgl/src/extra/widgets/calendar/lv_calendar.c ****     LV_UNUSED(class_p);
 220:lvgl/lvgl/src/extra/widgets/calendar/lv_calendar.c ****     lv_calendar_t * calendar = (lv_calendar_t *)obj;
 221:lvgl/lvgl/src/extra/widgets/calendar/lv_calendar.c **** 
 222:lvgl/lvgl/src/extra/widgets/calendar/lv_calendar.c ****     /*Initialize the allocated 'ext'*/
 223:lvgl/lvgl/src/extra/widgets/calendar/lv_calendar.c ****     calendar->today.year  = 2020;
 224:lvgl/lvgl/src/extra/widgets/calendar/lv_calendar.c ****     calendar->today.month = 1;
 225:lvgl/lvgl/src/extra/widgets/calendar/lv_calendar.c ****     calendar->today.day   = 1;
 226:lvgl/lvgl/src/extra/widgets/calendar/lv_calendar.c **** 
 227:lvgl/lvgl/src/extra/widgets/calendar/lv_calendar.c ****     calendar->showed_date.year  = 2020;
 228:lvgl/lvgl/src/extra/widgets/calendar/lv_calendar.c ****     calendar->showed_date.month = 1;
 229:lvgl/lvgl/src/extra/widgets/calendar/lv_calendar.c ****     calendar->showed_date.day   = 1;
 230:lvgl/lvgl/src/extra/widgets/calendar/lv_calendar.c **** 
 231:lvgl/lvgl/src/extra/widgets/calendar/lv_calendar.c ****     calendar->highlighted_dates      = NULL;
 232:lvgl/lvgl/src/extra/widgets/calendar/lv_calendar.c ****     calendar->highlighted_dates_num  = 0;
 233:lvgl/lvgl/src/extra/widgets/calendar/lv_calendar.c **** 
 234:lvgl/lvgl/src/extra/widgets/calendar/lv_calendar.c ****     lv_memset_00(calendar->nums, sizeof(calendar->nums));
 235:lvgl/lvgl/src/extra/widgets/calendar/lv_calendar.c ****     uint8_t i;
 236:lvgl/lvgl/src/extra/widgets/calendar/lv_calendar.c ****     uint8_t j = 0;
 237:lvgl/lvgl/src/extra/widgets/calendar/lv_calendar.c ****     for(i = 0; i < 8 * 7; i++) {
 238:lvgl/lvgl/src/extra/widgets/calendar/lv_calendar.c ****         /*Every 8th string is "\n"*/
 239:lvgl/lvgl/src/extra/widgets/calendar/lv_calendar.c ****         if(i != 0 && (i + 1) % 8 == 0) {
 240:lvgl/lvgl/src/extra/widgets/calendar/lv_calendar.c ****             calendar->map[i] = "\n";
 241:lvgl/lvgl/src/extra/widgets/calendar/lv_calendar.c ****         } else if(i < 8){
 242:lvgl/lvgl/src/extra/widgets/calendar/lv_calendar.c ****             calendar->map[i] = day_names_def[i];
 243:lvgl/lvgl/src/extra/widgets/calendar/lv_calendar.c ****         } else {
 244:lvgl/lvgl/src/extra/widgets/calendar/lv_calendar.c ****             calendar->nums[j][0] = 'x';
 245:lvgl/lvgl/src/extra/widgets/calendar/lv_calendar.c ****             calendar->map[i] = calendar->nums[j];
 246:lvgl/lvgl/src/extra/widgets/calendar/lv_calendar.c ****             j++;
 247:lvgl/lvgl/src/extra/widgets/calendar/lv_calendar.c ****         }
 248:lvgl/lvgl/src/extra/widgets/calendar/lv_calendar.c ****     }
 249:lvgl/lvgl/src/extra/widgets/calendar/lv_calendar.c ****     calendar->map[8 * 7 - 1] = "";
 250:lvgl/lvgl/src/extra/widgets/calendar/lv_calendar.c **** 
 251:lvgl/lvgl/src/extra/widgets/calendar/lv_calendar.c ****     lv_btnmatrix_set_map(obj, calendar->map);
 252:lvgl/lvgl/src/extra/widgets/calendar/lv_calendar.c ****     lv_btnmatrix_set_btn_ctrl_all(obj, LV_BTNMATRIX_CTRL_CLICK_TRIG | LV_BTNMATRIX_CTRL_NO_REPEAT);
 253:lvgl/lvgl/src/extra/widgets/calendar/lv_calendar.c **** 
 254:lvgl/lvgl/src/extra/widgets/calendar/lv_calendar.c **** 
 255:lvgl/lvgl/src/extra/widgets/calendar/lv_calendar.c ****     lv_calendar_set_showed_date(obj, calendar->showed_date.year, calendar->showed_date.month);
 256:lvgl/lvgl/src/extra/widgets/calendar/lv_calendar.c ****     lv_calendar_set_today_date(obj, calendar->today.year, calendar->today.month, calendar->today.da
 257:lvgl/lvgl/src/extra/widgets/calendar/lv_calendar.c **** 
 258:lvgl/lvgl/src/extra/widgets/calendar/lv_calendar.c ****     lv_obj_add_event_cb(obj, draw_part_begin_event_cb, LV_EVENT_DRAW_PART_BEGIN, NULL);
ARM GAS  C:\Users\gx\AppData\Local\Temp\ccN8omSo.s 			page 6


 259:lvgl/lvgl/src/extra/widgets/calendar/lv_calendar.c **** }
 260:lvgl/lvgl/src/extra/widgets/calendar/lv_calendar.c **** 
 261:lvgl/lvgl/src/extra/widgets/calendar/lv_calendar.c **** static void draw_part_begin_event_cb(lv_event_t * e)
 262:lvgl/lvgl/src/extra/widgets/calendar/lv_calendar.c **** {
 263:lvgl/lvgl/src/extra/widgets/calendar/lv_calendar.c ****     lv_obj_t * obj = lv_event_get_target(e);
 264:lvgl/lvgl/src/extra/widgets/calendar/lv_calendar.c ****     lv_obj_draw_part_dsc_t * dsc = lv_event_get_param(e);
 265:lvgl/lvgl/src/extra/widgets/calendar/lv_calendar.c ****     if(dsc->part == LV_PART_ITEMS) {
 266:lvgl/lvgl/src/extra/widgets/calendar/lv_calendar.c ****         /*Day name styles*/
 267:lvgl/lvgl/src/extra/widgets/calendar/lv_calendar.c ****         if(dsc->id < 7) {
 268:lvgl/lvgl/src/extra/widgets/calendar/lv_calendar.c ****             dsc->rect_dsc->bg_opa = LV_OPA_TRANSP;
 269:lvgl/lvgl/src/extra/widgets/calendar/lv_calendar.c ****             dsc->rect_dsc->border_opa = LV_OPA_TRANSP;
 270:lvgl/lvgl/src/extra/widgets/calendar/lv_calendar.c ****         }
 271:lvgl/lvgl/src/extra/widgets/calendar/lv_calendar.c ****         else if(lv_btnmatrix_has_btn_ctrl(obj, dsc->id, LV_BTNMATRIX_CTRL_DISABLED)) {
 272:lvgl/lvgl/src/extra/widgets/calendar/lv_calendar.c ****             dsc->rect_dsc->bg_opa = LV_OPA_TRANSP;
 273:lvgl/lvgl/src/extra/widgets/calendar/lv_calendar.c ****             dsc->rect_dsc->border_opa = LV_OPA_TRANSP;
 274:lvgl/lvgl/src/extra/widgets/calendar/lv_calendar.c ****             dsc->label_dsc->color = lv_palette_main(LV_PALETTE_GREY);
 275:lvgl/lvgl/src/extra/widgets/calendar/lv_calendar.c ****         }
 276:lvgl/lvgl/src/extra/widgets/calendar/lv_calendar.c **** 
 277:lvgl/lvgl/src/extra/widgets/calendar/lv_calendar.c ****         if(lv_btnmatrix_has_btn_ctrl(obj, dsc->id, LV_CALENDAR_CTRL_HIGHLIGHT)) {
 278:lvgl/lvgl/src/extra/widgets/calendar/lv_calendar.c ****             dsc->rect_dsc->bg_opa = LV_OPA_40;
 279:lvgl/lvgl/src/extra/widgets/calendar/lv_calendar.c ****             dsc->rect_dsc->bg_color = lv_theme_get_color_primary(obj);
 280:lvgl/lvgl/src/extra/widgets/calendar/lv_calendar.c ****             if(lv_btnmatrix_get_selected_btn(obj) == dsc->id) {
 281:lvgl/lvgl/src/extra/widgets/calendar/lv_calendar.c ****                 dsc->rect_dsc->bg_opa = LV_OPA_70;
 282:lvgl/lvgl/src/extra/widgets/calendar/lv_calendar.c ****             }
 283:lvgl/lvgl/src/extra/widgets/calendar/lv_calendar.c ****         }
 284:lvgl/lvgl/src/extra/widgets/calendar/lv_calendar.c **** 
 285:lvgl/lvgl/src/extra/widgets/calendar/lv_calendar.c ****         if(lv_btnmatrix_has_btn_ctrl(obj, dsc->id, LV_CALENDAR_CTRL_TODAY)) {
 286:lvgl/lvgl/src/extra/widgets/calendar/lv_calendar.c ****             dsc->rect_dsc->border_opa = LV_OPA_COVER;
 287:lvgl/lvgl/src/extra/widgets/calendar/lv_calendar.c ****             dsc->rect_dsc->border_color = lv_theme_get_color_primary(obj);
 288:lvgl/lvgl/src/extra/widgets/calendar/lv_calendar.c ****             dsc->rect_dsc->border_width += 1;
 289:lvgl/lvgl/src/extra/widgets/calendar/lv_calendar.c ****         }
 290:lvgl/lvgl/src/extra/widgets/calendar/lv_calendar.c **** 
 291:lvgl/lvgl/src/extra/widgets/calendar/lv_calendar.c ****     }
 292:lvgl/lvgl/src/extra/widgets/calendar/lv_calendar.c **** }
 293:lvgl/lvgl/src/extra/widgets/calendar/lv_calendar.c **** 
 294:lvgl/lvgl/src/extra/widgets/calendar/lv_calendar.c **** 
 295:lvgl/lvgl/src/extra/widgets/calendar/lv_calendar.c **** 
 296:lvgl/lvgl/src/extra/widgets/calendar/lv_calendar.c **** 
 297:lvgl/lvgl/src/extra/widgets/calendar/lv_calendar.c **** /**
 298:lvgl/lvgl/src/extra/widgets/calendar/lv_calendar.c ****  * Get the number of days in a month
 299:lvgl/lvgl/src/extra/widgets/calendar/lv_calendar.c ****  * @param year a year
 300:lvgl/lvgl/src/extra/widgets/calendar/lv_calendar.c ****  * @param month a month. The range is basically [1..12] but [-11..0] or [13..24] is also
 301:lvgl/lvgl/src/extra/widgets/calendar/lv_calendar.c ****  *              supported to handle next/prev. year
 302:lvgl/lvgl/src/extra/widgets/calendar/lv_calendar.c ****  * @return [28..31]
 303:lvgl/lvgl/src/extra/widgets/calendar/lv_calendar.c ****  */
 304:lvgl/lvgl/src/extra/widgets/calendar/lv_calendar.c **** static uint8_t get_month_length(int32_t year, int32_t month)
 305:lvgl/lvgl/src/extra/widgets/calendar/lv_calendar.c **** {
 306:lvgl/lvgl/src/extra/widgets/calendar/lv_calendar.c ****     month--;
 307:lvgl/lvgl/src/extra/widgets/calendar/lv_calendar.c ****     if(month < 0) {
 308:lvgl/lvgl/src/extra/widgets/calendar/lv_calendar.c ****         year--;             /*Already in the previous year (won't be less then -12 to skip a whole 
 309:lvgl/lvgl/src/extra/widgets/calendar/lv_calendar.c ****         month = 12 + month; /*`month` is negative, the result will be < 12*/
 310:lvgl/lvgl/src/extra/widgets/calendar/lv_calendar.c ****     }
 311:lvgl/lvgl/src/extra/widgets/calendar/lv_calendar.c ****     if(month >= 12) {
 312:lvgl/lvgl/src/extra/widgets/calendar/lv_calendar.c ****         year++;
 313:lvgl/lvgl/src/extra/widgets/calendar/lv_calendar.c ****         month -= 12;
 314:lvgl/lvgl/src/extra/widgets/calendar/lv_calendar.c ****     }
 315:lvgl/lvgl/src/extra/widgets/calendar/lv_calendar.c **** 
ARM GAS  C:\Users\gx\AppData\Local\Temp\ccN8omSo.s 			page 7


 316:lvgl/lvgl/src/extra/widgets/calendar/lv_calendar.c ****     /*month == 1 is february*/
 317:lvgl/lvgl/src/extra/widgets/calendar/lv_calendar.c ****     return (month == 1) ? (28 + is_leap_year(year)) : 31 - month % 7 % 2;
 318:lvgl/lvgl/src/extra/widgets/calendar/lv_calendar.c **** }
 319:lvgl/lvgl/src/extra/widgets/calendar/lv_calendar.c **** 
 320:lvgl/lvgl/src/extra/widgets/calendar/lv_calendar.c **** /**
 321:lvgl/lvgl/src/extra/widgets/calendar/lv_calendar.c ****  * Tells whether a year is leap year or not
 322:lvgl/lvgl/src/extra/widgets/calendar/lv_calendar.c ****  * @param year a year
 323:lvgl/lvgl/src/extra/widgets/calendar/lv_calendar.c ****  * @return 0: not leap year; 1: leap year
 324:lvgl/lvgl/src/extra/widgets/calendar/lv_calendar.c ****  */
 325:lvgl/lvgl/src/extra/widgets/calendar/lv_calendar.c **** static uint8_t is_leap_year(uint32_t year)
 326:lvgl/lvgl/src/extra/widgets/calendar/lv_calendar.c **** {
  29              		.loc 1 326 1 view -0
  30              		.cfi_startproc
  31              		@ args = 0, pretend = 0, frame = 0
  32              		@ frame_needed = 0, uses_anonymous_args = 0
  33              		@ link register save eliminated.
 327:lvgl/lvgl/src/extra/widgets/calendar/lv_calendar.c ****     return (year % 4) || ((year % 100 == 0) && (year % 400)) ? 0 : 1;
  34              		.loc 1 327 5 view .LVU1
  35              		.loc 1 327 66 is_stmt 0 view .LVU2
  36 0000 10F0030F 		tst	r0, #3
  37 0004 12D1     		bne	.L3
  38              		.loc 1 327 33 discriminator 1 view .LVU3
  39 0006 0C4B     		ldr	r3, .L6
  40 0008 A3FB0023 		umull	r2, r3, r3, r0
  41 000c 5B09     		lsrs	r3, r3, #5
  42 000e 6422     		movs	r2, #100
  43 0010 02FB1303 		mls	r3, r2, r3, r0
  44              		.loc 1 327 66 discriminator 1 view .LVU4
  45 0014 63B9     		cbnz	r3, .L4
  46              		.loc 1 327 54 discriminator 4 view .LVU5
  47 0016 084B     		ldr	r3, .L6
  48 0018 A3FB0023 		umull	r2, r3, r3, r0
  49 001c DB09     		lsrs	r3, r3, #7
  50 001e 4FF4C872 		mov	r2, #400
  51 0022 02FB1303 		mls	r3, r2, r3, r0
  52              		.loc 1 327 45 discriminator 4 view .LVU6
  53 0026 2BB1     		cbz	r3, .L5
  54              		.loc 1 327 66 view .LVU7
  55 0028 0020     		movs	r0, #0
  56              	.LVL1:
  57              		.loc 1 327 66 view .LVU8
  58 002a 7047     		bx	lr
  59              	.LVL2:
  60              	.L3:
  61              		.loc 1 327 66 view .LVU9
  62 002c 0020     		movs	r0, #0
  63              	.LVL3:
  64              		.loc 1 327 66 view .LVU10
  65 002e 7047     		bx	lr
  66              	.LVL4:
  67              	.L4:
  68              		.loc 1 327 66 view .LVU11
  69 0030 0120     		movs	r0, #1
  70              	.LVL5:
  71              		.loc 1 327 66 view .LVU12
  72 0032 7047     		bx	lr
  73              	.LVL6:
ARM GAS  C:\Users\gx\AppData\Local\Temp\ccN8omSo.s 			page 8


  74              	.L5:
  75              		.loc 1 327 66 view .LVU13
  76 0034 0120     		movs	r0, #1
  77              	.LVL7:
 328:lvgl/lvgl/src/extra/widgets/calendar/lv_calendar.c **** }
  78              		.loc 1 328 1 view .LVU14
  79 0036 7047     		bx	lr
  80              	.L7:
  81              		.align	2
  82              	.L6:
  83 0038 1F85EB51 		.word	1374389535
  84              		.cfi_endproc
  85              	.LFE202:
  87              		.section	.text.get_month_length,"ax",%progbits
  88              		.align	1
  89              		.syntax unified
  90              		.thumb
  91              		.thumb_func
  92              		.fpu fpv4-sp-d16
  94              	get_month_length:
  95              	.LVL8:
  96              	.LFB201:
 305:lvgl/lvgl/src/extra/widgets/calendar/lv_calendar.c ****     month--;
  97              		.loc 1 305 1 is_stmt 1 view -0
  98              		.cfi_startproc
  99              		@ args = 0, pretend = 0, frame = 0
 100              		@ frame_needed = 0, uses_anonymous_args = 0
 305:lvgl/lvgl/src/extra/widgets/calendar/lv_calendar.c ****     month--;
 101              		.loc 1 305 1 is_stmt 0 view .LVU16
 102 0000 08B5     		push	{r3, lr}
 103              	.LCFI0:
 104              		.cfi_def_cfa_offset 8
 105              		.cfi_offset 3, -8
 106              		.cfi_offset 14, -4
 306:lvgl/lvgl/src/extra/widgets/calendar/lv_calendar.c ****     if(month < 0) {
 107              		.loc 1 306 5 is_stmt 1 view .LVU17
 108              	.LVL9:
 307:lvgl/lvgl/src/extra/widgets/calendar/lv_calendar.c ****         year--;             /*Already in the previous year (won't be less then -12 to skip a whole 
 109              		.loc 1 307 5 view .LVU18
 307:lvgl/lvgl/src/extra/widgets/calendar/lv_calendar.c ****         year--;             /*Already in the previous year (won't be less then -12 to skip a whole 
 110              		.loc 1 307 7 is_stmt 0 view .LVU19
 111 0002 4A1E     		subs	r2, r1, #1
 112              	.LVL10:
 307:lvgl/lvgl/src/extra/widgets/calendar/lv_calendar.c ****         year--;             /*Already in the previous year (won't be less then -12 to skip a whole 
 113              		.loc 1 307 7 view .LVU20
 114 0004 18D4     		bmi	.L14
 115              	.L9:
 311:lvgl/lvgl/src/extra/widgets/calendar/lv_calendar.c ****         year++;
 116              		.loc 1 311 5 is_stmt 1 view .LVU21
 311:lvgl/lvgl/src/extra/widgets/calendar/lv_calendar.c ****         year++;
 117              		.loc 1 311 7 is_stmt 0 view .LVU22
 118 0006 0B2A     		cmp	r2, #11
 119 0008 01DD     		ble	.L10
 312:lvgl/lvgl/src/extra/widgets/calendar/lv_calendar.c ****         month -= 12;
 120              		.loc 1 312 9 is_stmt 1 view .LVU23
 312:lvgl/lvgl/src/extra/widgets/calendar/lv_calendar.c ****         month -= 12;
 121              		.loc 1 312 13 is_stmt 0 view .LVU24
ARM GAS  C:\Users\gx\AppData\Local\Temp\ccN8omSo.s 			page 9


 122 000a 0130     		adds	r0, r0, #1
 123              	.LVL11:
 313:lvgl/lvgl/src/extra/widgets/calendar/lv_calendar.c ****     }
 124              		.loc 1 313 9 is_stmt 1 view .LVU25
 313:lvgl/lvgl/src/extra/widgets/calendar/lv_calendar.c ****     }
 125              		.loc 1 313 15 is_stmt 0 view .LVU26
 126 000c 0C3A     		subs	r2, r2, #12
 127              	.LVL12:
 128              	.L10:
 317:lvgl/lvgl/src/extra/widgets/calendar/lv_calendar.c **** }
 129              		.loc 1 317 5 is_stmt 1 view .LVU27
 317:lvgl/lvgl/src/extra/widgets/calendar/lv_calendar.c **** }
 130              		.loc 1 317 53 is_stmt 0 view .LVU28
 131 000e 012A     		cmp	r2, #1
 132 0010 16D0     		beq	.L15
 317:lvgl/lvgl/src/extra/widgets/calendar/lv_calendar.c **** }
 133              		.loc 1 317 66 discriminator 2 view .LVU29
 134 0012 0E4B     		ldr	r3, .L16
 135 0014 83FB0213 		smull	r1, r3, r3, r2
 136 0018 9918     		adds	r1, r3, r2
 137 001a D317     		asrs	r3, r2, #31
 138 001c C3EBA103 		rsb	r3, r3, r1, asr #2
 139 0020 C3EBC303 		rsb	r3, r3, r3, lsl #3
 317:lvgl/lvgl/src/extra/widgets/calendar/lv_calendar.c **** }
 140              		.loc 1 317 70 discriminator 2 view .LVU30
 141 0024 D31A     		subs	r3, r2, r3
 142 0026 03F00103 		and	r3, r3, #1
 143 002a 48BF     		it	mi
 144 002c 5B42     		rsbmi	r3, r3, #0
 317:lvgl/lvgl/src/extra/widgets/calendar/lv_calendar.c **** }
 145              		.loc 1 317 58 discriminator 2 view .LVU31
 146 002e D8B2     		uxtb	r0, r3
 147              	.LVL13:
 317:lvgl/lvgl/src/extra/widgets/calendar/lv_calendar.c **** }
 148              		.loc 1 317 53 discriminator 2 view .LVU32
 149 0030 C0F11F00 		rsb	r0, r0, #31
 150 0034 C0B2     		uxtb	r0, r0
 151              	.LVL14:
 152              	.L12:
 318:lvgl/lvgl/src/extra/widgets/calendar/lv_calendar.c **** 
 153              		.loc 1 318 1 discriminator 4 view .LVU33
 154 0036 08BD     		pop	{r3, pc}
 155              	.LVL15:
 156              	.L14:
 308:lvgl/lvgl/src/extra/widgets/calendar/lv_calendar.c ****         month = 12 + month; /*`month` is negative, the result will be < 12*/
 157              		.loc 1 308 9 is_stmt 1 view .LVU34
 308:lvgl/lvgl/src/extra/widgets/calendar/lv_calendar.c ****         month = 12 + month; /*`month` is negative, the result will be < 12*/
 158              		.loc 1 308 13 is_stmt 0 view .LVU35
 159 0038 0138     		subs	r0, r0, #1
 160              	.LVL16:
 309:lvgl/lvgl/src/extra/widgets/calendar/lv_calendar.c ****     }
 161              		.loc 1 309 9 is_stmt 1 view .LVU36
 309:lvgl/lvgl/src/extra/widgets/calendar/lv_calendar.c ****     }
 162              		.loc 1 309 15 is_stmt 0 view .LVU37
 163 003a 01F10B02 		add	r2, r1, #11
 164              	.LVL17:
 309:lvgl/lvgl/src/extra/widgets/calendar/lv_calendar.c ****     }
ARM GAS  C:\Users\gx\AppData\Local\Temp\ccN8omSo.s 			page 10


 165              		.loc 1 309 15 view .LVU38
 166 003e E2E7     		b	.L9
 167              	.L15:
 317:lvgl/lvgl/src/extra/widgets/calendar/lv_calendar.c **** }
 168              		.loc 1 317 33 discriminator 1 view .LVU39
 169 0040 FFF7FEFF 		bl	is_leap_year
 170              	.LVL18:
 317:lvgl/lvgl/src/extra/widgets/calendar/lv_calendar.c **** }
 171              		.loc 1 317 53 discriminator 1 view .LVU40
 172 0044 1C30     		adds	r0, r0, #28
 173 0046 C0B2     		uxtb	r0, r0
 174 0048 F5E7     		b	.L12
 175              	.L17:
 176 004a 00BF     		.align	2
 177              	.L16:
 178 004c 93244992 		.word	-1840700269
 179              		.cfi_endproc
 180              	.LFE201:
 182              		.section	.text.get_day_of_week,"ax",%progbits
 183              		.align	1
 184              		.syntax unified
 185              		.thumb
 186              		.thumb_func
 187              		.fpu fpv4-sp-d16
 189              	get_day_of_week:
 190              	.LVL19:
 191              	.LFB203:
 329:lvgl/lvgl/src/extra/widgets/calendar/lv_calendar.c **** 
 330:lvgl/lvgl/src/extra/widgets/calendar/lv_calendar.c **** /**
 331:lvgl/lvgl/src/extra/widgets/calendar/lv_calendar.c ****  * Get the day of the week
 332:lvgl/lvgl/src/extra/widgets/calendar/lv_calendar.c ****  * @param year a year
 333:lvgl/lvgl/src/extra/widgets/calendar/lv_calendar.c ****  * @param month a  month [1..12]
 334:lvgl/lvgl/src/extra/widgets/calendar/lv_calendar.c ****  * @param day a day [1..32]
 335:lvgl/lvgl/src/extra/widgets/calendar/lv_calendar.c ****  * @return [0..6] which means [Sun..Sat] or [Mon..Sun] depending on LV_CALENDAR_WEEK_STARTS_MONDAY
 336:lvgl/lvgl/src/extra/widgets/calendar/lv_calendar.c ****  */
 337:lvgl/lvgl/src/extra/widgets/calendar/lv_calendar.c **** static uint8_t get_day_of_week(uint32_t year, uint32_t month, uint32_t day)
 338:lvgl/lvgl/src/extra/widgets/calendar/lv_calendar.c **** {
 192              		.loc 1 338 1 is_stmt 1 view -0
 193              		.cfi_startproc
 194              		@ args = 0, pretend = 0, frame = 0
 195              		@ frame_needed = 0, uses_anonymous_args = 0
 196              		@ link register save eliminated.
 197              		.loc 1 338 1 is_stmt 0 view .LVU42
 198 0000 10B4     		push	{r4}
 199              	.LCFI1:
 200              		.cfi_def_cfa_offset 4
 201              		.cfi_offset 4, -4
 339:lvgl/lvgl/src/extra/widgets/calendar/lv_calendar.c ****     uint32_t a = month < 3 ? 1 : 0;
 202              		.loc 1 339 5 is_stmt 1 view .LVU43
 203              		.loc 1 339 32 is_stmt 0 view .LVU44
 204 0002 0229     		cmp	r1, #2
 205 0004 94BF     		ite	ls
 206 0006 0123     		movls	r3, #1
 207 0008 0023     		movhi	r3, #0
 208              	.LVL20:
 340:lvgl/lvgl/src/extra/widgets/calendar/lv_calendar.c ****     uint32_t b = year - a;
 209              		.loc 1 340 5 is_stmt 1 view .LVU45
ARM GAS  C:\Users\gx\AppData\Local\Temp\ccN8omSo.s 			page 11


 210              		.loc 1 340 14 is_stmt 0 view .LVU46
 211 000a A0EB0300 		sub	r0, r0, r3
 212              	.LVL21:
 341:lvgl/lvgl/src/extra/widgets/calendar/lv_calendar.c **** 
 342:lvgl/lvgl/src/extra/widgets/calendar/lv_calendar.c **** #if LV_CALENDAR_WEEK_STARTS_MONDAY
 343:lvgl/lvgl/src/extra/widgets/calendar/lv_calendar.c ****     uint32_t day_of_week = (day + (31 * (month - 2 + 12 * a) / 12) + b + (b / 4) - (b / 100) + (b /
 344:lvgl/lvgl/src/extra/widgets/calendar/lv_calendar.c **** #else
 345:lvgl/lvgl/src/extra/widgets/calendar/lv_calendar.c ****     uint32_t day_of_week = (day + (31 * (month - 2 + 12 * a) / 12) + b + (b / 4) - (b / 100) + (b /
 213              		.loc 1 345 5 is_stmt 1 view .LVU47
 214              		.loc 1 345 57 is_stmt 0 view .LVU48
 215 000e 94BF     		ite	ls
 216 0010 0C24     		movls	r4, #12
 217 0012 0024     		movhi	r4, #0
 218              		.loc 1 345 52 view .LVU49
 219 0014 2144     		add	r1, r1, r4
 220              	.LVL22:
 221              		.loc 1 345 39 view .LVU50
 222 0016 C1EB4113 		rsb	r3, r1, r1, lsl #5
 223              	.LVL23:
 224              		.loc 1 345 39 view .LVU51
 225 001a 3E3B     		subs	r3, r3, #62
 226              		.loc 1 345 62 view .LVU52
 227 001c 0E49     		ldr	r1, .L20
 228 001e A1FB0313 		umull	r1, r3, r1, r3
 229              		.loc 1 345 33 view .LVU53
 230 0022 02EBD303 		add	r3, r2, r3, lsr #3
 231              		.loc 1 345 68 view .LVU54
 232 0026 0344     		add	r3, r3, r0
 233              		.loc 1 345 72 view .LVU55
 234 0028 03EB9003 		add	r3, r3, r0, lsr #2
 235              		.loc 1 345 87 view .LVU56
 236 002c 0B4A     		ldr	r2, .L20+4
 237              	.LVL24:
 238              		.loc 1 345 87 view .LVU57
 239 002e A2FB0020 		umull	r2, r0, r2, r0
 240              	.LVL25:
 241              		.loc 1 345 82 view .LVU58
 242 0032 A3EB5013 		sub	r3, r3, r0, lsr #5
 243              		.loc 1 345 94 view .LVU59
 244 0036 03EBD013 		add	r3, r3, r0, lsr #7
 245              		.loc 1 345 14 view .LVU60
 246 003a 0948     		ldr	r0, .L20+8
 247 003c A0FB0320 		umull	r2, r0, r0, r3
 248 0040 1A1A     		subs	r2, r3, r0
 249 0042 00EB5200 		add	r0, r0, r2, lsr #1
 250 0046 8008     		lsrs	r0, r0, #2
 251 0048 C0EBC000 		rsb	r0, r0, r0, lsl #3
 252 004c 181A     		subs	r0, r3, r0
 253              	.LVL26:
 346:lvgl/lvgl/src/extra/widgets/calendar/lv_calendar.c **** #endif
 347:lvgl/lvgl/src/extra/widgets/calendar/lv_calendar.c **** 
 348:lvgl/lvgl/src/extra/widgets/calendar/lv_calendar.c ****     return day_of_week  ;
 254              		.loc 1 348 5 is_stmt 1 view .LVU61
 349:lvgl/lvgl/src/extra/widgets/calendar/lv_calendar.c **** }
 255              		.loc 1 349 1 is_stmt 0 view .LVU62
 256 004e C0B2     		uxtb	r0, r0
 257              	.LVL27:
ARM GAS  C:\Users\gx\AppData\Local\Temp\ccN8omSo.s 			page 12


 258              		.loc 1 349 1 view .LVU63
 259 0050 5DF8044B 		ldr	r4, [sp], #4
 260              	.LCFI2:
 261              		.cfi_restore 4
 262              		.cfi_def_cfa_offset 0
 263 0054 7047     		bx	lr
 264              	.L21:
 265 0056 00BF     		.align	2
 266              	.L20:
 267 0058 ABAAAAAA 		.word	-1431655765
 268 005c 1F85EB51 		.word	1374389535
 269 0060 25499224 		.word	613566757
 270              		.cfi_endproc
 271              	.LFE203:
 273              		.section	.text.draw_part_begin_event_cb,"ax",%progbits
 274              		.align	1
 275              		.syntax unified
 276              		.thumb
 277              		.thumb_func
 278              		.fpu fpv4-sp-d16
 280              	draw_part_begin_event_cb:
 281              	.LVL28:
 282              	.LFB200:
 262:lvgl/lvgl/src/extra/widgets/calendar/lv_calendar.c ****     lv_obj_t * obj = lv_event_get_target(e);
 283              		.loc 1 262 1 is_stmt 1 view -0
 284              		.cfi_startproc
 285              		@ args = 0, pretend = 0, frame = 0
 286              		@ frame_needed = 0, uses_anonymous_args = 0
 262:lvgl/lvgl/src/extra/widgets/calendar/lv_calendar.c ****     lv_obj_t * obj = lv_event_get_target(e);
 287              		.loc 1 262 1 is_stmt 0 view .LVU65
 288 0000 70B5     		push	{r4, r5, r6, lr}
 289              	.LCFI3:
 290              		.cfi_def_cfa_offset 16
 291              		.cfi_offset 4, -16
 292              		.cfi_offset 5, -12
 293              		.cfi_offset 6, -8
 294              		.cfi_offset 14, -4
 295 0002 0446     		mov	r4, r0
 263:lvgl/lvgl/src/extra/widgets/calendar/lv_calendar.c ****     lv_obj_draw_part_dsc_t * dsc = lv_event_get_param(e);
 296              		.loc 1 263 5 is_stmt 1 view .LVU66
 263:lvgl/lvgl/src/extra/widgets/calendar/lv_calendar.c ****     lv_obj_draw_part_dsc_t * dsc = lv_event_get_param(e);
 297              		.loc 1 263 22 is_stmt 0 view .LVU67
 298 0004 FFF7FEFF 		bl	lv_event_get_target
 299              	.LVL29:
 263:lvgl/lvgl/src/extra/widgets/calendar/lv_calendar.c ****     lv_obj_draw_part_dsc_t * dsc = lv_event_get_param(e);
 300              		.loc 1 263 22 view .LVU68
 301 0008 0546     		mov	r5, r0
 302              	.LVL30:
 264:lvgl/lvgl/src/extra/widgets/calendar/lv_calendar.c ****     if(dsc->part == LV_PART_ITEMS) {
 303              		.loc 1 264 5 is_stmt 1 view .LVU69
 264:lvgl/lvgl/src/extra/widgets/calendar/lv_calendar.c ****     if(dsc->part == LV_PART_ITEMS) {
 304              		.loc 1 264 36 is_stmt 0 view .LVU70
 305 000a 2046     		mov	r0, r4
 306              	.LVL31:
 264:lvgl/lvgl/src/extra/widgets/calendar/lv_calendar.c ****     if(dsc->part == LV_PART_ITEMS) {
 307              		.loc 1 264 36 view .LVU71
 308 000c FFF7FEFF 		bl	lv_event_get_param
ARM GAS  C:\Users\gx\AppData\Local\Temp\ccN8omSo.s 			page 13


 309              	.LVL32:
 265:lvgl/lvgl/src/extra/widgets/calendar/lv_calendar.c ****         /*Day name styles*/
 310              		.loc 1 265 5 is_stmt 1 view .LVU72
 265:lvgl/lvgl/src/extra/widgets/calendar/lv_calendar.c ****         /*Day name styles*/
 311              		.loc 1 265 11 is_stmt 0 view .LVU73
 312 0010 036B     		ldr	r3, [r0, #48]
 265:lvgl/lvgl/src/extra/widgets/calendar/lv_calendar.c ****         /*Day name styles*/
 313              		.loc 1 265 7 view .LVU74
 314 0012 B3F5A02F 		cmp	r3, #327680
 315 0016 00D0     		beq	.L28
 316              	.LVL33:
 317              	.L22:
 292:lvgl/lvgl/src/extra/widgets/calendar/lv_calendar.c **** 
 318              		.loc 1 292 1 view .LVU75
 319 0018 70BD     		pop	{r4, r5, r6, pc}
 320              	.LVL34:
 321              	.L28:
 292:lvgl/lvgl/src/extra/widgets/calendar/lv_calendar.c **** 
 322              		.loc 1 292 1 view .LVU76
 323 001a 0446     		mov	r4, r0
 324              	.LVL35:
 267:lvgl/lvgl/src/extra/widgets/calendar/lv_calendar.c ****             dsc->rect_dsc->bg_opa = LV_OPA_TRANSP;
 325              		.loc 1 267 9 is_stmt 1 view .LVU77
 267:lvgl/lvgl/src/extra/widgets/calendar/lv_calendar.c ****             dsc->rect_dsc->bg_opa = LV_OPA_TRANSP;
 326              		.loc 1 267 15 is_stmt 0 view .LVU78
 327 001c 416B     		ldr	r1, [r0, #52]
 267:lvgl/lvgl/src/extra/widgets/calendar/lv_calendar.c ****             dsc->rect_dsc->bg_opa = LV_OPA_TRANSP;
 328              		.loc 1 267 11 view .LVU79
 329 001e 0629     		cmp	r1, #6
 330 0020 20D8     		bhi	.L24
 268:lvgl/lvgl/src/extra/widgets/calendar/lv_calendar.c ****             dsc->rect_dsc->border_opa = LV_OPA_TRANSP;
 331              		.loc 1 268 13 is_stmt 1 view .LVU80
 268:lvgl/lvgl/src/extra/widgets/calendar/lv_calendar.c ****             dsc->rect_dsc->border_opa = LV_OPA_TRANSP;
 332              		.loc 1 268 16 is_stmt 0 view .LVU81
 333 0022 0269     		ldr	r2, [r0, #16]
 268:lvgl/lvgl/src/extra/widgets/calendar/lv_calendar.c ****             dsc->rect_dsc->border_opa = LV_OPA_TRANSP;
 334              		.loc 1 268 35 view .LVU82
 335 0024 0023     		movs	r3, #0
 336 0026 9372     		strb	r3, [r2, #10]
 269:lvgl/lvgl/src/extra/widgets/calendar/lv_calendar.c ****         }
 337              		.loc 1 269 13 is_stmt 1 view .LVU83
 269:lvgl/lvgl/src/extra/widgets/calendar/lv_calendar.c ****         }
 338              		.loc 1 269 16 is_stmt 0 view .LVU84
 339 0028 0269     		ldr	r2, [r0, #16]
 269:lvgl/lvgl/src/extra/widgets/calendar/lv_calendar.c ****         }
 340              		.loc 1 269 39 view .LVU85
 341 002a 9377     		strb	r3, [r2, #30]
 342              	.LVL36:
 343              	.L25:
 277:lvgl/lvgl/src/extra/widgets/calendar/lv_calendar.c ****             dsc->rect_dsc->bg_opa = LV_OPA_40;
 344              		.loc 1 277 9 is_stmt 1 view .LVU86
 277:lvgl/lvgl/src/extra/widgets/calendar/lv_calendar.c ****             dsc->rect_dsc->bg_opa = LV_OPA_40;
 345              		.loc 1 277 12 is_stmt 0 view .LVU87
 346 002c 4FF40042 		mov	r2, #32768
 347 0030 A18E     		ldrh	r1, [r4, #52]
 348 0032 2846     		mov	r0, r5
 349 0034 FFF7FEFF 		bl	lv_btnmatrix_has_btn_ctrl
ARM GAS  C:\Users\gx\AppData\Local\Temp\ccN8omSo.s 			page 14


 350              	.LVL37:
 277:lvgl/lvgl/src/extra/widgets/calendar/lv_calendar.c ****             dsc->rect_dsc->bg_opa = LV_OPA_40;
 351              		.loc 1 277 11 view .LVU88
 352 0038 30BB     		cbnz	r0, .L29
 353              	.L26:
 285:lvgl/lvgl/src/extra/widgets/calendar/lv_calendar.c ****             dsc->rect_dsc->border_opa = LV_OPA_COVER;
 354              		.loc 1 285 9 is_stmt 1 view .LVU89
 285:lvgl/lvgl/src/extra/widgets/calendar/lv_calendar.c ****             dsc->rect_dsc->border_opa = LV_OPA_COVER;
 355              		.loc 1 285 12 is_stmt 0 view .LVU90
 356 003a 4FF48042 		mov	r2, #16384
 357 003e A18E     		ldrh	r1, [r4, #52]
 358 0040 2846     		mov	r0, r5
 359 0042 FFF7FEFF 		bl	lv_btnmatrix_has_btn_ctrl
 360              	.LVL38:
 285:lvgl/lvgl/src/extra/widgets/calendar/lv_calendar.c ****             dsc->rect_dsc->border_opa = LV_OPA_COVER;
 361              		.loc 1 285 11 view .LVU91
 362 0046 0028     		cmp	r0, #0
 363 0048 E6D0     		beq	.L22
 286:lvgl/lvgl/src/extra/widgets/calendar/lv_calendar.c ****             dsc->rect_dsc->border_color = lv_theme_get_color_primary(obj);
 364              		.loc 1 286 13 is_stmt 1 view .LVU92
 286:lvgl/lvgl/src/extra/widgets/calendar/lv_calendar.c ****             dsc->rect_dsc->border_color = lv_theme_get_color_primary(obj);
 365              		.loc 1 286 16 is_stmt 0 view .LVU93
 366 004a 2369     		ldr	r3, [r4, #16]
 286:lvgl/lvgl/src/extra/widgets/calendar/lv_calendar.c ****             dsc->rect_dsc->border_color = lv_theme_get_color_primary(obj);
 367              		.loc 1 286 39 view .LVU94
 368 004c FF22     		movs	r2, #255
 369 004e 9A77     		strb	r2, [r3, #30]
 287:lvgl/lvgl/src/extra/widgets/calendar/lv_calendar.c ****             dsc->rect_dsc->border_width += 1;
 370              		.loc 1 287 13 is_stmt 1 view .LVU95
 287:lvgl/lvgl/src/extra/widgets/calendar/lv_calendar.c ****             dsc->rect_dsc->border_width += 1;
 371              		.loc 1 287 16 is_stmt 0 view .LVU96
 372 0050 2669     		ldr	r6, [r4, #16]
 287:lvgl/lvgl/src/extra/widgets/calendar/lv_calendar.c ****             dsc->rect_dsc->border_width += 1;
 373              		.loc 1 287 43 view .LVU97
 374 0052 2846     		mov	r0, r5
 375 0054 FFF7FEFF 		bl	lv_theme_get_color_primary
 376              	.LVL39:
 377 0058 7083     		strh	r0, [r6, #26]	@ movhi
 288:lvgl/lvgl/src/extra/widgets/calendar/lv_calendar.c ****         }
 378              		.loc 1 288 13 is_stmt 1 view .LVU98
 288:lvgl/lvgl/src/extra/widgets/calendar/lv_calendar.c ****         }
 379              		.loc 1 288 16 is_stmt 0 view .LVU99
 380 005a 2269     		ldr	r2, [r4, #16]
 288:lvgl/lvgl/src/extra/widgets/calendar/lv_calendar.c ****         }
 381              		.loc 1 288 41 view .LVU100
 382 005c 938B     		ldrh	r3, [r2, #28]
 383 005e 0133     		adds	r3, r3, #1
 384 0060 9383     		strh	r3, [r2, #28]	@ movhi
 292:lvgl/lvgl/src/extra/widgets/calendar/lv_calendar.c **** 
 385              		.loc 1 292 1 view .LVU101
 386 0062 D9E7     		b	.L22
 387              	.LVL40:
 388              	.L24:
 271:lvgl/lvgl/src/extra/widgets/calendar/lv_calendar.c ****             dsc->rect_dsc->bg_opa = LV_OPA_TRANSP;
 389              		.loc 1 271 14 is_stmt 1 view .LVU102
 271:lvgl/lvgl/src/extra/widgets/calendar/lv_calendar.c ****             dsc->rect_dsc->bg_opa = LV_OPA_TRANSP;
 390              		.loc 1 271 17 is_stmt 0 view .LVU103
ARM GAS  C:\Users\gx\AppData\Local\Temp\ccN8omSo.s 			page 15


 391 0064 2022     		movs	r2, #32
 392 0066 89B2     		uxth	r1, r1
 393 0068 2846     		mov	r0, r5
 394              	.LVL41:
 271:lvgl/lvgl/src/extra/widgets/calendar/lv_calendar.c ****             dsc->rect_dsc->bg_opa = LV_OPA_TRANSP;
 395              		.loc 1 271 17 view .LVU104
 396 006a FFF7FEFF 		bl	lv_btnmatrix_has_btn_ctrl
 397              	.LVL42:
 271:lvgl/lvgl/src/extra/widgets/calendar/lv_calendar.c ****             dsc->rect_dsc->bg_opa = LV_OPA_TRANSP;
 398              		.loc 1 271 16 view .LVU105
 399 006e 0028     		cmp	r0, #0
 400 0070 DCD0     		beq	.L25
 272:lvgl/lvgl/src/extra/widgets/calendar/lv_calendar.c ****             dsc->rect_dsc->border_opa = LV_OPA_TRANSP;
 401              		.loc 1 272 13 is_stmt 1 view .LVU106
 272:lvgl/lvgl/src/extra/widgets/calendar/lv_calendar.c ****             dsc->rect_dsc->border_opa = LV_OPA_TRANSP;
 402              		.loc 1 272 16 is_stmt 0 view .LVU107
 403 0072 2269     		ldr	r2, [r4, #16]
 272:lvgl/lvgl/src/extra/widgets/calendar/lv_calendar.c ****             dsc->rect_dsc->border_opa = LV_OPA_TRANSP;
 404              		.loc 1 272 35 view .LVU108
 405 0074 0023     		movs	r3, #0
 406 0076 9372     		strb	r3, [r2, #10]
 273:lvgl/lvgl/src/extra/widgets/calendar/lv_calendar.c ****             dsc->label_dsc->color = lv_palette_main(LV_PALETTE_GREY);
 407              		.loc 1 273 13 is_stmt 1 view .LVU109
 273:lvgl/lvgl/src/extra/widgets/calendar/lv_calendar.c ****             dsc->label_dsc->color = lv_palette_main(LV_PALETTE_GREY);
 408              		.loc 1 273 16 is_stmt 0 view .LVU110
 409 0078 2269     		ldr	r2, [r4, #16]
 273:lvgl/lvgl/src/extra/widgets/calendar/lv_calendar.c ****             dsc->label_dsc->color = lv_palette_main(LV_PALETTE_GREY);
 410              		.loc 1 273 39 view .LVU111
 411 007a 9377     		strb	r3, [r2, #30]
 274:lvgl/lvgl/src/extra/widgets/calendar/lv_calendar.c ****         }
 412              		.loc 1 274 13 is_stmt 1 view .LVU112
 274:lvgl/lvgl/src/extra/widgets/calendar/lv_calendar.c ****         }
 413              		.loc 1 274 16 is_stmt 0 view .LVU113
 414 007c 6669     		ldr	r6, [r4, #20]
 274:lvgl/lvgl/src/extra/widgets/calendar/lv_calendar.c ****         }
 415              		.loc 1 274 37 view .LVU114
 416 007e 1220     		movs	r0, #18
 417 0080 FFF7FEFF 		bl	lv_palette_main
 418              	.LVL43:
 419 0084 B081     		strh	r0, [r6, #12]	@ movhi
 420 0086 D1E7     		b	.L25
 421              	.L29:
 278:lvgl/lvgl/src/extra/widgets/calendar/lv_calendar.c ****             dsc->rect_dsc->bg_color = lv_theme_get_color_primary(obj);
 422              		.loc 1 278 13 is_stmt 1 view .LVU115
 278:lvgl/lvgl/src/extra/widgets/calendar/lv_calendar.c ****             dsc->rect_dsc->bg_color = lv_theme_get_color_primary(obj);
 423              		.loc 1 278 16 is_stmt 0 view .LVU116
 424 0088 2369     		ldr	r3, [r4, #16]
 278:lvgl/lvgl/src/extra/widgets/calendar/lv_calendar.c ****             dsc->rect_dsc->bg_color = lv_theme_get_color_primary(obj);
 425              		.loc 1 278 35 view .LVU117
 426 008a 6622     		movs	r2, #102
 427 008c 9A72     		strb	r2, [r3, #10]
 279:lvgl/lvgl/src/extra/widgets/calendar/lv_calendar.c ****             if(lv_btnmatrix_get_selected_btn(obj) == dsc->id) {
 428              		.loc 1 279 13 is_stmt 1 view .LVU118
 279:lvgl/lvgl/src/extra/widgets/calendar/lv_calendar.c ****             if(lv_btnmatrix_get_selected_btn(obj) == dsc->id) {
 429              		.loc 1 279 16 is_stmt 0 view .LVU119
 430 008e 2669     		ldr	r6, [r4, #16]
 279:lvgl/lvgl/src/extra/widgets/calendar/lv_calendar.c ****             if(lv_btnmatrix_get_selected_btn(obj) == dsc->id) {
ARM GAS  C:\Users\gx\AppData\Local\Temp\ccN8omSo.s 			page 16


 431              		.loc 1 279 39 view .LVU120
 432 0090 2846     		mov	r0, r5
 433 0092 FFF7FEFF 		bl	lv_theme_get_color_primary
 434              	.LVL44:
 435 0096 B080     		strh	r0, [r6, #4]	@ movhi
 280:lvgl/lvgl/src/extra/widgets/calendar/lv_calendar.c ****                 dsc->rect_dsc->bg_opa = LV_OPA_70;
 436              		.loc 1 280 13 is_stmt 1 view .LVU121
 280:lvgl/lvgl/src/extra/widgets/calendar/lv_calendar.c ****                 dsc->rect_dsc->bg_opa = LV_OPA_70;
 437              		.loc 1 280 16 is_stmt 0 view .LVU122
 438 0098 2846     		mov	r0, r5
 439 009a FFF7FEFF 		bl	lv_btnmatrix_get_selected_btn
 440              	.LVL45:
 280:lvgl/lvgl/src/extra/widgets/calendar/lv_calendar.c ****                 dsc->rect_dsc->bg_opa = LV_OPA_70;
 441              		.loc 1 280 57 view .LVU123
 442 009e 636B     		ldr	r3, [r4, #52]
 280:lvgl/lvgl/src/extra/widgets/calendar/lv_calendar.c ****                 dsc->rect_dsc->bg_opa = LV_OPA_70;
 443              		.loc 1 280 15 view .LVU124
 444 00a0 9842     		cmp	r0, r3
 445 00a2 CAD1     		bne	.L26
 281:lvgl/lvgl/src/extra/widgets/calendar/lv_calendar.c ****             }
 446              		.loc 1 281 17 is_stmt 1 view .LVU125
 281:lvgl/lvgl/src/extra/widgets/calendar/lv_calendar.c ****             }
 447              		.loc 1 281 20 is_stmt 0 view .LVU126
 448 00a4 2369     		ldr	r3, [r4, #16]
 281:lvgl/lvgl/src/extra/widgets/calendar/lv_calendar.c ****             }
 449              		.loc 1 281 39 view .LVU127
 450 00a6 B222     		movs	r2, #178
 451 00a8 9A72     		strb	r2, [r3, #10]
 452 00aa C6E7     		b	.L26
 453              		.cfi_endproc
 454              	.LFE200:
 456              		.section	.text.highlight_update,"ax",%progbits
 457              		.align	1
 458              		.syntax unified
 459              		.thumb
 460              		.thumb_func
 461              		.fpu fpv4-sp-d16
 463              	highlight_update:
 464              	.LVL46:
 465              	.LFB204:
 350:lvgl/lvgl/src/extra/widgets/calendar/lv_calendar.c **** 
 351:lvgl/lvgl/src/extra/widgets/calendar/lv_calendar.c **** static void highlight_update(lv_obj_t * obj)
 352:lvgl/lvgl/src/extra/widgets/calendar/lv_calendar.c **** {
 466              		.loc 1 352 1 is_stmt 1 view -0
 467              		.cfi_startproc
 468              		@ args = 0, pretend = 0, frame = 0
 469              		@ frame_needed = 0, uses_anonymous_args = 0
 470              		.loc 1 352 1 is_stmt 0 view .LVU129
 471 0000 70B5     		push	{r4, r5, r6, lr}
 472              	.LCFI4:
 473              		.cfi_def_cfa_offset 16
 474              		.cfi_offset 4, -16
 475              		.cfi_offset 5, -12
 476              		.cfi_offset 6, -8
 477              		.cfi_offset 14, -4
 478 0002 0546     		mov	r5, r0
 353:lvgl/lvgl/src/extra/widgets/calendar/lv_calendar.c ****     lv_calendar_t * calendar = (lv_calendar_t *)obj;
ARM GAS  C:\Users\gx\AppData\Local\Temp\ccN8omSo.s 			page 17


 479              		.loc 1 353 5 is_stmt 1 view .LVU130
 480              	.LVL47:
 354:lvgl/lvgl/src/extra/widgets/calendar/lv_calendar.c ****     uint16_t i;
 481              		.loc 1 354 5 view .LVU131
 355:lvgl/lvgl/src/extra/widgets/calendar/lv_calendar.c **** 
 356:lvgl/lvgl/src/extra/widgets/calendar/lv_calendar.c ****     /*Clear all kind of selection*/
 357:lvgl/lvgl/src/extra/widgets/calendar/lv_calendar.c ****     lv_btnmatrix_clear_btn_ctrl_all(obj, LV_CALENDAR_CTRL_TODAY | LV_CALENDAR_CTRL_HIGHLIGHT);
 482              		.loc 1 357 5 view .LVU132
 483 0004 4FF44041 		mov	r1, #49152
 484 0008 FFF7FEFF 		bl	lv_btnmatrix_clear_btn_ctrl_all
 485              	.LVL48:
 358:lvgl/lvgl/src/extra/widgets/calendar/lv_calendar.c **** 
 359:lvgl/lvgl/src/extra/widgets/calendar/lv_calendar.c ****     uint8_t day_first = get_day_of_week(calendar->showed_date.year, calendar->showed_date.month, 1)
 486              		.loc 1 359 5 view .LVU133
 487              		.loc 1 359 25 is_stmt 0 view .LVU134
 488 000c 0122     		movs	r2, #1
 489 000e 95F93E10 		ldrsb	r1, [r5, #62]
 490 0012 A88F     		ldrh	r0, [r5, #60]
 491 0014 FFF7FEFF 		bl	get_day_of_week
 492              	.LVL49:
 493 0018 0646     		mov	r6, r0
 494              	.LVL50:
 360:lvgl/lvgl/src/extra/widgets/calendar/lv_calendar.c ****     if(calendar->highlighted_dates) {
 495              		.loc 1 360 5 is_stmt 1 view .LVU135
 496              		.loc 1 360 16 is_stmt 0 view .LVU136
 497 001a 2B6C     		ldr	r3, [r5, #64]
 498              		.loc 1 360 7 view .LVU137
 499 001c 13B3     		cbz	r3, .L32
 361:lvgl/lvgl/src/extra/widgets/calendar/lv_calendar.c ****         for(i = 0; i < calendar->highlighted_dates_num; i++) {
 500              		.loc 1 361 15 view .LVU138
 501 001e 0024     		movs	r4, #0
 502 0020 01E0     		b	.L31
 503              	.LVL51:
 504              	.L33:
 505              		.loc 1 361 57 is_stmt 1 discriminator 2 view .LVU139
 506              		.loc 1 361 58 is_stmt 0 discriminator 2 view .LVU140
 507 0022 0134     		adds	r4, r4, #1
 508              	.LVL52:
 509              		.loc 1 361 58 discriminator 2 view .LVU141
 510 0024 A4B2     		uxth	r4, r4
 511              	.LVL53:
 512              	.L31:
 513              		.loc 1 361 20 is_stmt 1 discriminator 1 view .LVU142
 514              		.loc 1 361 32 is_stmt 0 discriminator 1 view .LVU143
 515 0026 B5F84430 		ldrh	r3, [r5, #68]
 516              		.loc 1 361 9 discriminator 1 view .LVU144
 517 002a A342     		cmp	r3, r4
 518 002c 1AD9     		bls	.L32
 362:lvgl/lvgl/src/extra/widgets/calendar/lv_calendar.c ****             if(calendar->highlighted_dates[i].year == calendar->showed_date.year && calendar->highl
 519              		.loc 1 362 13 is_stmt 1 view .LVU145
 520              		.loc 1 362 24 is_stmt 0 view .LVU146
 521 002e 2B6C     		ldr	r3, [r5, #64]
 522              		.loc 1 362 43 view .LVU147
 523 0030 03EB8401 		add	r1, r3, r4, lsl #2
 524              		.loc 1 362 46 view .LVU148
 525 0034 33F82420 		ldrh	r2, [r3, r4, lsl #2]
 526              		.loc 1 362 76 view .LVU149
ARM GAS  C:\Users\gx\AppData\Local\Temp\ccN8omSo.s 			page 18


 527 0038 AB8F     		ldrh	r3, [r5, #60]
 528              		.loc 1 362 15 view .LVU150
 529 003a 9A42     		cmp	r2, r3
 530 003c F1D1     		bne	.L33
 531              		.loc 1 362 115 discriminator 1 view .LVU151
 532 003e 91F90220 		ldrsb	r2, [r1, #2]
 533              		.loc 1 362 146 discriminator 1 view .LVU152
 534 0042 95F93E30 		ldrsb	r3, [r5, #62]
 535              		.loc 1 362 82 discriminator 1 view .LVU153
 536 0046 9A42     		cmp	r2, r3
 537 0048 EBD1     		bne	.L33
 363:lvgl/lvgl/src/extra/widgets/calendar/lv_calendar.c ****                 lv_btnmatrix_set_btn_ctrl(obj, calendar->highlighted_dates[i].day - 1 + day_first +
 538              		.loc 1 363 17 is_stmt 1 view .LVU154
 539              		.loc 1 363 78 is_stmt 0 view .LVU155
 540 004a 91F90310 		ldrsb	r1, [r1, #3]
 541              		.loc 1 363 87 view .LVU156
 542 004e 16FA81F1 		uxtah	r1, r6, r1
 543 0052 89B2     		uxth	r1, r1
 544              		.loc 1 363 17 view .LVU157
 545 0054 0631     		adds	r1, r1, #6
 546 0056 4FF40042 		mov	r2, #32768
 547 005a 89B2     		uxth	r1, r1
 548 005c 2846     		mov	r0, r5
 549 005e FFF7FEFF 		bl	lv_btnmatrix_set_btn_ctrl
 550              	.LVL54:
 551 0062 DEE7     		b	.L33
 552              	.LVL55:
 553              	.L32:
 364:lvgl/lvgl/src/extra/widgets/calendar/lv_calendar.c ****             }
 365:lvgl/lvgl/src/extra/widgets/calendar/lv_calendar.c ****         }
 366:lvgl/lvgl/src/extra/widgets/calendar/lv_calendar.c ****     }
 367:lvgl/lvgl/src/extra/widgets/calendar/lv_calendar.c **** 
 368:lvgl/lvgl/src/extra/widgets/calendar/lv_calendar.c ****     if(calendar->showed_date.year == calendar->today.year && calendar->showed_date.month == calenda
 554              		.loc 1 368 5 is_stmt 1 view .LVU158
 555              		.loc 1 368 59 is_stmt 0 view .LVU159
 556 0064 EB6B     		ldr	r3, [r5, #60]
 557 0066 23F07F42 		bic	r2, r3, #-16777216
 558 006a AB6B     		ldr	r3, [r5, #56]
 559 006c 23F07F43 		bic	r3, r3, #-16777216
 560              		.loc 1 368 7 view .LVU160
 561 0070 9A42     		cmp	r2, r3
 562 0072 00D0     		beq	.L38
 563              	.L30:
 369:lvgl/lvgl/src/extra/widgets/calendar/lv_calendar.c ****         lv_btnmatrix_set_btn_ctrl(obj, calendar->today.day - 1 + day_first + 7, LV_CALENDAR_CTRL_TO
 370:lvgl/lvgl/src/extra/widgets/calendar/lv_calendar.c ****     }
 371:lvgl/lvgl/src/extra/widgets/calendar/lv_calendar.c **** }
 564              		.loc 1 371 1 view .LVU161
 565 0074 70BD     		pop	{r4, r5, r6, pc}
 566              	.LVL56:
 567              	.L38:
 369:lvgl/lvgl/src/extra/widgets/calendar/lv_calendar.c ****         lv_btnmatrix_set_btn_ctrl(obj, calendar->today.day - 1 + day_first + 7, LV_CALENDAR_CTRL_TO
 568              		.loc 1 369 9 is_stmt 1 view .LVU162
 369:lvgl/lvgl/src/extra/widgets/calendar/lv_calendar.c ****         lv_btnmatrix_set_btn_ctrl(obj, calendar->today.day - 1 + day_first + 7, LV_CALENDAR_CTRL_TO
 569              		.loc 1 369 55 is_stmt 0 view .LVU163
 570 0076 95F93B10 		ldrsb	r1, [r5, #59]
 369:lvgl/lvgl/src/extra/widgets/calendar/lv_calendar.c ****         lv_btnmatrix_set_btn_ctrl(obj, calendar->today.day - 1 + day_first + 7, LV_CALENDAR_CTRL_TO
 571              		.loc 1 369 64 view .LVU164
ARM GAS  C:\Users\gx\AppData\Local\Temp\ccN8omSo.s 			page 19


 572 007a 16FA81F1 		uxtah	r1, r6, r1
 573 007e 89B2     		uxth	r1, r1
 369:lvgl/lvgl/src/extra/widgets/calendar/lv_calendar.c ****         lv_btnmatrix_set_btn_ctrl(obj, calendar->today.day - 1 + day_first + 7, LV_CALENDAR_CTRL_TO
 574              		.loc 1 369 9 view .LVU165
 575 0080 0631     		adds	r1, r1, #6
 576 0082 4FF48042 		mov	r2, #16384
 577 0086 89B2     		uxth	r1, r1
 578 0088 2846     		mov	r0, r5
 579 008a FFF7FEFF 		bl	lv_btnmatrix_set_btn_ctrl
 580              	.LVL57:
 581              		.loc 1 371 1 view .LVU166
 582 008e F1E7     		b	.L30
 583              		.cfi_endproc
 584              	.LFE204:
 586              		.section	.text.lv_calendar_create,"ax",%progbits
 587              		.align	1
 588              		.global	lv_calendar_create
 589              		.syntax unified
 590              		.thumb
 591              		.thumb_func
 592              		.fpu fpv4-sp-d16
 594              	lv_calendar_create:
 595              	.LVL58:
 596              	.LFB189:
  58:lvgl/lvgl/src/extra/widgets/calendar/lv_calendar.c ****     LV_LOG_INFO("begin")
 597              		.loc 1 58 1 is_stmt 1 view -0
 598              		.cfi_startproc
 599              		@ args = 0, pretend = 0, frame = 0
 600              		@ frame_needed = 0, uses_anonymous_args = 0
  58:lvgl/lvgl/src/extra/widgets/calendar/lv_calendar.c ****     LV_LOG_INFO("begin")
 601              		.loc 1 58 1 is_stmt 0 view .LVU168
 602 0000 10B5     		push	{r4, lr}
 603              	.LCFI5:
 604              		.cfi_def_cfa_offset 8
 605              		.cfi_offset 4, -8
 606              		.cfi_offset 14, -4
 607 0002 0146     		mov	r1, r0
  59:lvgl/lvgl/src/extra/widgets/calendar/lv_calendar.c ****     lv_obj_t * obj = lv_obj_class_create_obj(&lv_calendar_class, parent);
 608              		.loc 1 59 5 is_stmt 1 view .LVU169
  59:lvgl/lvgl/src/extra/widgets/calendar/lv_calendar.c ****     lv_obj_t * obj = lv_obj_class_create_obj(&lv_calendar_class, parent);
 609              		.loc 1 59 5 view .LVU170
  59:lvgl/lvgl/src/extra/widgets/calendar/lv_calendar.c ****     lv_obj_t * obj = lv_obj_class_create_obj(&lv_calendar_class, parent);
 610              		.loc 1 59 5 view .LVU171
  60:lvgl/lvgl/src/extra/widgets/calendar/lv_calendar.c ****     lv_obj_class_init_obj(obj);
 611              		.loc 1 60 5 view .LVU172
  60:lvgl/lvgl/src/extra/widgets/calendar/lv_calendar.c ****     lv_obj_class_init_obj(obj);
 612              		.loc 1 60 22 is_stmt 0 view .LVU173
 613 0004 0348     		ldr	r0, .L41
 614              	.LVL59:
  60:lvgl/lvgl/src/extra/widgets/calendar/lv_calendar.c ****     lv_obj_class_init_obj(obj);
 615              		.loc 1 60 22 view .LVU174
 616 0006 FFF7FEFF 		bl	lv_obj_class_create_obj
 617              	.LVL60:
  60:lvgl/lvgl/src/extra/widgets/calendar/lv_calendar.c ****     lv_obj_class_init_obj(obj);
 618              		.loc 1 60 22 view .LVU175
 619 000a 0446     		mov	r4, r0
 620              	.LVL61:
ARM GAS  C:\Users\gx\AppData\Local\Temp\ccN8omSo.s 			page 20


  61:lvgl/lvgl/src/extra/widgets/calendar/lv_calendar.c ****     return obj;
 621              		.loc 1 61 5 is_stmt 1 view .LVU176
 622 000c FFF7FEFF 		bl	lv_obj_class_init_obj
 623              	.LVL62:
  62:lvgl/lvgl/src/extra/widgets/calendar/lv_calendar.c **** }
 624              		.loc 1 62 5 view .LVU177
  63:lvgl/lvgl/src/extra/widgets/calendar/lv_calendar.c **** 
 625              		.loc 1 63 1 is_stmt 0 view .LVU178
 626 0010 2046     		mov	r0, r4
 627 0012 10BD     		pop	{r4, pc}
 628              	.LVL63:
 629              	.L42:
  63:lvgl/lvgl/src/extra/widgets/calendar/lv_calendar.c **** 
 630              		.loc 1 63 1 view .LVU179
 631              		.align	2
 632              	.L41:
 633 0014 00000000 		.word	.LANCHOR0
 634              		.cfi_endproc
 635              	.LFE189:
 637              		.section	.text.lv_calendar_set_day_names,"ax",%progbits
 638              		.align	1
 639              		.global	lv_calendar_set_day_names
 640              		.syntax unified
 641              		.thumb
 642              		.thumb_func
 643              		.fpu fpv4-sp-d16
 645              	lv_calendar_set_day_names:
 646              	.LVL64:
 647              	.LFB190:
  70:lvgl/lvgl/src/extra/widgets/calendar/lv_calendar.c ****     lv_calendar_t * calendar = (lv_calendar_t *)obj;
 648              		.loc 1 70 1 is_stmt 1 view -0
 649              		.cfi_startproc
 650              		@ args = 0, pretend = 0, frame = 0
 651              		@ frame_needed = 0, uses_anonymous_args = 0
 652              		@ link register save eliminated.
  71:lvgl/lvgl/src/extra/widgets/calendar/lv_calendar.c ****     uint32_t i;
 653              		.loc 1 71 5 view .LVU181
  72:lvgl/lvgl/src/extra/widgets/calendar/lv_calendar.c ****     for(i = 0; i < 7; i++) {
 654              		.loc 1 72 5 view .LVU182
  73:lvgl/lvgl/src/extra/widgets/calendar/lv_calendar.c ****         calendar->map[i] = day_names[i];
 655              		.loc 1 73 5 view .LVU183
  73:lvgl/lvgl/src/extra/widgets/calendar/lv_calendar.c ****         calendar->map[i] = day_names[i];
 656              		.loc 1 73 11 is_stmt 0 view .LVU184
 657 0000 0023     		movs	r3, #0
 658              	.LVL65:
  73:lvgl/lvgl/src/extra/widgets/calendar/lv_calendar.c ****         calendar->map[i] = day_names[i];
 659              		.loc 1 73 16 is_stmt 1 view .LVU185
  73:lvgl/lvgl/src/extra/widgets/calendar/lv_calendar.c ****         calendar->map[i] = day_names[i];
 660              		.loc 1 73 5 is_stmt 0 view .LVU186
 661 0002 062B     		cmp	r3, #6
 662 0004 0CD8     		bhi	.L49
  70:lvgl/lvgl/src/extra/widgets/calendar/lv_calendar.c ****     lv_calendar_t * calendar = (lv_calendar_t *)obj;
 663              		.loc 1 70 1 view .LVU187
 664 0006 10B4     		push	{r4}
 665              	.LCFI6:
 666              		.cfi_def_cfa_offset 4
 667              		.cfi_offset 4, -4
ARM GAS  C:\Users\gx\AppData\Local\Temp\ccN8omSo.s 			page 21


 668              	.L45:
  74:lvgl/lvgl/src/extra/widgets/calendar/lv_calendar.c ****     }
 669              		.loc 1 74 9 is_stmt 1 discriminator 3 view .LVU188
  74:lvgl/lvgl/src/extra/widgets/calendar/lv_calendar.c ****     }
 670              		.loc 1 74 37 is_stmt 0 discriminator 3 view .LVU189
 671 0008 51F82340 		ldr	r4, [r1, r3, lsl #2]
  74:lvgl/lvgl/src/extra/widgets/calendar/lv_calendar.c ****     }
 672              		.loc 1 74 26 discriminator 3 view .LVU190
 673 000c 03F11202 		add	r2, r3, #18
 674 0010 40F82240 		str	r4, [r0, r2, lsl #2]
  73:lvgl/lvgl/src/extra/widgets/calendar/lv_calendar.c ****         calendar->map[i] = day_names[i];
 675              		.loc 1 73 23 is_stmt 1 discriminator 3 view .LVU191
  73:lvgl/lvgl/src/extra/widgets/calendar/lv_calendar.c ****         calendar->map[i] = day_names[i];
 676              		.loc 1 73 24 is_stmt 0 discriminator 3 view .LVU192
 677 0014 0133     		adds	r3, r3, #1
 678              	.LVL66:
  73:lvgl/lvgl/src/extra/widgets/calendar/lv_calendar.c ****         calendar->map[i] = day_names[i];
 679              		.loc 1 73 16 is_stmt 1 discriminator 3 view .LVU193
  73:lvgl/lvgl/src/extra/widgets/calendar/lv_calendar.c ****         calendar->map[i] = day_names[i];
 680              		.loc 1 73 5 is_stmt 0 discriminator 3 view .LVU194
 681 0016 062B     		cmp	r3, #6
 682 0018 F6D9     		bls	.L45
  76:lvgl/lvgl/src/extra/widgets/calendar/lv_calendar.c **** 
 683              		.loc 1 76 1 view .LVU195
 684 001a 5DF8044B 		ldr	r4, [sp], #4
 685              	.LCFI7:
 686              		.cfi_restore 4
 687              		.cfi_def_cfa_offset 0
 688 001e 7047     		bx	lr
 689              	.L49:
  76:lvgl/lvgl/src/extra/widgets/calendar/lv_calendar.c **** 
 690              		.loc 1 76 1 view .LVU196
 691 0020 7047     		bx	lr
 692              		.cfi_endproc
 693              	.LFE190:
 695              		.section	.text.lv_calendar_set_today_date,"ax",%progbits
 696              		.align	1
 697              		.global	lv_calendar_set_today_date
 698              		.syntax unified
 699              		.thumb
 700              		.thumb_func
 701              		.fpu fpv4-sp-d16
 703              	lv_calendar_set_today_date:
 704              	.LVL67:
 705              	.LFB191:
  79:lvgl/lvgl/src/extra/widgets/calendar/lv_calendar.c ****     lv_calendar_t * calendar = (lv_calendar_t *)obj;
 706              		.loc 1 79 1 is_stmt 1 view -0
 707              		.cfi_startproc
 708              		@ args = 0, pretend = 0, frame = 0
 709              		@ frame_needed = 0, uses_anonymous_args = 0
  79:lvgl/lvgl/src/extra/widgets/calendar/lv_calendar.c ****     lv_calendar_t * calendar = (lv_calendar_t *)obj;
 710              		.loc 1 79 1 is_stmt 0 view .LVU198
 711 0000 10B5     		push	{r4, lr}
 712              	.LCFI8:
 713              		.cfi_def_cfa_offset 8
 714              		.cfi_offset 4, -8
 715              		.cfi_offset 14, -4
ARM GAS  C:\Users\gx\AppData\Local\Temp\ccN8omSo.s 			page 22


  80:lvgl/lvgl/src/extra/widgets/calendar/lv_calendar.c ****     calendar->today.year         = year;
 716              		.loc 1 80 5 is_stmt 1 view .LVU199
 717              	.LVL68:
  81:lvgl/lvgl/src/extra/widgets/calendar/lv_calendar.c ****     calendar->today.month        = month;
 718              		.loc 1 81 5 view .LVU200
  81:lvgl/lvgl/src/extra/widgets/calendar/lv_calendar.c ****     calendar->today.month        = month;
 719              		.loc 1 81 34 is_stmt 0 view .LVU201
 720 0002 0187     		strh	r1, [r0, #56]	@ movhi
  82:lvgl/lvgl/src/extra/widgets/calendar/lv_calendar.c ****     calendar->today.day          = day;
 721              		.loc 1 82 5 is_stmt 1 view .LVU202
  82:lvgl/lvgl/src/extra/widgets/calendar/lv_calendar.c ****     calendar->today.day          = day;
 722              		.loc 1 82 34 is_stmt 0 view .LVU203
 723 0004 80F83A20 		strb	r2, [r0, #58]
  83:lvgl/lvgl/src/extra/widgets/calendar/lv_calendar.c **** 
 724              		.loc 1 83 5 is_stmt 1 view .LVU204
  83:lvgl/lvgl/src/extra/widgets/calendar/lv_calendar.c **** 
 725              		.loc 1 83 34 is_stmt 0 view .LVU205
 726 0008 80F83B30 		strb	r3, [r0, #59]
  85:lvgl/lvgl/src/extra/widgets/calendar/lv_calendar.c **** }
 727              		.loc 1 85 5 is_stmt 1 view .LVU206
 728 000c FFF7FEFF 		bl	highlight_update
 729              	.LVL69:
  86:lvgl/lvgl/src/extra/widgets/calendar/lv_calendar.c **** 
 730              		.loc 1 86 1 is_stmt 0 view .LVU207
 731 0010 10BD     		pop	{r4, pc}
 732              		.cfi_endproc
 733              	.LFE191:
 735              		.section	.rodata.lv_calendar_set_highlighted_dates.str1.4,"aMS",%progbits,1
 736              		.align	2
 737              	.LC0:
 738 0000 6C76676C 		.ascii	"lvgl/lvgl/src/extra/widgets/calendar/lv_calendar.c\000"
 738      2F6C7667 
 738      6C2F7372 
 738      632F6578 
 738      7472612F 
 739 0033 00       		.align	2
 740              	.LC1:
 741 0034 4E554C4C 		.ascii	"NULL pointer\000"
 741      20706F69 
 741      6E746572 
 741      00
 742 0041 000000   		.align	2
 743              	.LC2:
 744 0044 68696768 		.ascii	"highlighted != NULL\000"
 744      6C696768 
 744      74656420 
 744      213D204E 
 744      554C4C00 
 745              		.align	2
 746              	.LC3:
 747 0058 41737365 		.ascii	"Asserted at expression: %s (%s)\000"
 747      72746564 
 747      20617420 
 747      65787072 
 747      65737369 
 748              		.section	.text.lv_calendar_set_highlighted_dates,"ax",%progbits
 749              		.align	1
ARM GAS  C:\Users\gx\AppData\Local\Temp\ccN8omSo.s 			page 23


 750              		.global	lv_calendar_set_highlighted_dates
 751              		.syntax unified
 752              		.thumb
 753              		.thumb_func
 754              		.fpu fpv4-sp-d16
 756              	lv_calendar_set_highlighted_dates:
 757              	.LVL70:
 758              	.LFB192:
  89:lvgl/lvgl/src/extra/widgets/calendar/lv_calendar.c ****     LV_ASSERT_NULL(highlighted);
 759              		.loc 1 89 1 is_stmt 1 view -0
 760              		.cfi_startproc
 761              		@ args = 0, pretend = 0, frame = 0
 762              		@ frame_needed = 0, uses_anonymous_args = 0
  89:lvgl/lvgl/src/extra/widgets/calendar/lv_calendar.c ****     LV_ASSERT_NULL(highlighted);
 763              		.loc 1 89 1 is_stmt 0 view .LVU209
 764 0000 00B5     		push	{lr}
 765              	.LCFI9:
 766              		.cfi_def_cfa_offset 4
 767              		.cfi_offset 14, -4
 768 0002 85B0     		sub	sp, sp, #20
 769              	.LCFI10:
 770              		.cfi_def_cfa_offset 24
  90:lvgl/lvgl/src/extra/widgets/calendar/lv_calendar.c **** 
 771              		.loc 1 90 5 is_stmt 1 view .LVU210
  90:lvgl/lvgl/src/extra/widgets/calendar/lv_calendar.c **** 
 772              		.loc 1 90 5 view .LVU211
 773 0004 39B1     		cbz	r1, .L56
  90:lvgl/lvgl/src/extra/widgets/calendar/lv_calendar.c **** 
 774              		.loc 1 90 5 discriminator 2 view .LVU212
  90:lvgl/lvgl/src/extra/widgets/calendar/lv_calendar.c **** 
 775              		.loc 1 90 32 discriminator 2 view .LVU213
  92:lvgl/lvgl/src/extra/widgets/calendar/lv_calendar.c ****     calendar->highlighted_dates     = highlighted;
 776              		.loc 1 92 5 discriminator 2 view .LVU214
 777              	.LVL71:
  93:lvgl/lvgl/src/extra/widgets/calendar/lv_calendar.c ****     calendar->highlighted_dates_num = date_num;
 778              		.loc 1 93 5 discriminator 2 view .LVU215
  93:lvgl/lvgl/src/extra/widgets/calendar/lv_calendar.c ****     calendar->highlighted_dates_num = date_num;
 779              		.loc 1 93 37 is_stmt 0 discriminator 2 view .LVU216
 780 0006 0164     		str	r1, [r0, #64]
  94:lvgl/lvgl/src/extra/widgets/calendar/lv_calendar.c **** 
 781              		.loc 1 94 5 is_stmt 1 discriminator 2 view .LVU217
  94:lvgl/lvgl/src/extra/widgets/calendar/lv_calendar.c **** 
 782              		.loc 1 94 37 is_stmt 0 discriminator 2 view .LVU218
 783 0008 A0F84420 		strh	r2, [r0, #68]	@ movhi
  96:lvgl/lvgl/src/extra/widgets/calendar/lv_calendar.c **** }
 784              		.loc 1 96 5 is_stmt 1 discriminator 2 view .LVU219
 785 000c FFF7FEFF 		bl	highlight_update
 786              	.LVL72:
  97:lvgl/lvgl/src/extra/widgets/calendar/lv_calendar.c **** 
 787              		.loc 1 97 1 is_stmt 0 discriminator 2 view .LVU220
 788 0010 05B0     		add	sp, sp, #20
 789              	.LCFI11:
 790              		.cfi_remember_state
 791              		.cfi_def_cfa_offset 4
 792              		@ sp needed
 793 0012 5DF804FB 		ldr	pc, [sp], #4
 794              	.LVL73:
ARM GAS  C:\Users\gx\AppData\Local\Temp\ccN8omSo.s 			page 24


 795              	.L56:
 796              	.LCFI12:
 797              		.cfi_restore_state
  90:lvgl/lvgl/src/extra/widgets/calendar/lv_calendar.c **** 
 798              		.loc 1 90 5 is_stmt 1 discriminator 1 view .LVU221
 799 0016 064B     		ldr	r3, .L57
 800 0018 0293     		str	r3, [sp, #8]
 801 001a 064B     		ldr	r3, .L57+4
 802 001c 0193     		str	r3, [sp, #4]
 803 001e 064B     		ldr	r3, .L57+8
 804 0020 0093     		str	r3, [sp]
 805 0022 064B     		ldr	r3, .L57+12
 806 0024 5A22     		movs	r2, #90
 807              	.LVL74:
  90:lvgl/lvgl/src/extra/widgets/calendar/lv_calendar.c **** 
 808              		.loc 1 90 5 is_stmt 0 discriminator 1 view .LVU222
 809 0026 0649     		ldr	r1, .L57+16
 810              	.LVL75:
  90:lvgl/lvgl/src/extra/widgets/calendar/lv_calendar.c **** 
 811              		.loc 1 90 5 discriminator 1 view .LVU223
 812 0028 0320     		movs	r0, #3
 813              	.LVL76:
  90:lvgl/lvgl/src/extra/widgets/calendar/lv_calendar.c **** 
 814              		.loc 1 90 5 discriminator 1 view .LVU224
 815 002a FFF7FEFF 		bl	_lv_log_add
 816              	.LVL77:
 817              	.L54:
  90:lvgl/lvgl/src/extra/widgets/calendar/lv_calendar.c **** 
 818              		.loc 1 90 5 is_stmt 1 discriminator 1 view .LVU225
  90:lvgl/lvgl/src/extra/widgets/calendar/lv_calendar.c **** 
 819              		.loc 1 90 5 discriminator 1 view .LVU226
  90:lvgl/lvgl/src/extra/widgets/calendar/lv_calendar.c **** 
 820              		.loc 1 90 5 discriminator 1 view .LVU227
  90:lvgl/lvgl/src/extra/widgets/calendar/lv_calendar.c **** 
 821              		.loc 1 90 5 discriminator 1 view .LVU228
 822 002e FEE7     		b	.L54
 823              	.L58:
 824              		.align	2
 825              	.L57:
 826 0030 34000000 		.word	.LC1
 827 0034 44000000 		.word	.LC2
 828 0038 58000000 		.word	.LC3
 829 003c 00000000 		.word	.LANCHOR1
 830 0040 00000000 		.word	.LC0
 831              		.cfi_endproc
 832              	.LFE192:
 834              		.section	.rodata.lv_calendar_set_showed_date.str1.4,"aMS",%progbits,1
 835              		.align	2
 836              	.LC4:
 837 0000 256400   		.ascii	"%d\000"
 838              		.section	.text.lv_calendar_set_showed_date,"ax",%progbits
 839              		.align	1
 840              		.global	lv_calendar_set_showed_date
 841              		.syntax unified
 842              		.thumb
 843              		.thumb_func
 844              		.fpu fpv4-sp-d16
ARM GAS  C:\Users\gx\AppData\Local\Temp\ccN8omSo.s 			page 25


 846              	lv_calendar_set_showed_date:
 847              	.LVL78:
 848              	.LFB193:
 100:lvgl/lvgl/src/extra/widgets/calendar/lv_calendar.c ****     lv_calendar_t * calendar = (lv_calendar_t *)obj;
 849              		.loc 1 100 1 view -0
 850              		.cfi_startproc
 851              		@ args = 0, pretend = 0, frame = 0
 852              		@ frame_needed = 0, uses_anonymous_args = 0
 100:lvgl/lvgl/src/extra/widgets/calendar/lv_calendar.c ****     lv_calendar_t * calendar = (lv_calendar_t *)obj;
 853              		.loc 1 100 1 is_stmt 0 view .LVU230
 854 0000 2DE9F047 		push	{r4, r5, r6, r7, r8, r9, r10, lr}
 855              	.LCFI13:
 856              		.cfi_def_cfa_offset 32
 857              		.cfi_offset 4, -32
 858              		.cfi_offset 5, -28
 859              		.cfi_offset 6, -24
 860              		.cfi_offset 7, -20
 861              		.cfi_offset 8, -16
 862              		.cfi_offset 9, -12
 863              		.cfi_offset 10, -8
 864              		.cfi_offset 14, -4
 865 0004 0646     		mov	r6, r0
 101:lvgl/lvgl/src/extra/widgets/calendar/lv_calendar.c ****     calendar->showed_date.year   = year;
 866              		.loc 1 101 5 is_stmt 1 view .LVU231
 867              	.LVL79:
 102:lvgl/lvgl/src/extra/widgets/calendar/lv_calendar.c ****     calendar->showed_date.month  = month;
 868              		.loc 1 102 5 view .LVU232
 102:lvgl/lvgl/src/extra/widgets/calendar/lv_calendar.c ****     calendar->showed_date.month  = month;
 869              		.loc 1 102 34 is_stmt 0 view .LVU233
 870 0006 1FFA81F8 		uxth	r8, r1
 871 000a A0F83C80 		strh	r8, [r0, #60]	@ movhi
 103:lvgl/lvgl/src/extra/widgets/calendar/lv_calendar.c ****     calendar->showed_date.day    = 1;
 872              		.loc 1 103 5 is_stmt 1 view .LVU234
 103:lvgl/lvgl/src/extra/widgets/calendar/lv_calendar.c ****     calendar->showed_date.day    = 1;
 873              		.loc 1 103 34 is_stmt 0 view .LVU235
 874 000e 4FFA82F9 		sxtb	r9, r2
 875 0012 80F83E90 		strb	r9, [r0, #62]
 104:lvgl/lvgl/src/extra/widgets/calendar/lv_calendar.c **** 
 876              		.loc 1 104 5 is_stmt 1 view .LVU236
 104:lvgl/lvgl/src/extra/widgets/calendar/lv_calendar.c **** 
 877              		.loc 1 104 34 is_stmt 0 view .LVU237
 878 0016 0123     		movs	r3, #1
 879 0018 80F83F30 		strb	r3, [r0, #63]
 106:lvgl/lvgl/src/extra/widgets/calendar/lv_calendar.c ****     d.year = calendar->showed_date.year;
 880              		.loc 1 106 5 is_stmt 1 view .LVU238
 107:lvgl/lvgl/src/extra/widgets/calendar/lv_calendar.c ****     d.month = calendar->showed_date.month;
 881              		.loc 1 107 5 view .LVU239
 108:lvgl/lvgl/src/extra/widgets/calendar/lv_calendar.c ****     d.day = calendar->showed_date.day;
 882              		.loc 1 108 5 view .LVU240
 109:lvgl/lvgl/src/extra/widgets/calendar/lv_calendar.c **** 
 883              		.loc 1 109 5 view .LVU241
 111:lvgl/lvgl/src/extra/widgets/calendar/lv_calendar.c **** 
 884              		.loc 1 111 5 view .LVU242
 114:lvgl/lvgl/src/extra/widgets/calendar/lv_calendar.c ****     for(i = 0; i < 7; i++) {
 885              		.loc 1 114 5 view .LVU243
 886 001c 2021     		movs	r1, #32
 887              	.LVL80:
ARM GAS  C:\Users\gx\AppData\Local\Temp\ccN8omSo.s 			page 26


 114:lvgl/lvgl/src/extra/widgets/calendar/lv_calendar.c ****     for(i = 0; i < 7; i++) {
 888              		.loc 1 114 5 is_stmt 0 view .LVU244
 889 001e FFF7FEFF 		bl	lv_btnmatrix_clear_btn_ctrl_all
 890              	.LVL81:
 115:lvgl/lvgl/src/extra/widgets/calendar/lv_calendar.c ****         lv_btnmatrix_set_btn_ctrl(obj, i, LV_BTNMATRIX_CTRL_DISABLED);
 891              		.loc 1 115 5 is_stmt 1 view .LVU245
 115:lvgl/lvgl/src/extra/widgets/calendar/lv_calendar.c ****         lv_btnmatrix_set_btn_ctrl(obj, i, LV_BTNMATRIX_CTRL_DISABLED);
 892              		.loc 1 115 11 is_stmt 0 view .LVU246
 893 0022 0024     		movs	r4, #0
 115:lvgl/lvgl/src/extra/widgets/calendar/lv_calendar.c ****         lv_btnmatrix_set_btn_ctrl(obj, i, LV_BTNMATRIX_CTRL_DISABLED);
 894              		.loc 1 115 5 view .LVU247
 895 0024 06E0     		b	.L60
 896              	.LVL82:
 897              	.L61:
 116:lvgl/lvgl/src/extra/widgets/calendar/lv_calendar.c ****     }
 898              		.loc 1 116 9 is_stmt 1 discriminator 3 view .LVU248
 899 0026 2022     		movs	r2, #32
 900 0028 2146     		mov	r1, r4
 901 002a 3046     		mov	r0, r6
 902 002c FFF7FEFF 		bl	lv_btnmatrix_set_btn_ctrl
 903              	.LVL83:
 115:lvgl/lvgl/src/extra/widgets/calendar/lv_calendar.c ****         lv_btnmatrix_set_btn_ctrl(obj, i, LV_BTNMATRIX_CTRL_DISABLED);
 904              		.loc 1 115 23 discriminator 3 view .LVU249
 115:lvgl/lvgl/src/extra/widgets/calendar/lv_calendar.c ****         lv_btnmatrix_set_btn_ctrl(obj, i, LV_BTNMATRIX_CTRL_DISABLED);
 905              		.loc 1 115 24 is_stmt 0 discriminator 3 view .LVU250
 906 0030 0134     		adds	r4, r4, #1
 907              	.LVL84:
 115:lvgl/lvgl/src/extra/widgets/calendar/lv_calendar.c ****         lv_btnmatrix_set_btn_ctrl(obj, i, LV_BTNMATRIX_CTRL_DISABLED);
 908              		.loc 1 115 24 discriminator 3 view .LVU251
 909 0032 E4B2     		uxtb	r4, r4
 910              	.LVL85:
 911              	.L60:
 115:lvgl/lvgl/src/extra/widgets/calendar/lv_calendar.c ****         lv_btnmatrix_set_btn_ctrl(obj, i, LV_BTNMATRIX_CTRL_DISABLED);
 912              		.loc 1 115 16 is_stmt 1 discriminator 1 view .LVU252
 115:lvgl/lvgl/src/extra/widgets/calendar/lv_calendar.c ****         lv_btnmatrix_set_btn_ctrl(obj, i, LV_BTNMATRIX_CTRL_DISABLED);
 913              		.loc 1 115 5 is_stmt 0 discriminator 1 view .LVU253
 914 0034 062C     		cmp	r4, #6
 915 0036 F6D9     		bls	.L61
 119:lvgl/lvgl/src/extra/widgets/calendar/lv_calendar.c ****     uint8_t day_first = get_day_of_week(d.year, d.month, 1);
 916              		.loc 1 119 5 is_stmt 1 view .LVU254
 119:lvgl/lvgl/src/extra/widgets/calendar/lv_calendar.c ****     uint8_t day_first = get_day_of_week(d.year, d.month, 1);
 917              		.loc 1 119 26 is_stmt 0 view .LVU255
 918 0038 4946     		mov	r1, r9
 919 003a 4046     		mov	r0, r8
 920 003c FFF7FEFF 		bl	get_month_length
 921              	.LVL86:
 922 0040 0446     		mov	r4, r0
 923              	.LVL87:
 120:lvgl/lvgl/src/extra/widgets/calendar/lv_calendar.c ****     uint8_t c;
 924              		.loc 1 120 5 is_stmt 1 view .LVU256
 120:lvgl/lvgl/src/extra/widgets/calendar/lv_calendar.c ****     uint8_t c;
 925              		.loc 1 120 25 is_stmt 0 view .LVU257
 926 0042 0122     		movs	r2, #1
 927 0044 4946     		mov	r1, r9
 928 0046 4046     		mov	r0, r8
 929 0048 FFF7FEFF 		bl	get_day_of_week
 930              	.LVL88:
ARM GAS  C:\Users\gx\AppData\Local\Temp\ccN8omSo.s 			page 27


 931 004c 0746     		mov	r7, r0
 932              	.LVL89:
 121:lvgl/lvgl/src/extra/widgets/calendar/lv_calendar.c ****     for(i = day_first, c = 1; i < act_mo_len + day_first; i++, c++) {
 933              		.loc 1 121 5 is_stmt 1 view .LVU258
 122:lvgl/lvgl/src/extra/widgets/calendar/lv_calendar.c ****         lv_snprintf(calendar->nums[i], sizeof(calendar->nums[0]), "%d", c);
 934              		.loc 1 122 5 view .LVU259
 122:lvgl/lvgl/src/extra/widgets/calendar/lv_calendar.c ****         lv_snprintf(calendar->nums[i], sizeof(calendar->nums[0]), "%d", c);
 935              		.loc 1 122 11 is_stmt 0 view .LVU260
 936 004e 0546     		mov	r5, r0
 122:lvgl/lvgl/src/extra/widgets/calendar/lv_calendar.c ****         lv_snprintf(calendar->nums[i], sizeof(calendar->nums[0]), "%d", c);
 937              		.loc 1 122 26 view .LVU261
 938 0050 4FF0010A 		mov	r10, #1
 939              	.LVL90:
 940              	.L62:
 122:lvgl/lvgl/src/extra/widgets/calendar/lv_calendar.c ****         lv_snprintf(calendar->nums[i], sizeof(calendar->nums[0]), "%d", c);
 941              		.loc 1 122 31 is_stmt 1 discriminator 1 view .LVU262
 122:lvgl/lvgl/src/extra/widgets/calendar/lv_calendar.c ****         lv_snprintf(calendar->nums[i], sizeof(calendar->nums[0]), "%d", c);
 942              		.loc 1 122 46 is_stmt 0 discriminator 1 view .LVU263
 943 0054 E319     		adds	r3, r4, r7
 122:lvgl/lvgl/src/extra/widgets/calendar/lv_calendar.c ****         lv_snprintf(calendar->nums[i], sizeof(calendar->nums[0]), "%d", c);
 944              		.loc 1 122 5 discriminator 1 view .LVU264
 945 0056 9D42     		cmp	r5, r3
 946 0058 0FDA     		bge	.L70
 123:lvgl/lvgl/src/extra/widgets/calendar/lv_calendar.c ****     }
 947              		.loc 1 123 9 is_stmt 1 discriminator 3 view .LVU265
 123:lvgl/lvgl/src/extra/widgets/calendar/lv_calendar.c ****     }
 948              		.loc 1 123 35 is_stmt 0 discriminator 3 view .LVU266
 949 005a 05F14A00 		add	r0, r5, #74
 123:lvgl/lvgl/src/extra/widgets/calendar/lv_calendar.c ****     }
 950              		.loc 1 123 9 discriminator 3 view .LVU267
 951 005e 5346     		mov	r3, r10
 952 0060 2F4A     		ldr	r2, .L73
 953 0062 0421     		movs	r1, #4
 954 0064 06EB8000 		add	r0, r6, r0, lsl #2
 955 0068 FFF7FEFF 		bl	lv_snprintf
 956              	.LVL91:
 122:lvgl/lvgl/src/extra/widgets/calendar/lv_calendar.c ****         lv_snprintf(calendar->nums[i], sizeof(calendar->nums[0]), "%d", c);
 957              		.loc 1 122 59 is_stmt 1 discriminator 3 view .LVU268
 122:lvgl/lvgl/src/extra/widgets/calendar/lv_calendar.c ****         lv_snprintf(calendar->nums[i], sizeof(calendar->nums[0]), "%d", c);
 958              		.loc 1 122 60 is_stmt 0 discriminator 3 view .LVU269
 959 006c 0135     		adds	r5, r5, #1
 960              	.LVL92:
 122:lvgl/lvgl/src/extra/widgets/calendar/lv_calendar.c ****         lv_snprintf(calendar->nums[i], sizeof(calendar->nums[0]), "%d", c);
 961              		.loc 1 122 60 discriminator 3 view .LVU270
 962 006e EDB2     		uxtb	r5, r5
 963              	.LVL93:
 122:lvgl/lvgl/src/extra/widgets/calendar/lv_calendar.c ****         lv_snprintf(calendar->nums[i], sizeof(calendar->nums[0]), "%d", c);
 964              		.loc 1 122 65 discriminator 3 view .LVU271
 965 0070 0AF1010A 		add	r10, r10, #1
 966              	.LVL94:
 122:lvgl/lvgl/src/extra/widgets/calendar/lv_calendar.c ****         lv_snprintf(calendar->nums[i], sizeof(calendar->nums[0]), "%d", c);
 967              		.loc 1 122 65 discriminator 3 view .LVU272
 968 0074 5FFA8AFA 		uxtb	r10, r10
 969              	.LVL95:
 122:lvgl/lvgl/src/extra/widgets/calendar/lv_calendar.c ****         lv_snprintf(calendar->nums[i], sizeof(calendar->nums[0]), "%d", c);
 970              		.loc 1 122 65 discriminator 3 view .LVU273
 971 0078 ECE7     		b	.L62
ARM GAS  C:\Users\gx\AppData\Local\Temp\ccN8omSo.s 			page 28


 972              	.L70:
 126:lvgl/lvgl/src/extra/widgets/calendar/lv_calendar.c ****     for(i = 0, c = prev_mo_len - day_first + 1; i < day_first; i++, c++) {
 973              		.loc 1 126 5 is_stmt 1 view .LVU274
 126:lvgl/lvgl/src/extra/widgets/calendar/lv_calendar.c ****     for(i = 0, c = prev_mo_len - day_first + 1; i < day_first; i++, c++) {
 974              		.loc 1 126 27 is_stmt 0 view .LVU275
 975 007a 09F1FF31 		add	r1, r9, #-1
 976 007e 4046     		mov	r0, r8
 977 0080 FFF7FEFF 		bl	get_month_length
 978              	.LVL96:
 127:lvgl/lvgl/src/extra/widgets/calendar/lv_calendar.c ****         lv_snprintf(calendar->nums[i], sizeof(calendar->nums[0]), "%d", c);
 979              		.loc 1 127 5 is_stmt 1 view .LVU276
 127:lvgl/lvgl/src/extra/widgets/calendar/lv_calendar.c ****         lv_snprintf(calendar->nums[i], sizeof(calendar->nums[0]), "%d", c);
 980              		.loc 1 127 32 is_stmt 0 view .LVU277
 981 0084 A0EB0708 		sub	r8, r0, r7
 982 0088 5FFA88F8 		uxtb	r8, r8
 127:lvgl/lvgl/src/extra/widgets/calendar/lv_calendar.c ****         lv_snprintf(calendar->nums[i], sizeof(calendar->nums[0]), "%d", c);
 983              		.loc 1 127 18 view .LVU278
 984 008c 08F10108 		add	r8, r8, #1
 985 0090 5FFA88F8 		uxtb	r8, r8
 986              	.LVL97:
 127:lvgl/lvgl/src/extra/widgets/calendar/lv_calendar.c ****         lv_snprintf(calendar->nums[i], sizeof(calendar->nums[0]), "%d", c);
 987              		.loc 1 127 11 view .LVU279
 988 0094 0025     		movs	r5, #0
 989              	.LVL98:
 990              	.L64:
 127:lvgl/lvgl/src/extra/widgets/calendar/lv_calendar.c ****         lv_snprintf(calendar->nums[i], sizeof(calendar->nums[0]), "%d", c);
 991              		.loc 1 127 49 is_stmt 1 discriminator 1 view .LVU280
 127:lvgl/lvgl/src/extra/widgets/calendar/lv_calendar.c ****         lv_snprintf(calendar->nums[i], sizeof(calendar->nums[0]), "%d", c);
 992              		.loc 1 127 5 is_stmt 0 discriminator 1 view .LVU281
 993 0096 BD42     		cmp	r5, r7
 994 0098 14D2     		bcs	.L71
 128:lvgl/lvgl/src/extra/widgets/calendar/lv_calendar.c ****         lv_btnmatrix_set_btn_ctrl(obj, i + 7, LV_BTNMATRIX_CTRL_DISABLED);
 995              		.loc 1 128 9 is_stmt 1 discriminator 3 view .LVU282
 128:lvgl/lvgl/src/extra/widgets/calendar/lv_calendar.c ****         lv_btnmatrix_set_btn_ctrl(obj, i + 7, LV_BTNMATRIX_CTRL_DISABLED);
 996              		.loc 1 128 35 is_stmt 0 discriminator 3 view .LVU283
 997 009a 05F14A00 		add	r0, r5, #74
 128:lvgl/lvgl/src/extra/widgets/calendar/lv_calendar.c ****         lv_btnmatrix_set_btn_ctrl(obj, i + 7, LV_BTNMATRIX_CTRL_DISABLED);
 998              		.loc 1 128 9 discriminator 3 view .LVU284
 999 009e 4346     		mov	r3, r8
 1000 00a0 1F4A     		ldr	r2, .L73
 1001 00a2 0421     		movs	r1, #4
 1002 00a4 06EB8000 		add	r0, r6, r0, lsl #2
 1003 00a8 FFF7FEFF 		bl	lv_snprintf
 1004              	.LVL99:
 129:lvgl/lvgl/src/extra/widgets/calendar/lv_calendar.c ****     }
 1005              		.loc 1 129 9 is_stmt 1 discriminator 3 view .LVU285
 1006 00ac 2022     		movs	r2, #32
 1007 00ae E91D     		adds	r1, r5, #7
 1008 00b0 3046     		mov	r0, r6
 1009 00b2 FFF7FEFF 		bl	lv_btnmatrix_set_btn_ctrl
 1010              	.LVL100:
 127:lvgl/lvgl/src/extra/widgets/calendar/lv_calendar.c ****         lv_snprintf(calendar->nums[i], sizeof(calendar->nums[0]), "%d", c);
 1011              		.loc 1 127 64 discriminator 3 view .LVU286
 127:lvgl/lvgl/src/extra/widgets/calendar/lv_calendar.c ****         lv_snprintf(calendar->nums[i], sizeof(calendar->nums[0]), "%d", c);
 1012              		.loc 1 127 65 is_stmt 0 discriminator 3 view .LVU287
 1013 00b6 0135     		adds	r5, r5, #1
 1014              	.LVL101:
ARM GAS  C:\Users\gx\AppData\Local\Temp\ccN8omSo.s 			page 29


 127:lvgl/lvgl/src/extra/widgets/calendar/lv_calendar.c ****         lv_snprintf(calendar->nums[i], sizeof(calendar->nums[0]), "%d", c);
 1015              		.loc 1 127 65 discriminator 3 view .LVU288
 1016 00b8 EDB2     		uxtb	r5, r5
 1017              	.LVL102:
 127:lvgl/lvgl/src/extra/widgets/calendar/lv_calendar.c ****         lv_snprintf(calendar->nums[i], sizeof(calendar->nums[0]), "%d", c);
 1018              		.loc 1 127 70 discriminator 3 view .LVU289
 1019 00ba 08F10108 		add	r8, r8, #1
 1020              	.LVL103:
 127:lvgl/lvgl/src/extra/widgets/calendar/lv_calendar.c ****         lv_snprintf(calendar->nums[i], sizeof(calendar->nums[0]), "%d", c);
 1021              		.loc 1 127 70 discriminator 3 view .LVU290
 1022 00be 5FFA88F8 		uxtb	r8, r8
 1023              	.LVL104:
 127:lvgl/lvgl/src/extra/widgets/calendar/lv_calendar.c ****         lv_snprintf(calendar->nums[i], sizeof(calendar->nums[0]), "%d", c);
 1024              		.loc 1 127 70 discriminator 3 view .LVU291
 1025 00c2 E8E7     		b	.L64
 1026              	.L71:
 132:lvgl/lvgl/src/extra/widgets/calendar/lv_calendar.c ****         lv_snprintf(calendar->nums[i], sizeof(calendar->nums[0]), "%d", c);
 1027              		.loc 1 132 5 is_stmt 1 view .LVU292
 132:lvgl/lvgl/src/extra/widgets/calendar/lv_calendar.c ****         lv_snprintf(calendar->nums[i], sizeof(calendar->nums[0]), "%d", c);
 1028              		.loc 1 132 11 is_stmt 0 view .LVU293
 1029 00c4 3C44     		add	r4, r4, r7
 1030              	.LVL105:
 132:lvgl/lvgl/src/extra/widgets/calendar/lv_calendar.c ****         lv_snprintf(calendar->nums[i], sizeof(calendar->nums[0]), "%d", c);
 1031              		.loc 1 132 11 view .LVU294
 1032 00c6 E4B2     		uxtb	r4, r4
 1033              	.LVL106:
 132:lvgl/lvgl/src/extra/widgets/calendar/lv_calendar.c ****         lv_snprintf(calendar->nums[i], sizeof(calendar->nums[0]), "%d", c);
 1034              		.loc 1 132 39 view .LVU295
 1035 00c8 0125     		movs	r5, #1
 132:lvgl/lvgl/src/extra/widgets/calendar/lv_calendar.c ****         lv_snprintf(calendar->nums[i], sizeof(calendar->nums[0]), "%d", c);
 1036              		.loc 1 132 5 view .LVU296
 1037 00ca 11E0     		b	.L66
 1038              	.LVL107:
 1039              	.L67:
 133:lvgl/lvgl/src/extra/widgets/calendar/lv_calendar.c ****         lv_btnmatrix_set_btn_ctrl(obj, i + 7, LV_BTNMATRIX_CTRL_DISABLED);
 1040              		.loc 1 133 9 is_stmt 1 discriminator 3 view .LVU297
 133:lvgl/lvgl/src/extra/widgets/calendar/lv_calendar.c ****         lv_btnmatrix_set_btn_ctrl(obj, i + 7, LV_BTNMATRIX_CTRL_DISABLED);
 1041              		.loc 1 133 35 is_stmt 0 discriminator 3 view .LVU298
 1042 00cc 04F14A00 		add	r0, r4, #74
 133:lvgl/lvgl/src/extra/widgets/calendar/lv_calendar.c ****         lv_btnmatrix_set_btn_ctrl(obj, i + 7, LV_BTNMATRIX_CTRL_DISABLED);
 1043              		.loc 1 133 9 discriminator 3 view .LVU299
 1044 00d0 2B46     		mov	r3, r5
 1045 00d2 134A     		ldr	r2, .L73
 1046 00d4 0421     		movs	r1, #4
 1047 00d6 06EB8000 		add	r0, r6, r0, lsl #2
 1048 00da FFF7FEFF 		bl	lv_snprintf
 1049              	.LVL108:
 134:lvgl/lvgl/src/extra/widgets/calendar/lv_calendar.c ****     }
 1050              		.loc 1 134 9 is_stmt 1 discriminator 3 view .LVU300
 1051 00de 2022     		movs	r2, #32
 1052 00e0 E11D     		adds	r1, r4, #7
 1053 00e2 3046     		mov	r0, r6
 1054 00e4 FFF7FEFF 		bl	lv_btnmatrix_set_btn_ctrl
 1055              	.LVL109:
 132:lvgl/lvgl/src/extra/widgets/calendar/lv_calendar.c ****         lv_snprintf(calendar->nums[i], sizeof(calendar->nums[0]), "%d", c);
 1056              		.loc 1 132 55 discriminator 3 view .LVU301
 132:lvgl/lvgl/src/extra/widgets/calendar/lv_calendar.c ****         lv_snprintf(calendar->nums[i], sizeof(calendar->nums[0]), "%d", c);
ARM GAS  C:\Users\gx\AppData\Local\Temp\ccN8omSo.s 			page 30


 1057              		.loc 1 132 56 is_stmt 0 discriminator 3 view .LVU302
 1058 00e8 0134     		adds	r4, r4, #1
 1059              	.LVL110:
 132:lvgl/lvgl/src/extra/widgets/calendar/lv_calendar.c ****         lv_snprintf(calendar->nums[i], sizeof(calendar->nums[0]), "%d", c);
 1060              		.loc 1 132 56 discriminator 3 view .LVU303
 1061 00ea E4B2     		uxtb	r4, r4
 1062              	.LVL111:
 132:lvgl/lvgl/src/extra/widgets/calendar/lv_calendar.c ****         lv_snprintf(calendar->nums[i], sizeof(calendar->nums[0]), "%d", c);
 1063              		.loc 1 132 61 discriminator 3 view .LVU304
 1064 00ec 0135     		adds	r5, r5, #1
 1065              	.LVL112:
 132:lvgl/lvgl/src/extra/widgets/calendar/lv_calendar.c ****         lv_snprintf(calendar->nums[i], sizeof(calendar->nums[0]), "%d", c);
 1066              		.loc 1 132 61 discriminator 3 view .LVU305
 1067 00ee EDB2     		uxtb	r5, r5
 1068              	.LVL113:
 1069              	.L66:
 132:lvgl/lvgl/src/extra/widgets/calendar/lv_calendar.c ****         lv_snprintf(calendar->nums[i], sizeof(calendar->nums[0]), "%d", c);
 1070              		.loc 1 132 44 is_stmt 1 discriminator 1 view .LVU306
 132:lvgl/lvgl/src/extra/widgets/calendar/lv_calendar.c ****         lv_snprintf(calendar->nums[i], sizeof(calendar->nums[0]), "%d", c);
 1071              		.loc 1 132 5 is_stmt 0 discriminator 1 view .LVU307
 1072 00f0 292C     		cmp	r4, #41
 1073 00f2 EBD9     		bls	.L67
 137:lvgl/lvgl/src/extra/widgets/calendar/lv_calendar.c **** 
 1074              		.loc 1 137 5 is_stmt 1 view .LVU308
 1075 00f4 3046     		mov	r0, r6
 1076 00f6 FFF7FEFF 		bl	highlight_update
 1077              	.LVL114:
 140:lvgl/lvgl/src/extra/widgets/calendar/lv_calendar.c ****         lv_btnmatrix_set_selected_btn(obj, day_first + 7);
 1078              		.loc 1 140 5 view .LVU309
 140:lvgl/lvgl/src/extra/widgets/calendar/lv_calendar.c ****         lv_btnmatrix_set_selected_btn(obj, day_first + 7);
 1079              		.loc 1 140 8 is_stmt 0 view .LVU310
 1080 00fa 3046     		mov	r0, r6
 1081 00fc FFF7FEFF 		bl	lv_btnmatrix_get_selected_btn
 1082              	.LVL115:
 140:lvgl/lvgl/src/extra/widgets/calendar/lv_calendar.c ****         lv_btnmatrix_set_selected_btn(obj, day_first + 7);
 1083              		.loc 1 140 7 view .LVU311
 1084 0100 4FF6FF73 		movw	r3, #65535
 1085 0104 9842     		cmp	r0, r3
 1086 0106 04D1     		bne	.L72
 1087              	.L68:
 144:lvgl/lvgl/src/extra/widgets/calendar/lv_calendar.c **** }
 1088              		.loc 1 144 5 is_stmt 1 view .LVU312
 1089 0108 3046     		mov	r0, r6
 1090 010a FFF7FEFF 		bl	lv_obj_invalidate
 1091              	.LVL116:
 145:lvgl/lvgl/src/extra/widgets/calendar/lv_calendar.c **** 
 1092              		.loc 1 145 1 is_stmt 0 view .LVU313
 1093 010e BDE8F087 		pop	{r4, r5, r6, r7, r8, r9, r10, pc}
 1094              	.LVL117:
 1095              	.L72:
 141:lvgl/lvgl/src/extra/widgets/calendar/lv_calendar.c ****     }
 1096              		.loc 1 141 9 is_stmt 1 view .LVU314
 1097 0112 F91D     		adds	r1, r7, #7
 1098 0114 89B2     		uxth	r1, r1
 1099 0116 3046     		mov	r0, r6
 1100 0118 FFF7FEFF 		bl	lv_btnmatrix_set_selected_btn
 1101              	.LVL118:
ARM GAS  C:\Users\gx\AppData\Local\Temp\ccN8omSo.s 			page 31


 1102 011c F4E7     		b	.L68
 1103              	.L74:
 1104 011e 00BF     		.align	2
 1105              	.L73:
 1106 0120 00000000 		.word	.LC4
 1107              		.cfi_endproc
 1108              	.LFE193:
 1110              		.section	.rodata.lv_calendar_constructor.str1.4,"aMS",%progbits,1
 1111              		.align	2
 1112              	.LC5:
 1113 0000 0A00     		.ascii	"\012\000"
 1114 0002 0000     		.align	2
 1115              	.LC6:
 1116 0004 00       		.ascii	"\000"
 1117              		.section	.text.lv_calendar_constructor,"ax",%progbits
 1118              		.align	1
 1119              		.syntax unified
 1120              		.thumb
 1121              		.thumb_func
 1122              		.fpu fpv4-sp-d16
 1124              	lv_calendar_constructor:
 1125              	.LVL119:
 1126              	.LFB199:
 218:lvgl/lvgl/src/extra/widgets/calendar/lv_calendar.c ****     LV_UNUSED(class_p);
 1127              		.loc 1 218 1 view -0
 1128              		.cfi_startproc
 1129              		@ args = 0, pretend = 0, frame = 0
 1130              		@ frame_needed = 0, uses_anonymous_args = 0
 218:lvgl/lvgl/src/extra/widgets/calendar/lv_calendar.c ****     LV_UNUSED(class_p);
 1131              		.loc 1 218 1 is_stmt 0 view .LVU316
 1132 0000 38B5     		push	{r3, r4, r5, lr}
 1133              	.LCFI14:
 1134              		.cfi_def_cfa_offset 16
 1135              		.cfi_offset 3, -16
 1136              		.cfi_offset 4, -12
 1137              		.cfi_offset 5, -8
 1138              		.cfi_offset 14, -4
 1139 0002 0C46     		mov	r4, r1
 219:lvgl/lvgl/src/extra/widgets/calendar/lv_calendar.c ****     lv_calendar_t * calendar = (lv_calendar_t *)obj;
 1140              		.loc 1 219 5 is_stmt 1 view .LVU317
 220:lvgl/lvgl/src/extra/widgets/calendar/lv_calendar.c **** 
 1141              		.loc 1 220 5 view .LVU318
 1142              	.LVL120:
 223:lvgl/lvgl/src/extra/widgets/calendar/lv_calendar.c ****     calendar->today.month = 1;
 1143              		.loc 1 223 5 view .LVU319
 223:lvgl/lvgl/src/extra/widgets/calendar/lv_calendar.c ****     calendar->today.month = 1;
 1144              		.loc 1 223 27 is_stmt 0 view .LVU320
 1145 0004 40F2E472 		movw	r2, #2020
 1146 0008 0A87     		strh	r2, [r1, #56]	@ movhi
 224:lvgl/lvgl/src/extra/widgets/calendar/lv_calendar.c ****     calendar->today.day   = 1;
 1147              		.loc 1 224 5 is_stmt 1 view .LVU321
 224:lvgl/lvgl/src/extra/widgets/calendar/lv_calendar.c ****     calendar->today.day   = 1;
 1148              		.loc 1 224 27 is_stmt 0 view .LVU322
 1149 000a 0123     		movs	r3, #1
 1150 000c 81F83A30 		strb	r3, [r1, #58]
 225:lvgl/lvgl/src/extra/widgets/calendar/lv_calendar.c **** 
 1151              		.loc 1 225 5 is_stmt 1 view .LVU323
ARM GAS  C:\Users\gx\AppData\Local\Temp\ccN8omSo.s 			page 32


 225:lvgl/lvgl/src/extra/widgets/calendar/lv_calendar.c **** 
 1152              		.loc 1 225 27 is_stmt 0 view .LVU324
 1153 0010 81F83B30 		strb	r3, [r1, #59]
 227:lvgl/lvgl/src/extra/widgets/calendar/lv_calendar.c ****     calendar->showed_date.month = 1;
 1154              		.loc 1 227 5 is_stmt 1 view .LVU325
 227:lvgl/lvgl/src/extra/widgets/calendar/lv_calendar.c ****     calendar->showed_date.month = 1;
 1155              		.loc 1 227 33 is_stmt 0 view .LVU326
 1156 0014 8A87     		strh	r2, [r1, #60]	@ movhi
 228:lvgl/lvgl/src/extra/widgets/calendar/lv_calendar.c ****     calendar->showed_date.day   = 1;
 1157              		.loc 1 228 5 is_stmt 1 view .LVU327
 228:lvgl/lvgl/src/extra/widgets/calendar/lv_calendar.c ****     calendar->showed_date.day   = 1;
 1158              		.loc 1 228 33 is_stmt 0 view .LVU328
 1159 0016 81F83E30 		strb	r3, [r1, #62]
 229:lvgl/lvgl/src/extra/widgets/calendar/lv_calendar.c **** 
 1160              		.loc 1 229 5 is_stmt 1 view .LVU329
 229:lvgl/lvgl/src/extra/widgets/calendar/lv_calendar.c **** 
 1161              		.loc 1 229 33 is_stmt 0 view .LVU330
 1162 001a 81F83F30 		strb	r3, [r1, #63]
 231:lvgl/lvgl/src/extra/widgets/calendar/lv_calendar.c ****     calendar->highlighted_dates_num  = 0;
 1163              		.loc 1 231 5 is_stmt 1 view .LVU331
 231:lvgl/lvgl/src/extra/widgets/calendar/lv_calendar.c ****     calendar->highlighted_dates_num  = 0;
 1164              		.loc 1 231 38 is_stmt 0 view .LVU332
 1165 001e 0025     		movs	r5, #0
 1166 0020 0D64     		str	r5, [r1, #64]
 232:lvgl/lvgl/src/extra/widgets/calendar/lv_calendar.c **** 
 1167              		.loc 1 232 5 is_stmt 1 view .LVU333
 232:lvgl/lvgl/src/extra/widgets/calendar/lv_calendar.c **** 
 1168              		.loc 1 232 38 is_stmt 0 view .LVU334
 1169 0022 A1F84450 		strh	r5, [r1, #68]	@ movhi
 234:lvgl/lvgl/src/extra/widgets/calendar/lv_calendar.c ****     uint8_t i;
 1170              		.loc 1 234 5 is_stmt 1 view .LVU335
 1171 0026 A821     		movs	r1, #168
 1172              	.LVL121:
 234:lvgl/lvgl/src/extra/widgets/calendar/lv_calendar.c ****     uint8_t i;
 1173              		.loc 1 234 5 is_stmt 0 view .LVU336
 1174 0028 04F59470 		add	r0, r4, #296
 1175              	.LVL122:
 234:lvgl/lvgl/src/extra/widgets/calendar/lv_calendar.c ****     uint8_t i;
 1176              		.loc 1 234 5 view .LVU337
 1177 002c FFF7FEFF 		bl	lv_memset_00
 1178              	.LVL123:
 235:lvgl/lvgl/src/extra/widgets/calendar/lv_calendar.c ****     uint8_t j = 0;
 1179              		.loc 1 235 5 is_stmt 1 view .LVU338
 236:lvgl/lvgl/src/extra/widgets/calendar/lv_calendar.c ****     for(i = 0; i < 8 * 7; i++) {
 1180              		.loc 1 236 5 view .LVU339
 237:lvgl/lvgl/src/extra/widgets/calendar/lv_calendar.c ****         /*Every 8th string is "\n"*/
 1181              		.loc 1 237 5 view .LVU340
 236:lvgl/lvgl/src/extra/widgets/calendar/lv_calendar.c ****     for(i = 0; i < 8 * 7; i++) {
 1182              		.loc 1 236 13 is_stmt 0 view .LVU341
 1183 0030 2846     		mov	r0, r5
 237:lvgl/lvgl/src/extra/widgets/calendar/lv_calendar.c ****         /*Every 8th string is "\n"*/
 1184              		.loc 1 237 11 view .LVU342
 1185 0032 2B46     		mov	r3, r5
 237:lvgl/lvgl/src/extra/widgets/calendar/lv_calendar.c ****         /*Every 8th string is "\n"*/
 1186              		.loc 1 237 5 view .LVU343
 1187 0034 10E0     		b	.L76
 1188              	.LVL124:
ARM GAS  C:\Users\gx\AppData\Local\Temp\ccN8omSo.s 			page 33


 1189              	.L77:
 241:lvgl/lvgl/src/extra/widgets/calendar/lv_calendar.c ****             calendar->map[i] = day_names_def[i];
 1190              		.loc 1 241 16 is_stmt 1 view .LVU344
 241:lvgl/lvgl/src/extra/widgets/calendar/lv_calendar.c ****             calendar->map[i] = day_names_def[i];
 1191              		.loc 1 241 18 is_stmt 0 view .LVU345
 1192 0036 072B     		cmp	r3, #7
 1193 0038 1CD9     		bls	.L82
 244:lvgl/lvgl/src/extra/widgets/calendar/lv_calendar.c ****             calendar->map[i] = calendar->nums[j];
 1194              		.loc 1 244 13 is_stmt 1 view .LVU346
 244:lvgl/lvgl/src/extra/widgets/calendar/lv_calendar.c ****             calendar->map[i] = calendar->nums[j];
 1195              		.loc 1 244 34 is_stmt 0 view .LVU347
 1196 003a 00F14A02 		add	r2, r0, #74
 1197 003e 7821     		movs	r1, #120
 1198 0040 04F82210 		strb	r1, [r4, r2, lsl #2]
 245:lvgl/lvgl/src/extra/widgets/calendar/lv_calendar.c ****             j++;
 1199              		.loc 1 245 13 is_stmt 1 view .LVU348
 245:lvgl/lvgl/src/extra/widgets/calendar/lv_calendar.c ****             j++;
 1200              		.loc 1 245 32 is_stmt 0 view .LVU349
 1201 0044 04EB8202 		add	r2, r4, r2, lsl #2
 245:lvgl/lvgl/src/extra/widgets/calendar/lv_calendar.c ****             j++;
 1202              		.loc 1 245 30 view .LVU350
 1203 0048 03F11201 		add	r1, r3, #18
 1204 004c 44F82120 		str	r2, [r4, r1, lsl #2]
 246:lvgl/lvgl/src/extra/widgets/calendar/lv_calendar.c ****         }
 1205              		.loc 1 246 13 is_stmt 1 view .LVU351
 246:lvgl/lvgl/src/extra/widgets/calendar/lv_calendar.c ****         }
 1206              		.loc 1 246 14 is_stmt 0 view .LVU352
 1207 0050 0130     		adds	r0, r0, #1
 1208              	.LVL125:
 246:lvgl/lvgl/src/extra/widgets/calendar/lv_calendar.c ****         }
 1209              		.loc 1 246 14 view .LVU353
 1210 0052 C0B2     		uxtb	r0, r0
 1211              	.LVL126:
 1212              	.L78:
 237:lvgl/lvgl/src/extra/widgets/calendar/lv_calendar.c ****         /*Every 8th string is "\n"*/
 1213              		.loc 1 237 27 is_stmt 1 discriminator 2 view .LVU354
 237:lvgl/lvgl/src/extra/widgets/calendar/lv_calendar.c ****         /*Every 8th string is "\n"*/
 1214              		.loc 1 237 28 is_stmt 0 discriminator 2 view .LVU355
 1215 0054 0133     		adds	r3, r3, #1
 1216              	.LVL127:
 237:lvgl/lvgl/src/extra/widgets/calendar/lv_calendar.c ****         /*Every 8th string is "\n"*/
 1217              		.loc 1 237 28 discriminator 2 view .LVU356
 1218 0056 DBB2     		uxtb	r3, r3
 1219              	.LVL128:
 1220              	.L76:
 237:lvgl/lvgl/src/extra/widgets/calendar/lv_calendar.c ****         /*Every 8th string is "\n"*/
 1221              		.loc 1 237 16 is_stmt 1 discriminator 1 view .LVU357
 237:lvgl/lvgl/src/extra/widgets/calendar/lv_calendar.c ****         /*Every 8th string is "\n"*/
 1222              		.loc 1 237 5 is_stmt 0 discriminator 1 view .LVU358
 1223 0058 372B     		cmp	r3, #55
 1224 005a 13D8     		bhi	.L83
 239:lvgl/lvgl/src/extra/widgets/calendar/lv_calendar.c ****             calendar->map[i] = "\n";
 1225              		.loc 1 239 9 is_stmt 1 view .LVU359
 239:lvgl/lvgl/src/extra/widgets/calendar/lv_calendar.c ****             calendar->map[i] = "\n";
 1226              		.loc 1 239 11 is_stmt 0 view .LVU360
 1227 005c 002B     		cmp	r3, #0
 1228 005e EAD0     		beq	.L77
ARM GAS  C:\Users\gx\AppData\Local\Temp\ccN8omSo.s 			page 34


 239:lvgl/lvgl/src/extra/widgets/calendar/lv_calendar.c ****             calendar->map[i] = "\n";
 1229              		.loc 1 239 25 discriminator 1 view .LVU361
 1230 0060 5A1C     		adds	r2, r3, #1
 239:lvgl/lvgl/src/extra/widgets/calendar/lv_calendar.c ****             calendar->map[i] = "\n";
 1231              		.loc 1 239 19 discriminator 1 view .LVU362
 1232 0062 12F0070F 		tst	r2, #7
 1233 0066 E6D1     		bne	.L77
 240:lvgl/lvgl/src/extra/widgets/calendar/lv_calendar.c ****         } else if(i < 8){
 1234              		.loc 1 240 13 is_stmt 1 view .LVU363
 240:lvgl/lvgl/src/extra/widgets/calendar/lv_calendar.c ****         } else if(i < 8){
 1235              		.loc 1 240 30 is_stmt 0 view .LVU364
 1236 0068 03F11202 		add	r2, r3, #18
 1237 006c 1649     		ldr	r1, .L84
 1238 006e 44F82210 		str	r1, [r4, r2, lsl #2]
 1239 0072 EFE7     		b	.L78
 1240              	.L82:
 242:lvgl/lvgl/src/extra/widgets/calendar/lv_calendar.c ****         } else {
 1241              		.loc 1 242 13 is_stmt 1 view .LVU365
 242:lvgl/lvgl/src/extra/widgets/calendar/lv_calendar.c ****         } else {
 1242              		.loc 1 242 45 is_stmt 0 view .LVU366
 1243 0074 154A     		ldr	r2, .L84+4
 1244 0076 52F82310 		ldr	r1, [r2, r3, lsl #2]
 242:lvgl/lvgl/src/extra/widgets/calendar/lv_calendar.c ****         } else {
 1245              		.loc 1 242 30 view .LVU367
 1246 007a 03F11202 		add	r2, r3, #18
 1247 007e 44F82210 		str	r1, [r4, r2, lsl #2]
 1248 0082 E7E7     		b	.L78
 1249              	.L83:
 249:lvgl/lvgl/src/extra/widgets/calendar/lv_calendar.c **** 
 1250              		.loc 1 249 5 is_stmt 1 view .LVU368
 249:lvgl/lvgl/src/extra/widgets/calendar/lv_calendar.c **** 
 1251              		.loc 1 249 30 is_stmt 0 view .LVU369
 1252 0084 124B     		ldr	r3, .L84+8
 1253              	.LVL129:
 249:lvgl/lvgl/src/extra/widgets/calendar/lv_calendar.c **** 
 1254              		.loc 1 249 30 view .LVU370
 1255 0086 C4F82431 		str	r3, [r4, #292]
 251:lvgl/lvgl/src/extra/widgets/calendar/lv_calendar.c ****     lv_btnmatrix_set_btn_ctrl_all(obj, LV_BTNMATRIX_CTRL_CLICK_TRIG | LV_BTNMATRIX_CTRL_NO_REPEAT);
 1256              		.loc 1 251 5 is_stmt 1 view .LVU371
 1257 008a 04F14801 		add	r1, r4, #72
 1258 008e 2046     		mov	r0, r4
 1259              	.LVL130:
 251:lvgl/lvgl/src/extra/widgets/calendar/lv_calendar.c ****     lv_btnmatrix_set_btn_ctrl_all(obj, LV_BTNMATRIX_CTRL_CLICK_TRIG | LV_BTNMATRIX_CTRL_NO_REPEAT);
 1260              		.loc 1 251 5 is_stmt 0 view .LVU372
 1261 0090 FFF7FEFF 		bl	lv_btnmatrix_set_map
 1262              	.LVL131:
 252:lvgl/lvgl/src/extra/widgets/calendar/lv_calendar.c **** 
 1263              		.loc 1 252 5 is_stmt 1 view .LVU373
 1264 0094 4FF48871 		mov	r1, #272
 1265 0098 2046     		mov	r0, r4
 1266 009a FFF7FEFF 		bl	lv_btnmatrix_set_btn_ctrl_all
 1267              	.LVL132:
 255:lvgl/lvgl/src/extra/widgets/calendar/lv_calendar.c ****     lv_calendar_set_today_date(obj, calendar->today.year, calendar->today.month, calendar->today.da
 1268              		.loc 1 255 5 view .LVU374
 1269 009e 94F93E20 		ldrsb	r2, [r4, #62]
 1270 00a2 A18F     		ldrh	r1, [r4, #60]
 1271 00a4 2046     		mov	r0, r4
ARM GAS  C:\Users\gx\AppData\Local\Temp\ccN8omSo.s 			page 35


 1272 00a6 FFF7FEFF 		bl	lv_calendar_set_showed_date
 1273              	.LVL133:
 256:lvgl/lvgl/src/extra/widgets/calendar/lv_calendar.c **** 
 1274              		.loc 1 256 5 view .LVU375
 1275 00aa 94F93B30 		ldrsb	r3, [r4, #59]
 1276 00ae 94F93A20 		ldrsb	r2, [r4, #58]
 1277 00b2 218F     		ldrh	r1, [r4, #56]
 1278 00b4 2046     		mov	r0, r4
 1279 00b6 FFF7FEFF 		bl	lv_calendar_set_today_date
 1280              	.LVL134:
 258:lvgl/lvgl/src/extra/widgets/calendar/lv_calendar.c **** }
 1281              		.loc 1 258 5 view .LVU376
 1282 00ba 0023     		movs	r3, #0
 1283 00bc 1A22     		movs	r2, #26
 1284 00be 0549     		ldr	r1, .L84+12
 1285 00c0 2046     		mov	r0, r4
 1286 00c2 FFF7FEFF 		bl	lv_obj_add_event_cb
 1287              	.LVL135:
 259:lvgl/lvgl/src/extra/widgets/calendar/lv_calendar.c **** 
 1288              		.loc 1 259 1 is_stmt 0 view .LVU377
 1289 00c6 38BD     		pop	{r3, r4, r5, pc}
 1290              	.LVL136:
 1291              	.L85:
 259:lvgl/lvgl/src/extra/widgets/calendar/lv_calendar.c **** 
 1292              		.loc 1 259 1 view .LVU378
 1293              		.align	2
 1294              	.L84:
 1295 00c8 00000000 		.word	.LC5
 1296 00cc 00000000 		.word	.LANCHOR2
 1297 00d0 04000000 		.word	.LC6
 1298 00d4 00000000 		.word	draw_part_begin_event_cb
 1299              		.cfi_endproc
 1300              	.LFE199:
 1302              		.section	.text.lv_calendar_get_today_date,"ax",%progbits
 1303              		.align	1
 1304              		.global	lv_calendar_get_today_date
 1305              		.syntax unified
 1306              		.thumb
 1307              		.thumb_func
 1308              		.fpu fpv4-sp-d16
 1310              	lv_calendar_get_today_date:
 1311              	.LVL137:
 1312              	.LFB194:
 157:lvgl/lvgl/src/extra/widgets/calendar/lv_calendar.c ****     const lv_calendar_t * calendar = (lv_calendar_t *)obj;
 1313              		.loc 1 157 1 is_stmt 1 view -0
 1314              		.cfi_startproc
 1315              		@ args = 0, pretend = 0, frame = 0
 1316              		@ frame_needed = 0, uses_anonymous_args = 0
 1317              		@ link register save eliminated.
 158:lvgl/lvgl/src/extra/widgets/calendar/lv_calendar.c ****     return &calendar->today;
 1318              		.loc 1 158 5 view .LVU380
 159:lvgl/lvgl/src/extra/widgets/calendar/lv_calendar.c **** }
 1319              		.loc 1 159 5 view .LVU381
 160:lvgl/lvgl/src/extra/widgets/calendar/lv_calendar.c **** 
 1320              		.loc 1 160 1 is_stmt 0 view .LVU382
 1321 0000 3830     		adds	r0, r0, #56
 1322              	.LVL138:
ARM GAS  C:\Users\gx\AppData\Local\Temp\ccN8omSo.s 			page 36


 160:lvgl/lvgl/src/extra/widgets/calendar/lv_calendar.c **** 
 1323              		.loc 1 160 1 view .LVU383
 1324 0002 7047     		bx	lr
 1325              		.cfi_endproc
 1326              	.LFE194:
 1328              		.section	.text.lv_calendar_get_showed_date,"ax",%progbits
 1329              		.align	1
 1330              		.global	lv_calendar_get_showed_date
 1331              		.syntax unified
 1332              		.thumb
 1333              		.thumb_func
 1334              		.fpu fpv4-sp-d16
 1336              	lv_calendar_get_showed_date:
 1337              	.LVL139:
 1338              	.LFB195:
 168:lvgl/lvgl/src/extra/widgets/calendar/lv_calendar.c ****     const lv_calendar_t * calendar = (lv_calendar_t *)obj;
 1339              		.loc 1 168 1 is_stmt 1 view -0
 1340              		.cfi_startproc
 1341              		@ args = 0, pretend = 0, frame = 0
 1342              		@ frame_needed = 0, uses_anonymous_args = 0
 1343              		@ link register save eliminated.
 169:lvgl/lvgl/src/extra/widgets/calendar/lv_calendar.c ****     return &calendar->showed_date;
 1344              		.loc 1 169 5 view .LVU385
 170:lvgl/lvgl/src/extra/widgets/calendar/lv_calendar.c **** }
 1345              		.loc 1 170 5 view .LVU386
 171:lvgl/lvgl/src/extra/widgets/calendar/lv_calendar.c **** 
 1346              		.loc 1 171 1 is_stmt 0 view .LVU387
 1347 0000 3C30     		adds	r0, r0, #60
 1348              	.LVL140:
 171:lvgl/lvgl/src/extra/widgets/calendar/lv_calendar.c **** 
 1349              		.loc 1 171 1 view .LVU388
 1350 0002 7047     		bx	lr
 1351              		.cfi_endproc
 1352              	.LFE195:
 1354              		.section	.text.lv_calendar_get_highlighted_dates,"ax",%progbits
 1355              		.align	1
 1356              		.global	lv_calendar_get_highlighted_dates
 1357              		.syntax unified
 1358              		.thumb
 1359              		.thumb_func
 1360              		.fpu fpv4-sp-d16
 1362              	lv_calendar_get_highlighted_dates:
 1363              	.LVL141:
 1364              	.LFB196:
 179:lvgl/lvgl/src/extra/widgets/calendar/lv_calendar.c ****     lv_calendar_t * calendar = (lv_calendar_t *)obj;
 1365              		.loc 1 179 1 is_stmt 1 view -0
 1366              		.cfi_startproc
 1367              		@ args = 0, pretend = 0, frame = 0
 1368              		@ frame_needed = 0, uses_anonymous_args = 0
 1369              		@ link register save eliminated.
 180:lvgl/lvgl/src/extra/widgets/calendar/lv_calendar.c ****     return calendar->highlighted_dates;
 1370              		.loc 1 180 5 view .LVU390
 181:lvgl/lvgl/src/extra/widgets/calendar/lv_calendar.c **** }
 1371              		.loc 1 181 5 view .LVU391
 182:lvgl/lvgl/src/extra/widgets/calendar/lv_calendar.c **** 
 1372              		.loc 1 182 1 is_stmt 0 view .LVU392
 1373 0000 006C     		ldr	r0, [r0, #64]
ARM GAS  C:\Users\gx\AppData\Local\Temp\ccN8omSo.s 			page 37


 1374              	.LVL142:
 182:lvgl/lvgl/src/extra/widgets/calendar/lv_calendar.c **** 
 1375              		.loc 1 182 1 view .LVU393
 1376 0002 7047     		bx	lr
 1377              		.cfi_endproc
 1378              	.LFE196:
 1380              		.section	.text.lv_calendar_get_highlighted_dates_num,"ax",%progbits
 1381              		.align	1
 1382              		.global	lv_calendar_get_highlighted_dates_num
 1383              		.syntax unified
 1384              		.thumb
 1385              		.thumb_func
 1386              		.fpu fpv4-sp-d16
 1388              	lv_calendar_get_highlighted_dates_num:
 1389              	.LVL143:
 1390              	.LFB197:
 185:lvgl/lvgl/src/extra/widgets/calendar/lv_calendar.c ****     lv_calendar_t * calendar = (lv_calendar_t *)obj;
 1391              		.loc 1 185 1 is_stmt 1 view -0
 1392              		.cfi_startproc
 1393              		@ args = 0, pretend = 0, frame = 0
 1394              		@ frame_needed = 0, uses_anonymous_args = 0
 1395              		@ link register save eliminated.
 186:lvgl/lvgl/src/extra/widgets/calendar/lv_calendar.c ****     return calendar->highlighted_dates_num;
 1396              		.loc 1 186 5 view .LVU395
 187:lvgl/lvgl/src/extra/widgets/calendar/lv_calendar.c **** }
 1397              		.loc 1 187 5 view .LVU396
 188:lvgl/lvgl/src/extra/widgets/calendar/lv_calendar.c **** 
 1398              		.loc 1 188 1 is_stmt 0 view .LVU397
 1399 0000 B0F84400 		ldrh	r0, [r0, #68]
 1400              	.LVL144:
 188:lvgl/lvgl/src/extra/widgets/calendar/lv_calendar.c **** 
 1401              		.loc 1 188 1 view .LVU398
 1402 0004 7047     		bx	lr
 1403              		.cfi_endproc
 1404              	.LFE197:
 1406              		.section	.text.lv_calendar_get_pressed_date,"ax",%progbits
 1407              		.align	1
 1408              		.global	lv_calendar_get_pressed_date
 1409              		.syntax unified
 1410              		.thumb
 1411              		.thumb_func
 1412              		.fpu fpv4-sp-d16
 1414              	lv_calendar_get_pressed_date:
 1415              	.LVL145:
 1416              	.LFB198:
 191:lvgl/lvgl/src/extra/widgets/calendar/lv_calendar.c ****     lv_calendar_t * calendar = (lv_calendar_t *)obj;
 1417              		.loc 1 191 1 is_stmt 1 view -0
 1418              		.cfi_startproc
 1419              		@ args = 0, pretend = 0, frame = 0
 1420              		@ frame_needed = 0, uses_anonymous_args = 0
 191:lvgl/lvgl/src/extra/widgets/calendar/lv_calendar.c ****     lv_calendar_t * calendar = (lv_calendar_t *)obj;
 1421              		.loc 1 191 1 is_stmt 0 view .LVU400
 1422 0000 38B5     		push	{r3, r4, r5, lr}
 1423              	.LCFI15:
 1424              		.cfi_def_cfa_offset 16
 1425              		.cfi_offset 3, -16
 1426              		.cfi_offset 4, -12
ARM GAS  C:\Users\gx\AppData\Local\Temp\ccN8omSo.s 			page 38


 1427              		.cfi_offset 5, -8
 1428              		.cfi_offset 14, -4
 1429 0002 0546     		mov	r5, r0
 1430 0004 0C46     		mov	r4, r1
 192:lvgl/lvgl/src/extra/widgets/calendar/lv_calendar.c ****     uint16_t d = lv_btnmatrix_get_selected_btn(obj);
 1431              		.loc 1 192 5 is_stmt 1 view .LVU401
 1432              	.LVL146:
 193:lvgl/lvgl/src/extra/widgets/calendar/lv_calendar.c ****     if(d == LV_BTNMATRIX_BTN_NONE) {
 1433              		.loc 1 193 5 view .LVU402
 193:lvgl/lvgl/src/extra/widgets/calendar/lv_calendar.c ****     if(d == LV_BTNMATRIX_BTN_NONE) {
 1434              		.loc 1 193 18 is_stmt 0 view .LVU403
 1435 0006 FFF7FEFF 		bl	lv_btnmatrix_get_selected_btn
 1436              	.LVL147:
 194:lvgl/lvgl/src/extra/widgets/calendar/lv_calendar.c ****         date->year = 0;
 1437              		.loc 1 194 5 is_stmt 1 view .LVU404
 194:lvgl/lvgl/src/extra/widgets/calendar/lv_calendar.c ****         date->year = 0;
 1438              		.loc 1 194 7 is_stmt 0 view .LVU405
 1439 000a 4FF6FF73 		movw	r3, #65535
 1440 000e 9842     		cmp	r0, r3
 1441 0010 12D0     		beq	.L96
 201:lvgl/lvgl/src/extra/widgets/calendar/lv_calendar.c **** 
 1442              		.loc 1 201 5 is_stmt 1 view .LVU406
 201:lvgl/lvgl/src/extra/widgets/calendar/lv_calendar.c **** 
 1443              		.loc 1 201 24 is_stmt 0 view .LVU407
 1444 0012 2846     		mov	r0, r5
 1445              	.LVL148:
 201:lvgl/lvgl/src/extra/widgets/calendar/lv_calendar.c **** 
 1446              		.loc 1 201 24 view .LVU408
 1447 0014 FFF7FEFF 		bl	lv_btnmatrix_get_selected_btn
 1448              	.LVL149:
 1449 0018 0146     		mov	r1, r0
 1450 001a 2846     		mov	r0, r5
 1451 001c FFF7FEFF 		bl	lv_btnmatrix_get_btn_text
 1452              	.LVL150:
 203:lvgl/lvgl/src/extra/widgets/calendar/lv_calendar.c ****     else date->day = (txt[0] - '0') * 10 + (txt[1] - '0');
 1453              		.loc 1 203 5 is_stmt 1 view .LVU409
 203:lvgl/lvgl/src/extra/widgets/calendar/lv_calendar.c ****     else date->day = (txt[0] - '0') * 10 + (txt[1] - '0');
 1454              		.loc 1 203 11 is_stmt 0 view .LVU410
 1455 0020 4378     		ldrb	r3, [r0, #1]	@ zero_extendqisi2
 203:lvgl/lvgl/src/extra/widgets/calendar/lv_calendar.c ****     else date->day = (txt[0] - '0') * 10 + (txt[1] - '0');
 1456              		.loc 1 203 7 view .LVU411
 1457 0022 73B9     		cbnz	r3, .L93
 203:lvgl/lvgl/src/extra/widgets/calendar/lv_calendar.c ****     else date->day = (txt[0] - '0') * 10 + (txt[1] - '0');
 1458              		.loc 1 203 21 is_stmt 1 discriminator 1 view .LVU412
 203:lvgl/lvgl/src/extra/widgets/calendar/lv_calendar.c ****     else date->day = (txt[0] - '0') * 10 + (txt[1] - '0');
 1459              		.loc 1 203 36 is_stmt 0 discriminator 1 view .LVU413
 1460 0024 0378     		ldrb	r3, [r0]	@ zero_extendqisi2
 203:lvgl/lvgl/src/extra/widgets/calendar/lv_calendar.c ****     else date->day = (txt[0] - '0') * 10 + (txt[1] - '0');
 1461              		.loc 1 203 40 discriminator 1 view .LVU414
 1462 0026 303B     		subs	r3, r3, #48
 203:lvgl/lvgl/src/extra/widgets/calendar/lv_calendar.c ****     else date->day = (txt[0] - '0') * 10 + (txt[1] - '0');
 1463              		.loc 1 203 31 discriminator 1 view .LVU415
 1464 0028 E370     		strb	r3, [r4, #3]
 1465              	.L94:
 206:lvgl/lvgl/src/extra/widgets/calendar/lv_calendar.c ****     date->month = calendar->showed_date.month;
 1466              		.loc 1 206 5 is_stmt 1 view .LVU416
 206:lvgl/lvgl/src/extra/widgets/calendar/lv_calendar.c ****     date->month = calendar->showed_date.month;
ARM GAS  C:\Users\gx\AppData\Local\Temp\ccN8omSo.s 			page 39


 1467              		.loc 1 206 39 is_stmt 0 view .LVU417
 1468 002a AB8F     		ldrh	r3, [r5, #60]
 206:lvgl/lvgl/src/extra/widgets/calendar/lv_calendar.c ****     date->month = calendar->showed_date.month;
 1469              		.loc 1 206 16 view .LVU418
 1470 002c 2380     		strh	r3, [r4]	@ movhi
 207:lvgl/lvgl/src/extra/widgets/calendar/lv_calendar.c **** 
 1471              		.loc 1 207 5 is_stmt 1 view .LVU419
 207:lvgl/lvgl/src/extra/widgets/calendar/lv_calendar.c **** 
 1472              		.loc 1 207 40 is_stmt 0 view .LVU420
 1473 002e 95F93E30 		ldrsb	r3, [r5, #62]
 207:lvgl/lvgl/src/extra/widgets/calendar/lv_calendar.c **** 
 1474              		.loc 1 207 17 view .LVU421
 1475 0032 A370     		strb	r3, [r4, #2]
 209:lvgl/lvgl/src/extra/widgets/calendar/lv_calendar.c **** }
 1476              		.loc 1 209 5 is_stmt 1 view .LVU422
 209:lvgl/lvgl/src/extra/widgets/calendar/lv_calendar.c **** }
 1477              		.loc 1 209 12 is_stmt 0 view .LVU423
 1478 0034 0120     		movs	r0, #1
 1479              	.LVL151:
 1480              	.L92:
 210:lvgl/lvgl/src/extra/widgets/calendar/lv_calendar.c **** 
 1481              		.loc 1 210 1 view .LVU424
 1482 0036 38BD     		pop	{r3, r4, r5, pc}
 1483              	.LVL152:
 1484              	.L96:
 195:lvgl/lvgl/src/extra/widgets/calendar/lv_calendar.c ****         date->month = 0;
 1485              		.loc 1 195 9 is_stmt 1 view .LVU425
 195:lvgl/lvgl/src/extra/widgets/calendar/lv_calendar.c ****         date->month = 0;
 1486              		.loc 1 195 20 is_stmt 0 view .LVU426
 1487 0038 0020     		movs	r0, #0
 1488              	.LVL153:
 195:lvgl/lvgl/src/extra/widgets/calendar/lv_calendar.c ****         date->month = 0;
 1489              		.loc 1 195 20 view .LVU427
 1490 003a 2080     		strh	r0, [r4]	@ movhi
 196:lvgl/lvgl/src/extra/widgets/calendar/lv_calendar.c ****         date->day = 0;
 1491              		.loc 1 196 9 is_stmt 1 view .LVU428
 196:lvgl/lvgl/src/extra/widgets/calendar/lv_calendar.c ****         date->day = 0;
 1492              		.loc 1 196 21 is_stmt 0 view .LVU429
 1493 003c A070     		strb	r0, [r4, #2]
 197:lvgl/lvgl/src/extra/widgets/calendar/lv_calendar.c ****         return LV_RES_INV;
 1494              		.loc 1 197 9 is_stmt 1 view .LVU430
 197:lvgl/lvgl/src/extra/widgets/calendar/lv_calendar.c ****         return LV_RES_INV;
 1495              		.loc 1 197 19 is_stmt 0 view .LVU431
 1496 003e E070     		strb	r0, [r4, #3]
 198:lvgl/lvgl/src/extra/widgets/calendar/lv_calendar.c ****     }
 1497              		.loc 1 198 9 is_stmt 1 view .LVU432
 198:lvgl/lvgl/src/extra/widgets/calendar/lv_calendar.c ****     }
 1498              		.loc 1 198 16 is_stmt 0 view .LVU433
 1499 0040 F9E7     		b	.L92
 1500              	.LVL154:
 1501              	.L93:
 204:lvgl/lvgl/src/extra/widgets/calendar/lv_calendar.c **** 
 1502              		.loc 1 204 10 is_stmt 1 view .LVU434
 204:lvgl/lvgl/src/extra/widgets/calendar/lv_calendar.c **** 
 1503              		.loc 1 204 26 is_stmt 0 view .LVU435
 1504 0042 0278     		ldrb	r2, [r0]	@ zero_extendqisi2
 204:lvgl/lvgl/src/extra/widgets/calendar/lv_calendar.c **** 
ARM GAS  C:\Users\gx\AppData\Local\Temp\ccN8omSo.s 			page 40


 1505              		.loc 1 204 42 view .LVU436
 1506 0044 303A     		subs	r2, r2, #48
 1507 0046 02EB8202 		add	r2, r2, r2, lsl #2
 1508 004a 03EB4203 		add	r3, r3, r2, lsl #1
 1509 004e 303B     		subs	r3, r3, #48
 204:lvgl/lvgl/src/extra/widgets/calendar/lv_calendar.c **** 
 1510              		.loc 1 204 20 view .LVU437
 1511 0050 E370     		strb	r3, [r4, #3]
 1512 0052 EAE7     		b	.L94
 1513              		.cfi_endproc
 1514              	.LFE198:
 1516              		.section	.rodata.str1.4,"aMS",%progbits,1
 1517              		.align	2
 1518              	.LC7:
 1519 0000 537500   		.ascii	"Su\000"
 1520 0003 00       		.align	2
 1521              	.LC8:
 1522 0004 4D6F00   		.ascii	"Mo\000"
 1523 0007 00       		.align	2
 1524              	.LC9:
 1525 0008 547500   		.ascii	"Tu\000"
 1526 000b 00       		.align	2
 1527              	.LC10:
 1528 000c 576500   		.ascii	"We\000"
 1529 000f 00       		.align	2
 1530              	.LC11:
 1531 0010 546800   		.ascii	"Th\000"
 1532 0013 00       		.align	2
 1533              	.LC12:
 1534 0014 467200   		.ascii	"Fr\000"
 1535 0017 00       		.align	2
 1536              	.LC13:
 1537 0018 536100   		.ascii	"Sa\000"
 1538              		.global	lv_calendar_class
 1539              		.section	.rodata.__func__.12131,"a"
 1540              		.align	2
 1541              		.set	.LANCHOR1,. + 0
 1544              	__func__.12131:
 1545 0000 6C765F63 		.ascii	"lv_calendar_set_highlighted_dates\000"
 1545      616C656E 
 1545      6461725F 
 1545      7365745F 
 1545      68696768 
 1546              		.section	.rodata.day_names_def,"a"
 1547              		.align	2
 1548              		.set	.LANCHOR2,. + 0
 1551              	day_names_def:
 1552 0000 00000000 		.word	.LC7
 1553 0004 04000000 		.word	.LC8
 1554 0008 08000000 		.word	.LC9
 1555 000c 0C000000 		.word	.LC10
 1556 0010 10000000 		.word	.LC11
 1557 0014 14000000 		.word	.LC12
 1558 0018 18000000 		.word	.LC13
 1559              		.section	.rodata.lv_calendar_class,"a"
 1560              		.align	2
 1561              		.set	.LANCHOR0,. + 0
ARM GAS  C:\Users\gx\AppData\Local\Temp\ccN8omSo.s 			page 41


 1564              	lv_calendar_class:
 1565 0000 00000000 		.word	lv_btnmatrix_class
 1566 0004 00000000 		.word	lv_calendar_constructor
 1567 0008 00000000 		.space	12
 1567      00000000 
 1567      00000000 
 1568 0014 C300     		.short	195
 1569 0016 C300     		.short	195
 1570 0018 04       		.byte	4
 1571 0019 1D       		.byte	29
 1572 001a 00       		.byte	0
 1573 001b 00       		.space	1
 1574              		.text
 1575              	.Letext0:
 1576              		.file 2 "c:\\program files (x86)\\gnu arm embedded toolchain\\9 2020-q2-update\\arm-none-eabi\\inc
 1577              		.file 3 "c:\\program files (x86)\\gnu arm embedded toolchain\\9 2020-q2-update\\arm-none-eabi\\inc
 1578              		.file 4 "c:\\program files (x86)\\gnu arm embedded toolchain\\9 2020-q2-update\\lib\\gcc\\arm-none
 1579              		.file 5 "c:\\program files (x86)\\gnu arm embedded toolchain\\9 2020-q2-update\\arm-none-eabi\\inc
 1580              		.file 6 "c:\\program files (x86)\\gnu arm embedded toolchain\\9 2020-q2-update\\arm-none-eabi\\inc
 1581              		.file 7 "c:\\program files (x86)\\gnu arm embedded toolchain\\9 2020-q2-update\\arm-none-eabi\\inc
 1582              		.file 8 "d:\\practise\\f407_disc\\lvgl\\lvgl\\src\\misc\\lv_area.h"
 1583              		.file 9 "d:\\practise\\f407_disc\\lvgl\\lvgl\\src\\font\\lv_font.h"
 1584              		.file 10 "d:\\practise\\f407_disc\\lvgl\\lvgl\\src\\misc\\lv_types.h"
 1585              		.file 11 "d:\\practise\\f407_disc\\lvgl\\lvgl\\src\\misc\\lv_color.h"
 1586              		.file 12 "d:\\practise\\f407_disc\\lvgl\\lvgl\\src\\misc\\lv_txt.h"
 1587              		.file 13 "d:\\practise\\f407_disc\\lvgl\\lvgl\\src\\misc\\lv_bidi.h"
 1588              		.file 14 "d:\\practise\\f407_disc\\lvgl\\lvgl\\src\\misc\\lv_style.h"
 1589              		.file 15 "d:\\practise\\f407_disc\\lvgl\\lvgl\\src\\misc\\lv_ll.h"
 1590              		.file 16 "d:\\practise\\f407_disc\\lvgl\\lvgl\\src\\core\\lv_obj.h"
 1591              		.file 17 "d:\\practise\\f407_disc\\lvgl\\lvgl\\src\\core\\lv_group.h"
 1592              		.file 18 "d:\\practise\\f407_disc\\lvgl\\lvgl\\src\\core\\lv_obj_scroll.h"
 1593              		.file 19 "d:\\practise\\f407_disc\\lvgl\\lvgl\\src\\core\\lv_obj_style.h"
 1594              		.file 20 "d:\\practise\\f407_disc\\lvgl\\lvgl\\src\\draw\\lv_draw_rect.h"
 1595              		.file 21 "d:\\practise\\f407_disc\\lvgl\\lvgl\\src\\draw\\lv_draw_label.h"
 1596              		.file 22 "d:\\practise\\f407_disc\\lvgl\\lvgl\\src\\draw\\lv_draw_img.h"
 1597              		.file 23 "d:\\practise\\f407_disc\\lvgl\\lvgl\\src\\draw\\lv_draw_line.h"
 1598              		.file 24 "d:\\practise\\f407_disc\\lvgl\\lvgl\\src\\draw\\lv_draw_arc.h"
 1599              		.file 25 "d:\\practise\\f407_disc\\lvgl\\lvgl\\src\\core\\lv_obj_draw.h"
 1600              		.file 26 "d:\\practise\\f407_disc\\lvgl\\lvgl\\src\\core\\lv_obj_class.h"
 1601              		.file 27 "d:\\practise\\f407_disc\\lvgl\\lvgl\\src\\core\\lv_event.h"
 1602              		.file 28 "d:\\practise\\f407_disc\\lvgl\\lvgl\\src\\widgets\\lv_btnmatrix.h"
 1603              		.file 29 "lvgl/lvgl/src/extra/widgets/calendar/lv_calendar.h"
 1604              		.file 30 "d:\\practise\\f407_disc\\lvgl\\lvgl\\src/widgets/lv_arc.h"
 1605              		.file 31 "d:\\practise\\f407_disc\\lvgl\\lvgl\\src/widgets/lv_btn.h"
 1606              		.file 32 "d:\\practise\\f407_disc\\lvgl\\lvgl\\src/widgets/lv_img.h"
 1607              		.file 33 "d:\\practise\\f407_disc\\lvgl\\lvgl\\src/widgets/lv_label.h"
 1608              		.file 34 "d:\\practise\\f407_disc\\lvgl\\lvgl\\src/widgets/lv_line.h"
 1609              		.file 35 "d:\\practise\\f407_disc\\lvgl\\lvgl\\src/widgets/lv_table.h"
 1610              		.file 36 "d:\\practise\\f407_disc\\lvgl\\lvgl\\src/widgets/lv_checkbox.h"
 1611              		.file 37 "d:\\practise\\f407_disc\\lvgl\\lvgl\\src/widgets/lv_bar.h"
 1612              		.file 38 "d:\\practise\\f407_disc\\lvgl\\lvgl\\src/widgets/lv_slider.h"
 1613              		.file 39 "d:\\practise\\f407_disc\\lvgl\\lvgl\\src/widgets/lv_dropdown.h"
 1614              		.file 40 "d:\\practise\\f407_disc\\lvgl\\lvgl\\src/widgets/lv_roller.h"
 1615              		.file 41 "d:\\practise\\f407_disc\\lvgl\\lvgl\\src/widgets/lv_textarea.h"
 1616              		.file 42 "d:\\practise\\f407_disc\\lvgl\\lvgl\\src/widgets/lv_canvas.h"
 1617              		.file 43 "d:\\practise\\f407_disc\\lvgl\\lvgl\\src/widgets/lv_switch.h"
 1618              		.file 44 "d:\\practise\\f407_disc\\lvgl\\lvgl\\src/extra/widgets/animimg/lv_animimg.h"
ARM GAS  C:\Users\gx\AppData\Local\Temp\ccN8omSo.s 			page 42


 1619              		.file 45 "d:\\practise\\f407_disc\\lvgl\\lvgl\\src/extra/widgets/calendar/lv_calendar_header_arrow
 1620              		.file 46 "d:\\practise\\f407_disc\\lvgl\\lvgl\\src/extra/widgets/calendar/lv_calendar_header_dropd
 1621              		.file 47 "d:\\practise\\f407_disc\\lvgl\\lvgl\\src/extra/widgets/chart/lv_chart.h"
 1622              		.file 48 "d:\\practise\\f407_disc\\lvgl\\lvgl\\src/extra/widgets/keyboard/lv_keyboard.h"
 1623              		.file 49 "d:\\practise\\f407_disc\\lvgl\\lvgl\\src\\extra\\layouts\\flex\\lv_flex.h"
 1624              		.file 50 "d:\\practise\\f407_disc\\lvgl\\lvgl\\src/extra/widgets/list/lv_list.h"
 1625              		.file 51 "d:\\practise\\f407_disc\\lvgl\\lvgl\\src/extra/widgets/msgbox/lv_msgbox.h"
 1626              		.file 52 "d:\\practise\\f407_disc\\lvgl\\lvgl\\src/extra/widgets/meter/lv_meter.h"
 1627              		.file 53 "d:\\practise\\f407_disc\\lvgl\\lvgl\\src/extra/widgets/spinbox/lv_spinbox.h"
 1628              		.file 54 "d:\\practise\\f407_disc\\lvgl\\lvgl\\src/extra/widgets/spinner/lv_spinner.h"
 1629              		.file 55 "d:\\practise\\f407_disc\\lvgl\\lvgl\\src/extra/widgets/tabview/lv_tabview.h"
 1630              		.file 56 "d:\\practise\\f407_disc\\lvgl\\lvgl\\src/extra/widgets/tileview/lv_tileview.h"
 1631              		.file 57 "d:\\practise\\f407_disc\\lvgl\\lvgl\\src/extra/widgets/win/lv_win.h"
 1632              		.file 58 "d:\\practise\\f407_disc\\lvgl\\lvgl\\src/extra/widgets/colorwheel/lv_colorwheel.h"
 1633              		.file 59 "d:\\practise\\f407_disc\\lvgl\\lvgl\\src/extra/widgets/led/lv_led.h"
 1634              		.file 60 "d:\\practise\\f407_disc\\lvgl\\lvgl\\src/extra/widgets/imgbtn/lv_imgbtn.h"
 1635              		.file 61 "d:\\practise\\f407_disc\\lvgl\\lvgl\\src/extra/widgets/span/lv_span.h"
 1636              		.file 62 "d:\\practise\\f407_disc\\lvgl\\lvgl\\src/extra/layouts/grid/lv_grid.h"
 1637              		.file 63 "d:\\practise\\f407_disc\\lvgl\\lvgl\\src/core/lv_theme.h"
 1638              		.file 64 "d:\\practise\\f407_disc\\lvgl\\lvgl\\src\\misc\\lv_mem.h"
 1639              		.file 65 "d:\\practise\\f407_disc\\lvgl\\lvgl\\src\\misc\\lv_printf.h"
 1640              		.file 66 "d:\\practise\\f407_disc\\lvgl\\lvgl\\src\\core\\lv_obj_pos.h"
 1641              		.file 67 "d:\\practise\\f407_disc\\lvgl\\lvgl\\src\\misc\\lv_log.h"
ARM GAS  C:\Users\gx\AppData\Local\Temp\ccN8omSo.s 			page 43

