ARM GAS  C:\Users\gx\AppData\Local\Temp\ccJLdkpG.s 			page 1


   1              		.cpu cortex-m4
   2              		.eabi_attribute 27, 1
   3              		.eabi_attribute 28, 1
   4              		.eabi_attribute 20, 1
   5              		.eabi_attribute 21, 1
   6              		.eabi_attribute 23, 3
   7              		.eabi_attribute 24, 1
   8              		.eabi_attribute 25, 1
   9              		.eabi_attribute 26, 1
  10              		.eabi_attribute 30, 1
  11              		.eabi_attribute 34, 1
  12              		.eabi_attribute 18, 4
  13              		.file	"lv_canvas.c"
  14              		.text
  15              	.Ltext0:
  16              		.cfi_sections	.debug_frame
  17              		.section	.text.lv_canvas_destructor,"ax",%progbits
  18              		.align	1
  19              		.arch armv7e-m
  20              		.syntax unified
  21              		.thumb
  22              		.thumb_func
  23              		.fpu fpv4-sp-d16
  25              	lv_canvas_destructor:
  26              	.LVL0:
  27              	.LFB170:
  28              		.file 1 "lvgl/lvgl/src/widgets/lv_canvas.c"
   1:lvgl/lvgl/src/widgets/lv_canvas.c **** /**
   2:lvgl/lvgl/src/widgets/lv_canvas.c ****  * @file lv_canvas.c
   3:lvgl/lvgl/src/widgets/lv_canvas.c ****  *
   4:lvgl/lvgl/src/widgets/lv_canvas.c ****  */
   5:lvgl/lvgl/src/widgets/lv_canvas.c **** 
   6:lvgl/lvgl/src/widgets/lv_canvas.c **** /*********************
   7:lvgl/lvgl/src/widgets/lv_canvas.c ****  *      INCLUDES
   8:lvgl/lvgl/src/widgets/lv_canvas.c ****  *********************/
   9:lvgl/lvgl/src/widgets/lv_canvas.c **** #include "lv_canvas.h"
  10:lvgl/lvgl/src/widgets/lv_canvas.c **** #include "../misc/lv_assert.h"
  11:lvgl/lvgl/src/widgets/lv_canvas.c **** #include "../misc/lv_math.h"
  12:lvgl/lvgl/src/widgets/lv_canvas.c **** #include "../draw/lv_draw.h"
  13:lvgl/lvgl/src/widgets/lv_canvas.c **** #include "../core/lv_refr.h"
  14:lvgl/lvgl/src/widgets/lv_canvas.c **** 
  15:lvgl/lvgl/src/widgets/lv_canvas.c **** #if LV_USE_CANVAS != 0
  16:lvgl/lvgl/src/widgets/lv_canvas.c **** 
  17:lvgl/lvgl/src/widgets/lv_canvas.c **** /*********************
  18:lvgl/lvgl/src/widgets/lv_canvas.c ****  *      DEFINES
  19:lvgl/lvgl/src/widgets/lv_canvas.c ****  *********************/
  20:lvgl/lvgl/src/widgets/lv_canvas.c **** #define MY_CLASS &lv_canvas_class
  21:lvgl/lvgl/src/widgets/lv_canvas.c **** 
  22:lvgl/lvgl/src/widgets/lv_canvas.c **** /**********************
  23:lvgl/lvgl/src/widgets/lv_canvas.c ****  *      TYPEDEFS
  24:lvgl/lvgl/src/widgets/lv_canvas.c ****  **********************/
  25:lvgl/lvgl/src/widgets/lv_canvas.c **** 
  26:lvgl/lvgl/src/widgets/lv_canvas.c **** /**********************
  27:lvgl/lvgl/src/widgets/lv_canvas.c ****  *  STATIC PROTOTYPES
  28:lvgl/lvgl/src/widgets/lv_canvas.c ****  **********************/
  29:lvgl/lvgl/src/widgets/lv_canvas.c **** static void lv_canvas_constructor(const lv_obj_class_t * class_p, lv_obj_t * obj);
  30:lvgl/lvgl/src/widgets/lv_canvas.c **** static void lv_canvas_destructor(const lv_obj_class_t * class_p, lv_obj_t * obj);
ARM GAS  C:\Users\gx\AppData\Local\Temp\ccJLdkpG.s 			page 2


  31:lvgl/lvgl/src/widgets/lv_canvas.c **** 
  32:lvgl/lvgl/src/widgets/lv_canvas.c **** /**********************
  33:lvgl/lvgl/src/widgets/lv_canvas.c ****  *  STATIC VARIABLES
  34:lvgl/lvgl/src/widgets/lv_canvas.c ****  **********************/
  35:lvgl/lvgl/src/widgets/lv_canvas.c **** const lv_obj_class_t lv_canvas_class = {
  36:lvgl/lvgl/src/widgets/lv_canvas.c ****     .constructor_cb = lv_canvas_constructor,
  37:lvgl/lvgl/src/widgets/lv_canvas.c ****     .destructor_cb = lv_canvas_destructor,
  38:lvgl/lvgl/src/widgets/lv_canvas.c ****     .instance_size = sizeof(lv_canvas_t),
  39:lvgl/lvgl/src/widgets/lv_canvas.c ****     .base_class = &lv_img_class
  40:lvgl/lvgl/src/widgets/lv_canvas.c **** };
  41:lvgl/lvgl/src/widgets/lv_canvas.c **** 
  42:lvgl/lvgl/src/widgets/lv_canvas.c **** /**********************
  43:lvgl/lvgl/src/widgets/lv_canvas.c ****  *      MACROS
  44:lvgl/lvgl/src/widgets/lv_canvas.c ****  **********************/
  45:lvgl/lvgl/src/widgets/lv_canvas.c **** 
  46:lvgl/lvgl/src/widgets/lv_canvas.c **** /**********************
  47:lvgl/lvgl/src/widgets/lv_canvas.c ****  *   GLOBAL FUNCTIONS
  48:lvgl/lvgl/src/widgets/lv_canvas.c ****  **********************/
  49:lvgl/lvgl/src/widgets/lv_canvas.c **** 
  50:lvgl/lvgl/src/widgets/lv_canvas.c **** lv_obj_t * lv_canvas_create(lv_obj_t * parent)
  51:lvgl/lvgl/src/widgets/lv_canvas.c **** {
  52:lvgl/lvgl/src/widgets/lv_canvas.c ****     LV_LOG_INFO("begin")
  53:lvgl/lvgl/src/widgets/lv_canvas.c ****     lv_obj_t * obj = lv_obj_class_create_obj(MY_CLASS, parent);
  54:lvgl/lvgl/src/widgets/lv_canvas.c ****     lv_obj_class_init_obj(obj);
  55:lvgl/lvgl/src/widgets/lv_canvas.c ****     return obj;
  56:lvgl/lvgl/src/widgets/lv_canvas.c **** }
  57:lvgl/lvgl/src/widgets/lv_canvas.c **** 
  58:lvgl/lvgl/src/widgets/lv_canvas.c **** /*=====================
  59:lvgl/lvgl/src/widgets/lv_canvas.c ****  * Setter functions
  60:lvgl/lvgl/src/widgets/lv_canvas.c ****  *====================*/
  61:lvgl/lvgl/src/widgets/lv_canvas.c **** 
  62:lvgl/lvgl/src/widgets/lv_canvas.c **** void lv_canvas_set_buffer(lv_obj_t * obj, void * buf, lv_coord_t w, lv_coord_t h, lv_img_cf_t cf)
  63:lvgl/lvgl/src/widgets/lv_canvas.c **** {
  64:lvgl/lvgl/src/widgets/lv_canvas.c ****     LV_ASSERT_OBJ(obj, MY_CLASS);
  65:lvgl/lvgl/src/widgets/lv_canvas.c ****     LV_ASSERT_NULL(buf);
  66:lvgl/lvgl/src/widgets/lv_canvas.c **** 
  67:lvgl/lvgl/src/widgets/lv_canvas.c ****     lv_canvas_t * canvas = (lv_canvas_t *)obj;
  68:lvgl/lvgl/src/widgets/lv_canvas.c **** 
  69:lvgl/lvgl/src/widgets/lv_canvas.c ****     canvas->dsc.header.cf = cf;
  70:lvgl/lvgl/src/widgets/lv_canvas.c ****     canvas->dsc.header.w  = w;
  71:lvgl/lvgl/src/widgets/lv_canvas.c ****     canvas->dsc.header.h  = h;
  72:lvgl/lvgl/src/widgets/lv_canvas.c ****     canvas->dsc.data      = buf;
  73:lvgl/lvgl/src/widgets/lv_canvas.c **** 
  74:lvgl/lvgl/src/widgets/lv_canvas.c ****     lv_img_set_src(obj, &canvas->dsc);
  75:lvgl/lvgl/src/widgets/lv_canvas.c **** }
  76:lvgl/lvgl/src/widgets/lv_canvas.c **** 
  77:lvgl/lvgl/src/widgets/lv_canvas.c **** void lv_canvas_set_px(lv_obj_t * obj, lv_coord_t x, lv_coord_t y, lv_color_t c)
  78:lvgl/lvgl/src/widgets/lv_canvas.c **** {
  79:lvgl/lvgl/src/widgets/lv_canvas.c ****     LV_ASSERT_OBJ(obj, MY_CLASS);
  80:lvgl/lvgl/src/widgets/lv_canvas.c **** 
  81:lvgl/lvgl/src/widgets/lv_canvas.c ****     lv_canvas_t * canvas = (lv_canvas_t *)obj;
  82:lvgl/lvgl/src/widgets/lv_canvas.c **** 
  83:lvgl/lvgl/src/widgets/lv_canvas.c ****     lv_img_buf_set_px_color(&canvas->dsc, x, y, c);
  84:lvgl/lvgl/src/widgets/lv_canvas.c ****     lv_obj_invalidate(obj);
  85:lvgl/lvgl/src/widgets/lv_canvas.c **** }
  86:lvgl/lvgl/src/widgets/lv_canvas.c **** 
  87:lvgl/lvgl/src/widgets/lv_canvas.c **** void lv_canvas_set_palette(lv_obj_t * obj, uint8_t id, lv_color_t c)
ARM GAS  C:\Users\gx\AppData\Local\Temp\ccJLdkpG.s 			page 3


  88:lvgl/lvgl/src/widgets/lv_canvas.c **** {
  89:lvgl/lvgl/src/widgets/lv_canvas.c ****     LV_ASSERT_OBJ(obj, MY_CLASS);
  90:lvgl/lvgl/src/widgets/lv_canvas.c **** 
  91:lvgl/lvgl/src/widgets/lv_canvas.c ****     lv_canvas_t * canvas = (lv_canvas_t *)obj;
  92:lvgl/lvgl/src/widgets/lv_canvas.c **** 
  93:lvgl/lvgl/src/widgets/lv_canvas.c ****     lv_img_buf_set_palette(&canvas->dsc, id, c);
  94:lvgl/lvgl/src/widgets/lv_canvas.c ****     lv_obj_invalidate(obj);
  95:lvgl/lvgl/src/widgets/lv_canvas.c **** }
  96:lvgl/lvgl/src/widgets/lv_canvas.c **** 
  97:lvgl/lvgl/src/widgets/lv_canvas.c **** /*=====================
  98:lvgl/lvgl/src/widgets/lv_canvas.c ****  * Getter functions
  99:lvgl/lvgl/src/widgets/lv_canvas.c ****  *====================*/
 100:lvgl/lvgl/src/widgets/lv_canvas.c **** 
 101:lvgl/lvgl/src/widgets/lv_canvas.c **** lv_color_t lv_canvas_get_px(lv_obj_t * obj, lv_coord_t x, lv_coord_t y)
 102:lvgl/lvgl/src/widgets/lv_canvas.c **** {
 103:lvgl/lvgl/src/widgets/lv_canvas.c ****     LV_ASSERT_OBJ(obj, MY_CLASS);
 104:lvgl/lvgl/src/widgets/lv_canvas.c **** 
 105:lvgl/lvgl/src/widgets/lv_canvas.c ****     lv_canvas_t * canvas = (lv_canvas_t *)obj;
 106:lvgl/lvgl/src/widgets/lv_canvas.c ****     lv_color_t color = lv_obj_get_style_img_recolor(obj, LV_PART_MAIN);
 107:lvgl/lvgl/src/widgets/lv_canvas.c **** 
 108:lvgl/lvgl/src/widgets/lv_canvas.c ****     return lv_img_buf_get_px_color(&canvas->dsc, x, y, color);
 109:lvgl/lvgl/src/widgets/lv_canvas.c **** }
 110:lvgl/lvgl/src/widgets/lv_canvas.c **** 
 111:lvgl/lvgl/src/widgets/lv_canvas.c **** lv_img_dsc_t * lv_canvas_get_img(lv_obj_t * obj)
 112:lvgl/lvgl/src/widgets/lv_canvas.c **** {
 113:lvgl/lvgl/src/widgets/lv_canvas.c ****     LV_ASSERT_OBJ(obj, MY_CLASS);
 114:lvgl/lvgl/src/widgets/lv_canvas.c **** 
 115:lvgl/lvgl/src/widgets/lv_canvas.c ****     lv_canvas_t * canvas = (lv_canvas_t *)obj;
 116:lvgl/lvgl/src/widgets/lv_canvas.c ****     return &canvas->dsc;
 117:lvgl/lvgl/src/widgets/lv_canvas.c **** }
 118:lvgl/lvgl/src/widgets/lv_canvas.c **** 
 119:lvgl/lvgl/src/widgets/lv_canvas.c **** /*=====================
 120:lvgl/lvgl/src/widgets/lv_canvas.c ****  * Other functions
 121:lvgl/lvgl/src/widgets/lv_canvas.c ****  *====================*/
 122:lvgl/lvgl/src/widgets/lv_canvas.c **** 
 123:lvgl/lvgl/src/widgets/lv_canvas.c **** void lv_canvas_copy_buf(lv_obj_t * obj, const void * to_copy, lv_coord_t x, lv_coord_t y, lv_coord_
 124:lvgl/lvgl/src/widgets/lv_canvas.c **** {
 125:lvgl/lvgl/src/widgets/lv_canvas.c ****     LV_ASSERT_OBJ(obj, MY_CLASS);
 126:lvgl/lvgl/src/widgets/lv_canvas.c ****     LV_ASSERT_NULL(to_copy);
 127:lvgl/lvgl/src/widgets/lv_canvas.c **** 
 128:lvgl/lvgl/src/widgets/lv_canvas.c ****     lv_canvas_t * canvas = (lv_canvas_t *)obj;
 129:lvgl/lvgl/src/widgets/lv_canvas.c **** 
 130:lvgl/lvgl/src/widgets/lv_canvas.c ****     if(x + w >= (lv_coord_t)canvas->dsc.header.w || y + h >= (lv_coord_t)canvas->dsc.header.h) {
 131:lvgl/lvgl/src/widgets/lv_canvas.c ****         LV_LOG_WARN("lv_canvas_copy_buf: x or y out of the canvas");
 132:lvgl/lvgl/src/widgets/lv_canvas.c ****         return;
 133:lvgl/lvgl/src/widgets/lv_canvas.c ****     }
 134:lvgl/lvgl/src/widgets/lv_canvas.c **** 
 135:lvgl/lvgl/src/widgets/lv_canvas.c ****     uint32_t px_size   = lv_img_cf_get_px_size(canvas->dsc.header.cf) >> 3;
 136:lvgl/lvgl/src/widgets/lv_canvas.c ****     uint32_t px        = canvas->dsc.header.w * y * px_size + x * px_size;
 137:lvgl/lvgl/src/widgets/lv_canvas.c ****     uint8_t * to_copy8 = (uint8_t *)to_copy;
 138:lvgl/lvgl/src/widgets/lv_canvas.c ****     lv_coord_t i;
 139:lvgl/lvgl/src/widgets/lv_canvas.c ****     for(i = 0; i < h; i++) {
 140:lvgl/lvgl/src/widgets/lv_canvas.c ****         lv_memcpy((void *)&canvas->dsc.data[px], to_copy8, w * px_size);
 141:lvgl/lvgl/src/widgets/lv_canvas.c ****         px += canvas->dsc.header.w * px_size;
 142:lvgl/lvgl/src/widgets/lv_canvas.c ****         to_copy8 += w * px_size;
 143:lvgl/lvgl/src/widgets/lv_canvas.c ****     }
 144:lvgl/lvgl/src/widgets/lv_canvas.c **** }
ARM GAS  C:\Users\gx\AppData\Local\Temp\ccJLdkpG.s 			page 4


 145:lvgl/lvgl/src/widgets/lv_canvas.c **** 
 146:lvgl/lvgl/src/widgets/lv_canvas.c **** void lv_canvas_transform(lv_obj_t * obj, lv_img_dsc_t * img, int16_t angle, uint16_t zoom, lv_coord
 147:lvgl/lvgl/src/widgets/lv_canvas.c ****                          lv_coord_t offset_y,
 148:lvgl/lvgl/src/widgets/lv_canvas.c ****                          int32_t pivot_x, int32_t pivot_y, bool antialias)
 149:lvgl/lvgl/src/widgets/lv_canvas.c **** {
 150:lvgl/lvgl/src/widgets/lv_canvas.c **** #if LV_DRAW_COMPLEX
 151:lvgl/lvgl/src/widgets/lv_canvas.c ****     LV_ASSERT_OBJ(obj, MY_CLASS);
 152:lvgl/lvgl/src/widgets/lv_canvas.c ****     LV_ASSERT_NULL(img);
 153:lvgl/lvgl/src/widgets/lv_canvas.c **** 
 154:lvgl/lvgl/src/widgets/lv_canvas.c ****     lv_canvas_t * canvas = (lv_canvas_t *)obj;
 155:lvgl/lvgl/src/widgets/lv_canvas.c ****     lv_color_t color = lv_obj_get_style_img_recolor(obj, LV_PART_MAIN);
 156:lvgl/lvgl/src/widgets/lv_canvas.c **** 
 157:lvgl/lvgl/src/widgets/lv_canvas.c ****     int32_t dest_width  = canvas->dsc.header.w;
 158:lvgl/lvgl/src/widgets/lv_canvas.c ****     int32_t dest_height = canvas->dsc.header.h;
 159:lvgl/lvgl/src/widgets/lv_canvas.c **** 
 160:lvgl/lvgl/src/widgets/lv_canvas.c ****     int32_t x;
 161:lvgl/lvgl/src/widgets/lv_canvas.c ****     int32_t y;
 162:lvgl/lvgl/src/widgets/lv_canvas.c ****     bool ret;
 163:lvgl/lvgl/src/widgets/lv_canvas.c **** 
 164:lvgl/lvgl/src/widgets/lv_canvas.c ****     lv_img_transform_dsc_t dsc;
 165:lvgl/lvgl/src/widgets/lv_canvas.c ****     dsc.cfg.angle = angle;
 166:lvgl/lvgl/src/widgets/lv_canvas.c ****     dsc.cfg.zoom = zoom;
 167:lvgl/lvgl/src/widgets/lv_canvas.c ****     dsc.cfg.src = img->data;
 168:lvgl/lvgl/src/widgets/lv_canvas.c ****     dsc.cfg.src_w = img->header.w;
 169:lvgl/lvgl/src/widgets/lv_canvas.c ****     dsc.cfg.src_h = img->header.h;
 170:lvgl/lvgl/src/widgets/lv_canvas.c ****     dsc.cfg.cf = img->header.cf;
 171:lvgl/lvgl/src/widgets/lv_canvas.c ****     dsc.cfg.pivot_x = pivot_x;
 172:lvgl/lvgl/src/widgets/lv_canvas.c ****     dsc.cfg.pivot_y = pivot_y;
 173:lvgl/lvgl/src/widgets/lv_canvas.c ****     dsc.cfg.color = color;
 174:lvgl/lvgl/src/widgets/lv_canvas.c ****     dsc.cfg.antialias = antialias;
 175:lvgl/lvgl/src/widgets/lv_canvas.c ****     _lv_img_buf_transform_init(&dsc);
 176:lvgl/lvgl/src/widgets/lv_canvas.c **** 
 177:lvgl/lvgl/src/widgets/lv_canvas.c ****     for(y = -offset_y; y < dest_height - offset_y; y++) {
 178:lvgl/lvgl/src/widgets/lv_canvas.c ****         for(x = -offset_x; x < dest_width - offset_x; x++) {
 179:lvgl/lvgl/src/widgets/lv_canvas.c **** 
 180:lvgl/lvgl/src/widgets/lv_canvas.c ****             ret = _lv_img_buf_transform(&dsc, x, y);
 181:lvgl/lvgl/src/widgets/lv_canvas.c **** 
 182:lvgl/lvgl/src/widgets/lv_canvas.c ****             if(ret == false) continue;
 183:lvgl/lvgl/src/widgets/lv_canvas.c **** 
 184:lvgl/lvgl/src/widgets/lv_canvas.c ****             if(x + offset_x >= 0 && x + offset_x < dest_width && y + offset_y >= 0 && y + offset_y 
 185:lvgl/lvgl/src/widgets/lv_canvas.c ****                 /*If the image has no alpha channel just simple set the result color on the canvas*
 186:lvgl/lvgl/src/widgets/lv_canvas.c ****                 if(lv_img_cf_has_alpha(img->header.cf) == false) {
 187:lvgl/lvgl/src/widgets/lv_canvas.c ****                     lv_img_buf_set_px_color(&canvas->dsc, x + offset_x, y + offset_y, dsc.res.color
 188:lvgl/lvgl/src/widgets/lv_canvas.c ****                 }
 189:lvgl/lvgl/src/widgets/lv_canvas.c ****                 else {
 190:lvgl/lvgl/src/widgets/lv_canvas.c ****                     lv_color_t bg_color = lv_img_buf_get_px_color(&canvas->dsc, x + offset_x, y + o
 191:lvgl/lvgl/src/widgets/lv_canvas.c **** 
 192:lvgl/lvgl/src/widgets/lv_canvas.c ****                     /*If the canvas has no alpha but the image has mix the image's color with
 193:lvgl/lvgl/src/widgets/lv_canvas.c ****                      * canvas*/
 194:lvgl/lvgl/src/widgets/lv_canvas.c ****                     if(lv_img_cf_has_alpha(canvas->dsc.header.cf) == false) {
 195:lvgl/lvgl/src/widgets/lv_canvas.c ****                         if(dsc.res.opa < LV_OPA_MAX) dsc.res.color = lv_color_mix(dsc.res.color, bg
 196:lvgl/lvgl/src/widgets/lv_canvas.c ****                         lv_img_buf_set_px_color(&canvas->dsc, x + offset_x, y + offset_y, dsc.res.c
 197:lvgl/lvgl/src/widgets/lv_canvas.c ****                     }
 198:lvgl/lvgl/src/widgets/lv_canvas.c ****                     /*Both the image and canvas has alpha channel. Some extra calculation is
 199:lvgl/lvgl/src/widgets/lv_canvas.c ****                        required*/
 200:lvgl/lvgl/src/widgets/lv_canvas.c ****                     else {
 201:lvgl/lvgl/src/widgets/lv_canvas.c ****                         lv_opa_t bg_opa = lv_img_buf_get_px_alpha(&canvas->dsc, x + offset_x, y + o
ARM GAS  C:\Users\gx\AppData\Local\Temp\ccJLdkpG.s 			page 5


 202:lvgl/lvgl/src/widgets/lv_canvas.c ****                         /*Pick the foreground if it's fully opaque or the Background is fully
 203:lvgl/lvgl/src/widgets/lv_canvas.c ****                          *transparent*/
 204:lvgl/lvgl/src/widgets/lv_canvas.c ****                         if(dsc.res.opa >= LV_OPA_MAX || bg_opa <= LV_OPA_MIN) {
 205:lvgl/lvgl/src/widgets/lv_canvas.c ****                             lv_img_buf_set_px_color(&canvas->dsc, x + offset_x, y + offset_y, dsc.r
 206:lvgl/lvgl/src/widgets/lv_canvas.c ****                             lv_img_buf_set_px_alpha(&canvas->dsc, x + offset_x, y + offset_y, dsc.r
 207:lvgl/lvgl/src/widgets/lv_canvas.c ****                         }
 208:lvgl/lvgl/src/widgets/lv_canvas.c ****                         /*Opaque background: use simple mix*/
 209:lvgl/lvgl/src/widgets/lv_canvas.c ****                         else if(bg_opa >= LV_OPA_MAX) {
 210:lvgl/lvgl/src/widgets/lv_canvas.c ****                             lv_img_buf_set_px_color(&canvas->dsc, x + offset_x, y + offset_y,
 211:lvgl/lvgl/src/widgets/lv_canvas.c ****                                                     lv_color_mix(dsc.res.color, bg_color, dsc.res.o
 212:lvgl/lvgl/src/widgets/lv_canvas.c ****                         }
 213:lvgl/lvgl/src/widgets/lv_canvas.c ****                         /*Both colors have alpha. Expensive calculation need to be applied*/
 214:lvgl/lvgl/src/widgets/lv_canvas.c ****                         else {
 215:lvgl/lvgl/src/widgets/lv_canvas.c **** 
 216:lvgl/lvgl/src/widgets/lv_canvas.c ****                             /*Info:
 217:lvgl/lvgl/src/widgets/lv_canvas.c ****                              * https://en.wikipedia.org/wiki/Alpha_compositing#Analytical_derivatio
 218:lvgl/lvgl/src/widgets/lv_canvas.c ****                             lv_opa_t opa_res_2 = 255 - ((uint16_t)((uint16_t)(255 - dsc.res.opa) * 
 219:lvgl/lvgl/src/widgets/lv_canvas.c ****                             if(opa_res_2 == 0) {
 220:lvgl/lvgl/src/widgets/lv_canvas.c ****                                 opa_res_2 = 1; /*never happens, just to be sure*/
 221:lvgl/lvgl/src/widgets/lv_canvas.c ****                             }
 222:lvgl/lvgl/src/widgets/lv_canvas.c ****                             lv_opa_t ratio = (uint16_t)((uint16_t)dsc.res.opa * 255) / opa_res_2;
 223:lvgl/lvgl/src/widgets/lv_canvas.c **** 
 224:lvgl/lvgl/src/widgets/lv_canvas.c ****                             lv_img_buf_set_px_color(&canvas->dsc, x + offset_x, y + offset_y,
 225:lvgl/lvgl/src/widgets/lv_canvas.c ****                                                     lv_color_mix(dsc.res.color, bg_color, ratio));
 226:lvgl/lvgl/src/widgets/lv_canvas.c ****                             lv_img_buf_set_px_alpha(&canvas->dsc, x + offset_x, y + offset_y, opa_r
 227:lvgl/lvgl/src/widgets/lv_canvas.c ****                         }
 228:lvgl/lvgl/src/widgets/lv_canvas.c ****                     }
 229:lvgl/lvgl/src/widgets/lv_canvas.c ****                 }
 230:lvgl/lvgl/src/widgets/lv_canvas.c ****             }
 231:lvgl/lvgl/src/widgets/lv_canvas.c ****         }
 232:lvgl/lvgl/src/widgets/lv_canvas.c ****     }
 233:lvgl/lvgl/src/widgets/lv_canvas.c **** 
 234:lvgl/lvgl/src/widgets/lv_canvas.c ****     lv_obj_invalidate(obj);
 235:lvgl/lvgl/src/widgets/lv_canvas.c **** #else
 236:lvgl/lvgl/src/widgets/lv_canvas.c ****     LV_UNUSED(obj);
 237:lvgl/lvgl/src/widgets/lv_canvas.c ****     LV_UNUSED(img);
 238:lvgl/lvgl/src/widgets/lv_canvas.c ****     LV_UNUSED(angle);
 239:lvgl/lvgl/src/widgets/lv_canvas.c ****     LV_UNUSED(zoom);
 240:lvgl/lvgl/src/widgets/lv_canvas.c ****     LV_UNUSED(offset_x);
 241:lvgl/lvgl/src/widgets/lv_canvas.c ****     LV_UNUSED(offset_y);
 242:lvgl/lvgl/src/widgets/lv_canvas.c ****     LV_UNUSED(pivot_x);
 243:lvgl/lvgl/src/widgets/lv_canvas.c ****     LV_UNUSED(pivot_y);
 244:lvgl/lvgl/src/widgets/lv_canvas.c ****     LV_UNUSED(antialias);
 245:lvgl/lvgl/src/widgets/lv_canvas.c ****     LV_LOG_WARN("Can't transform canvas with LV_DRAW_COMPLEX == 0");
 246:lvgl/lvgl/src/widgets/lv_canvas.c **** #endif
 247:lvgl/lvgl/src/widgets/lv_canvas.c **** }
 248:lvgl/lvgl/src/widgets/lv_canvas.c **** 
 249:lvgl/lvgl/src/widgets/lv_canvas.c **** void lv_canvas_blur_hor(lv_obj_t * obj, const lv_area_t * area, uint16_t r)
 250:lvgl/lvgl/src/widgets/lv_canvas.c **** {
 251:lvgl/lvgl/src/widgets/lv_canvas.c ****     LV_ASSERT_OBJ(obj, MY_CLASS);
 252:lvgl/lvgl/src/widgets/lv_canvas.c **** 
 253:lvgl/lvgl/src/widgets/lv_canvas.c ****     if(r == 0) return;
 254:lvgl/lvgl/src/widgets/lv_canvas.c **** 
 255:lvgl/lvgl/src/widgets/lv_canvas.c ****     lv_canvas_t * canvas = (lv_canvas_t *)obj;
 256:lvgl/lvgl/src/widgets/lv_canvas.c **** 
 257:lvgl/lvgl/src/widgets/lv_canvas.c ****     lv_area_t a;
 258:lvgl/lvgl/src/widgets/lv_canvas.c ****     if(area) {
ARM GAS  C:\Users\gx\AppData\Local\Temp\ccJLdkpG.s 			page 6


 259:lvgl/lvgl/src/widgets/lv_canvas.c ****         lv_area_copy(&a, area);
 260:lvgl/lvgl/src/widgets/lv_canvas.c ****         if(a.x1 < 0) a.x1 = 0;
 261:lvgl/lvgl/src/widgets/lv_canvas.c ****         if(a.y1 < 0) a.y1 = 0;
 262:lvgl/lvgl/src/widgets/lv_canvas.c ****         if(a.x2 > canvas->dsc.header.w - 1) a.x2 = canvas->dsc.header.w - 1;
 263:lvgl/lvgl/src/widgets/lv_canvas.c ****         if(a.y2 > canvas->dsc.header.h - 1) a.y2 = canvas->dsc.header.h - 1;
 264:lvgl/lvgl/src/widgets/lv_canvas.c ****     }
 265:lvgl/lvgl/src/widgets/lv_canvas.c ****     else {
 266:lvgl/lvgl/src/widgets/lv_canvas.c ****         a.x1 = 0;
 267:lvgl/lvgl/src/widgets/lv_canvas.c ****         a.y1 = 0;
 268:lvgl/lvgl/src/widgets/lv_canvas.c ****         a.x2 = canvas->dsc.header.w - 1;
 269:lvgl/lvgl/src/widgets/lv_canvas.c ****         a.y2 = canvas->dsc.header.h - 1;
 270:lvgl/lvgl/src/widgets/lv_canvas.c ****     }
 271:lvgl/lvgl/src/widgets/lv_canvas.c **** 
 272:lvgl/lvgl/src/widgets/lv_canvas.c ****     lv_color_t color = lv_obj_get_style_img_recolor(obj, LV_PART_MAIN);
 273:lvgl/lvgl/src/widgets/lv_canvas.c **** 
 274:lvgl/lvgl/src/widgets/lv_canvas.c ****     uint16_t r_back = r / 2;
 275:lvgl/lvgl/src/widgets/lv_canvas.c ****     uint16_t r_front = r / 2;
 276:lvgl/lvgl/src/widgets/lv_canvas.c **** 
 277:lvgl/lvgl/src/widgets/lv_canvas.c ****     if((r & 0x1) == 0) r_back--;
 278:lvgl/lvgl/src/widgets/lv_canvas.c **** 
 279:lvgl/lvgl/src/widgets/lv_canvas.c ****     bool has_alpha = lv_img_cf_has_alpha(canvas->dsc.header.cf);
 280:lvgl/lvgl/src/widgets/lv_canvas.c **** 
 281:lvgl/lvgl/src/widgets/lv_canvas.c ****     lv_coord_t line_w = lv_img_buf_get_img_size(canvas->dsc.header.w, 1, canvas->dsc.header.cf);
 282:lvgl/lvgl/src/widgets/lv_canvas.c ****     uint8_t * line_buf = lv_mem_buf_get(line_w);
 283:lvgl/lvgl/src/widgets/lv_canvas.c **** 
 284:lvgl/lvgl/src/widgets/lv_canvas.c ****     lv_img_dsc_t line_img;
 285:lvgl/lvgl/src/widgets/lv_canvas.c ****     line_img.data = line_buf;
 286:lvgl/lvgl/src/widgets/lv_canvas.c ****     line_img.header.always_zero = 0;
 287:lvgl/lvgl/src/widgets/lv_canvas.c ****     line_img.header.w = canvas->dsc.header.w;
 288:lvgl/lvgl/src/widgets/lv_canvas.c ****     line_img.header.h = 1;
 289:lvgl/lvgl/src/widgets/lv_canvas.c ****     line_img.header.cf = canvas->dsc.header.cf;
 290:lvgl/lvgl/src/widgets/lv_canvas.c **** 
 291:lvgl/lvgl/src/widgets/lv_canvas.c ****     lv_coord_t x;
 292:lvgl/lvgl/src/widgets/lv_canvas.c ****     lv_coord_t y;
 293:lvgl/lvgl/src/widgets/lv_canvas.c ****     lv_coord_t x_safe;
 294:lvgl/lvgl/src/widgets/lv_canvas.c **** 
 295:lvgl/lvgl/src/widgets/lv_canvas.c ****     for(y = a.y1; y <= a.y2; y++) {
 296:lvgl/lvgl/src/widgets/lv_canvas.c ****         uint32_t asum = 0;
 297:lvgl/lvgl/src/widgets/lv_canvas.c ****         uint32_t rsum = 0;
 298:lvgl/lvgl/src/widgets/lv_canvas.c ****         uint32_t gsum = 0;
 299:lvgl/lvgl/src/widgets/lv_canvas.c ****         uint32_t bsum = 0;
 300:lvgl/lvgl/src/widgets/lv_canvas.c **** 
 301:lvgl/lvgl/src/widgets/lv_canvas.c ****         lv_color_t c;
 302:lvgl/lvgl/src/widgets/lv_canvas.c ****         lv_opa_t opa = LV_OPA_TRANSP;
 303:lvgl/lvgl/src/widgets/lv_canvas.c ****         lv_memcpy(line_buf, &canvas->dsc.data[y * line_w], line_w);
 304:lvgl/lvgl/src/widgets/lv_canvas.c **** 
 305:lvgl/lvgl/src/widgets/lv_canvas.c ****         for(x = a.x1 - r_back; x <= a.x1 + r_front; x++) {
 306:lvgl/lvgl/src/widgets/lv_canvas.c ****             x_safe = x < 0 ? 0 : x;
 307:lvgl/lvgl/src/widgets/lv_canvas.c ****             x_safe = x_safe > canvas->dsc.header.w - 1 ? canvas->dsc.header.w - 1 : x_safe;
 308:lvgl/lvgl/src/widgets/lv_canvas.c **** 
 309:lvgl/lvgl/src/widgets/lv_canvas.c ****             c = lv_img_buf_get_px_color(&line_img, x_safe, 0, color);
 310:lvgl/lvgl/src/widgets/lv_canvas.c ****             if(has_alpha) opa = lv_img_buf_get_px_alpha(&line_img, x_safe, 0);
 311:lvgl/lvgl/src/widgets/lv_canvas.c **** 
 312:lvgl/lvgl/src/widgets/lv_canvas.c ****             rsum += c.ch.red;
 313:lvgl/lvgl/src/widgets/lv_canvas.c **** #if LV_COLOR_DEPTH == 16 && LV_COLOR_16_SWAP
 314:lvgl/lvgl/src/widgets/lv_canvas.c ****             gsum += (c.ch.green_h << 3) + c.ch.green_l;
 315:lvgl/lvgl/src/widgets/lv_canvas.c **** #else
ARM GAS  C:\Users\gx\AppData\Local\Temp\ccJLdkpG.s 			page 7


 316:lvgl/lvgl/src/widgets/lv_canvas.c ****             gsum += c.ch.green;
 317:lvgl/lvgl/src/widgets/lv_canvas.c **** #endif
 318:lvgl/lvgl/src/widgets/lv_canvas.c ****             bsum += c.ch.blue;
 319:lvgl/lvgl/src/widgets/lv_canvas.c ****             if(has_alpha) asum += opa;
 320:lvgl/lvgl/src/widgets/lv_canvas.c ****         }
 321:lvgl/lvgl/src/widgets/lv_canvas.c **** 
 322:lvgl/lvgl/src/widgets/lv_canvas.c ****         /*Just to indicate that the px is visible*/
 323:lvgl/lvgl/src/widgets/lv_canvas.c ****         if(has_alpha == false) asum = LV_OPA_COVER;
 324:lvgl/lvgl/src/widgets/lv_canvas.c **** 
 325:lvgl/lvgl/src/widgets/lv_canvas.c ****         for(x = a.x1; x <= a.x2; x++) {
 326:lvgl/lvgl/src/widgets/lv_canvas.c **** 
 327:lvgl/lvgl/src/widgets/lv_canvas.c ****             if(asum) {
 328:lvgl/lvgl/src/widgets/lv_canvas.c ****                 c.ch.red = rsum / r;
 329:lvgl/lvgl/src/widgets/lv_canvas.c **** #if LV_COLOR_DEPTH == 16 && LV_COLOR_16_SWAP
 330:lvgl/lvgl/src/widgets/lv_canvas.c ****                 uint8_t gtmp = gsum / r;
 331:lvgl/lvgl/src/widgets/lv_canvas.c ****                 c.ch.green_h = gtmp >> 3;
 332:lvgl/lvgl/src/widgets/lv_canvas.c ****                 c.ch.green_l = gtmp & 0x7;
 333:lvgl/lvgl/src/widgets/lv_canvas.c **** #else
 334:lvgl/lvgl/src/widgets/lv_canvas.c ****                 c.ch.green = gsum / r;
 335:lvgl/lvgl/src/widgets/lv_canvas.c **** #endif
 336:lvgl/lvgl/src/widgets/lv_canvas.c ****                 c.ch.blue = bsum / r;
 337:lvgl/lvgl/src/widgets/lv_canvas.c ****                 if(has_alpha) opa = asum / r;
 338:lvgl/lvgl/src/widgets/lv_canvas.c **** 
 339:lvgl/lvgl/src/widgets/lv_canvas.c ****                 lv_img_buf_set_px_color(&canvas->dsc, x, y, c);
 340:lvgl/lvgl/src/widgets/lv_canvas.c ****             }
 341:lvgl/lvgl/src/widgets/lv_canvas.c ****             if(has_alpha) lv_img_buf_set_px_alpha(&canvas->dsc, x, y, opa);
 342:lvgl/lvgl/src/widgets/lv_canvas.c **** 
 343:lvgl/lvgl/src/widgets/lv_canvas.c ****             x_safe = x - r_back;
 344:lvgl/lvgl/src/widgets/lv_canvas.c ****             x_safe = x_safe < 0 ? 0 : x_safe;
 345:lvgl/lvgl/src/widgets/lv_canvas.c ****             c = lv_img_buf_get_px_color(&line_img, x_safe, 0, color);
 346:lvgl/lvgl/src/widgets/lv_canvas.c ****             if(has_alpha) opa = lv_img_buf_get_px_alpha(&line_img, x_safe, 0);
 347:lvgl/lvgl/src/widgets/lv_canvas.c **** 
 348:lvgl/lvgl/src/widgets/lv_canvas.c ****             rsum -= c.ch.red;
 349:lvgl/lvgl/src/widgets/lv_canvas.c **** #if LV_COLOR_DEPTH == 16 && LV_COLOR_16_SWAP
 350:lvgl/lvgl/src/widgets/lv_canvas.c ****             gsum -= (c.ch.green_h << 3) + c.ch.green_l;
 351:lvgl/lvgl/src/widgets/lv_canvas.c **** #else
 352:lvgl/lvgl/src/widgets/lv_canvas.c ****             gsum -= c.ch.green;
 353:lvgl/lvgl/src/widgets/lv_canvas.c **** #endif
 354:lvgl/lvgl/src/widgets/lv_canvas.c ****             bsum -= c.ch.blue;
 355:lvgl/lvgl/src/widgets/lv_canvas.c ****             if(has_alpha) asum -= opa;
 356:lvgl/lvgl/src/widgets/lv_canvas.c **** 
 357:lvgl/lvgl/src/widgets/lv_canvas.c ****             x_safe = x + 1 + r_front;
 358:lvgl/lvgl/src/widgets/lv_canvas.c ****             x_safe = x_safe > canvas->dsc.header.w - 1 ? canvas->dsc.header.w - 1 : x_safe;
 359:lvgl/lvgl/src/widgets/lv_canvas.c ****             c = lv_img_buf_get_px_color(&line_img, x_safe, 0, lv_color_white());
 360:lvgl/lvgl/src/widgets/lv_canvas.c ****             if(has_alpha) opa = lv_img_buf_get_px_alpha(&line_img, x_safe, 0);
 361:lvgl/lvgl/src/widgets/lv_canvas.c **** 
 362:lvgl/lvgl/src/widgets/lv_canvas.c ****             rsum += c.ch.red;
 363:lvgl/lvgl/src/widgets/lv_canvas.c **** #if LV_COLOR_DEPTH == 16 && LV_COLOR_16_SWAP
 364:lvgl/lvgl/src/widgets/lv_canvas.c ****             gsum += (c.ch.green_h << 3) + c.ch.green_l;
 365:lvgl/lvgl/src/widgets/lv_canvas.c **** #else
 366:lvgl/lvgl/src/widgets/lv_canvas.c ****             gsum += c.ch.green;
 367:lvgl/lvgl/src/widgets/lv_canvas.c **** #endif
 368:lvgl/lvgl/src/widgets/lv_canvas.c ****             bsum += c.ch.blue;
 369:lvgl/lvgl/src/widgets/lv_canvas.c ****             if(has_alpha) asum += opa;
 370:lvgl/lvgl/src/widgets/lv_canvas.c ****         }
 371:lvgl/lvgl/src/widgets/lv_canvas.c ****     }
 372:lvgl/lvgl/src/widgets/lv_canvas.c ****     lv_obj_invalidate(obj);
ARM GAS  C:\Users\gx\AppData\Local\Temp\ccJLdkpG.s 			page 8


 373:lvgl/lvgl/src/widgets/lv_canvas.c **** 
 374:lvgl/lvgl/src/widgets/lv_canvas.c ****     lv_mem_buf_release(line_buf);
 375:lvgl/lvgl/src/widgets/lv_canvas.c **** }
 376:lvgl/lvgl/src/widgets/lv_canvas.c **** 
 377:lvgl/lvgl/src/widgets/lv_canvas.c **** void lv_canvas_blur_ver(lv_obj_t * obj, const lv_area_t * area, uint16_t r)
 378:lvgl/lvgl/src/widgets/lv_canvas.c **** {
 379:lvgl/lvgl/src/widgets/lv_canvas.c ****     LV_ASSERT_OBJ(obj, MY_CLASS);
 380:lvgl/lvgl/src/widgets/lv_canvas.c **** 
 381:lvgl/lvgl/src/widgets/lv_canvas.c ****     if(r == 0) return;
 382:lvgl/lvgl/src/widgets/lv_canvas.c **** 
 383:lvgl/lvgl/src/widgets/lv_canvas.c ****     lv_canvas_t * canvas = (lv_canvas_t *)obj;
 384:lvgl/lvgl/src/widgets/lv_canvas.c **** 
 385:lvgl/lvgl/src/widgets/lv_canvas.c ****     lv_area_t a;
 386:lvgl/lvgl/src/widgets/lv_canvas.c ****     if(area) {
 387:lvgl/lvgl/src/widgets/lv_canvas.c ****         lv_area_copy(&a, area);
 388:lvgl/lvgl/src/widgets/lv_canvas.c ****         if(a.x1 < 0) a.x1 = 0;
 389:lvgl/lvgl/src/widgets/lv_canvas.c ****         if(a.y1 < 0) a.y1 = 0;
 390:lvgl/lvgl/src/widgets/lv_canvas.c ****         if(a.x2 > canvas->dsc.header.w - 1) a.x2 = canvas->dsc.header.w - 1;
 391:lvgl/lvgl/src/widgets/lv_canvas.c ****         if(a.y2 > canvas->dsc.header.h - 1) a.y2 = canvas->dsc.header.h - 1;
 392:lvgl/lvgl/src/widgets/lv_canvas.c ****     }
 393:lvgl/lvgl/src/widgets/lv_canvas.c ****     else {
 394:lvgl/lvgl/src/widgets/lv_canvas.c ****         a.x1 = 0;
 395:lvgl/lvgl/src/widgets/lv_canvas.c ****         a.y1 = 0;
 396:lvgl/lvgl/src/widgets/lv_canvas.c ****         a.x2 = canvas->dsc.header.w - 1;
 397:lvgl/lvgl/src/widgets/lv_canvas.c ****         a.y2 = canvas->dsc.header.h - 1;
 398:lvgl/lvgl/src/widgets/lv_canvas.c ****     }
 399:lvgl/lvgl/src/widgets/lv_canvas.c **** 
 400:lvgl/lvgl/src/widgets/lv_canvas.c ****     lv_color_t color = lv_obj_get_style_img_recolor(obj, LV_PART_MAIN);
 401:lvgl/lvgl/src/widgets/lv_canvas.c **** 
 402:lvgl/lvgl/src/widgets/lv_canvas.c ****     uint16_t r_back = r / 2;
 403:lvgl/lvgl/src/widgets/lv_canvas.c ****     uint16_t r_front = r / 2;
 404:lvgl/lvgl/src/widgets/lv_canvas.c **** 
 405:lvgl/lvgl/src/widgets/lv_canvas.c ****     if((r & 0x1) == 0) r_back--;
 406:lvgl/lvgl/src/widgets/lv_canvas.c **** 
 407:lvgl/lvgl/src/widgets/lv_canvas.c ****     bool has_alpha = lv_img_cf_has_alpha(canvas->dsc.header.cf);
 408:lvgl/lvgl/src/widgets/lv_canvas.c ****     lv_coord_t col_w = lv_img_buf_get_img_size(1, canvas->dsc.header.h, canvas->dsc.header.cf);
 409:lvgl/lvgl/src/widgets/lv_canvas.c ****     uint8_t * col_buf = lv_mem_buf_get(col_w);
 410:lvgl/lvgl/src/widgets/lv_canvas.c ****     lv_img_dsc_t line_img;
 411:lvgl/lvgl/src/widgets/lv_canvas.c **** 
 412:lvgl/lvgl/src/widgets/lv_canvas.c ****     line_img.data = col_buf;
 413:lvgl/lvgl/src/widgets/lv_canvas.c ****     line_img.header.always_zero = 0;
 414:lvgl/lvgl/src/widgets/lv_canvas.c ****     line_img.header.w = 1;
 415:lvgl/lvgl/src/widgets/lv_canvas.c ****     line_img.header.h = canvas->dsc.header.h;
 416:lvgl/lvgl/src/widgets/lv_canvas.c ****     line_img.header.cf = canvas->dsc.header.cf;
 417:lvgl/lvgl/src/widgets/lv_canvas.c **** 
 418:lvgl/lvgl/src/widgets/lv_canvas.c ****     lv_coord_t x;
 419:lvgl/lvgl/src/widgets/lv_canvas.c ****     lv_coord_t y;
 420:lvgl/lvgl/src/widgets/lv_canvas.c ****     lv_coord_t y_safe;
 421:lvgl/lvgl/src/widgets/lv_canvas.c **** 
 422:lvgl/lvgl/src/widgets/lv_canvas.c ****     for(x = a.x1; x <= a.x2; x++) {
 423:lvgl/lvgl/src/widgets/lv_canvas.c ****         uint32_t asum = 0;
 424:lvgl/lvgl/src/widgets/lv_canvas.c ****         uint32_t rsum = 0;
 425:lvgl/lvgl/src/widgets/lv_canvas.c ****         uint32_t gsum = 0;
 426:lvgl/lvgl/src/widgets/lv_canvas.c ****         uint32_t bsum = 0;
 427:lvgl/lvgl/src/widgets/lv_canvas.c **** 
 428:lvgl/lvgl/src/widgets/lv_canvas.c ****         lv_color_t c;
 429:lvgl/lvgl/src/widgets/lv_canvas.c ****         lv_opa_t opa = LV_OPA_COVER;
ARM GAS  C:\Users\gx\AppData\Local\Temp\ccJLdkpG.s 			page 9


 430:lvgl/lvgl/src/widgets/lv_canvas.c **** 
 431:lvgl/lvgl/src/widgets/lv_canvas.c ****         for(y = a.y1 - r_back; y <= a.y1 + r_front; y++) {
 432:lvgl/lvgl/src/widgets/lv_canvas.c ****             y_safe = y < 0 ? 0 : y;
 433:lvgl/lvgl/src/widgets/lv_canvas.c ****             y_safe = y_safe > canvas->dsc.header.h - 1 ? canvas->dsc.header.h - 1 : y_safe;
 434:lvgl/lvgl/src/widgets/lv_canvas.c **** 
 435:lvgl/lvgl/src/widgets/lv_canvas.c ****             c = lv_img_buf_get_px_color(&canvas->dsc, x, y_safe, color);
 436:lvgl/lvgl/src/widgets/lv_canvas.c ****             if(has_alpha) opa = lv_img_buf_get_px_alpha(&canvas->dsc, x, y_safe);
 437:lvgl/lvgl/src/widgets/lv_canvas.c **** 
 438:lvgl/lvgl/src/widgets/lv_canvas.c ****             lv_img_buf_set_px_color(&line_img, 0, y_safe, c);
 439:lvgl/lvgl/src/widgets/lv_canvas.c ****             if(has_alpha) lv_img_buf_set_px_alpha(&line_img, 0, y_safe, opa);
 440:lvgl/lvgl/src/widgets/lv_canvas.c **** 
 441:lvgl/lvgl/src/widgets/lv_canvas.c ****             rsum += c.ch.red;
 442:lvgl/lvgl/src/widgets/lv_canvas.c **** #if LV_COLOR_DEPTH == 16 && LV_COLOR_16_SWAP
 443:lvgl/lvgl/src/widgets/lv_canvas.c ****             gsum += (c.ch.green_h << 3) + c.ch.green_l;
 444:lvgl/lvgl/src/widgets/lv_canvas.c **** #else
 445:lvgl/lvgl/src/widgets/lv_canvas.c ****             gsum += c.ch.green;
 446:lvgl/lvgl/src/widgets/lv_canvas.c **** #endif
 447:lvgl/lvgl/src/widgets/lv_canvas.c ****             bsum += c.ch.blue;
 448:lvgl/lvgl/src/widgets/lv_canvas.c ****             if(has_alpha) asum += opa;
 449:lvgl/lvgl/src/widgets/lv_canvas.c ****         }
 450:lvgl/lvgl/src/widgets/lv_canvas.c **** 
 451:lvgl/lvgl/src/widgets/lv_canvas.c ****         /*Just to indicate that the px is visible*/
 452:lvgl/lvgl/src/widgets/lv_canvas.c ****         if(has_alpha == false) asum = LV_OPA_COVER;
 453:lvgl/lvgl/src/widgets/lv_canvas.c **** 
 454:lvgl/lvgl/src/widgets/lv_canvas.c ****         for(y = a.y1; y <= a.y2; y++) {
 455:lvgl/lvgl/src/widgets/lv_canvas.c ****             if(asum) {
 456:lvgl/lvgl/src/widgets/lv_canvas.c ****                 c.ch.red = rsum / r;
 457:lvgl/lvgl/src/widgets/lv_canvas.c **** #if LV_COLOR_DEPTH == 16 && LV_COLOR_16_SWAP
 458:lvgl/lvgl/src/widgets/lv_canvas.c ****                 uint8_t gtmp = gsum / r;
 459:lvgl/lvgl/src/widgets/lv_canvas.c ****                 c.ch.green_h = gtmp >> 3;
 460:lvgl/lvgl/src/widgets/lv_canvas.c ****                 c.ch.green_l = gtmp & 0x7;
 461:lvgl/lvgl/src/widgets/lv_canvas.c **** #else
 462:lvgl/lvgl/src/widgets/lv_canvas.c ****                 c.ch.green = gsum / r;
 463:lvgl/lvgl/src/widgets/lv_canvas.c **** #endif
 464:lvgl/lvgl/src/widgets/lv_canvas.c ****                 c.ch.blue = bsum / r;
 465:lvgl/lvgl/src/widgets/lv_canvas.c ****                 if(has_alpha) opa = asum / r;
 466:lvgl/lvgl/src/widgets/lv_canvas.c **** 
 467:lvgl/lvgl/src/widgets/lv_canvas.c ****                 lv_img_buf_set_px_color(&canvas->dsc, x, y, c);
 468:lvgl/lvgl/src/widgets/lv_canvas.c ****             }
 469:lvgl/lvgl/src/widgets/lv_canvas.c ****             if(has_alpha) lv_img_buf_set_px_alpha(&canvas->dsc, x, y, opa);
 470:lvgl/lvgl/src/widgets/lv_canvas.c **** 
 471:lvgl/lvgl/src/widgets/lv_canvas.c ****             y_safe = y - r_back;
 472:lvgl/lvgl/src/widgets/lv_canvas.c ****             y_safe = y_safe < 0 ? 0 : y_safe;
 473:lvgl/lvgl/src/widgets/lv_canvas.c ****             c = lv_img_buf_get_px_color(&line_img, 0, y_safe, color);
 474:lvgl/lvgl/src/widgets/lv_canvas.c ****             if(has_alpha) opa = lv_img_buf_get_px_alpha(&line_img, 0, y_safe);
 475:lvgl/lvgl/src/widgets/lv_canvas.c **** 
 476:lvgl/lvgl/src/widgets/lv_canvas.c ****             rsum -= c.ch.red;
 477:lvgl/lvgl/src/widgets/lv_canvas.c **** #if LV_COLOR_DEPTH == 16 && LV_COLOR_16_SWAP
 478:lvgl/lvgl/src/widgets/lv_canvas.c ****             gsum -= (c.ch.green_h << 3) + c.ch.green_l;
 479:lvgl/lvgl/src/widgets/lv_canvas.c **** #else
 480:lvgl/lvgl/src/widgets/lv_canvas.c ****             gsum -= c.ch.green;
 481:lvgl/lvgl/src/widgets/lv_canvas.c **** #endif
 482:lvgl/lvgl/src/widgets/lv_canvas.c ****             bsum -= c.ch.blue;
 483:lvgl/lvgl/src/widgets/lv_canvas.c ****             if(has_alpha) asum -= opa;
 484:lvgl/lvgl/src/widgets/lv_canvas.c **** 
 485:lvgl/lvgl/src/widgets/lv_canvas.c ****             y_safe = y + 1 + r_front;
 486:lvgl/lvgl/src/widgets/lv_canvas.c ****             y_safe = y_safe > canvas->dsc.header.h - 1 ? canvas->dsc.header.h - 1 : y_safe;
ARM GAS  C:\Users\gx\AppData\Local\Temp\ccJLdkpG.s 			page 10


 487:lvgl/lvgl/src/widgets/lv_canvas.c **** 
 488:lvgl/lvgl/src/widgets/lv_canvas.c ****             c = lv_img_buf_get_px_color(&canvas->dsc, x, y_safe, color);
 489:lvgl/lvgl/src/widgets/lv_canvas.c ****             if(has_alpha) opa = lv_img_buf_get_px_alpha(&canvas->dsc, x, y_safe);
 490:lvgl/lvgl/src/widgets/lv_canvas.c **** 
 491:lvgl/lvgl/src/widgets/lv_canvas.c ****             lv_img_buf_set_px_color(&line_img, 0, y_safe, c);
 492:lvgl/lvgl/src/widgets/lv_canvas.c ****             if(has_alpha) lv_img_buf_set_px_alpha(&line_img, 0, y_safe, opa);
 493:lvgl/lvgl/src/widgets/lv_canvas.c **** 
 494:lvgl/lvgl/src/widgets/lv_canvas.c ****             rsum += c.ch.red;
 495:lvgl/lvgl/src/widgets/lv_canvas.c **** #if LV_COLOR_DEPTH == 16 && LV_COLOR_16_SWAP
 496:lvgl/lvgl/src/widgets/lv_canvas.c ****             gsum += (c.ch.green_h << 3) + c.ch.green_l;
 497:lvgl/lvgl/src/widgets/lv_canvas.c **** #else
 498:lvgl/lvgl/src/widgets/lv_canvas.c ****             gsum += c.ch.green;
 499:lvgl/lvgl/src/widgets/lv_canvas.c **** #endif
 500:lvgl/lvgl/src/widgets/lv_canvas.c ****             bsum += c.ch.blue;
 501:lvgl/lvgl/src/widgets/lv_canvas.c ****             if(has_alpha) asum += opa;
 502:lvgl/lvgl/src/widgets/lv_canvas.c ****         }
 503:lvgl/lvgl/src/widgets/lv_canvas.c ****     }
 504:lvgl/lvgl/src/widgets/lv_canvas.c **** 
 505:lvgl/lvgl/src/widgets/lv_canvas.c ****     lv_obj_invalidate(obj);
 506:lvgl/lvgl/src/widgets/lv_canvas.c **** 
 507:lvgl/lvgl/src/widgets/lv_canvas.c ****     lv_mem_buf_release(col_buf);
 508:lvgl/lvgl/src/widgets/lv_canvas.c **** }
 509:lvgl/lvgl/src/widgets/lv_canvas.c **** 
 510:lvgl/lvgl/src/widgets/lv_canvas.c **** void lv_canvas_fill_bg(lv_obj_t * canvas, lv_color_t color, lv_opa_t opa)
 511:lvgl/lvgl/src/widgets/lv_canvas.c **** {
 512:lvgl/lvgl/src/widgets/lv_canvas.c ****     LV_ASSERT_OBJ(canvas, MY_CLASS);
 513:lvgl/lvgl/src/widgets/lv_canvas.c **** 
 514:lvgl/lvgl/src/widgets/lv_canvas.c ****     lv_img_dsc_t * dsc = lv_canvas_get_img(canvas);
 515:lvgl/lvgl/src/widgets/lv_canvas.c **** 
 516:lvgl/lvgl/src/widgets/lv_canvas.c ****     if(dsc->header.cf == LV_IMG_CF_INDEXED_1BIT) {
 517:lvgl/lvgl/src/widgets/lv_canvas.c ****         uint32_t row_byte_cnt = (dsc->header.w + 7) >> 3;
 518:lvgl/lvgl/src/widgets/lv_canvas.c ****         /*+8 skip the palette*/
 519:lvgl/lvgl/src/widgets/lv_canvas.c ****         lv_memset((uint8_t *)dsc->data + 8, color.full ? 0xff : 0x00, row_byte_cnt * dsc->header.h)
 520:lvgl/lvgl/src/widgets/lv_canvas.c ****     }
 521:lvgl/lvgl/src/widgets/lv_canvas.c ****     else if(dsc->header.cf == LV_IMG_CF_ALPHA_1BIT) {
 522:lvgl/lvgl/src/widgets/lv_canvas.c ****         uint32_t row_byte_cnt = (dsc->header.w + 7) >> 3;
 523:lvgl/lvgl/src/widgets/lv_canvas.c ****         lv_memset((uint8_t *)dsc->data, opa > LV_OPA_50 ? 0xff : 0x00, row_byte_cnt * dsc->header.h
 524:lvgl/lvgl/src/widgets/lv_canvas.c ****     }
 525:lvgl/lvgl/src/widgets/lv_canvas.c ****     else {
 526:lvgl/lvgl/src/widgets/lv_canvas.c ****         uint32_t x;
 527:lvgl/lvgl/src/widgets/lv_canvas.c ****         uint32_t y;
 528:lvgl/lvgl/src/widgets/lv_canvas.c ****         for(y = 0; y < dsc->header.h; y++) {
 529:lvgl/lvgl/src/widgets/lv_canvas.c ****             for(x = 0; x < dsc->header.w; x++) {
 530:lvgl/lvgl/src/widgets/lv_canvas.c ****                 lv_img_buf_set_px_color(dsc, x, y, color);
 531:lvgl/lvgl/src/widgets/lv_canvas.c ****                 lv_img_buf_set_px_alpha(dsc, x, y, opa);
 532:lvgl/lvgl/src/widgets/lv_canvas.c ****             }
 533:lvgl/lvgl/src/widgets/lv_canvas.c ****         }
 534:lvgl/lvgl/src/widgets/lv_canvas.c ****     }
 535:lvgl/lvgl/src/widgets/lv_canvas.c **** 
 536:lvgl/lvgl/src/widgets/lv_canvas.c ****     lv_obj_invalidate(canvas);
 537:lvgl/lvgl/src/widgets/lv_canvas.c **** }
 538:lvgl/lvgl/src/widgets/lv_canvas.c **** 
 539:lvgl/lvgl/src/widgets/lv_canvas.c **** void lv_canvas_draw_rect(lv_obj_t * canvas, lv_coord_t x, lv_coord_t y, lv_coord_t w, lv_coord_t h,
 540:lvgl/lvgl/src/widgets/lv_canvas.c ****                          const lv_draw_rect_dsc_t * draw_dsc)
 541:lvgl/lvgl/src/widgets/lv_canvas.c **** {
 542:lvgl/lvgl/src/widgets/lv_canvas.c ****     LV_ASSERT_OBJ(canvas, MY_CLASS);
 543:lvgl/lvgl/src/widgets/lv_canvas.c **** 
ARM GAS  C:\Users\gx\AppData\Local\Temp\ccJLdkpG.s 			page 11


 544:lvgl/lvgl/src/widgets/lv_canvas.c ****     lv_img_dsc_t * dsc = lv_canvas_get_img(canvas);
 545:lvgl/lvgl/src/widgets/lv_canvas.c **** 
 546:lvgl/lvgl/src/widgets/lv_canvas.c ****     if(dsc->header.cf >= LV_IMG_CF_INDEXED_1BIT && dsc->header.cf <= LV_IMG_CF_INDEXED_8BIT) {
 547:lvgl/lvgl/src/widgets/lv_canvas.c ****         LV_LOG_WARN("lv_canvas_draw_rect: can't draw to LV_IMG_CF_INDEXED canvas");
 548:lvgl/lvgl/src/widgets/lv_canvas.c ****         return;
 549:lvgl/lvgl/src/widgets/lv_canvas.c ****     }
 550:lvgl/lvgl/src/widgets/lv_canvas.c **** 
 551:lvgl/lvgl/src/widgets/lv_canvas.c ****     /*Create a dummy display to fool the lv_draw function.
 552:lvgl/lvgl/src/widgets/lv_canvas.c ****      *It will think it draws to real screen.*/
 553:lvgl/lvgl/src/widgets/lv_canvas.c ****     lv_area_t mask;
 554:lvgl/lvgl/src/widgets/lv_canvas.c ****     mask.x1 = 0;
 555:lvgl/lvgl/src/widgets/lv_canvas.c ****     mask.x2 = dsc->header.w - 1;
 556:lvgl/lvgl/src/widgets/lv_canvas.c ****     mask.y1 = 0;
 557:lvgl/lvgl/src/widgets/lv_canvas.c ****     mask.y2 = dsc->header.h - 1;
 558:lvgl/lvgl/src/widgets/lv_canvas.c **** 
 559:lvgl/lvgl/src/widgets/lv_canvas.c ****     lv_area_t coords;
 560:lvgl/lvgl/src/widgets/lv_canvas.c ****     coords.x1 = x;
 561:lvgl/lvgl/src/widgets/lv_canvas.c ****     coords.y1 = y;
 562:lvgl/lvgl/src/widgets/lv_canvas.c ****     coords.x2 = x + w - 1;
 563:lvgl/lvgl/src/widgets/lv_canvas.c ****     coords.y2 = y + h - 1;
 564:lvgl/lvgl/src/widgets/lv_canvas.c **** 
 565:lvgl/lvgl/src/widgets/lv_canvas.c ****     lv_disp_t disp;
 566:lvgl/lvgl/src/widgets/lv_canvas.c ****     /*Allocate the fake driver on the stack as the entire display doesn't outlive this function*/
 567:lvgl/lvgl/src/widgets/lv_canvas.c ****     lv_disp_drv_t driver;
 568:lvgl/lvgl/src/widgets/lv_canvas.c ****     lv_memset_00(&disp, sizeof(lv_disp_t));
 569:lvgl/lvgl/src/widgets/lv_canvas.c ****     disp.driver = &driver;
 570:lvgl/lvgl/src/widgets/lv_canvas.c **** 
 571:lvgl/lvgl/src/widgets/lv_canvas.c ****     lv_disp_draw_buf_t draw_buf;
 572:lvgl/lvgl/src/widgets/lv_canvas.c ****     lv_disp_draw_buf_init(&draw_buf, (void *)dsc->data, NULL, dsc->header.w * dsc->header.h);
 573:lvgl/lvgl/src/widgets/lv_canvas.c ****     lv_area_copy(&draw_buf.area, &mask);
 574:lvgl/lvgl/src/widgets/lv_canvas.c **** 
 575:lvgl/lvgl/src/widgets/lv_canvas.c ****     lv_disp_drv_init(disp.driver);
 576:lvgl/lvgl/src/widgets/lv_canvas.c **** 
 577:lvgl/lvgl/src/widgets/lv_canvas.c ****     disp.driver->draw_buf = &draw_buf;
 578:lvgl/lvgl/src/widgets/lv_canvas.c ****     disp.driver->hor_res = dsc->header.w;
 579:lvgl/lvgl/src/widgets/lv_canvas.c ****     disp.driver->ver_res = dsc->header.h;
 580:lvgl/lvgl/src/widgets/lv_canvas.c **** 
 581:lvgl/lvgl/src/widgets/lv_canvas.c ****     lv_disp_drv_use_generic_set_px_cb(disp.driver, dsc->header.cf);
 582:lvgl/lvgl/src/widgets/lv_canvas.c **** 
 583:lvgl/lvgl/src/widgets/lv_canvas.c ****     /*Disable anti-aliasing if drawing with transparent color to chroma keyed canvas*/
 584:lvgl/lvgl/src/widgets/lv_canvas.c ****     lv_color_t ctransp = LV_COLOR_CHROMA_KEY;
 585:lvgl/lvgl/src/widgets/lv_canvas.c ****     if(dsc->header.cf == LV_IMG_CF_TRUE_COLOR_CHROMA_KEYED &&
 586:lvgl/lvgl/src/widgets/lv_canvas.c ****        draw_dsc->bg_color.full == ctransp.full) {
 587:lvgl/lvgl/src/widgets/lv_canvas.c ****         disp.driver->antialiasing = 0;
 588:lvgl/lvgl/src/widgets/lv_canvas.c ****     }
 589:lvgl/lvgl/src/widgets/lv_canvas.c **** 
 590:lvgl/lvgl/src/widgets/lv_canvas.c ****     lv_disp_t * refr_ori = _lv_refr_get_disp_refreshing();
 591:lvgl/lvgl/src/widgets/lv_canvas.c ****     _lv_refr_set_disp_refreshing(&disp);
 592:lvgl/lvgl/src/widgets/lv_canvas.c **** 
 593:lvgl/lvgl/src/widgets/lv_canvas.c ****     lv_draw_rect(&coords, &mask, draw_dsc);
 594:lvgl/lvgl/src/widgets/lv_canvas.c **** 
 595:lvgl/lvgl/src/widgets/lv_canvas.c ****     _lv_refr_set_disp_refreshing(refr_ori);
 596:lvgl/lvgl/src/widgets/lv_canvas.c **** 
 597:lvgl/lvgl/src/widgets/lv_canvas.c ****     lv_obj_invalidate(canvas);
 598:lvgl/lvgl/src/widgets/lv_canvas.c **** }
 599:lvgl/lvgl/src/widgets/lv_canvas.c **** 
 600:lvgl/lvgl/src/widgets/lv_canvas.c **** void lv_canvas_draw_text(lv_obj_t * canvas, lv_coord_t x, lv_coord_t y, lv_coord_t max_w,
ARM GAS  C:\Users\gx\AppData\Local\Temp\ccJLdkpG.s 			page 12


 601:lvgl/lvgl/src/widgets/lv_canvas.c ****                          lv_draw_label_dsc_t * draw_dsc, const char * txt)
 602:lvgl/lvgl/src/widgets/lv_canvas.c **** {
 603:lvgl/lvgl/src/widgets/lv_canvas.c ****     LV_ASSERT_OBJ(canvas, MY_CLASS);
 604:lvgl/lvgl/src/widgets/lv_canvas.c **** 
 605:lvgl/lvgl/src/widgets/lv_canvas.c ****     lv_img_dsc_t * dsc = lv_canvas_get_img(canvas);
 606:lvgl/lvgl/src/widgets/lv_canvas.c **** 
 607:lvgl/lvgl/src/widgets/lv_canvas.c ****     if(dsc->header.cf >= LV_IMG_CF_INDEXED_1BIT && dsc->header.cf <= LV_IMG_CF_INDEXED_8BIT) {
 608:lvgl/lvgl/src/widgets/lv_canvas.c ****         LV_LOG_WARN("lv_canvas_draw_text: can't draw to LV_IMG_CF_INDEXED canvas");
 609:lvgl/lvgl/src/widgets/lv_canvas.c ****         return;
 610:lvgl/lvgl/src/widgets/lv_canvas.c ****     }
 611:lvgl/lvgl/src/widgets/lv_canvas.c **** 
 612:lvgl/lvgl/src/widgets/lv_canvas.c ****     /*Create a dummy display to fool the lv_draw function.
 613:lvgl/lvgl/src/widgets/lv_canvas.c ****      *It will think it draws to real screen.*/
 614:lvgl/lvgl/src/widgets/lv_canvas.c ****     lv_area_t mask;
 615:lvgl/lvgl/src/widgets/lv_canvas.c ****     mask.x1 = 0;
 616:lvgl/lvgl/src/widgets/lv_canvas.c ****     mask.x2 = dsc->header.w - 1;
 617:lvgl/lvgl/src/widgets/lv_canvas.c ****     mask.y1 = 0;
 618:lvgl/lvgl/src/widgets/lv_canvas.c ****     mask.y2 = dsc->header.h - 1;
 619:lvgl/lvgl/src/widgets/lv_canvas.c **** 
 620:lvgl/lvgl/src/widgets/lv_canvas.c ****     lv_area_t coords;
 621:lvgl/lvgl/src/widgets/lv_canvas.c ****     coords.x1 = x;
 622:lvgl/lvgl/src/widgets/lv_canvas.c ****     coords.y1 = y;
 623:lvgl/lvgl/src/widgets/lv_canvas.c ****     coords.x2 = x + max_w - 1;
 624:lvgl/lvgl/src/widgets/lv_canvas.c ****     coords.y2 = dsc->header.h - 1;
 625:lvgl/lvgl/src/widgets/lv_canvas.c **** 
 626:lvgl/lvgl/src/widgets/lv_canvas.c ****     lv_disp_t disp;
 627:lvgl/lvgl/src/widgets/lv_canvas.c ****     /*Allocate the fake driver on the stack as the entire display doesn't outlive this function*/
 628:lvgl/lvgl/src/widgets/lv_canvas.c ****     lv_disp_drv_t driver;
 629:lvgl/lvgl/src/widgets/lv_canvas.c ****     lv_memset_00(&disp, sizeof(lv_disp_t));
 630:lvgl/lvgl/src/widgets/lv_canvas.c ****     disp.driver = &driver;
 631:lvgl/lvgl/src/widgets/lv_canvas.c **** 
 632:lvgl/lvgl/src/widgets/lv_canvas.c ****     lv_disp_draw_buf_t draw_buf;
 633:lvgl/lvgl/src/widgets/lv_canvas.c ****     lv_disp_draw_buf_init(&draw_buf, (void *)dsc->data, NULL, dsc->header.w * dsc->header.h);
 634:lvgl/lvgl/src/widgets/lv_canvas.c ****     lv_area_copy(&draw_buf.area, &mask);
 635:lvgl/lvgl/src/widgets/lv_canvas.c **** 
 636:lvgl/lvgl/src/widgets/lv_canvas.c ****     lv_disp_drv_init(disp.driver);
 637:lvgl/lvgl/src/widgets/lv_canvas.c **** 
 638:lvgl/lvgl/src/widgets/lv_canvas.c ****     disp.driver->draw_buf = &draw_buf;
 639:lvgl/lvgl/src/widgets/lv_canvas.c ****     disp.driver->hor_res = dsc->header.w;
 640:lvgl/lvgl/src/widgets/lv_canvas.c ****     disp.driver->ver_res = dsc->header.h;
 641:lvgl/lvgl/src/widgets/lv_canvas.c **** 
 642:lvgl/lvgl/src/widgets/lv_canvas.c ****     lv_disp_drv_use_generic_set_px_cb(disp.driver, dsc->header.cf);
 643:lvgl/lvgl/src/widgets/lv_canvas.c **** 
 644:lvgl/lvgl/src/widgets/lv_canvas.c ****     lv_disp_t * refr_ori = _lv_refr_get_disp_refreshing();
 645:lvgl/lvgl/src/widgets/lv_canvas.c ****     _lv_refr_set_disp_refreshing(&disp);
 646:lvgl/lvgl/src/widgets/lv_canvas.c **** 
 647:lvgl/lvgl/src/widgets/lv_canvas.c ****     lv_draw_label(&coords, &mask, draw_dsc, txt, NULL);
 648:lvgl/lvgl/src/widgets/lv_canvas.c **** 
 649:lvgl/lvgl/src/widgets/lv_canvas.c ****     _lv_refr_set_disp_refreshing(refr_ori);
 650:lvgl/lvgl/src/widgets/lv_canvas.c **** 
 651:lvgl/lvgl/src/widgets/lv_canvas.c ****     lv_obj_invalidate(canvas);
 652:lvgl/lvgl/src/widgets/lv_canvas.c **** }
 653:lvgl/lvgl/src/widgets/lv_canvas.c **** 
 654:lvgl/lvgl/src/widgets/lv_canvas.c **** void lv_canvas_draw_img(lv_obj_t * canvas, lv_coord_t x, lv_coord_t y, const void * src,
 655:lvgl/lvgl/src/widgets/lv_canvas.c ****                         const lv_draw_img_dsc_t * draw_dsc)
 656:lvgl/lvgl/src/widgets/lv_canvas.c **** {
 657:lvgl/lvgl/src/widgets/lv_canvas.c ****     LV_ASSERT_OBJ(canvas, MY_CLASS);
ARM GAS  C:\Users\gx\AppData\Local\Temp\ccJLdkpG.s 			page 13


 658:lvgl/lvgl/src/widgets/lv_canvas.c **** 
 659:lvgl/lvgl/src/widgets/lv_canvas.c ****     lv_img_dsc_t * dsc = lv_canvas_get_img(canvas);
 660:lvgl/lvgl/src/widgets/lv_canvas.c **** 
 661:lvgl/lvgl/src/widgets/lv_canvas.c ****     if(dsc->header.cf >= LV_IMG_CF_INDEXED_1BIT && dsc->header.cf <= LV_IMG_CF_INDEXED_8BIT) {
 662:lvgl/lvgl/src/widgets/lv_canvas.c ****         LV_LOG_WARN("lv_canvas_draw_img: can't draw to LV_IMG_CF_INDEXED canvas");
 663:lvgl/lvgl/src/widgets/lv_canvas.c ****         return;
 664:lvgl/lvgl/src/widgets/lv_canvas.c ****     }
 665:lvgl/lvgl/src/widgets/lv_canvas.c **** 
 666:lvgl/lvgl/src/widgets/lv_canvas.c ****     /*Create a dummy display to fool the lv_draw function.
 667:lvgl/lvgl/src/widgets/lv_canvas.c ****      *It will think it draws to real screen.*/
 668:lvgl/lvgl/src/widgets/lv_canvas.c ****     lv_area_t mask;
 669:lvgl/lvgl/src/widgets/lv_canvas.c ****     mask.x1 = 0;
 670:lvgl/lvgl/src/widgets/lv_canvas.c ****     mask.x2 = dsc->header.w - 1;
 671:lvgl/lvgl/src/widgets/lv_canvas.c ****     mask.y1 = 0;
 672:lvgl/lvgl/src/widgets/lv_canvas.c ****     mask.y2 = dsc->header.h - 1;
 673:lvgl/lvgl/src/widgets/lv_canvas.c **** 
 674:lvgl/lvgl/src/widgets/lv_canvas.c ****     lv_img_header_t header;
 675:lvgl/lvgl/src/widgets/lv_canvas.c ****     lv_res_t res = lv_img_decoder_get_info(src, &header);
 676:lvgl/lvgl/src/widgets/lv_canvas.c ****     if(res != LV_RES_OK) {
 677:lvgl/lvgl/src/widgets/lv_canvas.c ****         LV_LOG_WARN("lv_canvas_draw_img: Couldn't get the image data.");
 678:lvgl/lvgl/src/widgets/lv_canvas.c ****         return;
 679:lvgl/lvgl/src/widgets/lv_canvas.c ****     }
 680:lvgl/lvgl/src/widgets/lv_canvas.c **** 
 681:lvgl/lvgl/src/widgets/lv_canvas.c ****     lv_area_t coords;
 682:lvgl/lvgl/src/widgets/lv_canvas.c ****     coords.x1 = x;
 683:lvgl/lvgl/src/widgets/lv_canvas.c ****     coords.y1 = y;
 684:lvgl/lvgl/src/widgets/lv_canvas.c ****     coords.x2 = x + header.w - 1;
 685:lvgl/lvgl/src/widgets/lv_canvas.c ****     coords.y2 = y + header.h - 1;
 686:lvgl/lvgl/src/widgets/lv_canvas.c **** 
 687:lvgl/lvgl/src/widgets/lv_canvas.c ****     lv_disp_t disp;
 688:lvgl/lvgl/src/widgets/lv_canvas.c ****     /*Allocate the fake driver on the stack as the entire display doesn't outlive this function*/
 689:lvgl/lvgl/src/widgets/lv_canvas.c ****     lv_disp_drv_t driver;
 690:lvgl/lvgl/src/widgets/lv_canvas.c ****     lv_memset_00(&disp, sizeof(lv_disp_t));
 691:lvgl/lvgl/src/widgets/lv_canvas.c ****     disp.driver = &driver;
 692:lvgl/lvgl/src/widgets/lv_canvas.c **** 
 693:lvgl/lvgl/src/widgets/lv_canvas.c ****     lv_disp_draw_buf_t draw_buf;
 694:lvgl/lvgl/src/widgets/lv_canvas.c ****     lv_disp_draw_buf_init(&draw_buf, (void *)dsc->data, NULL, dsc->header.w * dsc->header.h);
 695:lvgl/lvgl/src/widgets/lv_canvas.c ****     lv_area_copy(&draw_buf.area, &mask);
 696:lvgl/lvgl/src/widgets/lv_canvas.c **** 
 697:lvgl/lvgl/src/widgets/lv_canvas.c ****     lv_disp_drv_init(disp.driver);
 698:lvgl/lvgl/src/widgets/lv_canvas.c **** 
 699:lvgl/lvgl/src/widgets/lv_canvas.c ****     disp.driver->draw_buf = &draw_buf;
 700:lvgl/lvgl/src/widgets/lv_canvas.c ****     disp.driver->hor_res = dsc->header.w;
 701:lvgl/lvgl/src/widgets/lv_canvas.c ****     disp.driver->ver_res = dsc->header.h;
 702:lvgl/lvgl/src/widgets/lv_canvas.c **** 
 703:lvgl/lvgl/src/widgets/lv_canvas.c ****     lv_disp_drv_use_generic_set_px_cb(disp.driver, dsc->header.cf);
 704:lvgl/lvgl/src/widgets/lv_canvas.c **** 
 705:lvgl/lvgl/src/widgets/lv_canvas.c ****     lv_disp_t * refr_ori = _lv_refr_get_disp_refreshing();
 706:lvgl/lvgl/src/widgets/lv_canvas.c ****     _lv_refr_set_disp_refreshing(&disp);
 707:lvgl/lvgl/src/widgets/lv_canvas.c **** 
 708:lvgl/lvgl/src/widgets/lv_canvas.c ****     lv_draw_img(&coords, &mask, src, draw_dsc);
 709:lvgl/lvgl/src/widgets/lv_canvas.c **** 
 710:lvgl/lvgl/src/widgets/lv_canvas.c ****     _lv_refr_set_disp_refreshing(refr_ori);
 711:lvgl/lvgl/src/widgets/lv_canvas.c **** 
 712:lvgl/lvgl/src/widgets/lv_canvas.c ****     lv_obj_invalidate(canvas);
 713:lvgl/lvgl/src/widgets/lv_canvas.c **** }
 714:lvgl/lvgl/src/widgets/lv_canvas.c **** 
ARM GAS  C:\Users\gx\AppData\Local\Temp\ccJLdkpG.s 			page 14


 715:lvgl/lvgl/src/widgets/lv_canvas.c **** void lv_canvas_draw_line(lv_obj_t * canvas, const lv_point_t points[], uint32_t point_cnt,
 716:lvgl/lvgl/src/widgets/lv_canvas.c ****                          const lv_draw_line_dsc_t * draw_dsc)
 717:lvgl/lvgl/src/widgets/lv_canvas.c **** {
 718:lvgl/lvgl/src/widgets/lv_canvas.c ****     LV_ASSERT_OBJ(canvas, MY_CLASS);
 719:lvgl/lvgl/src/widgets/lv_canvas.c **** 
 720:lvgl/lvgl/src/widgets/lv_canvas.c ****     lv_img_dsc_t * dsc = lv_canvas_get_img(canvas);
 721:lvgl/lvgl/src/widgets/lv_canvas.c **** 
 722:lvgl/lvgl/src/widgets/lv_canvas.c ****     if(dsc->header.cf >= LV_IMG_CF_INDEXED_1BIT && dsc->header.cf <= LV_IMG_CF_INDEXED_8BIT) {
 723:lvgl/lvgl/src/widgets/lv_canvas.c ****         LV_LOG_WARN("lv_canvas_draw_line: can't draw to LV_IMG_CF_INDEXED canvas");
 724:lvgl/lvgl/src/widgets/lv_canvas.c ****         return;
 725:lvgl/lvgl/src/widgets/lv_canvas.c ****     }
 726:lvgl/lvgl/src/widgets/lv_canvas.c ****     /*Create a dummy display to fool the lv_draw function.
 727:lvgl/lvgl/src/widgets/lv_canvas.c ****      *It will think it draws to real screen.*/
 728:lvgl/lvgl/src/widgets/lv_canvas.c ****     lv_area_t mask;
 729:lvgl/lvgl/src/widgets/lv_canvas.c ****     mask.x1 = 0;
 730:lvgl/lvgl/src/widgets/lv_canvas.c ****     mask.x2 = dsc->header.w - 1;
 731:lvgl/lvgl/src/widgets/lv_canvas.c ****     mask.y1 = 0;
 732:lvgl/lvgl/src/widgets/lv_canvas.c ****     mask.y2 = dsc->header.h - 1;
 733:lvgl/lvgl/src/widgets/lv_canvas.c **** 
 734:lvgl/lvgl/src/widgets/lv_canvas.c ****     lv_disp_t disp;
 735:lvgl/lvgl/src/widgets/lv_canvas.c ****     /*Allocate the fake driver on the stack as the entire display doesn't outlive this function*/
 736:lvgl/lvgl/src/widgets/lv_canvas.c ****     lv_disp_drv_t driver;
 737:lvgl/lvgl/src/widgets/lv_canvas.c ****     lv_memset_00(&disp, sizeof(lv_disp_t));
 738:lvgl/lvgl/src/widgets/lv_canvas.c ****     disp.driver = &driver;
 739:lvgl/lvgl/src/widgets/lv_canvas.c **** 
 740:lvgl/lvgl/src/widgets/lv_canvas.c ****     lv_disp_draw_buf_t draw_buf;
 741:lvgl/lvgl/src/widgets/lv_canvas.c ****     lv_disp_draw_buf_init(&draw_buf, (void *)dsc->data, NULL, dsc->header.w * dsc->header.h);
 742:lvgl/lvgl/src/widgets/lv_canvas.c ****     lv_area_copy(&draw_buf.area, &mask);
 743:lvgl/lvgl/src/widgets/lv_canvas.c **** 
 744:lvgl/lvgl/src/widgets/lv_canvas.c ****     lv_disp_drv_init(disp.driver);
 745:lvgl/lvgl/src/widgets/lv_canvas.c **** 
 746:lvgl/lvgl/src/widgets/lv_canvas.c ****     disp.driver->draw_buf = &draw_buf;
 747:lvgl/lvgl/src/widgets/lv_canvas.c ****     disp.driver->hor_res = dsc->header.w;
 748:lvgl/lvgl/src/widgets/lv_canvas.c ****     disp.driver->ver_res = dsc->header.h;
 749:lvgl/lvgl/src/widgets/lv_canvas.c **** 
 750:lvgl/lvgl/src/widgets/lv_canvas.c ****     lv_disp_drv_use_generic_set_px_cb(disp.driver, dsc->header.cf);
 751:lvgl/lvgl/src/widgets/lv_canvas.c **** 
 752:lvgl/lvgl/src/widgets/lv_canvas.c ****     /*Disable anti-aliasing if drawing with transparent color to chroma keyed canvas*/
 753:lvgl/lvgl/src/widgets/lv_canvas.c ****     lv_color_t ctransp = LV_COLOR_CHROMA_KEY;
 754:lvgl/lvgl/src/widgets/lv_canvas.c ****     if(dsc->header.cf == LV_IMG_CF_TRUE_COLOR_CHROMA_KEYED &&
 755:lvgl/lvgl/src/widgets/lv_canvas.c ****        draw_dsc->color.full == ctransp.full) {
 756:lvgl/lvgl/src/widgets/lv_canvas.c ****         disp.driver->antialiasing = 0;
 757:lvgl/lvgl/src/widgets/lv_canvas.c ****     }
 758:lvgl/lvgl/src/widgets/lv_canvas.c **** 
 759:lvgl/lvgl/src/widgets/lv_canvas.c ****     lv_disp_t * refr_ori = _lv_refr_get_disp_refreshing();
 760:lvgl/lvgl/src/widgets/lv_canvas.c ****     _lv_refr_set_disp_refreshing(&disp);
 761:lvgl/lvgl/src/widgets/lv_canvas.c **** 
 762:lvgl/lvgl/src/widgets/lv_canvas.c ****     uint32_t i;
 763:lvgl/lvgl/src/widgets/lv_canvas.c ****     for(i = 0; i < point_cnt - 1; i++) {
 764:lvgl/lvgl/src/widgets/lv_canvas.c ****         lv_draw_line(&points[i], &points[i + 1], &mask, draw_dsc);
 765:lvgl/lvgl/src/widgets/lv_canvas.c ****     }
 766:lvgl/lvgl/src/widgets/lv_canvas.c **** 
 767:lvgl/lvgl/src/widgets/lv_canvas.c ****     _lv_refr_set_disp_refreshing(refr_ori);
 768:lvgl/lvgl/src/widgets/lv_canvas.c **** 
 769:lvgl/lvgl/src/widgets/lv_canvas.c ****     lv_obj_invalidate(canvas);
 770:lvgl/lvgl/src/widgets/lv_canvas.c **** }
 771:lvgl/lvgl/src/widgets/lv_canvas.c **** 
ARM GAS  C:\Users\gx\AppData\Local\Temp\ccJLdkpG.s 			page 15


 772:lvgl/lvgl/src/widgets/lv_canvas.c **** void lv_canvas_draw_polygon(lv_obj_t * canvas, const lv_point_t points[], uint32_t point_cnt,
 773:lvgl/lvgl/src/widgets/lv_canvas.c ****                             const lv_draw_rect_dsc_t * draw_dsc)
 774:lvgl/lvgl/src/widgets/lv_canvas.c **** {
 775:lvgl/lvgl/src/widgets/lv_canvas.c ****     LV_ASSERT_OBJ(canvas, MY_CLASS);
 776:lvgl/lvgl/src/widgets/lv_canvas.c **** 
 777:lvgl/lvgl/src/widgets/lv_canvas.c ****     lv_img_dsc_t * dsc = lv_canvas_get_img(canvas);
 778:lvgl/lvgl/src/widgets/lv_canvas.c **** 
 779:lvgl/lvgl/src/widgets/lv_canvas.c ****     if(dsc->header.cf >= LV_IMG_CF_INDEXED_1BIT && dsc->header.cf <= LV_IMG_CF_INDEXED_8BIT) {
 780:lvgl/lvgl/src/widgets/lv_canvas.c ****         LV_LOG_WARN("lv_canvas_draw_polygon: can't draw to LV_IMG_CF_INDEXED canvas");
 781:lvgl/lvgl/src/widgets/lv_canvas.c ****         return;
 782:lvgl/lvgl/src/widgets/lv_canvas.c ****     }
 783:lvgl/lvgl/src/widgets/lv_canvas.c **** 
 784:lvgl/lvgl/src/widgets/lv_canvas.c ****     /*Create a dummy display to fool the lv_draw function.
 785:lvgl/lvgl/src/widgets/lv_canvas.c ****      *It will think it draws to real screen.*/
 786:lvgl/lvgl/src/widgets/lv_canvas.c ****     lv_area_t mask;
 787:lvgl/lvgl/src/widgets/lv_canvas.c ****     mask.x1 = 0;
 788:lvgl/lvgl/src/widgets/lv_canvas.c ****     mask.x2 = dsc->header.w - 1;
 789:lvgl/lvgl/src/widgets/lv_canvas.c ****     mask.y1 = 0;
 790:lvgl/lvgl/src/widgets/lv_canvas.c ****     mask.y2 = dsc->header.h - 1;
 791:lvgl/lvgl/src/widgets/lv_canvas.c **** 
 792:lvgl/lvgl/src/widgets/lv_canvas.c ****     lv_disp_t disp;
 793:lvgl/lvgl/src/widgets/lv_canvas.c ****     /*Allocate the fake driver on the stack as the entire display doesn't outlive this function*/
 794:lvgl/lvgl/src/widgets/lv_canvas.c ****     lv_disp_drv_t driver;
 795:lvgl/lvgl/src/widgets/lv_canvas.c ****     lv_memset_00(&disp, sizeof(lv_disp_t));
 796:lvgl/lvgl/src/widgets/lv_canvas.c ****     disp.driver = &driver;
 797:lvgl/lvgl/src/widgets/lv_canvas.c **** 
 798:lvgl/lvgl/src/widgets/lv_canvas.c ****     lv_disp_draw_buf_t draw_buf;
 799:lvgl/lvgl/src/widgets/lv_canvas.c ****     lv_disp_draw_buf_init(&draw_buf, (void *)dsc->data, NULL, dsc->header.w * dsc->header.h);
 800:lvgl/lvgl/src/widgets/lv_canvas.c ****     lv_area_copy(&draw_buf.area, &mask);
 801:lvgl/lvgl/src/widgets/lv_canvas.c **** 
 802:lvgl/lvgl/src/widgets/lv_canvas.c ****     lv_disp_drv_init(disp.driver);
 803:lvgl/lvgl/src/widgets/lv_canvas.c **** 
 804:lvgl/lvgl/src/widgets/lv_canvas.c ****     disp.driver->draw_buf = &draw_buf;
 805:lvgl/lvgl/src/widgets/lv_canvas.c ****     disp.driver->hor_res = dsc->header.w;
 806:lvgl/lvgl/src/widgets/lv_canvas.c ****     disp.driver->ver_res = dsc->header.h;
 807:lvgl/lvgl/src/widgets/lv_canvas.c **** 
 808:lvgl/lvgl/src/widgets/lv_canvas.c ****     lv_disp_drv_use_generic_set_px_cb(disp.driver, dsc->header.cf);
 809:lvgl/lvgl/src/widgets/lv_canvas.c **** 
 810:lvgl/lvgl/src/widgets/lv_canvas.c ****     /*Disable anti-aliasing if drawing with transparent color to chroma keyed canvas*/
 811:lvgl/lvgl/src/widgets/lv_canvas.c ****     lv_color_t ctransp = LV_COLOR_CHROMA_KEY;
 812:lvgl/lvgl/src/widgets/lv_canvas.c ****     if(dsc->header.cf == LV_IMG_CF_TRUE_COLOR_CHROMA_KEYED &&
 813:lvgl/lvgl/src/widgets/lv_canvas.c ****        draw_dsc->bg_color.full == ctransp.full) {
 814:lvgl/lvgl/src/widgets/lv_canvas.c ****         disp.driver->antialiasing = 0;
 815:lvgl/lvgl/src/widgets/lv_canvas.c ****     }
 816:lvgl/lvgl/src/widgets/lv_canvas.c **** 
 817:lvgl/lvgl/src/widgets/lv_canvas.c ****     lv_disp_t * refr_ori = _lv_refr_get_disp_refreshing();
 818:lvgl/lvgl/src/widgets/lv_canvas.c ****     _lv_refr_set_disp_refreshing(&disp);
 819:lvgl/lvgl/src/widgets/lv_canvas.c **** 
 820:lvgl/lvgl/src/widgets/lv_canvas.c ****     lv_draw_polygon(points, point_cnt, &mask, draw_dsc);
 821:lvgl/lvgl/src/widgets/lv_canvas.c **** 
 822:lvgl/lvgl/src/widgets/lv_canvas.c ****     _lv_refr_set_disp_refreshing(refr_ori);
 823:lvgl/lvgl/src/widgets/lv_canvas.c **** 
 824:lvgl/lvgl/src/widgets/lv_canvas.c ****     lv_obj_invalidate(canvas);
 825:lvgl/lvgl/src/widgets/lv_canvas.c **** }
 826:lvgl/lvgl/src/widgets/lv_canvas.c **** 
 827:lvgl/lvgl/src/widgets/lv_canvas.c **** void lv_canvas_draw_arc(lv_obj_t * canvas, lv_coord_t x, lv_coord_t y, lv_coord_t r, int32_t start_
 828:lvgl/lvgl/src/widgets/lv_canvas.c ****                         int32_t end_angle, const lv_draw_arc_dsc_t * draw_dsc)
ARM GAS  C:\Users\gx\AppData\Local\Temp\ccJLdkpG.s 			page 16


 829:lvgl/lvgl/src/widgets/lv_canvas.c **** {
 830:lvgl/lvgl/src/widgets/lv_canvas.c **** #if LV_DRAW_COMPLEX
 831:lvgl/lvgl/src/widgets/lv_canvas.c ****     LV_ASSERT_OBJ(canvas, MY_CLASS);
 832:lvgl/lvgl/src/widgets/lv_canvas.c **** 
 833:lvgl/lvgl/src/widgets/lv_canvas.c ****     lv_img_dsc_t * dsc = lv_canvas_get_img(canvas);
 834:lvgl/lvgl/src/widgets/lv_canvas.c **** 
 835:lvgl/lvgl/src/widgets/lv_canvas.c ****     if(dsc->header.cf >= LV_IMG_CF_INDEXED_1BIT && dsc->header.cf <= LV_IMG_CF_INDEXED_8BIT) {
 836:lvgl/lvgl/src/widgets/lv_canvas.c ****         LV_LOG_WARN("lv_canvas_draw_arc: can't draw to LV_IMG_CF_INDEXED canvas");
 837:lvgl/lvgl/src/widgets/lv_canvas.c ****         return;
 838:lvgl/lvgl/src/widgets/lv_canvas.c ****     }
 839:lvgl/lvgl/src/widgets/lv_canvas.c **** 
 840:lvgl/lvgl/src/widgets/lv_canvas.c ****     /*Create a dummy display to fool the lv_draw function.
 841:lvgl/lvgl/src/widgets/lv_canvas.c ****      *It will think it draws to real screen.*/
 842:lvgl/lvgl/src/widgets/lv_canvas.c ****     lv_area_t mask;
 843:lvgl/lvgl/src/widgets/lv_canvas.c ****     mask.x1 = 0;
 844:lvgl/lvgl/src/widgets/lv_canvas.c ****     mask.x2 = dsc->header.w - 1;
 845:lvgl/lvgl/src/widgets/lv_canvas.c ****     mask.y1 = 0;
 846:lvgl/lvgl/src/widgets/lv_canvas.c ****     mask.y2 = dsc->header.h - 1;
 847:lvgl/lvgl/src/widgets/lv_canvas.c **** 
 848:lvgl/lvgl/src/widgets/lv_canvas.c ****     lv_disp_t disp;
 849:lvgl/lvgl/src/widgets/lv_canvas.c ****     /*Allocate the fake driver on the stack as the entire display doesn't outlive this function*/
 850:lvgl/lvgl/src/widgets/lv_canvas.c ****     lv_disp_drv_t driver;
 851:lvgl/lvgl/src/widgets/lv_canvas.c ****     lv_memset_00(&disp, sizeof(lv_disp_t));
 852:lvgl/lvgl/src/widgets/lv_canvas.c ****     disp.driver = &driver;
 853:lvgl/lvgl/src/widgets/lv_canvas.c **** 
 854:lvgl/lvgl/src/widgets/lv_canvas.c ****     lv_disp_draw_buf_t draw_buf;
 855:lvgl/lvgl/src/widgets/lv_canvas.c ****     lv_disp_draw_buf_init(&draw_buf, (void *)dsc->data, NULL, dsc->header.w * dsc->header.h);
 856:lvgl/lvgl/src/widgets/lv_canvas.c ****     lv_area_copy(&draw_buf.area, &mask);
 857:lvgl/lvgl/src/widgets/lv_canvas.c **** 
 858:lvgl/lvgl/src/widgets/lv_canvas.c ****     lv_disp_drv_init(disp.driver);
 859:lvgl/lvgl/src/widgets/lv_canvas.c **** 
 860:lvgl/lvgl/src/widgets/lv_canvas.c ****     disp.driver->draw_buf = &draw_buf;
 861:lvgl/lvgl/src/widgets/lv_canvas.c ****     disp.driver->hor_res = dsc->header.w;
 862:lvgl/lvgl/src/widgets/lv_canvas.c ****     disp.driver->ver_res = dsc->header.h;
 863:lvgl/lvgl/src/widgets/lv_canvas.c **** 
 864:lvgl/lvgl/src/widgets/lv_canvas.c ****     lv_disp_drv_use_generic_set_px_cb(disp.driver, dsc->header.cf);
 865:lvgl/lvgl/src/widgets/lv_canvas.c **** 
 866:lvgl/lvgl/src/widgets/lv_canvas.c ****     /*Disable anti-aliasing if drawing with transparent color to chroma keyed canvas*/
 867:lvgl/lvgl/src/widgets/lv_canvas.c ****     lv_color_t ctransp = LV_COLOR_CHROMA_KEY;
 868:lvgl/lvgl/src/widgets/lv_canvas.c ****     if(dsc->header.cf == LV_IMG_CF_TRUE_COLOR_CHROMA_KEYED &&
 869:lvgl/lvgl/src/widgets/lv_canvas.c ****        draw_dsc->color.full == ctransp.full) {
 870:lvgl/lvgl/src/widgets/lv_canvas.c ****         disp.driver->antialiasing = 0;
 871:lvgl/lvgl/src/widgets/lv_canvas.c ****     }
 872:lvgl/lvgl/src/widgets/lv_canvas.c **** 
 873:lvgl/lvgl/src/widgets/lv_canvas.c ****     lv_disp_t * refr_ori = _lv_refr_get_disp_refreshing();
 874:lvgl/lvgl/src/widgets/lv_canvas.c ****     _lv_refr_set_disp_refreshing(&disp);
 875:lvgl/lvgl/src/widgets/lv_canvas.c **** 
 876:lvgl/lvgl/src/widgets/lv_canvas.c ****     lv_draw_arc(x, y, r,  start_angle, end_angle, &mask, draw_dsc);
 877:lvgl/lvgl/src/widgets/lv_canvas.c **** 
 878:lvgl/lvgl/src/widgets/lv_canvas.c ****     _lv_refr_set_disp_refreshing(refr_ori);
 879:lvgl/lvgl/src/widgets/lv_canvas.c **** 
 880:lvgl/lvgl/src/widgets/lv_canvas.c ****     lv_obj_invalidate(canvas);
 881:lvgl/lvgl/src/widgets/lv_canvas.c **** #else
 882:lvgl/lvgl/src/widgets/lv_canvas.c ****     LV_UNUSED(canvas);
 883:lvgl/lvgl/src/widgets/lv_canvas.c ****     LV_UNUSED(x);
 884:lvgl/lvgl/src/widgets/lv_canvas.c ****     LV_UNUSED(y);
 885:lvgl/lvgl/src/widgets/lv_canvas.c ****     LV_UNUSED(r);
ARM GAS  C:\Users\gx\AppData\Local\Temp\ccJLdkpG.s 			page 17


 886:lvgl/lvgl/src/widgets/lv_canvas.c ****     LV_UNUSED(start_angle);
 887:lvgl/lvgl/src/widgets/lv_canvas.c ****     LV_UNUSED(end_angle);
 888:lvgl/lvgl/src/widgets/lv_canvas.c ****     LV_UNUSED(draw_dsc);
 889:lvgl/lvgl/src/widgets/lv_canvas.c ****     LV_LOG_WARN("Can't draw arc with LV_DRAW_COMPLEX == 0");
 890:lvgl/lvgl/src/widgets/lv_canvas.c **** #endif
 891:lvgl/lvgl/src/widgets/lv_canvas.c **** }
 892:lvgl/lvgl/src/widgets/lv_canvas.c **** 
 893:lvgl/lvgl/src/widgets/lv_canvas.c **** /**********************
 894:lvgl/lvgl/src/widgets/lv_canvas.c ****  *   STATIC FUNCTIONS
 895:lvgl/lvgl/src/widgets/lv_canvas.c ****  **********************/
 896:lvgl/lvgl/src/widgets/lv_canvas.c **** 
 897:lvgl/lvgl/src/widgets/lv_canvas.c **** static void lv_canvas_constructor(const lv_obj_class_t * class_p, lv_obj_t * obj)
 898:lvgl/lvgl/src/widgets/lv_canvas.c **** {
 899:lvgl/lvgl/src/widgets/lv_canvas.c ****     LV_UNUSED(class_p);
 900:lvgl/lvgl/src/widgets/lv_canvas.c ****     LV_TRACE_OBJ_CREATE("begin");
 901:lvgl/lvgl/src/widgets/lv_canvas.c **** 
 902:lvgl/lvgl/src/widgets/lv_canvas.c ****     lv_canvas_t * canvas = (lv_canvas_t *)obj;
 903:lvgl/lvgl/src/widgets/lv_canvas.c **** 
 904:lvgl/lvgl/src/widgets/lv_canvas.c ****     canvas->dsc.header.always_zero = 0;
 905:lvgl/lvgl/src/widgets/lv_canvas.c ****     canvas->dsc.header.cf          = LV_IMG_CF_TRUE_COLOR;
 906:lvgl/lvgl/src/widgets/lv_canvas.c ****     canvas->dsc.header.h           = 0;
 907:lvgl/lvgl/src/widgets/lv_canvas.c ****     canvas->dsc.header.w           = 0;
 908:lvgl/lvgl/src/widgets/lv_canvas.c ****     canvas->dsc.data_size          = 0;
 909:lvgl/lvgl/src/widgets/lv_canvas.c ****     canvas->dsc.data               = NULL;
 910:lvgl/lvgl/src/widgets/lv_canvas.c **** 
 911:lvgl/lvgl/src/widgets/lv_canvas.c ****     lv_img_set_src(obj, &canvas->dsc);
 912:lvgl/lvgl/src/widgets/lv_canvas.c **** 
 913:lvgl/lvgl/src/widgets/lv_canvas.c ****     LV_TRACE_OBJ_CREATE("finished");
 914:lvgl/lvgl/src/widgets/lv_canvas.c **** }
 915:lvgl/lvgl/src/widgets/lv_canvas.c **** 
 916:lvgl/lvgl/src/widgets/lv_canvas.c **** static void lv_canvas_destructor(const lv_obj_class_t * class_p, lv_obj_t * obj)
 917:lvgl/lvgl/src/widgets/lv_canvas.c **** {
  29              		.loc 1 917 1 view -0
  30              		.cfi_startproc
  31              		@ args = 0, pretend = 0, frame = 0
  32              		@ frame_needed = 0, uses_anonymous_args = 0
  33              		.loc 1 917 1 is_stmt 0 view .LVU1
  34 0000 08B5     		push	{r3, lr}
  35              	.LCFI0:
  36              		.cfi_def_cfa_offset 8
  37              		.cfi_offset 3, -8
  38              		.cfi_offset 14, -4
 918:lvgl/lvgl/src/widgets/lv_canvas.c ****     LV_UNUSED(class_p);
  39              		.loc 1 918 5 is_stmt 1 view .LVU2
 919:lvgl/lvgl/src/widgets/lv_canvas.c ****     LV_TRACE_OBJ_CREATE("begin");
  40              		.loc 1 919 5 view .LVU3
  41              		.loc 1 919 5 view .LVU4
  42              		.loc 1 919 5 view .LVU5
  43              		.loc 1 919 33 view .LVU6
 920:lvgl/lvgl/src/widgets/lv_canvas.c **** 
 921:lvgl/lvgl/src/widgets/lv_canvas.c ****     lv_canvas_t * canvas = (lv_canvas_t *)obj;
  44              		.loc 1 921 5 view .LVU7
  45              	.LVL1:
 922:lvgl/lvgl/src/widgets/lv_canvas.c ****     lv_img_cache_invalidate_src(&canvas->dsc);
  46              		.loc 1 922 5 view .LVU8
  47 0002 01F13C00 		add	r0, r1, #60
  48              	.LVL2:
ARM GAS  C:\Users\gx\AppData\Local\Temp\ccJLdkpG.s 			page 18


  49              		.loc 1 922 5 is_stmt 0 view .LVU9
  50 0006 FFF7FEFF 		bl	lv_img_cache_invalidate_src
  51              	.LVL3:
 923:lvgl/lvgl/src/widgets/lv_canvas.c **** }
  52              		.loc 1 923 1 view .LVU10
  53 000a 08BD     		pop	{r3, pc}
  54              		.cfi_endproc
  55              	.LFE170:
  57              		.section	.text.lv_canvas_constructor,"ax",%progbits
  58              		.align	1
  59              		.syntax unified
  60              		.thumb
  61              		.thumb_func
  62              		.fpu fpv4-sp-d16
  64              	lv_canvas_constructor:
  65              	.LVL4:
  66              	.LFB169:
 898:lvgl/lvgl/src/widgets/lv_canvas.c ****     LV_UNUSED(class_p);
  67              		.loc 1 898 1 is_stmt 1 view -0
  68              		.cfi_startproc
  69              		@ args = 0, pretend = 0, frame = 0
  70              		@ frame_needed = 0, uses_anonymous_args = 0
 898:lvgl/lvgl/src/widgets/lv_canvas.c ****     LV_UNUSED(class_p);
  71              		.loc 1 898 1 is_stmt 0 view .LVU12
  72 0000 08B5     		push	{r3, lr}
  73              	.LCFI1:
  74              		.cfi_def_cfa_offset 8
  75              		.cfi_offset 3, -8
  76              		.cfi_offset 14, -4
  77 0002 0846     		mov	r0, r1
  78              	.LVL5:
 899:lvgl/lvgl/src/widgets/lv_canvas.c ****     LV_TRACE_OBJ_CREATE("begin");
  79              		.loc 1 899 5 is_stmt 1 view .LVU13
 900:lvgl/lvgl/src/widgets/lv_canvas.c **** 
  80              		.loc 1 900 5 view .LVU14
 900:lvgl/lvgl/src/widgets/lv_canvas.c **** 
  81              		.loc 1 900 5 view .LVU15
 900:lvgl/lvgl/src/widgets/lv_canvas.c **** 
  82              		.loc 1 900 5 view .LVU16
 900:lvgl/lvgl/src/widgets/lv_canvas.c **** 
  83              		.loc 1 900 33 view .LVU17
 902:lvgl/lvgl/src/widgets/lv_canvas.c **** 
  84              		.loc 1 902 5 view .LVU18
 904:lvgl/lvgl/src/widgets/lv_canvas.c ****     canvas->dsc.header.cf          = LV_IMG_CF_TRUE_COLOR;
  85              		.loc 1 904 5 view .LVU19
 904:lvgl/lvgl/src/widgets/lv_canvas.c ****     canvas->dsc.header.cf          = LV_IMG_CF_TRUE_COLOR;
  86              		.loc 1 904 36 is_stmt 0 view .LVU20
  87 0004 91F83C30 		ldrb	r3, [r1, #60]	@ zero_extendqisi2
 905:lvgl/lvgl/src/widgets/lv_canvas.c ****     canvas->dsc.header.h           = 0;
  88              		.loc 1 905 5 is_stmt 1 view .LVU21
 905:lvgl/lvgl/src/widgets/lv_canvas.c ****     canvas->dsc.header.h           = 0;
  89              		.loc 1 905 36 is_stmt 0 view .LVU22
  90 0008 03F01F03 		and	r3, r3, #31
  91 000c 0422     		movs	r2, #4
  92 000e 62F30403 		bfi	r3, r2, #0, #5
  93 0012 81F83C30 		strb	r3, [r1, #60]
 906:lvgl/lvgl/src/widgets/lv_canvas.c ****     canvas->dsc.header.w           = 0;
ARM GAS  C:\Users\gx\AppData\Local\Temp\ccJLdkpG.s 			page 19


  94              		.loc 1 906 5 is_stmt 1 view .LVU23
 906:lvgl/lvgl/src/widgets/lv_canvas.c ****     canvas->dsc.header.w           = 0;
  95              		.loc 1 906 36 is_stmt 0 view .LVU24
  96 0016 CB8F     		ldrh	r3, [r1, #62]
  97 0018 6FF34F13 		bfc	r3, #5, #11
  98 001c CB87     		strh	r3, [r1, #62]	@ movhi
 907:lvgl/lvgl/src/widgets/lv_canvas.c ****     canvas->dsc.data_size          = 0;
  99              		.loc 1 907 5 is_stmt 1 view .LVU25
 907:lvgl/lvgl/src/widgets/lv_canvas.c ****     canvas->dsc.data_size          = 0;
 100              		.loc 1 907 36 is_stmt 0 view .LVU26
 101 001e CB6B     		ldr	r3, [r1, #60]
 102 0020 6FF39423 		bfc	r3, #10, #11
 103 0024 CB63     		str	r3, [r1, #60]
 908:lvgl/lvgl/src/widgets/lv_canvas.c ****     canvas->dsc.data               = NULL;
 104              		.loc 1 908 5 is_stmt 1 view .LVU27
 908:lvgl/lvgl/src/widgets/lv_canvas.c ****     canvas->dsc.data               = NULL;
 105              		.loc 1 908 36 is_stmt 0 view .LVU28
 106 0026 0023     		movs	r3, #0
 107 0028 0B64     		str	r3, [r1, #64]
 909:lvgl/lvgl/src/widgets/lv_canvas.c **** 
 108              		.loc 1 909 5 is_stmt 1 view .LVU29
 909:lvgl/lvgl/src/widgets/lv_canvas.c **** 
 109              		.loc 1 909 36 is_stmt 0 view .LVU30
 110 002a 4B64     		str	r3, [r1, #68]
 911:lvgl/lvgl/src/widgets/lv_canvas.c **** 
 111              		.loc 1 911 5 is_stmt 1 view .LVU31
 112 002c 3C31     		adds	r1, r1, #60
 113              	.LVL6:
 911:lvgl/lvgl/src/widgets/lv_canvas.c **** 
 114              		.loc 1 911 5 is_stmt 0 view .LVU32
 115 002e FFF7FEFF 		bl	lv_img_set_src
 116              	.LVL7:
 913:lvgl/lvgl/src/widgets/lv_canvas.c **** }
 117              		.loc 1 913 5 is_stmt 1 view .LVU33
 913:lvgl/lvgl/src/widgets/lv_canvas.c **** }
 118              		.loc 1 913 5 view .LVU34
 913:lvgl/lvgl/src/widgets/lv_canvas.c **** }
 119              		.loc 1 913 5 view .LVU35
 913:lvgl/lvgl/src/widgets/lv_canvas.c **** }
 120              		.loc 1 913 36 view .LVU36
 914:lvgl/lvgl/src/widgets/lv_canvas.c **** 
 121              		.loc 1 914 1 is_stmt 0 view .LVU37
 122 0032 08BD     		pop	{r3, pc}
 123              		.cfi_endproc
 124              	.LFE169:
 126              		.section	.text.lv_canvas_create,"ax",%progbits
 127              		.align	1
 128              		.global	lv_canvas_create
 129              		.syntax unified
 130              		.thumb
 131              		.thumb_func
 132              		.fpu fpv4-sp-d16
 134              	lv_canvas_create:
 135              	.LVL8:
 136              	.LFB152:
  51:lvgl/lvgl/src/widgets/lv_canvas.c ****     LV_LOG_INFO("begin")
 137              		.loc 1 51 1 is_stmt 1 view -0
ARM GAS  C:\Users\gx\AppData\Local\Temp\ccJLdkpG.s 			page 20


 138              		.cfi_startproc
 139              		@ args = 0, pretend = 0, frame = 0
 140              		@ frame_needed = 0, uses_anonymous_args = 0
  51:lvgl/lvgl/src/widgets/lv_canvas.c ****     LV_LOG_INFO("begin")
 141              		.loc 1 51 1 is_stmt 0 view .LVU39
 142 0000 10B5     		push	{r4, lr}
 143              	.LCFI2:
 144              		.cfi_def_cfa_offset 8
 145              		.cfi_offset 4, -8
 146              		.cfi_offset 14, -4
 147 0002 0146     		mov	r1, r0
  52:lvgl/lvgl/src/widgets/lv_canvas.c ****     lv_obj_t * obj = lv_obj_class_create_obj(MY_CLASS, parent);
 148              		.loc 1 52 5 is_stmt 1 view .LVU40
  52:lvgl/lvgl/src/widgets/lv_canvas.c ****     lv_obj_t * obj = lv_obj_class_create_obj(MY_CLASS, parent);
 149              		.loc 1 52 5 view .LVU41
  52:lvgl/lvgl/src/widgets/lv_canvas.c ****     lv_obj_t * obj = lv_obj_class_create_obj(MY_CLASS, parent);
 150              		.loc 1 52 5 view .LVU42
  53:lvgl/lvgl/src/widgets/lv_canvas.c ****     lv_obj_class_init_obj(obj);
 151              		.loc 1 53 5 view .LVU43
  53:lvgl/lvgl/src/widgets/lv_canvas.c ****     lv_obj_class_init_obj(obj);
 152              		.loc 1 53 22 is_stmt 0 view .LVU44
 153 0004 0348     		ldr	r0, .L7
 154              	.LVL9:
  53:lvgl/lvgl/src/widgets/lv_canvas.c ****     lv_obj_class_init_obj(obj);
 155              		.loc 1 53 22 view .LVU45
 156 0006 FFF7FEFF 		bl	lv_obj_class_create_obj
 157              	.LVL10:
  53:lvgl/lvgl/src/widgets/lv_canvas.c ****     lv_obj_class_init_obj(obj);
 158              		.loc 1 53 22 view .LVU46
 159 000a 0446     		mov	r4, r0
 160              	.LVL11:
  54:lvgl/lvgl/src/widgets/lv_canvas.c ****     return obj;
 161              		.loc 1 54 5 is_stmt 1 view .LVU47
 162 000c FFF7FEFF 		bl	lv_obj_class_init_obj
 163              	.LVL12:
  55:lvgl/lvgl/src/widgets/lv_canvas.c **** }
 164              		.loc 1 55 5 view .LVU48
  56:lvgl/lvgl/src/widgets/lv_canvas.c **** 
 165              		.loc 1 56 1 is_stmt 0 view .LVU49
 166 0010 2046     		mov	r0, r4
 167 0012 10BD     		pop	{r4, pc}
 168              	.LVL13:
 169              	.L8:
  56:lvgl/lvgl/src/widgets/lv_canvas.c **** 
 170              		.loc 1 56 1 view .LVU50
 171              		.align	2
 172              	.L7:
 173 0014 00000000 		.word	.LANCHOR0
 174              		.cfi_endproc
 175              	.LFE152:
 177              		.section	.rodata.lv_canvas_set_buffer.str1.4,"aMS",%progbits,1
 178              		.align	2
 179              	.LC0:
 180 0000 6C76676C 		.ascii	"lvgl/lvgl/src/widgets/lv_canvas.c\000"
 180      2F6C7667 
 180      6C2F7372 
 180      632F7769 
ARM GAS  C:\Users\gx\AppData\Local\Temp\ccJLdkpG.s 			page 21


 180      64676574 
 181 0022 0000     		.align	2
 182              	.LC1:
 183 0024 4E554C4C 		.ascii	"NULL pointer\000"
 183      20706F69 
 183      6E746572 
 183      00
 184 0031 000000   		.align	2
 185              	.LC2:
 186 0034 62756620 		.ascii	"buf != NULL\000"
 186      213D204E 
 186      554C4C00 
 187              		.align	2
 188              	.LC3:
 189 0040 41737365 		.ascii	"Asserted at expression: %s (%s)\000"
 189      72746564 
 189      20617420 
 189      65787072 
 189      65737369 
 190              		.section	.text.lv_canvas_set_buffer,"ax",%progbits
 191              		.align	1
 192              		.global	lv_canvas_set_buffer
 193              		.syntax unified
 194              		.thumb
 195              		.thumb_func
 196              		.fpu fpv4-sp-d16
 198              	lv_canvas_set_buffer:
 199              	.LVL14:
 200              	.LFB153:
  63:lvgl/lvgl/src/widgets/lv_canvas.c ****     LV_ASSERT_OBJ(obj, MY_CLASS);
 201              		.loc 1 63 1 is_stmt 1 view -0
 202              		.cfi_startproc
 203              		@ args = 4, pretend = 0, frame = 0
 204              		@ frame_needed = 0, uses_anonymous_args = 0
  63:lvgl/lvgl/src/widgets/lv_canvas.c ****     LV_ASSERT_OBJ(obj, MY_CLASS);
 205              		.loc 1 63 1 is_stmt 0 view .LVU52
 206 0000 30B5     		push	{r4, r5, lr}
 207              	.LCFI3:
 208              		.cfi_def_cfa_offset 12
 209              		.cfi_offset 4, -12
 210              		.cfi_offset 5, -8
 211              		.cfi_offset 14, -4
 212 0002 85B0     		sub	sp, sp, #20
 213              	.LCFI4:
 214              		.cfi_def_cfa_offset 32
  64:lvgl/lvgl/src/widgets/lv_canvas.c ****     LV_ASSERT_NULL(buf);
 215              		.loc 1 64 5 is_stmt 1 view .LVU53
  64:lvgl/lvgl/src/widgets/lv_canvas.c ****     LV_ASSERT_NULL(buf);
 216              		.loc 1 64 5 view .LVU54
  64:lvgl/lvgl/src/widgets/lv_canvas.c ****     LV_ASSERT_NULL(buf);
 217              		.loc 1 64 5 view .LVU55
  65:lvgl/lvgl/src/widgets/lv_canvas.c **** 
 218              		.loc 1 65 5 view .LVU56
  65:lvgl/lvgl/src/widgets/lv_canvas.c **** 
 219              		.loc 1 65 5 view .LVU57
 220 0004 D1B1     		cbz	r1, .L13
 221 0006 1446     		mov	r4, r2
ARM GAS  C:\Users\gx\AppData\Local\Temp\ccJLdkpG.s 			page 22


 222 0008 1A46     		mov	r2, r3
 223              	.LVL15:
  65:lvgl/lvgl/src/widgets/lv_canvas.c **** 
 224              		.loc 1 65 5 is_stmt 0 view .LVU58
 225 000a 0D46     		mov	r5, r1
  65:lvgl/lvgl/src/widgets/lv_canvas.c **** 
 226              		.loc 1 65 5 is_stmt 1 discriminator 2 view .LVU59
  65:lvgl/lvgl/src/widgets/lv_canvas.c **** 
 227              		.loc 1 65 24 discriminator 2 view .LVU60
  67:lvgl/lvgl/src/widgets/lv_canvas.c **** 
 228              		.loc 1 67 5 discriminator 2 view .LVU61
 229              	.LVL16:
  69:lvgl/lvgl/src/widgets/lv_canvas.c ****     canvas->dsc.header.w  = w;
 230              		.loc 1 69 5 discriminator 2 view .LVU62
  69:lvgl/lvgl/src/widgets/lv_canvas.c ****     canvas->dsc.header.w  = w;
 231              		.loc 1 69 27 is_stmt 0 discriminator 2 view .LVU63
 232 000c 90F83C30 		ldrb	r3, [r0, #60]	@ zero_extendqisi2
 233              	.LVL17:
  69:lvgl/lvgl/src/widgets/lv_canvas.c ****     canvas->dsc.header.w  = w;
 234              		.loc 1 69 27 discriminator 2 view .LVU64
 235 0010 9DF82010 		ldrb	r1, [sp, #32]	@ zero_extendqisi2
 236              	.LVL18:
  69:lvgl/lvgl/src/widgets/lv_canvas.c ****     canvas->dsc.header.w  = w;
 237              		.loc 1 69 27 discriminator 2 view .LVU65
 238 0014 61F30403 		bfi	r3, r1, #0, #5
 239 0018 80F83C30 		strb	r3, [r0, #60]
  70:lvgl/lvgl/src/widgets/lv_canvas.c ****     canvas->dsc.header.h  = h;
 240              		.loc 1 70 5 is_stmt 1 discriminator 2 view .LVU66
  70:lvgl/lvgl/src/widgets/lv_canvas.c ****     canvas->dsc.header.h  = h;
 241              		.loc 1 70 27 is_stmt 0 discriminator 2 view .LVU67
 242 001c C36B     		ldr	r3, [r0, #60]
 243 001e 64F39423 		bfi	r3, r4, #10, #11
 244 0022 C363     		str	r3, [r0, #60]
 245              	.LVL19:
  71:lvgl/lvgl/src/widgets/lv_canvas.c ****     canvas->dsc.data      = buf;
 246              		.loc 1 71 5 is_stmt 1 discriminator 2 view .LVU68
  71:lvgl/lvgl/src/widgets/lv_canvas.c ****     canvas->dsc.data      = buf;
 247              		.loc 1 71 27 is_stmt 0 discriminator 2 view .LVU69
 248 0024 C3F30F43 		ubfx	r3, r3, #16, #16
 249 0028 62F34F13 		bfi	r3, r2, #5, #11
 250              	.LVL20:
  71:lvgl/lvgl/src/widgets/lv_canvas.c ****     canvas->dsc.data      = buf;
 251              		.loc 1 71 27 discriminator 2 view .LVU70
 252 002c C387     		strh	r3, [r0, #62]	@ movhi
  72:lvgl/lvgl/src/widgets/lv_canvas.c **** 
 253              		.loc 1 72 5 is_stmt 1 discriminator 2 view .LVU71
  72:lvgl/lvgl/src/widgets/lv_canvas.c **** 
 254              		.loc 1 72 27 is_stmt 0 discriminator 2 view .LVU72
 255 002e 4564     		str	r5, [r0, #68]
  74:lvgl/lvgl/src/widgets/lv_canvas.c **** }
 256              		.loc 1 74 5 is_stmt 1 discriminator 2 view .LVU73
 257 0030 00F13C01 		add	r1, r0, #60
 258 0034 FFF7FEFF 		bl	lv_img_set_src
 259              	.LVL21:
  75:lvgl/lvgl/src/widgets/lv_canvas.c **** 
 260              		.loc 1 75 1 is_stmt 0 discriminator 2 view .LVU74
 261 0038 05B0     		add	sp, sp, #20
ARM GAS  C:\Users\gx\AppData\Local\Temp\ccJLdkpG.s 			page 23


 262              	.LCFI5:
 263              		.cfi_remember_state
 264              		.cfi_def_cfa_offset 12
 265              		@ sp needed
 266 003a 30BD     		pop	{r4, r5, pc}
 267              	.LVL22:
 268              	.L13:
 269              	.LCFI6:
 270              		.cfi_restore_state
  65:lvgl/lvgl/src/widgets/lv_canvas.c **** 
 271              		.loc 1 65 5 is_stmt 1 discriminator 1 view .LVU75
 272 003c 064B     		ldr	r3, .L14
 273              	.LVL23:
  65:lvgl/lvgl/src/widgets/lv_canvas.c **** 
 274              		.loc 1 65 5 is_stmt 0 discriminator 1 view .LVU76
 275 003e 0293     		str	r3, [sp, #8]
 276 0040 064B     		ldr	r3, .L14+4
 277 0042 0193     		str	r3, [sp, #4]
 278 0044 064B     		ldr	r3, .L14+8
 279 0046 0093     		str	r3, [sp]
 280 0048 064B     		ldr	r3, .L14+12
 281 004a 4122     		movs	r2, #65
 282              	.LVL24:
  65:lvgl/lvgl/src/widgets/lv_canvas.c **** 
 283              		.loc 1 65 5 discriminator 1 view .LVU77
 284 004c 0649     		ldr	r1, .L14+16
 285              	.LVL25:
  65:lvgl/lvgl/src/widgets/lv_canvas.c **** 
 286              		.loc 1 65 5 discriminator 1 view .LVU78
 287 004e 0320     		movs	r0, #3
 288              	.LVL26:
  65:lvgl/lvgl/src/widgets/lv_canvas.c **** 
 289              		.loc 1 65 5 discriminator 1 view .LVU79
 290 0050 FFF7FEFF 		bl	_lv_log_add
 291              	.LVL27:
 292              	.L11:
  65:lvgl/lvgl/src/widgets/lv_canvas.c **** 
 293              		.loc 1 65 5 is_stmt 1 discriminator 1 view .LVU80
  65:lvgl/lvgl/src/widgets/lv_canvas.c **** 
 294              		.loc 1 65 5 discriminator 1 view .LVU81
  65:lvgl/lvgl/src/widgets/lv_canvas.c **** 
 295              		.loc 1 65 5 discriminator 1 view .LVU82
  65:lvgl/lvgl/src/widgets/lv_canvas.c **** 
 296              		.loc 1 65 5 discriminator 1 view .LVU83
 297 0054 FEE7     		b	.L11
 298              	.L15:
 299 0056 00BF     		.align	2
 300              	.L14:
 301 0058 24000000 		.word	.LC1
 302 005c 34000000 		.word	.LC2
 303 0060 40000000 		.word	.LC3
 304 0064 00000000 		.word	.LANCHOR1
 305 0068 00000000 		.word	.LC0
 306              		.cfi_endproc
 307              	.LFE153:
 309              		.section	.text.lv_canvas_set_px,"ax",%progbits
 310              		.align	1
ARM GAS  C:\Users\gx\AppData\Local\Temp\ccJLdkpG.s 			page 24


 311              		.global	lv_canvas_set_px
 312              		.syntax unified
 313              		.thumb
 314              		.thumb_func
 315              		.fpu fpv4-sp-d16
 317              	lv_canvas_set_px:
 318              	.LVL28:
 319              	.LFB154:
  78:lvgl/lvgl/src/widgets/lv_canvas.c ****     LV_ASSERT_OBJ(obj, MY_CLASS);
 320              		.loc 1 78 1 view -0
 321              		.cfi_startproc
 322              		@ args = 0, pretend = 0, frame = 0
 323              		@ frame_needed = 0, uses_anonymous_args = 0
  78:lvgl/lvgl/src/widgets/lv_canvas.c ****     LV_ASSERT_OBJ(obj, MY_CLASS);
 324              		.loc 1 78 1 is_stmt 0 view .LVU85
 325 0000 10B5     		push	{r4, lr}
 326              	.LCFI7:
 327              		.cfi_def_cfa_offset 8
 328              		.cfi_offset 4, -8
 329              		.cfi_offset 14, -4
 330 0002 0446     		mov	r4, r0
  79:lvgl/lvgl/src/widgets/lv_canvas.c **** 
 331              		.loc 1 79 5 is_stmt 1 view .LVU86
  79:lvgl/lvgl/src/widgets/lv_canvas.c **** 
 332              		.loc 1 79 5 view .LVU87
  79:lvgl/lvgl/src/widgets/lv_canvas.c **** 
 333              		.loc 1 79 5 view .LVU88
  81:lvgl/lvgl/src/widgets/lv_canvas.c **** 
 334              		.loc 1 81 5 view .LVU89
 335              	.LVL29:
  83:lvgl/lvgl/src/widgets/lv_canvas.c ****     lv_obj_invalidate(obj);
 336              		.loc 1 83 5 view .LVU90
 337 0004 3C30     		adds	r0, r0, #60
 338              	.LVL30:
  83:lvgl/lvgl/src/widgets/lv_canvas.c ****     lv_obj_invalidate(obj);
 339              		.loc 1 83 5 is_stmt 0 view .LVU91
 340 0006 FFF7FEFF 		bl	lv_img_buf_set_px_color
 341              	.LVL31:
  84:lvgl/lvgl/src/widgets/lv_canvas.c **** }
 342              		.loc 1 84 5 is_stmt 1 view .LVU92
 343 000a 2046     		mov	r0, r4
 344 000c FFF7FEFF 		bl	lv_obj_invalidate
 345              	.LVL32:
  85:lvgl/lvgl/src/widgets/lv_canvas.c **** 
 346              		.loc 1 85 1 is_stmt 0 view .LVU93
 347 0010 10BD     		pop	{r4, pc}
  85:lvgl/lvgl/src/widgets/lv_canvas.c **** 
 348              		.loc 1 85 1 view .LVU94
 349              		.cfi_endproc
 350              	.LFE154:
 352              		.section	.text.lv_canvas_set_palette,"ax",%progbits
 353              		.align	1
 354              		.global	lv_canvas_set_palette
 355              		.syntax unified
 356              		.thumb
 357              		.thumb_func
 358              		.fpu fpv4-sp-d16
ARM GAS  C:\Users\gx\AppData\Local\Temp\ccJLdkpG.s 			page 25


 360              	lv_canvas_set_palette:
 361              	.LVL33:
 362              	.LFB155:
  88:lvgl/lvgl/src/widgets/lv_canvas.c ****     LV_ASSERT_OBJ(obj, MY_CLASS);
 363              		.loc 1 88 1 is_stmt 1 view -0
 364              		.cfi_startproc
 365              		@ args = 0, pretend = 0, frame = 0
 366              		@ frame_needed = 0, uses_anonymous_args = 0
  88:lvgl/lvgl/src/widgets/lv_canvas.c ****     LV_ASSERT_OBJ(obj, MY_CLASS);
 367              		.loc 1 88 1 is_stmt 0 view .LVU96
 368 0000 10B5     		push	{r4, lr}
 369              	.LCFI8:
 370              		.cfi_def_cfa_offset 8
 371              		.cfi_offset 4, -8
 372              		.cfi_offset 14, -4
 373 0002 0446     		mov	r4, r0
  89:lvgl/lvgl/src/widgets/lv_canvas.c **** 
 374              		.loc 1 89 5 is_stmt 1 view .LVU97
  89:lvgl/lvgl/src/widgets/lv_canvas.c **** 
 375              		.loc 1 89 5 view .LVU98
  89:lvgl/lvgl/src/widgets/lv_canvas.c **** 
 376              		.loc 1 89 5 view .LVU99
  91:lvgl/lvgl/src/widgets/lv_canvas.c **** 
 377              		.loc 1 91 5 view .LVU100
 378              	.LVL34:
  93:lvgl/lvgl/src/widgets/lv_canvas.c ****     lv_obj_invalidate(obj);
 379              		.loc 1 93 5 view .LVU101
 380 0004 3C30     		adds	r0, r0, #60
 381              	.LVL35:
  93:lvgl/lvgl/src/widgets/lv_canvas.c ****     lv_obj_invalidate(obj);
 382              		.loc 1 93 5 is_stmt 0 view .LVU102
 383 0006 FFF7FEFF 		bl	lv_img_buf_set_palette
 384              	.LVL36:
  94:lvgl/lvgl/src/widgets/lv_canvas.c **** }
 385              		.loc 1 94 5 is_stmt 1 view .LVU103
 386 000a 2046     		mov	r0, r4
 387 000c FFF7FEFF 		bl	lv_obj_invalidate
 388              	.LVL37:
  95:lvgl/lvgl/src/widgets/lv_canvas.c **** 
 389              		.loc 1 95 1 is_stmt 0 view .LVU104
 390 0010 10BD     		pop	{r4, pc}
  95:lvgl/lvgl/src/widgets/lv_canvas.c **** 
 391              		.loc 1 95 1 view .LVU105
 392              		.cfi_endproc
 393              	.LFE155:
 395              		.section	.text.lv_canvas_get_px,"ax",%progbits
 396              		.align	1
 397              		.global	lv_canvas_get_px
 398              		.syntax unified
 399              		.thumb
 400              		.thumb_func
 401              		.fpu fpv4-sp-d16
 403              	lv_canvas_get_px:
 404              	.LVL38:
 405              	.LFB156:
 102:lvgl/lvgl/src/widgets/lv_canvas.c ****     LV_ASSERT_OBJ(obj, MY_CLASS);
 406              		.loc 1 102 1 is_stmt 1 view -0
ARM GAS  C:\Users\gx\AppData\Local\Temp\ccJLdkpG.s 			page 26


 407              		.cfi_startproc
 408              		@ args = 0, pretend = 0, frame = 0
 409              		@ frame_needed = 0, uses_anonymous_args = 0
 102:lvgl/lvgl/src/widgets/lv_canvas.c ****     LV_ASSERT_OBJ(obj, MY_CLASS);
 410              		.loc 1 102 1 is_stmt 0 view .LVU107
 411 0000 70B5     		push	{r4, r5, r6, lr}
 412              	.LCFI9:
 413              		.cfi_def_cfa_offset 16
 414              		.cfi_offset 4, -16
 415              		.cfi_offset 5, -12
 416              		.cfi_offset 6, -8
 417              		.cfi_offset 14, -4
 418 0002 0446     		mov	r4, r0
 419 0004 0D46     		mov	r5, r1
 420 0006 1646     		mov	r6, r2
 103:lvgl/lvgl/src/widgets/lv_canvas.c **** 
 421              		.loc 1 103 5 is_stmt 1 view .LVU108
 103:lvgl/lvgl/src/widgets/lv_canvas.c **** 
 422              		.loc 1 103 5 view .LVU109
 103:lvgl/lvgl/src/widgets/lv_canvas.c **** 
 423              		.loc 1 103 5 view .LVU110
 105:lvgl/lvgl/src/widgets/lv_canvas.c ****     lv_color_t color = lv_obj_get_style_img_recolor(obj, LV_PART_MAIN);
 424              		.loc 1 105 5 view .LVU111
 425              	.LVL39:
 106:lvgl/lvgl/src/widgets/lv_canvas.c **** 
 426              		.loc 1 106 5 view .LVU112
 427              	.LBB61:
 428              	.LBI61:
 429              		.file 2 "lvgl/lvgl/src/widgets/../core/lv_obj_style_gen.h"
   1:lvgl/lvgl/src/widgets/../core/lv_obj_style_gen.h **** static inline lv_coord_t lv_obj_get_style_width(const struct _lv_obj_t * obj, uint32_t part)
   2:lvgl/lvgl/src/widgets/../core/lv_obj_style_gen.h **** {
   3:lvgl/lvgl/src/widgets/../core/lv_obj_style_gen.h ****     lv_style_value_t v = lv_obj_get_style_prop(obj, part, LV_STYLE_WIDTH);
   4:lvgl/lvgl/src/widgets/../core/lv_obj_style_gen.h ****     return (lv_coord_t)v.num;
   5:lvgl/lvgl/src/widgets/../core/lv_obj_style_gen.h **** }
   6:lvgl/lvgl/src/widgets/../core/lv_obj_style_gen.h **** 
   7:lvgl/lvgl/src/widgets/../core/lv_obj_style_gen.h **** static inline lv_coord_t lv_obj_get_style_min_width(const struct _lv_obj_t * obj, uint32_t part)
   8:lvgl/lvgl/src/widgets/../core/lv_obj_style_gen.h **** {
   9:lvgl/lvgl/src/widgets/../core/lv_obj_style_gen.h ****     lv_style_value_t v = lv_obj_get_style_prop(obj, part, LV_STYLE_MIN_WIDTH);
  10:lvgl/lvgl/src/widgets/../core/lv_obj_style_gen.h ****     return (lv_coord_t)v.num;
  11:lvgl/lvgl/src/widgets/../core/lv_obj_style_gen.h **** }
  12:lvgl/lvgl/src/widgets/../core/lv_obj_style_gen.h **** 
  13:lvgl/lvgl/src/widgets/../core/lv_obj_style_gen.h **** static inline lv_coord_t lv_obj_get_style_max_width(const struct _lv_obj_t * obj, uint32_t part)
  14:lvgl/lvgl/src/widgets/../core/lv_obj_style_gen.h **** {
  15:lvgl/lvgl/src/widgets/../core/lv_obj_style_gen.h ****     lv_style_value_t v = lv_obj_get_style_prop(obj, part, LV_STYLE_MAX_WIDTH);
  16:lvgl/lvgl/src/widgets/../core/lv_obj_style_gen.h ****     return (lv_coord_t)v.num;
  17:lvgl/lvgl/src/widgets/../core/lv_obj_style_gen.h **** }
  18:lvgl/lvgl/src/widgets/../core/lv_obj_style_gen.h **** 
  19:lvgl/lvgl/src/widgets/../core/lv_obj_style_gen.h **** static inline lv_coord_t lv_obj_get_style_height(const struct _lv_obj_t * obj, uint32_t part)
  20:lvgl/lvgl/src/widgets/../core/lv_obj_style_gen.h **** {
  21:lvgl/lvgl/src/widgets/../core/lv_obj_style_gen.h ****     lv_style_value_t v = lv_obj_get_style_prop(obj, part, LV_STYLE_HEIGHT);
  22:lvgl/lvgl/src/widgets/../core/lv_obj_style_gen.h ****     return (lv_coord_t)v.num;
  23:lvgl/lvgl/src/widgets/../core/lv_obj_style_gen.h **** }
  24:lvgl/lvgl/src/widgets/../core/lv_obj_style_gen.h **** 
  25:lvgl/lvgl/src/widgets/../core/lv_obj_style_gen.h **** static inline lv_coord_t lv_obj_get_style_min_height(const struct _lv_obj_t * obj, uint32_t part)
  26:lvgl/lvgl/src/widgets/../core/lv_obj_style_gen.h **** {
  27:lvgl/lvgl/src/widgets/../core/lv_obj_style_gen.h ****     lv_style_value_t v = lv_obj_get_style_prop(obj, part, LV_STYLE_MIN_HEIGHT);
  28:lvgl/lvgl/src/widgets/../core/lv_obj_style_gen.h ****     return (lv_coord_t)v.num;
ARM GAS  C:\Users\gx\AppData\Local\Temp\ccJLdkpG.s 			page 27


  29:lvgl/lvgl/src/widgets/../core/lv_obj_style_gen.h **** }
  30:lvgl/lvgl/src/widgets/../core/lv_obj_style_gen.h **** 
  31:lvgl/lvgl/src/widgets/../core/lv_obj_style_gen.h **** static inline lv_coord_t lv_obj_get_style_max_height(const struct _lv_obj_t * obj, uint32_t part)
  32:lvgl/lvgl/src/widgets/../core/lv_obj_style_gen.h **** {
  33:lvgl/lvgl/src/widgets/../core/lv_obj_style_gen.h ****     lv_style_value_t v = lv_obj_get_style_prop(obj, part, LV_STYLE_MAX_HEIGHT);
  34:lvgl/lvgl/src/widgets/../core/lv_obj_style_gen.h ****     return (lv_coord_t)v.num;
  35:lvgl/lvgl/src/widgets/../core/lv_obj_style_gen.h **** }
  36:lvgl/lvgl/src/widgets/../core/lv_obj_style_gen.h **** 
  37:lvgl/lvgl/src/widgets/../core/lv_obj_style_gen.h **** static inline lv_coord_t lv_obj_get_style_x(const struct _lv_obj_t * obj, uint32_t part)
  38:lvgl/lvgl/src/widgets/../core/lv_obj_style_gen.h **** {
  39:lvgl/lvgl/src/widgets/../core/lv_obj_style_gen.h ****     lv_style_value_t v = lv_obj_get_style_prop(obj, part, LV_STYLE_X);
  40:lvgl/lvgl/src/widgets/../core/lv_obj_style_gen.h ****     return (lv_coord_t)v.num;
  41:lvgl/lvgl/src/widgets/../core/lv_obj_style_gen.h **** }
  42:lvgl/lvgl/src/widgets/../core/lv_obj_style_gen.h **** 
  43:lvgl/lvgl/src/widgets/../core/lv_obj_style_gen.h **** static inline lv_coord_t lv_obj_get_style_y(const struct _lv_obj_t * obj, uint32_t part)
  44:lvgl/lvgl/src/widgets/../core/lv_obj_style_gen.h **** {
  45:lvgl/lvgl/src/widgets/../core/lv_obj_style_gen.h ****     lv_style_value_t v = lv_obj_get_style_prop(obj, part, LV_STYLE_Y);
  46:lvgl/lvgl/src/widgets/../core/lv_obj_style_gen.h ****     return (lv_coord_t)v.num;
  47:lvgl/lvgl/src/widgets/../core/lv_obj_style_gen.h **** }
  48:lvgl/lvgl/src/widgets/../core/lv_obj_style_gen.h **** 
  49:lvgl/lvgl/src/widgets/../core/lv_obj_style_gen.h **** static inline lv_align_t lv_obj_get_style_align(const struct _lv_obj_t * obj, uint32_t part)
  50:lvgl/lvgl/src/widgets/../core/lv_obj_style_gen.h **** {
  51:lvgl/lvgl/src/widgets/../core/lv_obj_style_gen.h ****     lv_style_value_t v = lv_obj_get_style_prop(obj, part, LV_STYLE_ALIGN);
  52:lvgl/lvgl/src/widgets/../core/lv_obj_style_gen.h ****     return (lv_align_t)v.num;
  53:lvgl/lvgl/src/widgets/../core/lv_obj_style_gen.h **** }
  54:lvgl/lvgl/src/widgets/../core/lv_obj_style_gen.h **** 
  55:lvgl/lvgl/src/widgets/../core/lv_obj_style_gen.h **** static inline lv_coord_t lv_obj_get_style_transform_width(const struct _lv_obj_t * obj, uint32_t pa
  56:lvgl/lvgl/src/widgets/../core/lv_obj_style_gen.h **** {
  57:lvgl/lvgl/src/widgets/../core/lv_obj_style_gen.h ****     lv_style_value_t v = lv_obj_get_style_prop(obj, part, LV_STYLE_TRANSFORM_WIDTH);
  58:lvgl/lvgl/src/widgets/../core/lv_obj_style_gen.h ****     return (lv_coord_t)v.num;
  59:lvgl/lvgl/src/widgets/../core/lv_obj_style_gen.h **** }
  60:lvgl/lvgl/src/widgets/../core/lv_obj_style_gen.h **** 
  61:lvgl/lvgl/src/widgets/../core/lv_obj_style_gen.h **** static inline lv_coord_t lv_obj_get_style_transform_height(const struct _lv_obj_t * obj, uint32_t p
  62:lvgl/lvgl/src/widgets/../core/lv_obj_style_gen.h **** {
  63:lvgl/lvgl/src/widgets/../core/lv_obj_style_gen.h ****     lv_style_value_t v = lv_obj_get_style_prop(obj, part, LV_STYLE_TRANSFORM_HEIGHT);
  64:lvgl/lvgl/src/widgets/../core/lv_obj_style_gen.h ****     return (lv_coord_t)v.num;
  65:lvgl/lvgl/src/widgets/../core/lv_obj_style_gen.h **** }
  66:lvgl/lvgl/src/widgets/../core/lv_obj_style_gen.h **** 
  67:lvgl/lvgl/src/widgets/../core/lv_obj_style_gen.h **** static inline lv_coord_t lv_obj_get_style_translate_x(const struct _lv_obj_t * obj, uint32_t part)
  68:lvgl/lvgl/src/widgets/../core/lv_obj_style_gen.h **** {
  69:lvgl/lvgl/src/widgets/../core/lv_obj_style_gen.h ****     lv_style_value_t v = lv_obj_get_style_prop(obj, part, LV_STYLE_TRANSLATE_X);
  70:lvgl/lvgl/src/widgets/../core/lv_obj_style_gen.h ****     return (lv_coord_t)v.num;
  71:lvgl/lvgl/src/widgets/../core/lv_obj_style_gen.h **** }
  72:lvgl/lvgl/src/widgets/../core/lv_obj_style_gen.h **** 
  73:lvgl/lvgl/src/widgets/../core/lv_obj_style_gen.h **** static inline lv_coord_t lv_obj_get_style_translate_y(const struct _lv_obj_t * obj, uint32_t part)
  74:lvgl/lvgl/src/widgets/../core/lv_obj_style_gen.h **** {
  75:lvgl/lvgl/src/widgets/../core/lv_obj_style_gen.h ****     lv_style_value_t v = lv_obj_get_style_prop(obj, part, LV_STYLE_TRANSLATE_Y);
  76:lvgl/lvgl/src/widgets/../core/lv_obj_style_gen.h ****     return (lv_coord_t)v.num;
  77:lvgl/lvgl/src/widgets/../core/lv_obj_style_gen.h **** }
  78:lvgl/lvgl/src/widgets/../core/lv_obj_style_gen.h **** 
  79:lvgl/lvgl/src/widgets/../core/lv_obj_style_gen.h **** static inline lv_coord_t lv_obj_get_style_transform_zoom(const struct _lv_obj_t * obj, uint32_t par
  80:lvgl/lvgl/src/widgets/../core/lv_obj_style_gen.h **** {
  81:lvgl/lvgl/src/widgets/../core/lv_obj_style_gen.h ****     lv_style_value_t v = lv_obj_get_style_prop(obj, part, LV_STYLE_TRANSFORM_ZOOM);
  82:lvgl/lvgl/src/widgets/../core/lv_obj_style_gen.h ****     return (lv_coord_t)v.num;
  83:lvgl/lvgl/src/widgets/../core/lv_obj_style_gen.h **** }
  84:lvgl/lvgl/src/widgets/../core/lv_obj_style_gen.h **** 
  85:lvgl/lvgl/src/widgets/../core/lv_obj_style_gen.h **** static inline lv_coord_t lv_obj_get_style_transform_angle(const struct _lv_obj_t * obj, uint32_t pa
ARM GAS  C:\Users\gx\AppData\Local\Temp\ccJLdkpG.s 			page 28


  86:lvgl/lvgl/src/widgets/../core/lv_obj_style_gen.h **** {
  87:lvgl/lvgl/src/widgets/../core/lv_obj_style_gen.h ****     lv_style_value_t v = lv_obj_get_style_prop(obj, part, LV_STYLE_TRANSFORM_ANGLE);
  88:lvgl/lvgl/src/widgets/../core/lv_obj_style_gen.h ****     return (lv_coord_t)v.num;
  89:lvgl/lvgl/src/widgets/../core/lv_obj_style_gen.h **** }
  90:lvgl/lvgl/src/widgets/../core/lv_obj_style_gen.h **** 
  91:lvgl/lvgl/src/widgets/../core/lv_obj_style_gen.h **** static inline lv_coord_t lv_obj_get_style_pad_top(const struct _lv_obj_t * obj, uint32_t part)
  92:lvgl/lvgl/src/widgets/../core/lv_obj_style_gen.h **** {
  93:lvgl/lvgl/src/widgets/../core/lv_obj_style_gen.h ****     lv_style_value_t v = lv_obj_get_style_prop(obj, part, LV_STYLE_PAD_TOP);
  94:lvgl/lvgl/src/widgets/../core/lv_obj_style_gen.h ****     return (lv_coord_t)v.num;
  95:lvgl/lvgl/src/widgets/../core/lv_obj_style_gen.h **** }
  96:lvgl/lvgl/src/widgets/../core/lv_obj_style_gen.h **** 
  97:lvgl/lvgl/src/widgets/../core/lv_obj_style_gen.h **** static inline lv_coord_t lv_obj_get_style_pad_bottom(const struct _lv_obj_t * obj, uint32_t part)
  98:lvgl/lvgl/src/widgets/../core/lv_obj_style_gen.h **** {
  99:lvgl/lvgl/src/widgets/../core/lv_obj_style_gen.h ****     lv_style_value_t v = lv_obj_get_style_prop(obj, part, LV_STYLE_PAD_BOTTOM);
 100:lvgl/lvgl/src/widgets/../core/lv_obj_style_gen.h ****     return (lv_coord_t)v.num;
 101:lvgl/lvgl/src/widgets/../core/lv_obj_style_gen.h **** }
 102:lvgl/lvgl/src/widgets/../core/lv_obj_style_gen.h **** 
 103:lvgl/lvgl/src/widgets/../core/lv_obj_style_gen.h **** static inline lv_coord_t lv_obj_get_style_pad_left(const struct _lv_obj_t * obj, uint32_t part)
 104:lvgl/lvgl/src/widgets/../core/lv_obj_style_gen.h **** {
 105:lvgl/lvgl/src/widgets/../core/lv_obj_style_gen.h ****     lv_style_value_t v = lv_obj_get_style_prop(obj, part, LV_STYLE_PAD_LEFT);
 106:lvgl/lvgl/src/widgets/../core/lv_obj_style_gen.h ****     return (lv_coord_t)v.num;
 107:lvgl/lvgl/src/widgets/../core/lv_obj_style_gen.h **** }
 108:lvgl/lvgl/src/widgets/../core/lv_obj_style_gen.h **** 
 109:lvgl/lvgl/src/widgets/../core/lv_obj_style_gen.h **** static inline lv_coord_t lv_obj_get_style_pad_right(const struct _lv_obj_t * obj, uint32_t part)
 110:lvgl/lvgl/src/widgets/../core/lv_obj_style_gen.h **** {
 111:lvgl/lvgl/src/widgets/../core/lv_obj_style_gen.h ****     lv_style_value_t v = lv_obj_get_style_prop(obj, part, LV_STYLE_PAD_RIGHT);
 112:lvgl/lvgl/src/widgets/../core/lv_obj_style_gen.h ****     return (lv_coord_t)v.num;
 113:lvgl/lvgl/src/widgets/../core/lv_obj_style_gen.h **** }
 114:lvgl/lvgl/src/widgets/../core/lv_obj_style_gen.h **** 
 115:lvgl/lvgl/src/widgets/../core/lv_obj_style_gen.h **** static inline lv_coord_t lv_obj_get_style_pad_row(const struct _lv_obj_t * obj, uint32_t part)
 116:lvgl/lvgl/src/widgets/../core/lv_obj_style_gen.h **** {
 117:lvgl/lvgl/src/widgets/../core/lv_obj_style_gen.h ****     lv_style_value_t v = lv_obj_get_style_prop(obj, part, LV_STYLE_PAD_ROW);
 118:lvgl/lvgl/src/widgets/../core/lv_obj_style_gen.h ****     return (lv_coord_t)v.num;
 119:lvgl/lvgl/src/widgets/../core/lv_obj_style_gen.h **** }
 120:lvgl/lvgl/src/widgets/../core/lv_obj_style_gen.h **** 
 121:lvgl/lvgl/src/widgets/../core/lv_obj_style_gen.h **** static inline lv_coord_t lv_obj_get_style_pad_column(const struct _lv_obj_t * obj, uint32_t part)
 122:lvgl/lvgl/src/widgets/../core/lv_obj_style_gen.h **** {
 123:lvgl/lvgl/src/widgets/../core/lv_obj_style_gen.h ****     lv_style_value_t v = lv_obj_get_style_prop(obj, part, LV_STYLE_PAD_COLUMN);
 124:lvgl/lvgl/src/widgets/../core/lv_obj_style_gen.h ****     return (lv_coord_t)v.num;
 125:lvgl/lvgl/src/widgets/../core/lv_obj_style_gen.h **** }
 126:lvgl/lvgl/src/widgets/../core/lv_obj_style_gen.h **** 
 127:lvgl/lvgl/src/widgets/../core/lv_obj_style_gen.h **** static inline lv_coord_t lv_obj_get_style_radius(const struct _lv_obj_t * obj, uint32_t part)
 128:lvgl/lvgl/src/widgets/../core/lv_obj_style_gen.h **** {
 129:lvgl/lvgl/src/widgets/../core/lv_obj_style_gen.h ****     lv_style_value_t v = lv_obj_get_style_prop(obj, part, LV_STYLE_RADIUS);
 130:lvgl/lvgl/src/widgets/../core/lv_obj_style_gen.h ****     return (lv_coord_t)v.num;
 131:lvgl/lvgl/src/widgets/../core/lv_obj_style_gen.h **** }
 132:lvgl/lvgl/src/widgets/../core/lv_obj_style_gen.h **** 
 133:lvgl/lvgl/src/widgets/../core/lv_obj_style_gen.h **** static inline bool lv_obj_get_style_clip_corner(const struct _lv_obj_t * obj, uint32_t part)
 134:lvgl/lvgl/src/widgets/../core/lv_obj_style_gen.h **** {
 135:lvgl/lvgl/src/widgets/../core/lv_obj_style_gen.h ****     lv_style_value_t v = lv_obj_get_style_prop(obj, part, LV_STYLE_CLIP_CORNER);
 136:lvgl/lvgl/src/widgets/../core/lv_obj_style_gen.h ****     return (bool)v.num;
 137:lvgl/lvgl/src/widgets/../core/lv_obj_style_gen.h **** }
 138:lvgl/lvgl/src/widgets/../core/lv_obj_style_gen.h **** 
 139:lvgl/lvgl/src/widgets/../core/lv_obj_style_gen.h **** static inline lv_opa_t lv_obj_get_style_opa(const struct _lv_obj_t * obj, uint32_t part)
 140:lvgl/lvgl/src/widgets/../core/lv_obj_style_gen.h **** {
 141:lvgl/lvgl/src/widgets/../core/lv_obj_style_gen.h ****     lv_style_value_t v = lv_obj_get_style_prop(obj, part, LV_STYLE_OPA);
 142:lvgl/lvgl/src/widgets/../core/lv_obj_style_gen.h ****     return (lv_opa_t)v.num;
ARM GAS  C:\Users\gx\AppData\Local\Temp\ccJLdkpG.s 			page 29


 143:lvgl/lvgl/src/widgets/../core/lv_obj_style_gen.h **** }
 144:lvgl/lvgl/src/widgets/../core/lv_obj_style_gen.h **** 
 145:lvgl/lvgl/src/widgets/../core/lv_obj_style_gen.h **** static inline const lv_color_filter_dsc_t * lv_obj_get_style_color_filter_dsc(const struct _lv_obj_
 146:lvgl/lvgl/src/widgets/../core/lv_obj_style_gen.h **** {
 147:lvgl/lvgl/src/widgets/../core/lv_obj_style_gen.h ****     lv_style_value_t v = lv_obj_get_style_prop(obj, part, LV_STYLE_COLOR_FILTER_DSC);
 148:lvgl/lvgl/src/widgets/../core/lv_obj_style_gen.h ****     return (const lv_color_filter_dsc_t *)v.ptr;
 149:lvgl/lvgl/src/widgets/../core/lv_obj_style_gen.h **** }
 150:lvgl/lvgl/src/widgets/../core/lv_obj_style_gen.h **** 
 151:lvgl/lvgl/src/widgets/../core/lv_obj_style_gen.h **** static inline lv_opa_t lv_obj_get_style_color_filter_opa(const struct _lv_obj_t * obj, uint32_t par
 152:lvgl/lvgl/src/widgets/../core/lv_obj_style_gen.h **** {
 153:lvgl/lvgl/src/widgets/../core/lv_obj_style_gen.h ****     lv_style_value_t v = lv_obj_get_style_prop(obj, part, LV_STYLE_COLOR_FILTER_OPA);
 154:lvgl/lvgl/src/widgets/../core/lv_obj_style_gen.h ****     return (lv_opa_t)v.num;
 155:lvgl/lvgl/src/widgets/../core/lv_obj_style_gen.h **** }
 156:lvgl/lvgl/src/widgets/../core/lv_obj_style_gen.h **** 
 157:lvgl/lvgl/src/widgets/../core/lv_obj_style_gen.h **** static inline uint32_t lv_obj_get_style_anim_time(const struct _lv_obj_t * obj, uint32_t part)
 158:lvgl/lvgl/src/widgets/../core/lv_obj_style_gen.h **** {
 159:lvgl/lvgl/src/widgets/../core/lv_obj_style_gen.h ****     lv_style_value_t v = lv_obj_get_style_prop(obj, part, LV_STYLE_ANIM_TIME);
 160:lvgl/lvgl/src/widgets/../core/lv_obj_style_gen.h ****     return (uint32_t)v.num;
 161:lvgl/lvgl/src/widgets/../core/lv_obj_style_gen.h **** }
 162:lvgl/lvgl/src/widgets/../core/lv_obj_style_gen.h **** 
 163:lvgl/lvgl/src/widgets/../core/lv_obj_style_gen.h **** static inline uint32_t lv_obj_get_style_anim_speed(const struct _lv_obj_t * obj, uint32_t part)
 164:lvgl/lvgl/src/widgets/../core/lv_obj_style_gen.h **** {
 165:lvgl/lvgl/src/widgets/../core/lv_obj_style_gen.h ****     lv_style_value_t v = lv_obj_get_style_prop(obj, part, LV_STYLE_ANIM_SPEED);
 166:lvgl/lvgl/src/widgets/../core/lv_obj_style_gen.h ****     return (uint32_t)v.num;
 167:lvgl/lvgl/src/widgets/../core/lv_obj_style_gen.h **** }
 168:lvgl/lvgl/src/widgets/../core/lv_obj_style_gen.h **** 
 169:lvgl/lvgl/src/widgets/../core/lv_obj_style_gen.h **** static inline const lv_style_transition_dsc_t * lv_obj_get_style_transition(const struct _lv_obj_t 
 170:lvgl/lvgl/src/widgets/../core/lv_obj_style_gen.h **** {
 171:lvgl/lvgl/src/widgets/../core/lv_obj_style_gen.h ****     lv_style_value_t v = lv_obj_get_style_prop(obj, part, LV_STYLE_TRANSITION);
 172:lvgl/lvgl/src/widgets/../core/lv_obj_style_gen.h ****     return (const lv_style_transition_dsc_t *)v.ptr;
 173:lvgl/lvgl/src/widgets/../core/lv_obj_style_gen.h **** }
 174:lvgl/lvgl/src/widgets/../core/lv_obj_style_gen.h **** 
 175:lvgl/lvgl/src/widgets/../core/lv_obj_style_gen.h **** static inline lv_blend_mode_t lv_obj_get_style_blend_mode(const struct _lv_obj_t * obj, uint32_t pa
 176:lvgl/lvgl/src/widgets/../core/lv_obj_style_gen.h **** {
 177:lvgl/lvgl/src/widgets/../core/lv_obj_style_gen.h ****     lv_style_value_t v = lv_obj_get_style_prop(obj, part, LV_STYLE_BLEND_MODE);
 178:lvgl/lvgl/src/widgets/../core/lv_obj_style_gen.h ****     return (lv_blend_mode_t)v.num;
 179:lvgl/lvgl/src/widgets/../core/lv_obj_style_gen.h **** }
 180:lvgl/lvgl/src/widgets/../core/lv_obj_style_gen.h **** 
 181:lvgl/lvgl/src/widgets/../core/lv_obj_style_gen.h **** static inline uint16_t lv_obj_get_style_layout(const struct _lv_obj_t * obj, uint32_t part)
 182:lvgl/lvgl/src/widgets/../core/lv_obj_style_gen.h **** {
 183:lvgl/lvgl/src/widgets/../core/lv_obj_style_gen.h ****     lv_style_value_t v = lv_obj_get_style_prop(obj, part, LV_STYLE_LAYOUT);
 184:lvgl/lvgl/src/widgets/../core/lv_obj_style_gen.h ****     return (uint16_t)v.num;
 185:lvgl/lvgl/src/widgets/../core/lv_obj_style_gen.h **** }
 186:lvgl/lvgl/src/widgets/../core/lv_obj_style_gen.h **** 
 187:lvgl/lvgl/src/widgets/../core/lv_obj_style_gen.h **** static inline lv_base_dir_t lv_obj_get_style_base_dir(const struct _lv_obj_t * obj, uint32_t part)
 188:lvgl/lvgl/src/widgets/../core/lv_obj_style_gen.h **** {
 189:lvgl/lvgl/src/widgets/../core/lv_obj_style_gen.h ****     lv_style_value_t v = lv_obj_get_style_prop(obj, part, LV_STYLE_BASE_DIR);
 190:lvgl/lvgl/src/widgets/../core/lv_obj_style_gen.h ****     return (lv_base_dir_t)v.num;
 191:lvgl/lvgl/src/widgets/../core/lv_obj_style_gen.h **** }
 192:lvgl/lvgl/src/widgets/../core/lv_obj_style_gen.h **** 
 193:lvgl/lvgl/src/widgets/../core/lv_obj_style_gen.h **** static inline lv_color_t lv_obj_get_style_bg_color(const struct _lv_obj_t * obj, uint32_t part)
 194:lvgl/lvgl/src/widgets/../core/lv_obj_style_gen.h **** {
 195:lvgl/lvgl/src/widgets/../core/lv_obj_style_gen.h ****     lv_style_value_t v = lv_obj_get_style_prop(obj, part, LV_STYLE_BG_COLOR);
 196:lvgl/lvgl/src/widgets/../core/lv_obj_style_gen.h ****     return v.color;
 197:lvgl/lvgl/src/widgets/../core/lv_obj_style_gen.h **** }
 198:lvgl/lvgl/src/widgets/../core/lv_obj_style_gen.h **** 
 199:lvgl/lvgl/src/widgets/../core/lv_obj_style_gen.h **** static inline lv_color_t lv_obj_get_style_bg_color_filtered(const struct _lv_obj_t * obj, uint32_t 
ARM GAS  C:\Users\gx\AppData\Local\Temp\ccJLdkpG.s 			page 30


 200:lvgl/lvgl/src/widgets/../core/lv_obj_style_gen.h **** {
 201:lvgl/lvgl/src/widgets/../core/lv_obj_style_gen.h ****     lv_style_value_t v = lv_obj_get_style_prop(obj, part, LV_STYLE_BG_COLOR_FILTERED);
 202:lvgl/lvgl/src/widgets/../core/lv_obj_style_gen.h ****     return v.color;
 203:lvgl/lvgl/src/widgets/../core/lv_obj_style_gen.h **** }
 204:lvgl/lvgl/src/widgets/../core/lv_obj_style_gen.h **** 
 205:lvgl/lvgl/src/widgets/../core/lv_obj_style_gen.h **** static inline lv_opa_t lv_obj_get_style_bg_opa(const struct _lv_obj_t * obj, uint32_t part)
 206:lvgl/lvgl/src/widgets/../core/lv_obj_style_gen.h **** {
 207:lvgl/lvgl/src/widgets/../core/lv_obj_style_gen.h ****     lv_style_value_t v = lv_obj_get_style_prop(obj, part, LV_STYLE_BG_OPA);
 208:lvgl/lvgl/src/widgets/../core/lv_obj_style_gen.h ****     return (lv_opa_t)v.num;
 209:lvgl/lvgl/src/widgets/../core/lv_obj_style_gen.h **** }
 210:lvgl/lvgl/src/widgets/../core/lv_obj_style_gen.h **** 
 211:lvgl/lvgl/src/widgets/../core/lv_obj_style_gen.h **** static inline lv_color_t lv_obj_get_style_bg_grad_color(const struct _lv_obj_t * obj, uint32_t part
 212:lvgl/lvgl/src/widgets/../core/lv_obj_style_gen.h **** {
 213:lvgl/lvgl/src/widgets/../core/lv_obj_style_gen.h ****     lv_style_value_t v = lv_obj_get_style_prop(obj, part, LV_STYLE_BG_GRAD_COLOR);
 214:lvgl/lvgl/src/widgets/../core/lv_obj_style_gen.h ****     return v.color;
 215:lvgl/lvgl/src/widgets/../core/lv_obj_style_gen.h **** }
 216:lvgl/lvgl/src/widgets/../core/lv_obj_style_gen.h **** 
 217:lvgl/lvgl/src/widgets/../core/lv_obj_style_gen.h **** static inline lv_color_t lv_obj_get_style_bg_grad_color_filtered(const struct _lv_obj_t * obj, uint
 218:lvgl/lvgl/src/widgets/../core/lv_obj_style_gen.h **** {
 219:lvgl/lvgl/src/widgets/../core/lv_obj_style_gen.h ****     lv_style_value_t v = lv_obj_get_style_prop(obj, part, LV_STYLE_BG_GRAD_COLOR_FILTERED);
 220:lvgl/lvgl/src/widgets/../core/lv_obj_style_gen.h ****     return v.color;
 221:lvgl/lvgl/src/widgets/../core/lv_obj_style_gen.h **** }
 222:lvgl/lvgl/src/widgets/../core/lv_obj_style_gen.h **** 
 223:lvgl/lvgl/src/widgets/../core/lv_obj_style_gen.h **** static inline lv_grad_dir_t lv_obj_get_style_bg_grad_dir(const struct _lv_obj_t * obj, uint32_t par
 224:lvgl/lvgl/src/widgets/../core/lv_obj_style_gen.h **** {
 225:lvgl/lvgl/src/widgets/../core/lv_obj_style_gen.h ****     lv_style_value_t v = lv_obj_get_style_prop(obj, part, LV_STYLE_BG_GRAD_DIR);
 226:lvgl/lvgl/src/widgets/../core/lv_obj_style_gen.h ****     return (lv_grad_dir_t)v.num;
 227:lvgl/lvgl/src/widgets/../core/lv_obj_style_gen.h **** }
 228:lvgl/lvgl/src/widgets/../core/lv_obj_style_gen.h **** 
 229:lvgl/lvgl/src/widgets/../core/lv_obj_style_gen.h **** static inline lv_coord_t lv_obj_get_style_bg_main_stop(const struct _lv_obj_t * obj, uint32_t part)
 230:lvgl/lvgl/src/widgets/../core/lv_obj_style_gen.h **** {
 231:lvgl/lvgl/src/widgets/../core/lv_obj_style_gen.h ****     lv_style_value_t v = lv_obj_get_style_prop(obj, part, LV_STYLE_BG_MAIN_STOP);
 232:lvgl/lvgl/src/widgets/../core/lv_obj_style_gen.h ****     return (lv_coord_t)v.num;
 233:lvgl/lvgl/src/widgets/../core/lv_obj_style_gen.h **** }
 234:lvgl/lvgl/src/widgets/../core/lv_obj_style_gen.h **** 
 235:lvgl/lvgl/src/widgets/../core/lv_obj_style_gen.h **** static inline lv_coord_t lv_obj_get_style_bg_grad_stop(const struct _lv_obj_t * obj, uint32_t part)
 236:lvgl/lvgl/src/widgets/../core/lv_obj_style_gen.h **** {
 237:lvgl/lvgl/src/widgets/../core/lv_obj_style_gen.h ****     lv_style_value_t v = lv_obj_get_style_prop(obj, part, LV_STYLE_BG_GRAD_STOP);
 238:lvgl/lvgl/src/widgets/../core/lv_obj_style_gen.h ****     return (lv_coord_t)v.num;
 239:lvgl/lvgl/src/widgets/../core/lv_obj_style_gen.h **** }
 240:lvgl/lvgl/src/widgets/../core/lv_obj_style_gen.h **** 
 241:lvgl/lvgl/src/widgets/../core/lv_obj_style_gen.h **** static inline const void * lv_obj_get_style_bg_img_src(const struct _lv_obj_t * obj, uint32_t part)
 242:lvgl/lvgl/src/widgets/../core/lv_obj_style_gen.h **** {
 243:lvgl/lvgl/src/widgets/../core/lv_obj_style_gen.h ****     lv_style_value_t v = lv_obj_get_style_prop(obj, part, LV_STYLE_BG_IMG_SRC);
 244:lvgl/lvgl/src/widgets/../core/lv_obj_style_gen.h ****     return (const void *)v.ptr;
 245:lvgl/lvgl/src/widgets/../core/lv_obj_style_gen.h **** }
 246:lvgl/lvgl/src/widgets/../core/lv_obj_style_gen.h **** 
 247:lvgl/lvgl/src/widgets/../core/lv_obj_style_gen.h **** static inline lv_opa_t lv_obj_get_style_bg_img_opa(const struct _lv_obj_t * obj, uint32_t part)
 248:lvgl/lvgl/src/widgets/../core/lv_obj_style_gen.h **** {
 249:lvgl/lvgl/src/widgets/../core/lv_obj_style_gen.h ****     lv_style_value_t v = lv_obj_get_style_prop(obj, part, LV_STYLE_BG_IMG_OPA);
 250:lvgl/lvgl/src/widgets/../core/lv_obj_style_gen.h ****     return (lv_opa_t)v.num;
 251:lvgl/lvgl/src/widgets/../core/lv_obj_style_gen.h **** }
 252:lvgl/lvgl/src/widgets/../core/lv_obj_style_gen.h **** 
 253:lvgl/lvgl/src/widgets/../core/lv_obj_style_gen.h **** static inline lv_color_t lv_obj_get_style_bg_img_recolor(const struct _lv_obj_t * obj, uint32_t par
 254:lvgl/lvgl/src/widgets/../core/lv_obj_style_gen.h **** {
 255:lvgl/lvgl/src/widgets/../core/lv_obj_style_gen.h ****     lv_style_value_t v = lv_obj_get_style_prop(obj, part, LV_STYLE_BG_IMG_RECOLOR);
 256:lvgl/lvgl/src/widgets/../core/lv_obj_style_gen.h ****     return v.color;
ARM GAS  C:\Users\gx\AppData\Local\Temp\ccJLdkpG.s 			page 31


 257:lvgl/lvgl/src/widgets/../core/lv_obj_style_gen.h **** }
 258:lvgl/lvgl/src/widgets/../core/lv_obj_style_gen.h **** 
 259:lvgl/lvgl/src/widgets/../core/lv_obj_style_gen.h **** static inline lv_color_t lv_obj_get_style_bg_img_recolor_filtered(const struct _lv_obj_t * obj, uin
 260:lvgl/lvgl/src/widgets/../core/lv_obj_style_gen.h **** {
 261:lvgl/lvgl/src/widgets/../core/lv_obj_style_gen.h ****     lv_style_value_t v = lv_obj_get_style_prop(obj, part, LV_STYLE_BG_IMG_RECOLOR_FILTERED);
 262:lvgl/lvgl/src/widgets/../core/lv_obj_style_gen.h ****     return v.color;
 263:lvgl/lvgl/src/widgets/../core/lv_obj_style_gen.h **** }
 264:lvgl/lvgl/src/widgets/../core/lv_obj_style_gen.h **** 
 265:lvgl/lvgl/src/widgets/../core/lv_obj_style_gen.h **** static inline lv_opa_t lv_obj_get_style_bg_img_recolor_opa(const struct _lv_obj_t * obj, uint32_t p
 266:lvgl/lvgl/src/widgets/../core/lv_obj_style_gen.h **** {
 267:lvgl/lvgl/src/widgets/../core/lv_obj_style_gen.h ****     lv_style_value_t v = lv_obj_get_style_prop(obj, part, LV_STYLE_BG_IMG_RECOLOR_OPA);
 268:lvgl/lvgl/src/widgets/../core/lv_obj_style_gen.h ****     return (lv_opa_t)v.num;
 269:lvgl/lvgl/src/widgets/../core/lv_obj_style_gen.h **** }
 270:lvgl/lvgl/src/widgets/../core/lv_obj_style_gen.h **** 
 271:lvgl/lvgl/src/widgets/../core/lv_obj_style_gen.h **** static inline bool lv_obj_get_style_bg_img_tiled(const struct _lv_obj_t * obj, uint32_t part)
 272:lvgl/lvgl/src/widgets/../core/lv_obj_style_gen.h **** {
 273:lvgl/lvgl/src/widgets/../core/lv_obj_style_gen.h ****     lv_style_value_t v = lv_obj_get_style_prop(obj, part, LV_STYLE_BG_IMG_TILED);
 274:lvgl/lvgl/src/widgets/../core/lv_obj_style_gen.h ****     return (bool)v.num;
 275:lvgl/lvgl/src/widgets/../core/lv_obj_style_gen.h **** }
 276:lvgl/lvgl/src/widgets/../core/lv_obj_style_gen.h **** 
 277:lvgl/lvgl/src/widgets/../core/lv_obj_style_gen.h **** static inline lv_color_t lv_obj_get_style_border_color(const struct _lv_obj_t * obj, uint32_t part)
 278:lvgl/lvgl/src/widgets/../core/lv_obj_style_gen.h **** {
 279:lvgl/lvgl/src/widgets/../core/lv_obj_style_gen.h ****     lv_style_value_t v = lv_obj_get_style_prop(obj, part, LV_STYLE_BORDER_COLOR);
 280:lvgl/lvgl/src/widgets/../core/lv_obj_style_gen.h ****     return v.color;
 281:lvgl/lvgl/src/widgets/../core/lv_obj_style_gen.h **** }
 282:lvgl/lvgl/src/widgets/../core/lv_obj_style_gen.h **** 
 283:lvgl/lvgl/src/widgets/../core/lv_obj_style_gen.h **** static inline lv_color_t lv_obj_get_style_border_color_filtered(const struct _lv_obj_t * obj, uint3
 284:lvgl/lvgl/src/widgets/../core/lv_obj_style_gen.h **** {
 285:lvgl/lvgl/src/widgets/../core/lv_obj_style_gen.h ****     lv_style_value_t v = lv_obj_get_style_prop(obj, part, LV_STYLE_BORDER_COLOR_FILTERED);
 286:lvgl/lvgl/src/widgets/../core/lv_obj_style_gen.h ****     return v.color;
 287:lvgl/lvgl/src/widgets/../core/lv_obj_style_gen.h **** }
 288:lvgl/lvgl/src/widgets/../core/lv_obj_style_gen.h **** 
 289:lvgl/lvgl/src/widgets/../core/lv_obj_style_gen.h **** static inline lv_opa_t lv_obj_get_style_border_opa(const struct _lv_obj_t * obj, uint32_t part)
 290:lvgl/lvgl/src/widgets/../core/lv_obj_style_gen.h **** {
 291:lvgl/lvgl/src/widgets/../core/lv_obj_style_gen.h ****     lv_style_value_t v = lv_obj_get_style_prop(obj, part, LV_STYLE_BORDER_OPA);
 292:lvgl/lvgl/src/widgets/../core/lv_obj_style_gen.h ****     return (lv_opa_t)v.num;
 293:lvgl/lvgl/src/widgets/../core/lv_obj_style_gen.h **** }
 294:lvgl/lvgl/src/widgets/../core/lv_obj_style_gen.h **** 
 295:lvgl/lvgl/src/widgets/../core/lv_obj_style_gen.h **** static inline lv_coord_t lv_obj_get_style_border_width(const struct _lv_obj_t * obj, uint32_t part)
 296:lvgl/lvgl/src/widgets/../core/lv_obj_style_gen.h **** {
 297:lvgl/lvgl/src/widgets/../core/lv_obj_style_gen.h ****     lv_style_value_t v = lv_obj_get_style_prop(obj, part, LV_STYLE_BORDER_WIDTH);
 298:lvgl/lvgl/src/widgets/../core/lv_obj_style_gen.h ****     return (lv_coord_t)v.num;
 299:lvgl/lvgl/src/widgets/../core/lv_obj_style_gen.h **** }
 300:lvgl/lvgl/src/widgets/../core/lv_obj_style_gen.h **** 
 301:lvgl/lvgl/src/widgets/../core/lv_obj_style_gen.h **** static inline lv_border_side_t lv_obj_get_style_border_side(const struct _lv_obj_t * obj, uint32_t 
 302:lvgl/lvgl/src/widgets/../core/lv_obj_style_gen.h **** {
 303:lvgl/lvgl/src/widgets/../core/lv_obj_style_gen.h ****     lv_style_value_t v = lv_obj_get_style_prop(obj, part, LV_STYLE_BORDER_SIDE);
 304:lvgl/lvgl/src/widgets/../core/lv_obj_style_gen.h ****     return (lv_border_side_t)v.num;
 305:lvgl/lvgl/src/widgets/../core/lv_obj_style_gen.h **** }
 306:lvgl/lvgl/src/widgets/../core/lv_obj_style_gen.h **** 
 307:lvgl/lvgl/src/widgets/../core/lv_obj_style_gen.h **** static inline bool lv_obj_get_style_border_post(const struct _lv_obj_t * obj, uint32_t part)
 308:lvgl/lvgl/src/widgets/../core/lv_obj_style_gen.h **** {
 309:lvgl/lvgl/src/widgets/../core/lv_obj_style_gen.h ****     lv_style_value_t v = lv_obj_get_style_prop(obj, part, LV_STYLE_BORDER_POST);
 310:lvgl/lvgl/src/widgets/../core/lv_obj_style_gen.h ****     return (bool)v.num;
 311:lvgl/lvgl/src/widgets/../core/lv_obj_style_gen.h **** }
 312:lvgl/lvgl/src/widgets/../core/lv_obj_style_gen.h **** 
 313:lvgl/lvgl/src/widgets/../core/lv_obj_style_gen.h **** static inline lv_color_t lv_obj_get_style_text_color(const struct _lv_obj_t * obj, uint32_t part)
ARM GAS  C:\Users\gx\AppData\Local\Temp\ccJLdkpG.s 			page 32


 314:lvgl/lvgl/src/widgets/../core/lv_obj_style_gen.h **** {
 315:lvgl/lvgl/src/widgets/../core/lv_obj_style_gen.h ****     lv_style_value_t v = lv_obj_get_style_prop(obj, part, LV_STYLE_TEXT_COLOR);
 316:lvgl/lvgl/src/widgets/../core/lv_obj_style_gen.h ****     return v.color;
 317:lvgl/lvgl/src/widgets/../core/lv_obj_style_gen.h **** }
 318:lvgl/lvgl/src/widgets/../core/lv_obj_style_gen.h **** 
 319:lvgl/lvgl/src/widgets/../core/lv_obj_style_gen.h **** static inline lv_color_t lv_obj_get_style_text_color_filtered(const struct _lv_obj_t * obj, uint32_
 320:lvgl/lvgl/src/widgets/../core/lv_obj_style_gen.h **** {
 321:lvgl/lvgl/src/widgets/../core/lv_obj_style_gen.h ****     lv_style_value_t v = lv_obj_get_style_prop(obj, part, LV_STYLE_TEXT_COLOR_FILTERED);
 322:lvgl/lvgl/src/widgets/../core/lv_obj_style_gen.h ****     return v.color;
 323:lvgl/lvgl/src/widgets/../core/lv_obj_style_gen.h **** }
 324:lvgl/lvgl/src/widgets/../core/lv_obj_style_gen.h **** 
 325:lvgl/lvgl/src/widgets/../core/lv_obj_style_gen.h **** static inline lv_opa_t lv_obj_get_style_text_opa(const struct _lv_obj_t * obj, uint32_t part)
 326:lvgl/lvgl/src/widgets/../core/lv_obj_style_gen.h **** {
 327:lvgl/lvgl/src/widgets/../core/lv_obj_style_gen.h ****     lv_style_value_t v = lv_obj_get_style_prop(obj, part, LV_STYLE_TEXT_OPA);
 328:lvgl/lvgl/src/widgets/../core/lv_obj_style_gen.h ****     return (lv_opa_t)v.num;
 329:lvgl/lvgl/src/widgets/../core/lv_obj_style_gen.h **** }
 330:lvgl/lvgl/src/widgets/../core/lv_obj_style_gen.h **** 
 331:lvgl/lvgl/src/widgets/../core/lv_obj_style_gen.h **** static inline const lv_font_t * lv_obj_get_style_text_font(const struct _lv_obj_t * obj, uint32_t p
 332:lvgl/lvgl/src/widgets/../core/lv_obj_style_gen.h **** {
 333:lvgl/lvgl/src/widgets/../core/lv_obj_style_gen.h ****     lv_style_value_t v = lv_obj_get_style_prop(obj, part, LV_STYLE_TEXT_FONT);
 334:lvgl/lvgl/src/widgets/../core/lv_obj_style_gen.h ****     return (const lv_font_t *)v.ptr;
 335:lvgl/lvgl/src/widgets/../core/lv_obj_style_gen.h **** }
 336:lvgl/lvgl/src/widgets/../core/lv_obj_style_gen.h **** 
 337:lvgl/lvgl/src/widgets/../core/lv_obj_style_gen.h **** static inline lv_coord_t lv_obj_get_style_text_letter_space(const struct _lv_obj_t * obj, uint32_t 
 338:lvgl/lvgl/src/widgets/../core/lv_obj_style_gen.h **** {
 339:lvgl/lvgl/src/widgets/../core/lv_obj_style_gen.h ****     lv_style_value_t v = lv_obj_get_style_prop(obj, part, LV_STYLE_TEXT_LETTER_SPACE);
 340:lvgl/lvgl/src/widgets/../core/lv_obj_style_gen.h ****     return (lv_coord_t)v.num;
 341:lvgl/lvgl/src/widgets/../core/lv_obj_style_gen.h **** }
 342:lvgl/lvgl/src/widgets/../core/lv_obj_style_gen.h **** 
 343:lvgl/lvgl/src/widgets/../core/lv_obj_style_gen.h **** static inline lv_coord_t lv_obj_get_style_text_line_space(const struct _lv_obj_t * obj, uint32_t pa
 344:lvgl/lvgl/src/widgets/../core/lv_obj_style_gen.h **** {
 345:lvgl/lvgl/src/widgets/../core/lv_obj_style_gen.h ****     lv_style_value_t v = lv_obj_get_style_prop(obj, part, LV_STYLE_TEXT_LINE_SPACE);
 346:lvgl/lvgl/src/widgets/../core/lv_obj_style_gen.h ****     return (lv_coord_t)v.num;
 347:lvgl/lvgl/src/widgets/../core/lv_obj_style_gen.h **** }
 348:lvgl/lvgl/src/widgets/../core/lv_obj_style_gen.h **** 
 349:lvgl/lvgl/src/widgets/../core/lv_obj_style_gen.h **** static inline lv_text_decor_t lv_obj_get_style_text_decor(const struct _lv_obj_t * obj, uint32_t pa
 350:lvgl/lvgl/src/widgets/../core/lv_obj_style_gen.h **** {
 351:lvgl/lvgl/src/widgets/../core/lv_obj_style_gen.h ****     lv_style_value_t v = lv_obj_get_style_prop(obj, part, LV_STYLE_TEXT_DECOR);
 352:lvgl/lvgl/src/widgets/../core/lv_obj_style_gen.h ****     return (lv_text_decor_t)v.num;
 353:lvgl/lvgl/src/widgets/../core/lv_obj_style_gen.h **** }
 354:lvgl/lvgl/src/widgets/../core/lv_obj_style_gen.h **** 
 355:lvgl/lvgl/src/widgets/../core/lv_obj_style_gen.h **** static inline lv_text_align_t lv_obj_get_style_text_align(const struct _lv_obj_t * obj, uint32_t pa
 356:lvgl/lvgl/src/widgets/../core/lv_obj_style_gen.h **** {
 357:lvgl/lvgl/src/widgets/../core/lv_obj_style_gen.h ****     lv_style_value_t v = lv_obj_get_style_prop(obj, part, LV_STYLE_TEXT_ALIGN);
 358:lvgl/lvgl/src/widgets/../core/lv_obj_style_gen.h ****     return (lv_text_align_t)v.num;
 359:lvgl/lvgl/src/widgets/../core/lv_obj_style_gen.h **** }
 360:lvgl/lvgl/src/widgets/../core/lv_obj_style_gen.h **** 
 361:lvgl/lvgl/src/widgets/../core/lv_obj_style_gen.h **** static inline lv_opa_t lv_obj_get_style_img_opa(const struct _lv_obj_t * obj, uint32_t part)
 362:lvgl/lvgl/src/widgets/../core/lv_obj_style_gen.h **** {
 363:lvgl/lvgl/src/widgets/../core/lv_obj_style_gen.h ****     lv_style_value_t v = lv_obj_get_style_prop(obj, part, LV_STYLE_IMG_OPA);
 364:lvgl/lvgl/src/widgets/../core/lv_obj_style_gen.h ****     return (lv_opa_t)v.num;
 365:lvgl/lvgl/src/widgets/../core/lv_obj_style_gen.h **** }
 366:lvgl/lvgl/src/widgets/../core/lv_obj_style_gen.h **** 
 367:lvgl/lvgl/src/widgets/../core/lv_obj_style_gen.h **** static inline lv_color_t lv_obj_get_style_img_recolor(const struct _lv_obj_t * obj, uint32_t part)
 430              		.loc 2 367 26 view .LVU113
 431              	.LBB62:
 368:lvgl/lvgl/src/widgets/../core/lv_obj_style_gen.h **** {
ARM GAS  C:\Users\gx\AppData\Local\Temp\ccJLdkpG.s 			page 33


 369:lvgl/lvgl/src/widgets/../core/lv_obj_style_gen.h ****     lv_style_value_t v = lv_obj_get_style_prop(obj, part, LV_STYLE_IMG_RECOLOR);
 432              		.loc 2 369 5 view .LVU114
 433              		.loc 2 369 26 is_stmt 0 view .LVU115
 434 0008 4722     		movs	r2, #71
 435              	.LVL40:
 436              		.loc 2 369 26 view .LVU116
 437 000a 0021     		movs	r1, #0
 438              	.LVL41:
 439              		.loc 2 369 26 view .LVU117
 440 000c FFF7FEFF 		bl	lv_obj_get_style_prop
 441              	.LVL42:
 370:lvgl/lvgl/src/widgets/../core/lv_obj_style_gen.h ****     return v.color;
 442              		.loc 2 370 5 is_stmt 1 view .LVU118
 443              		.loc 2 370 5 is_stmt 0 view .LVU119
 444              	.LBE62:
 445              	.LBE61:
 108:lvgl/lvgl/src/widgets/lv_canvas.c **** }
 446              		.loc 1 108 5 is_stmt 1 view .LVU120
 108:lvgl/lvgl/src/widgets/lv_canvas.c **** }
 447              		.loc 1 108 12 is_stmt 0 view .LVU121
 448 0010 0346     		mov	r3, r0	@ movhi
 449 0012 3246     		mov	r2, r6
 450 0014 2946     		mov	r1, r5
 451 0016 04F13C00 		add	r0, r4, #60
 452 001a FFF7FEFF 		bl	lv_img_buf_get_px_color
 453              	.LVL43:
 109:lvgl/lvgl/src/widgets/lv_canvas.c **** 
 454              		.loc 1 109 1 view .LVU122
 455 001e 70BD     		pop	{r4, r5, r6, pc}
 109:lvgl/lvgl/src/widgets/lv_canvas.c **** 
 456              		.loc 1 109 1 view .LVU123
 457              		.cfi_endproc
 458              	.LFE156:
 460              		.section	.text.lv_canvas_get_img,"ax",%progbits
 461              		.align	1
 462              		.global	lv_canvas_get_img
 463              		.syntax unified
 464              		.thumb
 465              		.thumb_func
 466              		.fpu fpv4-sp-d16
 468              	lv_canvas_get_img:
 469              	.LVL44:
 470              	.LFB157:
 112:lvgl/lvgl/src/widgets/lv_canvas.c ****     LV_ASSERT_OBJ(obj, MY_CLASS);
 471              		.loc 1 112 1 is_stmt 1 view -0
 472              		.cfi_startproc
 473              		@ args = 0, pretend = 0, frame = 0
 474              		@ frame_needed = 0, uses_anonymous_args = 0
 475              		@ link register save eliminated.
 113:lvgl/lvgl/src/widgets/lv_canvas.c **** 
 476              		.loc 1 113 5 view .LVU125
 113:lvgl/lvgl/src/widgets/lv_canvas.c **** 
 477              		.loc 1 113 5 view .LVU126
 113:lvgl/lvgl/src/widgets/lv_canvas.c **** 
 478              		.loc 1 113 5 view .LVU127
 115:lvgl/lvgl/src/widgets/lv_canvas.c ****     return &canvas->dsc;
 479              		.loc 1 115 5 view .LVU128
ARM GAS  C:\Users\gx\AppData\Local\Temp\ccJLdkpG.s 			page 34


 116:lvgl/lvgl/src/widgets/lv_canvas.c **** }
 480              		.loc 1 116 5 view .LVU129
 117:lvgl/lvgl/src/widgets/lv_canvas.c **** 
 481              		.loc 1 117 1 is_stmt 0 view .LVU130
 482 0000 3C30     		adds	r0, r0, #60
 483              	.LVL45:
 117:lvgl/lvgl/src/widgets/lv_canvas.c **** 
 484              		.loc 1 117 1 view .LVU131
 485 0002 7047     		bx	lr
 486              		.cfi_endproc
 487              	.LFE157:
 489              		.section	.rodata.lv_canvas_copy_buf.str1.4,"aMS",%progbits,1
 490              		.align	2
 491              	.LC4:
 492 0000 746F5F63 		.ascii	"to_copy != NULL\000"
 492      6F707920 
 492      213D204E 
 492      554C4C00 
 493              		.align	2
 494              	.LC5:
 495 0010 6C765F63 		.ascii	"lv_canvas_copy_buf: x or y out of the canvas\000"
 495      616E7661 
 495      735F636F 
 495      70795F62 
 495      75663A20 
 496              		.section	.text.lv_canvas_copy_buf,"ax",%progbits
 497              		.align	1
 498              		.global	lv_canvas_copy_buf
 499              		.syntax unified
 500              		.thumb
 501              		.thumb_func
 502              		.fpu fpv4-sp-d16
 504              	lv_canvas_copy_buf:
 505              	.LVL46:
 506              	.LFB158:
 124:lvgl/lvgl/src/widgets/lv_canvas.c ****     LV_ASSERT_OBJ(obj, MY_CLASS);
 507              		.loc 1 124 1 is_stmt 1 view -0
 508              		.cfi_startproc
 509              		@ args = 8, pretend = 0, frame = 0
 510              		@ frame_needed = 0, uses_anonymous_args = 0
 124:lvgl/lvgl/src/widgets/lv_canvas.c ****     LV_ASSERT_OBJ(obj, MY_CLASS);
 511              		.loc 1 124 1 is_stmt 0 view .LVU133
 512 0000 2DE9F04F 		push	{r4, r5, r6, r7, r8, r9, r10, fp, lr}
 513              	.LCFI10:
 514              		.cfi_def_cfa_offset 36
 515              		.cfi_offset 4, -36
 516              		.cfi_offset 5, -32
 517              		.cfi_offset 6, -28
 518              		.cfi_offset 7, -24
 519              		.cfi_offset 8, -20
 520              		.cfi_offset 9, -16
 521              		.cfi_offset 10, -12
 522              		.cfi_offset 11, -8
 523              		.cfi_offset 14, -4
 524 0004 85B0     		sub	sp, sp, #20
 525              	.LCFI11:
 526              		.cfi_def_cfa_offset 56
ARM GAS  C:\Users\gx\AppData\Local\Temp\ccJLdkpG.s 			page 35


 527 0006 BDF93890 		ldrsh	r9, [sp, #56]
 528 000a BDF93CA0 		ldrsh	r10, [sp, #60]
 125:lvgl/lvgl/src/widgets/lv_canvas.c ****     LV_ASSERT_NULL(to_copy);
 529              		.loc 1 125 5 is_stmt 1 view .LVU134
 125:lvgl/lvgl/src/widgets/lv_canvas.c ****     LV_ASSERT_NULL(to_copy);
 530              		.loc 1 125 5 view .LVU135
 125:lvgl/lvgl/src/widgets/lv_canvas.c ****     LV_ASSERT_NULL(to_copy);
 531              		.loc 1 125 5 view .LVU136
 126:lvgl/lvgl/src/widgets/lv_canvas.c **** 
 532              		.loc 1 126 5 view .LVU137
 126:lvgl/lvgl/src/widgets/lv_canvas.c **** 
 533              		.loc 1 126 5 view .LVU138
 534 000e D9B1     		cbz	r1, .L32
 535 0010 0546     		mov	r5, r0
 536 0012 1646     		mov	r6, r2
 537 0014 1C46     		mov	r4, r3
 538 0016 8846     		mov	r8, r1
 126:lvgl/lvgl/src/widgets/lv_canvas.c **** 
 539              		.loc 1 126 5 discriminator 2 view .LVU139
 126:lvgl/lvgl/src/widgets/lv_canvas.c **** 
 540              		.loc 1 126 28 discriminator 2 view .LVU140
 128:lvgl/lvgl/src/widgets/lv_canvas.c **** 
 541              		.loc 1 128 5 discriminator 2 view .LVU141
 542              	.LVL47:
 130:lvgl/lvgl/src/widgets/lv_canvas.c ****         LV_LOG_WARN("lv_canvas_copy_buf: x or y out of the canvas");
 543              		.loc 1 130 5 discriminator 2 view .LVU142
 130:lvgl/lvgl/src/widgets/lv_canvas.c ****         LV_LOG_WARN("lv_canvas_copy_buf: x or y out of the canvas");
 544              		.loc 1 130 10 is_stmt 0 discriminator 2 view .LVU143
 545 0018 4A44     		add	r2, r2, r9
 546              	.LVL48:
 130:lvgl/lvgl/src/widgets/lv_canvas.c ****         LV_LOG_WARN("lv_canvas_copy_buf: x or y out of the canvas");
 547              		.loc 1 130 47 discriminator 2 view .LVU144
 548 001a C36B     		ldr	r3, [r0, #60]
 549              	.LVL49:
 130:lvgl/lvgl/src/widgets/lv_canvas.c ****         LV_LOG_WARN("lv_canvas_copy_buf: x or y out of the canvas");
 550              		.loc 1 130 47 discriminator 2 view .LVU145
 551 001c C3F38A23 		ubfx	r3, r3, #10, #11
 130:lvgl/lvgl/src/widgets/lv_canvas.c ****         LV_LOG_WARN("lv_canvas_copy_buf: x or y out of the canvas");
 552              		.loc 1 130 7 discriminator 2 view .LVU146
 553 0020 9A42     		cmp	r2, r3
 554 0022 06DA     		bge	.L26
 130:lvgl/lvgl/src/widgets/lv_canvas.c ****         LV_LOG_WARN("lv_canvas_copy_buf: x or y out of the canvas");
 555              		.loc 1 130 55 discriminator 1 view .LVU147
 556 0024 0AEB0402 		add	r2, r10, r4
 130:lvgl/lvgl/src/widgets/lv_canvas.c ****         LV_LOG_WARN("lv_canvas_copy_buf: x or y out of the canvas");
 557              		.loc 1 130 92 discriminator 1 view .LVU148
 558 0028 C38F     		ldrh	r3, [r0, #62]
 559 002a C3F34A13 		ubfx	r3, r3, #5, #11
 130:lvgl/lvgl/src/widgets/lv_canvas.c ****         LV_LOG_WARN("lv_canvas_copy_buf: x or y out of the canvas");
 560              		.loc 1 130 50 discriminator 1 view .LVU149
 561 002e 9A42     		cmp	r2, r3
 562 0030 17DB     		blt	.L27
 563              	.L26:
 131:lvgl/lvgl/src/widgets/lv_canvas.c ****         return;
 564              		.loc 1 131 9 is_stmt 1 view .LVU150
 565 0032 1E4B     		ldr	r3, .L33
 566 0034 0093     		str	r3, [sp]
ARM GAS  C:\Users\gx\AppData\Local\Temp\ccJLdkpG.s 			page 36


 567 0036 1E4B     		ldr	r3, .L33+4
 568 0038 8322     		movs	r2, #131
 569 003a 1E49     		ldr	r1, .L33+8
 570              	.LVL50:
 131:lvgl/lvgl/src/widgets/lv_canvas.c ****         return;
 571              		.loc 1 131 9 is_stmt 0 view .LVU151
 572 003c 0220     		movs	r0, #2
 573              	.LVL51:
 131:lvgl/lvgl/src/widgets/lv_canvas.c ****         return;
 574              		.loc 1 131 9 view .LVU152
 575 003e FFF7FEFF 		bl	_lv_log_add
 576              	.LVL52:
 131:lvgl/lvgl/src/widgets/lv_canvas.c ****         return;
 577              		.loc 1 131 68 is_stmt 1 view .LVU153
 132:lvgl/lvgl/src/widgets/lv_canvas.c ****     }
 578              		.loc 1 132 9 view .LVU154
 579              	.L23:
 144:lvgl/lvgl/src/widgets/lv_canvas.c **** 
 580              		.loc 1 144 1 is_stmt 0 view .LVU155
 581 0042 05B0     		add	sp, sp, #20
 582              	.LCFI12:
 583              		.cfi_remember_state
 584              		.cfi_def_cfa_offset 36
 585              		@ sp needed
 586 0044 BDE8F08F 		pop	{r4, r5, r6, r7, r8, r9, r10, fp, pc}
 587              	.LVL53:
 588              	.L32:
 589              	.LCFI13:
 590              		.cfi_restore_state
 126:lvgl/lvgl/src/widgets/lv_canvas.c **** 
 591              		.loc 1 126 5 is_stmt 1 discriminator 1 view .LVU156
 592 0048 1B4B     		ldr	r3, .L33+12
 593              	.LVL54:
 126:lvgl/lvgl/src/widgets/lv_canvas.c **** 
 594              		.loc 1 126 5 is_stmt 0 discriminator 1 view .LVU157
 595 004a 0293     		str	r3, [sp, #8]
 596 004c 1B4B     		ldr	r3, .L33+16
 597 004e 0193     		str	r3, [sp, #4]
 598 0050 1B4B     		ldr	r3, .L33+20
 599 0052 0093     		str	r3, [sp]
 600 0054 164B     		ldr	r3, .L33+4
 601 0056 7E22     		movs	r2, #126
 602              	.LVL55:
 126:lvgl/lvgl/src/widgets/lv_canvas.c **** 
 603              		.loc 1 126 5 discriminator 1 view .LVU158
 604 0058 1649     		ldr	r1, .L33+8
 605              	.LVL56:
 126:lvgl/lvgl/src/widgets/lv_canvas.c **** 
 606              		.loc 1 126 5 discriminator 1 view .LVU159
 607 005a 0320     		movs	r0, #3
 608              	.LVL57:
 126:lvgl/lvgl/src/widgets/lv_canvas.c **** 
 609              		.loc 1 126 5 discriminator 1 view .LVU160
 610 005c FFF7FEFF 		bl	_lv_log_add
 611              	.LVL58:
 612              	.L25:
 126:lvgl/lvgl/src/widgets/lv_canvas.c **** 
ARM GAS  C:\Users\gx\AppData\Local\Temp\ccJLdkpG.s 			page 37


 613              		.loc 1 126 5 is_stmt 1 discriminator 1 view .LVU161
 126:lvgl/lvgl/src/widgets/lv_canvas.c **** 
 614              		.loc 1 126 5 discriminator 1 view .LVU162
 126:lvgl/lvgl/src/widgets/lv_canvas.c **** 
 615              		.loc 1 126 5 discriminator 1 view .LVU163
 126:lvgl/lvgl/src/widgets/lv_canvas.c **** 
 616              		.loc 1 126 5 discriminator 1 view .LVU164
 617 0060 FEE7     		b	.L25
 618              	.LVL59:
 619              	.L27:
 135:lvgl/lvgl/src/widgets/lv_canvas.c ****     uint32_t px        = canvas->dsc.header.w * y * px_size + x * px_size;
 620              		.loc 1 135 5 view .LVU165
 135:lvgl/lvgl/src/widgets/lv_canvas.c ****     uint32_t px        = canvas->dsc.header.w * y * px_size + x * px_size;
 621              		.loc 1 135 66 is_stmt 0 view .LVU166
 622 0062 90F83C00 		ldrb	r0, [r0, #60]	@ zero_extendqisi2
 623              	.LVL60:
 135:lvgl/lvgl/src/widgets/lv_canvas.c ****     uint32_t px        = canvas->dsc.header.w * y * px_size + x * px_size;
 624              		.loc 1 135 26 view .LVU167
 625 0066 00F01F00 		and	r0, r0, #31
 626 006a FFF7FEFF 		bl	lv_img_cf_get_px_size
 627              	.LVL61:
 135:lvgl/lvgl/src/widgets/lv_canvas.c ****     uint32_t px        = canvas->dsc.header.w * y * px_size + x * px_size;
 628              		.loc 1 135 71 view .LVU168
 629 006e C0F3C707 		ubfx	r7, r0, #3, #8
 630              	.LVL62:
 136:lvgl/lvgl/src/widgets/lv_canvas.c ****     uint8_t * to_copy8 = (uint8_t *)to_copy;
 631              		.loc 1 136 5 is_stmt 1 view .LVU169
 136:lvgl/lvgl/src/widgets/lv_canvas.c ****     uint8_t * to_copy8 = (uint8_t *)to_copy;
 632              		.loc 1 136 44 is_stmt 0 view .LVU170
 633 0072 EB6B     		ldr	r3, [r5, #60]
 634 0074 C3F38A23 		ubfx	r3, r3, #10, #11
 136:lvgl/lvgl/src/widgets/lv_canvas.c ****     uint8_t * to_copy8 = (uint8_t *)to_copy;
 635              		.loc 1 136 61 view .LVU171
 636 0078 03FB0464 		mla	r4, r3, r4, r6
 136:lvgl/lvgl/src/widgets/lv_canvas.c ****     uint8_t * to_copy8 = (uint8_t *)to_copy;
 637              		.loc 1 136 14 view .LVU172
 638 007c 07FB04F4 		mul	r4, r7, r4
 639              	.LVL63:
 137:lvgl/lvgl/src/widgets/lv_canvas.c ****     lv_coord_t i;
 640              		.loc 1 137 5 is_stmt 1 view .LVU173
 138:lvgl/lvgl/src/widgets/lv_canvas.c ****     for(i = 0; i < h; i++) {
 641              		.loc 1 138 5 view .LVU174
 139:lvgl/lvgl/src/widgets/lv_canvas.c ****         lv_memcpy((void *)&canvas->dsc.data[px], to_copy8, w * px_size);
 642              		.loc 1 139 5 view .LVU175
 139:lvgl/lvgl/src/widgets/lv_canvas.c ****         lv_memcpy((void *)&canvas->dsc.data[px], to_copy8, w * px_size);
 643              		.loc 1 139 11 is_stmt 0 view .LVU176
 644 0080 0026     		movs	r6, #0
 139:lvgl/lvgl/src/widgets/lv_canvas.c ****         lv_memcpy((void *)&canvas->dsc.data[px], to_copy8, w * px_size);
 645              		.loc 1 139 5 view .LVU177
 646 0082 0FE0     		b	.L29
 647              	.LVL64:
 648              	.L30:
 140:lvgl/lvgl/src/widgets/lv_canvas.c ****         px += canvas->dsc.header.w * px_size;
 649              		.loc 1 140 9 is_stmt 1 discriminator 3 view .LVU178
 140:lvgl/lvgl/src/widgets/lv_canvas.c ****         px += canvas->dsc.header.w * px_size;
 650              		.loc 1 140 39 is_stmt 0 discriminator 3 view .LVU179
 651 0084 686C     		ldr	r0, [r5, #68]
ARM GAS  C:\Users\gx\AppData\Local\Temp\ccJLdkpG.s 			page 38


 140:lvgl/lvgl/src/widgets/lv_canvas.c ****         px += canvas->dsc.header.w * px_size;
 652              		.loc 1 140 62 discriminator 3 view .LVU180
 653 0086 07FB09FB 		mul	fp, r7, r9
 140:lvgl/lvgl/src/widgets/lv_canvas.c ****         px += canvas->dsc.header.w * px_size;
 654              		.loc 1 140 9 discriminator 3 view .LVU181
 655 008a 5A46     		mov	r2, fp
 656 008c 4146     		mov	r1, r8
 657 008e 2044     		add	r0, r0, r4
 658 0090 FFF7FEFF 		bl	lv_memcpy
 659              	.LVL65:
 141:lvgl/lvgl/src/widgets/lv_canvas.c ****         to_copy8 += w * px_size;
 660              		.loc 1 141 9 is_stmt 1 discriminator 3 view .LVU182
 141:lvgl/lvgl/src/widgets/lv_canvas.c ****         to_copy8 += w * px_size;
 661              		.loc 1 141 33 is_stmt 0 discriminator 3 view .LVU183
 662 0094 EB6B     		ldr	r3, [r5, #60]
 663 0096 C3F38A23 		ubfx	r3, r3, #10, #11
 141:lvgl/lvgl/src/widgets/lv_canvas.c ****         to_copy8 += w * px_size;
 664              		.loc 1 141 12 discriminator 3 view .LVU184
 665 009a 07FB0344 		mla	r4, r7, r3, r4
 666              	.LVL66:
 142:lvgl/lvgl/src/widgets/lv_canvas.c ****     }
 667              		.loc 1 142 9 is_stmt 1 discriminator 3 view .LVU185
 142:lvgl/lvgl/src/widgets/lv_canvas.c ****     }
 668              		.loc 1 142 18 is_stmt 0 discriminator 3 view .LVU186
 669 009e D844     		add	r8, r8, fp
 670              	.LVL67:
 139:lvgl/lvgl/src/widgets/lv_canvas.c ****         lv_memcpy((void *)&canvas->dsc.data[px], to_copy8, w * px_size);
 671              		.loc 1 139 23 is_stmt 1 discriminator 3 view .LVU187
 139:lvgl/lvgl/src/widgets/lv_canvas.c ****         lv_memcpy((void *)&canvas->dsc.data[px], to_copy8, w * px_size);
 672              		.loc 1 139 24 is_stmt 0 discriminator 3 view .LVU188
 673 00a0 0136     		adds	r6, r6, #1
 674              	.LVL68:
 139:lvgl/lvgl/src/widgets/lv_canvas.c ****         lv_memcpy((void *)&canvas->dsc.data[px], to_copy8, w * px_size);
 675              		.loc 1 139 24 discriminator 3 view .LVU189
 676 00a2 36B2     		sxth	r6, r6
 677              	.LVL69:
 678              	.L29:
 139:lvgl/lvgl/src/widgets/lv_canvas.c ****         lv_memcpy((void *)&canvas->dsc.data[px], to_copy8, w * px_size);
 679              		.loc 1 139 16 is_stmt 1 discriminator 1 view .LVU190
 139:lvgl/lvgl/src/widgets/lv_canvas.c ****         lv_memcpy((void *)&canvas->dsc.data[px], to_copy8, w * px_size);
 680              		.loc 1 139 5 is_stmt 0 discriminator 1 view .LVU191
 681 00a4 5645     		cmp	r6, r10
 682 00a6 EDDB     		blt	.L30
 139:lvgl/lvgl/src/widgets/lv_canvas.c ****         lv_memcpy((void *)&canvas->dsc.data[px], to_copy8, w * px_size);
 683              		.loc 1 139 5 discriminator 1 view .LVU192
 684 00a8 CBE7     		b	.L23
 685              	.L34:
 686 00aa 00BF     		.align	2
 687              	.L33:
 688 00ac 10000000 		.word	.LC5
 689 00b0 00000000 		.word	.LANCHOR2
 690 00b4 00000000 		.word	.LC0
 691 00b8 24000000 		.word	.LC1
 692 00bc 00000000 		.word	.LC4
 693 00c0 40000000 		.word	.LC3
 694              		.cfi_endproc
 695              	.LFE158:
ARM GAS  C:\Users\gx\AppData\Local\Temp\ccJLdkpG.s 			page 39


 697              		.section	.rodata.lv_canvas_transform.str1.4,"aMS",%progbits,1
 698              		.align	2
 699              	.LC6:
 700 0000 696D6720 		.ascii	"img != NULL\000"
 700      213D204E 
 700      554C4C00 
 701              		.section	.text.lv_canvas_transform,"ax",%progbits
 702              		.align	1
 703              		.global	lv_canvas_transform
 704              		.syntax unified
 705              		.thumb
 706              		.thumb_func
 707              		.fpu fpv4-sp-d16
 709              	lv_canvas_transform:
 710              	.LVL70:
 711              	.LFB159:
 149:lvgl/lvgl/src/widgets/lv_canvas.c **** #if LV_DRAW_COMPLEX
 712              		.loc 1 149 1 is_stmt 1 view -0
 713              		.cfi_startproc
 714              		@ args = 20, pretend = 0, frame = 112
 715              		@ frame_needed = 0, uses_anonymous_args = 0
 149:lvgl/lvgl/src/widgets/lv_canvas.c **** #if LV_DRAW_COMPLEX
 716              		.loc 1 149 1 is_stmt 0 view .LVU194
 717 0000 2DE9F04F 		push	{r4, r5, r6, r7, r8, r9, r10, fp, lr}
 718              	.LCFI14:
 719              		.cfi_def_cfa_offset 36
 720              		.cfi_offset 4, -36
 721              		.cfi_offset 5, -32
 722              		.cfi_offset 6, -28
 723              		.cfi_offset 7, -24
 724              		.cfi_offset 8, -20
 725              		.cfi_offset 9, -16
 726              		.cfi_offset 10, -12
 727              		.cfi_offset 11, -8
 728              		.cfi_offset 14, -4
 729 0004 A1B0     		sub	sp, sp, #132
 730              	.LCFI15:
 731              		.cfi_def_cfa_offset 168
 732 0006 1C46     		mov	r4, r3
 733 0008 BDF9A830 		ldrsh	r3, [sp, #168]
 734              	.LVL71:
 149:lvgl/lvgl/src/widgets/lv_canvas.c **** #if LV_DRAW_COMPLEX
 735              		.loc 1 149 1 view .LVU195
 736 000c 0893     		str	r3, [sp, #32]
 737 000e BDF9AC30 		ldrsh	r3, [sp, #172]
 738 0012 0993     		str	r3, [sp, #36]
 151:lvgl/lvgl/src/widgets/lv_canvas.c ****     LV_ASSERT_NULL(img);
 739              		.loc 1 151 5 is_stmt 1 view .LVU196
 151:lvgl/lvgl/src/widgets/lv_canvas.c ****     LV_ASSERT_NULL(img);
 740              		.loc 1 151 5 view .LVU197
 151:lvgl/lvgl/src/widgets/lv_canvas.c ****     LV_ASSERT_NULL(img);
 741              		.loc 1 151 5 view .LVU198
 152:lvgl/lvgl/src/widgets/lv_canvas.c **** 
 742              		.loc 1 152 5 view .LVU199
 152:lvgl/lvgl/src/widgets/lv_canvas.c **** 
 743              		.loc 1 152 5 view .LVU200
 744 0014 0B91     		str	r1, [sp, #44]
ARM GAS  C:\Users\gx\AppData\Local\Temp\ccJLdkpG.s 			page 40


 745 0016 0029     		cmp	r1, #0
 746 0018 3BD0     		beq	.L53
 747 001a 8346     		mov	fp, r0
 748 001c 1546     		mov	r5, r2
 152:lvgl/lvgl/src/widgets/lv_canvas.c **** 
 749              		.loc 1 152 5 discriminator 2 view .LVU201
 152:lvgl/lvgl/src/widgets/lv_canvas.c **** 
 750              		.loc 1 152 24 discriminator 2 view .LVU202
 154:lvgl/lvgl/src/widgets/lv_canvas.c ****     lv_color_t color = lv_obj_get_style_img_recolor(obj, LV_PART_MAIN);
 751              		.loc 1 154 5 discriminator 2 view .LVU203
 752              	.LVL72:
 155:lvgl/lvgl/src/widgets/lv_canvas.c **** 
 753              		.loc 1 155 5 discriminator 2 view .LVU204
 754              	.LBB63:
 755              	.LBI63:
 367:lvgl/lvgl/src/widgets/../core/lv_obj_style_gen.h **** {
 756              		.loc 2 367 26 discriminator 2 view .LVU205
 757              	.LBB64:
 369:lvgl/lvgl/src/widgets/../core/lv_obj_style_gen.h ****     return v.color;
 758              		.loc 2 369 5 discriminator 2 view .LVU206
 369:lvgl/lvgl/src/widgets/../core/lv_obj_style_gen.h ****     return v.color;
 759              		.loc 2 369 26 is_stmt 0 discriminator 2 view .LVU207
 760 001e 4722     		movs	r2, #71
 761              	.LVL73:
 369:lvgl/lvgl/src/widgets/../core/lv_obj_style_gen.h ****     return v.color;
 762              		.loc 2 369 26 discriminator 2 view .LVU208
 763 0020 0021     		movs	r1, #0
 764              	.LVL74:
 369:lvgl/lvgl/src/widgets/../core/lv_obj_style_gen.h ****     return v.color;
 765              		.loc 2 369 26 discriminator 2 view .LVU209
 766 0022 FFF7FEFF 		bl	lv_obj_get_style_prop
 767              	.LVL75:
 768              		.loc 2 370 5 is_stmt 1 discriminator 2 view .LVU210
 769              		.loc 2 370 5 is_stmt 0 discriminator 2 view .LVU211
 770              	.LBE64:
 771              	.LBE63:
 157:lvgl/lvgl/src/widgets/lv_canvas.c ****     int32_t dest_height = canvas->dsc.header.h;
 772              		.loc 1 157 5 is_stmt 1 discriminator 2 view .LVU212
 157:lvgl/lvgl/src/widgets/lv_canvas.c ****     int32_t dest_height = canvas->dsc.header.h;
 773              		.loc 1 157 45 is_stmt 0 discriminator 2 view .LVU213
 774 0026 DBF83C60 		ldr	r6, [fp, #60]
 775 002a C6F38A26 		ubfx	r6, r6, #10, #11
 776              	.LVL76:
 158:lvgl/lvgl/src/widgets/lv_canvas.c **** 
 777              		.loc 1 158 5 is_stmt 1 discriminator 2 view .LVU214
 158:lvgl/lvgl/src/widgets/lv_canvas.c **** 
 778              		.loc 1 158 45 is_stmt 0 discriminator 2 view .LVU215
 779 002e BBF83E30 		ldrh	r3, [fp, #62]
 780 0032 C3F34A13 		ubfx	r3, r3, #5, #11
 781 0036 0693     		str	r3, [sp, #24]
 782              	.LVL77:
 160:lvgl/lvgl/src/widgets/lv_canvas.c ****     int32_t y;
 783              		.loc 1 160 5 is_stmt 1 discriminator 2 view .LVU216
 161:lvgl/lvgl/src/widgets/lv_canvas.c ****     bool ret;
 784              		.loc 1 161 5 discriminator 2 view .LVU217
 162:lvgl/lvgl/src/widgets/lv_canvas.c **** 
 785              		.loc 1 162 5 discriminator 2 view .LVU218
ARM GAS  C:\Users\gx\AppData\Local\Temp\ccJLdkpG.s 			page 41


 164:lvgl/lvgl/src/widgets/lv_canvas.c ****     dsc.cfg.angle = angle;
 786              		.loc 1 164 5 discriminator 2 view .LVU219
 165:lvgl/lvgl/src/widgets/lv_canvas.c ****     dsc.cfg.zoom = zoom;
 787              		.loc 1 165 5 discriminator 2 view .LVU220
 165:lvgl/lvgl/src/widgets/lv_canvas.c ****     dsc.cfg.zoom = zoom;
 788              		.loc 1 165 19 is_stmt 0 discriminator 2 view .LVU221
 789 0038 ADF84050 		strh	r5, [sp, #64]	@ movhi
 166:lvgl/lvgl/src/widgets/lv_canvas.c ****     dsc.cfg.src = img->data;
 790              		.loc 1 166 5 is_stmt 1 discriminator 2 view .LVU222
 166:lvgl/lvgl/src/widgets/lv_canvas.c ****     dsc.cfg.src = img->data;
 791              		.loc 1 166 18 is_stmt 0 discriminator 2 view .LVU223
 792 003c ADF84240 		strh	r4, [sp, #66]	@ movhi
 167:lvgl/lvgl/src/widgets/lv_canvas.c ****     dsc.cfg.src_w = img->header.w;
 793              		.loc 1 167 5 is_stmt 1 discriminator 2 view .LVU224
 167:lvgl/lvgl/src/widgets/lv_canvas.c ****     dsc.cfg.src_w = img->header.w;
 794              		.loc 1 167 22 is_stmt 0 discriminator 2 view .LVU225
 795 0040 0B9A     		ldr	r2, [sp, #44]
 796 0042 9368     		ldr	r3, [r2, #8]
 797              	.LVL78:
 167:lvgl/lvgl/src/widgets/lv_canvas.c ****     dsc.cfg.src_w = img->header.w;
 798              		.loc 1 167 17 discriminator 2 view .LVU226
 799 0044 0D93     		str	r3, [sp, #52]
 168:lvgl/lvgl/src/widgets/lv_canvas.c ****     dsc.cfg.src_h = img->header.h;
 800              		.loc 1 168 5 is_stmt 1 discriminator 2 view .LVU227
 168:lvgl/lvgl/src/widgets/lv_canvas.c ****     dsc.cfg.src_h = img->header.h;
 801              		.loc 1 168 32 is_stmt 0 discriminator 2 view .LVU228
 802 0046 1368     		ldr	r3, [r2]
 803 0048 C3F38A23 		ubfx	r3, r3, #10, #11
 168:lvgl/lvgl/src/widgets/lv_canvas.c ****     dsc.cfg.src_h = img->header.h;
 804              		.loc 1 168 19 discriminator 2 view .LVU229
 805 004c ADF83830 		strh	r3, [sp, #56]	@ movhi
 169:lvgl/lvgl/src/widgets/lv_canvas.c ****     dsc.cfg.cf = img->header.cf;
 806              		.loc 1 169 5 is_stmt 1 discriminator 2 view .LVU230
 169:lvgl/lvgl/src/widgets/lv_canvas.c ****     dsc.cfg.cf = img->header.cf;
 807              		.loc 1 169 32 is_stmt 0 discriminator 2 view .LVU231
 808 0050 5388     		ldrh	r3, [r2, #2]
 809 0052 C3F34A13 		ubfx	r3, r3, #5, #11
 169:lvgl/lvgl/src/widgets/lv_canvas.c ****     dsc.cfg.cf = img->header.cf;
 810              		.loc 1 169 19 discriminator 2 view .LVU232
 811 0056 ADF83A30 		strh	r3, [sp, #58]	@ movhi
 170:lvgl/lvgl/src/widgets/lv_canvas.c ****     dsc.cfg.pivot_x = pivot_x;
 812              		.loc 1 170 5 is_stmt 1 discriminator 2 view .LVU233
 170:lvgl/lvgl/src/widgets/lv_canvas.c ****     dsc.cfg.pivot_x = pivot_x;
 813              		.loc 1 170 29 is_stmt 0 discriminator 2 view .LVU234
 814 005a 1378     		ldrb	r3, [r2]	@ zero_extendqisi2
 815 005c C3F30403 		ubfx	r3, r3, #0, #5
 170:lvgl/lvgl/src/widgets/lv_canvas.c ****     dsc.cfg.pivot_x = pivot_x;
 816              		.loc 1 170 16 discriminator 2 view .LVU235
 817 0060 8DF84630 		strb	r3, [sp, #70]
 171:lvgl/lvgl/src/widgets/lv_canvas.c ****     dsc.cfg.pivot_y = pivot_y;
 818              		.loc 1 171 5 is_stmt 1 discriminator 2 view .LVU236
 171:lvgl/lvgl/src/widgets/lv_canvas.c ****     dsc.cfg.pivot_y = pivot_y;
 819              		.loc 1 171 21 is_stmt 0 discriminator 2 view .LVU237
 820 0064 2C9B     		ldr	r3, [sp, #176]
 821 0066 ADF83C30 		strh	r3, [sp, #60]	@ movhi
 172:lvgl/lvgl/src/widgets/lv_canvas.c ****     dsc.cfg.color = color;
 822              		.loc 1 172 5 is_stmt 1 discriminator 2 view .LVU238
ARM GAS  C:\Users\gx\AppData\Local\Temp\ccJLdkpG.s 			page 42


 172:lvgl/lvgl/src/widgets/lv_canvas.c ****     dsc.cfg.color = color;
 823              		.loc 1 172 21 is_stmt 0 discriminator 2 view .LVU239
 824 006a 2D9B     		ldr	r3, [sp, #180]
 825 006c ADF83E30 		strh	r3, [sp, #62]	@ movhi
 173:lvgl/lvgl/src/widgets/lv_canvas.c ****     dsc.cfg.antialias = antialias;
 826              		.loc 1 173 5 is_stmt 1 discriminator 2 view .LVU240
 173:lvgl/lvgl/src/widgets/lv_canvas.c ****     dsc.cfg.antialias = antialias;
 827              		.loc 1 173 19 is_stmt 0 discriminator 2 view .LVU241
 828 0070 ADF84400 		strh	r0, [sp, #68]	@ movhi
 174:lvgl/lvgl/src/widgets/lv_canvas.c ****     _lv_img_buf_transform_init(&dsc);
 829              		.loc 1 174 5 is_stmt 1 discriminator 2 view .LVU242
 174:lvgl/lvgl/src/widgets/lv_canvas.c ****     _lv_img_buf_transform_init(&dsc);
 830              		.loc 1 174 23 is_stmt 0 discriminator 2 view .LVU243
 831 0074 9DF8B830 		ldrb	r3, [sp, #184]	@ zero_extendqisi2
 832 0078 8DF84730 		strb	r3, [sp, #71]
 175:lvgl/lvgl/src/widgets/lv_canvas.c **** 
 833              		.loc 1 175 5 is_stmt 1 discriminator 2 view .LVU244
 834 007c 0DA8     		add	r0, sp, #52
 835 007e FFF7FEFF 		bl	_lv_img_buf_transform_init
 836              	.LVL79:
 177:lvgl/lvgl/src/widgets/lv_canvas.c ****         for(x = -offset_x; x < dest_width - offset_x; x++) {
 837              		.loc 1 177 5 discriminator 2 view .LVU245
 177:lvgl/lvgl/src/widgets/lv_canvas.c ****         for(x = -offset_x; x < dest_width - offset_x; x++) {
 838              		.loc 1 177 13 is_stmt 0 discriminator 2 view .LVU246
 839 0082 099B     		ldr	r3, [sp, #36]
 840 0084 0593     		str	r3, [sp, #20]
 177:lvgl/lvgl/src/widgets/lv_canvas.c ****         for(x = -offset_x; x < dest_width - offset_x; x++) {
 841              		.loc 1 177 11 discriminator 2 view .LVU247
 842 0086 C3F1000A 		rsb	r10, r3, #0
 843              	.LVL80:
 177:lvgl/lvgl/src/widgets/lv_canvas.c ****         for(x = -offset_x; x < dest_width - offset_x; x++) {
 844              		.loc 1 177 11 discriminator 2 view .LVU248
 845 008a CDF828B0 		str	fp, [sp, #40]
 846 008e D346     		mov	fp, r10
 847              	.LVL81:
 177:lvgl/lvgl/src/widgets/lv_canvas.c ****         for(x = -offset_x; x < dest_width - offset_x; x++) {
 848              		.loc 1 177 5 discriminator 2 view .LVU249
 849 0090 ECE0     		b	.L38
 850              	.LVL82:
 851              	.L53:
 152:lvgl/lvgl/src/widgets/lv_canvas.c **** 
 852              		.loc 1 152 5 is_stmt 1 discriminator 1 view .LVU250
 853 0092 7F4B     		ldr	r3, .L57
 854 0094 0293     		str	r3, [sp, #8]
 855 0096 7F4B     		ldr	r3, .L57+4
 856 0098 0193     		str	r3, [sp, #4]
 857 009a 7F4B     		ldr	r3, .L57+8
 858 009c 0093     		str	r3, [sp]
 859 009e 7F4B     		ldr	r3, .L57+12
 860 00a0 9822     		movs	r2, #152
 861              	.LVL83:
 152:lvgl/lvgl/src/widgets/lv_canvas.c **** 
 862              		.loc 1 152 5 is_stmt 0 discriminator 1 view .LVU251
 863 00a2 7F49     		ldr	r1, .L57+16
 864              	.LVL84:
 152:lvgl/lvgl/src/widgets/lv_canvas.c **** 
 865              		.loc 1 152 5 discriminator 1 view .LVU252
ARM GAS  C:\Users\gx\AppData\Local\Temp\ccJLdkpG.s 			page 43


 866 00a4 0320     		movs	r0, #3
 867              	.LVL85:
 152:lvgl/lvgl/src/widgets/lv_canvas.c **** 
 868              		.loc 1 152 5 discriminator 1 view .LVU253
 869 00a6 FFF7FEFF 		bl	_lv_log_add
 870              	.LVL86:
 871              	.L37:
 152:lvgl/lvgl/src/widgets/lv_canvas.c **** 
 872              		.loc 1 152 5 is_stmt 1 discriminator 1 view .LVU254
 152:lvgl/lvgl/src/widgets/lv_canvas.c **** 
 873              		.loc 1 152 5 discriminator 1 view .LVU255
 152:lvgl/lvgl/src/widgets/lv_canvas.c **** 
 874              		.loc 1 152 5 discriminator 1 view .LVU256
 152:lvgl/lvgl/src/widgets/lv_canvas.c **** 
 875              		.loc 1 152 5 discriminator 1 view .LVU257
 876 00aa FEE7     		b	.L37
 877              	.LVL87:
 878              	.L41:
 879              	.LBB65:
 190:lvgl/lvgl/src/widgets/lv_canvas.c **** 
 880              		.loc 1 190 21 view .LVU258
 190:lvgl/lvgl/src/widgets/lv_canvas.c **** 
 881              		.loc 1 190 43 is_stmt 0 view .LVU259
 882 00ac 0A9F     		ldr	r7, [sp, #40]
 883 00ae 07F13C0A 		add	r10, r7, #60
 190:lvgl/lvgl/src/widgets/lv_canvas.c **** 
 884              		.loc 1 190 83 view .LVU260
 885 00b2 089B     		ldr	r3, [sp, #32]
 886 00b4 04EB0308 		add	r8, r4, r3
 190:lvgl/lvgl/src/widgets/lv_canvas.c **** 
 887              		.loc 1 190 43 view .LVU261
 888 00b8 0FFA88F8 		sxth	r8, r8
 190:lvgl/lvgl/src/widgets/lv_canvas.c **** 
 889              		.loc 1 190 97 view .LVU262
 890 00bc 099B     		ldr	r3, [sp, #36]
 891 00be 0BEB0309 		add	r9, fp, r3
 190:lvgl/lvgl/src/widgets/lv_canvas.c **** 
 892              		.loc 1 190 43 view .LVU263
 893 00c2 0FFA89F9 		sxth	r9, r9
 894 00c6 BDF84430 		ldrh	r3, [sp, #68]
 895 00ca 4A46     		mov	r2, r9
 896 00cc 4146     		mov	r1, r8
 897 00ce 5046     		mov	r0, r10
 898 00d0 FFF7FEFF 		bl	lv_img_buf_get_px_color
 899              	.LVL88:
 900 00d4 ADF81E00 		strh	r0, [sp, #30]	@ movhi
 194:lvgl/lvgl/src/widgets/lv_canvas.c ****                         if(dsc.res.opa < LV_OPA_MAX) dsc.res.color = lv_color_mix(dsc.res.color, bg
 901              		.loc 1 194 21 is_stmt 1 view .LVU264
 194:lvgl/lvgl/src/widgets/lv_canvas.c ****                         if(dsc.res.opa < LV_OPA_MAX) dsc.res.color = lv_color_mix(dsc.res.color, bg
 902              		.loc 1 194 62 is_stmt 0 view .LVU265
 903 00d8 97F83C00 		ldrb	r0, [r7, #60]	@ zero_extendqisi2
 194:lvgl/lvgl/src/widgets/lv_canvas.c ****                         if(dsc.res.opa < LV_OPA_MAX) dsc.res.color = lv_color_mix(dsc.res.color, bg
 904              		.loc 1 194 24 view .LVU266
 905 00dc 00F01F00 		and	r0, r0, #31
 906 00e0 FFF7FEFF 		bl	lv_img_cf_has_alpha
 907              	.LVL89:
 194:lvgl/lvgl/src/widgets/lv_canvas.c ****                         if(dsc.res.opa < LV_OPA_MAX) dsc.res.color = lv_color_mix(dsc.res.color, bg
ARM GAS  C:\Users\gx\AppData\Local\Temp\ccJLdkpG.s 			page 44


 908              		.loc 1 194 23 view .LVU267
 909 00e4 0028     		cmp	r0, #0
 910 00e6 50D1     		bne	.L42
 195:lvgl/lvgl/src/widgets/lv_canvas.c ****                         lv_img_buf_set_px_color(&canvas->dsc, x + offset_x, y + offset_y, dsc.res.c
 911              		.loc 1 195 25 is_stmt 1 view .LVU268
 195:lvgl/lvgl/src/widgets/lv_canvas.c ****                         lv_img_buf_set_px_color(&canvas->dsc, x + offset_x, y + offset_y, dsc.res.c
 912              		.loc 1 195 35 is_stmt 0 view .LVU269
 913 00e8 9DF84A00 		ldrb	r0, [sp, #74]	@ zero_extendqisi2
 195:lvgl/lvgl/src/widgets/lv_canvas.c ****                         lv_img_buf_set_px_color(&canvas->dsc, x + offset_x, y + offset_y, dsc.res.c
 914              		.loc 1 195 27 view .LVU270
 915 00ec FC28     		cmp	r0, #252
 916 00ee 17D8     		bhi	.L43
 195:lvgl/lvgl/src/widgets/lv_canvas.c ****                         lv_img_buf_set_px_color(&canvas->dsc, x + offset_x, y + offset_y, dsc.res.c
 917              		.loc 1 195 54 is_stmt 1 discriminator 1 view .LVU271
 918              	.LVL90:
 919              	.LBB66:
 920              	.LBI66:
 921              		.file 3 "lvgl/lvgl/src/widgets/../core/../misc/lv_color.h"
   1:lvgl/lvgl/src/widgets/../core/../misc/lv_color.h **** /**
   2:lvgl/lvgl/src/widgets/../core/../misc/lv_color.h ****  * @file lv_color.h
   3:lvgl/lvgl/src/widgets/../core/../misc/lv_color.h ****  *
   4:lvgl/lvgl/src/widgets/../core/../misc/lv_color.h ****  */
   5:lvgl/lvgl/src/widgets/../core/../misc/lv_color.h **** 
   6:lvgl/lvgl/src/widgets/../core/../misc/lv_color.h **** #ifndef LV_COLOR_H
   7:lvgl/lvgl/src/widgets/../core/../misc/lv_color.h **** #define LV_COLOR_H
   8:lvgl/lvgl/src/widgets/../core/../misc/lv_color.h **** 
   9:lvgl/lvgl/src/widgets/../core/../misc/lv_color.h **** #ifdef __cplusplus
  10:lvgl/lvgl/src/widgets/../core/../misc/lv_color.h **** extern "C" {
  11:lvgl/lvgl/src/widgets/../core/../misc/lv_color.h **** #endif
  12:lvgl/lvgl/src/widgets/../core/../misc/lv_color.h **** 
  13:lvgl/lvgl/src/widgets/../core/../misc/lv_color.h **** /*********************
  14:lvgl/lvgl/src/widgets/../core/../misc/lv_color.h ****  *      INCLUDES
  15:lvgl/lvgl/src/widgets/../core/../misc/lv_color.h ****  *********************/
  16:lvgl/lvgl/src/widgets/../core/../misc/lv_color.h **** #include "../lv_conf_internal.h"
  17:lvgl/lvgl/src/widgets/../core/../misc/lv_color.h **** #include "lv_math.h"
  18:lvgl/lvgl/src/widgets/../core/../misc/lv_color.h **** #include "lv_types.h"
  19:lvgl/lvgl/src/widgets/../core/../misc/lv_color.h **** 
  20:lvgl/lvgl/src/widgets/../core/../misc/lv_color.h **** /*Error checking*/
  21:lvgl/lvgl/src/widgets/../core/../misc/lv_color.h **** #if LV_COLOR_DEPTH == 24
  22:lvgl/lvgl/src/widgets/../core/../misc/lv_color.h **** #error "LV_COLOR_DEPTH 24 is deprecated. Use LV_COLOR_DEPTH 32 instead (lv_conf.h)"
  23:lvgl/lvgl/src/widgets/../core/../misc/lv_color.h **** #endif
  24:lvgl/lvgl/src/widgets/../core/../misc/lv_color.h **** 
  25:lvgl/lvgl/src/widgets/../core/../misc/lv_color.h **** #if LV_COLOR_DEPTH != 32 && LV_COLOR_SCREEN_TRANSP != 0
  26:lvgl/lvgl/src/widgets/../core/../misc/lv_color.h **** #error "LV_COLOR_SCREEN_TRANSP requires LV_COLOR_DEPTH == 32. Set it in lv_conf.h"
  27:lvgl/lvgl/src/widgets/../core/../misc/lv_color.h **** #endif
  28:lvgl/lvgl/src/widgets/../core/../misc/lv_color.h **** 
  29:lvgl/lvgl/src/widgets/../core/../misc/lv_color.h **** #if LV_COLOR_DEPTH != 16 && LV_COLOR_16_SWAP != 0
  30:lvgl/lvgl/src/widgets/../core/../misc/lv_color.h **** #error "LV_COLOR_16_SWAP requires LV_COLOR_DEPTH == 16. Set it in lv_conf.h"
  31:lvgl/lvgl/src/widgets/../core/../misc/lv_color.h **** #endif
  32:lvgl/lvgl/src/widgets/../core/../misc/lv_color.h **** 
  33:lvgl/lvgl/src/widgets/../core/../misc/lv_color.h **** #include <stdint.h>
  34:lvgl/lvgl/src/widgets/../core/../misc/lv_color.h **** 
  35:lvgl/lvgl/src/widgets/../core/../misc/lv_color.h **** /*********************
  36:lvgl/lvgl/src/widgets/../core/../misc/lv_color.h ****  *      DEFINES
  37:lvgl/lvgl/src/widgets/../core/../misc/lv_color.h ****  *********************/
  38:lvgl/lvgl/src/widgets/../core/../misc/lv_color.h **** 
  39:lvgl/lvgl/src/widgets/../core/../misc/lv_color.h **** /**
ARM GAS  C:\Users\gx\AppData\Local\Temp\ccJLdkpG.s 			page 45


  40:lvgl/lvgl/src/widgets/../core/../misc/lv_color.h ****  * Opacity percentages.
  41:lvgl/lvgl/src/widgets/../core/../misc/lv_color.h ****  */
  42:lvgl/lvgl/src/widgets/../core/../misc/lv_color.h **** enum {
  43:lvgl/lvgl/src/widgets/../core/../misc/lv_color.h ****     LV_OPA_TRANSP = 0,
  44:lvgl/lvgl/src/widgets/../core/../misc/lv_color.h ****     LV_OPA_0      = 0,
  45:lvgl/lvgl/src/widgets/../core/../misc/lv_color.h ****     LV_OPA_10     = 25,
  46:lvgl/lvgl/src/widgets/../core/../misc/lv_color.h ****     LV_OPA_20     = 51,
  47:lvgl/lvgl/src/widgets/../core/../misc/lv_color.h ****     LV_OPA_30     = 76,
  48:lvgl/lvgl/src/widgets/../core/../misc/lv_color.h ****     LV_OPA_40     = 102,
  49:lvgl/lvgl/src/widgets/../core/../misc/lv_color.h ****     LV_OPA_50     = 127,
  50:lvgl/lvgl/src/widgets/../core/../misc/lv_color.h ****     LV_OPA_60     = 153,
  51:lvgl/lvgl/src/widgets/../core/../misc/lv_color.h ****     LV_OPA_70     = 178,
  52:lvgl/lvgl/src/widgets/../core/../misc/lv_color.h ****     LV_OPA_80     = 204,
  53:lvgl/lvgl/src/widgets/../core/../misc/lv_color.h ****     LV_OPA_90     = 229,
  54:lvgl/lvgl/src/widgets/../core/../misc/lv_color.h ****     LV_OPA_100    = 255,
  55:lvgl/lvgl/src/widgets/../core/../misc/lv_color.h ****     LV_OPA_COVER  = 255,
  56:lvgl/lvgl/src/widgets/../core/../misc/lv_color.h **** };
  57:lvgl/lvgl/src/widgets/../core/../misc/lv_color.h **** 
  58:lvgl/lvgl/src/widgets/../core/../misc/lv_color.h **** #define LV_OPA_MIN 2    /*Opacities below this will be transparent*/
  59:lvgl/lvgl/src/widgets/../core/../misc/lv_color.h **** #define LV_OPA_MAX 253  /*Opacities above this will fully cover*/
  60:lvgl/lvgl/src/widgets/../core/../misc/lv_color.h **** 
  61:lvgl/lvgl/src/widgets/../core/../misc/lv_color.h **** #if LV_COLOR_DEPTH == 1
  62:lvgl/lvgl/src/widgets/../core/../misc/lv_color.h **** #define LV_COLOR_SIZE 8
  63:lvgl/lvgl/src/widgets/../core/../misc/lv_color.h **** #elif LV_COLOR_DEPTH == 8
  64:lvgl/lvgl/src/widgets/../core/../misc/lv_color.h **** #define LV_COLOR_SIZE 8
  65:lvgl/lvgl/src/widgets/../core/../misc/lv_color.h **** #elif LV_COLOR_DEPTH == 16
  66:lvgl/lvgl/src/widgets/../core/../misc/lv_color.h **** #define LV_COLOR_SIZE 16
  67:lvgl/lvgl/src/widgets/../core/../misc/lv_color.h **** #elif LV_COLOR_DEPTH == 32
  68:lvgl/lvgl/src/widgets/../core/../misc/lv_color.h **** #define LV_COLOR_SIZE 32
  69:lvgl/lvgl/src/widgets/../core/../misc/lv_color.h **** #else
  70:lvgl/lvgl/src/widgets/../core/../misc/lv_color.h **** #error "Invalid LV_COLOR_DEPTH in lv_conf.h! Set it to 1, 8, 16 or 32!"
  71:lvgl/lvgl/src/widgets/../core/../misc/lv_color.h **** #endif
  72:lvgl/lvgl/src/widgets/../core/../misc/lv_color.h **** 
  73:lvgl/lvgl/src/widgets/../core/../misc/lv_color.h **** /**
  74:lvgl/lvgl/src/widgets/../core/../misc/lv_color.h ****  * Adjust color mix functions rounding.
  75:lvgl/lvgl/src/widgets/../core/../misc/lv_color.h ****  * GPUs might calculate color mix (blending) differently.
  76:lvgl/lvgl/src/widgets/../core/../misc/lv_color.h ****  * Should be in range of 0..254
  77:lvgl/lvgl/src/widgets/../core/../misc/lv_color.h ****  * 0: no adjustment, get the integer part of the result (round down)
  78:lvgl/lvgl/src/widgets/../core/../misc/lv_color.h ****  * 64: round up from x.75
  79:lvgl/lvgl/src/widgets/../core/../misc/lv_color.h ****  * 128: round up from half
  80:lvgl/lvgl/src/widgets/../core/../misc/lv_color.h ****  * 192: round up from x.25
  81:lvgl/lvgl/src/widgets/../core/../misc/lv_color.h ****  * 254: round up*/
  82:lvgl/lvgl/src/widgets/../core/../misc/lv_color.h **** #ifndef LV_COLOR_MIX_ROUND_OFS
  83:lvgl/lvgl/src/widgets/../core/../misc/lv_color.h **** #if LV_COLOR_DEPTH == 32
  84:lvgl/lvgl/src/widgets/../core/../misc/lv_color.h **** #define LV_COLOR_MIX_ROUND_OFS 0
  85:lvgl/lvgl/src/widgets/../core/../misc/lv_color.h **** #else
  86:lvgl/lvgl/src/widgets/../core/../misc/lv_color.h **** #define LV_COLOR_MIX_ROUND_OFS 128
  87:lvgl/lvgl/src/widgets/../core/../misc/lv_color.h **** #endif
  88:lvgl/lvgl/src/widgets/../core/../misc/lv_color.h **** #endif
  89:lvgl/lvgl/src/widgets/../core/../misc/lv_color.h **** 
  90:lvgl/lvgl/src/widgets/../core/../misc/lv_color.h **** #if defined(__cplusplus) && !defined(_LV_COLOR_HAS_MODERN_CPP)
  91:lvgl/lvgl/src/widgets/../core/../misc/lv_color.h **** /**
  92:lvgl/lvgl/src/widgets/../core/../misc/lv_color.h **** * MSVC compiler's definition of the __cplusplus indicating 199711L regardless to C++ standard versi
  93:lvgl/lvgl/src/widgets/../core/../misc/lv_color.h **** * see https://devblogs.microsoft.com/cppblog/msvc-now-correctly-reports-cplusplus
  94:lvgl/lvgl/src/widgets/../core/../misc/lv_color.h **** * so we use _MSC_VER macro instead of __cplusplus
  95:lvgl/lvgl/src/widgets/../core/../misc/lv_color.h **** */
  96:lvgl/lvgl/src/widgets/../core/../misc/lv_color.h **** #ifdef _MSC_VER
ARM GAS  C:\Users\gx\AppData\Local\Temp\ccJLdkpG.s 			page 46


  97:lvgl/lvgl/src/widgets/../core/../misc/lv_color.h **** #if _MSC_VER >= 1900 /*Visual Studio 2015*/
  98:lvgl/lvgl/src/widgets/../core/../misc/lv_color.h **** #define _LV_COLOR_HAS_MODERN_CPP 1
  99:lvgl/lvgl/src/widgets/../core/../misc/lv_color.h **** #endif
 100:lvgl/lvgl/src/widgets/../core/../misc/lv_color.h **** #else
 101:lvgl/lvgl/src/widgets/../core/../misc/lv_color.h **** #if __cplusplus >= 201103L
 102:lvgl/lvgl/src/widgets/../core/../misc/lv_color.h **** #define _LV_COLOR_HAS_MODERN_CPP 1
 103:lvgl/lvgl/src/widgets/../core/../misc/lv_color.h **** #endif
 104:lvgl/lvgl/src/widgets/../core/../misc/lv_color.h **** #endif
 105:lvgl/lvgl/src/widgets/../core/../misc/lv_color.h **** #endif /*__cplusplus*/
 106:lvgl/lvgl/src/widgets/../core/../misc/lv_color.h **** 
 107:lvgl/lvgl/src/widgets/../core/../misc/lv_color.h **** #ifndef _LV_COLOR_HAS_MODERN_CPP
 108:lvgl/lvgl/src/widgets/../core/../misc/lv_color.h **** #define _LV_COLOR_HAS_MODERN_CPP 0
 109:lvgl/lvgl/src/widgets/../core/../misc/lv_color.h **** #endif
 110:lvgl/lvgl/src/widgets/../core/../misc/lv_color.h **** 
 111:lvgl/lvgl/src/widgets/../core/../misc/lv_color.h **** #if _LV_COLOR_HAS_MODERN_CPP
 112:lvgl/lvgl/src/widgets/../core/../misc/lv_color.h **** /*Fix msvc compiler error C4576 inside C++ code*/
 113:lvgl/lvgl/src/widgets/../core/../misc/lv_color.h **** #define _LV_COLOR_MAKE_TYPE_HELPER lv_color_t
 114:lvgl/lvgl/src/widgets/../core/../misc/lv_color.h **** #else
 115:lvgl/lvgl/src/widgets/../core/../misc/lv_color.h **** #define _LV_COLOR_MAKE_TYPE_HELPER (lv_color_t)
 116:lvgl/lvgl/src/widgets/../core/../misc/lv_color.h **** #endif
 117:lvgl/lvgl/src/widgets/../core/../misc/lv_color.h **** 
 118:lvgl/lvgl/src/widgets/../core/../misc/lv_color.h **** /*---------------------------------------
 119:lvgl/lvgl/src/widgets/../core/../misc/lv_color.h ****  * Macros for all existing color depths
 120:lvgl/lvgl/src/widgets/../core/../misc/lv_color.h ****  * to set/get values of the color channels
 121:lvgl/lvgl/src/widgets/../core/../misc/lv_color.h ****  *------------------------------------------*/
 122:lvgl/lvgl/src/widgets/../core/../misc/lv_color.h **** # define LV_COLOR_SET_R1(c, v) (c).ch.red = (uint8_t)((v) & 0x1)
 123:lvgl/lvgl/src/widgets/../core/../misc/lv_color.h **** # define LV_COLOR_SET_G1(c, v) (c).ch.green = (uint8_t)((v) & 0x1)
 124:lvgl/lvgl/src/widgets/../core/../misc/lv_color.h **** # define LV_COLOR_SET_B1(c, v) (c).ch.blue = (uint8_t)((v) & 0x1)
 125:lvgl/lvgl/src/widgets/../core/../misc/lv_color.h **** # define LV_COLOR_SET_A1(c, v) do {} while(0)
 126:lvgl/lvgl/src/widgets/../core/../misc/lv_color.h **** 
 127:lvgl/lvgl/src/widgets/../core/../misc/lv_color.h **** # define LV_COLOR_GET_R1(c) (c).ch.red
 128:lvgl/lvgl/src/widgets/../core/../misc/lv_color.h **** # define LV_COLOR_GET_G1(c) (c).ch.green
 129:lvgl/lvgl/src/widgets/../core/../misc/lv_color.h **** # define LV_COLOR_GET_B1(c) (c).ch.blue
 130:lvgl/lvgl/src/widgets/../core/../misc/lv_color.h **** # define LV_COLOR_GET_A1(c) 0xFF
 131:lvgl/lvgl/src/widgets/../core/../misc/lv_color.h **** 
 132:lvgl/lvgl/src/widgets/../core/../misc/lv_color.h **** # define _LV_COLOR_ZERO_INITIALIZER1 {0x00}
 133:lvgl/lvgl/src/widgets/../core/../misc/lv_color.h **** # define LV_COLOR_MAKE1(r8, g8, b8)  {(uint8_t)((b8 >> 7) | (g8 >> 7) | (r8 >> 7))}
 134:lvgl/lvgl/src/widgets/../core/../misc/lv_color.h **** 
 135:lvgl/lvgl/src/widgets/../core/../misc/lv_color.h **** # define LV_COLOR_SET_R8(c, v) (c).ch.red = (uint8_t)((v) & 0x7U)
 136:lvgl/lvgl/src/widgets/../core/../misc/lv_color.h **** # define LV_COLOR_SET_G8(c, v) (c).ch.green = (uint8_t)((v) & 0x7U)
 137:lvgl/lvgl/src/widgets/../core/../misc/lv_color.h **** # define LV_COLOR_SET_B8(c, v) (c).ch.blue = (uint8_t)((v) & 0x3U)
 138:lvgl/lvgl/src/widgets/../core/../misc/lv_color.h **** # define LV_COLOR_SET_A8(c, v) do {} while(0)
 139:lvgl/lvgl/src/widgets/../core/../misc/lv_color.h **** 
 140:lvgl/lvgl/src/widgets/../core/../misc/lv_color.h **** # define LV_COLOR_GET_R8(c) (c).ch.red
 141:lvgl/lvgl/src/widgets/../core/../misc/lv_color.h **** # define LV_COLOR_GET_G8(c) (c).ch.green
 142:lvgl/lvgl/src/widgets/../core/../misc/lv_color.h **** # define LV_COLOR_GET_B8(c) (c).ch.blue
 143:lvgl/lvgl/src/widgets/../core/../misc/lv_color.h **** # define LV_COLOR_GET_A8(c) 0xFF
 144:lvgl/lvgl/src/widgets/../core/../misc/lv_color.h **** 
 145:lvgl/lvgl/src/widgets/../core/../misc/lv_color.h **** # define _LV_COLOR_ZERO_INITIALIZER8 {{0x00, 0x00, 0x00}}
 146:lvgl/lvgl/src/widgets/../core/../misc/lv_color.h **** # define LV_COLOR_MAKE8(r8, g8, b8) {{(uint8_t)((b8 >> 6) & 0x3U), (uint8_t)((g8 >> 5) & 0x7U), (ui
 147:lvgl/lvgl/src/widgets/../core/../misc/lv_color.h **** 
 148:lvgl/lvgl/src/widgets/../core/../misc/lv_color.h **** # define LV_COLOR_SET_R16(c, v) (c).ch.red = (uint8_t)((v) & 0x1FU)
 149:lvgl/lvgl/src/widgets/../core/../misc/lv_color.h **** #if LV_COLOR_16_SWAP == 0
 150:lvgl/lvgl/src/widgets/../core/../misc/lv_color.h **** # define LV_COLOR_SET_G16(c, v) (c).ch.green = (uint8_t)((v) & 0x3FU)
 151:lvgl/lvgl/src/widgets/../core/../misc/lv_color.h **** #else
 152:lvgl/lvgl/src/widgets/../core/../misc/lv_color.h **** # define LV_COLOR_SET_G16(c, v) {(c).ch.green_h = (uint8_t)(((v) >> 3) & 0x7); (c).ch.green_l = (ui
 153:lvgl/lvgl/src/widgets/../core/../misc/lv_color.h **** #endif
ARM GAS  C:\Users\gx\AppData\Local\Temp\ccJLdkpG.s 			page 47


 154:lvgl/lvgl/src/widgets/../core/../misc/lv_color.h **** # define LV_COLOR_SET_B16(c, v) (c).ch.blue = (uint8_t)((v) & 0x1FU)
 155:lvgl/lvgl/src/widgets/../core/../misc/lv_color.h **** # define LV_COLOR_SET_A16(c, v) do {} while(0)
 156:lvgl/lvgl/src/widgets/../core/../misc/lv_color.h **** 
 157:lvgl/lvgl/src/widgets/../core/../misc/lv_color.h **** # define LV_COLOR_GET_R16(c) (c).ch.red
 158:lvgl/lvgl/src/widgets/../core/../misc/lv_color.h **** #if LV_COLOR_16_SWAP == 0
 159:lvgl/lvgl/src/widgets/../core/../misc/lv_color.h **** # define LV_COLOR_GET_G16(c) (c).ch.green
 160:lvgl/lvgl/src/widgets/../core/../misc/lv_color.h **** #else
 161:lvgl/lvgl/src/widgets/../core/../misc/lv_color.h **** # define LV_COLOR_GET_G16(c) (((c).ch.green_h << 3) + (c).ch.green_l)
 162:lvgl/lvgl/src/widgets/../core/../misc/lv_color.h **** #endif
 163:lvgl/lvgl/src/widgets/../core/../misc/lv_color.h **** # define LV_COLOR_GET_B16(c) (c).ch.blue
 164:lvgl/lvgl/src/widgets/../core/../misc/lv_color.h **** # define LV_COLOR_GET_A16(c) 0xFF
 165:lvgl/lvgl/src/widgets/../core/../misc/lv_color.h **** 
 166:lvgl/lvgl/src/widgets/../core/../misc/lv_color.h **** #if LV_COLOR_16_SWAP == 0
 167:lvgl/lvgl/src/widgets/../core/../misc/lv_color.h **** # define _LV_COLOR_ZERO_INITIALIZER16  {{0x00, 0x00, 0x00}}
 168:lvgl/lvgl/src/widgets/../core/../misc/lv_color.h **** # define LV_COLOR_MAKE16(r8, g8, b8) {{(uint8_t)((b8 >> 3) & 0x1FU), (uint8_t)((g8 >> 2) & 0x3FU), 
 169:lvgl/lvgl/src/widgets/../core/../misc/lv_color.h **** #else
 170:lvgl/lvgl/src/widgets/../core/../misc/lv_color.h **** # define _LV_COLOR_ZERO_INITIALIZER16 {{0x00, 0x00, 0x00, 0x00}}
 171:lvgl/lvgl/src/widgets/../core/../misc/lv_color.h **** # define LV_COLOR_MAKE16(r8, g8, b8) {{(uint8_t)((g8 >> 5) & 0x7U), (uint8_t)((r8 >> 3) & 0x1FU), (
 172:lvgl/lvgl/src/widgets/../core/../misc/lv_color.h **** #endif
 173:lvgl/lvgl/src/widgets/../core/../misc/lv_color.h **** 
 174:lvgl/lvgl/src/widgets/../core/../misc/lv_color.h **** # define LV_COLOR_SET_R32(c, v) (c).ch.red = (uint8_t)((v) & 0xFF)
 175:lvgl/lvgl/src/widgets/../core/../misc/lv_color.h **** # define LV_COLOR_SET_G32(c, v) (c).ch.green = (uint8_t)((v) & 0xFF)
 176:lvgl/lvgl/src/widgets/../core/../misc/lv_color.h **** # define LV_COLOR_SET_B32(c, v) (c).ch.blue = (uint8_t)((v) & 0xFF)
 177:lvgl/lvgl/src/widgets/../core/../misc/lv_color.h **** # define LV_COLOR_SET_A32(c, v) (c).ch.alpha = (uint8_t)((v) & 0xFF)
 178:lvgl/lvgl/src/widgets/../core/../misc/lv_color.h **** 
 179:lvgl/lvgl/src/widgets/../core/../misc/lv_color.h **** # define LV_COLOR_GET_R32(c) (c).ch.red
 180:lvgl/lvgl/src/widgets/../core/../misc/lv_color.h **** # define LV_COLOR_GET_G32(c) (c).ch.green
 181:lvgl/lvgl/src/widgets/../core/../misc/lv_color.h **** # define LV_COLOR_GET_B32(c) (c).ch.blue
 182:lvgl/lvgl/src/widgets/../core/../misc/lv_color.h **** # define LV_COLOR_GET_A32(c) (c).ch.alpha
 183:lvgl/lvgl/src/widgets/../core/../misc/lv_color.h **** 
 184:lvgl/lvgl/src/widgets/../core/../misc/lv_color.h **** # define _LV_COLOR_ZERO_INITIALIZER32  {{0x00, 0x00, 0x00, 0x00}}
 185:lvgl/lvgl/src/widgets/../core/../misc/lv_color.h **** # define LV_COLOR_MAKE32(r8, g8, b8) {{b8, g8, r8, 0xff}} /*Fix 0xff alpha*/
 186:lvgl/lvgl/src/widgets/../core/../misc/lv_color.h **** 
 187:lvgl/lvgl/src/widgets/../core/../misc/lv_color.h **** /*---------------------------------------
 188:lvgl/lvgl/src/widgets/../core/../misc/lv_color.h ****  * Macros for the current color depth
 189:lvgl/lvgl/src/widgets/../core/../misc/lv_color.h ****  * to set/get values of the color channels
 190:lvgl/lvgl/src/widgets/../core/../misc/lv_color.h ****  *------------------------------------------*/
 191:lvgl/lvgl/src/widgets/../core/../misc/lv_color.h **** #define LV_COLOR_SET_R(c, v) LV_CONCAT(LV_COLOR_SET_R, LV_COLOR_DEPTH)(c, v)
 192:lvgl/lvgl/src/widgets/../core/../misc/lv_color.h **** #define LV_COLOR_SET_G(c, v) LV_CONCAT(LV_COLOR_SET_G, LV_COLOR_DEPTH)(c, v)
 193:lvgl/lvgl/src/widgets/../core/../misc/lv_color.h **** #define LV_COLOR_SET_B(c, v) LV_CONCAT(LV_COLOR_SET_B, LV_COLOR_DEPTH)(c, v)
 194:lvgl/lvgl/src/widgets/../core/../misc/lv_color.h **** #define LV_COLOR_SET_A(c, v) LV_CONCAT(LV_COLOR_SET_A, LV_COLOR_DEPTH)(c, v)
 195:lvgl/lvgl/src/widgets/../core/../misc/lv_color.h **** 
 196:lvgl/lvgl/src/widgets/../core/../misc/lv_color.h **** #define LV_COLOR_GET_R(c) LV_CONCAT(LV_COLOR_GET_R, LV_COLOR_DEPTH)(c)
 197:lvgl/lvgl/src/widgets/../core/../misc/lv_color.h **** #define LV_COLOR_GET_G(c) LV_CONCAT(LV_COLOR_GET_G, LV_COLOR_DEPTH)(c)
 198:lvgl/lvgl/src/widgets/../core/../misc/lv_color.h **** #define LV_COLOR_GET_B(c) LV_CONCAT(LV_COLOR_GET_B, LV_COLOR_DEPTH)(c)
 199:lvgl/lvgl/src/widgets/../core/../misc/lv_color.h **** #define LV_COLOR_GET_A(c) LV_CONCAT(LV_COLOR_GET_A, LV_COLOR_DEPTH)(c)
 200:lvgl/lvgl/src/widgets/../core/../misc/lv_color.h **** 
 201:lvgl/lvgl/src/widgets/../core/../misc/lv_color.h **** #define _LV_COLOR_ZERO_INITIALIZER LV_CONCAT(_LV_COLOR_ZERO_INITIALIZER, LV_COLOR_DEPTH)
 202:lvgl/lvgl/src/widgets/../core/../misc/lv_color.h **** #define LV_COLOR_MAKE(r8, g8, b8) LV_CONCAT(LV_COLOR_MAKE, LV_COLOR_DEPTH)(r8, g8, b8)
 203:lvgl/lvgl/src/widgets/../core/../misc/lv_color.h **** 
 204:lvgl/lvgl/src/widgets/../core/../misc/lv_color.h **** #define LV_UDIV255(x) ((uint32_t)((uint32_t) (x) * 0x8081) >> 0x17)
 205:lvgl/lvgl/src/widgets/../core/../misc/lv_color.h **** 
 206:lvgl/lvgl/src/widgets/../core/../misc/lv_color.h **** /**********************
 207:lvgl/lvgl/src/widgets/../core/../misc/lv_color.h ****  *      TYPEDEFS
 208:lvgl/lvgl/src/widgets/../core/../misc/lv_color.h ****  **********************/
 209:lvgl/lvgl/src/widgets/../core/../misc/lv_color.h **** 
 210:lvgl/lvgl/src/widgets/../core/../misc/lv_color.h **** typedef union {
ARM GAS  C:\Users\gx\AppData\Local\Temp\ccJLdkpG.s 			page 48


 211:lvgl/lvgl/src/widgets/../core/../misc/lv_color.h ****     uint8_t full; /*must be declared first to set all bits of byte via initializer list*/
 212:lvgl/lvgl/src/widgets/../core/../misc/lv_color.h ****     union {
 213:lvgl/lvgl/src/widgets/../core/../misc/lv_color.h ****         uint8_t blue : 1;
 214:lvgl/lvgl/src/widgets/../core/../misc/lv_color.h ****         uint8_t green : 1;
 215:lvgl/lvgl/src/widgets/../core/../misc/lv_color.h ****         uint8_t red : 1;
 216:lvgl/lvgl/src/widgets/../core/../misc/lv_color.h ****     } ch;
 217:lvgl/lvgl/src/widgets/../core/../misc/lv_color.h **** } lv_color1_t;
 218:lvgl/lvgl/src/widgets/../core/../misc/lv_color.h **** 
 219:lvgl/lvgl/src/widgets/../core/../misc/lv_color.h **** typedef union {
 220:lvgl/lvgl/src/widgets/../core/../misc/lv_color.h ****     struct {
 221:lvgl/lvgl/src/widgets/../core/../misc/lv_color.h ****         uint8_t blue : 2;
 222:lvgl/lvgl/src/widgets/../core/../misc/lv_color.h ****         uint8_t green : 3;
 223:lvgl/lvgl/src/widgets/../core/../misc/lv_color.h ****         uint8_t red : 3;
 224:lvgl/lvgl/src/widgets/../core/../misc/lv_color.h ****     } ch;
 225:lvgl/lvgl/src/widgets/../core/../misc/lv_color.h ****     uint8_t full;
 226:lvgl/lvgl/src/widgets/../core/../misc/lv_color.h **** } lv_color8_t;
 227:lvgl/lvgl/src/widgets/../core/../misc/lv_color.h **** 
 228:lvgl/lvgl/src/widgets/../core/../misc/lv_color.h **** typedef union {
 229:lvgl/lvgl/src/widgets/../core/../misc/lv_color.h ****     struct {
 230:lvgl/lvgl/src/widgets/../core/../misc/lv_color.h **** #if LV_COLOR_16_SWAP == 0
 231:lvgl/lvgl/src/widgets/../core/../misc/lv_color.h ****         uint16_t blue : 5;
 232:lvgl/lvgl/src/widgets/../core/../misc/lv_color.h ****         uint16_t green : 6;
 233:lvgl/lvgl/src/widgets/../core/../misc/lv_color.h ****         uint16_t red : 5;
 234:lvgl/lvgl/src/widgets/../core/../misc/lv_color.h **** #else
 235:lvgl/lvgl/src/widgets/../core/../misc/lv_color.h ****         uint16_t green_h : 3;
 236:lvgl/lvgl/src/widgets/../core/../misc/lv_color.h ****         uint16_t red : 5;
 237:lvgl/lvgl/src/widgets/../core/../misc/lv_color.h ****         uint16_t blue : 5;
 238:lvgl/lvgl/src/widgets/../core/../misc/lv_color.h ****         uint16_t green_l : 3;
 239:lvgl/lvgl/src/widgets/../core/../misc/lv_color.h **** #endif
 240:lvgl/lvgl/src/widgets/../core/../misc/lv_color.h ****     } ch;
 241:lvgl/lvgl/src/widgets/../core/../misc/lv_color.h ****     uint16_t full;
 242:lvgl/lvgl/src/widgets/../core/../misc/lv_color.h **** } lv_color16_t;
 243:lvgl/lvgl/src/widgets/../core/../misc/lv_color.h **** 
 244:lvgl/lvgl/src/widgets/../core/../misc/lv_color.h **** typedef union {
 245:lvgl/lvgl/src/widgets/../core/../misc/lv_color.h ****     struct {
 246:lvgl/lvgl/src/widgets/../core/../misc/lv_color.h ****         uint8_t blue;
 247:lvgl/lvgl/src/widgets/../core/../misc/lv_color.h ****         uint8_t green;
 248:lvgl/lvgl/src/widgets/../core/../misc/lv_color.h ****         uint8_t red;
 249:lvgl/lvgl/src/widgets/../core/../misc/lv_color.h ****         uint8_t alpha;
 250:lvgl/lvgl/src/widgets/../core/../misc/lv_color.h ****     } ch;
 251:lvgl/lvgl/src/widgets/../core/../misc/lv_color.h ****     uint32_t full;
 252:lvgl/lvgl/src/widgets/../core/../misc/lv_color.h **** } lv_color32_t;
 253:lvgl/lvgl/src/widgets/../core/../misc/lv_color.h **** 
 254:lvgl/lvgl/src/widgets/../core/../misc/lv_color.h **** typedef LV_CONCAT3(uint, LV_COLOR_SIZE, _t) lv_color_int_t;
 255:lvgl/lvgl/src/widgets/../core/../misc/lv_color.h **** typedef LV_CONCAT3(lv_color, LV_COLOR_DEPTH, _t) lv_color_t;
 256:lvgl/lvgl/src/widgets/../core/../misc/lv_color.h **** 
 257:lvgl/lvgl/src/widgets/../core/../misc/lv_color.h **** typedef struct {
 258:lvgl/lvgl/src/widgets/../core/../misc/lv_color.h ****     uint16_t h;
 259:lvgl/lvgl/src/widgets/../core/../misc/lv_color.h ****     uint8_t s;
 260:lvgl/lvgl/src/widgets/../core/../misc/lv_color.h ****     uint8_t v;
 261:lvgl/lvgl/src/widgets/../core/../misc/lv_color.h **** } lv_color_hsv_t;
 262:lvgl/lvgl/src/widgets/../core/../misc/lv_color.h **** 
 263:lvgl/lvgl/src/widgets/../core/../misc/lv_color.h **** //! @cond Doxygen_Suppress
 264:lvgl/lvgl/src/widgets/../core/../misc/lv_color.h **** /*No idea where the guard is required but else throws warnings in the docs*/
 265:lvgl/lvgl/src/widgets/../core/../misc/lv_color.h **** typedef uint8_t lv_opa_t;
 266:lvgl/lvgl/src/widgets/../core/../misc/lv_color.h **** //! @endcond
 267:lvgl/lvgl/src/widgets/../core/../misc/lv_color.h **** 
ARM GAS  C:\Users\gx\AppData\Local\Temp\ccJLdkpG.s 			page 49


 268:lvgl/lvgl/src/widgets/../core/../misc/lv_color.h **** struct _lv_color_filter_dsc_t;
 269:lvgl/lvgl/src/widgets/../core/../misc/lv_color.h **** 
 270:lvgl/lvgl/src/widgets/../core/../misc/lv_color.h **** typedef lv_color_t (*lv_color_filter_cb_t)(const struct _lv_color_filter_dsc_t *, lv_color_t, lv_op
 271:lvgl/lvgl/src/widgets/../core/../misc/lv_color.h **** 
 272:lvgl/lvgl/src/widgets/../core/../misc/lv_color.h **** typedef struct _lv_color_filter_dsc_t {
 273:lvgl/lvgl/src/widgets/../core/../misc/lv_color.h ****     lv_color_filter_cb_t filter_cb;
 274:lvgl/lvgl/src/widgets/../core/../misc/lv_color.h ****     void * user_data;
 275:lvgl/lvgl/src/widgets/../core/../misc/lv_color.h **** }lv_color_filter_dsc_t;
 276:lvgl/lvgl/src/widgets/../core/../misc/lv_color.h **** 
 277:lvgl/lvgl/src/widgets/../core/../misc/lv_color.h **** 
 278:lvgl/lvgl/src/widgets/../core/../misc/lv_color.h **** typedef enum {
 279:lvgl/lvgl/src/widgets/../core/../misc/lv_color.h ****     LV_PALETTE_RED,
 280:lvgl/lvgl/src/widgets/../core/../misc/lv_color.h ****     LV_PALETTE_PINK,
 281:lvgl/lvgl/src/widgets/../core/../misc/lv_color.h ****     LV_PALETTE_PURPLE,
 282:lvgl/lvgl/src/widgets/../core/../misc/lv_color.h ****     LV_PALETTE_DEEP_PURPLE,
 283:lvgl/lvgl/src/widgets/../core/../misc/lv_color.h ****     LV_PALETTE_INDIGO,
 284:lvgl/lvgl/src/widgets/../core/../misc/lv_color.h ****     LV_PALETTE_BLUE,
 285:lvgl/lvgl/src/widgets/../core/../misc/lv_color.h ****     LV_PALETTE_LIGHT_BLUE,
 286:lvgl/lvgl/src/widgets/../core/../misc/lv_color.h ****     LV_PALETTE_CYAN,
 287:lvgl/lvgl/src/widgets/../core/../misc/lv_color.h ****     LV_PALETTE_TEAL,
 288:lvgl/lvgl/src/widgets/../core/../misc/lv_color.h ****     LV_PALETTE_GREEN,
 289:lvgl/lvgl/src/widgets/../core/../misc/lv_color.h ****     LV_PALETTE_LIGHT_GREEN,
 290:lvgl/lvgl/src/widgets/../core/../misc/lv_color.h ****     LV_PALETTE_LIME,
 291:lvgl/lvgl/src/widgets/../core/../misc/lv_color.h ****     LV_PALETTE_YELLOW,
 292:lvgl/lvgl/src/widgets/../core/../misc/lv_color.h ****     LV_PALETTE_AMBER,
 293:lvgl/lvgl/src/widgets/../core/../misc/lv_color.h ****     LV_PALETTE_ORANGE,
 294:lvgl/lvgl/src/widgets/../core/../misc/lv_color.h ****     LV_PALETTE_DEEP_ORANGE,
 295:lvgl/lvgl/src/widgets/../core/../misc/lv_color.h ****     LV_PALETTE_BROWN,
 296:lvgl/lvgl/src/widgets/../core/../misc/lv_color.h ****     LV_PALETTE_BLUE_GREY,
 297:lvgl/lvgl/src/widgets/../core/../misc/lv_color.h ****     LV_PALETTE_GREY,
 298:lvgl/lvgl/src/widgets/../core/../misc/lv_color.h ****     _LV_PALETTE_LAST,
 299:lvgl/lvgl/src/widgets/../core/../misc/lv_color.h ****     LV_PALETTE_NONE = 0xff,
 300:lvgl/lvgl/src/widgets/../core/../misc/lv_color.h **** }lv_palette_t;
 301:lvgl/lvgl/src/widgets/../core/../misc/lv_color.h **** 
 302:lvgl/lvgl/src/widgets/../core/../misc/lv_color.h **** /**********************
 303:lvgl/lvgl/src/widgets/../core/../misc/lv_color.h ****  * GLOBAL PROTOTYPES
 304:lvgl/lvgl/src/widgets/../core/../misc/lv_color.h ****  **********************/
 305:lvgl/lvgl/src/widgets/../core/../misc/lv_color.h **** 
 306:lvgl/lvgl/src/widgets/../core/../misc/lv_color.h **** /*In color conversations:
 307:lvgl/lvgl/src/widgets/../core/../misc/lv_color.h ****  * - When converting to bigger color type the LSB weight of 1 LSB is calculated
 308:lvgl/lvgl/src/widgets/../core/../misc/lv_color.h ****  *   E.g. 16 bit Red has 5 bits
 309:lvgl/lvgl/src/widgets/../core/../misc/lv_color.h ****  *         8 bit Red has 3 bits
 310:lvgl/lvgl/src/widgets/../core/../misc/lv_color.h ****  *        ----------------------
 311:lvgl/lvgl/src/widgets/../core/../misc/lv_color.h ****  *        8 bit red LSB = (2^5 - 1) / (2^3 - 1) = 31 / 7 = 4
 312:lvgl/lvgl/src/widgets/../core/../misc/lv_color.h ****  *
 313:lvgl/lvgl/src/widgets/../core/../misc/lv_color.h ****  * - When calculating to smaller color type simply shift out the LSBs
 314:lvgl/lvgl/src/widgets/../core/../misc/lv_color.h ****  *   E.g.  8 bit Red has 3 bits
 315:lvgl/lvgl/src/widgets/../core/../misc/lv_color.h ****  *        16 bit Red has 5 bits
 316:lvgl/lvgl/src/widgets/../core/../misc/lv_color.h ****  *        ----------------------
 317:lvgl/lvgl/src/widgets/../core/../misc/lv_color.h ****  *         Shift right with 5 - 3 = 2
 318:lvgl/lvgl/src/widgets/../core/../misc/lv_color.h ****  */
 319:lvgl/lvgl/src/widgets/../core/../misc/lv_color.h **** static inline uint8_t lv_color_to1(lv_color_t color)
 320:lvgl/lvgl/src/widgets/../core/../misc/lv_color.h **** {
 321:lvgl/lvgl/src/widgets/../core/../misc/lv_color.h **** #if LV_COLOR_DEPTH == 1
 322:lvgl/lvgl/src/widgets/../core/../misc/lv_color.h ****     return color.full;
 323:lvgl/lvgl/src/widgets/../core/../misc/lv_color.h **** #elif LV_COLOR_DEPTH == 8
 324:lvgl/lvgl/src/widgets/../core/../misc/lv_color.h ****     if((LV_COLOR_GET_R(color) & 0x4) || (LV_COLOR_GET_G(color) & 0x4) || (LV_COLOR_GET_B(color) & 0
ARM GAS  C:\Users\gx\AppData\Local\Temp\ccJLdkpG.s 			page 50


 325:lvgl/lvgl/src/widgets/../core/../misc/lv_color.h ****         return 1;
 326:lvgl/lvgl/src/widgets/../core/../misc/lv_color.h ****     }
 327:lvgl/lvgl/src/widgets/../core/../misc/lv_color.h ****     else {
 328:lvgl/lvgl/src/widgets/../core/../misc/lv_color.h ****         return 0;
 329:lvgl/lvgl/src/widgets/../core/../misc/lv_color.h ****     }
 330:lvgl/lvgl/src/widgets/../core/../misc/lv_color.h **** #elif LV_COLOR_DEPTH == 16
 331:lvgl/lvgl/src/widgets/../core/../misc/lv_color.h ****     if((LV_COLOR_GET_R(color) & 0x10) || (LV_COLOR_GET_G(color) & 0x20) || (LV_COLOR_GET_B(color) &
 332:lvgl/lvgl/src/widgets/../core/../misc/lv_color.h ****         return 1;
 333:lvgl/lvgl/src/widgets/../core/../misc/lv_color.h ****     }
 334:lvgl/lvgl/src/widgets/../core/../misc/lv_color.h ****     else {
 335:lvgl/lvgl/src/widgets/../core/../misc/lv_color.h ****         return 0;
 336:lvgl/lvgl/src/widgets/../core/../misc/lv_color.h ****     }
 337:lvgl/lvgl/src/widgets/../core/../misc/lv_color.h **** #elif LV_COLOR_DEPTH == 32
 338:lvgl/lvgl/src/widgets/../core/../misc/lv_color.h ****     if((LV_COLOR_GET_R(color) & 0x80) || (LV_COLOR_GET_G(color) & 0x80) || (LV_COLOR_GET_B(color) &
 339:lvgl/lvgl/src/widgets/../core/../misc/lv_color.h ****         return 1;
 340:lvgl/lvgl/src/widgets/../core/../misc/lv_color.h ****     }
 341:lvgl/lvgl/src/widgets/../core/../misc/lv_color.h ****     else {
 342:lvgl/lvgl/src/widgets/../core/../misc/lv_color.h ****         return 0;
 343:lvgl/lvgl/src/widgets/../core/../misc/lv_color.h ****     }
 344:lvgl/lvgl/src/widgets/../core/../misc/lv_color.h **** #endif
 345:lvgl/lvgl/src/widgets/../core/../misc/lv_color.h **** }
 346:lvgl/lvgl/src/widgets/../core/../misc/lv_color.h **** 
 347:lvgl/lvgl/src/widgets/../core/../misc/lv_color.h **** static inline uint8_t lv_color_to8(lv_color_t color)
 348:lvgl/lvgl/src/widgets/../core/../misc/lv_color.h **** {
 349:lvgl/lvgl/src/widgets/../core/../misc/lv_color.h **** #if LV_COLOR_DEPTH == 1
 350:lvgl/lvgl/src/widgets/../core/../misc/lv_color.h ****     if(color.full == 0)
 351:lvgl/lvgl/src/widgets/../core/../misc/lv_color.h ****         return 0;
 352:lvgl/lvgl/src/widgets/../core/../misc/lv_color.h ****     else
 353:lvgl/lvgl/src/widgets/../core/../misc/lv_color.h ****         return 0xFF;
 354:lvgl/lvgl/src/widgets/../core/../misc/lv_color.h **** #elif LV_COLOR_DEPTH == 8
 355:lvgl/lvgl/src/widgets/../core/../misc/lv_color.h ****     return color.full;
 356:lvgl/lvgl/src/widgets/../core/../misc/lv_color.h **** #elif LV_COLOR_DEPTH == 16
 357:lvgl/lvgl/src/widgets/../core/../misc/lv_color.h ****     lv_color8_t ret;
 358:lvgl/lvgl/src/widgets/../core/../misc/lv_color.h ****     LV_COLOR_SET_R8(ret, LV_COLOR_GET_R(color) >> 2); /*5 - 3  = 2*/
 359:lvgl/lvgl/src/widgets/../core/../misc/lv_color.h ****     LV_COLOR_SET_G8(ret, LV_COLOR_GET_G(color) >> 3); /*6 - 3  = 3*/
 360:lvgl/lvgl/src/widgets/../core/../misc/lv_color.h ****     LV_COLOR_SET_B8(ret, LV_COLOR_GET_B(color) >> 3); /*5 - 2  = 3*/
 361:lvgl/lvgl/src/widgets/../core/../misc/lv_color.h ****     return ret.full;
 362:lvgl/lvgl/src/widgets/../core/../misc/lv_color.h **** #elif LV_COLOR_DEPTH == 32
 363:lvgl/lvgl/src/widgets/../core/../misc/lv_color.h ****     lv_color8_t ret;
 364:lvgl/lvgl/src/widgets/../core/../misc/lv_color.h ****     LV_COLOR_SET_R8(ret, LV_COLOR_GET_R(color) >> 5); /*8 - 3  = 5*/
 365:lvgl/lvgl/src/widgets/../core/../misc/lv_color.h ****     LV_COLOR_SET_G8(ret, LV_COLOR_GET_G(color) >> 5); /*8 - 3  = 5*/
 366:lvgl/lvgl/src/widgets/../core/../misc/lv_color.h ****     LV_COLOR_SET_B8(ret, LV_COLOR_GET_B(color) >> 6); /*8 - 2  = 6*/
 367:lvgl/lvgl/src/widgets/../core/../misc/lv_color.h ****     return ret.full;
 368:lvgl/lvgl/src/widgets/../core/../misc/lv_color.h **** #endif
 369:lvgl/lvgl/src/widgets/../core/../misc/lv_color.h **** }
 370:lvgl/lvgl/src/widgets/../core/../misc/lv_color.h **** 
 371:lvgl/lvgl/src/widgets/../core/../misc/lv_color.h **** static inline uint16_t lv_color_to16(lv_color_t color)
 372:lvgl/lvgl/src/widgets/../core/../misc/lv_color.h **** {
 373:lvgl/lvgl/src/widgets/../core/../misc/lv_color.h **** #if LV_COLOR_DEPTH == 1
 374:lvgl/lvgl/src/widgets/../core/../misc/lv_color.h ****     if(color.full == 0)
 375:lvgl/lvgl/src/widgets/../core/../misc/lv_color.h ****         return 0;
 376:lvgl/lvgl/src/widgets/../core/../misc/lv_color.h ****     else
 377:lvgl/lvgl/src/widgets/../core/../misc/lv_color.h ****         return 0xFFFF;
 378:lvgl/lvgl/src/widgets/../core/../misc/lv_color.h **** #elif LV_COLOR_DEPTH == 8
 379:lvgl/lvgl/src/widgets/../core/../misc/lv_color.h ****     lv_color16_t ret;
 380:lvgl/lvgl/src/widgets/../core/../misc/lv_color.h ****     LV_COLOR_SET_R16(ret, LV_COLOR_GET_R(color) * 4);  /*(2^5 - 1)/(2^3 - 1) = 31/7 = 4*/
 381:lvgl/lvgl/src/widgets/../core/../misc/lv_color.h ****     LV_COLOR_SET_G16(ret, LV_COLOR_GET_G(color) * 9);  /*(2^6 - 1)/(2^3 - 1) = 63/7 = 9*/
ARM GAS  C:\Users\gx\AppData\Local\Temp\ccJLdkpG.s 			page 51


 382:lvgl/lvgl/src/widgets/../core/../misc/lv_color.h ****     LV_COLOR_SET_B16(ret, LV_COLOR_GET_B(color) * 10); /*(2^5 - 1)/(2^2 - 1) = 31/3 = 10*/
 383:lvgl/lvgl/src/widgets/../core/../misc/lv_color.h ****     return ret.full;
 384:lvgl/lvgl/src/widgets/../core/../misc/lv_color.h **** #elif LV_COLOR_DEPTH == 16
 385:lvgl/lvgl/src/widgets/../core/../misc/lv_color.h ****     return color.full;
 386:lvgl/lvgl/src/widgets/../core/../misc/lv_color.h **** #elif LV_COLOR_DEPTH == 32
 387:lvgl/lvgl/src/widgets/../core/../misc/lv_color.h ****     lv_color16_t ret;
 388:lvgl/lvgl/src/widgets/../core/../misc/lv_color.h ****     LV_COLOR_SET_R16(ret, LV_COLOR_GET_R(color) >> 3); /*8 - 5  = 3*/
 389:lvgl/lvgl/src/widgets/../core/../misc/lv_color.h ****     LV_COLOR_SET_G16(ret, LV_COLOR_GET_G(color) >> 2); /*8 - 6  = 2*/
 390:lvgl/lvgl/src/widgets/../core/../misc/lv_color.h ****     LV_COLOR_SET_B16(ret, LV_COLOR_GET_B(color) >> 3); /*8 - 5  = 3*/
 391:lvgl/lvgl/src/widgets/../core/../misc/lv_color.h ****     return ret.full;
 392:lvgl/lvgl/src/widgets/../core/../misc/lv_color.h **** #endif
 393:lvgl/lvgl/src/widgets/../core/../misc/lv_color.h **** }
 394:lvgl/lvgl/src/widgets/../core/../misc/lv_color.h **** 
 395:lvgl/lvgl/src/widgets/../core/../misc/lv_color.h **** static inline uint32_t lv_color_to32(lv_color_t color)
 396:lvgl/lvgl/src/widgets/../core/../misc/lv_color.h **** {
 397:lvgl/lvgl/src/widgets/../core/../misc/lv_color.h **** #if LV_COLOR_DEPTH == 1
 398:lvgl/lvgl/src/widgets/../core/../misc/lv_color.h ****     if(color.full == 0)
 399:lvgl/lvgl/src/widgets/../core/../misc/lv_color.h ****         return 0xFF000000;
 400:lvgl/lvgl/src/widgets/../core/../misc/lv_color.h ****     else
 401:lvgl/lvgl/src/widgets/../core/../misc/lv_color.h ****         return 0xFFFFFFFF;
 402:lvgl/lvgl/src/widgets/../core/../misc/lv_color.h **** #elif LV_COLOR_DEPTH == 8
 403:lvgl/lvgl/src/widgets/../core/../misc/lv_color.h ****     lv_color32_t ret;
 404:lvgl/lvgl/src/widgets/../core/../misc/lv_color.h ****     LV_COLOR_SET_R32(ret, LV_COLOR_GET_R(color) * 36); /*(2^8 - 1)/(2^3 - 1) = 255/7 = 36*/
 405:lvgl/lvgl/src/widgets/../core/../misc/lv_color.h ****     LV_COLOR_SET_G32(ret, LV_COLOR_GET_G(color) * 36); /*(2^8 - 1)/(2^3 - 1) = 255/7 = 36*/
 406:lvgl/lvgl/src/widgets/../core/../misc/lv_color.h ****     LV_COLOR_SET_B32(ret, LV_COLOR_GET_B(color) * 85); /*(2^8 - 1)/(2^2 - 1) = 255/3 = 85*/
 407:lvgl/lvgl/src/widgets/../core/../misc/lv_color.h ****     LV_COLOR_SET_A32(ret, 0xFF);
 408:lvgl/lvgl/src/widgets/../core/../misc/lv_color.h ****     return ret.full;
 409:lvgl/lvgl/src/widgets/../core/../misc/lv_color.h **** #elif LV_COLOR_DEPTH == 16
 410:lvgl/lvgl/src/widgets/../core/../misc/lv_color.h ****     /**
 411:lvgl/lvgl/src/widgets/../core/../misc/lv_color.h ****      * The floating point math for conversion is:
 412:lvgl/lvgl/src/widgets/../core/../misc/lv_color.h ****      *  valueto = valuefrom * ( (2^bitsto - 1) / (float)(2^bitsfrom - 1) )
 413:lvgl/lvgl/src/widgets/../core/../misc/lv_color.h ****      * The faster integer math for conversion is:
 414:lvgl/lvgl/src/widgets/../core/../misc/lv_color.h ****      *  valueto = ( valuefrom * multiplier + adder ) >> divisor
 415:lvgl/lvgl/src/widgets/../core/../misc/lv_color.h ****      *   multiplier = FLOOR( ( (2^bitsto - 1) << divisor ) / (float)(2^bitsfrom - 1) )
 416:lvgl/lvgl/src/widgets/../core/../misc/lv_color.h ****      *
 417:lvgl/lvgl/src/widgets/../core/../misc/lv_color.h ****      * Find the first divisor where ( adder >> divisor ) <= 0
 418:lvgl/lvgl/src/widgets/../core/../misc/lv_color.h ****      *
 419:lvgl/lvgl/src/widgets/../core/../misc/lv_color.h ****      * 5-bit to 8-bit: ( 31 * multiplier + adder ) >> divisor = 255
 420:lvgl/lvgl/src/widgets/../core/../misc/lv_color.h ****      * divisor  multiplier  adder  min (0)  max (31)
 421:lvgl/lvgl/src/widgets/../core/../misc/lv_color.h ****      *       0           8      7        7       255
 422:lvgl/lvgl/src/widgets/../core/../misc/lv_color.h ****      *       1          16     14        7       255
 423:lvgl/lvgl/src/widgets/../core/../misc/lv_color.h ****      *       2          32     28        7       255
 424:lvgl/lvgl/src/widgets/../core/../misc/lv_color.h ****      *       3          65     25        3       255
 425:lvgl/lvgl/src/widgets/../core/../misc/lv_color.h ****      *       4         131     19        1       255
 426:lvgl/lvgl/src/widgets/../core/../misc/lv_color.h ****      *       5         263      7        0       255
 427:lvgl/lvgl/src/widgets/../core/../misc/lv_color.h ****      *
 428:lvgl/lvgl/src/widgets/../core/../misc/lv_color.h ****      * 6-bit to 8-bit: 255 = ( 63 * multiplier + adder ) >> divisor
 429:lvgl/lvgl/src/widgets/../core/../misc/lv_color.h ****      * divisor  multiplier  adder  min (0)  max (63)
 430:lvgl/lvgl/src/widgets/../core/../misc/lv_color.h ****      *       0           4      3        3       255
 431:lvgl/lvgl/src/widgets/../core/../misc/lv_color.h ****      *       1           8      6        3       255
 432:lvgl/lvgl/src/widgets/../core/../misc/lv_color.h ****      *       2          16     12        3       255
 433:lvgl/lvgl/src/widgets/../core/../misc/lv_color.h ****      *       3          32     24        3       255
 434:lvgl/lvgl/src/widgets/../core/../misc/lv_color.h ****      *       4          64     48        3       255
 435:lvgl/lvgl/src/widgets/../core/../misc/lv_color.h ****      *       5         129     33        1       255
 436:lvgl/lvgl/src/widgets/../core/../misc/lv_color.h ****      *       6         259      3        0       255
 437:lvgl/lvgl/src/widgets/../core/../misc/lv_color.h ****      */
 438:lvgl/lvgl/src/widgets/../core/../misc/lv_color.h **** 
ARM GAS  C:\Users\gx\AppData\Local\Temp\ccJLdkpG.s 			page 52


 439:lvgl/lvgl/src/widgets/../core/../misc/lv_color.h ****     lv_color32_t ret;
 440:lvgl/lvgl/src/widgets/../core/../misc/lv_color.h ****     LV_COLOR_SET_R32(ret, (LV_COLOR_GET_R(color) * 263 + 7) >> 5);
 441:lvgl/lvgl/src/widgets/../core/../misc/lv_color.h ****     LV_COLOR_SET_G32(ret, (LV_COLOR_GET_G(color) * 259 + 3) >> 6);
 442:lvgl/lvgl/src/widgets/../core/../misc/lv_color.h ****     LV_COLOR_SET_B32(ret, (LV_COLOR_GET_B(color) * 263 + 7) >> 5);
 443:lvgl/lvgl/src/widgets/../core/../misc/lv_color.h ****     LV_COLOR_SET_A32(ret, 0xFF);
 444:lvgl/lvgl/src/widgets/../core/../misc/lv_color.h ****     return ret.full;
 445:lvgl/lvgl/src/widgets/../core/../misc/lv_color.h **** #elif LV_COLOR_DEPTH == 32
 446:lvgl/lvgl/src/widgets/../core/../misc/lv_color.h ****     return color.full;
 447:lvgl/lvgl/src/widgets/../core/../misc/lv_color.h **** #endif
 448:lvgl/lvgl/src/widgets/../core/../misc/lv_color.h **** }
 449:lvgl/lvgl/src/widgets/../core/../misc/lv_color.h **** 
 450:lvgl/lvgl/src/widgets/../core/../misc/lv_color.h **** //! @cond Doxygen_Suppress
 451:lvgl/lvgl/src/widgets/../core/../misc/lv_color.h **** 
 452:lvgl/lvgl/src/widgets/../core/../misc/lv_color.h **** /**
 453:lvgl/lvgl/src/widgets/../core/../misc/lv_color.h ****  * Mix two colors with a given ratio.
 454:lvgl/lvgl/src/widgets/../core/../misc/lv_color.h ****  * @param c1 the first color to mix (usually the foreground)
 455:lvgl/lvgl/src/widgets/../core/../misc/lv_color.h ****  * @param c2 the second color to mix (usually the background)
 456:lvgl/lvgl/src/widgets/../core/../misc/lv_color.h ****  * @param mix The ratio of the colors. 0: full `c2`, 255: full `c1`, 127: half `c1` and half`c2`
 457:lvgl/lvgl/src/widgets/../core/../misc/lv_color.h ****  * @return the mixed color
 458:lvgl/lvgl/src/widgets/../core/../misc/lv_color.h ****  */
 459:lvgl/lvgl/src/widgets/../core/../misc/lv_color.h **** LV_ATTRIBUTE_FAST_MEM static inline lv_color_t lv_color_mix(lv_color_t c1, lv_color_t c2, uint8_t m
 922              		.loc 3 459 48 discriminator 1 view .LVU272
 923              	.LBB67:
 460:lvgl/lvgl/src/widgets/../core/../misc/lv_color.h **** {
 461:lvgl/lvgl/src/widgets/../core/../misc/lv_color.h ****     lv_color_t ret;
 924              		.loc 3 461 5 discriminator 1 view .LVU273
 462:lvgl/lvgl/src/widgets/../core/../misc/lv_color.h **** 
 463:lvgl/lvgl/src/widgets/../core/../misc/lv_color.h **** #if LV_COLOR_DEPTH == 16 && LV_COLOR_16_SWAP == 0
 464:lvgl/lvgl/src/widgets/../core/../misc/lv_color.h ****     /*Source: https://stackoverflow.com/a/50012418/1999969*/
 465:lvgl/lvgl/src/widgets/../core/../misc/lv_color.h ****     mix = ( mix + 4 ) >> 3;
 925              		.loc 3 465 5 discriminator 1 view .LVU274
 926              		.loc 3 465 17 is_stmt 0 discriminator 1 view .LVU275
 927 00f0 0430     		adds	r0, r0, #4
 928              	.LVL91:
 466:lvgl/lvgl/src/widgets/../core/../misc/lv_color.h ****     uint32_t bg = (uint32_t)((uint32_t)c2.full | ((uint32_t)c2.full << 16)) & 0x7E0F81F; /*0b000001
 929              		.loc 3 466 5 is_stmt 1 discriminator 1 view .LVU276
 930              		.loc 3 466 42 is_stmt 0 discriminator 1 view .LVU277
 931 00f2 BDF81E20 		ldrh	r2, [sp, #30]
 932              	.LVL92:
 933              		.loc 3 466 42 discriminator 1 view .LVU278
 934 00f6 93B2     		uxth	r3, r2
 935              		.loc 3 466 19 discriminator 1 view .LVU279
 936 00f8 43EA0243 		orr	r3, r3, r2, lsl #16
 937              	.LVL93:
 938              		.loc 3 466 14 discriminator 1 view .LVU280
 939 00fc 6949     		ldr	r1, .L57+20
 940 00fe 0B40     		ands	r3, r3, r1
 941              	.LVL94:
 467:lvgl/lvgl/src/widgets/../core/../misc/lv_color.h ****     uint32_t fg = (uint32_t)((uint32_t)c1.full | (uint32_t)(c1.full << 16)) & 0x7E0F81F;
 942              		.loc 3 467 5 is_stmt 1 discriminator 1 view .LVU281
 943              		.loc 3 467 42 is_stmt 0 discriminator 1 view .LVU282
 944 0100 BDF84820 		ldrh	r2, [sp, #72]
 945              		.loc 3 467 19 discriminator 1 view .LVU283
 946 0104 42EA0242 		orr	r2, r2, r2, lsl #16
 947              		.loc 3 467 14 discriminator 1 view .LVU284
 948 0108 0A40     		ands	r2, r2, r1
 949              	.LVL95:
ARM GAS  C:\Users\gx\AppData\Local\Temp\ccJLdkpG.s 			page 53


 468:lvgl/lvgl/src/widgets/../core/../misc/lv_color.h ****     uint32_t result = ((((fg - bg) * mix) >> 5) + bg) & 0x7E0F81F;
 950              		.loc 3 468 5 is_stmt 1 discriminator 1 view .LVU285
 951              		.loc 3 468 30 is_stmt 0 discriminator 1 view .LVU286
 952 010a D21A     		subs	r2, r2, r3
 953              	.LVL96:
 954              		.loc 3 468 36 discriminator 1 view .LVU287
 955 010c C008     		lsrs	r0, r0, #3
 956              	.LVL97:
 957              		.loc 3 468 36 discriminator 1 view .LVU288
 958 010e 02FB00F2 		mul	r2, r2, r0
 959              		.loc 3 468 49 discriminator 1 view .LVU289
 960 0112 03EB5213 		add	r3, r3, r2, lsr #5
 961              	.LVL98:
 962              		.loc 3 468 14 discriminator 1 view .LVU290
 963 0116 1940     		ands	r1, r1, r3
 964              	.LVL99:
 469:lvgl/lvgl/src/widgets/../core/../misc/lv_color.h ****     ret.full = (uint16_t)((result >> 16) | result);
 965              		.loc 3 469 5 is_stmt 1 discriminator 1 view .LVU291
 966              		.loc 3 469 16 is_stmt 0 discriminator 1 view .LVU292
 967 0118 41EA1141 		orr	r1, r1, r1, lsr #16
 968              	.LVL100:
 470:lvgl/lvgl/src/widgets/../core/../misc/lv_color.h **** #elif LV_COLOR_DEPTH != 1
 471:lvgl/lvgl/src/widgets/../core/../misc/lv_color.h ****     /*LV_COLOR_DEPTH == 8, 16 or 32*/
 472:lvgl/lvgl/src/widgets/../core/../misc/lv_color.h ****     LV_COLOR_SET_R(ret, LV_UDIV255((uint16_t) LV_COLOR_GET_R(c1) * mix + LV_COLOR_GET_R(c2) *
 473:lvgl/lvgl/src/widgets/../core/../misc/lv_color.h ****                                         (255 - mix) + LV_COLOR_MIX_ROUND_OFS));
 474:lvgl/lvgl/src/widgets/../core/../misc/lv_color.h ****     LV_COLOR_SET_G(ret, LV_UDIV255((uint16_t) LV_COLOR_GET_G(c1) * mix + LV_COLOR_GET_G(c2) *
 475:lvgl/lvgl/src/widgets/../core/../misc/lv_color.h ****                                         (255 - mix) + LV_COLOR_MIX_ROUND_OFS));
 476:lvgl/lvgl/src/widgets/../core/../misc/lv_color.h ****     LV_COLOR_SET_B(ret, LV_UDIV255((uint16_t) LV_COLOR_GET_B(c1) * mix + LV_COLOR_GET_B(c2) *
 477:lvgl/lvgl/src/widgets/../core/../misc/lv_color.h ****                                         (255 - mix) + LV_COLOR_MIX_ROUND_OFS));
 478:lvgl/lvgl/src/widgets/../core/../misc/lv_color.h ****     LV_COLOR_SET_A(ret, 0xFF);
 479:lvgl/lvgl/src/widgets/../core/../misc/lv_color.h **** #else
 480:lvgl/lvgl/src/widgets/../core/../misc/lv_color.h ****     /*LV_COLOR_DEPTH == 1*/
 481:lvgl/lvgl/src/widgets/../core/../misc/lv_color.h ****     ret.full = mix > LV_OPA_50 ? c1.full : c2.full;
 482:lvgl/lvgl/src/widgets/../core/../misc/lv_color.h **** #endif
 483:lvgl/lvgl/src/widgets/../core/../misc/lv_color.h **** 
 484:lvgl/lvgl/src/widgets/../core/../misc/lv_color.h ****     return ret;
 969              		.loc 3 484 5 is_stmt 1 discriminator 1 view .LVU293
 970              		.loc 3 484 5 is_stmt 0 discriminator 1 view .LVU294
 971              	.LBE67:
 972              	.LBE66:
 195:lvgl/lvgl/src/widgets/lv_canvas.c ****                         lv_img_buf_set_px_color(&canvas->dsc, x + offset_x, y + offset_y, dsc.res.c
 973              		.loc 1 195 70 discriminator 1 view .LVU295
 974 011c ADF84810 		strh	r1, [sp, #72]	@ movhi
 975              	.L43:
 196:lvgl/lvgl/src/widgets/lv_canvas.c ****                     }
 976              		.loc 1 196 25 is_stmt 1 view .LVU296
 977 0120 BDF84830 		ldrh	r3, [sp, #72]
 978 0124 4A46     		mov	r2, r9
 979 0126 4146     		mov	r1, r8
 980 0128 5046     		mov	r0, r10
 981 012a FFF7FEFF 		bl	lv_img_buf_set_px_color
 982              	.LVL101:
 983              	.L40:
 196:lvgl/lvgl/src/widgets/lv_canvas.c ****                     }
 984              		.loc 1 196 25 is_stmt 0 view .LVU297
 985              	.LBE65:
 178:lvgl/lvgl/src/widgets/lv_canvas.c **** 
ARM GAS  C:\Users\gx\AppData\Local\Temp\ccJLdkpG.s 			page 54


 986              		.loc 1 178 55 is_stmt 1 discriminator 2 view .LVU298
 178:lvgl/lvgl/src/widgets/lv_canvas.c **** 
 987              		.loc 1 178 56 is_stmt 0 discriminator 2 view .LVU299
 988 012e 0134     		adds	r4, r4, #1
 989              	.LVL102:
 990              	.L39:
 178:lvgl/lvgl/src/widgets/lv_canvas.c **** 
 991              		.loc 1 178 28 is_stmt 1 discriminator 1 view .LVU300
 178:lvgl/lvgl/src/widgets/lv_canvas.c **** 
 992              		.loc 1 178 43 is_stmt 0 discriminator 1 view .LVU301
 993 0130 731B     		subs	r3, r6, r5
 178:lvgl/lvgl/src/widgets/lv_canvas.c **** 
 994              		.loc 1 178 9 discriminator 1 view .LVU302
 995 0132 A342     		cmp	r3, r4
 996 0134 40F39880 		ble	.L54
 180:lvgl/lvgl/src/widgets/lv_canvas.c **** 
 997              		.loc 1 180 13 is_stmt 1 view .LVU303
 180:lvgl/lvgl/src/widgets/lv_canvas.c **** 
 998              		.loc 1 180 19 is_stmt 0 view .LVU304
 999 0138 0FFA8BF2 		sxth	r2, fp
 1000 013c 21B2     		sxth	r1, r4
 1001 013e 0DA8     		add	r0, sp, #52
 1002 0140 FFF7FEFF 		bl	_lv_img_buf_transform
 1003              	.LVL103:
 182:lvgl/lvgl/src/widgets/lv_canvas.c **** 
 1004              		.loc 1 182 13 is_stmt 1 view .LVU305
 182:lvgl/lvgl/src/widgets/lv_canvas.c **** 
 1005              		.loc 1 182 15 is_stmt 0 view .LVU306
 1006 0144 0028     		cmp	r0, #0
 1007 0146 F2D0     		beq	.L40
 184:lvgl/lvgl/src/widgets/lv_canvas.c ****                 /*If the image has no alpha channel just simple set the result color on the canvas*
 1008              		.loc 1 184 13 is_stmt 1 view .LVU307
 184:lvgl/lvgl/src/widgets/lv_canvas.c ****                 /*If the image has no alpha channel just simple set the result color on the canvas*
 1009              		.loc 1 184 15 is_stmt 0 view .LVU308
 1010 0148 2B19     		adds	r3, r5, r4
 1011 014a F0D4     		bmi	.L40
 184:lvgl/lvgl/src/widgets/lv_canvas.c ****                 /*If the image has no alpha channel just simple set the result color on the canvas*
 1012              		.loc 1 184 34 discriminator 1 view .LVU309
 1013 014c B342     		cmp	r3, r6
 1014 014e EEDA     		bge	.L40
 184:lvgl/lvgl/src/widgets/lv_canvas.c ****                 /*If the image has no alpha channel just simple set the result color on the canvas*
 1015              		.loc 1 184 63 discriminator 2 view .LVU310
 1016 0150 059B     		ldr	r3, [sp, #20]
 1017 0152 13EB0B03 		adds	r3, r3, fp
 1018 0156 EAD4     		bmi	.L40
 184:lvgl/lvgl/src/widgets/lv_canvas.c ****                 /*If the image has no alpha channel just simple set the result color on the canvas*
 1019              		.loc 1 184 84 discriminator 3 view .LVU311
 1020 0158 069A     		ldr	r2, [sp, #24]
 1021 015a 9342     		cmp	r3, r2
 1022 015c E7DA     		bge	.L40
 186:lvgl/lvgl/src/widgets/lv_canvas.c ****                     lv_img_buf_set_px_color(&canvas->dsc, x + offset_x, y + offset_y, dsc.res.color
 1023              		.loc 1 186 17 is_stmt 1 view .LVU312
 186:lvgl/lvgl/src/widgets/lv_canvas.c ****                     lv_img_buf_set_px_color(&canvas->dsc, x + offset_x, y + offset_y, dsc.res.color
 1024              		.loc 1 186 51 is_stmt 0 view .LVU313
 1025 015e 0B9B     		ldr	r3, [sp, #44]
 1026 0160 1878     		ldrb	r0, [r3]	@ zero_extendqisi2
 1027              	.LVL104:
ARM GAS  C:\Users\gx\AppData\Local\Temp\ccJLdkpG.s 			page 55


 186:lvgl/lvgl/src/widgets/lv_canvas.c ****                     lv_img_buf_set_px_color(&canvas->dsc, x + offset_x, y + offset_y, dsc.res.color
 1028              		.loc 1 186 20 view .LVU314
 1029 0162 00F01F00 		and	r0, r0, #31
 1030 0166 FFF7FEFF 		bl	lv_img_cf_has_alpha
 1031              	.LVL105:
 186:lvgl/lvgl/src/widgets/lv_canvas.c ****                     lv_img_buf_set_px_color(&canvas->dsc, x + offset_x, y + offset_y, dsc.res.color
 1032              		.loc 1 186 19 view .LVU315
 1033 016a 0028     		cmp	r0, #0
 1034 016c 9ED1     		bne	.L41
 187:lvgl/lvgl/src/widgets/lv_canvas.c ****                 }
 1035              		.loc 1 187 21 is_stmt 1 view .LVU316
 187:lvgl/lvgl/src/widgets/lv_canvas.c ****                 }
 1036              		.loc 1 187 61 is_stmt 0 view .LVU317
 1037 016e 089B     		ldr	r3, [sp, #32]
 1038 0170 E118     		adds	r1, r4, r3
 187:lvgl/lvgl/src/widgets/lv_canvas.c ****                 }
 1039              		.loc 1 187 75 view .LVU318
 1040 0172 099B     		ldr	r3, [sp, #36]
 1041 0174 0BEB0302 		add	r2, fp, r3
 187:lvgl/lvgl/src/widgets/lv_canvas.c ****                 }
 1042              		.loc 1 187 21 view .LVU319
 1043 0178 BDF84830 		ldrh	r3, [sp, #72]
 1044 017c 12B2     		sxth	r2, r2
 1045 017e 09B2     		sxth	r1, r1
 1046 0180 0A98     		ldr	r0, [sp, #40]
 1047 0182 3C30     		adds	r0, r0, #60
 1048 0184 FFF7FEFF 		bl	lv_img_buf_set_px_color
 1049              	.LVL106:
 1050 0188 D1E7     		b	.L40
 1051              	.L42:
 1052              	.LBB74:
 1053              	.LBB68:
 201:lvgl/lvgl/src/widgets/lv_canvas.c ****                         /*Pick the foreground if it's fully opaque or the Background is fully
 1054              		.loc 1 201 25 is_stmt 1 view .LVU320
 201:lvgl/lvgl/src/widgets/lv_canvas.c ****                         /*Pick the foreground if it's fully opaque or the Background is fully
 1055              		.loc 1 201 43 is_stmt 0 view .LVU321
 1056 018a 4A46     		mov	r2, r9
 1057 018c 4146     		mov	r1, r8
 1058 018e 5046     		mov	r0, r10
 1059 0190 FFF7FEFF 		bl	lv_img_buf_get_px_alpha
 1060              	.LVL107:
 204:lvgl/lvgl/src/widgets/lv_canvas.c ****                             lv_img_buf_set_px_color(&canvas->dsc, x + offset_x, y + offset_y, dsc.r
 1061              		.loc 1 204 25 is_stmt 1 view .LVU322
 204:lvgl/lvgl/src/widgets/lv_canvas.c ****                             lv_img_buf_set_px_color(&canvas->dsc, x + offset_x, y + offset_y, dsc.r
 1062              		.loc 1 204 35 is_stmt 0 view .LVU323
 1063 0194 9DF84A10 		ldrb	r1, [sp, #74]	@ zero_extendqisi2
 204:lvgl/lvgl/src/widgets/lv_canvas.c ****                             lv_img_buf_set_px_color(&canvas->dsc, x + offset_x, y + offset_y, dsc.r
 1064              		.loc 1 204 27 view .LVU324
 1065 0198 FC29     		cmp	r1, #252
 1066 019a 01D8     		bhi	.L45
 204:lvgl/lvgl/src/widgets/lv_canvas.c ****                             lv_img_buf_set_px_color(&canvas->dsc, x + offset_x, y + offset_y, dsc.r
 1067              		.loc 1 204 54 discriminator 1 view .LVU325
 1068 019c 0228     		cmp	r0, #2
 1069 019e 0ED8     		bhi	.L46
 1070              	.L45:
 205:lvgl/lvgl/src/widgets/lv_canvas.c ****                             lv_img_buf_set_px_alpha(&canvas->dsc, x + offset_x, y + offset_y, dsc.r
 1071              		.loc 1 205 29 is_stmt 1 view .LVU326
ARM GAS  C:\Users\gx\AppData\Local\Temp\ccJLdkpG.s 			page 56


 1072 01a0 BDF84830 		ldrh	r3, [sp, #72]
 1073 01a4 4A46     		mov	r2, r9
 1074 01a6 4146     		mov	r1, r8
 1075 01a8 5046     		mov	r0, r10
 1076              	.LVL108:
 205:lvgl/lvgl/src/widgets/lv_canvas.c ****                             lv_img_buf_set_px_alpha(&canvas->dsc, x + offset_x, y + offset_y, dsc.r
 1077              		.loc 1 205 29 is_stmt 0 view .LVU327
 1078 01aa FFF7FEFF 		bl	lv_img_buf_set_px_color
 1079              	.LVL109:
 206:lvgl/lvgl/src/widgets/lv_canvas.c ****                         }
 1080              		.loc 1 206 29 is_stmt 1 view .LVU328
 1081 01ae 9DF84A30 		ldrb	r3, [sp, #74]	@ zero_extendqisi2
 1082 01b2 4A46     		mov	r2, r9
 1083 01b4 4146     		mov	r1, r8
 1084 01b6 5046     		mov	r0, r10
 1085 01b8 FFF7FEFF 		bl	lv_img_buf_set_px_alpha
 1086              	.LVL110:
 1087 01bc B7E7     		b	.L40
 1088              	.LVL111:
 1089              	.L46:
 209:lvgl/lvgl/src/widgets/lv_canvas.c ****                             lv_img_buf_set_px_color(&canvas->dsc, x + offset_x, y + offset_y,
 1090              		.loc 1 209 30 view .LVU329
 209:lvgl/lvgl/src/widgets/lv_canvas.c ****                             lv_img_buf_set_px_color(&canvas->dsc, x + offset_x, y + offset_y,
 1091              		.loc 1 209 32 is_stmt 0 view .LVU330
 1092 01be FC28     		cmp	r0, #252
 1093 01c0 36D8     		bhi	.L55
 1094              	.LBB69:
 218:lvgl/lvgl/src/widgets/lv_canvas.c ****                             if(opa_res_2 == 0) {
 1095              		.loc 1 218 29 is_stmt 1 view .LVU331
 218:lvgl/lvgl/src/widgets/lv_canvas.c ****                             if(opa_res_2 == 0) {
 1096              		.loc 1 218 92 is_stmt 0 view .LVU332
 1097 01c2 8BB2     		uxth	r3, r1
 218:lvgl/lvgl/src/widgets/lv_canvas.c ****                             if(opa_res_2 == 0) {
 1098              		.loc 1 218 68 view .LVU333
 1099 01c4 C1F1FF01 		rsb	r1, r1, #255
 1100 01c8 89B2     		uxth	r1, r1
 218:lvgl/lvgl/src/widgets/lv_canvas.c ****                             if(opa_res_2 == 0) {
 1101              		.loc 1 218 105 view .LVU334
 1102 01ca C0F1FF07 		rsb	r7, r0, #255
 218:lvgl/lvgl/src/widgets/lv_canvas.c ****                             if(opa_res_2 == 0) {
 1103              		.loc 1 218 57 view .LVU335
 1104 01ce 17FB01F7 		smulbb	r7, r7, r1
 218:lvgl/lvgl/src/widgets/lv_canvas.c ****                             if(opa_res_2 == 0) {
 1105              		.loc 1 218 54 view .LVU336
 1106 01d2 C7F30727 		ubfx	r7, r7, #8, #8
 218:lvgl/lvgl/src/widgets/lv_canvas.c ****                             if(opa_res_2 == 0) {
 1107              		.loc 1 218 38 view .LVU337
 1108 01d6 FF43     		mvns	r7, r7
 1109              	.LVL112:
 219:lvgl/lvgl/src/widgets/lv_canvas.c ****                                 opa_res_2 = 1; /*never happens, just to be sure*/
 1110              		.loc 1 219 29 is_stmt 1 view .LVU338
 219:lvgl/lvgl/src/widgets/lv_canvas.c ****                                 opa_res_2 = 1; /*never happens, just to be sure*/
 1111              		.loc 1 219 31 is_stmt 0 view .LVU339
 1112 01d8 17F0FF07 		ands	r7, r7, #255
 1113              	.LVL113:
 219:lvgl/lvgl/src/widgets/lv_canvas.c ****                                 opa_res_2 = 1; /*never happens, just to be sure*/
 1114              		.loc 1 219 31 view .LVU340
ARM GAS  C:\Users\gx\AppData\Local\Temp\ccJLdkpG.s 			page 57


 1115 01dc 00D1     		bne	.L48
 220:lvgl/lvgl/src/widgets/lv_canvas.c ****                             }
 1116              		.loc 1 220 43 view .LVU341
 1117 01de 0127     		movs	r7, #1
 1118              	.L48:
 1119              	.LVL114:
 222:lvgl/lvgl/src/widgets/lv_canvas.c **** 
 1120              		.loc 1 222 29 is_stmt 1 view .LVU342
 222:lvgl/lvgl/src/widgets/lv_canvas.c **** 
 1121              		.loc 1 222 46 is_stmt 0 view .LVU343
 1122 01e0 C3EB0323 		rsb	r3, r3, r3, lsl #8
 1123 01e4 9BB2     		uxth	r3, r3
 222:lvgl/lvgl/src/widgets/lv_canvas.c **** 
 1124              		.loc 1 222 86 view .LVU344
 1125 01e6 93FBF7F3 		sdiv	r3, r3, r7
 1126              	.LVL115:
 224:lvgl/lvgl/src/widgets/lv_canvas.c ****                                                     lv_color_mix(dsc.res.color, bg_color, ratio));
 1127              		.loc 1 224 29 is_stmt 1 view .LVU345
 1128              	.LBB70:
 1129              	.LBI70:
 459:lvgl/lvgl/src/widgets/../core/../misc/lv_color.h **** {
 1130              		.loc 3 459 48 view .LVU346
 1131              	.LBB71:
 461:lvgl/lvgl/src/widgets/../core/../misc/lv_color.h **** 
 1132              		.loc 3 461 5 view .LVU347
 465:lvgl/lvgl/src/widgets/../core/../misc/lv_color.h ****     uint32_t bg = (uint32_t)((uint32_t)c2.full | ((uint32_t)c2.full << 16)) & 0x7E0F81F; /*0b000001
 1133              		.loc 3 465 5 view .LVU348
 465:lvgl/lvgl/src/widgets/../core/../misc/lv_color.h ****     uint32_t bg = (uint32_t)((uint32_t)c2.full | ((uint32_t)c2.full << 16)) & 0x7E0F81F; /*0b000001
 1134              		.loc 3 465 17 is_stmt 0 view .LVU349
 1135 01ea DBB2     		uxtb	r3, r3
 465:lvgl/lvgl/src/widgets/../core/../misc/lv_color.h ****     uint32_t bg = (uint32_t)((uint32_t)c2.full | ((uint32_t)c2.full << 16)) & 0x7E0F81F; /*0b000001
 1136              		.loc 3 465 17 view .LVU350
 1137 01ec 0433     		adds	r3, r3, #4
 1138              	.LVL116:
 466:lvgl/lvgl/src/widgets/../core/../misc/lv_color.h ****     uint32_t fg = (uint32_t)((uint32_t)c1.full | (uint32_t)(c1.full << 16)) & 0x7E0F81F;
 1139              		.loc 3 466 5 is_stmt 1 view .LVU351
 466:lvgl/lvgl/src/widgets/../core/../misc/lv_color.h ****     uint32_t fg = (uint32_t)((uint32_t)c1.full | (uint32_t)(c1.full << 16)) & 0x7E0F81F;
 1140              		.loc 3 466 42 is_stmt 0 view .LVU352
 1141 01ee BDF81E10 		ldrh	r1, [sp, #30]
 1142              	.LVL117:
 466:lvgl/lvgl/src/widgets/../core/../misc/lv_color.h ****     uint32_t fg = (uint32_t)((uint32_t)c1.full | (uint32_t)(c1.full << 16)) & 0x7E0F81F;
 1143              		.loc 3 466 42 view .LVU353
 1144 01f2 8AB2     		uxth	r2, r1
 466:lvgl/lvgl/src/widgets/../core/../misc/lv_color.h ****     uint32_t fg = (uint32_t)((uint32_t)c1.full | (uint32_t)(c1.full << 16)) & 0x7E0F81F;
 1145              		.loc 3 466 19 view .LVU354
 1146 01f4 42EA0142 		orr	r2, r2, r1, lsl #16
 1147              	.LVL118:
 466:lvgl/lvgl/src/widgets/../core/../misc/lv_color.h ****     uint32_t fg = (uint32_t)((uint32_t)c1.full | (uint32_t)(c1.full << 16)) & 0x7E0F81F;
 1148              		.loc 3 466 14 view .LVU355
 1149 01f8 2A48     		ldr	r0, .L57+20
 1150              	.LVL119:
 466:lvgl/lvgl/src/widgets/../core/../misc/lv_color.h ****     uint32_t fg = (uint32_t)((uint32_t)c1.full | (uint32_t)(c1.full << 16)) & 0x7E0F81F;
 1151              		.loc 3 466 14 view .LVU356
 1152 01fa 0240     		ands	r2, r2, r0
 1153              	.LVL120:
 467:lvgl/lvgl/src/widgets/../core/../misc/lv_color.h ****     uint32_t result = ((((fg - bg) * mix) >> 5) + bg) & 0x7E0F81F;
 1154              		.loc 3 467 5 is_stmt 1 view .LVU357
ARM GAS  C:\Users\gx\AppData\Local\Temp\ccJLdkpG.s 			page 58


 467:lvgl/lvgl/src/widgets/../core/../misc/lv_color.h ****     uint32_t result = ((((fg - bg) * mix) >> 5) + bg) & 0x7E0F81F;
 1155              		.loc 3 467 42 is_stmt 0 view .LVU358
 1156 01fc BDF84810 		ldrh	r1, [sp, #72]
 467:lvgl/lvgl/src/widgets/../core/../misc/lv_color.h ****     uint32_t result = ((((fg - bg) * mix) >> 5) + bg) & 0x7E0F81F;
 1157              		.loc 3 467 19 view .LVU359
 1158 0200 41EA0141 		orr	r1, r1, r1, lsl #16
 467:lvgl/lvgl/src/widgets/../core/../misc/lv_color.h ****     uint32_t result = ((((fg - bg) * mix) >> 5) + bg) & 0x7E0F81F;
 1159              		.loc 3 467 14 view .LVU360
 1160 0204 0140     		ands	r1, r1, r0
 1161              	.LVL121:
 468:lvgl/lvgl/src/widgets/../core/../misc/lv_color.h ****     ret.full = (uint16_t)((result >> 16) | result);
 1162              		.loc 3 468 5 is_stmt 1 view .LVU361
 468:lvgl/lvgl/src/widgets/../core/../misc/lv_color.h ****     ret.full = (uint16_t)((result >> 16) | result);
 1163              		.loc 3 468 30 is_stmt 0 view .LVU362
 1164 0206 891A     		subs	r1, r1, r2
 1165              	.LVL122:
 468:lvgl/lvgl/src/widgets/../core/../misc/lv_color.h ****     ret.full = (uint16_t)((result >> 16) | result);
 1166              		.loc 3 468 36 view .LVU363
 1167 0208 DB08     		lsrs	r3, r3, #3
 1168              	.LVL123:
 468:lvgl/lvgl/src/widgets/../core/../misc/lv_color.h ****     ret.full = (uint16_t)((result >> 16) | result);
 1169              		.loc 3 468 36 view .LVU364
 1170 020a 01FB03F3 		mul	r3, r1, r3
 468:lvgl/lvgl/src/widgets/../core/../misc/lv_color.h ****     ret.full = (uint16_t)((result >> 16) | result);
 1171              		.loc 3 468 49 view .LVU365
 1172 020e 02EB5313 		add	r3, r2, r3, lsr #5
 468:lvgl/lvgl/src/widgets/../core/../misc/lv_color.h ****     ret.full = (uint16_t)((result >> 16) | result);
 1173              		.loc 3 468 14 view .LVU366
 1174 0212 0340     		ands	r3, r3, r0
 1175              	.LVL124:
 469:lvgl/lvgl/src/widgets/../core/../misc/lv_color.h **** #elif LV_COLOR_DEPTH != 1
 1176              		.loc 3 469 5 is_stmt 1 view .LVU367
 1177              		.loc 3 484 5 view .LVU368
 1178              		.loc 3 484 5 is_stmt 0 view .LVU369
 1179              	.LBE71:
 1180              	.LBE70:
 224:lvgl/lvgl/src/widgets/lv_canvas.c ****                                                     lv_color_mix(dsc.res.color, bg_color, ratio));
 1181              		.loc 1 224 29 view .LVU370
 1182 0214 43EA1343 		orr	r3, r3, r3, lsr #16
 1183 0218 4A46     		mov	r2, r9
 1184 021a 4146     		mov	r1, r8
 1185 021c 5046     		mov	r0, r10
 1186 021e FFF7FEFF 		bl	lv_img_buf_set_px_color
 1187              	.LVL125:
 226:lvgl/lvgl/src/widgets/lv_canvas.c ****                         }
 1188              		.loc 1 226 29 is_stmt 1 view .LVU371
 1189 0222 3B46     		mov	r3, r7
 1190 0224 4A46     		mov	r2, r9
 1191 0226 4146     		mov	r1, r8
 1192 0228 5046     		mov	r0, r10
 1193 022a FFF7FEFF 		bl	lv_img_buf_set_px_alpha
 1194              	.LVL126:
 1195 022e 7EE7     		b	.L40
 1196              	.LVL127:
 1197              	.L55:
 226:lvgl/lvgl/src/widgets/lv_canvas.c ****                         }
 1198              		.loc 1 226 29 is_stmt 0 view .LVU372
ARM GAS  C:\Users\gx\AppData\Local\Temp\ccJLdkpG.s 			page 59


 1199              	.LBE69:
 210:lvgl/lvgl/src/widgets/lv_canvas.c ****                                                     lv_color_mix(dsc.res.color, bg_color, dsc.res.o
 1200              		.loc 1 210 29 is_stmt 1 view .LVU373
 1201              	.LBB72:
 1202              	.LBI72:
 459:lvgl/lvgl/src/widgets/../core/../misc/lv_color.h **** {
 1203              		.loc 3 459 48 view .LVU374
 1204              	.LBB73:
 461:lvgl/lvgl/src/widgets/../core/../misc/lv_color.h **** 
 1205              		.loc 3 461 5 view .LVU375
 465:lvgl/lvgl/src/widgets/../core/../misc/lv_color.h ****     uint32_t bg = (uint32_t)((uint32_t)c2.full | ((uint32_t)c2.full << 16)) & 0x7E0F81F; /*0b000001
 1206              		.loc 3 465 5 view .LVU376
 465:lvgl/lvgl/src/widgets/../core/../misc/lv_color.h ****     uint32_t bg = (uint32_t)((uint32_t)c2.full | ((uint32_t)c2.full << 16)) & 0x7E0F81F; /*0b000001
 1207              		.loc 3 465 17 is_stmt 0 view .LVU377
 1208 0230 0B1D     		adds	r3, r1, #4
 1209              	.LVL128:
 466:lvgl/lvgl/src/widgets/../core/../misc/lv_color.h ****     uint32_t fg = (uint32_t)((uint32_t)c1.full | (uint32_t)(c1.full << 16)) & 0x7E0F81F;
 1210              		.loc 3 466 5 is_stmt 1 view .LVU378
 466:lvgl/lvgl/src/widgets/../core/../misc/lv_color.h ****     uint32_t fg = (uint32_t)((uint32_t)c1.full | (uint32_t)(c1.full << 16)) & 0x7E0F81F;
 1211              		.loc 3 466 42 is_stmt 0 view .LVU379
 1212 0232 BDF81E10 		ldrh	r1, [sp, #30]
 1213              	.LVL129:
 466:lvgl/lvgl/src/widgets/../core/../misc/lv_color.h ****     uint32_t fg = (uint32_t)((uint32_t)c1.full | (uint32_t)(c1.full << 16)) & 0x7E0F81F;
 1214              		.loc 3 466 42 view .LVU380
 1215 0236 8AB2     		uxth	r2, r1
 466:lvgl/lvgl/src/widgets/../core/../misc/lv_color.h ****     uint32_t fg = (uint32_t)((uint32_t)c1.full | (uint32_t)(c1.full << 16)) & 0x7E0F81F;
 1216              		.loc 3 466 19 view .LVU381
 1217 0238 42EA0142 		orr	r2, r2, r1, lsl #16
 1218              	.LVL130:
 466:lvgl/lvgl/src/widgets/../core/../misc/lv_color.h ****     uint32_t fg = (uint32_t)((uint32_t)c1.full | (uint32_t)(c1.full << 16)) & 0x7E0F81F;
 1219              		.loc 3 466 14 view .LVU382
 1220 023c 1948     		ldr	r0, .L57+20
 1221              	.LVL131:
 466:lvgl/lvgl/src/widgets/../core/../misc/lv_color.h ****     uint32_t fg = (uint32_t)((uint32_t)c1.full | (uint32_t)(c1.full << 16)) & 0x7E0F81F;
 1222              		.loc 3 466 14 view .LVU383
 1223 023e 0240     		ands	r2, r2, r0
 1224              	.LVL132:
 467:lvgl/lvgl/src/widgets/../core/../misc/lv_color.h ****     uint32_t result = ((((fg - bg) * mix) >> 5) + bg) & 0x7E0F81F;
 1225              		.loc 3 467 5 is_stmt 1 view .LVU384
 467:lvgl/lvgl/src/widgets/../core/../misc/lv_color.h ****     uint32_t result = ((((fg - bg) * mix) >> 5) + bg) & 0x7E0F81F;
 1226              		.loc 3 467 42 is_stmt 0 view .LVU385
 1227 0240 BDF84810 		ldrh	r1, [sp, #72]
 467:lvgl/lvgl/src/widgets/../core/../misc/lv_color.h ****     uint32_t result = ((((fg - bg) * mix) >> 5) + bg) & 0x7E0F81F;
 1228              		.loc 3 467 19 view .LVU386
 1229 0244 41EA0141 		orr	r1, r1, r1, lsl #16
 467:lvgl/lvgl/src/widgets/../core/../misc/lv_color.h ****     uint32_t result = ((((fg - bg) * mix) >> 5) + bg) & 0x7E0F81F;
 1230              		.loc 3 467 14 view .LVU387
 1231 0248 0140     		ands	r1, r1, r0
 1232              	.LVL133:
 468:lvgl/lvgl/src/widgets/../core/../misc/lv_color.h ****     ret.full = (uint16_t)((result >> 16) | result);
 1233              		.loc 3 468 5 is_stmt 1 view .LVU388
 468:lvgl/lvgl/src/widgets/../core/../misc/lv_color.h ****     ret.full = (uint16_t)((result >> 16) | result);
 1234              		.loc 3 468 30 is_stmt 0 view .LVU389
 1235 024a 891A     		subs	r1, r1, r2
 1236              	.LVL134:
 468:lvgl/lvgl/src/widgets/../core/../misc/lv_color.h ****     ret.full = (uint16_t)((result >> 16) | result);
 1237              		.loc 3 468 36 view .LVU390
ARM GAS  C:\Users\gx\AppData\Local\Temp\ccJLdkpG.s 			page 60


 1238 024c DB08     		lsrs	r3, r3, #3
 1239              	.LVL135:
 468:lvgl/lvgl/src/widgets/../core/../misc/lv_color.h ****     ret.full = (uint16_t)((result >> 16) | result);
 1240              		.loc 3 468 36 view .LVU391
 1241 024e 01FB03F3 		mul	r3, r1, r3
 468:lvgl/lvgl/src/widgets/../core/../misc/lv_color.h ****     ret.full = (uint16_t)((result >> 16) | result);
 1242              		.loc 3 468 49 view .LVU392
 1243 0252 02EB5313 		add	r3, r2, r3, lsr #5
 468:lvgl/lvgl/src/widgets/../core/../misc/lv_color.h ****     ret.full = (uint16_t)((result >> 16) | result);
 1244              		.loc 3 468 14 view .LVU393
 1245 0256 0340     		ands	r3, r3, r0
 1246              	.LVL136:
 469:lvgl/lvgl/src/widgets/../core/../misc/lv_color.h **** #elif LV_COLOR_DEPTH != 1
 1247              		.loc 3 469 5 is_stmt 1 view .LVU394
 1248              		.loc 3 484 5 view .LVU395
 1249              		.loc 3 484 5 is_stmt 0 view .LVU396
 1250              	.LBE73:
 1251              	.LBE72:
 210:lvgl/lvgl/src/widgets/lv_canvas.c ****                                                     lv_color_mix(dsc.res.color, bg_color, dsc.res.o
 1252              		.loc 1 210 29 view .LVU397
 1253 0258 43EA1343 		orr	r3, r3, r3, lsr #16
 1254 025c 4A46     		mov	r2, r9
 1255 025e 4146     		mov	r1, r8
 1256 0260 5046     		mov	r0, r10
 1257 0262 FFF7FEFF 		bl	lv_img_buf_set_px_color
 1258              	.LVL137:
 1259 0266 62E7     		b	.L40
 1260              	.L54:
 210:lvgl/lvgl/src/widgets/lv_canvas.c ****                                                     lv_color_mix(dsc.res.color, bg_color, dsc.res.o
 1261              		.loc 1 210 29 view .LVU398
 1262              	.LBE68:
 1263              	.LBE74:
 177:lvgl/lvgl/src/widgets/lv_canvas.c ****         for(x = -offset_x; x < dest_width - offset_x; x++) {
 1264              		.loc 1 177 52 is_stmt 1 discriminator 2 view .LVU399
 177:lvgl/lvgl/src/widgets/lv_canvas.c ****         for(x = -offset_x; x < dest_width - offset_x; x++) {
 1265              		.loc 1 177 53 is_stmt 0 discriminator 2 view .LVU400
 1266 0268 0BF1010B 		add	fp, fp, #1
 1267              	.LVL138:
 1268              	.L38:
 177:lvgl/lvgl/src/widgets/lv_canvas.c ****         for(x = -offset_x; x < dest_width - offset_x; x++) {
 1269              		.loc 1 177 24 is_stmt 1 discriminator 1 view .LVU401
 177:lvgl/lvgl/src/widgets/lv_canvas.c ****         for(x = -offset_x; x < dest_width - offset_x; x++) {
 1270              		.loc 1 177 40 is_stmt 0 discriminator 1 view .LVU402
 1271 026c 069B     		ldr	r3, [sp, #24]
 1272 026e 059A     		ldr	r2, [sp, #20]
 1273 0270 9B1A     		subs	r3, r3, r2
 177:lvgl/lvgl/src/widgets/lv_canvas.c ****         for(x = -offset_x; x < dest_width - offset_x; x++) {
 1274              		.loc 1 177 5 discriminator 1 view .LVU403
 1275 0272 5B45     		cmp	r3, fp
 1276 0274 03DD     		ble	.L56
 178:lvgl/lvgl/src/widgets/lv_canvas.c **** 
 1277              		.loc 1 178 9 is_stmt 1 view .LVU404
 178:lvgl/lvgl/src/widgets/lv_canvas.c **** 
 1278              		.loc 1 178 17 is_stmt 0 view .LVU405
 1279 0276 089B     		ldr	r3, [sp, #32]
 1280 0278 1D46     		mov	r5, r3
 178:lvgl/lvgl/src/widgets/lv_canvas.c **** 
ARM GAS  C:\Users\gx\AppData\Local\Temp\ccJLdkpG.s 			page 61


 1281              		.loc 1 178 15 view .LVU406
 1282 027a 5C42     		rsbs	r4, r3, #0
 1283              	.LVL139:
 178:lvgl/lvgl/src/widgets/lv_canvas.c **** 
 1284              		.loc 1 178 9 view .LVU407
 1285 027c 58E7     		b	.L39
 1286              	.LVL140:
 1287              	.L56:
 178:lvgl/lvgl/src/widgets/lv_canvas.c **** 
 1288              		.loc 1 178 9 view .LVU408
 1289 027e DDF828B0 		ldr	fp, [sp, #40]
 1290              	.LVL141:
 234:lvgl/lvgl/src/widgets/lv_canvas.c **** #else
 1291              		.loc 1 234 5 is_stmt 1 view .LVU409
 1292 0282 5846     		mov	r0, fp
 1293 0284 FFF7FEFF 		bl	lv_obj_invalidate
 1294              	.LVL142:
 247:lvgl/lvgl/src/widgets/lv_canvas.c **** 
 1295              		.loc 1 247 1 is_stmt 0 view .LVU410
 1296 0288 21B0     		add	sp, sp, #132
 1297              	.LCFI16:
 1298              		.cfi_def_cfa_offset 36
 1299              		@ sp needed
 1300 028a BDE8F08F 		pop	{r4, r5, r6, r7, r8, r9, r10, fp, pc}
 1301              	.LVL143:
 1302              	.L58:
 247:lvgl/lvgl/src/widgets/lv_canvas.c **** 
 1303              		.loc 1 247 1 view .LVU411
 1304 028e 00BF     		.align	2
 1305              	.L57:
 1306 0290 24000000 		.word	.LC1
 1307 0294 00000000 		.word	.LC6
 1308 0298 40000000 		.word	.LC3
 1309 029c 00000000 		.word	.LANCHOR3
 1310 02a0 00000000 		.word	.LC0
 1311 02a4 1FF8E007 		.word	132184095
 1312              		.cfi_endproc
 1313              	.LFE159:
 1315              		.section	.text.lv_canvas_blur_hor,"ax",%progbits
 1316              		.align	1
 1317              		.global	lv_canvas_blur_hor
 1318              		.syntax unified
 1319              		.thumb
 1320              		.thumb_func
 1321              		.fpu fpv4-sp-d16
 1323              	lv_canvas_blur_hor:
 1324              	.LVL144:
 1325              	.LFB160:
 250:lvgl/lvgl/src/widgets/lv_canvas.c ****     LV_ASSERT_OBJ(obj, MY_CLASS);
 1326              		.loc 1 250 1 is_stmt 1 view -0
 1327              		.cfi_startproc
 1328              		@ args = 0, pretend = 0, frame = 72
 1329              		@ frame_needed = 0, uses_anonymous_args = 0
 250:lvgl/lvgl/src/widgets/lv_canvas.c ****     LV_ASSERT_OBJ(obj, MY_CLASS);
 1330              		.loc 1 250 1 is_stmt 0 view .LVU413
 1331 0000 2DE9F04F 		push	{r4, r5, r6, r7, r8, r9, r10, fp, lr}
 1332              	.LCFI17:
ARM GAS  C:\Users\gx\AppData\Local\Temp\ccJLdkpG.s 			page 62


 1333              		.cfi_def_cfa_offset 36
 1334              		.cfi_offset 4, -36
 1335              		.cfi_offset 5, -32
 1336              		.cfi_offset 6, -28
 1337              		.cfi_offset 7, -24
 1338              		.cfi_offset 8, -20
 1339              		.cfi_offset 9, -16
 1340              		.cfi_offset 10, -12
 1341              		.cfi_offset 11, -8
 1342              		.cfi_offset 14, -4
 1343 0004 93B0     		sub	sp, sp, #76
 1344              	.LCFI18:
 1345              		.cfi_def_cfa_offset 112
 251:lvgl/lvgl/src/widgets/lv_canvas.c **** 
 1346              		.loc 1 251 5 is_stmt 1 view .LVU414
 251:lvgl/lvgl/src/widgets/lv_canvas.c **** 
 1347              		.loc 1 251 5 view .LVU415
 251:lvgl/lvgl/src/widgets/lv_canvas.c **** 
 1348              		.loc 1 251 5 view .LVU416
 253:lvgl/lvgl/src/widgets/lv_canvas.c **** 
 1349              		.loc 1 253 5 view .LVU417
 253:lvgl/lvgl/src/widgets/lv_canvas.c **** 
 1350              		.loc 1 253 7 is_stmt 0 view .LVU418
 1351 0006 0892     		str	r2, [sp, #32]
 1352 0008 002A     		cmp	r2, #0
 1353 000a 00F08681 		beq	.L59
 1354 000e 8146     		mov	r9, r0
 255:lvgl/lvgl/src/widgets/lv_canvas.c **** 
 1355              		.loc 1 255 5 is_stmt 1 view .LVU419
 1356              	.LVL145:
 257:lvgl/lvgl/src/widgets/lv_canvas.c ****     if(area) {
 1357              		.loc 1 257 5 view .LVU420
 258:lvgl/lvgl/src/widgets/lv_canvas.c ****         lv_area_copy(&a, area);
 1358              		.loc 1 258 5 view .LVU421
 258:lvgl/lvgl/src/widgets/lv_canvas.c ****         lv_area_copy(&a, area);
 1359              		.loc 1 258 7 is_stmt 0 view .LVU422
 1360 0010 0029     		cmp	r1, #0
 1361 0012 75D0     		beq	.L62
 259:lvgl/lvgl/src/widgets/lv_canvas.c ****         if(a.x1 < 0) a.x1 = 0;
 1362              		.loc 1 259 9 is_stmt 1 view .LVU423
 1363              	.LVL146:
 1364              	.LBB75:
 1365              	.LBI75:
 1366              		.file 4 "d:\\practise\\f407_disc\\lvgl\\lvgl\\src\\misc\\lv_area.h"
   1:d:\practise\f407_disc\lvgl\lvgl\src\misc\lv_area.h **** /**
   2:d:\practise\f407_disc\lvgl\lvgl\src\misc\lv_area.h ****  * @file lv_area.h
   3:d:\practise\f407_disc\lvgl\lvgl\src\misc\lv_area.h ****  *
   4:d:\practise\f407_disc\lvgl\lvgl\src\misc\lv_area.h ****  */
   5:d:\practise\f407_disc\lvgl\lvgl\src\misc\lv_area.h **** 
   6:d:\practise\f407_disc\lvgl\lvgl\src\misc\lv_area.h **** #ifndef LV_AREA_H
   7:d:\practise\f407_disc\lvgl\lvgl\src\misc\lv_area.h **** #define LV_AREA_H
   8:d:\practise\f407_disc\lvgl\lvgl\src\misc\lv_area.h **** 
   9:d:\practise\f407_disc\lvgl\lvgl\src\misc\lv_area.h **** #ifdef __cplusplus
  10:d:\practise\f407_disc\lvgl\lvgl\src\misc\lv_area.h **** extern "C" {
  11:d:\practise\f407_disc\lvgl\lvgl\src\misc\lv_area.h **** #endif
  12:d:\practise\f407_disc\lvgl\lvgl\src\misc\lv_area.h **** 
  13:d:\practise\f407_disc\lvgl\lvgl\src\misc\lv_area.h **** /*********************
ARM GAS  C:\Users\gx\AppData\Local\Temp\ccJLdkpG.s 			page 63


  14:d:\practise\f407_disc\lvgl\lvgl\src\misc\lv_area.h ****  *      INCLUDES
  15:d:\practise\f407_disc\lvgl\lvgl\src\misc\lv_area.h ****  *********************/
  16:d:\practise\f407_disc\lvgl\lvgl\src\misc\lv_area.h **** #include "../lv_conf_internal.h"
  17:d:\practise\f407_disc\lvgl\lvgl\src\misc\lv_area.h **** #include <string.h>
  18:d:\practise\f407_disc\lvgl\lvgl\src\misc\lv_area.h **** #include <stdbool.h>
  19:d:\practise\f407_disc\lvgl\lvgl\src\misc\lv_area.h **** #include <stdint.h>
  20:d:\practise\f407_disc\lvgl\lvgl\src\misc\lv_area.h **** 
  21:d:\practise\f407_disc\lvgl\lvgl\src\misc\lv_area.h **** /*********************
  22:d:\practise\f407_disc\lvgl\lvgl\src\misc\lv_area.h ****  *      DEFINES
  23:d:\practise\f407_disc\lvgl\lvgl\src\misc\lv_area.h ****  *********************/
  24:d:\practise\f407_disc\lvgl\lvgl\src\misc\lv_area.h **** 
  25:d:\practise\f407_disc\lvgl\lvgl\src\misc\lv_area.h **** #define _LV_COORD_MAX_REDUCE    8192
  26:d:\practise\f407_disc\lvgl\lvgl\src\misc\lv_area.h **** 
  27:d:\practise\f407_disc\lvgl\lvgl\src\misc\lv_area.h **** #if LV_USE_LARGE_COORD
  28:d:\practise\f407_disc\lvgl\lvgl\src\misc\lv_area.h **** typedef int32_t lv_coord_t;
  29:d:\practise\f407_disc\lvgl\lvgl\src\misc\lv_area.h **** #else
  30:d:\practise\f407_disc\lvgl\lvgl\src\misc\lv_area.h **** typedef int16_t lv_coord_t;
  31:d:\practise\f407_disc\lvgl\lvgl\src\misc\lv_area.h **** #endif
  32:d:\practise\f407_disc\lvgl\lvgl\src\misc\lv_area.h **** 
  33:d:\practise\f407_disc\lvgl\lvgl\src\misc\lv_area.h **** /*To allow some special values in the end reduce the max value*/
  34:d:\practise\f407_disc\lvgl\lvgl\src\misc\lv_area.h **** #define LV_COORD_MAX ((lv_coord_t)((uint32_t)((uint32_t)1 << (8 * sizeof(lv_coord_t) - 1)) - _LV_CO
  35:d:\practise\f407_disc\lvgl\lvgl\src\misc\lv_area.h **** #define LV_COORD_MIN (-LV_COORD_MAX)
  36:d:\practise\f407_disc\lvgl\lvgl\src\misc\lv_area.h **** 
  37:d:\practise\f407_disc\lvgl\lvgl\src\misc\lv_area.h **** LV_EXPORT_CONST_INT(LV_COORD_MAX);
  38:d:\practise\f407_disc\lvgl\lvgl\src\misc\lv_area.h **** LV_EXPORT_CONST_INT(LV_COORD_MIN);
  39:d:\practise\f407_disc\lvgl\lvgl\src\misc\lv_area.h **** 
  40:d:\practise\f407_disc\lvgl\lvgl\src\misc\lv_area.h **** /**********************
  41:d:\practise\f407_disc\lvgl\lvgl\src\misc\lv_area.h ****  *      TYPEDEFS
  42:d:\practise\f407_disc\lvgl\lvgl\src\misc\lv_area.h ****  **********************/
  43:d:\practise\f407_disc\lvgl\lvgl\src\misc\lv_area.h **** 
  44:d:\practise\f407_disc\lvgl\lvgl\src\misc\lv_area.h **** /**
  45:d:\practise\f407_disc\lvgl\lvgl\src\misc\lv_area.h ****  * Represents a point on the screen.
  46:d:\practise\f407_disc\lvgl\lvgl\src\misc\lv_area.h ****  */
  47:d:\practise\f407_disc\lvgl\lvgl\src\misc\lv_area.h **** typedef struct {
  48:d:\practise\f407_disc\lvgl\lvgl\src\misc\lv_area.h ****     lv_coord_t x;
  49:d:\practise\f407_disc\lvgl\lvgl\src\misc\lv_area.h ****     lv_coord_t y;
  50:d:\practise\f407_disc\lvgl\lvgl\src\misc\lv_area.h **** } lv_point_t;
  51:d:\practise\f407_disc\lvgl\lvgl\src\misc\lv_area.h **** 
  52:d:\practise\f407_disc\lvgl\lvgl\src\misc\lv_area.h **** /** Represents an area of the screen.*/
  53:d:\practise\f407_disc\lvgl\lvgl\src\misc\lv_area.h **** typedef struct {
  54:d:\practise\f407_disc\lvgl\lvgl\src\misc\lv_area.h ****     lv_coord_t x1;
  55:d:\practise\f407_disc\lvgl\lvgl\src\misc\lv_area.h ****     lv_coord_t y1;
  56:d:\practise\f407_disc\lvgl\lvgl\src\misc\lv_area.h ****     lv_coord_t x2;
  57:d:\practise\f407_disc\lvgl\lvgl\src\misc\lv_area.h ****     lv_coord_t y2;
  58:d:\practise\f407_disc\lvgl\lvgl\src\misc\lv_area.h **** } lv_area_t;
  59:d:\practise\f407_disc\lvgl\lvgl\src\misc\lv_area.h **** 
  60:d:\practise\f407_disc\lvgl\lvgl\src\misc\lv_area.h **** /** Alignments*/
  61:d:\practise\f407_disc\lvgl\lvgl\src\misc\lv_area.h **** enum {
  62:d:\practise\f407_disc\lvgl\lvgl\src\misc\lv_area.h ****     LV_ALIGN_DEFAULT = 0,
  63:d:\practise\f407_disc\lvgl\lvgl\src\misc\lv_area.h ****     LV_ALIGN_TOP_LEFT,
  64:d:\practise\f407_disc\lvgl\lvgl\src\misc\lv_area.h ****     LV_ALIGN_TOP_MID,
  65:d:\practise\f407_disc\lvgl\lvgl\src\misc\lv_area.h ****     LV_ALIGN_TOP_RIGHT,
  66:d:\practise\f407_disc\lvgl\lvgl\src\misc\lv_area.h ****     LV_ALIGN_BOTTOM_LEFT,
  67:d:\practise\f407_disc\lvgl\lvgl\src\misc\lv_area.h ****     LV_ALIGN_BOTTOM_MID,
  68:d:\practise\f407_disc\lvgl\lvgl\src\misc\lv_area.h ****     LV_ALIGN_BOTTOM_RIGHT,
  69:d:\practise\f407_disc\lvgl\lvgl\src\misc\lv_area.h ****     LV_ALIGN_LEFT_MID,
  70:d:\practise\f407_disc\lvgl\lvgl\src\misc\lv_area.h ****     LV_ALIGN_RIGHT_MID,
ARM GAS  C:\Users\gx\AppData\Local\Temp\ccJLdkpG.s 			page 64


  71:d:\practise\f407_disc\lvgl\lvgl\src\misc\lv_area.h ****     LV_ALIGN_CENTER,
  72:d:\practise\f407_disc\lvgl\lvgl\src\misc\lv_area.h **** 
  73:d:\practise\f407_disc\lvgl\lvgl\src\misc\lv_area.h ****     LV_ALIGN_OUT_TOP_LEFT,
  74:d:\practise\f407_disc\lvgl\lvgl\src\misc\lv_area.h ****     LV_ALIGN_OUT_TOP_MID,
  75:d:\practise\f407_disc\lvgl\lvgl\src\misc\lv_area.h ****     LV_ALIGN_OUT_TOP_RIGHT,
  76:d:\practise\f407_disc\lvgl\lvgl\src\misc\lv_area.h ****     LV_ALIGN_OUT_BOTTOM_LEFT,
  77:d:\practise\f407_disc\lvgl\lvgl\src\misc\lv_area.h ****     LV_ALIGN_OUT_BOTTOM_MID,
  78:d:\practise\f407_disc\lvgl\lvgl\src\misc\lv_area.h ****     LV_ALIGN_OUT_BOTTOM_RIGHT,
  79:d:\practise\f407_disc\lvgl\lvgl\src\misc\lv_area.h ****     LV_ALIGN_OUT_LEFT_TOP,
  80:d:\practise\f407_disc\lvgl\lvgl\src\misc\lv_area.h ****     LV_ALIGN_OUT_LEFT_MID,
  81:d:\practise\f407_disc\lvgl\lvgl\src\misc\lv_area.h ****     LV_ALIGN_OUT_LEFT_BOTTOM,
  82:d:\practise\f407_disc\lvgl\lvgl\src\misc\lv_area.h ****     LV_ALIGN_OUT_RIGHT_TOP,
  83:d:\practise\f407_disc\lvgl\lvgl\src\misc\lv_area.h ****     LV_ALIGN_OUT_RIGHT_MID,
  84:d:\practise\f407_disc\lvgl\lvgl\src\misc\lv_area.h ****     LV_ALIGN_OUT_RIGHT_BOTTOM,
  85:d:\practise\f407_disc\lvgl\lvgl\src\misc\lv_area.h **** };
  86:d:\practise\f407_disc\lvgl\lvgl\src\misc\lv_area.h **** typedef uint8_t lv_align_t;
  87:d:\practise\f407_disc\lvgl\lvgl\src\misc\lv_area.h **** 
  88:d:\practise\f407_disc\lvgl\lvgl\src\misc\lv_area.h **** enum {
  89:d:\practise\f407_disc\lvgl\lvgl\src\misc\lv_area.h ****     LV_DIR_NONE     = 0x00,
  90:d:\practise\f407_disc\lvgl\lvgl\src\misc\lv_area.h ****     LV_DIR_LEFT     = (1 << 0),
  91:d:\practise\f407_disc\lvgl\lvgl\src\misc\lv_area.h ****     LV_DIR_RIGHT    = (1 << 1),
  92:d:\practise\f407_disc\lvgl\lvgl\src\misc\lv_area.h ****     LV_DIR_TOP      = (1 << 2),
  93:d:\practise\f407_disc\lvgl\lvgl\src\misc\lv_area.h ****     LV_DIR_BOTTOM   = (1 << 3),
  94:d:\practise\f407_disc\lvgl\lvgl\src\misc\lv_area.h ****     LV_DIR_HOR      = LV_DIR_LEFT | LV_DIR_RIGHT,
  95:d:\practise\f407_disc\lvgl\lvgl\src\misc\lv_area.h ****     LV_DIR_VER      = LV_DIR_TOP | LV_DIR_BOTTOM,
  96:d:\practise\f407_disc\lvgl\lvgl\src\misc\lv_area.h ****     LV_DIR_ALL      = LV_DIR_HOR | LV_DIR_VER,
  97:d:\practise\f407_disc\lvgl\lvgl\src\misc\lv_area.h **** };
  98:d:\practise\f407_disc\lvgl\lvgl\src\misc\lv_area.h **** 
  99:d:\practise\f407_disc\lvgl\lvgl\src\misc\lv_area.h **** typedef uint8_t lv_dir_t;
 100:d:\practise\f407_disc\lvgl\lvgl\src\misc\lv_area.h **** 
 101:d:\practise\f407_disc\lvgl\lvgl\src\misc\lv_area.h **** /**********************
 102:d:\practise\f407_disc\lvgl\lvgl\src\misc\lv_area.h ****  * GLOBAL PROTOTYPES
 103:d:\practise\f407_disc\lvgl\lvgl\src\misc\lv_area.h ****  **********************/
 104:d:\practise\f407_disc\lvgl\lvgl\src\misc\lv_area.h **** 
 105:d:\practise\f407_disc\lvgl\lvgl\src\misc\lv_area.h **** /**
 106:d:\practise\f407_disc\lvgl\lvgl\src\misc\lv_area.h ****  * Initialize an area
 107:d:\practise\f407_disc\lvgl\lvgl\src\misc\lv_area.h ****  * @param area_p pointer to an area
 108:d:\practise\f407_disc\lvgl\lvgl\src\misc\lv_area.h ****  * @param x1 left coordinate of the area
 109:d:\practise\f407_disc\lvgl\lvgl\src\misc\lv_area.h ****  * @param y1 top coordinate of the area
 110:d:\practise\f407_disc\lvgl\lvgl\src\misc\lv_area.h ****  * @param x2 right coordinate of the area
