ARM GAS  C:\Users\gx\AppData\Local\Temp\ccMLpsxz.s 			page 1


   1              		.cpu cortex-m4
   2              		.eabi_attribute 27, 1
   3              		.eabi_attribute 28, 1
   4              		.eabi_attribute 20, 1
   5              		.eabi_attribute 21, 1
   6              		.eabi_attribute 23, 3
   7              		.eabi_attribute 24, 1
   8              		.eabi_attribute 25, 1
   9              		.eabi_attribute 26, 1
  10              		.eabi_attribute 30, 1
  11              		.eabi_attribute 34, 1
  12              		.eabi_attribute 18, 4
  13              		.file	"lv_calendar_header_dropdown.c"
  14              		.text
  15              	.Ltext0:
  16              		.cfi_sections	.debug_frame
  17              		.section	.text.month_event_cb,"ax",%progbits
  18              		.align	1
  19              		.arch armv7e-m
  20              		.syntax unified
  21              		.thumb
  22              		.thumb_func
  23              		.fpu fpv4-sp-d16
  25              	month_event_cb:
  26              	.LVL0:
  27              	.LFB159:
  28              		.file 1 "lvgl/lvgl/src/extra/widgets/calendar/lv_calendar_header_dropdown.c"
   1:lvgl/lvgl/src/extra/widgets/calendar/lv_calendar_header_dropdown.c **** /**
   2:lvgl/lvgl/src/extra/widgets/calendar/lv_calendar_header_dropdown.c ****  * @file lv_calendar_obj_dropdown.c
   3:lvgl/lvgl/src/extra/widgets/calendar/lv_calendar_header_dropdown.c ****  *
   4:lvgl/lvgl/src/extra/widgets/calendar/lv_calendar_header_dropdown.c ****  */
   5:lvgl/lvgl/src/extra/widgets/calendar/lv_calendar_header_dropdown.c **** 
   6:lvgl/lvgl/src/extra/widgets/calendar/lv_calendar_header_dropdown.c **** /*********************
   7:lvgl/lvgl/src/extra/widgets/calendar/lv_calendar_header_dropdown.c ****  *      INCLUDES
   8:lvgl/lvgl/src/extra/widgets/calendar/lv_calendar_header_dropdown.c ****  *********************/
   9:lvgl/lvgl/src/extra/widgets/calendar/lv_calendar_header_dropdown.c **** #include "lv_calendar_header_dropdown.h"
  10:lvgl/lvgl/src/extra/widgets/calendar/lv_calendar_header_dropdown.c **** #if LV_USE_CALENDAR_HEADER_DROPDOWN
  11:lvgl/lvgl/src/extra/widgets/calendar/lv_calendar_header_dropdown.c **** 
  12:lvgl/lvgl/src/extra/widgets/calendar/lv_calendar_header_dropdown.c **** #include "lv_calendar.h"
  13:lvgl/lvgl/src/extra/widgets/calendar/lv_calendar_header_dropdown.c **** #include "../../../widgets/lv_dropdown.h"
  14:lvgl/lvgl/src/extra/widgets/calendar/lv_calendar_header_dropdown.c **** #include "../../layouts/flex/lv_flex.h"
  15:lvgl/lvgl/src/extra/widgets/calendar/lv_calendar_header_dropdown.c **** 
  16:lvgl/lvgl/src/extra/widgets/calendar/lv_calendar_header_dropdown.c **** /*********************
  17:lvgl/lvgl/src/extra/widgets/calendar/lv_calendar_header_dropdown.c ****  *      DEFINES
  18:lvgl/lvgl/src/extra/widgets/calendar/lv_calendar_header_dropdown.c ****  *********************/
  19:lvgl/lvgl/src/extra/widgets/calendar/lv_calendar_header_dropdown.c **** 
  20:lvgl/lvgl/src/extra/widgets/calendar/lv_calendar_header_dropdown.c **** /**********************
  21:lvgl/lvgl/src/extra/widgets/calendar/lv_calendar_header_dropdown.c ****  *      TYPEDEFS
  22:lvgl/lvgl/src/extra/widgets/calendar/lv_calendar_header_dropdown.c ****  **********************/
  23:lvgl/lvgl/src/extra/widgets/calendar/lv_calendar_header_dropdown.c **** 
  24:lvgl/lvgl/src/extra/widgets/calendar/lv_calendar_header_dropdown.c **** /**********************
  25:lvgl/lvgl/src/extra/widgets/calendar/lv_calendar_header_dropdown.c ****  *  STATIC PROTOTYPES
  26:lvgl/lvgl/src/extra/widgets/calendar/lv_calendar_header_dropdown.c ****  **********************/
  27:lvgl/lvgl/src/extra/widgets/calendar/lv_calendar_header_dropdown.c **** static void my_constructor(const lv_obj_class_t * class_p, lv_obj_t * obj);
  28:lvgl/lvgl/src/extra/widgets/calendar/lv_calendar_header_dropdown.c **** static void year_event_cb(lv_event_t * e);
  29:lvgl/lvgl/src/extra/widgets/calendar/lv_calendar_header_dropdown.c **** static void month_event_cb(lv_event_t * e);
  30:lvgl/lvgl/src/extra/widgets/calendar/lv_calendar_header_dropdown.c **** 
ARM GAS  C:\Users\gx\AppData\Local\Temp\ccMLpsxz.s 			page 2


  31:lvgl/lvgl/src/extra/widgets/calendar/lv_calendar_header_dropdown.c **** /**********************
  32:lvgl/lvgl/src/extra/widgets/calendar/lv_calendar_header_dropdown.c ****  *  STATIC VARIABLES
  33:lvgl/lvgl/src/extra/widgets/calendar/lv_calendar_header_dropdown.c ****  **********************/
  34:lvgl/lvgl/src/extra/widgets/calendar/lv_calendar_header_dropdown.c **** const lv_obj_class_t lv_calendar_header_dropdown_class = {
  35:lvgl/lvgl/src/extra/widgets/calendar/lv_calendar_header_dropdown.c ****      .base_class = &lv_obj_class,
  36:lvgl/lvgl/src/extra/widgets/calendar/lv_calendar_header_dropdown.c ****      .constructor_cb = my_constructor
  37:lvgl/lvgl/src/extra/widgets/calendar/lv_calendar_header_dropdown.c ****  };
  38:lvgl/lvgl/src/extra/widgets/calendar/lv_calendar_header_dropdown.c **** 
  39:lvgl/lvgl/src/extra/widgets/calendar/lv_calendar_header_dropdown.c **** static const char * month_list = "01\n02\n03\n04\n05\n06\n07\n08\n09\n10\n11\n12";
  40:lvgl/lvgl/src/extra/widgets/calendar/lv_calendar_header_dropdown.c **** static const char * year_list = {
  41:lvgl/lvgl/src/extra/widgets/calendar/lv_calendar_header_dropdown.c ****         "2023\n2022\n2021\n"
  42:lvgl/lvgl/src/extra/widgets/calendar/lv_calendar_header_dropdown.c ****         "2020\n2019\n2018\n2017\n2016\n2015\n2014\n2013\n2012\n2011\n2010\n2009\n2008\n2007\n2006\n
  43:lvgl/lvgl/src/extra/widgets/calendar/lv_calendar_header_dropdown.c ****         "2000\n1999\n1998\n1997\n1996\n1995\n1994\n1993\n1992\n1991\n1990\n1989\n1988\n1987\n1986\n
  44:lvgl/lvgl/src/extra/widgets/calendar/lv_calendar_header_dropdown.c ****         "1980\n1979\n1978\n1977\n1976\n1975\n1974\n1973\n1972\n1971\n1970\n1969\n1968\n1967\n1966\n
  45:lvgl/lvgl/src/extra/widgets/calendar/lv_calendar_header_dropdown.c ****         "1960\n1959\n1958\n1957\n1956\n1955\n1954\n1953\n1952\n1951\n1950\n1949\n1948\n1947\n1946\n
  46:lvgl/lvgl/src/extra/widgets/calendar/lv_calendar_header_dropdown.c ****         "1940\n1939\n1938\n1937\n1936\n1935\n1934\n1933\n1932\n1931\n1930\n1929\n1928\n1927\n1926\n
  47:lvgl/lvgl/src/extra/widgets/calendar/lv_calendar_header_dropdown.c ****         "1920\n1919\n1918\n1917\n1916\n1915\n1914\n1913\n1912\n1911\n1910\n1909\n1908\n1907\n1906\n
  48:lvgl/lvgl/src/extra/widgets/calendar/lv_calendar_header_dropdown.c **** };
  49:lvgl/lvgl/src/extra/widgets/calendar/lv_calendar_header_dropdown.c **** 
  50:lvgl/lvgl/src/extra/widgets/calendar/lv_calendar_header_dropdown.c **** static lv_obj_t * calendar_param;
  51:lvgl/lvgl/src/extra/widgets/calendar/lv_calendar_header_dropdown.c **** 
  52:lvgl/lvgl/src/extra/widgets/calendar/lv_calendar_header_dropdown.c **** /**********************
  53:lvgl/lvgl/src/extra/widgets/calendar/lv_calendar_header_dropdown.c ****  *      MACROS
  54:lvgl/lvgl/src/extra/widgets/calendar/lv_calendar_header_dropdown.c ****  **********************/
  55:lvgl/lvgl/src/extra/widgets/calendar/lv_calendar_header_dropdown.c **** 
  56:lvgl/lvgl/src/extra/widgets/calendar/lv_calendar_header_dropdown.c **** /**********************
  57:lvgl/lvgl/src/extra/widgets/calendar/lv_calendar_header_dropdown.c ****  *   GLOBAL FUNCTIONS
  58:lvgl/lvgl/src/extra/widgets/calendar/lv_calendar_header_dropdown.c ****  **********************/
  59:lvgl/lvgl/src/extra/widgets/calendar/lv_calendar_header_dropdown.c **** 
  60:lvgl/lvgl/src/extra/widgets/calendar/lv_calendar_header_dropdown.c **** lv_obj_t * lv_calendar_header_dropdown_create(lv_obj_t * parent, lv_obj_t * calendar)
  61:lvgl/lvgl/src/extra/widgets/calendar/lv_calendar_header_dropdown.c **** {
  62:lvgl/lvgl/src/extra/widgets/calendar/lv_calendar_header_dropdown.c ****     calendar_param = calendar;
  63:lvgl/lvgl/src/extra/widgets/calendar/lv_calendar_header_dropdown.c ****     lv_obj_t * obj = lv_obj_class_create_obj(&lv_calendar_header_dropdown_class, parent);
  64:lvgl/lvgl/src/extra/widgets/calendar/lv_calendar_header_dropdown.c ****     lv_obj_class_init_obj(obj);
  65:lvgl/lvgl/src/extra/widgets/calendar/lv_calendar_header_dropdown.c **** 
  66:lvgl/lvgl/src/extra/widgets/calendar/lv_calendar_header_dropdown.c ****     return obj;
  67:lvgl/lvgl/src/extra/widgets/calendar/lv_calendar_header_dropdown.c **** }
  68:lvgl/lvgl/src/extra/widgets/calendar/lv_calendar_header_dropdown.c **** 
  69:lvgl/lvgl/src/extra/widgets/calendar/lv_calendar_header_dropdown.c **** /**********************
  70:lvgl/lvgl/src/extra/widgets/calendar/lv_calendar_header_dropdown.c ****  *  STATIC FUNCTIONS
  71:lvgl/lvgl/src/extra/widgets/calendar/lv_calendar_header_dropdown.c ****  **********************/
  72:lvgl/lvgl/src/extra/widgets/calendar/lv_calendar_header_dropdown.c **** 
  73:lvgl/lvgl/src/extra/widgets/calendar/lv_calendar_header_dropdown.c **** static void my_constructor(const lv_obj_class_t * class_p, lv_obj_t * obj)
  74:lvgl/lvgl/src/extra/widgets/calendar/lv_calendar_header_dropdown.c **** {
  75:lvgl/lvgl/src/extra/widgets/calendar/lv_calendar_header_dropdown.c ****     LV_TRACE_OBJ_CREATE("begin");
  76:lvgl/lvgl/src/extra/widgets/calendar/lv_calendar_header_dropdown.c **** 
  77:lvgl/lvgl/src/extra/widgets/calendar/lv_calendar_header_dropdown.c ****     LV_UNUSED(class_p);
  78:lvgl/lvgl/src/extra/widgets/calendar/lv_calendar_header_dropdown.c **** 
  79:lvgl/lvgl/src/extra/widgets/calendar/lv_calendar_header_dropdown.c ****     /*Use the same paddings as the calendar_param*/
  80:lvgl/lvgl/src/extra/widgets/calendar/lv_calendar_header_dropdown.c ****     lv_obj_set_style_pad_left(obj,lv_obj_get_style_pad_left(calendar_param, LV_PART_MAIN), 0);
  81:lvgl/lvgl/src/extra/widgets/calendar/lv_calendar_header_dropdown.c ****     lv_obj_set_style_pad_right(obj,lv_obj_get_style_pad_right(calendar_param, LV_PART_MAIN), 0);
  82:lvgl/lvgl/src/extra/widgets/calendar/lv_calendar_header_dropdown.c ****     lv_obj_set_style_pad_top(obj,lv_obj_get_style_pad_top(calendar_param, LV_PART_MAIN), 0);
  83:lvgl/lvgl/src/extra/widgets/calendar/lv_calendar_header_dropdown.c ****     lv_obj_set_style_pad_bottom(obj,lv_obj_get_style_pad_bottom(calendar_param, LV_PART_MAIN), 0);
  84:lvgl/lvgl/src/extra/widgets/calendar/lv_calendar_header_dropdown.c ****     lv_obj_set_style_pad_column(obj,lv_obj_get_style_pad_column(calendar_param, LV_PART_MAIN), 0);
  85:lvgl/lvgl/src/extra/widgets/calendar/lv_calendar_header_dropdown.c ****     lv_obj_set_style_radius(obj,lv_obj_get_style_radius(calendar_param, LV_PART_MAIN), 0);
  86:lvgl/lvgl/src/extra/widgets/calendar/lv_calendar_header_dropdown.c **** 
  87:lvgl/lvgl/src/extra/widgets/calendar/lv_calendar_header_dropdown.c ****     const lv_calendar_date_t * cur_date = lv_calendar_get_showed_date(calendar_param);
ARM GAS  C:\Users\gx\AppData\Local\Temp\ccMLpsxz.s 			page 3


  88:lvgl/lvgl/src/extra/widgets/calendar/lv_calendar_header_dropdown.c **** 
  89:lvgl/lvgl/src/extra/widgets/calendar/lv_calendar_header_dropdown.c ****     lv_obj_update_layout(calendar_param);
  90:lvgl/lvgl/src/extra/widgets/calendar/lv_calendar_header_dropdown.c ****     lv_coord_t w = lv_obj_get_width(calendar_param);
  91:lvgl/lvgl/src/extra/widgets/calendar/lv_calendar_header_dropdown.c ****     lv_obj_set_size(obj,  w, LV_SIZE_CONTENT);
  92:lvgl/lvgl/src/extra/widgets/calendar/lv_calendar_header_dropdown.c ****     lv_obj_set_flex_flow(obj, LV_FLEX_FLOW_ROW);
  93:lvgl/lvgl/src/extra/widgets/calendar/lv_calendar_header_dropdown.c ****     lv_obj_set_flex_align(obj, LV_FLEX_ALIGN_START, LV_FLEX_ALIGN_CENTER, LV_FLEX_ALIGN_START);
  94:lvgl/lvgl/src/extra/widgets/calendar/lv_calendar_header_dropdown.c **** 
  95:lvgl/lvgl/src/extra/widgets/calendar/lv_calendar_header_dropdown.c ****     lv_obj_t * year_dd = lv_dropdown_create(obj);
  96:lvgl/lvgl/src/extra/widgets/calendar/lv_calendar_header_dropdown.c ****     lv_dropdown_set_options(year_dd, year_list);
  97:lvgl/lvgl/src/extra/widgets/calendar/lv_calendar_header_dropdown.c ****     lv_dropdown_set_selected(year_dd, 2023 - cur_date->year);
  98:lvgl/lvgl/src/extra/widgets/calendar/lv_calendar_header_dropdown.c ****     lv_obj_add_event_cb(year_dd, year_event_cb, LV_EVENT_VALUE_CHANGED, calendar_param);
  99:lvgl/lvgl/src/extra/widgets/calendar/lv_calendar_header_dropdown.c ****     lv_obj_set_flex_grow(year_dd, 1);
 100:lvgl/lvgl/src/extra/widgets/calendar/lv_calendar_header_dropdown.c **** 
 101:lvgl/lvgl/src/extra/widgets/calendar/lv_calendar_header_dropdown.c ****     lv_obj_t * month_dd = lv_dropdown_create(obj);
 102:lvgl/lvgl/src/extra/widgets/calendar/lv_calendar_header_dropdown.c ****     lv_dropdown_set_options(month_dd, month_list);
 103:lvgl/lvgl/src/extra/widgets/calendar/lv_calendar_header_dropdown.c ****     lv_dropdown_set_selected(month_dd, cur_date->month - 1);
 104:lvgl/lvgl/src/extra/widgets/calendar/lv_calendar_header_dropdown.c ****     lv_obj_add_event_cb(month_dd, month_event_cb, LV_EVENT_VALUE_CHANGED, calendar_param);
 105:lvgl/lvgl/src/extra/widgets/calendar/lv_calendar_header_dropdown.c ****     lv_obj_set_flex_grow(month_dd, 1);
 106:lvgl/lvgl/src/extra/widgets/calendar/lv_calendar_header_dropdown.c **** 
 107:lvgl/lvgl/src/extra/widgets/calendar/lv_calendar_header_dropdown.c ****     lv_obj_align_to(obj, calendar_param, LV_ALIGN_OUT_TOP_MID, 0, 0);
 108:lvgl/lvgl/src/extra/widgets/calendar/lv_calendar_header_dropdown.c **** 
 109:lvgl/lvgl/src/extra/widgets/calendar/lv_calendar_header_dropdown.c **** }
 110:lvgl/lvgl/src/extra/widgets/calendar/lv_calendar_header_dropdown.c **** 
 111:lvgl/lvgl/src/extra/widgets/calendar/lv_calendar_header_dropdown.c **** static void month_event_cb(lv_event_t * e)
 112:lvgl/lvgl/src/extra/widgets/calendar/lv_calendar_header_dropdown.c **** {
  29              		.loc 1 112 1 view -0
  30              		.cfi_startproc
  31              		@ args = 0, pretend = 0, frame = 8
  32              		@ frame_needed = 0, uses_anonymous_args = 0
  33              		.loc 1 112 1 is_stmt 0 view .LVU1
  34 0000 30B5     		push	{r4, r5, lr}
  35              	.LCFI0:
  36              		.cfi_def_cfa_offset 12
  37              		.cfi_offset 4, -12
  38              		.cfi_offset 5, -8
  39              		.cfi_offset 14, -4
  40 0002 83B0     		sub	sp, sp, #12
  41              	.LCFI1:
  42              		.cfi_def_cfa_offset 24
  43 0004 0546     		mov	r5, r0
 113:lvgl/lvgl/src/extra/widgets/calendar/lv_calendar_header_dropdown.c ****     lv_obj_t * dropdown = lv_event_get_target(e);
  44              		.loc 1 113 5 is_stmt 1 view .LVU2
  45              		.loc 1 113 27 is_stmt 0 view .LVU3
  46 0006 FFF7FEFF 		bl	lv_event_get_target
  47              	.LVL1:
  48              		.loc 1 113 27 view .LVU4
  49 000a 0446     		mov	r4, r0
  50              	.LVL2:
 114:lvgl/lvgl/src/extra/widgets/calendar/lv_calendar_header_dropdown.c ****     lv_obj_t * calendar = lv_event_get_user_data(e);
  51              		.loc 1 114 5 is_stmt 1 view .LVU5
  52              		.loc 1 114 27 is_stmt 0 view .LVU6
  53 000c 2846     		mov	r0, r5
  54              	.LVL3:
  55              		.loc 1 114 27 view .LVU7
  56 000e FFF7FEFF 		bl	lv_event_get_user_data
  57              	.LVL4:
  58 0012 0546     		mov	r5, r0
ARM GAS  C:\Users\gx\AppData\Local\Temp\ccMLpsxz.s 			page 4


  59              	.LVL5:
 115:lvgl/lvgl/src/extra/widgets/calendar/lv_calendar_header_dropdown.c **** 
 116:lvgl/lvgl/src/extra/widgets/calendar/lv_calendar_header_dropdown.c ****     uint16_t sel = lv_dropdown_get_selected(dropdown);
  60              		.loc 1 116 5 is_stmt 1 view .LVU8
  61              		.loc 1 116 20 is_stmt 0 view .LVU9
  62 0014 2046     		mov	r0, r4
  63              	.LVL6:
  64              		.loc 1 116 20 view .LVU10
  65 0016 FFF7FEFF 		bl	lv_dropdown_get_selected
  66              	.LVL7:
  67 001a 0446     		mov	r4, r0
  68              	.LVL8:
 117:lvgl/lvgl/src/extra/widgets/calendar/lv_calendar_header_dropdown.c **** 
 118:lvgl/lvgl/src/extra/widgets/calendar/lv_calendar_header_dropdown.c ****     const lv_calendar_date_t * d;
  69              		.loc 1 118 5 is_stmt 1 view .LVU11
 119:lvgl/lvgl/src/extra/widgets/calendar/lv_calendar_header_dropdown.c ****     d = lv_calendar_get_showed_date(calendar);
  70              		.loc 1 119 5 view .LVU12
  71              		.loc 1 119 9 is_stmt 0 view .LVU13
  72 001c 2846     		mov	r0, r5
  73 001e FFF7FEFF 		bl	lv_calendar_get_showed_date
  74              	.LVL9:
 120:lvgl/lvgl/src/extra/widgets/calendar/lv_calendar_header_dropdown.c ****     lv_calendar_date_t newd = *d;
  75              		.loc 1 120 5 is_stmt 1 view .LVU14
  76              		.loc 1 120 24 is_stmt 0 view .LVU15
  77 0022 0068     		ldr	r0, [r0]	@ unaligned
  78              	.LVL10:
 121:lvgl/lvgl/src/extra/widgets/calendar/lv_calendar_header_dropdown.c ****     newd.month = sel + 1;
  79              		.loc 1 121 5 is_stmt 1 view .LVU16
  80              		.loc 1 121 22 is_stmt 0 view .LVU17
  81 0024 621C     		adds	r2, r4, #1
 122:lvgl/lvgl/src/extra/widgets/calendar/lv_calendar_header_dropdown.c **** 
 123:lvgl/lvgl/src/extra/widgets/calendar/lv_calendar_header_dropdown.c ****     lv_calendar_set_showed_date(calendar, newd.year, newd.month);
  82              		.loc 1 123 5 is_stmt 1 view .LVU18
  83 0026 52B2     		sxtb	r2, r2
  84 0028 81B2     		uxth	r1, r0
  85 002a 2846     		mov	r0, r5
  86 002c FFF7FEFF 		bl	lv_calendar_set_showed_date
  87              	.LVL11:
 124:lvgl/lvgl/src/extra/widgets/calendar/lv_calendar_header_dropdown.c **** }
  88              		.loc 1 124 1 is_stmt 0 view .LVU19
  89 0030 03B0     		add	sp, sp, #12
  90              	.LCFI2:
  91              		.cfi_def_cfa_offset 12
  92              		@ sp needed
  93 0032 30BD     		pop	{r4, r5, pc}
  94              		.loc 1 124 1 view .LVU20
  95              		.cfi_endproc
  96              	.LFE159:
  98              		.section	.text.year_event_cb,"ax",%progbits
  99              		.align	1
 100              		.syntax unified
 101              		.thumb
 102              		.thumb_func
 103              		.fpu fpv4-sp-d16
 105              	year_event_cb:
 106              	.LVL12:
 107              	.LFB160:
ARM GAS  C:\Users\gx\AppData\Local\Temp\ccMLpsxz.s 			page 5


 125:lvgl/lvgl/src/extra/widgets/calendar/lv_calendar_header_dropdown.c **** static void year_event_cb(lv_event_t * e)
 126:lvgl/lvgl/src/extra/widgets/calendar/lv_calendar_header_dropdown.c **** {
 108              		.loc 1 126 1 is_stmt 1 view -0
 109              		.cfi_startproc
 110              		@ args = 0, pretend = 0, frame = 8
 111              		@ frame_needed = 0, uses_anonymous_args = 0
 112              		.loc 1 126 1 is_stmt 0 view .LVU22
 113 0000 30B5     		push	{r4, r5, lr}
 114              	.LCFI3:
 115              		.cfi_def_cfa_offset 12
 116              		.cfi_offset 4, -12
 117              		.cfi_offset 5, -8
 118              		.cfi_offset 14, -4
 119 0002 83B0     		sub	sp, sp, #12
 120              	.LCFI4:
 121              		.cfi_def_cfa_offset 24
 122 0004 0546     		mov	r5, r0
 127:lvgl/lvgl/src/extra/widgets/calendar/lv_calendar_header_dropdown.c ****     lv_obj_t * dropdown = lv_event_get_target(e);
 123              		.loc 1 127 5 is_stmt 1 view .LVU23
 124              		.loc 1 127 27 is_stmt 0 view .LVU24
 125 0006 FFF7FEFF 		bl	lv_event_get_target
 126              	.LVL13:
 127              		.loc 1 127 27 view .LVU25
 128 000a 0446     		mov	r4, r0
 129              	.LVL14:
 128:lvgl/lvgl/src/extra/widgets/calendar/lv_calendar_header_dropdown.c ****     lv_obj_t * calendar = lv_event_get_user_data(e);
 130              		.loc 1 128 5 is_stmt 1 view .LVU26
 131              		.loc 1 128 27 is_stmt 0 view .LVU27
 132 000c 2846     		mov	r0, r5
 133              	.LVL15:
 134              		.loc 1 128 27 view .LVU28
 135 000e FFF7FEFF 		bl	lv_event_get_user_data
 136              	.LVL16:
 137 0012 0546     		mov	r5, r0
 138              	.LVL17:
 129:lvgl/lvgl/src/extra/widgets/calendar/lv_calendar_header_dropdown.c **** 
 130:lvgl/lvgl/src/extra/widgets/calendar/lv_calendar_header_dropdown.c ****     uint16_t sel = lv_dropdown_get_selected(dropdown);
 139              		.loc 1 130 5 is_stmt 1 view .LVU29
 140              		.loc 1 130 20 is_stmt 0 view .LVU30
 141 0014 2046     		mov	r0, r4
 142              	.LVL18:
 143              		.loc 1 130 20 view .LVU31
 144 0016 FFF7FEFF 		bl	lv_dropdown_get_selected
 145              	.LVL19:
 146 001a 0446     		mov	r4, r0
 147              	.LVL20:
 131:lvgl/lvgl/src/extra/widgets/calendar/lv_calendar_header_dropdown.c **** 
 132:lvgl/lvgl/src/extra/widgets/calendar/lv_calendar_header_dropdown.c ****     const lv_calendar_date_t * d;
 148              		.loc 1 132 5 is_stmt 1 view .LVU32
 133:lvgl/lvgl/src/extra/widgets/calendar/lv_calendar_header_dropdown.c ****     d = lv_calendar_get_showed_date(calendar);
 149              		.loc 1 133 5 view .LVU33
 150              		.loc 1 133 9 is_stmt 0 view .LVU34
 151 001c 2846     		mov	r0, r5
 152 001e FFF7FEFF 		bl	lv_calendar_get_showed_date
 153              	.LVL21:
 134:lvgl/lvgl/src/extra/widgets/calendar/lv_calendar_header_dropdown.c ****     lv_calendar_date_t newd = *d;
 154              		.loc 1 134 5 is_stmt 1 view .LVU35
ARM GAS  C:\Users\gx\AppData\Local\Temp\ccMLpsxz.s 			page 6


 155              		.loc 1 134 24 is_stmt 0 view .LVU36
 156 0022 0068     		ldr	r0, [r0]	@ unaligned
 157              	.LVL22:
 135:lvgl/lvgl/src/extra/widgets/calendar/lv_calendar_header_dropdown.c ****     newd.year = 2023 - sel;
 158              		.loc 1 135 5 is_stmt 1 view .LVU37
 159              		.loc 1 135 22 is_stmt 0 view .LVU38
 160 0024 C4F5FC61 		rsb	r1, r4, #2016
 161 0028 0731     		adds	r1, r1, #7
 136:lvgl/lvgl/src/extra/widgets/calendar/lv_calendar_header_dropdown.c **** 
 137:lvgl/lvgl/src/extra/widgets/calendar/lv_calendar_header_dropdown.c ****     lv_calendar_set_showed_date(calendar, newd.year, newd.month);
 162              		.loc 1 137 5 is_stmt 1 view .LVU39
 163 002a 40F30742 		sbfx	r2, r0, #16, #8
 164 002e 89B2     		uxth	r1, r1
 165 0030 2846     		mov	r0, r5
 166 0032 FFF7FEFF 		bl	lv_calendar_set_showed_date
 167              	.LVL23:
 138:lvgl/lvgl/src/extra/widgets/calendar/lv_calendar_header_dropdown.c **** }
 168              		.loc 1 138 1 is_stmt 0 view .LVU40
 169 0036 03B0     		add	sp, sp, #12
 170              	.LCFI5:
 171              		.cfi_def_cfa_offset 12
 172              		@ sp needed
 173 0038 30BD     		pop	{r4, r5, pc}
 174              		.loc 1 138 1 view .LVU41
 175              		.cfi_endproc
 176              	.LFE160:
 178              		.section	.rodata.my_constructor.str1.4,"aMS",%progbits,1
 179              		.align	2
 180              	.LC0:
 181 0000 32303233 		.ascii	"2023\0122022\0122021\0122020\0122019\0122018\012201"
 181      0A323032 
 181      320A3230 
 181      32310A32 
 181      3032300A 
 182 0021 370A3230 		.ascii	"7\0122016\0122015\0122014\0122013\0122012\0122011\012"
 182      31360A32 
 182      3031350A 
 182      32303134 
 182      0A323031 
 183 0041 32303130 		.ascii	"2010\0122009\0122008\0122007\0122006\0122005\012200"
 183      0A323030 
 183      390A3230 
 183      30380A32 
 183      3030370A 
 184 0062 340A3230 		.ascii	"4\0122003\0122002\0122001\0122000\0121999\0121998\012"
 184      30330A32 
 184      3030320A 
 184      32303031 
 184      0A323030 
 185 0082 31393937 		.ascii	"1997\0121996\0121995\0121994\0121993\0121992\012199"
 185      0A313939 
 185      360A3139 
 185      39350A31 
 185      3939340A 
 186 00a3 310A3139 		.ascii	"1\0121990\0121989\0121988\0121987\0121986\0121985\012"
 186      39300A31 
 186      3938390A 
ARM GAS  C:\Users\gx\AppData\Local\Temp\ccMLpsxz.s 			page 7


 186      31393838 
 186      0A313938 
 187 00c3 31393834 		.ascii	"1984\0121983\0121982\0121981\0121980\0121979\012197"
 187      0A313938 
 187      330A3139 
 187      38320A31 
 187      3938310A 
 188 00e4 380A3139 		.ascii	"8\0121977\0121976\0121975\0121974\0121973\0121972\012"
 188      37370A31 
 188      3937360A 
 188      31393735 
 188      0A313937 
 189 0104 31393731 		.ascii	"1971\0121970\0121969\0121968\0121967\0121966\012196"
 189      0A313937 
 189      300A3139 
 189      36390A31 
 189      3936380A 
 190 0125 350A3139 		.ascii	"5\0121964\0121963\0121962\0121961\0121960\0121959\012"
 190      36340A31 
 190      3936330A 
 190      31393632 
 190      0A313936 
 191 0145 31393538 		.ascii	"1958\0121957\0121956\0121955\0121954\0121953\012195"
 191      0A313935 
 191      370A3139 
 191      35360A31 
 191      3935350A 
 192 0166 320A3139 		.ascii	"2\0121951\0121950\0121949\0121948\0121947\0121946\012"
 192      35310A31 
 192      3935300A 
 192      31393439 
 192      0A313934 
 193 0186 31393435 		.ascii	"1945\0121944\0121943\0121942\0121941\0121940\012193"
 193      0A313934 
 193      340A3139 
 193      34330A31 
 193      3934320A 
 194 01a7 390A3139 		.ascii	"9\0121938\0121937\0121936\0121935\0121934\0121933\012"
 194      33380A31 
 194      3933370A 
 194      31393336 
 194      0A313933 
 195 01c7 31393332 		.ascii	"1932\0121931\0121930\0121929\0121928\0121927\012192"
 195      0A313933 
 195      310A3139 
 195      33300A31 
 195      3932390A 
 196 01e8 360A3139 		.ascii	"6\0121925\0121924\0121923\0121922\0121921\0121920\012"
 196      32350A31 
 196      3932340A 
 196      31393233 
 196      0A313932 
 197 0208 31393139 		.ascii	"1919\0121918\0121917\0121916\0121915\0121914\012191"
 197      0A313931 
 197      380A3139 
 197      31370A31 
 197      3931360A 
ARM GAS  C:\Users\gx\AppData\Local\Temp\ccMLpsxz.s 			page 8


 198 0229 330A3139 		.ascii	"3\0121912\0121911\0121910\0121909\0121908\0121907\012"
 198      31320A31 
 198      3931310A 
 198      31393130 
 198      0A313930 
 199 0249 31393036 		.ascii	"1906\0121905\0121904\0121903\0121902\0121901\000"
 199      0A313930 
 199      350A3139 
 199      30340A31 
 199      3930330A 
 200 0267 00       		.align	2
 201              	.LC1:
 202 0268 30310A30 		.ascii	"01\01202\01203\01204\01205\01206\01207\01208\01209\012"
 202      320A3033 
 202      0A30340A 
 202      30350A30 
 202      360A3037 
 203 0283 31300A31 		.ascii	"10\01211\01212\000"
 203      310A3132 
 203      00
 204              		.section	.text.my_constructor,"ax",%progbits
 205              		.align	1
 206              		.syntax unified
 207              		.thumb
 208              		.thumb_func
 209              		.fpu fpv4-sp-d16
 211              	my_constructor:
 212              	.LVL24:
 213              	.LFB158:
  74:lvgl/lvgl/src/extra/widgets/calendar/lv_calendar_header_dropdown.c ****     LV_TRACE_OBJ_CREATE("begin");
 214              		.loc 1 74 1 is_stmt 1 view -0
 215              		.cfi_startproc
 216              		@ args = 0, pretend = 0, frame = 0
 217              		@ frame_needed = 0, uses_anonymous_args = 0
  74:lvgl/lvgl/src/extra/widgets/calendar/lv_calendar_header_dropdown.c ****     LV_TRACE_OBJ_CREATE("begin");
 218              		.loc 1 74 1 is_stmt 0 view .LVU43
 219 0000 F0B5     		push	{r4, r5, r6, r7, lr}
 220              	.LCFI6:
 221              		.cfi_def_cfa_offset 20
 222              		.cfi_offset 4, -20
 223              		.cfi_offset 5, -16
 224              		.cfi_offset 6, -12
 225              		.cfi_offset 7, -8
 226              		.cfi_offset 14, -4
 227 0002 83B0     		sub	sp, sp, #12
 228              	.LCFI7:
 229              		.cfi_def_cfa_offset 32
 230 0004 0C46     		mov	r4, r1
  75:lvgl/lvgl/src/extra/widgets/calendar/lv_calendar_header_dropdown.c **** 
 231              		.loc 1 75 5 is_stmt 1 view .LVU44
  75:lvgl/lvgl/src/extra/widgets/calendar/lv_calendar_header_dropdown.c **** 
 232              		.loc 1 75 5 view .LVU45
  75:lvgl/lvgl/src/extra/widgets/calendar/lv_calendar_header_dropdown.c **** 
 233              		.loc 1 75 5 view .LVU46
  75:lvgl/lvgl/src/extra/widgets/calendar/lv_calendar_header_dropdown.c **** 
 234              		.loc 1 75 33 view .LVU47
  77:lvgl/lvgl/src/extra/widgets/calendar/lv_calendar_header_dropdown.c **** 
ARM GAS  C:\Users\gx\AppData\Local\Temp\ccMLpsxz.s 			page 9


 235              		.loc 1 77 5 view .LVU48
  80:lvgl/lvgl/src/extra/widgets/calendar/lv_calendar_header_dropdown.c ****     lv_obj_set_style_pad_right(obj,lv_obj_get_style_pad_right(calendar_param, LV_PART_MAIN), 0);
 236              		.loc 1 80 5 view .LVU49
 237 0006 4B4D     		ldr	r5, .L7
 238              	.LVL25:
 239              	.LBB14:
 240              	.LBI14:
 241              		.file 2 "d:\\practise\\f407_disc\\lvgl\\lvgl\\src\\core\\lv_obj_style_gen.h"
   1:d:\practise\f407_disc\lvgl\lvgl\src\core\lv_obj_style_gen.h **** static inline lv_coord_t lv_obj_get_style_width(const struct _lv_obj_t * obj, uint32_t part)
   2:d:\practise\f407_disc\lvgl\lvgl\src\core\lv_obj_style_gen.h **** {
   3:d:\practise\f407_disc\lvgl\lvgl\src\core\lv_obj_style_gen.h ****     lv_style_value_t v = lv_obj_get_style_prop(obj, part, LV_STYLE_WIDTH);
   4:d:\practise\f407_disc\lvgl\lvgl\src\core\lv_obj_style_gen.h ****     return (lv_coord_t)v.num;
   5:d:\practise\f407_disc\lvgl\lvgl\src\core\lv_obj_style_gen.h **** }
   6:d:\practise\f407_disc\lvgl\lvgl\src\core\lv_obj_style_gen.h **** 
   7:d:\practise\f407_disc\lvgl\lvgl\src\core\lv_obj_style_gen.h **** static inline lv_coord_t lv_obj_get_style_min_width(const struct _lv_obj_t * obj, uint32_t part)
   8:d:\practise\f407_disc\lvgl\lvgl\src\core\lv_obj_style_gen.h **** {
   9:d:\practise\f407_disc\lvgl\lvgl\src\core\lv_obj_style_gen.h ****     lv_style_value_t v = lv_obj_get_style_prop(obj, part, LV_STYLE_MIN_WIDTH);
  10:d:\practise\f407_disc\lvgl\lvgl\src\core\lv_obj_style_gen.h ****     return (lv_coord_t)v.num;
  11:d:\practise\f407_disc\lvgl\lvgl\src\core\lv_obj_style_gen.h **** }
  12:d:\practise\f407_disc\lvgl\lvgl\src\core\lv_obj_style_gen.h **** 
  13:d:\practise\f407_disc\lvgl\lvgl\src\core\lv_obj_style_gen.h **** static inline lv_coord_t lv_obj_get_style_max_width(const struct _lv_obj_t * obj, uint32_t part)
  14:d:\practise\f407_disc\lvgl\lvgl\src\core\lv_obj_style_gen.h **** {
  15:d:\practise\f407_disc\lvgl\lvgl\src\core\lv_obj_style_gen.h ****     lv_style_value_t v = lv_obj_get_style_prop(obj, part, LV_STYLE_MAX_WIDTH);
  16:d:\practise\f407_disc\lvgl\lvgl\src\core\lv_obj_style_gen.h ****     return (lv_coord_t)v.num;
  17:d:\practise\f407_disc\lvgl\lvgl\src\core\lv_obj_style_gen.h **** }
  18:d:\practise\f407_disc\lvgl\lvgl\src\core\lv_obj_style_gen.h **** 
  19:d:\practise\f407_disc\lvgl\lvgl\src\core\lv_obj_style_gen.h **** static inline lv_coord_t lv_obj_get_style_height(const struct _lv_obj_t * obj, uint32_t part)
  20:d:\practise\f407_disc\lvgl\lvgl\src\core\lv_obj_style_gen.h **** {
  21:d:\practise\f407_disc\lvgl\lvgl\src\core\lv_obj_style_gen.h ****     lv_style_value_t v = lv_obj_get_style_prop(obj, part, LV_STYLE_HEIGHT);
  22:d:\practise\f407_disc\lvgl\lvgl\src\core\lv_obj_style_gen.h ****     return (lv_coord_t)v.num;
  23:d:\practise\f407_disc\lvgl\lvgl\src\core\lv_obj_style_gen.h **** }
  24:d:\practise\f407_disc\lvgl\lvgl\src\core\lv_obj_style_gen.h **** 
  25:d:\practise\f407_disc\lvgl\lvgl\src\core\lv_obj_style_gen.h **** static inline lv_coord_t lv_obj_get_style_min_height(const struct _lv_obj_t * obj, uint32_t part)
  26:d:\practise\f407_disc\lvgl\lvgl\src\core\lv_obj_style_gen.h **** {
  27:d:\practise\f407_disc\lvgl\lvgl\src\core\lv_obj_style_gen.h ****     lv_style_value_t v = lv_obj_get_style_prop(obj, part, LV_STYLE_MIN_HEIGHT);
  28:d:\practise\f407_disc\lvgl\lvgl\src\core\lv_obj_style_gen.h ****     return (lv_coord_t)v.num;
  29:d:\practise\f407_disc\lvgl\lvgl\src\core\lv_obj_style_gen.h **** }
  30:d:\practise\f407_disc\lvgl\lvgl\src\core\lv_obj_style_gen.h **** 
  31:d:\practise\f407_disc\lvgl\lvgl\src\core\lv_obj_style_gen.h **** static inline lv_coord_t lv_obj_get_style_max_height(const struct _lv_obj_t * obj, uint32_t part)
  32:d:\practise\f407_disc\lvgl\lvgl\src\core\lv_obj_style_gen.h **** {
  33:d:\practise\f407_disc\lvgl\lvgl\src\core\lv_obj_style_gen.h ****     lv_style_value_t v = lv_obj_get_style_prop(obj, part, LV_STYLE_MAX_HEIGHT);
  34:d:\practise\f407_disc\lvgl\lvgl\src\core\lv_obj_style_gen.h ****     return (lv_coord_t)v.num;
  35:d:\practise\f407_disc\lvgl\lvgl\src\core\lv_obj_style_gen.h **** }
  36:d:\practise\f407_disc\lvgl\lvgl\src\core\lv_obj_style_gen.h **** 
  37:d:\practise\f407_disc\lvgl\lvgl\src\core\lv_obj_style_gen.h **** static inline lv_coord_t lv_obj_get_style_x(const struct _lv_obj_t * obj, uint32_t part)
  38:d:\practise\f407_disc\lvgl\lvgl\src\core\lv_obj_style_gen.h **** {
  39:d:\practise\f407_disc\lvgl\lvgl\src\core\lv_obj_style_gen.h ****     lv_style_value_t v = lv_obj_get_style_prop(obj, part, LV_STYLE_X);
  40:d:\practise\f407_disc\lvgl\lvgl\src\core\lv_obj_style_gen.h ****     return (lv_coord_t)v.num;
  41:d:\practise\f407_disc\lvgl\lvgl\src\core\lv_obj_style_gen.h **** }
  42:d:\practise\f407_disc\lvgl\lvgl\src\core\lv_obj_style_gen.h **** 
  43:d:\practise\f407_disc\lvgl\lvgl\src\core\lv_obj_style_gen.h **** static inline lv_coord_t lv_obj_get_style_y(const struct _lv_obj_t * obj, uint32_t part)
  44:d:\practise\f407_disc\lvgl\lvgl\src\core\lv_obj_style_gen.h **** {
  45:d:\practise\f407_disc\lvgl\lvgl\src\core\lv_obj_style_gen.h ****     lv_style_value_t v = lv_obj_get_style_prop(obj, part, LV_STYLE_Y);
  46:d:\practise\f407_disc\lvgl\lvgl\src\core\lv_obj_style_gen.h ****     return (lv_coord_t)v.num;
  47:d:\practise\f407_disc\lvgl\lvgl\src\core\lv_obj_style_gen.h **** }
  48:d:\practise\f407_disc\lvgl\lvgl\src\core\lv_obj_style_gen.h **** 
  49:d:\practise\f407_disc\lvgl\lvgl\src\core\lv_obj_style_gen.h **** static inline lv_align_t lv_obj_get_style_align(const struct _lv_obj_t * obj, uint32_t part)
ARM GAS  C:\Users\gx\AppData\Local\Temp\ccMLpsxz.s 			page 10


  50:d:\practise\f407_disc\lvgl\lvgl\src\core\lv_obj_style_gen.h **** {
  51:d:\practise\f407_disc\lvgl\lvgl\src\core\lv_obj_style_gen.h ****     lv_style_value_t v = lv_obj_get_style_prop(obj, part, LV_STYLE_ALIGN);
  52:d:\practise\f407_disc\lvgl\lvgl\src\core\lv_obj_style_gen.h ****     return (lv_align_t)v.num;
  53:d:\practise\f407_disc\lvgl\lvgl\src\core\lv_obj_style_gen.h **** }
  54:d:\practise\f407_disc\lvgl\lvgl\src\core\lv_obj_style_gen.h **** 
  55:d:\practise\f407_disc\lvgl\lvgl\src\core\lv_obj_style_gen.h **** static inline lv_coord_t lv_obj_get_style_transform_width(const struct _lv_obj_t * obj, uint32_t pa
  56:d:\practise\f407_disc\lvgl\lvgl\src\core\lv_obj_style_gen.h **** {
  57:d:\practise\f407_disc\lvgl\lvgl\src\core\lv_obj_style_gen.h ****     lv_style_value_t v = lv_obj_get_style_prop(obj, part, LV_STYLE_TRANSFORM_WIDTH);
  58:d:\practise\f407_disc\lvgl\lvgl\src\core\lv_obj_style_gen.h ****     return (lv_coord_t)v.num;
  59:d:\practise\f407_disc\lvgl\lvgl\src\core\lv_obj_style_gen.h **** }
  60:d:\practise\f407_disc\lvgl\lvgl\src\core\lv_obj_style_gen.h **** 
  61:d:\practise\f407_disc\lvgl\lvgl\src\core\lv_obj_style_gen.h **** static inline lv_coord_t lv_obj_get_style_transform_height(const struct _lv_obj_t * obj, uint32_t p
  62:d:\practise\f407_disc\lvgl\lvgl\src\core\lv_obj_style_gen.h **** {
  63:d:\practise\f407_disc\lvgl\lvgl\src\core\lv_obj_style_gen.h ****     lv_style_value_t v = lv_obj_get_style_prop(obj, part, LV_STYLE_TRANSFORM_HEIGHT);
  64:d:\practise\f407_disc\lvgl\lvgl\src\core\lv_obj_style_gen.h ****     return (lv_coord_t)v.num;
  65:d:\practise\f407_disc\lvgl\lvgl\src\core\lv_obj_style_gen.h **** }
  66:d:\practise\f407_disc\lvgl\lvgl\src\core\lv_obj_style_gen.h **** 
  67:d:\practise\f407_disc\lvgl\lvgl\src\core\lv_obj_style_gen.h **** static inline lv_coord_t lv_obj_get_style_translate_x(const struct _lv_obj_t * obj, uint32_t part)
  68:d:\practise\f407_disc\lvgl\lvgl\src\core\lv_obj_style_gen.h **** {
  69:d:\practise\f407_disc\lvgl\lvgl\src\core\lv_obj_style_gen.h ****     lv_style_value_t v = lv_obj_get_style_prop(obj, part, LV_STYLE_TRANSLATE_X);
  70:d:\practise\f407_disc\lvgl\lvgl\src\core\lv_obj_style_gen.h ****     return (lv_coord_t)v.num;
  71:d:\practise\f407_disc\lvgl\lvgl\src\core\lv_obj_style_gen.h **** }
  72:d:\practise\f407_disc\lvgl\lvgl\src\core\lv_obj_style_gen.h **** 
  73:d:\practise\f407_disc\lvgl\lvgl\src\core\lv_obj_style_gen.h **** static inline lv_coord_t lv_obj_get_style_translate_y(const struct _lv_obj_t * obj, uint32_t part)
  74:d:\practise\f407_disc\lvgl\lvgl\src\core\lv_obj_style_gen.h **** {
  75:d:\practise\f407_disc\lvgl\lvgl\src\core\lv_obj_style_gen.h ****     lv_style_value_t v = lv_obj_get_style_prop(obj, part, LV_STYLE_TRANSLATE_Y);
  76:d:\practise\f407_disc\lvgl\lvgl\src\core\lv_obj_style_gen.h ****     return (lv_coord_t)v.num;
  77:d:\practise\f407_disc\lvgl\lvgl\src\core\lv_obj_style_gen.h **** }
  78:d:\practise\f407_disc\lvgl\lvgl\src\core\lv_obj_style_gen.h **** 
  79:d:\practise\f407_disc\lvgl\lvgl\src\core\lv_obj_style_gen.h **** static inline lv_coord_t lv_obj_get_style_transform_zoom(const struct _lv_obj_t * obj, uint32_t par
  80:d:\practise\f407_disc\lvgl\lvgl\src\core\lv_obj_style_gen.h **** {
  81:d:\practise\f407_disc\lvgl\lvgl\src\core\lv_obj_style_gen.h ****     lv_style_value_t v = lv_obj_get_style_prop(obj, part, LV_STYLE_TRANSFORM_ZOOM);
  82:d:\practise\f407_disc\lvgl\lvgl\src\core\lv_obj_style_gen.h ****     return (lv_coord_t)v.num;
  83:d:\practise\f407_disc\lvgl\lvgl\src\core\lv_obj_style_gen.h **** }
  84:d:\practise\f407_disc\lvgl\lvgl\src\core\lv_obj_style_gen.h **** 
  85:d:\practise\f407_disc\lvgl\lvgl\src\core\lv_obj_style_gen.h **** static inline lv_coord_t lv_obj_get_style_transform_angle(const struct _lv_obj_t * obj, uint32_t pa
  86:d:\practise\f407_disc\lvgl\lvgl\src\core\lv_obj_style_gen.h **** {
  87:d:\practise\f407_disc\lvgl\lvgl\src\core\lv_obj_style_gen.h ****     lv_style_value_t v = lv_obj_get_style_prop(obj, part, LV_STYLE_TRANSFORM_ANGLE);
  88:d:\practise\f407_disc\lvgl\lvgl\src\core\lv_obj_style_gen.h ****     return (lv_coord_t)v.num;
  89:d:\practise\f407_disc\lvgl\lvgl\src\core\lv_obj_style_gen.h **** }
  90:d:\practise\f407_disc\lvgl\lvgl\src\core\lv_obj_style_gen.h **** 
  91:d:\practise\f407_disc\lvgl\lvgl\src\core\lv_obj_style_gen.h **** static inline lv_coord_t lv_obj_get_style_pad_top(const struct _lv_obj_t * obj, uint32_t part)
  92:d:\practise\f407_disc\lvgl\lvgl\src\core\lv_obj_style_gen.h **** {
  93:d:\practise\f407_disc\lvgl\lvgl\src\core\lv_obj_style_gen.h ****     lv_style_value_t v = lv_obj_get_style_prop(obj, part, LV_STYLE_PAD_TOP);
  94:d:\practise\f407_disc\lvgl\lvgl\src\core\lv_obj_style_gen.h ****     return (lv_coord_t)v.num;
  95:d:\practise\f407_disc\lvgl\lvgl\src\core\lv_obj_style_gen.h **** }
  96:d:\practise\f407_disc\lvgl\lvgl\src\core\lv_obj_style_gen.h **** 
  97:d:\practise\f407_disc\lvgl\lvgl\src\core\lv_obj_style_gen.h **** static inline lv_coord_t lv_obj_get_style_pad_bottom(const struct _lv_obj_t * obj, uint32_t part)
  98:d:\practise\f407_disc\lvgl\lvgl\src\core\lv_obj_style_gen.h **** {
  99:d:\practise\f407_disc\lvgl\lvgl\src\core\lv_obj_style_gen.h ****     lv_style_value_t v = lv_obj_get_style_prop(obj, part, LV_STYLE_PAD_BOTTOM);
 100:d:\practise\f407_disc\lvgl\lvgl\src\core\lv_obj_style_gen.h ****     return (lv_coord_t)v.num;
 101:d:\practise\f407_disc\lvgl\lvgl\src\core\lv_obj_style_gen.h **** }
 102:d:\practise\f407_disc\lvgl\lvgl\src\core\lv_obj_style_gen.h **** 
 103:d:\practise\f407_disc\lvgl\lvgl\src\core\lv_obj_style_gen.h **** static inline lv_coord_t lv_obj_get_style_pad_left(const struct _lv_obj_t * obj, uint32_t part)
 242              		.loc 2 103 26 view .LVU50
 243              	.LBB15:
 104:d:\practise\f407_disc\lvgl\lvgl\src\core\lv_obj_style_gen.h **** {
ARM GAS  C:\Users\gx\AppData\Local\Temp\ccMLpsxz.s 			page 11


 105:d:\practise\f407_disc\lvgl\lvgl\src\core\lv_obj_style_gen.h ****     lv_style_value_t v = lv_obj_get_style_prop(obj, part, LV_STYLE_PAD_LEFT);
 244              		.loc 2 105 5 view .LVU51
 245              		.loc 2 105 26 is_stmt 0 view .LVU52
 246 0008 41F21202 		movw	r2, #4114
 247 000c 0021     		movs	r1, #0
 248              	.LVL26:
 249              		.loc 2 105 26 view .LVU53
 250 000e 2868     		ldr	r0, [r5]
 251              	.LVL27:
 252              		.loc 2 105 26 view .LVU54
 253 0010 FFF7FEFF 		bl	lv_obj_get_style_prop
 254              	.LVL28:
 106:d:\practise\f407_disc\lvgl\lvgl\src\core\lv_obj_style_gen.h ****     return (lv_coord_t)v.num;
 255              		.loc 2 106 5 is_stmt 1 view .LVU55
 256              		.loc 2 106 5 is_stmt 0 view .LVU56
 257              	.LBE15:
 258              	.LBE14:
  80:lvgl/lvgl/src/extra/widgets/calendar/lv_calendar_header_dropdown.c ****     lv_obj_set_style_pad_right(obj,lv_obj_get_style_pad_right(calendar_param, LV_PART_MAIN), 0);
 259              		.loc 1 80 5 view .LVU57
 260 0014 0022     		movs	r2, #0
 261 0016 01B2     		sxth	r1, r0
 262 0018 2046     		mov	r0, r4
 263 001a FFF7FEFF 		bl	lv_obj_set_style_pad_left
 264              	.LVL29:
  81:lvgl/lvgl/src/extra/widgets/calendar/lv_calendar_header_dropdown.c ****     lv_obj_set_style_pad_top(obj,lv_obj_get_style_pad_top(calendar_param, LV_PART_MAIN), 0);
 265              		.loc 1 81 5 is_stmt 1 view .LVU58
 266              	.LBB16:
 267              	.LBI16:
 107:d:\practise\f407_disc\lvgl\lvgl\src\core\lv_obj_style_gen.h **** }
 108:d:\practise\f407_disc\lvgl\lvgl\src\core\lv_obj_style_gen.h **** 
 109:d:\practise\f407_disc\lvgl\lvgl\src\core\lv_obj_style_gen.h **** static inline lv_coord_t lv_obj_get_style_pad_right(const struct _lv_obj_t * obj, uint32_t part)
 268              		.loc 2 109 26 view .LVU59
 269              	.LBB17:
 110:d:\practise\f407_disc\lvgl\lvgl\src\core\lv_obj_style_gen.h **** {
 111:d:\practise\f407_disc\lvgl\lvgl\src\core\lv_obj_style_gen.h ****     lv_style_value_t v = lv_obj_get_style_prop(obj, part, LV_STYLE_PAD_RIGHT);
 270              		.loc 2 111 5 view .LVU60
 271              		.loc 2 111 26 is_stmt 0 view .LVU61
 272 001e 41F21302 		movw	r2, #4115
 273 0022 0021     		movs	r1, #0
 274 0024 2868     		ldr	r0, [r5]
 275 0026 FFF7FEFF 		bl	lv_obj_get_style_prop
 276              	.LVL30:
 112:d:\practise\f407_disc\lvgl\lvgl\src\core\lv_obj_style_gen.h ****     return (lv_coord_t)v.num;
 277              		.loc 2 112 5 is_stmt 1 view .LVU62
 278              		.loc 2 112 5 is_stmt 0 view .LVU63
 279              	.LBE17:
 280              	.LBE16:
  81:lvgl/lvgl/src/extra/widgets/calendar/lv_calendar_header_dropdown.c ****     lv_obj_set_style_pad_top(obj,lv_obj_get_style_pad_top(calendar_param, LV_PART_MAIN), 0);
 281              		.loc 1 81 5 view .LVU64
 282 002a 0022     		movs	r2, #0
 283 002c 01B2     		sxth	r1, r0
 284 002e 2046     		mov	r0, r4
 285 0030 FFF7FEFF 		bl	lv_obj_set_style_pad_right
 286              	.LVL31:
  82:lvgl/lvgl/src/extra/widgets/calendar/lv_calendar_header_dropdown.c ****     lv_obj_set_style_pad_bottom(obj,lv_obj_get_style_pad_bottom(calendar_param, LV_PART_MAIN), 0);
 287              		.loc 1 82 5 is_stmt 1 view .LVU65
 288              	.LBB18:
ARM GAS  C:\Users\gx\AppData\Local\Temp\ccMLpsxz.s 			page 12


 289              	.LBI18:
  91:d:\practise\f407_disc\lvgl\lvgl\src\core\lv_obj_style_gen.h **** {
 290              		.loc 2 91 26 view .LVU66
 291              	.LBB19:
  93:d:\practise\f407_disc\lvgl\lvgl\src\core\lv_obj_style_gen.h ****     return (lv_coord_t)v.num;
 292              		.loc 2 93 5 view .LVU67
  93:d:\practise\f407_disc\lvgl\lvgl\src\core\lv_obj_style_gen.h ****     return (lv_coord_t)v.num;
 293              		.loc 2 93 26 is_stmt 0 view .LVU68
 294 0034 41F21002 		movw	r2, #4112
 295 0038 0021     		movs	r1, #0
 296 003a 2868     		ldr	r0, [r5]
 297 003c FFF7FEFF 		bl	lv_obj_get_style_prop
 298              	.LVL32:
  94:d:\practise\f407_disc\lvgl\lvgl\src\core\lv_obj_style_gen.h **** }
 299              		.loc 2 94 5 is_stmt 1 view .LVU69
  94:d:\practise\f407_disc\lvgl\lvgl\src\core\lv_obj_style_gen.h **** }
 300              		.loc 2 94 5 is_stmt 0 view .LVU70
 301              	.LBE19:
 302              	.LBE18:
  82:lvgl/lvgl/src/extra/widgets/calendar/lv_calendar_header_dropdown.c ****     lv_obj_set_style_pad_bottom(obj,lv_obj_get_style_pad_bottom(calendar_param, LV_PART_MAIN), 0);
 303              		.loc 1 82 5 view .LVU71
 304 0040 0022     		movs	r2, #0
 305 0042 01B2     		sxth	r1, r0
 306 0044 2046     		mov	r0, r4
 307 0046 FFF7FEFF 		bl	lv_obj_set_style_pad_top
 308              	.LVL33:
  83:lvgl/lvgl/src/extra/widgets/calendar/lv_calendar_header_dropdown.c ****     lv_obj_set_style_pad_column(obj,lv_obj_get_style_pad_column(calendar_param, LV_PART_MAIN), 0);
 309              		.loc 1 83 5 is_stmt 1 view .LVU72
 310              	.LBB20:
 311              	.LBI20:
  97:d:\practise\f407_disc\lvgl\lvgl\src\core\lv_obj_style_gen.h **** {
 312              		.loc 2 97 26 view .LVU73
 313              	.LBB21:
  99:d:\practise\f407_disc\lvgl\lvgl\src\core\lv_obj_style_gen.h ****     return (lv_coord_t)v.num;
 314              		.loc 2 99 5 view .LVU74
  99:d:\practise\f407_disc\lvgl\lvgl\src\core\lv_obj_style_gen.h ****     return (lv_coord_t)v.num;
 315              		.loc 2 99 26 is_stmt 0 view .LVU75
 316 004a 41F21102 		movw	r2, #4113
 317 004e 0021     		movs	r1, #0
 318 0050 2868     		ldr	r0, [r5]
 319 0052 FFF7FEFF 		bl	lv_obj_get_style_prop
 320              	.LVL34:
 100:d:\practise\f407_disc\lvgl\lvgl\src\core\lv_obj_style_gen.h **** }
 321              		.loc 2 100 5 is_stmt 1 view .LVU76
 100:d:\practise\f407_disc\lvgl\lvgl\src\core\lv_obj_style_gen.h **** }
 322              		.loc 2 100 5 is_stmt 0 view .LVU77
 323              	.LBE21:
 324              	.LBE20:
  83:lvgl/lvgl/src/extra/widgets/calendar/lv_calendar_header_dropdown.c ****     lv_obj_set_style_pad_column(obj,lv_obj_get_style_pad_column(calendar_param, LV_PART_MAIN), 0);
 325              		.loc 1 83 5 view .LVU78
 326 0056 0022     		movs	r2, #0
 327 0058 01B2     		sxth	r1, r0
 328 005a 2046     		mov	r0, r4
 329 005c FFF7FEFF 		bl	lv_obj_set_style_pad_bottom
 330              	.LVL35:
  84:lvgl/lvgl/src/extra/widgets/calendar/lv_calendar_header_dropdown.c ****     lv_obj_set_style_radius(obj,lv_obj_get_style_radius(calendar_param, LV_PART_MAIN), 0);
 331              		.loc 1 84 5 is_stmt 1 view .LVU79
ARM GAS  C:\Users\gx\AppData\Local\Temp\ccMLpsxz.s 			page 13


 332              	.LBB22:
 333              	.LBI22:
 113:d:\practise\f407_disc\lvgl\lvgl\src\core\lv_obj_style_gen.h **** }
 114:d:\practise\f407_disc\lvgl\lvgl\src\core\lv_obj_style_gen.h **** 
 115:d:\practise\f407_disc\lvgl\lvgl\src\core\lv_obj_style_gen.h **** static inline lv_coord_t lv_obj_get_style_pad_row(const struct _lv_obj_t * obj, uint32_t part)
 116:d:\practise\f407_disc\lvgl\lvgl\src\core\lv_obj_style_gen.h **** {
 117:d:\practise\f407_disc\lvgl\lvgl\src\core\lv_obj_style_gen.h ****     lv_style_value_t v = lv_obj_get_style_prop(obj, part, LV_STYLE_PAD_ROW);
 118:d:\practise\f407_disc\lvgl\lvgl\src\core\lv_obj_style_gen.h ****     return (lv_coord_t)v.num;
 119:d:\practise\f407_disc\lvgl\lvgl\src\core\lv_obj_style_gen.h **** }
 120:d:\practise\f407_disc\lvgl\lvgl\src\core\lv_obj_style_gen.h **** 
 121:d:\practise\f407_disc\lvgl\lvgl\src\core\lv_obj_style_gen.h **** static inline lv_coord_t lv_obj_get_style_pad_column(const struct _lv_obj_t * obj, uint32_t part)
 334              		.loc 2 121 26 view .LVU80
 335              	.LBB23:
 122:d:\practise\f407_disc\lvgl\lvgl\src\core\lv_obj_style_gen.h **** {
 123:d:\practise\f407_disc\lvgl\lvgl\src\core\lv_obj_style_gen.h ****     lv_style_value_t v = lv_obj_get_style_prop(obj, part, LV_STYLE_PAD_COLUMN);
 336              		.loc 2 123 5 view .LVU81
 337              		.loc 2 123 26 is_stmt 0 view .LVU82
 338 0060 41F21502 		movw	r2, #4117
 339 0064 0021     		movs	r1, #0
 340 0066 2868     		ldr	r0, [r5]
 341 0068 FFF7FEFF 		bl	lv_obj_get_style_prop
 342              	.LVL36:
 124:d:\practise\f407_disc\lvgl\lvgl\src\core\lv_obj_style_gen.h ****     return (lv_coord_t)v.num;
 343              		.loc 2 124 5 is_stmt 1 view .LVU83
 344              		.loc 2 124 5 is_stmt 0 view .LVU84
 345              	.LBE23:
 346              	.LBE22:
  84:lvgl/lvgl/src/extra/widgets/calendar/lv_calendar_header_dropdown.c ****     lv_obj_set_style_radius(obj,lv_obj_get_style_radius(calendar_param, LV_PART_MAIN), 0);
 347              		.loc 1 84 5 view .LVU85
 348 006c 0022     		movs	r2, #0
 349 006e 01B2     		sxth	r1, r0
 350 0070 2046     		mov	r0, r4
 351 0072 FFF7FEFF 		bl	lv_obj_set_style_pad_column
 352              	.LVL37:
  85:lvgl/lvgl/src/extra/widgets/calendar/lv_calendar_header_dropdown.c **** 
 353              		.loc 1 85 5 is_stmt 1 view .LVU86
 354              	.LBB24:
 355              	.LBI24:
 125:d:\practise\f407_disc\lvgl\lvgl\src\core\lv_obj_style_gen.h **** }
 126:d:\practise\f407_disc\lvgl\lvgl\src\core\lv_obj_style_gen.h **** 
 127:d:\practise\f407_disc\lvgl\lvgl\src\core\lv_obj_style_gen.h **** static inline lv_coord_t lv_obj_get_style_radius(const struct _lv_obj_t * obj, uint32_t part)
 356              		.loc 2 127 26 view .LVU87
 357              	.LBB25:
 128:d:\practise\f407_disc\lvgl\lvgl\src\core\lv_obj_style_gen.h **** {
 129:d:\practise\f407_disc\lvgl\lvgl\src\core\lv_obj_style_gen.h ****     lv_style_value_t v = lv_obj_get_style_prop(obj, part, LV_STYLE_RADIUS);
 358              		.loc 2 129 5 view .LVU88
 359              		.loc 2 129 26 is_stmt 0 view .LVU89
 360 0076 6022     		movs	r2, #96
 361 0078 0021     		movs	r1, #0
 362 007a 2868     		ldr	r0, [r5]
 363 007c FFF7FEFF 		bl	lv_obj_get_style_prop
 364              	.LVL38:
 130:d:\practise\f407_disc\lvgl\lvgl\src\core\lv_obj_style_gen.h ****     return (lv_coord_t)v.num;
 365              		.loc 2 130 5 is_stmt 1 view .LVU90
 366              		.loc 2 130 5 is_stmt 0 view .LVU91
 367              	.LBE25:
 368              	.LBE24:
ARM GAS  C:\Users\gx\AppData\Local\Temp\ccMLpsxz.s 			page 14


  85:lvgl/lvgl/src/extra/widgets/calendar/lv_calendar_header_dropdown.c **** 
 369              		.loc 1 85 5 view .LVU92
 370 0080 0022     		movs	r2, #0
 371 0082 01B2     		sxth	r1, r0
 372 0084 2046     		mov	r0, r4
 373 0086 FFF7FEFF 		bl	lv_obj_set_style_radius
 374              	.LVL39:
  87:lvgl/lvgl/src/extra/widgets/calendar/lv_calendar_header_dropdown.c **** 
 375              		.loc 1 87 5 is_stmt 1 view .LVU93
  87:lvgl/lvgl/src/extra/widgets/calendar/lv_calendar_header_dropdown.c **** 
 376              		.loc 1 87 43 is_stmt 0 view .LVU94
 377 008a 2868     		ldr	r0, [r5]
 378 008c FFF7FEFF 		bl	lv_calendar_get_showed_date
 379              	.LVL40:
 380 0090 0746     		mov	r7, r0
 381              	.LVL41:
  89:lvgl/lvgl/src/extra/widgets/calendar/lv_calendar_header_dropdown.c ****     lv_coord_t w = lv_obj_get_width(calendar_param);
 382              		.loc 1 89 5 is_stmt 1 view .LVU95
 383 0092 2868     		ldr	r0, [r5]
 384              	.LVL42:
  89:lvgl/lvgl/src/extra/widgets/calendar/lv_calendar_header_dropdown.c ****     lv_coord_t w = lv_obj_get_width(calendar_param);
 385              		.loc 1 89 5 is_stmt 0 view .LVU96
 386 0094 FFF7FEFF 		bl	lv_obj_update_layout
 387              	.LVL43:
  90:lvgl/lvgl/src/extra/widgets/calendar/lv_calendar_header_dropdown.c ****     lv_obj_set_size(obj,  w, LV_SIZE_CONTENT);
 388              		.loc 1 90 5 is_stmt 1 view .LVU97
  90:lvgl/lvgl/src/extra/widgets/calendar/lv_calendar_header_dropdown.c ****     lv_obj_set_size(obj,  w, LV_SIZE_CONTENT);
 389              		.loc 1 90 20 is_stmt 0 view .LVU98
 390 0098 2868     		ldr	r0, [r5]
 391 009a FFF7FEFF 		bl	lv_obj_get_width
 392              	.LVL44:
 393 009e 0146     		mov	r1, r0
 394              	.LVL45:
  91:lvgl/lvgl/src/extra/widgets/calendar/lv_calendar_header_dropdown.c ****     lv_obj_set_flex_flow(obj, LV_FLEX_FLOW_ROW);
 395              		.loc 1 91 5 is_stmt 1 view .LVU99
 396 00a0 42F2D172 		movw	r2, #10193
 397 00a4 2046     		mov	r0, r4
 398 00a6 FFF7FEFF 		bl	lv_obj_set_size
 399              	.LVL46:
  92:lvgl/lvgl/src/extra/widgets/calendar/lv_calendar_header_dropdown.c ****     lv_obj_set_flex_align(obj, LV_FLEX_ALIGN_START, LV_FLEX_ALIGN_CENTER, LV_FLEX_ALIGN_START);
 400              		.loc 1 92 5 view .LVU100
 401 00aa 0021     		movs	r1, #0
 402 00ac 2046     		mov	r0, r4
 403 00ae FFF7FEFF 		bl	lv_obj_set_flex_flow
 404              	.LVL47:
  93:lvgl/lvgl/src/extra/widgets/calendar/lv_calendar_header_dropdown.c **** 
 405              		.loc 1 93 5 view .LVU101
 406 00b2 0023     		movs	r3, #0
 407 00b4 0222     		movs	r2, #2
 408 00b6 1946     		mov	r1, r3
 409 00b8 2046     		mov	r0, r4
 410 00ba FFF7FEFF 		bl	lv_obj_set_flex_align
 411              	.LVL48:
  95:lvgl/lvgl/src/extra/widgets/calendar/lv_calendar_header_dropdown.c ****     lv_dropdown_set_options(year_dd, year_list);
 412              		.loc 1 95 5 view .LVU102
  95:lvgl/lvgl/src/extra/widgets/calendar/lv_calendar_header_dropdown.c ****     lv_dropdown_set_options(year_dd, year_list);
 413              		.loc 1 95 26 is_stmt 0 view .LVU103
ARM GAS  C:\Users\gx\AppData\Local\Temp\ccMLpsxz.s 			page 15


 414 00be 2046     		mov	r0, r4
 415 00c0 FFF7FEFF 		bl	lv_dropdown_create
 416              	.LVL49:
 417 00c4 0646     		mov	r6, r0
 418              	.LVL50:
  96:lvgl/lvgl/src/extra/widgets/calendar/lv_calendar_header_dropdown.c ****     lv_dropdown_set_selected(year_dd, 2023 - cur_date->year);
 419              		.loc 1 96 5 is_stmt 1 view .LVU104
 420 00c6 1C49     		ldr	r1, .L7+4
 421 00c8 FFF7FEFF 		bl	lv_dropdown_set_options
 422              	.LVL51:
  97:lvgl/lvgl/src/extra/widgets/calendar/lv_calendar_header_dropdown.c ****     lv_obj_add_event_cb(year_dd, year_event_cb, LV_EVENT_VALUE_CHANGED, calendar_param);
 423              		.loc 1 97 5 view .LVU105
  97:lvgl/lvgl/src/extra/widgets/calendar/lv_calendar_header_dropdown.c ****     lv_obj_add_event_cb(year_dd, year_event_cb, LV_EVENT_VALUE_CHANGED, calendar_param);
 424              		.loc 1 97 54 is_stmt 0 view .LVU106
 425 00cc 3988     		ldrh	r1, [r7]
  97:lvgl/lvgl/src/extra/widgets/calendar/lv_calendar_header_dropdown.c ****     lv_obj_add_event_cb(year_dd, year_event_cb, LV_EVENT_VALUE_CHANGED, calendar_param);
 426              		.loc 1 97 5 view .LVU107
 427 00ce C1F5FC61 		rsb	r1, r1, #2016
 428 00d2 0731     		adds	r1, r1, #7
 429 00d4 89B2     		uxth	r1, r1
 430 00d6 3046     		mov	r0, r6
 431 00d8 FFF7FEFF 		bl	lv_dropdown_set_selected
 432              	.LVL52:
  98:lvgl/lvgl/src/extra/widgets/calendar/lv_calendar_header_dropdown.c ****     lv_obj_set_flex_grow(year_dd, 1);
 433              		.loc 1 98 5 is_stmt 1 view .LVU108
 434 00dc 2B68     		ldr	r3, [r5]
 435 00de 1C22     		movs	r2, #28
 436 00e0 1649     		ldr	r1, .L7+8
 437 00e2 3046     		mov	r0, r6
 438 00e4 FFF7FEFF 		bl	lv_obj_add_event_cb
 439              	.LVL53:
  99:lvgl/lvgl/src/extra/widgets/calendar/lv_calendar_header_dropdown.c **** 
 440              		.loc 1 99 5 view .LVU109
 441 00e8 0121     		movs	r1, #1
 442 00ea 3046     		mov	r0, r6
 443 00ec FFF7FEFF 		bl	lv_obj_set_flex_grow
 444              	.LVL54:
 101:lvgl/lvgl/src/extra/widgets/calendar/lv_calendar_header_dropdown.c ****     lv_dropdown_set_options(month_dd, month_list);
 445              		.loc 1 101 5 view .LVU110
 101:lvgl/lvgl/src/extra/widgets/calendar/lv_calendar_header_dropdown.c ****     lv_dropdown_set_options(month_dd, month_list);
 446              		.loc 1 101 27 is_stmt 0 view .LVU111
 447 00f0 2046     		mov	r0, r4
 448 00f2 FFF7FEFF 		bl	lv_dropdown_create
 449              	.LVL55:
 450 00f6 0646     		mov	r6, r0
 451              	.LVL56:
 102:lvgl/lvgl/src/extra/widgets/calendar/lv_calendar_header_dropdown.c ****     lv_dropdown_set_selected(month_dd, cur_date->month - 1);
 452              		.loc 1 102 5 is_stmt 1 view .LVU112
 453 00f8 1149     		ldr	r1, .L7+12
 454 00fa FFF7FEFF 		bl	lv_dropdown_set_options
 455              	.LVL57:
 103:lvgl/lvgl/src/extra/widgets/calendar/lv_calendar_header_dropdown.c ****     lv_obj_add_event_cb(month_dd, month_event_cb, LV_EVENT_VALUE_CHANGED, calendar_param);
 456              		.loc 1 103 5 view .LVU113
 103:lvgl/lvgl/src/extra/widgets/calendar/lv_calendar_header_dropdown.c ****     lv_obj_add_event_cb(month_dd, month_event_cb, LV_EVENT_VALUE_CHANGED, calendar_param);
 457              		.loc 1 103 48 is_stmt 0 view .LVU114
 458 00fe 97F90210 		ldrsb	r1, [r7, #2]
 459 0102 89B2     		uxth	r1, r1
ARM GAS  C:\Users\gx\AppData\Local\Temp\ccMLpsxz.s 			page 16


 103:lvgl/lvgl/src/extra/widgets/calendar/lv_calendar_header_dropdown.c ****     lv_obj_add_event_cb(month_dd, month_event_cb, LV_EVENT_VALUE_CHANGED, calendar_param);
 460              		.loc 1 103 5 view .LVU115
 461 0104 0139     		subs	r1, r1, #1
 462 0106 89B2     		uxth	r1, r1
 463 0108 3046     		mov	r0, r6
 464 010a FFF7FEFF 		bl	lv_dropdown_set_selected
 465              	.LVL58:
 104:lvgl/lvgl/src/extra/widgets/calendar/lv_calendar_header_dropdown.c ****     lv_obj_set_flex_grow(month_dd, 1);
 466              		.loc 1 104 5 is_stmt 1 view .LVU116
 467 010e 2B68     		ldr	r3, [r5]
 468 0110 1C22     		movs	r2, #28
 469 0112 0C49     		ldr	r1, .L7+16
 470 0114 3046     		mov	r0, r6
 471 0116 FFF7FEFF 		bl	lv_obj_add_event_cb
 472              	.LVL59:
 105:lvgl/lvgl/src/extra/widgets/calendar/lv_calendar_header_dropdown.c **** 
 473              		.loc 1 105 5 view .LVU117
 474 011a 0121     		movs	r1, #1
 475 011c 3046     		mov	r0, r6
 476 011e FFF7FEFF 		bl	lv_obj_set_flex_grow
 477              	.LVL60:
 107:lvgl/lvgl/src/extra/widgets/calendar/lv_calendar_header_dropdown.c **** 
 478              		.loc 1 107 5 view .LVU118
 479 0122 0023     		movs	r3, #0
 480 0124 0093     		str	r3, [sp]
 481 0126 0B22     		movs	r2, #11
 482 0128 2968     		ldr	r1, [r5]
 483 012a 2046     		mov	r0, r4
 484 012c FFF7FEFF 		bl	lv_obj_align_to
 485              	.LVL61:
 109:lvgl/lvgl/src/extra/widgets/calendar/lv_calendar_header_dropdown.c **** 
 486              		.loc 1 109 1 is_stmt 0 view .LVU119
 487 0130 03B0     		add	sp, sp, #12
 488              	.LCFI8:
 489              		.cfi_def_cfa_offset 20
 490              		@ sp needed
 491 0132 F0BD     		pop	{r4, r5, r6, r7, pc}
 492              	.LVL62:
 493              	.L8:
 109:lvgl/lvgl/src/extra/widgets/calendar/lv_calendar_header_dropdown.c **** 
 494              		.loc 1 109 1 view .LVU120
 495              		.align	2
 496              	.L7:
 497 0134 00000000 		.word	.LANCHOR0
 498 0138 00000000 		.word	.LC0
 499 013c 00000000 		.word	year_event_cb
 500 0140 68020000 		.word	.LC1
 501 0144 00000000 		.word	month_event_cb
 502              		.cfi_endproc
 503              	.LFE158:
 505              		.section	.text.lv_calendar_header_dropdown_create,"ax",%progbits
 506              		.align	1
 507              		.global	lv_calendar_header_dropdown_create
 508              		.syntax unified
 509              		.thumb
 510              		.thumb_func
 511              		.fpu fpv4-sp-d16
ARM GAS  C:\Users\gx\AppData\Local\Temp\ccMLpsxz.s 			page 17


 513              	lv_calendar_header_dropdown_create:
 514              	.LVL63:
 515              	.LFB157:
  61:lvgl/lvgl/src/extra/widgets/calendar/lv_calendar_header_dropdown.c ****     calendar_param = calendar;
 516              		.loc 1 61 1 is_stmt 1 view -0
 517              		.cfi_startproc
 518              		@ args = 0, pretend = 0, frame = 0
 519              		@ frame_needed = 0, uses_anonymous_args = 0
  61:lvgl/lvgl/src/extra/widgets/calendar/lv_calendar_header_dropdown.c ****     calendar_param = calendar;
 520              		.loc 1 61 1 is_stmt 0 view .LVU122
 521 0000 10B5     		push	{r4, lr}
 522              	.LCFI9:
 523              		.cfi_def_cfa_offset 8
 524              		.cfi_offset 4, -8
 525              		.cfi_offset 14, -4
  62:lvgl/lvgl/src/extra/widgets/calendar/lv_calendar_header_dropdown.c ****     lv_obj_t * obj = lv_obj_class_create_obj(&lv_calendar_header_dropdown_class, parent);
 526              		.loc 1 62 5 is_stmt 1 view .LVU123
  62:lvgl/lvgl/src/extra/widgets/calendar/lv_calendar_header_dropdown.c ****     lv_obj_t * obj = lv_obj_class_create_obj(&lv_calendar_header_dropdown_class, parent);
 527              		.loc 1 62 20 is_stmt 0 view .LVU124
 528 0002 054B     		ldr	r3, .L11
 529 0004 1960     		str	r1, [r3]
  63:lvgl/lvgl/src/extra/widgets/calendar/lv_calendar_header_dropdown.c ****     lv_obj_class_init_obj(obj);
 530              		.loc 1 63 5 is_stmt 1 view .LVU125
  63:lvgl/lvgl/src/extra/widgets/calendar/lv_calendar_header_dropdown.c ****     lv_obj_class_init_obj(obj);
 531              		.loc 1 63 22 is_stmt 0 view .LVU126
 532 0006 0146     		mov	r1, r0
 533              	.LVL64:
  63:lvgl/lvgl/src/extra/widgets/calendar/lv_calendar_header_dropdown.c ****     lv_obj_class_init_obj(obj);
 534              		.loc 1 63 22 view .LVU127
 535 0008 0448     		ldr	r0, .L11+4
 536              	.LVL65:
  63:lvgl/lvgl/src/extra/widgets/calendar/lv_calendar_header_dropdown.c ****     lv_obj_class_init_obj(obj);
 537              		.loc 1 63 22 view .LVU128
 538 000a FFF7FEFF 		bl	lv_obj_class_create_obj
 539              	.LVL66:
  63:lvgl/lvgl/src/extra/widgets/calendar/lv_calendar_header_dropdown.c ****     lv_obj_class_init_obj(obj);
 540              		.loc 1 63 22 view .LVU129
 541 000e 0446     		mov	r4, r0
 542              	.LVL67:
  64:lvgl/lvgl/src/extra/widgets/calendar/lv_calendar_header_dropdown.c **** 
 543              		.loc 1 64 5 is_stmt 1 view .LVU130
 544 0010 FFF7FEFF 		bl	lv_obj_class_init_obj
 545              	.LVL68:
  66:lvgl/lvgl/src/extra/widgets/calendar/lv_calendar_header_dropdown.c **** }
 546              		.loc 1 66 5 view .LVU131
  67:lvgl/lvgl/src/extra/widgets/calendar/lv_calendar_header_dropdown.c **** 
 547              		.loc 1 67 1 is_stmt 0 view .LVU132
 548 0014 2046     		mov	r0, r4
 549 0016 10BD     		pop	{r4, pc}
 550              	.LVL69:
 551              	.L12:
  67:lvgl/lvgl/src/extra/widgets/calendar/lv_calendar_header_dropdown.c **** 
 552              		.loc 1 67 1 view .LVU133
 553              		.align	2
 554              	.L11:
 555 0018 00000000 		.word	.LANCHOR0
 556 001c 00000000 		.word	.LANCHOR1
ARM GAS  C:\Users\gx\AppData\Local\Temp\ccMLpsxz.s 			page 18


 557              		.cfi_endproc
 558              	.LFE157:
 560              		.global	lv_calendar_header_dropdown_class
 561              		.section	.bss.calendar_param,"aw",%nobits
 562              		.align	2
 563              		.set	.LANCHOR0,. + 0
 566              	calendar_param:
 567 0000 00000000 		.space	4
 568              		.section	.rodata.lv_calendar_header_dropdown_class,"a"
 569              		.align	2
 570              		.set	.LANCHOR1,. + 0
 573              	lv_calendar_header_dropdown_class:
 574 0000 00000000 		.word	lv_obj_class
 575 0004 00000000 		.word	my_constructor
 576 0008 00000000 		.space	20
 576      00000000 
 576      00000000 
 576      00000000 
 576      00000000 
 577              		.text
 578              	.Letext0:
 579              		.file 3 "c:\\program files (x86)\\gnu arm embedded toolchain\\9 2020-q2-update\\arm-none-eabi\\inc
 580              		.file 4 "c:\\program files (x86)\\gnu arm embedded toolchain\\9 2020-q2-update\\arm-none-eabi\\inc
 581              		.file 5 "c:\\program files (x86)\\gnu arm embedded toolchain\\9 2020-q2-update\\lib\\gcc\\arm-none
 582              		.file 6 "c:\\program files (x86)\\gnu arm embedded toolchain\\9 2020-q2-update\\arm-none-eabi\\inc
 583              		.file 7 "c:\\program files (x86)\\gnu arm embedded toolchain\\9 2020-q2-update\\arm-none-eabi\\inc
 584              		.file 8 "c:\\program files (x86)\\gnu arm embedded toolchain\\9 2020-q2-update\\arm-none-eabi\\inc
 585              		.file 9 "d:\\practise\\f407_disc\\lvgl\\lvgl\\src\\misc\\lv_area.h"
 586              		.file 10 "d:\\practise\\f407_disc\\lvgl\\lvgl\\src\\font\\lv_font.h"
 587              		.file 11 "d:\\practise\\f407_disc\\lvgl\\lvgl\\src\\misc\\lv_color.h"
 588              		.file 12 "d:\\practise\\f407_disc\\lvgl\\lvgl\\src\\misc\\lv_txt.h"
 589              		.file 13 "d:\\practise\\f407_disc\\lvgl\\lvgl\\src\\misc\\lv_style.h"
 590              		.file 14 "d:\\practise\\f407_disc\\lvgl\\lvgl\\src\\misc\\lv_ll.h"
 591              		.file 15 "d:\\practise\\f407_disc\\lvgl\\lvgl\\src\\core\\lv_obj.h"
 592              		.file 16 "d:\\practise\\f407_disc\\lvgl\\lvgl\\src\\core\\lv_group.h"
 593              		.file 17 "d:\\practise\\f407_disc\\lvgl\\lvgl\\src\\core\\lv_obj_scroll.h"
 594              		.file 18 "d:\\practise\\f407_disc\\lvgl\\lvgl\\src\\core\\lv_obj_style.h"
 595              		.file 19 "d:\\practise\\f407_disc\\lvgl\\lvgl\\src\\draw\\lv_draw_label.h"
 596              		.file 20 "d:\\practise\\f407_disc\\lvgl\\lvgl\\src\\core\\lv_obj_class.h"
 597              		.file 21 "d:\\practise\\f407_disc\\lvgl\\lvgl\\src\\core\\lv_event.h"
 598              		.file 22 "lvgl/lvgl/src/extra/widgets/calendar/lv_calendar_header_dropdown.h"
 599              		.file 23 "d:\\practise\\f407_disc\\lvgl\\lvgl\\src\\widgets\\lv_btnmatrix.h"
 600              		.file 24 "lvgl/lvgl/src/extra/widgets/calendar/lv_calendar.h"
 601              		.file 25 "d:\\practise\\f407_disc\\lvgl\\lvgl\\src\\widgets\\lv_label.h"
 602              		.file 26 "d:\\practise\\f407_disc\\lvgl\\lvgl\\src\\widgets\\lv_dropdown.h"
 603              		.file 27 "d:\\practise\\f407_disc\\lvgl\\lvgl\\src\\extra\\layouts\\flex\\lv_flex.h"
 604              		.file 28 "d:\\practise\\f407_disc\\lvgl\\lvgl\\src\\core\\lv_obj_pos.h"
ARM GAS  C:\Users\gx\AppData\Local\Temp\ccMLpsxz.s 			page 19

