ARM GAS  C:\Users\gx\AppData\Local\Temp\ccIqfrB9.s 			page 1


   1              		.cpu cortex-m4
   2              		.eabi_attribute 27, 1
   3              		.eabi_attribute 28, 1
   4              		.eabi_attribute 20, 1
   5              		.eabi_attribute 21, 1
   6              		.eabi_attribute 23, 3
   7              		.eabi_attribute 24, 1
   8              		.eabi_attribute 25, 1
   9              		.eabi_attribute 26, 1
  10              		.eabi_attribute 30, 1
  11              		.eabi_attribute 34, 1
  12              		.eabi_attribute 18, 4
  13              		.file	"lv_dropdown.c"
  14              		.text
  15              	.Ltext0:
  16              		.cfi_sections	.debug_frame
  17              		.section	.text.lv_dropdownlist_destructor,"ax",%progbits
  18              		.align	1
  19              		.arch armv7e-m
  20              		.syntax unified
  21              		.thumb
  22              		.thumb_func
  23              		.fpu fpv4-sp-d16
  25              	lv_dropdownlist_destructor:
  26              	.LVL0:
  27              	.LFB183:
  28              		.file 1 "lvgl/lvgl/src/widgets/lv_dropdown.c"
   1:lvgl/lvgl/src/widgets/lv_dropdown.c **** /**
   2:lvgl/lvgl/src/widgets/lv_dropdown.c ****  * @file lv_dropdown.c
   3:lvgl/lvgl/src/widgets/lv_dropdown.c ****  *
   4:lvgl/lvgl/src/widgets/lv_dropdown.c ****  */
   5:lvgl/lvgl/src/widgets/lv_dropdown.c **** 
   6:lvgl/lvgl/src/widgets/lv_dropdown.c **** /*********************
   7:lvgl/lvgl/src/widgets/lv_dropdown.c ****  *      INCLUDES
   8:lvgl/lvgl/src/widgets/lv_dropdown.c ****  *********************/
   9:lvgl/lvgl/src/widgets/lv_dropdown.c **** #include "../core/lv_obj.h"
  10:lvgl/lvgl/src/widgets/lv_dropdown.c **** #include "lv_dropdown.h"
  11:lvgl/lvgl/src/widgets/lv_dropdown.c **** #if LV_USE_DROPDOWN != 0
  12:lvgl/lvgl/src/widgets/lv_dropdown.c **** 
  13:lvgl/lvgl/src/widgets/lv_dropdown.c **** #include "../misc/lv_assert.h"
  14:lvgl/lvgl/src/widgets/lv_dropdown.c **** #include "../draw/lv_draw.h"
  15:lvgl/lvgl/src/widgets/lv_dropdown.c **** #include "../core/lv_group.h"
  16:lvgl/lvgl/src/widgets/lv_dropdown.c **** #include "../core/lv_indev.h"
  17:lvgl/lvgl/src/widgets/lv_dropdown.c **** #include "../core/lv_disp.h"
  18:lvgl/lvgl/src/widgets/lv_dropdown.c **** #include "../font/lv_symbol_def.h"
  19:lvgl/lvgl/src/widgets/lv_dropdown.c **** #include "../misc/lv_anim.h"
  20:lvgl/lvgl/src/widgets/lv_dropdown.c **** #include "../misc/lv_math.h"
  21:lvgl/lvgl/src/widgets/lv_dropdown.c **** #include "../misc/lv_txt_ap.h"
  22:lvgl/lvgl/src/widgets/lv_dropdown.c **** #include <string.h>
  23:lvgl/lvgl/src/widgets/lv_dropdown.c **** 
  24:lvgl/lvgl/src/widgets/lv_dropdown.c **** /*********************
  25:lvgl/lvgl/src/widgets/lv_dropdown.c ****  *      DEFINES
  26:lvgl/lvgl/src/widgets/lv_dropdown.c ****  *********************/
  27:lvgl/lvgl/src/widgets/lv_dropdown.c **** #define MY_CLASS &lv_dropdown_class
  28:lvgl/lvgl/src/widgets/lv_dropdown.c **** #define MY_CLASS_LIST &lv_dropdownlist_class
  29:lvgl/lvgl/src/widgets/lv_dropdown.c **** 
  30:lvgl/lvgl/src/widgets/lv_dropdown.c **** #define LV_DROPDOWN_PR_NONE 0xFFFF
ARM GAS  C:\Users\gx\AppData\Local\Temp\ccIqfrB9.s 			page 2


  31:lvgl/lvgl/src/widgets/lv_dropdown.c **** 
  32:lvgl/lvgl/src/widgets/lv_dropdown.c **** /**********************
  33:lvgl/lvgl/src/widgets/lv_dropdown.c ****  *      TYPEDEFS
  34:lvgl/lvgl/src/widgets/lv_dropdown.c ****  **********************/
  35:lvgl/lvgl/src/widgets/lv_dropdown.c **** 
  36:lvgl/lvgl/src/widgets/lv_dropdown.c **** /**********************
  37:lvgl/lvgl/src/widgets/lv_dropdown.c ****  *  STATIC PROTOTYPES
  38:lvgl/lvgl/src/widgets/lv_dropdown.c ****  **********************/
  39:lvgl/lvgl/src/widgets/lv_dropdown.c **** static lv_obj_t * lv_dropdown_list_create(lv_obj_t * parent);
  40:lvgl/lvgl/src/widgets/lv_dropdown.c **** static void lv_dropdown_constructor(const lv_obj_class_t * class_p, lv_obj_t * obj);
  41:lvgl/lvgl/src/widgets/lv_dropdown.c **** static void lv_dropdown_destructor(const lv_obj_class_t * class_p, lv_obj_t * obj);
  42:lvgl/lvgl/src/widgets/lv_dropdown.c **** static void lv_dropdown_event(const lv_obj_class_t * class_p, lv_event_t * e);
  43:lvgl/lvgl/src/widgets/lv_dropdown.c **** static void draw_main(lv_event_t * e);
  44:lvgl/lvgl/src/widgets/lv_dropdown.c **** 
  45:lvgl/lvgl/src/widgets/lv_dropdown.c **** static void lv_dropdownlist_constructor(const lv_obj_class_t * class_p, lv_obj_t * obj);
  46:lvgl/lvgl/src/widgets/lv_dropdown.c **** static void lv_dropdownlist_destructor(const lv_obj_class_t * class_p, lv_obj_t * list_obj);
  47:lvgl/lvgl/src/widgets/lv_dropdown.c **** static void lv_dropdown_list_event(const lv_obj_class_t * class_p, lv_event_t * e);
  48:lvgl/lvgl/src/widgets/lv_dropdown.c **** static void draw_list(lv_event_t * e);
  49:lvgl/lvgl/src/widgets/lv_dropdown.c **** 
  50:lvgl/lvgl/src/widgets/lv_dropdown.c **** static void draw_box(lv_obj_t * dropdown_obj, const lv_area_t * clip_area, uint16_t id, lv_state_t 
  51:lvgl/lvgl/src/widgets/lv_dropdown.c **** static void draw_box_label(lv_obj_t * dropdown_obj, const lv_area_t * clip_area, uint16_t id, lv_st
  52:lvgl/lvgl/src/widgets/lv_dropdown.c **** static lv_res_t btn_release_handler(lv_obj_t * obj);
  53:lvgl/lvgl/src/widgets/lv_dropdown.c **** static lv_res_t list_release_handler(lv_obj_t * list_obj);
  54:lvgl/lvgl/src/widgets/lv_dropdown.c **** static void list_press_handler(lv_obj_t * page);
  55:lvgl/lvgl/src/widgets/lv_dropdown.c **** static uint16_t get_id_on_point(lv_obj_t * dropdown_obj, lv_coord_t y);
  56:lvgl/lvgl/src/widgets/lv_dropdown.c **** static void position_to_selected(lv_obj_t * obj);
  57:lvgl/lvgl/src/widgets/lv_dropdown.c **** static lv_obj_t * get_label(const lv_obj_t * obj);
  58:lvgl/lvgl/src/widgets/lv_dropdown.c **** 
  59:lvgl/lvgl/src/widgets/lv_dropdown.c **** /**********************
  60:lvgl/lvgl/src/widgets/lv_dropdown.c ****  *  STATIC VARIABLES
  61:lvgl/lvgl/src/widgets/lv_dropdown.c ****  **********************/
  62:lvgl/lvgl/src/widgets/lv_dropdown.c **** const lv_obj_class_t lv_dropdown_class = {
  63:lvgl/lvgl/src/widgets/lv_dropdown.c ****     .constructor_cb = lv_dropdown_constructor,
  64:lvgl/lvgl/src/widgets/lv_dropdown.c ****     .destructor_cb = lv_dropdown_destructor,
  65:lvgl/lvgl/src/widgets/lv_dropdown.c ****     .event_cb = lv_dropdown_event,
  66:lvgl/lvgl/src/widgets/lv_dropdown.c ****     .width_def = LV_DPI_DEF,
  67:lvgl/lvgl/src/widgets/lv_dropdown.c ****     .height_def = LV_SIZE_CONTENT,
  68:lvgl/lvgl/src/widgets/lv_dropdown.c ****     .instance_size = sizeof(lv_dropdown_t),
  69:lvgl/lvgl/src/widgets/lv_dropdown.c ****     .editable = LV_OBJ_CLASS_EDITABLE_TRUE,
  70:lvgl/lvgl/src/widgets/lv_dropdown.c ****     .group_def = LV_OBJ_CLASS_GROUP_DEF_TRUE,
  71:lvgl/lvgl/src/widgets/lv_dropdown.c ****     .base_class = &lv_obj_class
  72:lvgl/lvgl/src/widgets/lv_dropdown.c **** };
  73:lvgl/lvgl/src/widgets/lv_dropdown.c **** 
  74:lvgl/lvgl/src/widgets/lv_dropdown.c **** const lv_obj_class_t lv_dropdownlist_class = {
  75:lvgl/lvgl/src/widgets/lv_dropdown.c ****     .constructor_cb = lv_dropdownlist_constructor,
  76:lvgl/lvgl/src/widgets/lv_dropdown.c ****     .destructor_cb = lv_dropdownlist_destructor,
  77:lvgl/lvgl/src/widgets/lv_dropdown.c ****     .event_cb = lv_dropdown_list_event,
  78:lvgl/lvgl/src/widgets/lv_dropdown.c ****     .instance_size = sizeof(lv_dropdown_list_t),
  79:lvgl/lvgl/src/widgets/lv_dropdown.c ****     .base_class = &lv_obj_class
  80:lvgl/lvgl/src/widgets/lv_dropdown.c **** };
  81:lvgl/lvgl/src/widgets/lv_dropdown.c **** 
  82:lvgl/lvgl/src/widgets/lv_dropdown.c **** 
  83:lvgl/lvgl/src/widgets/lv_dropdown.c **** /**********************
  84:lvgl/lvgl/src/widgets/lv_dropdown.c ****  *      MACROS
  85:lvgl/lvgl/src/widgets/lv_dropdown.c ****  **********************/
  86:lvgl/lvgl/src/widgets/lv_dropdown.c **** 
  87:lvgl/lvgl/src/widgets/lv_dropdown.c **** /**********************
ARM GAS  C:\Users\gx\AppData\Local\Temp\ccIqfrB9.s 			page 3


  88:lvgl/lvgl/src/widgets/lv_dropdown.c ****  *   GLOBAL FUNCTIONS
  89:lvgl/lvgl/src/widgets/lv_dropdown.c ****  **********************/
  90:lvgl/lvgl/src/widgets/lv_dropdown.c **** 
  91:lvgl/lvgl/src/widgets/lv_dropdown.c **** lv_obj_t * lv_dropdown_create(lv_obj_t * parent)
  92:lvgl/lvgl/src/widgets/lv_dropdown.c **** {
  93:lvgl/lvgl/src/widgets/lv_dropdown.c ****     LV_LOG_INFO("begin")
  94:lvgl/lvgl/src/widgets/lv_dropdown.c ****     lv_obj_t * obj = lv_obj_class_create_obj(&lv_dropdown_class, parent);
  95:lvgl/lvgl/src/widgets/lv_dropdown.c ****     lv_obj_class_init_obj(obj);
  96:lvgl/lvgl/src/widgets/lv_dropdown.c ****     return obj;
  97:lvgl/lvgl/src/widgets/lv_dropdown.c **** }
  98:lvgl/lvgl/src/widgets/lv_dropdown.c **** 
  99:lvgl/lvgl/src/widgets/lv_dropdown.c **** /*=====================
 100:lvgl/lvgl/src/widgets/lv_dropdown.c ****  * Setter functions
 101:lvgl/lvgl/src/widgets/lv_dropdown.c ****  *====================*/
 102:lvgl/lvgl/src/widgets/lv_dropdown.c **** 
 103:lvgl/lvgl/src/widgets/lv_dropdown.c **** void lv_dropdown_set_text(lv_obj_t * obj, const char * txt)
 104:lvgl/lvgl/src/widgets/lv_dropdown.c **** {
 105:lvgl/lvgl/src/widgets/lv_dropdown.c ****     LV_ASSERT_OBJ(obj, MY_CLASS);
 106:lvgl/lvgl/src/widgets/lv_dropdown.c ****     lv_dropdown_t * dropdown = (lv_dropdown_t *)obj;
 107:lvgl/lvgl/src/widgets/lv_dropdown.c ****     if(dropdown->text == txt) return;
 108:lvgl/lvgl/src/widgets/lv_dropdown.c **** 
 109:lvgl/lvgl/src/widgets/lv_dropdown.c ****     dropdown->text = txt;
 110:lvgl/lvgl/src/widgets/lv_dropdown.c **** 
 111:lvgl/lvgl/src/widgets/lv_dropdown.c ****     lv_obj_invalidate(obj);
 112:lvgl/lvgl/src/widgets/lv_dropdown.c **** }
 113:lvgl/lvgl/src/widgets/lv_dropdown.c **** 
 114:lvgl/lvgl/src/widgets/lv_dropdown.c **** void lv_dropdown_set_options(lv_obj_t * obj, const char * options)
 115:lvgl/lvgl/src/widgets/lv_dropdown.c **** {
 116:lvgl/lvgl/src/widgets/lv_dropdown.c ****     LV_ASSERT_OBJ(obj, MY_CLASS);
 117:lvgl/lvgl/src/widgets/lv_dropdown.c ****     LV_ASSERT_NULL(options);
 118:lvgl/lvgl/src/widgets/lv_dropdown.c **** 
 119:lvgl/lvgl/src/widgets/lv_dropdown.c ****     lv_dropdown_t * dropdown = (lv_dropdown_t *)obj;
 120:lvgl/lvgl/src/widgets/lv_dropdown.c **** 
 121:lvgl/lvgl/src/widgets/lv_dropdown.c ****     /*Count the '\n'-s to determine the number of options*/
 122:lvgl/lvgl/src/widgets/lv_dropdown.c ****     dropdown->option_cnt = 0;
 123:lvgl/lvgl/src/widgets/lv_dropdown.c ****     uint32_t i;
 124:lvgl/lvgl/src/widgets/lv_dropdown.c ****     for(i = 0; options[i] != '\0'; i++) {
 125:lvgl/lvgl/src/widgets/lv_dropdown.c ****         if(options[i] == '\n') dropdown->option_cnt++;
 126:lvgl/lvgl/src/widgets/lv_dropdown.c ****     }
 127:lvgl/lvgl/src/widgets/lv_dropdown.c ****     dropdown->option_cnt++;   /*Last option has no `\n`*/
 128:lvgl/lvgl/src/widgets/lv_dropdown.c ****     dropdown->sel_opt_id      = 0;
 129:lvgl/lvgl/src/widgets/lv_dropdown.c ****     dropdown->sel_opt_id_orig = 0;
 130:lvgl/lvgl/src/widgets/lv_dropdown.c **** 
 131:lvgl/lvgl/src/widgets/lv_dropdown.c ****     /*Allocate space for the new text*/
 132:lvgl/lvgl/src/widgets/lv_dropdown.c **** #if LV_USE_ARABIC_PERSIAN_CHARS == 0
 133:lvgl/lvgl/src/widgets/lv_dropdown.c ****     size_t len = strlen(options) + 1;
 134:lvgl/lvgl/src/widgets/lv_dropdown.c **** #else
 135:lvgl/lvgl/src/widgets/lv_dropdown.c ****     size_t len = _lv_txt_ap_calc_bytes_cnt(options) + 1;
 136:lvgl/lvgl/src/widgets/lv_dropdown.c **** #endif
 137:lvgl/lvgl/src/widgets/lv_dropdown.c **** 
 138:lvgl/lvgl/src/widgets/lv_dropdown.c ****     if(dropdown->options != NULL && dropdown->static_txt == 0) {
 139:lvgl/lvgl/src/widgets/lv_dropdown.c ****         lv_mem_free(dropdown->options);
 140:lvgl/lvgl/src/widgets/lv_dropdown.c ****         dropdown->options = NULL;
 141:lvgl/lvgl/src/widgets/lv_dropdown.c ****     }
 142:lvgl/lvgl/src/widgets/lv_dropdown.c **** 
 143:lvgl/lvgl/src/widgets/lv_dropdown.c ****     dropdown->options = lv_mem_alloc(len);
 144:lvgl/lvgl/src/widgets/lv_dropdown.c **** 
ARM GAS  C:\Users\gx\AppData\Local\Temp\ccIqfrB9.s 			page 4


 145:lvgl/lvgl/src/widgets/lv_dropdown.c ****     LV_ASSERT_MALLOC(dropdown->options);
 146:lvgl/lvgl/src/widgets/lv_dropdown.c ****     if(dropdown->options == NULL) return;
 147:lvgl/lvgl/src/widgets/lv_dropdown.c **** 
 148:lvgl/lvgl/src/widgets/lv_dropdown.c **** #if LV_USE_ARABIC_PERSIAN_CHARS == 0
 149:lvgl/lvgl/src/widgets/lv_dropdown.c ****     strcpy(dropdown->options, options);
 150:lvgl/lvgl/src/widgets/lv_dropdown.c **** #else
 151:lvgl/lvgl/src/widgets/lv_dropdown.c ****     _lv_txt_ap_proc(options, dropdown->options);
 152:lvgl/lvgl/src/widgets/lv_dropdown.c **** #endif
 153:lvgl/lvgl/src/widgets/lv_dropdown.c **** 
 154:lvgl/lvgl/src/widgets/lv_dropdown.c ****     /*Now the text is dynamically allocated*/
 155:lvgl/lvgl/src/widgets/lv_dropdown.c ****     dropdown->static_txt = 0;
 156:lvgl/lvgl/src/widgets/lv_dropdown.c **** }
 157:lvgl/lvgl/src/widgets/lv_dropdown.c **** 
 158:lvgl/lvgl/src/widgets/lv_dropdown.c **** void lv_dropdown_set_options_static(lv_obj_t * obj, const char * options)
 159:lvgl/lvgl/src/widgets/lv_dropdown.c **** {
 160:lvgl/lvgl/src/widgets/lv_dropdown.c ****     LV_ASSERT_OBJ(obj, MY_CLASS);
 161:lvgl/lvgl/src/widgets/lv_dropdown.c ****     LV_ASSERT_NULL(options);
 162:lvgl/lvgl/src/widgets/lv_dropdown.c **** 
 163:lvgl/lvgl/src/widgets/lv_dropdown.c ****     lv_dropdown_t * dropdown = (lv_dropdown_t *)obj;
 164:lvgl/lvgl/src/widgets/lv_dropdown.c **** 
 165:lvgl/lvgl/src/widgets/lv_dropdown.c ****     /*Count the '\n'-s to determine the number of options*/
 166:lvgl/lvgl/src/widgets/lv_dropdown.c ****     dropdown->option_cnt = 0;
 167:lvgl/lvgl/src/widgets/lv_dropdown.c ****     uint32_t i;
 168:lvgl/lvgl/src/widgets/lv_dropdown.c ****     for(i = 0; options[i] != '\0'; i++) {
 169:lvgl/lvgl/src/widgets/lv_dropdown.c ****         if(options[i] == '\n') dropdown->option_cnt++;
 170:lvgl/lvgl/src/widgets/lv_dropdown.c ****     }
 171:lvgl/lvgl/src/widgets/lv_dropdown.c ****     dropdown->option_cnt++;   /*Last option has no `\n`*/
 172:lvgl/lvgl/src/widgets/lv_dropdown.c ****     dropdown->sel_opt_id      = 0;
 173:lvgl/lvgl/src/widgets/lv_dropdown.c ****     dropdown->sel_opt_id_orig = 0;
 174:lvgl/lvgl/src/widgets/lv_dropdown.c **** 
 175:lvgl/lvgl/src/widgets/lv_dropdown.c ****     if(dropdown->static_txt == 0 && dropdown->options != NULL) {
 176:lvgl/lvgl/src/widgets/lv_dropdown.c ****         lv_mem_free(dropdown->options);
 177:lvgl/lvgl/src/widgets/lv_dropdown.c ****         dropdown->options = NULL;
 178:lvgl/lvgl/src/widgets/lv_dropdown.c ****     }
 179:lvgl/lvgl/src/widgets/lv_dropdown.c **** 
 180:lvgl/lvgl/src/widgets/lv_dropdown.c ****     dropdown->static_txt = 1;
 181:lvgl/lvgl/src/widgets/lv_dropdown.c ****     dropdown->options = (char *)options;
 182:lvgl/lvgl/src/widgets/lv_dropdown.c **** }
 183:lvgl/lvgl/src/widgets/lv_dropdown.c **** 
 184:lvgl/lvgl/src/widgets/lv_dropdown.c **** void lv_dropdown_add_option(lv_obj_t * obj, const char * option, uint32_t pos)
 185:lvgl/lvgl/src/widgets/lv_dropdown.c **** {
 186:lvgl/lvgl/src/widgets/lv_dropdown.c ****     LV_ASSERT_OBJ(obj, MY_CLASS);
 187:lvgl/lvgl/src/widgets/lv_dropdown.c ****     LV_ASSERT_NULL(option);
 188:lvgl/lvgl/src/widgets/lv_dropdown.c **** 
 189:lvgl/lvgl/src/widgets/lv_dropdown.c ****     lv_dropdown_t * dropdown = (lv_dropdown_t *)obj;
 190:lvgl/lvgl/src/widgets/lv_dropdown.c **** 
 191:lvgl/lvgl/src/widgets/lv_dropdown.c ****     /*Convert static options to dynamic*/
 192:lvgl/lvgl/src/widgets/lv_dropdown.c ****     if(dropdown->static_txt != 0) {
 193:lvgl/lvgl/src/widgets/lv_dropdown.c ****         char * static_options = dropdown->options;
 194:lvgl/lvgl/src/widgets/lv_dropdown.c ****         size_t len = strlen(static_options) + 1;
 195:lvgl/lvgl/src/widgets/lv_dropdown.c **** 
 196:lvgl/lvgl/src/widgets/lv_dropdown.c ****         dropdown->options = lv_mem_alloc(len);
 197:lvgl/lvgl/src/widgets/lv_dropdown.c ****         LV_ASSERT_MALLOC(dropdown->options);
 198:lvgl/lvgl/src/widgets/lv_dropdown.c ****         if(dropdown->options == NULL) return;
 199:lvgl/lvgl/src/widgets/lv_dropdown.c **** 
 200:lvgl/lvgl/src/widgets/lv_dropdown.c ****         strcpy(dropdown->options, static_options);
 201:lvgl/lvgl/src/widgets/lv_dropdown.c ****         dropdown->static_txt = 0;
ARM GAS  C:\Users\gx\AppData\Local\Temp\ccIqfrB9.s 			page 5


 202:lvgl/lvgl/src/widgets/lv_dropdown.c ****     }
 203:lvgl/lvgl/src/widgets/lv_dropdown.c **** 
 204:lvgl/lvgl/src/widgets/lv_dropdown.c ****     /*Allocate space for the new option*/
 205:lvgl/lvgl/src/widgets/lv_dropdown.c ****     size_t old_len = (dropdown->options == NULL) ? 0 : strlen(dropdown->options);
 206:lvgl/lvgl/src/widgets/lv_dropdown.c **** #if LV_USE_ARABIC_PERSIAN_CHARS == 0
 207:lvgl/lvgl/src/widgets/lv_dropdown.c ****     size_t ins_len = strlen(option) + 1;
 208:lvgl/lvgl/src/widgets/lv_dropdown.c **** #else
 209:lvgl/lvgl/src/widgets/lv_dropdown.c ****     size_t ins_len = _lv_txt_ap_calc_bytes_cnt(option) + 1;
 210:lvgl/lvgl/src/widgets/lv_dropdown.c **** #endif
 211:lvgl/lvgl/src/widgets/lv_dropdown.c **** 
 212:lvgl/lvgl/src/widgets/lv_dropdown.c ****     size_t new_len = ins_len + old_len + 2; /*+2 for terminating NULL and possible \n*/
 213:lvgl/lvgl/src/widgets/lv_dropdown.c ****     dropdown->options        = lv_mem_realloc(dropdown->options, new_len + 1);
 214:lvgl/lvgl/src/widgets/lv_dropdown.c ****     LV_ASSERT_MALLOC(dropdown->options);
 215:lvgl/lvgl/src/widgets/lv_dropdown.c ****     if(dropdown->options == NULL) return;
 216:lvgl/lvgl/src/widgets/lv_dropdown.c **** 
 217:lvgl/lvgl/src/widgets/lv_dropdown.c ****     dropdown->options[old_len] = '\0';
 218:lvgl/lvgl/src/widgets/lv_dropdown.c **** 
 219:lvgl/lvgl/src/widgets/lv_dropdown.c ****     /*Find the insert character position*/
 220:lvgl/lvgl/src/widgets/lv_dropdown.c ****     uint32_t insert_pos = old_len;
 221:lvgl/lvgl/src/widgets/lv_dropdown.c ****     if(pos != LV_DROPDOWN_POS_LAST) {
 222:lvgl/lvgl/src/widgets/lv_dropdown.c ****         uint32_t opcnt = 0;
 223:lvgl/lvgl/src/widgets/lv_dropdown.c ****         for(insert_pos = 0; dropdown->options[insert_pos] != 0; insert_pos++) {
 224:lvgl/lvgl/src/widgets/lv_dropdown.c ****             if(opcnt == pos)
 225:lvgl/lvgl/src/widgets/lv_dropdown.c ****                 break;
 226:lvgl/lvgl/src/widgets/lv_dropdown.c ****             if(dropdown->options[insert_pos] == '\n')
 227:lvgl/lvgl/src/widgets/lv_dropdown.c ****                 opcnt++;
 228:lvgl/lvgl/src/widgets/lv_dropdown.c ****         }
 229:lvgl/lvgl/src/widgets/lv_dropdown.c ****     }
 230:lvgl/lvgl/src/widgets/lv_dropdown.c **** 
 231:lvgl/lvgl/src/widgets/lv_dropdown.c ****     /*Add delimiter to existing options*/
 232:lvgl/lvgl/src/widgets/lv_dropdown.c ****     if((insert_pos > 0) && (pos >= dropdown->option_cnt))
 233:lvgl/lvgl/src/widgets/lv_dropdown.c ****         _lv_txt_ins(dropdown->options, _lv_txt_encoded_get_char_id(dropdown->options, insert_pos++)
 234:lvgl/lvgl/src/widgets/lv_dropdown.c **** 
 235:lvgl/lvgl/src/widgets/lv_dropdown.c ****     /*Insert the new option, adding \n if necessary*/
 236:lvgl/lvgl/src/widgets/lv_dropdown.c ****     char * ins_buf = lv_mem_buf_get(ins_len + 2); /*+ 2 for terminating NULL and possible \n*/
 237:lvgl/lvgl/src/widgets/lv_dropdown.c ****     LV_ASSERT_MALLOC(ins_buf);
 238:lvgl/lvgl/src/widgets/lv_dropdown.c ****     if(ins_buf == NULL) return;
 239:lvgl/lvgl/src/widgets/lv_dropdown.c **** #if LV_USE_ARABIC_PERSIAN_CHARS == 0
 240:lvgl/lvgl/src/widgets/lv_dropdown.c ****     strcpy(ins_buf, option);
 241:lvgl/lvgl/src/widgets/lv_dropdown.c **** #else
 242:lvgl/lvgl/src/widgets/lv_dropdown.c ****     _lv_txt_ap_proc(option, ins_buf);
 243:lvgl/lvgl/src/widgets/lv_dropdown.c **** #endif
 244:lvgl/lvgl/src/widgets/lv_dropdown.c ****     if(pos < dropdown->option_cnt) strcat(ins_buf, "\n");
 245:lvgl/lvgl/src/widgets/lv_dropdown.c **** 
 246:lvgl/lvgl/src/widgets/lv_dropdown.c ****     _lv_txt_ins(dropdown->options, _lv_txt_encoded_get_char_id(dropdown->options, insert_pos), ins_
 247:lvgl/lvgl/src/widgets/lv_dropdown.c ****     lv_mem_buf_release(ins_buf);
 248:lvgl/lvgl/src/widgets/lv_dropdown.c **** 
 249:lvgl/lvgl/src/widgets/lv_dropdown.c ****     dropdown->option_cnt++;
 250:lvgl/lvgl/src/widgets/lv_dropdown.c **** 
 251:lvgl/lvgl/src/widgets/lv_dropdown.c ****     lv_obj_invalidate(obj);
 252:lvgl/lvgl/src/widgets/lv_dropdown.c **** }
 253:lvgl/lvgl/src/widgets/lv_dropdown.c **** 
 254:lvgl/lvgl/src/widgets/lv_dropdown.c **** void lv_dropdown_clear_options(lv_obj_t * obj)
 255:lvgl/lvgl/src/widgets/lv_dropdown.c **** {
 256:lvgl/lvgl/src/widgets/lv_dropdown.c ****     LV_ASSERT_OBJ(obj, MY_CLASS);
 257:lvgl/lvgl/src/widgets/lv_dropdown.c ****     lv_dropdown_t * dropdown = (lv_dropdown_t *)obj;
 258:lvgl/lvgl/src/widgets/lv_dropdown.c ****     if(dropdown->options == NULL) return;
ARM GAS  C:\Users\gx\AppData\Local\Temp\ccIqfrB9.s 			page 6


 259:lvgl/lvgl/src/widgets/lv_dropdown.c **** 
 260:lvgl/lvgl/src/widgets/lv_dropdown.c ****     if(dropdown->static_txt == 0)
 261:lvgl/lvgl/src/widgets/lv_dropdown.c ****         lv_mem_free(dropdown->options);
 262:lvgl/lvgl/src/widgets/lv_dropdown.c **** 
 263:lvgl/lvgl/src/widgets/lv_dropdown.c ****     dropdown->options = NULL;
 264:lvgl/lvgl/src/widgets/lv_dropdown.c ****     dropdown->static_txt = 0;
 265:lvgl/lvgl/src/widgets/lv_dropdown.c ****     dropdown->option_cnt = 0;
 266:lvgl/lvgl/src/widgets/lv_dropdown.c **** 
 267:lvgl/lvgl/src/widgets/lv_dropdown.c ****     lv_obj_invalidate(obj);
 268:lvgl/lvgl/src/widgets/lv_dropdown.c **** }
 269:lvgl/lvgl/src/widgets/lv_dropdown.c **** 
 270:lvgl/lvgl/src/widgets/lv_dropdown.c **** void lv_dropdown_set_selected(lv_obj_t * obj, uint16_t sel_opt)
 271:lvgl/lvgl/src/widgets/lv_dropdown.c **** {
 272:lvgl/lvgl/src/widgets/lv_dropdown.c ****     LV_ASSERT_OBJ(obj, MY_CLASS);
 273:lvgl/lvgl/src/widgets/lv_dropdown.c **** 
 274:lvgl/lvgl/src/widgets/lv_dropdown.c ****     lv_dropdown_t * dropdown = (lv_dropdown_t *)obj;
 275:lvgl/lvgl/src/widgets/lv_dropdown.c ****     if(dropdown->sel_opt_id == sel_opt) return;
 276:lvgl/lvgl/src/widgets/lv_dropdown.c **** 
 277:lvgl/lvgl/src/widgets/lv_dropdown.c ****     dropdown->sel_opt_id      = sel_opt < dropdown->option_cnt ? sel_opt : dropdown->option_cnt - 1
 278:lvgl/lvgl/src/widgets/lv_dropdown.c ****     dropdown->sel_opt_id_orig = dropdown->sel_opt_id;
 279:lvgl/lvgl/src/widgets/lv_dropdown.c **** 
 280:lvgl/lvgl/src/widgets/lv_dropdown.c ****     lv_obj_invalidate(obj);
 281:lvgl/lvgl/src/widgets/lv_dropdown.c **** }
 282:lvgl/lvgl/src/widgets/lv_dropdown.c **** 
 283:lvgl/lvgl/src/widgets/lv_dropdown.c **** void lv_dropdown_set_dir(lv_obj_t * obj, lv_dir_t dir)
 284:lvgl/lvgl/src/widgets/lv_dropdown.c **** {
 285:lvgl/lvgl/src/widgets/lv_dropdown.c ****     LV_ASSERT_OBJ(obj, MY_CLASS);
 286:lvgl/lvgl/src/widgets/lv_dropdown.c **** 
 287:lvgl/lvgl/src/widgets/lv_dropdown.c ****     lv_dropdown_t * dropdown = (lv_dropdown_t *)obj;
 288:lvgl/lvgl/src/widgets/lv_dropdown.c ****     if(dropdown->dir == dir) return;
 289:lvgl/lvgl/src/widgets/lv_dropdown.c **** 
 290:lvgl/lvgl/src/widgets/lv_dropdown.c ****     dropdown->dir = dir;
 291:lvgl/lvgl/src/widgets/lv_dropdown.c **** 
 292:lvgl/lvgl/src/widgets/lv_dropdown.c ****     lv_obj_invalidate(obj);
 293:lvgl/lvgl/src/widgets/lv_dropdown.c **** }
 294:lvgl/lvgl/src/widgets/lv_dropdown.c **** 
 295:lvgl/lvgl/src/widgets/lv_dropdown.c **** void lv_dropdown_set_symbol(lv_obj_t * obj, const void * symbol)
 296:lvgl/lvgl/src/widgets/lv_dropdown.c **** {
 297:lvgl/lvgl/src/widgets/lv_dropdown.c ****     LV_ASSERT_OBJ(obj, MY_CLASS);
 298:lvgl/lvgl/src/widgets/lv_dropdown.c **** 
 299:lvgl/lvgl/src/widgets/lv_dropdown.c ****     lv_dropdown_t * dropdown = (lv_dropdown_t *)obj;
 300:lvgl/lvgl/src/widgets/lv_dropdown.c ****     dropdown->symbol = symbol;
 301:lvgl/lvgl/src/widgets/lv_dropdown.c ****     lv_obj_invalidate(obj);
 302:lvgl/lvgl/src/widgets/lv_dropdown.c **** }
 303:lvgl/lvgl/src/widgets/lv_dropdown.c **** 
 304:lvgl/lvgl/src/widgets/lv_dropdown.c **** void lv_dropdown_set_selected_highlight(lv_obj_t * obj, bool en)
 305:lvgl/lvgl/src/widgets/lv_dropdown.c **** {
 306:lvgl/lvgl/src/widgets/lv_dropdown.c ****     LV_ASSERT_OBJ(obj, MY_CLASS);
 307:lvgl/lvgl/src/widgets/lv_dropdown.c **** 
 308:lvgl/lvgl/src/widgets/lv_dropdown.c ****     lv_dropdown_t * dropdown = (lv_dropdown_t *)obj;
 309:lvgl/lvgl/src/widgets/lv_dropdown.c ****     dropdown->selected_highlight = en;
 310:lvgl/lvgl/src/widgets/lv_dropdown.c ****     if(dropdown->list) lv_obj_invalidate(dropdown->list);
 311:lvgl/lvgl/src/widgets/lv_dropdown.c **** }
 312:lvgl/lvgl/src/widgets/lv_dropdown.c **** 
 313:lvgl/lvgl/src/widgets/lv_dropdown.c **** /*=====================
 314:lvgl/lvgl/src/widgets/lv_dropdown.c ****  * Getter functions
 315:lvgl/lvgl/src/widgets/lv_dropdown.c ****  *====================*/
ARM GAS  C:\Users\gx\AppData\Local\Temp\ccIqfrB9.s 			page 7


 316:lvgl/lvgl/src/widgets/lv_dropdown.c **** 
 317:lvgl/lvgl/src/widgets/lv_dropdown.c **** lv_obj_t * lv_dropdown_get_list(lv_obj_t * obj)
 318:lvgl/lvgl/src/widgets/lv_dropdown.c **** {
 319:lvgl/lvgl/src/widgets/lv_dropdown.c ****     LV_ASSERT_OBJ(obj, MY_CLASS);
 320:lvgl/lvgl/src/widgets/lv_dropdown.c ****     lv_dropdown_t * dropdown = (lv_dropdown_t *)obj;
 321:lvgl/lvgl/src/widgets/lv_dropdown.c **** 
 322:lvgl/lvgl/src/widgets/lv_dropdown.c ****     return dropdown->list;
 323:lvgl/lvgl/src/widgets/lv_dropdown.c **** 
 324:lvgl/lvgl/src/widgets/lv_dropdown.c **** }
 325:lvgl/lvgl/src/widgets/lv_dropdown.c **** 
 326:lvgl/lvgl/src/widgets/lv_dropdown.c **** const char * lv_dropdown_get_text(lv_obj_t * obj)
 327:lvgl/lvgl/src/widgets/lv_dropdown.c **** {
 328:lvgl/lvgl/src/widgets/lv_dropdown.c ****     LV_ASSERT_OBJ(obj, MY_CLASS);
 329:lvgl/lvgl/src/widgets/lv_dropdown.c ****     lv_dropdown_t * dropdown = (lv_dropdown_t *)obj;
 330:lvgl/lvgl/src/widgets/lv_dropdown.c **** 
 331:lvgl/lvgl/src/widgets/lv_dropdown.c ****     return dropdown->text;
 332:lvgl/lvgl/src/widgets/lv_dropdown.c **** }
 333:lvgl/lvgl/src/widgets/lv_dropdown.c **** 
 334:lvgl/lvgl/src/widgets/lv_dropdown.c **** const char * lv_dropdown_get_options(const lv_obj_t * obj)
 335:lvgl/lvgl/src/widgets/lv_dropdown.c **** {
 336:lvgl/lvgl/src/widgets/lv_dropdown.c ****     LV_ASSERT_OBJ(obj, MY_CLASS);
 337:lvgl/lvgl/src/widgets/lv_dropdown.c **** 
 338:lvgl/lvgl/src/widgets/lv_dropdown.c ****     lv_dropdown_t * dropdown = (lv_dropdown_t *)obj;
 339:lvgl/lvgl/src/widgets/lv_dropdown.c ****     return dropdown->options == NULL ? "" : dropdown->options;
 340:lvgl/lvgl/src/widgets/lv_dropdown.c **** }
 341:lvgl/lvgl/src/widgets/lv_dropdown.c **** 
 342:lvgl/lvgl/src/widgets/lv_dropdown.c **** uint16_t lv_dropdown_get_selected(const lv_obj_t * obj)
 343:lvgl/lvgl/src/widgets/lv_dropdown.c **** {
 344:lvgl/lvgl/src/widgets/lv_dropdown.c ****     LV_ASSERT_OBJ(obj, MY_CLASS);
 345:lvgl/lvgl/src/widgets/lv_dropdown.c **** 
 346:lvgl/lvgl/src/widgets/lv_dropdown.c ****     lv_dropdown_t * dropdown = (lv_dropdown_t *)obj;
 347:lvgl/lvgl/src/widgets/lv_dropdown.c **** 
 348:lvgl/lvgl/src/widgets/lv_dropdown.c ****     return dropdown->sel_opt_id;
 349:lvgl/lvgl/src/widgets/lv_dropdown.c **** }
 350:lvgl/lvgl/src/widgets/lv_dropdown.c **** 
 351:lvgl/lvgl/src/widgets/lv_dropdown.c **** uint16_t lv_dropdown_get_option_cnt(const lv_obj_t * obj)
 352:lvgl/lvgl/src/widgets/lv_dropdown.c **** {
 353:lvgl/lvgl/src/widgets/lv_dropdown.c ****     LV_ASSERT_OBJ(obj, MY_CLASS);
 354:lvgl/lvgl/src/widgets/lv_dropdown.c **** 
 355:lvgl/lvgl/src/widgets/lv_dropdown.c ****     lv_dropdown_t * dropdown = (lv_dropdown_t *)obj;
 356:lvgl/lvgl/src/widgets/lv_dropdown.c **** 
 357:lvgl/lvgl/src/widgets/lv_dropdown.c ****     return dropdown->option_cnt;
 358:lvgl/lvgl/src/widgets/lv_dropdown.c **** }
 359:lvgl/lvgl/src/widgets/lv_dropdown.c **** 
 360:lvgl/lvgl/src/widgets/lv_dropdown.c **** void lv_dropdown_get_selected_str(const lv_obj_t * obj, char * buf, uint32_t buf_size)
 361:lvgl/lvgl/src/widgets/lv_dropdown.c **** {
 362:lvgl/lvgl/src/widgets/lv_dropdown.c ****     LV_ASSERT_OBJ(obj, MY_CLASS);
 363:lvgl/lvgl/src/widgets/lv_dropdown.c **** 
 364:lvgl/lvgl/src/widgets/lv_dropdown.c ****     lv_dropdown_t * dropdown = (lv_dropdown_t *)obj;
 365:lvgl/lvgl/src/widgets/lv_dropdown.c **** 
 366:lvgl/lvgl/src/widgets/lv_dropdown.c ****     uint32_t i;
 367:lvgl/lvgl/src/widgets/lv_dropdown.c ****     uint32_t line        = 0;
 368:lvgl/lvgl/src/widgets/lv_dropdown.c ****     size_t txt_len     = strlen(dropdown->options);
 369:lvgl/lvgl/src/widgets/lv_dropdown.c **** 
 370:lvgl/lvgl/src/widgets/lv_dropdown.c ****     for(i = 0; i < txt_len && line != dropdown->sel_opt_id_orig; i++) {
 371:lvgl/lvgl/src/widgets/lv_dropdown.c ****         if(dropdown->options[i] == '\n') line++;
 372:lvgl/lvgl/src/widgets/lv_dropdown.c ****     }
ARM GAS  C:\Users\gx\AppData\Local\Temp\ccIqfrB9.s 			page 8


 373:lvgl/lvgl/src/widgets/lv_dropdown.c **** 
 374:lvgl/lvgl/src/widgets/lv_dropdown.c ****     uint32_t c;
 375:lvgl/lvgl/src/widgets/lv_dropdown.c ****     for(c = 0; i < txt_len && dropdown->options[i] != '\n'; c++, i++) {
 376:lvgl/lvgl/src/widgets/lv_dropdown.c ****         if(buf_size && c >= buf_size - 1) {
 377:lvgl/lvgl/src/widgets/lv_dropdown.c ****             LV_LOG_WARN("lv_dropdown_get_selected_str: the buffer was too small")
 378:lvgl/lvgl/src/widgets/lv_dropdown.c ****             break;
 379:lvgl/lvgl/src/widgets/lv_dropdown.c ****         }
 380:lvgl/lvgl/src/widgets/lv_dropdown.c ****         buf[c] = dropdown->options[i];
 381:lvgl/lvgl/src/widgets/lv_dropdown.c ****     }
 382:lvgl/lvgl/src/widgets/lv_dropdown.c **** 
 383:lvgl/lvgl/src/widgets/lv_dropdown.c ****     buf[c] = '\0';
 384:lvgl/lvgl/src/widgets/lv_dropdown.c **** }
 385:lvgl/lvgl/src/widgets/lv_dropdown.c **** 
 386:lvgl/lvgl/src/widgets/lv_dropdown.c **** const char * lv_dropdown_get_symbol(lv_obj_t * obj)
 387:lvgl/lvgl/src/widgets/lv_dropdown.c **** {
 388:lvgl/lvgl/src/widgets/lv_dropdown.c ****     LV_ASSERT_OBJ(obj, MY_CLASS);
 389:lvgl/lvgl/src/widgets/lv_dropdown.c ****     lv_dropdown_t * dropdown = (lv_dropdown_t *)obj;
 390:lvgl/lvgl/src/widgets/lv_dropdown.c ****     return dropdown->symbol;
 391:lvgl/lvgl/src/widgets/lv_dropdown.c **** }
 392:lvgl/lvgl/src/widgets/lv_dropdown.c **** 
 393:lvgl/lvgl/src/widgets/lv_dropdown.c **** bool lv_dropdown_get_selected_highlight(lv_obj_t * obj)
 394:lvgl/lvgl/src/widgets/lv_dropdown.c **** {
 395:lvgl/lvgl/src/widgets/lv_dropdown.c ****     LV_ASSERT_OBJ(obj, MY_CLASS);
 396:lvgl/lvgl/src/widgets/lv_dropdown.c ****     lv_dropdown_t * dropdown = (lv_dropdown_t *)obj;
 397:lvgl/lvgl/src/widgets/lv_dropdown.c ****     return dropdown->selected_highlight;
 398:lvgl/lvgl/src/widgets/lv_dropdown.c **** }
 399:lvgl/lvgl/src/widgets/lv_dropdown.c **** 
 400:lvgl/lvgl/src/widgets/lv_dropdown.c **** lv_dir_t lv_dropdown_get_dir(const lv_obj_t * obj)
 401:lvgl/lvgl/src/widgets/lv_dropdown.c **** {
 402:lvgl/lvgl/src/widgets/lv_dropdown.c ****     LV_ASSERT_OBJ(obj, MY_CLASS);
 403:lvgl/lvgl/src/widgets/lv_dropdown.c ****     lv_dropdown_t * dropdown = (lv_dropdown_t *)obj;
 404:lvgl/lvgl/src/widgets/lv_dropdown.c ****     return dropdown->dir;
 405:lvgl/lvgl/src/widgets/lv_dropdown.c **** }
 406:lvgl/lvgl/src/widgets/lv_dropdown.c **** 
 407:lvgl/lvgl/src/widgets/lv_dropdown.c **** /*=====================
 408:lvgl/lvgl/src/widgets/lv_dropdown.c ****  * Other functions
 409:lvgl/lvgl/src/widgets/lv_dropdown.c ****  *====================*/
 410:lvgl/lvgl/src/widgets/lv_dropdown.c **** 
 411:lvgl/lvgl/src/widgets/lv_dropdown.c **** void lv_dropdown_open(lv_obj_t * dropdown_obj)
 412:lvgl/lvgl/src/widgets/lv_dropdown.c **** {
 413:lvgl/lvgl/src/widgets/lv_dropdown.c ****     lv_dropdown_t * dropdown = (lv_dropdown_t *)dropdown_obj;
 414:lvgl/lvgl/src/widgets/lv_dropdown.c **** 
 415:lvgl/lvgl/src/widgets/lv_dropdown.c ****     lv_obj_add_state(dropdown_obj, LV_STATE_CHECKED);
 416:lvgl/lvgl/src/widgets/lv_dropdown.c **** 
 417:lvgl/lvgl/src/widgets/lv_dropdown.c ****     if(dropdown->list == NULL) {
 418:lvgl/lvgl/src/widgets/lv_dropdown.c ****         lv_obj_t * list_obj = lv_dropdown_list_create(lv_obj_get_screen(dropdown_obj));
 419:lvgl/lvgl/src/widgets/lv_dropdown.c ****         ((lv_dropdown_list_t*) list_obj)->dropdown = dropdown_obj;
 420:lvgl/lvgl/src/widgets/lv_dropdown.c ****         dropdown->list = list_obj;
 421:lvgl/lvgl/src/widgets/lv_dropdown.c ****         lv_obj_clear_flag(dropdown->list, LV_OBJ_FLAG_CLICK_FOCUSABLE);
 422:lvgl/lvgl/src/widgets/lv_dropdown.c ****         lv_obj_add_flag(dropdown->list, LV_OBJ_FLAG_IGNORE_LAYOUT);
 423:lvgl/lvgl/src/widgets/lv_dropdown.c ****         lv_obj_update_layout(dropdown->list);
 424:lvgl/lvgl/src/widgets/lv_dropdown.c ****     }
 425:lvgl/lvgl/src/widgets/lv_dropdown.c **** 
 426:lvgl/lvgl/src/widgets/lv_dropdown.c ****     /*To allow styling the list*/
 427:lvgl/lvgl/src/widgets/lv_dropdown.c ****     lv_event_send(dropdown_obj, LV_EVENT_READY, NULL);
 428:lvgl/lvgl/src/widgets/lv_dropdown.c **** 
 429:lvgl/lvgl/src/widgets/lv_dropdown.c ****     lv_obj_t * label = get_label(dropdown_obj);
ARM GAS  C:\Users\gx\AppData\Local\Temp\ccIqfrB9.s 			page 9


 430:lvgl/lvgl/src/widgets/lv_dropdown.c ****     lv_label_set_text_static(label, dropdown->options);
 431:lvgl/lvgl/src/widgets/lv_dropdown.c ****     lv_obj_set_width(dropdown->list, LV_SIZE_CONTENT);
 432:lvgl/lvgl/src/widgets/lv_dropdown.c **** 
 433:lvgl/lvgl/src/widgets/lv_dropdown.c ****     lv_obj_update_layout(label);
 434:lvgl/lvgl/src/widgets/lv_dropdown.c ****     /*Set smaller width to the width of the button*/
 435:lvgl/lvgl/src/widgets/lv_dropdown.c ****     if(lv_obj_get_width(dropdown->list) <= lv_obj_get_width(dropdown_obj) &&
 436:lvgl/lvgl/src/widgets/lv_dropdown.c ****        (dropdown->dir == LV_DIR_TOP || dropdown->dir == LV_DIR_BOTTOM)) {
 437:lvgl/lvgl/src/widgets/lv_dropdown.c ****         lv_obj_set_width(dropdown->list, lv_obj_get_width(dropdown_obj));
 438:lvgl/lvgl/src/widgets/lv_dropdown.c ****     }
 439:lvgl/lvgl/src/widgets/lv_dropdown.c **** 
 440:lvgl/lvgl/src/widgets/lv_dropdown.c ****     lv_coord_t label_h = lv_obj_get_height(label);
 441:lvgl/lvgl/src/widgets/lv_dropdown.c ****     lv_coord_t border_width = lv_obj_get_style_border_width(dropdown->list, LV_PART_MAIN);
 442:lvgl/lvgl/src/widgets/lv_dropdown.c ****     lv_coord_t top = lv_obj_get_style_pad_top(dropdown->list, LV_PART_MAIN) + border_width;
 443:lvgl/lvgl/src/widgets/lv_dropdown.c ****     lv_coord_t bottom = lv_obj_get_style_pad_bottom(dropdown->list, LV_PART_MAIN) + border_width;
 444:lvgl/lvgl/src/widgets/lv_dropdown.c **** 
 445:lvgl/lvgl/src/widgets/lv_dropdown.c ****     lv_coord_t list_fit_h = label_h + top + bottom;
 446:lvgl/lvgl/src/widgets/lv_dropdown.c ****     lv_coord_t list_h = list_fit_h;
 447:lvgl/lvgl/src/widgets/lv_dropdown.c **** 
 448:lvgl/lvgl/src/widgets/lv_dropdown.c ****     lv_dir_t dir = dropdown->dir;
 449:lvgl/lvgl/src/widgets/lv_dropdown.c ****     /*No space on the bottom? See if top is better.*/
 450:lvgl/lvgl/src/widgets/lv_dropdown.c ****     if(dropdown->dir == LV_DIR_BOTTOM) {
 451:lvgl/lvgl/src/widgets/lv_dropdown.c ****         if(dropdown_obj->coords.y2 + list_h > LV_VER_RES) {
 452:lvgl/lvgl/src/widgets/lv_dropdown.c ****             if(dropdown_obj->coords.y1 > LV_VER_RES - dropdown_obj->coords.y2) {
 453:lvgl/lvgl/src/widgets/lv_dropdown.c ****                 /*There is more space on the top, so make it drop up*/
 454:lvgl/lvgl/src/widgets/lv_dropdown.c ****                 dir = LV_DIR_TOP;
 455:lvgl/lvgl/src/widgets/lv_dropdown.c ****                 list_h = dropdown_obj->coords.y1 - 1;
 456:lvgl/lvgl/src/widgets/lv_dropdown.c ****             }
 457:lvgl/lvgl/src/widgets/lv_dropdown.c ****             else {
 458:lvgl/lvgl/src/widgets/lv_dropdown.c ****                 list_h = LV_VER_RES - dropdown_obj->coords.y2 - 1 ;
 459:lvgl/lvgl/src/widgets/lv_dropdown.c ****             }
 460:lvgl/lvgl/src/widgets/lv_dropdown.c ****         }
 461:lvgl/lvgl/src/widgets/lv_dropdown.c ****     }
 462:lvgl/lvgl/src/widgets/lv_dropdown.c ****     /*No space on the top? See if bottom is better.*/
 463:lvgl/lvgl/src/widgets/lv_dropdown.c ****     else if(dropdown->dir == LV_DIR_TOP) {
 464:lvgl/lvgl/src/widgets/lv_dropdown.c ****         if(dropdown_obj->coords.y1 - list_h < 0) {
 465:lvgl/lvgl/src/widgets/lv_dropdown.c ****             if(dropdown_obj->coords.y1 < LV_VER_RES - dropdown_obj->coords.y2) {
 466:lvgl/lvgl/src/widgets/lv_dropdown.c ****                 /*There is more space on the top, so make it drop up*/
 467:lvgl/lvgl/src/widgets/lv_dropdown.c ****                 dir = LV_DIR_BOTTOM;
 468:lvgl/lvgl/src/widgets/lv_dropdown.c ****                 list_h = LV_VER_RES - dropdown_obj->coords.y2;
 469:lvgl/lvgl/src/widgets/lv_dropdown.c ****             }
 470:lvgl/lvgl/src/widgets/lv_dropdown.c ****             else {
 471:lvgl/lvgl/src/widgets/lv_dropdown.c ****                 list_h = dropdown_obj->coords.y1;
 472:lvgl/lvgl/src/widgets/lv_dropdown.c ****             }
 473:lvgl/lvgl/src/widgets/lv_dropdown.c ****         }
 474:lvgl/lvgl/src/widgets/lv_dropdown.c ****     }
 475:lvgl/lvgl/src/widgets/lv_dropdown.c **** 
 476:lvgl/lvgl/src/widgets/lv_dropdown.c ****     if(list_h > list_fit_h) list_h = list_fit_h;
 477:lvgl/lvgl/src/widgets/lv_dropdown.c ****     lv_obj_set_height(dropdown->list, list_h);
 478:lvgl/lvgl/src/widgets/lv_dropdown.c **** 
 479:lvgl/lvgl/src/widgets/lv_dropdown.c ****     position_to_selected(dropdown_obj);
 480:lvgl/lvgl/src/widgets/lv_dropdown.c **** 
 481:lvgl/lvgl/src/widgets/lv_dropdown.c ****     if(dir == LV_DIR_BOTTOM)     lv_obj_align_to(dropdown->list, dropdown_obj, LV_ALIGN_OUT_BOTTOM_
 482:lvgl/lvgl/src/widgets/lv_dropdown.c ****     else if(dir == LV_DIR_TOP)   lv_obj_align_to(dropdown->list, dropdown_obj, LV_ALIGN_OUT_TOP_LEF
 483:lvgl/lvgl/src/widgets/lv_dropdown.c ****     else if(dir == LV_DIR_LEFT)  lv_obj_align_to(dropdown->list, dropdown_obj, LV_ALIGN_OUT_LEFT_TO
 484:lvgl/lvgl/src/widgets/lv_dropdown.c ****     else if(dir == LV_DIR_RIGHT) lv_obj_align_to(dropdown->list, dropdown_obj, LV_ALIGN_OUT_RIGHT_T
 485:lvgl/lvgl/src/widgets/lv_dropdown.c **** 
 486:lvgl/lvgl/src/widgets/lv_dropdown.c ****     lv_obj_update_layout(dropdown->list);
ARM GAS  C:\Users\gx\AppData\Local\Temp\ccIqfrB9.s 			page 10


 487:lvgl/lvgl/src/widgets/lv_dropdown.c **** 
 488:lvgl/lvgl/src/widgets/lv_dropdown.c ****     if(dropdown->dir == LV_DIR_LEFT || dropdown->dir == LV_DIR_RIGHT) {
 489:lvgl/lvgl/src/widgets/lv_dropdown.c ****         lv_coord_t y1 = lv_obj_get_y(dropdown->list);
 490:lvgl/lvgl/src/widgets/lv_dropdown.c ****         lv_coord_t y2 = lv_obj_get_y2(dropdown->list);
 491:lvgl/lvgl/src/widgets/lv_dropdown.c ****         if(y2 >= LV_VER_RES) {
 492:lvgl/lvgl/src/widgets/lv_dropdown.c ****             lv_obj_set_y(dropdown->list, y1 - (y2 - LV_VER_RES) - 1);
 493:lvgl/lvgl/src/widgets/lv_dropdown.c ****         }
 494:lvgl/lvgl/src/widgets/lv_dropdown.c ****     }
 495:lvgl/lvgl/src/widgets/lv_dropdown.c **** 
 496:lvgl/lvgl/src/widgets/lv_dropdown.c ****     lv_text_align_t align = lv_obj_calculate_style_text_align(label, LV_PART_MAIN, dropdown->option
 497:lvgl/lvgl/src/widgets/lv_dropdown.c **** 
 498:lvgl/lvgl/src/widgets/lv_dropdown.c ****     switch(align) {
 499:lvgl/lvgl/src/widgets/lv_dropdown.c ****     default:
 500:lvgl/lvgl/src/widgets/lv_dropdown.c ****     case LV_TEXT_ALIGN_LEFT:
 501:lvgl/lvgl/src/widgets/lv_dropdown.c ****         lv_obj_align(label, LV_ALIGN_TOP_LEFT, 0, 0);
 502:lvgl/lvgl/src/widgets/lv_dropdown.c ****         break;
 503:lvgl/lvgl/src/widgets/lv_dropdown.c ****     case LV_TEXT_ALIGN_RIGHT:
 504:lvgl/lvgl/src/widgets/lv_dropdown.c ****         lv_obj_align(label, LV_ALIGN_TOP_RIGHT, 0, 0);
 505:lvgl/lvgl/src/widgets/lv_dropdown.c ****         break;
 506:lvgl/lvgl/src/widgets/lv_dropdown.c ****     case LV_TEXT_ALIGN_CENTER:
 507:lvgl/lvgl/src/widgets/lv_dropdown.c ****         lv_obj_align(label, LV_ALIGN_CENTER, 0, 0);
 508:lvgl/lvgl/src/widgets/lv_dropdown.c ****         break;
 509:lvgl/lvgl/src/widgets/lv_dropdown.c **** 
 510:lvgl/lvgl/src/widgets/lv_dropdown.c ****     }
 511:lvgl/lvgl/src/widgets/lv_dropdown.c **** }
 512:lvgl/lvgl/src/widgets/lv_dropdown.c **** 
 513:lvgl/lvgl/src/widgets/lv_dropdown.c **** void lv_dropdown_close(lv_obj_t * obj)
 514:lvgl/lvgl/src/widgets/lv_dropdown.c **** {
 515:lvgl/lvgl/src/widgets/lv_dropdown.c ****     lv_obj_clear_state(obj, LV_STATE_CHECKED);
 516:lvgl/lvgl/src/widgets/lv_dropdown.c ****     lv_dropdown_t * dropdown = (lv_dropdown_t *)obj;
 517:lvgl/lvgl/src/widgets/lv_dropdown.c **** 
 518:lvgl/lvgl/src/widgets/lv_dropdown.c ****     dropdown->pr_opt_id = LV_DROPDOWN_PR_NONE;
 519:lvgl/lvgl/src/widgets/lv_dropdown.c ****     if(dropdown->list) lv_obj_del(dropdown->list);
 520:lvgl/lvgl/src/widgets/lv_dropdown.c **** 
 521:lvgl/lvgl/src/widgets/lv_dropdown.c ****     lv_event_send(obj, LV_EVENT_CANCEL, NULL);
 522:lvgl/lvgl/src/widgets/lv_dropdown.c **** }
 523:lvgl/lvgl/src/widgets/lv_dropdown.c **** 
 524:lvgl/lvgl/src/widgets/lv_dropdown.c **** /**********************
 525:lvgl/lvgl/src/widgets/lv_dropdown.c ****  *   STATIC FUNCTIONS
 526:lvgl/lvgl/src/widgets/lv_dropdown.c ****  **********************/
 527:lvgl/lvgl/src/widgets/lv_dropdown.c **** 
 528:lvgl/lvgl/src/widgets/lv_dropdown.c **** static lv_obj_t * lv_dropdown_list_create(lv_obj_t * parent)
 529:lvgl/lvgl/src/widgets/lv_dropdown.c **** {
 530:lvgl/lvgl/src/widgets/lv_dropdown.c ****     LV_LOG_INFO("begin")
 531:lvgl/lvgl/src/widgets/lv_dropdown.c ****     lv_obj_t * obj = lv_obj_class_create_obj(&lv_dropdownlist_class, parent);
 532:lvgl/lvgl/src/widgets/lv_dropdown.c ****     lv_obj_class_init_obj(obj);
 533:lvgl/lvgl/src/widgets/lv_dropdown.c ****     return obj;
 534:lvgl/lvgl/src/widgets/lv_dropdown.c **** }
 535:lvgl/lvgl/src/widgets/lv_dropdown.c **** 
 536:lvgl/lvgl/src/widgets/lv_dropdown.c **** static void lv_dropdown_constructor(const lv_obj_class_t * class_p, lv_obj_t * obj)
 537:lvgl/lvgl/src/widgets/lv_dropdown.c **** {
 538:lvgl/lvgl/src/widgets/lv_dropdown.c ****     LV_UNUSED(class_p);
 539:lvgl/lvgl/src/widgets/lv_dropdown.c ****     LV_TRACE_OBJ_CREATE("begin");
 540:lvgl/lvgl/src/widgets/lv_dropdown.c **** 
 541:lvgl/lvgl/src/widgets/lv_dropdown.c ****     lv_dropdown_t * dropdown = (lv_dropdown_t *)obj;
 542:lvgl/lvgl/src/widgets/lv_dropdown.c **** 
 543:lvgl/lvgl/src/widgets/lv_dropdown.c ****     /*Initialize the allocated 'ext'*/
ARM GAS  C:\Users\gx\AppData\Local\Temp\ccIqfrB9.s 			page 11


 544:lvgl/lvgl/src/widgets/lv_dropdown.c ****     dropdown->list          = NULL;
 545:lvgl/lvgl/src/widgets/lv_dropdown.c ****     dropdown->options     = NULL;
 546:lvgl/lvgl/src/widgets/lv_dropdown.c ****     dropdown->symbol         = LV_SYMBOL_DOWN;
 547:lvgl/lvgl/src/widgets/lv_dropdown.c ****     dropdown->text         = NULL;
 548:lvgl/lvgl/src/widgets/lv_dropdown.c ****     dropdown->static_txt = 1;
 549:lvgl/lvgl/src/widgets/lv_dropdown.c ****     dropdown->selected_highlight = 1;
 550:lvgl/lvgl/src/widgets/lv_dropdown.c ****     dropdown->sel_opt_id      = 0;
 551:lvgl/lvgl/src/widgets/lv_dropdown.c ****     dropdown->sel_opt_id_orig = 0;
 552:lvgl/lvgl/src/widgets/lv_dropdown.c ****     dropdown->pr_opt_id = LV_DROPDOWN_PR_NONE;
 553:lvgl/lvgl/src/widgets/lv_dropdown.c ****     dropdown->option_cnt      = 0;
 554:lvgl/lvgl/src/widgets/lv_dropdown.c ****     dropdown->dir = LV_DIR_BOTTOM;
 555:lvgl/lvgl/src/widgets/lv_dropdown.c **** 
 556:lvgl/lvgl/src/widgets/lv_dropdown.c ****     lv_obj_add_flag(obj, LV_OBJ_FLAG_SCROLL_ON_FOCUS);
 557:lvgl/lvgl/src/widgets/lv_dropdown.c ****     lv_dropdown_set_options_static(obj, "Option 1\nOption 2\nOption 3");
 558:lvgl/lvgl/src/widgets/lv_dropdown.c **** 
 559:lvgl/lvgl/src/widgets/lv_dropdown.c ****     LV_TRACE_OBJ_CREATE("finished");
 560:lvgl/lvgl/src/widgets/lv_dropdown.c **** }
 561:lvgl/lvgl/src/widgets/lv_dropdown.c **** 
 562:lvgl/lvgl/src/widgets/lv_dropdown.c **** static void lv_dropdown_destructor(const lv_obj_class_t * class_p, lv_obj_t * obj)
 563:lvgl/lvgl/src/widgets/lv_dropdown.c **** {
 564:lvgl/lvgl/src/widgets/lv_dropdown.c ****     LV_UNUSED(class_p);
 565:lvgl/lvgl/src/widgets/lv_dropdown.c ****     lv_dropdown_t * dropdown = (lv_dropdown_t *)obj;
 566:lvgl/lvgl/src/widgets/lv_dropdown.c **** 
 567:lvgl/lvgl/src/widgets/lv_dropdown.c ****     if(dropdown->list) {
 568:lvgl/lvgl/src/widgets/lv_dropdown.c ****         lv_obj_del(dropdown->list);
 569:lvgl/lvgl/src/widgets/lv_dropdown.c ****         dropdown->list = NULL;
 570:lvgl/lvgl/src/widgets/lv_dropdown.c ****     }
 571:lvgl/lvgl/src/widgets/lv_dropdown.c **** 
 572:lvgl/lvgl/src/widgets/lv_dropdown.c ****     if(!dropdown->static_txt) {
 573:lvgl/lvgl/src/widgets/lv_dropdown.c ****         lv_mem_free(dropdown->options);
 574:lvgl/lvgl/src/widgets/lv_dropdown.c ****         dropdown->options = NULL;
 575:lvgl/lvgl/src/widgets/lv_dropdown.c ****     }
 576:lvgl/lvgl/src/widgets/lv_dropdown.c **** }
 577:lvgl/lvgl/src/widgets/lv_dropdown.c **** 
 578:lvgl/lvgl/src/widgets/lv_dropdown.c **** static void lv_dropdownlist_constructor(const lv_obj_class_t * class_p, lv_obj_t * obj)
 579:lvgl/lvgl/src/widgets/lv_dropdown.c **** {
 580:lvgl/lvgl/src/widgets/lv_dropdown.c ****     LV_UNUSED(class_p);
 581:lvgl/lvgl/src/widgets/lv_dropdown.c ****     LV_TRACE_OBJ_CREATE("begin");
 582:lvgl/lvgl/src/widgets/lv_dropdown.c **** 
 583:lvgl/lvgl/src/widgets/lv_dropdown.c ****     lv_obj_clear_flag(obj, LV_OBJ_FLAG_SCROLL_ON_FOCUS);
 584:lvgl/lvgl/src/widgets/lv_dropdown.c ****     lv_label_create(obj);
 585:lvgl/lvgl/src/widgets/lv_dropdown.c **** 
 586:lvgl/lvgl/src/widgets/lv_dropdown.c ****     LV_TRACE_OBJ_CREATE("finished");
 587:lvgl/lvgl/src/widgets/lv_dropdown.c **** }
 588:lvgl/lvgl/src/widgets/lv_dropdown.c **** 
 589:lvgl/lvgl/src/widgets/lv_dropdown.c **** static void lv_dropdownlist_destructor(const lv_obj_class_t * class_p, lv_obj_t * list_obj)
 590:lvgl/lvgl/src/widgets/lv_dropdown.c **** {
  29              		.loc 1 590 1 view -0
  30              		.cfi_startproc
  31              		@ args = 0, pretend = 0, frame = 0
  32              		@ frame_needed = 0, uses_anonymous_args = 0
  33              		@ link register save eliminated.
 591:lvgl/lvgl/src/widgets/lv_dropdown.c ****     LV_UNUSED(class_p);
  34              		.loc 1 591 5 view .LVU1
 592:lvgl/lvgl/src/widgets/lv_dropdown.c ****     lv_dropdown_list_t * list = (lv_dropdown_list_t *)list_obj;
  35              		.loc 1 592 5 view .LVU2
 593:lvgl/lvgl/src/widgets/lv_dropdown.c ****     lv_obj_t * dropdown_obj = list->dropdown;
ARM GAS  C:\Users\gx\AppData\Local\Temp\ccIqfrB9.s 			page 12


  36              		.loc 1 593 5 view .LVU3
  37              		.loc 1 593 16 is_stmt 0 view .LVU4
  38 0000 4B6A     		ldr	r3, [r1, #36]
  39              	.LVL1:
 594:lvgl/lvgl/src/widgets/lv_dropdown.c ****     lv_dropdown_t * dropdown = (lv_dropdown_t *)dropdown_obj;
  40              		.loc 1 594 5 is_stmt 1 view .LVU5
 595:lvgl/lvgl/src/widgets/lv_dropdown.c ****     dropdown->list = NULL;
  41              		.loc 1 595 5 view .LVU6
  42              		.loc 1 595 20 is_stmt 0 view .LVU7
  43 0002 0022     		movs	r2, #0
  44 0004 5A62     		str	r2, [r3, #36]
 596:lvgl/lvgl/src/widgets/lv_dropdown.c **** }
  45              		.loc 1 596 1 view .LVU8
  46 0006 7047     		bx	lr
  47              		.cfi_endproc
  48              	.LFE183:
  50              		.section	.text.get_label,"ax",%progbits
  51              		.align	1
  52              		.syntax unified
  53              		.thumb
  54              		.thumb_func
  55              		.fpu fpv4-sp-d16
  57              	get_label:
  58              	.LVL2:
  59              	.LFB195:
 597:lvgl/lvgl/src/widgets/lv_dropdown.c **** 
 598:lvgl/lvgl/src/widgets/lv_dropdown.c **** static void lv_dropdown_event(const lv_obj_class_t * class_p, lv_event_t * e)
 599:lvgl/lvgl/src/widgets/lv_dropdown.c **** {
 600:lvgl/lvgl/src/widgets/lv_dropdown.c ****     LV_UNUSED(class_p);
 601:lvgl/lvgl/src/widgets/lv_dropdown.c **** 
 602:lvgl/lvgl/src/widgets/lv_dropdown.c ****     lv_res_t res;
 603:lvgl/lvgl/src/widgets/lv_dropdown.c **** 
 604:lvgl/lvgl/src/widgets/lv_dropdown.c ****     /*Call the ancestor's event handler*/
 605:lvgl/lvgl/src/widgets/lv_dropdown.c ****     res = lv_obj_event_base(MY_CLASS, e);
 606:lvgl/lvgl/src/widgets/lv_dropdown.c ****     if(res != LV_RES_OK) return;
 607:lvgl/lvgl/src/widgets/lv_dropdown.c **** 
 608:lvgl/lvgl/src/widgets/lv_dropdown.c ****     lv_event_code_t code = lv_event_get_code(e);
 609:lvgl/lvgl/src/widgets/lv_dropdown.c ****     lv_obj_t * obj = lv_event_get_target(e);
 610:lvgl/lvgl/src/widgets/lv_dropdown.c ****     lv_dropdown_t * dropdown = (lv_dropdown_t *)obj;
 611:lvgl/lvgl/src/widgets/lv_dropdown.c **** 
 612:lvgl/lvgl/src/widgets/lv_dropdown.c ****     if(code == LV_EVENT_FOCUSED) {
 613:lvgl/lvgl/src/widgets/lv_dropdown.c ****         lv_group_t * g             = lv_obj_get_group(obj);
 614:lvgl/lvgl/src/widgets/lv_dropdown.c ****         bool editing               = lv_group_get_editing(g);
 615:lvgl/lvgl/src/widgets/lv_dropdown.c ****         lv_indev_type_t indev_type = lv_indev_get_type(lv_indev_get_act());
 616:lvgl/lvgl/src/widgets/lv_dropdown.c **** 
 617:lvgl/lvgl/src/widgets/lv_dropdown.c ****         /*Encoders need special handling*/
 618:lvgl/lvgl/src/widgets/lv_dropdown.c ****         if(indev_type == LV_INDEV_TYPE_ENCODER) {
 619:lvgl/lvgl/src/widgets/lv_dropdown.c ****             /*Open the list if editing*/
 620:lvgl/lvgl/src/widgets/lv_dropdown.c ****             if(editing) {
 621:lvgl/lvgl/src/widgets/lv_dropdown.c ****                 lv_dropdown_open(obj);
 622:lvgl/lvgl/src/widgets/lv_dropdown.c ****             }
 623:lvgl/lvgl/src/widgets/lv_dropdown.c ****             /*Close the list if navigating*/
 624:lvgl/lvgl/src/widgets/lv_dropdown.c ****             else {
 625:lvgl/lvgl/src/widgets/lv_dropdown.c ****                 dropdown->sel_opt_id = dropdown->sel_opt_id_orig;
 626:lvgl/lvgl/src/widgets/lv_dropdown.c ****                 lv_dropdown_close(obj);
 627:lvgl/lvgl/src/widgets/lv_dropdown.c ****             }
 628:lvgl/lvgl/src/widgets/lv_dropdown.c ****         }
ARM GAS  C:\Users\gx\AppData\Local\Temp\ccIqfrB9.s 			page 13


 629:lvgl/lvgl/src/widgets/lv_dropdown.c ****     }
 630:lvgl/lvgl/src/widgets/lv_dropdown.c ****     else if(code == LV_EVENT_DEFOCUSED || code == LV_EVENT_LEAVE) {
 631:lvgl/lvgl/src/widgets/lv_dropdown.c ****         lv_dropdown_close(obj);
 632:lvgl/lvgl/src/widgets/lv_dropdown.c ****     }
 633:lvgl/lvgl/src/widgets/lv_dropdown.c ****     else if(code == LV_EVENT_RELEASED) {
 634:lvgl/lvgl/src/widgets/lv_dropdown.c ****         res = btn_release_handler(obj);
 635:lvgl/lvgl/src/widgets/lv_dropdown.c ****         if(res != LV_RES_OK) return;
 636:lvgl/lvgl/src/widgets/lv_dropdown.c ****     }
 637:lvgl/lvgl/src/widgets/lv_dropdown.c ****     else if(code == LV_EVENT_STYLE_CHANGED) {
 638:lvgl/lvgl/src/widgets/lv_dropdown.c ****         lv_obj_refresh_self_size(obj);
 639:lvgl/lvgl/src/widgets/lv_dropdown.c ****     }
 640:lvgl/lvgl/src/widgets/lv_dropdown.c ****     else if(code == LV_EVENT_SIZE_CHANGED) {
 641:lvgl/lvgl/src/widgets/lv_dropdown.c ****         lv_obj_refresh_self_size(obj);
 642:lvgl/lvgl/src/widgets/lv_dropdown.c ****     }
 643:lvgl/lvgl/src/widgets/lv_dropdown.c ****     else if(code == LV_EVENT_GET_SELF_SIZE) {
 644:lvgl/lvgl/src/widgets/lv_dropdown.c ****         lv_point_t * p = lv_event_get_param(e);
 645:lvgl/lvgl/src/widgets/lv_dropdown.c ****         const lv_font_t * font = lv_obj_get_style_text_font(obj, LV_PART_MAIN);
 646:lvgl/lvgl/src/widgets/lv_dropdown.c ****         p->y = lv_font_get_line_height(font);
 647:lvgl/lvgl/src/widgets/lv_dropdown.c ****     }
 648:lvgl/lvgl/src/widgets/lv_dropdown.c ****     else if(code == LV_EVENT_KEY) {
 649:lvgl/lvgl/src/widgets/lv_dropdown.c ****         char c = *((char *)lv_event_get_param(e));
 650:lvgl/lvgl/src/widgets/lv_dropdown.c ****         if(c == LV_KEY_RIGHT || c == LV_KEY_DOWN) {
 651:lvgl/lvgl/src/widgets/lv_dropdown.c ****             if(dropdown->list == NULL) {
 652:lvgl/lvgl/src/widgets/lv_dropdown.c ****                 lv_dropdown_open(obj);
 653:lvgl/lvgl/src/widgets/lv_dropdown.c ****             }
 654:lvgl/lvgl/src/widgets/lv_dropdown.c ****             else if(dropdown->sel_opt_id + 1 < dropdown->option_cnt) {
 655:lvgl/lvgl/src/widgets/lv_dropdown.c ****                 dropdown->sel_opt_id++;
 656:lvgl/lvgl/src/widgets/lv_dropdown.c ****                 position_to_selected(obj);
 657:lvgl/lvgl/src/widgets/lv_dropdown.c ****             }
 658:lvgl/lvgl/src/widgets/lv_dropdown.c ****         }
 659:lvgl/lvgl/src/widgets/lv_dropdown.c ****         else if(c == LV_KEY_LEFT || c == LV_KEY_UP) {
 660:lvgl/lvgl/src/widgets/lv_dropdown.c **** 
 661:lvgl/lvgl/src/widgets/lv_dropdown.c ****             if(dropdown->list == NULL) {
 662:lvgl/lvgl/src/widgets/lv_dropdown.c ****                 lv_dropdown_open(obj);
 663:lvgl/lvgl/src/widgets/lv_dropdown.c ****             }
 664:lvgl/lvgl/src/widgets/lv_dropdown.c ****             else if(dropdown->sel_opt_id > 0) {
 665:lvgl/lvgl/src/widgets/lv_dropdown.c ****                 dropdown->sel_opt_id--;
 666:lvgl/lvgl/src/widgets/lv_dropdown.c ****                 position_to_selected(obj);
 667:lvgl/lvgl/src/widgets/lv_dropdown.c ****             }
 668:lvgl/lvgl/src/widgets/lv_dropdown.c ****         }
 669:lvgl/lvgl/src/widgets/lv_dropdown.c ****         else if(c == LV_KEY_ESC) {
 670:lvgl/lvgl/src/widgets/lv_dropdown.c ****             dropdown->sel_opt_id = dropdown->sel_opt_id_orig;
 671:lvgl/lvgl/src/widgets/lv_dropdown.c ****             lv_dropdown_close(obj);
 672:lvgl/lvgl/src/widgets/lv_dropdown.c ****         }
 673:lvgl/lvgl/src/widgets/lv_dropdown.c ****         else if(c == LV_KEY_ENTER) {
 674:lvgl/lvgl/src/widgets/lv_dropdown.c ****             lv_indev_t * indev = lv_indev_get_act();
 675:lvgl/lvgl/src/widgets/lv_dropdown.c ****             /*If there is no indev ENTER was sent manually so process it.
 676:lvgl/lvgl/src/widgets/lv_dropdown.c ****              *If sent by an indev then LV_EVENT_RELEASED is also sent and process it there */
 677:lvgl/lvgl/src/widgets/lv_dropdown.c ****             if(indev == NULL) {
 678:lvgl/lvgl/src/widgets/lv_dropdown.c ****                 res = btn_release_handler(obj);
 679:lvgl/lvgl/src/widgets/lv_dropdown.c ****                 if(res != LV_RES_OK) return;
 680:lvgl/lvgl/src/widgets/lv_dropdown.c ****             }
 681:lvgl/lvgl/src/widgets/lv_dropdown.c ****         }
 682:lvgl/lvgl/src/widgets/lv_dropdown.c ****     }
 683:lvgl/lvgl/src/widgets/lv_dropdown.c ****     else if(code == LV_EVENT_DRAW_MAIN) {
 684:lvgl/lvgl/src/widgets/lv_dropdown.c ****         draw_main(e);
 685:lvgl/lvgl/src/widgets/lv_dropdown.c ****     }
ARM GAS  C:\Users\gx\AppData\Local\Temp\ccIqfrB9.s 			page 14


 686:lvgl/lvgl/src/widgets/lv_dropdown.c **** }
 687:lvgl/lvgl/src/widgets/lv_dropdown.c **** 
 688:lvgl/lvgl/src/widgets/lv_dropdown.c **** static void lv_dropdown_list_event(const lv_obj_class_t * class_p, lv_event_t * e)
 689:lvgl/lvgl/src/widgets/lv_dropdown.c **** {
 690:lvgl/lvgl/src/widgets/lv_dropdown.c ****     LV_UNUSED(class_p);
 691:lvgl/lvgl/src/widgets/lv_dropdown.c **** 
 692:lvgl/lvgl/src/widgets/lv_dropdown.c ****     lv_res_t res;
 693:lvgl/lvgl/src/widgets/lv_dropdown.c **** 
 694:lvgl/lvgl/src/widgets/lv_dropdown.c ****     /*Call the ancestor's event handler*/
 695:lvgl/lvgl/src/widgets/lv_dropdown.c ****     lv_event_code_t code = lv_event_get_code(e);
 696:lvgl/lvgl/src/widgets/lv_dropdown.c ****     if(code != LV_EVENT_DRAW_POST) {
 697:lvgl/lvgl/src/widgets/lv_dropdown.c ****         res = lv_obj_event_base(MY_CLASS_LIST, e);
 698:lvgl/lvgl/src/widgets/lv_dropdown.c ****         if(res != LV_RES_OK) return;
 699:lvgl/lvgl/src/widgets/lv_dropdown.c ****     }
 700:lvgl/lvgl/src/widgets/lv_dropdown.c ****     lv_obj_t * list = lv_event_get_target(e);
 701:lvgl/lvgl/src/widgets/lv_dropdown.c ****     lv_obj_t * dropdown_obj = ((lv_dropdown_list_t *)list)->dropdown;
 702:lvgl/lvgl/src/widgets/lv_dropdown.c ****     lv_dropdown_t * dropdown = (lv_dropdown_t *)dropdown_obj;
 703:lvgl/lvgl/src/widgets/lv_dropdown.c **** 
 704:lvgl/lvgl/src/widgets/lv_dropdown.c ****     if(code == LV_EVENT_RELEASED) {
 705:lvgl/lvgl/src/widgets/lv_dropdown.c ****         if(lv_indev_get_scroll_obj(lv_indev_get_act()) == NULL) {
 706:lvgl/lvgl/src/widgets/lv_dropdown.c ****             list_release_handler(list);
 707:lvgl/lvgl/src/widgets/lv_dropdown.c ****         }
 708:lvgl/lvgl/src/widgets/lv_dropdown.c ****     }
 709:lvgl/lvgl/src/widgets/lv_dropdown.c ****     else if(code == LV_EVENT_PRESSED) {
 710:lvgl/lvgl/src/widgets/lv_dropdown.c ****         list_press_handler(list);
 711:lvgl/lvgl/src/widgets/lv_dropdown.c ****     }
 712:lvgl/lvgl/src/widgets/lv_dropdown.c ****     else if(code == LV_EVENT_SCROLL_BEGIN) {
 713:lvgl/lvgl/src/widgets/lv_dropdown.c ****         dropdown->pr_opt_id = LV_DROPDOWN_PR_NONE;
 714:lvgl/lvgl/src/widgets/lv_dropdown.c ****         lv_obj_invalidate(list);
 715:lvgl/lvgl/src/widgets/lv_dropdown.c ****     }
 716:lvgl/lvgl/src/widgets/lv_dropdown.c ****     else if(code == LV_EVENT_DRAW_POST) {
 717:lvgl/lvgl/src/widgets/lv_dropdown.c ****         draw_list(e);
 718:lvgl/lvgl/src/widgets/lv_dropdown.c ****         res = lv_obj_event_base(MY_CLASS_LIST, e);
 719:lvgl/lvgl/src/widgets/lv_dropdown.c ****         if(res != LV_RES_OK) return;
 720:lvgl/lvgl/src/widgets/lv_dropdown.c ****     }
 721:lvgl/lvgl/src/widgets/lv_dropdown.c **** }
 722:lvgl/lvgl/src/widgets/lv_dropdown.c **** 
 723:lvgl/lvgl/src/widgets/lv_dropdown.c **** 
 724:lvgl/lvgl/src/widgets/lv_dropdown.c **** static void draw_main(lv_event_t * e)
 725:lvgl/lvgl/src/widgets/lv_dropdown.c **** {
 726:lvgl/lvgl/src/widgets/lv_dropdown.c ****     lv_obj_t * obj = lv_event_get_target(e);
 727:lvgl/lvgl/src/widgets/lv_dropdown.c ****     lv_dropdown_t * dropdown = (lv_dropdown_t *)obj;
 728:lvgl/lvgl/src/widgets/lv_dropdown.c ****     const lv_area_t * clip_area = lv_event_get_param(e);
 729:lvgl/lvgl/src/widgets/lv_dropdown.c **** 
 730:lvgl/lvgl/src/widgets/lv_dropdown.c ****     lv_coord_t border_width = lv_obj_get_style_border_width(obj, LV_PART_MAIN);
 731:lvgl/lvgl/src/widgets/lv_dropdown.c ****     lv_coord_t left = lv_obj_get_style_pad_left(obj, LV_PART_MAIN) + border_width;
 732:lvgl/lvgl/src/widgets/lv_dropdown.c ****     lv_coord_t right = lv_obj_get_style_pad_right(obj, LV_PART_MAIN) + border_width;
 733:lvgl/lvgl/src/widgets/lv_dropdown.c ****     lv_coord_t top = lv_obj_get_style_pad_top(obj, LV_PART_MAIN) + border_width;
 734:lvgl/lvgl/src/widgets/lv_dropdown.c **** 
 735:lvgl/lvgl/src/widgets/lv_dropdown.c ****     lv_draw_label_dsc_t symbol_dsc;
 736:lvgl/lvgl/src/widgets/lv_dropdown.c ****     lv_draw_label_dsc_init(&symbol_dsc);
 737:lvgl/lvgl/src/widgets/lv_dropdown.c ****     lv_obj_init_draw_label_dsc(obj, LV_PART_INDICATOR, &symbol_dsc);
 738:lvgl/lvgl/src/widgets/lv_dropdown.c **** 
 739:lvgl/lvgl/src/widgets/lv_dropdown.c ****     /*If no text specified use the selected option*/
 740:lvgl/lvgl/src/widgets/lv_dropdown.c ****     const char * opt_txt;
 741:lvgl/lvgl/src/widgets/lv_dropdown.c ****     if(dropdown->text) opt_txt = dropdown->text;
 742:lvgl/lvgl/src/widgets/lv_dropdown.c ****     else {
ARM GAS  C:\Users\gx\AppData\Local\Temp\ccIqfrB9.s 			page 15


 743:lvgl/lvgl/src/widgets/lv_dropdown.c ****         char * buf = lv_mem_buf_get(128);
 744:lvgl/lvgl/src/widgets/lv_dropdown.c ****         lv_dropdown_get_selected_str(obj, buf, 128);
 745:lvgl/lvgl/src/widgets/lv_dropdown.c ****         opt_txt = buf;
 746:lvgl/lvgl/src/widgets/lv_dropdown.c ****     }
 747:lvgl/lvgl/src/widgets/lv_dropdown.c **** 
 748:lvgl/lvgl/src/widgets/lv_dropdown.c ****     bool symbol_to_left = false;
 749:lvgl/lvgl/src/widgets/lv_dropdown.c ****     if(dropdown->dir == LV_DIR_LEFT) symbol_to_left = true;
 750:lvgl/lvgl/src/widgets/lv_dropdown.c ****     if(lv_obj_get_style_base_dir(obj, LV_PART_MAIN) == LV_BASE_DIR_RTL) symbol_to_left = true;
 751:lvgl/lvgl/src/widgets/lv_dropdown.c **** 
 752:lvgl/lvgl/src/widgets/lv_dropdown.c ****     if(dropdown->symbol) {
 753:lvgl/lvgl/src/widgets/lv_dropdown.c ****         lv_img_src_t symbol_type = lv_img_src_get_type(dropdown->symbol);
 754:lvgl/lvgl/src/widgets/lv_dropdown.c ****         lv_coord_t symbol_w;
 755:lvgl/lvgl/src/widgets/lv_dropdown.c ****         lv_coord_t symbol_h;
 756:lvgl/lvgl/src/widgets/lv_dropdown.c ****         if(symbol_type == LV_IMG_SRC_SYMBOL) {
 757:lvgl/lvgl/src/widgets/lv_dropdown.c ****             lv_point_t size;
 758:lvgl/lvgl/src/widgets/lv_dropdown.c ****             lv_txt_get_size(&size, dropdown->symbol, symbol_dsc.font, symbol_dsc.letter_space, symb
 759:lvgl/lvgl/src/widgets/lv_dropdown.c ****             symbol_w = size.x;
 760:lvgl/lvgl/src/widgets/lv_dropdown.c ****             symbol_h = size.y;
 761:lvgl/lvgl/src/widgets/lv_dropdown.c ****         } else {
 762:lvgl/lvgl/src/widgets/lv_dropdown.c ****             lv_img_header_t header;
 763:lvgl/lvgl/src/widgets/lv_dropdown.c ****             lv_res_t res = lv_img_decoder_get_info(dropdown->symbol, &header);
 764:lvgl/lvgl/src/widgets/lv_dropdown.c ****             if(res == LV_RES_OK) {
 765:lvgl/lvgl/src/widgets/lv_dropdown.c ****                 symbol_w = header.w;
 766:lvgl/lvgl/src/widgets/lv_dropdown.c ****                 symbol_h = header.h;
 767:lvgl/lvgl/src/widgets/lv_dropdown.c ****             } else {
 768:lvgl/lvgl/src/widgets/lv_dropdown.c ****                 symbol_w = -1;
 769:lvgl/lvgl/src/widgets/lv_dropdown.c ****                 symbol_h = -1;
 770:lvgl/lvgl/src/widgets/lv_dropdown.c ****             }
 771:lvgl/lvgl/src/widgets/lv_dropdown.c ****         }
 772:lvgl/lvgl/src/widgets/lv_dropdown.c **** 
 773:lvgl/lvgl/src/widgets/lv_dropdown.c ****         lv_area_t symbol_area;
 774:lvgl/lvgl/src/widgets/lv_dropdown.c ****         if(symbol_to_left) {
 775:lvgl/lvgl/src/widgets/lv_dropdown.c ****             symbol_area.x1 = obj->coords.x1 + left;
 776:lvgl/lvgl/src/widgets/lv_dropdown.c ****             symbol_area.x2 = symbol_area.x1 + symbol_w - 1;
 777:lvgl/lvgl/src/widgets/lv_dropdown.c ****         } else {
 778:lvgl/lvgl/src/widgets/lv_dropdown.c ****             symbol_area.x1 = obj->coords.x2 - right - symbol_w;
 779:lvgl/lvgl/src/widgets/lv_dropdown.c ****             symbol_area.x2 = symbol_area.x1 + symbol_w - 1;
 780:lvgl/lvgl/src/widgets/lv_dropdown.c ****         }
 781:lvgl/lvgl/src/widgets/lv_dropdown.c **** 
 782:lvgl/lvgl/src/widgets/lv_dropdown.c ****         if(symbol_type == LV_IMG_SRC_SYMBOL) {
 783:lvgl/lvgl/src/widgets/lv_dropdown.c ****             symbol_area.y1 = obj->coords.y1 + top;
 784:lvgl/lvgl/src/widgets/lv_dropdown.c ****             symbol_area.y2 = symbol_area.y1 + symbol_h - 1;
 785:lvgl/lvgl/src/widgets/lv_dropdown.c ****             lv_draw_label(&symbol_area, clip_area, &symbol_dsc, dropdown->symbol, NULL);
 786:lvgl/lvgl/src/widgets/lv_dropdown.c ****         } else {
 787:lvgl/lvgl/src/widgets/lv_dropdown.c ****             symbol_area.y1 = obj->coords.y1 + (lv_obj_get_height(obj) - symbol_h) / 2;
 788:lvgl/lvgl/src/widgets/lv_dropdown.c ****             symbol_area.y2 = symbol_area.y1 + symbol_h - 1;
 789:lvgl/lvgl/src/widgets/lv_dropdown.c ****             lv_draw_img_dsc_t img_dsc;
 790:lvgl/lvgl/src/widgets/lv_dropdown.c ****             lv_draw_img_dsc_init(&img_dsc);
 791:lvgl/lvgl/src/widgets/lv_dropdown.c ****             lv_obj_init_draw_img_dsc(obj, LV_PART_INDICATOR, &img_dsc);
 792:lvgl/lvgl/src/widgets/lv_dropdown.c ****             img_dsc.pivot.x = symbol_w / 2;
 793:lvgl/lvgl/src/widgets/lv_dropdown.c ****             img_dsc.pivot.y = symbol_h / 2;
 794:lvgl/lvgl/src/widgets/lv_dropdown.c ****             img_dsc.angle = lv_obj_get_style_transform_angle(obj, LV_PART_INDICATOR);
 795:lvgl/lvgl/src/widgets/lv_dropdown.c ****             lv_draw_img(&symbol_area, clip_area, dropdown->symbol, &img_dsc);
 796:lvgl/lvgl/src/widgets/lv_dropdown.c ****         }
 797:lvgl/lvgl/src/widgets/lv_dropdown.c ****     }
 798:lvgl/lvgl/src/widgets/lv_dropdown.c **** 
 799:lvgl/lvgl/src/widgets/lv_dropdown.c ****     lv_draw_label_dsc_t label_dsc;
ARM GAS  C:\Users\gx\AppData\Local\Temp\ccIqfrB9.s 			page 16


 800:lvgl/lvgl/src/widgets/lv_dropdown.c ****     lv_draw_label_dsc_init(&label_dsc);
 801:lvgl/lvgl/src/widgets/lv_dropdown.c ****     lv_obj_init_draw_label_dsc(obj, LV_PART_MAIN, &label_dsc);
 802:lvgl/lvgl/src/widgets/lv_dropdown.c **** 
 803:lvgl/lvgl/src/widgets/lv_dropdown.c ****     lv_point_t size;
 804:lvgl/lvgl/src/widgets/lv_dropdown.c ****     lv_txt_get_size(&size, opt_txt, label_dsc.font, label_dsc.letter_space, label_dsc.line_space, L
 805:lvgl/lvgl/src/widgets/lv_dropdown.c **** 
 806:lvgl/lvgl/src/widgets/lv_dropdown.c ****     lv_area_t txt_area;
 807:lvgl/lvgl/src/widgets/lv_dropdown.c ****     txt_area.y1 = obj->coords.y1 + top;
 808:lvgl/lvgl/src/widgets/lv_dropdown.c ****     txt_area.y2 = txt_area.y1 + size.y;
 809:lvgl/lvgl/src/widgets/lv_dropdown.c ****     /*Center align the text if no symbol*/
 810:lvgl/lvgl/src/widgets/lv_dropdown.c ****     if(dropdown->symbol == NULL) {
 811:lvgl/lvgl/src/widgets/lv_dropdown.c ****         txt_area.x1 = obj->coords.x1 + (lv_obj_get_width(obj) - size.x) / 2;
 812:lvgl/lvgl/src/widgets/lv_dropdown.c ****         txt_area.x2 = txt_area.x1 + size.x;
 813:lvgl/lvgl/src/widgets/lv_dropdown.c ****     }
 814:lvgl/lvgl/src/widgets/lv_dropdown.c ****     else {
 815:lvgl/lvgl/src/widgets/lv_dropdown.c ****         /*Text to the right*/
 816:lvgl/lvgl/src/widgets/lv_dropdown.c ****         if(symbol_to_left) {
 817:lvgl/lvgl/src/widgets/lv_dropdown.c ****             txt_area.x1 = obj->coords.x2 - right - size.x;
 818:lvgl/lvgl/src/widgets/lv_dropdown.c ****             txt_area.x2 = txt_area.x1 + size.x;
 819:lvgl/lvgl/src/widgets/lv_dropdown.c ****         } else {
 820:lvgl/lvgl/src/widgets/lv_dropdown.c ****             txt_area.x1 = obj->coords.x1 + left;
 821:lvgl/lvgl/src/widgets/lv_dropdown.c ****             txt_area.x2 = txt_area.x1 + size.x;
 822:lvgl/lvgl/src/widgets/lv_dropdown.c ****         }
 823:lvgl/lvgl/src/widgets/lv_dropdown.c ****     }
 824:lvgl/lvgl/src/widgets/lv_dropdown.c ****     lv_draw_label(&txt_area, clip_area, &label_dsc, opt_txt, NULL);
 825:lvgl/lvgl/src/widgets/lv_dropdown.c **** 
 826:lvgl/lvgl/src/widgets/lv_dropdown.c ****     if(dropdown->text == NULL) {
 827:lvgl/lvgl/src/widgets/lv_dropdown.c ****         lv_mem_buf_release((char *)opt_txt);
 828:lvgl/lvgl/src/widgets/lv_dropdown.c ****     }
 829:lvgl/lvgl/src/widgets/lv_dropdown.c **** }
 830:lvgl/lvgl/src/widgets/lv_dropdown.c **** 
 831:lvgl/lvgl/src/widgets/lv_dropdown.c **** static void draw_list(lv_event_t * e)
 832:lvgl/lvgl/src/widgets/lv_dropdown.c **** {
 833:lvgl/lvgl/src/widgets/lv_dropdown.c ****     lv_obj_t * list_obj = lv_event_get_target(e);
 834:lvgl/lvgl/src/widgets/lv_dropdown.c ****     lv_dropdown_list_t * list = (lv_dropdown_list_t *)list_obj;
 835:lvgl/lvgl/src/widgets/lv_dropdown.c ****     lv_obj_t * dropdown_obj = list->dropdown;
 836:lvgl/lvgl/src/widgets/lv_dropdown.c ****     lv_dropdown_t * dropdown = (lv_dropdown_t *)dropdown_obj;
 837:lvgl/lvgl/src/widgets/lv_dropdown.c ****     const lv_area_t * clip_area = lv_event_get_param(e);
 838:lvgl/lvgl/src/widgets/lv_dropdown.c **** 
 839:lvgl/lvgl/src/widgets/lv_dropdown.c ****     /*Draw the box labels if the list is not being deleted*/
 840:lvgl/lvgl/src/widgets/lv_dropdown.c ****     if(dropdown->list) {
 841:lvgl/lvgl/src/widgets/lv_dropdown.c ****         /* Clip area might be too large too to shadow but
 842:lvgl/lvgl/src/widgets/lv_dropdown.c ****          * the selected option can be drawn on only the background*/
 843:lvgl/lvgl/src/widgets/lv_dropdown.c ****         lv_area_t clip_area_core;
 844:lvgl/lvgl/src/widgets/lv_dropdown.c ****         bool has_common;
 845:lvgl/lvgl/src/widgets/lv_dropdown.c ****         has_common = _lv_area_intersect(&clip_area_core, clip_area, &dropdown->list->coords);
 846:lvgl/lvgl/src/widgets/lv_dropdown.c ****         if(has_common) {
 847:lvgl/lvgl/src/widgets/lv_dropdown.c ****             if(dropdown->selected_highlight) {
 848:lvgl/lvgl/src/widgets/lv_dropdown.c ****                 if(dropdown->pr_opt_id == dropdown->sel_opt_id) {
 849:lvgl/lvgl/src/widgets/lv_dropdown.c ****                     draw_box(dropdown_obj, &clip_area_core, dropdown->pr_opt_id, LV_STATE_CHECKED |
 850:lvgl/lvgl/src/widgets/lv_dropdown.c ****                     draw_box_label(dropdown_obj, &clip_area_core, dropdown->pr_opt_id, LV_STATE_CHE
 851:lvgl/lvgl/src/widgets/lv_dropdown.c ****                 } else {
 852:lvgl/lvgl/src/widgets/lv_dropdown.c ****                     draw_box(dropdown_obj, &clip_area_core, dropdown->pr_opt_id, LV_STATE_PRESSED);
 853:lvgl/lvgl/src/widgets/lv_dropdown.c ****                     draw_box_label(dropdown_obj, &clip_area_core, dropdown->pr_opt_id, LV_STATE_PRE
 854:lvgl/lvgl/src/widgets/lv_dropdown.c ****                     draw_box(dropdown_obj, &clip_area_core, dropdown->sel_opt_id, LV_STATE_CHECKED)
 855:lvgl/lvgl/src/widgets/lv_dropdown.c ****                     draw_box_label(dropdown_obj, &clip_area_core, dropdown->sel_opt_id, LV_STATE_CH
 856:lvgl/lvgl/src/widgets/lv_dropdown.c ****                 }
ARM GAS  C:\Users\gx\AppData\Local\Temp\ccIqfrB9.s 			page 17


 857:lvgl/lvgl/src/widgets/lv_dropdown.c ****             } else {
 858:lvgl/lvgl/src/widgets/lv_dropdown.c ****                 draw_box(dropdown_obj, &clip_area_core, dropdown->pr_opt_id, LV_STATE_PRESSED);
 859:lvgl/lvgl/src/widgets/lv_dropdown.c ****                 draw_box_label(dropdown_obj, &clip_area_core, dropdown->pr_opt_id, LV_STATE_PRESSED
 860:lvgl/lvgl/src/widgets/lv_dropdown.c ****             }
 861:lvgl/lvgl/src/widgets/lv_dropdown.c ****         }
 862:lvgl/lvgl/src/widgets/lv_dropdown.c ****     }
 863:lvgl/lvgl/src/widgets/lv_dropdown.c **** }
 864:lvgl/lvgl/src/widgets/lv_dropdown.c **** 
 865:lvgl/lvgl/src/widgets/lv_dropdown.c **** static void draw_box(lv_obj_t * dropdown_obj, const lv_area_t * clip_area, uint16_t id, lv_state_t 
 866:lvgl/lvgl/src/widgets/lv_dropdown.c **** {
 867:lvgl/lvgl/src/widgets/lv_dropdown.c ****     if(id == LV_DROPDOWN_PR_NONE) return;
 868:lvgl/lvgl/src/widgets/lv_dropdown.c **** 
 869:lvgl/lvgl/src/widgets/lv_dropdown.c ****     lv_dropdown_t * dropdown = (lv_dropdown_t *)dropdown_obj;
 870:lvgl/lvgl/src/widgets/lv_dropdown.c ****     lv_obj_t * list_obj = dropdown->list;
 871:lvgl/lvgl/src/widgets/lv_dropdown.c ****     lv_state_t state_ori = list_obj->state;
 872:lvgl/lvgl/src/widgets/lv_dropdown.c **** 
 873:lvgl/lvgl/src/widgets/lv_dropdown.c ****     if(state != list_obj->state) {
 874:lvgl/lvgl/src/widgets/lv_dropdown.c ****         list_obj->state = state;
 875:lvgl/lvgl/src/widgets/lv_dropdown.c ****         list_obj->skip_trans = 1;
 876:lvgl/lvgl/src/widgets/lv_dropdown.c ****     }
 877:lvgl/lvgl/src/widgets/lv_dropdown.c **** 
 878:lvgl/lvgl/src/widgets/lv_dropdown.c ****     /*Draw a rectangle under the selected item*/
 879:lvgl/lvgl/src/widgets/lv_dropdown.c ****     const lv_font_t * font    = lv_obj_get_style_text_font(list_obj, LV_PART_SELECTED);
 880:lvgl/lvgl/src/widgets/lv_dropdown.c ****     lv_coord_t line_space = lv_obj_get_style_text_line_space(list_obj,  LV_PART_SELECTED);
 881:lvgl/lvgl/src/widgets/lv_dropdown.c ****     lv_coord_t font_h         = lv_font_get_line_height(font);
 882:lvgl/lvgl/src/widgets/lv_dropdown.c **** 
 883:lvgl/lvgl/src/widgets/lv_dropdown.c ****     /*Draw the selected*/
 884:lvgl/lvgl/src/widgets/lv_dropdown.c ****     lv_obj_t * label = get_label(dropdown_obj);
 885:lvgl/lvgl/src/widgets/lv_dropdown.c ****     lv_area_t rect_area;
 886:lvgl/lvgl/src/widgets/lv_dropdown.c ****     rect_area.y1 = label->coords.y1;
 887:lvgl/lvgl/src/widgets/lv_dropdown.c ****     rect_area.y1 += id * (font_h + line_space);
 888:lvgl/lvgl/src/widgets/lv_dropdown.c ****     rect_area.y1 -= line_space / 2;
 889:lvgl/lvgl/src/widgets/lv_dropdown.c **** 
 890:lvgl/lvgl/src/widgets/lv_dropdown.c ****     rect_area.y2 = rect_area.y1 + font_h + line_space - 1;
 891:lvgl/lvgl/src/widgets/lv_dropdown.c ****     rect_area.x1 = dropdown->list->coords.x1;
 892:lvgl/lvgl/src/widgets/lv_dropdown.c ****     rect_area.x2 = dropdown->list->coords.x2;
 893:lvgl/lvgl/src/widgets/lv_dropdown.c **** 
 894:lvgl/lvgl/src/widgets/lv_dropdown.c ****     lv_draw_rect_dsc_t sel_rect;
 895:lvgl/lvgl/src/widgets/lv_dropdown.c ****     lv_draw_rect_dsc_init(&sel_rect);
 896:lvgl/lvgl/src/widgets/lv_dropdown.c ****     lv_obj_init_draw_rect_dsc(list_obj,  LV_PART_SELECTED, &sel_rect);
 897:lvgl/lvgl/src/widgets/lv_dropdown.c ****     lv_draw_rect(&rect_area, clip_area, &sel_rect);
 898:lvgl/lvgl/src/widgets/lv_dropdown.c **** 
 899:lvgl/lvgl/src/widgets/lv_dropdown.c ****     list_obj->state = state_ori;
 900:lvgl/lvgl/src/widgets/lv_dropdown.c ****     list_obj->skip_trans = 0;
 901:lvgl/lvgl/src/widgets/lv_dropdown.c **** }
 902:lvgl/lvgl/src/widgets/lv_dropdown.c **** 
 903:lvgl/lvgl/src/widgets/lv_dropdown.c **** static void draw_box_label(lv_obj_t * dropdown_obj, const lv_area_t * clip_area, uint16_t id, lv_st
 904:lvgl/lvgl/src/widgets/lv_dropdown.c **** {
 905:lvgl/lvgl/src/widgets/lv_dropdown.c ****     if(id == LV_DROPDOWN_PR_NONE) return;
 906:lvgl/lvgl/src/widgets/lv_dropdown.c **** 
 907:lvgl/lvgl/src/widgets/lv_dropdown.c ****     lv_dropdown_t * dropdown = (lv_dropdown_t *)dropdown_obj;
 908:lvgl/lvgl/src/widgets/lv_dropdown.c ****     lv_obj_t * list_obj = dropdown->list;
 909:lvgl/lvgl/src/widgets/lv_dropdown.c ****     lv_state_t state_orig = list_obj->state;
 910:lvgl/lvgl/src/widgets/lv_dropdown.c **** 
 911:lvgl/lvgl/src/widgets/lv_dropdown.c ****     if(state != list_obj->state) {
 912:lvgl/lvgl/src/widgets/lv_dropdown.c ****         list_obj->state =  state;
 913:lvgl/lvgl/src/widgets/lv_dropdown.c ****         list_obj->skip_trans = 1;
ARM GAS  C:\Users\gx\AppData\Local\Temp\ccIqfrB9.s 			page 18


 914:lvgl/lvgl/src/widgets/lv_dropdown.c ****     }
 915:lvgl/lvgl/src/widgets/lv_dropdown.c **** 
 916:lvgl/lvgl/src/widgets/lv_dropdown.c ****     lv_draw_label_dsc_t label_dsc;
 917:lvgl/lvgl/src/widgets/lv_dropdown.c ****     lv_draw_label_dsc_init(&label_dsc);
 918:lvgl/lvgl/src/widgets/lv_dropdown.c ****     lv_obj_init_draw_label_dsc(list_obj, LV_PART_SELECTED, &label_dsc);
 919:lvgl/lvgl/src/widgets/lv_dropdown.c **** 
 920:lvgl/lvgl/src/widgets/lv_dropdown.c ****     label_dsc.line_space = lv_obj_get_style_text_line_space(list_obj, LV_PART_SELECTED);  /*Line sp
 921:lvgl/lvgl/src/widgets/lv_dropdown.c **** 
 922:lvgl/lvgl/src/widgets/lv_dropdown.c ****     lv_obj_t * label = get_label(dropdown_obj);
 923:lvgl/lvgl/src/widgets/lv_dropdown.c ****     if(label == NULL) return;
 924:lvgl/lvgl/src/widgets/lv_dropdown.c **** 
 925:lvgl/lvgl/src/widgets/lv_dropdown.c ****     lv_coord_t font_h        = lv_font_get_line_height(label_dsc.font);
 926:lvgl/lvgl/src/widgets/lv_dropdown.c **** 
 927:lvgl/lvgl/src/widgets/lv_dropdown.c ****     lv_area_t area_sel;
 928:lvgl/lvgl/src/widgets/lv_dropdown.c ****     area_sel.y1 = label->coords.y1;
 929:lvgl/lvgl/src/widgets/lv_dropdown.c ****     area_sel.y1 += id * (font_h + label_dsc.line_space);
 930:lvgl/lvgl/src/widgets/lv_dropdown.c ****     area_sel.y1 -= label_dsc.line_space / 2;
 931:lvgl/lvgl/src/widgets/lv_dropdown.c **** 
 932:lvgl/lvgl/src/widgets/lv_dropdown.c ****     area_sel.y2 = area_sel.y1 + font_h + label_dsc.line_space - 1;
 933:lvgl/lvgl/src/widgets/lv_dropdown.c ****     area_sel.x1 = list_obj->coords.x1;
 934:lvgl/lvgl/src/widgets/lv_dropdown.c ****     area_sel.x2 = list_obj->coords.x2;
 935:lvgl/lvgl/src/widgets/lv_dropdown.c ****     lv_area_t mask_sel;
 936:lvgl/lvgl/src/widgets/lv_dropdown.c ****     bool area_ok;
 937:lvgl/lvgl/src/widgets/lv_dropdown.c ****     area_ok = _lv_area_intersect(&mask_sel, clip_area, &area_sel);
 938:lvgl/lvgl/src/widgets/lv_dropdown.c ****     if(area_ok) {
 939:lvgl/lvgl/src/widgets/lv_dropdown.c ****         lv_draw_label(&label->coords, &mask_sel, &label_dsc, lv_label_get_text(label), NULL);
 940:lvgl/lvgl/src/widgets/lv_dropdown.c ****     }
 941:lvgl/lvgl/src/widgets/lv_dropdown.c ****     list_obj->state = state_orig;
 942:lvgl/lvgl/src/widgets/lv_dropdown.c ****     list_obj->skip_trans = 0;
 943:lvgl/lvgl/src/widgets/lv_dropdown.c **** }
 944:lvgl/lvgl/src/widgets/lv_dropdown.c **** 
 945:lvgl/lvgl/src/widgets/lv_dropdown.c **** 
 946:lvgl/lvgl/src/widgets/lv_dropdown.c **** static lv_res_t btn_release_handler(lv_obj_t * obj)
 947:lvgl/lvgl/src/widgets/lv_dropdown.c **** {
 948:lvgl/lvgl/src/widgets/lv_dropdown.c ****     lv_dropdown_t * dropdown = (lv_dropdown_t *)obj;
 949:lvgl/lvgl/src/widgets/lv_dropdown.c ****     lv_indev_t * indev = lv_indev_get_act();
 950:lvgl/lvgl/src/widgets/lv_dropdown.c ****     if(lv_indev_get_scroll_obj(indev) == NULL) {
 951:lvgl/lvgl/src/widgets/lv_dropdown.c ****         if(dropdown->list) {
 952:lvgl/lvgl/src/widgets/lv_dropdown.c ****             lv_dropdown_close(obj);
 953:lvgl/lvgl/src/widgets/lv_dropdown.c ****             if(dropdown->sel_opt_id_orig != dropdown->sel_opt_id) {
 954:lvgl/lvgl/src/widgets/lv_dropdown.c ****                 dropdown->sel_opt_id_orig = dropdown->sel_opt_id;
 955:lvgl/lvgl/src/widgets/lv_dropdown.c ****                 lv_res_t res;
 956:lvgl/lvgl/src/widgets/lv_dropdown.c ****                 uint32_t id  = dropdown->sel_opt_id; /*Just to use uint32_t in event data*/
 957:lvgl/lvgl/src/widgets/lv_dropdown.c ****                 res = lv_event_send(obj, LV_EVENT_VALUE_CHANGED, &id);
 958:lvgl/lvgl/src/widgets/lv_dropdown.c ****                 if(res != LV_RES_OK) return res;
 959:lvgl/lvgl/src/widgets/lv_dropdown.c ****                 lv_obj_invalidate(obj);
 960:lvgl/lvgl/src/widgets/lv_dropdown.c ****             }
 961:lvgl/lvgl/src/widgets/lv_dropdown.c ****             lv_indev_type_t indev_type = lv_indev_get_type(indev);
 962:lvgl/lvgl/src/widgets/lv_dropdown.c ****             if(indev_type == LV_INDEV_TYPE_ENCODER) {
 963:lvgl/lvgl/src/widgets/lv_dropdown.c ****                 lv_group_set_editing(lv_obj_get_group(obj), false);
 964:lvgl/lvgl/src/widgets/lv_dropdown.c ****             }
 965:lvgl/lvgl/src/widgets/lv_dropdown.c ****         }
 966:lvgl/lvgl/src/widgets/lv_dropdown.c ****         else {
 967:lvgl/lvgl/src/widgets/lv_dropdown.c ****             lv_dropdown_open(obj);
 968:lvgl/lvgl/src/widgets/lv_dropdown.c ****         }
 969:lvgl/lvgl/src/widgets/lv_dropdown.c ****     }
 970:lvgl/lvgl/src/widgets/lv_dropdown.c ****     else {
ARM GAS  C:\Users\gx\AppData\Local\Temp\ccIqfrB9.s 			page 19


 971:lvgl/lvgl/src/widgets/lv_dropdown.c ****         dropdown->sel_opt_id = dropdown->sel_opt_id_orig;
 972:lvgl/lvgl/src/widgets/lv_dropdown.c ****         lv_obj_invalidate(obj);
 973:lvgl/lvgl/src/widgets/lv_dropdown.c ****     }
 974:lvgl/lvgl/src/widgets/lv_dropdown.c ****     return LV_RES_OK;
 975:lvgl/lvgl/src/widgets/lv_dropdown.c **** }
 976:lvgl/lvgl/src/widgets/lv_dropdown.c **** 
 977:lvgl/lvgl/src/widgets/lv_dropdown.c **** /**
 978:lvgl/lvgl/src/widgets/lv_dropdown.c ****  * Called when a drop down list is released to open it or set new option
 979:lvgl/lvgl/src/widgets/lv_dropdown.c ****  * @param list pointer to the drop down list's list
 980:lvgl/lvgl/src/widgets/lv_dropdown.c ****  * @return LV_RES_INV if the list is not being deleted in the user callback. Else LV_RES_OK
 981:lvgl/lvgl/src/widgets/lv_dropdown.c ****  */
 982:lvgl/lvgl/src/widgets/lv_dropdown.c **** static lv_res_t list_release_handler(lv_obj_t * list_obj)
 983:lvgl/lvgl/src/widgets/lv_dropdown.c **** {
 984:lvgl/lvgl/src/widgets/lv_dropdown.c ****     lv_dropdown_list_t * list = (lv_dropdown_list_t*) list_obj;
 985:lvgl/lvgl/src/widgets/lv_dropdown.c ****     lv_obj_t * dropdown_obj = list->dropdown;
 986:lvgl/lvgl/src/widgets/lv_dropdown.c ****     lv_dropdown_t * dropdown = (lv_dropdown_t *)dropdown_obj;
 987:lvgl/lvgl/src/widgets/lv_dropdown.c **** 
 988:lvgl/lvgl/src/widgets/lv_dropdown.c ****     lv_indev_t * indev = lv_indev_get_act();
 989:lvgl/lvgl/src/widgets/lv_dropdown.c ****     /*Leave edit mode once a new item is selected*/
 990:lvgl/lvgl/src/widgets/lv_dropdown.c ****     if(lv_indev_get_type(indev) == LV_INDEV_TYPE_ENCODER) {
 991:lvgl/lvgl/src/widgets/lv_dropdown.c ****         dropdown->sel_opt_id_orig = dropdown->sel_opt_id;
 992:lvgl/lvgl/src/widgets/lv_dropdown.c ****         lv_group_t * g      = lv_obj_get_group(dropdown_obj);
 993:lvgl/lvgl/src/widgets/lv_dropdown.c ****         if(lv_group_get_editing(g)) {
 994:lvgl/lvgl/src/widgets/lv_dropdown.c ****             lv_group_set_editing(g, false);
 995:lvgl/lvgl/src/widgets/lv_dropdown.c ****         }
 996:lvgl/lvgl/src/widgets/lv_dropdown.c ****     }
 997:lvgl/lvgl/src/widgets/lv_dropdown.c **** 
 998:lvgl/lvgl/src/widgets/lv_dropdown.c ****     /*Search the clicked option (For KEYPAD and ENCODER the new value should be already set)*/
 999:lvgl/lvgl/src/widgets/lv_dropdown.c ****     if(lv_indev_get_type(indev) == LV_INDEV_TYPE_POINTER || lv_indev_get_type(indev) == LV_INDEV_TY
1000:lvgl/lvgl/src/widgets/lv_dropdown.c ****         lv_point_t p;
1001:lvgl/lvgl/src/widgets/lv_dropdown.c ****         lv_indev_get_point(indev, &p);
1002:lvgl/lvgl/src/widgets/lv_dropdown.c ****         dropdown->sel_opt_id     = get_id_on_point(dropdown_obj, p.y);
1003:lvgl/lvgl/src/widgets/lv_dropdown.c ****         dropdown->sel_opt_id_orig = dropdown->sel_opt_id;
1004:lvgl/lvgl/src/widgets/lv_dropdown.c ****     }
1005:lvgl/lvgl/src/widgets/lv_dropdown.c **** 
1006:lvgl/lvgl/src/widgets/lv_dropdown.c ****     lv_dropdown_close(dropdown_obj);
1007:lvgl/lvgl/src/widgets/lv_dropdown.c **** 
1008:lvgl/lvgl/src/widgets/lv_dropdown.c ****     /*Invalidate to refresh the text*/
1009:lvgl/lvgl/src/widgets/lv_dropdown.c ****     if(dropdown->text == NULL) lv_obj_invalidate(dropdown_obj);
1010:lvgl/lvgl/src/widgets/lv_dropdown.c **** 
1011:lvgl/lvgl/src/widgets/lv_dropdown.c ****     uint32_t id  = dropdown->sel_opt_id; /*Just to use uint32_t in event data*/
1012:lvgl/lvgl/src/widgets/lv_dropdown.c ****     lv_res_t res = lv_event_send(dropdown_obj, LV_EVENT_VALUE_CHANGED, &id);
1013:lvgl/lvgl/src/widgets/lv_dropdown.c ****     if(res != LV_RES_OK) return res;
1014:lvgl/lvgl/src/widgets/lv_dropdown.c **** 
1015:lvgl/lvgl/src/widgets/lv_dropdown.c ****     return LV_RES_OK;
1016:lvgl/lvgl/src/widgets/lv_dropdown.c **** }
1017:lvgl/lvgl/src/widgets/lv_dropdown.c **** 
1018:lvgl/lvgl/src/widgets/lv_dropdown.c **** static void list_press_handler(lv_obj_t * list_obj)
1019:lvgl/lvgl/src/widgets/lv_dropdown.c **** {
1020:lvgl/lvgl/src/widgets/lv_dropdown.c ****     lv_dropdown_list_t * list = (lv_dropdown_list_t*) list_obj;
1021:lvgl/lvgl/src/widgets/lv_dropdown.c ****     lv_obj_t * dropdown_obj = list->dropdown;
1022:lvgl/lvgl/src/widgets/lv_dropdown.c ****     lv_dropdown_t * dropdown = (lv_dropdown_t *)dropdown_obj;
1023:lvgl/lvgl/src/widgets/lv_dropdown.c **** 
1024:lvgl/lvgl/src/widgets/lv_dropdown.c ****     lv_indev_t * indev = lv_indev_get_act();
1025:lvgl/lvgl/src/widgets/lv_dropdown.c ****     if(indev && (lv_indev_get_type(indev) == LV_INDEV_TYPE_POINTER || lv_indev_get_type(indev) == L
1026:lvgl/lvgl/src/widgets/lv_dropdown.c ****         lv_point_t p;
1027:lvgl/lvgl/src/widgets/lv_dropdown.c ****         lv_indev_get_point(indev, &p);
ARM GAS  C:\Users\gx\AppData\Local\Temp\ccIqfrB9.s 			page 20


1028:lvgl/lvgl/src/widgets/lv_dropdown.c ****         dropdown->pr_opt_id = get_id_on_point(dropdown_obj, p.y);
1029:lvgl/lvgl/src/widgets/lv_dropdown.c ****         lv_obj_invalidate(list_obj);
1030:lvgl/lvgl/src/widgets/lv_dropdown.c ****     }
1031:lvgl/lvgl/src/widgets/lv_dropdown.c **** }
1032:lvgl/lvgl/src/widgets/lv_dropdown.c **** 
1033:lvgl/lvgl/src/widgets/lv_dropdown.c **** static uint16_t get_id_on_point(lv_obj_t * dropdown_obj, lv_coord_t y)
1034:lvgl/lvgl/src/widgets/lv_dropdown.c **** {
1035:lvgl/lvgl/src/widgets/lv_dropdown.c ****     lv_dropdown_t * dropdown = (lv_dropdown_t *)dropdown_obj;
1036:lvgl/lvgl/src/widgets/lv_dropdown.c ****     lv_obj_t * label = get_label(dropdown_obj);
1037:lvgl/lvgl/src/widgets/lv_dropdown.c ****     if(label == NULL) return 0;
1038:lvgl/lvgl/src/widgets/lv_dropdown.c ****     y -= label->coords.y1;
1039:lvgl/lvgl/src/widgets/lv_dropdown.c **** 
1040:lvgl/lvgl/src/widgets/lv_dropdown.c ****     const lv_font_t * font         = lv_obj_get_style_text_font(label, LV_PART_MAIN);
1041:lvgl/lvgl/src/widgets/lv_dropdown.c ****     lv_coord_t font_h              = lv_font_get_line_height(font);
1042:lvgl/lvgl/src/widgets/lv_dropdown.c ****     lv_coord_t line_space = lv_obj_get_style_text_line_space(label, LV_PART_MAIN);
1043:lvgl/lvgl/src/widgets/lv_dropdown.c **** 
1044:lvgl/lvgl/src/widgets/lv_dropdown.c ****     y += line_space / 2;
1045:lvgl/lvgl/src/widgets/lv_dropdown.c ****     lv_coord_t h = font_h + line_space;
1046:lvgl/lvgl/src/widgets/lv_dropdown.c **** 
1047:lvgl/lvgl/src/widgets/lv_dropdown.c ****     uint16_t opt = y / h;
1048:lvgl/lvgl/src/widgets/lv_dropdown.c **** 
1049:lvgl/lvgl/src/widgets/lv_dropdown.c ****     if(opt >= dropdown->option_cnt) opt = dropdown->option_cnt - 1;
1050:lvgl/lvgl/src/widgets/lv_dropdown.c ****     return opt;
1051:lvgl/lvgl/src/widgets/lv_dropdown.c **** }
1052:lvgl/lvgl/src/widgets/lv_dropdown.c **** 
1053:lvgl/lvgl/src/widgets/lv_dropdown.c **** /**
1054:lvgl/lvgl/src/widgets/lv_dropdown.c ****  * Set the position of list when it is closed to show the selected item
1055:lvgl/lvgl/src/widgets/lv_dropdown.c ****  * @param ddlist pointer to a drop down list
1056:lvgl/lvgl/src/widgets/lv_dropdown.c ****  */
1057:lvgl/lvgl/src/widgets/lv_dropdown.c **** static void position_to_selected(lv_obj_t * dropdown_obj)
1058:lvgl/lvgl/src/widgets/lv_dropdown.c **** {
1059:lvgl/lvgl/src/widgets/lv_dropdown.c ****     lv_dropdown_t * dropdown = (lv_dropdown_t *)dropdown_obj;
1060:lvgl/lvgl/src/widgets/lv_dropdown.c **** 
1061:lvgl/lvgl/src/widgets/lv_dropdown.c ****     lv_obj_t * label = get_label(dropdown_obj);
1062:lvgl/lvgl/src/widgets/lv_dropdown.c ****     if(label == NULL) return;
1063:lvgl/lvgl/src/widgets/lv_dropdown.c **** 
1064:lvgl/lvgl/src/widgets/lv_dropdown.c ****     if(lv_obj_get_height(label) <= lv_obj_get_content_height(dropdown_obj)) return;
1065:lvgl/lvgl/src/widgets/lv_dropdown.c **** 
1066:lvgl/lvgl/src/widgets/lv_dropdown.c ****     const lv_font_t * font         = lv_obj_get_style_text_font(label, LV_PART_MAIN);
1067:lvgl/lvgl/src/widgets/lv_dropdown.c ****     lv_coord_t font_h              = lv_font_get_line_height(font);
1068:lvgl/lvgl/src/widgets/lv_dropdown.c ****     lv_coord_t line_space = lv_obj_get_style_text_line_space(label, LV_PART_MAIN);
1069:lvgl/lvgl/src/widgets/lv_dropdown.c ****     lv_coord_t unit_h = font_h + line_space;
1070:lvgl/lvgl/src/widgets/lv_dropdown.c ****     lv_coord_t line_y1 = dropdown->sel_opt_id * unit_h;
1071:lvgl/lvgl/src/widgets/lv_dropdown.c **** 
1072:lvgl/lvgl/src/widgets/lv_dropdown.c ****     /*Scroll to the selected option*/
1073:lvgl/lvgl/src/widgets/lv_dropdown.c ****     lv_obj_scroll_to_y(dropdown->list, line_y1, LV_ANIM_OFF);
1074:lvgl/lvgl/src/widgets/lv_dropdown.c ****     lv_obj_invalidate(dropdown->list);
1075:lvgl/lvgl/src/widgets/lv_dropdown.c **** }
1076:lvgl/lvgl/src/widgets/lv_dropdown.c **** 
1077:lvgl/lvgl/src/widgets/lv_dropdown.c **** static lv_obj_t * get_label(const lv_obj_t * obj)
1078:lvgl/lvgl/src/widgets/lv_dropdown.c **** {
  60              		.loc 1 1078 1 is_stmt 1 view -0
  61              		.cfi_startproc
  62              		@ args = 0, pretend = 0, frame = 0
  63              		@ frame_needed = 0, uses_anonymous_args = 0
1079:lvgl/lvgl/src/widgets/lv_dropdown.c ****     lv_dropdown_t * dropdown = (lv_dropdown_t *)obj;
  64              		.loc 1 1079 5 view .LVU10
ARM GAS  C:\Users\gx\AppData\Local\Temp\ccIqfrB9.s 			page 21


1080:lvgl/lvgl/src/widgets/lv_dropdown.c ****     if(dropdown->list == NULL) return NULL;
  65              		.loc 1 1080 5 view .LVU11
  66              		.loc 1 1080 16 is_stmt 0 view .LVU12
  67 0000 406A     		ldr	r0, [r0, #36]
  68              	.LVL3:
  69              		.loc 1 1080 7 view .LVU13
  70 0002 20B1     		cbz	r0, .L5
1078:lvgl/lvgl/src/widgets/lv_dropdown.c ****     lv_dropdown_t * dropdown = (lv_dropdown_t *)obj;
  71              		.loc 1 1078 1 view .LVU14
  72 0004 08B5     		push	{r3, lr}
  73              	.LCFI0:
  74              		.cfi_def_cfa_offset 8
  75              		.cfi_offset 3, -8
  76              		.cfi_offset 14, -4
1081:lvgl/lvgl/src/widgets/lv_dropdown.c **** 
1082:lvgl/lvgl/src/widgets/lv_dropdown.c ****     return lv_obj_get_child(dropdown->list, 0);
  77              		.loc 1 1082 5 is_stmt 1 view .LVU15
  78              		.loc 1 1082 12 is_stmt 0 view .LVU16
  79 0006 0021     		movs	r1, #0
  80 0008 FFF7FEFF 		bl	lv_obj_get_child
  81              	.LVL4:
1083:lvgl/lvgl/src/widgets/lv_dropdown.c **** }
  82              		.loc 1 1083 1 view .LVU17
  83 000c 08BD     		pop	{r3, pc}
  84              	.L5:
  85              	.LCFI1:
  86              		.cfi_def_cfa_offset 0
  87              		.cfi_restore 3
  88              		.cfi_restore 14
  89 000e 7047     		bx	lr
  90              		.cfi_endproc
  91              	.LFE195:
  93              		.section	.text.position_to_selected,"ax",%progbits
  94              		.align	1
  95              		.syntax unified
  96              		.thumb
  97              		.thumb_func
  98              		.fpu fpv4-sp-d16
 100              	position_to_selected:
 101              	.LVL5:
 102              	.LFB194:
1058:lvgl/lvgl/src/widgets/lv_dropdown.c ****     lv_dropdown_t * dropdown = (lv_dropdown_t *)dropdown_obj;
 103              		.loc 1 1058 1 is_stmt 1 view -0
 104              		.cfi_startproc
 105              		@ args = 0, pretend = 0, frame = 0
 106              		@ frame_needed = 0, uses_anonymous_args = 0
1058:lvgl/lvgl/src/widgets/lv_dropdown.c ****     lv_dropdown_t * dropdown = (lv_dropdown_t *)dropdown_obj;
 107              		.loc 1 1058 1 is_stmt 0 view .LVU19
 108 0000 70B5     		push	{r4, r5, r6, lr}
 109              	.LCFI2:
 110              		.cfi_def_cfa_offset 16
 111              		.cfi_offset 4, -16
 112              		.cfi_offset 5, -12
 113              		.cfi_offset 6, -8
 114              		.cfi_offset 14, -4
 115 0002 0446     		mov	r4, r0
1059:lvgl/lvgl/src/widgets/lv_dropdown.c **** 
ARM GAS  C:\Users\gx\AppData\Local\Temp\ccIqfrB9.s 			page 22


 116              		.loc 1 1059 5 is_stmt 1 view .LVU20
 117              	.LVL6:
1061:lvgl/lvgl/src/widgets/lv_dropdown.c ****     if(label == NULL) return;
 118              		.loc 1 1061 5 view .LVU21
1061:lvgl/lvgl/src/widgets/lv_dropdown.c ****     if(label == NULL) return;
 119              		.loc 1 1061 24 is_stmt 0 view .LVU22
 120 0004 FFF7FEFF 		bl	get_label
 121              	.LVL7:
1062:lvgl/lvgl/src/widgets/lv_dropdown.c **** 
 122              		.loc 1 1062 5 is_stmt 1 view .LVU23
1062:lvgl/lvgl/src/widgets/lv_dropdown.c **** 
 123              		.loc 1 1062 7 is_stmt 0 view .LVU24
 124 0008 40B1     		cbz	r0, .L8
 125 000a 0646     		mov	r6, r0
1064:lvgl/lvgl/src/widgets/lv_dropdown.c **** 
 126              		.loc 1 1064 5 is_stmt 1 view .LVU25
1064:lvgl/lvgl/src/widgets/lv_dropdown.c **** 
 127              		.loc 1 1064 8 is_stmt 0 view .LVU26
 128 000c FFF7FEFF 		bl	lv_obj_get_height
 129              	.LVL8:
1064:lvgl/lvgl/src/widgets/lv_dropdown.c **** 
 130              		.loc 1 1064 8 view .LVU27
 131 0010 0546     		mov	r5, r0
1064:lvgl/lvgl/src/widgets/lv_dropdown.c **** 
 132              		.loc 1 1064 36 view .LVU28
 133 0012 2046     		mov	r0, r4
 134 0014 FFF7FEFF 		bl	lv_obj_get_content_height
 135              	.LVL9:
1064:lvgl/lvgl/src/widgets/lv_dropdown.c **** 
 136              		.loc 1 1064 7 view .LVU29
 137 0018 8542     		cmp	r5, r0
 138 001a 00DC     		bgt	.L11
 139              	.LVL10:
 140              	.L8:
1075:lvgl/lvgl/src/widgets/lv_dropdown.c **** 
 141              		.loc 1 1075 1 view .LVU30
 142 001c 70BD     		pop	{r4, r5, r6, pc}
 143              	.LVL11:
 144              	.L11:
1066:lvgl/lvgl/src/widgets/lv_dropdown.c ****     lv_coord_t font_h              = lv_font_get_line_height(font);
 145              		.loc 1 1066 5 is_stmt 1 view .LVU31
 146              	.LBB57:
 147              	.LBI57:
 148              		.file 2 "lvgl/lvgl/src/widgets/../core/lv_obj_style_gen.h"
   1:lvgl/lvgl/src/widgets/../core/lv_obj_style_gen.h **** static inline lv_coord_t lv_obj_get_style_width(const struct _lv_obj_t * obj, uint32_t part)
   2:lvgl/lvgl/src/widgets/../core/lv_obj_style_gen.h **** {
   3:lvgl/lvgl/src/widgets/../core/lv_obj_style_gen.h ****     lv_style_value_t v = lv_obj_get_style_prop(obj, part, LV_STYLE_WIDTH);
   4:lvgl/lvgl/src/widgets/../core/lv_obj_style_gen.h ****     return (lv_coord_t)v.num;
   5:lvgl/lvgl/src/widgets/../core/lv_obj_style_gen.h **** }
   6:lvgl/lvgl/src/widgets/../core/lv_obj_style_gen.h **** 
   7:lvgl/lvgl/src/widgets/../core/lv_obj_style_gen.h **** static inline lv_coord_t lv_obj_get_style_min_width(const struct _lv_obj_t * obj, uint32_t part)
   8:lvgl/lvgl/src/widgets/../core/lv_obj_style_gen.h **** {
   9:lvgl/lvgl/src/widgets/../core/lv_obj_style_gen.h ****     lv_style_value_t v = lv_obj_get_style_prop(obj, part, LV_STYLE_MIN_WIDTH);
  10:lvgl/lvgl/src/widgets/../core/lv_obj_style_gen.h ****     return (lv_coord_t)v.num;
  11:lvgl/lvgl/src/widgets/../core/lv_obj_style_gen.h **** }
  12:lvgl/lvgl/src/widgets/../core/lv_obj_style_gen.h **** 
  13:lvgl/lvgl/src/widgets/../core/lv_obj_style_gen.h **** static inline lv_coord_t lv_obj_get_style_max_width(const struct _lv_obj_t * obj, uint32_t part)
ARM GAS  C:\Users\gx\AppData\Local\Temp\ccIqfrB9.s 			page 23


  14:lvgl/lvgl/src/widgets/../core/lv_obj_style_gen.h **** {
  15:lvgl/lvgl/src/widgets/../core/lv_obj_style_gen.h ****     lv_style_value_t v = lv_obj_get_style_prop(obj, part, LV_STYLE_MAX_WIDTH);
  16:lvgl/lvgl/src/widgets/../core/lv_obj_style_gen.h ****     return (lv_coord_t)v.num;
  17:lvgl/lvgl/src/widgets/../core/lv_obj_style_gen.h **** }
  18:lvgl/lvgl/src/widgets/../core/lv_obj_style_gen.h **** 
  19:lvgl/lvgl/src/widgets/../core/lv_obj_style_gen.h **** static inline lv_coord_t lv_obj_get_style_height(const struct _lv_obj_t * obj, uint32_t part)
  20:lvgl/lvgl/src/widgets/../core/lv_obj_style_gen.h **** {
  21:lvgl/lvgl/src/widgets/../core/lv_obj_style_gen.h ****     lv_style_value_t v = lv_obj_get_style_prop(obj, part, LV_STYLE_HEIGHT);
  22:lvgl/lvgl/src/widgets/../core/lv_obj_style_gen.h ****     return (lv_coord_t)v.num;
  23:lvgl/lvgl/src/widgets/../core/lv_obj_style_gen.h **** }
  24:lvgl/lvgl/src/widgets/../core/lv_obj_style_gen.h **** 
  25:lvgl/lvgl/src/widgets/../core/lv_obj_style_gen.h **** static inline lv_coord_t lv_obj_get_style_min_height(const struct _lv_obj_t * obj, uint32_t part)
  26:lvgl/lvgl/src/widgets/../core/lv_obj_style_gen.h **** {
  27:lvgl/lvgl/src/widgets/../core/lv_obj_style_gen.h ****     lv_style_value_t v = lv_obj_get_style_prop(obj, part, LV_STYLE_MIN_HEIGHT);
  28:lvgl/lvgl/src/widgets/../core/lv_obj_style_gen.h ****     return (lv_coord_t)v.num;
  29:lvgl/lvgl/src/widgets/../core/lv_obj_style_gen.h **** }
  30:lvgl/lvgl/src/widgets/../core/lv_obj_style_gen.h **** 
  31:lvgl/lvgl/src/widgets/../core/lv_obj_style_gen.h **** static inline lv_coord_t lv_obj_get_style_max_height(const struct _lv_obj_t * obj, uint32_t part)
  32:lvgl/lvgl/src/widgets/../core/lv_obj_style_gen.h **** {
  33:lvgl/lvgl/src/widgets/../core/lv_obj_style_gen.h ****     lv_style_value_t v = lv_obj_get_style_prop(obj, part, LV_STYLE_MAX_HEIGHT);
  34:lvgl/lvgl/src/widgets/../core/lv_obj_style_gen.h ****     return (lv_coord_t)v.num;
  35:lvgl/lvgl/src/widgets/../core/lv_obj_style_gen.h **** }
  36:lvgl/lvgl/src/widgets/../core/lv_obj_style_gen.h **** 
  37:lvgl/lvgl/src/widgets/../core/lv_obj_style_gen.h **** static inline lv_coord_t lv_obj_get_style_x(const struct _lv_obj_t * obj, uint32_t part)
  38:lvgl/lvgl/src/widgets/../core/lv_obj_style_gen.h **** {
  39:lvgl/lvgl/src/widgets/../core/lv_obj_style_gen.h ****     lv_style_value_t v = lv_obj_get_style_prop(obj, part, LV_STYLE_X);
  40:lvgl/lvgl/src/widgets/../core/lv_obj_style_gen.h ****     return (lv_coord_t)v.num;
  41:lvgl/lvgl/src/widgets/../core/lv_obj_style_gen.h **** }
  42:lvgl/lvgl/src/widgets/../core/lv_obj_style_gen.h **** 
  43:lvgl/lvgl/src/widgets/../core/lv_obj_style_gen.h **** static inline lv_coord_t lv_obj_get_style_y(const struct _lv_obj_t * obj, uint32_t part)
  44:lvgl/lvgl/src/widgets/../core/lv_obj_style_gen.h **** {
  45:lvgl/lvgl/src/widgets/../core/lv_obj_style_gen.h ****     lv_style_value_t v = lv_obj_get_style_prop(obj, part, LV_STYLE_Y);
  46:lvgl/lvgl/src/widgets/../core/lv_obj_style_gen.h ****     return (lv_coord_t)v.num;
  47:lvgl/lvgl/src/widgets/../core/lv_obj_style_gen.h **** }
  48:lvgl/lvgl/src/widgets/../core/lv_obj_style_gen.h **** 
  49:lvgl/lvgl/src/widgets/../core/lv_obj_style_gen.h **** static inline lv_align_t lv_obj_get_style_align(const struct _lv_obj_t * obj, uint32_t part)
  50:lvgl/lvgl/src/widgets/../core/lv_obj_style_gen.h **** {
  51:lvgl/lvgl/src/widgets/../core/lv_obj_style_gen.h ****     lv_style_value_t v = lv_obj_get_style_prop(obj, part, LV_STYLE_ALIGN);
  52:lvgl/lvgl/src/widgets/../core/lv_obj_style_gen.h ****     return (lv_align_t)v.num;
  53:lvgl/lvgl/src/widgets/../core/lv_obj_style_gen.h **** }
  54:lvgl/lvgl/src/widgets/../core/lv_obj_style_gen.h **** 
  55:lvgl/lvgl/src/widgets/../core/lv_obj_style_gen.h **** static inline lv_coord_t lv_obj_get_style_transform_width(const struct _lv_obj_t * obj, uint32_t pa
  56:lvgl/lvgl/src/widgets/../core/lv_obj_style_gen.h **** {
  57:lvgl/lvgl/src/widgets/../core/lv_obj_style_gen.h ****     lv_style_value_t v = lv_obj_get_style_prop(obj, part, LV_STYLE_TRANSFORM_WIDTH);
  58:lvgl/lvgl/src/widgets/../core/lv_obj_style_gen.h ****     return (lv_coord_t)v.num;
  59:lvgl/lvgl/src/widgets/../core/lv_obj_style_gen.h **** }
  60:lvgl/lvgl/src/widgets/../core/lv_obj_style_gen.h **** 
  61:lvgl/lvgl/src/widgets/../core/lv_obj_style_gen.h **** static inline lv_coord_t lv_obj_get_style_transform_height(const struct _lv_obj_t * obj, uint32_t p
  62:lvgl/lvgl/src/widgets/../core/lv_obj_style_gen.h **** {
  63:lvgl/lvgl/src/widgets/../core/lv_obj_style_gen.h ****     lv_style_value_t v = lv_obj_get_style_prop(obj, part, LV_STYLE_TRANSFORM_HEIGHT);
  64:lvgl/lvgl/src/widgets/../core/lv_obj_style_gen.h ****     return (lv_coord_t)v.num;
  65:lvgl/lvgl/src/widgets/../core/lv_obj_style_gen.h **** }
  66:lvgl/lvgl/src/widgets/../core/lv_obj_style_gen.h **** 
  67:lvgl/lvgl/src/widgets/../core/lv_obj_style_gen.h **** static inline lv_coord_t lv_obj_get_style_translate_x(const struct _lv_obj_t * obj, uint32_t part)
  68:lvgl/lvgl/src/widgets/../core/lv_obj_style_gen.h **** {
  69:lvgl/lvgl/src/widgets/../core/lv_obj_style_gen.h ****     lv_style_value_t v = lv_obj_get_style_prop(obj, part, LV_STYLE_TRANSLATE_X);
  70:lvgl/lvgl/src/widgets/../core/lv_obj_style_gen.h ****     return (lv_coord_t)v.num;
ARM GAS  C:\Users\gx\AppData\Local\Temp\ccIqfrB9.s 			page 24


  71:lvgl/lvgl/src/widgets/../core/lv_obj_style_gen.h **** }
  72:lvgl/lvgl/src/widgets/../core/lv_obj_style_gen.h **** 
  73:lvgl/lvgl/src/widgets/../core/lv_obj_style_gen.h **** static inline lv_coord_t lv_obj_get_style_translate_y(const struct _lv_obj_t * obj, uint32_t part)
  74:lvgl/lvgl/src/widgets/../core/lv_obj_style_gen.h **** {
  75:lvgl/lvgl/src/widgets/../core/lv_obj_style_gen.h ****     lv_style_value_t v = lv_obj_get_style_prop(obj, part, LV_STYLE_TRANSLATE_Y);
  76:lvgl/lvgl/src/widgets/../core/lv_obj_style_gen.h ****     return (lv_coord_t)v.num;
  77:lvgl/lvgl/src/widgets/../core/lv_obj_style_gen.h **** }
  78:lvgl/lvgl/src/widgets/../core/lv_obj_style_gen.h **** 
  79:lvgl/lvgl/src/widgets/../core/lv_obj_style_gen.h **** static inline lv_coord_t lv_obj_get_style_transform_zoom(const struct _lv_obj_t * obj, uint32_t par
  80:lvgl/lvgl/src/widgets/../core/lv_obj_style_gen.h **** {
  81:lvgl/lvgl/src/widgets/../core/lv_obj_style_gen.h ****     lv_style_value_t v = lv_obj_get_style_prop(obj, part, LV_STYLE_TRANSFORM_ZOOM);
  82:lvgl/lvgl/src/widgets/../core/lv_obj_style_gen.h ****     return (lv_coord_t)v.num;
  83:lvgl/lvgl/src/widgets/../core/lv_obj_style_gen.h **** }
  84:lvgl/lvgl/src/widgets/../core/lv_obj_style_gen.h **** 
  85:lvgl/lvgl/src/widgets/../core/lv_obj_style_gen.h **** static inline lv_coord_t lv_obj_get_style_transform_angle(const struct _lv_obj_t * obj, uint32_t pa
  86:lvgl/lvgl/src/widgets/../core/lv_obj_style_gen.h **** {
  87:lvgl/lvgl/src/widgets/../core/lv_obj_style_gen.h ****     lv_style_value_t v = lv_obj_get_style_prop(obj, part, LV_STYLE_TRANSFORM_ANGLE);
  88:lvgl/lvgl/src/widgets/../core/lv_obj_style_gen.h ****     return (lv_coord_t)v.num;
  89:lvgl/lvgl/src/widgets/../core/lv_obj_style_gen.h **** }
  90:lvgl/lvgl/src/widgets/../core/lv_obj_style_gen.h **** 
  91:lvgl/lvgl/src/widgets/../core/lv_obj_style_gen.h **** static inline lv_coord_t lv_obj_get_style_pad_top(const struct _lv_obj_t * obj, uint32_t part)
  92:lvgl/lvgl/src/widgets/../core/lv_obj_style_gen.h **** {
  93:lvgl/lvgl/src/widgets/../core/lv_obj_style_gen.h ****     lv_style_value_t v = lv_obj_get_style_prop(obj, part, LV_STYLE_PAD_TOP);
  94:lvgl/lvgl/src/widgets/../core/lv_obj_style_gen.h ****     return (lv_coord_t)v.num;
  95:lvgl/lvgl/src/widgets/../core/lv_obj_style_gen.h **** }
  96:lvgl/lvgl/src/widgets/../core/lv_obj_style_gen.h **** 
  97:lvgl/lvgl/src/widgets/../core/lv_obj_style_gen.h **** static inline lv_coord_t lv_obj_get_style_pad_bottom(const struct _lv_obj_t * obj, uint32_t part)
  98:lvgl/lvgl/src/widgets/../core/lv_obj_style_gen.h **** {
  99:lvgl/lvgl/src/widgets/../core/lv_obj_style_gen.h ****     lv_style_value_t v = lv_obj_get_style_prop(obj, part, LV_STYLE_PAD_BOTTOM);
 100:lvgl/lvgl/src/widgets/../core/lv_obj_style_gen.h ****     return (lv_coord_t)v.num;
 101:lvgl/lvgl/src/widgets/../core/lv_obj_style_gen.h **** }
 102:lvgl/lvgl/src/widgets/../core/lv_obj_style_gen.h **** 
 103:lvgl/lvgl/src/widgets/../core/lv_obj_style_gen.h **** static inline lv_coord_t lv_obj_get_style_pad_left(const struct _lv_obj_t * obj, uint32_t part)
 104:lvgl/lvgl/src/widgets/../core/lv_obj_style_gen.h **** {
 105:lvgl/lvgl/src/widgets/../core/lv_obj_style_gen.h ****     lv_style_value_t v = lv_obj_get_style_prop(obj, part, LV_STYLE_PAD_LEFT);
 106:lvgl/lvgl/src/widgets/../core/lv_obj_style_gen.h ****     return (lv_coord_t)v.num;
 107:lvgl/lvgl/src/widgets/../core/lv_obj_style_gen.h **** }
 108:lvgl/lvgl/src/widgets/../core/lv_obj_style_gen.h **** 
 109:lvgl/lvgl/src/widgets/../core/lv_obj_style_gen.h **** static inline lv_coord_t lv_obj_get_style_pad_right(const struct _lv_obj_t * obj, uint32_t part)
 110:lvgl/lvgl/src/widgets/../core/lv_obj_style_gen.h **** {
 111:lvgl/lvgl/src/widgets/../core/lv_obj_style_gen.h ****     lv_style_value_t v = lv_obj_get_style_prop(obj, part, LV_STYLE_PAD_RIGHT);
 112:lvgl/lvgl/src/widgets/../core/lv_obj_style_gen.h ****     return (lv_coord_t)v.num;
 113:lvgl/lvgl/src/widgets/../core/lv_obj_style_gen.h **** }
 114:lvgl/lvgl/src/widgets/../core/lv_obj_style_gen.h **** 
 115:lvgl/lvgl/src/widgets/../core/lv_obj_style_gen.h **** static inline lv_coord_t lv_obj_get_style_pad_row(const struct _lv_obj_t * obj, uint32_t part)
 116:lvgl/lvgl/src/widgets/../core/lv_obj_style_gen.h **** {
 117:lvgl/lvgl/src/widgets/../core/lv_obj_style_gen.h ****     lv_style_value_t v = lv_obj_get_style_prop(obj, part, LV_STYLE_PAD_ROW);
 118:lvgl/lvgl/src/widgets/../core/lv_obj_style_gen.h ****     return (lv_coord_t)v.num;
 119:lvgl/lvgl/src/widgets/../core/lv_obj_style_gen.h **** }
 120:lvgl/lvgl/src/widgets/../core/lv_obj_style_gen.h **** 
 121:lvgl/lvgl/src/widgets/../core/lv_obj_style_gen.h **** static inline lv_coord_t lv_obj_get_style_pad_column(const struct _lv_obj_t * obj, uint32_t part)
 122:lvgl/lvgl/src/widgets/../core/lv_obj_style_gen.h **** {
 123:lvgl/lvgl/src/widgets/../core/lv_obj_style_gen.h ****     lv_style_value_t v = lv_obj_get_style_prop(obj, part, LV_STYLE_PAD_COLUMN);
 124:lvgl/lvgl/src/widgets/../core/lv_obj_style_gen.h ****     return (lv_coord_t)v.num;
 125:lvgl/lvgl/src/widgets/../core/lv_obj_style_gen.h **** }
 126:lvgl/lvgl/src/widgets/../core/lv_obj_style_gen.h **** 
 127:lvgl/lvgl/src/widgets/../core/lv_obj_style_gen.h **** static inline lv_coord_t lv_obj_get_style_radius(const struct _lv_obj_t * obj, uint32_t part)
ARM GAS  C:\Users\gx\AppData\Local\Temp\ccIqfrB9.s 			page 25


 128:lvgl/lvgl/src/widgets/../core/lv_obj_style_gen.h **** {
 129:lvgl/lvgl/src/widgets/../core/lv_obj_style_gen.h ****     lv_style_value_t v = lv_obj_get_style_prop(obj, part, LV_STYLE_RADIUS);
 130:lvgl/lvgl/src/widgets/../core/lv_obj_style_gen.h ****     return (lv_coord_t)v.num;
 131:lvgl/lvgl/src/widgets/../core/lv_obj_style_gen.h **** }
 132:lvgl/lvgl/src/widgets/../core/lv_obj_style_gen.h **** 
 133:lvgl/lvgl/src/widgets/../core/lv_obj_style_gen.h **** static inline bool lv_obj_get_style_clip_corner(const struct _lv_obj_t * obj, uint32_t part)
 134:lvgl/lvgl/src/widgets/../core/lv_obj_style_gen.h **** {
 135:lvgl/lvgl/src/widgets/../core/lv_obj_style_gen.h ****     lv_style_value_t v = lv_obj_get_style_prop(obj, part, LV_STYLE_CLIP_CORNER);
 136:lvgl/lvgl/src/widgets/../core/lv_obj_style_gen.h ****     return (bool)v.num;
 137:lvgl/lvgl/src/widgets/../core/lv_obj_style_gen.h **** }
 138:lvgl/lvgl/src/widgets/../core/lv_obj_style_gen.h **** 
 139:lvgl/lvgl/src/widgets/../core/lv_obj_style_gen.h **** static inline lv_opa_t lv_obj_get_style_opa(const struct _lv_obj_t * obj, uint32_t part)
 140:lvgl/lvgl/src/widgets/../core/lv_obj_style_gen.h **** {
 141:lvgl/lvgl/src/widgets/../core/lv_obj_style_gen.h ****     lv_style_value_t v = lv_obj_get_style_prop(obj, part, LV_STYLE_OPA);
 142:lvgl/lvgl/src/widgets/../core/lv_obj_style_gen.h ****     return (lv_opa_t)v.num;
 143:lvgl/lvgl/src/widgets/../core/lv_obj_style_gen.h **** }
 144:lvgl/lvgl/src/widgets/../core/lv_obj_style_gen.h **** 
 145:lvgl/lvgl/src/widgets/../core/lv_obj_style_gen.h **** static inline const lv_color_filter_dsc_t * lv_obj_get_style_color_filter_dsc(const struct _lv_obj_
 146:lvgl/lvgl/src/widgets/../core/lv_obj_style_gen.h **** {
 147:lvgl/lvgl/src/widgets/../core/lv_obj_style_gen.h ****     lv_style_value_t v = lv_obj_get_style_prop(obj, part, LV_STYLE_COLOR_FILTER_DSC);
 148:lvgl/lvgl/src/widgets/../core/lv_obj_style_gen.h ****     return (const lv_color_filter_dsc_t *)v.ptr;
 149:lvgl/lvgl/src/widgets/../core/lv_obj_style_gen.h **** }
 150:lvgl/lvgl/src/widgets/../core/lv_obj_style_gen.h **** 
 151:lvgl/lvgl/src/widgets/../core/lv_obj_style_gen.h **** static inline lv_opa_t lv_obj_get_style_color_filter_opa(const struct _lv_obj_t * obj, uint32_t par
 152:lvgl/lvgl/src/widgets/../core/lv_obj_style_gen.h **** {
 153:lvgl/lvgl/src/widgets/../core/lv_obj_style_gen.h ****     lv_style_value_t v = lv_obj_get_style_prop(obj, part, LV_STYLE_COLOR_FILTER_OPA);
 154:lvgl/lvgl/src/widgets/../core/lv_obj_style_gen.h ****     return (lv_opa_t)v.num;
 155:lvgl/lvgl/src/widgets/../core/lv_obj_style_gen.h **** }
 156:lvgl/lvgl/src/widgets/../core/lv_obj_style_gen.h **** 
 157:lvgl/lvgl/src/widgets/../core/lv_obj_style_gen.h **** static inline uint32_t lv_obj_get_style_anim_time(const struct _lv_obj_t * obj, uint32_t part)
 158:lvgl/lvgl/src/widgets/../core/lv_obj_style_gen.h **** {
 159:lvgl/lvgl/src/widgets/../core/lv_obj_style_gen.h ****     lv_style_value_t v = lv_obj_get_style_prop(obj, part, LV_STYLE_ANIM_TIME);
 160:lvgl/lvgl/src/widgets/../core/lv_obj_style_gen.h ****     return (uint32_t)v.num;
 161:lvgl/lvgl/src/widgets/../core/lv_obj_style_gen.h **** }
 162:lvgl/lvgl/src/widgets/../core/lv_obj_style_gen.h **** 
 163:lvgl/lvgl/src/widgets/../core/lv_obj_style_gen.h **** static inline uint32_t lv_obj_get_style_anim_speed(const struct _lv_obj_t * obj, uint32_t part)
 164:lvgl/lvgl/src/widgets/../core/lv_obj_style_gen.h **** {
 165:lvgl/lvgl/src/widgets/../core/lv_obj_style_gen.h ****     lv_style_value_t v = lv_obj_get_style_prop(obj, part, LV_STYLE_ANIM_SPEED);
 166:lvgl/lvgl/src/widgets/../core/lv_obj_style_gen.h ****     return (uint32_t)v.num;
 167:lvgl/lvgl/src/widgets/../core/lv_obj_style_gen.h **** }
 168:lvgl/lvgl/src/widgets/../core/lv_obj_style_gen.h **** 
 169:lvgl/lvgl/src/widgets/../core/lv_obj_style_gen.h **** static inline const lv_style_transition_dsc_t * lv_obj_get_style_transition(const struct _lv_obj_t 
 170:lvgl/lvgl/src/widgets/../core/lv_obj_style_gen.h **** {
 171:lvgl/lvgl/src/widgets/../core/lv_obj_style_gen.h ****     lv_style_value_t v = lv_obj_get_style_prop(obj, part, LV_STYLE_TRANSITION);
 172:lvgl/lvgl/src/widgets/../core/lv_obj_style_gen.h ****     return (const lv_style_transition_dsc_t *)v.ptr;
 173:lvgl/lvgl/src/widgets/../core/lv_obj_style_gen.h **** }
 174:lvgl/lvgl/src/widgets/../core/lv_obj_style_gen.h **** 
 175:lvgl/lvgl/src/widgets/../core/lv_obj_style_gen.h **** static inline lv_blend_mode_t lv_obj_get_style_blend_mode(const struct _lv_obj_t * obj, uint32_t pa
 176:lvgl/lvgl/src/widgets/../core/lv_obj_style_gen.h **** {
 177:lvgl/lvgl/src/widgets/../core/lv_obj_style_gen.h ****     lv_style_value_t v = lv_obj_get_style_prop(obj, part, LV_STYLE_BLEND_MODE);
 178:lvgl/lvgl/src/widgets/../core/lv_obj_style_gen.h ****     return (lv_blend_mode_t)v.num;
 179:lvgl/lvgl/src/widgets/../core/lv_obj_style_gen.h **** }
 180:lvgl/lvgl/src/widgets/../core/lv_obj_style_gen.h **** 
 181:lvgl/lvgl/src/widgets/../core/lv_obj_style_gen.h **** static inline uint16_t lv_obj_get_style_layout(const struct _lv_obj_t * obj, uint32_t part)
 182:lvgl/lvgl/src/widgets/../core/lv_obj_style_gen.h **** {
 183:lvgl/lvgl/src/widgets/../core/lv_obj_style_gen.h ****     lv_style_value_t v = lv_obj_get_style_prop(obj, part, LV_STYLE_LAYOUT);
 184:lvgl/lvgl/src/widgets/../core/lv_obj_style_gen.h ****     return (uint16_t)v.num;
ARM GAS  C:\Users\gx\AppData\Local\Temp\ccIqfrB9.s 			page 26


 185:lvgl/lvgl/src/widgets/../core/lv_obj_style_gen.h **** }
 186:lvgl/lvgl/src/widgets/../core/lv_obj_style_gen.h **** 
 187:lvgl/lvgl/src/widgets/../core/lv_obj_style_gen.h **** static inline lv_base_dir_t lv_obj_get_style_base_dir(const struct _lv_obj_t * obj, uint32_t part)
 188:lvgl/lvgl/src/widgets/../core/lv_obj_style_gen.h **** {
 189:lvgl/lvgl/src/widgets/../core/lv_obj_style_gen.h ****     lv_style_value_t v = lv_obj_get_style_prop(obj, part, LV_STYLE_BASE_DIR);
 190:lvgl/lvgl/src/widgets/../core/lv_obj_style_gen.h ****     return (lv_base_dir_t)v.num;
 191:lvgl/lvgl/src/widgets/../core/lv_obj_style_gen.h **** }
 192:lvgl/lvgl/src/widgets/../core/lv_obj_style_gen.h **** 
 193:lvgl/lvgl/src/widgets/../core/lv_obj_style_gen.h **** static inline lv_color_t lv_obj_get_style_bg_color(const struct _lv_obj_t * obj, uint32_t part)
 194:lvgl/lvgl/src/widgets/../core/lv_obj_style_gen.h **** {
 195:lvgl/lvgl/src/widgets/../core/lv_obj_style_gen.h ****     lv_style_value_t v = lv_obj_get_style_prop(obj, part, LV_STYLE_BG_COLOR);
 196:lvgl/lvgl/src/widgets/../core/lv_obj_style_gen.h ****     return v.color;
 197:lvgl/lvgl/src/widgets/../core/lv_obj_style_gen.h **** }
 198:lvgl/lvgl/src/widgets/../core/lv_obj_style_gen.h **** 
 199:lvgl/lvgl/src/widgets/../core/lv_obj_style_gen.h **** static inline lv_color_t lv_obj_get_style_bg_color_filtered(const struct _lv_obj_t * obj, uint32_t 
 200:lvgl/lvgl/src/widgets/../core/lv_obj_style_gen.h **** {
 201:lvgl/lvgl/src/widgets/../core/lv_obj_style_gen.h ****     lv_style_value_t v = lv_obj_get_style_prop(obj, part, LV_STYLE_BG_COLOR_FILTERED);
 202:lvgl/lvgl/src/widgets/../core/lv_obj_style_gen.h ****     return v.color;
 203:lvgl/lvgl/src/widgets/../core/lv_obj_style_gen.h **** }
 204:lvgl/lvgl/src/widgets/../core/lv_obj_style_gen.h **** 
 205:lvgl/lvgl/src/widgets/../core/lv_obj_style_gen.h **** static inline lv_opa_t lv_obj_get_style_bg_opa(const struct _lv_obj_t * obj, uint32_t part)
 206:lvgl/lvgl/src/widgets/../core/lv_obj_style_gen.h **** {
 207:lvgl/lvgl/src/widgets/../core/lv_obj_style_gen.h ****     lv_style_value_t v = lv_obj_get_style_prop(obj, part, LV_STYLE_BG_OPA);
 208:lvgl/lvgl/src/widgets/../core/lv_obj_style_gen.h ****     return (lv_opa_t)v.num;
 209:lvgl/lvgl/src/widgets/../core/lv_obj_style_gen.h **** }
 210:lvgl/lvgl/src/widgets/../core/lv_obj_style_gen.h **** 
 211:lvgl/lvgl/src/widgets/../core/lv_obj_style_gen.h **** static inline lv_color_t lv_obj_get_style_bg_grad_color(const struct _lv_obj_t * obj, uint32_t part
 212:lvgl/lvgl/src/widgets/../core/lv_obj_style_gen.h **** {
 213:lvgl/lvgl/src/widgets/../core/lv_obj_style_gen.h ****     lv_style_value_t v = lv_obj_get_style_prop(obj, part, LV_STYLE_BG_GRAD_COLOR);
 214:lvgl/lvgl/src/widgets/../core/lv_obj_style_gen.h ****     return v.color;
 215:lvgl/lvgl/src/widgets/../core/lv_obj_style_gen.h **** }
 216:lvgl/lvgl/src/widgets/../core/lv_obj_style_gen.h **** 
 217:lvgl/lvgl/src/widgets/../core/lv_obj_style_gen.h **** static inline lv_color_t lv_obj_get_style_bg_grad_color_filtered(const struct _lv_obj_t * obj, uint
 218:lvgl/lvgl/src/widgets/../core/lv_obj_style_gen.h **** {
 219:lvgl/lvgl/src/widgets/../core/lv_obj_style_gen.h ****     lv_style_value_t v = lv_obj_get_style_prop(obj, part, LV_STYLE_BG_GRAD_COLOR_FILTERED);
 220:lvgl/lvgl/src/widgets/../core/lv_obj_style_gen.h ****     return v.color;
 221:lvgl/lvgl/src/widgets/../core/lv_obj_style_gen.h **** }
 222:lvgl/lvgl/src/widgets/../core/lv_obj_style_gen.h **** 
 223:lvgl/lvgl/src/widgets/../core/lv_obj_style_gen.h **** static inline lv_grad_dir_t lv_obj_get_style_bg_grad_dir(const struct _lv_obj_t * obj, uint32_t par
 224:lvgl/lvgl/src/widgets/../core/lv_obj_style_gen.h **** {
 225:lvgl/lvgl/src/widgets/../core/lv_obj_style_gen.h ****     lv_style_value_t v = lv_obj_get_style_prop(obj, part, LV_STYLE_BG_GRAD_DIR);
 226:lvgl/lvgl/src/widgets/../core/lv_obj_style_gen.h ****     return (lv_grad_dir_t)v.num;
 227:lvgl/lvgl/src/widgets/../core/lv_obj_style_gen.h **** }
 228:lvgl/lvgl/src/widgets/../core/lv_obj_style_gen.h **** 
 229:lvgl/lvgl/src/widgets/../core/lv_obj_style_gen.h **** static inline lv_coord_t lv_obj_get_style_bg_main_stop(const struct _lv_obj_t * obj, uint32_t part)
 230:lvgl/lvgl/src/widgets/../core/lv_obj_style_gen.h **** {
 231:lvgl/lvgl/src/widgets/../core/lv_obj_style_gen.h ****     lv_style_value_t v = lv_obj_get_style_prop(obj, part, LV_STYLE_BG_MAIN_STOP);
 232:lvgl/lvgl/src/widgets/../core/lv_obj_style_gen.h ****     return (lv_coord_t)v.num;
 233:lvgl/lvgl/src/widgets/../core/lv_obj_style_gen.h **** }
 234:lvgl/lvgl/src/widgets/../core/lv_obj_style_gen.h **** 
 235:lvgl/lvgl/src/widgets/../core/lv_obj_style_gen.h **** static inline lv_coord_t lv_obj_get_style_bg_grad_stop(const struct _lv_obj_t * obj, uint32_t part)
 236:lvgl/lvgl/src/widgets/../core/lv_obj_style_gen.h **** {
 237:lvgl/lvgl/src/widgets/../core/lv_obj_style_gen.h ****     lv_style_value_t v = lv_obj_get_style_prop(obj, part, LV_STYLE_BG_GRAD_STOP);
 238:lvgl/lvgl/src/widgets/../core/lv_obj_style_gen.h ****     return (lv_coord_t)v.num;
 239:lvgl/lvgl/src/widgets/../core/lv_obj_style_gen.h **** }
 240:lvgl/lvgl/src/widgets/../core/lv_obj_style_gen.h **** 
 241:lvgl/lvgl/src/widgets/../core/lv_obj_style_gen.h **** static inline const void * lv_obj_get_style_bg_img_src(const struct _lv_obj_t * obj, uint32_t part)
ARM GAS  C:\Users\gx\AppData\Local\Temp\ccIqfrB9.s 			page 27


 242:lvgl/lvgl/src/widgets/../core/lv_obj_style_gen.h **** {
 243:lvgl/lvgl/src/widgets/../core/lv_obj_style_gen.h ****     lv_style_value_t v = lv_obj_get_style_prop(obj, part, LV_STYLE_BG_IMG_SRC);
 244:lvgl/lvgl/src/widgets/../core/lv_obj_style_gen.h ****     return (const void *)v.ptr;
 245:lvgl/lvgl/src/widgets/../core/lv_obj_style_gen.h **** }
 246:lvgl/lvgl/src/widgets/../core/lv_obj_style_gen.h **** 
 247:lvgl/lvgl/src/widgets/../core/lv_obj_style_gen.h **** static inline lv_opa_t lv_obj_get_style_bg_img_opa(const struct _lv_obj_t * obj, uint32_t part)
 248:lvgl/lvgl/src/widgets/../core/lv_obj_style_gen.h **** {
 249:lvgl/lvgl/src/widgets/../core/lv_obj_style_gen.h ****     lv_style_value_t v = lv_obj_get_style_prop(obj, part, LV_STYLE_BG_IMG_OPA);
 250:lvgl/lvgl/src/widgets/../core/lv_obj_style_gen.h ****     return (lv_opa_t)v.num;
 251:lvgl/lvgl/src/widgets/../core/lv_obj_style_gen.h **** }
 252:lvgl/lvgl/src/widgets/../core/lv_obj_style_gen.h **** 
 253:lvgl/lvgl/src/widgets/../core/lv_obj_style_gen.h **** static inline lv_color_t lv_obj_get_style_bg_img_recolor(const struct _lv_obj_t * obj, uint32_t par
 254:lvgl/lvgl/src/widgets/../core/lv_obj_style_gen.h **** {
 255:lvgl/lvgl/src/widgets/../core/lv_obj_style_gen.h ****     lv_style_value_t v = lv_obj_get_style_prop(obj, part, LV_STYLE_BG_IMG_RECOLOR);
 256:lvgl/lvgl/src/widgets/../core/lv_obj_style_gen.h ****     return v.color;
 257:lvgl/lvgl/src/widgets/../core/lv_obj_style_gen.h **** }
 258:lvgl/lvgl/src/widgets/../core/lv_obj_style_gen.h **** 
 259:lvgl/lvgl/src/widgets/../core/lv_obj_style_gen.h **** static inline lv_color_t lv_obj_get_style_bg_img_recolor_filtered(const struct _lv_obj_t * obj, uin
 260:lvgl/lvgl/src/widgets/../core/lv_obj_style_gen.h **** {
 261:lvgl/lvgl/src/widgets/../core/lv_obj_style_gen.h ****     lv_style_value_t v = lv_obj_get_style_prop(obj, part, LV_STYLE_BG_IMG_RECOLOR_FILTERED);
 262:lvgl/lvgl/src/widgets/../core/lv_obj_style_gen.h ****     return v.color;
 263:lvgl/lvgl/src/widgets/../core/lv_obj_style_gen.h **** }
 264:lvgl/lvgl/src/widgets/../core/lv_obj_style_gen.h **** 
 265:lvgl/lvgl/src/widgets/../core/lv_obj_style_gen.h **** static inline lv_opa_t lv_obj_get_style_bg_img_recolor_opa(const struct _lv_obj_t * obj, uint32_t p
 266:lvgl/lvgl/src/widgets/../core/lv_obj_style_gen.h **** {
 267:lvgl/lvgl/src/widgets/../core/lv_obj_style_gen.h ****     lv_style_value_t v = lv_obj_get_style_prop(obj, part, LV_STYLE_BG_IMG_RECOLOR_OPA);
 268:lvgl/lvgl/src/widgets/../core/lv_obj_style_gen.h ****     return (lv_opa_t)v.num;
 269:lvgl/lvgl/src/widgets/../core/lv_obj_style_gen.h **** }
 270:lvgl/lvgl/src/widgets/../core/lv_obj_style_gen.h **** 
 271:lvgl/lvgl/src/widgets/../core/lv_obj_style_gen.h **** static inline bool lv_obj_get_style_bg_img_tiled(const struct _lv_obj_t * obj, uint32_t part)
 272:lvgl/lvgl/src/widgets/../core/lv_obj_style_gen.h **** {
 273:lvgl/lvgl/src/widgets/../core/lv_obj_style_gen.h ****     lv_style_value_t v = lv_obj_get_style_prop(obj, part, LV_STYLE_BG_IMG_TILED);
 274:lvgl/lvgl/src/widgets/../core/lv_obj_style_gen.h ****     return (bool)v.num;
 275:lvgl/lvgl/src/widgets/../core/lv_obj_style_gen.h **** }
 276:lvgl/lvgl/src/widgets/../core/lv_obj_style_gen.h **** 
 277:lvgl/lvgl/src/widgets/../core/lv_obj_style_gen.h **** static inline lv_color_t lv_obj_get_style_border_color(const struct _lv_obj_t * obj, uint32_t part)
 278:lvgl/lvgl/src/widgets/../core/lv_obj_style_gen.h **** {
 279:lvgl/lvgl/src/widgets/../core/lv_obj_style_gen.h ****     lv_style_value_t v = lv_obj_get_style_prop(obj, part, LV_STYLE_BORDER_COLOR);
 280:lvgl/lvgl/src/widgets/../core/lv_obj_style_gen.h ****     return v.color;
 281:lvgl/lvgl/src/widgets/../core/lv_obj_style_gen.h **** }
 282:lvgl/lvgl/src/widgets/../core/lv_obj_style_gen.h **** 
 283:lvgl/lvgl/src/widgets/../core/lv_obj_style_gen.h **** static inline lv_color_t lv_obj_get_style_border_color_filtered(const struct _lv_obj_t * obj, uint3
 284:lvgl/lvgl/src/widgets/../core/lv_obj_style_gen.h **** {
 285:lvgl/lvgl/src/widgets/../core/lv_obj_style_gen.h ****     lv_style_value_t v = lv_obj_get_style_prop(obj, part, LV_STYLE_BORDER_COLOR_FILTERED);
 286:lvgl/lvgl/src/widgets/../core/lv_obj_style_gen.h ****     return v.color;
 287:lvgl/lvgl/src/widgets/../core/lv_obj_style_gen.h **** }
 288:lvgl/lvgl/src/widgets/../core/lv_obj_style_gen.h **** 
 289:lvgl/lvgl/src/widgets/../core/lv_obj_style_gen.h **** static inline lv_opa_t lv_obj_get_style_border_opa(const struct _lv_obj_t * obj, uint32_t part)
 290:lvgl/lvgl/src/widgets/../core/lv_obj_style_gen.h **** {
 291:lvgl/lvgl/src/widgets/../core/lv_obj_style_gen.h ****     lv_style_value_t v = lv_obj_get_style_prop(obj, part, LV_STYLE_BORDER_OPA);
 292:lvgl/lvgl/src/widgets/../core/lv_obj_style_gen.h ****     return (lv_opa_t)v.num;
 293:lvgl/lvgl/src/widgets/../core/lv_obj_style_gen.h **** }
 294:lvgl/lvgl/src/widgets/../core/lv_obj_style_gen.h **** 
 295:lvgl/lvgl/src/widgets/../core/lv_obj_style_gen.h **** static inline lv_coord_t lv_obj_get_style_border_width(const struct _lv_obj_t * obj, uint32_t part)
 296:lvgl/lvgl/src/widgets/../core/lv_obj_style_gen.h **** {
 297:lvgl/lvgl/src/widgets/../core/lv_obj_style_gen.h ****     lv_style_value_t v = lv_obj_get_style_prop(obj, part, LV_STYLE_BORDER_WIDTH);
 298:lvgl/lvgl/src/widgets/../core/lv_obj_style_gen.h ****     return (lv_coord_t)v.num;
ARM GAS  C:\Users\gx\AppData\Local\Temp\ccIqfrB9.s 			page 28


 299:lvgl/lvgl/src/widgets/../core/lv_obj_style_gen.h **** }
 300:lvgl/lvgl/src/widgets/../core/lv_obj_style_gen.h **** 
 301:lvgl/lvgl/src/widgets/../core/lv_obj_style_gen.h **** static inline lv_border_side_t lv_obj_get_style_border_side(const struct _lv_obj_t * obj, uint32_t 
 302:lvgl/lvgl/src/widgets/../core/lv_obj_style_gen.h **** {
 303:lvgl/lvgl/src/widgets/../core/lv_obj_style_gen.h ****     lv_style_value_t v = lv_obj_get_style_prop(obj, part, LV_STYLE_BORDER_SIDE);
 304:lvgl/lvgl/src/widgets/../core/lv_obj_style_gen.h ****     return (lv_border_side_t)v.num;
 305:lvgl/lvgl/src/widgets/../core/lv_obj_style_gen.h **** }
 306:lvgl/lvgl/src/widgets/../core/lv_obj_style_gen.h **** 
 307:lvgl/lvgl/src/widgets/../core/lv_obj_style_gen.h **** static inline bool lv_obj_get_style_border_post(const struct _lv_obj_t * obj, uint32_t part)
 308:lvgl/lvgl/src/widgets/../core/lv_obj_style_gen.h **** {
 309:lvgl/lvgl/src/widgets/../core/lv_obj_style_gen.h ****     lv_style_value_t v = lv_obj_get_style_prop(obj, part, LV_STYLE_BORDER_POST);
 310:lvgl/lvgl/src/widgets/../core/lv_obj_style_gen.h ****     return (bool)v.num;
 311:lvgl/lvgl/src/widgets/../core/lv_obj_style_gen.h **** }
 312:lvgl/lvgl/src/widgets/../core/lv_obj_style_gen.h **** 
 313:lvgl/lvgl/src/widgets/../core/lv_obj_style_gen.h **** static inline lv_color_t lv_obj_get_style_text_color(const struct _lv_obj_t * obj, uint32_t part)
 314:lvgl/lvgl/src/widgets/../core/lv_obj_style_gen.h **** {
 315:lvgl/lvgl/src/widgets/../core/lv_obj_style_gen.h ****     lv_style_value_t v = lv_obj_get_style_prop(obj, part, LV_STYLE_TEXT_COLOR);
 316:lvgl/lvgl/src/widgets/../core/lv_obj_style_gen.h ****     return v.color;
 317:lvgl/lvgl/src/widgets/../core/lv_obj_style_gen.h **** }
 318:lvgl/lvgl/src/widgets/../core/lv_obj_style_gen.h **** 
 319:lvgl/lvgl/src/widgets/../core/lv_obj_style_gen.h **** static inline lv_color_t lv_obj_get_style_text_color_filtered(const struct _lv_obj_t * obj, uint32_
 320:lvgl/lvgl/src/widgets/../core/lv_obj_style_gen.h **** {
 321:lvgl/lvgl/src/widgets/../core/lv_obj_style_gen.h ****     lv_style_value_t v = lv_obj_get_style_prop(obj, part, LV_STYLE_TEXT_COLOR_FILTERED);
 322:lvgl/lvgl/src/widgets/../core/lv_obj_style_gen.h ****     return v.color;
 323:lvgl/lvgl/src/widgets/../core/lv_obj_style_gen.h **** }
 324:lvgl/lvgl/src/widgets/../core/lv_obj_style_gen.h **** 
 325:lvgl/lvgl/src/widgets/../core/lv_obj_style_gen.h **** static inline lv_opa_t lv_obj_get_style_text_opa(const struct _lv_obj_t * obj, uint32_t part)
 326:lvgl/lvgl/src/widgets/../core/lv_obj_style_gen.h **** {
 327:lvgl/lvgl/src/widgets/../core/lv_obj_style_gen.h ****     lv_style_value_t v = lv_obj_get_style_prop(obj, part, LV_STYLE_TEXT_OPA);
 328:lvgl/lvgl/src/widgets/../core/lv_obj_style_gen.h ****     return (lv_opa_t)v.num;
 329:lvgl/lvgl/src/widgets/../core/lv_obj_style_gen.h **** }
 330:lvgl/lvgl/src/widgets/../core/lv_obj_style_gen.h **** 
 331:lvgl/lvgl/src/widgets/../core/lv_obj_style_gen.h **** static inline const lv_font_t * lv_obj_get_style_text_font(const struct _lv_obj_t * obj, uint32_t p
 149              		.loc 2 331 33 view .LVU32
 150              	.LBB58:
 332:lvgl/lvgl/src/widgets/../core/lv_obj_style_gen.h **** {
 333:lvgl/lvgl/src/widgets/../core/lv_obj_style_gen.h ****     lv_style_value_t v = lv_obj_get_style_prop(obj, part, LV_STYLE_TEXT_FONT);
 151              		.loc 2 333 5 view .LVU33
 152              		.loc 2 333 26 is_stmt 0 view .LVU34
 153 001e 41F25942 		movw	r2, #5209
 154 0022 0021     		movs	r1, #0
 155 0024 3046     		mov	r0, r6
 156 0026 FFF7FEFF 		bl	lv_obj_get_style_prop
 157              	.LVL12:
 334:lvgl/lvgl/src/widgets/../core/lv_obj_style_gen.h ****     return (const lv_font_t *)v.ptr;
 158              		.loc 2 334 5 is_stmt 1 view .LVU35
 159              		.loc 2 334 5 is_stmt 0 view .LVU36
 160              	.LBE58:
 161              	.LBE57:
1067:lvgl/lvgl/src/widgets/lv_dropdown.c ****     lv_coord_t line_space = lv_obj_get_style_text_line_space(label, LV_PART_MAIN);
 162              		.loc 1 1067 5 is_stmt 1 view .LVU37
 163              	.LBB59:
 164              	.LBI59:
 165              		.file 3 "d:\\practise\\f407_disc\\lvgl\\lvgl\\src\\font\\lv_font.h"
   1:d:\practise\f407_disc\lvgl\lvgl\src\font\lv_font.h **** /**
   2:d:\practise\f407_disc\lvgl\lvgl\src\font\lv_font.h ****  * @file lv_font.h
   3:d:\practise\f407_disc\lvgl\lvgl\src\font\lv_font.h ****  *
ARM GAS  C:\Users\gx\AppData\Local\Temp\ccIqfrB9.s 			page 29


   4:d:\practise\f407_disc\lvgl\lvgl\src\font\lv_font.h ****  */
   5:d:\practise\f407_disc\lvgl\lvgl\src\font\lv_font.h **** 
   6:d:\practise\f407_disc\lvgl\lvgl\src\font\lv_font.h **** #ifndef LV_FONT_H
   7:d:\practise\f407_disc\lvgl\lvgl\src\font\lv_font.h **** #define LV_FONT_H
   8:d:\practise\f407_disc\lvgl\lvgl\src\font\lv_font.h **** 
   9:d:\practise\f407_disc\lvgl\lvgl\src\font\lv_font.h **** #ifdef __cplusplus
  10:d:\practise\f407_disc\lvgl\lvgl\src\font\lv_font.h **** extern "C" {
  11:d:\practise\f407_disc\lvgl\lvgl\src\font\lv_font.h **** #endif
  12:d:\practise\f407_disc\lvgl\lvgl\src\font\lv_font.h **** 
  13:d:\practise\f407_disc\lvgl\lvgl\src\font\lv_font.h **** /*********************
  14:d:\practise\f407_disc\lvgl\lvgl\src\font\lv_font.h ****  *      INCLUDES
  15:d:\practise\f407_disc\lvgl\lvgl\src\font\lv_font.h ****  *********************/
  16:d:\practise\f407_disc\lvgl\lvgl\src\font\lv_font.h **** #include "../lv_conf_internal.h"
  17:d:\practise\f407_disc\lvgl\lvgl\src\font\lv_font.h **** #include <stdint.h>
  18:d:\practise\f407_disc\lvgl\lvgl\src\font\lv_font.h **** #include <stddef.h>
  19:d:\practise\f407_disc\lvgl\lvgl\src\font\lv_font.h **** #include <stdbool.h>
  20:d:\practise\f407_disc\lvgl\lvgl\src\font\lv_font.h **** 
  21:d:\practise\f407_disc\lvgl\lvgl\src\font\lv_font.h **** #include "lv_symbol_def.h"
  22:d:\practise\f407_disc\lvgl\lvgl\src\font\lv_font.h **** #include "../misc/lv_area.h"
  23:d:\practise\f407_disc\lvgl\lvgl\src\font\lv_font.h **** 
  24:d:\practise\f407_disc\lvgl\lvgl\src\font\lv_font.h **** /*********************
  25:d:\practise\f407_disc\lvgl\lvgl\src\font\lv_font.h ****  *      DEFINES
  26:d:\practise\f407_disc\lvgl\lvgl\src\font\lv_font.h ****  *********************/
  27:d:\practise\f407_disc\lvgl\lvgl\src\font\lv_font.h **** 
  28:d:\practise\f407_disc\lvgl\lvgl\src\font\lv_font.h **** /**********************
  29:d:\practise\f407_disc\lvgl\lvgl\src\font\lv_font.h ****  *      TYPEDEFS
  30:d:\practise\f407_disc\lvgl\lvgl\src\font\lv_font.h ****  **********************/
  31:d:\practise\f407_disc\lvgl\lvgl\src\font\lv_font.h **** 
  32:d:\practise\f407_disc\lvgl\lvgl\src\font\lv_font.h **** /*------------------
  33:d:\practise\f407_disc\lvgl\lvgl\src\font\lv_font.h ****  * General types
  34:d:\practise\f407_disc\lvgl\lvgl\src\font\lv_font.h ****  *-----------------*/
  35:d:\practise\f407_disc\lvgl\lvgl\src\font\lv_font.h **** 
  36:d:\practise\f407_disc\lvgl\lvgl\src\font\lv_font.h **** /** Describes the properties of a glyph.*/
  37:d:\practise\f407_disc\lvgl\lvgl\src\font\lv_font.h **** typedef struct {
  38:d:\practise\f407_disc\lvgl\lvgl\src\font\lv_font.h ****     uint16_t adv_w; /**< The glyph needs this space. Draw the next glyph after this width.*/
  39:d:\practise\f407_disc\lvgl\lvgl\src\font\lv_font.h ****     uint16_t box_w;  /**< Width of the glyph's bounding box*/
  40:d:\practise\f407_disc\lvgl\lvgl\src\font\lv_font.h ****     uint16_t box_h;  /**< Height of the glyph's bounding box*/
  41:d:\practise\f407_disc\lvgl\lvgl\src\font\lv_font.h ****     int16_t ofs_x;   /**< x offset of the bounding box*/
  42:d:\practise\f407_disc\lvgl\lvgl\src\font\lv_font.h ****     int16_t ofs_y;  /**< y offset of the bounding box*/
  43:d:\practise\f407_disc\lvgl\lvgl\src\font\lv_font.h ****     uint8_t bpp;   /**< Bit-per-pixel: 1, 2, 4, 8*/
  44:d:\practise\f407_disc\lvgl\lvgl\src\font\lv_font.h **** } lv_font_glyph_dsc_t;
  45:d:\practise\f407_disc\lvgl\lvgl\src\font\lv_font.h **** 
  46:d:\practise\f407_disc\lvgl\lvgl\src\font\lv_font.h **** /** The bitmaps might be upscaled by 3 to achieve subpixel rendering.*/
  47:d:\practise\f407_disc\lvgl\lvgl\src\font\lv_font.h **** enum {
  48:d:\practise\f407_disc\lvgl\lvgl\src\font\lv_font.h ****     LV_FONT_SUBPX_NONE,
  49:d:\practise\f407_disc\lvgl\lvgl\src\font\lv_font.h ****     LV_FONT_SUBPX_HOR,
  50:d:\practise\f407_disc\lvgl\lvgl\src\font\lv_font.h ****     LV_FONT_SUBPX_VER,
  51:d:\practise\f407_disc\lvgl\lvgl\src\font\lv_font.h ****     LV_FONT_SUBPX_BOTH,
  52:d:\practise\f407_disc\lvgl\lvgl\src\font\lv_font.h **** };
  53:d:\practise\f407_disc\lvgl\lvgl\src\font\lv_font.h **** 
  54:d:\practise\f407_disc\lvgl\lvgl\src\font\lv_font.h **** typedef uint8_t lv_font_subpx_t;
  55:d:\practise\f407_disc\lvgl\lvgl\src\font\lv_font.h **** 
  56:d:\practise\f407_disc\lvgl\lvgl\src\font\lv_font.h **** struct _lv_font_t;
  57:d:\practise\f407_disc\lvgl\lvgl\src\font\lv_font.h **** 
  58:d:\practise\f407_disc\lvgl\lvgl\src\font\lv_font.h **** /** Describe the properties of a font*/
  59:d:\practise\f407_disc\lvgl\lvgl\src\font\lv_font.h **** typedef struct _lv_font_t {
  60:d:\practise\f407_disc\lvgl\lvgl\src\font\lv_font.h ****     /** Get a glyph's descriptor from a font*/
ARM GAS  C:\Users\gx\AppData\Local\Temp\ccIqfrB9.s 			page 30


  61:d:\practise\f407_disc\lvgl\lvgl\src\font\lv_font.h ****     bool (*get_glyph_dsc)(const struct _lv_font_t *, lv_font_glyph_dsc_t *, uint32_t letter, uint32
  62:d:\practise\f407_disc\lvgl\lvgl\src\font\lv_font.h **** 
  63:d:\practise\f407_disc\lvgl\lvgl\src\font\lv_font.h ****     /** Get a glyph's bitmap from a font*/
  64:d:\practise\f407_disc\lvgl\lvgl\src\font\lv_font.h ****     const uint8_t * (*get_glyph_bitmap)(const struct _lv_font_t *, uint32_t);
  65:d:\practise\f407_disc\lvgl\lvgl\src\font\lv_font.h **** 
  66:d:\practise\f407_disc\lvgl\lvgl\src\font\lv_font.h ****     /*Pointer to the font in a font pack (must have the same line height)*/
  67:d:\practise\f407_disc\lvgl\lvgl\src\font\lv_font.h ****     lv_coord_t line_height;         /**< The real line height where any text fits*/
  68:d:\practise\f407_disc\lvgl\lvgl\src\font\lv_font.h ****     lv_coord_t base_line;           /**< Base line measured from the top of the line_height*/
  69:d:\practise\f407_disc\lvgl\lvgl\src\font\lv_font.h ****     uint8_t subpx  : 2;             /**< An element of `lv_font_subpx_t`*/
  70:d:\practise\f407_disc\lvgl\lvgl\src\font\lv_font.h **** 
  71:d:\practise\f407_disc\lvgl\lvgl\src\font\lv_font.h ****     int8_t underline_position;      /**< Distance between the top of the underline and base line (<
  72:d:\practise\f407_disc\lvgl\lvgl\src\font\lv_font.h ****     int8_t underline_thickness;     /**< Thickness of the underline*/
  73:d:\practise\f407_disc\lvgl\lvgl\src\font\lv_font.h **** 
  74:d:\practise\f407_disc\lvgl\lvgl\src\font\lv_font.h ****     const void * dsc;                     /**< Store implementation specific or run_time data or ca
  75:d:\practise\f407_disc\lvgl\lvgl\src\font\lv_font.h **** #if LV_USE_USER_DATA
  76:d:\practise\f407_disc\lvgl\lvgl\src\font\lv_font.h ****     void * user_data;               /**< Custom user data for font.*/
  77:d:\practise\f407_disc\lvgl\lvgl\src\font\lv_font.h **** #endif
  78:d:\practise\f407_disc\lvgl\lvgl\src\font\lv_font.h **** 
  79:d:\practise\f407_disc\lvgl\lvgl\src\font\lv_font.h **** } lv_font_t;
  80:d:\practise\f407_disc\lvgl\lvgl\src\font\lv_font.h **** 
  81:d:\practise\f407_disc\lvgl\lvgl\src\font\lv_font.h **** /**********************
  82:d:\practise\f407_disc\lvgl\lvgl\src\font\lv_font.h ****  * GLOBAL PROTOTYPES
  83:d:\practise\f407_disc\lvgl\lvgl\src\font\lv_font.h ****  **********************/
  84:d:\practise\f407_disc\lvgl\lvgl\src\font\lv_font.h **** 
  85:d:\practise\f407_disc\lvgl\lvgl\src\font\lv_font.h **** /**
  86:d:\practise\f407_disc\lvgl\lvgl\src\font\lv_font.h ****  * Return with the bitmap of a font.
  87:d:\practise\f407_disc\lvgl\lvgl\src\font\lv_font.h ****  * @param font_p pointer to a font
  88:d:\practise\f407_disc\lvgl\lvgl\src\font\lv_font.h ****  * @param letter an UNICODE character code
  89:d:\practise\f407_disc\lvgl\lvgl\src\font\lv_font.h ****  * @return pointer to the bitmap of the letter
  90:d:\practise\f407_disc\lvgl\lvgl\src\font\lv_font.h ****  */
  91:d:\practise\f407_disc\lvgl\lvgl\src\font\lv_font.h **** const uint8_t * lv_font_get_glyph_bitmap(const lv_font_t * font_p, uint32_t letter);
  92:d:\practise\f407_disc\lvgl\lvgl\src\font\lv_font.h **** 
  93:d:\practise\f407_disc\lvgl\lvgl\src\font\lv_font.h **** /**
  94:d:\practise\f407_disc\lvgl\lvgl\src\font\lv_font.h ****  * Get the descriptor of a glyph
  95:d:\practise\f407_disc\lvgl\lvgl\src\font\lv_font.h ****  * @param font_p pointer to font
  96:d:\practise\f407_disc\lvgl\lvgl\src\font\lv_font.h ****  * @param dsc_out store the result descriptor here
  97:d:\practise\f407_disc\lvgl\lvgl\src\font\lv_font.h ****  * @param letter an UNICODE letter code
  98:d:\practise\f407_disc\lvgl\lvgl\src\font\lv_font.h ****  * @return true: descriptor is successfully loaded into `dsc_out`.
  99:d:\practise\f407_disc\lvgl\lvgl\src\font\lv_font.h ****  *         false: the letter was not found, no data is loaded to `dsc_out`
 100:d:\practise\f407_disc\lvgl\lvgl\src\font\lv_font.h ****  */
 101:d:\practise\f407_disc\lvgl\lvgl\src\font\lv_font.h **** bool lv_font_get_glyph_dsc(const lv_font_t * font_p, lv_font_glyph_dsc_t * dsc_out, uint32_t letter
 102:d:\practise\f407_disc\lvgl\lvgl\src\font\lv_font.h ****                            uint32_t letter_next);
 103:d:\practise\f407_disc\lvgl\lvgl\src\font\lv_font.h **** 
 104:d:\practise\f407_disc\lvgl\lvgl\src\font\lv_font.h **** /**
 105:d:\practise\f407_disc\lvgl\lvgl\src\font\lv_font.h ****  * Get the width of a glyph with kerning
 106:d:\practise\f407_disc\lvgl\lvgl\src\font\lv_font.h ****  * @param font pointer to a font
 107:d:\practise\f407_disc\lvgl\lvgl\src\font\lv_font.h ****  * @param letter an UNICODE letter
 108:d:\practise\f407_disc\lvgl\lvgl\src\font\lv_font.h ****  * @param letter_next the next letter after `letter`. Used for kerning
 109:d:\practise\f407_disc\lvgl\lvgl\src\font\lv_font.h ****  * @return the width of the glyph
 110:d:\practise\f407_disc\lvgl\lvgl\src\font\lv_font.h ****  */
 111:d:\practise\f407_disc\lvgl\lvgl\src\font\lv_font.h **** uint16_t lv_font_get_glyph_width(const lv_font_t * font, uint32_t letter, uint32_t letter_next);
 112:d:\practise\f407_disc\lvgl\lvgl\src\font\lv_font.h **** 
 113:d:\practise\f407_disc\lvgl\lvgl\src\font\lv_font.h **** /**
 114:d:\practise\f407_disc\lvgl\lvgl\src\font\lv_font.h ****  * Get the line height of a font. All characters fit into this height
 115:d:\practise\f407_disc\lvgl\lvgl\src\font\lv_font.h ****  * @param font_p pointer to a font
 116:d:\practise\f407_disc\lvgl\lvgl\src\font\lv_font.h ****  * @return the height of a font
 117:d:\practise\f407_disc\lvgl\lvgl\src\font\lv_font.h ****  */
ARM GAS  C:\Users\gx\AppData\Local\Temp\ccIqfrB9.s 			page 31


 118:d:\practise\f407_disc\lvgl\lvgl\src\font\lv_font.h **** static inline lv_coord_t lv_font_get_line_height(const lv_font_t * font_p)
 166              		.loc 3 118 26 view .LVU38
 167              	.LBB60:
 119:d:\practise\f407_disc\lvgl\lvgl\src\font\lv_font.h **** {
 120:d:\practise\f407_disc\lvgl\lvgl\src\font\lv_font.h ****     return font_p->line_height;
 168              		.loc 3 120 5 view .LVU39
 169              		.loc 3 120 18 is_stmt 0 view .LVU40
 170 002a B0F90850 		ldrsh	r5, [r0, #8]
 171              	.LVL13:
 172              		.loc 3 120 18 view .LVU41
 173              	.LBE60:
 174              	.LBE59:
1068:lvgl/lvgl/src/widgets/lv_dropdown.c ****     lv_coord_t unit_h = font_h + line_space;
 175              		.loc 1 1068 5 is_stmt 1 view .LVU42
 176              	.LBB61:
 177              	.LBI61:
 335:lvgl/lvgl/src/widgets/../core/lv_obj_style_gen.h **** }
 336:lvgl/lvgl/src/widgets/../core/lv_obj_style_gen.h **** 
 337:lvgl/lvgl/src/widgets/../core/lv_obj_style_gen.h **** static inline lv_coord_t lv_obj_get_style_text_letter_space(const struct _lv_obj_t * obj, uint32_t 
 338:lvgl/lvgl/src/widgets/../core/lv_obj_style_gen.h **** {
 339:lvgl/lvgl/src/widgets/../core/lv_obj_style_gen.h ****     lv_style_value_t v = lv_obj_get_style_prop(obj, part, LV_STYLE_TEXT_LETTER_SPACE);
 340:lvgl/lvgl/src/widgets/../core/lv_obj_style_gen.h ****     return (lv_coord_t)v.num;
 341:lvgl/lvgl/src/widgets/../core/lv_obj_style_gen.h **** }
 342:lvgl/lvgl/src/widgets/../core/lv_obj_style_gen.h **** 
 343:lvgl/lvgl/src/widgets/../core/lv_obj_style_gen.h **** static inline lv_coord_t lv_obj_get_style_text_line_space(const struct _lv_obj_t * obj, uint32_t pa
 178              		.loc 2 343 26 view .LVU43
 179              	.LBB62:
 344:lvgl/lvgl/src/widgets/../core/lv_obj_style_gen.h **** {
 345:lvgl/lvgl/src/widgets/../core/lv_obj_style_gen.h ****     lv_style_value_t v = lv_obj_get_style_prop(obj, part, LV_STYLE_TEXT_LINE_SPACE);
 180              		.loc 2 345 5 view .LVU44
 181              		.loc 2 345 26 is_stmt 0 view .LVU45
 182 002e 41F25B42 		movw	r2, #5211
 183 0032 0021     		movs	r1, #0
 184 0034 3046     		mov	r0, r6
 185              	.LVL14:
 186              		.loc 2 345 26 view .LVU46
 187 0036 FFF7FEFF 		bl	lv_obj_get_style_prop
 188              	.LVL15:
 346:lvgl/lvgl/src/widgets/../core/lv_obj_style_gen.h ****     return (lv_coord_t)v.num;
 189              		.loc 2 346 5 is_stmt 1 view .LVU47
 190              		.loc 2 346 5 is_stmt 0 view .LVU48
 191              	.LBE62:
 192              	.LBE61:
1069:lvgl/lvgl/src/widgets/lv_dropdown.c ****     lv_coord_t line_y1 = dropdown->sel_opt_id * unit_h;
 193              		.loc 1 1069 5 is_stmt 1 view .LVU49
1069:lvgl/lvgl/src/widgets/lv_dropdown.c ****     lv_coord_t line_y1 = dropdown->sel_opt_id * unit_h;
 194              		.loc 1 1069 32 is_stmt 0 view .LVU50
 195 003a 0544     		add	r5, r5, r0
 196              	.LVL16:
1070:lvgl/lvgl/src/widgets/lv_dropdown.c **** 
 197              		.loc 1 1070 5 is_stmt 1 view .LVU51
1070:lvgl/lvgl/src/widgets/lv_dropdown.c **** 
 198              		.loc 1 1070 34 is_stmt 0 view .LVU52
 199 003c E18E     		ldrh	r1, [r4, #54]
1070:lvgl/lvgl/src/widgets/lv_dropdown.c **** 
 200              		.loc 1 1070 16 view .LVU53
 201 003e 15FB01F1 		smulbb	r1, r5, r1
ARM GAS  C:\Users\gx\AppData\Local\Temp\ccIqfrB9.s 			page 32


 202              	.LVL17:
1073:lvgl/lvgl/src/widgets/lv_dropdown.c ****     lv_obj_invalidate(dropdown->list);
 203              		.loc 1 1073 5 is_stmt 1 view .LVU54
 204 0042 0022     		movs	r2, #0
 205 0044 09B2     		sxth	r1, r1
1073:lvgl/lvgl/src/widgets/lv_dropdown.c ****     lv_obj_invalidate(dropdown->list);
 206              		.loc 1 1073 5 is_stmt 0 view .LVU55
 207 0046 606A     		ldr	r0, [r4, #36]
 208              	.LVL18:
1073:lvgl/lvgl/src/widgets/lv_dropdown.c ****     lv_obj_invalidate(dropdown->list);
 209              		.loc 1 1073 5 view .LVU56
 210 0048 FFF7FEFF 		bl	lv_obj_scroll_to_y
 211              	.LVL19:
1074:lvgl/lvgl/src/widgets/lv_dropdown.c **** }
 212              		.loc 1 1074 5 is_stmt 1 view .LVU57
 213 004c 606A     		ldr	r0, [r4, #36]
 214 004e FFF7FEFF 		bl	lv_obj_invalidate
 215              	.LVL20:
 216 0052 E3E7     		b	.L8
 217              		.cfi_endproc
 218              	.LFE194:
 220              		.section	.text.get_id_on_point,"ax",%progbits
 221              		.align	1
 222              		.syntax unified
 223              		.thumb
 224              		.thumb_func
 225              		.fpu fpv4-sp-d16
 227              	get_id_on_point:
 228              	.LVL21:
 229              	.LFB193:
1034:lvgl/lvgl/src/widgets/lv_dropdown.c ****     lv_dropdown_t * dropdown = (lv_dropdown_t *)dropdown_obj;
 230              		.loc 1 1034 1 view -0
 231              		.cfi_startproc
 232              		@ args = 0, pretend = 0, frame = 0
 233              		@ frame_needed = 0, uses_anonymous_args = 0
1034:lvgl/lvgl/src/widgets/lv_dropdown.c ****     lv_dropdown_t * dropdown = (lv_dropdown_t *)dropdown_obj;
 234              		.loc 1 1034 1 is_stmt 0 view .LVU59
 235 0000 F8B5     		push	{r3, r4, r5, r6, r7, lr}
 236              	.LCFI3:
 237              		.cfi_def_cfa_offset 24
 238              		.cfi_offset 3, -24
 239              		.cfi_offset 4, -20
 240              		.cfi_offset 5, -16
 241              		.cfi_offset 6, -12
 242              		.cfi_offset 7, -8
 243              		.cfi_offset 14, -4
 244 0002 0546     		mov	r5, r0
 245 0004 0C46     		mov	r4, r1
1035:lvgl/lvgl/src/widgets/lv_dropdown.c ****     lv_obj_t * label = get_label(dropdown_obj);
 246              		.loc 1 1035 5 is_stmt 1 view .LVU60
 247              	.LVL22:
1036:lvgl/lvgl/src/widgets/lv_dropdown.c ****     if(label == NULL) return 0;
 248              		.loc 1 1036 5 view .LVU61
1036:lvgl/lvgl/src/widgets/lv_dropdown.c ****     if(label == NULL) return 0;
 249              		.loc 1 1036 24 is_stmt 0 view .LVU62
 250 0006 FFF7FEFF 		bl	get_label
 251              	.LVL23:
ARM GAS  C:\Users\gx\AppData\Local\Temp\ccIqfrB9.s 			page 33


1037:lvgl/lvgl/src/widgets/lv_dropdown.c ****     y -= label->coords.y1;
 252              		.loc 1 1037 5 is_stmt 1 view .LVU63
1037:lvgl/lvgl/src/widgets/lv_dropdown.c ****     y -= label->coords.y1;
 253              		.loc 1 1037 7 is_stmt 0 view .LVU64
 254 000a 10B3     		cbz	r0, .L14
 255 000c 0746     		mov	r7, r0
1038:lvgl/lvgl/src/widgets/lv_dropdown.c **** 
 256              		.loc 1 1038 5 is_stmt 1 view .LVU65
1038:lvgl/lvgl/src/widgets/lv_dropdown.c **** 
 257              		.loc 1 1038 23 is_stmt 0 view .LVU66
 258 000e C18A     		ldrh	r1, [r0, #22]
1038:lvgl/lvgl/src/widgets/lv_dropdown.c **** 
 259              		.loc 1 1038 7 view .LVU67
 260 0010 641A     		subs	r4, r4, r1
 261 0012 A4B2     		uxth	r4, r4
 262              	.LVL24:
1040:lvgl/lvgl/src/widgets/lv_dropdown.c ****     lv_coord_t font_h              = lv_font_get_line_height(font);
 263              		.loc 1 1040 5 is_stmt 1 view .LVU68
 264              	.LBB63:
 265              	.LBI63:
 331:lvgl/lvgl/src/widgets/../core/lv_obj_style_gen.h **** {
 266              		.loc 2 331 33 view .LVU69
 267              	.LBB64:
 333:lvgl/lvgl/src/widgets/../core/lv_obj_style_gen.h ****     return (const lv_font_t *)v.ptr;
 268              		.loc 2 333 5 view .LVU70
 333:lvgl/lvgl/src/widgets/../core/lv_obj_style_gen.h ****     return (const lv_font_t *)v.ptr;
 269              		.loc 2 333 26 is_stmt 0 view .LVU71
 270 0014 41F25942 		movw	r2, #5209
 271 0018 0021     		movs	r1, #0
 272 001a FFF7FEFF 		bl	lv_obj_get_style_prop
 273              	.LVL25:
 334:lvgl/lvgl/src/widgets/../core/lv_obj_style_gen.h **** }
 274              		.loc 2 334 5 is_stmt 1 view .LVU72
 334:lvgl/lvgl/src/widgets/../core/lv_obj_style_gen.h **** }
 275              		.loc 2 334 5 is_stmt 0 view .LVU73
 276              	.LBE64:
 277              	.LBE63:
1041:lvgl/lvgl/src/widgets/lv_dropdown.c ****     lv_coord_t line_space = lv_obj_get_style_text_line_space(label, LV_PART_MAIN);
 278              		.loc 1 1041 5 is_stmt 1 view .LVU74
 279              	.LBB65:
 280              	.LBI65:
 118:d:\practise\f407_disc\lvgl\lvgl\src\font\lv_font.h **** {
 281              		.loc 3 118 26 view .LVU75
 282              	.LBB66:
 283              		.loc 3 120 5 view .LVU76
 284              		.loc 3 120 18 is_stmt 0 view .LVU77
 285 001e B0F90860 		ldrsh	r6, [r0, #8]
 286              	.LVL26:
 287              		.loc 3 120 18 view .LVU78
 288              	.LBE66:
 289              	.LBE65:
1042:lvgl/lvgl/src/widgets/lv_dropdown.c **** 
 290              		.loc 1 1042 5 is_stmt 1 view .LVU79
 291              	.LBB67:
 292              	.LBI67:
 343:lvgl/lvgl/src/widgets/../core/lv_obj_style_gen.h **** {
 293              		.loc 2 343 26 view .LVU80
ARM GAS  C:\Users\gx\AppData\Local\Temp\ccIqfrB9.s 			page 34


 294              	.LBB68:
 345:lvgl/lvgl/src/widgets/../core/lv_obj_style_gen.h ****     return (lv_coord_t)v.num;
 295              		.loc 2 345 5 view .LVU81
 345:lvgl/lvgl/src/widgets/../core/lv_obj_style_gen.h ****     return (lv_coord_t)v.num;
 296              		.loc 2 345 26 is_stmt 0 view .LVU82
 297 0022 41F25B42 		movw	r2, #5211
 298 0026 0021     		movs	r1, #0
 299 0028 3846     		mov	r0, r7
 300              	.LVL27:
 345:lvgl/lvgl/src/widgets/../core/lv_obj_style_gen.h ****     return (lv_coord_t)v.num;
 301              		.loc 2 345 26 view .LVU83
 302 002a FFF7FEFF 		bl	lv_obj_get_style_prop
 303              	.LVL28:
 304              		.loc 2 346 5 is_stmt 1 view .LVU84
 305              		.loc 2 346 5 is_stmt 0 view .LVU85
 306              	.LBE68:
 307              	.LBE67:
1044:lvgl/lvgl/src/widgets/lv_dropdown.c ****     lv_coord_t h = font_h + line_space;
 308              		.loc 1 1044 5 is_stmt 1 view .LVU86
1044:lvgl/lvgl/src/widgets/lv_dropdown.c ****     lv_coord_t h = font_h + line_space;
 309              		.loc 1 1044 7 is_stmt 0 view .LVU87
 310 002e C0F3C033 		ubfx	r3, r0, #15, #1
 311 0032 03FA80F3 		sxtah	r3, r3, r0
 312 0036 04EB6303 		add	r3, r4, r3, asr #1
 313 003a 1BB2     		sxth	r3, r3
 314              	.LVL29:
1045:lvgl/lvgl/src/widgets/lv_dropdown.c **** 
 315              		.loc 1 1045 5 is_stmt 1 view .LVU88
1045:lvgl/lvgl/src/widgets/lv_dropdown.c **** 
 316              		.loc 1 1045 27 is_stmt 0 view .LVU89
 317 003c 3044     		add	r0, r0, r6
 318              	.LVL30:
1045:lvgl/lvgl/src/widgets/lv_dropdown.c **** 
 319              		.loc 1 1045 16 view .LVU90
 320 003e 00B2     		sxth	r0, r0
 321              	.LVL31:
1047:lvgl/lvgl/src/widgets/lv_dropdown.c **** 
 322              		.loc 1 1047 5 is_stmt 1 view .LVU91
1047:lvgl/lvgl/src/widgets/lv_dropdown.c **** 
 323              		.loc 1 1047 22 is_stmt 0 view .LVU92
 324 0040 93FBF0F3 		sdiv	r3, r3, r0
 325              	.LVL32:
1047:lvgl/lvgl/src/widgets/lv_dropdown.c **** 
 326              		.loc 1 1047 14 view .LVU93
 327 0044 98B2     		uxth	r0, r3
 328              	.LVL33:
1049:lvgl/lvgl/src/widgets/lv_dropdown.c ****     return opt;
 329              		.loc 1 1049 5 is_stmt 1 view .LVU94
1049:lvgl/lvgl/src/widgets/lv_dropdown.c ****     return opt;
 330              		.loc 1 1049 23 is_stmt 0 view .LVU95
 331 0046 AB8E     		ldrh	r3, [r5, #52]
1049:lvgl/lvgl/src/widgets/lv_dropdown.c ****     return opt;
 332              		.loc 1 1049 7 view .LVU96
 333 0048 8342     		cmp	r3, r0
 334 004a 01D8     		bhi	.L13
1049:lvgl/lvgl/src/widgets/lv_dropdown.c ****     return opt;
 335              		.loc 1 1049 37 is_stmt 1 discriminator 1 view .LVU97
ARM GAS  C:\Users\gx\AppData\Local\Temp\ccIqfrB9.s 			page 35


1049:lvgl/lvgl/src/widgets/lv_dropdown.c ****     return opt;
 336              		.loc 1 1049 41 is_stmt 0 discriminator 1 view .LVU98
 337 004c 581E     		subs	r0, r3, #1
 338              	.LVL34:
1049:lvgl/lvgl/src/widgets/lv_dropdown.c ****     return opt;
 339              		.loc 1 1049 41 discriminator 1 view .LVU99
 340 004e 80B2     		uxth	r0, r0
 341              	.LVL35:
 342              	.L13:
1051:lvgl/lvgl/src/widgets/lv_dropdown.c **** 
 343              		.loc 1 1051 1 view .LVU100
 344 0050 F8BD     		pop	{r3, r4, r5, r6, r7, pc}
 345              	.LVL36:
 346              	.L14:
1037:lvgl/lvgl/src/widgets/lv_dropdown.c ****     y -= label->coords.y1;
 347              		.loc 1 1037 30 view .LVU101
 348 0052 0020     		movs	r0, #0
 349              	.LVL37:
1037:lvgl/lvgl/src/widgets/lv_dropdown.c ****     y -= label->coords.y1;
 350              		.loc 1 1037 30 view .LVU102
 351 0054 FCE7     		b	.L13
 352              		.cfi_endproc
 353              	.LFE193:
 355              		.section	.text.lv_dropdown_destructor,"ax",%progbits
 356              		.align	1
 357              		.syntax unified
 358              		.thumb
 359              		.thumb_func
 360              		.fpu fpv4-sp-d16
 362              	lv_dropdown_destructor:
 363              	.LVL38:
 364              	.LFB181:
 563:lvgl/lvgl/src/widgets/lv_dropdown.c ****     LV_UNUSED(class_p);
 365              		.loc 1 563 1 is_stmt 1 view -0
 366              		.cfi_startproc
 367              		@ args = 0, pretend = 0, frame = 0
 368              		@ frame_needed = 0, uses_anonymous_args = 0
 563:lvgl/lvgl/src/widgets/lv_dropdown.c ****     LV_UNUSED(class_p);
 369              		.loc 1 563 1 is_stmt 0 view .LVU104
 370 0000 10B5     		push	{r4, lr}
 371              	.LCFI4:
 372              		.cfi_def_cfa_offset 8
 373              		.cfi_offset 4, -8
 374              		.cfi_offset 14, -4
 375 0002 0C46     		mov	r4, r1
 564:lvgl/lvgl/src/widgets/lv_dropdown.c ****     lv_dropdown_t * dropdown = (lv_dropdown_t *)obj;
 376              		.loc 1 564 5 is_stmt 1 view .LVU105
 565:lvgl/lvgl/src/widgets/lv_dropdown.c **** 
 377              		.loc 1 565 5 view .LVU106
 378              	.LVL39:
 567:lvgl/lvgl/src/widgets/lv_dropdown.c ****         lv_obj_del(dropdown->list);
 379              		.loc 1 567 5 view .LVU107
 567:lvgl/lvgl/src/widgets/lv_dropdown.c ****         lv_obj_del(dropdown->list);
 380              		.loc 1 567 16 is_stmt 0 view .LVU108
 381 0004 486A     		ldr	r0, [r1, #36]
 382              	.LVL40:
 567:lvgl/lvgl/src/widgets/lv_dropdown.c ****         lv_obj_del(dropdown->list);
ARM GAS  C:\Users\gx\AppData\Local\Temp\ccIqfrB9.s 			page 36


 383              		.loc 1 567 7 view .LVU109
 384 0006 18B1     		cbz	r0, .L17
 568:lvgl/lvgl/src/widgets/lv_dropdown.c ****         dropdown->list = NULL;
 385              		.loc 1 568 9 is_stmt 1 view .LVU110
 386 0008 FFF7FEFF 		bl	lv_obj_del
 387              	.LVL41:
 569:lvgl/lvgl/src/widgets/lv_dropdown.c ****     }
 388              		.loc 1 569 9 view .LVU111
 569:lvgl/lvgl/src/widgets/lv_dropdown.c ****     }
 389              		.loc 1 569 24 is_stmt 0 view .LVU112
 390 000c 0023     		movs	r3, #0
 391 000e 6362     		str	r3, [r4, #36]
 392              	.L17:
 572:lvgl/lvgl/src/widgets/lv_dropdown.c ****         lv_mem_free(dropdown->options);
 393              		.loc 1 572 5 is_stmt 1 view .LVU113
 572:lvgl/lvgl/src/widgets/lv_dropdown.c ****         lv_mem_free(dropdown->options);
 394              		.loc 1 572 8 is_stmt 0 view .LVU114
 395 0010 94F83C30 		ldrb	r3, [r4, #60]	@ zero_extendqisi2
 572:lvgl/lvgl/src/widgets/lv_dropdown.c ****         lv_mem_free(dropdown->options);
 396              		.loc 1 572 7 view .LVU115
 397 0014 13F0100F 		tst	r3, #16
 398 0018 00D0     		beq	.L20
 399              	.L16:
 576:lvgl/lvgl/src/widgets/lv_dropdown.c **** 
 400              		.loc 1 576 1 view .LVU116
 401 001a 10BD     		pop	{r4, pc}
 402              	.LVL42:
 403              	.L20:
 573:lvgl/lvgl/src/widgets/lv_dropdown.c ****         dropdown->options = NULL;
 404              		.loc 1 573 9 is_stmt 1 view .LVU117
 405 001c 206B     		ldr	r0, [r4, #48]
 406 001e FFF7FEFF 		bl	lv_mem_free
 407              	.LVL43:
 574:lvgl/lvgl/src/widgets/lv_dropdown.c ****     }
 408              		.loc 1 574 9 view .LVU118
 574:lvgl/lvgl/src/widgets/lv_dropdown.c ****     }
 409              		.loc 1 574 27 is_stmt 0 view .LVU119
 410 0022 0023     		movs	r3, #0
 411 0024 2363     		str	r3, [r4, #48]
 576:lvgl/lvgl/src/widgets/lv_dropdown.c **** 
 412              		.loc 1 576 1 view .LVU120
 413 0026 F8E7     		b	.L16
 414              		.cfi_endproc
 415              	.LFE181:
 417              		.section	.text.list_press_handler,"ax",%progbits
 418              		.align	1
 419              		.syntax unified
 420              		.thumb
 421              		.thumb_func
 422              		.fpu fpv4-sp-d16
 424              	list_press_handler:
 425              	.LVL44:
 426              	.LFB192:
1019:lvgl/lvgl/src/widgets/lv_dropdown.c ****     lv_dropdown_list_t * list = (lv_dropdown_list_t*) list_obj;
 427              		.loc 1 1019 1 is_stmt 1 view -0
 428              		.cfi_startproc
 429              		@ args = 0, pretend = 0, frame = 8
ARM GAS  C:\Users\gx\AppData\Local\Temp\ccIqfrB9.s 			page 37


 430              		@ frame_needed = 0, uses_anonymous_args = 0
1019:lvgl/lvgl/src/widgets/lv_dropdown.c ****     lv_dropdown_list_t * list = (lv_dropdown_list_t*) list_obj;
 431              		.loc 1 1019 1 is_stmt 0 view .LVU122
 432 0000 70B5     		push	{r4, r5, r6, lr}
 433              	.LCFI5:
 434              		.cfi_def_cfa_offset 16
 435              		.cfi_offset 4, -16
 436              		.cfi_offset 5, -12
 437              		.cfi_offset 6, -8
 438              		.cfi_offset 14, -4
 439 0002 82B0     		sub	sp, sp, #8
 440              	.LCFI6:
 441              		.cfi_def_cfa_offset 24
 442 0004 0446     		mov	r4, r0
1020:lvgl/lvgl/src/widgets/lv_dropdown.c ****     lv_obj_t * dropdown_obj = list->dropdown;
 443              		.loc 1 1020 5 is_stmt 1 view .LVU123
 444              	.LVL45:
1021:lvgl/lvgl/src/widgets/lv_dropdown.c ****     lv_dropdown_t * dropdown = (lv_dropdown_t *)dropdown_obj;
 445              		.loc 1 1021 5 view .LVU124
1021:lvgl/lvgl/src/widgets/lv_dropdown.c ****     lv_dropdown_t * dropdown = (lv_dropdown_t *)dropdown_obj;
 446              		.loc 1 1021 16 is_stmt 0 view .LVU125
 447 0006 466A     		ldr	r6, [r0, #36]
 448              	.LVL46:
1022:lvgl/lvgl/src/widgets/lv_dropdown.c **** 
 449              		.loc 1 1022 5 is_stmt 1 view .LVU126
1024:lvgl/lvgl/src/widgets/lv_dropdown.c ****     if(indev && (lv_indev_get_type(indev) == LV_INDEV_TYPE_POINTER || lv_indev_get_type(indev) == L
 450              		.loc 1 1024 5 view .LVU127
1024:lvgl/lvgl/src/widgets/lv_dropdown.c ****     if(indev && (lv_indev_get_type(indev) == LV_INDEV_TYPE_POINTER || lv_indev_get_type(indev) == L
 451              		.loc 1 1024 26 is_stmt 0 view .LVU128
 452 0008 FFF7FEFF 		bl	lv_indev_get_act
 453              	.LVL47:
1025:lvgl/lvgl/src/widgets/lv_dropdown.c ****         lv_point_t p;
 454              		.loc 1 1025 5 is_stmt 1 view .LVU129
1025:lvgl/lvgl/src/widgets/lv_dropdown.c ****         lv_point_t p;
 455              		.loc 1 1025 7 is_stmt 0 view .LVU130
 456 000c B0B1     		cbz	r0, .L21
 457 000e 0546     		mov	r5, r0
1025:lvgl/lvgl/src/widgets/lv_dropdown.c ****         lv_point_t p;
 458              		.loc 1 1025 18 discriminator 1 view .LVU131
 459 0010 FFF7FEFF 		bl	lv_indev_get_type
 460              	.LVL48:
1025:lvgl/lvgl/src/widgets/lv_dropdown.c ****         lv_point_t p;
 461              		.loc 1 1025 14 discriminator 1 view .LVU132
 462 0014 0128     		cmp	r0, #1
 463 0016 04D0     		beq	.L23
1025:lvgl/lvgl/src/widgets/lv_dropdown.c ****         lv_point_t p;
 464              		.loc 1 1025 71 discriminator 2 view .LVU133
 465 0018 2846     		mov	r0, r5
 466 001a FFF7FEFF 		bl	lv_indev_get_type
 467              	.LVL49:
1025:lvgl/lvgl/src/widgets/lv_dropdown.c ****         lv_point_t p;
 468              		.loc 1 1025 68 discriminator 2 view .LVU134
 469 001e 0328     		cmp	r0, #3
 470 0020 0CD1     		bne	.L21
 471              	.L23:
 472              	.LBB69:
1026:lvgl/lvgl/src/widgets/lv_dropdown.c ****         lv_indev_get_point(indev, &p);
ARM GAS  C:\Users\gx\AppData\Local\Temp\ccIqfrB9.s 			page 38


 473              		.loc 1 1026 9 is_stmt 1 view .LVU135
1027:lvgl/lvgl/src/widgets/lv_dropdown.c ****         dropdown->pr_opt_id = get_id_on_point(dropdown_obj, p.y);
 474              		.loc 1 1027 9 view .LVU136
 475 0022 01A9     		add	r1, sp, #4
 476 0024 2846     		mov	r0, r5
 477 0026 FFF7FEFF 		bl	lv_indev_get_point
 478              	.LVL50:
1028:lvgl/lvgl/src/widgets/lv_dropdown.c ****         lv_obj_invalidate(list_obj);
 479              		.loc 1 1028 9 view .LVU137
1028:lvgl/lvgl/src/widgets/lv_dropdown.c ****         lv_obj_invalidate(list_obj);
 480              		.loc 1 1028 31 is_stmt 0 view .LVU138
 481 002a BDF90610 		ldrsh	r1, [sp, #6]
 482 002e 3046     		mov	r0, r6
 483 0030 FFF7FEFF 		bl	get_id_on_point
 484              	.LVL51:
1028:lvgl/lvgl/src/widgets/lv_dropdown.c ****         lv_obj_invalidate(list_obj);
 485              		.loc 1 1028 29 view .LVU139
 486 0034 7087     		strh	r0, [r6, #58]	@ movhi
1029:lvgl/lvgl/src/widgets/lv_dropdown.c ****     }
 487              		.loc 1 1029 9 is_stmt 1 view .LVU140
 488 0036 2046     		mov	r0, r4
 489 0038 FFF7FEFF 		bl	lv_obj_invalidate
 490              	.LVL52:
 491              	.L21:
1029:lvgl/lvgl/src/widgets/lv_dropdown.c ****     }
 492              		.loc 1 1029 9 is_stmt 0 view .LVU141
 493              	.LBE69:
1031:lvgl/lvgl/src/widgets/lv_dropdown.c **** 
 494              		.loc 1 1031 1 view .LVU142
 495 003c 02B0     		add	sp, sp, #8
 496              	.LCFI7:
 497              		.cfi_def_cfa_offset 16
 498              		@ sp needed
 499 003e 70BD     		pop	{r4, r5, r6, pc}
1031:lvgl/lvgl/src/widgets/lv_dropdown.c **** 
 500              		.loc 1 1031 1 view .LVU143
 501              		.cfi_endproc
 502              	.LFE192:
 504              		.section	.text.draw_box,"ax",%progbits
 505              		.align	1
 506              		.syntax unified
 507              		.thumb
 508              		.thumb_func
 509              		.fpu fpv4-sp-d16
 511              	draw_box:
 512              	.LVL53:
 513              	.LFB188:
 866:lvgl/lvgl/src/widgets/lv_dropdown.c ****     if(id == LV_DROPDOWN_PR_NONE) return;
 514              		.loc 1 866 1 is_stmt 1 view -0
 515              		.cfi_startproc
 516              		@ args = 0, pretend = 0, frame = 64
 517              		@ frame_needed = 0, uses_anonymous_args = 0
 866:lvgl/lvgl/src/widgets/lv_dropdown.c ****     if(id == LV_DROPDOWN_PR_NONE) return;
 518              		.loc 1 866 1 is_stmt 0 view .LVU145
 519 0000 2DE9F04F 		push	{r4, r5, r6, r7, r8, r9, r10, fp, lr}
 520              	.LCFI8:
 521              		.cfi_def_cfa_offset 36
ARM GAS  C:\Users\gx\AppData\Local\Temp\ccIqfrB9.s 			page 39


 522              		.cfi_offset 4, -36
 523              		.cfi_offset 5, -32
 524              		.cfi_offset 6, -28
 525              		.cfi_offset 7, -24
 526              		.cfi_offset 8, -20
 527              		.cfi_offset 9, -16
 528              		.cfi_offset 10, -12
 529              		.cfi_offset 11, -8
 530              		.cfi_offset 14, -4
 531 0004 91B0     		sub	sp, sp, #68
 532              	.LCFI9:
 533              		.cfi_def_cfa_offset 104
 534 0006 9346     		mov	fp, r2
 867:lvgl/lvgl/src/widgets/lv_dropdown.c **** 
 535              		.loc 1 867 5 is_stmt 1 view .LVU146
 867:lvgl/lvgl/src/widgets/lv_dropdown.c **** 
 536              		.loc 1 867 7 is_stmt 0 view .LVU147
 537 0008 4FF6FF72 		movw	r2, #65535
 538              	.LVL54:
 867:lvgl/lvgl/src/widgets/lv_dropdown.c **** 
 539              		.loc 1 867 7 view .LVU148
 540 000c 9345     		cmp	fp, r2
 541 000e 56D0     		beq	.L25
 542 0010 0546     		mov	r5, r0
 543 0012 0E46     		mov	r6, r1
 869:lvgl/lvgl/src/widgets/lv_dropdown.c ****     lv_obj_t * list_obj = dropdown->list;
 544              		.loc 1 869 5 is_stmt 1 view .LVU149
 545              	.LVL55:
 870:lvgl/lvgl/src/widgets/lv_dropdown.c ****     lv_state_t state_ori = list_obj->state;
 546              		.loc 1 870 5 view .LVU150
 870:lvgl/lvgl/src/widgets/lv_dropdown.c ****     lv_state_t state_ori = list_obj->state;
 547              		.loc 1 870 16 is_stmt 0 view .LVU151
 548 0014 446A     		ldr	r4, [r0, #36]
 549              	.LVL56:
 871:lvgl/lvgl/src/widgets/lv_dropdown.c **** 
 550              		.loc 1 871 5 is_stmt 1 view .LVU152
 871:lvgl/lvgl/src/widgets/lv_dropdown.c **** 
 551              		.loc 1 871 16 is_stmt 0 view .LVU153
 552 0016 278C     		ldrh	r7, [r4, #32]
 553              	.LVL57:
 873:lvgl/lvgl/src/widgets/lv_dropdown.c ****         list_obj->state = state;
 554              		.loc 1 873 5 is_stmt 1 view .LVU154
 873:lvgl/lvgl/src/widgets/lv_dropdown.c ****         list_obj->state = state;
 555              		.loc 1 873 7 is_stmt 0 view .LVU155
 556 0018 9F42     		cmp	r7, r3
 557 001a 06D0     		beq	.L28
 874:lvgl/lvgl/src/widgets/lv_dropdown.c ****         list_obj->skip_trans = 1;
 558              		.loc 1 874 9 is_stmt 1 view .LVU156
 874:lvgl/lvgl/src/widgets/lv_dropdown.c ****         list_obj->skip_trans = 1;
 559              		.loc 1 874 25 is_stmt 0 view .LVU157
 560 001c 2384     		strh	r3, [r4, #32]	@ movhi
 875:lvgl/lvgl/src/widgets/lv_dropdown.c ****     }
 561              		.loc 1 875 9 is_stmt 1 view .LVU158
 875:lvgl/lvgl/src/widgets/lv_dropdown.c ****     }
 562              		.loc 1 875 30 is_stmt 0 view .LVU159
 563 001e 94F82230 		ldrb	r3, [r4, #34]	@ zero_extendqisi2
 564              	.LVL58:
ARM GAS  C:\Users\gx\AppData\Local\Temp\ccIqfrB9.s 			page 40


 875:lvgl/lvgl/src/widgets/lv_dropdown.c ****     }
 565              		.loc 1 875 30 view .LVU160
 566 0022 43F00403 		orr	r3, r3, #4
 567 0026 84F82230 		strb	r3, [r4, #34]
 568              	.LVL59:
 569              	.L28:
 879:lvgl/lvgl/src/widgets/lv_dropdown.c ****     lv_coord_t line_space = lv_obj_get_style_text_line_space(list_obj,  LV_PART_SELECTED);
 570              		.loc 1 879 5 is_stmt 1 view .LVU161
 571              	.LBB70:
 572              	.LBI70:
 331:lvgl/lvgl/src/widgets/../core/lv_obj_style_gen.h **** {
 573              		.loc 2 331 33 view .LVU162
 574              	.LBB71:
 333:lvgl/lvgl/src/widgets/../core/lv_obj_style_gen.h ****     return (const lv_font_t *)v.ptr;
 575              		.loc 2 333 5 view .LVU163
 333:lvgl/lvgl/src/widgets/../core/lv_obj_style_gen.h ****     return (const lv_font_t *)v.ptr;
 576              		.loc 2 333 26 is_stmt 0 view .LVU164
 577 002a 41F25942 		movw	r2, #5209
 578 002e 4FF48021 		mov	r1, #262144
 579              	.LVL60:
 333:lvgl/lvgl/src/widgets/../core/lv_obj_style_gen.h ****     return (const lv_font_t *)v.ptr;
 580              		.loc 2 333 26 view .LVU165
 581 0032 2046     		mov	r0, r4
 582              	.LVL61:
 333:lvgl/lvgl/src/widgets/../core/lv_obj_style_gen.h ****     return (const lv_font_t *)v.ptr;
 583              		.loc 2 333 26 view .LVU166
 584 0034 FFF7FEFF 		bl	lv_obj_get_style_prop
 585              	.LVL62:
 586 0038 8146     		mov	r9, r0
 587              	.LVL63:
 334:lvgl/lvgl/src/widgets/../core/lv_obj_style_gen.h **** }
 588              		.loc 2 334 5 is_stmt 1 view .LVU167
 334:lvgl/lvgl/src/widgets/../core/lv_obj_style_gen.h **** }
 589              		.loc 2 334 5 is_stmt 0 view .LVU168
 590              	.LBE71:
 591              	.LBE70:
 880:lvgl/lvgl/src/widgets/lv_dropdown.c ****     lv_coord_t font_h         = lv_font_get_line_height(font);
 592              		.loc 1 880 5 is_stmt 1 view .LVU169
 593              	.LBB72:
 594              	.LBI72:
 343:lvgl/lvgl/src/widgets/../core/lv_obj_style_gen.h **** {
 595              		.loc 2 343 26 view .LVU170
 596              	.LBB73:
 345:lvgl/lvgl/src/widgets/../core/lv_obj_style_gen.h ****     return (lv_coord_t)v.num;
 597              		.loc 2 345 5 view .LVU171
 345:lvgl/lvgl/src/widgets/../core/lv_obj_style_gen.h ****     return (lv_coord_t)v.num;
 598              		.loc 2 345 26 is_stmt 0 view .LVU172
 599 003a 41F25B42 		movw	r2, #5211
 600 003e 4FF48021 		mov	r1, #262144
 601 0042 2046     		mov	r0, r4
 602              	.LVL64:
 345:lvgl/lvgl/src/widgets/../core/lv_obj_style_gen.h ****     return (lv_coord_t)v.num;
 603              		.loc 2 345 26 view .LVU173
 604 0044 FFF7FEFF 		bl	lv_obj_get_style_prop
 605              	.LVL65:
 606 0048 8046     		mov	r8, r0
 607              	.LVL66:
ARM GAS  C:\Users\gx\AppData\Local\Temp\ccIqfrB9.s 			page 41


 608              		.loc 2 346 5 is_stmt 1 view .LVU174
 609              		.loc 2 346 12 is_stmt 0 view .LVU175
 610 004a 0FFA80FA 		sxth	r10, r0
 611              	.LVL67:
 612              		.loc 2 346 12 view .LVU176
 613              	.LBE73:
 614              	.LBE72:
 881:lvgl/lvgl/src/widgets/lv_dropdown.c **** 
 615              		.loc 1 881 5 is_stmt 1 view .LVU177
 616              	.LBB74:
 617              	.LBI74:
 118:d:\practise\f407_disc\lvgl\lvgl\src\font\lv_font.h **** {
 618              		.loc 3 118 26 view .LVU178
 619              	.LBB75:
 620              		.loc 3 120 5 view .LVU179
 621              		.loc 3 120 18 is_stmt 0 view .LVU180
 622 004e B9F90890 		ldrsh	r9, [r9, #8]
 623              	.LVL68:
 624              		.loc 3 120 18 view .LVU181
 625              	.LBE75:
 626              	.LBE74:
 884:lvgl/lvgl/src/widgets/lv_dropdown.c ****     lv_area_t rect_area;
 627              		.loc 1 884 5 is_stmt 1 view .LVU182
 884:lvgl/lvgl/src/widgets/lv_dropdown.c ****     lv_area_t rect_area;
 628              		.loc 1 884 24 is_stmt 0 view .LVU183
 629 0052 2846     		mov	r0, r5
 884:lvgl/lvgl/src/widgets/lv_dropdown.c ****     lv_area_t rect_area;
 630              		.loc 1 884 24 view .LVU184
 631 0054 FFF7FEFF 		bl	get_label
 632              	.LVL69:
 885:lvgl/lvgl/src/widgets/lv_dropdown.c ****     rect_area.y1 = label->coords.y1;
 633              		.loc 1 885 5 is_stmt 1 view .LVU185
 886:lvgl/lvgl/src/widgets/lv_dropdown.c ****     rect_area.y1 += id * (font_h + line_space);
 634              		.loc 1 886 5 view .LVU186
 886:lvgl/lvgl/src/widgets/lv_dropdown.c ****     rect_area.y1 += id * (font_h + line_space);
 635              		.loc 1 886 33 is_stmt 0 view .LVU187
 636 0058 B0F91620 		ldrsh	r2, [r0, #22]
 887:lvgl/lvgl/src/widgets/lv_dropdown.c ****     rect_area.y1 -= line_space / 2;
 637              		.loc 1 887 5 is_stmt 1 view .LVU188
 887:lvgl/lvgl/src/widgets/lv_dropdown.c ****     rect_area.y1 -= line_space / 2;
 638              		.loc 1 887 34 is_stmt 0 view .LVU189
 639 005c 09EB0A03 		add	r3, r9, r10
 887:lvgl/lvgl/src/widgets/lv_dropdown.c ****     rect_area.y1 -= line_space / 2;
 640              		.loc 1 887 18 view .LVU190
 641 0060 13FB0B23 		smlabb	r3, r3, fp, r2
 642 0064 9BB2     		uxth	r3, r3
 888:lvgl/lvgl/src/widgets/lv_dropdown.c **** 
 643              		.loc 1 888 5 is_stmt 1 view .LVU191
 888:lvgl/lvgl/src/widgets/lv_dropdown.c **** 
 644              		.loc 1 888 18 is_stmt 0 view .LVU192
 645 0066 0AEBDA7A 		add	r10, r10, r10, lsr #31
 646              	.LVL70:
 888:lvgl/lvgl/src/widgets/lv_dropdown.c **** 
 647              		.loc 1 888 18 view .LVU193
 648 006a A3EB6A03 		sub	r3, r3, r10, asr #1
 649 006e 9BB2     		uxth	r3, r3
 650 0070 ADF83A30 		strh	r3, [sp, #58]	@ movhi
ARM GAS  C:\Users\gx\AppData\Local\Temp\ccIqfrB9.s 			page 42


 890:lvgl/lvgl/src/widgets/lv_dropdown.c ****     rect_area.x1 = dropdown->list->coords.x1;
 651              		.loc 1 890 5 is_stmt 1 view .LVU194
 890:lvgl/lvgl/src/widgets/lv_dropdown.c ****     rect_area.x1 = dropdown->list->coords.x1;
 652              		.loc 1 890 33 is_stmt 0 view .LVU195
 653 0074 4B44     		add	r3, r3, r9
 654              	.LVL71:
 890:lvgl/lvgl/src/widgets/lv_dropdown.c ****     rect_area.x1 = dropdown->list->coords.x1;
 655              		.loc 1 890 42 view .LVU196
 656 0076 18FA83F3 		uxtah	r3, r8, r3
 657 007a 9BB2     		uxth	r3, r3
 890:lvgl/lvgl/src/widgets/lv_dropdown.c ****     rect_area.x1 = dropdown->list->coords.x1;
 658              		.loc 1 890 55 view .LVU197
 659 007c 013B     		subs	r3, r3, #1
 890:lvgl/lvgl/src/widgets/lv_dropdown.c ****     rect_area.x1 = dropdown->list->coords.x1;
 660              		.loc 1 890 18 view .LVU198
 661 007e ADF83E30 		strh	r3, [sp, #62]	@ movhi
 891:lvgl/lvgl/src/widgets/lv_dropdown.c ****     rect_area.x2 = dropdown->list->coords.x2;
 662              		.loc 1 891 5 is_stmt 1 view .LVU199
 891:lvgl/lvgl/src/widgets/lv_dropdown.c ****     rect_area.x2 = dropdown->list->coords.x2;
 663              		.loc 1 891 28 is_stmt 0 view .LVU200
 664 0082 6B6A     		ldr	r3, [r5, #36]
 891:lvgl/lvgl/src/widgets/lv_dropdown.c ****     rect_area.x2 = dropdown->list->coords.x2;
 665              		.loc 1 891 42 view .LVU201
 666 0084 B3F91420 		ldrsh	r2, [r3, #20]
 891:lvgl/lvgl/src/widgets/lv_dropdown.c ****     rect_area.x2 = dropdown->list->coords.x2;
 667              		.loc 1 891 18 view .LVU202
 668 0088 ADF83820 		strh	r2, [sp, #56]	@ movhi
 892:lvgl/lvgl/src/widgets/lv_dropdown.c **** 
 669              		.loc 1 892 5 is_stmt 1 view .LVU203
 892:lvgl/lvgl/src/widgets/lv_dropdown.c **** 
 670              		.loc 1 892 42 is_stmt 0 view .LVU204
 671 008c B3F91830 		ldrsh	r3, [r3, #24]
 892:lvgl/lvgl/src/widgets/lv_dropdown.c **** 
 672              		.loc 1 892 18 view .LVU205
 673 0090 ADF83C30 		strh	r3, [sp, #60]	@ movhi
 894:lvgl/lvgl/src/widgets/lv_dropdown.c ****     lv_draw_rect_dsc_init(&sel_rect);
 674              		.loc 1 894 5 is_stmt 1 view .LVU206
 895:lvgl/lvgl/src/widgets/lv_dropdown.c ****     lv_obj_init_draw_rect_dsc(list_obj,  LV_PART_SELECTED, &sel_rect);
 675              		.loc 1 895 5 view .LVU207
 676 0094 01A8     		add	r0, sp, #4
 677              	.LVL72:
 895:lvgl/lvgl/src/widgets/lv_dropdown.c ****     lv_obj_init_draw_rect_dsc(list_obj,  LV_PART_SELECTED, &sel_rect);
 678              		.loc 1 895 5 is_stmt 0 view .LVU208
 679 0096 FFF7FEFF 		bl	lv_draw_rect_dsc_init
 680              	.LVL73:
 896:lvgl/lvgl/src/widgets/lv_dropdown.c ****     lv_draw_rect(&rect_area, clip_area, &sel_rect);
 681              		.loc 1 896 5 is_stmt 1 view .LVU209
 682 009a 01AA     		add	r2, sp, #4
 683 009c 4FF48021 		mov	r1, #262144
 684 00a0 2046     		mov	r0, r4
 685 00a2 FFF7FEFF 		bl	lv_obj_init_draw_rect_dsc
 686              	.LVL74:
 897:lvgl/lvgl/src/widgets/lv_dropdown.c **** 
 687              		.loc 1 897 5 view .LVU210
 688 00a6 01AA     		add	r2, sp, #4
 689 00a8 3146     		mov	r1, r6
 690 00aa 0EA8     		add	r0, sp, #56
ARM GAS  C:\Users\gx\AppData\Local\Temp\ccIqfrB9.s 			page 43


 691 00ac FFF7FEFF 		bl	lv_draw_rect
 692              	.LVL75:
 899:lvgl/lvgl/src/widgets/lv_dropdown.c ****     list_obj->skip_trans = 0;
 693              		.loc 1 899 5 view .LVU211
 899:lvgl/lvgl/src/widgets/lv_dropdown.c ****     list_obj->skip_trans = 0;
 694              		.loc 1 899 21 is_stmt 0 view .LVU212
 695 00b0 2784     		strh	r7, [r4, #32]	@ movhi
 900:lvgl/lvgl/src/widgets/lv_dropdown.c **** }
 696              		.loc 1 900 5 is_stmt 1 view .LVU213
 900:lvgl/lvgl/src/widgets/lv_dropdown.c **** }
 697              		.loc 1 900 26 is_stmt 0 view .LVU214
 698 00b2 94F82230 		ldrb	r3, [r4, #34]	@ zero_extendqisi2
 699 00b6 6FF38203 		bfc	r3, #2, #1
 700 00ba 84F82230 		strb	r3, [r4, #34]
 701              	.LVL76:
 702              	.L25:
 901:lvgl/lvgl/src/widgets/lv_dropdown.c **** 
 703              		.loc 1 901 1 view .LVU215
 704 00be 11B0     		add	sp, sp, #68
 705              	.LCFI10:
 706              		.cfi_def_cfa_offset 36
 707              		@ sp needed
 708 00c0 BDE8F08F 		pop	{r4, r5, r6, r7, r8, r9, r10, fp, pc}
 901:lvgl/lvgl/src/widgets/lv_dropdown.c **** 
 709              		.loc 1 901 1 view .LVU216
 710              		.cfi_endproc
 711              	.LFE188:
 713              		.section	.text.draw_box_label,"ax",%progbits
 714              		.align	1
 715              		.syntax unified
 716              		.thumb
 717              		.thumb_func
 718              		.fpu fpv4-sp-d16
 720              	draw_box_label:
 721              	.LVL77:
 722              	.LFB189:
 904:lvgl/lvgl/src/widgets/lv_dropdown.c ****     if(id == LV_DROPDOWN_PR_NONE) return;
 723              		.loc 1 904 1 is_stmt 1 view -0
 724              		.cfi_startproc
 725              		@ args = 0, pretend = 0, frame = 48
 726              		@ frame_needed = 0, uses_anonymous_args = 0
 904:lvgl/lvgl/src/widgets/lv_dropdown.c ****     if(id == LV_DROPDOWN_PR_NONE) return;
 727              		.loc 1 904 1 is_stmt 0 view .LVU218
 728 0000 2DE9F041 		push	{r4, r5, r6, r7, r8, lr}
 729              	.LCFI11:
 730              		.cfi_def_cfa_offset 24
 731              		.cfi_offset 4, -24
 732              		.cfi_offset 5, -20
 733              		.cfi_offset 6, -16
 734              		.cfi_offset 7, -12
 735              		.cfi_offset 8, -8
 736              		.cfi_offset 14, -4
 737 0004 8EB0     		sub	sp, sp, #56
 738              	.LCFI12:
 739              		.cfi_def_cfa_offset 80
 740 0006 9046     		mov	r8, r2
 905:lvgl/lvgl/src/widgets/lv_dropdown.c **** 
ARM GAS  C:\Users\gx\AppData\Local\Temp\ccIqfrB9.s 			page 44


 741              		.loc 1 905 5 is_stmt 1 view .LVU219
 905:lvgl/lvgl/src/widgets/lv_dropdown.c **** 
 742              		.loc 1 905 7 is_stmt 0 view .LVU220
 743 0008 4FF6FF72 		movw	r2, #65535
 744              	.LVL78:
 905:lvgl/lvgl/src/widgets/lv_dropdown.c **** 
 745              		.loc 1 905 7 view .LVU221
 746 000c 9045     		cmp	r8, r2
 747 000e 53D0     		beq	.L30
 748 0010 0746     		mov	r7, r0
 749 0012 0D46     		mov	r5, r1
 907:lvgl/lvgl/src/widgets/lv_dropdown.c ****     lv_obj_t * list_obj = dropdown->list;
 750              		.loc 1 907 5 is_stmt 1 view .LVU222
 751              	.LVL79:
 908:lvgl/lvgl/src/widgets/lv_dropdown.c ****     lv_state_t state_orig = list_obj->state;
 752              		.loc 1 908 5 view .LVU223
 908:lvgl/lvgl/src/widgets/lv_dropdown.c ****     lv_state_t state_orig = list_obj->state;
 753              		.loc 1 908 16 is_stmt 0 view .LVU224
 754 0014 446A     		ldr	r4, [r0, #36]
 755              	.LVL80:
 909:lvgl/lvgl/src/widgets/lv_dropdown.c **** 
 756              		.loc 1 909 5 is_stmt 1 view .LVU225
 909:lvgl/lvgl/src/widgets/lv_dropdown.c **** 
 757              		.loc 1 909 16 is_stmt 0 view .LVU226
 758 0016 268C     		ldrh	r6, [r4, #32]
 759              	.LVL81:
 911:lvgl/lvgl/src/widgets/lv_dropdown.c ****         list_obj->state =  state;
 760              		.loc 1 911 5 is_stmt 1 view .LVU227
 911:lvgl/lvgl/src/widgets/lv_dropdown.c ****         list_obj->state =  state;
 761              		.loc 1 911 7 is_stmt 0 view .LVU228
 762 0018 9E42     		cmp	r6, r3
 763 001a 06D0     		beq	.L32
 912:lvgl/lvgl/src/widgets/lv_dropdown.c ****         list_obj->skip_trans = 1;
 764              		.loc 1 912 9 is_stmt 1 view .LVU229
 912:lvgl/lvgl/src/widgets/lv_dropdown.c ****         list_obj->skip_trans = 1;
 765              		.loc 1 912 25 is_stmt 0 view .LVU230
 766 001c 2384     		strh	r3, [r4, #32]	@ movhi
 913:lvgl/lvgl/src/widgets/lv_dropdown.c ****     }
 767              		.loc 1 913 9 is_stmt 1 view .LVU231
 913:lvgl/lvgl/src/widgets/lv_dropdown.c ****     }
 768              		.loc 1 913 30 is_stmt 0 view .LVU232
 769 001e 94F82230 		ldrb	r3, [r4, #34]	@ zero_extendqisi2
 770              	.LVL82:
 913:lvgl/lvgl/src/widgets/lv_dropdown.c ****     }
 771              		.loc 1 913 30 view .LVU233
 772 0022 43F00403 		orr	r3, r3, #4
 773 0026 84F82230 		strb	r3, [r4, #34]
 774              	.LVL83:
 775              	.L32:
 916:lvgl/lvgl/src/widgets/lv_dropdown.c ****     lv_draw_label_dsc_init(&label_dsc);
 776              		.loc 1 916 5 is_stmt 1 view .LVU234
 917:lvgl/lvgl/src/widgets/lv_dropdown.c ****     lv_obj_init_draw_label_dsc(list_obj, LV_PART_SELECTED, &label_dsc);
 777              		.loc 1 917 5 view .LVU235
 778 002a 06A8     		add	r0, sp, #24
 779              	.LVL84:
 917:lvgl/lvgl/src/widgets/lv_dropdown.c ****     lv_obj_init_draw_label_dsc(list_obj, LV_PART_SELECTED, &label_dsc);
 780              		.loc 1 917 5 is_stmt 0 view .LVU236
ARM GAS  C:\Users\gx\AppData\Local\Temp\ccIqfrB9.s 			page 45


 781 002c FFF7FEFF 		bl	lv_draw_label_dsc_init
 782              	.LVL85:
 918:lvgl/lvgl/src/widgets/lv_dropdown.c **** 
 783              		.loc 1 918 5 is_stmt 1 view .LVU237
 784 0030 06AA     		add	r2, sp, #24
 785 0032 4FF48021 		mov	r1, #262144
 786 0036 2046     		mov	r0, r4
 787 0038 FFF7FEFF 		bl	lv_obj_init_draw_label_dsc
 788              	.LVL86:
 920:lvgl/lvgl/src/widgets/lv_dropdown.c **** 
 789              		.loc 1 920 5 view .LVU238
 790              	.LBB76:
 791              	.LBI76:
 343:lvgl/lvgl/src/widgets/../core/lv_obj_style_gen.h **** {
 792              		.loc 2 343 26 view .LVU239
 793              	.LBB77:
 345:lvgl/lvgl/src/widgets/../core/lv_obj_style_gen.h ****     return (lv_coord_t)v.num;
 794              		.loc 2 345 5 view .LVU240
 345:lvgl/lvgl/src/widgets/../core/lv_obj_style_gen.h ****     return (lv_coord_t)v.num;
 795              		.loc 2 345 26 is_stmt 0 view .LVU241
 796 003c 41F25B42 		movw	r2, #5211
 797 0040 4FF48021 		mov	r1, #262144
 798 0044 2046     		mov	r0, r4
 799 0046 FFF7FEFF 		bl	lv_obj_get_style_prop
 800              	.LVL87:
 801              		.loc 2 346 5 is_stmt 1 view .LVU242
 802              		.loc 2 346 5 is_stmt 0 view .LVU243
 803              	.LBE77:
 804              	.LBE76:
 920:lvgl/lvgl/src/widgets/lv_dropdown.c **** 
 805              		.loc 1 920 26 view .LVU244
 806 004a ADF82A00 		strh	r0, [sp, #42]	@ movhi
 922:lvgl/lvgl/src/widgets/lv_dropdown.c ****     if(label == NULL) return;
 807              		.loc 1 922 5 is_stmt 1 view .LVU245
 922:lvgl/lvgl/src/widgets/lv_dropdown.c ****     if(label == NULL) return;
 808              		.loc 1 922 24 is_stmt 0 view .LVU246
 809 004e 3846     		mov	r0, r7
 810 0050 FFF7FEFF 		bl	get_label
 811              	.LVL88:
 923:lvgl/lvgl/src/widgets/lv_dropdown.c **** 
 812              		.loc 1 923 5 is_stmt 1 view .LVU247
 923:lvgl/lvgl/src/widgets/lv_dropdown.c **** 
 813              		.loc 1 923 7 is_stmt 0 view .LVU248
 814 0054 0746     		mov	r7, r0
 815              	.LVL89:
 923:lvgl/lvgl/src/widgets/lv_dropdown.c **** 
 816              		.loc 1 923 7 view .LVU249
 817 0056 78B3     		cbz	r0, .L30
 925:lvgl/lvgl/src/widgets/lv_dropdown.c **** 
 818              		.loc 1 925 5 is_stmt 1 view .LVU250
 925:lvgl/lvgl/src/widgets/lv_dropdown.c **** 
 819              		.loc 1 925 32 is_stmt 0 view .LVU251
 820 0058 069B     		ldr	r3, [sp, #24]
 821              	.LVL90:
 822              	.LBB78:
 823              	.LBI78:
 118:d:\practise\f407_disc\lvgl\lvgl\src\font\lv_font.h **** {
ARM GAS  C:\Users\gx\AppData\Local\Temp\ccIqfrB9.s 			page 46


 824              		.loc 3 118 26 is_stmt 1 view .LVU252
 825              	.LBB79:
 826              		.loc 3 120 5 view .LVU253
 827              		.loc 3 120 18 is_stmt 0 view .LVU254
 828 005a B3F908C0 		ldrsh	ip, [r3, #8]
 829              	.LVL91:
 830              		.loc 3 120 18 view .LVU255
 831              	.LBE79:
 832              	.LBE78:
 927:lvgl/lvgl/src/widgets/lv_dropdown.c ****     area_sel.y1 = label->coords.y1;
 833              		.loc 1 927 5 is_stmt 1 view .LVU256
 928:lvgl/lvgl/src/widgets/lv_dropdown.c ****     area_sel.y1 += id * (font_h + label_dsc.line_space);
 834              		.loc 1 928 5 view .LVU257
 928:lvgl/lvgl/src/widgets/lv_dropdown.c ****     area_sel.y1 += id * (font_h + label_dsc.line_space);
 835              		.loc 1 928 32 is_stmt 0 view .LVU258
 836 005e B0F91620 		ldrsh	r2, [r0, #22]
 929:lvgl/lvgl/src/widgets/lv_dropdown.c ****     area_sel.y1 -= label_dsc.line_space / 2;
 837              		.loc 1 929 5 is_stmt 1 view .LVU259
 929:lvgl/lvgl/src/widgets/lv_dropdown.c ****     area_sel.y1 -= label_dsc.line_space / 2;
 838              		.loc 1 929 44 is_stmt 0 view .LVU260
 839 0062 BDF92A00 		ldrsh	r0, [sp, #42]
 840              	.LVL92:
 929:lvgl/lvgl/src/widgets/lv_dropdown.c ****     area_sel.y1 -= label_dsc.line_space / 2;
 841              		.loc 1 929 33 view .LVU261
 842 0066 0CEB0001 		add	r1, ip, r0
 929:lvgl/lvgl/src/widgets/lv_dropdown.c ****     area_sel.y1 -= label_dsc.line_space / 2;
 843              		.loc 1 929 17 view .LVU262
 844 006a 11FB0822 		smlabb	r2, r1, r8, r2
 845 006e 92B2     		uxth	r2, r2
 930:lvgl/lvgl/src/widgets/lv_dropdown.c **** 
 846              		.loc 1 930 5 is_stmt 1 view .LVU263
 930:lvgl/lvgl/src/widgets/lv_dropdown.c **** 
 847              		.loc 1 930 17 is_stmt 0 view .LVU264
 848 0070 00EBD073 		add	r3, r0, r0, lsr #31
 849 0074 A2EB6302 		sub	r2, r2, r3, asr #1
 850 0078 93B2     		uxth	r3, r2
 851 007a ADF81230 		strh	r3, [sp, #18]	@ movhi
 932:lvgl/lvgl/src/widgets/lv_dropdown.c ****     area_sel.x1 = list_obj->coords.x1;
 852              		.loc 1 932 5 is_stmt 1 view .LVU265
 932:lvgl/lvgl/src/widgets/lv_dropdown.c ****     area_sel.x1 = list_obj->coords.x1;
 853              		.loc 1 932 31 is_stmt 0 view .LVU266
 854 007e 6344     		add	r3, r3, ip
 932:lvgl/lvgl/src/widgets/lv_dropdown.c ****     area_sel.x1 = list_obj->coords.x1;
 855              		.loc 1 932 51 view .LVU267
 856 0080 80B2     		uxth	r0, r0
 932:lvgl/lvgl/src/widgets/lv_dropdown.c ****     area_sel.x1 = list_obj->coords.x1;
 857              		.loc 1 932 40 view .LVU268
 858 0082 10FA83F3 		uxtah	r3, r0, r3
 859 0086 9BB2     		uxth	r3, r3
 932:lvgl/lvgl/src/widgets/lv_dropdown.c ****     area_sel.x1 = list_obj->coords.x1;
 860              		.loc 1 932 63 view .LVU269
 861 0088 013B     		subs	r3, r3, #1
 932:lvgl/lvgl/src/widgets/lv_dropdown.c ****     area_sel.x1 = list_obj->coords.x1;
 862              		.loc 1 932 17 view .LVU270
 863 008a ADF81630 		strh	r3, [sp, #22]	@ movhi
 933:lvgl/lvgl/src/widgets/lv_dropdown.c ****     area_sel.x2 = list_obj->coords.x2;
 864              		.loc 1 933 5 is_stmt 1 view .LVU271
ARM GAS  C:\Users\gx\AppData\Local\Temp\ccIqfrB9.s 			page 47


 933:lvgl/lvgl/src/widgets/lv_dropdown.c ****     area_sel.x2 = list_obj->coords.x2;
 865              		.loc 1 933 35 is_stmt 0 view .LVU272
 866 008e B4F91430 		ldrsh	r3, [r4, #20]
 933:lvgl/lvgl/src/widgets/lv_dropdown.c ****     area_sel.x2 = list_obj->coords.x2;
 867              		.loc 1 933 17 view .LVU273
 868 0092 ADF81030 		strh	r3, [sp, #16]	@ movhi
 934:lvgl/lvgl/src/widgets/lv_dropdown.c ****     lv_area_t mask_sel;
 869              		.loc 1 934 5 is_stmt 1 view .LVU274
 934:lvgl/lvgl/src/widgets/lv_dropdown.c ****     lv_area_t mask_sel;
 870              		.loc 1 934 35 is_stmt 0 view .LVU275
 871 0096 B4F91830 		ldrsh	r3, [r4, #24]
 934:lvgl/lvgl/src/widgets/lv_dropdown.c ****     lv_area_t mask_sel;
 872              		.loc 1 934 17 view .LVU276
 873 009a ADF81430 		strh	r3, [sp, #20]	@ movhi
 935:lvgl/lvgl/src/widgets/lv_dropdown.c ****     bool area_ok;
 874              		.loc 1 935 5 is_stmt 1 view .LVU277
 936:lvgl/lvgl/src/widgets/lv_dropdown.c ****     area_ok = _lv_area_intersect(&mask_sel, clip_area, &area_sel);
 875              		.loc 1 936 5 view .LVU278
 937:lvgl/lvgl/src/widgets/lv_dropdown.c ****     if(area_ok) {
 876              		.loc 1 937 5 view .LVU279
 937:lvgl/lvgl/src/widgets/lv_dropdown.c ****     if(area_ok) {
 877              		.loc 1 937 15 is_stmt 0 view .LVU280
 878 009e 04AA     		add	r2, sp, #16
 879 00a0 2946     		mov	r1, r5
 880 00a2 02A8     		add	r0, sp, #8
 881 00a4 FFF7FEFF 		bl	_lv_area_intersect
 882              	.LVL93:
 938:lvgl/lvgl/src/widgets/lv_dropdown.c ****         lv_draw_label(&label->coords, &mask_sel, &label_dsc, lv_label_get_text(label), NULL);
 883              		.loc 1 938 5 is_stmt 1 view .LVU281
 938:lvgl/lvgl/src/widgets/lv_dropdown.c ****         lv_draw_label(&label->coords, &mask_sel, &label_dsc, lv_label_get_text(label), NULL);
 884              		.loc 1 938 7 is_stmt 0 view .LVU282
 885 00a8 48B9     		cbnz	r0, .L36
 886              	.LVL94:
 887              	.L33:
 941:lvgl/lvgl/src/widgets/lv_dropdown.c ****     list_obj->skip_trans = 0;
 888              		.loc 1 941 5 is_stmt 1 view .LVU283
 941:lvgl/lvgl/src/widgets/lv_dropdown.c ****     list_obj->skip_trans = 0;
 889              		.loc 1 941 21 is_stmt 0 view .LVU284
 890 00aa 2684     		strh	r6, [r4, #32]	@ movhi
 942:lvgl/lvgl/src/widgets/lv_dropdown.c **** }
 891              		.loc 1 942 5 is_stmt 1 view .LVU285
 942:lvgl/lvgl/src/widgets/lv_dropdown.c **** }
 892              		.loc 1 942 26 is_stmt 0 view .LVU286
 893 00ac 94F82230 		ldrb	r3, [r4, #34]	@ zero_extendqisi2
 894 00b0 6FF38203 		bfc	r3, #2, #1
 895 00b4 84F82230 		strb	r3, [r4, #34]
 896              	.LVL95:
 897              	.L30:
 943:lvgl/lvgl/src/widgets/lv_dropdown.c **** 
 898              		.loc 1 943 1 view .LVU287
 899 00b8 0EB0     		add	sp, sp, #56
 900              	.LCFI13:
 901              		.cfi_remember_state
 902              		.cfi_def_cfa_offset 24
 903              		@ sp needed
 904 00ba BDE8F081 		pop	{r4, r5, r6, r7, r8, pc}
 905              	.LVL96:
ARM GAS  C:\Users\gx\AppData\Local\Temp\ccIqfrB9.s 			page 48


 906              	.L36:
 907              	.LCFI14:
 908              		.cfi_restore_state
 939:lvgl/lvgl/src/widgets/lv_dropdown.c ****     }
 909              		.loc 1 939 9 is_stmt 1 view .LVU288
 939:lvgl/lvgl/src/widgets/lv_dropdown.c ****     }
 910              		.loc 1 939 23 is_stmt 0 view .LVU289
 911 00be 07F11405 		add	r5, r7, #20
 912              	.LVL97:
 939:lvgl/lvgl/src/widgets/lv_dropdown.c ****     }
 913              		.loc 1 939 62 view .LVU290
 914 00c2 3846     		mov	r0, r7
 915              	.LVL98:
 939:lvgl/lvgl/src/widgets/lv_dropdown.c ****     }
 916              		.loc 1 939 62 view .LVU291
 917 00c4 FFF7FEFF 		bl	lv_label_get_text
 918              	.LVL99:
 919 00c8 0346     		mov	r3, r0
 939:lvgl/lvgl/src/widgets/lv_dropdown.c ****     }
 920              		.loc 1 939 9 view .LVU292
 921 00ca 0022     		movs	r2, #0
 922 00cc 0092     		str	r2, [sp]
 923 00ce 06AA     		add	r2, sp, #24
 924 00d0 02A9     		add	r1, sp, #8
 925 00d2 2846     		mov	r0, r5
 926 00d4 FFF7FEFF 		bl	lv_draw_label
 927              	.LVL100:
 928 00d8 E7E7     		b	.L33
 929              		.cfi_endproc
 930              	.LFE189:
 932              		.section	.text.draw_list,"ax",%progbits
 933              		.align	1
 934              		.syntax unified
 935              		.thumb
 936              		.thumb_func
 937              		.fpu fpv4-sp-d16
 939              	draw_list:
 940              	.LVL101:
 941              	.LFB187:
 832:lvgl/lvgl/src/widgets/lv_dropdown.c ****     lv_obj_t * list_obj = lv_event_get_target(e);
 942              		.loc 1 832 1 is_stmt 1 view -0
 943              		.cfi_startproc
 944              		@ args = 0, pretend = 0, frame = 8
 945              		@ frame_needed = 0, uses_anonymous_args = 0
 832:lvgl/lvgl/src/widgets/lv_dropdown.c ****     lv_obj_t * list_obj = lv_event_get_target(e);
 946              		.loc 1 832 1 is_stmt 0 view .LVU294
 947 0000 30B5     		push	{r4, r5, lr}
 948              	.LCFI15:
 949              		.cfi_def_cfa_offset 12
 950              		.cfi_offset 4, -12
 951              		.cfi_offset 5, -8
 952              		.cfi_offset 14, -4
 953 0002 83B0     		sub	sp, sp, #12
 954              	.LCFI16:
 955              		.cfi_def_cfa_offset 24
 956 0004 0446     		mov	r4, r0
 833:lvgl/lvgl/src/widgets/lv_dropdown.c ****     lv_dropdown_list_t * list = (lv_dropdown_list_t *)list_obj;
ARM GAS  C:\Users\gx\AppData\Local\Temp\ccIqfrB9.s 			page 49


 957              		.loc 1 833 5 is_stmt 1 view .LVU295
 833:lvgl/lvgl/src/widgets/lv_dropdown.c ****     lv_dropdown_list_t * list = (lv_dropdown_list_t *)list_obj;
 958              		.loc 1 833 27 is_stmt 0 view .LVU296
 959 0006 FFF7FEFF 		bl	lv_event_get_target
 960              	.LVL102:
 834:lvgl/lvgl/src/widgets/lv_dropdown.c ****     lv_obj_t * dropdown_obj = list->dropdown;
 961              		.loc 1 834 5 is_stmt 1 view .LVU297
 835:lvgl/lvgl/src/widgets/lv_dropdown.c ****     lv_dropdown_t * dropdown = (lv_dropdown_t *)dropdown_obj;
 962              		.loc 1 835 5 view .LVU298
 835:lvgl/lvgl/src/widgets/lv_dropdown.c ****     lv_dropdown_t * dropdown = (lv_dropdown_t *)dropdown_obj;
 963              		.loc 1 835 16 is_stmt 0 view .LVU299
 964 000a 456A     		ldr	r5, [r0, #36]
 965              	.LVL103:
 836:lvgl/lvgl/src/widgets/lv_dropdown.c ****     const lv_area_t * clip_area = lv_event_get_param(e);
 966              		.loc 1 836 5 is_stmt 1 view .LVU300
 837:lvgl/lvgl/src/widgets/lv_dropdown.c **** 
 967              		.loc 1 837 5 view .LVU301
 837:lvgl/lvgl/src/widgets/lv_dropdown.c **** 
 968              		.loc 1 837 35 is_stmt 0 view .LVU302
 969 000c 2046     		mov	r0, r4
 970              	.LVL104:
 837:lvgl/lvgl/src/widgets/lv_dropdown.c **** 
 971              		.loc 1 837 35 view .LVU303
 972 000e FFF7FEFF 		bl	lv_event_get_param
 973              	.LVL105:
 840:lvgl/lvgl/src/widgets/lv_dropdown.c ****         /* Clip area might be too large too to shadow but
 974              		.loc 1 840 5 is_stmt 1 view .LVU304
 840:lvgl/lvgl/src/widgets/lv_dropdown.c ****         /* Clip area might be too large too to shadow but
 975              		.loc 1 840 16 is_stmt 0 view .LVU305
 976 0012 6A6A     		ldr	r2, [r5, #36]
 840:lvgl/lvgl/src/widgets/lv_dropdown.c ****         /* Clip area might be too large too to shadow but
 977              		.loc 1 840 7 view .LVU306
 978 0014 2AB3     		cbz	r2, .L37
 979 0016 0146     		mov	r1, r0
 980              	.LBB80:
 843:lvgl/lvgl/src/widgets/lv_dropdown.c ****         bool has_common;
 981              		.loc 1 843 9 is_stmt 1 view .LVU307
 844:lvgl/lvgl/src/widgets/lv_dropdown.c ****         has_common = _lv_area_intersect(&clip_area_core, clip_area, &dropdown->list->coords);
 982              		.loc 1 844 9 view .LVU308
 845:lvgl/lvgl/src/widgets/lv_dropdown.c ****         if(has_common) {
 983              		.loc 1 845 9 view .LVU309
 845:lvgl/lvgl/src/widgets/lv_dropdown.c ****         if(has_common) {
 984              		.loc 1 845 22 is_stmt 0 view .LVU310
 985 0018 1432     		adds	r2, r2, #20
 986 001a 6846     		mov	r0, sp
 987              	.LVL106:
 845:lvgl/lvgl/src/widgets/lv_dropdown.c ****         if(has_common) {
 988              		.loc 1 845 22 view .LVU311
 989 001c FFF7FEFF 		bl	_lv_area_intersect
 990              	.LVL107:
 846:lvgl/lvgl/src/widgets/lv_dropdown.c ****             if(dropdown->selected_highlight) {
 991              		.loc 1 846 9 is_stmt 1 view .LVU312
 846:lvgl/lvgl/src/widgets/lv_dropdown.c ****             if(dropdown->selected_highlight) {
 992              		.loc 1 846 11 is_stmt 0 view .LVU313
 993 0020 F8B1     		cbz	r0, .L37
 847:lvgl/lvgl/src/widgets/lv_dropdown.c ****                 if(dropdown->pr_opt_id == dropdown->sel_opt_id) {
 994              		.loc 1 847 13 is_stmt 1 view .LVU314
ARM GAS  C:\Users\gx\AppData\Local\Temp\ccIqfrB9.s 			page 50


 847:lvgl/lvgl/src/widgets/lv_dropdown.c ****                 if(dropdown->pr_opt_id == dropdown->sel_opt_id) {
 995              		.loc 1 847 16 is_stmt 0 view .LVU315
 996 0022 95F83C30 		ldrb	r3, [r5, #60]	@ zero_extendqisi2
 847:lvgl/lvgl/src/widgets/lv_dropdown.c ****                 if(dropdown->pr_opt_id == dropdown->sel_opt_id) {
 997              		.loc 1 847 15 view .LVU316
 998 0026 13F0200F 		tst	r3, #32
 999 002a 28D0     		beq	.L40
 848:lvgl/lvgl/src/widgets/lv_dropdown.c ****                     draw_box(dropdown_obj, &clip_area_core, dropdown->pr_opt_id, LV_STATE_CHECKED |
 1000              		.loc 1 848 17 is_stmt 1 view .LVU317
 848:lvgl/lvgl/src/widgets/lv_dropdown.c ****                     draw_box(dropdown_obj, &clip_area_core, dropdown->pr_opt_id, LV_STATE_CHECKED |
 1001              		.loc 1 848 28 is_stmt 0 view .LVU318
 1002 002c 6A8F     		ldrh	r2, [r5, #58]
 848:lvgl/lvgl/src/widgets/lv_dropdown.c ****                     draw_box(dropdown_obj, &clip_area_core, dropdown->pr_opt_id, LV_STATE_CHECKED |
 1003              		.loc 1 848 51 view .LVU319
 1004 002e EB8E     		ldrh	r3, [r5, #54]
 848:lvgl/lvgl/src/widgets/lv_dropdown.c ****                     draw_box(dropdown_obj, &clip_area_core, dropdown->pr_opt_id, LV_STATE_CHECKED |
 1005              		.loc 1 848 19 view .LVU320
 1006 0030 9A42     		cmp	r2, r3
 1007 0032 18D0     		beq	.L43
 852:lvgl/lvgl/src/widgets/lv_dropdown.c ****                     draw_box_label(dropdown_obj, &clip_area_core, dropdown->pr_opt_id, LV_STATE_PRE
 1008              		.loc 1 852 21 is_stmt 1 view .LVU321
 1009 0034 2023     		movs	r3, #32
 1010 0036 6946     		mov	r1, sp
 1011 0038 2846     		mov	r0, r5
 1012              	.LVL108:
 852:lvgl/lvgl/src/widgets/lv_dropdown.c ****                     draw_box_label(dropdown_obj, &clip_area_core, dropdown->pr_opt_id, LV_STATE_PRE
 1013              		.loc 1 852 21 is_stmt 0 view .LVU322
 1014 003a FFF7FEFF 		bl	draw_box
 1015              	.LVL109:
 853:lvgl/lvgl/src/widgets/lv_dropdown.c ****                     draw_box(dropdown_obj, &clip_area_core, dropdown->sel_opt_id, LV_STATE_CHECKED)
 1016              		.loc 1 853 21 is_stmt 1 view .LVU323
 1017 003e 2023     		movs	r3, #32
 1018 0040 6A8F     		ldrh	r2, [r5, #58]
 1019 0042 6946     		mov	r1, sp
 1020 0044 2846     		mov	r0, r5
 1021 0046 FFF7FEFF 		bl	draw_box_label
 1022              	.LVL110:
 854:lvgl/lvgl/src/widgets/lv_dropdown.c ****                     draw_box_label(dropdown_obj, &clip_area_core, dropdown->sel_opt_id, LV_STATE_CH
 1023              		.loc 1 854 21 view .LVU324
 1024 004a 0123     		movs	r3, #1
 1025 004c EA8E     		ldrh	r2, [r5, #54]
 1026 004e 6946     		mov	r1, sp
 1027 0050 2846     		mov	r0, r5
 1028 0052 FFF7FEFF 		bl	draw_box
 1029              	.LVL111:
 855:lvgl/lvgl/src/widgets/lv_dropdown.c ****                 }
 1030              		.loc 1 855 21 view .LVU325
 1031 0056 0123     		movs	r3, #1
 1032 0058 EA8E     		ldrh	r2, [r5, #54]
 1033 005a 6946     		mov	r1, sp
 1034 005c 2846     		mov	r0, r5
 1035 005e FFF7FEFF 		bl	draw_box_label
 1036              	.LVL112:
 1037              	.L37:
 855:lvgl/lvgl/src/widgets/lv_dropdown.c ****                 }
 1038              		.loc 1 855 21 is_stmt 0 view .LVU326
 1039              	.LBE80:
ARM GAS  C:\Users\gx\AppData\Local\Temp\ccIqfrB9.s 			page 51


 863:lvgl/lvgl/src/widgets/lv_dropdown.c **** 
 1040              		.loc 1 863 1 view .LVU327
 1041 0062 03B0     		add	sp, sp, #12
 1042              	.LCFI17:
 1043              		.cfi_remember_state
 1044              		.cfi_def_cfa_offset 12
 1045              		@ sp needed
 1046 0064 30BD     		pop	{r4, r5, pc}
 1047              	.LVL113:
 1048              	.L43:
 1049              	.LCFI18:
 1050              		.cfi_restore_state
 1051              	.LBB81:
 849:lvgl/lvgl/src/widgets/lv_dropdown.c ****                     draw_box_label(dropdown_obj, &clip_area_core, dropdown->pr_opt_id, LV_STATE_CHE
 1052              		.loc 1 849 21 is_stmt 1 view .LVU328
 1053 0066 2123     		movs	r3, #33
 1054 0068 6946     		mov	r1, sp
 1055 006a 2846     		mov	r0, r5
 1056              	.LVL114:
 849:lvgl/lvgl/src/widgets/lv_dropdown.c ****                     draw_box_label(dropdown_obj, &clip_area_core, dropdown->pr_opt_id, LV_STATE_CHE
 1057              		.loc 1 849 21 is_stmt 0 view .LVU329
 1058 006c FFF7FEFF 		bl	draw_box
 1059              	.LVL115:
 850:lvgl/lvgl/src/widgets/lv_dropdown.c ****                 } else {
 1060              		.loc 1 850 21 is_stmt 1 view .LVU330
 1061 0070 2123     		movs	r3, #33
 1062 0072 6A8F     		ldrh	r2, [r5, #58]
 1063 0074 6946     		mov	r1, sp
 1064 0076 2846     		mov	r0, r5
 1065 0078 FFF7FEFF 		bl	draw_box_label
 1066              	.LVL116:
 1067 007c F1E7     		b	.L37
 1068              	.LVL117:
 1069              	.L40:
 858:lvgl/lvgl/src/widgets/lv_dropdown.c ****                 draw_box_label(dropdown_obj, &clip_area_core, dropdown->pr_opt_id, LV_STATE_PRESSED
 1070              		.loc 1 858 17 view .LVU331
 1071 007e 2023     		movs	r3, #32
 1072 0080 6A8F     		ldrh	r2, [r5, #58]
 1073 0082 6946     		mov	r1, sp
 1074 0084 2846     		mov	r0, r5
 1075              	.LVL118:
 858:lvgl/lvgl/src/widgets/lv_dropdown.c ****                 draw_box_label(dropdown_obj, &clip_area_core, dropdown->pr_opt_id, LV_STATE_PRESSED
 1076              		.loc 1 858 17 is_stmt 0 view .LVU332
 1077 0086 FFF7FEFF 		bl	draw_box
 1078              	.LVL119:
 859:lvgl/lvgl/src/widgets/lv_dropdown.c ****             }
 1079              		.loc 1 859 17 is_stmt 1 view .LVU333
 1080 008a 2023     		movs	r3, #32
 1081 008c 6A8F     		ldrh	r2, [r5, #58]
 1082 008e 6946     		mov	r1, sp
 1083 0090 2846     		mov	r0, r5
 1084 0092 FFF7FEFF 		bl	draw_box_label
 1085              	.LVL120:
 1086              	.LBE81:
 863:lvgl/lvgl/src/widgets/lv_dropdown.c **** 
 1087              		.loc 1 863 1 is_stmt 0 view .LVU334
 1088 0096 E4E7     		b	.L37
ARM GAS  C:\Users\gx\AppData\Local\Temp\ccIqfrB9.s 			page 52


 1089              		.cfi_endproc
 1090              	.LFE187:
 1092              		.section	.text.lv_dropdownlist_constructor,"ax",%progbits
 1093              		.align	1
 1094              		.syntax unified
 1095              		.thumb
 1096              		.thumb_func
 1097              		.fpu fpv4-sp-d16
 1099              	lv_dropdownlist_constructor:
 1100              	.LVL121:
 1101              	.LFB182:
 579:lvgl/lvgl/src/widgets/lv_dropdown.c ****     LV_UNUSED(class_p);
 1102              		.loc 1 579 1 is_stmt 1 view -0
 1103              		.cfi_startproc
 1104              		@ args = 0, pretend = 0, frame = 0
 1105              		@ frame_needed = 0, uses_anonymous_args = 0
 579:lvgl/lvgl/src/widgets/lv_dropdown.c ****     LV_UNUSED(class_p);
 1106              		.loc 1 579 1 is_stmt 0 view .LVU336
 1107 0000 10B5     		push	{r4, lr}
 1108              	.LCFI19:
 1109              		.cfi_def_cfa_offset 8
 1110              		.cfi_offset 4, -8
 1111              		.cfi_offset 14, -4
 1112 0002 0C46     		mov	r4, r1
 580:lvgl/lvgl/src/widgets/lv_dropdown.c ****     LV_TRACE_OBJ_CREATE("begin");
 1113              		.loc 1 580 5 is_stmt 1 view .LVU337
 581:lvgl/lvgl/src/widgets/lv_dropdown.c **** 
 1114              		.loc 1 581 5 view .LVU338
 581:lvgl/lvgl/src/widgets/lv_dropdown.c **** 
 1115              		.loc 1 581 5 view .LVU339
 581:lvgl/lvgl/src/widgets/lv_dropdown.c **** 
 1116              		.loc 1 581 5 view .LVU340
 581:lvgl/lvgl/src/widgets/lv_dropdown.c **** 
 1117              		.loc 1 581 33 view .LVU341
 583:lvgl/lvgl/src/widgets/lv_dropdown.c ****     lv_label_create(obj);
 1118              		.loc 1 583 5 view .LVU342
 1119 0004 4FF40071 		mov	r1, #512
 1120              	.LVL122:
 583:lvgl/lvgl/src/widgets/lv_dropdown.c ****     lv_label_create(obj);
 1121              		.loc 1 583 5 is_stmt 0 view .LVU343
 1122 0008 2046     		mov	r0, r4
 1123              	.LVL123:
 583:lvgl/lvgl/src/widgets/lv_dropdown.c ****     lv_label_create(obj);
 1124              		.loc 1 583 5 view .LVU344
 1125 000a FFF7FEFF 		bl	lv_obj_clear_flag
 1126              	.LVL124:
 584:lvgl/lvgl/src/widgets/lv_dropdown.c **** 
 1127              		.loc 1 584 5 is_stmt 1 view .LVU345
 1128 000e 2046     		mov	r0, r4
 1129 0010 FFF7FEFF 		bl	lv_label_create
 1130              	.LVL125:
 586:lvgl/lvgl/src/widgets/lv_dropdown.c **** }
 1131              		.loc 1 586 5 view .LVU346
 586:lvgl/lvgl/src/widgets/lv_dropdown.c **** }
 1132              		.loc 1 586 5 view .LVU347
 586:lvgl/lvgl/src/widgets/lv_dropdown.c **** }
 1133              		.loc 1 586 5 view .LVU348
ARM GAS  C:\Users\gx\AppData\Local\Temp\ccIqfrB9.s 			page 53


 586:lvgl/lvgl/src/widgets/lv_dropdown.c **** }
 1134              		.loc 1 586 36 view .LVU349
 587:lvgl/lvgl/src/widgets/lv_dropdown.c **** 
 1135              		.loc 1 587 1 is_stmt 0 view .LVU350
 1136 0014 10BD     		pop	{r4, pc}
 587:lvgl/lvgl/src/widgets/lv_dropdown.c **** 
 1137              		.loc 1 587 1 view .LVU351
 1138              		.cfi_endproc
 1139              	.LFE182:
 1141              		.section	.text.lv_dropdown_list_create,"ax",%progbits
 1142              		.align	1
 1143              		.syntax unified
 1144              		.thumb
 1145              		.thumb_func
 1146              		.fpu fpv4-sp-d16
 1148              	lv_dropdown_list_create:
 1149              	.LVL126:
 1150              	.LFB179:
 529:lvgl/lvgl/src/widgets/lv_dropdown.c ****     LV_LOG_INFO("begin")
 1151              		.loc 1 529 1 is_stmt 1 view -0
 1152              		.cfi_startproc
 1153              		@ args = 0, pretend = 0, frame = 0
 1154              		@ frame_needed = 0, uses_anonymous_args = 0
 529:lvgl/lvgl/src/widgets/lv_dropdown.c ****     LV_LOG_INFO("begin")
 1155              		.loc 1 529 1 is_stmt 0 view .LVU353
 1156 0000 10B5     		push	{r4, lr}
 1157              	.LCFI20:
 1158              		.cfi_def_cfa_offset 8
 1159              		.cfi_offset 4, -8
 1160              		.cfi_offset 14, -4
 1161 0002 0146     		mov	r1, r0
 530:lvgl/lvgl/src/widgets/lv_dropdown.c ****     lv_obj_t * obj = lv_obj_class_create_obj(&lv_dropdownlist_class, parent);
 1162              		.loc 1 530 5 is_stmt 1 view .LVU354
 530:lvgl/lvgl/src/widgets/lv_dropdown.c ****     lv_obj_t * obj = lv_obj_class_create_obj(&lv_dropdownlist_class, parent);
 1163              		.loc 1 530 5 view .LVU355
 530:lvgl/lvgl/src/widgets/lv_dropdown.c ****     lv_obj_t * obj = lv_obj_class_create_obj(&lv_dropdownlist_class, parent);
 1164              		.loc 1 530 5 view .LVU356
 531:lvgl/lvgl/src/widgets/lv_dropdown.c ****     lv_obj_class_init_obj(obj);
 1165              		.loc 1 531 5 view .LVU357
 531:lvgl/lvgl/src/widgets/lv_dropdown.c ****     lv_obj_class_init_obj(obj);
 1166              		.loc 1 531 22 is_stmt 0 view .LVU358
 1167 0004 0348     		ldr	r0, .L48
 1168              	.LVL127:
 531:lvgl/lvgl/src/widgets/lv_dropdown.c ****     lv_obj_class_init_obj(obj);
 1169              		.loc 1 531 22 view .LVU359
 1170 0006 FFF7FEFF 		bl	lv_obj_class_create_obj
 1171              	.LVL128:
 531:lvgl/lvgl/src/widgets/lv_dropdown.c ****     lv_obj_class_init_obj(obj);
 1172              		.loc 1 531 22 view .LVU360
 1173 000a 0446     		mov	r4, r0
 1174              	.LVL129:
 532:lvgl/lvgl/src/widgets/lv_dropdown.c ****     return obj;
 1175              		.loc 1 532 5 is_stmt 1 view .LVU361
 1176 000c FFF7FEFF 		bl	lv_obj_class_init_obj
 1177              	.LVL130:
 533:lvgl/lvgl/src/widgets/lv_dropdown.c **** }
 1178              		.loc 1 533 5 view .LVU362
ARM GAS  C:\Users\gx\AppData\Local\Temp\ccIqfrB9.s 			page 54


 534:lvgl/lvgl/src/widgets/lv_dropdown.c **** 
 1179              		.loc 1 534 1 is_stmt 0 view .LVU363
 1180 0010 2046     		mov	r0, r4
 1181 0012 10BD     		pop	{r4, pc}
 1182              	.LVL131:
 1183              	.L49:
 534:lvgl/lvgl/src/widgets/lv_dropdown.c **** 
 1184              		.loc 1 534 1 view .LVU364
 1185              		.align	2
 1186              	.L48:
 1187 0014 00000000 		.word	.LANCHOR0
 1188              		.cfi_endproc
 1189              	.LFE179:
 1191              		.section	.text.lv_dropdown_create,"ax",%progbits
 1192              		.align	1
 1193              		.global	lv_dropdown_create
 1194              		.syntax unified
 1195              		.thumb
 1196              		.thumb_func
 1197              		.fpu fpv4-sp-d16
 1199              	lv_dropdown_create:
 1200              	.LVL132:
 1201              	.LFB158:
  92:lvgl/lvgl/src/widgets/lv_dropdown.c ****     LV_LOG_INFO("begin")
 1202              		.loc 1 92 1 is_stmt 1 view -0
 1203              		.cfi_startproc
 1204              		@ args = 0, pretend = 0, frame = 0
 1205              		@ frame_needed = 0, uses_anonymous_args = 0
  92:lvgl/lvgl/src/widgets/lv_dropdown.c ****     LV_LOG_INFO("begin")
 1206              		.loc 1 92 1 is_stmt 0 view .LVU366
 1207 0000 10B5     		push	{r4, lr}
 1208              	.LCFI21:
 1209              		.cfi_def_cfa_offset 8
 1210              		.cfi_offset 4, -8
 1211              		.cfi_offset 14, -4
 1212 0002 0146     		mov	r1, r0
  93:lvgl/lvgl/src/widgets/lv_dropdown.c ****     lv_obj_t * obj = lv_obj_class_create_obj(&lv_dropdown_class, parent);
 1213              		.loc 1 93 5 is_stmt 1 view .LVU367
  93:lvgl/lvgl/src/widgets/lv_dropdown.c ****     lv_obj_t * obj = lv_obj_class_create_obj(&lv_dropdown_class, parent);
 1214              		.loc 1 93 5 view .LVU368
  93:lvgl/lvgl/src/widgets/lv_dropdown.c ****     lv_obj_t * obj = lv_obj_class_create_obj(&lv_dropdown_class, parent);
 1215              		.loc 1 93 5 view .LVU369
  94:lvgl/lvgl/src/widgets/lv_dropdown.c ****     lv_obj_class_init_obj(obj);
 1216              		.loc 1 94 5 view .LVU370
  94:lvgl/lvgl/src/widgets/lv_dropdown.c ****     lv_obj_class_init_obj(obj);
 1217              		.loc 1 94 22 is_stmt 0 view .LVU371
 1218 0004 0348     		ldr	r0, .L52
 1219              	.LVL133:
  94:lvgl/lvgl/src/widgets/lv_dropdown.c ****     lv_obj_class_init_obj(obj);
 1220              		.loc 1 94 22 view .LVU372
 1221 0006 FFF7FEFF 		bl	lv_obj_class_create_obj
 1222              	.LVL134:
  94:lvgl/lvgl/src/widgets/lv_dropdown.c ****     lv_obj_class_init_obj(obj);
 1223              		.loc 1 94 22 view .LVU373
 1224 000a 0446     		mov	r4, r0
 1225              	.LVL135:
  95:lvgl/lvgl/src/widgets/lv_dropdown.c ****     return obj;
ARM GAS  C:\Users\gx\AppData\Local\Temp\ccIqfrB9.s 			page 55


 1226              		.loc 1 95 5 is_stmt 1 view .LVU374
 1227 000c FFF7FEFF 		bl	lv_obj_class_init_obj
 1228              	.LVL136:
  96:lvgl/lvgl/src/widgets/lv_dropdown.c **** }
 1229              		.loc 1 96 5 view .LVU375
  97:lvgl/lvgl/src/widgets/lv_dropdown.c **** 
 1230              		.loc 1 97 1 is_stmt 0 view .LVU376
 1231 0010 2046     		mov	r0, r4
 1232 0012 10BD     		pop	{r4, pc}
 1233              	.LVL137:
 1234              	.L53:
  97:lvgl/lvgl/src/widgets/lv_dropdown.c **** 
 1235              		.loc 1 97 1 view .LVU377
 1236              		.align	2
 1237              	.L52:
 1238 0014 00000000 		.word	.LANCHOR1
 1239              		.cfi_endproc
 1240              	.LFE158:
 1242              		.section	.text.lv_dropdown_set_text,"ax",%progbits
 1243              		.align	1
 1244              		.global	lv_dropdown_set_text
 1245              		.syntax unified
 1246              		.thumb
 1247              		.thumb_func
 1248              		.fpu fpv4-sp-d16
 1250              	lv_dropdown_set_text:
 1251              	.LVL138:
 1252              	.LFB159:
 104:lvgl/lvgl/src/widgets/lv_dropdown.c ****     LV_ASSERT_OBJ(obj, MY_CLASS);
 1253              		.loc 1 104 1 is_stmt 1 view -0
 1254              		.cfi_startproc
 1255              		@ args = 0, pretend = 0, frame = 0
 1256              		@ frame_needed = 0, uses_anonymous_args = 0
 104:lvgl/lvgl/src/widgets/lv_dropdown.c ****     LV_ASSERT_OBJ(obj, MY_CLASS);
 1257              		.loc 1 104 1 is_stmt 0 view .LVU379
 1258 0000 08B5     		push	{r3, lr}
 1259              	.LCFI22:
 1260              		.cfi_def_cfa_offset 8
 1261              		.cfi_offset 3, -8
 1262              		.cfi_offset 14, -4
 105:lvgl/lvgl/src/widgets/lv_dropdown.c ****     lv_dropdown_t * dropdown = (lv_dropdown_t *)obj;
 1263              		.loc 1 105 5 is_stmt 1 view .LVU380
 105:lvgl/lvgl/src/widgets/lv_dropdown.c ****     lv_dropdown_t * dropdown = (lv_dropdown_t *)obj;
 1264              		.loc 1 105 5 view .LVU381
 105:lvgl/lvgl/src/widgets/lv_dropdown.c ****     lv_dropdown_t * dropdown = (lv_dropdown_t *)obj;
 1265              		.loc 1 105 5 view .LVU382
 106:lvgl/lvgl/src/widgets/lv_dropdown.c ****     if(dropdown->text == txt) return;
 1266              		.loc 1 106 5 view .LVU383
 1267              	.LVL139:
 107:lvgl/lvgl/src/widgets/lv_dropdown.c **** 
 1268              		.loc 1 107 5 view .LVU384
 107:lvgl/lvgl/src/widgets/lv_dropdown.c **** 
 1269              		.loc 1 107 16 is_stmt 0 view .LVU385
 1270 0002 836A     		ldr	r3, [r0, #40]
 107:lvgl/lvgl/src/widgets/lv_dropdown.c **** 
 1271              		.loc 1 107 7 view .LVU386
 1272 0004 8B42     		cmp	r3, r1
ARM GAS  C:\Users\gx\AppData\Local\Temp\ccIqfrB9.s 			page 56


 1273 0006 02D0     		beq	.L54
 109:lvgl/lvgl/src/widgets/lv_dropdown.c **** 
 1274              		.loc 1 109 5 is_stmt 1 view .LVU387
 109:lvgl/lvgl/src/widgets/lv_dropdown.c **** 
 1275              		.loc 1 109 20 is_stmt 0 view .LVU388
 1276 0008 8162     		str	r1, [r0, #40]
 111:lvgl/lvgl/src/widgets/lv_dropdown.c **** }
 1277              		.loc 1 111 5 is_stmt 1 view .LVU389
 1278 000a FFF7FEFF 		bl	lv_obj_invalidate
 1279              	.LVL140:
 1280              	.L54:
 112:lvgl/lvgl/src/widgets/lv_dropdown.c **** 
 1281              		.loc 1 112 1 is_stmt 0 view .LVU390
 1282 000e 08BD     		pop	{r3, pc}
 1283              		.cfi_endproc
 1284              	.LFE159:
 1286              		.section	.rodata.lv_dropdown_set_options.str1.4,"aMS",%progbits,1
 1287              		.align	2
 1288              	.LC0:
 1289 0000 6C76676C 		.ascii	"lvgl/lvgl/src/widgets/lv_dropdown.c\000"
 1289      2F6C7667 
 1289      6C2F7372 
 1289      632F7769 
 1289      64676574 
 1290              		.align	2
 1291              	.LC1:
 1292 0024 4E554C4C 		.ascii	"NULL pointer\000"
 1292      20706F69 
 1292      6E746572 
 1292      00
 1293 0031 000000   		.align	2
 1294              	.LC2:
 1295 0034 6F707469 		.ascii	"options != NULL\000"
 1295      6F6E7320 
 1295      213D204E 
 1295      554C4C00 
 1296              		.align	2
 1297              	.LC3:
 1298 0044 41737365 		.ascii	"Asserted at expression: %s (%s)\000"
 1298      72746564 
 1298      20617420 
 1298      65787072 
 1298      65737369 
 1299              		.align	2
 1300              	.LC4:
 1301 0064 4F757420 		.ascii	"Out of memory\000"
 1301      6F66206D 
 1301      656D6F72 
 1301      7900
 1302 0072 0000     		.align	2
 1303              	.LC5:
 1304 0074 64726F70 		.ascii	"dropdown->options != NULL\000"
 1304      646F776E 
 1304      2D3E6F70 
 1304      74696F6E 
 1304      7320213D 
 1305              		.section	.text.lv_dropdown_set_options,"ax",%progbits
ARM GAS  C:\Users\gx\AppData\Local\Temp\ccIqfrB9.s 			page 57


 1306              		.align	1
 1307              		.global	lv_dropdown_set_options
 1308              		.syntax unified
 1309              		.thumb
 1310              		.thumb_func
 1311              		.fpu fpv4-sp-d16
 1313              	lv_dropdown_set_options:
 1314              	.LVL141:
 1315              	.LFB160:
 115:lvgl/lvgl/src/widgets/lv_dropdown.c ****     LV_ASSERT_OBJ(obj, MY_CLASS);
 1316              		.loc 1 115 1 is_stmt 1 view -0
 1317              		.cfi_startproc
 1318              		@ args = 0, pretend = 0, frame = 0
 1319              		@ frame_needed = 0, uses_anonymous_args = 0
 115:lvgl/lvgl/src/widgets/lv_dropdown.c ****     LV_ASSERT_OBJ(obj, MY_CLASS);
 1320              		.loc 1 115 1 is_stmt 0 view .LVU392
 1321 0000 70B5     		push	{r4, r5, r6, lr}
 1322              	.LCFI23:
 1323              		.cfi_def_cfa_offset 16
 1324              		.cfi_offset 4, -16
 1325              		.cfi_offset 5, -12
 1326              		.cfi_offset 6, -8
 1327              		.cfi_offset 14, -4
 1328 0002 84B0     		sub	sp, sp, #16
 1329              	.LCFI24:
 1330              		.cfi_def_cfa_offset 32
 116:lvgl/lvgl/src/widgets/lv_dropdown.c ****     LV_ASSERT_NULL(options);
 1331              		.loc 1 116 5 is_stmt 1 view .LVU393
 116:lvgl/lvgl/src/widgets/lv_dropdown.c ****     LV_ASSERT_NULL(options);
 1332              		.loc 1 116 5 view .LVU394
 116:lvgl/lvgl/src/widgets/lv_dropdown.c ****     LV_ASSERT_NULL(options);
 1333              		.loc 1 116 5 view .LVU395
 117:lvgl/lvgl/src/widgets/lv_dropdown.c **** 
 1334              		.loc 1 117 5 view .LVU396
 117:lvgl/lvgl/src/widgets/lv_dropdown.c **** 
 1335              		.loc 1 117 5 view .LVU397
 1336 0004 21B1     		cbz	r1, .L67
 1337 0006 0446     		mov	r4, r0
 1338 0008 0D46     		mov	r5, r1
 117:lvgl/lvgl/src/widgets/lv_dropdown.c **** 
 1339              		.loc 1 117 5 discriminator 2 view .LVU398
 117:lvgl/lvgl/src/widgets/lv_dropdown.c **** 
 1340              		.loc 1 117 28 discriminator 2 view .LVU399
 119:lvgl/lvgl/src/widgets/lv_dropdown.c **** 
 1341              		.loc 1 119 5 discriminator 2 view .LVU400
 1342              	.LVL142:
 122:lvgl/lvgl/src/widgets/lv_dropdown.c ****     uint32_t i;
 1343              		.loc 1 122 5 discriminator 2 view .LVU401
 122:lvgl/lvgl/src/widgets/lv_dropdown.c ****     uint32_t i;
 1344              		.loc 1 122 26 is_stmt 0 discriminator 2 view .LVU402
 1345 000a 0023     		movs	r3, #0
 1346 000c 8386     		strh	r3, [r0, #52]	@ movhi
 123:lvgl/lvgl/src/widgets/lv_dropdown.c ****     for(i = 0; options[i] != '\0'; i++) {
 1347              		.loc 1 123 5 is_stmt 1 discriminator 2 view .LVU403
 124:lvgl/lvgl/src/widgets/lv_dropdown.c ****         if(options[i] == '\n') dropdown->option_cnt++;
 1348              		.loc 1 124 5 discriminator 2 view .LVU404
 1349              	.LVL143:
ARM GAS  C:\Users\gx\AppData\Local\Temp\ccIqfrB9.s 			page 58


 124:lvgl/lvgl/src/widgets/lv_dropdown.c ****         if(options[i] == '\n') dropdown->option_cnt++;
 1350              		.loc 1 124 5 is_stmt 0 discriminator 2 view .LVU405
 1351 000e 0DE0     		b	.L60
 1352              	.LVL144:
 1353              	.L67:
 117:lvgl/lvgl/src/widgets/lv_dropdown.c **** 
 1354              		.loc 1 117 5 is_stmt 1 discriminator 1 view .LVU406
 1355 0010 244B     		ldr	r3, .L71
 1356 0012 0293     		str	r3, [sp, #8]
 1357 0014 244B     		ldr	r3, .L71+4
 1358 0016 0193     		str	r3, [sp, #4]
 1359 0018 244B     		ldr	r3, .L71+8
 1360 001a 0093     		str	r3, [sp]
 1361 001c 244B     		ldr	r3, .L71+12
 1362 001e 7522     		movs	r2, #117
 1363 0020 2449     		ldr	r1, .L71+16
 1364              	.LVL145:
 117:lvgl/lvgl/src/widgets/lv_dropdown.c **** 
 1365              		.loc 1 117 5 is_stmt 0 discriminator 1 view .LVU407
 1366 0022 0320     		movs	r0, #3
 1367              	.LVL146:
 117:lvgl/lvgl/src/widgets/lv_dropdown.c **** 
 1368              		.loc 1 117 5 discriminator 1 view .LVU408
 1369 0024 FFF7FEFF 		bl	_lv_log_add
 1370              	.LVL147:
 1371              	.L59:
 117:lvgl/lvgl/src/widgets/lv_dropdown.c **** 
 1372              		.loc 1 117 5 is_stmt 1 discriminator 1 view .LVU409
 117:lvgl/lvgl/src/widgets/lv_dropdown.c **** 
 1373              		.loc 1 117 5 discriminator 1 view .LVU410
 117:lvgl/lvgl/src/widgets/lv_dropdown.c **** 
 1374              		.loc 1 117 5 discriminator 1 view .LVU411
 117:lvgl/lvgl/src/widgets/lv_dropdown.c **** 
 1375              		.loc 1 117 5 discriminator 1 view .LVU412
 1376 0028 FEE7     		b	.L59
 1377              	.LVL148:
 1378              	.L61:
 124:lvgl/lvgl/src/widgets/lv_dropdown.c ****         if(options[i] == '\n') dropdown->option_cnt++;
 1379              		.loc 1 124 36 discriminator 2 view .LVU413
 124:lvgl/lvgl/src/widgets/lv_dropdown.c ****         if(options[i] == '\n') dropdown->option_cnt++;
 1380              		.loc 1 124 37 is_stmt 0 discriminator 2 view .LVU414
 1381 002a 0133     		adds	r3, r3, #1
 1382              	.LVL149:
 1383              	.L60:
 124:lvgl/lvgl/src/widgets/lv_dropdown.c ****         if(options[i] == '\n') dropdown->option_cnt++;
 1384              		.loc 1 124 16 is_stmt 1 discriminator 1 view .LVU415
 124:lvgl/lvgl/src/widgets/lv_dropdown.c ****         if(options[i] == '\n') dropdown->option_cnt++;
 1385              		.loc 1 124 23 is_stmt 0 discriminator 1 view .LVU416
 1386 002c EA5C     		ldrb	r2, [r5, r3]	@ zero_extendqisi2
 124:lvgl/lvgl/src/widgets/lv_dropdown.c ****         if(options[i] == '\n') dropdown->option_cnt++;
 1387              		.loc 1 124 5 discriminator 1 view .LVU417
 1388 002e 2AB1     		cbz	r2, .L68
 125:lvgl/lvgl/src/widgets/lv_dropdown.c ****     }
 1389              		.loc 1 125 9 is_stmt 1 view .LVU418
 125:lvgl/lvgl/src/widgets/lv_dropdown.c ****     }
 1390              		.loc 1 125 11 is_stmt 0 view .LVU419
 1391 0030 0A2A     		cmp	r2, #10
ARM GAS  C:\Users\gx\AppData\Local\Temp\ccIqfrB9.s 			page 59


 1392 0032 FAD1     		bne	.L61
 125:lvgl/lvgl/src/widgets/lv_dropdown.c ****     }
 1393              		.loc 1 125 32 is_stmt 1 discriminator 1 view .LVU420
 125:lvgl/lvgl/src/widgets/lv_dropdown.c ****     }
 1394              		.loc 1 125 40 is_stmt 0 discriminator 1 view .LVU421
 1395 0034 A28E     		ldrh	r2, [r4, #52]
 125:lvgl/lvgl/src/widgets/lv_dropdown.c ****     }
 1396              		.loc 1 125 52 discriminator 1 view .LVU422
 1397 0036 0132     		adds	r2, r2, #1
 1398 0038 A286     		strh	r2, [r4, #52]	@ movhi
 1399 003a F6E7     		b	.L61
 1400              	.L68:
 127:lvgl/lvgl/src/widgets/lv_dropdown.c ****     dropdown->sel_opt_id      = 0;
 1401              		.loc 1 127 5 is_stmt 1 view .LVU423
 127:lvgl/lvgl/src/widgets/lv_dropdown.c ****     dropdown->sel_opt_id      = 0;
 1402              		.loc 1 127 13 is_stmt 0 view .LVU424
 1403 003c A38E     		ldrh	r3, [r4, #52]
 1404              	.LVL150:
 127:lvgl/lvgl/src/widgets/lv_dropdown.c ****     dropdown->sel_opt_id      = 0;
 1405              		.loc 1 127 25 view .LVU425
 1406 003e 0133     		adds	r3, r3, #1
 1407 0040 A386     		strh	r3, [r4, #52]	@ movhi
 128:lvgl/lvgl/src/widgets/lv_dropdown.c ****     dropdown->sel_opt_id_orig = 0;
 1408              		.loc 1 128 5 is_stmt 1 view .LVU426
 128:lvgl/lvgl/src/widgets/lv_dropdown.c ****     dropdown->sel_opt_id_orig = 0;
 1409              		.loc 1 128 31 is_stmt 0 view .LVU427
 1410 0042 0023     		movs	r3, #0
 1411 0044 E386     		strh	r3, [r4, #54]	@ movhi
 129:lvgl/lvgl/src/widgets/lv_dropdown.c **** 
 1412              		.loc 1 129 5 is_stmt 1 view .LVU428
 129:lvgl/lvgl/src/widgets/lv_dropdown.c **** 
 1413              		.loc 1 129 31 is_stmt 0 view .LVU429
 1414 0046 2387     		strh	r3, [r4, #56]	@ movhi
 133:lvgl/lvgl/src/widgets/lv_dropdown.c **** #else
 1415              		.loc 1 133 5 is_stmt 1 view .LVU430
 133:lvgl/lvgl/src/widgets/lv_dropdown.c **** #else
 1416              		.loc 1 133 18 is_stmt 0 view .LVU431
 1417 0048 2846     		mov	r0, r5
 1418              	.LVL151:
 133:lvgl/lvgl/src/widgets/lv_dropdown.c **** #else
 1419              		.loc 1 133 18 view .LVU432
 1420 004a FFF7FEFF 		bl	strlen
 1421              	.LVL152:
 133:lvgl/lvgl/src/widgets/lv_dropdown.c **** #else
 1422              		.loc 1 133 12 view .LVU433
 1423 004e 461C     		adds	r6, r0, #1
 1424              	.LVL153:
 138:lvgl/lvgl/src/widgets/lv_dropdown.c ****         lv_mem_free(dropdown->options);
 1425              		.loc 1 138 5 is_stmt 1 view .LVU434
 138:lvgl/lvgl/src/widgets/lv_dropdown.c ****         lv_mem_free(dropdown->options);
 1426              		.loc 1 138 16 is_stmt 0 view .LVU435
 1427 0050 206B     		ldr	r0, [r4, #48]
 138:lvgl/lvgl/src/widgets/lv_dropdown.c ****         lv_mem_free(dropdown->options);
 1428              		.loc 1 138 7 view .LVU436
 1429 0052 20B1     		cbz	r0, .L63
 138:lvgl/lvgl/src/widgets/lv_dropdown.c ****         lv_mem_free(dropdown->options);
 1430              		.loc 1 138 58 discriminator 1 view .LVU437
ARM GAS  C:\Users\gx\AppData\Local\Temp\ccIqfrB9.s 			page 60


 1431 0054 94F83C30 		ldrb	r3, [r4, #60]	@ zero_extendqisi2
 138:lvgl/lvgl/src/widgets/lv_dropdown.c ****         lv_mem_free(dropdown->options);
 1432              		.loc 1 138 34 discriminator 1 view .LVU438
 1433 0058 13F0100F 		tst	r3, #16
 1434 005c 0FD0     		beq	.L69
 1435              	.L63:
 143:lvgl/lvgl/src/widgets/lv_dropdown.c **** 
 1436              		.loc 1 143 5 is_stmt 1 view .LVU439
 143:lvgl/lvgl/src/widgets/lv_dropdown.c **** 
 1437              		.loc 1 143 25 is_stmt 0 view .LVU440
 1438 005e 3046     		mov	r0, r6
 1439 0060 FFF7FEFF 		bl	lv_mem_alloc
 1440              	.LVL154:
 143:lvgl/lvgl/src/widgets/lv_dropdown.c **** 
 1441              		.loc 1 143 23 view .LVU441
 1442 0064 2063     		str	r0, [r4, #48]
 145:lvgl/lvgl/src/widgets/lv_dropdown.c ****     if(dropdown->options == NULL) return;
 1443              		.loc 1 145 5 is_stmt 1 view .LVU442
 145:lvgl/lvgl/src/widgets/lv_dropdown.c ****     if(dropdown->options == NULL) return;
 1444              		.loc 1 145 5 view .LVU443
 1445 0066 78B1     		cbz	r0, .L70
 145:lvgl/lvgl/src/widgets/lv_dropdown.c ****     if(dropdown->options == NULL) return;
 1446              		.loc 1 145 5 view .LVU444
 145:lvgl/lvgl/src/widgets/lv_dropdown.c ****     if(dropdown->options == NULL) return;
 1447              		.loc 1 145 40 view .LVU445
 146:lvgl/lvgl/src/widgets/lv_dropdown.c **** 
 1448              		.loc 1 146 5 view .LVU446
 149:lvgl/lvgl/src/widgets/lv_dropdown.c **** #else
 1449              		.loc 1 149 5 view .LVU447
 1450 0068 2946     		mov	r1, r5
 1451 006a FFF7FEFF 		bl	strcpy
 1452              	.LVL155:
 155:lvgl/lvgl/src/widgets/lv_dropdown.c **** }
 1453              		.loc 1 155 5 view .LVU448
 155:lvgl/lvgl/src/widgets/lv_dropdown.c **** }
 1454              		.loc 1 155 26 is_stmt 0 view .LVU449
 1455 006e 94F83C30 		ldrb	r3, [r4, #60]	@ zero_extendqisi2
 1456 0072 6FF30413 		bfc	r3, #4, #1
 1457 0076 84F83C30 		strb	r3, [r4, #60]
 156:lvgl/lvgl/src/widgets/lv_dropdown.c **** 
 1458              		.loc 1 156 1 view .LVU450
 1459 007a 04B0     		add	sp, sp, #16
 1460              	.LCFI25:
 1461              		.cfi_remember_state
 1462              		.cfi_def_cfa_offset 16
 1463              		@ sp needed
 1464 007c 70BD     		pop	{r4, r5, r6, pc}
 1465              	.LVL156:
 1466              	.L69:
 1467              	.LCFI26:
 1468              		.cfi_restore_state
 139:lvgl/lvgl/src/widgets/lv_dropdown.c ****         dropdown->options = NULL;
 1469              		.loc 1 139 9 is_stmt 1 view .LVU451
 1470 007e FFF7FEFF 		bl	lv_mem_free
 1471              	.LVL157:
 140:lvgl/lvgl/src/widgets/lv_dropdown.c ****     }
 1472              		.loc 1 140 9 view .LVU452
ARM GAS  C:\Users\gx\AppData\Local\Temp\ccIqfrB9.s 			page 61


 140:lvgl/lvgl/src/widgets/lv_dropdown.c ****     }
 1473              		.loc 1 140 27 is_stmt 0 view .LVU453
 1474 0082 0023     		movs	r3, #0
 1475 0084 2363     		str	r3, [r4, #48]
 1476 0086 EAE7     		b	.L63
 1477              	.L70:
 145:lvgl/lvgl/src/widgets/lv_dropdown.c ****     if(dropdown->options == NULL) return;
 1478              		.loc 1 145 5 is_stmt 1 discriminator 1 view .LVU454
 1479 0088 0B4B     		ldr	r3, .L71+20
 1480 008a 0293     		str	r3, [sp, #8]
 1481 008c 0B4B     		ldr	r3, .L71+24
 1482 008e 0193     		str	r3, [sp, #4]
 1483 0090 064B     		ldr	r3, .L71+8
 1484 0092 0093     		str	r3, [sp]
 1485 0094 064B     		ldr	r3, .L71+12
 1486 0096 9122     		movs	r2, #145
 1487 0098 0649     		ldr	r1, .L71+16
 1488 009a 0320     		movs	r0, #3
 1489 009c FFF7FEFF 		bl	_lv_log_add
 1490              	.LVL158:
 1491              	.L65:
 145:lvgl/lvgl/src/widgets/lv_dropdown.c ****     if(dropdown->options == NULL) return;
 1492              		.loc 1 145 5 discriminator 2 view .LVU455
 145:lvgl/lvgl/src/widgets/lv_dropdown.c ****     if(dropdown->options == NULL) return;
 1493              		.loc 1 145 5 discriminator 2 view .LVU456
 145:lvgl/lvgl/src/widgets/lv_dropdown.c ****     if(dropdown->options == NULL) return;
 1494              		.loc 1 145 5 discriminator 2 view .LVU457
 145:lvgl/lvgl/src/widgets/lv_dropdown.c ****     if(dropdown->options == NULL) return;
 1495              		.loc 1 145 5 discriminator 2 view .LVU458
 1496 00a0 FEE7     		b	.L65
 1497              	.L72:
 1498 00a2 00BF     		.align	2
 1499              	.L71:
 1500 00a4 24000000 		.word	.LC1
 1501 00a8 34000000 		.word	.LC2
 1502 00ac 44000000 		.word	.LC3
 1503 00b0 00000000 		.word	.LANCHOR2
 1504 00b4 00000000 		.word	.LC0
 1505 00b8 64000000 		.word	.LC4
 1506 00bc 74000000 		.word	.LC5
 1507              		.cfi_endproc
 1508              	.LFE160:
 1510              		.section	.text.lv_dropdown_set_options_static,"ax",%progbits
 1511              		.align	1
 1512              		.global	lv_dropdown_set_options_static
 1513              		.syntax unified
 1514              		.thumb
 1515              		.thumb_func
 1516              		.fpu fpv4-sp-d16
 1518              	lv_dropdown_set_options_static:
 1519              	.LVL159:
 1520              	.LFB161:
 159:lvgl/lvgl/src/widgets/lv_dropdown.c ****     LV_ASSERT_OBJ(obj, MY_CLASS);
 1521              		.loc 1 159 1 view -0
 1522              		.cfi_startproc
 1523              		@ args = 0, pretend = 0, frame = 0
 1524              		@ frame_needed = 0, uses_anonymous_args = 0
ARM GAS  C:\Users\gx\AppData\Local\Temp\ccIqfrB9.s 			page 62


 159:lvgl/lvgl/src/widgets/lv_dropdown.c ****     LV_ASSERT_OBJ(obj, MY_CLASS);
 1525              		.loc 1 159 1 is_stmt 0 view .LVU460
 1526 0000 30B5     		push	{r4, r5, lr}
 1527              	.LCFI27:
 1528              		.cfi_def_cfa_offset 12
 1529              		.cfi_offset 4, -12
 1530              		.cfi_offset 5, -8
 1531              		.cfi_offset 14, -4
 1532 0002 85B0     		sub	sp, sp, #20
 1533              	.LCFI28:
 1534              		.cfi_def_cfa_offset 32
 160:lvgl/lvgl/src/widgets/lv_dropdown.c ****     LV_ASSERT_NULL(options);
 1535              		.loc 1 160 5 is_stmt 1 view .LVU461
 160:lvgl/lvgl/src/widgets/lv_dropdown.c ****     LV_ASSERT_NULL(options);
 1536              		.loc 1 160 5 view .LVU462
 160:lvgl/lvgl/src/widgets/lv_dropdown.c ****     LV_ASSERT_NULL(options);
 1537              		.loc 1 160 5 view .LVU463
 161:lvgl/lvgl/src/widgets/lv_dropdown.c **** 
 1538              		.loc 1 161 5 view .LVU464
 161:lvgl/lvgl/src/widgets/lv_dropdown.c **** 
 1539              		.loc 1 161 5 view .LVU465
 1540 0004 21B1     		cbz	r1, .L81
 1541 0006 0446     		mov	r4, r0
 1542 0008 0D46     		mov	r5, r1
 161:lvgl/lvgl/src/widgets/lv_dropdown.c **** 
 1543              		.loc 1 161 5 discriminator 2 view .LVU466
 161:lvgl/lvgl/src/widgets/lv_dropdown.c **** 
 1544              		.loc 1 161 28 discriminator 2 view .LVU467
 163:lvgl/lvgl/src/widgets/lv_dropdown.c **** 
 1545              		.loc 1 163 5 discriminator 2 view .LVU468
 1546              	.LVL160:
 166:lvgl/lvgl/src/widgets/lv_dropdown.c ****     uint32_t i;
 1547              		.loc 1 166 5 discriminator 2 view .LVU469
 166:lvgl/lvgl/src/widgets/lv_dropdown.c ****     uint32_t i;
 1548              		.loc 1 166 26 is_stmt 0 discriminator 2 view .LVU470
 1549 000a 0023     		movs	r3, #0
 1550 000c 8386     		strh	r3, [r0, #52]	@ movhi
 167:lvgl/lvgl/src/widgets/lv_dropdown.c ****     for(i = 0; options[i] != '\0'; i++) {
 1551              		.loc 1 167 5 is_stmt 1 discriminator 2 view .LVU471
 168:lvgl/lvgl/src/widgets/lv_dropdown.c ****         if(options[i] == '\n') dropdown->option_cnt++;
 1552              		.loc 1 168 5 discriminator 2 view .LVU472
 1553              	.LVL161:
 168:lvgl/lvgl/src/widgets/lv_dropdown.c ****         if(options[i] == '\n') dropdown->option_cnt++;
 1554              		.loc 1 168 5 is_stmt 0 discriminator 2 view .LVU473
 1555 000e 0DE0     		b	.L76
 1556              	.LVL162:
 1557              	.L81:
 161:lvgl/lvgl/src/widgets/lv_dropdown.c **** 
 1558              		.loc 1 161 5 is_stmt 1 discriminator 1 view .LVU474
 1559 0010 164B     		ldr	r3, .L83
 1560 0012 0293     		str	r3, [sp, #8]
 1561 0014 164B     		ldr	r3, .L83+4
 1562 0016 0193     		str	r3, [sp, #4]
 1563 0018 164B     		ldr	r3, .L83+8
 1564 001a 0093     		str	r3, [sp]
 1565 001c 164B     		ldr	r3, .L83+12
 1566 001e A122     		movs	r2, #161
ARM GAS  C:\Users\gx\AppData\Local\Temp\ccIqfrB9.s 			page 63


 1567 0020 1649     		ldr	r1, .L83+16
 1568              	.LVL163:
 161:lvgl/lvgl/src/widgets/lv_dropdown.c **** 
 1569              		.loc 1 161 5 is_stmt 0 discriminator 1 view .LVU475
 1570 0022 0320     		movs	r0, #3
 1571              	.LVL164:
 161:lvgl/lvgl/src/widgets/lv_dropdown.c **** 
 1572              		.loc 1 161 5 discriminator 1 view .LVU476
 1573 0024 FFF7FEFF 		bl	_lv_log_add
 1574              	.LVL165:
 1575              	.L75:
 161:lvgl/lvgl/src/widgets/lv_dropdown.c **** 
 1576              		.loc 1 161 5 is_stmt 1 discriminator 1 view .LVU477
 161:lvgl/lvgl/src/widgets/lv_dropdown.c **** 
 1577              		.loc 1 161 5 discriminator 1 view .LVU478
 161:lvgl/lvgl/src/widgets/lv_dropdown.c **** 
 1578              		.loc 1 161 5 discriminator 1 view .LVU479
 161:lvgl/lvgl/src/widgets/lv_dropdown.c **** 
 1579              		.loc 1 161 5 discriminator 1 view .LVU480
 1580 0028 FEE7     		b	.L75
 1581              	.LVL166:
 1582              	.L77:
 168:lvgl/lvgl/src/widgets/lv_dropdown.c ****         if(options[i] == '\n') dropdown->option_cnt++;
 1583              		.loc 1 168 36 discriminator 2 view .LVU481
 168:lvgl/lvgl/src/widgets/lv_dropdown.c ****         if(options[i] == '\n') dropdown->option_cnt++;
 1584              		.loc 1 168 37 is_stmt 0 discriminator 2 view .LVU482
 1585 002a 0133     		adds	r3, r3, #1
 1586              	.LVL167:
 1587              	.L76:
 168:lvgl/lvgl/src/widgets/lv_dropdown.c ****         if(options[i] == '\n') dropdown->option_cnt++;
 1588              		.loc 1 168 16 is_stmt 1 discriminator 1 view .LVU483
 168:lvgl/lvgl/src/widgets/lv_dropdown.c ****         if(options[i] == '\n') dropdown->option_cnt++;
 1589              		.loc 1 168 23 is_stmt 0 discriminator 1 view .LVU484
 1590 002c EA5C     		ldrb	r2, [r5, r3]	@ zero_extendqisi2
 168:lvgl/lvgl/src/widgets/lv_dropdown.c ****         if(options[i] == '\n') dropdown->option_cnt++;
 1591              		.loc 1 168 5 discriminator 1 view .LVU485
 1592 002e 2AB1     		cbz	r2, .L82
 169:lvgl/lvgl/src/widgets/lv_dropdown.c ****     }
 1593              		.loc 1 169 9 is_stmt 1 view .LVU486
 169:lvgl/lvgl/src/widgets/lv_dropdown.c ****     }
 1594              		.loc 1 169 11 is_stmt 0 view .LVU487
 1595 0030 0A2A     		cmp	r2, #10
 1596 0032 FAD1     		bne	.L77
 169:lvgl/lvgl/src/widgets/lv_dropdown.c ****     }
 1597              		.loc 1 169 32 is_stmt 1 discriminator 1 view .LVU488
 169:lvgl/lvgl/src/widgets/lv_dropdown.c ****     }
 1598              		.loc 1 169 40 is_stmt 0 discriminator 1 view .LVU489
 1599 0034 A28E     		ldrh	r2, [r4, #52]
 169:lvgl/lvgl/src/widgets/lv_dropdown.c ****     }
 1600              		.loc 1 169 52 discriminator 1 view .LVU490
 1601 0036 0132     		adds	r2, r2, #1
 1602 0038 A286     		strh	r2, [r4, #52]	@ movhi
 1603 003a F6E7     		b	.L77
 1604              	.L82:
 171:lvgl/lvgl/src/widgets/lv_dropdown.c ****     dropdown->sel_opt_id      = 0;
 1605              		.loc 1 171 5 is_stmt 1 view .LVU491
 171:lvgl/lvgl/src/widgets/lv_dropdown.c ****     dropdown->sel_opt_id      = 0;
ARM GAS  C:\Users\gx\AppData\Local\Temp\ccIqfrB9.s 			page 64


 1606              		.loc 1 171 13 is_stmt 0 view .LVU492
 1607 003c A38E     		ldrh	r3, [r4, #52]
 1608              	.LVL168:
 171:lvgl/lvgl/src/widgets/lv_dropdown.c ****     dropdown->sel_opt_id      = 0;
 1609              		.loc 1 171 25 view .LVU493
 1610 003e 0133     		adds	r3, r3, #1
 1611 0040 A386     		strh	r3, [r4, #52]	@ movhi
 172:lvgl/lvgl/src/widgets/lv_dropdown.c ****     dropdown->sel_opt_id_orig = 0;
 1612              		.loc 1 172 5 is_stmt 1 view .LVU494
 172:lvgl/lvgl/src/widgets/lv_dropdown.c ****     dropdown->sel_opt_id_orig = 0;
 1613              		.loc 1 172 31 is_stmt 0 view .LVU495
 1614 0042 0023     		movs	r3, #0
 1615 0044 E386     		strh	r3, [r4, #54]	@ movhi
 173:lvgl/lvgl/src/widgets/lv_dropdown.c **** 
 1616              		.loc 1 173 5 is_stmt 1 view .LVU496
 173:lvgl/lvgl/src/widgets/lv_dropdown.c **** 
 1617              		.loc 1 173 31 is_stmt 0 view .LVU497
 1618 0046 2387     		strh	r3, [r4, #56]	@ movhi
 175:lvgl/lvgl/src/widgets/lv_dropdown.c ****         lv_mem_free(dropdown->options);
 1619              		.loc 1 175 5 is_stmt 1 view .LVU498
 175:lvgl/lvgl/src/widgets/lv_dropdown.c ****         lv_mem_free(dropdown->options);
 1620              		.loc 1 175 29 is_stmt 0 view .LVU499
 1621 0048 94F83C30 		ldrb	r3, [r4, #60]	@ zero_extendqisi2
 175:lvgl/lvgl/src/widgets/lv_dropdown.c ****         lv_mem_free(dropdown->options);
 1622              		.loc 1 175 7 view .LVU500
 1623 004c 13F0100F 		tst	r3, #16
 1624 0050 03D1     		bne	.L79
 175:lvgl/lvgl/src/widgets/lv_dropdown.c ****         lv_mem_free(dropdown->options);
 1625              		.loc 1 175 45 discriminator 1 view .LVU501
 1626 0052 206B     		ldr	r0, [r4, #48]
 1627              	.LVL169:
 175:lvgl/lvgl/src/widgets/lv_dropdown.c ****         lv_mem_free(dropdown->options);
 1628              		.loc 1 175 34 discriminator 1 view .LVU502
 1629 0054 08B1     		cbz	r0, .L79
 176:lvgl/lvgl/src/widgets/lv_dropdown.c ****         dropdown->options = NULL;
 1630              		.loc 1 176 9 is_stmt 1 view .LVU503
 1631 0056 FFF7FEFF 		bl	lv_mem_free
 1632              	.LVL170:
 177:lvgl/lvgl/src/widgets/lv_dropdown.c ****     }
 1633              		.loc 1 177 9 view .LVU504
 1634              	.L79:
 180:lvgl/lvgl/src/widgets/lv_dropdown.c ****     dropdown->options = (char *)options;
 1635              		.loc 1 180 5 view .LVU505
 180:lvgl/lvgl/src/widgets/lv_dropdown.c ****     dropdown->options = (char *)options;
 1636              		.loc 1 180 26 is_stmt 0 view .LVU506
 1637 005a 94F83C30 		ldrb	r3, [r4, #60]	@ zero_extendqisi2
 1638 005e 43F01003 		orr	r3, r3, #16
 1639 0062 84F83C30 		strb	r3, [r4, #60]
 181:lvgl/lvgl/src/widgets/lv_dropdown.c **** }
 1640              		.loc 1 181 5 is_stmt 1 view .LVU507
 181:lvgl/lvgl/src/widgets/lv_dropdown.c **** }
 1641              		.loc 1 181 23 is_stmt 0 view .LVU508
 1642 0066 2563     		str	r5, [r4, #48]
 182:lvgl/lvgl/src/widgets/lv_dropdown.c **** 
 1643              		.loc 1 182 1 view .LVU509
 1644 0068 05B0     		add	sp, sp, #20
 1645              	.LCFI29:
ARM GAS  C:\Users\gx\AppData\Local\Temp\ccIqfrB9.s 			page 65


 1646              		.cfi_def_cfa_offset 12
 1647              		@ sp needed
 1648 006a 30BD     		pop	{r4, r5, pc}
 1649              	.LVL171:
 1650              	.L84:
 182:lvgl/lvgl/src/widgets/lv_dropdown.c **** 
 1651              		.loc 1 182 1 view .LVU510
 1652              		.align	2
 1653              	.L83:
 1654 006c 24000000 		.word	.LC1
 1655 0070 34000000 		.word	.LC2
 1656 0074 44000000 		.word	.LC3
 1657 0078 00000000 		.word	.LANCHOR3
 1658 007c 00000000 		.word	.LC0
 1659              		.cfi_endproc
 1660              	.LFE161:
 1662              		.section	.rodata.lv_dropdown_constructor.str1.4,"aMS",%progbits,1
 1663              		.align	2
 1664              	.LC6:
 1665 0000 EF81B800 		.ascii	"\357\201\270\000"
 1666              		.align	2
 1667              	.LC7:
 1668 0004 4F707469 		.ascii	"Option 1\012Option 2\012Option 3\000"
 1668      6F6E2031 
 1668      0A4F7074 
 1668      696F6E20 
 1668      320A4F70 
 1669              		.section	.text.lv_dropdown_constructor,"ax",%progbits
 1670              		.align	1
 1671              		.syntax unified
 1672              		.thumb
 1673              		.thumb_func
 1674              		.fpu fpv4-sp-d16
 1676              	lv_dropdown_constructor:
 1677              	.LVL172:
 1678              	.LFB180:
 537:lvgl/lvgl/src/widgets/lv_dropdown.c ****     LV_UNUSED(class_p);
 1679              		.loc 1 537 1 is_stmt 1 view -0
 1680              		.cfi_startproc
 1681              		@ args = 0, pretend = 0, frame = 0
 1682              		@ frame_needed = 0, uses_anonymous_args = 0
 537:lvgl/lvgl/src/widgets/lv_dropdown.c ****     LV_UNUSED(class_p);
 1683              		.loc 1 537 1 is_stmt 0 view .LVU512
 1684 0000 10B5     		push	{r4, lr}
 1685              	.LCFI30:
 1686              		.cfi_def_cfa_offset 8
 1687              		.cfi_offset 4, -8
 1688              		.cfi_offset 14, -4
 1689 0002 0C46     		mov	r4, r1
 538:lvgl/lvgl/src/widgets/lv_dropdown.c ****     LV_TRACE_OBJ_CREATE("begin");
 1690              		.loc 1 538 5 is_stmt 1 view .LVU513
 539:lvgl/lvgl/src/widgets/lv_dropdown.c **** 
 1691              		.loc 1 539 5 view .LVU514
 539:lvgl/lvgl/src/widgets/lv_dropdown.c **** 
 1692              		.loc 1 539 5 view .LVU515
 539:lvgl/lvgl/src/widgets/lv_dropdown.c **** 
 1693              		.loc 1 539 5 view .LVU516
ARM GAS  C:\Users\gx\AppData\Local\Temp\ccIqfrB9.s 			page 66


 539:lvgl/lvgl/src/widgets/lv_dropdown.c **** 
 1694              		.loc 1 539 33 view .LVU517
 541:lvgl/lvgl/src/widgets/lv_dropdown.c **** 
 1695              		.loc 1 541 5 view .LVU518
 1696              	.LVL173:
 544:lvgl/lvgl/src/widgets/lv_dropdown.c ****     dropdown->options     = NULL;
 1697              		.loc 1 544 5 view .LVU519
 544:lvgl/lvgl/src/widgets/lv_dropdown.c ****     dropdown->options     = NULL;
 1698              		.loc 1 544 29 is_stmt 0 view .LVU520
 1699 0004 0023     		movs	r3, #0
 1700 0006 4B62     		str	r3, [r1, #36]
 545:lvgl/lvgl/src/widgets/lv_dropdown.c ****     dropdown->symbol         = LV_SYMBOL_DOWN;
 1701              		.loc 1 545 5 is_stmt 1 view .LVU521
 545:lvgl/lvgl/src/widgets/lv_dropdown.c ****     dropdown->symbol         = LV_SYMBOL_DOWN;
 1702              		.loc 1 545 27 is_stmt 0 view .LVU522
 1703 0008 0B63     		str	r3, [r1, #48]
 546:lvgl/lvgl/src/widgets/lv_dropdown.c ****     dropdown->text         = NULL;
 1704              		.loc 1 546 5 is_stmt 1 view .LVU523
 546:lvgl/lvgl/src/widgets/lv_dropdown.c ****     dropdown->text         = NULL;
 1705              		.loc 1 546 30 is_stmt 0 view .LVU524
 1706 000a 0E4A     		ldr	r2, .L87
 1707 000c CA62     		str	r2, [r1, #44]
 547:lvgl/lvgl/src/widgets/lv_dropdown.c ****     dropdown->static_txt = 1;
 1708              		.loc 1 547 5 is_stmt 1 view .LVU525
 547:lvgl/lvgl/src/widgets/lv_dropdown.c ****     dropdown->static_txt = 1;
 1709              		.loc 1 547 28 is_stmt 0 view .LVU526
 1710 000e 8B62     		str	r3, [r1, #40]
 548:lvgl/lvgl/src/widgets/lv_dropdown.c ****     dropdown->selected_highlight = 1;
 1711              		.loc 1 548 5 is_stmt 1 view .LVU527
 548:lvgl/lvgl/src/widgets/lv_dropdown.c ****     dropdown->selected_highlight = 1;
 1712              		.loc 1 548 26 is_stmt 0 view .LVU528
 1713 0010 91F83C20 		ldrb	r2, [r1, #60]	@ zero_extendqisi2
 549:lvgl/lvgl/src/widgets/lv_dropdown.c ****     dropdown->sel_opt_id      = 0;
 1714              		.loc 1 549 5 is_stmt 1 view .LVU529
 550:lvgl/lvgl/src/widgets/lv_dropdown.c ****     dropdown->sel_opt_id_orig = 0;
 1715              		.loc 1 550 5 view .LVU530
 550:lvgl/lvgl/src/widgets/lv_dropdown.c ****     dropdown->sel_opt_id_orig = 0;
 1716              		.loc 1 550 31 is_stmt 0 view .LVU531
 1717 0014 CB86     		strh	r3, [r1, #54]	@ movhi
 551:lvgl/lvgl/src/widgets/lv_dropdown.c ****     dropdown->pr_opt_id = LV_DROPDOWN_PR_NONE;
 1718              		.loc 1 551 5 is_stmt 1 view .LVU532
 551:lvgl/lvgl/src/widgets/lv_dropdown.c ****     dropdown->pr_opt_id = LV_DROPDOWN_PR_NONE;
 1719              		.loc 1 551 31 is_stmt 0 view .LVU533
 1720 0016 0B87     		strh	r3, [r1, #56]	@ movhi
 552:lvgl/lvgl/src/widgets/lv_dropdown.c ****     dropdown->option_cnt      = 0;
 1721              		.loc 1 552 5 is_stmt 1 view .LVU534
 552:lvgl/lvgl/src/widgets/lv_dropdown.c ****     dropdown->option_cnt      = 0;
 1722              		.loc 1 552 25 is_stmt 0 view .LVU535
 1723 0018 4FF6FF71 		movw	r1, #65535
 1724              	.LVL174:
 552:lvgl/lvgl/src/widgets/lv_dropdown.c ****     dropdown->option_cnt      = 0;
 1725              		.loc 1 552 25 view .LVU536
 1726 001c 6187     		strh	r1, [r4, #58]	@ movhi
 553:lvgl/lvgl/src/widgets/lv_dropdown.c ****     dropdown->dir = LV_DIR_BOTTOM;
 1727              		.loc 1 553 5 is_stmt 1 view .LVU537
 553:lvgl/lvgl/src/widgets/lv_dropdown.c ****     dropdown->dir = LV_DIR_BOTTOM;
 1728              		.loc 1 553 31 is_stmt 0 view .LVU538
ARM GAS  C:\Users\gx\AppData\Local\Temp\ccIqfrB9.s 			page 67


 1729 001e A386     		strh	r3, [r4, #52]	@ movhi
 554:lvgl/lvgl/src/widgets/lv_dropdown.c **** 
 1730              		.loc 1 554 5 is_stmt 1 view .LVU539
 554:lvgl/lvgl/src/widgets/lv_dropdown.c **** 
 1731              		.loc 1 554 19 is_stmt 0 view .LVU540
 1732 0020 42F03003 		orr	r3, r2, #48
 1733 0024 0822     		movs	r2, #8
 1734 0026 62F30303 		bfi	r3, r2, #0, #4
 1735 002a 84F83C30 		strb	r3, [r4, #60]
 556:lvgl/lvgl/src/widgets/lv_dropdown.c ****     lv_dropdown_set_options_static(obj, "Option 1\nOption 2\nOption 3");
 1736              		.loc 1 556 5 is_stmt 1 view .LVU541
 1737 002e 4FF40071 		mov	r1, #512
 1738 0032 2046     		mov	r0, r4
 1739              	.LVL175:
 556:lvgl/lvgl/src/widgets/lv_dropdown.c ****     lv_dropdown_set_options_static(obj, "Option 1\nOption 2\nOption 3");
 1740              		.loc 1 556 5 is_stmt 0 view .LVU542
 1741 0034 FFF7FEFF 		bl	lv_obj_add_flag
 1742              	.LVL176:
 557:lvgl/lvgl/src/widgets/lv_dropdown.c **** 
 1743              		.loc 1 557 5 is_stmt 1 view .LVU543
 1744 0038 0349     		ldr	r1, .L87+4
 1745 003a 2046     		mov	r0, r4
 1746 003c FFF7FEFF 		bl	lv_dropdown_set_options_static
 1747              	.LVL177:
 559:lvgl/lvgl/src/widgets/lv_dropdown.c **** }
 1748              		.loc 1 559 5 view .LVU544
 559:lvgl/lvgl/src/widgets/lv_dropdown.c **** }
 1749              		.loc 1 559 5 view .LVU545
 559:lvgl/lvgl/src/widgets/lv_dropdown.c **** }
 1750              		.loc 1 559 5 view .LVU546
 559:lvgl/lvgl/src/widgets/lv_dropdown.c **** }
 1751              		.loc 1 559 36 view .LVU547
 560:lvgl/lvgl/src/widgets/lv_dropdown.c **** 
 1752              		.loc 1 560 1 is_stmt 0 view .LVU548
 1753 0040 10BD     		pop	{r4, pc}
 1754              	.LVL178:
 1755              	.L88:
 560:lvgl/lvgl/src/widgets/lv_dropdown.c **** 
 1756              		.loc 1 560 1 view .LVU549
 1757 0042 00BF     		.align	2
 1758              	.L87:
 1759 0044 00000000 		.word	.LC6
 1760 0048 04000000 		.word	.LC7
 1761              		.cfi_endproc
 1762              	.LFE180:
 1764              		.section	.rodata.lv_dropdown_add_option.str1.4,"aMS",%progbits,1
 1765              		.align	2
 1766              	.LC8:
 1767 0000 6F707469 		.ascii	"option != NULL\000"
 1767      6F6E2021 
 1767      3D204E55 
 1767      4C4C00
 1768 000f 00       		.align	2
 1769              	.LC9:
 1770 0010 0A00     		.ascii	"\012\000"
 1771 0012 0000     		.align	2
 1772              	.LC10:
ARM GAS  C:\Users\gx\AppData\Local\Temp\ccIqfrB9.s 			page 68


 1773 0014 696E735F 		.ascii	"ins_buf != NULL\000"
 1773      62756620 
 1773      213D204E 
 1773      554C4C00 
 1774              		.section	.text.lv_dropdown_add_option,"ax",%progbits
 1775              		.align	1
 1776              		.global	lv_dropdown_add_option
 1777              		.syntax unified
 1778              		.thumb
 1779              		.thumb_func
 1780              		.fpu fpv4-sp-d16
 1782              	lv_dropdown_add_option:
 1783              	.LVL179:
 1784              	.LFB162:
 185:lvgl/lvgl/src/widgets/lv_dropdown.c ****     LV_ASSERT_OBJ(obj, MY_CLASS);
 1785              		.loc 1 185 1 is_stmt 1 view -0
 1786              		.cfi_startproc
 1787              		@ args = 0, pretend = 0, frame = 0
 1788              		@ frame_needed = 0, uses_anonymous_args = 0
 185:lvgl/lvgl/src/widgets/lv_dropdown.c ****     LV_ASSERT_OBJ(obj, MY_CLASS);
 1789              		.loc 1 185 1 is_stmt 0 view .LVU551
 1790 0000 2DE9F047 		push	{r4, r5, r6, r7, r8, r9, r10, lr}
 1791              	.LCFI31:
 1792              		.cfi_def_cfa_offset 32
 1793              		.cfi_offset 4, -32
 1794              		.cfi_offset 5, -28
 1795              		.cfi_offset 6, -24
 1796              		.cfi_offset 7, -20
 1797              		.cfi_offset 8, -16
 1798              		.cfi_offset 9, -12
 1799              		.cfi_offset 10, -8
 1800              		.cfi_offset 14, -4
 1801 0004 84B0     		sub	sp, sp, #16
 1802              	.LCFI32:
 1803              		.cfi_def_cfa_offset 48
 186:lvgl/lvgl/src/widgets/lv_dropdown.c ****     LV_ASSERT_NULL(option);
 1804              		.loc 1 186 5 is_stmt 1 view .LVU552
 186:lvgl/lvgl/src/widgets/lv_dropdown.c ****     LV_ASSERT_NULL(option);
 1805              		.loc 1 186 5 view .LVU553
 186:lvgl/lvgl/src/widgets/lv_dropdown.c ****     LV_ASSERT_NULL(option);
 1806              		.loc 1 186 5 view .LVU554
 187:lvgl/lvgl/src/widgets/lv_dropdown.c **** 
 1807              		.loc 1 187 5 view .LVU555
 187:lvgl/lvgl/src/widgets/lv_dropdown.c **** 
 1808              		.loc 1 187 5 view .LVU556
 1809 0006 31B3     		cbz	r1, .L109
 1810 0008 0446     		mov	r4, r0
 1811 000a 1646     		mov	r6, r2
 1812 000c 8846     		mov	r8, r1
 187:lvgl/lvgl/src/widgets/lv_dropdown.c **** 
 1813              		.loc 1 187 5 discriminator 2 view .LVU557
 187:lvgl/lvgl/src/widgets/lv_dropdown.c **** 
 1814              		.loc 1 187 27 discriminator 2 view .LVU558
 189:lvgl/lvgl/src/widgets/lv_dropdown.c **** 
 1815              		.loc 1 189 5 discriminator 2 view .LVU559
 1816              	.LVL180:
 192:lvgl/lvgl/src/widgets/lv_dropdown.c ****         char * static_options = dropdown->options;
ARM GAS  C:\Users\gx\AppData\Local\Temp\ccIqfrB9.s 			page 69


 1817              		.loc 1 192 5 discriminator 2 view .LVU560
 192:lvgl/lvgl/src/widgets/lv_dropdown.c ****         char * static_options = dropdown->options;
 1818              		.loc 1 192 29 is_stmt 0 discriminator 2 view .LVU561
 1819 000e 90F83C30 		ldrb	r3, [r0, #60]	@ zero_extendqisi2
 192:lvgl/lvgl/src/widgets/lv_dropdown.c ****         char * static_options = dropdown->options;
 1820              		.loc 1 192 7 discriminator 2 view .LVU562
 1821 0012 13F0100F 		tst	r3, #16
 1822 0016 2BD1     		bne	.L110
 1823              	.LVL181:
 1824              	.L92:
 205:lvgl/lvgl/src/widgets/lv_dropdown.c **** #if LV_USE_ARABIC_PERSIAN_CHARS == 0
 1825              		.loc 1 205 5 is_stmt 1 view .LVU563
 205:lvgl/lvgl/src/widgets/lv_dropdown.c **** #if LV_USE_ARABIC_PERSIAN_CHARS == 0
 1826              		.loc 1 205 31 is_stmt 0 view .LVU564
 1827 0018 D4F83090 		ldr	r9, [r4, #48]
 205:lvgl/lvgl/src/widgets/lv_dropdown.c **** #if LV_USE_ARABIC_PERSIAN_CHARS == 0
 1828              		.loc 1 205 54 view .LVU565
 1829 001c B9F1000F 		cmp	r9, #0
 1830 0020 46D0     		beq	.L106
 205:lvgl/lvgl/src/widgets/lv_dropdown.c **** #if LV_USE_ARABIC_PERSIAN_CHARS == 0
 1831              		.loc 1 205 56 discriminator 1 view .LVU566
 1832 0022 4846     		mov	r0, r9
 1833 0024 FFF7FEFF 		bl	strlen
 1834              	.LVL182:
 1835 0028 0546     		mov	r5, r0
 1836              	.L95:
 1837              	.LVL183:
 207:lvgl/lvgl/src/widgets/lv_dropdown.c **** #else
 1838              		.loc 1 207 5 is_stmt 1 discriminator 4 view .LVU567
 207:lvgl/lvgl/src/widgets/lv_dropdown.c **** #else
 1839              		.loc 1 207 22 is_stmt 0 discriminator 4 view .LVU568
 1840 002a 4046     		mov	r0, r8
 1841 002c FFF7FEFF 		bl	strlen
 1842              	.LVL184:
 1843 0030 0746     		mov	r7, r0
 207:lvgl/lvgl/src/widgets/lv_dropdown.c **** #else
 1844              		.loc 1 207 12 discriminator 4 view .LVU569
 1845 0032 411C     		adds	r1, r0, #1
 1846              	.LVL185:
 212:lvgl/lvgl/src/widgets/lv_dropdown.c ****     dropdown->options        = lv_mem_realloc(dropdown->options, new_len + 1);
 1847              		.loc 1 212 5 is_stmt 1 discriminator 4 view .LVU570
 212:lvgl/lvgl/src/widgets/lv_dropdown.c ****     dropdown->options        = lv_mem_realloc(dropdown->options, new_len + 1);
 1848              		.loc 1 212 30 is_stmt 0 discriminator 4 view .LVU571
 1849 0034 2944     		add	r1, r1, r5
 1850              	.LVL186:
 213:lvgl/lvgl/src/widgets/lv_dropdown.c ****     LV_ASSERT_MALLOC(dropdown->options);
 1851              		.loc 1 213 5 is_stmt 1 discriminator 4 view .LVU572
 213:lvgl/lvgl/src/widgets/lv_dropdown.c ****     LV_ASSERT_MALLOC(dropdown->options);
 1852              		.loc 1 213 32 is_stmt 0 discriminator 4 view .LVU573
 1853 0036 0331     		adds	r1, r1, #3
 1854              	.LVL187:
 213:lvgl/lvgl/src/widgets/lv_dropdown.c ****     LV_ASSERT_MALLOC(dropdown->options);
 1855              		.loc 1 213 32 discriminator 4 view .LVU574
 1856 0038 4846     		mov	r0, r9
 1857              	.LVL188:
 213:lvgl/lvgl/src/widgets/lv_dropdown.c ****     LV_ASSERT_MALLOC(dropdown->options);
 1858              		.loc 1 213 32 discriminator 4 view .LVU575
ARM GAS  C:\Users\gx\AppData\Local\Temp\ccIqfrB9.s 			page 70


 1859 003a FFF7FEFF 		bl	lv_mem_realloc
 1860              	.LVL189:
 213:lvgl/lvgl/src/widgets/lv_dropdown.c ****     LV_ASSERT_MALLOC(dropdown->options);
 1861              		.loc 1 213 30 discriminator 4 view .LVU576
 1862 003e 2063     		str	r0, [r4, #48]
 214:lvgl/lvgl/src/widgets/lv_dropdown.c ****     if(dropdown->options == NULL) return;
 1863              		.loc 1 214 5 is_stmt 1 discriminator 4 view .LVU577
 214:lvgl/lvgl/src/widgets/lv_dropdown.c ****     if(dropdown->options == NULL) return;
