ARM GAS  C:\Users\gx\AppData\Local\Temp\cc0GSSNc.s 			page 1


   1              		.cpu cortex-m4
   2              		.eabi_attribute 27, 1
   3              		.eabi_attribute 28, 1
   4              		.eabi_attribute 20, 1
   5              		.eabi_attribute 21, 1
   6              		.eabi_attribute 23, 3
   7              		.eabi_attribute 24, 1
   8              		.eabi_attribute 25, 1
   9              		.eabi_attribute 26, 1
  10              		.eabi_attribute 30, 1
  11              		.eabi_attribute 34, 1
  12              		.eabi_attribute 18, 4
  13              		.file	"lv_draw_line.c"
  14              		.text
  15              	.Ltext0:
  16              		.cfi_sections	.debug_frame
  17              		.section	.text.draw_line_hor,"ax",%progbits
  18              		.align	1
  19              		.arch armv7e-m
  20              		.syntax unified
  21              		.thumb
  22              		.thumb_func
  23              		.fpu fpv4-sp-d16
  25              	draw_line_hor:
  26              	.LVL0:
  27              	.LFB154:
  28              		.file 1 "lvgl/lvgl/src/draw/lv_draw_line.c"
   1:lvgl/lvgl/src/draw/lv_draw_line.c **** /**
   2:lvgl/lvgl/src/draw/lv_draw_line.c ****  * @file lv_draw_line.c
   3:lvgl/lvgl/src/draw/lv_draw_line.c ****  *
   4:lvgl/lvgl/src/draw/lv_draw_line.c ****  */
   5:lvgl/lvgl/src/draw/lv_draw_line.c **** 
   6:lvgl/lvgl/src/draw/lv_draw_line.c **** /*********************
   7:lvgl/lvgl/src/draw/lv_draw_line.c ****  *      INCLUDES
   8:lvgl/lvgl/src/draw/lv_draw_line.c ****  *********************/
   9:lvgl/lvgl/src/draw/lv_draw_line.c **** #include <stdbool.h>
  10:lvgl/lvgl/src/draw/lv_draw_line.c **** #include "lv_draw_mask.h"
  11:lvgl/lvgl/src/draw/lv_draw_line.c **** #include "lv_draw_blend.h"
  12:lvgl/lvgl/src/draw/lv_draw_line.c **** #include "../core/lv_refr.h"
  13:lvgl/lvgl/src/draw/lv_draw_line.c **** #include "../misc/lv_math.h"
  14:lvgl/lvgl/src/draw/lv_draw_line.c **** 
  15:lvgl/lvgl/src/draw/lv_draw_line.c **** /*********************
  16:lvgl/lvgl/src/draw/lv_draw_line.c ****  *      DEFINES
  17:lvgl/lvgl/src/draw/lv_draw_line.c ****  *********************/
  18:lvgl/lvgl/src/draw/lv_draw_line.c **** 
  19:lvgl/lvgl/src/draw/lv_draw_line.c **** /**********************
  20:lvgl/lvgl/src/draw/lv_draw_line.c ****  *      TYPEDEFS
  21:lvgl/lvgl/src/draw/lv_draw_line.c ****  **********************/
  22:lvgl/lvgl/src/draw/lv_draw_line.c **** 
  23:lvgl/lvgl/src/draw/lv_draw_line.c **** /**********************
  24:lvgl/lvgl/src/draw/lv_draw_line.c ****  *  STATIC PROTOTYPES
  25:lvgl/lvgl/src/draw/lv_draw_line.c ****  **********************/
  26:lvgl/lvgl/src/draw/lv_draw_line.c **** 
  27:lvgl/lvgl/src/draw/lv_draw_line.c **** LV_ATTRIBUTE_FAST_MEM static void draw_line_skew(const lv_point_t * point1, const lv_point_t * poin
  28:lvgl/lvgl/src/draw/lv_draw_line.c ****                                                  const lv_area_t * clip,
  29:lvgl/lvgl/src/draw/lv_draw_line.c ****                                                  const lv_draw_line_dsc_t * dsc);
  30:lvgl/lvgl/src/draw/lv_draw_line.c **** 
ARM GAS  C:\Users\gx\AppData\Local\Temp\cc0GSSNc.s 			page 2


  31:lvgl/lvgl/src/draw/lv_draw_line.c **** LV_ATTRIBUTE_FAST_MEM static void draw_line_hor(const lv_point_t * point1, const lv_point_t * point
  32:lvgl/lvgl/src/draw/lv_draw_line.c ****                                                 const lv_area_t * clip,
  33:lvgl/lvgl/src/draw/lv_draw_line.c ****                                                 const lv_draw_line_dsc_t * dsc);
  34:lvgl/lvgl/src/draw/lv_draw_line.c **** LV_ATTRIBUTE_FAST_MEM static void draw_line_ver(const lv_point_t * point1, const lv_point_t * point
  35:lvgl/lvgl/src/draw/lv_draw_line.c ****                                                 const lv_area_t * clip,
  36:lvgl/lvgl/src/draw/lv_draw_line.c ****                                                 const lv_draw_line_dsc_t * dsc);
  37:lvgl/lvgl/src/draw/lv_draw_line.c **** 
  38:lvgl/lvgl/src/draw/lv_draw_line.c **** /**********************
  39:lvgl/lvgl/src/draw/lv_draw_line.c ****  *  STATIC VARIABLES
  40:lvgl/lvgl/src/draw/lv_draw_line.c ****  **********************/
  41:lvgl/lvgl/src/draw/lv_draw_line.c **** 
  42:lvgl/lvgl/src/draw/lv_draw_line.c **** /**********************
  43:lvgl/lvgl/src/draw/lv_draw_line.c ****  *      MACROS
  44:lvgl/lvgl/src/draw/lv_draw_line.c ****  **********************/
  45:lvgl/lvgl/src/draw/lv_draw_line.c **** 
  46:lvgl/lvgl/src/draw/lv_draw_line.c **** /**********************
  47:lvgl/lvgl/src/draw/lv_draw_line.c ****  *   GLOBAL FUNCTIONS
  48:lvgl/lvgl/src/draw/lv_draw_line.c ****  **********************/
  49:lvgl/lvgl/src/draw/lv_draw_line.c **** 
  50:lvgl/lvgl/src/draw/lv_draw_line.c **** LV_ATTRIBUTE_FAST_MEM void lv_draw_line_dsc_init(lv_draw_line_dsc_t * dsc)
  51:lvgl/lvgl/src/draw/lv_draw_line.c **** {
  52:lvgl/lvgl/src/draw/lv_draw_line.c ****     lv_memset_00(dsc, sizeof(lv_draw_line_dsc_t));
  53:lvgl/lvgl/src/draw/lv_draw_line.c ****     dsc->width = 1;
  54:lvgl/lvgl/src/draw/lv_draw_line.c ****     dsc->opa = LV_OPA_COVER;
  55:lvgl/lvgl/src/draw/lv_draw_line.c ****     dsc->color = lv_color_black();
  56:lvgl/lvgl/src/draw/lv_draw_line.c **** }
  57:lvgl/lvgl/src/draw/lv_draw_line.c **** 
  58:lvgl/lvgl/src/draw/lv_draw_line.c **** /**
  59:lvgl/lvgl/src/draw/lv_draw_line.c ****  * Draw a line
  60:lvgl/lvgl/src/draw/lv_draw_line.c ****  * @param point1 first point of the line
  61:lvgl/lvgl/src/draw/lv_draw_line.c ****  * @param point2 second point of the line
  62:lvgl/lvgl/src/draw/lv_draw_line.c ****  * @param clip the line will be drawn only in this area
  63:lvgl/lvgl/src/draw/lv_draw_line.c ****  * @param dsc pointer to an initialized `lv_draw_line_dsc_t` variable
  64:lvgl/lvgl/src/draw/lv_draw_line.c ****  */
  65:lvgl/lvgl/src/draw/lv_draw_line.c **** LV_ATTRIBUTE_FAST_MEM void lv_draw_line(const lv_point_t * point1, const lv_point_t * point2, const
  66:lvgl/lvgl/src/draw/lv_draw_line.c ****                                         const lv_draw_line_dsc_t * dsc)
  67:lvgl/lvgl/src/draw/lv_draw_line.c **** {
  68:lvgl/lvgl/src/draw/lv_draw_line.c ****     if(dsc->width == 0) return;
  69:lvgl/lvgl/src/draw/lv_draw_line.c ****     if(dsc->opa <= LV_OPA_MIN) return;
  70:lvgl/lvgl/src/draw/lv_draw_line.c **** 
  71:lvgl/lvgl/src/draw/lv_draw_line.c ****     if(point1->x == point2->x && point1->y == point2->y) return;
  72:lvgl/lvgl/src/draw/lv_draw_line.c **** 
  73:lvgl/lvgl/src/draw/lv_draw_line.c ****     lv_area_t clip_line;
  74:lvgl/lvgl/src/draw/lv_draw_line.c ****     clip_line.x1 = LV_MIN(point1->x, point2->x) - dsc->width / 2;
  75:lvgl/lvgl/src/draw/lv_draw_line.c ****     clip_line.x2 = LV_MAX(point1->x, point2->x) + dsc->width / 2;
  76:lvgl/lvgl/src/draw/lv_draw_line.c ****     clip_line.y1 = LV_MIN(point1->y, point2->y) - dsc->width / 2;
  77:lvgl/lvgl/src/draw/lv_draw_line.c ****     clip_line.y2 = LV_MAX(point1->y, point2->y) + dsc->width / 2;
  78:lvgl/lvgl/src/draw/lv_draw_line.c **** 
  79:lvgl/lvgl/src/draw/lv_draw_line.c ****     bool is_common;
  80:lvgl/lvgl/src/draw/lv_draw_line.c ****     is_common = _lv_area_intersect(&clip_line, &clip_line, clip);
  81:lvgl/lvgl/src/draw/lv_draw_line.c ****     if(!is_common) return;
  82:lvgl/lvgl/src/draw/lv_draw_line.c **** 
  83:lvgl/lvgl/src/draw/lv_draw_line.c ****     if(point1->y == point2->y) draw_line_hor(point1, point2, &clip_line, dsc);
  84:lvgl/lvgl/src/draw/lv_draw_line.c ****     else if(point1->x == point2->x) draw_line_ver(point1, point2, &clip_line, dsc);
  85:lvgl/lvgl/src/draw/lv_draw_line.c ****     else draw_line_skew(point1, point2, &clip_line, dsc);
  86:lvgl/lvgl/src/draw/lv_draw_line.c **** 
  87:lvgl/lvgl/src/draw/lv_draw_line.c ****     if(dsc->round_end || dsc->round_start) {
ARM GAS  C:\Users\gx\AppData\Local\Temp\cc0GSSNc.s 			page 3


  88:lvgl/lvgl/src/draw/lv_draw_line.c ****         lv_draw_rect_dsc_t cir_dsc;
  89:lvgl/lvgl/src/draw/lv_draw_line.c ****         lv_draw_rect_dsc_init(&cir_dsc);
  90:lvgl/lvgl/src/draw/lv_draw_line.c ****         cir_dsc.bg_color = dsc->color;
  91:lvgl/lvgl/src/draw/lv_draw_line.c ****         cir_dsc.radius = LV_RADIUS_CIRCLE;
  92:lvgl/lvgl/src/draw/lv_draw_line.c ****         cir_dsc.bg_opa = dsc->opa;
  93:lvgl/lvgl/src/draw/lv_draw_line.c **** 
  94:lvgl/lvgl/src/draw/lv_draw_line.c ****         int32_t r = (dsc->width >> 1);
  95:lvgl/lvgl/src/draw/lv_draw_line.c ****         int32_t r_corr = (dsc->width & 1) ? 0 : 1;
  96:lvgl/lvgl/src/draw/lv_draw_line.c ****         lv_area_t cir_area;
  97:lvgl/lvgl/src/draw/lv_draw_line.c **** 
  98:lvgl/lvgl/src/draw/lv_draw_line.c ****         if(dsc->round_start) {
  99:lvgl/lvgl/src/draw/lv_draw_line.c ****             cir_area.x1 = point1->x - r;
 100:lvgl/lvgl/src/draw/lv_draw_line.c ****             cir_area.y1 = point1->y - r;
 101:lvgl/lvgl/src/draw/lv_draw_line.c ****             cir_area.x2 = point1->x + r - r_corr;
 102:lvgl/lvgl/src/draw/lv_draw_line.c ****             cir_area.y2 = point1->y + r - r_corr ;
 103:lvgl/lvgl/src/draw/lv_draw_line.c ****             lv_draw_rect(&cir_area, clip, &cir_dsc);
 104:lvgl/lvgl/src/draw/lv_draw_line.c ****         }
 105:lvgl/lvgl/src/draw/lv_draw_line.c **** 
 106:lvgl/lvgl/src/draw/lv_draw_line.c ****         if(dsc->round_end) {
 107:lvgl/lvgl/src/draw/lv_draw_line.c ****             cir_area.x1 = point2->x - r;
 108:lvgl/lvgl/src/draw/lv_draw_line.c ****             cir_area.y1 = point2->y - r;
 109:lvgl/lvgl/src/draw/lv_draw_line.c ****             cir_area.x2 = point2->x + r - r_corr;
 110:lvgl/lvgl/src/draw/lv_draw_line.c ****             cir_area.y2 = point2->y + r - r_corr ;
 111:lvgl/lvgl/src/draw/lv_draw_line.c ****             lv_draw_rect(&cir_area, clip, &cir_dsc);
 112:lvgl/lvgl/src/draw/lv_draw_line.c ****         }
 113:lvgl/lvgl/src/draw/lv_draw_line.c ****     }
 114:lvgl/lvgl/src/draw/lv_draw_line.c **** }
 115:lvgl/lvgl/src/draw/lv_draw_line.c **** 
 116:lvgl/lvgl/src/draw/lv_draw_line.c **** /**********************
 117:lvgl/lvgl/src/draw/lv_draw_line.c ****  *   STATIC FUNCTIONS
 118:lvgl/lvgl/src/draw/lv_draw_line.c ****  **********************/
 119:lvgl/lvgl/src/draw/lv_draw_line.c **** 
 120:lvgl/lvgl/src/draw/lv_draw_line.c **** LV_ATTRIBUTE_FAST_MEM static void draw_line_hor(const lv_point_t * point1, const lv_point_t * point
 121:lvgl/lvgl/src/draw/lv_draw_line.c ****                                                 const lv_area_t * clip,
 122:lvgl/lvgl/src/draw/lv_draw_line.c ****                                                 const lv_draw_line_dsc_t * dsc)
 123:lvgl/lvgl/src/draw/lv_draw_line.c **** {
  29              		.loc 1 123 1 view -0
  30              		.cfi_startproc
  31              		@ args = 0, pretend = 0, frame = 24
  32              		@ frame_needed = 0, uses_anonymous_args = 0
  33              		.loc 1 123 1 is_stmt 0 view .LVU1
  34 0000 2DE9F04F 		push	{r4, r5, r6, r7, r8, r9, r10, fp, lr}
  35              	.LCFI0:
  36              		.cfi_def_cfa_offset 36
  37              		.cfi_offset 4, -36
  38              		.cfi_offset 5, -32
  39              		.cfi_offset 6, -28
  40              		.cfi_offset 7, -24
  41              		.cfi_offset 8, -20
  42              		.cfi_offset 9, -16
  43              		.cfi_offset 10, -12
  44              		.cfi_offset 11, -8
  45              		.cfi_offset 14, -4
  46 0004 8BB0     		sub	sp, sp, #44
  47              	.LCFI1:
  48              		.cfi_def_cfa_offset 80
  49 0006 9246     		mov	r10, r2
ARM GAS  C:\Users\gx\AppData\Local\Temp\cc0GSSNc.s 			page 4


  50 0008 1C46     		mov	r4, r3
 124:lvgl/lvgl/src/draw/lv_draw_line.c ****     lv_opa_t opa = dsc->opa;
  51              		.loc 1 124 5 is_stmt 1 view .LVU2
  52              		.loc 1 124 14 is_stmt 0 view .LVU3
  53 000a 1D7A     		ldrb	r5, [r3, #8]	@ zero_extendqisi2
  54              	.LVL1:
 125:lvgl/lvgl/src/draw/lv_draw_line.c **** 
 126:lvgl/lvgl/src/draw/lv_draw_line.c ****     int32_t w = dsc->width - 1;
  55              		.loc 1 126 5 is_stmt 1 view .LVU4
  56              		.loc 1 126 20 is_stmt 0 view .LVU5
  57 000c B3F90220 		ldrsh	r2, [r3, #2]
  58              	.LVL2:
  59              		.loc 1 126 13 view .LVU6
  60 0010 013A     		subs	r2, r2, #1
  61              	.LVL3:
 127:lvgl/lvgl/src/draw/lv_draw_line.c ****     int32_t w_half0 = w >> 1;
  62              		.loc 1 127 5 is_stmt 1 view .LVU7
 128:lvgl/lvgl/src/draw/lv_draw_line.c ****     int32_t w_half1 = w_half0 + (w & 0x1); /*Compensate rounding error*/
  63              		.loc 1 128 5 view .LVU8
  64              		.loc 1 128 36 is_stmt 0 view .LVU9
  65 0012 02F00106 		and	r6, r2, #1
  66              		.loc 1 128 13 view .LVU10
  67 0016 06EB6206 		add	r6, r6, r2, asr #1
  68              	.LVL4:
 129:lvgl/lvgl/src/draw/lv_draw_line.c **** 
 130:lvgl/lvgl/src/draw/lv_draw_line.c **** 
 131:lvgl/lvgl/src/draw/lv_draw_line.c **** 
 132:lvgl/lvgl/src/draw/lv_draw_line.c ****     lv_area_t draw_area;
  69              		.loc 1 132 5 is_stmt 1 view .LVU11
 133:lvgl/lvgl/src/draw/lv_draw_line.c ****     draw_area.x1 = LV_MIN(point1->x, point2->x);
  70              		.loc 1 133 5 view .LVU12
  71              		.loc 1 133 20 is_stmt 0 view .LVU13
  72 001a B1F90030 		ldrsh	r3, [r1]
  73              	.LVL5:
  74              		.loc 1 133 20 view .LVU14
  75 001e B0F90010 		ldrsh	r1, [r0]
  76              	.LVL6:
  77              		.loc 1 133 20 view .LVU15
  78 0022 1F46     		mov	r7, r3
  79 0024 8B42     		cmp	r3, r1
  80 0026 A8BF     		it	ge
  81 0028 0F46     		movge	r7, r1
  82              		.loc 1 133 18 view .LVU16
  83 002a ADF82070 		strh	r7, [sp, #32]	@ movhi
 134:lvgl/lvgl/src/draw/lv_draw_line.c ****     draw_area.x2 = LV_MAX(point1->x, point2->x)  - 1;
  84              		.loc 1 134 5 is_stmt 1 view .LVU17
  85              		.loc 1 134 20 is_stmt 0 view .LVU18
  86 002e 8B42     		cmp	r3, r1
  87 0030 B8BF     		it	lt
  88 0032 0B46     		movlt	r3, r1
  89 0034 9BB2     		uxth	r3, r3
  90              		.loc 1 134 50 view .LVU19
  91 0036 013B     		subs	r3, r3, #1
  92              		.loc 1 134 18 view .LVU20
  93 0038 ADF82430 		strh	r3, [sp, #36]	@ movhi
 135:lvgl/lvgl/src/draw/lv_draw_line.c ****     draw_area.y1 = point1->y - w_half1;
  94              		.loc 1 135 5 is_stmt 1 view .LVU21
ARM GAS  C:\Users\gx\AppData\Local\Temp\cc0GSSNc.s 			page 5


  95              		.loc 1 135 26 is_stmt 0 view .LVU22
  96 003c 4388     		ldrh	r3, [r0, #2]
  97              		.loc 1 135 30 view .LVU23
  98 003e 9E1B     		subs	r6, r3, r6
  99              	.LVL7:
 100              		.loc 1 135 18 view .LVU24
 101 0040 ADF82260 		strh	r6, [sp, #34]	@ movhi
 136:lvgl/lvgl/src/draw/lv_draw_line.c ****     draw_area.y2 = point1->y + w_half0;
 102              		.loc 1 136 5 is_stmt 1 view .LVU25
 103              		.loc 1 136 30 is_stmt 0 view .LVU26
 104 0044 03EB6202 		add	r2, r3, r2, asr #1
 105              	.LVL8:
 106              		.loc 1 136 18 view .LVU27
 107 0048 ADF82620 		strh	r2, [sp, #38]	@ movhi
 137:lvgl/lvgl/src/draw/lv_draw_line.c **** 
 138:lvgl/lvgl/src/draw/lv_draw_line.c ****     bool dashed = dsc->dash_gap && dsc->dash_width ? true : false;
 108              		.loc 1 138 5 is_stmt 1 view .LVU28
 109              		.loc 1 138 22 is_stmt 0 view .LVU29
 110 004c B4F90630 		ldrsh	r3, [r4, #6]
 111              		.loc 1 138 59 view .LVU30
 112 0050 33B1     		cbz	r3, .L15
 113              		.loc 1 138 39 discriminator 1 view .LVU31
 114 0052 B4F90430 		ldrsh	r3, [r4, #4]
 115              		.loc 1 138 59 discriminator 1 view .LVU32
 116 0056 002B     		cmp	r3, #0
 117 0058 52D1     		bne	.L16
 118              		.loc 1 138 59 view .LVU33
 119 005a 4FF00009 		mov	r9, #0
 120 005e 01E0     		b	.L2
 121              	.L15:
 122 0060 4FF00009 		mov	r9, #0
 123              	.L2:
 124              	.LVL9:
 139:lvgl/lvgl/src/draw/lv_draw_line.c ****     bool simple_mode = true;
 125              		.loc 1 139 5 is_stmt 1 discriminator 6 view .LVU34
 140:lvgl/lvgl/src/draw/lv_draw_line.c ****     if(lv_draw_mask_is_any(&draw_area)) simple_mode = false;
 126              		.loc 1 140 5 discriminator 6 view .LVU35
 127              		.loc 1 140 8 is_stmt 0 discriminator 6 view .LVU36
 128 0064 08A8     		add	r0, sp, #32
 129              	.LVL10:
 130              		.loc 1 140 8 discriminator 6 view .LVU37
 131 0066 FFF7FEFF 		bl	lv_draw_mask_is_any
 132              	.LVL11:
 133              		.loc 1 140 7 discriminator 6 view .LVU38
 134 006a 10B9     		cbnz	r0, .L3
 141:lvgl/lvgl/src/draw/lv_draw_line.c ****     else if(dashed) simple_mode = false;
 135              		.loc 1 141 10 is_stmt 1 view .LVU39
 136              		.loc 1 141 12 is_stmt 0 view .LVU40
 137 006c B9F1000F 		cmp	r9, #0
 138 0070 49D0     		beq	.L21
 139              	.L3:
 140              	.LVL12:
 141              	.LBB21:
 142:lvgl/lvgl/src/draw/lv_draw_line.c **** 
 143:lvgl/lvgl/src/draw/lv_draw_line.c ****     /*If there is no mask then simply draw a rectangle*/
 144:lvgl/lvgl/src/draw/lv_draw_line.c ****     if(simple_mode) {
 145:lvgl/lvgl/src/draw/lv_draw_line.c ****         _lv_blend_fill(clip, &draw_area,
ARM GAS  C:\Users\gx\AppData\Local\Temp\cc0GSSNc.s 			page 6


 146:lvgl/lvgl/src/draw/lv_draw_line.c ****                        dsc->color, NULL, LV_DRAW_MASK_RES_FULL_COVER, opa,
 147:lvgl/lvgl/src/draw/lv_draw_line.c ****                        dsc->blend_mode);
 148:lvgl/lvgl/src/draw/lv_draw_line.c ****     }
 149:lvgl/lvgl/src/draw/lv_draw_line.c **** #if LV_DRAW_COMPLEX
 150:lvgl/lvgl/src/draw/lv_draw_line.c ****     /*If there other mask apply it*/
 151:lvgl/lvgl/src/draw/lv_draw_line.c ****     else {
 152:lvgl/lvgl/src/draw/lv_draw_line.c ****         lv_disp_t * disp = _lv_refr_get_disp_refreshing();
 142              		.loc 1 152 9 is_stmt 1 view .LVU41
 143              		.loc 1 152 28 is_stmt 0 view .LVU42
 144 0072 FFF7FEFF 		bl	_lv_refr_get_disp_refreshing
 145              	.LVL13:
 153:lvgl/lvgl/src/draw/lv_draw_line.c ****         lv_disp_draw_buf_t * draw_buf = lv_disp_get_draw_buf(disp);
 146              		.loc 1 153 9 is_stmt 1 view .LVU43
 147              		.loc 1 153 41 is_stmt 0 view .LVU44
 148 0076 FFF7FEFF 		bl	lv_disp_get_draw_buf
 149              	.LVL14:
 150              		.loc 1 153 41 view .LVU45
 151 007a 8046     		mov	r8, r0
 152              	.LVL15:
 154:lvgl/lvgl/src/draw/lv_draw_line.c ****         const lv_area_t * disp_area = &draw_buf->area;
 153              		.loc 1 154 9 is_stmt 1 view .LVU46
 155:lvgl/lvgl/src/draw/lv_draw_line.c ****         /*Get clipped fill area which is the real draw area.
 156:lvgl/lvgl/src/draw/lv_draw_line.c ****          *It is always the same or inside `fill_area`*/
 157:lvgl/lvgl/src/draw/lv_draw_line.c ****         bool is_common;
 154              		.loc 1 157 9 view .LVU47
 158:lvgl/lvgl/src/draw/lv_draw_line.c ****         is_common = _lv_area_intersect(&draw_area, clip, &draw_area);
 155              		.loc 1 158 9 view .LVU48
 156              		.loc 1 158 21 is_stmt 0 view .LVU49
 157 007c 08AA     		add	r2, sp, #32
 158 007e 5146     		mov	r1, r10
 159 0080 1046     		mov	r0, r2
 160              	.LVL16:
 161              		.loc 1 158 21 view .LVU50
 162 0082 FFF7FEFF 		bl	_lv_area_intersect
 163              	.LVL17:
 159:lvgl/lvgl/src/draw/lv_draw_line.c ****         if(!is_common) return;
 164              		.loc 1 159 9 is_stmt 1 view .LVU51
 165              		.loc 1 159 11 is_stmt 0 view .LVU52
 166 0086 0028     		cmp	r0, #0
 167 0088 00F0A980 		beq	.L1
 160:lvgl/lvgl/src/draw/lv_draw_line.c **** 
 161:lvgl/lvgl/src/draw/lv_draw_line.c ****         /*Now `draw_area` has absolute coordinates.
 162:lvgl/lvgl/src/draw/lv_draw_line.c ****          *Make it relative to `disp_area` to simplify draw to `disp_buf`*/
 163:lvgl/lvgl/src/draw/lv_draw_line.c ****         draw_area.x1 -= disp_area->x1;
 168              		.loc 1 163 9 is_stmt 1 view .LVU53
 169              		.loc 1 163 22 is_stmt 0 view .LVU54
 170 008c BDF92070 		ldrsh	r7, [sp, #32]
 171              		.loc 1 163 34 view .LVU55
 172 0090 B8F91010 		ldrsh	r1, [r8, #16]
 173 0094 8BB2     		uxth	r3, r1
 174              		.loc 1 163 22 view .LVU56
 175 0096 FA1A     		subs	r2, r7, r3
 176 0098 95B2     		uxth	r5, r2
 177              	.LVL18:
 178              		.loc 1 163 22 view .LVU57
 179 009a 12B2     		sxth	r2, r2
 180 009c ADF82020 		strh	r2, [sp, #32]	@ movhi
ARM GAS  C:\Users\gx\AppData\Local\Temp\cc0GSSNc.s 			page 7


 164:lvgl/lvgl/src/draw/lv_draw_line.c ****         draw_area.y1 -= disp_area->y1;
 181              		.loc 1 164 9 is_stmt 1 view .LVU58
 182              		.loc 1 164 22 is_stmt 0 view .LVU59
 183 00a0 BDF92200 		ldrsh	r0, [sp, #34]
 184              	.LVL19:
 185              		.loc 1 164 34 view .LVU60
 186 00a4 B8F812C0 		ldrh	ip, [r8, #18]
 187              		.loc 1 164 22 view .LVU61
 188 00a8 A0EB0C06 		sub	r6, r0, ip
 189 00ac ADF82260 		strh	r6, [sp, #34]	@ movhi
 165:lvgl/lvgl/src/draw/lv_draw_line.c ****         draw_area.x2 -= disp_area->x1;
 190              		.loc 1 165 9 is_stmt 1 view .LVU62
 191              		.loc 1 165 22 is_stmt 0 view .LVU63
 192 00b0 BDF92460 		ldrsh	r6, [sp, #36]
 193 00b4 F31A     		subs	r3, r6, r3
 194 00b6 9BB2     		uxth	r3, r3
 195 00b8 ADF82430 		strh	r3, [sp, #36]	@ movhi
 166:lvgl/lvgl/src/draw/lv_draw_line.c ****         draw_area.y2 -= disp_area->y1;
 196              		.loc 1 166 9 is_stmt 1 view .LVU64
 197              		.loc 1 166 22 is_stmt 0 view .LVU65
 198 00bc BDF826E0 		ldrh	lr, [sp, #38]
 199 00c0 AEEB0C0C 		sub	ip, lr, ip
 200 00c4 ADF826C0 		strh	ip, [sp, #38]	@ movhi
 167:lvgl/lvgl/src/draw/lv_draw_line.c **** 
 168:lvgl/lvgl/src/draw/lv_draw_line.c ****         int32_t draw_area_w = lv_area_get_width(&draw_area);
 201              		.loc 1 168 9 is_stmt 1 view .LVU66
 202              	.LVL20:
 203              	.LBB22:
 204              	.LBI22:
 205              		.file 2 "lvgl/lvgl/src/draw/../misc/lv_area.h"
   1:lvgl/lvgl/src/draw/../misc/lv_area.h **** /**
   2:lvgl/lvgl/src/draw/../misc/lv_area.h ****  * @file lv_area.h
   3:lvgl/lvgl/src/draw/../misc/lv_area.h ****  *
   4:lvgl/lvgl/src/draw/../misc/lv_area.h ****  */
   5:lvgl/lvgl/src/draw/../misc/lv_area.h **** 
   6:lvgl/lvgl/src/draw/../misc/lv_area.h **** #ifndef LV_AREA_H
   7:lvgl/lvgl/src/draw/../misc/lv_area.h **** #define LV_AREA_H
   8:lvgl/lvgl/src/draw/../misc/lv_area.h **** 
   9:lvgl/lvgl/src/draw/../misc/lv_area.h **** #ifdef __cplusplus
  10:lvgl/lvgl/src/draw/../misc/lv_area.h **** extern "C" {
  11:lvgl/lvgl/src/draw/../misc/lv_area.h **** #endif
  12:lvgl/lvgl/src/draw/../misc/lv_area.h **** 
  13:lvgl/lvgl/src/draw/../misc/lv_area.h **** /*********************
  14:lvgl/lvgl/src/draw/../misc/lv_area.h ****  *      INCLUDES
  15:lvgl/lvgl/src/draw/../misc/lv_area.h ****  *********************/
  16:lvgl/lvgl/src/draw/../misc/lv_area.h **** #include "../lv_conf_internal.h"
  17:lvgl/lvgl/src/draw/../misc/lv_area.h **** #include <string.h>
  18:lvgl/lvgl/src/draw/../misc/lv_area.h **** #include <stdbool.h>
  19:lvgl/lvgl/src/draw/../misc/lv_area.h **** #include <stdint.h>
  20:lvgl/lvgl/src/draw/../misc/lv_area.h **** 
  21:lvgl/lvgl/src/draw/../misc/lv_area.h **** /*********************
  22:lvgl/lvgl/src/draw/../misc/lv_area.h ****  *      DEFINES
  23:lvgl/lvgl/src/draw/../misc/lv_area.h ****  *********************/
  24:lvgl/lvgl/src/draw/../misc/lv_area.h **** 
  25:lvgl/lvgl/src/draw/../misc/lv_area.h **** #define _LV_COORD_MAX_REDUCE    8192
  26:lvgl/lvgl/src/draw/../misc/lv_area.h **** 
  27:lvgl/lvgl/src/draw/../misc/lv_area.h **** #if LV_USE_LARGE_COORD
ARM GAS  C:\Users\gx\AppData\Local\Temp\cc0GSSNc.s 			page 8


  28:lvgl/lvgl/src/draw/../misc/lv_area.h **** typedef int32_t lv_coord_t;
  29:lvgl/lvgl/src/draw/../misc/lv_area.h **** #else
  30:lvgl/lvgl/src/draw/../misc/lv_area.h **** typedef int16_t lv_coord_t;
  31:lvgl/lvgl/src/draw/../misc/lv_area.h **** #endif
  32:lvgl/lvgl/src/draw/../misc/lv_area.h **** 
  33:lvgl/lvgl/src/draw/../misc/lv_area.h **** /*To allow some special values in the end reduce the max value*/
  34:lvgl/lvgl/src/draw/../misc/lv_area.h **** #define LV_COORD_MAX ((lv_coord_t)((uint32_t)((uint32_t)1 << (8 * sizeof(lv_coord_t) - 1)) - _LV_CO
  35:lvgl/lvgl/src/draw/../misc/lv_area.h **** #define LV_COORD_MIN (-LV_COORD_MAX)
  36:lvgl/lvgl/src/draw/../misc/lv_area.h **** 
  37:lvgl/lvgl/src/draw/../misc/lv_area.h **** LV_EXPORT_CONST_INT(LV_COORD_MAX);
  38:lvgl/lvgl/src/draw/../misc/lv_area.h **** LV_EXPORT_CONST_INT(LV_COORD_MIN);
  39:lvgl/lvgl/src/draw/../misc/lv_area.h **** 
  40:lvgl/lvgl/src/draw/../misc/lv_area.h **** /**********************
  41:lvgl/lvgl/src/draw/../misc/lv_area.h ****  *      TYPEDEFS
  42:lvgl/lvgl/src/draw/../misc/lv_area.h ****  **********************/
  43:lvgl/lvgl/src/draw/../misc/lv_area.h **** 
  44:lvgl/lvgl/src/draw/../misc/lv_area.h **** /**
  45:lvgl/lvgl/src/draw/../misc/lv_area.h ****  * Represents a point on the screen.
  46:lvgl/lvgl/src/draw/../misc/lv_area.h ****  */
  47:lvgl/lvgl/src/draw/../misc/lv_area.h **** typedef struct {
  48:lvgl/lvgl/src/draw/../misc/lv_area.h ****     lv_coord_t x;
  49:lvgl/lvgl/src/draw/../misc/lv_area.h ****     lv_coord_t y;
  50:lvgl/lvgl/src/draw/../misc/lv_area.h **** } lv_point_t;
  51:lvgl/lvgl/src/draw/../misc/lv_area.h **** 
  52:lvgl/lvgl/src/draw/../misc/lv_area.h **** /** Represents an area of the screen.*/
  53:lvgl/lvgl/src/draw/../misc/lv_area.h **** typedef struct {
  54:lvgl/lvgl/src/draw/../misc/lv_area.h ****     lv_coord_t x1;
  55:lvgl/lvgl/src/draw/../misc/lv_area.h ****     lv_coord_t y1;
  56:lvgl/lvgl/src/draw/../misc/lv_area.h ****     lv_coord_t x2;
  57:lvgl/lvgl/src/draw/../misc/lv_area.h ****     lv_coord_t y2;
  58:lvgl/lvgl/src/draw/../misc/lv_area.h **** } lv_area_t;
  59:lvgl/lvgl/src/draw/../misc/lv_area.h **** 
  60:lvgl/lvgl/src/draw/../misc/lv_area.h **** /** Alignments*/
  61:lvgl/lvgl/src/draw/../misc/lv_area.h **** enum {
  62:lvgl/lvgl/src/draw/../misc/lv_area.h ****     LV_ALIGN_DEFAULT = 0,
  63:lvgl/lvgl/src/draw/../misc/lv_area.h ****     LV_ALIGN_TOP_LEFT,
  64:lvgl/lvgl/src/draw/../misc/lv_area.h ****     LV_ALIGN_TOP_MID,
  65:lvgl/lvgl/src/draw/../misc/lv_area.h ****     LV_ALIGN_TOP_RIGHT,
  66:lvgl/lvgl/src/draw/../misc/lv_area.h ****     LV_ALIGN_BOTTOM_LEFT,
  67:lvgl/lvgl/src/draw/../misc/lv_area.h ****     LV_ALIGN_BOTTOM_MID,
  68:lvgl/lvgl/src/draw/../misc/lv_area.h ****     LV_ALIGN_BOTTOM_RIGHT,
  69:lvgl/lvgl/src/draw/../misc/lv_area.h ****     LV_ALIGN_LEFT_MID,
  70:lvgl/lvgl/src/draw/../misc/lv_area.h ****     LV_ALIGN_RIGHT_MID,
  71:lvgl/lvgl/src/draw/../misc/lv_area.h ****     LV_ALIGN_CENTER,
  72:lvgl/lvgl/src/draw/../misc/lv_area.h **** 
  73:lvgl/lvgl/src/draw/../misc/lv_area.h ****     LV_ALIGN_OUT_TOP_LEFT,
  74:lvgl/lvgl/src/draw/../misc/lv_area.h ****     LV_ALIGN_OUT_TOP_MID,
  75:lvgl/lvgl/src/draw/../misc/lv_area.h ****     LV_ALIGN_OUT_TOP_RIGHT,
  76:lvgl/lvgl/src/draw/../misc/lv_area.h ****     LV_ALIGN_OUT_BOTTOM_LEFT,
  77:lvgl/lvgl/src/draw/../misc/lv_area.h ****     LV_ALIGN_OUT_BOTTOM_MID,
  78:lvgl/lvgl/src/draw/../misc/lv_area.h ****     LV_ALIGN_OUT_BOTTOM_RIGHT,
  79:lvgl/lvgl/src/draw/../misc/lv_area.h ****     LV_ALIGN_OUT_LEFT_TOP,
  80:lvgl/lvgl/src/draw/../misc/lv_area.h ****     LV_ALIGN_OUT_LEFT_MID,
  81:lvgl/lvgl/src/draw/../misc/lv_area.h ****     LV_ALIGN_OUT_LEFT_BOTTOM,
  82:lvgl/lvgl/src/draw/../misc/lv_area.h ****     LV_ALIGN_OUT_RIGHT_TOP,
  83:lvgl/lvgl/src/draw/../misc/lv_area.h ****     LV_ALIGN_OUT_RIGHT_MID,
  84:lvgl/lvgl/src/draw/../misc/lv_area.h ****     LV_ALIGN_OUT_RIGHT_BOTTOM,
ARM GAS  C:\Users\gx\AppData\Local\Temp\cc0GSSNc.s 			page 9


  85:lvgl/lvgl/src/draw/../misc/lv_area.h **** };
  86:lvgl/lvgl/src/draw/../misc/lv_area.h **** typedef uint8_t lv_align_t;
  87:lvgl/lvgl/src/draw/../misc/lv_area.h **** 
  88:lvgl/lvgl/src/draw/../misc/lv_area.h **** enum {
  89:lvgl/lvgl/src/draw/../misc/lv_area.h ****     LV_DIR_NONE     = 0x00,
  90:lvgl/lvgl/src/draw/../misc/lv_area.h ****     LV_DIR_LEFT     = (1 << 0),
  91:lvgl/lvgl/src/draw/../misc/lv_area.h ****     LV_DIR_RIGHT    = (1 << 1),
  92:lvgl/lvgl/src/draw/../misc/lv_area.h ****     LV_DIR_TOP      = (1 << 2),
  93:lvgl/lvgl/src/draw/../misc/lv_area.h ****     LV_DIR_BOTTOM   = (1 << 3),
  94:lvgl/lvgl/src/draw/../misc/lv_area.h ****     LV_DIR_HOR      = LV_DIR_LEFT | LV_DIR_RIGHT,
  95:lvgl/lvgl/src/draw/../misc/lv_area.h ****     LV_DIR_VER      = LV_DIR_TOP | LV_DIR_BOTTOM,
  96:lvgl/lvgl/src/draw/../misc/lv_area.h ****     LV_DIR_ALL      = LV_DIR_HOR | LV_DIR_VER,
  97:lvgl/lvgl/src/draw/../misc/lv_area.h **** };
  98:lvgl/lvgl/src/draw/../misc/lv_area.h **** 
  99:lvgl/lvgl/src/draw/../misc/lv_area.h **** typedef uint8_t lv_dir_t;
 100:lvgl/lvgl/src/draw/../misc/lv_area.h **** 
 101:lvgl/lvgl/src/draw/../misc/lv_area.h **** /**********************
 102:lvgl/lvgl/src/draw/../misc/lv_area.h ****  * GLOBAL PROTOTYPES
 103:lvgl/lvgl/src/draw/../misc/lv_area.h ****  **********************/
 104:lvgl/lvgl/src/draw/../misc/lv_area.h **** 
 105:lvgl/lvgl/src/draw/../misc/lv_area.h **** /**
 106:lvgl/lvgl/src/draw/../misc/lv_area.h ****  * Initialize an area
 107:lvgl/lvgl/src/draw/../misc/lv_area.h ****  * @param area_p pointer to an area
 108:lvgl/lvgl/src/draw/../misc/lv_area.h ****  * @param x1 left coordinate of the area
 109:lvgl/lvgl/src/draw/../misc/lv_area.h ****  * @param y1 top coordinate of the area
 110:lvgl/lvgl/src/draw/../misc/lv_area.h ****  * @param x2 right coordinate of the area
 111:lvgl/lvgl/src/draw/../misc/lv_area.h ****  * @param y2 bottom coordinate of the area
 112:lvgl/lvgl/src/draw/../misc/lv_area.h ****  */
 113:lvgl/lvgl/src/draw/../misc/lv_area.h **** void lv_area_set(lv_area_t * area_p, lv_coord_t x1, lv_coord_t y1, lv_coord_t x2, lv_coord_t y2);
 114:lvgl/lvgl/src/draw/../misc/lv_area.h **** 
 115:lvgl/lvgl/src/draw/../misc/lv_area.h **** /**
 116:lvgl/lvgl/src/draw/../misc/lv_area.h ****  * Copy an area
 117:lvgl/lvgl/src/draw/../misc/lv_area.h ****  * @param dest pointer to the destination area
 118:lvgl/lvgl/src/draw/../misc/lv_area.h ****  * @param src pointer to the source area
 119:lvgl/lvgl/src/draw/../misc/lv_area.h ****  */
 120:lvgl/lvgl/src/draw/../misc/lv_area.h **** inline static void lv_area_copy(lv_area_t * dest, const lv_area_t * src)
 121:lvgl/lvgl/src/draw/../misc/lv_area.h **** {
 122:lvgl/lvgl/src/draw/../misc/lv_area.h ****     dest->x1 = src->x1;
 123:lvgl/lvgl/src/draw/../misc/lv_area.h ****     dest->y1 = src->y1;
 124:lvgl/lvgl/src/draw/../misc/lv_area.h ****     dest->x2 = src->x2;
 125:lvgl/lvgl/src/draw/../misc/lv_area.h ****     dest->y2 = src->y2;
 126:lvgl/lvgl/src/draw/../misc/lv_area.h **** }
 127:lvgl/lvgl/src/draw/../misc/lv_area.h **** 
 128:lvgl/lvgl/src/draw/../misc/lv_area.h **** /**
 129:lvgl/lvgl/src/draw/../misc/lv_area.h ****  * Get the width of an area
 130:lvgl/lvgl/src/draw/../misc/lv_area.h ****  * @param area_p pointer to an area
 131:lvgl/lvgl/src/draw/../misc/lv_area.h ****  * @return the width of the area (if x1 == x2 -> width = 1)
 132:lvgl/lvgl/src/draw/../misc/lv_area.h ****  */
 133:lvgl/lvgl/src/draw/../misc/lv_area.h **** static inline lv_coord_t lv_area_get_width(const lv_area_t * area_p)
 206              		.loc 2 133 26 view .LVU67
 207              	.LBB23:
 134:lvgl/lvgl/src/draw/../misc/lv_area.h **** {
 135:lvgl/lvgl/src/draw/../misc/lv_area.h ****     return (lv_coord_t)(area_p->x2 - area_p->x1 + 1);
 208              		.loc 2 135 5 view .LVU68
 209              		.loc 2 135 36 is_stmt 0 view .LVU69
 210 00c8 5D1B     		subs	r5, r3, r5
 211 00ca ADB2     		uxth	r5, r5
ARM GAS  C:\Users\gx\AppData\Local\Temp\cc0GSSNc.s 			page 10


 212              		.loc 2 135 49 view .LVU70
 213 00cc 0135     		adds	r5, r5, #1
 214              		.loc 2 135 12 view .LVU71
 215 00ce 2DB2     		sxth	r5, r5
 216              	.LVL21:
 217              		.loc 2 135 12 view .LVU72
 218              	.LBE23:
 219              	.LBE22:
 169:lvgl/lvgl/src/draw/lv_draw_line.c **** 
 170:lvgl/lvgl/src/draw/lv_draw_line.c ****         lv_area_t fill_area;
 220              		.loc 1 170 9 is_stmt 1 view .LVU73
 171:lvgl/lvgl/src/draw/lv_draw_line.c ****         fill_area.x1 = draw_area.x1 + disp_area->x1;
 221              		.loc 1 171 9 view .LVU74
 222              		.loc 1 171 22 is_stmt 0 view .LVU75
 223 00d0 ADF81870 		strh	r7, [sp, #24]	@ movhi
 172:lvgl/lvgl/src/draw/lv_draw_line.c ****         fill_area.x2 = draw_area.x2 + disp_area->x1;
 224              		.loc 1 172 9 is_stmt 1 view .LVU76
 225              		.loc 1 172 22 is_stmt 0 view .LVU77
 226 00d4 ADF81C60 		strh	r6, [sp, #28]	@ movhi
 173:lvgl/lvgl/src/draw/lv_draw_line.c ****         fill_area.y1 = draw_area.y1 + disp_area->y1;
 227              		.loc 1 173 9 is_stmt 1 view .LVU78
 228              		.loc 1 173 22 is_stmt 0 view .LVU79
 229 00d8 ADF81A00 		strh	r0, [sp, #26]	@ movhi
 174:lvgl/lvgl/src/draw/lv_draw_line.c ****         fill_area.y2 = fill_area.y1;
 230              		.loc 1 174 9 is_stmt 1 view .LVU80
 231              		.loc 1 174 22 is_stmt 0 view .LVU81
 232 00dc ADF81E00 		strh	r0, [sp, #30]	@ movhi
 175:lvgl/lvgl/src/draw/lv_draw_line.c **** 
 176:lvgl/lvgl/src/draw/lv_draw_line.c ****         lv_coord_t dash_start = 0;
 233              		.loc 1 176 9 is_stmt 1 view .LVU82
 234              	.LVL22:
 177:lvgl/lvgl/src/draw/lv_draw_line.c ****         if(dashed) {
 235              		.loc 1 177 9 view .LVU83
 236              		.loc 1 177 11 is_stmt 0 view .LVU84
 237 00e0 B9F1000F 		cmp	r9, #0
 238 00e4 1DD0     		beq	.L17
 178:lvgl/lvgl/src/draw/lv_draw_line.c ****             dash_start = (draw_buf->area.x1 + draw_area.x1) % (dsc->dash_gap + dsc->dash_width);
 239              		.loc 1 178 13 is_stmt 1 view .LVU85
 240              		.loc 1 178 45 is_stmt 0 view .LVU86
 241 00e6 0A44     		add	r2, r2, r1
 242              		.loc 1 178 67 view .LVU87
 243 00e8 B4F90630 		ldrsh	r3, [r4, #6]
 244              		.loc 1 178 83 view .LVU88
 245 00ec B4F90410 		ldrsh	r1, [r4, #4]
 246              		.loc 1 178 78 view .LVU89
 247 00f0 0B44     		add	r3, r3, r1
 248              		.loc 1 178 61 view .LVU90
 249 00f2 92FBF3F1 		sdiv	r1, r2, r3
 250 00f6 03FB1122 		mls	r2, r3, r1, r2
 251              		.loc 1 178 24 view .LVU91
 252 00fa 13B2     		sxth	r3, r2
 253 00fc 0593     		str	r3, [sp, #20]
 254              	.LVL23:
 255              		.loc 1 178 24 view .LVU92
 256 00fe 12E0     		b	.L7
 257              	.LVL24:
 258              	.L16:
ARM GAS  C:\Users\gx\AppData\Local\Temp\cc0GSSNc.s 			page 11


 259              		.loc 1 178 24 view .LVU93
 260              	.LBE21:
 138:lvgl/lvgl/src/draw/lv_draw_line.c ****     bool simple_mode = true;
 261              		.loc 1 138 59 view .LVU94
 262 0100 4FF00109 		mov	r9, #1
 263 0104 AEE7     		b	.L2
 264              	.LVL25:
 265              	.L21:
 144:lvgl/lvgl/src/draw/lv_draw_line.c ****         _lv_blend_fill(clip, &draw_area,
 266              		.loc 1 144 5 is_stmt 1 view .LVU95
 145:lvgl/lvgl/src/draw/lv_draw_line.c ****                        dsc->color, NULL, LV_DRAW_MASK_RES_FULL_COVER, opa,
 267              		.loc 1 145 9 view .LVU96
 147:lvgl/lvgl/src/draw/lv_draw_line.c ****     }
 268              		.loc 1 147 27 is_stmt 0 view .LVU97
 269 0106 637A     		ldrb	r3, [r4, #9]	@ zero_extendqisi2
 270 0108 03F00303 		and	r3, r3, #3
 145:lvgl/lvgl/src/draw/lv_draw_line.c ****                        dsc->color, NULL, LV_DRAW_MASK_RES_FULL_COVER, opa,
 271              		.loc 1 145 9 view .LVU98
 272 010c 0293     		str	r3, [sp, #8]
 273 010e 0195     		str	r5, [sp, #4]
 274 0110 0123     		movs	r3, #1
 275 0112 0093     		str	r3, [sp]
 276 0114 0023     		movs	r3, #0
 277 0116 2288     		ldrh	r2, [r4]
 278 0118 08A9     		add	r1, sp, #32
 279 011a 5046     		mov	r0, r10
 280 011c FFF7FEFF 		bl	_lv_blend_fill
 281              	.LVL26:
 282 0120 5DE0     		b	.L1
 283              	.LVL27:
 284              	.L17:
 285              	.LBB29:
 176:lvgl/lvgl/src/draw/lv_draw_line.c ****         if(dashed) {
 286              		.loc 1 176 20 view .LVU99
 287 0122 0023     		movs	r3, #0
 288 0124 0593     		str	r3, [sp, #20]
 289              	.LVL28:
 290              	.L7:
 179:lvgl/lvgl/src/draw/lv_draw_line.c ****         }
 180:lvgl/lvgl/src/draw/lv_draw_line.c **** 
 181:lvgl/lvgl/src/draw/lv_draw_line.c ****         lv_opa_t * mask_buf = lv_mem_buf_get(draw_area_w);
 291              		.loc 1 181 9 is_stmt 1 view .LVU100
 292              		.loc 1 181 31 is_stmt 0 view .LVU101
 293 0126 AB46     		mov	fp, r5
 294 0128 2846     		mov	r0, r5
 295 012a FFF7FEFF 		bl	lv_mem_buf_get
 296              	.LVL29:
 297 012e 0746     		mov	r7, r0
 298              	.LVL30:
 182:lvgl/lvgl/src/draw/lv_draw_line.c ****         int32_t h;
 299              		.loc 1 182 9 is_stmt 1 view .LVU102
 183:lvgl/lvgl/src/draw/lv_draw_line.c ****         for(h = draw_area.y1; h <= draw_area.y2; h++) {
 300              		.loc 1 183 9 view .LVU103
 301              		.loc 1 183 26 is_stmt 0 view .LVU104
 302 0130 BDF92260 		ldrsh	r6, [sp, #34]
 303              	.LVL31:
 304              		.loc 1 183 9 view .LVU105
ARM GAS  C:\Users\gx\AppData\Local\Temp\cc0GSSNc.s 			page 12


 305 0134 32E0     		b	.L8
 306              	.LVL32:
 307              	.L11:
 308              	.LBB24:
 309              	.LBB25:
 184:lvgl/lvgl/src/draw/lv_draw_line.c ****             lv_memset_ff(mask_buf, draw_area_w);
 185:lvgl/lvgl/src/draw/lv_draw_line.c ****             lv_draw_mask_res_t mask_res = lv_draw_mask_apply(mask_buf, draw_buf->area.x1 + draw_are
 186:lvgl/lvgl/src/draw/lv_draw_line.c **** 
 187:lvgl/lvgl/src/draw/lv_draw_line.c ****             if(dashed) {
 188:lvgl/lvgl/src/draw/lv_draw_line.c ****                 if(mask_res != LV_DRAW_MASK_RES_TRANSP) {
 189:lvgl/lvgl/src/draw/lv_draw_line.c ****                     lv_coord_t dash_cnt = dash_start;
 190:lvgl/lvgl/src/draw/lv_draw_line.c ****                     lv_coord_t i;
 191:lvgl/lvgl/src/draw/lv_draw_line.c ****                     for(i = 0; i < draw_area_w; i++, dash_cnt++) {
 192:lvgl/lvgl/src/draw/lv_draw_line.c ****                         if(dash_cnt <= dsc->dash_width) {
 193:lvgl/lvgl/src/draw/lv_draw_line.c ****                             int16_t diff = dsc->dash_width - dash_cnt;
 194:lvgl/lvgl/src/draw/lv_draw_line.c ****                             i += diff;
 195:lvgl/lvgl/src/draw/lv_draw_line.c ****                             dash_cnt += diff;
 196:lvgl/lvgl/src/draw/lv_draw_line.c ****                         }
 197:lvgl/lvgl/src/draw/lv_draw_line.c ****                         else if(dash_cnt >= dsc->dash_gap + dsc->dash_width) {
 310              		.loc 1 197 30 is_stmt 1 view .LVU106
 311              		.loc 1 197 48 is_stmt 0 view .LVU107
 312 0136 B4F90600 		ldrsh	r0, [r4, #6]
 313              		.loc 1 197 59 view .LVU108
 314 013a 0344     		add	r3, r3, r0
 315              		.loc 1 197 32 view .LVU109
 316 013c 9A42     		cmp	r2, r3
 317 013e 12DA     		bge	.L19
 198:lvgl/lvgl/src/draw/lv_draw_line.c ****                             dash_cnt = 0;
 199:lvgl/lvgl/src/draw/lv_draw_line.c ****                         }
 200:lvgl/lvgl/src/draw/lv_draw_line.c ****                         else {
 201:lvgl/lvgl/src/draw/lv_draw_line.c ****                             mask_buf[i] = 0x00;
 318              		.loc 1 201 29 is_stmt 1 view .LVU110
 319              		.loc 1 201 41 is_stmt 0 view .LVU111
 320 0140 0023     		movs	r3, #0
 321 0142 7B54     		strb	r3, [r7, r1]
 322 0144 1346     		mov	r3, r2
 323              	.LVL33:
 324              	.L12:
 191:lvgl/lvgl/src/draw/lv_draw_line.c ****                         if(dash_cnt <= dsc->dash_width) {
 325              		.loc 1 191 49 is_stmt 1 discriminator 2 view .LVU112
 191:lvgl/lvgl/src/draw/lv_draw_line.c ****                         if(dash_cnt <= dsc->dash_width) {
 326              		.loc 1 191 50 is_stmt 0 discriminator 2 view .LVU113
 327 0146 0131     		adds	r1, r1, #1
 328              	.LVL34:
 191:lvgl/lvgl/src/draw/lv_draw_line.c ****                         if(dash_cnt <= dsc->dash_width) {
 329              		.loc 1 191 50 discriminator 2 view .LVU114
 330 0148 09B2     		sxth	r1, r1
 331              	.LVL35:
 191:lvgl/lvgl/src/draw/lv_draw_line.c ****                         if(dash_cnt <= dsc->dash_width) {
 332              		.loc 1 191 62 discriminator 2 view .LVU115
 333 014a 0133     		adds	r3, r3, #1
 334              	.LVL36:
 191:lvgl/lvgl/src/draw/lv_draw_line.c ****                         if(dash_cnt <= dsc->dash_width) {
 335              		.loc 1 191 62 discriminator 2 view .LVU116
 336 014c 1AB2     		sxth	r2, r3
 337              	.LVL37:
 338              	.L10:
ARM GAS  C:\Users\gx\AppData\Local\Temp\cc0GSSNc.s 			page 13


 191:lvgl/lvgl/src/draw/lv_draw_line.c ****                         if(dash_cnt <= dsc->dash_width) {
 339              		.loc 1 191 32 is_stmt 1 discriminator 1 view .LVU117
 191:lvgl/lvgl/src/draw/lv_draw_line.c ****                         if(dash_cnt <= dsc->dash_width) {
 340              		.loc 1 191 21 is_stmt 0 discriminator 1 view .LVU118
 341 014e A942     		cmp	r1, r5
 342 0150 0BDA     		bge	.L22
 192:lvgl/lvgl/src/draw/lv_draw_line.c ****                             int16_t diff = dsc->dash_width - dash_cnt;
 343              		.loc 1 192 25 is_stmt 1 view .LVU119
 192:lvgl/lvgl/src/draw/lv_draw_line.c ****                             int16_t diff = dsc->dash_width - dash_cnt;
 344              		.loc 1 192 43 is_stmt 0 view .LVU120
 345 0152 B4F90430 		ldrsh	r3, [r4, #4]
 192:lvgl/lvgl/src/draw/lv_draw_line.c ****                             int16_t diff = dsc->dash_width - dash_cnt;
 346              		.loc 1 192 27 view .LVU121
 347 0156 9342     		cmp	r3, r2
 348 0158 EDDB     		blt	.L11
 349              	.LBB26:
 193:lvgl/lvgl/src/draw/lv_draw_line.c ****                             i += diff;
 350              		.loc 1 193 29 is_stmt 1 view .LVU122
 193:lvgl/lvgl/src/draw/lv_draw_line.c ****                             i += diff;
 351              		.loc 1 193 47 is_stmt 0 view .LVU123
 352 015a 98B2     		uxth	r0, r3
 193:lvgl/lvgl/src/draw/lv_draw_line.c ****                             i += diff;
 353              		.loc 1 193 60 view .LVU124
 354 015c 821A     		subs	r2, r0, r2
 355              	.LVL38:
 194:lvgl/lvgl/src/draw/lv_draw_line.c ****                             dash_cnt += diff;
 356              		.loc 1 194 29 is_stmt 1 view .LVU125
 194:lvgl/lvgl/src/draw/lv_draw_line.c ****                             dash_cnt += diff;
 357              		.loc 1 194 31 is_stmt 0 view .LVU126
 358 015e 11FA82F1 		uxtah	r1, r1, r2
 359              	.LVL39:
 194:lvgl/lvgl/src/draw/lv_draw_line.c ****                             dash_cnt += diff;
 360              		.loc 1 194 31 view .LVU127
 361 0162 09B2     		sxth	r1, r1
 362              	.LVL40:
 195:lvgl/lvgl/src/draw/lv_draw_line.c ****                         }
 363              		.loc 1 195 29 is_stmt 1 view .LVU128
 195:lvgl/lvgl/src/draw/lv_draw_line.c ****                         }
 364              		.loc 1 195 29 is_stmt 0 view .LVU129
 365              	.LBE26:
 366 0164 EFE7     		b	.L12
 367              	.LVL41:
 368              	.L19:
 198:lvgl/lvgl/src/draw/lv_draw_line.c ****                         }
 369              		.loc 1 198 38 view .LVU130
 370 0166 0023     		movs	r3, #0
 371 0168 EDE7     		b	.L12
 372              	.L22:
 202:lvgl/lvgl/src/draw/lv_draw_line.c ****                         }
 203:lvgl/lvgl/src/draw/lv_draw_line.c ****                     }
 204:lvgl/lvgl/src/draw/lv_draw_line.c **** 
 205:lvgl/lvgl/src/draw/lv_draw_line.c ****                     mask_res = LV_DRAW_MASK_RES_CHANGED;
 373              		.loc 1 205 30 view .LVU131
 374 016a 0220     		movs	r0, #2
 375              	.LVL42:
 376              	.L9:
 377              		.loc 1 205 30 view .LVU132
ARM GAS  C:\Users\gx\AppData\Local\Temp\cc0GSSNc.s 			page 14


 378              	.LBE25:
 206:lvgl/lvgl/src/draw/lv_draw_line.c ****                 }
 207:lvgl/lvgl/src/draw/lv_draw_line.c ****             }
 208:lvgl/lvgl/src/draw/lv_draw_line.c **** 
 209:lvgl/lvgl/src/draw/lv_draw_line.c ****             _lv_blend_fill(clip, &fill_area,
 379              		.loc 1 209 13 is_stmt 1 discriminator 2 view .LVU133
 210:lvgl/lvgl/src/draw/lv_draw_line.c ****                            dsc->color, mask_buf, mask_res, dsc->opa,
 211:lvgl/lvgl/src/draw/lv_draw_line.c ****                            dsc->blend_mode);
 380              		.loc 1 211 31 is_stmt 0 discriminator 2 view .LVU134
 381 016c 637A     		ldrb	r3, [r4, #9]	@ zero_extendqisi2
 382 016e 03F00303 		and	r3, r3, #3
 209:lvgl/lvgl/src/draw/lv_draw_line.c ****                            dsc->color, mask_buf, mask_res, dsc->opa,
 383              		.loc 1 209 13 discriminator 2 view .LVU135
 384 0172 0293     		str	r3, [sp, #8]
 385 0174 237A     		ldrb	r3, [r4, #8]	@ zero_extendqisi2
 386 0176 0193     		str	r3, [sp, #4]
 387 0178 0090     		str	r0, [sp]
 388 017a 3B46     		mov	r3, r7
 389 017c 2288     		ldrh	r2, [r4]
 390 017e 06A9     		add	r1, sp, #24
 391 0180 5046     		mov	r0, r10
 392              	.LVL43:
 209:lvgl/lvgl/src/draw/lv_draw_line.c ****                            dsc->color, mask_buf, mask_res, dsc->opa,
 393              		.loc 1 209 13 discriminator 2 view .LVU136
 394 0182 FFF7FEFF 		bl	_lv_blend_fill
 395              	.LVL44:
 212:lvgl/lvgl/src/draw/lv_draw_line.c **** 
 213:lvgl/lvgl/src/draw/lv_draw_line.c ****             fill_area.y1++;
 396              		.loc 1 213 13 is_stmt 1 discriminator 2 view .LVU137
 397              		.loc 1 213 22 is_stmt 0 discriminator 2 view .LVU138
 398 0186 BDF91A30 		ldrsh	r3, [sp, #26]
 399              		.loc 1 213 25 discriminator 2 view .LVU139
 400 018a 0133     		adds	r3, r3, #1
 401 018c ADF81A30 		strh	r3, [sp, #26]	@ movhi
 214:lvgl/lvgl/src/draw/lv_draw_line.c ****             fill_area.y2++;
 402              		.loc 1 214 13 is_stmt 1 discriminator 2 view .LVU140
 403              		.loc 1 214 22 is_stmt 0 discriminator 2 view .LVU141
 404 0190 BDF91E30 		ldrsh	r3, [sp, #30]
 405              		.loc 1 214 25 discriminator 2 view .LVU142
 406 0194 0133     		adds	r3, r3, #1
 407 0196 ADF81E30 		strh	r3, [sp, #30]	@ movhi
 408              	.LBE24:
 183:lvgl/lvgl/src/draw/lv_draw_line.c ****             lv_memset_ff(mask_buf, draw_area_w);
 409              		.loc 1 183 50 is_stmt 1 discriminator 2 view .LVU143
 183:lvgl/lvgl/src/draw/lv_draw_line.c ****             lv_memset_ff(mask_buf, draw_area_w);
 410              		.loc 1 183 51 is_stmt 0 discriminator 2 view .LVU144
 411 019a 0136     		adds	r6, r6, #1
 412              	.LVL45:
 413              	.L8:
 183:lvgl/lvgl/src/draw/lv_draw_line.c ****             lv_memset_ff(mask_buf, draw_area_w);
 414              		.loc 1 183 31 is_stmt 1 discriminator 1 view .LVU145
 183:lvgl/lvgl/src/draw/lv_draw_line.c ****             lv_memset_ff(mask_buf, draw_area_w);
 415              		.loc 1 183 45 is_stmt 0 discriminator 1 view .LVU146
 416 019c BDF92630 		ldrsh	r3, [sp, #38]
 183:lvgl/lvgl/src/draw/lv_draw_line.c ****             lv_memset_ff(mask_buf, draw_area_w);
 417              		.loc 1 183 9 discriminator 1 view .LVU147
 418 01a0 B342     		cmp	r3, r6
ARM GAS  C:\Users\gx\AppData\Local\Temp\cc0GSSNc.s 			page 15


 419 01a2 19DB     		blt	.L23
 420              	.LBB28:
 184:lvgl/lvgl/src/draw/lv_draw_line.c ****             lv_draw_mask_res_t mask_res = lv_draw_mask_apply(mask_buf, draw_buf->area.x1 + draw_are
 421              		.loc 1 184 13 is_stmt 1 view .LVU148
 422 01a4 5946     		mov	r1, fp
 423 01a6 3846     		mov	r0, r7
 424 01a8 FFF7FEFF 		bl	lv_memset_ff
 425              	.LVL46:
 185:lvgl/lvgl/src/draw/lv_draw_line.c **** 
 426              		.loc 1 185 13 view .LVU149
 185:lvgl/lvgl/src/draw/lv_draw_line.c **** 
 427              		.loc 1 185 86 is_stmt 0 view .LVU150
 428 01ac B8F81010 		ldrh	r1, [r8, #16]
 185:lvgl/lvgl/src/draw/lv_draw_line.c **** 
 429              		.loc 1 185 101 view .LVU151
 430 01b0 BDF82030 		ldrh	r3, [sp, #32]
 185:lvgl/lvgl/src/draw/lv_draw_line.c **** 
 431              		.loc 1 185 90 view .LVU152
 432 01b4 1944     		add	r1, r1, r3
 185:lvgl/lvgl/src/draw/lv_draw_line.c **** 
 433              		.loc 1 185 120 view .LVU153
 434 01b6 B8F81220 		ldrh	r2, [r8, #18]
 185:lvgl/lvgl/src/draw/lv_draw_line.c **** 
 435              		.loc 1 185 124 view .LVU154
 436 01ba 3244     		add	r2, r2, r6
 185:lvgl/lvgl/src/draw/lv_draw_line.c **** 
 437              		.loc 1 185 43 view .LVU155
 438 01bc 2B46     		mov	r3, r5
 439 01be 12B2     		sxth	r2, r2
 440 01c0 09B2     		sxth	r1, r1
 441 01c2 3846     		mov	r0, r7
 442 01c4 FFF7FEFF 		bl	lv_draw_mask_apply
 443              	.LVL47:
 187:lvgl/lvgl/src/draw/lv_draw_line.c ****                 if(mask_res != LV_DRAW_MASK_RES_TRANSP) {
 444              		.loc 1 187 13 is_stmt 1 view .LVU156
 187:lvgl/lvgl/src/draw/lv_draw_line.c ****                 if(mask_res != LV_DRAW_MASK_RES_TRANSP) {
 445              		.loc 1 187 15 is_stmt 0 view .LVU157
 446 01c8 B9F1000F 		cmp	r9, #0
 447 01cc CED0     		beq	.L9
 188:lvgl/lvgl/src/draw/lv_draw_line.c ****                     lv_coord_t dash_cnt = dash_start;
 448              		.loc 1 188 17 is_stmt 1 view .LVU158
 188:lvgl/lvgl/src/draw/lv_draw_line.c ****                     lv_coord_t dash_cnt = dash_start;
 449              		.loc 1 188 19 is_stmt 0 view .LVU159
 450 01ce 0028     		cmp	r0, #0
 451 01d0 CCD0     		beq	.L9
 452              	.LBB27:
 189:lvgl/lvgl/src/draw/lv_draw_line.c ****                     lv_coord_t i;
 453              		.loc 1 189 32 view .LVU160
 454 01d2 059A     		ldr	r2, [sp, #20]
 191:lvgl/lvgl/src/draw/lv_draw_line.c ****                         if(dash_cnt <= dsc->dash_width) {
 455              		.loc 1 191 27 view .LVU161
 456 01d4 0021     		movs	r1, #0
 457 01d6 BAE7     		b	.L10
 458              	.LVL48:
 459              	.L23:
 191:lvgl/lvgl/src/draw/lv_draw_line.c ****                         if(dash_cnt <= dsc->dash_width) {
 460              		.loc 1 191 27 view .LVU162
ARM GAS  C:\Users\gx\AppData\Local\Temp\cc0GSSNc.s 			page 16


 461              	.LBE27:
 462              	.LBE28:
 215:lvgl/lvgl/src/draw/lv_draw_line.c ****         }
 216:lvgl/lvgl/src/draw/lv_draw_line.c ****         lv_mem_buf_release(mask_buf);
 463              		.loc 1 216 9 is_stmt 1 view .LVU163
 464 01d8 3846     		mov	r0, r7
 465 01da FFF7FEFF 		bl	lv_mem_buf_release
 466              	.LVL49:
 467              	.L1:
 468              		.loc 1 216 9 is_stmt 0 view .LVU164
 469              	.LBE29:
 217:lvgl/lvgl/src/draw/lv_draw_line.c ****     }
 218:lvgl/lvgl/src/draw/lv_draw_line.c **** #endif /*LV_DRAW_COMPLEX*/
 219:lvgl/lvgl/src/draw/lv_draw_line.c **** }
 470              		.loc 1 219 1 view .LVU165
 471 01de 0BB0     		add	sp, sp, #44
 472              	.LCFI2:
 473              		.cfi_def_cfa_offset 36
 474              		@ sp needed
 475 01e0 BDE8F08F 		pop	{r4, r5, r6, r7, r8, r9, r10, fp, pc}
 476              		.loc 1 219 1 view .LVU166
 477              		.cfi_endproc
 478              	.LFE154:
 480              		.section	.text.draw_line_ver,"ax",%progbits
 481              		.align	1
 482              		.syntax unified
 483              		.thumb
 484              		.thumb_func
 485              		.fpu fpv4-sp-d16
 487              	draw_line_ver:
 488              	.LVL50:
 489              	.LFB155:
 220:lvgl/lvgl/src/draw/lv_draw_line.c **** 
 221:lvgl/lvgl/src/draw/lv_draw_line.c **** LV_ATTRIBUTE_FAST_MEM static void draw_line_ver(const lv_point_t * point1, const lv_point_t * point
 222:lvgl/lvgl/src/draw/lv_draw_line.c ****                                                 const lv_area_t * clip,
 223:lvgl/lvgl/src/draw/lv_draw_line.c ****                                                 const lv_draw_line_dsc_t * dsc)
 224:lvgl/lvgl/src/draw/lv_draw_line.c **** {
 490              		.loc 1 224 1 is_stmt 1 view -0
 491              		.cfi_startproc
 492              		@ args = 0, pretend = 0, frame = 24
 493              		@ frame_needed = 0, uses_anonymous_args = 0
 494              		.loc 1 224 1 is_stmt 0 view .LVU168
 495 0000 2DE9F04F 		push	{r4, r5, r6, r7, r8, r9, r10, fp, lr}
 496              	.LCFI3:
 497              		.cfi_def_cfa_offset 36
 498              		.cfi_offset 4, -36
 499              		.cfi_offset 5, -32
 500              		.cfi_offset 6, -28
 501              		.cfi_offset 7, -24
 502              		.cfi_offset 8, -20
 503              		.cfi_offset 9, -16
 504              		.cfi_offset 10, -12
 505              		.cfi_offset 11, -8
 506              		.cfi_offset 14, -4
 507 0004 8BB0     		sub	sp, sp, #44
 508              	.LCFI4:
 509              		.cfi_def_cfa_offset 80
ARM GAS  C:\Users\gx\AppData\Local\Temp\cc0GSSNc.s 			page 17


 510 0006 9346     		mov	fp, r2
 511 0008 1C46     		mov	r4, r3
 225:lvgl/lvgl/src/draw/lv_draw_line.c ****     lv_opa_t opa = dsc->opa;
 512              		.loc 1 225 5 is_stmt 1 view .LVU169
 513              		.loc 1 225 14 is_stmt 0 view .LVU170
 514 000a 1D7A     		ldrb	r5, [r3, #8]	@ zero_extendqisi2
 515              	.LVL51:
 226:lvgl/lvgl/src/draw/lv_draw_line.c **** 
 227:lvgl/lvgl/src/draw/lv_draw_line.c ****     int32_t w = dsc->width - 1;
 516              		.loc 1 227 5 is_stmt 1 view .LVU171
 517              		.loc 1 227 20 is_stmt 0 view .LVU172
 518 000c B3F90230 		ldrsh	r3, [r3, #2]
 519              	.LVL52:
 520              		.loc 1 227 13 view .LVU173
 521 0010 013B     		subs	r3, r3, #1
 522              	.LVL53:
 228:lvgl/lvgl/src/draw/lv_draw_line.c ****     int32_t w_half0 = w >> 1;
 523              		.loc 1 228 5 is_stmt 1 view .LVU174
 229:lvgl/lvgl/src/draw/lv_draw_line.c ****     int32_t w_half1 = w_half0 + (w & 0x1); /*Compensate rounding error*/
 524              		.loc 1 229 5 view .LVU175
 525              		.loc 1 229 36 is_stmt 0 view .LVU176
 526 0012 03F00102 		and	r2, r3, #1
 527              	.LVL54:
 528              		.loc 1 229 13 view .LVU177
 529 0016 02EB6302 		add	r2, r2, r3, asr #1
 530              	.LVL55:
 230:lvgl/lvgl/src/draw/lv_draw_line.c **** 
 231:lvgl/lvgl/src/draw/lv_draw_line.c ****     lv_area_t draw_area;
 531              		.loc 1 231 5 is_stmt 1 view .LVU178
 232:lvgl/lvgl/src/draw/lv_draw_line.c ****     draw_area.x1 = point1->x - w_half1;
 532              		.loc 1 232 5 view .LVU179
 533              		.loc 1 232 26 is_stmt 0 view .LVU180
 534 001a 0688     		ldrh	r6, [r0]
 535              		.loc 1 232 30 view .LVU181
 536 001c B21A     		subs	r2, r6, r2
 537              	.LVL56:
 538              		.loc 1 232 18 view .LVU182
 539 001e ADF82020 		strh	r2, [sp, #32]	@ movhi
 233:lvgl/lvgl/src/draw/lv_draw_line.c ****     draw_area.x2 = point1->x + w_half0;
 540              		.loc 1 233 5 is_stmt 1 view .LVU183
 541              		.loc 1 233 30 is_stmt 0 view .LVU184
 542 0022 06EB6303 		add	r3, r6, r3, asr #1
 543              	.LVL57:
 544              		.loc 1 233 18 view .LVU185
 545 0026 ADF82430 		strh	r3, [sp, #36]	@ movhi
 546              	.LVL58:
 234:lvgl/lvgl/src/draw/lv_draw_line.c ****     draw_area.y1 = LV_MIN(point1->y, point2->y);
 547              		.loc 1 234 5 is_stmt 1 view .LVU186
 548              		.loc 1 234 20 is_stmt 0 view .LVU187
 549 002a B1F90230 		ldrsh	r3, [r1, #2]
 550 002e B0F90220 		ldrsh	r2, [r0, #2]
 551 0032 1946     		mov	r1, r3
 552              	.LVL59:
 553              		.loc 1 234 20 view .LVU188
 554 0034 9342     		cmp	r3, r2
 555 0036 A8BF     		it	ge
 556 0038 1146     		movge	r1, r2
ARM GAS  C:\Users\gx\AppData\Local\Temp\cc0GSSNc.s 			page 18


 557              		.loc 1 234 18 view .LVU189
 558 003a ADF82210 		strh	r1, [sp, #34]	@ movhi
 235:lvgl/lvgl/src/draw/lv_draw_line.c ****     draw_area.y2 = LV_MAX(point1->y, point2->y) - 1;
 559              		.loc 1 235 5 is_stmt 1 view .LVU190
 560              		.loc 1 235 20 is_stmt 0 view .LVU191
 561 003e 9342     		cmp	r3, r2
 562 0040 B8BF     		it	lt
 563 0042 1346     		movlt	r3, r2
 564 0044 9BB2     		uxth	r3, r3
 565              		.loc 1 235 49 view .LVU192
 566 0046 013B     		subs	r3, r3, #1
 567              		.loc 1 235 18 view .LVU193
 568 0048 ADF82630 		strh	r3, [sp, #38]	@ movhi
 236:lvgl/lvgl/src/draw/lv_draw_line.c **** 
 237:lvgl/lvgl/src/draw/lv_draw_line.c ****     bool dashed = dsc->dash_gap && dsc->dash_width ? true : false;
 569              		.loc 1 237 5 is_stmt 1 view .LVU194
 570              		.loc 1 237 22 is_stmt 0 view .LVU195
 571 004c B4F90630 		ldrsh	r3, [r4, #6]
 572              		.loc 1 237 59 view .LVU196
 573 0050 2BB1     		cbz	r3, .L36
 574              		.loc 1 237 39 discriminator 1 view .LVU197
 575 0052 B4F90430 		ldrsh	r3, [r4, #4]
 576              		.loc 1 237 59 discriminator 1 view .LVU198
 577 0056 CBB9     		cbnz	r3, .L37
 578              		.loc 1 237 59 view .LVU199
 579 0058 4FF0000A 		mov	r10, #0
 580 005c 01E0     		b	.L25
 581              	.L36:
 582 005e 4FF0000A 		mov	r10, #0
 583              	.L25:
 584              	.LVL60:
 238:lvgl/lvgl/src/draw/lv_draw_line.c ****     bool simple_mode = true;
 585              		.loc 1 238 5 is_stmt 1 discriminator 6 view .LVU200
 239:lvgl/lvgl/src/draw/lv_draw_line.c ****     if(lv_draw_mask_is_any(&draw_area)) simple_mode = false;
 586              		.loc 1 239 5 discriminator 6 view .LVU201
 587              		.loc 1 239 8 is_stmt 0 discriminator 6 view .LVU202
 588 0062 08A8     		add	r0, sp, #32
 589              	.LVL61:
 590              		.loc 1 239 8 discriminator 6 view .LVU203
 591 0064 FFF7FEFF 		bl	lv_draw_mask_is_any
 592              	.LVL62:
 593              		.loc 1 239 7 discriminator 6 view .LVU204
 594 0068 10B9     		cbnz	r0, .L26
 240:lvgl/lvgl/src/draw/lv_draw_line.c ****     else if(dashed) simple_mode = false;
 595              		.loc 1 240 10 is_stmt 1 view .LVU205
 596              		.loc 1 240 12 is_stmt 0 view .LVU206
 597 006a BAF1000F 		cmp	r10, #0
 598 006e 10D0     		beq	.L42
 599              	.L26:
 600              	.LVL63:
 601              	.LBB30:
 241:lvgl/lvgl/src/draw/lv_draw_line.c **** 
 242:lvgl/lvgl/src/draw/lv_draw_line.c ****     /*If there is no mask then simply draw a rectangle*/
 243:lvgl/lvgl/src/draw/lv_draw_line.c ****     if(simple_mode) {
 244:lvgl/lvgl/src/draw/lv_draw_line.c ****         _lv_blend_fill(clip, &draw_area,
 245:lvgl/lvgl/src/draw/lv_draw_line.c ****                        dsc->color,  NULL, LV_DRAW_MASK_RES_FULL_COVER, opa,
 246:lvgl/lvgl/src/draw/lv_draw_line.c ****                        dsc->blend_mode);
ARM GAS  C:\Users\gx\AppData\Local\Temp\cc0GSSNc.s 			page 19


 247:lvgl/lvgl/src/draw/lv_draw_line.c ****     }
 248:lvgl/lvgl/src/draw/lv_draw_line.c **** 
 249:lvgl/lvgl/src/draw/lv_draw_line.c **** #if LV_DRAW_COMPLEX
 250:lvgl/lvgl/src/draw/lv_draw_line.c ****     /*If there other mask apply it*/
 251:lvgl/lvgl/src/draw/lv_draw_line.c ****     else {
 252:lvgl/lvgl/src/draw/lv_draw_line.c ****         lv_disp_t * disp = _lv_refr_get_disp_refreshing();
 602              		.loc 1 252 9 is_stmt 1 view .LVU207
 603              		.loc 1 252 28 is_stmt 0 view .LVU208
 604 0070 FFF7FEFF 		bl	_lv_refr_get_disp_refreshing
 605              	.LVL64:
 253:lvgl/lvgl/src/draw/lv_draw_line.c ****         lv_disp_draw_buf_t * draw_buf = lv_disp_get_draw_buf(disp);
 606              		.loc 1 253 9 is_stmt 1 view .LVU209
 607              		.loc 1 253 41 is_stmt 0 view .LVU210
 608 0074 FFF7FEFF 		bl	lv_disp_get_draw_buf
 609              	.LVL65:
 610              		.loc 1 253 41 view .LVU211
 611 0078 8046     		mov	r8, r0
 612              	.LVL66:
 254:lvgl/lvgl/src/draw/lv_draw_line.c ****         const lv_area_t * disp_area = &draw_buf->area;
 613              		.loc 1 254 9 is_stmt 1 view .LVU212
 255:lvgl/lvgl/src/draw/lv_draw_line.c ****         /*Get clipped fill area which is the real draw area.
 256:lvgl/lvgl/src/draw/lv_draw_line.c ****          *It is always the same or inside `fill_area`*/
 257:lvgl/lvgl/src/draw/lv_draw_line.c ****         bool is_common;
 614              		.loc 1 257 9 view .LVU213
 258:lvgl/lvgl/src/draw/lv_draw_line.c ****         is_common = _lv_area_intersect(&draw_area, clip, &draw_area);
 615              		.loc 1 258 9 view .LVU214
 616              		.loc 1 258 21 is_stmt 0 view .LVU215
 617 007a 08AA     		add	r2, sp, #32
 618 007c 5946     		mov	r1, fp
 619 007e 1046     		mov	r0, r2
 620              	.LVL67:
 621              		.loc 1 258 21 view .LVU216
 622 0080 FFF7FEFF 		bl	_lv_area_intersect
 623              	.LVL68:
 259:lvgl/lvgl/src/draw/lv_draw_line.c ****         if(!is_common) return;
 624              		.loc 1 259 9 is_stmt 1 view .LVU217
 625              		.loc 1 259 11 is_stmt 0 view .LVU218
 626 0084 98B9     		cbnz	r0, .L43
 627              	.LVL69:
 628              	.L24:
 629              		.loc 1 259 11 view .LVU219
 630              	.LBE30:
 260:lvgl/lvgl/src/draw/lv_draw_line.c **** 
 261:lvgl/lvgl/src/draw/lv_draw_line.c ****         /*Now `draw_area` has absolute coordinates.
 262:lvgl/lvgl/src/draw/lv_draw_line.c ****          *Make it relative to `disp_area` to simplify draw to `disp_buf`*/
 263:lvgl/lvgl/src/draw/lv_draw_line.c ****         draw_area.x1 -= draw_buf->area.x1;
 264:lvgl/lvgl/src/draw/lv_draw_line.c ****         draw_area.y1 -= draw_buf->area.y1;
 265:lvgl/lvgl/src/draw/lv_draw_line.c ****         draw_area.x2 -= draw_buf->area.x1;
 266:lvgl/lvgl/src/draw/lv_draw_line.c ****         draw_area.y2 -= draw_buf->area.y1;
 267:lvgl/lvgl/src/draw/lv_draw_line.c **** 
 268:lvgl/lvgl/src/draw/lv_draw_line.c ****         int32_t draw_area_w = lv_area_get_width(&draw_area);
 269:lvgl/lvgl/src/draw/lv_draw_line.c **** 
 270:lvgl/lvgl/src/draw/lv_draw_line.c ****         lv_area_t fill_area;
 271:lvgl/lvgl/src/draw/lv_draw_line.c ****         fill_area.x1 = draw_area.x1 + disp_area->x1;
 272:lvgl/lvgl/src/draw/lv_draw_line.c ****         fill_area.x2 = draw_area.x2 + disp_area->x1;
 273:lvgl/lvgl/src/draw/lv_draw_line.c ****         fill_area.y1 = draw_area.y1 + disp_area->y1;
 274:lvgl/lvgl/src/draw/lv_draw_line.c ****         fill_area.y2 = fill_area.y1;
ARM GAS  C:\Users\gx\AppData\Local\Temp\cc0GSSNc.s 			page 20


 275:lvgl/lvgl/src/draw/lv_draw_line.c **** 
 276:lvgl/lvgl/src/draw/lv_draw_line.c ****         lv_opa_t * mask_buf = lv_mem_buf_get(draw_area_w);
 277:lvgl/lvgl/src/draw/lv_draw_line.c **** 
 278:lvgl/lvgl/src/draw/lv_draw_line.c ****         lv_coord_t dash_start = 0;
 279:lvgl/lvgl/src/draw/lv_draw_line.c ****         if(dashed) {
 280:lvgl/lvgl/src/draw/lv_draw_line.c ****             dash_start = (draw_buf->area.y1 + draw_area.y1) % (dsc->dash_gap + dsc->dash_width);
 281:lvgl/lvgl/src/draw/lv_draw_line.c ****         }
 282:lvgl/lvgl/src/draw/lv_draw_line.c **** 
 283:lvgl/lvgl/src/draw/lv_draw_line.c ****         lv_coord_t dash_cnt = dash_start;
 284:lvgl/lvgl/src/draw/lv_draw_line.c **** 
 285:lvgl/lvgl/src/draw/lv_draw_line.c ****         int32_t h;
 286:lvgl/lvgl/src/draw/lv_draw_line.c ****         for(h = draw_area.y1; h <= draw_area.y2; h++) {
 287:lvgl/lvgl/src/draw/lv_draw_line.c ****             lv_memset_ff(mask_buf, draw_area_w);
 288:lvgl/lvgl/src/draw/lv_draw_line.c ****             lv_draw_mask_res_t mask_res = lv_draw_mask_apply(mask_buf, draw_buf->area.x1 + draw_are
 289:lvgl/lvgl/src/draw/lv_draw_line.c **** 
 290:lvgl/lvgl/src/draw/lv_draw_line.c ****             if(dashed) {
 291:lvgl/lvgl/src/draw/lv_draw_line.c ****                 if(mask_res != LV_DRAW_MASK_RES_TRANSP) {
 292:lvgl/lvgl/src/draw/lv_draw_line.c ****                     if(dash_cnt > dsc->dash_width) {
 293:lvgl/lvgl/src/draw/lv_draw_line.c ****                         mask_res = LV_DRAW_MASK_RES_TRANSP;
 294:lvgl/lvgl/src/draw/lv_draw_line.c ****                     }
 295:lvgl/lvgl/src/draw/lv_draw_line.c **** 
 296:lvgl/lvgl/src/draw/lv_draw_line.c ****                     if(dash_cnt >= dsc->dash_gap + dsc->dash_width) {
 297:lvgl/lvgl/src/draw/lv_draw_line.c ****                         dash_cnt = 0;
 298:lvgl/lvgl/src/draw/lv_draw_line.c ****                     }
 299:lvgl/lvgl/src/draw/lv_draw_line.c ****                 }
 300:lvgl/lvgl/src/draw/lv_draw_line.c ****                 dash_cnt ++;
 301:lvgl/lvgl/src/draw/lv_draw_line.c ****             }
 302:lvgl/lvgl/src/draw/lv_draw_line.c **** 
 303:lvgl/lvgl/src/draw/lv_draw_line.c ****             _lv_blend_fill(clip, &fill_area,
 304:lvgl/lvgl/src/draw/lv_draw_line.c ****                            dsc->color, mask_buf, mask_res, dsc->opa,
 305:lvgl/lvgl/src/draw/lv_draw_line.c ****                            LV_BLEND_MODE_NORMAL);
 306:lvgl/lvgl/src/draw/lv_draw_line.c **** 
 307:lvgl/lvgl/src/draw/lv_draw_line.c ****             fill_area.y1++;
 308:lvgl/lvgl/src/draw/lv_draw_line.c ****             fill_area.y2++;
 309:lvgl/lvgl/src/draw/lv_draw_line.c ****         }
 310:lvgl/lvgl/src/draw/lv_draw_line.c ****         lv_mem_buf_release(mask_buf);
 311:lvgl/lvgl/src/draw/lv_draw_line.c ****     }
 312:lvgl/lvgl/src/draw/lv_draw_line.c **** #endif /*LV_DRAW_COMPLEX*/
 313:lvgl/lvgl/src/draw/lv_draw_line.c **** }
 631              		.loc 1 313 1 view .LVU220
 632 0086 0BB0     		add	sp, sp, #44
 633              	.LCFI5:
 634              		.cfi_remember_state
 635              		.cfi_def_cfa_offset 36
 636              		@ sp needed
 637 0088 BDE8F08F 		pop	{r4, r5, r6, r7, r8, r9, r10, fp, pc}
 638              	.LVL70:
 639              	.L37:
 640              	.LCFI6:
 641              		.cfi_restore_state
 237:lvgl/lvgl/src/draw/lv_draw_line.c ****     bool simple_mode = true;
 642              		.loc 1 237 59 view .LVU221
 643 008c 4FF0010A 		mov	r10, #1
 644 0090 E7E7     		b	.L25
 645              	.LVL71:
 646              	.L42:
 243:lvgl/lvgl/src/draw/lv_draw_line.c ****         _lv_blend_fill(clip, &draw_area,
ARM GAS  C:\Users\gx\AppData\Local\Temp\cc0GSSNc.s 			page 21


 647              		.loc 1 243 5 is_stmt 1 view .LVU222
 244:lvgl/lvgl/src/draw/lv_draw_line.c ****                        dsc->color,  NULL, LV_DRAW_MASK_RES_FULL_COVER, opa,
 648              		.loc 1 244 9 view .LVU223
 246:lvgl/lvgl/src/draw/lv_draw_line.c ****     }
 649              		.loc 1 246 27 is_stmt 0 view .LVU224
 650 0092 637A     		ldrb	r3, [r4, #9]	@ zero_extendqisi2
 651 0094 03F00303 		and	r3, r3, #3
 244:lvgl/lvgl/src/draw/lv_draw_line.c ****                        dsc->color,  NULL, LV_DRAW_MASK_RES_FULL_COVER, opa,
 652              		.loc 1 244 9 view .LVU225
 653 0098 0293     		str	r3, [sp, #8]
 654 009a 0195     		str	r5, [sp, #4]
 655 009c 0123     		movs	r3, #1
 656 009e 0093     		str	r3, [sp]
 657 00a0 0023     		movs	r3, #0
 658 00a2 2288     		ldrh	r2, [r4]
 659 00a4 08A9     		add	r1, sp, #32
 660 00a6 5846     		mov	r0, fp
 661 00a8 FFF7FEFF 		bl	_lv_blend_fill
 662              	.LVL72:
 663 00ac EBE7     		b	.L24
 664              	.LVL73:
 665              	.L43:
 666              	.LBB35:
 263:lvgl/lvgl/src/draw/lv_draw_line.c ****         draw_area.y1 -= draw_buf->area.y1;
 667              		.loc 1 263 9 is_stmt 1 view .LVU226
 263:lvgl/lvgl/src/draw/lv_draw_line.c ****         draw_area.y1 -= draw_buf->area.y1;
 668              		.loc 1 263 22 is_stmt 0 view .LVU227
 669 00ae BDF92000 		ldrsh	r0, [sp, #32]
 670              	.LVL74:
 263:lvgl/lvgl/src/draw/lv_draw_line.c ****         draw_area.y1 -= draw_buf->area.y1;
 671              		.loc 1 263 39 view .LVU228
 672 00b2 B8F81030 		ldrh	r3, [r8, #16]
 263:lvgl/lvgl/src/draw/lv_draw_line.c ****         draw_area.y1 -= draw_buf->area.y1;
 673              		.loc 1 263 22 view .LVU229
 674 00b6 C71A     		subs	r7, r0, r3
 675 00b8 BFB2     		uxth	r7, r7
 676 00ba ADF82070 		strh	r7, [sp, #32]	@ movhi
 264:lvgl/lvgl/src/draw/lv_draw_line.c ****         draw_area.x2 -= draw_buf->area.x1;
 677              		.loc 1 264 9 is_stmt 1 view .LVU230
 264:lvgl/lvgl/src/draw/lv_draw_line.c ****         draw_area.x2 -= draw_buf->area.x1;
 678              		.loc 1 264 22 is_stmt 0 view .LVU231
 679 00be BDF92220 		ldrsh	r2, [sp, #34]
 264:lvgl/lvgl/src/draw/lv_draw_line.c ****         draw_area.x2 -= draw_buf->area.x1;
 680              		.loc 1 264 39 view .LVU232
 681 00c2 B8F81260 		ldrh	r6, [r8, #18]
 264:lvgl/lvgl/src/draw/lv_draw_line.c ****         draw_area.x2 -= draw_buf->area.x1;
 682              		.loc 1 264 22 view .LVU233
 683 00c6 911B     		subs	r1, r2, r6
 684 00c8 ADF82210 		strh	r1, [sp, #34]	@ movhi
 265:lvgl/lvgl/src/draw/lv_draw_line.c ****         draw_area.y2 -= draw_buf->area.y1;
 685              		.loc 1 265 9 is_stmt 1 view .LVU234
 265:lvgl/lvgl/src/draw/lv_draw_line.c ****         draw_area.y2 -= draw_buf->area.y1;
 686              		.loc 1 265 22 is_stmt 0 view .LVU235
 687 00cc BDF92410 		ldrsh	r1, [sp, #36]
 688 00d0 CB1A     		subs	r3, r1, r3
 689 00d2 9BB2     		uxth	r3, r3
 690 00d4 ADF82430 		strh	r3, [sp, #36]	@ movhi
ARM GAS  C:\Users\gx\AppData\Local\Temp\cc0GSSNc.s 			page 22


 266:lvgl/lvgl/src/draw/lv_draw_line.c **** 
 691              		.loc 1 266 9 is_stmt 1 view .LVU236
 266:lvgl/lvgl/src/draw/lv_draw_line.c **** 
 692              		.loc 1 266 22 is_stmt 0 view .LVU237
 693 00d8 BDF82650 		ldrh	r5, [sp, #38]
 694              	.LVL75:
 266:lvgl/lvgl/src/draw/lv_draw_line.c **** 
 695              		.loc 1 266 22 view .LVU238
 696 00dc AD1B     		subs	r5, r5, r6
 697 00de ADF82650 		strh	r5, [sp, #38]	@ movhi
 268:lvgl/lvgl/src/draw/lv_draw_line.c **** 
 698              		.loc 1 268 9 is_stmt 1 view .LVU239
 699              	.LVL76:
 700              	.LBB31:
 701              	.LBI31:
 133:lvgl/lvgl/src/draw/../misc/lv_area.h **** {
 702              		.loc 2 133 26 view .LVU240
 703              	.LBB32:
 704              		.loc 2 135 5 view .LVU241
 705              		.loc 2 135 36 is_stmt 0 view .LVU242
 706 00e2 DF1B     		subs	r7, r3, r7
 707 00e4 BFB2     		uxth	r7, r7
 708              		.loc 2 135 49 view .LVU243
 709 00e6 0137     		adds	r7, r7, #1
 710              		.loc 2 135 12 view .LVU244
 711 00e8 3FB2     		sxth	r7, r7
 712              	.LVL77:
 713              		.loc 2 135 12 view .LVU245
 714              	.LBE32:
 715              	.LBE31:
 270:lvgl/lvgl/src/draw/lv_draw_line.c ****         fill_area.x1 = draw_area.x1 + disp_area->x1;
 716              		.loc 1 270 9 is_stmt 1 view .LVU246
 271:lvgl/lvgl/src/draw/lv_draw_line.c ****         fill_area.x2 = draw_area.x2 + disp_area->x1;
 717              		.loc 1 271 9 view .LVU247
 271:lvgl/lvgl/src/draw/lv_draw_line.c ****         fill_area.x2 = draw_area.x2 + disp_area->x1;
 718              		.loc 1 271 22 is_stmt 0 view .LVU248
 719 00ea ADF81800 		strh	r0, [sp, #24]	@ movhi
 272:lvgl/lvgl/src/draw/lv_draw_line.c ****         fill_area.y1 = draw_area.y1 + disp_area->y1;
 720              		.loc 1 272 9 is_stmt 1 view .LVU249
 272:lvgl/lvgl/src/draw/lv_draw_line.c ****         fill_area.y1 = draw_area.y1 + disp_area->y1;
 721              		.loc 1 272 22 is_stmt 0 view .LVU250
 722 00ee ADF81C10 		strh	r1, [sp, #28]	@ movhi
 273:lvgl/lvgl/src/draw/lv_draw_line.c ****         fill_area.y2 = fill_area.y1;
 723              		.loc 1 273 9 is_stmt 1 view .LVU251
 273:lvgl/lvgl/src/draw/lv_draw_line.c ****         fill_area.y2 = fill_area.y1;
 724              		.loc 1 273 22 is_stmt 0 view .LVU252
 725 00f2 ADF81A20 		strh	r2, [sp, #26]	@ movhi
 274:lvgl/lvgl/src/draw/lv_draw_line.c **** 
 726              		.loc 1 274 9 is_stmt 1 view .LVU253
 274:lvgl/lvgl/src/draw/lv_draw_line.c **** 
 727              		.loc 1 274 22 is_stmt 0 view .LVU254
 728 00f6 ADF81E20 		strh	r2, [sp, #30]	@ movhi
 276:lvgl/lvgl/src/draw/lv_draw_line.c **** 
 729              		.loc 1 276 9 is_stmt 1 view .LVU255
 276:lvgl/lvgl/src/draw/lv_draw_line.c **** 
 730              		.loc 1 276 31 is_stmt 0 view .LVU256
 731 00fa 0597     		str	r7, [sp, #20]
ARM GAS  C:\Users\gx\AppData\Local\Temp\cc0GSSNc.s 			page 23


 732 00fc 3846     		mov	r0, r7
 733 00fe FFF7FEFF 		bl	lv_mem_buf_get
 734              	.LVL78:
 735 0102 0646     		mov	r6, r0
 736              	.LVL79:
 278:lvgl/lvgl/src/draw/lv_draw_line.c ****         if(dashed) {
 737              		.loc 1 278 9 is_stmt 1 view .LVU257
 279:lvgl/lvgl/src/draw/lv_draw_line.c ****             dash_start = (draw_buf->area.y1 + draw_area.y1) % (dsc->dash_gap + dsc->dash_width);
 738              		.loc 1 279 9 view .LVU258
 279:lvgl/lvgl/src/draw/lv_draw_line.c ****             dash_start = (draw_buf->area.y1 + draw_area.y1) % (dsc->dash_gap + dsc->dash_width);
 739              		.loc 1 279 11 is_stmt 0 view .LVU259
 740 0104 BAF1000F 		cmp	r10, #0
 741 0108 15D0     		beq	.L38
 280:lvgl/lvgl/src/draw/lv_draw_line.c ****         }
 742              		.loc 1 280 13 is_stmt 1 view .LVU260
 280:lvgl/lvgl/src/draw/lv_draw_line.c ****         }
 743              		.loc 1 280 41 is_stmt 0 view .LVU261
 744 010a B8F91220 		ldrsh	r2, [r8, #18]
 280:lvgl/lvgl/src/draw/lv_draw_line.c ****         }
 745              		.loc 1 280 56 view .LVU262
 746 010e BDF92230 		ldrsh	r3, [sp, #34]
 280:lvgl/lvgl/src/draw/lv_draw_line.c ****         }
 747              		.loc 1 280 45 view .LVU263
 748 0112 1A44     		add	r2, r2, r3
 280:lvgl/lvgl/src/draw/lv_draw_line.c ****         }
 749              		.loc 1 280 67 view .LVU264
 750 0114 B4F90630 		ldrsh	r3, [r4, #6]
 280:lvgl/lvgl/src/draw/lv_draw_line.c ****         }
 751              		.loc 1 280 83 view .LVU265
 752 0118 B4F90490 		ldrsh	r9, [r4, #4]
 280:lvgl/lvgl/src/draw/lv_draw_line.c ****         }
 753              		.loc 1 280 78 view .LVU266
 754 011c 4B44     		add	r3, r3, r9
 280:lvgl/lvgl/src/draw/lv_draw_line.c ****         }
 755              		.loc 1 280 61 view .LVU267
 756 011e 92FBF3F9 		sdiv	r9, r2, r3
 757 0122 03FB1929 		mls	r9, r3, r9, r2
 280:lvgl/lvgl/src/draw/lv_draw_line.c ****         }
 758              		.loc 1 280 24 view .LVU268
 759 0126 0FFA89F9 		sxth	r9, r9
 760              	.LVL80:
 761              	.L30:
 283:lvgl/lvgl/src/draw/lv_draw_line.c **** 
 762              		.loc 1 283 9 is_stmt 1 view .LVU269
 285:lvgl/lvgl/src/draw/lv_draw_line.c ****         for(h = draw_area.y1; h <= draw_area.y2; h++) {
 763              		.loc 1 285 9 view .LVU270
 286:lvgl/lvgl/src/draw/lv_draw_line.c ****             lv_memset_ff(mask_buf, draw_area_w);
 764              		.loc 1 286 9 view .LVU271
 286:lvgl/lvgl/src/draw/lv_draw_line.c ****             lv_memset_ff(mask_buf, draw_area_w);
 765              		.loc 1 286 26 is_stmt 0 view .LVU272
 766 012a BDF92250 		ldrsh	r5, [sp, #34]
 767              	.LVL81:
 286:lvgl/lvgl/src/draw/lv_draw_line.c ****             lv_memset_ff(mask_buf, draw_area_w);
 768              		.loc 1 286 26 view .LVU273
 769 012e 3B46     		mov	r3, r7
 770 0130 5746     		mov	r7, r10
 771              	.LVL82:
ARM GAS  C:\Users\gx\AppData\Local\Temp\cc0GSSNc.s 			page 24


 286:lvgl/lvgl/src/draw/lv_draw_line.c ****             lv_memset_ff(mask_buf, draw_area_w);
 772              		.loc 1 286 26 view .LVU274
 773 0132 9A46     		mov	r10, r3
 774              	.LVL83:
 286:lvgl/lvgl/src/draw/lv_draw_line.c ****             lv_memset_ff(mask_buf, draw_area_w);
 775              		.loc 1 286 9 view .LVU275
 776 0134 1CE0     		b	.L31
 777              	.LVL84:
 778              	.L38:
 278:lvgl/lvgl/src/draw/lv_draw_line.c ****         if(dashed) {
 779              		.loc 1 278 20 view .LVU276
 780 0136 4FF00009 		mov	r9, #0
 781 013a F6E7     		b	.L30
 782              	.LVL85:
 783              	.L33:
 784              	.LBB33:
 300:lvgl/lvgl/src/draw/lv_draw_line.c ****             }
 785              		.loc 1 300 17 is_stmt 1 view .LVU277
 300:lvgl/lvgl/src/draw/lv_draw_line.c ****             }
 786              		.loc 1 300 26 is_stmt 0 view .LVU278
 787 013c 09F10109 		add	r9, r9, #1
 788              	.LVL86:
 300:lvgl/lvgl/src/draw/lv_draw_line.c ****             }
 789              		.loc 1 300 26 view .LVU279
 790 0140 0FFA89F9 		sxth	r9, r9
 791              	.LVL87:
 792              	.L32:
 303:lvgl/lvgl/src/draw/lv_draw_line.c ****                            dsc->color, mask_buf, mask_res, dsc->opa,
 793              		.loc 1 303 13 is_stmt 1 discriminator 2 view .LVU280
 794 0144 0023     		movs	r3, #0
 795 0146 0293     		str	r3, [sp, #8]
 796 0148 237A     		ldrb	r3, [r4, #8]	@ zero_extendqisi2
 797 014a 0193     		str	r3, [sp, #4]
 798 014c 0090     		str	r0, [sp]
 799 014e 3346     		mov	r3, r6
 800 0150 2288     		ldrh	r2, [r4]
 801 0152 06A9     		add	r1, sp, #24
 802 0154 5846     		mov	r0, fp
 803              	.LVL88:
 303:lvgl/lvgl/src/draw/lv_draw_line.c ****                            dsc->color, mask_buf, mask_res, dsc->opa,
 804              		.loc 1 303 13 is_stmt 0 discriminator 2 view .LVU281
 805 0156 FFF7FEFF 		bl	_lv_blend_fill
 806              	.LVL89:
 307:lvgl/lvgl/src/draw/lv_draw_line.c ****             fill_area.y2++;
 807              		.loc 1 307 13 is_stmt 1 discriminator 2 view .LVU282
 307:lvgl/lvgl/src/draw/lv_draw_line.c ****             fill_area.y2++;
 808              		.loc 1 307 22 is_stmt 0 discriminator 2 view .LVU283
 809 015a BDF91A30 		ldrsh	r3, [sp, #26]
 307:lvgl/lvgl/src/draw/lv_draw_line.c ****             fill_area.y2++;
 810              		.loc 1 307 25 discriminator 2 view .LVU284
 811 015e 0133     		adds	r3, r3, #1
 812 0160 ADF81A30 		strh	r3, [sp, #26]	@ movhi
 308:lvgl/lvgl/src/draw/lv_draw_line.c ****         }
 813              		.loc 1 308 13 is_stmt 1 discriminator 2 view .LVU285
 308:lvgl/lvgl/src/draw/lv_draw_line.c ****         }
 814              		.loc 1 308 22 is_stmt 0 discriminator 2 view .LVU286
 815 0164 BDF91E30 		ldrsh	r3, [sp, #30]
ARM GAS  C:\Users\gx\AppData\Local\Temp\cc0GSSNc.s 			page 25


 308:lvgl/lvgl/src/draw/lv_draw_line.c ****         }
 816              		.loc 1 308 25 discriminator 2 view .LVU287
 817 0168 0133     		adds	r3, r3, #1
 818 016a ADF81E30 		strh	r3, [sp, #30]	@ movhi
 819              	.LBE33:
 286:lvgl/lvgl/src/draw/lv_draw_line.c ****             lv_memset_ff(mask_buf, draw_area_w);
 820              		.loc 1 286 50 is_stmt 1 discriminator 2 view .LVU288
 286:lvgl/lvgl/src/draw/lv_draw_line.c ****             lv_memset_ff(mask_buf, draw_area_w);
 821              		.loc 1 286 51 is_stmt 0 discriminator 2 view .LVU289
 822 016e 0135     		adds	r5, r5, #1
 823              	.LVL90:
 824              	.L31:
 286:lvgl/lvgl/src/draw/lv_draw_line.c ****             lv_memset_ff(mask_buf, draw_area_w);
 825              		.loc 1 286 31 is_stmt 1 discriminator 1 view .LVU290
 286:lvgl/lvgl/src/draw/lv_draw_line.c ****             lv_memset_ff(mask_buf, draw_area_w);
 826              		.loc 1 286 45 is_stmt 0 discriminator 1 view .LVU291
 827 0170 BDF92630 		ldrsh	r3, [sp, #38]
 286:lvgl/lvgl/src/draw/lv_draw_line.c ****             lv_memset_ff(mask_buf, draw_area_w);
 828              		.loc 1 286 9 discriminator 1 view .LVU292
 829 0174 AB42     		cmp	r3, r5
 830 0176 22DB     		blt	.L44
 831              	.LBB34:
 287:lvgl/lvgl/src/draw/lv_draw_line.c ****             lv_draw_mask_res_t mask_res = lv_draw_mask_apply(mask_buf, draw_buf->area.x1 + draw_are
 832              		.loc 1 287 13 is_stmt 1 view .LVU293
 833 0178 0599     		ldr	r1, [sp, #20]
 834 017a 3046     		mov	r0, r6
 835 017c FFF7FEFF 		bl	lv_memset_ff
 836              	.LVL91:
 288:lvgl/lvgl/src/draw/lv_draw_line.c **** 
 837              		.loc 1 288 13 view .LVU294
 288:lvgl/lvgl/src/draw/lv_draw_line.c **** 
 838              		.loc 1 288 86 is_stmt 0 view .LVU295
 839 0180 B8F81010 		ldrh	r1, [r8, #16]
 288:lvgl/lvgl/src/draw/lv_draw_line.c **** 
 840              		.loc 1 288 101 view .LVU296
 841 0184 BDF82030 		ldrh	r3, [sp, #32]
 288:lvgl/lvgl/src/draw/lv_draw_line.c **** 
 842              		.loc 1 288 90 view .LVU297
 843 0188 1944     		add	r1, r1, r3
 288:lvgl/lvgl/src/draw/lv_draw_line.c **** 
 844              		.loc 1 288 120 view .LVU298
 845 018a B8F81220 		ldrh	r2, [r8, #18]
 288:lvgl/lvgl/src/draw/lv_draw_line.c **** 
 846              		.loc 1 288 124 view .LVU299
 847 018e 2A44     		add	r2, r2, r5
 288:lvgl/lvgl/src/draw/lv_draw_line.c **** 
 848              		.loc 1 288 43 view .LVU300
 849 0190 5346     		mov	r3, r10
 850 0192 12B2     		sxth	r2, r2
 851 0194 09B2     		sxth	r1, r1
 852 0196 3046     		mov	r0, r6
 853 0198 FFF7FEFF 		bl	lv_draw_mask_apply
 854              	.LVL92:
 290:lvgl/lvgl/src/draw/lv_draw_line.c ****                 if(mask_res != LV_DRAW_MASK_RES_TRANSP) {
 855              		.loc 1 290 13 is_stmt 1 view .LVU301
 290:lvgl/lvgl/src/draw/lv_draw_line.c ****                 if(mask_res != LV_DRAW_MASK_RES_TRANSP) {
 856              		.loc 1 290 15 is_stmt 0 view .LVU302
ARM GAS  C:\Users\gx\AppData\Local\Temp\cc0GSSNc.s 			page 26


 857 019c 002F     		cmp	r7, #0
 858 019e D1D0     		beq	.L32
 291:lvgl/lvgl/src/draw/lv_draw_line.c ****                     if(dash_cnt > dsc->dash_width) {
 859              		.loc 1 291 17 is_stmt 1 view .LVU303
 291:lvgl/lvgl/src/draw/lv_draw_line.c ****                     if(dash_cnt > dsc->dash_width) {
 860              		.loc 1 291 19 is_stmt 0 view .LVU304
 861 01a0 0028     		cmp	r0, #0
 862 01a2 CBD0     		beq	.L33
 292:lvgl/lvgl/src/draw/lv_draw_line.c ****                         mask_res = LV_DRAW_MASK_RES_TRANSP;
 863              		.loc 1 292 21 is_stmt 1 view .LVU305
 292:lvgl/lvgl/src/draw/lv_draw_line.c ****                         mask_res = LV_DRAW_MASK_RES_TRANSP;
 864              		.loc 1 292 38 is_stmt 0 view .LVU306
 865 01a4 B4F90420 		ldrsh	r2, [r4, #4]
 292:lvgl/lvgl/src/draw/lv_draw_line.c ****                         mask_res = LV_DRAW_MASK_RES_TRANSP;
 866              		.loc 1 292 23 view .LVU307
 867 01a8 4A45     		cmp	r2, r9
 868 01aa 00DA     		bge	.L34
 293:lvgl/lvgl/src/draw/lv_draw_line.c ****                     }
 869              		.loc 1 293 34 view .LVU308
 870 01ac 0020     		movs	r0, #0
 871              	.LVL93:
 872              	.L34:
 296:lvgl/lvgl/src/draw/lv_draw_line.c ****                         dash_cnt = 0;
 873              		.loc 1 296 21 is_stmt 1 view .LVU309
 296:lvgl/lvgl/src/draw/lv_draw_line.c ****                         dash_cnt = 0;
 874              		.loc 1 296 39 is_stmt 0 view .LVU310
 875 01ae B4F90630 		ldrsh	r3, [r4, #6]
 296:lvgl/lvgl/src/draw/lv_draw_line.c ****                         dash_cnt = 0;
 876              		.loc 1 296 50 view .LVU311
 877 01b2 1344     		add	r3, r3, r2
 296:lvgl/lvgl/src/draw/lv_draw_line.c ****                         dash_cnt = 0;
 878              		.loc 1 296 23 view .LVU312
 879 01b4 9945     		cmp	r9, r3
 880 01b6 C1DB     		blt	.L33
 297:lvgl/lvgl/src/draw/lv_draw_line.c ****                     }
 881              		.loc 1 297 34 view .LVU313
 882 01b8 4FF00009 		mov	r9, #0
 883              	.LVL94:
 297:lvgl/lvgl/src/draw/lv_draw_line.c ****                     }
 884              		.loc 1 297 34 view .LVU314
 885 01bc BEE7     		b	.L33
 886              	.LVL95:
 887              	.L44:
 297:lvgl/lvgl/src/draw/lv_draw_line.c ****                     }
 888              		.loc 1 297 34 view .LVU315
 889              	.LBE34:
 310:lvgl/lvgl/src/draw/lv_draw_line.c ****     }
 890              		.loc 1 310 9 is_stmt 1 view .LVU316
 891 01be 3046     		mov	r0, r6
 892 01c0 FFF7FEFF 		bl	lv_mem_buf_release
 893              	.LVL96:
 894 01c4 5FE7     		b	.L24
 895              	.LBE35:
 896              		.cfi_endproc
 897              	.LFE155:
 899              		.section	.text.draw_line_skew,"ax",%progbits
 900              		.align	1
ARM GAS  C:\Users\gx\AppData\Local\Temp\cc0GSSNc.s 			page 27


 901              		.syntax unified
 902              		.thumb
 903              		.thumb_func
 904              		.fpu fpv4-sp-d16
 906              	draw_line_skew:
 907              	.LVL97:
 908              	.LFB156:
 314:lvgl/lvgl/src/draw/lv_draw_line.c **** 
 315:lvgl/lvgl/src/draw/lv_draw_line.c **** LV_ATTRIBUTE_FAST_MEM static void draw_line_skew(const lv_point_t * point1, const lv_point_t * poin
 316:lvgl/lvgl/src/draw/lv_draw_line.c ****                                                  const lv_area_t * clip,
 317:lvgl/lvgl/src/draw/lv_draw_line.c ****                                                  const lv_draw_line_dsc_t * dsc)
 318:lvgl/lvgl/src/draw/lv_draw_line.c **** {
 909              		.loc 1 318 1 view -0
 910              		.cfi_startproc
 911              		@ args = 0, pretend = 0, frame = 224
 912              		@ frame_needed = 0, uses_anonymous_args = 0
 913              		.loc 1 318 1 is_stmt 0 view .LVU318
 914 0000 2DE9F04F 		push	{r4, r5, r6, r7, r8, r9, r10, fp, lr}
 915              	.LCFI7:
 916              		.cfi_def_cfa_offset 36
 917              		.cfi_offset 4, -36
 918              		.cfi_offset 5, -32
 919              		.cfi_offset 6, -28
 920              		.cfi_offset 7, -24
 921              		.cfi_offset 8, -20
 922              		.cfi_offset 9, -16
 923              		.cfi_offset 10, -12
 924              		.cfi_offset 11, -8
 925              		.cfi_offset 14, -4
 926 0004 BDB0     		sub	sp, sp, #244
 927              	.LCFI8:
 928              		.cfi_def_cfa_offset 280
 929 0006 0592     		str	r2, [sp, #20]
 930 0008 9A46     		mov	r10, r3
 319:lvgl/lvgl/src/draw/lv_draw_line.c **** #if LV_DRAW_COMPLEX
 320:lvgl/lvgl/src/draw/lv_draw_line.c ****     /*Keep the great y in p1*/
 321:lvgl/lvgl/src/draw/lv_draw_line.c ****     lv_point_t p1;
 931              		.loc 1 321 5 is_stmt 1 view .LVU319
 322:lvgl/lvgl/src/draw/lv_draw_line.c ****     lv_point_t p2;
 932              		.loc 1 322 5 view .LVU320
 323:lvgl/lvgl/src/draw/lv_draw_line.c ****     if(point1->y < point2->y) {
 933              		.loc 1 323 5 view .LVU321
 934              		.loc 1 323 14 is_stmt 0 view .LVU322
 935 000a B0F90230 		ldrsh	r3, [r0, #2]
 936              	.LVL98:
 937              		.loc 1 323 26 view .LVU323
 938 000e B1F90220 		ldrsh	r2, [r1, #2]
 939              	.LVL99:
 940              		.loc 1 323 7 view .LVU324
 941 0012 9342     		cmp	r3, r2
 942 0014 80F2F380 		bge	.L46
 324:lvgl/lvgl/src/draw/lv_draw_line.c ****         p1.y = point1->y;
 943              		.loc 1 324 9 is_stmt 1 view .LVU325
 944              		.loc 1 324 14 is_stmt 0 view .LVU326
 945 0018 ADF8EE30 		strh	r3, [sp, #238]	@ movhi
 325:lvgl/lvgl/src/draw/lv_draw_line.c ****         p2.y = point2->y;
 946              		.loc 1 325 9 is_stmt 1 view .LVU327
ARM GAS  C:\Users\gx\AppData\Local\Temp\cc0GSSNc.s 			page 28


 947              		.loc 1 325 14 is_stmt 0 view .LVU328
 948 001c ADF8EA20 		strh	r2, [sp, #234]	@ movhi
 326:lvgl/lvgl/src/draw/lv_draw_line.c ****         p1.x = point1->x;
 949              		.loc 1 326 9 is_stmt 1 view .LVU329
 950              		.loc 1 326 22 is_stmt 0 view .LVU330
 951 0020 B0F90030 		ldrsh	r3, [r0]
 952              		.loc 1 326 14 view .LVU331
 953 0024 ADF8EC30 		strh	r3, [sp, #236]	@ movhi
 327:lvgl/lvgl/src/draw/lv_draw_line.c ****         p2.x = point2->x;
 954              		.loc 1 327 9 is_stmt 1 view .LVU332
 955              		.loc 1 327 22 is_stmt 0 view .LVU333
 956 0028 B1F90030 		ldrsh	r3, [r1]
 957              		.loc 1 327 14 view .LVU334
 958 002c ADF8E830 		strh	r3, [sp, #232]	@ movhi
 959              	.L47:
 328:lvgl/lvgl/src/draw/lv_draw_line.c ****     }
 329:lvgl/lvgl/src/draw/lv_draw_line.c ****     else {
 330:lvgl/lvgl/src/draw/lv_draw_line.c ****         p1.y = point2->y;
 331:lvgl/lvgl/src/draw/lv_draw_line.c ****         p2.y = point1->y;
 332:lvgl/lvgl/src/draw/lv_draw_line.c ****         p1.x = point2->x;
 333:lvgl/lvgl/src/draw/lv_draw_line.c ****         p2.x = point1->x;
 334:lvgl/lvgl/src/draw/lv_draw_line.c ****     }
 335:lvgl/lvgl/src/draw/lv_draw_line.c **** 
 336:lvgl/lvgl/src/draw/lv_draw_line.c ****     int32_t xdiff = p2.x - p1.x;
 960              		.loc 1 336 5 is_stmt 1 view .LVU335
 961              		.loc 1 336 23 is_stmt 0 view .LVU336
 962 0030 BDF9E840 		ldrsh	r4, [sp, #232]
 963              		.loc 1 336 30 view .LVU337
 964 0034 BDF9EC50 		ldrsh	r5, [sp, #236]
 965              		.loc 1 336 13 view .LVU338
 966 0038 A4EB0508 		sub	r8, r4, r5
 967              	.LVL100:
 337:lvgl/lvgl/src/draw/lv_draw_line.c ****     int32_t ydiff = p2.y - p1.y;
 968              		.loc 1 337 5 is_stmt 1 view .LVU339
 969              		.loc 1 337 23 is_stmt 0 view .LVU340
 970 003c BDF9EA60 		ldrsh	r6, [sp, #234]
 971              		.loc 1 337 30 view .LVU341
 972 0040 BDF9EE70 		ldrsh	r7, [sp, #238]
 973              		.loc 1 337 13 view .LVU342
 974 0044 F31B     		subs	r3, r6, r7
 975 0046 0793     		str	r3, [sp, #28]
 976              	.LVL101:
 338:lvgl/lvgl/src/draw/lv_draw_line.c ****     bool flat = LV_ABS(xdiff) > LV_ABS(ydiff) ? true : false;
 977              		.loc 1 338 5 is_stmt 1 view .LVU343
 978              		.loc 1 338 17 is_stmt 0 view .LVU344
 979 0048 88EAE87B 		eor	fp, r8, r8, asr #31
 980 004c ABEBE87B 		sub	fp, fp, r8, asr #31
 981              		.loc 1 338 33 view .LVU345
 982 0050 002B     		cmp	r3, #0
 983 0052 B8BF     		it	lt
 984 0054 5B42     		rsblt	r3, r3, #0
 985              	.LVL102:
 986              		.loc 1 338 33 view .LVU346
 987 0056 9946     		mov	r9, r3
 988              	.LVL103:
 339:lvgl/lvgl/src/draw/lv_draw_line.c **** 
 340:lvgl/lvgl/src/draw/lv_draw_line.c ****     static const uint8_t wcorr[] = {
ARM GAS  C:\Users\gx\AppData\Local\Temp\cc0GSSNc.s 			page 29


 989              		.loc 1 340 5 is_stmt 1 view .LVU347
 341:lvgl/lvgl/src/draw/lv_draw_line.c ****         128, 128, 128, 129, 129, 130, 130, 131,
 342:lvgl/lvgl/src/draw/lv_draw_line.c ****         132, 133, 134, 135, 137, 138, 140, 141,
 343:lvgl/lvgl/src/draw/lv_draw_line.c ****         143, 145, 147, 149, 151, 153, 155, 158,
 344:lvgl/lvgl/src/draw/lv_draw_line.c ****         160, 162, 165, 167, 170, 173, 175, 178,
 345:lvgl/lvgl/src/draw/lv_draw_line.c ****         181,
 346:lvgl/lvgl/src/draw/lv_draw_line.c ****     };
 347:lvgl/lvgl/src/draw/lv_draw_line.c **** 
 348:lvgl/lvgl/src/draw/lv_draw_line.c ****     int32_t w = dsc->width;
 990              		.loc 1 348 5 view .LVU348
 991              		.loc 1 348 20 is_stmt 0 view .LVU349
 992 0058 BAF90230 		ldrsh	r3, [r10, #2]
 993              	.LVL104:
 349:lvgl/lvgl/src/draw/lv_draw_line.c ****     int32_t wcorr_i = 0;
 994              		.loc 1 349 5 is_stmt 1 view .LVU350
 350:lvgl/lvgl/src/draw/lv_draw_line.c ****     if(flat) wcorr_i = (LV_ABS(ydiff) << 5) / LV_ABS(xdiff);
 995              		.loc 1 350 5 view .LVU351
 996              		.loc 1 350 7 is_stmt 0 view .LVU352
 997 005c CB45     		cmp	fp, r9
 998 005e 40F3DB80 		ble	.L48
 999              		.loc 1 350 14 is_stmt 1 discriminator 1 view .LVU353
 1000              		.loc 1 350 39 is_stmt 0 discriminator 1 view .LVU354
 1001 0062 4FEA4912 		lsl	r2, r9, #5
 1002              		.loc 1 350 22 discriminator 1 view .LVU355
 1003 0066 92FBFBF2 		sdiv	r2, r2, fp
 1004              	.LVL105:
 1005              	.L49:
 351:lvgl/lvgl/src/draw/lv_draw_line.c ****     else wcorr_i = (LV_ABS(xdiff) << 5) / LV_ABS(ydiff);
 352:lvgl/lvgl/src/draw/lv_draw_line.c **** 
 353:lvgl/lvgl/src/draw/lv_draw_line.c ****     w = (w * wcorr[wcorr_i] + 63) >> 7;     /*+ 63 for rounding*/
 1006              		.loc 1 353 5 is_stmt 1 view .LVU356
 1007              		.loc 1 353 19 is_stmt 0 view .LVU357
 1008 006a CA49     		ldr	r1, .L74
 1009              	.LVL106:
 1010              		.loc 1 353 19 view .LVU358
 1011 006c 8A5C     		ldrb	r2, [r1, r2]	@ zero_extendqisi2
 1012              	.LVL107:
 1013              		.loc 1 353 12 view .LVU359
 1014 006e 03FB02F3 		mul	r3, r3, r2
 1015              	.LVL108:
 1016              		.loc 1 353 29 view .LVU360
 1017 0072 3F33     		adds	r3, r3, #63
 1018              	.LVL109:
 354:lvgl/lvgl/src/draw/lv_draw_line.c ****     int32_t w_half0 = w >> 1;
 1019              		.loc 1 354 5 is_stmt 1 view .LVU361
 1020              		.loc 1 354 13 is_stmt 0 view .LVU362
 1021 0074 1A12     		asrs	r2, r3, #8
 1022 0076 0492     		str	r2, [sp, #16]
 1023              	.LVL110:
 355:lvgl/lvgl/src/draw/lv_draw_line.c ****     int32_t w_half1 = w_half0 + (w & 0x1); /*Compensate rounding error*/
 1024              		.loc 1 355 5 is_stmt 1 view .LVU363
 1025              		.loc 1 355 36 is_stmt 0 view .LVU364
 1026 0078 C3F3C012 		ubfx	r2, r3, #7, #1
 1027              	.LVL111:
 1028              		.loc 1 355 13 view .LVU365
 1029 007c 02EB2321 		add	r1, r2, r3, asr #8
 1030 0080 0691     		str	r1, [sp, #24]
ARM GAS  C:\Users\gx\AppData\Local\Temp\cc0GSSNc.s 			page 30


 1031              	.LVL112:
 356:lvgl/lvgl/src/draw/lv_draw_line.c **** 
 357:lvgl/lvgl/src/draw/lv_draw_line.c ****     lv_area_t draw_area;
 1032              		.loc 1 357 5 is_stmt 1 view .LVU366
 358:lvgl/lvgl/src/draw/lv_draw_line.c ****     draw_area.x1 = LV_MIN(p1.x, p2.x) - w;
 1033              		.loc 1 358 5 view .LVU367
 1034              		.loc 1 358 20 is_stmt 0 view .LVU368
 1035 0082 2246     		mov	r2, r4
 1036 0084 AC42     		cmp	r4, r5
 1037 0086 A8BF     		it	ge
 1038 0088 2A46     		movge	r2, r5
 1039 008a 92B2     		uxth	r2, r2
 1040              		.loc 1 358 39 view .LVU369
 1041 008c C3F3CF13 		ubfx	r3, r3, #7, #16
 1042              	.LVL113:
 1043              		.loc 1 358 39 view .LVU370
 1044 0090 D21A     		subs	r2, r2, r3
 1045              		.loc 1 358 18 view .LVU371
 1046 0092 ADF8E020 		strh	r2, [sp, #224]	@ movhi
 359:lvgl/lvgl/src/draw/lv_draw_line.c ****     draw_area.x2 = LV_MAX(p1.x, p2.x) + w;
 1047              		.loc 1 359 5 is_stmt 1 view .LVU372
 1048              		.loc 1 359 20 is_stmt 0 view .LVU373
 1049 0096 2246     		mov	r2, r4
 1050 0098 AC42     		cmp	r4, r5
 1051 009a B8BF     		it	lt
 1052 009c 2A46     		movlt	r2, r5
 1053              		.loc 1 359 39 view .LVU374
 1054 009e 13FA82F2 		uxtah	r2, r3, r2
 1055              		.loc 1 359 18 view .LVU375
 1056 00a2 ADF8E420 		strh	r2, [sp, #228]	@ movhi
 360:lvgl/lvgl/src/draw/lv_draw_line.c ****     draw_area.y1 = LV_MIN(p1.y, p2.y) - w;
 1057              		.loc 1 360 5 is_stmt 1 view .LVU376
 1058              		.loc 1 360 20 is_stmt 0 view .LVU377
 1059 00a6 3246     		mov	r2, r6
 1060 00a8 BE42     		cmp	r6, r7
 1061 00aa A8BF     		it	ge
 1062 00ac 3A46     		movge	r2, r7
 1063 00ae 92B2     		uxth	r2, r2
 1064              		.loc 1 360 39 view .LVU378
 1065 00b0 D21A     		subs	r2, r2, r3
 1066              		.loc 1 360 18 view .LVU379
 1067 00b2 ADF8E220 		strh	r2, [sp, #226]	@ movhi
 361:lvgl/lvgl/src/draw/lv_draw_line.c ****     draw_area.y2 = LV_MAX(p1.y, p2.y) + w;
 1068              		.loc 1 361 5 is_stmt 1 view .LVU380
 1069              		.loc 1 361 20 is_stmt 0 view .LVU381
 1070 00b6 3246     		mov	r2, r6
 1071 00b8 BE42     		cmp	r6, r7
 1072 00ba B8BF     		it	lt
 1073 00bc 3A46     		movlt	r2, r7
 1074              		.loc 1 361 39 view .LVU382
 1075 00be 13FA82F3 		uxtah	r3, r3, r2
 1076              		.loc 1 361 18 view .LVU383
 1077 00c2 ADF8E630 		strh	r3, [sp, #230]	@ movhi
 362:lvgl/lvgl/src/draw/lv_draw_line.c **** 
 363:lvgl/lvgl/src/draw/lv_draw_line.c ****     /*Get the union of `coords` and `clip`*/
 364:lvgl/lvgl/src/draw/lv_draw_line.c ****     /*`clip` is already truncated to the `draw_buf` size
 365:lvgl/lvgl/src/draw/lv_draw_line.c ****      *in 'lv_refr_area' function*/
ARM GAS  C:\Users\gx\AppData\Local\Temp\cc0GSSNc.s 			page 31


 366:lvgl/lvgl/src/draw/lv_draw_line.c ****     bool is_common = _lv_area_intersect(&draw_area, &draw_area, clip);
 1078              		.loc 1 366 5 is_stmt 1 view .LVU384
 1079              		.loc 1 366 22 is_stmt 0 view .LVU385
 1080 00c6 059A     		ldr	r2, [sp, #20]
 1081 00c8 38AB     		add	r3, sp, #224
 1082 00ca 1946     		mov	r1, r3
 1083              	.LVL114:
 1084              		.loc 1 366 22 view .LVU386
 1085 00cc 1846     		mov	r0, r3
 1086              	.LVL115:
 1087              		.loc 1 366 22 view .LVU387
 1088 00ce FFF7FEFF 		bl	_lv_area_intersect
 1089              	.LVL116:
 367:lvgl/lvgl/src/draw/lv_draw_line.c ****     if(is_common == false) return;
 1090              		.loc 1 367 5 is_stmt 1 view .LVU388
 1091              		.loc 1 367 7 is_stmt 0 view .LVU389
 1092 00d2 0028     		cmp	r0, #0
 1093 00d4 00F08381 		beq	.L45
 368:lvgl/lvgl/src/draw/lv_draw_line.c **** 
 369:lvgl/lvgl/src/draw/lv_draw_line.c ****     lv_draw_mask_line_param_t mask_left_param;
 1094              		.loc 1 369 5 is_stmt 1 view .LVU390
 370:lvgl/lvgl/src/draw/lv_draw_line.c ****     lv_draw_mask_line_param_t mask_right_param;
 1095              		.loc 1 370 5 view .LVU391
 371:lvgl/lvgl/src/draw/lv_draw_line.c ****     lv_draw_mask_line_param_t mask_top_param;
 1096              		.loc 1 371 5 view .LVU392
 372:lvgl/lvgl/src/draw/lv_draw_line.c ****     lv_draw_mask_line_param_t mask_bottom_param;
 1097              		.loc 1 372 5 view .LVU393
 373:lvgl/lvgl/src/draw/lv_draw_line.c **** 
 374:lvgl/lvgl/src/draw/lv_draw_line.c ****     if(flat) {
 1098              		.loc 1 374 5 view .LVU394
 1099              		.loc 1 374 7 is_stmt 0 view .LVU395
 1100 00d8 CB45     		cmp	fp, r9
 1101 00da 40F3C780 		ble	.L52
 375:lvgl/lvgl/src/draw/lv_draw_line.c ****         if(xdiff > 0) {
 1102              		.loc 1 375 9 is_stmt 1 view .LVU396
 1103              		.loc 1 375 11 is_stmt 0 view .LVU397
 1104 00de B8F1000F 		cmp	r8, #0
 1105 00e2 40F39E80 		ble	.L53
 376:lvgl/lvgl/src/draw/lv_draw_line.c ****             lv_draw_mask_line_points_init(&mask_left_param, p1.x, p1.y - w_half0, p2.x, p2.y - w_ha
 1106              		.loc 1 376 13 is_stmt 1 view .LVU398
 1107              		.loc 1 376 69 is_stmt 0 view .LVU399
 1108 00e6 1FFA87FB 		uxth	fp, r7
 1109              	.LVL117:
 1110              		.loc 1 376 72 view .LVU400
 1111 00ea BDF81030 		ldrh	r3, [sp, #16]
 1112 00ee ABEB0302 		sub	r2, fp, r3
 1113              		.loc 1 376 91 view .LVU401
 1114 00f2 1FFA86F9 		uxth	r9, r6
 1115              	.LVL118:
 1116              		.loc 1 376 94 view .LVU402
 1117 00f6 A9EB0303 		sub	r3, r9, r3
 1118              		.loc 1 376 13 view .LVU403
 1119 00fa 0021     		movs	r1, #0
 1120 00fc 0191     		str	r1, [sp, #4]
 1121 00fe 1BB2     		sxth	r3, r3
 1122 0100 0093     		str	r3, [sp]
 1123 0102 2346     		mov	r3, r4
ARM GAS  C:\Users\gx\AppData\Local\Temp\cc0GSSNc.s 			page 32


 1124 0104 12B2     		sxth	r2, r2
 1125 0106 2946     		mov	r1, r5
 1126 0108 2DA8     		add	r0, sp, #180
 1127              	.LVL119:
 1128              		.loc 1 376 13 view .LVU404
 1129 010a FFF7FEFF 		bl	lv_draw_mask_line_points_init
 1130              	.LVL120:
 377:lvgl/lvgl/src/draw/lv_draw_line.c ****                                           LV_DRAW_MASK_LINE_SIDE_LEFT);
 378:lvgl/lvgl/src/draw/lv_draw_line.c ****             lv_draw_mask_line_points_init(&mask_right_param, p1.x, p1.y + w_half1, p2.x, p2.y + w_h
 1131              		.loc 1 378 13 is_stmt 1 view .LVU405
 1132              		.loc 1 378 73 is_stmt 0 view .LVU406
 1133 010e BDF81830 		ldrh	r3, [sp, #24]
 1134 0112 0BEB0302 		add	r2, fp, r3
 1135              		.loc 1 378 95 view .LVU407
 1136 0116 9944     		add	r9, r9, r3
 1137              		.loc 1 378 13 view .LVU408
 1138 0118 0123     		movs	r3, #1
 1139 011a 0193     		str	r3, [sp, #4]
 1140 011c 0FFA89F3 		sxth	r3, r9
 1141 0120 0093     		str	r3, [sp]
 1142 0122 2346     		mov	r3, r4
 1143 0124 12B2     		sxth	r2, r2
 1144 0126 2946     		mov	r1, r5
 1145 0128 22A8     		add	r0, sp, #136
 1146 012a FFF7FEFF 		bl	lv_draw_mask_line_points_init
 1147              	.LVL121:
 1148              	.L54:
 379:lvgl/lvgl/src/draw/lv_draw_line.c ****                                           LV_DRAW_MASK_LINE_SIDE_RIGHT);
 380:lvgl/lvgl/src/draw/lv_draw_line.c ****         }
 381:lvgl/lvgl/src/draw/lv_draw_line.c ****         else {
 382:lvgl/lvgl/src/draw/lv_draw_line.c ****             lv_draw_mask_line_points_init(&mask_left_param, p1.x, p1.y + w_half1, p2.x, p2.y + w_ha
 383:lvgl/lvgl/src/draw/lv_draw_line.c ****                                           LV_DRAW_MASK_LINE_SIDE_LEFT);
 384:lvgl/lvgl/src/draw/lv_draw_line.c ****             lv_draw_mask_line_points_init(&mask_right_param, p1.x, p1.y - w_half0, p2.x, p2.y - w_h
 385:lvgl/lvgl/src/draw/lv_draw_line.c ****                                           LV_DRAW_MASK_LINE_SIDE_RIGHT);
 386:lvgl/lvgl/src/draw/lv_draw_line.c ****         }
 387:lvgl/lvgl/src/draw/lv_draw_line.c ****     }
 388:lvgl/lvgl/src/draw/lv_draw_line.c ****     else {
 389:lvgl/lvgl/src/draw/lv_draw_line.c ****         lv_draw_mask_line_points_init(&mask_left_param, p1.x + w_half1, p1.y, p2.x + w_half1, p2.y,
 390:lvgl/lvgl/src/draw/lv_draw_line.c ****                                       LV_DRAW_MASK_LINE_SIDE_LEFT);
 391:lvgl/lvgl/src/draw/lv_draw_line.c ****         lv_draw_mask_line_points_init(&mask_right_param, p1.x - w_half0, p1.y, p2.x - w_half0, p2.y
 392:lvgl/lvgl/src/draw/lv_draw_line.c ****                                       LV_DRAW_MASK_LINE_SIDE_RIGHT);
 393:lvgl/lvgl/src/draw/lv_draw_line.c ****     }
 394:lvgl/lvgl/src/draw/lv_draw_line.c **** 
 395:lvgl/lvgl/src/draw/lv_draw_line.c ****     /*Use the normal vector for the endings*/
 396:lvgl/lvgl/src/draw/lv_draw_line.c **** 
 397:lvgl/lvgl/src/draw/lv_draw_line.c ****     int16_t mask_left_id = lv_draw_mask_add(&mask_left_param, NULL);
 1149              		.loc 1 397 5 is_stmt 1 view .LVU409
 1150              		.loc 1 397 28 is_stmt 0 view .LVU410
 1151 012e 0021     		movs	r1, #0
 1152 0130 2DA8     		add	r0, sp, #180
 1153 0132 FFF7FEFF 		bl	lv_draw_mask_add
 1154              	.LVL122:
 1155 0136 0890     		str	r0, [sp, #32]
 1156              	.LVL123:
 398:lvgl/lvgl/src/draw/lv_draw_line.c ****     int16_t mask_right_id = lv_draw_mask_add(&mask_right_param, NULL);
 1157              		.loc 1 398 5 is_stmt 1 view .LVU411
 1158              		.loc 1 398 29 is_stmt 0 view .LVU412
ARM GAS  C:\Users\gx\AppData\Local\Temp\cc0GSSNc.s 			page 33


 1159 0138 0021     		movs	r1, #0
 1160 013a 22A8     		add	r0, sp, #136
 1161 013c FFF7FEFF 		bl	lv_draw_mask_add
 1162              	.LVL124:
 1163 0140 0990     		str	r0, [sp, #36]
 1164              	.LVL125:
 399:lvgl/lvgl/src/draw/lv_draw_line.c ****     int16_t mask_top_id = LV_MASK_ID_INV;
 1165              		.loc 1 399 5 is_stmt 1 view .LVU413
 400:lvgl/lvgl/src/draw/lv_draw_line.c ****     int16_t mask_bottom_id = LV_MASK_ID_INV;
 1166              		.loc 1 400 5 view .LVU414
 401:lvgl/lvgl/src/draw/lv_draw_line.c **** 
 402:lvgl/lvgl/src/draw/lv_draw_line.c ****     if(!dsc->raw_end) {
 1167              		.loc 1 402 5 view .LVU415
 1168              		.loc 1 402 8 is_stmt 0 view .LVU416
 1169 0142 9AF80930 		ldrb	r3, [r10, #9]	@ zero_extendqisi2
 1170              		.loc 1 402 7 view .LVU417
 1171 0146 13F0100F 		tst	r3, #16
 1172 014a 00F0B180 		beq	.L67
 400:lvgl/lvgl/src/draw/lv_draw_line.c ****     int16_t mask_bottom_id = LV_MASK_ID_INV;
 1173              		.loc 1 400 13 view .LVU418
 1174 014e 4FF0FF33 		mov	r3, #-1
 1175 0152 0793     		str	r3, [sp, #28]
 1176              	.LVL126:
 399:lvgl/lvgl/src/draw/lv_draw_line.c ****     int16_t mask_bottom_id = LV_MASK_ID_INV;
 1177              		.loc 1 399 13 view .LVU419
 1178 0154 0693     		str	r3, [sp, #24]
 1179              	.LVL127:
 1180              	.L55:
 403:lvgl/lvgl/src/draw/lv_draw_line.c ****         lv_draw_mask_line_points_init(&mask_top_param, p1.x, p1.y, p1.x - ydiff, p1.y + xdiff, LV_D
 404:lvgl/lvgl/src/draw/lv_draw_line.c ****         lv_draw_mask_line_points_init(&mask_bottom_param, p2.x, p2.y, p2.x - ydiff, p2.y + xdiff,  
 405:lvgl/lvgl/src/draw/lv_draw_line.c ****         mask_top_id = lv_draw_mask_add(&mask_top_param, NULL);
 406:lvgl/lvgl/src/draw/lv_draw_line.c ****         mask_bottom_id = lv_draw_mask_add(&mask_bottom_param, NULL);
 407:lvgl/lvgl/src/draw/lv_draw_line.c ****     }
 408:lvgl/lvgl/src/draw/lv_draw_line.c **** 
 409:lvgl/lvgl/src/draw/lv_draw_line.c ****     lv_disp_t * disp = _lv_refr_get_disp_refreshing();
 1181              		.loc 1 409 5 is_stmt 1 view .LVU420
 1182              		.loc 1 409 24 is_stmt 0 view .LVU421
 1183 0156 FFF7FEFF 		bl	_lv_refr_get_disp_refreshing
 1184              	.LVL128:
 1185 015a 0546     		mov	r5, r0
 1186              	.LVL129:
 410:lvgl/lvgl/src/draw/lv_draw_line.c ****     lv_disp_draw_buf_t * draw_buf = lv_disp_get_draw_buf(disp);
 1187              		.loc 1 410 5 is_stmt 1 view .LVU422
 1188              		.loc 1 410 37 is_stmt 0 view .LVU423
 1189 015c FFF7FEFF 		bl	lv_disp_get_draw_buf
 1190              	.LVL130:
 1191              		.loc 1 410 37 view .LVU424
 1192 0160 8146     		mov	r9, r0
 1193              	.LVL131:
 411:lvgl/lvgl/src/draw/lv_draw_line.c **** 
 412:lvgl/lvgl/src/draw/lv_draw_line.c ****     const lv_area_t * disp_area = &draw_buf->area;
 1194              		.loc 1 412 5 is_stmt 1 view .LVU425
 413:lvgl/lvgl/src/draw/lv_draw_line.c **** 
 414:lvgl/lvgl/src/draw/lv_draw_line.c ****     /*Store the coordinates of the `draw_a` relative to the draw_buf*/
 415:lvgl/lvgl/src/draw/lv_draw_line.c ****     draw_area.x1 -= disp_area->x1;
 1195              		.loc 1 415 5 view .LVU426
 1196              		.loc 1 415 30 is_stmt 0 view .LVU427
ARM GAS  C:\Users\gx\AppData\Local\Temp\cc0GSSNc.s 			page 34


 1197 0162 008A     		ldrh	r0, [r0, #16]
 1198              	.LVL132:
 1199              		.loc 1 415 18 view .LVU428
 1200 0164 BDF8E040 		ldrh	r4, [sp, #224]
 1201              	.LVL133:
 1202              		.loc 1 415 18 view .LVU429
 1203 0168 241A     		subs	r4, r4, r0
 1204 016a A4B2     		uxth	r4, r4
 1205 016c ADF8E040 		strh	r4, [sp, #224]	@ movhi
 416:lvgl/lvgl/src/draw/lv_draw_line.c ****     draw_area.y1 -= disp_area->y1;
 1206              		.loc 1 416 5 is_stmt 1 view .LVU430
 1207              		.loc 1 416 30 is_stmt 0 view .LVU431
 1208 0170 B9F81210 		ldrh	r1, [r9, #18]
 1209              		.loc 1 416 18 view .LVU432
 1210 0174 BDF8E220 		ldrh	r2, [sp, #226]
 1211 0178 521A     		subs	r2, r2, r1
 1212 017a ADF8E220 		strh	r2, [sp, #226]	@ movhi
 417:lvgl/lvgl/src/draw/lv_draw_line.c ****     draw_area.x2 -= disp_area->x1;
 1213              		.loc 1 417 5 is_stmt 1 view .LVU433
 1214              		.loc 1 417 18 is_stmt 0 view .LVU434
 1215 017e BDF8E430 		ldrh	r3, [sp, #228]
 1216 0182 1B1A     		subs	r3, r3, r0
 1217 0184 9BB2     		uxth	r3, r3
 1218 0186 ADF8E430 		strh	r3, [sp, #228]	@ movhi
 418:lvgl/lvgl/src/draw/lv_draw_line.c ****     draw_area.y2 -= disp_area->y1;
 1219              		.loc 1 418 5 is_stmt 1 view .LVU435
 1220              		.loc 1 418 18 is_stmt 0 view .LVU436
 1221 018a BDF8E620 		ldrh	r2, [sp, #230]
 1222 018e 521A     		subs	r2, r2, r1
 1223 0190 ADF8E620 		strh	r2, [sp, #230]	@ movhi
 419:lvgl/lvgl/src/draw/lv_draw_line.c **** 
 420:lvgl/lvgl/src/draw/lv_draw_line.c ****     /*The real draw area is around the line.
 421:lvgl/lvgl/src/draw/lv_draw_line.c ****      *It's easy to calculate with steep lines, but the area can be very wide with very flat lines.
 422:lvgl/lvgl/src/draw/lv_draw_line.c ****      *So deal with it only with steep lines.*/
 423:lvgl/lvgl/src/draw/lv_draw_line.c ****     int32_t draw_area_w = lv_area_get_width(&draw_area);
 1224              		.loc 1 423 5 is_stmt 1 view .LVU437
 1225              	.LVL134:
 1226              	.LBB36:
 1227              	.LBI36:
 133:lvgl/lvgl/src/draw/../misc/lv_area.h **** {
 1228              		.loc 2 133 26 view .LVU438
 1229              	.LBB37:
 1230              		.loc 2 135 5 view .LVU439
 1231              		.loc 2 135 36 is_stmt 0 view .LVU440
 1232 0194 1C1B     		subs	r4, r3, r4
 1233 0196 A4B2     		uxth	r4, r4
 1234              		.loc 2 135 49 view .LVU441
 1235 0198 0134     		adds	r4, r4, #1
 1236              		.loc 2 135 12 view .LVU442
 1237 019a 24B2     		sxth	r4, r4
 1238              	.LVL135:
 1239              		.loc 2 135 12 view .LVU443
 1240              	.LBE37:
 1241              	.LBE36:
 424:lvgl/lvgl/src/draw/lv_draw_line.c **** 
 425:lvgl/lvgl/src/draw/lv_draw_line.c ****     /*Draw the background line by line*/
 426:lvgl/lvgl/src/draw/lv_draw_line.c ****     int32_t h;
ARM GAS  C:\Users\gx\AppData\Local\Temp\cc0GSSNc.s 			page 35


 1242              		.loc 1 426 5 is_stmt 1 view .LVU444
 427:lvgl/lvgl/src/draw/lv_draw_line.c ****     uint32_t hor_res = (uint32_t)lv_disp_get_hor_res(disp);
 1243              		.loc 1 427 5 view .LVU445
 1244              		.loc 1 427 34 is_stmt 0 view .LVU446
 1245 019c 2846     		mov	r0, r5
 1246 019e FFF7FEFF 		bl	lv_disp_get_hor_res
 1247              	.LVL136:
 1248 01a2 0546     		mov	r5, r0
 1249              	.LVL137:
 1250              		.loc 1 427 14 view .LVU447
 1251 01a4 8346     		mov	fp, r0
 1252              	.LVL138:
 428:lvgl/lvgl/src/draw/lv_draw_line.c ****     size_t mask_buf_size = LV_MIN(lv_area_get_size(&draw_area), hor_res);
 1253              		.loc 1 428 5 is_stmt 1 view .LVU448
 1254              		.loc 1 428 28 is_stmt 0 view .LVU449
 1255 01a6 38A8     		add	r0, sp, #224
 1256              	.LVL139:
 1257              		.loc 1 428 28 view .LVU450
 1258 01a8 FFF7FEFF 		bl	lv_area_get_size
 1259              	.LVL140:
 1260 01ac A842     		cmp	r0, r5
 1261 01ae C0F0AD80 		bcc	.L68
 1262              	.L56:
 1263              	.LVL141:
 429:lvgl/lvgl/src/draw/lv_draw_line.c ****     lv_opa_t * mask_buf = lv_mem_buf_get(mask_buf_size);
 1264              		.loc 1 429 5 is_stmt 1 discriminator 4 view .LVU451
 1265              		.loc 1 429 27 is_stmt 0 discriminator 4 view .LVU452
 1266 01b2 5846     		mov	r0, fp
 1267 01b4 FFF7FEFF 		bl	lv_mem_buf_get
 1268              	.LVL142:
 1269 01b8 8046     		mov	r8, r0
 1270              	.LVL143:
 430:lvgl/lvgl/src/draw/lv_draw_line.c **** 
 431:lvgl/lvgl/src/draw/lv_draw_line.c ****     lv_area_t fill_area;
 1271              		.loc 1 431 5 is_stmt 1 discriminator 4 view .LVU453
 432:lvgl/lvgl/src/draw/lv_draw_line.c ****     fill_area.x1 = draw_area.x1 + disp_area->x1;
 1272              		.loc 1 432 5 discriminator 4 view .LVU454
 1273              		.loc 1 432 29 is_stmt 0 discriminator 4 view .LVU455
 1274 01ba BDF8E020 		ldrh	r2, [sp, #224]
 1275              		.loc 1 432 44 discriminator 4 view .LVU456
 1276 01be B9F81030 		ldrh	r3, [r9, #16]
 1277              		.loc 1 432 33 discriminator 4 view .LVU457
 1278 01c2 1A44     		add	r2, r2, r3
 1279 01c4 12B2     		sxth	r2, r2
 1280 01c6 0492     		str	r2, [sp, #16]
 1281              	.LVL144:
 1282              		.loc 1 432 18 discriminator 4 view .LVU458
 1283 01c8 ADF82820 		strh	r2, [sp, #40]	@ movhi
 433:lvgl/lvgl/src/draw/lv_draw_line.c ****     fill_area.x2 = draw_area.x2 + disp_area->x1;
 1284              		.loc 1 433 5 is_stmt 1 discriminator 4 view .LVU459
 1285              		.loc 1 433 29 is_stmt 0 discriminator 4 view .LVU460
 1286 01cc BDF8E420 		ldrh	r2, [sp, #228]
 1287              		.loc 1 433 33 discriminator 4 view .LVU461
 1288 01d0 1344     		add	r3, r3, r2
 1289              		.loc 1 433 18 discriminator 4 view .LVU462
 1290 01d2 ADF82C30 		strh	r3, [sp, #44]	@ movhi
 434:lvgl/lvgl/src/draw/lv_draw_line.c ****     fill_area.y1 = draw_area.y1 + disp_area->y1;
ARM GAS  C:\Users\gx\AppData\Local\Temp\cc0GSSNc.s 			page 36


 1291              		.loc 1 434 5 is_stmt 1 discriminator 4 view .LVU463
 1292              		.loc 1 434 29 is_stmt 0 discriminator 4 view .LVU464
 1293 01d6 BDF8E230 		ldrh	r3, [sp, #226]
 1294              		.loc 1 434 44 discriminator 4 view .LVU465
 1295 01da B9F81220 		ldrh	r2, [r9, #18]
 1296              		.loc 1 434 33 discriminator 4 view .LVU466
 1297 01de 1344     		add	r3, r3, r2
 1298 01e0 1BB2     		sxth	r3, r3
 1299              		.loc 1 434 18 discriminator 4 view .LVU467
 1300 01e2 ADF82A30 		strh	r3, [sp, #42]	@ movhi
 435:lvgl/lvgl/src/draw/lv_draw_line.c ****     fill_area.y2 = fill_area.y1;
 1301              		.loc 1 435 5 is_stmt 1 discriminator 4 view .LVU468
 1302              		.loc 1 435 18 is_stmt 0 discriminator 4 view .LVU469
 1303 01e6 ADF82E30 		strh	r3, [sp, #46]	@ movhi
 436:lvgl/lvgl/src/draw/lv_draw_line.c **** 
 437:lvgl/lvgl/src/draw/lv_draw_line.c ****     int32_t x = draw_buf->area.x1 + draw_area.x1;
 1304              		.loc 1 437 5 is_stmt 1 discriminator 4 view .LVU470
 1305              	.LVL145:
 438:lvgl/lvgl/src/draw/lv_draw_line.c **** 
 439:lvgl/lvgl/src/draw/lv_draw_line.c ****     uint32_t mask_p = 0;
 1306              		.loc 1 439 5 discriminator 4 view .LVU471
 440:lvgl/lvgl/src/draw/lv_draw_line.c **** 
 441:lvgl/lvgl/src/draw/lv_draw_line.c ****     lv_memset_ff(mask_buf, mask_buf_size);
 1307              		.loc 1 441 5 discriminator 4 view .LVU472
 1308 01ea 5946     		mov	r1, fp
 1309 01ec FFF7FEFF 		bl	lv_memset_ff
 1310              	.LVL146:
 442:lvgl/lvgl/src/draw/lv_draw_line.c ****     /*Fill the first row with 'color'*/
 443:lvgl/lvgl/src/draw/lv_draw_line.c ****     for(h = draw_area.y1 + disp_area->y1; h <= draw_area.y2 + disp_area->y1; h++) {
 1311              		.loc 1 443 5 discriminator 4 view .LVU473
 1312              		.loc 1 443 22 is_stmt 0 discriminator 4 view .LVU474
 1313 01f0 BDF9E250 		ldrsh	r5, [sp, #226]
 1314              	.LVL147:
 1315              		.loc 1 443 37 discriminator 4 view .LVU475
 1316 01f4 B9F91230 		ldrsh	r3, [r9, #18]
 1317              		.loc 1 443 11 discriminator 4 view .LVU476
 1318 01f8 1D44     		add	r5, r5, r3
 1319              	.LVL148:
 439:lvgl/lvgl/src/draw/lv_draw_line.c **** 
 1320              		.loc 1 439 14 discriminator 4 view .LVU477
 1321 01fa 0026     		movs	r6, #0
 1322              	.LVL149:
 1323              		.loc 1 443 5 discriminator 4 view .LVU478
 1324 01fc AFE0     		b	.L57
 1325              	.LVL150:
 1326              	.L46:
 330:lvgl/lvgl/src/draw/lv_draw_line.c ****         p2.y = point1->y;
 1327              		.loc 1 330 9 is_stmt 1 view .LVU479
 330:lvgl/lvgl/src/draw/lv_draw_line.c ****         p2.y = point1->y;
 1328              		.loc 1 330 14 is_stmt 0 view .LVU480
 1329 01fe ADF8EE20 		strh	r2, [sp, #238]	@ movhi
 331:lvgl/lvgl/src/draw/lv_draw_line.c ****         p1.x = point2->x;
 1330              		.loc 1 331 9 is_stmt 1 view .LVU481
 331:lvgl/lvgl/src/draw/lv_draw_line.c ****         p1.x = point2->x;
 1331              		.loc 1 331 14 is_stmt 0 view .LVU482
 1332 0202 ADF8EA30 		strh	r3, [sp, #234]	@ movhi
 332:lvgl/lvgl/src/draw/lv_draw_line.c ****         p2.x = point1->x;
ARM GAS  C:\Users\gx\AppData\Local\Temp\cc0GSSNc.s 			page 37


 1333              		.loc 1 332 9 is_stmt 1 view .LVU483
 332:lvgl/lvgl/src/draw/lv_draw_line.c ****         p2.x = point1->x;
 1334              		.loc 1 332 22 is_stmt 0 view .LVU484
 1335 0206 B1F90030 		ldrsh	r3, [r1]
 332:lvgl/lvgl/src/draw/lv_draw_line.c ****         p2.x = point1->x;
 1336              		.loc 1 332 14 view .LVU485
 1337 020a ADF8EC30 		strh	r3, [sp, #236]	@ movhi
 333:lvgl/lvgl/src/draw/lv_draw_line.c ****     }
 1338              		.loc 1 333 9 is_stmt 1 view .LVU486
 333:lvgl/lvgl/src/draw/lv_draw_line.c ****     }
 1339              		.loc 1 333 22 is_stmt 0 view .LVU487
 1340 020e B0F90030 		ldrsh	r3, [r0]
 333:lvgl/lvgl/src/draw/lv_draw_line.c ****     }
 1341              		.loc 1 333 14 view .LVU488
 1342 0212 ADF8E830 		strh	r3, [sp, #232]	@ movhi
 1343 0216 0BE7     		b	.L47
 1344              	.LVL151:
 1345              	.L48:
 351:lvgl/lvgl/src/draw/lv_draw_line.c **** 
 1346              		.loc 1 351 10 is_stmt 1 view .LVU489
 351:lvgl/lvgl/src/draw/lv_draw_line.c **** 
 1347              		.loc 1 351 35 is_stmt 0 view .LVU490
 1348 0218 4FEA4B12 		lsl	r2, fp, #5
 351:lvgl/lvgl/src/draw/lv_draw_line.c **** 
 1349              		.loc 1 351 18 view .LVU491
 1350 021c 92FBF9F2 		sdiv	r2, r2, r9
 1351              	.LVL152:
 351:lvgl/lvgl/src/draw/lv_draw_line.c **** 
 1352              		.loc 1 351 18 view .LVU492
 1353 0220 23E7     		b	.L49
 1354              	.LVL153:
 1355              	.L53:
 382:lvgl/lvgl/src/draw/lv_draw_line.c ****                                           LV_DRAW_MASK_LINE_SIDE_LEFT);
 1356              		.loc 1 382 13 is_stmt 1 view .LVU493
 382:lvgl/lvgl/src/draw/lv_draw_line.c ****                                           LV_DRAW_MASK_LINE_SIDE_LEFT);
 1357              		.loc 1 382 69 is_stmt 0 view .LVU494
 1358 0222 1FFA87FB 		uxth	fp, r7
 1359              	.LVL154:
 382:lvgl/lvgl/src/draw/lv_draw_line.c ****                                           LV_DRAW_MASK_LINE_SIDE_LEFT);
 1360              		.loc 1 382 72 view .LVU495
 1361 0226 BDF81830 		ldrh	r3, [sp, #24]
 1362 022a 0BEB0302 		add	r2, fp, r3
 382:lvgl/lvgl/src/draw/lv_draw_line.c ****                                           LV_DRAW_MASK_LINE_SIDE_LEFT);
 1363              		.loc 1 382 91 view .LVU496
 1364 022e 1FFA86F9 		uxth	r9, r6
 1365              	.LVL155:
 382:lvgl/lvgl/src/draw/lv_draw_line.c ****                                           LV_DRAW_MASK_LINE_SIDE_LEFT);
 1366              		.loc 1 382 94 view .LVU497
 1367 0232 4B44     		add	r3, r3, r9
 382:lvgl/lvgl/src/draw/lv_draw_line.c ****                                           LV_DRAW_MASK_LINE_SIDE_LEFT);
 1368              		.loc 1 382 13 view .LVU498
 1369 0234 0021     		movs	r1, #0
 1370 0236 0191     		str	r1, [sp, #4]
 1371 0238 1BB2     		sxth	r3, r3
 1372 023a 0093     		str	r3, [sp]
 1373 023c 2346     		mov	r3, r4
 1374 023e 12B2     		sxth	r2, r2
ARM GAS  C:\Users\gx\AppData\Local\Temp\cc0GSSNc.s 			page 38


 1375 0240 2946     		mov	r1, r5
 1376 0242 2DA8     		add	r0, sp, #180
 1377              	.LVL156:
 382:lvgl/lvgl/src/draw/lv_draw_line.c ****                                           LV_DRAW_MASK_LINE_SIDE_LEFT);
 1378              		.loc 1 382 13 view .LVU499
 1379 0244 FFF7FEFF 		bl	lv_draw_mask_line_points_init
 1380              	.LVL157:
 384:lvgl/lvgl/src/draw/lv_draw_line.c ****                                           LV_DRAW_MASK_LINE_SIDE_RIGHT);
 1381              		.loc 1 384 13 is_stmt 1 view .LVU500
 384:lvgl/lvgl/src/draw/lv_draw_line.c ****                                           LV_DRAW_MASK_LINE_SIDE_RIGHT);
 1382              		.loc 1 384 73 is_stmt 0 view .LVU501
 1383 0248 BDF81030 		ldrh	r3, [sp, #16]
 1384 024c ABEB0302 		sub	r2, fp, r3
 384:lvgl/lvgl/src/draw/lv_draw_line.c ****                                           LV_DRAW_MASK_LINE_SIDE_RIGHT);
 1385              		.loc 1 384 95 view .LVU502
 1386 0250 A9EB0309 		sub	r9, r9, r3
 384:lvgl/lvgl/src/draw/lv_draw_line.c ****                                           LV_DRAW_MASK_LINE_SIDE_RIGHT);
 1387              		.loc 1 384 13 view .LVU503
 1388 0254 0123     		movs	r3, #1
 1389 0256 0193     		str	r3, [sp, #4]
 1390 0258 0FFA89F3 		sxth	r3, r9
 1391 025c 0093     		str	r3, [sp]
 1392 025e 2346     		mov	r3, r4
 1393 0260 12B2     		sxth	r2, r2
 1394 0262 2946     		mov	r1, r5
 1395 0264 22A8     		add	r0, sp, #136
 1396 0266 FFF7FEFF 		bl	lv_draw_mask_line_points_init
 1397              	.LVL158:
 1398 026a 60E7     		b	.L54
 1399              	.LVL159:
 1400              	.L52:
 389:lvgl/lvgl/src/draw/lv_draw_line.c ****                                       LV_DRAW_MASK_LINE_SIDE_LEFT);
 1401              		.loc 1 389 9 is_stmt 1 view .LVU504
 389:lvgl/lvgl/src/draw/lv_draw_line.c ****                                       LV_DRAW_MASK_LINE_SIDE_LEFT);
 1402              		.loc 1 389 59 is_stmt 0 view .LVU505
 1403 026c 1FFA85FB 		uxth	fp, r5
 1404              	.LVL160:
 389:lvgl/lvgl/src/draw/lv_draw_line.c ****                                       LV_DRAW_MASK_LINE_SIDE_LEFT);
 1405              		.loc 1 389 62 view .LVU506
 1406 0270 BDF81830 		ldrh	r3, [sp, #24]
 1407 0274 0BEB0301 		add	r1, fp, r3
 389:lvgl/lvgl/src/draw/lv_draw_line.c ****                                       LV_DRAW_MASK_LINE_SIDE_LEFT);
 1408              		.loc 1 389 81 view .LVU507
 1409 0278 1FFA84F9 		uxth	r9, r4
 1410              	.LVL161:
 389:lvgl/lvgl/src/draw/lv_draw_line.c ****                                       LV_DRAW_MASK_LINE_SIDE_LEFT);
 1411              		.loc 1 389 84 view .LVU508
 1412 027c 4B44     		add	r3, r3, r9
 389:lvgl/lvgl/src/draw/lv_draw_line.c ****                                       LV_DRAW_MASK_LINE_SIDE_LEFT);
 1413              		.loc 1 389 9 view .LVU509
 1414 027e 0022     		movs	r2, #0
 1415 0280 0192     		str	r2, [sp, #4]
 1416 0282 0096     		str	r6, [sp]
 1417 0284 1BB2     		sxth	r3, r3
 1418 0286 3A46     		mov	r2, r7
 1419 0288 09B2     		sxth	r1, r1
 1420 028a 2DA8     		add	r0, sp, #180
ARM GAS  C:\Users\gx\AppData\Local\Temp\cc0GSSNc.s 			page 39


 1421              	.LVL162:
 389:lvgl/lvgl/src/draw/lv_draw_line.c ****                                       LV_DRAW_MASK_LINE_SIDE_LEFT);
 1422              		.loc 1 389 9 view .LVU510
 1423 028c FFF7FEFF 		bl	lv_draw_mask_line_points_init
 1424              	.LVL163:
 391:lvgl/lvgl/src/draw/lv_draw_line.c ****                                       LV_DRAW_MASK_LINE_SIDE_RIGHT);
 1425              		.loc 1 391 9 is_stmt 1 view .LVU511
 391:lvgl/lvgl/src/draw/lv_draw_line.c ****                                       LV_DRAW_MASK_LINE_SIDE_RIGHT);
 1426              		.loc 1 391 63 is_stmt 0 view .LVU512
 1427 0290 BDF81030 		ldrh	r3, [sp, #16]
 1428 0294 ABEB0301 		sub	r1, fp, r3
 391:lvgl/lvgl/src/draw/lv_draw_line.c ****                                       LV_DRAW_MASK_LINE_SIDE_RIGHT);
 1429              		.loc 1 391 85 view .LVU513
 1430 0298 A9EB0303 		sub	r3, r9, r3
 391:lvgl/lvgl/src/draw/lv_draw_line.c ****                                       LV_DRAW_MASK_LINE_SIDE_RIGHT);
 1431              		.loc 1 391 9 view .LVU514
 1432 029c 0122     		movs	r2, #1
 1433 029e 0192     		str	r2, [sp, #4]
 1434 02a0 0096     		str	r6, [sp]
 1435 02a2 1BB2     		sxth	r3, r3
 1436 02a4 3A46     		mov	r2, r7
 1437 02a6 09B2     		sxth	r1, r1
 1438 02a8 22A8     		add	r0, sp, #136
 1439 02aa FFF7FEFF 		bl	lv_draw_mask_line_points_init
 1440              	.LVL164:
 1441 02ae 3EE7     		b	.L54
 1442              	.LVL165:
 1443              	.L67:
 403:lvgl/lvgl/src/draw/lv_draw_line.c ****         lv_draw_mask_line_points_init(&mask_bottom_param, p2.x, p2.y, p2.x - ydiff, p2.y + xdiff,  
 1444              		.loc 1 403 9 is_stmt 1 view .LVU515
 403:lvgl/lvgl/src/draw/lv_draw_line.c ****         lv_draw_mask_line_points_init(&mask_bottom_param, p2.x, p2.y, p2.x - ydiff, p2.y + xdiff,  
 1445              		.loc 1 403 70 is_stmt 0 view .LVU516
 1446 02b0 ABB2     		uxth	r3, r5
 403:lvgl/lvgl/src/draw/lv_draw_line.c ****         lv_draw_mask_line_points_init(&mask_bottom_param, p2.x, p2.y, p2.x - ydiff, p2.y + xdiff,  
 1447              		.loc 1 403 73 view .LVU517
 1448 02b2 BDF81C90 		ldrh	r9, [sp, #28]
 1449 02b6 A3EB0903 		sub	r3, r3, r9
 403:lvgl/lvgl/src/draw/lv_draw_line.c ****         lv_draw_mask_line_points_init(&mask_bottom_param, p2.x, p2.y, p2.x - ydiff, p2.y + xdiff,  
 1450              		.loc 1 403 87 view .LVU518
 1451 02ba 1FFA88F8 		uxth	r8, r8
 1452              	.LVL166:
 403:lvgl/lvgl/src/draw/lv_draw_line.c ****         lv_draw_mask_line_points_init(&mask_bottom_param, p2.x, p2.y, p2.x - ydiff, p2.y + xdiff,  
 1453              		.loc 1 403 87 view .LVU519
 1454 02be 18FA87F2 		uxtah	r2, r8, r7
 403:lvgl/lvgl/src/draw/lv_draw_line.c ****         lv_draw_mask_line_points_init(&mask_bottom_param, p2.x, p2.y, p2.x - ydiff, p2.y + xdiff,  
 1455              		.loc 1 403 9 view .LVU520
 1456 02c2 0321     		movs	r1, #3
 1457 02c4 0191     		str	r1, [sp, #4]
 1458 02c6 12B2     		sxth	r2, r2
 1459 02c8 0092     		str	r2, [sp]
 1460 02ca 1BB2     		sxth	r3, r3
 1461 02cc 3A46     		mov	r2, r7
 1462 02ce 2946     		mov	r1, r5
 1463 02d0 17A8     		add	r0, sp, #92
 1464 02d2 FFF7FEFF 		bl	lv_draw_mask_line_points_init
 1465              	.LVL167:
 404:lvgl/lvgl/src/draw/lv_draw_line.c ****         mask_top_id = lv_draw_mask_add(&mask_top_param, NULL);
ARM GAS  C:\Users\gx\AppData\Local\Temp\cc0GSSNc.s 			page 40


 1466              		.loc 1 404 9 is_stmt 1 view .LVU521
 404:lvgl/lvgl/src/draw/lv_draw_line.c ****         mask_top_id = lv_draw_mask_add(&mask_top_param, NULL);
 1467              		.loc 1 404 73 is_stmt 0 view .LVU522
 1468 02d6 A3B2     		uxth	r3, r4
 404:lvgl/lvgl/src/draw/lv_draw_line.c ****         mask_top_id = lv_draw_mask_add(&mask_top_param, NULL);
 1469              		.loc 1 404 76 view .LVU523
 1470 02d8 A3EB0903 		sub	r3, r3, r9
 404:lvgl/lvgl/src/draw/lv_draw_line.c ****         mask_top_id = lv_draw_mask_add(&mask_top_param, NULL);
 1471              		.loc 1 404 90 view .LVU524
 1472 02dc 18FA86F8 		uxtah	r8, r8, r6
 404:lvgl/lvgl/src/draw/lv_draw_line.c ****         mask_top_id = lv_draw_mask_add(&mask_top_param, NULL);
 1473              		.loc 1 404 9 view .LVU525
 1474 02e0 0222     		movs	r2, #2
 1475 02e2 0192     		str	r2, [sp, #4]
 1476 02e4 0FFA88F2 		sxth	r2, r8
 1477 02e8 0092     		str	r2, [sp]
 1478 02ea 1BB2     		sxth	r3, r3
 1479 02ec 3246     		mov	r2, r6
 1480 02ee 2146     		mov	r1, r4
 1481 02f0 0CA8     		add	r0, sp, #48
 1482 02f2 FFF7FEFF 		bl	lv_draw_mask_line_points_init
 1483              	.LVL168:
 405:lvgl/lvgl/src/draw/lv_draw_line.c ****         mask_bottom_id = lv_draw_mask_add(&mask_bottom_param, NULL);
 1484              		.loc 1 405 9 is_stmt 1 view .LVU526
 405:lvgl/lvgl/src/draw/lv_draw_line.c ****         mask_bottom_id = lv_draw_mask_add(&mask_bottom_param, NULL);
 1485              		.loc 1 405 23 is_stmt 0 view .LVU527
 1486 02f6 0021     		movs	r1, #0
 1487 02f8 17A8     		add	r0, sp, #92
 1488 02fa FFF7FEFF 		bl	lv_draw_mask_add
 1489              	.LVL169:
 1490 02fe 0690     		str	r0, [sp, #24]
 1491              	.LVL170:
 406:lvgl/lvgl/src/draw/lv_draw_line.c ****     }
 1492              		.loc 1 406 9 is_stmt 1 view .LVU528
 406:lvgl/lvgl/src/draw/lv_draw_line.c ****     }
 1493              		.loc 1 406 26 is_stmt 0 view .LVU529
 1494 0300 0021     		movs	r1, #0
 1495 0302 0CA8     		add	r0, sp, #48
 1496 0304 FFF7FEFF 		bl	lv_draw_mask_add
 1497              	.LVL171:
 1498 0308 0790     		str	r0, [sp, #28]
 1499              	.LVL172:
 406:lvgl/lvgl/src/draw/lv_draw_line.c ****     }
 1500              		.loc 1 406 26 view .LVU530
 1501 030a 24E7     		b	.L55
 1502              	.LVL173:
 1503              	.L68:
 428:lvgl/lvgl/src/draw/lv_draw_line.c ****     lv_opa_t * mask_buf = lv_mem_buf_get(mask_buf_size);
 1504              		.loc 1 428 28 discriminator 1 view .LVU531
 1505 030c 38A8     		add	r0, sp, #224
 1506 030e FFF7FEFF 		bl	lv_area_get_size
 1507              	.LVL174:
 1508 0312 8346     		mov	fp, r0
 1509 0314 4DE7     		b	.L56
 1510              	.LVL175:
 1511              	.L70:
 1512              	.LBB38:
ARM GAS  C:\Users\gx\AppData\Local\Temp\cc0GSSNc.s 			page 41


 444:lvgl/lvgl/src/draw/lv_draw_line.c **** 
 445:lvgl/lvgl/src/draw/lv_draw_line.c ****         lv_draw_mask_res_t mask_res = lv_draw_mask_apply(&mask_buf[mask_p], x, h, draw_area_w);
 446:lvgl/lvgl/src/draw/lv_draw_line.c ****         if(mask_res == LV_DRAW_MASK_RES_TRANSP) {
 447:lvgl/lvgl/src/draw/lv_draw_line.c ****             lv_memset_00(&mask_buf[mask_p], draw_area_w);
 1513              		.loc 1 447 13 is_stmt 1 view .LVU532
 1514 0316 2146     		mov	r1, r4
 1515 0318 3846     		mov	r0, r7
 1516              	.LVL176:
 1517              		.loc 1 447 13 is_stmt 0 view .LVU533
 1518 031a FFF7FEFF 		bl	lv_memset_00
 1519              	.LVL177:
 1520 031e 2FE0     		b	.L58
 1521              	.L59:
 448:lvgl/lvgl/src/draw/lv_draw_line.c ****         }
 449:lvgl/lvgl/src/draw/lv_draw_line.c **** 
 450:lvgl/lvgl/src/draw/lv_draw_line.c ****         mask_p += draw_area_w;
 451:lvgl/lvgl/src/draw/lv_draw_line.c ****         if((uint32_t) mask_p + draw_area_w < mask_buf_size) {
 452:lvgl/lvgl/src/draw/lv_draw_line.c ****             fill_area.y2 ++;
 453:lvgl/lvgl/src/draw/lv_draw_line.c ****         }
 454:lvgl/lvgl/src/draw/lv_draw_line.c ****         else {
 455:lvgl/lvgl/src/draw/lv_draw_line.c ****             _lv_blend_fill(&fill_area, clip,
 1522              		.loc 1 455 13 is_stmt 1 view .LVU534
 456:lvgl/lvgl/src/draw/lv_draw_line.c ****                            dsc->color, mask_buf, LV_DRAW_MASK_RES_CHANGED, dsc->opa,
 457:lvgl/lvgl/src/draw/lv_draw_line.c ****                            dsc->blend_mode);
 1523              		.loc 1 457 31 is_stmt 0 view .LVU535
 1524 0320 9AF80930 		ldrb	r3, [r10, #9]	@ zero_extendqisi2
 1525 0324 03F00303 		and	r3, r3, #3
 455:lvgl/lvgl/src/draw/lv_draw_line.c ****                            dsc->color, mask_buf, LV_DRAW_MASK_RES_CHANGED, dsc->opa,
 1526              		.loc 1 455 13 view .LVU536
 1527 0328 0293     		str	r3, [sp, #8]
 1528 032a 9AF80830 		ldrb	r3, [r10, #8]	@ zero_extendqisi2
 1529 032e 0193     		str	r3, [sp, #4]
 1530 0330 0223     		movs	r3, #2
 1531 0332 0093     		str	r3, [sp]
 1532 0334 4346     		mov	r3, r8
 1533 0336 BAF80020 		ldrh	r2, [r10]
 1534 033a 0599     		ldr	r1, [sp, #20]
 1535 033c 0AA8     		add	r0, sp, #40
 1536 033e FFF7FEFF 		bl	_lv_blend_fill
 1537              	.LVL178:
 458:lvgl/lvgl/src/draw/lv_draw_line.c **** 
 459:lvgl/lvgl/src/draw/lv_draw_line.c ****             fill_area.y1 = fill_area.y2 + 1;
 1538              		.loc 1 459 13 is_stmt 1 view .LVU537
 1539              		.loc 1 459 37 is_stmt 0 view .LVU538
 1540 0342 BDF82E30 		ldrh	r3, [sp, #46]
 1541              		.loc 1 459 41 view .LVU539
 1542 0346 0133     		adds	r3, r3, #1
 1543 0348 1BB2     		sxth	r3, r3
 1544              		.loc 1 459 26 view .LVU540
 1545 034a ADF82A30 		strh	r3, [sp, #42]	@ movhi
 460:lvgl/lvgl/src/draw/lv_draw_line.c ****             fill_area.y2 = fill_area.y1;
 1546              		.loc 1 460 13 is_stmt 1 view .LVU541
 1547              		.loc 1 460 26 is_stmt 0 view .LVU542
 1548 034e ADF82E30 		strh	r3, [sp, #46]	@ movhi
 461:lvgl/lvgl/src/draw/lv_draw_line.c ****             mask_p = 0;
 1549              		.loc 1 461 13 is_stmt 1 view .LVU543
 1550              	.LVL179:
ARM GAS  C:\Users\gx\AppData\Local\Temp\cc0GSSNc.s 			page 42


 462:lvgl/lvgl/src/draw/lv_draw_line.c ****             lv_memset_ff(mask_buf, mask_buf_size);
 1551              		.loc 1 462 13 view .LVU544
 1552 0352 5946     		mov	r1, fp
 1553 0354 4046     		mov	r0, r8
 1554 0356 FFF7FEFF 		bl	lv_memset_ff
 1555              	.LVL180:
 461:lvgl/lvgl/src/draw/lv_draw_line.c ****             mask_p = 0;
 1556              		.loc 1 461 20 is_stmt 0 view .LVU545
 1557 035a 0026     		movs	r6, #0
 1558              	.LVL181:
 1559              	.L60:
 461:lvgl/lvgl/src/draw/lv_draw_line.c ****             mask_p = 0;
 1560              		.loc 1 461 20 view .LVU546
 1561              	.LBE38:
 443:lvgl/lvgl/src/draw/lv_draw_line.c **** 
 1562              		.loc 1 443 78 is_stmt 1 discriminator 2 view .LVU547
 443:lvgl/lvgl/src/draw/lv_draw_line.c **** 
 1563              		.loc 1 443 79 is_stmt 0 discriminator 2 view .LVU548
 1564 035c 0135     		adds	r5, r5, #1
 1565              	.LVL182:
 1566              	.L57:
 443:lvgl/lvgl/src/draw/lv_draw_line.c **** 
 1567              		.loc 1 443 43 is_stmt 1 discriminator 1 view .LVU549
 443:lvgl/lvgl/src/draw/lv_draw_line.c **** 
 1568              		.loc 1 443 57 is_stmt 0 discriminator 1 view .LVU550
 1569 035e BDF9E630 		ldrsh	r3, [sp, #230]
 443:lvgl/lvgl/src/draw/lv_draw_line.c **** 
 1570              		.loc 1 443 72 discriminator 1 view .LVU551
 1571 0362 B9F91220 		ldrsh	r2, [r9, #18]
 443:lvgl/lvgl/src/draw/lv_draw_line.c **** 
 1572              		.loc 1 443 61 discriminator 1 view .LVU552
 1573 0366 1344     		add	r3, r3, r2
 443:lvgl/lvgl/src/draw/lv_draw_line.c **** 
 1574              		.loc 1 443 5 discriminator 1 view .LVU553
 1575 0368 AB42     		cmp	r3, r5
 1576 036a 15DB     		blt	.L69
 1577              	.LBB39:
 445:lvgl/lvgl/src/draw/lv_draw_line.c ****         if(mask_res == LV_DRAW_MASK_RES_TRANSP) {
 1578              		.loc 1 445 9 is_stmt 1 view .LVU554
 445:lvgl/lvgl/src/draw/lv_draw_line.c ****         if(mask_res == LV_DRAW_MASK_RES_TRANSP) {
 1579              		.loc 1 445 39 is_stmt 0 view .LVU555
 1580 036c 08EB0607 		add	r7, r8, r6
 1581 0370 2346     		mov	r3, r4
 1582 0372 2AB2     		sxth	r2, r5
 1583 0374 0499     		ldr	r1, [sp, #16]
 1584 0376 3846     		mov	r0, r7
 1585 0378 FFF7FEFF 		bl	lv_draw_mask_apply
 1586              	.LVL183:
 446:lvgl/lvgl/src/draw/lv_draw_line.c ****             lv_memset_00(&mask_buf[mask_p], draw_area_w);
 1587              		.loc 1 446 9 is_stmt 1 view .LVU556
 446:lvgl/lvgl/src/draw/lv_draw_line.c ****             lv_memset_00(&mask_buf[mask_p], draw_area_w);
 1588              		.loc 1 446 11 is_stmt 0 view .LVU557
 1589 037c 0028     		cmp	r0, #0
 1590 037e CAD0     		beq	.L70
 1591              	.LVL184:
 1592              	.L58:
 450:lvgl/lvgl/src/draw/lv_draw_line.c ****         if((uint32_t) mask_p + draw_area_w < mask_buf_size) {
ARM GAS  C:\Users\gx\AppData\Local\Temp\cc0GSSNc.s 			page 43


 1593              		.loc 1 450 9 is_stmt 1 view .LVU558
 450:lvgl/lvgl/src/draw/lv_draw_line.c ****         if((uint32_t) mask_p + draw_area_w < mask_buf_size) {
 1594              		.loc 1 450 16 is_stmt 0 view .LVU559
 1595 0380 2644     		add	r6, r6, r4
 1596              	.LVL185:
 451:lvgl/lvgl/src/draw/lv_draw_line.c ****             fill_area.y2 ++;
 1597              		.loc 1 451 9 is_stmt 1 view .LVU560
 451:lvgl/lvgl/src/draw/lv_draw_line.c ****             fill_area.y2 ++;
 1598              		.loc 1 451 30 is_stmt 0 view .LVU561
 1599 0382 A319     		adds	r3, r4, r6
 451:lvgl/lvgl/src/draw/lv_draw_line.c ****             fill_area.y2 ++;
 1600              		.loc 1 451 11 view .LVU562
 1601 0384 5B45     		cmp	r3, fp
 1602 0386 CBD2     		bcs	.L59
 452:lvgl/lvgl/src/draw/lv_draw_line.c ****         }
 1603              		.loc 1 452 13 is_stmt 1 view .LVU563
 452:lvgl/lvgl/src/draw/lv_draw_line.c ****         }
 1604              		.loc 1 452 22 is_stmt 0 view .LVU564
 1605 0388 BDF92E30 		ldrsh	r3, [sp, #46]
 452:lvgl/lvgl/src/draw/lv_draw_line.c ****         }
 1606              		.loc 1 452 26 view .LVU565
 1607 038c 0133     		adds	r3, r3, #1
 1608 038e ADF82E30 		strh	r3, [sp, #46]	@ movhi
 1609 0392 E3E7     		b	.L60
 1610              	.L75:
 1611              		.align	2
 1612              	.L74:
 1613 0394 00000000 		.word	.LANCHOR0
 1614              	.L69:
 452:lvgl/lvgl/src/draw/lv_draw_line.c ****         }
 1615              		.loc 1 452 26 view .LVU566
 1616              	.LBE39:
 463:lvgl/lvgl/src/draw/lv_draw_line.c ****         }
 464:lvgl/lvgl/src/draw/lv_draw_line.c ****     }
 465:lvgl/lvgl/src/draw/lv_draw_line.c **** 
 466:lvgl/lvgl/src/draw/lv_draw_line.c ****     /*Flush the last part*/
 467:lvgl/lvgl/src/draw/lv_draw_line.c ****     if(fill_area.y1 != fill_area.y2) {
 1617              		.loc 1 467 5 is_stmt 1 view .LVU567
 1618              		.loc 1 467 17 is_stmt 0 view .LVU568
 1619 0398 BDF92A20 		ldrsh	r2, [sp, #42]
 1620              		.loc 1 467 33 view .LVU569
 1621 039c BDF92E30 		ldrsh	r3, [sp, #46]
 1622              		.loc 1 467 7 view .LVU570
 1623 03a0 9A42     		cmp	r2, r3
 1624 03a2 1FD1     		bne	.L71
 1625              	.L62:
 468:lvgl/lvgl/src/draw/lv_draw_line.c ****         fill_area.y2--;
 469:lvgl/lvgl/src/draw/lv_draw_line.c ****         _lv_blend_fill(&fill_area, clip,
 470:lvgl/lvgl/src/draw/lv_draw_line.c ****                        dsc->color, mask_buf, LV_DRAW_MASK_RES_CHANGED, dsc->opa,
 471:lvgl/lvgl/src/draw/lv_draw_line.c ****                        dsc->blend_mode);
 472:lvgl/lvgl/src/draw/lv_draw_line.c **** 
 473:lvgl/lvgl/src/draw/lv_draw_line.c ****     }
 474:lvgl/lvgl/src/draw/lv_draw_line.c **** 
 475:lvgl/lvgl/src/draw/lv_draw_line.c ****     lv_mem_buf_release(mask_buf);
 1626              		.loc 1 475 5 is_stmt 1 view .LVU571
 1627 03a4 4046     		mov	r0, r8
 1628 03a6 FFF7FEFF 		bl	lv_mem_buf_release
ARM GAS  C:\Users\gx\AppData\Local\Temp\cc0GSSNc.s 			page 44


 1629              	.LVL186:
 476:lvgl/lvgl/src/draw/lv_draw_line.c **** 
 477:lvgl/lvgl/src/draw/lv_draw_line.c ****     lv_draw_mask_free_param(&mask_left_param);
 1630              		.loc 1 477 5 view .LVU572
 1631 03aa 2DA8     		add	r0, sp, #180
 1632 03ac FFF7FEFF 		bl	lv_draw_mask_free_param
 1633              	.LVL187:
 478:lvgl/lvgl/src/draw/lv_draw_line.c ****     lv_draw_mask_free_param(&mask_right_param);
 1634              		.loc 1 478 5 view .LVU573
 1635 03b0 22A8     		add	r0, sp, #136
 1636 03b2 FFF7FEFF 		bl	lv_draw_mask_free_param
 1637              	.LVL188:
 479:lvgl/lvgl/src/draw/lv_draw_line.c ****     if(mask_top_id != LV_MASK_ID_INV) lv_draw_mask_free_param(&mask_top_param);
 1638              		.loc 1 479 5 view .LVU574
 1639              		.loc 1 479 7 is_stmt 0 view .LVU575
 1640 03b6 069B     		ldr	r3, [sp, #24]
 1641 03b8 B3F1FF3F 		cmp	r3, #-1
 1642 03bc 27D1     		bne	.L72
 1643              	.L63:
 480:lvgl/lvgl/src/draw/lv_draw_line.c ****     if(mask_bottom_id != LV_MASK_ID_INV) lv_draw_mask_free_param(&mask_bottom_param);
 1644              		.loc 1 480 5 is_stmt 1 view .LVU576
 1645              		.loc 1 480 7 is_stmt 0 view .LVU577
 1646 03be 079B     		ldr	r3, [sp, #28]
 1647 03c0 B3F1FF3F 		cmp	r3, #-1
 1648 03c4 27D1     		bne	.L73
 1649              	.L64:
 481:lvgl/lvgl/src/draw/lv_draw_line.c ****     lv_draw_mask_remove_id(mask_left_id);
 1650              		.loc 1 481 5 is_stmt 1 view .LVU578
 1651 03c6 0898     		ldr	r0, [sp, #32]
 1652 03c8 FFF7FEFF 		bl	lv_draw_mask_remove_id
 1653              	.LVL189:
 482:lvgl/lvgl/src/draw/lv_draw_line.c ****     lv_draw_mask_remove_id(mask_right_id);
 1654              		.loc 1 482 5 view .LVU579
 1655 03cc 0998     		ldr	r0, [sp, #36]
 1656 03ce FFF7FEFF 		bl	lv_draw_mask_remove_id
 1657              	.LVL190:
 483:lvgl/lvgl/src/draw/lv_draw_line.c ****     lv_draw_mask_remove_id(mask_top_id);
 1658              		.loc 1 483 5 view .LVU580
 1659 03d2 0698     		ldr	r0, [sp, #24]
 1660 03d4 FFF7FEFF 		bl	lv_draw_mask_remove_id
 1661              	.LVL191:
 484:lvgl/lvgl/src/draw/lv_draw_line.c ****     lv_draw_mask_remove_id(mask_bottom_id);
 1662              		.loc 1 484 5 view .LVU581
 1663 03d8 0798     		ldr	r0, [sp, #28]
 1664 03da FFF7FEFF 		bl	lv_draw_mask_remove_id
 1665              	.LVL192:
 1666              	.L45:
 485:lvgl/lvgl/src/draw/lv_draw_line.c **** #else
 486:lvgl/lvgl/src/draw/lv_draw_line.c ****     LV_UNUSED(point1);
 487:lvgl/lvgl/src/draw/lv_draw_line.c ****     LV_UNUSED(point2);
 488:lvgl/lvgl/src/draw/lv_draw_line.c ****     LV_UNUSED(clip);
 489:lvgl/lvgl/src/draw/lv_draw_line.c ****     LV_UNUSED(dsc);
 490:lvgl/lvgl/src/draw/lv_draw_line.c ****     LV_LOG_WARN("Can't draw skewed line with LV_DRAW_COMPLEX == 0");
 491:lvgl/lvgl/src/draw/lv_draw_line.c **** #endif /*LV_DRAW_COMPLEX*/
 492:lvgl/lvgl/src/draw/lv_draw_line.c **** }
 1667              		.loc 1 492 1 is_stmt 0 view .LVU582
 1668 03de 3DB0     		add	sp, sp, #244
ARM GAS  C:\Users\gx\AppData\Local\Temp\cc0GSSNc.s 			page 45


 1669              	.LCFI9:
 1670              		.cfi_remember_state
 1671              		.cfi_def_cfa_offset 36
 1672              		@ sp needed
 1673 03e0 BDE8F08F 		pop	{r4, r5, r6, r7, r8, r9, r10, fp, pc}
 1674              	.LVL193:
 1675              	.L71:
 1676              	.LCFI10:
 1677              		.cfi_restore_state
 468:lvgl/lvgl/src/draw/lv_draw_line.c ****         _lv_blend_fill(&fill_area, clip,
 1678              		.loc 1 468 9 is_stmt 1 view .LVU583
 468:lvgl/lvgl/src/draw/lv_draw_line.c ****         _lv_blend_fill(&fill_area, clip,
 1679              		.loc 1 468 21 is_stmt 0 view .LVU584
 1680 03e4 013B     		subs	r3, r3, #1
 1681 03e6 ADF82E30 		strh	r3, [sp, #46]	@ movhi
 469:lvgl/lvgl/src/draw/lv_draw_line.c ****                        dsc->color, mask_buf, LV_DRAW_MASK_RES_CHANGED, dsc->opa,
 1682              		.loc 1 469 9 is_stmt 1 view .LVU585
 471:lvgl/lvgl/src/draw/lv_draw_line.c **** 
 1683              		.loc 1 471 27 is_stmt 0 view .LVU586
 1684 03ea 9AF80930 		ldrb	r3, [r10, #9]	@ zero_extendqisi2
 1685 03ee 03F00303 		and	r3, r3, #3
 469:lvgl/lvgl/src/draw/lv_draw_line.c ****                        dsc->color, mask_buf, LV_DRAW_MASK_RES_CHANGED, dsc->opa,
 1686              		.loc 1 469 9 view .LVU587
 1687 03f2 0293     		str	r3, [sp, #8]
 1688 03f4 9AF80830 		ldrb	r3, [r10, #8]	@ zero_extendqisi2
 1689 03f8 0193     		str	r3, [sp, #4]
 1690 03fa 0223     		movs	r3, #2
 1691 03fc 0093     		str	r3, [sp]
 1692 03fe 4346     		mov	r3, r8
 1693 0400 BAF80020 		ldrh	r2, [r10]
 1694 0404 0599     		ldr	r1, [sp, #20]
 1695 0406 0AA8     		add	r0, sp, #40
 1696 0408 FFF7FEFF 		bl	_lv_blend_fill
 1697              	.LVL194:
 1698 040c CAE7     		b	.L62
 1699              	.L72:
 479:lvgl/lvgl/src/draw/lv_draw_line.c ****     if(mask_bottom_id != LV_MASK_ID_INV) lv_draw_mask_free_param(&mask_bottom_param);
 1700              		.loc 1 479 39 is_stmt 1 discriminator 1 view .LVU588
 1701 040e 17A8     		add	r0, sp, #92
 1702 0410 FFF7FEFF 		bl	lv_draw_mask_free_param
 1703              	.LVL195:
 1704 0414 D3E7     		b	.L63
 1705              	.L73:
 480:lvgl/lvgl/src/draw/lv_draw_line.c ****     lv_draw_mask_remove_id(mask_left_id);
 1706              		.loc 1 480 42 discriminator 1 view .LVU589
 1707 0416 0CA8     		add	r0, sp, #48
 1708 0418 FFF7FEFF 		bl	lv_draw_mask_free_param
 1709              	.LVL196:
 1710 041c D3E7     		b	.L64
 1711              		.cfi_endproc
 1712              	.LFE156:
 1714 041e 00BF     		.section	.text.lv_draw_line_dsc_init,"ax",%progbits
 1715              		.align	1
 1716              		.global	lv_draw_line_dsc_init
 1717              		.syntax unified
 1718              		.thumb
 1719              		.thumb_func
ARM GAS  C:\Users\gx\AppData\Local\Temp\cc0GSSNc.s 			page 46


 1720              		.fpu fpv4-sp-d16
 1722              	lv_draw_line_dsc_init:
 1723              	.LVL197:
 1724              	.LFB152:
  51:lvgl/lvgl/src/draw/lv_draw_line.c ****     lv_memset_00(dsc, sizeof(lv_draw_line_dsc_t));
 1725              		.loc 1 51 1 view -0
 1726              		.cfi_startproc
 1727              		@ args = 0, pretend = 0, frame = 0
 1728              		@ frame_needed = 0, uses_anonymous_args = 0
  51:lvgl/lvgl/src/draw/lv_draw_line.c ****     lv_memset_00(dsc, sizeof(lv_draw_line_dsc_t));
 1729              		.loc 1 51 1 is_stmt 0 view .LVU591
 1730 0000 10B5     		push	{r4, lr}
 1731              	.LCFI11:
 1732              		.cfi_def_cfa_offset 8
 1733              		.cfi_offset 4, -8
 1734              		.cfi_offset 14, -4
 1735 0002 0446     		mov	r4, r0
  52:lvgl/lvgl/src/draw/lv_draw_line.c ****     dsc->width = 1;
 1736              		.loc 1 52 5 is_stmt 1 view .LVU592
 1737 0004 0A21     		movs	r1, #10
 1738 0006 FFF7FEFF 		bl	lv_memset_00
 1739              	.LVL198:
  53:lvgl/lvgl/src/draw/lv_draw_line.c ****     dsc->opa = LV_OPA_COVER;
 1740              		.loc 1 53 5 view .LVU593
  53:lvgl/lvgl/src/draw/lv_draw_line.c ****     dsc->opa = LV_OPA_COVER;
 1741              		.loc 1 53 16 is_stmt 0 view .LVU594
 1742 000a 0123     		movs	r3, #1
 1743 000c 6380     		strh	r3, [r4, #2]	@ movhi
  54:lvgl/lvgl/src/draw/lv_draw_line.c ****     dsc->color = lv_color_black();
 1744              		.loc 1 54 5 is_stmt 1 view .LVU595
  54:lvgl/lvgl/src/draw/lv_draw_line.c ****     dsc->color = lv_color_black();
 1745              		.loc 1 54 14 is_stmt 0 view .LVU596
 1746 000e FF23     		movs	r3, #255
 1747 0010 2372     		strb	r3, [r4, #8]
  55:lvgl/lvgl/src/draw/lv_draw_line.c **** }
 1748              		.loc 1 55 5 is_stmt 1 view .LVU597
 1749              	.LBB40:
 1750              	.LBI40:
 1751              		.file 3 "lvgl/lvgl/src/draw/../misc/lv_color.h"
   1:lvgl/lvgl/src/draw/../misc/lv_color.h **** /**
   2:lvgl/lvgl/src/draw/../misc/lv_color.h ****  * @file lv_color.h
   3:lvgl/lvgl/src/draw/../misc/lv_color.h ****  *
   4:lvgl/lvgl/src/draw/../misc/lv_color.h ****  */
   5:lvgl/lvgl/src/draw/../misc/lv_color.h **** 
   6:lvgl/lvgl/src/draw/../misc/lv_color.h **** #ifndef LV_COLOR_H
   7:lvgl/lvgl/src/draw/../misc/lv_color.h **** #define LV_COLOR_H
   8:lvgl/lvgl/src/draw/../misc/lv_color.h **** 
   9:lvgl/lvgl/src/draw/../misc/lv_color.h **** #ifdef __cplusplus
  10:lvgl/lvgl/src/draw/../misc/lv_color.h **** extern "C" {
  11:lvgl/lvgl/src/draw/../misc/lv_color.h **** #endif
  12:lvgl/lvgl/src/draw/../misc/lv_color.h **** 
  13:lvgl/lvgl/src/draw/../misc/lv_color.h **** /*********************
  14:lvgl/lvgl/src/draw/../misc/lv_color.h ****  *      INCLUDES
  15:lvgl/lvgl/src/draw/../misc/lv_color.h ****  *********************/
  16:lvgl/lvgl/src/draw/../misc/lv_color.h **** #include "../lv_conf_internal.h"
  17:lvgl/lvgl/src/draw/../misc/lv_color.h **** #include "lv_math.h"
  18:lvgl/lvgl/src/draw/../misc/lv_color.h **** #include "lv_types.h"
ARM GAS  C:\Users\gx\AppData\Local\Temp\cc0GSSNc.s 			page 47


  19:lvgl/lvgl/src/draw/../misc/lv_color.h **** 
  20:lvgl/lvgl/src/draw/../misc/lv_color.h **** /*Error checking*/
  21:lvgl/lvgl/src/draw/../misc/lv_color.h **** #if LV_COLOR_DEPTH == 24
  22:lvgl/lvgl/src/draw/../misc/lv_color.h **** #error "LV_COLOR_DEPTH 24 is deprecated. Use LV_COLOR_DEPTH 32 instead (lv_conf.h)"
  23:lvgl/lvgl/src/draw/../misc/lv_color.h **** #endif
  24:lvgl/lvgl/src/draw/../misc/lv_color.h **** 
  25:lvgl/lvgl/src/draw/../misc/lv_color.h **** #if LV_COLOR_DEPTH != 32 && LV_COLOR_SCREEN_TRANSP != 0
  26:lvgl/lvgl/src/draw/../misc/lv_color.h **** #error "LV_COLOR_SCREEN_TRANSP requires LV_COLOR_DEPTH == 32. Set it in lv_conf.h"
  27:lvgl/lvgl/src/draw/../misc/lv_color.h **** #endif
  28:lvgl/lvgl/src/draw/../misc/lv_color.h **** 
  29:lvgl/lvgl/src/draw/../misc/lv_color.h **** #if LV_COLOR_DEPTH != 16 && LV_COLOR_16_SWAP != 0
  30:lvgl/lvgl/src/draw/../misc/lv_color.h **** #error "LV_COLOR_16_SWAP requires LV_COLOR_DEPTH == 16. Set it in lv_conf.h"
  31:lvgl/lvgl/src/draw/../misc/lv_color.h **** #endif
  32:lvgl/lvgl/src/draw/../misc/lv_color.h **** 
  33:lvgl/lvgl/src/draw/../misc/lv_color.h **** #include <stdint.h>
  34:lvgl/lvgl/src/draw/../misc/lv_color.h **** 
  35:lvgl/lvgl/src/draw/../misc/lv_color.h **** /*********************
  36:lvgl/lvgl/src/draw/../misc/lv_color.h ****  *      DEFINES
  37:lvgl/lvgl/src/draw/../misc/lv_color.h ****  *********************/
  38:lvgl/lvgl/src/draw/../misc/lv_color.h **** 
  39:lvgl/lvgl/src/draw/../misc/lv_color.h **** /**
  40:lvgl/lvgl/src/draw/../misc/lv_color.h ****  * Opacity percentages.
  41:lvgl/lvgl/src/draw/../misc/lv_color.h ****  */
  42:lvgl/lvgl/src/draw/../misc/lv_color.h **** enum {
  43:lvgl/lvgl/src/draw/../misc/lv_color.h ****     LV_OPA_TRANSP = 0,
  44:lvgl/lvgl/src/draw/../misc/lv_color.h ****     LV_OPA_0      = 0,
  45:lvgl/lvgl/src/draw/../misc/lv_color.h ****     LV_OPA_10     = 25,
  46:lvgl/lvgl/src/draw/../misc/lv_color.h ****     LV_OPA_20     = 51,
  47:lvgl/lvgl/src/draw/../misc/lv_color.h ****     LV_OPA_30     = 76,
  48:lvgl/lvgl/src/draw/../misc/lv_color.h ****     LV_OPA_40     = 102,
  49:lvgl/lvgl/src/draw/../misc/lv_color.h ****     LV_OPA_50     = 127,
  50:lvgl/lvgl/src/draw/../misc/lv_color.h ****     LV_OPA_60     = 153,
  51:lvgl/lvgl/src/draw/../misc/lv_color.h ****     LV_OPA_70     = 178,
  52:lvgl/lvgl/src/draw/../misc/lv_color.h ****     LV_OPA_80     = 204,
  53:lvgl/lvgl/src/draw/../misc/lv_color.h ****     LV_OPA_90     = 229,
  54:lvgl/lvgl/src/draw/../misc/lv_color.h ****     LV_OPA_100    = 255,
  55:lvgl/lvgl/src/draw/../misc/lv_color.h ****     LV_OPA_COVER  = 255,
  56:lvgl/lvgl/src/draw/../misc/lv_color.h **** };
  57:lvgl/lvgl/src/draw/../misc/lv_color.h **** 
  58:lvgl/lvgl/src/draw/../misc/lv_color.h **** #define LV_OPA_MIN 2    /*Opacities below this will be transparent*/
  59:lvgl/lvgl/src/draw/../misc/lv_color.h **** #define LV_OPA_MAX 253  /*Opacities above this will fully cover*/
  60:lvgl/lvgl/src/draw/../misc/lv_color.h **** 
  61:lvgl/lvgl/src/draw/../misc/lv_color.h **** #if LV_COLOR_DEPTH == 1
  62:lvgl/lvgl/src/draw/../misc/lv_color.h **** #define LV_COLOR_SIZE 8
  63:lvgl/lvgl/src/draw/../misc/lv_color.h **** #elif LV_COLOR_DEPTH == 8
  64:lvgl/lvgl/src/draw/../misc/lv_color.h **** #define LV_COLOR_SIZE 8
  65:lvgl/lvgl/src/draw/../misc/lv_color.h **** #elif LV_COLOR_DEPTH == 16
  66:lvgl/lvgl/src/draw/../misc/lv_color.h **** #define LV_COLOR_SIZE 16
  67:lvgl/lvgl/src/draw/../misc/lv_color.h **** #elif LV_COLOR_DEPTH == 32
  68:lvgl/lvgl/src/draw/../misc/lv_color.h **** #define LV_COLOR_SIZE 32
  69:lvgl/lvgl/src/draw/../misc/lv_color.h **** #else
  70:lvgl/lvgl/src/draw/../misc/lv_color.h **** #error "Invalid LV_COLOR_DEPTH in lv_conf.h! Set it to 1, 8, 16 or 32!"
  71:lvgl/lvgl/src/draw/../misc/lv_color.h **** #endif
  72:lvgl/lvgl/src/draw/../misc/lv_color.h **** 
  73:lvgl/lvgl/src/draw/../misc/lv_color.h **** /**
  74:lvgl/lvgl/src/draw/../misc/lv_color.h ****  * Adjust color mix functions rounding.
  75:lvgl/lvgl/src/draw/../misc/lv_color.h ****  * GPUs might calculate color mix (blending) differently.
ARM GAS  C:\Users\gx\AppData\Local\Temp\cc0GSSNc.s 			page 48


  76:lvgl/lvgl/src/draw/../misc/lv_color.h ****  * Should be in range of 0..254
  77:lvgl/lvgl/src/draw/../misc/lv_color.h ****  * 0: no adjustment, get the integer part of the result (round down)
  78:lvgl/lvgl/src/draw/../misc/lv_color.h ****  * 64: round up from x.75
  79:lvgl/lvgl/src/draw/../misc/lv_color.h ****  * 128: round up from half
  80:lvgl/lvgl/src/draw/../misc/lv_color.h ****  * 192: round up from x.25
  81:lvgl/lvgl/src/draw/../misc/lv_color.h ****  * 254: round up*/
  82:lvgl/lvgl/src/draw/../misc/lv_color.h **** #ifndef LV_COLOR_MIX_ROUND_OFS
  83:lvgl/lvgl/src/draw/../misc/lv_color.h **** #if LV_COLOR_DEPTH == 32
  84:lvgl/lvgl/src/draw/../misc/lv_color.h **** #define LV_COLOR_MIX_ROUND_OFS 0
  85:lvgl/lvgl/src/draw/../misc/lv_color.h **** #else
  86:lvgl/lvgl/src/draw/../misc/lv_color.h **** #define LV_COLOR_MIX_ROUND_OFS 128
  87:lvgl/lvgl/src/draw/../misc/lv_color.h **** #endif
  88:lvgl/lvgl/src/draw/../misc/lv_color.h **** #endif
  89:lvgl/lvgl/src/draw/../misc/lv_color.h **** 
  90:lvgl/lvgl/src/draw/../misc/lv_color.h **** #if defined(__cplusplus) && !defined(_LV_COLOR_HAS_MODERN_CPP)
  91:lvgl/lvgl/src/draw/../misc/lv_color.h **** /**
  92:lvgl/lvgl/src/draw/../misc/lv_color.h **** * MSVC compiler's definition of the __cplusplus indicating 199711L regardless to C++ standard versi
  93:lvgl/lvgl/src/draw/../misc/lv_color.h **** * see https://devblogs.microsoft.com/cppblog/msvc-now-correctly-reports-cplusplus
  94:lvgl/lvgl/src/draw/../misc/lv_color.h **** * so we use _MSC_VER macro instead of __cplusplus
  95:lvgl/lvgl/src/draw/../misc/lv_color.h **** */
  96:lvgl/lvgl/src/draw/../misc/lv_color.h **** #ifdef _MSC_VER
  97:lvgl/lvgl/src/draw/../misc/lv_color.h **** #if _MSC_VER >= 1900 /*Visual Studio 2015*/
  98:lvgl/lvgl/src/draw/../misc/lv_color.h **** #define _LV_COLOR_HAS_MODERN_CPP 1
  99:lvgl/lvgl/src/draw/../misc/lv_color.h **** #endif
 100:lvgl/lvgl/src/draw/../misc/lv_color.h **** #else
 101:lvgl/lvgl/src/draw/../misc/lv_color.h **** #if __cplusplus >= 201103L
 102:lvgl/lvgl/src/draw/../misc/lv_color.h **** #define _LV_COLOR_HAS_MODERN_CPP 1
 103:lvgl/lvgl/src/draw/../misc/lv_color.h **** #endif
 104:lvgl/lvgl/src/draw/../misc/lv_color.h **** #endif
 105:lvgl/lvgl/src/draw/../misc/lv_color.h **** #endif /*__cplusplus*/
 106:lvgl/lvgl/src/draw/../misc/lv_color.h **** 
 107:lvgl/lvgl/src/draw/../misc/lv_color.h **** #ifndef _LV_COLOR_HAS_MODERN_CPP
 108:lvgl/lvgl/src/draw/../misc/lv_color.h **** #define _LV_COLOR_HAS_MODERN_CPP 0
 109:lvgl/lvgl/src/draw/../misc/lv_color.h **** #endif
 110:lvgl/lvgl/src/draw/../misc/lv_color.h **** 
 111:lvgl/lvgl/src/draw/../misc/lv_color.h **** #if _LV_COLOR_HAS_MODERN_CPP
 112:lvgl/lvgl/src/draw/../misc/lv_color.h **** /*Fix msvc compiler error C4576 inside C++ code*/
 113:lvgl/lvgl/src/draw/../misc/lv_color.h **** #define _LV_COLOR_MAKE_TYPE_HELPER lv_color_t
 114:lvgl/lvgl/src/draw/../misc/lv_color.h **** #else
 115:lvgl/lvgl/src/draw/../misc/lv_color.h **** #define _LV_COLOR_MAKE_TYPE_HELPER (lv_color_t)
 116:lvgl/lvgl/src/draw/../misc/lv_color.h **** #endif
 117:lvgl/lvgl/src/draw/../misc/lv_color.h **** 
 118:lvgl/lvgl/src/draw/../misc/lv_color.h **** /*---------------------------------------
 119:lvgl/lvgl/src/draw/../misc/lv_color.h ****  * Macros for all existing color depths
 120:lvgl/lvgl/src/draw/../misc/lv_color.h ****  * to set/get values of the color channels
 121:lvgl/lvgl/src/draw/../misc/lv_color.h ****  *------------------------------------------*/
 122:lvgl/lvgl/src/draw/../misc/lv_color.h **** # define LV_COLOR_SET_R1(c, v) (c).ch.red = (uint8_t)((v) & 0x1)
 123:lvgl/lvgl/src/draw/../misc/lv_color.h **** # define LV_COLOR_SET_G1(c, v) (c).ch.green = (uint8_t)((v) & 0x1)
 124:lvgl/lvgl/src/draw/../misc/lv_color.h **** # define LV_COLOR_SET_B1(c, v) (c).ch.blue = (uint8_t)((v) & 0x1)
 125:lvgl/lvgl/src/draw/../misc/lv_color.h **** # define LV_COLOR_SET_A1(c, v) do {} while(0)
 126:lvgl/lvgl/src/draw/../misc/lv_color.h **** 
 127:lvgl/lvgl/src/draw/../misc/lv_color.h **** # define LV_COLOR_GET_R1(c) (c).ch.red
 128:lvgl/lvgl/src/draw/../misc/lv_color.h **** # define LV_COLOR_GET_G1(c) (c).ch.green
 129:lvgl/lvgl/src/draw/../misc/lv_color.h **** # define LV_COLOR_GET_B1(c) (c).ch.blue
 130:lvgl/lvgl/src/draw/../misc/lv_color.h **** # define LV_COLOR_GET_A1(c) 0xFF
 131:lvgl/lvgl/src/draw/../misc/lv_color.h **** 
 132:lvgl/lvgl/src/draw/../misc/lv_color.h **** # define _LV_COLOR_ZERO_INITIALIZER1 {0x00}
ARM GAS  C:\Users\gx\AppData\Local\Temp\cc0GSSNc.s 			page 49


 133:lvgl/lvgl/src/draw/../misc/lv_color.h **** # define LV_COLOR_MAKE1(r8, g8, b8)  {(uint8_t)((b8 >> 7) | (g8 >> 7) | (r8 >> 7))}
 134:lvgl/lvgl/src/draw/../misc/lv_color.h **** 
 135:lvgl/lvgl/src/draw/../misc/lv_color.h **** # define LV_COLOR_SET_R8(c, v) (c).ch.red = (uint8_t)((v) & 0x7U)
 136:lvgl/lvgl/src/draw/../misc/lv_color.h **** # define LV_COLOR_SET_G8(c, v) (c).ch.green = (uint8_t)((v) & 0x7U)
 137:lvgl/lvgl/src/draw/../misc/lv_color.h **** # define LV_COLOR_SET_B8(c, v) (c).ch.blue = (uint8_t)((v) & 0x3U)
 138:lvgl/lvgl/src/draw/../misc/lv_color.h **** # define LV_COLOR_SET_A8(c, v) do {} while(0)
 139:lvgl/lvgl/src/draw/../misc/lv_color.h **** 
 140:lvgl/lvgl/src/draw/../misc/lv_color.h **** # define LV_COLOR_GET_R8(c) (c).ch.red
 141:lvgl/lvgl/src/draw/../misc/lv_color.h **** # define LV_COLOR_GET_G8(c) (c).ch.green
 142:lvgl/lvgl/src/draw/../misc/lv_color.h **** # define LV_COLOR_GET_B8(c) (c).ch.blue
 143:lvgl/lvgl/src/draw/../misc/lv_color.h **** # define LV_COLOR_GET_A8(c) 0xFF
 144:lvgl/lvgl/src/draw/../misc/lv_color.h **** 
 145:lvgl/lvgl/src/draw/../misc/lv_color.h **** # define _LV_COLOR_ZERO_INITIALIZER8 {{0x00, 0x00, 0x00}}
 146:lvgl/lvgl/src/draw/../misc/lv_color.h **** # define LV_COLOR_MAKE8(r8, g8, b8) {{(uint8_t)((b8 >> 6) & 0x3U), (uint8_t)((g8 >> 5) & 0x7U), (ui
 147:lvgl/lvgl/src/draw/../misc/lv_color.h **** 
 148:lvgl/lvgl/src/draw/../misc/lv_color.h **** # define LV_COLOR_SET_R16(c, v) (c).ch.red = (uint8_t)((v) & 0x1FU)
 149:lvgl/lvgl/src/draw/../misc/lv_color.h **** #if LV_COLOR_16_SWAP == 0
 150:lvgl/lvgl/src/draw/../misc/lv_color.h **** # define LV_COLOR_SET_G16(c, v) (c).ch.green = (uint8_t)((v) & 0x3FU)
 151:lvgl/lvgl/src/draw/../misc/lv_color.h **** #else
 152:lvgl/lvgl/src/draw/../misc/lv_color.h **** # define LV_COLOR_SET_G16(c, v) {(c).ch.green_h = (uint8_t)(((v) >> 3) & 0x7); (c).ch.green_l = (ui
 153:lvgl/lvgl/src/draw/../misc/lv_color.h **** #endif
 154:lvgl/lvgl/src/draw/../misc/lv_color.h **** # define LV_COLOR_SET_B16(c, v) (c).ch.blue = (uint8_t)((v) & 0x1FU)
 155:lvgl/lvgl/src/draw/../misc/lv_color.h **** # define LV_COLOR_SET_A16(c, v) do {} while(0)
 156:lvgl/lvgl/src/draw/../misc/lv_color.h **** 
 157:lvgl/lvgl/src/draw/../misc/lv_color.h **** # define LV_COLOR_GET_R16(c) (c).ch.red
 158:lvgl/lvgl/src/draw/../misc/lv_color.h **** #if LV_COLOR_16_SWAP == 0
 159:lvgl/lvgl/src/draw/../misc/lv_color.h **** # define LV_COLOR_GET_G16(c) (c).ch.green
 160:lvgl/lvgl/src/draw/../misc/lv_color.h **** #else
 161:lvgl/lvgl/src/draw/../misc/lv_color.h **** # define LV_COLOR_GET_G16(c) (((c).ch.green_h << 3) + (c).ch.green_l)
 162:lvgl/lvgl/src/draw/../misc/lv_color.h **** #endif
 163:lvgl/lvgl/src/draw/../misc/lv_color.h **** # define LV_COLOR_GET_B16(c) (c).ch.blue
 164:lvgl/lvgl/src/draw/../misc/lv_color.h **** # define LV_COLOR_GET_A16(c) 0xFF
 165:lvgl/lvgl/src/draw/../misc/lv_color.h **** 
 166:lvgl/lvgl/src/draw/../misc/lv_color.h **** #if LV_COLOR_16_SWAP == 0
 167:lvgl/lvgl/src/draw/../misc/lv_color.h **** # define _LV_COLOR_ZERO_INITIALIZER16  {{0x00, 0x00, 0x00}}
 168:lvgl/lvgl/src/draw/../misc/lv_color.h **** # define LV_COLOR_MAKE16(r8, g8, b8) {{(uint8_t)((b8 >> 3) & 0x1FU), (uint8_t)((g8 >> 2) & 0x3FU), 
 169:lvgl/lvgl/src/draw/../misc/lv_color.h **** #else
 170:lvgl/lvgl/src/draw/../misc/lv_color.h **** # define _LV_COLOR_ZERO_INITIALIZER16 {{0x00, 0x00, 0x00, 0x00}}
 171:lvgl/lvgl/src/draw/../misc/lv_color.h **** # define LV_COLOR_MAKE16(r8, g8, b8) {{(uint8_t)((g8 >> 5) & 0x7U), (uint8_t)((r8 >> 3) & 0x1FU), (
 172:lvgl/lvgl/src/draw/../misc/lv_color.h **** #endif
 173:lvgl/lvgl/src/draw/../misc/lv_color.h **** 
 174:lvgl/lvgl/src/draw/../misc/lv_color.h **** # define LV_COLOR_SET_R32(c, v) (c).ch.red = (uint8_t)((v) & 0xFF)
 175:lvgl/lvgl/src/draw/../misc/lv_color.h **** # define LV_COLOR_SET_G32(c, v) (c).ch.green = (uint8_t)((v) & 0xFF)
 176:lvgl/lvgl/src/draw/../misc/lv_color.h **** # define LV_COLOR_SET_B32(c, v) (c).ch.blue = (uint8_t)((v) & 0xFF)
 177:lvgl/lvgl/src/draw/../misc/lv_color.h **** # define LV_COLOR_SET_A32(c, v) (c).ch.alpha = (uint8_t)((v) & 0xFF)
 178:lvgl/lvgl/src/draw/../misc/lv_color.h **** 
 179:lvgl/lvgl/src/draw/../misc/lv_color.h **** # define LV_COLOR_GET_R32(c) (c).ch.red
 180:lvgl/lvgl/src/draw/../misc/lv_color.h **** # define LV_COLOR_GET_G32(c) (c).ch.green
 181:lvgl/lvgl/src/draw/../misc/lv_color.h **** # define LV_COLOR_GET_B32(c) (c).ch.blue
 182:lvgl/lvgl/src/draw/../misc/lv_color.h **** # define LV_COLOR_GET_A32(c) (c).ch.alpha
 183:lvgl/lvgl/src/draw/../misc/lv_color.h **** 
 184:lvgl/lvgl/src/draw/../misc/lv_color.h **** # define _LV_COLOR_ZERO_INITIALIZER32  {{0x00, 0x00, 0x00, 0x00}}
 185:lvgl/lvgl/src/draw/../misc/lv_color.h **** # define LV_COLOR_MAKE32(r8, g8, b8) {{b8, g8, r8, 0xff}} /*Fix 0xff alpha*/
 186:lvgl/lvgl/src/draw/../misc/lv_color.h **** 
 187:lvgl/lvgl/src/draw/../misc/lv_color.h **** /*---------------------------------------
 188:lvgl/lvgl/src/draw/../misc/lv_color.h ****  * Macros for the current color depth
 189:lvgl/lvgl/src/draw/../misc/lv_color.h ****  * to set/get values of the color channels
ARM GAS  C:\Users\gx\AppData\Local\Temp\cc0GSSNc.s 			page 50


 190:lvgl/lvgl/src/draw/../misc/lv_color.h ****  *------------------------------------------*/
 191:lvgl/lvgl/src/draw/../misc/lv_color.h **** #define LV_COLOR_SET_R(c, v) LV_CONCAT(LV_COLOR_SET_R, LV_COLOR_DEPTH)(c, v)
 192:lvgl/lvgl/src/draw/../misc/lv_color.h **** #define LV_COLOR_SET_G(c, v) LV_CONCAT(LV_COLOR_SET_G, LV_COLOR_DEPTH)(c, v)
 193:lvgl/lvgl/src/draw/../misc/lv_color.h **** #define LV_COLOR_SET_B(c, v) LV_CONCAT(LV_COLOR_SET_B, LV_COLOR_DEPTH)(c, v)
 194:lvgl/lvgl/src/draw/../misc/lv_color.h **** #define LV_COLOR_SET_A(c, v) LV_CONCAT(LV_COLOR_SET_A, LV_COLOR_DEPTH)(c, v)
 195:lvgl/lvgl/src/draw/../misc/lv_color.h **** 
 196:lvgl/lvgl/src/draw/../misc/lv_color.h **** #define LV_COLOR_GET_R(c) LV_CONCAT(LV_COLOR_GET_R, LV_COLOR_DEPTH)(c)
 197:lvgl/lvgl/src/draw/../misc/lv_color.h **** #define LV_COLOR_GET_G(c) LV_CONCAT(LV_COLOR_GET_G, LV_COLOR_DEPTH)(c)
 198:lvgl/lvgl/src/draw/../misc/lv_color.h **** #define LV_COLOR_GET_B(c) LV_CONCAT(LV_COLOR_GET_B, LV_COLOR_DEPTH)(c)
 199:lvgl/lvgl/src/draw/../misc/lv_color.h **** #define LV_COLOR_GET_A(c) LV_CONCAT(LV_COLOR_GET_A, LV_COLOR_DEPTH)(c)
 200:lvgl/lvgl/src/draw/../misc/lv_color.h **** 
 201:lvgl/lvgl/src/draw/../misc/lv_color.h **** #define _LV_COLOR_ZERO_INITIALIZER LV_CONCAT(_LV_COLOR_ZERO_INITIALIZER, LV_COLOR_DEPTH)
 202:lvgl/lvgl/src/draw/../misc/lv_color.h **** #define LV_COLOR_MAKE(r8, g8, b8) LV_CONCAT(LV_COLOR_MAKE, LV_COLOR_DEPTH)(r8, g8, b8)
 203:lvgl/lvgl/src/draw/../misc/lv_color.h **** 
 204:lvgl/lvgl/src/draw/../misc/lv_color.h **** #define LV_UDIV255(x) ((uint32_t)((uint32_t) (x) * 0x8081) >> 0x17)
 205:lvgl/lvgl/src/draw/../misc/lv_color.h **** 
 206:lvgl/lvgl/src/draw/../misc/lv_color.h **** /**********************
 207:lvgl/lvgl/src/draw/../misc/lv_color.h ****  *      TYPEDEFS
 208:lvgl/lvgl/src/draw/../misc/lv_color.h ****  **********************/
 209:lvgl/lvgl/src/draw/../misc/lv_color.h **** 
 210:lvgl/lvgl/src/draw/../misc/lv_color.h **** typedef union {
 211:lvgl/lvgl/src/draw/../misc/lv_color.h ****     uint8_t full; /*must be declared first to set all bits of byte via initializer list*/
 212:lvgl/lvgl/src/draw/../misc/lv_color.h ****     union {
 213:lvgl/lvgl/src/draw/../misc/lv_color.h ****         uint8_t blue : 1;
 214:lvgl/lvgl/src/draw/../misc/lv_color.h ****         uint8_t green : 1;
 215:lvgl/lvgl/src/draw/../misc/lv_color.h ****         uint8_t red : 1;
 216:lvgl/lvgl/src/draw/../misc/lv_color.h ****     } ch;
 217:lvgl/lvgl/src/draw/../misc/lv_color.h **** } lv_color1_t;
 218:lvgl/lvgl/src/draw/../misc/lv_color.h **** 
 219:lvgl/lvgl/src/draw/../misc/lv_color.h **** typedef union {
 220:lvgl/lvgl/src/draw/../misc/lv_color.h ****     struct {
 221:lvgl/lvgl/src/draw/../misc/lv_color.h ****         uint8_t blue : 2;
 222:lvgl/lvgl/src/draw/../misc/lv_color.h ****         uint8_t green : 3;
 223:lvgl/lvgl/src/draw/../misc/lv_color.h ****         uint8_t red : 3;
 224:lvgl/lvgl/src/draw/../misc/lv_color.h ****     } ch;
 225:lvgl/lvgl/src/draw/../misc/lv_color.h ****     uint8_t full;
 226:lvgl/lvgl/src/draw/../misc/lv_color.h **** } lv_color8_t;
 227:lvgl/lvgl/src/draw/../misc/lv_color.h **** 
 228:lvgl/lvgl/src/draw/../misc/lv_color.h **** typedef union {
 229:lvgl/lvgl/src/draw/../misc/lv_color.h ****     struct {
 230:lvgl/lvgl/src/draw/../misc/lv_color.h **** #if LV_COLOR_16_SWAP == 0
 231:lvgl/lvgl/src/draw/../misc/lv_color.h ****         uint16_t blue : 5;
 232:lvgl/lvgl/src/draw/../misc/lv_color.h ****         uint16_t green : 6;
 233:lvgl/lvgl/src/draw/../misc/lv_color.h ****         uint16_t red : 5;
 234:lvgl/lvgl/src/draw/../misc/lv_color.h **** #else
 235:lvgl/lvgl/src/draw/../misc/lv_color.h ****         uint16_t green_h : 3;
 236:lvgl/lvgl/src/draw/../misc/lv_color.h ****         uint16_t red : 5;
 237:lvgl/lvgl/src/draw/../misc/lv_color.h ****         uint16_t blue : 5;
 238:lvgl/lvgl/src/draw/../misc/lv_color.h ****         uint16_t green_l : 3;
 239:lvgl/lvgl/src/draw/../misc/lv_color.h **** #endif
 240:lvgl/lvgl/src/draw/../misc/lv_color.h ****     } ch;
 241:lvgl/lvgl/src/draw/../misc/lv_color.h ****     uint16_t full;
 242:lvgl/lvgl/src/draw/../misc/lv_color.h **** } lv_color16_t;
 243:lvgl/lvgl/src/draw/../misc/lv_color.h **** 
 244:lvgl/lvgl/src/draw/../misc/lv_color.h **** typedef union {
 245:lvgl/lvgl/src/draw/../misc/lv_color.h ****     struct {
 246:lvgl/lvgl/src/draw/../misc/lv_color.h ****         uint8_t blue;
ARM GAS  C:\Users\gx\AppData\Local\Temp\cc0GSSNc.s 			page 51


 247:lvgl/lvgl/src/draw/../misc/lv_color.h ****         uint8_t green;
 248:lvgl/lvgl/src/draw/../misc/lv_color.h ****         uint8_t red;
 249:lvgl/lvgl/src/draw/../misc/lv_color.h ****         uint8_t alpha;
 250:lvgl/lvgl/src/draw/../misc/lv_color.h ****     } ch;
 251:lvgl/lvgl/src/draw/../misc/lv_color.h ****     uint32_t full;
 252:lvgl/lvgl/src/draw/../misc/lv_color.h **** } lv_color32_t;
 253:lvgl/lvgl/src/draw/../misc/lv_color.h **** 
 254:lvgl/lvgl/src/draw/../misc/lv_color.h **** typedef LV_CONCAT3(uint, LV_COLOR_SIZE, _t) lv_color_int_t;
 255:lvgl/lvgl/src/draw/../misc/lv_color.h **** typedef LV_CONCAT3(lv_color, LV_COLOR_DEPTH, _t) lv_color_t;
 256:lvgl/lvgl/src/draw/../misc/lv_color.h **** 
 257:lvgl/lvgl/src/draw/../misc/lv_color.h **** typedef struct {
 258:lvgl/lvgl/src/draw/../misc/lv_color.h ****     uint16_t h;
 259:lvgl/lvgl/src/draw/../misc/lv_color.h ****     uint8_t s;
 260:lvgl/lvgl/src/draw/../misc/lv_color.h ****     uint8_t v;
 261:lvgl/lvgl/src/draw/../misc/lv_color.h **** } lv_color_hsv_t;
 262:lvgl/lvgl/src/draw/../misc/lv_color.h **** 
 263:lvgl/lvgl/src/draw/../misc/lv_color.h **** //! @cond Doxygen_Suppress
 264:lvgl/lvgl/src/draw/../misc/lv_color.h **** /*No idea where the guard is required but else throws warnings in the docs*/
 265:lvgl/lvgl/src/draw/../misc/lv_color.h **** typedef uint8_t lv_opa_t;
 266:lvgl/lvgl/src/draw/../misc/lv_color.h **** //! @endcond
 267:lvgl/lvgl/src/draw/../misc/lv_color.h **** 
 268:lvgl/lvgl/src/draw/../misc/lv_color.h **** struct _lv_color_filter_dsc_t;
 269:lvgl/lvgl/src/draw/../misc/lv_color.h **** 
 270:lvgl/lvgl/src/draw/../misc/lv_color.h **** typedef lv_color_t (*lv_color_filter_cb_t)(const struct _lv_color_filter_dsc_t *, lv_color_t, lv_op
 271:lvgl/lvgl/src/draw/../misc/lv_color.h **** 
 272:lvgl/lvgl/src/draw/../misc/lv_color.h **** typedef struct _lv_color_filter_dsc_t {
 273:lvgl/lvgl/src/draw/../misc/lv_color.h ****     lv_color_filter_cb_t filter_cb;
 274:lvgl/lvgl/src/draw/../misc/lv_color.h ****     void * user_data;
 275:lvgl/lvgl/src/draw/../misc/lv_color.h **** }lv_color_filter_dsc_t;
 276:lvgl/lvgl/src/draw/../misc/lv_color.h **** 
 277:lvgl/lvgl/src/draw/../misc/lv_color.h **** 
 278:lvgl/lvgl/src/draw/../misc/lv_color.h **** typedef enum {
 279:lvgl/lvgl/src/draw/../misc/lv_color.h ****     LV_PALETTE_RED,
 280:lvgl/lvgl/src/draw/../misc/lv_color.h ****     LV_PALETTE_PINK,
 281:lvgl/lvgl/src/draw/../misc/lv_color.h ****     LV_PALETTE_PURPLE,
 282:lvgl/lvgl/src/draw/../misc/lv_color.h ****     LV_PALETTE_DEEP_PURPLE,
 283:lvgl/lvgl/src/draw/../misc/lv_color.h ****     LV_PALETTE_INDIGO,
 284:lvgl/lvgl/src/draw/../misc/lv_color.h ****     LV_PALETTE_BLUE,
 285:lvgl/lvgl/src/draw/../misc/lv_color.h ****     LV_PALETTE_LIGHT_BLUE,
 286:lvgl/lvgl/src/draw/../misc/lv_color.h ****     LV_PALETTE_CYAN,
 287:lvgl/lvgl/src/draw/../misc/lv_color.h ****     LV_PALETTE_TEAL,
 288:lvgl/lvgl/src/draw/../misc/lv_color.h ****     LV_PALETTE_GREEN,
 289:lvgl/lvgl/src/draw/../misc/lv_color.h ****     LV_PALETTE_LIGHT_GREEN,
 290:lvgl/lvgl/src/draw/../misc/lv_color.h ****     LV_PALETTE_LIME,
 291:lvgl/lvgl/src/draw/../misc/lv_color.h ****     LV_PALETTE_YELLOW,
 292:lvgl/lvgl/src/draw/../misc/lv_color.h ****     LV_PALETTE_AMBER,
 293:lvgl/lvgl/src/draw/../misc/lv_color.h ****     LV_PALETTE_ORANGE,
 294:lvgl/lvgl/src/draw/../misc/lv_color.h ****     LV_PALETTE_DEEP_ORANGE,
 295:lvgl/lvgl/src/draw/../misc/lv_color.h ****     LV_PALETTE_BROWN,
 296:lvgl/lvgl/src/draw/../misc/lv_color.h ****     LV_PALETTE_BLUE_GREY,
 297:lvgl/lvgl/src/draw/../misc/lv_color.h ****     LV_PALETTE_GREY,
 298:lvgl/lvgl/src/draw/../misc/lv_color.h ****     _LV_PALETTE_LAST,
 299:lvgl/lvgl/src/draw/../misc/lv_color.h ****     LV_PALETTE_NONE = 0xff,
 300:lvgl/lvgl/src/draw/../misc/lv_color.h **** }lv_palette_t;
 301:lvgl/lvgl/src/draw/../misc/lv_color.h **** 
 302:lvgl/lvgl/src/draw/../misc/lv_color.h **** /**********************
 303:lvgl/lvgl/src/draw/../misc/lv_color.h ****  * GLOBAL PROTOTYPES
ARM GAS  C:\Users\gx\AppData\Local\Temp\cc0GSSNc.s 			page 52


 304:lvgl/lvgl/src/draw/../misc/lv_color.h ****  **********************/
 305:lvgl/lvgl/src/draw/../misc/lv_color.h **** 
 306:lvgl/lvgl/src/draw/../misc/lv_color.h **** /*In color conversations:
 307:lvgl/lvgl/src/draw/../misc/lv_color.h ****  * - When converting to bigger color type the LSB weight of 1 LSB is calculated
 308:lvgl/lvgl/src/draw/../misc/lv_color.h ****  *   E.g. 16 bit Red has 5 bits
 309:lvgl/lvgl/src/draw/../misc/lv_color.h ****  *         8 bit Red has 3 bits
 310:lvgl/lvgl/src/draw/../misc/lv_color.h ****  *        ----------------------
 311:lvgl/lvgl/src/draw/../misc/lv_color.h ****  *        8 bit red LSB = (2^5 - 1) / (2^3 - 1) = 31 / 7 = 4
 312:lvgl/lvgl/src/draw/../misc/lv_color.h ****  *
 313:lvgl/lvgl/src/draw/../misc/lv_color.h ****  * - When calculating to smaller color type simply shift out the LSBs
 314:lvgl/lvgl/src/draw/../misc/lv_color.h ****  *   E.g.  8 bit Red has 3 bits
 315:lvgl/lvgl/src/draw/../misc/lv_color.h ****  *        16 bit Red has 5 bits
 316:lvgl/lvgl/src/draw/../misc/lv_color.h ****  *        ----------------------
 317:lvgl/lvgl/src/draw/../misc/lv_color.h ****  *         Shift right with 5 - 3 = 2
 318:lvgl/lvgl/src/draw/../misc/lv_color.h ****  */
 319:lvgl/lvgl/src/draw/../misc/lv_color.h **** static inline uint8_t lv_color_to1(lv_color_t color)
 320:lvgl/lvgl/src/draw/../misc/lv_color.h **** {
 321:lvgl/lvgl/src/draw/../misc/lv_color.h **** #if LV_COLOR_DEPTH == 1
 322:lvgl/lvgl/src/draw/../misc/lv_color.h ****     return color.full;
 323:lvgl/lvgl/src/draw/../misc/lv_color.h **** #elif LV_COLOR_DEPTH == 8
 324:lvgl/lvgl/src/draw/../misc/lv_color.h ****     if((LV_COLOR_GET_R(color) & 0x4) || (LV_COLOR_GET_G(color) & 0x4) || (LV_COLOR_GET_B(color) & 0
 325:lvgl/lvgl/src/draw/../misc/lv_color.h ****         return 1;
 326:lvgl/lvgl/src/draw/../misc/lv_color.h ****     }
 327:lvgl/lvgl/src/draw/../misc/lv_color.h ****     else {
 328:lvgl/lvgl/src/draw/../misc/lv_color.h ****         return 0;
 329:lvgl/lvgl/src/draw/../misc/lv_color.h ****     }
 330:lvgl/lvgl/src/draw/../misc/lv_color.h **** #elif LV_COLOR_DEPTH == 16
 331:lvgl/lvgl/src/draw/../misc/lv_color.h ****     if((LV_COLOR_GET_R(color) & 0x10) || (LV_COLOR_GET_G(color) & 0x20) || (LV_COLOR_GET_B(color) &
 332:lvgl/lvgl/src/draw/../misc/lv_color.h ****         return 1;
 333:lvgl/lvgl/src/draw/../misc/lv_color.h ****     }
 334:lvgl/lvgl/src/draw/../misc/lv_color.h ****     else {
 335:lvgl/lvgl/src/draw/../misc/lv_color.h ****         return 0;
 336:lvgl/lvgl/src/draw/../misc/lv_color.h ****     }
 337:lvgl/lvgl/src/draw/../misc/lv_color.h **** #elif LV_COLOR_DEPTH == 32
 338:lvgl/lvgl/src/draw/../misc/lv_color.h ****     if((LV_COLOR_GET_R(color) & 0x80) || (LV_COLOR_GET_G(color) & 0x80) || (LV_COLOR_GET_B(color) &
 339:lvgl/lvgl/src/draw/../misc/lv_color.h ****         return 1;
 340:lvgl/lvgl/src/draw/../misc/lv_color.h ****     }
 341:lvgl/lvgl/src/draw/../misc/lv_color.h ****     else {
 342:lvgl/lvgl/src/draw/../misc/lv_color.h ****         return 0;
 343:lvgl/lvgl/src/draw/../misc/lv_color.h ****     }
 344:lvgl/lvgl/src/draw/../misc/lv_color.h **** #endif
 345:lvgl/lvgl/src/draw/../misc/lv_color.h **** }
 346:lvgl/lvgl/src/draw/../misc/lv_color.h **** 
 347:lvgl/lvgl/src/draw/../misc/lv_color.h **** static inline uint8_t lv_color_to8(lv_color_t color)
 348:lvgl/lvgl/src/draw/../misc/lv_color.h **** {
 349:lvgl/lvgl/src/draw/../misc/lv_color.h **** #if LV_COLOR_DEPTH == 1
 350:lvgl/lvgl/src/draw/../misc/lv_color.h ****     if(color.full == 0)
 351:lvgl/lvgl/src/draw/../misc/lv_color.h ****         return 0;
 352:lvgl/lvgl/src/draw/../misc/lv_color.h ****     else
 353:lvgl/lvgl/src/draw/../misc/lv_color.h ****         return 0xFF;
 354:lvgl/lvgl/src/draw/../misc/lv_color.h **** #elif LV_COLOR_DEPTH == 8
 355:lvgl/lvgl/src/draw/../misc/lv_color.h ****     return color.full;
 356:lvgl/lvgl/src/draw/../misc/lv_color.h **** #elif LV_COLOR_DEPTH == 16
 357:lvgl/lvgl/src/draw/../misc/lv_color.h ****     lv_color8_t ret;
 358:lvgl/lvgl/src/draw/../misc/lv_color.h ****     LV_COLOR_SET_R8(ret, LV_COLOR_GET_R(color) >> 2); /*5 - 3  = 2*/
 359:lvgl/lvgl/src/draw/../misc/lv_color.h ****     LV_COLOR_SET_G8(ret, LV_COLOR_GET_G(color) >> 3); /*6 - 3  = 3*/
 360:lvgl/lvgl/src/draw/../misc/lv_color.h ****     LV_COLOR_SET_B8(ret, LV_COLOR_GET_B(color) >> 3); /*5 - 2  = 3*/
ARM GAS  C:\Users\gx\AppData\Local\Temp\cc0GSSNc.s 			page 53


 361:lvgl/lvgl/src/draw/../misc/lv_color.h ****     return ret.full;
 362:lvgl/lvgl/src/draw/../misc/lv_color.h **** #elif LV_COLOR_DEPTH == 32
 363:lvgl/lvgl/src/draw/../misc/lv_color.h ****     lv_color8_t ret;
 364:lvgl/lvgl/src/draw/../misc/lv_color.h ****     LV_COLOR_SET_R8(ret, LV_COLOR_GET_R(color) >> 5); /*8 - 3  = 5*/
 365:lvgl/lvgl/src/draw/../misc/lv_color.h ****     LV_COLOR_SET_G8(ret, LV_COLOR_GET_G(color) >> 5); /*8 - 3  = 5*/
 366:lvgl/lvgl/src/draw/../misc/lv_color.h ****     LV_COLOR_SET_B8(ret, LV_COLOR_GET_B(color) >> 6); /*8 - 2  = 6*/
 367:lvgl/lvgl/src/draw/../misc/lv_color.h ****     return ret.full;
 368:lvgl/lvgl/src/draw/../misc/lv_color.h **** #endif
 369:lvgl/lvgl/src/draw/../misc/lv_color.h **** }
 370:lvgl/lvgl/src/draw/../misc/lv_color.h **** 
 371:lvgl/lvgl/src/draw/../misc/lv_color.h **** static inline uint16_t lv_color_to16(lv_color_t color)
 372:lvgl/lvgl/src/draw/../misc/lv_color.h **** {
 373:lvgl/lvgl/src/draw/../misc/lv_color.h **** #if LV_COLOR_DEPTH == 1
 374:lvgl/lvgl/src/draw/../misc/lv_color.h ****     if(color.full == 0)
 375:lvgl/lvgl/src/draw/../misc/lv_color.h ****         return 0;
 376:lvgl/lvgl/src/draw/../misc/lv_color.h ****     else
 377:lvgl/lvgl/src/draw/../misc/lv_color.h ****         return 0xFFFF;
 378:lvgl/lvgl/src/draw/../misc/lv_color.h **** #elif LV_COLOR_DEPTH == 8
 379:lvgl/lvgl/src/draw/../misc/lv_color.h ****     lv_color16_t ret;
 380:lvgl/lvgl/src/draw/../misc/lv_color.h ****     LV_COLOR_SET_R16(ret, LV_COLOR_GET_R(color) * 4);  /*(2^5 - 1)/(2^3 - 1) = 31/7 = 4*/
 381:lvgl/lvgl/src/draw/../misc/lv_color.h ****     LV_COLOR_SET_G16(ret, LV_COLOR_GET_G(color) * 9);  /*(2^6 - 1)/(2^3 - 1) = 63/7 = 9*/
 382:lvgl/lvgl/src/draw/../misc/lv_color.h ****     LV_COLOR_SET_B16(ret, LV_COLOR_GET_B(color) * 10); /*(2^5 - 1)/(2^2 - 1) = 31/3 = 10*/
 383:lvgl/lvgl/src/draw/../misc/lv_color.h ****     return ret.full;
 384:lvgl/lvgl/src/draw/../misc/lv_color.h **** #elif LV_COLOR_DEPTH == 16
 385:lvgl/lvgl/src/draw/../misc/lv_color.h ****     return color.full;
 386:lvgl/lvgl/src/draw/../misc/lv_color.h **** #elif LV_COLOR_DEPTH == 32
 387:lvgl/lvgl/src/draw/../misc/lv_color.h ****     lv_color16_t ret;
 388:lvgl/lvgl/src/draw/../misc/lv_color.h ****     LV_COLOR_SET_R16(ret, LV_COLOR_GET_R(color) >> 3); /*8 - 5  = 3*/
 389:lvgl/lvgl/src/draw/../misc/lv_color.h ****     LV_COLOR_SET_G16(ret, LV_COLOR_GET_G(color) >> 2); /*8 - 6  = 2*/
 390:lvgl/lvgl/src/draw/../misc/lv_color.h ****     LV_COLOR_SET_B16(ret, LV_COLOR_GET_B(color) >> 3); /*8 - 5  = 3*/
 391:lvgl/lvgl/src/draw/../misc/lv_color.h ****     return ret.full;
 392:lvgl/lvgl/src/draw/../misc/lv_color.h **** #endif
 393:lvgl/lvgl/src/draw/../misc/lv_color.h **** }
 394:lvgl/lvgl/src/draw/../misc/lv_color.h **** 
 395:lvgl/lvgl/src/draw/../misc/lv_color.h **** static inline uint32_t lv_color_to32(lv_color_t color)
 396:lvgl/lvgl/src/draw/../misc/lv_color.h **** {
 397:lvgl/lvgl/src/draw/../misc/lv_color.h **** #if LV_COLOR_DEPTH == 1
 398:lvgl/lvgl/src/draw/../misc/lv_color.h ****     if(color.full == 0)
 399:lvgl/lvgl/src/draw/../misc/lv_color.h ****         return 0xFF000000;
 400:lvgl/lvgl/src/draw/../misc/lv_color.h ****     else
 401:lvgl/lvgl/src/draw/../misc/lv_color.h ****         return 0xFFFFFFFF;
 402:lvgl/lvgl/src/draw/../misc/lv_color.h **** #elif LV_COLOR_DEPTH == 8
 403:lvgl/lvgl/src/draw/../misc/lv_color.h ****     lv_color32_t ret;
 404:lvgl/lvgl/src/draw/../misc/lv_color.h ****     LV_COLOR_SET_R32(ret, LV_COLOR_GET_R(color) * 36); /*(2^8 - 1)/(2^3 - 1) = 255/7 = 36*/
 405:lvgl/lvgl/src/draw/../misc/lv_color.h ****     LV_COLOR_SET_G32(ret, LV_COLOR_GET_G(color) * 36); /*(2^8 - 1)/(2^3 - 1) = 255/7 = 36*/
 406:lvgl/lvgl/src/draw/../misc/lv_color.h ****     LV_COLOR_SET_B32(ret, LV_COLOR_GET_B(color) * 85); /*(2^8 - 1)/(2^2 - 1) = 255/3 = 85*/
 407:lvgl/lvgl/src/draw/../misc/lv_color.h ****     LV_COLOR_SET_A32(ret, 0xFF);
 408:lvgl/lvgl/src/draw/../misc/lv_color.h ****     return ret.full;
 409:lvgl/lvgl/src/draw/../misc/lv_color.h **** #elif LV_COLOR_DEPTH == 16
 410:lvgl/lvgl/src/draw/../misc/lv_color.h ****     /**
 411:lvgl/lvgl/src/draw/../misc/lv_color.h ****      * The floating point math for conversion is:
 412:lvgl/lvgl/src/draw/../misc/lv_color.h ****      *  valueto = valuefrom * ( (2^bitsto - 1) / (float)(2^bitsfrom - 1) )
 413:lvgl/lvgl/src/draw/../misc/lv_color.h ****      * The faster integer math for conversion is:
 414:lvgl/lvgl/src/draw/../misc/lv_color.h ****      *  valueto = ( valuefrom * multiplier + adder ) >> divisor
 415:lvgl/lvgl/src/draw/../misc/lv_color.h ****      *   multiplier = FLOOR( ( (2^bitsto - 1) << divisor ) / (float)(2^bitsfrom - 1) )
 416:lvgl/lvgl/src/draw/../misc/lv_color.h ****      *
 417:lvgl/lvgl/src/draw/../misc/lv_color.h ****      * Find the first divisor where ( adder >> divisor ) <= 0
ARM GAS  C:\Users\gx\AppData\Local\Temp\cc0GSSNc.s 			page 54


 418:lvgl/lvgl/src/draw/../misc/lv_color.h ****      *
 419:lvgl/lvgl/src/draw/../misc/lv_color.h ****      * 5-bit to 8-bit: ( 31 * multiplier + adder ) >> divisor = 255
 420:lvgl/lvgl/src/draw/../misc/lv_color.h ****      * divisor  multiplier  adder  min (0)  max (31)
 421:lvgl/lvgl/src/draw/../misc/lv_color.h ****      *       0           8      7        7       255
 422:lvgl/lvgl/src/draw/../misc/lv_color.h ****      *       1          16     14        7       255
 423:lvgl/lvgl/src/draw/../misc/lv_color.h ****      *       2          32     28        7       255
 424:lvgl/lvgl/src/draw/../misc/lv_color.h ****      *       3          65     25        3       255
 425:lvgl/lvgl/src/draw/../misc/lv_color.h ****      *       4         131     19        1       255
 426:lvgl/lvgl/src/draw/../misc/lv_color.h ****      *       5         263      7        0       255
 427:lvgl/lvgl/src/draw/../misc/lv_color.h ****      *
 428:lvgl/lvgl/src/draw/../misc/lv_color.h ****      * 6-bit to 8-bit: 255 = ( 63 * multiplier + adder ) >> divisor
 429:lvgl/lvgl/src/draw/../misc/lv_color.h ****      * divisor  multiplier  adder  min (0)  max (63)
 430:lvgl/lvgl/src/draw/../misc/lv_color.h ****      *       0           4      3        3       255
 431:lvgl/lvgl/src/draw/../misc/lv_color.h ****      *       1           8      6        3       255
 432:lvgl/lvgl/src/draw/../misc/lv_color.h ****      *       2          16     12        3       255
 433:lvgl/lvgl/src/draw/../misc/lv_color.h ****      *       3          32     24        3       255
 434:lvgl/lvgl/src/draw/../misc/lv_color.h ****      *       4          64     48        3       255
 435:lvgl/lvgl/src/draw/../misc/lv_color.h ****      *       5         129     33        1       255
 436:lvgl/lvgl/src/draw/../misc/lv_color.h ****      *       6         259      3        0       255
 437:lvgl/lvgl/src/draw/../misc/lv_color.h ****      */
 438:lvgl/lvgl/src/draw/../misc/lv_color.h **** 
 439:lvgl/lvgl/src/draw/../misc/lv_color.h ****     lv_color32_t ret;
 440:lvgl/lvgl/src/draw/../misc/lv_color.h ****     LV_COLOR_SET_R32(ret, (LV_COLOR_GET_R(color) * 263 + 7) >> 5);
 441:lvgl/lvgl/src/draw/../misc/lv_color.h ****     LV_COLOR_SET_G32(ret, (LV_COLOR_GET_G(color) * 259 + 3) >> 6);
 442:lvgl/lvgl/src/draw/../misc/lv_color.h ****     LV_COLOR_SET_B32(ret, (LV_COLOR_GET_B(color) * 263 + 7) >> 5);
 443:lvgl/lvgl/src/draw/../misc/lv_color.h ****     LV_COLOR_SET_A32(ret, 0xFF);
 444:lvgl/lvgl/src/draw/../misc/lv_color.h ****     return ret.full;
 445:lvgl/lvgl/src/draw/../misc/lv_color.h **** #elif LV_COLOR_DEPTH == 32
 446:lvgl/lvgl/src/draw/../misc/lv_color.h ****     return color.full;
 447:lvgl/lvgl/src/draw/../misc/lv_color.h **** #endif
 448:lvgl/lvgl/src/draw/../misc/lv_color.h **** }
 449:lvgl/lvgl/src/draw/../misc/lv_color.h **** 
 450:lvgl/lvgl/src/draw/../misc/lv_color.h **** //! @cond Doxygen_Suppress
 451:lvgl/lvgl/src/draw/../misc/lv_color.h **** 
 452:lvgl/lvgl/src/draw/../misc/lv_color.h **** /**
 453:lvgl/lvgl/src/draw/../misc/lv_color.h ****  * Mix two colors with a given ratio.
 454:lvgl/lvgl/src/draw/../misc/lv_color.h ****  * @param c1 the first color to mix (usually the foreground)
 455:lvgl/lvgl/src/draw/../misc/lv_color.h ****  * @param c2 the second color to mix (usually the background)
 456:lvgl/lvgl/src/draw/../misc/lv_color.h ****  * @param mix The ratio of the colors. 0: full `c2`, 255: full `c1`, 127: half `c1` and half`c2`
 457:lvgl/lvgl/src/draw/../misc/lv_color.h ****  * @return the mixed color
 458:lvgl/lvgl/src/draw/../misc/lv_color.h ****  */
 459:lvgl/lvgl/src/draw/../misc/lv_color.h **** LV_ATTRIBUTE_FAST_MEM static inline lv_color_t lv_color_mix(lv_color_t c1, lv_color_t c2, uint8_t m
 460:lvgl/lvgl/src/draw/../misc/lv_color.h **** {
 461:lvgl/lvgl/src/draw/../misc/lv_color.h ****     lv_color_t ret;
 462:lvgl/lvgl/src/draw/../misc/lv_color.h **** 
 463:lvgl/lvgl/src/draw/../misc/lv_color.h **** #if LV_COLOR_DEPTH == 16 && LV_COLOR_16_SWAP == 0
 464:lvgl/lvgl/src/draw/../misc/lv_color.h ****     /*Source: https://stackoverflow.com/a/50012418/1999969*/
 465:lvgl/lvgl/src/draw/../misc/lv_color.h ****     mix = ( mix + 4 ) >> 3;
 466:lvgl/lvgl/src/draw/../misc/lv_color.h ****     uint32_t bg = (uint32_t)((uint32_t)c2.full | ((uint32_t)c2.full << 16)) & 0x7E0F81F; /*0b000001
 467:lvgl/lvgl/src/draw/../misc/lv_color.h ****     uint32_t fg = (uint32_t)((uint32_t)c1.full | (uint32_t)(c1.full << 16)) & 0x7E0F81F;
 468:lvgl/lvgl/src/draw/../misc/lv_color.h ****     uint32_t result = ((((fg - bg) * mix) >> 5) + bg) & 0x7E0F81F;
 469:lvgl/lvgl/src/draw/../misc/lv_color.h ****     ret.full = (uint16_t)((result >> 16) | result);
 470:lvgl/lvgl/src/draw/../misc/lv_color.h **** #elif LV_COLOR_DEPTH != 1
 471:lvgl/lvgl/src/draw/../misc/lv_color.h ****     /*LV_COLOR_DEPTH == 8, 16 or 32*/
 472:lvgl/lvgl/src/draw/../misc/lv_color.h ****     LV_COLOR_SET_R(ret, LV_UDIV255((uint16_t) LV_COLOR_GET_R(c1) * mix + LV_COLOR_GET_R(c2) *
 473:lvgl/lvgl/src/draw/../misc/lv_color.h ****                                         (255 - mix) + LV_COLOR_MIX_ROUND_OFS));
 474:lvgl/lvgl/src/draw/../misc/lv_color.h ****     LV_COLOR_SET_G(ret, LV_UDIV255((uint16_t) LV_COLOR_GET_G(c1) * mix + LV_COLOR_GET_G(c2) *
ARM GAS  C:\Users\gx\AppData\Local\Temp\cc0GSSNc.s 			page 55


 475:lvgl/lvgl/src/draw/../misc/lv_color.h ****                                         (255 - mix) + LV_COLOR_MIX_ROUND_OFS));
 476:lvgl/lvgl/src/draw/../misc/lv_color.h ****     LV_COLOR_SET_B(ret, LV_UDIV255((uint16_t) LV_COLOR_GET_B(c1) * mix + LV_COLOR_GET_B(c2) *
 477:lvgl/lvgl/src/draw/../misc/lv_color.h ****                                         (255 - mix) + LV_COLOR_MIX_ROUND_OFS));
 478:lvgl/lvgl/src/draw/../misc/lv_color.h ****     LV_COLOR_SET_A(ret, 0xFF);
 479:lvgl/lvgl/src/draw/../misc/lv_color.h **** #else
 480:lvgl/lvgl/src/draw/../misc/lv_color.h ****     /*LV_COLOR_DEPTH == 1*/
 481:lvgl/lvgl/src/draw/../misc/lv_color.h ****     ret.full = mix > LV_OPA_50 ? c1.full : c2.full;
 482:lvgl/lvgl/src/draw/../misc/lv_color.h **** #endif
 483:lvgl/lvgl/src/draw/../misc/lv_color.h **** 
 484:lvgl/lvgl/src/draw/../misc/lv_color.h ****     return ret;
 485:lvgl/lvgl/src/draw/../misc/lv_color.h **** }
 486:lvgl/lvgl/src/draw/../misc/lv_color.h **** 
 487:lvgl/lvgl/src/draw/../misc/lv_color.h **** LV_ATTRIBUTE_FAST_MEM static inline void lv_color_premult(lv_color_t c, uint8_t mix, uint16_t * out
 488:lvgl/lvgl/src/draw/../misc/lv_color.h **** {
 489:lvgl/lvgl/src/draw/../misc/lv_color.h **** #if LV_COLOR_DEPTH != 1
 490:lvgl/lvgl/src/draw/../misc/lv_color.h ****     out[0] = (uint16_t) LV_COLOR_GET_R(c) * mix;
 491:lvgl/lvgl/src/draw/../misc/lv_color.h ****     out[1] = (uint16_t) LV_COLOR_GET_G(c) * mix;
 492:lvgl/lvgl/src/draw/../misc/lv_color.h ****     out[2] = (uint16_t) LV_COLOR_GET_B(c) * mix;
 493:lvgl/lvgl/src/draw/../misc/lv_color.h **** #else
 494:lvgl/lvgl/src/draw/../misc/lv_color.h ****     (void) mix;
 495:lvgl/lvgl/src/draw/../misc/lv_color.h ****     /*Pre-multiplication can't be used with 1 bpp*/
 496:lvgl/lvgl/src/draw/../misc/lv_color.h ****     out[0] = LV_COLOR_GET_R(c);
 497:lvgl/lvgl/src/draw/../misc/lv_color.h ****     out[1] = LV_COLOR_GET_G(c);
 498:lvgl/lvgl/src/draw/../misc/lv_color.h ****     out[2] = LV_COLOR_GET_B(c);
 499:lvgl/lvgl/src/draw/../misc/lv_color.h **** #endif
 500:lvgl/lvgl/src/draw/../misc/lv_color.h **** 
 501:lvgl/lvgl/src/draw/../misc/lv_color.h **** }
 502:lvgl/lvgl/src/draw/../misc/lv_color.h **** 
 503:lvgl/lvgl/src/draw/../misc/lv_color.h **** /**
 504:lvgl/lvgl/src/draw/../misc/lv_color.h ****  * Mix two colors with a given ratio. It runs faster then `lv_color_mix` but requires some pre comp
 505:lvgl/lvgl/src/draw/../misc/lv_color.h ****  * @param premult_c1 The first color. Should be preprocessed with `lv_color_premult(c1)`
 506:lvgl/lvgl/src/draw/../misc/lv_color.h ****  * @param c2 The second color. As it is no pre computation required on it
 507:lvgl/lvgl/src/draw/../misc/lv_color.h ****  * @param mix The ratio of the colors. 0: full `c1`, 255: full `c2`, 127: half `c1` and half `c2`.
 508:lvgl/lvgl/src/draw/../misc/lv_color.h ****  *            Should be modified like mix = `255 - mix`
 509:lvgl/lvgl/src/draw/../misc/lv_color.h ****  * @return the mixed color
 510:lvgl/lvgl/src/draw/../misc/lv_color.h ****  * @note 255 won't give clearly `c1`.
 511:lvgl/lvgl/src/draw/../misc/lv_color.h ****  */
 512:lvgl/lvgl/src/draw/../misc/lv_color.h **** LV_ATTRIBUTE_FAST_MEM static inline lv_color_t lv_color_mix_premult(uint16_t * premult_c1, lv_color
 513:lvgl/lvgl/src/draw/../misc/lv_color.h **** {
 514:lvgl/lvgl/src/draw/../misc/lv_color.h ****     lv_color_t ret;
 515:lvgl/lvgl/src/draw/../misc/lv_color.h **** #if LV_COLOR_DEPTH == 16 && LV_COLOR_16_SWAP == 0
 516:lvgl/lvgl/src/draw/../misc/lv_color.h ****     /*For compatibility with lv_color_mix on 16 bit color depth*/
 517:lvgl/lvgl/src/draw/../misc/lv_color.h ****     LV_COLOR_SET_R(ret, (premult_c1[0] + LV_COLOR_GET_R(c2) * mix) >> 8);
 518:lvgl/lvgl/src/draw/../misc/lv_color.h ****     LV_COLOR_SET_G(ret, (premult_c1[1] + LV_COLOR_GET_G(c2) * mix) >> 8);
 519:lvgl/lvgl/src/draw/../misc/lv_color.h ****     LV_COLOR_SET_B(ret, (premult_c1[2] + LV_COLOR_GET_B(c2) * mix) >> 8);
 520:lvgl/lvgl/src/draw/../misc/lv_color.h **** #elif LV_COLOR_DEPTH != 1
 521:lvgl/lvgl/src/draw/../misc/lv_color.h ****     /*LV_COLOR_DEPTH == 8 or 32*/
 522:lvgl/lvgl/src/draw/../misc/lv_color.h ****     LV_COLOR_SET_R(ret, LV_UDIV255(premult_c1[0] + LV_COLOR_GET_R(c2) * mix + LV_COLOR_MIX_ROUND_OF
 523:lvgl/lvgl/src/draw/../misc/lv_color.h ****     LV_COLOR_SET_G(ret, LV_UDIV255(premult_c1[1] + LV_COLOR_GET_G(c2) * mix + LV_COLOR_MIX_ROUND_OF
 524:lvgl/lvgl/src/draw/../misc/lv_color.h ****     LV_COLOR_SET_B(ret, LV_UDIV255(premult_c1[2] + LV_COLOR_GET_B(c2) * mix + LV_COLOR_MIX_ROUND_OF
 525:lvgl/lvgl/src/draw/../misc/lv_color.h ****     LV_COLOR_SET_A(ret, 0xFF);
 526:lvgl/lvgl/src/draw/../misc/lv_color.h **** #else
 527:lvgl/lvgl/src/draw/../misc/lv_color.h ****     /*LV_COLOR_DEPTH == 1*/
 528:lvgl/lvgl/src/draw/../misc/lv_color.h ****     /*Restore color1*/
 529:lvgl/lvgl/src/draw/../misc/lv_color.h ****     lv_color_t c1;
 530:lvgl/lvgl/src/draw/../misc/lv_color.h ****     LV_COLOR_SET_R(c1, premult_c1[0]);
 531:lvgl/lvgl/src/draw/../misc/lv_color.h ****     LV_COLOR_SET_G(c1, premult_c1[1]);
ARM GAS  C:\Users\gx\AppData\Local\Temp\cc0GSSNc.s 			page 56


 532:lvgl/lvgl/src/draw/../misc/lv_color.h ****     LV_COLOR_SET_B(c1, premult_c1[2]);
 533:lvgl/lvgl/src/draw/../misc/lv_color.h ****     ret.full = mix > LV_OPA_50 ? c2.full : c1.full;
 534:lvgl/lvgl/src/draw/../misc/lv_color.h **** #endif
 535:lvgl/lvgl/src/draw/../misc/lv_color.h **** 
 536:lvgl/lvgl/src/draw/../misc/lv_color.h ****     return ret;
 537:lvgl/lvgl/src/draw/../misc/lv_color.h **** }
 538:lvgl/lvgl/src/draw/../misc/lv_color.h **** 
 539:lvgl/lvgl/src/draw/../misc/lv_color.h **** /**
 540:lvgl/lvgl/src/draw/../misc/lv_color.h ****  * Mix two colors. Both color can have alpha value.
 541:lvgl/lvgl/src/draw/../misc/lv_color.h ****  * @param bg_color background color
 542:lvgl/lvgl/src/draw/../misc/lv_color.h ****  * @param bg_opa alpha of the background color
 543:lvgl/lvgl/src/draw/../misc/lv_color.h ****  * @param fg_color foreground color
 544:lvgl/lvgl/src/draw/../misc/lv_color.h ****  * @param fg_opa alpha of the foreground color
 545:lvgl/lvgl/src/draw/../misc/lv_color.h ****  * @param res_color the result color
 546:lvgl/lvgl/src/draw/../misc/lv_color.h ****  * @param res_opa the result opacity
 547:lvgl/lvgl/src/draw/../misc/lv_color.h ****  */
 548:lvgl/lvgl/src/draw/../misc/lv_color.h **** LV_ATTRIBUTE_FAST_MEM static inline void lv_color_mix_with_alpha(lv_color_t bg_color, lv_opa_t bg_o
 549:lvgl/lvgl/src/draw/../misc/lv_color.h ****                                                                  lv_color_t fg_color, lv_opa_t fg_o
 550:lvgl/lvgl/src/draw/../misc/lv_color.h ****                                                                  lv_color_t * res_color, lv_opa_t *
 551:lvgl/lvgl/src/draw/../misc/lv_color.h **** {
 552:lvgl/lvgl/src/draw/../misc/lv_color.h ****     /*Pick the foreground if it's fully opaque or the Background is fully transparent*/
 553:lvgl/lvgl/src/draw/../misc/lv_color.h ****     if(fg_opa >= LV_OPA_MAX || bg_opa <= LV_OPA_MIN) {
 554:lvgl/lvgl/src/draw/../misc/lv_color.h ****         res_color->full = fg_color.full;
 555:lvgl/lvgl/src/draw/../misc/lv_color.h ****         *res_opa = fg_opa;
 556:lvgl/lvgl/src/draw/../misc/lv_color.h ****     }
 557:lvgl/lvgl/src/draw/../misc/lv_color.h ****     /*Transparent foreground: use the Background*/
 558:lvgl/lvgl/src/draw/../misc/lv_color.h ****     else if(fg_opa <= LV_OPA_MIN) {
 559:lvgl/lvgl/src/draw/../misc/lv_color.h ****         res_color->full = bg_color.full;
 560:lvgl/lvgl/src/draw/../misc/lv_color.h ****         *res_opa = bg_opa;
 561:lvgl/lvgl/src/draw/../misc/lv_color.h ****     }
 562:lvgl/lvgl/src/draw/../misc/lv_color.h ****     /*Opaque background: use simple mix*/
 563:lvgl/lvgl/src/draw/../misc/lv_color.h ****     else if(bg_opa >= LV_OPA_MAX) {
 564:lvgl/lvgl/src/draw/../misc/lv_color.h ****         *res_color = lv_color_mix(fg_color, bg_color, fg_opa);
 565:lvgl/lvgl/src/draw/../misc/lv_color.h ****         *res_opa = LV_OPA_COVER;
 566:lvgl/lvgl/src/draw/../misc/lv_color.h ****     }
 567:lvgl/lvgl/src/draw/../misc/lv_color.h ****     /*Both colors have alpha. Expensive calculation need to be applied*/
 568:lvgl/lvgl/src/draw/../misc/lv_color.h ****     else {
 569:lvgl/lvgl/src/draw/../misc/lv_color.h ****         /*Save the parameters and the result. If they will be asked again don't compute again*/
 570:lvgl/lvgl/src/draw/../misc/lv_color.h ****         static lv_opa_t fg_opa_save     = 0;
 571:lvgl/lvgl/src/draw/../misc/lv_color.h ****         static lv_opa_t bg_opa_save     = 0;
 572:lvgl/lvgl/src/draw/../misc/lv_color.h ****         static lv_color_t fg_color_save = _LV_COLOR_ZERO_INITIALIZER;
 573:lvgl/lvgl/src/draw/../misc/lv_color.h ****         static lv_color_t bg_color_save = _LV_COLOR_ZERO_INITIALIZER;
 574:lvgl/lvgl/src/draw/../misc/lv_color.h ****         static lv_color_t res_color_saved = _LV_COLOR_ZERO_INITIALIZER;
 575:lvgl/lvgl/src/draw/../misc/lv_color.h ****         static lv_opa_t res_opa_saved = 0;
 576:lvgl/lvgl/src/draw/../misc/lv_color.h **** 
 577:lvgl/lvgl/src/draw/../misc/lv_color.h ****         if(fg_opa != fg_opa_save || bg_opa != bg_opa_save || fg_color.full != fg_color_save.full ||
 578:lvgl/lvgl/src/draw/../misc/lv_color.h ****            bg_color.full != bg_color_save.full) {
 579:lvgl/lvgl/src/draw/../misc/lv_color.h ****             fg_opa_save        = fg_opa;
 580:lvgl/lvgl/src/draw/../misc/lv_color.h ****             bg_opa_save        = bg_opa;
 581:lvgl/lvgl/src/draw/../misc/lv_color.h ****             fg_color_save.full = fg_color.full;
 582:lvgl/lvgl/src/draw/../misc/lv_color.h ****             bg_color_save.full = bg_color.full;
 583:lvgl/lvgl/src/draw/../misc/lv_color.h ****             /*Info:
 584:lvgl/lvgl/src/draw/../misc/lv_color.h ****              * https://en.wikipedia.org/wiki/Alpha_compositing#Analytical_derivation_of_the_over_op
 585:lvgl/lvgl/src/draw/../misc/lv_color.h ****             res_opa_saved = 255 - ((uint16_t)((uint16_t)(255 - fg_opa) * (255 - bg_opa)) >> 8);
 586:lvgl/lvgl/src/draw/../misc/lv_color.h ****             if(res_opa_saved == 0) {
 587:lvgl/lvgl/src/draw/../misc/lv_color.h ****                 while(1)
 588:lvgl/lvgl/src/draw/../misc/lv_color.h ****                     ;
ARM GAS  C:\Users\gx\AppData\Local\Temp\cc0GSSNc.s 			page 57


 589:lvgl/lvgl/src/draw/../misc/lv_color.h ****             }
 590:lvgl/lvgl/src/draw/../misc/lv_color.h ****             lv_opa_t ratio = (uint16_t)((uint16_t)fg_opa * 255) / res_opa_saved;
 591:lvgl/lvgl/src/draw/../misc/lv_color.h ****             res_color_saved = lv_color_mix(fg_color, bg_color, ratio);
 592:lvgl/lvgl/src/draw/../misc/lv_color.h **** 
 593:lvgl/lvgl/src/draw/../misc/lv_color.h ****         }
 594:lvgl/lvgl/src/draw/../misc/lv_color.h **** 
 595:lvgl/lvgl/src/draw/../misc/lv_color.h ****         res_color->full = res_color_saved.full;
 596:lvgl/lvgl/src/draw/../misc/lv_color.h ****         *res_opa = res_opa_saved;
 597:lvgl/lvgl/src/draw/../misc/lv_color.h ****     }
 598:lvgl/lvgl/src/draw/../misc/lv_color.h **** }
 599:lvgl/lvgl/src/draw/../misc/lv_color.h **** 
 600:lvgl/lvgl/src/draw/../misc/lv_color.h **** //! @endcond
 601:lvgl/lvgl/src/draw/../misc/lv_color.h **** 
 602:lvgl/lvgl/src/draw/../misc/lv_color.h **** /**
 603:lvgl/lvgl/src/draw/../misc/lv_color.h ****  * Get the brightness of a color
 604:lvgl/lvgl/src/draw/../misc/lv_color.h ****  * @param color a color
 605:lvgl/lvgl/src/draw/../misc/lv_color.h ****  * @return the brightness [0..255]
 606:lvgl/lvgl/src/draw/../misc/lv_color.h ****  */
 607:lvgl/lvgl/src/draw/../misc/lv_color.h **** static inline uint8_t lv_color_brightness(lv_color_t color)
 608:lvgl/lvgl/src/draw/../misc/lv_color.h **** {
 609:lvgl/lvgl/src/draw/../misc/lv_color.h ****     lv_color32_t c32;
 610:lvgl/lvgl/src/draw/../misc/lv_color.h ****     c32.full        = lv_color_to32(color);
 611:lvgl/lvgl/src/draw/../misc/lv_color.h ****     uint16_t bright = (uint16_t)(3u * LV_COLOR_GET_R32(c32) + LV_COLOR_GET_B32(c32) + 4u * LV_COLOR
 612:lvgl/lvgl/src/draw/../misc/lv_color.h ****     return (uint8_t)(bright >> 3);
 613:lvgl/lvgl/src/draw/../misc/lv_color.h **** }
 614:lvgl/lvgl/src/draw/../misc/lv_color.h **** 
 615:lvgl/lvgl/src/draw/../misc/lv_color.h **** static inline lv_color_t lv_color_make(uint8_t r, uint8_t g, uint8_t b)
 616:lvgl/lvgl/src/draw/../misc/lv_color.h **** {
 617:lvgl/lvgl/src/draw/../misc/lv_color.h ****     return _LV_COLOR_MAKE_TYPE_HELPER LV_COLOR_MAKE(r, g, b);
 618:lvgl/lvgl/src/draw/../misc/lv_color.h **** }
 619:lvgl/lvgl/src/draw/../misc/lv_color.h **** 
 620:lvgl/lvgl/src/draw/../misc/lv_color.h **** static inline lv_color_t lv_color_hex(uint32_t c)
 621:lvgl/lvgl/src/draw/../misc/lv_color.h **** {
 622:lvgl/lvgl/src/draw/../misc/lv_color.h ****     return lv_color_make((uint8_t)((c >> 16) & 0xFF), (uint8_t)((c >> 8) & 0xFF), (uint8_t)(c & 0xF
 623:lvgl/lvgl/src/draw/../misc/lv_color.h **** }
 624:lvgl/lvgl/src/draw/../misc/lv_color.h **** 
 625:lvgl/lvgl/src/draw/../misc/lv_color.h **** static inline lv_color_t lv_color_hex3(uint32_t c)
 626:lvgl/lvgl/src/draw/../misc/lv_color.h **** {
 627:lvgl/lvgl/src/draw/../misc/lv_color.h ****     return lv_color_make((uint8_t)(((c >> 4) & 0xF0) | ((c >> 8) & 0xF)), (uint8_t)((c & 0xF0) | ((
 628:lvgl/lvgl/src/draw/../misc/lv_color.h ****                          (uint8_t)((c & 0xF) | ((c & 0xF) << 4)));
 629:lvgl/lvgl/src/draw/../misc/lv_color.h **** }
 630:lvgl/lvgl/src/draw/../misc/lv_color.h **** 
 631:lvgl/lvgl/src/draw/../misc/lv_color.h **** static inline void lv_color_filter_dsc_init(lv_color_filter_dsc_t * dsc, lv_color_filter_cb_t cb)
 632:lvgl/lvgl/src/draw/../misc/lv_color.h **** {
 633:lvgl/lvgl/src/draw/../misc/lv_color.h ****     dsc->filter_cb = cb;
 634:lvgl/lvgl/src/draw/../misc/lv_color.h **** }
 635:lvgl/lvgl/src/draw/../misc/lv_color.h **** 
 636:lvgl/lvgl/src/draw/../misc/lv_color.h **** //! @cond Doxygen_Suppress
 637:lvgl/lvgl/src/draw/../misc/lv_color.h **** //!
 638:lvgl/lvgl/src/draw/../misc/lv_color.h **** LV_ATTRIBUTE_FAST_MEM void lv_color_fill(lv_color_t * buf, lv_color_t color, uint32_t px_num);
 639:lvgl/lvgl/src/draw/../misc/lv_color.h **** 
 640:lvgl/lvgl/src/draw/../misc/lv_color.h **** //! @endcond
 641:lvgl/lvgl/src/draw/../misc/lv_color.h **** lv_color_t lv_color_lighten(lv_color_t c, lv_opa_t lvl);
 642:lvgl/lvgl/src/draw/../misc/lv_color.h **** 
 643:lvgl/lvgl/src/draw/../misc/lv_color.h **** lv_color_t lv_color_darken(lv_color_t c, lv_opa_t lvl);
 644:lvgl/lvgl/src/draw/../misc/lv_color.h **** 
 645:lvgl/lvgl/src/draw/../misc/lv_color.h **** lv_color_t lv_color_change_lightness(lv_color_t c, lv_opa_t lvl);
ARM GAS  C:\Users\gx\AppData\Local\Temp\cc0GSSNc.s 			page 58


 646:lvgl/lvgl/src/draw/../misc/lv_color.h **** 
 647:lvgl/lvgl/src/draw/../misc/lv_color.h **** /**
 648:lvgl/lvgl/src/draw/../misc/lv_color.h ****  * Convert a HSV color to RGB
 649:lvgl/lvgl/src/draw/../misc/lv_color.h ****  * @param h hue [0..359]
 650:lvgl/lvgl/src/draw/../misc/lv_color.h ****  * @param s saturation [0..100]
 651:lvgl/lvgl/src/draw/../misc/lv_color.h ****  * @param v value [0..100]
 652:lvgl/lvgl/src/draw/../misc/lv_color.h ****  * @return the given RGB color in RGB (with LV_COLOR_DEPTH depth)
 653:lvgl/lvgl/src/draw/../misc/lv_color.h ****  */
 654:lvgl/lvgl/src/draw/../misc/lv_color.h **** lv_color_t lv_color_hsv_to_rgb(uint16_t h, uint8_t s, uint8_t v);
 655:lvgl/lvgl/src/draw/../misc/lv_color.h **** 
 656:lvgl/lvgl/src/draw/../misc/lv_color.h **** /**
 657:lvgl/lvgl/src/draw/../misc/lv_color.h ****  * Convert a 32-bit RGB color to HSV
 658:lvgl/lvgl/src/draw/../misc/lv_color.h ****  * @param r8 8-bit red
 659:lvgl/lvgl/src/draw/../misc/lv_color.h ****  * @param g8 8-bit green
 660:lvgl/lvgl/src/draw/../misc/lv_color.h ****  * @param b8 8-bit blue
 661:lvgl/lvgl/src/draw/../misc/lv_color.h ****  * @return the given RGB color in HSV
 662:lvgl/lvgl/src/draw/../misc/lv_color.h ****  */
 663:lvgl/lvgl/src/draw/../misc/lv_color.h **** lv_color_hsv_t lv_color_rgb_to_hsv(uint8_t r8, uint8_t g8, uint8_t b8);
 664:lvgl/lvgl/src/draw/../misc/lv_color.h **** 
 665:lvgl/lvgl/src/draw/../misc/lv_color.h **** /**
 666:lvgl/lvgl/src/draw/../misc/lv_color.h ****  * Convert a color to HSV
 667:lvgl/lvgl/src/draw/../misc/lv_color.h ****  * @param color color
 668:lvgl/lvgl/src/draw/../misc/lv_color.h ****  * @return the given color in HSV
 669:lvgl/lvgl/src/draw/../misc/lv_color.h ****  */
 670:lvgl/lvgl/src/draw/../misc/lv_color.h **** lv_color_hsv_t lv_color_to_hsv(lv_color_t color);
 671:lvgl/lvgl/src/draw/../misc/lv_color.h **** 
 672:lvgl/lvgl/src/draw/../misc/lv_color.h **** /**
 673:lvgl/lvgl/src/draw/../misc/lv_color.h ****  * Just a wrapper around LV_COLOR_CHROMA_KEY because it might be more convenient to use a function 
 674:lvgl/lvgl/src/draw/../misc/lv_color.h ****  * @return LV_COLOR_CHROMA_KEY
 675:lvgl/lvgl/src/draw/../misc/lv_color.h ****  */
 676:lvgl/lvgl/src/draw/../misc/lv_color.h **** static inline lv_color_t lv_color_chroma_key(void)
 677:lvgl/lvgl/src/draw/../misc/lv_color.h **** {
 678:lvgl/lvgl/src/draw/../misc/lv_color.h ****     return LV_COLOR_CHROMA_KEY;
 679:lvgl/lvgl/src/draw/../misc/lv_color.h **** }
 680:lvgl/lvgl/src/draw/../misc/lv_color.h **** 
 681:lvgl/lvgl/src/draw/../misc/lv_color.h **** /**********************
 682:lvgl/lvgl/src/draw/../misc/lv_color.h ****  *  PREDEFINED COLORS
 683:lvgl/lvgl/src/draw/../misc/lv_color.h ****  **********************/
 684:lvgl/lvgl/src/draw/../misc/lv_color.h **** /*Source: https://vuetifyjs.com/en/styles/colors/#material-colors*/
 685:lvgl/lvgl/src/draw/../misc/lv_color.h **** 
 686:lvgl/lvgl/src/draw/../misc/lv_color.h **** lv_color_t lv_palette_main(lv_palette_t p);
 687:lvgl/lvgl/src/draw/../misc/lv_color.h **** static inline lv_color_t lv_color_white(void) { return lv_color_make(0xff, 0xff, 0xff);}
 688:lvgl/lvgl/src/draw/../misc/lv_color.h **** static inline lv_color_t lv_color_black(void) { return lv_color_make(0x00, 0x0, 0x00);}
 1752              		.loc 3 688 26 view .LVU598
 1753              	.LBE40:
 1754              		.loc 3 688 49 view .LVU599
 1755              	.LVL199:
 1756              	.LBB43:
 1757              	.LBB41:
 1758              	.LBI41:
 615:lvgl/lvgl/src/draw/../misc/lv_color.h **** {
 1759              		.loc 3 615 26 view .LVU600
 1760              	.LBB42:
 617:lvgl/lvgl/src/draw/../misc/lv_color.h **** }
 1761              		.loc 3 617 5 view .LVU601
 617:lvgl/lvgl/src/draw/../misc/lv_color.h **** }
 1762              		.loc 3 617 12 is_stmt 0 view .LVU602
ARM GAS  C:\Users\gx\AppData\Local\Temp\cc0GSSNc.s 			page 59


 1763 0012 4FF00003 		mov	r3, #0	@ movhi
 1764              	.LVL200:
 617:lvgl/lvgl/src/draw/../misc/lv_color.h **** }
 1765              		.loc 3 617 12 view .LVU603
 1766              	.LBE42:
 1767              	.LBE41:
 1768              	.LBE43:
  55:lvgl/lvgl/src/draw/lv_draw_line.c **** }
 1769              		.loc 1 55 18 view .LVU604
 1770 0016 2380     		strh	r3, [r4]	@ movhi
  56:lvgl/lvgl/src/draw/lv_draw_line.c **** 
 1771              		.loc 1 56 1 view .LVU605
 1772 0018 10BD     		pop	{r4, pc}
  56:lvgl/lvgl/src/draw/lv_draw_line.c **** 
 1773              		.loc 1 56 1 view .LVU606
 1774              		.cfi_endproc
 1775              	.LFE152:
 1777              		.section	.text.lv_draw_line,"ax",%progbits
 1778              		.align	1
 1779              		.global	lv_draw_line
 1780              		.syntax unified
 1781              		.thumb
 1782              		.thumb_func
 1783              		.fpu fpv4-sp-d16
 1785              	lv_draw_line:
 1786              	.LVL201:
 1787              	.LFB153:
  67:lvgl/lvgl/src/draw/lv_draw_line.c ****     if(dsc->width == 0) return;
 1788              		.loc 1 67 1 is_stmt 1 view -0
 1789              		.cfi_startproc
 1790              		@ args = 0, pretend = 0, frame = 72
 1791              		@ frame_needed = 0, uses_anonymous_args = 0
  67:lvgl/lvgl/src/draw/lv_draw_line.c ****     if(dsc->width == 0) return;
 1792              		.loc 1 67 1 is_stmt 0 view .LVU608
 1793 0000 2DE9F043 		push	{r4, r5, r6, r7, r8, r9, lr}
 1794              	.LCFI12:
 1795              		.cfi_def_cfa_offset 28
 1796              		.cfi_offset 4, -28
 1797              		.cfi_offset 5, -24
 1798              		.cfi_offset 6, -20
 1799              		.cfi_offset 7, -16
 1800              		.cfi_offset 8, -12
 1801              		.cfi_offset 9, -8
 1802              		.cfi_offset 14, -4
 1803 0004 93B0     		sub	sp, sp, #76
 1804              	.LCFI13:
 1805              		.cfi_def_cfa_offset 104
 1806 0006 1C46     		mov	r4, r3
  68:lvgl/lvgl/src/draw/lv_draw_line.c ****     if(dsc->opa <= LV_OPA_MIN) return;
 1807              		.loc 1 68 5 is_stmt 1 view .LVU609
  68:lvgl/lvgl/src/draw/lv_draw_line.c ****     if(dsc->opa <= LV_OPA_MIN) return;
 1808              		.loc 1 68 11 is_stmt 0 view .LVU610
 1809 0008 B3F90230 		ldrsh	r3, [r3, #2]
 1810              	.LVL202:
  68:lvgl/lvgl/src/draw/lv_draw_line.c ****     if(dsc->opa <= LV_OPA_MIN) return;
 1811              		.loc 1 68 7 view .LVU611
 1812 000c 002B     		cmp	r3, #0
ARM GAS  C:\Users\gx\AppData\Local\Temp\cc0GSSNc.s 			page 60


 1813 000e 5CD0     		beq	.L78
 1814 0010 0646     		mov	r6, r0
 1815 0012 0D46     		mov	r5, r1
 1816 0014 1746     		mov	r7, r2
  69:lvgl/lvgl/src/draw/lv_draw_line.c **** 
 1817              		.loc 1 69 5 is_stmt 1 view .LVU612
  69:lvgl/lvgl/src/draw/lv_draw_line.c **** 
 1818              		.loc 1 69 11 is_stmt 0 view .LVU613
 1819 0016 227A     		ldrb	r2, [r4, #8]	@ zero_extendqisi2
 1820              	.LVL203:
  69:lvgl/lvgl/src/draw/lv_draw_line.c **** 
 1821              		.loc 1 69 7 view .LVU614
 1822 0018 022A     		cmp	r2, #2
 1823 001a 56D9     		bls	.L78
  71:lvgl/lvgl/src/draw/lv_draw_line.c **** 
 1824              		.loc 1 71 5 is_stmt 1 view .LVU615
  71:lvgl/lvgl/src/draw/lv_draw_line.c **** 
 1825              		.loc 1 71 14 is_stmt 0 view .LVU616
 1826 001c B0F90010 		ldrsh	r1, [r0]
 1827              	.LVL204:
  71:lvgl/lvgl/src/draw/lv_draw_line.c **** 
 1828              		.loc 1 71 27 view .LVU617
 1829 0020 B5F90020 		ldrsh	r2, [r5]
  71:lvgl/lvgl/src/draw/lv_draw_line.c **** 
 1830              		.loc 1 71 7 view .LVU618
 1831 0024 9142     		cmp	r1, r2
 1832 0026 05D1     		bne	.L80
  71:lvgl/lvgl/src/draw/lv_draw_line.c **** 
 1833              		.loc 1 71 40 discriminator 1 view .LVU619
 1834 0028 B0F902C0 		ldrsh	ip, [r0, #2]
  71:lvgl/lvgl/src/draw/lv_draw_line.c **** 
 1835              		.loc 1 71 53 discriminator 1 view .LVU620
 1836 002c B5F90200 		ldrsh	r0, [r5, #2]
 1837              	.LVL205:
  71:lvgl/lvgl/src/draw/lv_draw_line.c **** 
 1838              		.loc 1 71 31 discriminator 1 view .LVU621
 1839 0030 8445     		cmp	ip, r0
 1840 0032 4AD0     		beq	.L78
 1841              	.L80:
  73:lvgl/lvgl/src/draw/lv_draw_line.c ****     clip_line.x1 = LV_MIN(point1->x, point2->x) - dsc->width / 2;
 1842              		.loc 1 73 5 is_stmt 1 view .LVU622
  74:lvgl/lvgl/src/draw/lv_draw_line.c ****     clip_line.x2 = LV_MAX(point1->x, point2->x) + dsc->width / 2;
 1843              		.loc 1 74 5 view .LVU623
  74:lvgl/lvgl/src/draw/lv_draw_line.c ****     clip_line.x2 = LV_MAX(point1->x, point2->x) + dsc->width / 2;
 1844              		.loc 1 74 20 is_stmt 0 view .LVU624
 1845 0034 9142     		cmp	r1, r2
 1846 0036 A8BF     		it	ge
 1847 0038 1146     		movge	r1, r2
 1848 003a 89B2     		uxth	r1, r1
  74:lvgl/lvgl/src/draw/lv_draw_line.c ****     clip_line.x2 = LV_MAX(point1->x, point2->x) + dsc->width / 2;
 1849              		.loc 1 74 49 view .LVU625
 1850 003c 03EBD373 		add	r3, r3, r3, lsr #31
 1851 0040 C3F34F03 		ubfx	r3, r3, #1, #16
 1852 0044 C91A     		subs	r1, r1, r3
  74:lvgl/lvgl/src/draw/lv_draw_line.c ****     clip_line.x2 = LV_MAX(point1->x, point2->x) + dsc->width / 2;
 1853              		.loc 1 74 18 view .LVU626
 1854 0046 ADF84010 		strh	r1, [sp, #64]	@ movhi
ARM GAS  C:\Users\gx\AppData\Local\Temp\cc0GSSNc.s 			page 61


  75:lvgl/lvgl/src/draw/lv_draw_line.c ****     clip_line.y1 = LV_MIN(point1->y, point2->y) - dsc->width / 2;
 1855              		.loc 1 75 5 is_stmt 1 view .LVU627
  75:lvgl/lvgl/src/draw/lv_draw_line.c ****     clip_line.y1 = LV_MIN(point1->y, point2->y) - dsc->width / 2;
 1856              		.loc 1 75 20 is_stmt 0 view .LVU628
 1857 004a B5F90020 		ldrsh	r2, [r5]
 1858 004e B6F90010 		ldrsh	r1, [r6]
 1859 0052 8A42     		cmp	r2, r1
 1860 0054 B8BF     		it	lt
 1861 0056 0A46     		movlt	r2, r1
  75:lvgl/lvgl/src/draw/lv_draw_line.c ****     clip_line.y1 = LV_MIN(point1->y, point2->y) - dsc->width / 2;
 1862              		.loc 1 75 49 view .LVU629
 1863 0058 13FA82F3 		uxtah	r3, r3, r2
  75:lvgl/lvgl/src/draw/lv_draw_line.c ****     clip_line.y1 = LV_MIN(point1->y, point2->y) - dsc->width / 2;
 1864              		.loc 1 75 18 view .LVU630
 1865 005c ADF84430 		strh	r3, [sp, #68]	@ movhi
  76:lvgl/lvgl/src/draw/lv_draw_line.c ****     clip_line.y2 = LV_MAX(point1->y, point2->y) + dsc->width / 2;
 1866              		.loc 1 76 5 is_stmt 1 view .LVU631
  76:lvgl/lvgl/src/draw/lv_draw_line.c ****     clip_line.y2 = LV_MAX(point1->y, point2->y) + dsc->width / 2;
 1867              		.loc 1 76 20 is_stmt 0 view .LVU632
 1868 0060 B5F90230 		ldrsh	r3, [r5, #2]
 1869 0064 B6F90200 		ldrsh	r0, [r6, #2]
 1870 0068 1946     		mov	r1, r3
 1871 006a 8342     		cmp	r3, r0
 1872 006c A8BF     		it	ge
 1873 006e 0146     		movge	r1, r0
 1874 0070 89B2     		uxth	r1, r1
  76:lvgl/lvgl/src/draw/lv_draw_line.c ****     clip_line.y2 = LV_MAX(point1->y, point2->y) + dsc->width / 2;
 1875              		.loc 1 76 54 view .LVU633
 1876 0072 B4F90220 		ldrsh	r2, [r4, #2]
  76:lvgl/lvgl/src/draw/lv_draw_line.c ****     clip_line.y2 = LV_MAX(point1->y, point2->y) + dsc->width / 2;
 1877              		.loc 1 76 49 view .LVU634
 1878 0076 02EBD272 		add	r2, r2, r2, lsr #31
 1879 007a A1EB6201 		sub	r1, r1, r2, asr #1
  76:lvgl/lvgl/src/draw/lv_draw_line.c ****     clip_line.y2 = LV_MAX(point1->y, point2->y) + dsc->width / 2;
 1880              		.loc 1 76 18 view .LVU635
 1881 007e ADF84210 		strh	r1, [sp, #66]	@ movhi
  77:lvgl/lvgl/src/draw/lv_draw_line.c **** 
 1882              		.loc 1 77 5 is_stmt 1 view .LVU636
  77:lvgl/lvgl/src/draw/lv_draw_line.c **** 
 1883              		.loc 1 77 20 is_stmt 0 view .LVU637
 1884 0082 8342     		cmp	r3, r0
 1885 0084 B8BF     		it	lt
 1886 0086 0346     		movlt	r3, r0
 1887 0088 9BB2     		uxth	r3, r3
  77:lvgl/lvgl/src/draw/lv_draw_line.c **** 
 1888              		.loc 1 77 49 view .LVU638
 1889 008a 03EB6203 		add	r3, r3, r2, asr #1
  77:lvgl/lvgl/src/draw/lv_draw_line.c **** 
 1890              		.loc 1 77 18 view .LVU639
 1891 008e ADF84630 		strh	r3, [sp, #70]	@ movhi
  79:lvgl/lvgl/src/draw/lv_draw_line.c ****     is_common = _lv_area_intersect(&clip_line, &clip_line, clip);
 1892              		.loc 1 79 5 is_stmt 1 view .LVU640
  80:lvgl/lvgl/src/draw/lv_draw_line.c ****     if(!is_common) return;
 1893              		.loc 1 80 5 view .LVU641
  80:lvgl/lvgl/src/draw/lv_draw_line.c ****     if(!is_common) return;
 1894              		.loc 1 80 17 is_stmt 0 view .LVU642
 1895 0092 3A46     		mov	r2, r7
ARM GAS  C:\Users\gx\AppData\Local\Temp\cc0GSSNc.s 			page 62


 1896 0094 10A9     		add	r1, sp, #64
 1897 0096 0846     		mov	r0, r1
 1898 0098 FFF7FEFF 		bl	_lv_area_intersect
 1899              	.LVL206:
  81:lvgl/lvgl/src/draw/lv_draw_line.c **** 
 1900              		.loc 1 81 5 is_stmt 1 view .LVU643
  81:lvgl/lvgl/src/draw/lv_draw_line.c **** 
 1901              		.loc 1 81 7 is_stmt 0 view .LVU644
 1902 009c A8B1     		cbz	r0, .L78
  83:lvgl/lvgl/src/draw/lv_draw_line.c ****     else if(point1->x == point2->x) draw_line_ver(point1, point2, &clip_line, dsc);
 1903              		.loc 1 83 5 is_stmt 1 view .LVU645
  83:lvgl/lvgl/src/draw/lv_draw_line.c ****     else if(point1->x == point2->x) draw_line_ver(point1, point2, &clip_line, dsc);
 1904              		.loc 1 83 14 is_stmt 0 view .LVU646
 1905 009e B6F90220 		ldrsh	r2, [r6, #2]
  83:lvgl/lvgl/src/draw/lv_draw_line.c ****     else if(point1->x == point2->x) draw_line_ver(point1, point2, &clip_line, dsc);
 1906              		.loc 1 83 27 view .LVU647
 1907 00a2 B5F90230 		ldrsh	r3, [r5, #2]
  83:lvgl/lvgl/src/draw/lv_draw_line.c ****     else if(point1->x == point2->x) draw_line_ver(point1, point2, &clip_line, dsc);
 1908              		.loc 1 83 7 view .LVU648
 1909 00a6 9A42     		cmp	r2, r3
 1910 00a8 12D0     		beq	.L89
  84:lvgl/lvgl/src/draw/lv_draw_line.c ****     else draw_line_skew(point1, point2, &clip_line, dsc);
 1911              		.loc 1 84 10 is_stmt 1 view .LVU649
  84:lvgl/lvgl/src/draw/lv_draw_line.c ****     else draw_line_skew(point1, point2, &clip_line, dsc);
 1912              		.loc 1 84 19 is_stmt 0 view .LVU650
 1913 00aa B6F90020 		ldrsh	r2, [r6]
  84:lvgl/lvgl/src/draw/lv_draw_line.c ****     else draw_line_skew(point1, point2, &clip_line, dsc);
 1914              		.loc 1 84 32 view .LVU651
 1915 00ae B5F90030 		ldrsh	r3, [r5]
  84:lvgl/lvgl/src/draw/lv_draw_line.c ****     else draw_line_skew(point1, point2, &clip_line, dsc);
 1916              		.loc 1 84 12 view .LVU652
 1917 00b2 9A42     		cmp	r2, r3
 1918 00b4 13D0     		beq	.L90
  85:lvgl/lvgl/src/draw/lv_draw_line.c **** 
 1919              		.loc 1 85 10 is_stmt 1 view .LVU653
 1920 00b6 2346     		mov	r3, r4
 1921 00b8 10AA     		add	r2, sp, #64
 1922 00ba 2946     		mov	r1, r5
 1923 00bc 3046     		mov	r0, r6
 1924              	.LVL207:
  85:lvgl/lvgl/src/draw/lv_draw_line.c **** 
 1925              		.loc 1 85 10 is_stmt 0 view .LVU654
 1926 00be FFF7FEFF 		bl	draw_line_skew
 1927              	.LVL208:
 1928              	.L82:
  87:lvgl/lvgl/src/draw/lv_draw_line.c ****         lv_draw_rect_dsc_t cir_dsc;
 1929              		.loc 1 87 5 is_stmt 1 view .LVU655
  87:lvgl/lvgl/src/draw/lv_draw_line.c ****         lv_draw_rect_dsc_t cir_dsc;
 1930              		.loc 1 87 23 is_stmt 0 view .LVU656
 1931 00c2 637A     		ldrb	r3, [r4, #9]	@ zero_extendqisi2
  87:lvgl/lvgl/src/draw/lv_draw_line.c ****         lv_draw_rect_dsc_t cir_dsc;
 1932              		.loc 1 87 7 view .LVU657
 1933 00c4 13F00C0F 		tst	r3, #12
 1934 00c8 10D1     		bne	.L91
 1935              	.LVL209:
 1936              	.L78:
 114:lvgl/lvgl/src/draw/lv_draw_line.c **** 
ARM GAS  C:\Users\gx\AppData\Local\Temp\cc0GSSNc.s 			page 63


 1937              		.loc 1 114 1 view .LVU658
 1938 00ca 13B0     		add	sp, sp, #76
 1939              	.LCFI14:
 1940              		.cfi_remember_state
 1941              		.cfi_def_cfa_offset 28
 1942              		@ sp needed
 1943 00cc BDE8F083 		pop	{r4, r5, r6, r7, r8, r9, pc}
 1944              	.LVL210:
 1945              	.L89:
 1946              	.LCFI15:
 1947              		.cfi_restore_state
  83:lvgl/lvgl/src/draw/lv_draw_line.c ****     else if(point1->x == point2->x) draw_line_ver(point1, point2, &clip_line, dsc);
 1948              		.loc 1 83 32 is_stmt 1 discriminator 1 view .LVU659
 1949 00d0 2346     		mov	r3, r4
 1950 00d2 10AA     		add	r2, sp, #64
 1951 00d4 2946     		mov	r1, r5
 1952 00d6 3046     		mov	r0, r6
 1953              	.LVL211:
  83:lvgl/lvgl/src/draw/lv_draw_line.c ****     else if(point1->x == point2->x) draw_line_ver(point1, point2, &clip_line, dsc);
 1954              		.loc 1 83 32 is_stmt 0 discriminator 1 view .LVU660
 1955 00d8 FFF7FEFF 		bl	draw_line_hor
 1956              	.LVL212:
 1957 00dc F1E7     		b	.L82
 1958              	.LVL213:
 1959              	.L90:
  84:lvgl/lvgl/src/draw/lv_draw_line.c ****     else draw_line_skew(point1, point2, &clip_line, dsc);
 1960              		.loc 1 84 37 is_stmt 1 discriminator 1 view .LVU661
 1961 00de 2346     		mov	r3, r4
 1962 00e0 10AA     		add	r2, sp, #64
 1963 00e2 2946     		mov	r1, r5
 1964 00e4 3046     		mov	r0, r6
 1965              	.LVL214:
  84:lvgl/lvgl/src/draw/lv_draw_line.c ****     else draw_line_skew(point1, point2, &clip_line, dsc);
 1966              		.loc 1 84 37 is_stmt 0 discriminator 1 view .LVU662
 1967 00e6 FFF7FEFF 		bl	draw_line_ver
 1968              	.LVL215:
 1969 00ea EAE7     		b	.L82
 1970              	.L91:
 1971              	.LBB44:
  88:lvgl/lvgl/src/draw/lv_draw_line.c ****         lv_draw_rect_dsc_init(&cir_dsc);
 1972              		.loc 1 88 9 is_stmt 1 view .LVU663
  89:lvgl/lvgl/src/draw/lv_draw_line.c ****         cir_dsc.bg_color = dsc->color;
 1973              		.loc 1 89 9 view .LVU664
 1974 00ec 03A8     		add	r0, sp, #12
 1975 00ee FFF7FEFF 		bl	lv_draw_rect_dsc_init
 1976              	.LVL216:
  90:lvgl/lvgl/src/draw/lv_draw_line.c ****         cir_dsc.radius = LV_RADIUS_CIRCLE;
 1977              		.loc 1 90 9 view .LVU665
  90:lvgl/lvgl/src/draw/lv_draw_line.c ****         cir_dsc.radius = LV_RADIUS_CIRCLE;
 1978              		.loc 1 90 26 is_stmt 0 view .LVU666
 1979 00f2 2388     		ldrh	r3, [r4]
 1980 00f4 ADF81030 		strh	r3, [sp, #16]	@ movhi
  91:lvgl/lvgl/src/draw/lv_draw_line.c ****         cir_dsc.bg_opa = dsc->opa;
 1981              		.loc 1 91 9 is_stmt 1 view .LVU667
  91:lvgl/lvgl/src/draw/lv_draw_line.c ****         cir_dsc.bg_opa = dsc->opa;
 1982              		.loc 1 91 24 is_stmt 0 view .LVU668
 1983 00f8 47F6FF73 		movw	r3, #32767
ARM GAS  C:\Users\gx\AppData\Local\Temp\cc0GSSNc.s 			page 64


 1984 00fc ADF80C30 		strh	r3, [sp, #12]	@ movhi
  92:lvgl/lvgl/src/draw/lv_draw_line.c **** 
 1985              		.loc 1 92 9 is_stmt 1 view .LVU669
  92:lvgl/lvgl/src/draw/lv_draw_line.c **** 
 1986              		.loc 1 92 29 is_stmt 0 view .LVU670
 1987 0100 237A     		ldrb	r3, [r4, #8]	@ zero_extendqisi2
  92:lvgl/lvgl/src/draw/lv_draw_line.c **** 
 1988              		.loc 1 92 24 view .LVU671
 1989 0102 8DF81630 		strb	r3, [sp, #22]
  94:lvgl/lvgl/src/draw/lv_draw_line.c ****         int32_t r_corr = (dsc->width & 1) ? 0 : 1;
 1990              		.loc 1 94 9 is_stmt 1 view .LVU672
  94:lvgl/lvgl/src/draw/lv_draw_line.c ****         int32_t r_corr = (dsc->width & 1) ? 0 : 1;
 1991              		.loc 1 94 25 is_stmt 0 view .LVU673
 1992 0106 B4F90230 		ldrsh	r3, [r4, #2]
  94:lvgl/lvgl/src/draw/lv_draw_line.c ****         int32_t r_corr = (dsc->width & 1) ? 0 : 1;
 1993              		.loc 1 94 33 view .LVU674
 1994 010a 4FEA6309 		asr	r9, r3, #1
 1995              	.LVL217:
  95:lvgl/lvgl/src/draw/lv_draw_line.c ****         lv_area_t cir_area;
 1996              		.loc 1 95 9 is_stmt 1 view .LVU675
  95:lvgl/lvgl/src/draw/lv_draw_line.c ****         lv_area_t cir_area;
 1997              		.loc 1 95 38 is_stmt 0 view .LVU676
 1998 010e 1FFA83F8 		uxth	r8, r3
  95:lvgl/lvgl/src/draw/lv_draw_line.c ****         lv_area_t cir_area;
 1999              		.loc 1 95 47 view .LVU677
 2000 0112 88F00108 		eor	r8, r8, #1
 2001 0116 08F00108 		and	r8, r8, #1
 2002              	.LVL218:
  96:lvgl/lvgl/src/draw/lv_draw_line.c **** 
 2003              		.loc 1 96 9 is_stmt 1 view .LVU678
  98:lvgl/lvgl/src/draw/lv_draw_line.c ****             cir_area.x1 = point1->x - r;
 2004              		.loc 1 98 9 view .LVU679
  98:lvgl/lvgl/src/draw/lv_draw_line.c ****             cir_area.x1 = point1->x - r;
 2005              		.loc 1 98 12 is_stmt 0 view .LVU680
 2006 011a 637A     		ldrb	r3, [r4, #9]	@ zero_extendqisi2
  98:lvgl/lvgl/src/draw/lv_draw_line.c ****             cir_area.x1 = point1->x - r;
 2007              		.loc 1 98 11 view .LVU681
 2008 011c 13F0040F 		tst	r3, #4
 2009 0120 22D1     		bne	.L92
 2010              	.L85:
 106:lvgl/lvgl/src/draw/lv_draw_line.c ****             cir_area.x1 = point2->x - r;
 2011              		.loc 1 106 9 is_stmt 1 view .LVU682
 106:lvgl/lvgl/src/draw/lv_draw_line.c ****             cir_area.x1 = point2->x - r;
 2012              		.loc 1 106 12 is_stmt 0 view .LVU683
 2013 0122 637A     		ldrb	r3, [r4, #9]	@ zero_extendqisi2
 106:lvgl/lvgl/src/draw/lv_draw_line.c ****             cir_area.x1 = point2->x - r;
 2014              		.loc 1 106 11 view .LVU684
 2015 0124 13F0080F 		tst	r3, #8
 2016 0128 CFD0     		beq	.L78
 107:lvgl/lvgl/src/draw/lv_draw_line.c ****             cir_area.y1 = point2->y - r;
 2017              		.loc 1 107 13 is_stmt 1 view .LVU685
 107:lvgl/lvgl/src/draw/lv_draw_line.c ****             cir_area.y1 = point2->y - r;
 2018              		.loc 1 107 33 is_stmt 0 view .LVU686
 2019 012a 2B88     		ldrh	r3, [r5]
 107:lvgl/lvgl/src/draw/lv_draw_line.c ****             cir_area.y1 = point2->y - r;
 2020              		.loc 1 107 37 view .LVU687
 2021 012c 1FFA89F9 		uxth	r9, r9
ARM GAS  C:\Users\gx\AppData\Local\Temp\cc0GSSNc.s 			page 65


 107:lvgl/lvgl/src/draw/lv_draw_line.c ****             cir_area.y1 = point2->y - r;
 2022              		.loc 1 107 37 view .LVU688
 2023 0130 A3EB0902 		sub	r2, r3, r9
 107:lvgl/lvgl/src/draw/lv_draw_line.c ****             cir_area.y1 = point2->y - r;
 2024              		.loc 1 107 25 view .LVU689
 2025 0134 ADF80420 		strh	r2, [sp, #4]	@ movhi
 108:lvgl/lvgl/src/draw/lv_draw_line.c ****             cir_area.x2 = point2->x + r - r_corr;
 2026              		.loc 1 108 13 is_stmt 1 view .LVU690
 108:lvgl/lvgl/src/draw/lv_draw_line.c ****             cir_area.x2 = point2->x + r - r_corr;
 2027              		.loc 1 108 33 is_stmt 0 view .LVU691
 2028 0138 6A88     		ldrh	r2, [r5, #2]
 108:lvgl/lvgl/src/draw/lv_draw_line.c ****             cir_area.x2 = point2->x + r - r_corr;
 2029              		.loc 1 108 37 view .LVU692
 2030 013a A2EB0901 		sub	r1, r2, r9
 108:lvgl/lvgl/src/draw/lv_draw_line.c ****             cir_area.x2 = point2->x + r - r_corr;
 2031              		.loc 1 108 25 view .LVU693
 2032 013e ADF80610 		strh	r1, [sp, #6]	@ movhi
 109:lvgl/lvgl/src/draw/lv_draw_line.c ****             cir_area.y2 = point2->y + r - r_corr ;
 2033              		.loc 1 109 13 is_stmt 1 view .LVU694
 109:lvgl/lvgl/src/draw/lv_draw_line.c ****             cir_area.y2 = point2->y + r - r_corr ;
 2034              		.loc 1 109 37 is_stmt 0 view .LVU695
 2035 0142 4B44     		add	r3, r3, r9
 2036 0144 9BB2     		uxth	r3, r3
 109:lvgl/lvgl/src/draw/lv_draw_line.c ****             cir_area.y2 = point2->y + r - r_corr ;
 2037              		.loc 1 109 41 view .LVU696
 2038 0146 A3EB0803 		sub	r3, r3, r8
 109:lvgl/lvgl/src/draw/lv_draw_line.c ****             cir_area.y2 = point2->y + r - r_corr ;
 2039              		.loc 1 109 25 view .LVU697
 2040 014a ADF80830 		strh	r3, [sp, #8]	@ movhi
 110:lvgl/lvgl/src/draw/lv_draw_line.c ****             lv_draw_rect(&cir_area, clip, &cir_dsc);
 2041              		.loc 1 110 13 is_stmt 1 view .LVU698
 110:lvgl/lvgl/src/draw/lv_draw_line.c ****             lv_draw_rect(&cir_area, clip, &cir_dsc);
 2042              		.loc 1 110 37 is_stmt 0 view .LVU699
 2043 014e 9144     		add	r9, r9, r2
 2044              	.LVL219:
 110:lvgl/lvgl/src/draw/lv_draw_line.c ****             lv_draw_rect(&cir_area, clip, &cir_dsc);
 2045              		.loc 1 110 37 view .LVU700
 2046 0150 1FFA89F9 		uxth	r9, r9
 110:lvgl/lvgl/src/draw/lv_draw_line.c ****             lv_draw_rect(&cir_area, clip, &cir_dsc);
 2047              		.loc 1 110 41 view .LVU701
 2048 0154 A9EB0808 		sub	r8, r9, r8
 2049              	.LVL220:
 110:lvgl/lvgl/src/draw/lv_draw_line.c ****             lv_draw_rect(&cir_area, clip, &cir_dsc);
 2050              		.loc 1 110 25 view .LVU702
 2051 0158 ADF80A80 		strh	r8, [sp, #10]	@ movhi
 111:lvgl/lvgl/src/draw/lv_draw_line.c ****         }
 2052              		.loc 1 111 13 is_stmt 1 view .LVU703
 2053 015c 03AA     		add	r2, sp, #12
 2054 015e 3946     		mov	r1, r7
 2055 0160 01A8     		add	r0, sp, #4
 2056 0162 FFF7FEFF 		bl	lv_draw_rect
 2057              	.LVL221:
 2058 0166 B0E7     		b	.L78
 2059              	.LVL222:
 2060              	.L92:
  99:lvgl/lvgl/src/draw/lv_draw_line.c ****             cir_area.y1 = point1->y - r;
 2061              		.loc 1 99 13 view .LVU704
ARM GAS  C:\Users\gx\AppData\Local\Temp\cc0GSSNc.s 			page 66


  99:lvgl/lvgl/src/draw/lv_draw_line.c ****             cir_area.y1 = point1->y - r;
 2062              		.loc 1 99 33 is_stmt 0 view .LVU705
 2063 0168 3288     		ldrh	r2, [r6]
  99:lvgl/lvgl/src/draw/lv_draw_line.c ****             cir_area.y1 = point1->y - r;
 2064              		.loc 1 99 37 view .LVU706
 2065 016a 1FFA89F3 		uxth	r3, r9
 2066 016e D11A     		subs	r1, r2, r3
  99:lvgl/lvgl/src/draw/lv_draw_line.c ****             cir_area.y1 = point1->y - r;
 2067              		.loc 1 99 25 view .LVU707
 2068 0170 ADF80410 		strh	r1, [sp, #4]	@ movhi
 100:lvgl/lvgl/src/draw/lv_draw_line.c ****             cir_area.x2 = point1->x + r - r_corr;
 2069              		.loc 1 100 13 is_stmt 1 view .LVU708
 100:lvgl/lvgl/src/draw/lv_draw_line.c ****             cir_area.x2 = point1->x + r - r_corr;
 2070              		.loc 1 100 33 is_stmt 0 view .LVU709
 2071 0174 7188     		ldrh	r1, [r6, #2]
 100:lvgl/lvgl/src/draw/lv_draw_line.c ****             cir_area.x2 = point1->x + r - r_corr;
 2072              		.loc 1 100 37 view .LVU710
 2073 0176 C81A     		subs	r0, r1, r3
 100:lvgl/lvgl/src/draw/lv_draw_line.c ****             cir_area.x2 = point1->x + r - r_corr;
 2074              		.loc 1 100 25 view .LVU711
 2075 0178 ADF80600 		strh	r0, [sp, #6]	@ movhi
 101:lvgl/lvgl/src/draw/lv_draw_line.c ****             cir_area.y2 = point1->y + r - r_corr ;
 2076              		.loc 1 101 13 is_stmt 1 view .LVU712
 101:lvgl/lvgl/src/draw/lv_draw_line.c ****             cir_area.y2 = point1->y + r - r_corr ;
 2077              		.loc 1 101 37 is_stmt 0 view .LVU713
 2078 017c 1A44     		add	r2, r2, r3
 2079 017e 92B2     		uxth	r2, r2
 101:lvgl/lvgl/src/draw/lv_draw_line.c ****             cir_area.y2 = point1->y + r - r_corr ;
 2080              		.loc 1 101 41 view .LVU714
 2081 0180 A2EB0802 		sub	r2, r2, r8
 101:lvgl/lvgl/src/draw/lv_draw_line.c ****             cir_area.y2 = point1->y + r - r_corr ;
 2082              		.loc 1 101 25 view .LVU715
 2083 0184 ADF80820 		strh	r2, [sp, #8]	@ movhi
 102:lvgl/lvgl/src/draw/lv_draw_line.c ****             lv_draw_rect(&cir_area, clip, &cir_dsc);
 2084              		.loc 1 102 13 is_stmt 1 view .LVU716
 102:lvgl/lvgl/src/draw/lv_draw_line.c ****             lv_draw_rect(&cir_area, clip, &cir_dsc);
 2085              		.loc 1 102 37 is_stmt 0 view .LVU717
 2086 0188 0B44     		add	r3, r3, r1
 2087 018a 9BB2     		uxth	r3, r3
 102:lvgl/lvgl/src/draw/lv_draw_line.c ****             lv_draw_rect(&cir_area, clip, &cir_dsc);
 2088              		.loc 1 102 41 view .LVU718
 2089 018c A3EB0803 		sub	r3, r3, r8
 102:lvgl/lvgl/src/draw/lv_draw_line.c ****             lv_draw_rect(&cir_area, clip, &cir_dsc);
 2090              		.loc 1 102 25 view .LVU719
 2091 0190 ADF80A30 		strh	r3, [sp, #10]	@ movhi
 103:lvgl/lvgl/src/draw/lv_draw_line.c ****         }
 2092              		.loc 1 103 13 is_stmt 1 view .LVU720
 2093 0194 03AA     		add	r2, sp, #12
 2094 0196 3946     		mov	r1, r7
 2095 0198 01A8     		add	r0, sp, #4
 2096 019a FFF7FEFF 		bl	lv_draw_rect
 2097              	.LVL223:
 2098 019e C0E7     		b	.L85
 2099              	.LBE44:
 2100              		.cfi_endproc
 2101              	.LFE153:
 2103              		.section	.rodata.wcorr.9995,"a"
ARM GAS  C:\Users\gx\AppData\Local\Temp\cc0GSSNc.s 			page 67


 2104              		.align	2
 2105              		.set	.LANCHOR0,. + 0
 2108              	wcorr.9995:
 2109 0000 80808081 		.ascii	"\200\200\200\201\201\202\202\203\204\205\206\207\211"
 2109      81828283 
 2109      84858687 
 2109      89
 2110 000d 8A8C8D8F 		.ascii	"\212\214\215\217\221\223\225\227\231\233\236\240\242"
 2110      91939597 
 2110      999B9EA0 
 2110      A2
 2111 001a A5A7AAAD 		.ascii	"\245\247\252\255\257\262\265"
 2111      AFB2B5
 2112              		.text
 2113              	.Letext0:
 2114              		.file 4 "c:\\program files (x86)\\gnu arm embedded toolchain\\9 2020-q2-update\\arm-none-eabi\\inc
 2115              		.file 5 "c:\\program files (x86)\\gnu arm embedded toolchain\\9 2020-q2-update\\arm-none-eabi\\inc
 2116              		.file 6 "c:\\program files (x86)\\gnu arm embedded toolchain\\9 2020-q2-update\\lib\\gcc\\arm-none
 2117              		.file 7 "c:\\program files (x86)\\gnu arm embedded toolchain\\9 2020-q2-update\\arm-none-eabi\\inc
 2118              		.file 8 "c:\\program files (x86)\\gnu arm embedded toolchain\\9 2020-q2-update\\arm-none-eabi\\inc
 2119              		.file 9 "c:\\program files (x86)\\gnu arm embedded toolchain\\9 2020-q2-update\\arm-none-eabi\\inc
 2120              		.file 10 "lvgl/lvgl/src/draw/lv_draw_mask.h"
 2121              		.file 11 "lvgl/lvgl/src/draw/../misc/../font/lv_font.h"
 2122              		.file 12 "lvgl/lvgl/src/draw/../misc/lv_txt.h"
 2123              		.file 13 "lvgl/lvgl/src/draw/../misc/lv_style.h"
 2124              		.file 14 "d:\\practise\\f407_disc\\lvgl\\lvgl\\src\\misc\\lv_ll.h"
 2125              		.file 15 "d:\\practise\\f407_disc\\lvgl\\lvgl\\src\\misc\\lv_timer.h"
 2126              		.file 16 "lvgl/lvgl/src/draw/../core/../hal/lv_hal_disp.h"
 2127              		.file 17 "lvgl/lvgl/src/draw/../core/lv_obj.h"
 2128              		.file 18 "lvgl/lvgl/src/draw/../core/lv_group.h"
 2129              		.file 19 "lvgl/lvgl/src/draw/../core/lv_obj_scroll.h"
 2130              		.file 20 "lvgl/lvgl/src/draw/../core/lv_obj_style.h"
 2131              		.file 21 "lvgl/lvgl/src/draw/../core/../draw/lv_draw_rect.h"
 2132              		.file 22 "lvgl/lvgl/src/draw/../core/../draw/lv_draw_label.h"
 2133              		.file 23 "lvgl/lvgl/src/draw/../core/../draw/lv_draw_line.h"
 2134              		.file 24 "lvgl/lvgl/src/draw/../core/lv_obj_class.h"
 2135              		.file 25 "lvgl/lvgl/src/draw/../core/lv_event.h"
 2136              		.file 26 "d:\\practise\\f407_disc\\lvgl\\lvgl\\src\\misc\\lv_mem.h"
 2137              		.file 27 "lvgl/lvgl/src/draw/lv_draw_blend.h"
 2138              		.file 28 "lvgl/lvgl/src/draw/../core/lv_refr.h"
ARM GAS  C:\Users\gx\AppData\Local\Temp\cc0GSSNc.s 			page 68

