ARM GAS  C:\Users\gx\AppData\Local\Temp\ccIqfrB9.s 			page 1


   1              		.cpu cortex-m4
   2              		.eabi_attribute 27, 1
   3              		.eabi_attribute 28, 1
   4              		.eabi_attribute 20, 1
   5              		.eabi_attribute 21, 1
   6              		.eabi_attribute 23, 3
   7              		.eabi_attribute 24, 1
   8              		.eabi_attribute 25, 1
   9              		.eabi_attribute 26, 1
  10              		.eabi_attribute 30, 1
  11              		.eabi_attribute 34, 1
  12              		.eabi_attribute 18, 4
  13              		.file	"lv_dropdown.c"
  14              		.text
  15              	.Ltext0:
  16              		.cfi_sections	.debug_frame
  17              		.section	.text.lv_dropdownlist_destructor,"ax",%progbits
  18              		.align	1
  19              		.arch armv7e-m
  20              		.syntax unified
  21              		.thumb
  22              		.thumb_func
  23              		.fpu fpv4-sp-d16
  25              	lv_dropdownlist_destructor:
  26              	.LVL0:
  27              	.LFB183:
  28              		.file 1 "lvgl/lvgl/src/widgets/lv_dropdown.c"
   1:lvgl/lvgl/src/widgets/lv_dropdown.c **** /**
   2:lvgl/lvgl/src/widgets/lv_dropdown.c ****  * @file lv_dropdown.c
   3:lvgl/lvgl/src/widgets/lv_dropdown.c ****  *
   4:lvgl/lvgl/src/widgets/lv_dropdown.c ****  */
   5:lvgl/lvgl/src/widgets/lv_dropdown.c **** 
   6:lvgl/lvgl/src/widgets/lv_dropdown.c **** /*********************
   7:lvgl/lvgl/src/widgets/lv_dropdown.c ****  *      INCLUDES
   8:lvgl/lvgl/src/widgets/lv_dropdown.c ****  *********************/
   9:lvgl/lvgl/src/widgets/lv_dropdown.c **** #include "../core/lv_obj.h"
  10:lvgl/lvgl/src/widgets/lv_dropdown.c **** #include "lv_dropdown.h"
  11:lvgl/lvgl/src/widgets/lv_dropdown.c **** #if LV_USE_DROPDOWN != 0
  12:lvgl/lvgl/src/widgets/lv_dropdown.c **** 
  13:lvgl/lvgl/src/widgets/lv_dropdown.c **** #include "../misc/lv_assert.h"
  14:lvgl/lvgl/src/widgets/lv_dropdown.c **** #include "../draw/lv_draw.h"
  15:lvgl/lvgl/src/widgets/lv_dropdown.c **** #include "../core/lv_group.h"
  16:lvgl/lvgl/src/widgets/lv_dropdown.c **** #include "../core/lv_indev.h"
  17:lvgl/lvgl/src/widgets/lv_dropdown.c **** #include "../core/lv_disp.h"
  18:lvgl/lvgl/src/widgets/lv_dropdown.c **** #include "../font/lv_symbol_def.h"
  19:lvgl/lvgl/src/widgets/lv_dropdown.c **** #include "../misc/lv_anim.h"
  20:lvgl/lvgl/src/widgets/lv_dropdown.c **** #include "../misc/lv_math.h"
  21:lvgl/lvgl/src/widgets/lv_dropdown.c **** #include "../misc/lv_txt_ap.h"
  22:lvgl/lvgl/src/widgets/lv_dropdown.c **** #include <string.h>
  23:lvgl/lvgl/src/widgets/lv_dropdown.c **** 
  24:lvgl/lvgl/src/widgets/lv_dropdown.c **** /*********************
  25:lvgl/lvgl/src/widgets/lv_dropdown.c ****  *      DEFINES
  26:lvgl/lvgl/src/widgets/lv_dropdown.c ****  *********************/
  27:lvgl/lvgl/src/widgets/lv_dropdown.c **** #define MY_CLASS &lv_dropdown_class
  28:lvgl/lvgl/src/widgets/lv_dropdown.c **** #define MY_CLASS_LIST &lv_dropdownlist_class
  29:lvgl/lvgl/src/widgets/lv_dropdown.c **** 
  30:lvgl/lvgl/src/widgets/lv_dropdown.c **** #define LV_DROPDOWN_PR_NONE 0xFFFF
ARM GAS  C:\Users\gx\AppData\Local\Temp\ccIqfrB9.s 			page 2


  31:lvgl/lvgl/src/widgets/lv_dropdown.c **** 
  32:lvgl/lvgl/src/widgets/lv_dropdown.c **** /**********************
  33:lvgl/lvgl/src/widgets/lv_dropdown.c ****  *      TYPEDEFS
  34:lvgl/lvgl/src/widgets/lv_dropdown.c ****  **********************/
  35:lvgl/lvgl/src/widgets/lv_dropdown.c **** 
  36:lvgl/lvgl/src/widgets/lv_dropdown.c **** /**********************
  37:lvgl/lvgl/src/widgets/lv_dropdown.c ****  *  STATIC PROTOTYPES
  38:lvgl/lvgl/src/widgets/lv_dropdown.c ****  **********************/
  39:lvgl/lvgl/src/widgets/lv_dropdown.c **** static lv_obj_t * lv_dropdown_list_create(lv_obj_t * parent);
  40:lvgl/lvgl/src/widgets/lv_dropdown.c **** static void lv_dropdown_constructor(const lv_obj_class_t * class_p, lv_obj_t * obj);
  41:lvgl/lvgl/src/widgets/lv_dropdown.c **** static void lv_dropdown_destructor(const lv_obj_class_t * class_p, lv_obj_t * obj);
  42:lvgl/lvgl/src/widgets/lv_dropdown.c **** static void lv_dropdown_event(const lv_obj_class_t * class_p, lv_event_t * e);
  43:lvgl/lvgl/src/widgets/lv_dropdown.c **** static void draw_main(lv_event_t * e);
  44:lvgl/lvgl/src/widgets/lv_dropdown.c **** 
  45:lvgl/lvgl/src/widgets/lv_dropdown.c **** static void lv_dropdownlist_constructor(const lv_obj_class_t * class_p, lv_obj_t * obj);
  46:lvgl/lvgl/src/widgets/lv_dropdown.c **** static void lv_dropdownlist_destructor(const lv_obj_class_t * class_p, lv_obj_t * list_obj);
  47:lvgl/lvgl/src/widgets/lv_dropdown.c **** static void lv_dropdown_list_event(const lv_obj_class_t * class_p, lv_event_t * e);
  48:lvgl/lvgl/src/widgets/lv_dropdown.c **** static void draw_list(lv_event_t * e);
  49:lvgl/lvgl/src/widgets/lv_dropdown.c **** 
  50:lvgl/lvgl/src/widgets/lv_dropdown.c **** static void draw_box(lv_obj_t * dropdown_obj, const lv_area_t * clip_area, uint16_t id, lv_state_t 
  51:lvgl/lvgl/src/widgets/lv_dropdown.c **** static void draw_box_label(lv_obj_t * dropdown_obj, const lv_area_t * clip_area, uint16_t id, lv_st
  52:lvgl/lvgl/src/widgets/lv_dropdown.c **** static lv_res_t btn_release_handler(lv_obj_t * obj);
  53:lvgl/lvgl/src/widgets/lv_dropdown.c **** static lv_res_t list_release_handler(lv_obj_t * list_obj);
  54:lvgl/lvgl/src/widgets/lv_dropdown.c **** static void list_press_handler(lv_obj_t * page);
  55:lvgl/lvgl/src/widgets/lv_dropdown.c **** static uint16_t get_id_on_point(lv_obj_t * dropdown_obj, lv_coord_t y);
  56:lvgl/lvgl/src/widgets/lv_dropdown.c **** static void position_to_selected(lv_obj_t * obj);
  57:lvgl/lvgl/src/widgets/lv_dropdown.c **** static lv_obj_t * get_label(const lv_obj_t * obj);
  58:lvgl/lvgl/src/widgets/lv_dropdown.c **** 
  59:lvgl/lvgl/src/widgets/lv_dropdown.c **** /**********************
  60:lvgl/lvgl/src/widgets/lv_dropdown.c ****  *  STATIC VARIABLES
  61:lvgl/lvgl/src/widgets/lv_dropdown.c ****  **********************/
  62:lvgl/lvgl/src/widgets/lv_dropdown.c **** const lv_obj_class_t lv_dropdown_class = {
  63:lvgl/lvgl/src/widgets/lv_dropdown.c ****     .constructor_cb = lv_dropdown_constructor,
  64:lvgl/lvgl/src/widgets/lv_dropdown.c ****     .destructor_cb = lv_dropdown_destructor,
  65:lvgl/lvgl/src/widgets/lv_dropdown.c ****     .event_cb = lv_dropdown_event,
  66:lvgl/lvgl/src/widgets/lv_dropdown.c ****     .width_def = LV_DPI_DEF,
  67:lvgl/lvgl/src/widgets/lv_dropdown.c ****     .height_def = LV_SIZE_CONTENT,
  68:lvgl/lvgl/src/widgets/lv_dropdown.c ****     .instance_size = sizeof(lv_dropdown_t),
  69:lvgl/lvgl/src/widgets/lv_dropdown.c ****     .editable = LV_OBJ_CLASS_EDITABLE_TRUE,
  70:lvgl/lvgl/src/widgets/lv_dropdown.c ****     .group_def = LV_OBJ_CLASS_GROUP_DEF_TRUE,
  71:lvgl/lvgl/src/widgets/lv_dropdown.c ****     .base_class = &lv_obj_class
  72:lvgl/lvgl/src/widgets/lv_dropdown.c **** };
  73:lvgl/lvgl/src/widgets/lv_dropdown.c **** 
  74:lvgl/lvgl/src/widgets/lv_dropdown.c **** const lv_obj_class_t lv_dropdownlist_class = {
  75:lvgl/lvgl/src/widgets/lv_dropdown.c ****     .constructor_cb = lv_dropdownlist_constructor,
  76:lvgl/lvgl/src/widgets/lv_dropdown.c ****     .destructor_cb = lv_dropdownlist_destructor,
  77:lvgl/lvgl/src/widgets/lv_dropdown.c ****     .event_cb = lv_dropdown_list_event,
  78:lvgl/lvgl/src/widgets/lv_dropdown.c ****     .instance_size = sizeof(lv_dropdown_list_t),
  79:lvgl/lvgl/src/widgets/lv_dropdown.c ****     .base_class = &lv_obj_class
  80:lvgl/lvgl/src/widgets/lv_dropdown.c **** };
  81:lvgl/lvgl/src/widgets/lv_dropdown.c **** 
  82:lvgl/lvgl/src/widgets/lv_dropdown.c **** 
  83:lvgl/lvgl/src/widgets/lv_dropdown.c **** /**********************
  84:lvgl/lvgl/src/widgets/lv_dropdown.c ****  *      MACROS
  85:lvgl/lvgl/src/widgets/lv_dropdown.c ****  **********************/
  86:lvgl/lvgl/src/widgets/lv_dropdown.c **** 
  87:lvgl/lvgl/src/widgets/lv_dropdown.c **** /**********************
ARM GAS  C:\Users\gx\AppData\Local\Temp\ccIqfrB9.s 			page 3


  88:lvgl/lvgl/src/widgets/lv_dropdown.c ****  *   GLOBAL FUNCTIONS
  89:lvgl/lvgl/src/widgets/lv_dropdown.c ****  **********************/
  90:lvgl/lvgl/src/widgets/lv_dropdown.c **** 
  91:lvgl/lvgl/src/widgets/lv_dropdown.c **** lv_obj_t * lv_dropdown_create(lv_obj_t * parent)
  92:lvgl/lvgl/src/widgets/lv_dropdown.c **** {
  93:lvgl/lvgl/src/widgets/lv_dropdown.c ****     LV_LOG_INFO("begin")
  94:lvgl/lvgl/src/widgets/lv_dropdown.c ****     lv_obj_t * obj = lv_obj_class_create_obj(&lv_dropdown_class, parent);
  95:lvgl/lvgl/src/widgets/lv_dropdown.c ****     lv_obj_class_init_obj(obj);
  96:lvgl/lvgl/src/widgets/lv_dropdown.c ****     return obj;
  97:lvgl/lvgl/src/widgets/lv_dropdown.c **** }
  98:lvgl/lvgl/src/widgets/lv_dropdown.c **** 
  99:lvgl/lvgl/src/widgets/lv_dropdown.c **** /*=====================
 100:lvgl/lvgl/src/widgets/lv_dropdown.c ****  * Setter functions
 101:lvgl/lvgl/src/widgets/lv_dropdown.c ****  *====================*/
 102:lvgl/lvgl/src/widgets/lv_dropdown.c **** 
 103:lvgl/lvgl/src/widgets/lv_dropdown.c **** void lv_dropdown_set_text(lv_obj_t * obj, const char * txt)
 104:lvgl/lvgl/src/widgets/lv_dropdown.c **** {
 105:lvgl/lvgl/src/widgets/lv_dropdown.c ****     LV_ASSERT_OBJ(obj, MY_CLASS);
 106:lvgl/lvgl/src/widgets/lv_dropdown.c ****     lv_dropdown_t * dropdown = (lv_dropdown_t *)obj;
 107:lvgl/lvgl/src/widgets/lv_dropdown.c ****     if(dropdown->text == txt) return;
 108:lvgl/lvgl/src/widgets/lv_dropdown.c **** 
 109:lvgl/lvgl/src/widgets/lv_dropdown.c ****     dropdown->text = txt;
 110:lvgl/lvgl/src/widgets/lv_dropdown.c **** 
 111:lvgl/lvgl/src/widgets/lv_dropdown.c ****     lv_obj_invalidate(obj);
 112:lvgl/lvgl/src/widgets/lv_dropdown.c **** }
 113:lvgl/lvgl/src/widgets/lv_dropdown.c **** 
 114:lvgl/lvgl/src/widgets/lv_dropdown.c **** void lv_dropdown_set_options(lv_obj_t * obj, const char * options)
 115:lvgl/lvgl/src/widgets/lv_dropdown.c **** {
 116:lvgl/lvgl/src/widgets/lv_dropdown.c ****     LV_ASSERT_OBJ(obj, MY_CLASS);
 117:lvgl/lvgl/src/widgets/lv_dropdown.c ****     LV_ASSERT_NULL(options);
 118:lvgl/lvgl/src/widgets/lv_dropdown.c **** 
 119:lvgl/lvgl/src/widgets/lv_dropdown.c ****     lv_dropdown_t * dropdown = (lv_dropdown_t *)obj;
 120:lvgl/lvgl/src/widgets/lv_dropdown.c **** 
 121:lvgl/lvgl/src/widgets/lv_dropdown.c ****     /*Count the '\n'-s to determine the number of options*/
 122:lvgl/lvgl/src/widgets/lv_dropdown.c ****     dropdown->option_cnt = 0;
 123:lvgl/lvgl/src/widgets/lv_dropdown.c ****     uint32_t i;
 124:lvgl/lvgl/src/widgets/lv_dropdown.c ****     for(i = 0; options[i] != '\0'; i++) {
 125:lvgl/lvgl/src/widgets/lv_dropdown.c ****         if(options[i] == '\n') dropdown->option_cnt++;
 126:lvgl/lvgl/src/widgets/lv_dropdown.c ****     }
 127:lvgl/lvgl/src/widgets/lv_dropdown.c ****     dropdown->option_cnt++;   /*Last option has no `\n`*/
 128:lvgl/lvgl/src/widgets/lv_dropdown.c ****     dropdown->sel_opt_id      = 0;
 129:lvgl/lvgl/src/widgets/lv_dropdown.c ****     dropdown->sel_opt_id_orig = 0;
 130:lvgl/lvgl/src/widgets/lv_dropdown.c **** 
 131:lvgl/lvgl/src/widgets/lv_dropdown.c ****     /*Allocate space for the new text*/
 132:lvgl/lvgl/src/widgets/lv_dropdown.c **** #if LV_USE_ARABIC_PERSIAN_CHARS == 0
 133:lvgl/lvgl/src/widgets/lv_dropdown.c ****     size_t len = strlen(options) + 1;
 134:lvgl/lvgl/src/widgets/lv_dropdown.c **** #else
 135:lvgl/lvgl/src/widgets/lv_dropdown.c ****     size_t len = _lv_txt_ap_calc_bytes_cnt(options) + 1;
 136:lvgl/lvgl/src/widgets/lv_dropdown.c **** #endif
 137:lvgl/lvgl/src/widgets/lv_dropdown.c **** 
 138:lvgl/lvgl/src/widgets/lv_dropdown.c ****     if(dropdown->options != NULL && dropdown->static_txt == 0) {
 139:lvgl/lvgl/src/widgets/lv_dropdown.c ****         lv_mem_free(dropdown->options);
 140:lvgl/lvgl/src/widgets/lv_dropdown.c ****         dropdown->options = NULL;
 141:lvgl/lvgl/src/widgets/lv_dropdown.c ****     }
 142:lvgl/lvgl/src/widgets/lv_dropdown.c **** 
 143:lvgl/lvgl/src/widgets/lv_dropdown.c ****     dropdown->options = lv_mem_alloc(len);
 144:lvgl/lvgl/src/widgets/lv_dropdown.c **** 
ARM GAS  C:\Users\gx\AppData\Local\Temp\ccIqfrB9.s 			page 4


 145:lvgl/lvgl/src/widgets/lv_dropdown.c ****     LV_ASSERT_MALLOC(dropdown->options);
 146:lvgl/lvgl/src/widgets/lv_dropdown.c ****     if(dropdown->options == NULL) return;
 147:lvgl/lvgl/src/widgets/lv_dropdown.c **** 
 148:lvgl/lvgl/src/widgets/lv_dropdown.c **** #if LV_USE_ARABIC_PERSIAN_CHARS == 0
 149:lvgl/lvgl/src/widgets/lv_dropdown.c ****     strcpy(dropdown->options, options);
 150:lvgl/lvgl/src/widgets/lv_dropdown.c **** #else
 151:lvgl/lvgl/src/widgets/lv_dropdown.c ****     _lv_txt_ap_proc(options, dropdown->options);
 152:lvgl/lvgl/src/widgets/lv_dropdown.c **** #endif
 153:lvgl/lvgl/src/widgets/lv_dropdown.c **** 
 154:lvgl/lvgl/src/widgets/lv_dropdown.c ****     /*Now the text is dynamically allocated*/
 155:lvgl/lvgl/src/widgets/lv_dropdown.c ****     dropdown->static_txt = 0;
 156:lvgl/lvgl/src/widgets/lv_dropdown.c **** }
 157:lvgl/lvgl/src/widgets/lv_dropdown.c **** 
 158:lvgl/lvgl/src/widgets/lv_dropdown.c **** void lv_dropdown_set_options_static(lv_obj_t * obj, const char * options)
 159:lvgl/lvgl/src/widgets/lv_dropdown.c **** {
 160:lvgl/lvgl/src/widgets/lv_dropdown.c ****     LV_ASSERT_OBJ(obj, MY_CLASS);
 161:lvgl/lvgl/src/widgets/lv_dropdown.c ****     LV_ASSERT_NULL(options);
 162:lvgl/lvgl/src/widgets/lv_dropdown.c **** 
 163:lvgl/lvgl/src/widgets/lv_dropdown.c ****     lv_dropdown_t * dropdown = (lv_dropdown_t *)obj;
 164:lvgl/lvgl/src/widgets/lv_dropdown.c **** 
 165:lvgl/lvgl/src/widgets/lv_dropdown.c ****     /*Count the '\n'-s to determine the number of options*/
 166:lvgl/lvgl/src/widgets/lv_dropdown.c ****     dropdown->option_cnt = 0;
 167:lvgl/lvgl/src/widgets/lv_dropdown.c ****     uint32_t i;
 168:lvgl/lvgl/src/widgets/lv_dropdown.c ****     for(i = 0; options[i] != '\0'; i++) {
 169:lvgl/lvgl/src/widgets/lv_dropdown.c ****         if(options[i] == '\n') dropdown->option_cnt++;
 170:lvgl/lvgl/src/widgets/lv_dropdown.c ****     }
 171:lvgl/lvgl/src/widgets/lv_dropdown.c ****     dropdown->option_cnt++;   /*Last option has no `\n`*/
 172:lvgl/lvgl/src/widgets/lv_dropdown.c ****     dropdown->sel_opt_id      = 0;
 173:lvgl/lvgl/src/widgets/lv_dropdown.c ****     dropdown->sel_opt_id_orig = 0;
 174:lvgl/lvgl/src/widgets/lv_dropdown.c **** 
 175:lvgl/lvgl/src/widgets/lv_dropdown.c ****     if(dropdown->static_txt == 0 && dropdown->options != NULL) {
 176:lvgl/lvgl/src/widgets/lv_dropdown.c ****         lv_mem_free(dropdown->options);
 177:lvgl/lvgl/src/widgets/lv_dropdown.c ****         dropdown->options = NULL;
 178:lvgl/lvgl/src/widgets/lv_dropdown.c ****     }
 179:lvgl/lvgl/src/widgets/lv_dropdown.c **** 
 180:lvgl/lvgl/src/widgets/lv_dropdown.c ****     dropdown->static_txt = 1;
 181:lvgl/lvgl/src/widgets/lv_dropdown.c ****     dropdown->options = (char *)options;
 182:lvgl/lvgl/src/widgets/lv_dropdown.c **** }
 183:lvgl/lvgl/src/widgets/lv_dropdown.c **** 
 184:lvgl/lvgl/src/widgets/lv_dropdown.c **** void lv_dropdown_add_option(lv_obj_t * obj, const char * option, uint32_t pos)
 185:lvgl/lvgl/src/widgets/lv_dropdown.c **** {
 186:lvgl/lvgl/src/widgets/lv_dropdown.c ****     LV_ASSERT_OBJ(obj, MY_CLASS);
 187:lvgl/lvgl/src/widgets/lv_dropdown.c ****     LV_ASSERT_NULL(option);
 188:lvgl/lvgl/src/widgets/lv_dropdown.c **** 
 189:lvgl/lvgl/src/widgets/lv_dropdown.c ****     lv_dropdown_t * dropdown = (lv_dropdown_t *)obj;
 190:lvgl/lvgl/src/widgets/lv_dropdown.c **** 
 191:lvgl/lvgl/src/widgets/lv_dropdown.c ****     /*Convert static options to dynamic*/
 192:lvgl/lvgl/src/widgets/lv_dropdown.c ****     if(dropdown->static_txt != 0) {
 193:lvgl/lvgl/src/widgets/lv_dropdown.c ****         char * static_options = dropdown->options;
 194:lvgl/lvgl/src/widgets/lv_dropdown.c ****         size_t len = strlen(static_options) + 1;
 195:lvgl/lvgl/src/widgets/lv_dropdown.c **** 
 196:lvgl/lvgl/src/widgets/lv_dropdown.c ****         dropdown->options = lv_mem_alloc(len);
 197:lvgl/lvgl/src/widgets/lv_dropdown.c ****         LV_ASSERT_MALLOC(dropdown->options);
 198:lvgl/lvgl/src/widgets/lv_dropdown.c ****         if(dropdown->options == NULL) return;
 199:lvgl/lvgl/src/widgets/lv_dropdown.c **** 
 200:lvgl/lvgl/src/widgets/lv_dropdown.c ****         strcpy(dropdown->options, static_options);
 201:lvgl/lvgl/src/widgets/lv_dropdown.c ****         dropdown->static_txt = 0;
ARM GAS  C:\Users\gx\AppData\Local\Temp\ccIqfrB9.s 			page 5


 202:lvgl/lvgl/src/widgets/lv_dropdown.c ****     }
 203:lvgl/lvgl/src/widgets/lv_dropdown.c **** 
 204:lvgl/lvgl/src/widgets/lv_dropdown.c ****     /*Allocate space for the new option*/
 205:lvgl/lvgl/src/widgets/lv_dropdown.c ****     size_t old_len = (dropdown->options == NULL) ? 0 : strlen(dropdown->options);
 206:lvgl/lvgl/src/widgets/lv_dropdown.c **** #if LV_USE_ARABIC_PERSIAN_CHARS == 0
 207:lvgl/lvgl/src/widgets/lv_dropdown.c ****     size_t ins_len = strlen(option) + 1;
 208:lvgl/lvgl/src/widgets/lv_dropdown.c **** #else
 209:lvgl/lvgl/src/widgets/lv_dropdown.c ****     size_t ins_len = _lv_txt_ap_calc_bytes_cnt(option) + 1;
 210:lvgl/lvgl/src/widgets/lv_dropdown.c **** #endif
 211:lvgl/lvgl/src/widgets/lv_dropdown.c **** 
 212:lvgl/lvgl/src/widgets/lv_dropdown.c ****     size_t new_len = ins_len + old_len + 2; /*+2 for terminating NULL and possible \n*/
 213:lvgl/lvgl/src/widgets/lv_dropdown.c ****     dropdown->options        = lv_mem_realloc(dropdown->options, new_len + 1);
 214:lvgl/lvgl/src/widgets/lv_dropdown.c ****     LV_ASSERT_MALLOC(dropdown->options);
 215:lvgl/lvgl/src/widgets/lv_dropdown.c ****     if(dropdown->options == NULL) return;
 216:lvgl/lvgl/src/widgets/lv_dropdown.c **** 
 217:lvgl/lvgl/src/widgets/lv_dropdown.c ****     dropdown->options[old_len] = '\0';
 218:lvgl/lvgl/src/widgets/lv_dropdown.c **** 
 219:lvgl/lvgl/src/widgets/lv_dropdown.c ****     /*Find the insert character position*/
 220:lvgl/lvgl/src/widgets/lv_dropdown.c ****     uint32_t insert_pos = old_len;
 221:lvgl/lvgl/src/widgets/lv_dropdown.c ****     if(pos != LV_DROPDOWN_POS_LAST) {
 222:lvgl/lvgl/src/widgets/lv_dropdown.c ****         uint32_t opcnt = 0;
 223:lvgl/lvgl/src/widgets/lv_dropdown.c ****         for(insert_pos = 0; dropdown->options[insert_pos] != 0; insert_pos++) {
 224:lvgl/lvgl/src/widgets/lv_dropdown.c ****             if(opcnt == pos)
 225:lvgl/lvgl/src/widgets/lv_dropdown.c ****                 break;
 226:lvgl/lvgl/src/widgets/lv_dropdown.c ****             if(dropdown->options[insert_pos] == '\n')
 227:lvgl/lvgl/src/widgets/lv_dropdown.c ****                 opcnt++;
 228:lvgl/lvgl/src/widgets/lv_dropdown.c ****         }
 229:lvgl/lvgl/src/widgets/lv_dropdown.c ****     }
 230:lvgl/lvgl/src/widgets/lv_dropdown.c **** 
 231:lvgl/lvgl/src/widgets/lv_dropdown.c ****     /*Add delimiter to existing options*/
 232:lvgl/lvgl/src/widgets/lv_dropdown.c ****     if((insert_pos > 0) && (pos >= dropdown->option_cnt))
 233:lvgl/lvgl/src/widgets/lv_dropdown.c ****         _lv_txt_ins(dropdown->options, _lv_txt_encoded_get_char_id(dropdown->options, insert_pos++)
 234:lvgl/lvgl/src/widgets/lv_dropdown.c **** 
 235:lvgl/lvgl/src/widgets/lv_dropdown.c ****     /*Insert the new option, adding \n if necessary*/
 236:lvgl/lvgl/src/widgets/lv_dropdown.c ****     char * ins_buf = lv_mem_buf_get(ins_len + 2); /*+ 2 for terminating NULL and possible \n*/
 237:lvgl/lvgl/src/widgets/lv_dropdown.c ****     LV_ASSERT_MALLOC(ins_buf);
 238:lvgl/lvgl/src/widgets/lv_dropdown.c ****     if(ins_buf == NULL) return;
 239:lvgl/lvgl/src/widgets/lv_dropdown.c **** #if LV_USE_ARABIC_PERSIAN_CHARS == 0
 240:lvgl/lvgl/src/widgets/lv_dropdown.c ****     strcpy(ins_buf, option);
 241:lvgl/lvgl/src/widgets/lv_dropdown.c **** #else
 242:lvgl/lvgl/src/widgets/lv_dropdown.c ****     _lv_txt_ap_proc(option, ins_buf);
 243:lvgl/lvgl/src/widgets/lv_dropdown.c **** #endif
 244:lvgl/lvgl/src/widgets/lv_dropdown.c ****     if(pos < dropdown->option_cnt) strcat(ins_buf, "\n");
 245:lvgl/lvgl/src/widgets/lv_dropdown.c **** 
 246:lvgl/lvgl/src/widgets/lv_dropdown.c ****     _lv_txt_ins(dropdown->options, _lv_txt_encoded_get_char_id(dropdown->options, insert_pos), ins_
 247:lvgl/lvgl/src/widgets/lv_dropdown.c ****     lv_mem_buf_release(ins_buf);
 248:lvgl/lvgl/src/widgets/lv_dropdown.c **** 
 249:lvgl/lvgl/src/widgets/lv_dropdown.c ****     dropdown->option_cnt++;
 250:lvgl/lvgl/src/widgets/lv_dropdown.c **** 
 251:lvgl/lvgl/src/widgets/lv_dropdown.c ****     lv_obj_invalidate(obj);
 252:lvgl/lvgl/src/widgets/lv_dropdown.c **** }
 253:lvgl/lvgl/src/widgets/lv_dropdown.c **** 
 254:lvgl/lvgl/src/widgets/lv_dropdown.c **** void lv_dropdown_clear_options(lv_obj_t * obj)
 255:lvgl/lvgl/src/widgets/lv_dropdown.c **** {
 256:lvgl/lvgl/src/widgets/lv_dropdown.c ****     LV_ASSERT_OBJ(obj, MY_CLASS);
 257:lvgl/lvgl/src/widgets/lv_dropdown.c ****     lv_dropdown_t * dropdown = (lv_dropdown_t *)obj;
 258:lvgl/lvgl/src/widgets/lv_dropdown.c ****     if(dropdown->options == NULL) return;
ARM GAS  C:\Users\gx\AppData\Local\Temp\ccIqfrB9.s 			page 6


 259:lvgl/lvgl/src/widgets/lv_dropdown.c **** 
 260:lvgl/lvgl/src/widgets/lv_dropdown.c ****     if(dropdown->static_txt == 0)
 261:lvgl/lvgl/src/widgets/lv_dropdown.c ****         lv_mem_free(dropdown->options);
 262:lvgl/lvgl/src/widgets/lv_dropdown.c **** 
 263:lvgl/lvgl/src/widgets/lv_dropdown.c ****     dropdown->options = NULL;
 264:lvgl/lvgl/src/widgets/lv_dropdown.c ****     dropdown->static_txt = 0;
 265:lvgl/lvgl/src/widgets/lv_dropdown.c ****     dropdown->option_cnt = 0;
 266:lvgl/lvgl/src/widgets/lv_dropdown.c **** 
 267:lvgl/lvgl/src/widgets/lv_dropdown.c ****     lv_obj_invalidate(obj);
 268:lvgl/lvgl/src/widgets/lv_dropdown.c **** }
 269:lvgl/lvgl/src/widgets/lv_dropdown.c **** 
 270:lvgl/lvgl/src/widgets/lv_dropdown.c **** void lv_dropdown_set_selected(lv_obj_t * obj, uint16_t sel_opt)
 271:lvgl/lvgl/src/widgets/lv_dropdown.c **** {
 272:lvgl/lvgl/src/widgets/lv_dropdown.c ****     LV_ASSERT_OBJ(obj, MY_CLASS);
 273:lvgl/lvgl/src/widgets/lv_dropdown.c **** 
 274:lvgl/lvgl/src/widgets/lv_dropdown.c ****     lv_dropdown_t * dropdown = (lv_dropdown_t *)obj;
 275:lvgl/lvgl/src/widgets/lv_dropdown.c ****     if(dropdown->sel_opt_id == sel_opt) return;
 276:lvgl/lvgl/src/widgets/lv_dropdown.c **** 
 277:lvgl/lvgl/src/widgets/lv_dropdown.c ****     dropdown->sel_opt_id      = sel_opt < dropdown->option_cnt ? sel_opt : dropdown->option_cnt - 1
 278:lvgl/lvgl/src/widgets/lv_dropdown.c ****     dropdown->sel_opt_id_orig = dropdown->sel_opt_id;
 279:lvgl/lvgl/src/widgets/lv_dropdown.c **** 
 280:lvgl/lvgl/src/widgets/lv_dropdown.c ****     lv_obj_invalidate(obj);
 281:lvgl/lvgl/src/widgets/lv_dropdown.c **** }
 282:lvgl/lvgl/src/widgets/lv_dropdown.c **** 
 283:lvgl/lvgl/src/widgets/lv_dropdown.c **** void lv_dropdown_set_dir(lv_obj_t * obj, lv_dir_t dir)
 284:lvgl/lvgl/src/widgets/lv_dropdown.c **** {
 285:lvgl/lvgl/src/widgets/lv_dropdown.c ****     LV_ASSERT_OBJ(obj, MY_CLASS);
 286:lvgl/lvgl/src/widgets/lv_dropdown.c **** 
 287:lvgl/lvgl/src/widgets/lv_dropdown.c ****     lv_dropdown_t * dropdown = (lv_dropdown_t *)obj;
 288:lvgl/lvgl/src/widgets/lv_dropdown.c ****     if(dropdown->dir == dir) return;
 289:lvgl/lvgl/src/widgets/lv_dropdown.c **** 
 290:lvgl/lvgl/src/widgets/lv_dropdown.c ****     dropdown->dir = dir;
 291:lvgl/lvgl/src/widgets/lv_dropdown.c **** 
 292:lvgl/lvgl/src/widgets/lv_dropdown.c ****     lv_obj_invalidate(obj);
 293:lvgl/lvgl/src/widgets/lv_dropdown.c **** }
 294:lvgl/lvgl/src/widgets/lv_dropdown.c **** 
 295:lvgl/lvgl/src/widgets/lv_dropdown.c **** void lv_dropdown_set_symbol(lv_obj_t * obj, const void * symbol)
 296:lvgl/lvgl/src/widgets/lv_dropdown.c **** {
 297:lvgl/lvgl/src/widgets/lv_dropdown.c ****     LV_ASSERT_OBJ(obj, MY_CLASS);
 298:lvgl/lvgl/src/widgets/lv_dropdown.c **** 
 299:lvgl/lvgl/src/widgets/lv_dropdown.c ****     lv_dropdown_t * dropdown = (lv_dropdown_t *)obj;
 300:lvgl/lvgl/src/widgets/lv_dropdown.c ****     dropdown->symbol = symbol;
 301:lvgl/lvgl/src/widgets/lv_dropdown.c ****     lv_obj_invalidate(obj);
 302:lvgl/lvgl/src/widgets/lv_dropdown.c **** }
 303:lvgl/lvgl/src/widgets/lv_dropdown.c **** 
 304:lvgl/lvgl/src/widgets/lv_dropdown.c **** void lv_dropdown_set_selected_highlight(lv_obj_t * obj, bool en)
 305:lvgl/lvgl/src/widgets/lv_dropdown.c **** {
 306:lvgl/lvgl/src/widgets/lv_dropdown.c ****     LV_ASSERT_OBJ(obj, MY_CLASS);
 307:lvgl/lvgl/src/widgets/lv_dropdown.c **** 
 308:lvgl/lvgl/src/widgets/lv_dropdown.c ****     lv_dropdown_t * dropdown = (lv_dropdown_t *)obj;
 309:lvgl/lvgl/src/widgets/lv_dropdown.c ****     dropdown->selected_highlight = en;
 310:lvgl/lvgl/src/widgets/lv_dropdown.c ****     if(dropdown->list) lv_obj_invalidate(dropdown->list);
 311:lvgl/lvgl/src/widgets/lv_dropdown.c **** }
 312:lvgl/lvgl/src/widgets/lv_dropdown.c **** 
 313:lvgl/lvgl/src/widgets/lv_dropdown.c **** /*=====================
 314:lvgl/lvgl/src/widgets/lv_dropdown.c ****  * Getter functions
 315:lvgl/lvgl/src/widgets/lv_dropdown.c ****  *====================*/
ARM GAS  C:\Users\gx\AppData\Local\Temp\ccIqfrB9.s 			page 7


 316:lvgl/lvgl/src/widgets/lv_dropdown.c **** 
 317:lvgl/lvgl/src/widgets/lv_dropdown.c **** lv_obj_t * lv_dropdown_get_list(lv_obj_t * obj)
 318:lvgl/lvgl/src/widgets/lv_dropdown.c **** {
 319:lvgl/lvgl/src/widgets/lv_dropdown.c ****     LV_ASSERT_OBJ(obj, MY_CLASS);
 320:lvgl/lvgl/src/widgets/lv_dropdown.c ****     lv_dropdown_t * dropdown = (lv_dropdown_t *)obj;
 321:lvgl/lvgl/src/widgets/lv_dropdown.c **** 
 322:lvgl/lvgl/src/widgets/lv_dropdown.c ****     return dropdown->list;
 323:lvgl/lvgl/src/widgets/lv_dropdown.c **** 
 324:lvgl/lvgl/src/widgets/lv_dropdown.c **** }
 325:lvgl/lvgl/src/widgets/lv_dropdown.c **** 
 326:lvgl/lvgl/src/widgets/lv_dropdown.c **** const char * lv_dropdown_get_text(lv_obj_t * obj)
 327:lvgl/lvgl/src/widgets/lv_dropdown.c **** {
 328:lvgl/lvgl/src/widgets/lv_dropdown.c ****     LV_ASSERT_OBJ(obj, MY_CLASS);
 329:lvgl/lvgl/src/widgets/lv_dropdown.c ****     lv_dropdown_t * dropdown = (lv_dropdown_t *)obj;
 330:lvgl/lvgl/src/widgets/lv_dropdown.c **** 
 331:lvgl/lvgl/src/widgets/lv_dropdown.c ****     return dropdown->text;
 332:lvgl/lvgl/src/widgets/lv_dropdown.c **** }
 333:lvgl/lvgl/src/widgets/lv_dropdown.c **** 
 334:lvgl/lvgl/src/widgets/lv_dropdown.c **** const char * lv_dropdown_get_options(const lv_obj_t * obj)
 335:lvgl/lvgl/src/widgets/lv_dropdown.c **** {
 336:lvgl/lvgl/src/widgets/lv_dropdown.c ****     LV_ASSERT_OBJ(obj, MY_CLASS);
 337:lvgl/lvgl/src/widgets/lv_dropdown.c **** 
 338:lvgl/lvgl/src/widgets/lv_dropdown.c ****     lv_dropdown_t * dropdown = (lv_dropdown_t *)obj;
 339:lvgl/lvgl/src/widgets/lv_dropdown.c ****     return dropdown->options == NULL ? "" : dropdown->options;
 340:lvgl/lvgl/src/widgets/lv_dropdown.c **** }
 341:lvgl/lvgl/src/widgets/lv_dropdown.c **** 
 342:lvgl/lvgl/src/widgets/lv_dropdown.c **** uint16_t lv_dropdown_get_selected(const lv_obj_t * obj)
 343:lvgl/lvgl/src/widgets/lv_dropdown.c **** {
 344:lvgl/lvgl/src/widgets/lv_dropdown.c ****     LV_ASSERT_OBJ(obj, MY_CLASS);
 345:lvgl/lvgl/src/widgets/lv_dropdown.c **** 
 346:lvgl/lvgl/src/widgets/lv_dropdown.c ****     lv_dropdown_t * dropdown = (lv_dropdown_t *)obj;
 347:lvgl/lvgl/src/widgets/lv_dropdown.c **** 
 348:lvgl/lvgl/src/widgets/lv_dropdown.c ****     return dropdown->sel_opt_id;
 349:lvgl/lvgl/src/widgets/lv_dropdown.c **** }
 350:lvgl/lvgl/src/widgets/lv_dropdown.c **** 
 351:lvgl/lvgl/src/widgets/lv_dropdown.c **** uint16_t lv_dropdown_get_option_cnt(const lv_obj_t * obj)
 352:lvgl/lvgl/src/widgets/lv_dropdown.c **** {
 353:lvgl/lvgl/src/widgets/lv_dropdown.c ****     LV_ASSERT_OBJ(obj, MY_CLASS);
 354:lvgl/lvgl/src/widgets/lv_dropdown.c **** 
 355:lvgl/lvgl/src/widgets/lv_dropdown.c ****     lv_dropdown_t * dropdown = (lv_dropdown_t *)obj;
 356:lvgl/lvgl/src/widgets/lv_dropdown.c **** 
 357:lvgl/lvgl/src/widgets/lv_dropdown.c ****     return dropdown->option_cnt;
 358:lvgl/lvgl/src/widgets/lv_dropdown.c **** }
 359:lvgl/lvgl/src/widgets/lv_dropdown.c **** 
 360:lvgl/lvgl/src/widgets/lv_dropdown.c **** void lv_dropdown_get_selected_str(const lv_obj_t * obj, char * buf, uint32_t buf_size)
 361:lvgl/lvgl/src/widgets/lv_dropdown.c **** {
 362:lvgl/lvgl/src/widgets/lv_dropdown.c ****     LV_ASSERT_OBJ(obj, MY_CLASS);
 363:lvgl/lvgl/src/widgets/lv_dropdown.c **** 
 364:lvgl/lvgl/src/widgets/lv_dropdown.c ****     lv_dropdown_t * dropdown = (lv_dropdown_t *)obj;
 365:lvgl/lvgl/src/widgets/lv_dropdown.c **** 
 366:lvgl/lvgl/src/widgets/lv_dropdown.c ****     uint32_t i;
 367:lvgl/lvgl/src/widgets/lv_dropdown.c ****     uint32_t line        = 0;
 368:lvgl/lvgl/src/widgets/lv_dropdown.c ****     size_t txt_len     = strlen(dropdown->options);
 369:lvgl/lvgl/src/widgets/lv_dropdown.c **** 
 370:lvgl/lvgl/src/widgets/lv_dropdown.c ****     for(i = 0; i < txt_len && line != dropdown->sel_opt_id_orig; i++) {
 371:lvgl/lvgl/src/widgets/lv_dropdown.c ****         if(dropdown->options[i] == '\n') line++;
 372:lvgl/lvgl/src/widgets/lv_dropdown.c ****     }
ARM GAS  C:\Users\gx\AppData\Local\Temp\ccIqfrB9.s 			page 8


 373:lvgl/lvgl/src/widgets/lv_dropdown.c **** 
 374:lvgl/lvgl/src/widgets/lv_dropdown.c ****     uint32_t c;
 375:lvgl/lvgl/src/widgets/lv_dropdown.c ****     for(c = 0; i < txt_len && dropdown->options[i] != '\n'; c++, i++) {
 376:lvgl/lvgl/src/widgets/lv_dropdown.c ****         if(buf_size && c >= buf_size - 1) {
 377:lvgl/lvgl/src/widgets/lv_dropdown.c ****             LV_LOG_WARN("lv_dropdown_get_selected_str: the buffer was too small")
 378:lvgl/lvgl/src/widgets/lv_dropdown.c ****             break;
 379:lvgl/lvgl/src/widgets/lv_dropdown.c ****         }
 380:lvgl/lvgl/src/widgets/lv_dropdown.c ****         buf[c] = dropdown->options[i];
 381:lvgl/lvgl/src/widgets/lv_dropdown.c ****     }
 382:lvgl/lvgl/src/widgets/lv_dropdown.c **** 
 383:lvgl/lvgl/src/widgets/lv_dropdown.c ****     buf[c] = '\0';
 384:lvgl/lvgl/src/widgets/lv_dropdown.c **** }
 385:lvgl/lvgl/src/widgets/lv_dropdown.c **** 
 386:lvgl/lvgl/src/widgets/lv_dropdown.c **** const char * lv_dropdown_get_symbol(lv_obj_t * obj)
 387:lvgl/lvgl/src/widgets/lv_dropdown.c **** {
 388:lvgl/lvgl/src/widgets/lv_dropdown.c ****     LV_ASSERT_OBJ(obj, MY_CLASS);
 389:lvgl/lvgl/src/widgets/lv_dropdown.c ****     lv_dropdown_t * dropdown = (lv_dropdown_t *)obj;
 390:lvgl/lvgl/src/widgets/lv_dropdown.c ****     return dropdown->symbol;
 391:lvgl/lvgl/src/widgets/lv_dropdown.c **** }
 392:lvgl/lvgl/src/widgets/lv_dropdown.c **** 
 393:lvgl/lvgl/src/widgets/lv_dropdown.c **** bool lv_dropdown_get_selected_highlight(lv_obj_t * obj)
 394:lvgl/lvgl/src/widgets/lv_dropdown.c **** {
 395:lvgl/lvgl/src/widgets/lv_dropdown.c ****     LV_ASSERT_OBJ(obj, MY_CLASS);
 396:lvgl/lvgl/src/widgets/lv_dropdown.c ****     lv_dropdown_t * dropdown = (lv_dropdown_t *)obj;
 397:lvgl/lvgl/src/widgets/lv_dropdown.c ****     return dropdown->selected_highlight;
 398:lvgl/lvgl/src/widgets/lv_dropdown.c **** }
 399:lvgl/lvgl/src/widgets/lv_dropdown.c **** 
 400:lvgl/lvgl/src/widgets/lv_dropdown.c **** lv_dir_t lv_dropdown_get_dir(const lv_obj_t * obj)
 401:lvgl/lvgl/src/widgets/lv_dropdown.c **** {
 402:lvgl/lvgl/src/widgets/lv_dropdown.c ****     LV_ASSERT_OBJ(obj, MY_CLASS);
 403:lvgl/lvgl/src/widgets/lv_dropdown.c ****     lv_dropdown_t * dropdown = (lv_dropdown_t *)obj;
 404:lvgl/lvgl/src/widgets/lv_dropdown.c ****     return dropdown->dir;
 405:lvgl/lvgl/src/widgets/lv_dropdown.c **** }
 406:lvgl/lvgl/src/widgets/lv_dropdown.c **** 
 407:lvgl/lvgl/src/widgets/lv_dropdown.c **** /*=====================
 408:lvgl/lvgl/src/widgets/lv_dropdown.c ****  * Other functions
 409:lvgl/lvgl/src/widgets/lv_dropdown.c ****  *====================*/
 410:lvgl/lvgl/src/widgets/lv_dropdown.c **** 
 411:lvgl/lvgl/src/widgets/lv_dropdown.c **** void lv_dropdown_open(lv_obj_t * dropdown_obj)
 412:lvgl/lvgl/src/widgets/lv_dropdown.c **** {
 413:lvgl/lvgl/src/widgets/lv_dropdown.c ****     lv_dropdown_t * dropdown = (lv_dropdown_t *)dropdown_obj;
 414:lvgl/lvgl/src/widgets/lv_dropdown.c **** 
 415:lvgl/lvgl/src/widgets/lv_dropdown.c ****     lv_obj_add_state(dropdown_obj, LV_STATE_CHECKED);
 416:lvgl/lvgl/src/widgets/lv_dropdown.c **** 
 417:lvgl/lvgl/src/widgets/lv_dropdown.c ****     if(dropdown->list == NULL) {
 418:lvgl/lvgl/src/widgets/lv_dropdown.c ****         lv_obj_t * list_obj = lv_dropdown_list_create(lv_obj_get_screen(dropdown_obj));
 419:lvgl/lvgl/src/widgets/lv_dropdown.c ****         ((lv_dropdown_list_t*) list_obj)->dropdown = dropdown_obj;
 420:lvgl/lvgl/src/widgets/lv_dropdown.c ****         dropdown->list = list_obj;
 421:lvgl/lvgl/src/widgets/lv_dropdown.c ****         lv_obj_clear_flag(dropdown->list, LV_OBJ_FLAG_CLICK_FOCUSABLE);
 422:lvgl/lvgl/src/widgets/lv_dropdown.c ****         lv_obj_add_flag(dropdown->list, LV_OBJ_FLAG_IGNORE_LAYOUT);
 423:lvgl/lvgl/src/widgets/lv_dropdown.c ****         lv_obj_update_layout(dropdown->list);
 424:lvgl/lvgl/src/widgets/lv_dropdown.c ****     }
 425:lvgl/lvgl/src/widgets/lv_dropdown.c **** 
 426:lvgl/lvgl/src/widgets/lv_dropdown.c ****     /*To allow styling the list*/
 427:lvgl/lvgl/src/widgets/lv_dropdown.c ****     lv_event_send(dropdown_obj, LV_EVENT_READY, NULL);
 428:lvgl/lvgl/src/widgets/lv_dropdown.c **** 
 429:lvgl/lvgl/src/widgets/lv_dropdown.c ****     lv_obj_t * label = get_label(dropdown_obj);
ARM GAS  C:\Users\gx\AppData\Local\Temp\ccIqfrB9.s 			page 9


 430:lvgl/lvgl/src/widgets/lv_dropdown.c ****     lv_label_set_text_static(label, dropdown->options);
 431:lvgl/lvgl/src/widgets/lv_dropdown.c ****     lv_obj_set_width(dropdown->list, LV_SIZE_CONTENT);
 432:lvgl/lvgl/src/widgets/lv_dropdown.c **** 
 433:lvgl/lvgl/src/widgets/lv_dropdown.c ****     lv_obj_update_layout(label);
 434:lvgl/lvgl/src/widgets/lv_dropdown.c ****     /*Set smaller width to the width of the button*/
 435:lvgl/lvgl/src/widgets/lv_dropdown.c ****     if(lv_obj_get_width(dropdown->list) <= lv_obj_get_width(dropdown_obj) &&
 436:lvgl/lvgl/src/widgets/lv_dropdown.c ****        (dropdown->dir == LV_DIR_TOP || dropdown->dir == LV_DIR_BOTTOM)) {
 437:lvgl/lvgl/src/widgets/lv_dropdown.c ****         lv_obj_set_width(dropdown->list, lv_obj_get_width(dropdown_obj));
 438:lvgl/lvgl/src/widgets/lv_dropdown.c ****     }
 439:lvgl/lvgl/src/widgets/lv_dropdown.c **** 
 440:lvgl/lvgl/src/widgets/lv_dropdown.c ****     lv_coord_t label_h = lv_obj_get_height(label);
 441:lvgl/lvgl/src/widgets/lv_dropdown.c ****     lv_coord_t border_width = lv_obj_get_style_border_width(dropdown->list, LV_PART_MAIN);
 442:lvgl/lvgl/src/widgets/lv_dropdown.c ****     lv_coord_t top = lv_obj_get_style_pad_top(dropdown->list, LV_PART_MAIN) + border_width;
 443:lvgl/lvgl/src/widgets/lv_dropdown.c ****     lv_coord_t bottom = lv_obj_get_style_pad_bottom(dropdown->list, LV_PART_MAIN) + border_width;
 444:lvgl/lvgl/src/widgets/lv_dropdown.c **** 
 445:lvgl/lvgl/src/widgets/lv_dropdown.c ****     lv_coord_t list_fit_h = label_h + top + bottom;
 446:lvgl/lvgl/src/widgets/lv_dropdown.c ****     lv_coord_t list_h = list_fit_h;
 447:lvgl/lvgl/src/widgets/lv_dropdown.c **** 
 448:lvgl/lvgl/src/widgets/lv_dropdown.c ****     lv_dir_t dir = dropdown->dir;
 449:lvgl/lvgl/src/widgets/lv_dropdown.c ****     /*No space on the bottom? See if top is better.*/
 450:lvgl/lvgl/src/widgets/lv_dropdown.c ****     if(dropdown->dir == LV_DIR_BOTTOM) {
 451:lvgl/lvgl/src/widgets/lv_dropdown.c ****         if(dropdown_obj->coords.y2 + list_h > LV_VER_RES) {
 452:lvgl/lvgl/src/widgets/lv_dropdown.c ****             if(dropdown_obj->coords.y1 > LV_VER_RES - dropdown_obj->coords.y2) {
 453:lvgl/lvgl/src/widgets/lv_dropdown.c ****                 /*There is more space on the top, so make it drop up*/
 454:lvgl/lvgl/src/widgets/lv_dropdown.c ****                 dir = LV_DIR_TOP;
 455:lvgl/lvgl/src/widgets/lv_dropdown.c ****                 list_h = dropdown_obj->coords.y1 - 1;
 456:lvgl/lvgl/src/widgets/lv_dropdown.c ****             }
 457:lvgl/lvgl/src/widgets/lv_dropdown.c ****             else {
 458:lvgl/lvgl/src/widgets/lv_dropdown.c ****                 list_h = LV_VER_RES - dropdown_obj->coords.y2 - 1 ;
 459:lvgl/lvgl/src/widgets/lv_dropdown.c ****             }
 460:lvgl/lvgl/src/widgets/lv_dropdown.c ****         }
 461:lvgl/lvgl/src/widgets/lv_dropdown.c ****     }
 462:lvgl/lvgl/src/widgets/lv_dropdown.c ****     /*No space on the top? See if bottom is better.*/
 463:lvgl/lvgl/src/widgets/lv_dropdown.c ****     else if(dropdown->dir == LV_DIR_TOP) {
 464:lvgl/lvgl/src/widgets/lv_dropdown.c ****         if(dropdown_obj->coords.y1 - list_h < 0) {
 465:lvgl/lvgl/src/widgets/lv_dropdown.c ****             if(dropdown_obj->coords.y1 < LV_VER_RES - dropdown_obj->coords.y2) {
 466:lvgl/lvgl/src/widgets/lv_dropdown.c ****                 /*There is more space on the top, so make it drop up*/
 467:lvgl/lvgl/src/widgets/lv_dropdown.c ****                 dir = LV_DIR_BOTTOM;
 468:lvgl/lvgl/src/widgets/lv_dropdown.c ****                 list_h = LV_VER_RES - dropdown_obj->coords.y2;
 469:lvgl/lvgl/src/widgets/lv_dropdown.c ****             }
 470:lvgl/lvgl/src/widgets/lv_dropdown.c ****             else {
 471:lvgl/lvgl/src/widgets/lv_dropdown.c ****                 list_h = dropdown_obj->coords.y1;
 472:lvgl/lvgl/src/widgets/lv_dropdown.c ****             }
 473:lvgl/lvgl/src/widgets/lv_dropdown.c ****         }
 474:lvgl/lvgl/src/widgets/lv_dropdown.c ****     }
 475:lvgl/lvgl/src/widgets/lv_dropdown.c **** 
 476:lvgl/lvgl/src/widgets/lv_dropdown.c ****     if(list_h > list_fit_h) list_h = list_fit_h;
 477:lvgl/lvgl/src/widgets/lv_dropdown.c ****     lv_obj_set_height(dropdown->list, list_h);
 478:lvgl/lvgl/src/widgets/lv_dropdown.c **** 
 479:lvgl/lvgl/src/widgets/lv_dropdown.c ****     position_to_selected(dropdown_obj);
 480:lvgl/lvgl/src/widgets/lv_dropdown.c **** 
 481:lvgl/lvgl/src/widgets/lv_dropdown.c ****     if(dir == LV_DIR_BOTTOM)     lv_obj_align_to(dropdown->list, dropdown_obj, LV_ALIGN_OUT_BOTTOM_
 482:lvgl/lvgl/src/widgets/lv_dropdown.c ****     else if(dir == LV_DIR_TOP)   lv_obj_align_to(dropdown->list, dropdown_obj, LV_ALIGN_OUT_TOP_LEF
 483:lvgl/lvgl/src/widgets/lv_dropdown.c ****     else if(dir == LV_DIR_LEFT)  lv_obj_align_to(dropdown->list, dropdown_obj, LV_ALIGN_OUT_LEFT_TO
 484:lvgl/lvgl/src/widgets/lv_dropdown.c ****     else if(dir == LV_DIR_RIGHT) lv_obj_align_to(dropdown->list, dropdown_obj, LV_ALIGN_OUT_RIGHT_T
 485:lvgl/lvgl/src/widgets/lv_dropdown.c **** 
 486:lvgl/lvgl/src/widgets/lv_dropdown.c ****     lv_obj_update_layout(dropdown->list);
ARM GAS  C:\Users\gx\AppData\Local\Temp\ccIqfrB9.s 			page 10


 487:lvgl/lvgl/src/widgets/lv_dropdown.c **** 
 488:lvgl/lvgl/src/widgets/lv_dropdown.c ****     if(dropdown->dir == LV_DIR_LEFT || dropdown->dir == LV_DIR_RIGHT) {
 489:lvgl/lvgl/src/widgets/lv_dropdown.c ****         lv_coord_t y1 = lv_obj_get_y(dropdown->list);
 490:lvgl/lvgl/src/widgets/lv_dropdown.c ****         lv_coord_t y2 = lv_obj_get_y2(dropdown->list);
 491:lvgl/lvgl/src/widgets/lv_dropdown.c ****         if(y2 >= LV_VER_RES) {
 492:lvgl/lvgl/src/widgets/lv_dropdown.c ****             lv_obj_set_y(dropdown->list, y1 - (y2 - LV_VER_RES) - 1);
 493:lvgl/lvgl/src/widgets/lv_dropdown.c ****         }
 494:lvgl/lvgl/src/widgets/lv_dropdown.c ****     }
 495:lvgl/lvgl/src/widgets/lv_dropdown.c **** 
 496:lvgl/lvgl/src/widgets/lv_dropdown.c ****     lv_text_align_t align = lv_obj_calculate_style_text_align(label, LV_PART_MAIN, dropdown->option
 497:lvgl/lvgl/src/widgets/lv_dropdown.c **** 
 498:lvgl/lvgl/src/widgets/lv_dropdown.c ****     switch(align) {
 499:lvgl/lvgl/src/widgets/lv_dropdown.c ****     default:
 500:lvgl/lvgl/src/widgets/lv_dropdown.c ****     case LV_TEXT_ALIGN_LEFT:
 501:lvgl/lvgl/src/widgets/lv_dropdown.c ****         lv_obj_align(label, LV_ALIGN_TOP_LEFT, 0, 0);
 502:lvgl/lvgl/src/widgets/lv_dropdown.c ****         break;
 503:lvgl/lvgl/src/widgets/lv_dropdown.c ****     case LV_TEXT_ALIGN_RIGHT:
 504:lvgl/lvgl/src/widgets/lv_dropdown.c ****         lv_obj_align(label, LV_ALIGN_TOP_RIGHT, 0, 0);
 505:lvgl/lvgl/src/widgets/lv_dropdown.c ****         break;
 506:lvgl/lvgl/src/widgets/lv_dropdown.c ****     case LV_TEXT_ALIGN_CENTER:
 507:lvgl/lvgl/src/widgets/lv_dropdown.c ****         lv_obj_align(label, LV_ALIGN_CENTER, 0, 0);
 508:lvgl/lvgl/src/widgets/lv_dropdown.c ****         break;
 509:lvgl/lvgl/src/widgets/lv_dropdown.c **** 
 510:lvgl/lvgl/src/widgets/lv_dropdown.c ****     }
 511:lvgl/lvgl/src/widgets/lv_dropdown.c **** }
 512:lvgl/lvgl/src/widgets/lv_dropdown.c **** 
 513:lvgl/lvgl/src/widgets/lv_dropdown.c **** void lv_dropdown_close(lv_obj_t * obj)
 514:lvgl/lvgl/src/widgets/lv_dropdown.c **** {
 515:lvgl/lvgl/src/widgets/lv_dropdown.c ****     lv_obj_clear_state(obj, LV_STATE_CHECKED);
 516:lvgl/lvgl/src/widgets/lv_dropdown.c ****     lv_dropdown_t * dropdown = (lv_dropdown_t *)obj;
 517:lvgl/lvgl/src/widgets/lv_dropdown.c **** 
 518:lvgl/lvgl/src/widgets/lv_dropdown.c ****     dropdown->pr_opt_id = LV_DROPDOWN_PR_NONE;
 519:lvgl/lvgl/src/widgets/lv_dropdown.c ****     if(dropdown->list) lv_obj_del(dropdown->list);
 520:lvgl/lvgl/src/widgets/lv_dropdown.c **** 
 521:lvgl/lvgl/src/widgets/lv_dropdown.c ****     lv_event_send(obj, LV_EVENT_CANCEL, NULL);
 522:lvgl/lvgl/src/widgets/lv_dropdown.c **** }
 523:lvgl/lvgl/src/widgets/lv_dropdown.c **** 
 524:lvgl/lvgl/src/widgets/lv_dropdown.c **** /**********************
 525:lvgl/lvgl/src/widgets/lv_dropdown.c ****  *   STATIC FUNCTIONS
 526:lvgl/lvgl/src/widgets/lv_dropdown.c ****  **********************/
 527:lvgl/lvgl/src/widgets/lv_dropdown.c **** 
 528:lvgl/lvgl/src/widgets/lv_dropdown.c **** static lv_obj_t * lv_dropdown_list_create(lv_obj_t * parent)
 529:lvgl/lvgl/src/widgets/lv_dropdown.c **** {
 530:lvgl/lvgl/src/widgets/lv_dropdown.c ****     LV_LOG_INFO("begin")
 531:lvgl/lvgl/src/widgets/lv_dropdown.c ****     lv_obj_t * obj = lv_obj_class_create_obj(&lv_dropdownlist_class, parent);
 532:lvgl/lvgl/src/widgets/lv_dropdown.c ****     lv_obj_class_init_obj(obj);
 533:lvgl/lvgl/src/widgets/lv_dropdown.c ****     return obj;
 534:lvgl/lvgl/src/widgets/lv_dropdown.c **** }
 535:lvgl/lvgl/src/widgets/lv_dropdown.c **** 
 536:lvgl/lvgl/src/widgets/lv_dropdown.c **** static void lv_dropdown_constructor(const lv_obj_class_t * class_p, lv_obj_t * obj)
 537:lvgl/lvgl/src/widgets/lv_dropdown.c **** {
 538:lvgl/lvgl/src/widgets/lv_dropdown.c ****     LV_UNUSED(class_p);
 539:lvgl/lvgl/src/widgets/lv_dropdown.c ****     LV_TRACE_OBJ_CREATE("begin");
 540:lvgl/lvgl/src/widgets/lv_dropdown.c **** 
 541:lvgl/lvgl/src/widgets/lv_dropdown.c ****     lv_dropdown_t * dropdown = (lv_dropdown_t *)obj;
 542:lvgl/lvgl/src/widgets/lv_dropdown.c **** 
 543:lvgl/lvgl/src/widgets/lv_dropdown.c ****     /*Initialize the allocated 'ext'*/
ARM GAS  C:\Users\gx\AppData\Local\Temp\ccIqfrB9.s 			page 11


 544:lvgl/lvgl/src/widgets/lv_dropdown.c ****     dropdown->list          = NULL;
 545:lvgl/lvgl/src/widgets/lv_dropdown.c ****     dropdown->options     = NULL;
 546:lvgl/lvgl/src/widgets/lv_dropdown.c ****     dropdown->symbol         = LV_SYMBOL_DOWN;
 547:lvgl/lvgl/src/widgets/lv_dropdown.c ****     dropdown->text         = NULL;
 548:lvgl/lvgl/src/widgets/lv_dropdown.c ****     dropdown->static_txt = 1;
 549:lvgl/lvgl/src/widgets/lv_dropdown.c ****     dropdown->selected_highlight = 1;
 550:lvgl/lvgl/src/widgets/lv_dropdown.c ****     dropdown->sel_opt_id      = 0;
 551:lvgl/lvgl/src/widgets/lv_dropdown.c ****     dropdown->sel_opt_id_orig = 0;
 552:lvgl/lvgl/src/widgets/lv_dropdown.c ****     dropdown->pr_opt_id = LV_DROPDOWN_PR_NONE;
 553:lvgl/lvgl/src/widgets/lv_dropdown.c ****     dropdown->option_cnt      = 0;
 554:lvgl/lvgl/src/widgets/lv_dropdown.c ****     dropdown->dir = LV_DIR_BOTTOM;
 555:lvgl/lvgl/src/widgets/lv_dropdown.c **** 
 556:lvgl/lvgl/src/widgets/lv_dropdown.c ****     lv_obj_add_flag(obj, LV_OBJ_FLAG_SCROLL_ON_FOCUS);
 557:lvgl/lvgl/src/widgets/lv_dropdown.c ****     lv_dropdown_set_options_static(obj, "Option 1\nOption 2\nOption 3");
 558:lvgl/lvgl/src/widgets/lv_dropdown.c **** 
 559:lvgl/lvgl/src/widgets/lv_dropdown.c ****     LV_TRACE_OBJ_CREATE("finished");
 560:lvgl/lvgl/src/widgets/lv_dropdown.c **** }
 561:lvgl/lvgl/src/widgets/lv_dropdown.c **** 
 562:lvgl/lvgl/src/widgets/lv_dropdown.c **** static void lv_dropdown_destructor(const lv_obj_class_t * class_p, lv_obj_t * obj)
 563:lvgl/lvgl/src/widgets/lv_dropdown.c **** {
 564:lvgl/lvgl/src/widgets/lv_dropdown.c ****     LV_UNUSED(class_p);
 565:lvgl/lvgl/src/widgets/lv_dropdown.c ****     lv_dropdown_t * dropdown = (lv_dropdown_t *)obj;
 566:lvgl/lvgl/src/widgets/lv_dropdown.c **** 
 567:lvgl/lvgl/src/widgets/lv_dropdown.c ****     if(dropdown->list) {
 568:lvgl/lvgl/src/widgets/lv_dropdown.c ****         lv_obj_del(dropdown->list);
 569:lvgl/lvgl/src/widgets/lv_dropdown.c ****         dropdown->list = NULL;
 570:lvgl/lvgl/src/widgets/lv_dropdown.c ****     }
 571:lvgl/lvgl/src/widgets/lv_dropdown.c **** 
 572:lvgl/lvgl/src/widgets/lv_dropdown.c ****     if(!dropdown->static_txt) {
 573:lvgl/lvgl/src/widgets/lv_dropdown.c ****         lv_mem_free(dropdown->options);
 574:lvgl/lvgl/src/widgets/lv_dropdown.c ****         dropdown->options = NULL;
 575:lvgl/lvgl/src/widgets/lv_dropdown.c ****     }
 576:lvgl/lvgl/src/widgets/lv_dropdown.c **** }
 577:lvgl/lvgl/src/widgets/lv_dropdown.c **** 
 578:lvgl/lvgl/src/widgets/lv_dropdown.c **** static void lv_dropdownlist_constructor(const lv_obj_class_t * class_p, lv_obj_t * obj)
 579:lvgl/lvgl/src/widgets/lv_dropdown.c **** {
 580:lvgl/lvgl/src/widgets/lv_dropdown.c ****     LV_UNUSED(class_p);
 581:lvgl/lvgl/src/widgets/lv_dropdown.c ****     LV_TRACE_OBJ_CREATE("begin");
 582:lvgl/lvgl/src/widgets/lv_dropdown.c **** 
 583:lvgl/lvgl/src/widgets/lv_dropdown.c ****     lv_obj_clear_flag(obj, LV_OBJ_FLAG_SCROLL_ON_FOCUS);
 584:lvgl/lvgl/src/widgets/lv_dropdown.c ****     lv_label_create(obj);
 585:lvgl/lvgl/src/widgets/lv_dropdown.c **** 
 586:lvgl/lvgl/src/widgets/lv_dropdown.c ****     LV_TRACE_OBJ_CREATE("finished");
 587:lvgl/lvgl/src/widgets/lv_dropdown.c **** }
 588:lvgl/lvgl/src/widgets/lv_dropdown.c **** 
 589:lvgl/lvgl/src/widgets/lv_dropdown.c **** static void lv_dropdownlist_destructor(const lv_obj_class_t * class_p, lv_obj_t * list_obj)
 590:lvgl/lvgl/src/widgets/lv_dropdown.c **** {
  29              		.loc 1 590 1 view -0
  30              		.cfi_startproc
  31              		@ args = 0, pretend = 0, frame = 0
  32              		@ frame_needed = 0, uses_anonymous_args = 0
  33              		@ link register save eliminated.
 591:lvgl/lvgl/src/widgets/lv_dropdown.c ****     LV_UNUSED(class_p);
  34              		.loc 1 591 5 view .LVU1
 592:lvgl/lvgl/src/widgets/lv_dropdown.c ****     lv_dropdown_list_t * list = (lv_dropdown_list_t *)list_obj;
  35              		.loc 1 592 5 view .LVU2
 593:lvgl/lvgl/src/widgets/lv_dropdown.c ****     lv_obj_t * dropdown_obj = list->dropdown;
ARM GAS  C:\Users\gx\AppData\Local\Temp\ccIqfrB9.s 			page 12


  36              		.loc 1 593 5 view .LVU3
  37              		.loc 1 593 16 is_stmt 0 view .LVU4
  38 0000 4B6A     		ldr	r3, [r1, #36]
  39              	.LVL1:
 594:lvgl/lvgl/src/widgets/lv_dropdown.c ****     lv_dropdown_t * dropdown = (lv_dropdown_t *)dropdown_obj;
  40              		.loc 1 594 5 is_stmt 1 view .LVU5
 595:lvgl/lvgl/src/widgets/lv_dropdown.c ****     dropdown->list = NULL;
  41              		.loc 1 595 5 view .LVU6
  42              		.loc 1 595 20 is_stmt 0 view .LVU7
  43 0002 0022     		movs	r2, #0
  44 0004 5A62     		str	r2, [r3, #36]
 596:lvgl/lvgl/src/widgets/lv_dropdown.c **** }
  45              		.loc 1 596 1 view .LVU8
  46 0006 7047     		bx	lr
  47              		.cfi_endproc
  48              	.LFE183:
  50              		.section	.text.get_label,"ax",%progbits
  51              		.align	1
  52              		.syntax unified
  53              		.thumb
  54              		.thumb_func
  55              		.fpu fpv4-sp-d16
  57              	get_label:
  58              	.LVL2:
  59              	.LFB195:
 597:lvgl/lvgl/src/widgets/lv_dropdown.c **** 
 598:lvgl/lvgl/src/widgets/lv_dropdown.c **** static void lv_dropdown_event(const lv_obj_class_t * class_p, lv_event_t * e)
 599:lvgl/lvgl/src/widgets/lv_dropdown.c **** {
 600:lvgl/lvgl/src/widgets/lv_dropdown.c ****     LV_UNUSED(class_p);
 601:lvgl/lvgl/src/widgets/lv_dropdown.c **** 
 602:lvgl/lvgl/src/widgets/lv_dropdown.c ****     lv_res_t res;
 603:lvgl/lvgl/src/widgets/lv_dropdown.c **** 
 604:lvgl/lvgl/src/widgets/lv_dropdown.c ****     /*Call the ancestor's event handler*/
 605:lvgl/lvgl/src/widgets/lv_dropdown.c ****     res = lv_obj_event_base(MY_CLASS, e);
 606:lvgl/lvgl/src/widgets/lv_dropdown.c ****     if(res != LV_RES_OK) return;
 607:lvgl/lvgl/src/widgets/lv_dropdown.c **** 
 608:lvgl/lvgl/src/widgets/lv_dropdown.c ****     lv_event_code_t code = lv_event_get_code(e);
 609:lvgl/lvgl/src/widgets/lv_dropdown.c ****     lv_obj_t * obj = lv_event_get_target(e);
 610:lvgl/lvgl/src/widgets/lv_dropdown.c ****     lv_dropdown_t * dropdown = (lv_dropdown_t *)obj;
 611:lvgl/lvgl/src/widgets/lv_dropdown.c **** 
 612:lvgl/lvgl/src/widgets/lv_dropdown.c ****     if(code == LV_EVENT_FOCUSED) {
 613:lvgl/lvgl/src/widgets/lv_dropdown.c ****         lv_group_t * g             = lv_obj_get_group(obj);
 614:lvgl/lvgl/src/widgets/lv_dropdown.c ****         bool editing               = lv_group_get_editing(g);
 615:lvgl/lvgl/src/widgets/lv_dropdown.c ****         lv_indev_type_t indev_type = lv_indev_get_type(lv_indev_get_act());
 616:lvgl/lvgl/src/widgets/lv_dropdown.c **** 
 617:lvgl/lvgl/src/widgets/lv_dropdown.c ****         /*Encoders need special handling*/
 618:lvgl/lvgl/src/widgets/lv_dropdown.c ****         if(indev_type == LV_INDEV_TYPE_ENCODER) {
 619:lvgl/lvgl/src/widgets/lv_dropdown.c ****             /*Open the list if editing*/
 620:lvgl/lvgl/src/widgets/lv_dropdown.c ****             if(editing) {
 621:lvgl/lvgl/src/widgets/lv_dropdown.c ****                 lv_dropdown_open(obj);
 622:lvgl/lvgl/src/widgets/lv_dropdown.c ****             }
 623:lvgl/lvgl/src/widgets/lv_dropdown.c ****             /*Close the list if navigating*/
 624:lvgl/lvgl/src/widgets/lv_dropdown.c ****             else {
 625:lvgl/lvgl/src/widgets/lv_dropdown.c ****                 dropdown->sel_opt_id = dropdown->sel_opt_id_orig;
 626:lvgl/lvgl/src/widgets/lv_dropdown.c ****                 lv_dropdown_close(obj);
 627:lvgl/lvgl/src/widgets/lv_dropdown.c ****             }
 628:lvgl/lvgl/src/widgets/lv_dropdown.c ****         }
ARM GAS  C:\Users\gx\AppData\Local\Temp\ccIqfrB9.s 			page 13


 629:lvgl/lvgl/src/widgets/lv_dropdown.c ****     }
 630:lvgl/lvgl/src/widgets/lv_dropdown.c ****     else if(code == LV_EVENT_DEFOCUSED || code == LV_EVENT_LEAVE) {
 631:lvgl/lvgl/src/widgets/lv_dropdown.c ****         lv_dropdown_close(obj);
 632:lvgl/lvgl/src/widgets/lv_dropdown.c ****     }
 633:lvgl/lvgl/src/widgets/lv_dropdown.c ****     else if(code == LV_EVENT_RELEASED) {
 634:lvgl/lvgl/src/widgets/lv_dropdown.c ****         res = btn_release_handler(obj);
 635:lvgl/lvgl/src/widgets/lv_dropdown.c ****         if(res != LV_RES_OK) return;
 636:lvgl/lvgl/src/widgets/lv_dropdown.c ****     }
 637:lvgl/lvgl/src/widgets/lv_dropdown.c ****     else if(code == LV_EVENT_STYLE_CHANGED) {
 638:lvgl/lvgl/src/widgets/lv_dropdown.c ****         lv_obj_refresh_self_size(obj);
 639:lvgl/lvgl/src/widgets/lv_dropdown.c ****     }
 640:lvgl/lvgl/src/widgets/lv_dropdown.c ****     else if(code == LV_EVENT_SIZE_CHANGED) {
 641:lvgl/lvgl/src/widgets/lv_dropdown.c ****         lv_obj_refresh_self_size(obj);
 642:lvgl/lvgl/src/widgets/lv_dropdown.c ****     }
 643:lvgl/lvgl/src/widgets/lv_dropdown.c ****     else if(code == LV_EVENT_GET_SELF_SIZE) {
 644:lvgl/lvgl/src/widgets/lv_dropdown.c ****         lv_point_t * p = lv_event_get_param(e);
 645:lvgl/lvgl/src/widgets/lv_dropdown.c ****         const lv_font_t * font = lv_obj_get_style_text_font(obj, LV_PART_MAIN);
 646:lvgl/lvgl/src/widgets/lv_dropdown.c ****         p->y = lv_font_get_line_height(font);
 647:lvgl/lvgl/src/widgets/lv_dropdown.c ****     }
 648:lvgl/lvgl/src/widgets/lv_dropdown.c ****     else if(code == LV_EVENT_KEY) {
 649:lvgl/lvgl/src/widgets/lv_dropdown.c ****         char c = *((char *)lv_event_get_param(e));
 650:lvgl/lvgl/src/widgets/lv_dropdown.c ****         if(c == LV_KEY_RIGHT || c == LV_KEY_DOWN) {
 651:lvgl/lvgl/src/widgets/lv_dropdown.c ****             if(dropdown->list == NULL) {
 652:lvgl/lvgl/src/widgets/lv_dropdown.c ****                 lv_dropdown_open(obj);
 653:lvgl/lvgl/src/widgets/lv_dropdown.c ****             }
 654:lvgl/lvgl/src/widgets/lv_dropdown.c ****             else if(dropdown->sel_opt_id + 1 < dropdown->option_cnt) {
 655:lvgl/lvgl/src/widgets/lv_dropdown.c ****                 dropdown->sel_opt_id++;
 656:lvgl/lvgl/src/widgets/lv_dropdown.c ****                 position_to_selected(obj);
 657:lvgl/lvgl/src/widgets/lv_dropdown.c ****             }
 658:lvgl/lvgl/src/widgets/lv_dropdown.c ****         }
 659:lvgl/lvgl/src/widgets/lv_dropdown.c ****         else if(c == LV_KEY_LEFT || c == LV_KEY_UP) {
 660:lvgl/lvgl/src/widgets/lv_dropdown.c **** 
 661:lvgl/lvgl/src/widgets/lv_dropdown.c ****             if(dropdown->list == NULL) {
 662:lvgl/lvgl/src/widgets/lv_dropdown.c ****                 lv_dropdown_open(obj);
 663:lvgl/lvgl/src/widgets/lv_dropdown.c ****             }
 664:lvgl/lvgl/src/widgets/lv_dropdown.c ****             else if(dropdown->sel_opt_id > 0) {
 665:lvgl/lvgl/src/widgets/lv_dropdown.c ****                 dropdown->sel_opt_id--;
 666:lvgl/lvgl/src/widgets/lv_dropdown.c ****                 position_to_selected(obj);
 667:lvgl/lvgl/src/widgets/lv_dropdown.c ****             }
 668:lvgl/lvgl/src/widgets/lv_dropdown.c ****         }
 669:lvgl/lvgl/src/widgets/lv_dropdown.c ****         else if(c == LV_KEY_ESC) {
 670:lvgl/lvgl/src/widgets/lv_dropdown.c ****             dropdown->sel_opt_id = dropdown->sel_opt_id_orig;
 671:lvgl/lvgl/src/widgets/lv_dropdown.c ****             lv_dropdown_close(obj);
 672:lvgl/lvgl/src/widgets/lv_dropdown.c ****         }
 673:lvgl/lvgl/src/widgets/lv_dropdown.c ****         else if(c == LV_KEY_ENTER) {
 674:lvgl/lvgl/src/widgets/lv_dropdown.c ****             lv_indev_t * indev = lv_indev_get_act();
 675:lvgl/lvgl/src/widgets/lv_dropdown.c ****             /*If there is no indev ENTER was sent manually so process it.
 676:lvgl/lvgl/src/widgets/lv_dropdown.c ****              *If sent by an indev then LV_EVENT_RELEASED is also sent and process it there */
 677:lvgl/lvgl/src/widgets/lv_dropdown.c ****             if(indev == NULL) {
 678:lvgl/lvgl/src/widgets/lv_dropdown.c ****                 res = btn_release_handler(obj);
 679:lvgl/lvgl/src/widgets/lv_dropdown.c ****                 if(res != LV_RES_OK) return;
 680:lvgl/lvgl/src/widgets/lv_dropdown.c ****             }
 681:lvgl/lvgl/src/widgets/lv_dropdown.c ****         }
 682:lvgl/lvgl/src/widgets/lv_dropdown.c ****     }
 683:lvgl/lvgl/src/widgets/lv_dropdown.c ****     else if(code == LV_EVENT_DRAW_MAIN) {
 684:lvgl/lvgl/src/widgets/lv_dropdown.c ****         draw_main(e);
 685:lvgl/lvgl/src/widgets/lv_dropdown.c ****     }
ARM GAS  C:\Users\gx\AppData\Local\Temp\ccIqfrB9.s 			page 14


 686:lvgl/lvgl/src/widgets/lv_dropdown.c **** }
 687:lvgl/lvgl/src/widgets/lv_dropdown.c **** 
 688:lvgl/lvgl/src/widgets/lv_dropdown.c **** static void lv_dropdown_list_event(const lv_obj_class_t * class_p, lv_event_t * e)
 689:lvgl/lvgl/src/widgets/lv_dropdown.c **** {
 690:lvgl/lvgl/src/widgets/lv_dropdown.c ****     LV_UNUSED(class_p);
 691:lvgl/lvgl/src/widgets/lv_dropdown.c **** 
 692:lvgl/lvgl/src/widgets/lv_dropdown.c ****     lv_res_t res;
 693:lvgl/lvgl/src/widgets/lv_dropdown.c **** 
 694:lvgl/lvgl/src/widgets/lv_dropdown.c ****     /*Call the ancestor's event handler*/
 695:lvgl/lvgl/src/widgets/lv_dropdown.c ****     lv_event_code_t code = lv_event_get_code(e);
 696:lvgl/lvgl/src/widgets/lv_dropdown.c ****     if(code != LV_EVENT_DRAW_POST) {
 697:lvgl/lvgl/src/widgets/lv_dropdown.c ****         res = lv_obj_event_base(MY_CLASS_LIST, e);
 698:lvgl/lvgl/src/widgets/lv_dropdown.c ****         if(res != LV_RES_OK) return;
 699:lvgl/lvgl/src/widgets/lv_dropdown.c ****     }
 700:lvgl/lvgl/src/widgets/lv_dropdown.c ****     lv_obj_t * list = lv_event_get_target(e);
 701:lvgl/lvgl/src/widgets/lv_dropdown.c ****     lv_obj_t * dropdown_obj = ((lv_dropdown_list_t *)list)->dropdown;
 702:lvgl/lvgl/src/widgets/lv_dropdown.c ****     lv_dropdown_t * dropdown = (lv_dropdown_t *)dropdown_obj;
 703:lvgl/lvgl/src/widgets/lv_dropdown.c **** 
 704:lvgl/lvgl/src/widgets/lv_dropdown.c ****     if(code == LV_EVENT_RELEASED) {
 705:lvgl/lvgl/src/widgets/lv_dropdown.c ****         if(lv_indev_get_scroll_obj(lv_indev_get_act()) == NULL) {
 706:lvgl/lvgl/src/widgets/lv_dropdown.c ****             list_release_handler(list);
 707:lvgl/lvgl/src/widgets/lv_dropdown.c ****         }
 708:lvgl/lvgl/src/widgets/lv_dropdown.c ****     }
 709:lvgl/lvgl/src/widgets/lv_dropdown.c ****     else if(code == LV_EVENT_PRESSED) {
 710:lvgl/lvgl/src/widgets/lv_dropdown.c ****         list_press_handler(list);
 711:lvgl/lvgl/src/widgets/lv_dropdown.c ****     }
 712:lvgl/lvgl/src/widgets/lv_dropdown.c ****     else if(code == LV_EVENT_SCROLL_BEGIN) {
 713:lvgl/lvgl/src/widgets/lv_dropdown.c ****         dropdown->pr_opt_id = LV_DROPDOWN_PR_NONE;
 714:lvgl/lvgl/src/widgets/lv_dropdown.c ****         lv_obj_invalidate(list);
 715:lvgl/lvgl/src/widgets/lv_dropdown.c ****     }
 716:lvgl/lvgl/src/widgets/lv_dropdown.c ****     else if(code == LV_EVENT_DRAW_POST) {
 717:lvgl/lvgl/src/widgets/lv_dropdown.c ****         draw_list(e);
 718:lvgl/lvgl/src/widgets/lv_dropdown.c ****         res = lv_obj_event_base(MY_CLASS_LIST, e);
 719:lvgl/lvgl/src/widgets/lv_dropdown.c ****         if(res != LV_RES_OK) return;
 720:lvgl/lvgl/src/widgets/lv_dropdown.c ****     }
 721:lvgl/lvgl/src/widgets/lv_dropdown.c **** }
 722:lvgl/lvgl/src/widgets/lv_dropdown.c **** 
 723:lvgl/lvgl/src/widgets/lv_dropdown.c **** 
 724:lvgl/lvgl/src/widgets/lv_dropdown.c **** static void draw_main(lv_event_t * e)
 725:lvgl/lvgl/src/widgets/lv_dropdown.c **** {
 726:lvgl/lvgl/src/widgets/lv_dropdown.c ****     lv_obj_t * obj = lv_event_get_target(e);
 727:lvgl/lvgl/src/widgets/lv_dropdown.c ****     lv_dropdown_t * dropdown = (lv_dropdown_t *)obj;
 728:lvgl/lvgl/src/widgets/lv_dropdown.c ****     const lv_area_t * clip_area = lv_event_get_param(e);
 729:lvgl/lvgl/src/widgets/lv_dropdown.c **** 
 730:lvgl/lvgl/src/widgets/lv_dropdown.c ****     lv_coord_t border_width = lv_obj_get_style_border_width(obj, LV_PART_MAIN);
 731:lvgl/lvgl/src/widgets/lv_dropdown.c ****     lv_coord_t left = lv_obj_get_style_pad_left(obj, LV_PART_MAIN) + border_width;
 732:lvgl/lvgl/src/widgets/lv_dropdown.c ****     lv_coord_t right = lv_obj_get_style_pad_right(obj, LV_PART_MAIN) + border_width;
 733:lvgl/lvgl/src/widgets/lv_dropdown.c ****     lv_coord_t top = lv_obj_get_style_pad_top(obj, LV_PART_MAIN) + border_width;
 734:lvgl/lvgl/src/widgets/lv_dropdown.c **** 
 735:lvgl/lvgl/src/widgets/lv_dropdown.c ****     lv_draw_label_dsc_t symbol_dsc;
 736:lvgl/lvgl/src/widgets/lv_dropdown.c ****     lv_draw_label_dsc_init(&symbol_dsc);
 737:lvgl/lvgl/src/widgets/lv_dropdown.c ****     lv_obj_init_draw_label_dsc(obj, LV_PART_INDICATOR, &symbol_dsc);
 738:lvgl/lvgl/src/widgets/lv_dropdown.c **** 
 739:lvgl/lvgl/src/widgets/lv_dropdown.c ****     /*If no text specified use the selected option*/
 740:lvgl/lvgl/src/widgets/lv_dropdown.c ****     const char * opt_txt;
 741:lvgl/lvgl/src/widgets/lv_dropdown.c ****     if(dropdown->text) opt_txt = dropdown->text;
 742:lvgl/lvgl/src/widgets/lv_dropdown.c ****     else {
ARM GAS  C:\Users\gx\AppData\Local\Temp\ccIqfrB9.s 			page 15


 743:lvgl/lvgl/src/widgets/lv_dropdown.c ****         char * buf = lv_mem_buf_get(128);
 744:lvgl/lvgl/src/widgets/lv_dropdown.c ****         lv_dropdown_get_selected_str(obj, buf, 128);
 745:lvgl/lvgl/src/widgets/lv_dropdown.c ****         opt_txt = buf;
 746:lvgl/lvgl/src/widgets/lv_dropdown.c ****     }
 747:lvgl/lvgl/src/widgets/lv_dropdown.c **** 
 748:lvgl/lvgl/src/widgets/lv_dropdown.c ****     bool symbol_to_left = false;
 749:lvgl/lvgl/src/widgets/lv_dropdown.c ****     if(dropdown->dir == LV_DIR_LEFT) symbol_to_left = true;
 750:lvgl/lvgl/src/widgets/lv_dropdown.c ****     if(lv_obj_get_style_base_dir(obj, LV_PART_MAIN) == LV_BASE_DIR_RTL) symbol_to_left = true;
 751:lvgl/lvgl/src/widgets/lv_dropdown.c **** 
 752:lvgl/lvgl/src/widgets/lv_dropdown.c ****     if(dropdown->symbol) {
 753:lvgl/lvgl/src/widgets/lv_dropdown.c ****         lv_img_src_t symbol_type = lv_img_src_get_type(dropdown->symbol);
 754:lvgl/lvgl/src/widgets/lv_dropdown.c ****         lv_coord_t symbol_w;
 755:lvgl/lvgl/src/widgets/lv_dropdown.c ****         lv_coord_t symbol_h;
 756:lvgl/lvgl/src/widgets/lv_dropdown.c ****         if(symbol_type == LV_IMG_SRC_SYMBOL) {
 757:lvgl/lvgl/src/widgets/lv_dropdown.c ****             lv_point_t size;
 758:lvgl/lvgl/src/widgets/lv_dropdown.c ****             lv_txt_get_size(&size, dropdown->symbol, symbol_dsc.font, symbol_dsc.letter_space, symb
 759:lvgl/lvgl/src/widgets/lv_dropdown.c ****             symbol_w = size.x;
 760:lvgl/lvgl/src/widgets/lv_dropdown.c ****             symbol_h = size.y;
 761:lvgl/lvgl/src/widgets/lv_dropdown.c ****         } else {
 762:lvgl/lvgl/src/widgets/lv_dropdown.c ****             lv_img_header_t header;
 763:lvgl/lvgl/src/widgets/lv_dropdown.c ****             lv_res_t res = lv_img_decoder_get_info(dropdown->symbol, &header);
 764:lvgl/lvgl/src/widgets/lv_dropdown.c ****             if(res == LV_RES_OK) {
 765:lvgl/lvgl/src/widgets/lv_dropdown.c ****                 symbol_w = header.w;
 766:lvgl/lvgl/src/widgets/lv_dropdown.c ****                 symbol_h = header.h;
 767:lvgl/lvgl/src/widgets/lv_dropdown.c ****             } else {
 768:lvgl/lvgl/src/widgets/lv_dropdown.c ****                 symbol_w = -1;
 769:lvgl/lvgl/src/widgets/lv_dropdown.c ****                 symbol_h = -1;
 770:lvgl/lvgl/src/widgets/lv_dropdown.c ****             }
 771:lvgl/lvgl/src/widgets/lv_dropdown.c ****         }
 772:lvgl/lvgl/src/widgets/lv_dropdown.c **** 
 773:lvgl/lvgl/src/widgets/lv_dropdown.c ****         lv_area_t symbol_area;
 774:lvgl/lvgl/src/widgets/lv_dropdown.c ****         if(symbol_to_left) {
 775:lvgl/lvgl/src/widgets/lv_dropdown.c ****             symbol_area.x1 = obj->coords.x1 + left;
 776:lvgl/lvgl/src/widgets/lv_dropdown.c ****             symbol_area.x2 = symbol_area.x1 + symbol_w - 1;
 777:lvgl/lvgl/src/widgets/lv_dropdown.c ****         } else {
 778:lvgl/lvgl/src/widgets/lv_dropdown.c ****             symbol_area.x1 = obj->coords.x2 - right - symbol_w;
 779:lvgl/lvgl/src/widgets/lv_dropdown.c ****             symbol_area.x2 = symbol_area.x1 + symbol_w - 1;
 780:lvgl/lvgl/src/widgets/lv_dropdown.c ****         }
 781:lvgl/lvgl/src/widgets/lv_dropdown.c **** 
 782:lvgl/lvgl/src/widgets/lv_dropdown.c ****         if(symbol_type == LV_IMG_SRC_SYMBOL) {
 783:lvgl/lvgl/src/widgets/lv_dropdown.c ****             symbol_area.y1 = obj->coords.y1 + top;
 784:lvgl/lvgl/src/widgets/lv_dropdown.c ****             symbol_area.y2 = symbol_area.y1 + symbol_h - 1;
 785:lvgl/lvgl/src/widgets/lv_dropdown.c ****             lv_draw_label(&symbol_area, clip_area, &symbol_dsc, dropdown->symbol, NULL);
 786:lvgl/lvgl/src/widgets/lv_dropdown.c ****         } else {
 787:lvgl/lvgl/src/widgets/lv_dropdown.c ****             symbol_area.y1 = obj->coords.y1 + (lv_obj_get_height(obj) - symbol_h) / 2;
 788:lvgl/lvgl/src/widgets/lv_dropdown.c ****             symbol_area.y2 = symbol_area.y1 + symbol_h - 1;
 789:lvgl/lvgl/src/widgets/lv_dropdown.c ****             lv_draw_img_dsc_t img_dsc;
 790:lvgl/lvgl/src/widgets/lv_dropdown.c ****             lv_draw_img_dsc_init(&img_dsc);
 791:lvgl/lvgl/src/widgets/lv_dropdown.c ****             lv_obj_init_draw_img_dsc(obj, LV_PART_INDICATOR, &img_dsc);
 792:lvgl/lvgl/src/widgets/lv_dropdown.c ****             img_dsc.pivot.x = symbol_w / 2;
 793:lvgl/lvgl/src/widgets/lv_dropdown.c ****             img_dsc.pivot.y = symbol_h / 2;
 794:lvgl/lvgl/src/widgets/lv_dropdown.c ****             img_dsc.angle = lv_obj_get_style_transform_angle(obj, LV_PART_INDICATOR);
 795:lvgl/lvgl/src/widgets/lv_dropdown.c ****             lv_draw_img(&symbol_area, clip_area, dropdown->symbol, &img_dsc);
 796:lvgl/lvgl/src/widgets/lv_dropdown.c ****         }
 797:lvgl/lvgl/src/widgets/lv_dropdown.c ****     }
 798:lvgl/lvgl/src/widgets/lv_dropdown.c **** 
 799:lvgl/lvgl/src/widgets/lv_dropdown.c ****     lv_draw_label_dsc_t label_dsc;
ARM GAS  C:\Users\gx\AppData\Local\Temp\ccIqfrB9.s 			page 16


 800:lvgl/lvgl/src/widgets/lv_dropdown.c ****     lv_draw_label_dsc_init(&label_dsc);
 801:lvgl/lvgl/src/widgets/lv_dropdown.c ****     lv_obj_init_draw_label_dsc(obj, LV_PART_MAIN, &label_dsc);
 802:lvgl/lvgl/src/widgets/lv_dropdown.c **** 
 803:lvgl/lvgl/src/widgets/lv_dropdown.c ****     lv_point_t size;
 804:lvgl/lvgl/src/widgets/lv_dropdown.c ****     lv_txt_get_size(&size, opt_txt, label_dsc.font, label_dsc.letter_space, label_dsc.line_space, L
 805:lvgl/lvgl/src/widgets/lv_dropdown.c **** 
 806:lvgl/lvgl/src/widgets/lv_dropdown.c ****     lv_area_t txt_area;
 807:lvgl/lvgl/src/widgets/lv_dropdown.c ****     txt_area.y1 = obj->coords.y1 + top;
 808:lvgl/lvgl/src/widgets/lv_dropdown.c ****     txt_area.y2 = txt_area.y1 + size.y;
 809:lvgl/lvgl/src/widgets/lv_dropdown.c ****     /*Center align the text if no symbol*/
 810:lvgl/lvgl/src/widgets/lv_dropdown.c ****     if(dropdown->symbol == NULL) {
 811:lvgl/lvgl/src/widgets/lv_dropdown.c ****         txt_area.x1 = obj->coords.x1 + (lv_obj_get_width(obj) - size.x) / 2;
 812:lvgl/lvgl/src/widgets/lv_dropdown.c ****         txt_area.x2 = txt_area.x1 + size.x;
 813:lvgl/lvgl/src/widgets/lv_dropdown.c ****     }
 814:lvgl/lvgl/src/widgets/lv_dropdown.c ****     else {
 815:lvgl/lvgl/src/widgets/lv_dropdown.c ****         /*Text to the right*/
 816:lvgl/lvgl/src/widgets/lv_dropdown.c ****         if(symbol_to_left) {
 817:lvgl/lvgl/src/widgets/lv_dropdown.c ****             txt_area.x1 = obj->coords.x2 - right - size.x;
 818:lvgl/lvgl/src/widgets/lv_dropdown.c ****             txt_area.x2 = txt_area.x1 + size.x;
 819:lvgl/lvgl/src/widgets/lv_dropdown.c ****         } else {
 820:lvgl/lvgl/src/widgets/lv_dropdown.c ****             txt_area.x1 = obj->coords.x1 + left;
 821:lvgl/lvgl/src/widgets/lv_dropdown.c ****             txt_area.x2 = txt_area.x1 + size.x;
 822:lvgl/lvgl/src/widgets/lv_dropdown.c ****         }
 823:lvgl/lvgl/src/widgets/lv_dropdown.c ****     }
 824:lvgl/lvgl/src/widgets/lv_dropdown.c ****     lv_draw_label(&txt_area, clip_area, &label_dsc, opt_txt, NULL);
 825:lvgl/lvgl/src/widgets/lv_dropdown.c **** 
 826:lvgl/lvgl/src/widgets/lv_dropdown.c ****     if(dropdown->text == NULL) {
 827:lvgl/lvgl/src/widgets/lv_dropdown.c ****         lv_mem_buf_release((char *)opt_txt);
 828:lvgl/lvgl/src/widgets/lv_dropdown.c ****     }
 829:lvgl/lvgl/src/widgets/lv_dropdown.c **** }
 830:lvgl/lvgl/src/widgets/lv_dropdown.c **** 
 831:lvgl/lvgl/src/widgets/lv_dropdown.c **** static void draw_list(lv_event_t * e)
 832:lvgl/lvgl/src/widgets/lv_dropdown.c **** {
 833:lvgl/lvgl/src/widgets/lv_dropdown.c ****     lv_obj_t * list_obj = lv_event_get_target(e);
 834:lvgl/lvgl/src/widgets/lv_dropdown.c ****     lv_dropdown_list_t * list = (lv_dropdown_list_t *)list_obj;
 835:lvgl/lvgl/src/widgets/lv_dropdown.c ****     lv_obj_t * dropdown_obj = list->dropdown;
 836:lvgl/lvgl/src/widgets/lv_dropdown.c ****     lv_dropdown_t * dropdown = (lv_dropdown_t *)dropdown_obj;
 837:lvgl/lvgl/src/widgets/lv_dropdown.c ****     const lv_area_t * clip_area = lv_event_get_param(e);
 838:lvgl/lvgl/src/widgets/lv_dropdown.c **** 
 839:lvgl/lvgl/src/widgets/lv_dropdown.c ****     /*Draw the box labels if the list is not being deleted*/
 840:lvgl/lvgl/src/widgets/lv_dropdown.c ****     if(dropdown->list) {
 841:lvgl/lvgl/src/widgets/lv_dropdown.c ****         /* Clip area might be too large too to shadow but
 842:lvgl/lvgl/src/widgets/lv_dropdown.c ****          * the selected option can be drawn on only the background*/
 843:lvgl/lvgl/src/widgets/lv_dropdown.c ****         lv_area_t clip_area_core;
 844:lvgl/lvgl/src/widgets/lv_dropdown.c ****         bool has_common;
 845:lvgl/lvgl/src/widgets/lv_dropdown.c ****         has_common = _lv_area_intersect(&clip_area_core, clip_area, &dropdown->list->coords);
 846:lvgl/lvgl/src/widgets/lv_dropdown.c ****         if(has_common) {
 847:lvgl/lvgl/src/widgets/lv_dropdown.c ****             if(dropdown->selected_highlight) {
 848:lvgl/lvgl/src/widgets/lv_dropdown.c ****                 if(dropdown->pr_opt_id == dropdown->sel_opt_id) {
 849:lvgl/lvgl/src/widgets/lv_dropdown.c ****                     draw_box(dropdown_obj, &clip_area_core, dropdown->pr_opt_id, LV_STATE_CHECKED |
 850:lvgl/lvgl/src/widgets/lv_dropdown.c ****                     draw_box_label(dropdown_obj, &clip_area_core, dropdown->pr_opt_id, LV_STATE_CHE
 851:lvgl/lvgl/src/widgets/lv_dropdown.c ****                 } else {
 852:lvgl/lvgl/src/widgets/lv_dropdown.c ****                     draw_box(dropdown_obj, &clip_area_core, dropdown->pr_opt_id, LV_STATE_PRESSED);
 853:lvgl/lvgl/src/widgets/lv_dropdown.c ****                     draw_box_label(dropdown_obj, &clip_area_core, dropdown->pr_opt_id, LV_STATE_PRE
 854:lvgl/lvgl/src/widgets/lv_dropdown.c ****                     draw_box(dropdown_obj, &clip_area_core, dropdown->sel_opt_id, LV_STATE_CHECKED)
 855:lvgl/lvgl/src/widgets/lv_dropdown.c ****                     draw_box_label(dropdown_obj, &clip_area_core, dropdown->sel_opt_id, LV_STATE_CH
 856:lvgl/lvgl/src/widgets/lv_dropdown.c ****                 }
ARM GAS  C:\Users\gx\AppData\Local\Temp\ccIqfrB9.s 			page 17


 857:lvgl/lvgl/src/widgets/lv_dropdown.c ****             } else {
 858:lvgl/lvgl/src/widgets/lv_dropdown.c ****                 draw_box(dropdown_obj, &clip_area_core, dropdown->pr_opt_id, LV_STATE_PRESSED);
 859:lvgl/lvgl/src/widgets/lv_dropdown.c ****                 draw_box_label(dropdown_obj, &clip_area_core, dropdown->pr_opt_id, LV_STATE_PRESSED
 860:lvgl/lvgl/src/widgets/lv_dropdown.c ****             }
 861:lvgl/lvgl/src/widgets/lv_dropdown.c ****         }
 862:lvgl/lvgl/src/widgets/lv_dropdown.c ****     }
 863:lvgl/lvgl/src/widgets/lv_dropdown.c **** }
 864:lvgl/lvgl/src/widgets/lv_dropdown.c **** 
 865:lvgl/lvgl/src/widgets/lv_dropdown.c **** static void draw_box(lv_obj_t * dropdown_obj, const lv_area_t * clip_area, uint16_t id, lv_state_t 
 866:lvgl/lvgl/src/widgets/lv_dropdown.c **** {
 867:lvgl/lvgl/src/widgets/lv_dropdown.c ****     if(id == LV_DROPDOWN_PR_NONE) return;
 868:lvgl/lvgl/src/widgets/lv_dropdown.c **** 
 869:lvgl/lvgl/src/widgets/lv_dropdown.c ****     lv_dropdown_t * dropdown = (lv_dropdown_t *)dropdown_obj;
 870:lvgl/lvgl/src/widgets/lv_dropdown.c ****     lv_obj_t * list_obj = dropdown->list;
 871:lvgl/lvgl/src/widgets/lv_dropdown.c ****     lv_state_t state_ori = list_obj->state;
 872:lvgl/lvgl/src/widgets/lv_dropdown.c **** 
 873:lvgl/lvgl/src/widgets/lv_dropdown.c ****     if(state != list_obj->state) {
 874:lvgl/lvgl/src/widgets/lv_dropdown.c ****         list_obj->state = state;
 875:lvgl/lvgl/src/widgets/lv_dropdown.c ****         list_obj->skip_trans = 1;
 876:lvgl/lvgl/src/widgets/lv_dropdown.c ****     }
 877:lvgl/lvgl/src/widgets/lv_dropdown.c **** 
 878:lvgl/lvgl/src/widgets/lv_dropdown.c ****     /*Draw a rectangle under the selected item*/
 879:lvgl/lvgl/src/widgets/lv_dropdown.c ****     const lv_font_t * font    = lv_obj_get_style_text_font(list_obj, LV_PART_SELECTED);
 880:lvgl/lvgl/src/widgets/lv_dropdown.c ****     lv_coord_t line_space = lv_obj_get_style_text_line_space(list_obj,  LV_PART_SELECTED);
 881:lvgl/lvgl/src/widgets/lv_dropdown.c ****     lv_coord_t font_h         = lv_font_get_line_height(font);
 882:lvgl/lvgl/src/widgets/lv_dropdown.c **** 
 883:lvgl/lvgl/src/widgets/lv_dropdown.c ****     /*Draw the selected*/
 884:lvgl/lvgl/src/widgets/lv_dropdown.c ****     lv_obj_t * label = get_label(dropdown_obj);
 885:lvgl/lvgl/src/widgets/lv_dropdown.c ****     lv_area_t rect_area;
 886:lvgl/lvgl/src/widgets/lv_dropdown.c ****     rect_area.y1 = label->coords.y1;
 887:lvgl/lvgl/src/widgets/lv_dropdown.c ****     rect_area.y1 += id * (font_h + line_space);
 888:lvgl/lvgl/src/widgets/lv_dropdown.c ****     rect_area.y1 -= line_space / 2;
 889:lvgl/lvgl/src/widgets/lv_dropdown.c **** 
 890:lvgl/lvgl/src/widgets/lv_dropdown.c ****     rect_area.y2 = rect_area.y1 + font_h + line_space - 1;
 891:lvgl/lvgl/src/widgets/lv_dropdown.c ****     rect_area.x1 = dropdown->list->coords.x1;
 892:lvgl/lvgl/src/widgets/lv_dropdown.c ****     rect_area.x2 = dropdown->list->coords.x2;
 893:lvgl/lvgl/src/widgets/lv_dropdown.c **** 
 894:lvgl/lvgl/src/widgets/lv_dropdown.c ****     lv_draw_rect_dsc_t sel_rect;
 895:lvgl/lvgl/src/widgets/lv_dropdown.c ****     lv_draw_rect_dsc_init(&sel_rect);
 896:lvgl/lvgl/src/widgets/lv_dropdown.c ****     lv_obj_init_draw_rect_dsc(list_obj,  LV_PART_SELECTED, &sel_rect);
 897:lvgl/lvgl/src/widgets/lv_dropdown.c ****     lv_draw_rect(&rect_area, clip_area, &sel_rect);
 898:lvgl/lvgl/src/widgets/lv_dropdown.c **** 
 899:lvgl/lvgl/src/widgets/lv_dropdown.c ****     list_obj->state = state_ori;
 900:lvgl/lvgl/src/widgets/lv_dropdown.c ****     list_obj->skip_trans = 0;
 901:lvgl/lvgl/src/widgets/lv_dropdown.c **** }
 902:lvgl/lvgl/src/widgets/lv_dropdown.c **** 
 903:lvgl/lvgl/src/widgets/lv_dropdown.c **** static void draw_box_label(lv_obj_t * dropdown_obj, const lv_area_t * clip_area, uint16_t id, lv_st
 904:lvgl/lvgl/src/widgets/lv_dropdown.c **** {
 905:lvgl/lvgl/src/widgets/lv_dropdown.c ****     if(id == LV_DROPDOWN_PR_NONE) return;
 906:lvgl/lvgl/src/widgets/lv_dropdown.c **** 
 907:lvgl/lvgl/src/widgets/lv_dropdown.c ****     lv_dropdown_t * dropdown = (lv_dropdown_t *)dropdown_obj;
 908:lvgl/lvgl/src/widgets/lv_dropdown.c ****     lv_obj_t * list_obj = dropdown->list;
 909:lvgl/lvgl/src/widgets/lv_dropdown.c ****     lv_state_t state_orig = list_obj->state;
 910:lvgl/lvgl/src/widgets/lv_dropdown.c **** 
 911:lvgl/lvgl/src/widgets/lv_dropdown.c ****     if(state != list_obj->state) {
 912:lvgl/lvgl/src/widgets/lv_dropdown.c ****         list_obj->state =  state;
 913:lvgl/lvgl/src/widgets/lv_dropdown.c ****         list_obj->skip_trans = 1;
ARM GAS  C:\Users\gx\AppData\Local\Temp\ccIqfrB9.s 			page 18


 914:lvgl/lvgl/src/widgets/lv_dropdown.c ****     }
 915:lvgl/lvgl/src/widgets/lv_dropdown.c **** 
 916:lvgl/lvgl/src/widgets/lv_dropdown.c ****     lv_draw_label_dsc_t label_dsc;
 917:lvgl/lvgl/src/widgets/lv_dropdown.c ****     lv_draw_label_dsc_init(&label_dsc);
 918:lvgl/lvgl/src/widgets/lv_dropdown.c ****     lv_obj_init_draw_label_dsc(list_obj, LV_PART_SELECTED, &label_dsc);
 919:lvgl/lvgl/src/widgets/lv_dropdown.c **** 
 920:lvgl/lvgl/src/widgets/lv_dropdown.c ****     label_dsc.line_space = lv_obj_get_style_text_line_space(list_obj, LV_PART_SELECTED);  /*Line sp
 921:lvgl/lvgl/src/widgets/lv_dropdown.c **** 
 922:lvgl/lvgl/src/widgets/lv_dropdown.c ****     lv_obj_t * label = get_label(dropdown_obj);
 923:lvgl/lvgl/src/widgets/lv_dropdown.c ****     if(label == NULL) return;
 924:lvgl/lvgl/src/widgets/lv_dropdown.c **** 
 925:lvgl/lvgl/src/widgets/lv_dropdown.c ****     lv_coord_t font_h        = lv_font_get_line_height(label_dsc.font);
 926:lvgl/lvgl/src/widgets/lv_dropdown.c **** 
 927:lvgl/lvgl/src/widgets/lv_dropdown.c ****     lv_area_t area_sel;
 928:lvgl/lvgl/src/widgets/lv_dropdown.c ****     area_sel.y1 = label->coords.y1;
 929:lvgl/lvgl/src/widgets/lv_dropdown.c ****     area_sel.y1 += id * (font_h + label_dsc.line_space);
 930:lvgl/lvgl/src/widgets/lv_dropdown.c ****     area_sel.y1 -= label_dsc.line_space / 2;
 931:lvgl/lvgl/src/widgets/lv_dropdown.c **** 
 932:lvgl/lvgl/src/widgets/lv_dropdown.c ****     area_sel.y2 = area_sel.y1 + font_h + label_dsc.line_space - 1;
 933:lvgl/lvgl/src/widgets/lv_dropdown.c ****     area_sel.x1 = list_obj->coords.x1;
 934:lvgl/lvgl/src/widgets/lv_dropdown.c ****     area_sel.x2 = list_obj->coords.x2;
 935:lvgl/lvgl/src/widgets/lv_dropdown.c ****     lv_area_t mask_sel;
 936:lvgl/lvgl/src/widgets/lv_dropdown.c ****     bool area_ok;
 937:lvgl/lvgl/src/widgets/lv_dropdown.c ****     area_ok = _lv_area_intersect(&mask_sel, clip_area, &area_sel);
 938:lvgl/lvgl/src/widgets/lv_dropdown.c ****     if(area_ok) {
 939:lvgl/lvgl/src/widgets/lv_dropdown.c ****         lv_draw_label(&label->coords, &mask_sel, &label_dsc, lv_label_get_text(label), NULL);
 940:lvgl/lvgl/src/widgets/lv_dropdown.c ****     }
 941:lvgl/lvgl/src/widgets/lv_dropdown.c ****     list_obj->state = state_orig;
 942:lvgl/lvgl/src/widgets/lv_dropdown.c ****     list_obj->skip_trans = 0;
 943:lvgl/lvgl/src/widgets/lv_dropdown.c **** }
 944:lvgl/lvgl/src/widgets/lv_dropdown.c **** 
 945:lvgl/lvgl/src/widgets/lv_dropdown.c **** 
 946:lvgl/lvgl/src/widgets/lv_dropdown.c **** static lv_res_t btn_release_handler(lv_obj_t * obj)
 947:lvgl/lvgl/src/widgets/lv_dropdown.c **** {
 948:lvgl/lvgl/src/widgets/lv_dropdown.c ****     lv_dropdown_t * dropdown = (lv_dropdown_t *)obj;
 949:lvgl/lvgl/src/widgets/lv_dropdown.c ****     lv_indev_t * indev = lv_indev_get_act();
 950:lvgl/lvgl/src/widgets/lv_dropdown.c ****     if(lv_indev_get_scroll_obj(indev) == NULL) {
 951:lvgl/lvgl/src/widgets/lv_dropdown.c ****         if(dropdown->list) {
 952:lvgl/lvgl/src/widgets/lv_dropdown.c ****             lv_dropdown_close(obj);
 953:lvgl/lvgl/src/widgets/lv_dropdown.c ****             if(dropdown->sel_opt_id_orig != dropdown->sel_opt_id) {
 954:lvgl/lvgl/src/widgets/lv_dropdown.c ****                 dropdown->sel_opt_id_orig = dropdown->sel_opt_id;
 955:lvgl/lvgl/src/widgets/lv_dropdown.c ****                 lv_res_t res;
 956:lvgl/lvgl/src/widgets/lv_dropdown.c ****                 uint32_t id  = dropdown->sel_opt_id; /*Just to use uint32_t in event data*/
 957:lvgl/lvgl/src/widgets/lv_dropdown.c ****                 res = lv_event_send(obj, LV_EVENT_VALUE_CHANGED, &id);
 958:lvgl/lvgl/src/widgets/lv_dropdown.c ****                 if(res != LV_RES_OK) return res;
 959:lvgl/lvgl/src/widgets/lv_dropdown.c ****                 lv_obj_invalidate(obj);
 960:lvgl/lvgl/src/widgets/lv_dropdown.c ****             }
 961:lvgl/lvgl/src/widgets/lv_dropdown.c ****             lv_indev_type_t indev_type = lv_indev_get_type(indev);
 962:lvgl/lvgl/src/widgets/lv_dropdown.c ****             if(indev_type == LV_INDEV_TYPE_ENCODER) {
 963:lvgl/lvgl/src/widgets/lv_dropdown.c ****                 lv_group_set_editing(lv_obj_get_group(obj), false);
 964:lvgl/lvgl/src/widgets/lv_dropdown.c ****             }
 965:lvgl/lvgl/src/widgets/lv_dropdown.c ****         }
 966:lvgl/lvgl/src/widgets/lv_dropdown.c ****         else {
 967:lvgl/lvgl/src/widgets/lv_dropdown.c ****             lv_dropdown_open(obj);
 968:lvgl/lvgl/src/widgets/lv_dropdown.c ****         }
 969:lvgl/lvgl/src/widgets/lv_dropdown.c ****     }
 970:lvgl/lvgl/src/widgets/lv_dropdown.c ****     else {
ARM GAS  C:\Users\gx\AppData\Local\Temp\ccIqfrB9.s 			page 19


 971:lvgl/lvgl/src/widgets/lv_dropdown.c ****         dropdown->sel_opt_id = dropdown->sel_opt_id_orig;
 972:lvgl/lvgl/src/widgets/lv_dropdown.c ****         lv_obj_invalidate(obj);
 973:lvgl/lvgl/src/widgets/lv_dropdown.c ****     }
 974:lvgl/lvgl/src/widgets/lv_dropdown.c ****     return LV_RES_OK;
 975:lvgl/lvgl/src/widgets/lv_dropdown.c **** }
 976:lvgl/lvgl/src/widgets/lv_dropdown.c **** 
 977:lvgl/lvgl/src/widgets/lv_dropdown.c **** /**
 978:lvgl/lvgl/src/widgets/lv_dropdown.c ****  * Called when a drop down list is released to open it or set new option
 979:lvgl/lvgl/src/widgets/lv_dropdown.c ****  * @param list pointer to the drop down list's list
 980:lvgl/lvgl/src/widgets/lv_dropdown.c ****  * @return LV_RES_INV if the list is not being deleted in the user callback. Else LV_RES_OK
 981:lvgl/lvgl/src/widgets/lv_dropdown.c ****  */
 982:lvgl/lvgl/src/widgets/lv_dropdown.c **** static lv_res_t list_release_handler(lv_obj_t * list_obj)
 983:lvgl/lvgl/src/widgets/lv_dropdown.c **** {
 984:lvgl/lvgl/src/widgets/lv_dropdown.c ****     lv_dropdown_list_t * list = (lv_dropdown_list_t*) list_obj;
 985:lvgl/lvgl/src/widgets/lv_dropdown.c ****     lv_obj_t * dropdown_obj = list->dropdown;
 986:lvgl/lvgl/src/widgets/lv_dropdown.c ****     lv_dropdown_t * dropdown = (lv_dropdown_t *)dropdown_obj;
 987:lvgl/lvgl/src/widgets/lv_dropdown.c **** 
 988:lvgl/lvgl/src/widgets/lv_dropdown.c ****     lv_indev_t * indev = lv_indev_get_act();
 989:lvgl/lvgl/src/widgets/lv_dropdown.c ****     /*Leave edit mode once a new item is selected*/
 990:lvgl/lvgl/src/widgets/lv_dropdown.c ****     if(lv_indev_get_type(indev) == LV_INDEV_TYPE_ENCODER) {
 991:lvgl/lvgl/src/widgets/lv_dropdown.c ****         dropdown->sel_opt_id_orig = dropdown->sel_opt_id;
 992:lvgl/lvgl/src/widgets/lv_dropdown.c ****         lv_group_t * g      = lv_obj_get_group(dropdown_obj);
 993:lvgl/lvgl/src/widgets/lv_dropdown.c ****         if(lv_group_get_editing(g)) {
 994:lvgl/lvgl/src/widgets/lv_dropdown.c ****             lv_group_set_editing(g, false);
 995:lvgl/lvgl/src/widgets/lv_dropdown.c ****         }
 996:lvgl/lvgl/src/widgets/lv_dropdown.c ****     }
 997:lvgl/lvgl/src/widgets/lv_dropdown.c **** 
 998:lvgl/lvgl/src/widgets/lv_dropdown.c ****     /*Search the clicked option (For KEYPAD and ENCODER the new value should be already set)*/
 999:lvgl/lvgl/src/widgets/lv_dropdown.c ****     if(lv_indev_get_type(indev) == LV_INDEV_TYPE_POINTER || lv_indev_get_type(indev) == LV_INDEV_TY
1000:lvgl/lvgl/src/widgets/lv_dropdown.c ****         lv_point_t p;
1001:lvgl/lvgl/src/widgets/lv_dropdown.c ****         lv_indev_get_point(indev, &p);
1002:lvgl/lvgl/src/widgets/lv_dropdown.c ****         dropdown->sel_opt_id     = get_id_on_point(dropdown_obj, p.y);
1003:lvgl/lvgl/src/widgets/lv_dropdown.c ****         dropdown->sel_opt_id_orig = dropdown->sel_opt_id;
1004:lvgl/lvgl/src/widgets/lv_dropdown.c ****     }
1005:lvgl/lvgl/src/widgets/lv_dropdown.c **** 
1006:lvgl/lvgl/src/widgets/lv_dropdown.c ****     lv_dropdown_close(dropdown_obj);
1007:lvgl/lvgl/src/widgets/lv_dropdown.c **** 
1008:lvgl/lvgl/src/widgets/lv_dropdown.c ****     /*Invalidate to refresh the text*/
1009:lvgl/lvgl/src/widgets/lv_dropdown.c ****     if(dropdown->text == NULL) lv_obj_invalidate(dropdown_obj);
1010:lvgl/lvgl/src/widgets/lv_dropdown.c **** 
1011:lvgl/lvgl/src/widgets/lv_dropdown.c ****     uint32_t id  = dropdown->sel_opt_id; /*Just to use uint32_t in event data*/
1012:lvgl/lvgl/src/widgets/lv_dropdown.c ****     lv_res_t res = lv_event_send(dropdown_obj, LV_EVENT_VALUE_CHANGED, &id);
1013:lvgl/lvgl/src/widgets/lv_dropdown.c ****     if(res != LV_RES_OK) return res;
1014:lvgl/lvgl/src/widgets/lv_dropdown.c **** 
1015:lvgl/lvgl/src/widgets/lv_dropdown.c ****     return LV_RES_OK;
1016:lvgl/lvgl/src/widgets/lv_dropdown.c **** }
1017:lvgl/lvgl/src/widgets/lv_dropdown.c **** 
1018:lvgl/lvgl/src/widgets/lv_dropdown.c **** static void list_press_handler(lv_obj_t * list_obj)
1019:lvgl/lvgl/src/widgets/lv_dropdown.c **** {
1020:lvgl/lvgl/src/widgets/lv_dropdown.c ****     lv_dropdown_list_t * list = (lv_dropdown_list_t*) list_obj;
1021:lvgl/lvgl/src/widgets/lv_dropdown.c ****     lv_obj_t * dropdown_obj = list->dropdown;
1022:lvgl/lvgl/src/widgets/lv_dropdown.c ****     lv_dropdown_t * dropdown = (lv_dropdown_t *)dropdown_obj;
1023:lvgl/lvgl/src/widgets/lv_dropdown.c **** 
1024:lvgl/lvgl/src/widgets/lv_dropdown.c ****     lv_indev_t * indev = lv_indev_get_act();
1025:lvgl/lvgl/src/widgets/lv_dropdown.c ****     if(indev && (lv_indev_get_type(indev) == LV_INDEV_TYPE_POINTER || lv_indev_get_type(indev) == L
1026:lvgl/lvgl/src/widgets/lv_dropdown.c ****         lv_point_t p;
1027:lvgl/lvgl/src/widgets/lv_dropdown.c ****         lv_indev_get_point(indev, &p);
ARM GAS  C:\Users\gx\AppData\Local\Temp\ccIqfrB9.s 			page 20


1028:lvgl/lvgl/src/widgets/lv_dropdown.c ****         dropdown->pr_opt_id = get_id_on_point(dropdown_obj, p.y);
1029:lvgl/lvgl/src/widgets/lv_dropdown.c ****         lv_obj_invalidate(list_obj);
1030:lvgl/lvgl/src/widgets/lv_dropdown.c ****     }
1031:lvgl/lvgl/src/widgets/lv_dropdown.c **** }
1032:lvgl/lvgl/src/widgets/lv_dropdown.c **** 
1033:lvgl/lvgl/src/widgets/lv_dropdown.c **** static uint16_t get_id_on_point(lv_obj_t * dropdown_obj, lv_coord_t y)
1034:lvgl/lvgl/src/widgets/lv_dropdown.c **** {
1035:lvgl/lvgl/src/widgets/lv_dropdown.c ****     lv_dropdown_t * dropdown = (lv_dropdown_t *)dropdown_obj;
1036:lvgl/lvgl/src/widgets/lv_dropdown.c ****     lv_obj_t * label = get_label(dropdown_obj);
1037:lvgl/lvgl/src/widgets/lv_dropdown.c ****     if(label == NULL) return 0;
1038:lvgl/lvgl/src/widgets/lv_dropdown.c ****     y -= label->coords.y1;
1039:lvgl/lvgl/src/widgets/lv_dropdown.c **** 
1040:lvgl/lvgl/src/widgets/lv_dropdown.c ****     const lv_font_t * font         = lv_obj_get_style_text_font(label, LV_PART_MAIN);
1041:lvgl/lvgl/src/widgets/lv_dropdown.c ****     lv_coord_t font_h              = lv_font_get_line_height(font);
1042:lvgl/lvgl/src/widgets/lv_dropdown.c ****     lv_coord_t line_space = lv_obj_get_style_text_line_space(label, LV_PART_MAIN);
1043:lvgl/lvgl/src/widgets/lv_dropdown.c **** 
1044:lvgl/lvgl/src/widgets/lv_dropdown.c ****     y += line_space / 2;
1045:lvgl/lvgl/src/widgets/lv_dropdown.c ****     lv_coord_t h = font_h + line_space;
1046:lvgl/lvgl/src/widgets/lv_dropdown.c **** 
1047:lvgl/lvgl/src/widgets/lv_dropdown.c ****     uint16_t opt = y / h;
1048:lvgl/lvgl/src/widgets/lv_dropdown.c **** 
1049:lvgl/lvgl/src/widgets/lv_dropdown.c ****     if(opt >= dropdown->option_cnt) opt = dropdown->option_cnt - 1;
1050:lvgl/lvgl/src/widgets/lv_dropdown.c ****     return opt;
1051:lvgl/lvgl/src/widgets/lv_dropdown.c **** }
1052:lvgl/lvgl/src/widgets/lv_dropdown.c **** 
1053:lvgl/lvgl/src/widgets/lv_dropdown.c **** /**
1054:lvgl/lvgl/src/widgets/lv_dropdown.c ****  * Set the position of list when it is closed to show the selected item
1055:lvgl/lvgl/src/widgets/lv_dropdown.c ****  * @param ddlist pointer to a drop down list
1056:lvgl/lvgl/src/widgets/lv_dropdown.c ****  */
1057:lvgl/lvgl/src/widgets/lv_dropdown.c **** static void position_to_selected(lv_obj_t * dropdown_obj)
1058:lvgl/lvgl/src/widgets/lv_dropdown.c **** {
1059:lvgl/lvgl/src/widgets/lv_dropdown.c ****     lv_dropdown_t * dropdown = (lv_dropdown_t *)dropdown_obj;
1060:lvgl/lvgl/src/widgets/lv_dropdown.c **** 
1061:lvgl/lvgl/src/widgets/lv_dropdown.c ****     lv_obj_t * label = get_label(dropdown_obj);
1062:lvgl/lvgl/src/widgets/lv_dropdown.c ****     if(label == NULL) return;
1063:lvgl/lvgl/src/widgets/lv_dropdown.c **** 
1064:lvgl/lvgl/src/widgets/lv_dropdown.c ****     if(lv_obj_get_height(label) <= lv_obj_get_content_height(dropdown_obj)) return;
1065:lvgl/lvgl/src/widgets/lv_dropdown.c **** 
1066:lvgl/lvgl/src/widgets/lv_dropdown.c ****     const lv_font_t * font         = lv_obj_get_style_text_font(label, LV_PART_MAIN);
1067:lvgl/lvgl/src/widgets/lv_dropdown.c ****     lv_coord_t font_h              = lv_font_get_line_height(font);
1068:lvgl/lvgl/src/widgets/lv_dropdown.c ****     lv_coord_t line_space = lv_obj_get_style_text_line_space(label, LV_PART_MAIN);
1069:lvgl/lvgl/src/widgets/lv_dropdown.c ****     lv_coord_t unit_h = font_h + line_space;
1070:lvgl/lvgl/src/widgets/lv_dropdown.c ****     lv_coord_t line_y1 = dropdown->sel_opt_id * unit_h;
1071:lvgl/lvgl/src/widgets/lv_dropdown.c **** 
1072:lvgl/lvgl/src/widgets/lv_dropdown.c ****     /*Scroll to the selected option*/
1073:lvgl/lvgl/src/widgets/lv_dropdown.c ****     lv_obj_scroll_to_y(dropdown->list, line_y1, LV_ANIM_OFF);
1074:lvgl/lvgl/src/widgets/lv_dropdown.c ****     lv_obj_invalidate(dropdown->list);
1075:lvgl/lvgl/src/widgets/lv_dropdown.c **** }
1076:lvgl/lvgl/src/widgets/lv_dropdown.c **** 
1077:lvgl/lvgl/src/widgets/lv_dropdown.c **** static lv_obj_t * get_label(const lv_obj_t * obj)
1078:lvgl/lvgl/src/widgets/lv_dropdown.c **** {
  60              		.loc 1 1078 1 is_stmt 1 view -0
  61              		.cfi_startproc
  62              		@ args = 0, pretend = 0, frame = 0
  63              		@ frame_needed = 0, uses_anonymous_args = 0
1079:lvgl/lvgl/src/widgets/lv_dropdown.c ****     lv_dropdown_t * dropdown = (lv_dropdown_t *)obj;
  64              		.loc 1 1079 5 view .LVU10
ARM GAS  C:\Users\gx\AppData\Local\Temp\ccIqfrB9.s 			page 21


1080:lvgl/lvgl/src/widgets/lv_dropdown.c ****     if(dropdown->list == NULL) return NULL;
  65              		.loc 1 1080 5 view .LVU11
  66              		.loc 1 1080 16 is_stmt 0 view .LVU12
  67 0000 406A     		ldr	r0, [r0, #36]
  68              	.LVL3:
  69              		.loc 1 1080 7 view .LVU13
  70 0002 20B1     		cbz	r0, .L5
1078:lvgl/lvgl/src/widgets/lv_dropdown.c ****     lv_dropdown_t * dropdown = (lv_dropdown_t *)obj;
  71              		.loc 1 1078 1 view .LVU14
  72 0004 08B5     		push	{r3, lr}
  73              	.LCFI0:
  74              		.cfi_def_cfa_offset 8
  75              		.cfi_offset 3, -8
  76              		.cfi_offset 14, -4
1081:lvgl/lvgl/src/widgets/lv_dropdown.c **** 
1082:lvgl/lvgl/src/widgets/lv_dropdown.c ****     return lv_obj_get_child(dropdown->list, 0);
  77              		.loc 1 1082 5 is_stmt 1 view .LVU15
  78              		.loc 1 1082 12 is_stmt 0 view .LVU16
  79 0006 0021     		movs	r1, #0
  80 0008 FFF7FEFF 		bl	lv_obj_get_child
  81              	.LVL4:
1083:lvgl/lvgl/src/widgets/lv_dropdown.c **** }
  82              		.loc 1 1083 1 view .LVU17
  83 000c 08BD     		pop	{r3, pc}
  84              	.L5:
  85              	.LCFI1:
  86              		.cfi_def_cfa_offset 0
  87              		.cfi_restore 3
  88              		.cfi_restore 14
  89 000e 7047     		bx	lr
  90              		.cfi_endproc
  91              	.LFE195:
  93              		.section	.text.position_to_selected,"ax",%progbits
  94              		.align	1
  95              		.syntax unified
  96              		.thumb
  97              		.thumb_func
  98              		.fpu fpv4-sp-d16
 100              	position_to_selected:
 101              	.LVL5:
 102              	.LFB194:
1058:lvgl/lvgl/src/widgets/lv_dropdown.c ****     lv_dropdown_t * dropdown = (lv_dropdown_t *)dropdown_obj;
 103              		.loc 1 1058 1 is_stmt 1 view -0
 104              		.cfi_startproc
 105              		@ args = 0, pretend = 0, frame = 0
 106              		@ frame_needed = 0, uses_anonymous_args = 0
1058:lvgl/lvgl/src/widgets/lv_dropdown.c ****     lv_dropdown_t * dropdown = (lv_dropdown_t *)dropdown_obj;
 107              		.loc 1 1058 1 is_stmt 0 view .LVU19
 108 0000 70B5     		push	{r4, r5, r6, lr}
 109              	.LCFI2:
 110              		.cfi_def_cfa_offset 16
 111              		.cfi_offset 4, -16
 112              		.cfi_offset 5, -12
 113              		.cfi_offset 6, -8
 114              		.cfi_offset 14, -4
 115 0002 0446     		mov	r4, r0
1059:lvgl/lvgl/src/widgets/lv_dropdown.c **** 
ARM GAS  C:\Users\gx\AppData\Local\Temp\ccIqfrB9.s 			page 22


 116              		.loc 1 1059 5 is_stmt 1 view .LVU20
 117              	.LVL6:
1061:lvgl/lvgl/src/widgets/lv_dropdown.c ****     if(label == NULL) return;
 118              		.loc 1 1061 5 view .LVU21
1061:lvgl/lvgl/src/widgets/lv_dropdown.c ****     if(label == NULL) return;
 119              		.loc 1 1061 24 is_stmt 0 view .LVU22
 120 0004 FFF7FEFF 		bl	get_label
 121              	.LVL7:
1062:lvgl/lvgl/src/widgets/lv_dropdown.c **** 
 122              		.loc 1 1062 5 is_stmt 1 view .LVU23
1062:lvgl/lvgl/src/widgets/lv_dropdown.c **** 
 123              		.loc 1 1062 7 is_stmt 0 view .LVU24
 124 0008 40B1     		cbz	r0, .L8
 125 000a 0646     		mov	r6, r0
1064:lvgl/lvgl/src/widgets/lv_dropdown.c **** 
 126              		.loc 1 1064 5 is_stmt 1 view .LVU25
1064:lvgl/lvgl/src/widgets/lv_dropdown.c **** 
 127              		.loc 1 1064 8 is_stmt 0 view .LVU26
 128 000c FFF7FEFF 		bl	lv_obj_get_height
 129              	.LVL8:
1064:lvgl/lvgl/src/widgets/lv_dropdown.c **** 
 130              		.loc 1 1064 8 view .LVU27
 131 0010 0546     		mov	r5, r0
1064:lvgl/lvgl/src/widgets/lv_dropdown.c **** 
 132              		.loc 1 1064 36 view .LVU28
 133 0012 2046     		mov	r0, r4
 134 0014 FFF7FEFF 		bl	lv_obj_get_content_height
 135              	.LVL9:
1064:lvgl/lvgl/src/widgets/lv_dropdown.c **** 
 136              		.loc 1 1064 7 view .LVU29
 137 0018 8542     		cmp	r5, r0
 138 001a 00DC     		bgt	.L11
 139              	.LVL10:
 140              	.L8:
1075:lvgl/lvgl/src/widgets/lv_dropdown.c **** 
 141              		.loc 1 1075 1 view .LVU30
 142 001c 70BD     		pop	{r4, r5, r6, pc}
 143              	.LVL11:
 144              	.L11:
1066:lvgl/lvgl/src/widgets/lv_dropdown.c ****     lv_coord_t font_h              = lv_font_get_line_height(font);
 145              		.loc 1 1066 5 is_stmt 1 view .LVU31
 146              	.LBB57:
 147              	.LBI57:
 148              		.file 2 "lvgl/lvgl/src/widgets/../core/lv_obj_style_gen.h"
   1:lvgl/lvgl/src/widgets/../core/lv_obj_style_gen.h **** static inline lv_coord_t lv_obj_get_style_width(const struct _lv_obj_t * obj, uint32_t part)
   2:lvgl/lvgl/src/widgets/../core/lv_obj_style_gen.h **** {
   3:lvgl/lvgl/src/widgets/../core/lv_obj_style_gen.h ****     lv_style_value_t v = lv_obj_get_style_prop(obj, part, LV_STYLE_WIDTH);
   4:lvgl/lvgl/src/widgets/../core/lv_obj_style_gen.h ****     return (lv_coord_t)v.num;
   5:lvgl/lvgl/src/widgets/../core/lv_obj_style_gen.h **** }
   6:lvgl/lvgl/src/widgets/../core/lv_obj_style_gen.h **** 
   7:lvgl/lvgl/src/widgets/../core/lv_obj_style_gen.h **** static inline lv_coord_t lv_obj_get_style_min_width(const struct _lv_obj_t * obj, uint32_t part)
   8:lvgl/lvgl/src/widgets/../core/lv_obj_style_gen.h **** {
   9:lvgl/lvgl/src/widgets/../core/lv_obj_style_gen.h ****     lv_style_value_t v = lv_obj_get_style_prop(obj, part, LV_STYLE_MIN_WIDTH);
  10:lvgl/lvgl/src/widgets/../core/lv_obj_style_gen.h ****     return (lv_coord_t)v.num;
  11:lvgl/lvgl/src/widgets/../core/lv_obj_style_gen.h **** }
  12:lvgl/lvgl/src/widgets/../core/lv_obj_style_gen.h **** 
  13:lvgl/lvgl/src/widgets/../core/lv_obj_style_gen.h **** static inline lv_coord_t lv_obj_get_style_max_width(const struct _lv_obj_t * obj, uint32_t part)
ARM GAS  C:\Users\gx\AppData\Local\Temp\ccIqfrB9.s 			page 23


  14:lvgl/lvgl/src/widgets/../core/lv_obj_style_gen.h **** {
  15:lvgl/lvgl/src/widgets/../core/lv_obj_style_gen.h ****     lv_style_value_t v = lv_obj_get_style_prop(obj, part, LV_STYLE_MAX_WIDTH);
  16:lvgl/lvgl/src/widgets/../core/lv_obj_style_gen.h ****     return (lv_coord_t)v.num;
  17:lvgl/lvgl/src/widgets/../core/lv_obj_style_gen.h **** }
  18:lvgl/lvgl/src/widgets/../core/lv_obj_style_gen.h **** 
  19:lvgl/lvgl/src/widgets/../core/lv_obj_style_gen.h **** static inline lv_coord_t lv_obj_get_style_height(const struct _lv_obj_t * obj, uint32_t part)
  20:lvgl/lvgl/src/widgets/../core/lv_obj_style_gen.h **** {
  21:lvgl/lvgl/src/widgets/../core/lv_obj_style_gen.h ****     lv_style_value_t v = lv_obj_get_style_prop(obj, part, LV_STYLE_HEIGHT);
  22:lvgl/lvgl/src/widgets/../core/lv_obj_style_gen.h ****     return (lv_coord_t)v.num;
  23:lvgl/lvgl/src/widgets/../core/lv_obj_style_gen.h **** }
  24:lvgl/lvgl/src/widgets/../core/lv_obj_style_gen.h **** 
  25:lvgl/lvgl/src/widgets/../core/lv_obj_style_gen.h **** static inline lv_coord_t lv_obj_get_style_min_height(const struct _lv_obj_t * obj, uint32_t part)
  26:lvgl/lvgl/src/widgets/../core/lv_obj_style_gen.h **** {
  27:lvgl/lvgl/src/widgets/../core/lv_obj_style_gen.h ****     lv_style_value_t v = lv_obj_get_style_prop(obj, part, LV_STYLE_MIN_HEIGHT);
  28:lvgl/lvgl/src/widgets/../core/lv_obj_style_gen.h ****     return (lv_coord_t)v.num;
  29:lvgl/lvgl/src/widgets/../core/lv_obj_style_gen.h **** }
  30:lvgl/lvgl/src/widgets/../core/lv_obj_style_gen.h **** 
  31:lvgl/lvgl/src/widgets/../core/lv_obj_style_gen.h **** static inline lv_coord_t lv_obj_get_style_max_height(const struct _lv_obj_t * obj, uint32_t part)
  32:lvgl/lvgl/src/widgets/../core/lv_obj_style_gen.h **** {
  33:lvgl/lvgl/src/widgets/../core/lv_obj_style_gen.h ****     lv_style_value_t v = lv_obj_get_style_prop(obj, part, LV_STYLE_MAX_HEIGHT);
  34:lvgl/lvgl/src/widgets/../core/lv_obj_style_gen.h ****     return (lv_coord_t)v.num;
  35:lvgl/lvgl/src/widgets/../core/lv_obj_style_gen.h **** }
  36:lvgl/lvgl/src/widgets/../core/lv_obj_style_gen.h **** 
  37:lvgl/lvgl/src/widgets/../core/lv_obj_style_gen.h **** static inline lv_coord_t lv_obj_get_style_x(const struct _lv_obj_t * obj, uint32_t part)
  38:lvgl/lvgl/src/widgets/../core/lv_obj_style_gen.h **** {
  39:lvgl/lvgl/src/widgets/../core/lv_obj_style_gen.h ****     lv_style_value_t v = lv_obj_get_style_prop(obj, part, LV_STYLE_X);
  40:lvgl/lvgl/src/widgets/../core/lv_obj_style_gen.h ****     return (lv_coord_t)v.num;
  41:lvgl/lvgl/src/widgets/../core/lv_obj_style_gen.h **** }
  42:lvgl/lvgl/src/widgets/../core/lv_obj_style_gen.h **** 
  43:lvgl/lvgl/src/widgets/../core/lv_obj_style_gen.h **** static inline lv_coord_t lv_obj_get_style_y(const struct _lv_obj_t * obj, uint32_t part)
  44:lvgl/lvgl/src/widgets/../core/lv_obj_style_gen.h **** {
  45:lvgl/lvgl/src/widgets/../core/lv_obj_style_gen.h ****     lv_style_value_t v = lv_obj_get_style_prop(obj, part, LV_STYLE_Y);
  46:lvgl/lvgl/src/widgets/../core/lv_obj_style_gen.h ****     return (lv_coord_t)v.num;
  47:lvgl/lvgl/src/widgets/../core/lv_obj_style_gen.h **** }
  48:lvgl/lvgl/src/widgets/../core/lv_obj_style_gen.h **** 
  49:lvgl/lvgl/src/widgets/../core/lv_obj_style_gen.h **** static inline lv_align_t lv_obj_get_style_align(const struct _lv_obj_t * obj, uint32_t part)
  50:lvgl/lvgl/src/widgets/../core/lv_obj_style_gen.h **** {
  51:lvgl/lvgl/src/widgets/../core/lv_obj_style_gen.h ****     lv_style_value_t v = lv_obj_get_style_prop(obj, part, LV_STYLE_ALIGN);
  52:lvgl/lvgl/src/widgets/../core/lv_obj_style_gen.h ****     return (lv_align_t)v.num;
  53:lvgl/lvgl/src/widgets/../core/lv_obj_style_gen.h **** }
  54:lvgl/lvgl/src/widgets/../core/lv_obj_style_gen.h **** 
  55:lvgl/lvgl/src/widgets/../core/lv_obj_style_gen.h **** static inline lv_coord_t lv_obj_get_style_transform_width(const struct _lv_obj_t * obj, uint32_t pa
  56:lvgl/lvgl/src/widgets/../core/lv_obj_style_gen.h **** {
  57:lvgl/lvgl/src/widgets/../core/lv_obj_style_gen.h ****     lv_style_value_t v = lv_obj_get_style_prop(obj, part, LV_STYLE_TRANSFORM_WIDTH);
  58:lvgl/lvgl/src/widgets/../core/lv_obj_style_gen.h ****     return (lv_coord_t)v.num;
  59:lvgl/lvgl/src/widgets/../core/lv_obj_style_gen.h **** }
  60:lvgl/lvgl/src/widgets/../core/lv_obj_style_gen.h **** 
  61:lvgl/lvgl/src/widgets/../core/lv_obj_style_gen.h **** static inline lv_coord_t lv_obj_get_style_transform_height(const struct _lv_obj_t * obj, uint32_t p
  62:lvgl/lvgl/src/widgets/../core/lv_obj_style_gen.h **** {
  63:lvgl/lvgl/src/widgets/../core/lv_obj_style_gen.h ****     lv_style_value_t v = lv_obj_get_style_prop(obj, part, LV_STYLE_TRANSFORM_HEIGHT);
  64:lvgl/lvgl/src/widgets/../core/lv_obj_style_gen.h ****     return (lv_coord_t)v.num;
  65:lvgl/lvgl/src/widgets/../core/lv_obj_style_gen.h **** }
  66:lvgl/lvgl/src/widgets/../core/lv_obj_style_gen.h **** 
  67:lvgl/lvgl/src/widgets/../core/lv_obj_style_gen.h **** static inline lv_coord_t lv_obj_get_style_translate_x(const struct _lv_obj_t * obj, uint32_t part)
  68:lvgl/lvgl/src/widgets/../core/lv_obj_style_gen.h **** {
  69:lvgl/lvgl/src/widgets/../core/lv_obj_style_gen.h ****     lv_style_value_t v = lv_obj_get_style_prop(obj, part, LV_STYLE_TRANSLATE_X);
  70:lvgl/lvgl/src/widgets/../core/lv_obj_style_gen.h ****     return (lv_coord_t)v.num;
ARM GAS  C:\Users\gx\AppData\Local\Temp\ccIqfrB9.s 			page 24


  71:lvgl/lvgl/src/widgets/../core/lv_obj_style_gen.h **** }
  72:lvgl/lvgl/src/widgets/../core/lv_obj_style_gen.h **** 
  73:lvgl/lvgl/src/widgets/../core/lv_obj_style_gen.h **** static inline lv_coord_t lv_obj_get_style_translate_y(const struct _lv_obj_t * obj, uint32_t part)
  74:lvgl/lvgl/src/widgets/../core/lv_obj_style_gen.h **** {
  75:lvgl/lvgl/src/widgets/../core/lv_obj_style_gen.h ****     lv_style_value_t v = lv_obj_get_style_prop(obj, part, LV_STYLE_TRANSLATE_Y);
  76:lvgl/lvgl/src/widgets/../core/lv_obj_style_gen.h ****     return (lv_coord_t)v.num;
  77:lvgl/lvgl/src/widgets/../core/lv_obj_style_gen.h **** }
  78:lvgl/lvgl/src/widgets/../core/lv_obj_style_gen.h **** 
  79:lvgl/lvgl/src/widgets/../core/lv_obj_style_gen.h **** static inline lv_coord_t lv_obj_get_style_transform_zoom(const struct _lv_obj_t * obj, uint32_t par
  80:lvgl/lvgl/src/widgets/../core/lv_obj_style_gen.h **** {
  81:lvgl/lvgl/src/widgets/../core/lv_obj_style_gen.h ****     lv_style_value_t v = lv_obj_get_style_prop(obj, part, LV_STYLE_TRANSFORM_ZOOM);
  82:lvgl/lvgl/src/widgets/../core/lv_obj_style_gen.h ****     return (lv_coord_t)v.num;
  83:lvgl/lvgl/src/widgets/../core/lv_obj_style_gen.h **** }
  84:lvgl/lvgl/src/widgets/../core/lv_obj_style_gen.h **** 
  85:lvgl/lvgl/src/widgets/../core/lv_obj_style_gen.h **** static inline lv_coord_t lv_obj_get_style_transform_angle(const struct _lv_obj_t * obj, uint32_t pa
  86:lvgl/lvgl/src/widgets/../core/lv_obj_style_gen.h **** {
  87:lvgl/lvgl/src/widgets/../core/lv_obj_style_gen.h ****     lv_style_value_t v = lv_obj_get_style_prop(obj, part, LV_STYLE_TRANSFORM_ANGLE);
  88:lvgl/lvgl/src/widgets/../core/lv_obj_style_gen.h ****     return (lv_coord_t)v.num;
  89:lvgl/lvgl/src/widgets/../core/lv_obj_style_gen.h **** }
  90:lvgl/lvgl/src/widgets/../core/lv_obj_style_gen.h **** 
  91:lvgl/lvgl/src/widgets/../core/lv_obj_style_gen.h **** static inline lv_coord_t lv_obj_get_style_pad_top(const struct _lv_obj_t * obj, uint32_t part)
  92:lvgl/lvgl/src/widgets/../core/lv_obj_style_gen.h **** {
  93:lvgl/lvgl/src/widgets/../core/lv_obj_style_gen.h ****     lv_style_value_t v = lv_obj_get_style_prop(obj, part, LV_STYLE_PAD_TOP);
  94:lvgl/lvgl/src/widgets/../core/lv_obj_style_gen.h ****     return (lv_coord_t)v.num;
  95:lvgl/lvgl/src/widgets/../core/lv_obj_style_gen.h **** }
  96:lvgl/lvgl/src/widgets/../core/lv_obj_style_gen.h **** 
  97:lvgl/lvgl/src/widgets/../core/lv_obj_style_gen.h **** static inline lv_coord_t lv_obj_get_style_pad_bottom(const struct _lv_obj_t * obj, uint32_t part)
  98:lvgl/lvgl/src/widgets/../core/lv_obj_style_gen.h **** {
  99:lvgl/lvgl/src/widgets/../core/lv_obj_style_gen.h ****     lv_style_value_t v = lv_obj_get_style_prop(obj, part, LV_STYLE_PAD_BOTTOM);
 100:lvgl/lvgl/src/widgets/../core/lv_obj_style_gen.h ****     return (lv_coord_t)v.num;
 101:lvgl/lvgl/src/widgets/../core/lv_obj_style_gen.h **** }
 102:lvgl/lvgl/src/widgets/../core/lv_obj_style_gen.h **** 
 103:lvgl/lvgl/src/widgets/../core/lv_obj_style_gen.h **** static inline lv_coord_t lv_obj_get_style_pad_left(const struct _lv_obj_t * obj, uint32_t part)
 104:lvgl/lvgl/src/widgets/../core/lv_obj_style_gen.h **** {
 105:lvgl/lvgl/src/widgets/../core/lv_obj_style_gen.h ****     lv_style_value_t v = lv_obj_get_style_prop(obj, part, LV_STYLE_PAD_LEFT);
 106:lvgl/lvgl/src/widgets/../core/lv_obj_style_gen.h ****     return (lv_coord_t)v.num;
 107:lvgl/lvgl/src/widgets/../core/lv_obj_style_gen.h **** }
 108:lvgl/lvgl/src/widgets/../core/lv_obj_style_gen.h **** 
 109:lvgl/lvgl/src/widgets/../core/lv_obj_style_gen.h **** static inline lv_coord_t lv_obj_get_style_pad_right(const struct _lv_obj_t * obj, uint32_t part)
 110:lvgl/lvgl/src/widgets/../core/lv_obj_style_gen.h **** {
 111:lvgl/lvgl/src/widgets/../core/lv_obj_style_gen.h ****     lv_style_value_t v = lv_obj_get_style_prop(obj, part, LV_STYLE_PAD_RIGHT);
 112:lvgl/lvgl/src/widgets/../core/lv_obj_style_gen.h ****     return (lv_coord_t)v.num;
 113:lvgl/lvgl/src/widgets/../core/lv_obj_style_gen.h **** }
 114:lvgl/lvgl/src/widgets/../core/lv_obj_style_gen.h **** 
 115:lvgl/lvgl/src/widgets/../core/lv_obj_style_gen.h **** static inline lv_coord_t lv_obj_get_style_pad_row(const struct _lv_obj_t * obj, uint32_t part)
 116:lvgl/lvgl/src/widgets/../core/lv_obj_style_gen.h **** {
 117:lvgl/lvgl/src/widgets/../core/lv_obj_style_gen.h ****     lv_style_value_t v = lv_obj_get_style_prop(obj, part, LV_STYLE_PAD_ROW);
 118:lvgl/lvgl/src/widgets/../core/lv_obj_style_gen.h ****     return (lv_coord_t)v.num;
 119:lvgl/lvgl/src/widgets/../core/lv_obj_style_gen.h **** }
 120:lvgl/lvgl/src/widgets/../core/lv_obj_style_gen.h **** 
 121:lvgl/lvgl/src/widgets/../core/lv_obj_style_gen.h **** static inline lv_coord_t lv_obj_get_style_pad_column(const struct _lv_obj_t * obj, uint32_t part)
 122:lvgl/lvgl/src/widgets/../core/lv_obj_style_gen.h **** {
 123:lvgl/lvgl/src/widgets/../core/lv_obj_style_gen.h ****     lv_style_value_t v = lv_obj_get_style_prop(obj, part, LV_STYLE_PAD_COLUMN);
 124:lvgl/lvgl/src/widgets/../core/lv_obj_style_gen.h ****     return (lv_coord_t)v.num;
 125:lvgl/lvgl/src/widgets/../core/lv_obj_style_gen.h **** }
 126:lvgl/lvgl/src/widgets/../core/lv_obj_style_gen.h **** 
 127:lvgl/lvgl/src/widgets/../core/lv_obj_style_gen.h **** static inline lv_coord_t lv_obj_get_style_radius(const struct _lv_obj_t * obj, uint32_t part)
ARM GAS  C:\Users\gx\AppData\Local\Temp\ccIqfrB9.s 			page 25


 128:lvgl/lvgl/src/widgets/../core/lv_obj_style_gen.h **** {
 129:lvgl/lvgl/src/widgets/../core/lv_obj_style_gen.h ****     lv_style_value_t v = lv_obj_get_style_prop(obj, part, LV_STYLE_RADIUS);
 130:lvgl/lvgl/src/widgets/../core/lv_obj_style_gen.h ****     return (lv_coord_t)v.num;
 131:lvgl/lvgl/src/widgets/../core/lv_obj_style_gen.h **** }
 132:lvgl/lvgl/src/widgets/../core/lv_obj_style_gen.h **** 
 133:lvgl/lvgl/src/widgets/../core/lv_obj_style_gen.h **** static inline bool lv_obj_get_style_clip_corner(const struct _lv_obj_t * obj, uint32_t part)
 134:lvgl/lvgl/src/widgets/../core/lv_obj_style_gen.h **** {
 135:lvgl/lvgl/src/widgets/../core/lv_obj_style_gen.h ****     lv_style_value_t v = lv_obj_get_style_prop(obj, part, LV_STYLE_CLIP_CORNER);
 136:lvgl/lvgl/src/widgets/../core/lv_obj_style_gen.h ****     return (bool)v.num;
 137:lvgl/lvgl/src/widgets/../core/lv_obj_style_gen.h **** }
 138:lvgl/lvgl/src/widgets/../core/lv_obj_style_gen.h **** 
 139:lvgl/lvgl/src/widgets/../core/lv_obj_style_gen.h **** static inline lv_opa_t lv_obj_get_style_opa(const struct _lv_obj_t * obj, uint32_t part)
 140:lvgl/lvgl/src/widgets/../core/lv_obj_style_gen.h **** {
 141:lvgl/lvgl/src/widgets/../core/lv_obj_style_gen.h ****     lv_style_value_t v = lv_obj_get_style_prop(obj, part, LV_STYLE_OPA);
 142:lvgl/lvgl/src/widgets/../core/lv_obj_style_gen.h ****     return (lv_opa_t)v.num;
 143:lvgl/lvgl/src/widgets/../core/lv_obj_style_gen.h **** }
 144:lvgl/lvgl/src/widgets/../core/lv_obj_style_gen.h **** 
 145:lvgl/lvgl/src/widgets/../core/lv_obj_style_gen.h **** static inline const lv_color_filter_dsc_t * lv_obj_get_style_color_filter_dsc(const struct _lv_obj_
 146:lvgl/lvgl/src/widgets/../core/lv_obj_style_gen.h **** {
 147:lvgl/lvgl/src/widgets/../core/lv_obj_style_gen.h ****     lv_style_value_t v = lv_obj_get_style_prop(obj, part, LV_STYLE_COLOR_FILTER_DSC);
 148:lvgl/lvgl/src/widgets/../core/lv_obj_style_gen.h ****     return (const lv_color_filter_dsc_t *)v.ptr;
 149:lvgl/lvgl/src/widgets/../core/lv_obj_style_gen.h **** }
 150:lvgl/lvgl/src/widgets/../core/lv_obj_style_gen.h **** 
 151:lvgl/lvgl/src/widgets/../core/lv_obj_style_gen.h **** static inline lv_opa_t lv_obj_get_style_color_filter_opa(const struct _lv_obj_t * obj, uint32_t par
 152:lvgl/lvgl/src/widgets/../core/lv_obj_style_gen.h **** {
 153:lvgl/lvgl/src/widgets/../core/lv_obj_style_gen.h ****     lv_style_value_t v = lv_obj_get_style_prop(obj, part, LV_STYLE_COLOR_FILTER_OPA);
 154:lvgl/lvgl/src/widgets/../core/lv_obj_style_gen.h ****     return (lv_opa_t)v.num;
 155:lvgl/lvgl/src/widgets/../core/lv_obj_style_gen.h **** }
 156:lvgl/lvgl/src/widgets/../core/lv_obj_style_gen.h **** 
 157:lvgl/lvgl/src/widgets/../core/lv_obj_style_gen.h **** static inline uint32_t lv_obj_get_style_anim_time(const struct _lv_obj_t * obj, uint32_t part)
 158:lvgl/lvgl/src/widgets/../core/lv_obj_style_gen.h **** {
 159:lvgl/lvgl/src/widgets/../core/lv_obj_style_gen.h ****     lv_style_value_t v = lv_obj_get_style_prop(obj, part, LV_STYLE_ANIM_TIME);
 160:lvgl/lvgl/src/widgets/../core/lv_obj_style_gen.h ****     return (uint32_t)v.num;
 161:lvgl/lvgl/src/widgets/../core/lv_obj_style_gen.h **** }
 162:lvgl/lvgl/src/widgets/../core/lv_obj_style_gen.h **** 
 163:lvgl/lvgl/src/widgets/../core/lv_obj_style_gen.h **** static inline uint32_t lv_obj_get_style_anim_speed(const struct _lv_obj_t * obj, uint32_t part)
 164:lvgl/lvgl/src/widgets/../core/lv_obj_style_gen.h **** {
 165:lvgl/lvgl/src/widgets/../core/lv_obj_style_gen.h ****     lv_style_value_t v = lv_obj_get_style_prop(obj, part, LV_STYLE_ANIM_SPEED);
 166:lvgl/lvgl/src/widgets/../core/lv_obj_style_gen.h ****     return (uint32_t)v.num;
 167:lvgl/lvgl/src/widgets/../core/lv_obj_style_gen.h **** }
 168:lvgl/lvgl/src/widgets/../core/lv_obj_style_gen.h **** 
 169:lvgl/lvgl/src/widgets/../core/lv_obj_style_gen.h **** static inline const lv_style_transition_dsc_t * lv_obj_get_style_transition(const struct _lv_obj_t 
 170:lvgl/lvgl/src/widgets/../core/lv_obj_style_gen.h **** {
 171:lvgl/lvgl/src/widgets/../core/lv_obj_style_gen.h ****     lv_style_value_t v = lv_obj_get_style_prop(obj, part, LV_STYLE_TRANSITION);
 172:lvgl/lvgl/src/widgets/../core/lv_obj_style_gen.h ****     return (const lv_style_transition_dsc_t *)v.ptr;
 173:lvgl/lvgl/src/widgets/../core/lv_obj_style_gen.h **** }
 174:lvgl/lvgl/src/widgets/../core/lv_obj_style_gen.h **** 
 175:lvgl/lvgl/src/widgets/../core/lv_obj_style_gen.h **** static inline lv_blend_mode_t lv_obj_get_style_blend_mode(const struct _lv_obj_t * obj, uint32_t pa
 176:lvgl/lvgl/src/widgets/../core/lv_obj_style_gen.h **** {
 177:lvgl/lvgl/src/widgets/../core/lv_obj_style_gen.h ****     lv_style_value_t v = lv_obj_get_style_prop(obj, part, LV_STYLE_BLEND_MODE);
 178:lvgl/lvgl/src/widgets/../core/lv_obj_style_gen.h ****     return (lv_blend_mode_t)v.num;
 179:lvgl/lvgl/src/widgets/../core/lv_obj_style_gen.h **** }
 180:lvgl/lvgl/src/widgets/../core/lv_obj_style_gen.h **** 
 181:lvgl/lvgl/src/widgets/../core/lv_obj_style_gen.h **** static inline uint16_t lv_obj_get_style_layout(const struct _lv_obj_t * obj, uint32_t part)
 182:lvgl/lvgl/src/widgets/../core/lv_obj_style_gen.h **** {
 183:lvgl/lvgl/src/widgets/../core/lv_obj_style_gen.h ****     lv_style_value_t v = lv_obj_get_style_prop(obj, part, LV_STYLE_LAYOUT);
 184:lvgl/lvgl/src/widgets/../core/lv_obj_style_gen.h ****     return (uint16_t)v.num;
ARM GAS  C:\Users\gx\AppData\Local\Temp\ccIqfrB9.s 			page 26


 185:lvgl/lvgl/src/widgets/../core/lv_obj_style_gen.h **** }
 186:lvgl/lvgl/src/widgets/../core/lv_obj_style_gen.h **** 
 187:lvgl/lvgl/src/widgets/../core/lv_obj_style_gen.h **** static inline lv_base_dir_t lv_obj_get_style_base_dir(const struct _lv_obj_t * obj, uint32_t part)
 188:lvgl/lvgl/src/widgets/../core/lv_obj_style_gen.h **** {
 189:lvgl/lvgl/src/widgets/../core/lv_obj_style_gen.h ****     lv_style_value_t v = lv_obj_get_style_prop(obj, part, LV_STYLE_BASE_DIR);
 190:lvgl/lvgl/src/widgets/../core/lv_obj_style_gen.h ****     return (lv_base_dir_t)v.num;
 191:lvgl/lvgl/src/widgets/../core/lv_obj_style_gen.h **** }
 192:lvgl/lvgl/src/widgets/../core/lv_obj_style_gen.h **** 
 193:lvgl/lvgl/src/widgets/../core/lv_obj_style_gen.h **** static inline lv_color_t lv_obj_get_style_bg_color(const struct _lv_obj_t * obj, uint32_t part)
 194:lvgl/lvgl/src/widgets/../core/lv_obj_style_gen.h **** {
 195:lvgl/lvgl/src/widgets/../core/lv_obj_style_gen.h ****     lv_style_value_t v = lv_obj_get_style_prop(obj, part, LV_STYLE_BG_COLOR);
 196:lvgl/lvgl/src/widgets/../core/lv_obj_style_gen.h ****     return v.color;
 197:lvgl/lvgl/src/widgets/../core/lv_obj_style_gen.h **** }
 198:lvgl/lvgl/src/widgets/../core/lv_obj_style_gen.h **** 
 199:lvgl/lvgl/src/widgets/../core/lv_obj_style_gen.h **** static inline lv_color_t lv_obj_get_style_bg_color_filtered(const struct _lv_obj_t * obj, uint32_t 
 200:lvgl/lvgl/src/widgets/../core/lv_obj_style_gen.h **** {
 201:lvgl/lvgl/src/widgets/../core/lv_obj_style_gen.h ****     lv_style_value_t v = lv_obj_get_style_prop(obj, part, LV_STYLE_BG_COLOR_FILTERED);
 202:lvgl/lvgl/src/widgets/../core/lv_obj_style_gen.h ****     return v.color;
 203:lvgl/lvgl/src/widgets/../core/lv_obj_style_gen.h **** }
 204:lvgl/lvgl/src/widgets/../core/lv_obj_style_gen.h **** 
 205:lvgl/lvgl/src/widgets/../core/lv_obj_style_gen.h **** static inline lv_opa_t lv_obj_get_style_bg_opa(const struct _lv_obj_t * obj, uint32_t part)
 206:lvgl/lvgl/src/widgets/../core/lv_obj_style_gen.h **** {
 207:lvgl/lvgl/src/widgets/../core/lv_obj_style_gen.h ****     lv_style_value_t v = lv_obj_get_style_prop(obj, part, LV_STYLE_BG_OPA);
 208:lvgl/lvgl/src/widgets/../core/lv_obj_style_gen.h ****     return (lv_opa_t)v.num;
 209:lvgl/lvgl/src/widgets/../core/lv_obj_style_gen.h **** }
 210:lvgl/lvgl/src/widgets/../core/lv_obj_style_gen.h **** 
 211:lvgl/lvgl/src/widgets/../core/lv_obj_style_gen.h **** static inline lv_color_t lv_obj_get_style_bg_grad_color(const struct _lv_obj_t * obj, uint32_t part
 212:lvgl/lvgl/src/widgets/../core/lv_obj_style_gen.h **** {
 213:lvgl/lvgl/src/widgets/../core/lv_obj_style_gen.h ****     lv_style_value_t v = lv_obj_get_style_prop(obj, part, LV_STYLE_BG_GRAD_COLOR);
 214:lvgl/lvgl/src/widgets/../core/lv_obj_style_gen.h ****     return v.color;
 215:lvgl/lvgl/src/widgets/../core/lv_obj_style_gen.h **** }
 216:lvgl/lvgl/src/widgets/../core/lv_obj_style_gen.h **** 
 217:lvgl/lvgl/src/widgets/../core/lv_obj_style_gen.h **** static inline lv_color_t lv_obj_get_style_bg_grad_color_filtered(const struct _lv_obj_t * obj, uint
 218:lvgl/lvgl/src/widgets/../core/lv_obj_style_gen.h **** {
 219:lvgl/lvgl/src/widgets/../core/lv_obj_style_gen.h ****     lv_style_value_t v = lv_obj_get_style_prop(obj, part, LV_STYLE_BG_GRAD_COLOR_FILTERED);
 220:lvgl/lvgl/src/widgets/../core/lv_obj_style_gen.h ****     return v.color;
 221:lvgl/lvgl/src/widgets/../core/lv_obj_style_gen.h **** }
 222:lvgl/lvgl/src/widgets/../core/lv_obj_style_gen.h **** 
 223:lvgl/lvgl/src/widgets/../core/lv_obj_style_gen.h **** static inline lv_grad_dir_t lv_obj_get_style_bg_grad_dir(const struct _lv_obj_t * obj, uint32_t par
 224:lvgl/lvgl/src/widgets/../core/lv_obj_style_gen.h **** {
 225:lvgl/lvgl/src/widgets/../core/lv_obj_style_gen.h ****     lv_style_value_t v = lv_obj_get_style_prop(obj, part, LV_STYLE_BG_GRAD_DIR);
 226:lvgl/lvgl/src/widgets/../core/lv_obj_style_gen.h ****     return (lv_grad_dir_t)v.num;
 227:lvgl/lvgl/src/widgets/../core/lv_obj_style_gen.h **** }
 228:lvgl/lvgl/src/widgets/../core/lv_obj_style_gen.h **** 
 229:lvgl/lvgl/src/widgets/../core/lv_obj_style_gen.h **** static inline lv_coord_t lv_obj_get_style_bg_main_stop(const struct _lv_obj_t * obj, uint32_t part)
 230:lvgl/lvgl/src/widgets/../core/lv_obj_style_gen.h **** {
 231:lvgl/lvgl/src/widgets/../core/lv_obj_style_gen.h ****     lv_style_value_t v = lv_obj_get_style_prop(obj, part, LV_STYLE_BG_MAIN_STOP);
 232:lvgl/lvgl/src/widgets/../core/lv_obj_style_gen.h ****     return (lv_coord_t)v.num;
 233:lvgl/lvgl/src/widgets/../core/lv_obj_style_gen.h **** }
 234:lvgl/lvgl/src/widgets/../core/lv_obj_style_gen.h **** 
 235:lvgl/lvgl/src/widgets/../core/lv_obj_style_gen.h **** static inline lv_coord_t lv_obj_get_style_bg_grad_stop(const struct _lv_obj_t * obj, uint32_t part)
 236:lvgl/lvgl/src/widgets/../core/lv_obj_style_gen.h **** {
 237:lvgl/lvgl/src/widgets/../core/lv_obj_style_gen.h ****     lv_style_value_t v = lv_obj_get_style_prop(obj, part, LV_STYLE_BG_GRAD_STOP);
 238:lvgl/lvgl/src/widgets/../core/lv_obj_style_gen.h ****     return (lv_coord_t)v.num;
 239:lvgl/lvgl/src/widgets/../core/lv_obj_style_gen.h **** }
 240:lvgl/lvgl/src/widgets/../core/lv_obj_style_gen.h **** 
 241:lvgl/lvgl/src/widgets/../core/lv_obj_style_gen.h **** static inline const void * lv_obj_get_style_bg_img_src(const struct _lv_obj_t * obj, uint32_t part)
ARM GAS  C:\Users\gx\AppData\Local\Temp\ccIqfrB9.s 			page 27


 242:lvgl/lvgl/src/widgets/../core/lv_obj_style_gen.h **** {
 243:lvgl/lvgl/src/widgets/../core/lv_obj_style_gen.h ****     lv_style_value_t v = lv_obj_get_style_prop(obj, part, LV_STYLE_BG_IMG_SRC);
 244:lvgl/lvgl/src/widgets/../core/lv_obj_style_gen.h ****     return (const void *)v.ptr;
 245:lvgl/lvgl/src/widgets/../core/lv_obj_style_gen.h **** }
 246:lvgl/lvgl/src/widgets/../core/lv_obj_style_gen.h **** 
 247:lvgl/lvgl/src/widgets/../core/lv_obj_style_gen.h **** static inline lv_opa_t lv_obj_get_style_bg_img_opa(const struct _lv_obj_t * obj, uint32_t part)
 248:lvgl/lvgl/src/widgets/../core/lv_obj_style_gen.h **** {
 249:lvgl/lvgl/src/widgets/../core/lv_obj_style_gen.h ****     lv_style_value_t v = lv_obj_get_style_prop(obj, part, LV_STYLE_BG_IMG_OPA);
 250:lvgl/lvgl/src/widgets/../core/lv_obj_style_gen.h ****     return (lv_opa_t)v.num;
 251:lvgl/lvgl/src/widgets/../core/lv_obj_style_gen.h **** }
 252:lvgl/lvgl/src/widgets/../core/lv_obj_style_gen.h **** 
 253:lvgl/lvgl/src/widgets/../core/lv_obj_style_gen.h **** static inline lv_color_t lv_obj_get_style_bg_img_recolor(const struct _lv_obj_t * obj, uint32_t par
 254:lvgl/lvgl/src/widgets/../core/lv_obj_style_gen.h **** {
 255:lvgl/lvgl/src/widgets/../core/lv_obj_style_gen.h ****     lv_style_value_t v = lv_obj_get_style_prop(obj, part, LV_STYLE_BG_IMG_RECOLOR);
 256:lvgl/lvgl/src/widgets/../core/lv_obj_style_gen.h ****     return v.color;
 257:lvgl/lvgl/src/widgets/../core/lv_obj_style_gen.h **** }
 258:lvgl/lvgl/src/widgets/../core/lv_obj_style_gen.h **** 
 259:lvgl/lvgl/src/widgets/../core/lv_obj_style_gen.h **** static inline lv_color_t lv_obj_get_style_bg_img_recolor_filtered(const struct _lv_obj_t * obj, uin
 260:lvgl/lvgl/src/widgets/../core/lv_obj_style_gen.h **** {
 261:lvgl/lvgl/src/widgets/../core/lv_obj_style_gen.h ****     lv_style_value_t v = lv_obj_get_style_prop(obj, part, LV_STYLE_BG_IMG_RECOLOR_FILTERED);
 262:lvgl/lvgl/src/widgets/../core/lv_obj_style_gen.h ****     return v.color;
 263:lvgl/lvgl/src/widgets/../core/lv_obj_style_gen.h **** }
 264:lvgl/lvgl/src/widgets/../core/lv_obj_style_gen.h **** 
 265:lvgl/lvgl/src/widgets/../core/lv_obj_style_gen.h **** static inline lv_opa_t lv_obj_get_style_bg_img_recolor_opa(const struct _lv_obj_t * obj, uint32_t p
 266:lvgl/lvgl/src/widgets/../core/lv_obj_style_gen.h **** {
 267:lvgl/lvgl/src/widgets/../core/lv_obj_style_gen.h ****     lv_style_value_t v = lv_obj_get_style_prop(obj, part, LV_STYLE_BG_IMG_RECOLOR_OPA);
 268:lvgl/lvgl/src/widgets/../core/lv_obj_style_gen.h ****     return (lv_opa_t)v.num;
 269:lvgl/lvgl/src/widgets/../core/lv_obj_style_gen.h **** }
 270:lvgl/lvgl/src/widgets/../core/lv_obj_style_gen.h **** 
 271:lvgl/lvgl/src/widgets/../core/lv_obj_style_gen.h **** static inline bool lv_obj_get_style_bg_img_tiled(const struct _lv_obj_t * obj, uint32_t part)
 272:lvgl/lvgl/src/widgets/../core/lv_obj_style_gen.h **** {
 273:lvgl/lvgl/src/widgets/../core/lv_obj_style_gen.h ****     lv_style_value_t v = lv_obj_get_style_prop(obj, part, LV_STYLE_BG_IMG_TILED);
 274:lvgl/lvgl/src/widgets/../core/lv_obj_style_gen.h ****     return (bool)v.num;
 275:lvgl/lvgl/src/widgets/../core/lv_obj_style_gen.h **** }
 276:lvgl/lvgl/src/widgets/../core/lv_obj_style_gen.h **** 
 277:lvgl/lvgl/src/widgets/../core/lv_obj_style_gen.h **** static inline lv_color_t lv_obj_get_style_border_color(const struct _lv_obj_t * obj, uint32_t part)
 278:lvgl/lvgl/src/widgets/../core/lv_obj_style_gen.h **** {
 279:lvgl/lvgl/src/widgets/../core/lv_obj_style_gen.h ****     lv_style_value_t v = lv_obj_get_style_prop(obj, part, LV_STYLE_BORDER_COLOR);
 280:lvgl/lvgl/src/widgets/../core/lv_obj_style_gen.h ****     return v.color;
 281:lvgl/lvgl/src/widgets/../core/lv_obj_style_gen.h **** }
 282:lvgl/lvgl/src/widgets/../core/lv_obj_style_gen.h **** 
 283:lvgl/lvgl/src/widgets/../core/lv_obj_style_gen.h **** static inline lv_color_t lv_obj_get_style_border_color_filtered(const struct _lv_obj_t * obj, uint3
 284:lvgl/lvgl/src/widgets/../core/lv_obj_style_gen.h **** {
 285:lvgl/lvgl/src/widgets/../core/lv_obj_style_gen.h ****     lv_style_value_t v = lv_obj_get_style_prop(obj, part, LV_STYLE_BORDER_COLOR_FILTERED);
 286:lvgl/lvgl/src/widgets/../core/lv_obj_style_gen.h ****     return v.color;
 287:lvgl/lvgl/src/widgets/../core/lv_obj_style_gen.h **** }
 288:lvgl/lvgl/src/widgets/../core/lv_obj_style_gen.h **** 
 289:lvgl/lvgl/src/widgets/../core/lv_obj_style_gen.h **** static inline lv_opa_t lv_obj_get_style_border_opa(const struct _lv_obj_t * obj, uint32_t part)
 290:lvgl/lvgl/src/widgets/../core/lv_obj_style_gen.h **** {
 291:lvgl/lvgl/src/widgets/../core/lv_obj_style_gen.h ****     lv_style_value_t v = lv_obj_get_style_prop(obj, part, LV_STYLE_BORDER_OPA);
 292:lvgl/lvgl/src/widgets/../core/lv_obj_style_gen.h ****     return (lv_opa_t)v.num;
 293:lvgl/lvgl/src/widgets/../core/lv_obj_style_gen.h **** }
 294:lvgl/lvgl/src/widgets/../core/lv_obj_style_gen.h **** 
 295:lvgl/lvgl/src/widgets/../core/lv_obj_style_gen.h **** static inline lv_coord_t lv_obj_get_style_border_width(const struct _lv_obj_t * obj, uint32_t part)
 296:lvgl/lvgl/src/widgets/../core/lv_obj_style_gen.h **** {
 297:lvgl/lvgl/src/widgets/../core/lv_obj_style_gen.h ****     lv_style_value_t v = lv_obj_get_style_prop(obj, part, LV_STYLE_BORDER_WIDTH);
 298:lvgl/lvgl/src/widgets/../core/lv_obj_style_gen.h ****     return (lv_coord_t)v.num;
ARM GAS  C:\Users\gx\AppData\Local\Temp\ccIqfrB9.s 			page 28


 299:lvgl/lvgl/src/widgets/../core/lv_obj_style_gen.h **** }
 300:lvgl/lvgl/src/widgets/../core/lv_obj_style_gen.h **** 
 301:lvgl/lvgl/src/widgets/../core/lv_obj_style_gen.h **** static inline lv_border_side_t lv_obj_get_style_border_side(const struct _lv_obj_t * obj, uint32_t 
 302:lvgl/lvgl/src/widgets/../core/lv_obj_style_gen.h **** {
 303:lvgl/lvgl/src/widgets/../core/lv_obj_style_gen.h ****     lv_style_value_t v = lv_obj_get_style_prop(obj, part, LV_STYLE_BORDER_SIDE);
 304:lvgl/lvgl/src/widgets/../core/lv_obj_style_gen.h ****     return (lv_border_side_t)v.num;
 305:lvgl/lvgl/src/widgets/../core/lv_obj_style_gen.h **** }
 306:lvgl/lvgl/src/widgets/../core/lv_obj_style_gen.h **** 
 307:lvgl/lvgl/src/widgets/../core/lv_obj_style_gen.h **** static inline bool lv_obj_get_style_border_post(const struct _lv_obj_t * obj, uint32_t part)
 308:lvgl/lvgl/src/widgets/../core/lv_obj_style_gen.h **** {
 309:lvgl/lvgl/src/widgets/../core/lv_obj_style_gen.h ****     lv_style_value_t v = lv_obj_get_style_prop(obj, part, LV_STYLE_BORDER_POST);
 310:lvgl/lvgl/src/widgets/../core/lv_obj_style_gen.h ****     return (bool)v.num;
 311:lvgl/lvgl/src/widgets/../core/lv_obj_style_gen.h **** }
 312:lvgl/lvgl/src/widgets/../core/lv_obj_style_gen.h **** 
 313:lvgl/lvgl/src/widgets/../core/lv_obj_style_gen.h **** static inline lv_color_t lv_obj_get_style_text_color(const struct _lv_obj_t * obj, uint32_t part)
 314:lvgl/lvgl/src/widgets/../core/lv_obj_style_gen.h **** {
 315:lvgl/lvgl/src/widgets/../core/lv_obj_style_gen.h ****     lv_style_value_t v = lv_obj_get_style_prop(obj, part, LV_STYLE_TEXT_COLOR);
 316:lvgl/lvgl/src/widgets/../core/lv_obj_style_gen.h ****     return v.color;
 317:lvgl/lvgl/src/widgets/../core/lv_obj_style_gen.h **** }
 318:lvgl/lvgl/src/widgets/../core/lv_obj_style_gen.h **** 
 319:lvgl/lvgl/src/widgets/../core/lv_obj_style_gen.h **** static inline lv_color_t lv_obj_get_style_text_color_filtered(const struct _lv_obj_t * obj, uint32_
 320:lvgl/lvgl/src/widgets/../core/lv_obj_style_gen.h **** {
 321:lvgl/lvgl/src/widgets/../core/lv_obj_style_gen.h ****     lv_style_value_t v = lv_obj_get_style_prop(obj, part, LV_STYLE_TEXT_COLOR_FILTERED);
 322:lvgl/lvgl/src/widgets/../core/lv_obj_style_gen.h ****     return v.color;
 323:lvgl/lvgl/src/widgets/../core/lv_obj_style_gen.h **** }
 324:lvgl/lvgl/src/widgets/../core/lv_obj_style_gen.h **** 
 325:lvgl/lvgl/src/widgets/../core/lv_obj_style_gen.h **** static inline lv_opa_t lv_obj_get_style_text_opa(const struct _lv_obj_t * obj, uint32_t part)
 326:lvgl/lvgl/src/widgets/../core/lv_obj_style_gen.h **** {
 327:lvgl/lvgl/src/widgets/../core/lv_obj_style_gen.h ****     lv_style_value_t v = lv_obj_get_style_prop(obj, part, LV_STYLE_TEXT_OPA);
 328:lvgl/lvgl/src/widgets/../core/lv_obj_style_gen.h ****     return (lv_opa_t)v.num;
 329:lvgl/lvgl/src/widgets/../core/lv_obj_style_gen.h **** }
 330:lvgl/lvgl/src/widgets/../core/lv_obj_style_gen.h **** 
 331:lvgl/lvgl/src/widgets/../core/lv_obj_style_gen.h **** static inline const lv_font_t * lv_obj_get_style_text_font(const struct _lv_obj_t * obj, uint32_t p
 149              		.loc 2 331 33 view .LVU32
 150              	.LBB58:
 332:lvgl/lvgl/src/widgets/../core/lv_obj_style_gen.h **** {
 333:lvgl/lvgl/src/widgets/../core/lv_obj_style_gen.h ****     lv_style_value_t v = lv_obj_get_style_prop(obj, part, LV_STYLE_TEXT_FONT);
 151              		.loc 2 333 5 view .LVU33
 152              		.loc 2 333 26 is_stmt 0 view .LVU34
 153 001e 41F25942 		movw	r2, #5209
 154 0022 0021     		movs	r1, #0
 155 0024 3046     		mov	r0, r6
 156 0026 FFF7FEFF 		bl	lv_obj_get_style_prop
 157              	.LVL12:
 334:lvgl/lvgl/src/widgets/../core/lv_obj_style_gen.h ****     return (const lv_font_t *)v.ptr;
 158              		.loc 2 334 5 is_stmt 1 view .LVU35
 159              		.loc 2 334 5 is_stmt 0 view .LVU36
 160              	.LBE58:
 161              	.LBE57:
1067:lvgl/lvgl/src/widgets/lv_dropdown.c ****     lv_coord_t line_space = lv_obj_get_style_text_line_space(label, LV_PART_MAIN);
 162              		.loc 1 1067 5 is_stmt 1 view .LVU37
 163              	.LBB59:
 164              	.LBI59:
 165              		.file 3 "d:\\practise\\f407_disc\\lvgl\\lvgl\\src\\font\\lv_font.h"
   1:d:\practise\f407_disc\lvgl\lvgl\src\font\lv_font.h **** /**
   2:d:\practise\f407_disc\lvgl\lvgl\src\font\lv_font.h ****  * @file lv_font.h
   3:d:\practise\f407_disc\lvgl\lvgl\src\font\lv_font.h ****  *
ARM GAS  C:\Users\gx\AppData\Local\Temp\ccIqfrB9.s 			page 29


   4:d:\practise\f407_disc\lvgl\lvgl\src\font\lv_font.h ****  */
   5:d:\practise\f407_disc\lvgl\lvgl\src\font\lv_font.h **** 
   6:d:\practise\f407_disc\lvgl\lvgl\src\font\lv_font.h **** #ifndef LV_FONT_H
   7:d:\practise\f407_disc\lvgl\lvgl\src\font\lv_font.h **** #define LV_FONT_H
   8:d:\practise\f407_disc\lvgl\lvgl\src\font\lv_font.h **** 
   9:d:\practise\f407_disc\lvgl\lvgl\src\font\lv_font.h **** #ifdef __cplusplus
  10:d:\practise\f407_disc\lvgl\lvgl\src\font\lv_font.h **** extern "C" {
  11:d:\practise\f407_disc\lvgl\lvgl\src\font\lv_font.h **** #endif
  12:d:\practise\f407_disc\lvgl\lvgl\src\font\lv_font.h **** 
  13:d:\practise\f407_disc\lvgl\lvgl\src\font\lv_font.h **** /*********************
  14:d:\practise\f407_disc\lvgl\lvgl\src\font\lv_font.h ****  *      INCLUDES
  15:d:\practise\f407_disc\lvgl\lvgl\src\font\lv_font.h ****  *********************/
  16:d:\practise\f407_disc\lvgl\lvgl\src\font\lv_font.h **** #include "../lv_conf_internal.h"
  17:d:\practise\f407_disc\lvgl\lvgl\src\font\lv_font.h **** #include <stdint.h>
  18:d:\practise\f407_disc\lvgl\lvgl\src\font\lv_font.h **** #include <stddef.h>
  19:d:\practise\f407_disc\lvgl\lvgl\src\font\lv_font.h **** #include <stdbool.h>
  20:d:\practise\f407_disc\lvgl\lvgl\src\font\lv_font.h **** 
  21:d:\practise\f407_disc\lvgl\lvgl\src\font\lv_font.h **** #include "lv_symbol_def.h"
  22:d:\practise\f407_disc\lvgl\lvgl\src\font\lv_font.h **** #include "../misc/lv_area.h"
  23:d:\practise\f407_disc\lvgl\lvgl\src\font\lv_font.h **** 
  24:d:\practise\f407_disc\lvgl\lvgl\src\font\lv_font.h **** /*********************
  25:d:\practise\f407_disc\lvgl\lvgl\src\font\lv_font.h ****  *      DEFINES
  26:d:\practise\f407_disc\lvgl\lvgl\src\font\lv_font.h ****  *********************/
  27:d:\practise\f407_disc\lvgl\lvgl\src\font\lv_font.h **** 
  28:d:\practise\f407_disc\lvgl\lvgl\src\font\lv_font.h **** /**********************
  29:d:\practise\f407_disc\lvgl\lvgl\src\font\lv_font.h ****  *      TYPEDEFS
  30:d:\practise\f407_disc\lvgl\lvgl\src\font\lv_font.h ****  **********************/
  31:d:\practise\f407_disc\lvgl\lvgl\src\font\lv_font.h **** 
  32:d:\practise\f407_disc\lvgl\lvgl\src\font\lv_font.h **** /*------------------
  33:d:\practise\f407_disc\lvgl\lvgl\src\font\lv_font.h ****  * General types
  34:d:\practise\f407_disc\lvgl\lvgl\src\font\lv_font.h ****  *-----------------*/
  35:d:\practise\f407_disc\lvgl\lvgl\src\font\lv_font.h **** 
  36:d:\practise\f407_disc\lvgl\lvgl\src\font\lv_font.h **** /** Describes the properties of a glyph.*/
  37:d:\practise\f407_disc\lvgl\lvgl\src\font\lv_font.h **** typedef struct {
  38:d:\practise\f407_disc\lvgl\lvgl\src\font\lv_font.h ****     uint16_t adv_w; /**< The glyph needs this space. Draw the next glyph after this width.*/
  39:d:\practise\f407_disc\lvgl\lvgl\src\font\lv_font.h ****     uint16_t box_w;  /**< Width of the glyph's bounding box*/
  40:d:\practise\f407_disc\lvgl\lvgl\src\font\lv_font.h ****     uint16_t box_h;  /**< Height of the glyph's bounding box*/
  41:d:\practise\f407_disc\lvgl\lvgl\src\font\lv_font.h ****     int16_t ofs_x;   /**< x offset of the bounding box*/
  42:d:\practise\f407_disc\lvgl\lvgl\src\font\lv_font.h ****     int16_t ofs_y;  /**< y offset of the bounding box*/
  43:d:\practise\f407_disc\lvgl\lvgl\src\font\lv_font.h ****     uint8_t bpp;   /**< Bit-per-pixel: 1, 2, 4, 8*/
  44:d:\practise\f407_disc\lvgl\lvgl\src\font\lv_font.h **** } lv_font_glyph_dsc_t;
  45:d:\practise\f407_disc\lvgl\lvgl\src\font\lv_font.h **** 
  46:d:\practise\f407_disc\lvgl\lvgl\src\font\lv_font.h **** /** The bitmaps might be upscaled by 3 to achieve subpixel rendering.*/
  47:d:\practise\f407_disc\lvgl\lvgl\src\font\lv_font.h **** enum {
  48:d:\practise\f407_disc\lvgl\lvgl\src\font\lv_font.h ****     LV_FONT_SUBPX_NONE,
  49:d:\practise\f407_disc\lvgl\lvgl\src\font\lv_font.h ****     LV_FONT_SUBPX_HOR,
  50:d:\practise\f407_disc\lvgl\lvgl\src\font\lv_font.h ****     LV_FONT_SUBPX_VER,
  51:d:\practise\f407_disc\lvgl\lvgl\src\font\lv_font.h ****     LV_FONT_SUBPX_BOTH,
  52:d:\practise\f407_disc\lvgl\lvgl\src\font\lv_font.h **** };
  53:d:\practise\f407_disc\lvgl\lvgl\src\font\lv_font.h **** 
  54:d:\practise\f407_disc\lvgl\lvgl\src\font\lv_font.h **** typedef uint8_t lv_font_subpx_t;
  55:d:\practise\f407_disc\lvgl\lvgl\src\font\lv_font.h **** 
  56:d:\practise\f407_disc\lvgl\lvgl\src\font\lv_font.h **** struct _lv_font_t;
  57:d:\practise\f407_disc\lvgl\lvgl\src\font\lv_font.h **** 
  58:d:\practise\f407_disc\lvgl\lvgl\src\font\lv_font.h **** /** Describe the properties of a font*/
  59:d:\practise\f407_disc\lvgl\lvgl\src\font\lv_font.h **** typedef struct _lv_font_t {
  60:d:\practise\f407_disc\lvgl\lvgl\src\font\lv_font.h ****     /** Get a glyph's descriptor from a font*/
ARM GAS  C:\Users\gx\AppData\Local\Temp\ccIqfrB9.s 			page 30


  61:d:\practise\f407_disc\lvgl\lvgl\src\font\lv_font.h ****     bool (*get_glyph_dsc)(const struct _lv_font_t *, lv_font_glyph_dsc_t *, uint32_t letter, uint32
  62:d:\practise\f407_disc\lvgl\lvgl\src\font\lv_font.h **** 
  63:d:\practise\f407_disc\lvgl\lvgl\src\font\lv_font.h ****     /** Get a glyph's bitmap from a font*/
  64:d:\practise\f407_disc\lvgl\lvgl\src\font\lv_font.h ****     const uint8_t * (*get_glyph_bitmap)(const struct _lv_font_t *, uint32_t);
  65:d:\practise\f407_disc\lvgl\lvgl\src\font\lv_font.h **** 
  66:d:\practise\f407_disc\lvgl\lvgl\src\font\lv_font.h ****     /*Pointer to the font in a font pack (must have the same line height)*/
  67:d:\practise\f407_disc\lvgl\lvgl\src\font\lv_font.h ****     lv_coord_t line_height;         /**< The real line height where any text fits*/
  68:d:\practise\f407_disc\lvgl\lvgl\src\font\lv_font.h ****     lv_coord_t base_line;           /**< Base line measured from the top of the line_height*/
  69:d:\practise\f407_disc\lvgl\lvgl\src\font\lv_font.h ****     uint8_t subpx  : 2;             /**< An element of `lv_font_subpx_t`*/
  70:d:\practise\f407_disc\lvgl\lvgl\src\font\lv_font.h **** 
  71:d:\practise\f407_disc\lvgl\lvgl\src\font\lv_font.h ****     int8_t underline_position;      /**< Distance between the top of the underline and base line (<
  72:d:\practise\f407_disc\lvgl\lvgl\src\font\lv_font.h ****     int8_t underline_thickness;     /**< Thickness of the underline*/
  73:d:\practise\f407_disc\lvgl\lvgl\src\font\lv_font.h **** 
  74:d:\practise\f407_disc\lvgl\lvgl\src\font\lv_font.h ****     const void * dsc;                     /**< Store implementation specific or run_time data or ca
  75:d:\practise\f407_disc\lvgl\lvgl\src\font\lv_font.h **** #if LV_USE_USER_DATA
  76:d:\practise\f407_disc\lvgl\lvgl\src\font\lv_font.h ****     void * user_data;               /**< Custom user data for font.*/
  77:d:\practise\f407_disc\lvgl\lvgl\src\font\lv_font.h **** #endif
  78:d:\practise\f407_disc\lvgl\lvgl\src\font\lv_font.h **** 
  79:d:\practise\f407_disc\lvgl\lvgl\src\font\lv_font.h **** } lv_font_t;
  80:d:\practise\f407_disc\lvgl\lvgl\src\font\lv_font.h **** 
  81:d:\practise\f407_disc\lvgl\lvgl\src\font\lv_font.h **** /**********************
  82:d:\practise\f407_disc\lvgl\lvgl\src\font\lv_font.h ****  * GLOBAL PROTOTYPES
  83:d:\practise\f407_disc\lvgl\lvgl\src\font\lv_font.h ****  **********************/
  84:d:\practise\f407_disc\lvgl\lvgl\src\font\lv_font.h **** 
  85:d:\practise\f407_disc\lvgl\lvgl\src\font\lv_font.h **** /**
  86:d:\practise\f407_disc\lvgl\lvgl\src\font\lv_font.h ****  * Return with the bitmap of a font.
  87:d:\practise\f407_disc\lvgl\lvgl\src\font\lv_font.h ****  * @param font_p pointer to a font
  88:d:\practise\f407_disc\lvgl\lvgl\src\font\lv_font.h ****  * @param letter an UNICODE character code
  89:d:\practise\f407_disc\lvgl\lvgl\src\font\lv_font.h ****  * @return pointer to the bitmap of the letter
  90:d:\practise\f407_disc\lvgl\lvgl\src\font\lv_font.h ****  */
  91:d:\practise\f407_disc\lvgl\lvgl\src\font\lv_font.h **** const uint8_t * lv_font_get_glyph_bitmap(const lv_font_t * font_p, uint32_t letter);
  92:d:\practise\f407_disc\lvgl\lvgl\src\font\lv_font.h **** 
  93:d:\practise\f407_disc\lvgl\lvgl\src\font\lv_font.h **** /**
  94:d:\practise\f407_disc\lvgl\lvgl\src\font\lv_font.h ****  * Get the descriptor of a glyph
  95:d:\practise\f407_disc\lvgl\lvgl\src\font\lv_font.h ****  * @param font_p pointer to font
  96:d:\practise\f407_disc\lvgl\lvgl\src\font\lv_font.h ****  * @param dsc_out store the result descriptor here
  97:d:\practise\f407_disc\lvgl\lvgl\src\font\lv_font.h ****  * @param letter an UNICODE letter code
  98:d:\practise\f407_disc\lvgl\lvgl\src\font\lv_font.h ****  * @return true: descriptor is successfully loaded into `dsc_out`.
  99:d:\practise\f407_disc\lvgl\lvgl\src\font\lv_font.h ****  *         false: the letter was not found, no data is loaded to `dsc_out`
 100:d:\practise\f407_disc\lvgl\lvgl\src\font\lv_font.h ****  */
 101:d:\practise\f407_disc\lvgl\lvgl\src\font\lv_font.h **** bool lv_font_get_glyph_dsc(const lv_font_t * font_p, lv_font_glyph_dsc_t * dsc_out, uint32_t letter
 102:d:\practise\f407_disc\lvgl\lvgl\src\font\lv_font.h ****                            uint32_t letter_next);
 103:d:\practise\f407_disc\lvgl\lvgl\src\font\lv_font.h **** 
 104:d:\practise\f407_disc\lvgl\lvgl\src\font\lv_font.h **** /**
 105:d:\practise\f407_disc\lvgl\lvgl\src\font\lv_font.h ****  * Get the width of a glyph with kerning
 106:d:\practise\f407_disc\lvgl\lvgl\src\font\lv_font.h ****  * @param font pointer to a font
 107:d:\practise\f407_disc\lvgl\lvgl\src\font\lv_font.h ****  * @param letter an UNICODE letter
 108:d:\practise\f407_disc\lvgl\lvgl\src\font\lv_font.h ****  * @param letter_next the next letter after `letter`. Used for kerning
 109:d:\practise\f407_disc\lvgl\lvgl\src\font\lv_font.h ****  * @return the width of the glyph
 110:d:\practise\f407_disc\lvgl\lvgl\src\font\lv_font.h ****  */
 111:d:\practise\f407_disc\lvgl\lvgl\src\font\lv_font.h **** uint16_t lv_font_get_glyph_width(const lv_font_t * font, uint32_t letter, uint32_t letter_next);
 112:d:\practise\f407_disc\lvgl\lvgl\src\font\lv_font.h **** 
 113:d:\practise\f407_disc\lvgl\lvgl\src\font\lv_font.h **** /**
 114:d:\practise\f407_disc\lvgl\lvgl\src\font\lv_font.h ****  * Get the line height of a font. All characters fit into this height
 115:d:\practise\f407_disc\lvgl\lvgl\src\font\lv_font.h ****  * @param font_p pointer to a font
 116:d:\practise\f407_disc\lvgl\lvgl\src\font\lv_font.h ****  * @return the height of a font
 117:d:\practise\f407_disc\lvgl\lvgl\src\font\lv_font.h ****  */
ARM GAS  C:\Users\gx\AppData\Local\Temp\ccIqfrB9.s 			page 31


 118:d:\practise\f407_disc\lvgl\lvgl\src\font\lv_font.h **** static inline lv_coord_t lv_font_get_line_height(const lv_font_t * font_p)
 166              		.loc 3 118 26 view .LVU38
 167              	.LBB60:
 119:d:\practise\f407_disc\lvgl\lvgl\src\font\lv_font.h **** {
 120:d:\practise\f407_disc\lvgl\lvgl\src\font\lv_font.h ****     return font_p->line_height;
 168              		.loc 3 120 5 view .LVU39
 169              		.loc 3 120 18 is_stmt 0 view .LVU40
 170 002a B0F90850 		ldrsh	r5, [r0, #8]
 171              	.LVL13:
 172              		.loc 3 120 18 view .LVU41
 173              	.LBE60:
 174              	.LBE59:
1068:lvgl/lvgl/src/widgets/lv_dropdown.c ****     lv_coord_t unit_h = font_h + line_space;
 175              		.loc 1 1068 5 is_stmt 1 view .LVU42
 176              	.LBB61:
 177              	.LBI61:
 335:lvgl/lvgl/src/widgets/../core/lv_obj_style_gen.h **** }
 336:lvgl/lvgl/src/widgets/../core/lv_obj_style_gen.h **** 
 337:lvgl/lvgl/src/widgets/../core/lv_obj_style_gen.h **** static inline lv_coord_t lv_obj_get_style_text_letter_space(const struct _lv_obj_t * obj, uint32_t 
 338:lvgl/lvgl/src/widgets/../core/lv_obj_style_gen.h **** {
 339:lvgl/lvgl/src/widgets/../core/lv_obj_style_gen.h ****     lv_style_value_t v = lv_obj_get_style_prop(obj, part, LV_STYLE_TEXT_LETTER_SPACE);
 340:lvgl/lvgl/src/widgets/../core/lv_obj_style_gen.h ****     return (lv_coord_t)v.num;
 341:lvgl/lvgl/src/widgets/../core/lv_obj_style_gen.h **** }
 342:lvgl/lvgl/src/widgets/../core/lv_obj_style_gen.h **** 
 343:lvgl/lvgl/src/widgets/../core/lv_obj_style_gen.h **** static inline lv_coord_t lv_obj_get_style_text_line_space(const struct _lv_obj_t * obj, uint32_t pa
 178              		.loc 2 343 26 view .LVU43
 179              	.LBB62:
 344:lvgl/lvgl/src/widgets/../core/lv_obj_style_gen.h **** {
 345:lvgl/lvgl/src/widgets/../core/lv_obj_style_gen.h ****     lv_style_value_t v = lv_obj_get_style_prop(obj, part, LV_STYLE_TEXT_LINE_SPACE);
 180              		.loc 2 345 5 view .LVU44
 181              		.loc 2 345 26 is_stmt 0 view .LVU45
 182 002e 41F25B42 		movw	r2, #5211
 183 0032 0021     		movs	r1, #0
 184 0034 3046     		mov	r0, r6
 185              	.LVL14:
 186              		.loc 2 345 26 view .LVU46
 187 0036 FFF7FEFF 		bl	lv_obj_get_style_prop
 188              	.LVL15:
 346:lvgl/lvgl/src/widgets/../core/lv_obj_style_gen.h ****     return (lv_coord_t)v.num;
 189              		.loc 2 346 5 is_stmt 1 view .LVU47
 190              		.loc 2 346 5 is_stmt 0 view .LVU48
 191              	.LBE62:
 192              	.LBE61:
1069:lvgl/lvgl/src/widgets/lv_dropdown.c ****     lv_coord_t line_y1 = dropdown->sel_opt_id * unit_h;
 193              		.loc 1 1069 5 is_stmt 1 view .LVU49
1069:lvgl/lvgl/src/widgets/lv_dropdown.c ****     lv_coord_t line_y1 = dropdown->sel_opt_id * unit_h;
 194              		.loc 1 1069 32 is_stmt 0 view .LVU50
 195 003a 0544     		add	r5, r5, r0
 196              	.LVL16:
1070:lvgl/lvgl/src/widgets/lv_dropdown.c **** 
 197              		.loc 1 1070 5 is_stmt 1 view .LVU51
1070:lvgl/lvgl/src/widgets/lv_dropdown.c **** 
 198              		.loc 1 1070 34 is_stmt 0 view .LVU52
 199 003c E18E     		ldrh	r1, [r4, #54]
1070:lvgl/lvgl/src/widgets/lv_dropdown.c **** 
 200              		.loc 1 1070 16 view .LVU53
 201 003e 15FB01F1 		smulbb	r1, r5, r1
ARM GAS  C:\Users\gx\AppData\Local\Temp\ccIqfrB9.s 			page 32


 202              	.LVL17:
1073:lvgl/lvgl/src/widgets/lv_dropdown.c ****     lv_obj_invalidate(dropdown->list);
 203              		.loc 1 1073 5 is_stmt 1 view .LVU54
 204 0042 0022     		movs	r2, #0
 205 0044 09B2     		sxth	r1, r1
1073:lvgl/lvgl/src/widgets/lv_dropdown.c ****     lv_obj_invalidate(dropdown->list);
 206              		.loc 1 1073 5 is_stmt 0 view .LVU55
 207 0046 606A     		ldr	r0, [r4, #36]
 208              	.LVL18:
1073:lvgl/lvgl/src/widgets/lv_dropdown.c ****     lv_obj_invalidate(dropdown->list);
 209              		.loc 1 1073 5 view .LVU56
 210 0048 FFF7FEFF 		bl	lv_obj_scroll_to_y
 211              	.LVL19:
1074:lvgl/lvgl/src/widgets/lv_dropdown.c **** }
 212              		.loc 1 1074 5 is_stmt 1 view .LVU57
 213 004c 606A     		ldr	r0, [r4, #36]
 214 004e FFF7FEFF 		bl	lv_obj_invalidate
 215              	.LVL20:
 216 0052 E3E7     		b	.L8
 217              		.cfi_endproc
 218              	.LFE194:
 220              		.section	.text.get_id_on_point,"ax",%progbits
 221              		.align	1
 222              		.syntax unified
 223              		.thumb
 224              		.thumb_func
 225              		.fpu fpv4-sp-d16
 227              	get_id_on_point:
 228              	.LVL21:
 229              	.LFB193:
1034:lvgl/lvgl/src/widgets/lv_dropdown.c ****     lv_dropdown_t * dropdown = (lv_dropdown_t *)dropdown_obj;
 230              		.loc 1 1034 1 view -0
 231              		.cfi_startproc
 232              		@ args = 0, pretend = 0, frame = 0
 233              		@ frame_needed = 0, uses_anonymous_args = 0
1034:lvgl/lvgl/src/widgets/lv_dropdown.c ****     lv_dropdown_t * dropdown = (lv_dropdown_t *)dropdown_obj;
 234              		.loc 1 1034 1 is_stmt 0 view .LVU59
 235 0000 F8B5     		push	{r3, r4, r5, r6, r7, lr}
 236              	.LCFI3:
 237              		.cfi_def_cfa_offset 24
 238              		.cfi_offset 3, -24
 239              		.cfi_offset 4, -20
 240              		.cfi_offset 5, -16
 241              		.cfi_offset 6, -12
 242              		.cfi_offset 7, -8
 243              		.cfi_offset 14, -4
 244 0002 0546     		mov	r5, r0
 245 0004 0C46     		mov	r4, r1
1035:lvgl/lvgl/src/widgets/lv_dropdown.c ****     lv_obj_t * label = get_label(dropdown_obj);
 246              		.loc 1 1035 5 is_stmt 1 view .LVU60
 247              	.LVL22:
1036:lvgl/lvgl/src/widgets/lv_dropdown.c ****     if(label == NULL) return 0;
 248              		.loc 1 1036 5 view .LVU61
1036:lvgl/lvgl/src/widgets/lv_dropdown.c ****     if(label == NULL) return 0;
 249              		.loc 1 1036 24 is_stmt 0 view .LVU62
 250 0006 FFF7FEFF 		bl	get_label
 251              	.LVL23:
ARM GAS  C:\Users\gx\AppData\Local\Temp\ccIqfrB9.s 			page 33


1037:lvgl/lvgl/src/widgets/lv_dropdown.c ****     y -= label->coords.y1;
 252              		.loc 1 1037 5 is_stmt 1 view .LVU63
1037:lvgl/lvgl/src/widgets/lv_dropdown.c ****     y -= label->coords.y1;
 253              		.loc 1 1037 7 is_stmt 0 view .LVU64
 254 000a 10B3     		cbz	r0, .L14
 255 000c 0746     		mov	r7, r0
1038:lvgl/lvgl/src/widgets/lv_dropdown.c **** 
 256              		.loc 1 1038 5 is_stmt 1 view .LVU65
1038:lvgl/lvgl/src/widgets/lv_dropdown.c **** 
 257              		.loc 1 1038 23 is_stmt 0 view .LVU66
 258 000e C18A     		ldrh	r1, [r0, #22]
1038:lvgl/lvgl/src/widgets/lv_dropdown.c **** 
 259              		.loc 1 1038 7 view .LVU67
 260 0010 641A     		subs	r4, r4, r1
 261 0012 A4B2     		uxth	r4, r4
 262              	.LVL24:
1040:lvgl/lvgl/src/widgets/lv_dropdown.c ****     lv_coord_t font_h              = lv_font_get_line_height(font);
 263              		.loc 1 1040 5 is_stmt 1 view .LVU68
 264              	.LBB63:
 265              	.LBI63:
 331:lvgl/lvgl/src/widgets/../core/lv_obj_style_gen.h **** {
 266              		.loc 2 331 33 view .LVU69
 267              	.LBB64:
 333:lvgl/lvgl/src/widgets/../core/lv_obj_style_gen.h ****     return (const lv_font_t *)v.ptr;
 268              		.loc 2 333 5 view .LVU70
 333:lvgl/lvgl/src/widgets/../core/lv_obj_style_gen.h ****     return (const lv_font_t *)v.ptr;
 269              		.loc 2 333 26 is_stmt 0 view .LVU71
 270 0014 41F25942 		movw	r2, #5209
 271 0018 0021     		movs	r1, #0
 272 001a FFF7FEFF 		bl	lv_obj_get_style_prop
 273              	.LVL25:
 334:lvgl/lvgl/src/widgets/../core/lv_obj_style_gen.h **** }
 274              		.loc 2 334 5 is_stmt 1 view .LVU72
 334:lvgl/lvgl/src/widgets/../core/lv_obj_style_gen.h **** }
 275              		.loc 2 334 5 is_stmt 0 view .LVU73
 276              	.LBE64:
 277              	.LBE63:
1041:lvgl/lvgl/src/widgets/lv_dropdown.c ****     lv_coord_t line_space = lv_obj_get_style_text_line_space(label, LV_PART_MAIN);
 278              		.loc 1 1041 5 is_stmt 1 view .LVU74
 279              	.LBB65:
 280              	.LBI65:
 118:d:\practise\f407_disc\lvgl\lvgl\src\font\lv_font.h **** {
 281              		.loc 3 118 26 view .LVU75
 282              	.LBB66:
 283              		.loc 3 120 5 view .LVU76
 284              		.loc 3 120 18 is_stmt 0 view .LVU77
 285 001e B0F90860 		ldrsh	r6, [r0, #8]
 286              	.LVL26:
 287              		.loc 3 120 18 view .LVU78
 288              	.LBE66:
 289              	.LBE65:
1042:lvgl/lvgl/src/widgets/lv_dropdown.c **** 
 290              		.loc 1 1042 5 is_stmt 1 view .LVU79
 291              	.LBB67:
 292              	.LBI67:
 343:lvgl/lvgl/src/widgets/../core/lv_obj_style_gen.h **** {
 293              		.loc 2 343 26 view .LVU80
ARM GAS  C:\Users\gx\AppData\Local\Temp\ccIqfrB9.s 			page 34


 294              	.LBB68:
 345:lvgl/lvgl/src/widgets/../core/lv_obj_style_gen.h ****     return (lv_coord_t)v.num;
 295              		.loc 2 345 5 view .LVU81
 345:lvgl/lvgl/src/widgets/../core/lv_obj_style_gen.h ****     return (lv_coord_t)v.num;
 296              		.loc 2 345 26 is_stmt 0 view .LVU82
 297 0022 41F25B42 		movw	r2, #5211
 298 0026 0021     		movs	r1, #0
 299 0028 3846     		mov	r0, r7
 300              	.LVL27:
 345:lvgl/lvgl/src/widgets/../core/lv_obj_style_gen.h ****     return (lv_coord_t)v.num;
 301              		.loc 2 345 26 view .LVU83
 302 002a FFF7FEFF 		bl	lv_obj_get_style_prop
 303              	.LVL28:
 304              		.loc 2 346 5 is_stmt 1 view .LVU84
 305              		.loc 2 346 5 is_stmt 0 view .LVU85
 306              	.LBE68:
 307              	.LBE67:
1044:lvgl/lvgl/src/widgets/lv_dropdown.c ****     lv_coord_t h = font_h + line_space;
 308              		.loc 1 1044 5 is_stmt 1 view .LVU86
1044:lvgl/lvgl/src/widgets/lv_dropdown.c ****     lv_coord_t h = font_h + line_space;
 309              		.loc 1 1044 7 is_stmt 0 view .LVU87
 310 002e C0F3C033 		ubfx	r3, r0, #15, #1
 311 0032 03FA80F3 		sxtah	r3, r3, r0
 312 0036 04EB6303 		add	r3, r4, r3, asr #1
 313 003a 1BB2     		sxth	r3, r3
 314              	.LVL29:
1045:lvgl/lvgl/src/widgets/lv_dropdown.c **** 
 315              		.loc 1 1045 5 is_stmt 1 view .LVU88
1045:lvgl/lvgl/src/widgets/lv_dropdown.c **** 
 316              		.loc 1 1045 27 is_stmt 0 view .LVU89
 317 003c 3044     		add	r0, r0, r6
 318              	.LVL30:
1045:lvgl/lvgl/src/widgets/lv_dropdown.c **** 
 319              		.loc 1 1045 16 view .LVU90
 320 003e 00B2     		sxth	r0, r0
 321              	.LVL31:
1047:lvgl/lvgl/src/widgets/lv_dropdown.c **** 
 322              		.loc 1 1047 5 is_stmt 1 view .LVU91
1047:lvgl/lvgl/src/widgets/lv_dropdown.c **** 
 323              		.loc 1 1047 22 is_stmt 0 view .LVU92
 324 0040 93FBF0F3 		sdiv	r3, r3, r0
 325              	.LVL32:
1047:lvgl/lvgl/src/widgets/lv_dropdown.c **** 
 326              		.loc 1 1047 14 view .LVU93
 327 0044 98B2     		uxth	r0, r3
 328              	.LVL33:
1049:lvgl/lvgl/src/widgets/lv_dropdown.c ****     return opt;
 329              		.loc 1 1049 5 is_stmt 1 view .LVU94
1049:lvgl/lvgl/src/widgets/lv_dropdown.c ****     return opt;
 330              		.loc 1 1049 23 is_stmt 0 view .LVU95
 331 0046 AB8E     		ldrh	r3, [r5, #52]
1049:lvgl/lvgl/src/widgets/lv_dropdown.c ****     return opt;
 332              		.loc 1 1049 7 view .LVU96
 333 0048 8342     		cmp	r3, r0
 334 004a 01D8     		bhi	.L13
1049:lvgl/lvgl/src/widgets/lv_dropdown.c ****     return opt;
 335              		.loc 1 1049 37 is_stmt 1 discriminator 1 view .LVU97
ARM GAS  C:\Users\gx\AppData\Local\Temp\ccIqfrB9.s 			page 35


1049:lvgl/lvgl/src/widgets/lv_dropdown.c ****     return opt;
 336              		.loc 1 1049 41 is_stmt 0 discriminator 1 view .LVU98
 337 004c 581E     		subs	r0, r3, #1
 338              	.LVL34:
1049:lvgl/lvgl/src/widgets/lv_dropdown.c ****     return opt;
 339              		.loc 1 1049 41 discriminator 1 view .LVU99
 340 004e 80B2     		uxth	r0, r0
 341              	.LVL35:
 342              	.L13:
1051:lvgl/lvgl/src/widgets/lv_dropdown.c **** 
 343              		.loc 1 1051 1 view .LVU100
 344 0050 F8BD     		pop	{r3, r4, r5, r6, r7, pc}
 345              	.LVL36:
 346              	.L14:
1037:lvgl/lvgl/src/widgets/lv_dropdown.c ****     y -= label->coords.y1;
 347              		.loc 1 1037 30 view .LVU101
 348 0052 0020     		movs	r0, #0
 349              	.LVL37:
1037:lvgl/lvgl/src/widgets/lv_dropdown.c ****     y -= label->coords.y1;
 350              		.loc 1 1037 30 view .LVU102
 351 0054 FCE7     		b	.L13
 352              		.cfi_endproc
 353              	.LFE193:
 355              		.section	.text.lv_dropdown_destructor,"ax",%progbits
 356              		.align	1
 357              		.syntax unified
 358              		.thumb
 359              		.thumb_func
 360              		.fpu fpv4-sp-d16
 362              	lv_dropdown_destructor:
 363              	.LVL38:
 364              	.LFB181:
 563:lvgl/lvgl/src/widgets/lv_dropdown.c ****     LV_UNUSED(class_p);
 365              		.loc 1 563 1 is_stmt 1 view -0
 366              		.cfi_startproc
 367              		@ args = 0, pretend = 0, frame = 0
 368              		@ frame_needed = 0, uses_anonymous_args = 0
 563:lvgl/lvgl/src/widgets/lv_dropdown.c ****     LV_UNUSED(class_p);
 369              		.loc 1 563 1 is_stmt 0 view .LVU104
 370 0000 10B5     		push	{r4, lr}
 371              	.LCFI4:
 372              		.cfi_def_cfa_offset 8
 373              		.cfi_offset 4, -8
 374              		.cfi_offset 14, -4
 375 0002 0C46     		mov	r4, r1
 564:lvgl/lvgl/src/widgets/lv_dropdown.c ****     lv_dropdown_t * dropdown = (lv_dropdown_t *)obj;
 376              		.loc 1 564 5 is_stmt 1 view .LVU105
 565:lvgl/lvgl/src/widgets/lv_dropdown.c **** 
 377              		.loc 1 565 5 view .LVU106
 378              	.LVL39:
 567:lvgl/lvgl/src/widgets/lv_dropdown.c ****         lv_obj_del(dropdown->list);
 379              		.loc 1 567 5 view .LVU107
 567:lvgl/lvgl/src/widgets/lv_dropdown.c ****         lv_obj_del(dropdown->list);
 380              		.loc 1 567 16 is_stmt 0 view .LVU108
 381 0004 486A     		ldr	r0, [r1, #36]
 382              	.LVL40:
 567:lvgl/lvgl/src/widgets/lv_dropdown.c ****         lv_obj_del(dropdown->list);
ARM GAS  C:\Users\gx\AppData\Local\Temp\ccIqfrB9.s 			page 36


 383              		.loc 1 567 7 view .LVU109
 384 0006 18B1     		cbz	r0, .L17
 568:lvgl/lvgl/src/widgets/lv_dropdown.c ****         dropdown->list = NULL;
 385              		.loc 1 568 9 is_stmt 1 view .LVU110
 386 0008 FFF7FEFF 		bl	lv_obj_del
 387              	.LVL41:
 569:lvgl/lvgl/src/widgets/lv_dropdown.c ****     }
 388              		.loc 1 569 9 view .LVU111
 569:lvgl/lvgl/src/widgets/lv_dropdown.c ****     }
 389              		.loc 1 569 24 is_stmt 0 view .LVU112
 390 000c 0023     		movs	r3, #0
 391 000e 6362     		str	r3, [r4, #36]
 392              	.L17:
 572:lvgl/lvgl/src/widgets/lv_dropdown.c ****         lv_mem_free(dropdown->options);
 393              		.loc 1 572 5 is_stmt 1 view .LVU113
 572:lvgl/lvgl/src/widgets/lv_dropdown.c ****         lv_mem_free(dropdown->options);
 394              		.loc 1 572 8 is_stmt 0 view .LVU114
 395 0010 94F83C30 		ldrb	r3, [r4, #60]	@ zero_extendqisi2
 572:lvgl/lvgl/src/widgets/lv_dropdown.c ****         lv_mem_free(dropdown->options);
 396              		.loc 1 572 7 view .LVU115
 397 0014 13F0100F 		tst	r3, #16
 398 0018 00D0     		beq	.L20
 399              	.L16:
 576:lvgl/lvgl/src/widgets/lv_dropdown.c **** 
 400              		.loc 1 576 1 view .LVU116
 401 001a 10BD     		pop	{r4, pc}
 402              	.LVL42:
 403              	.L20:
 573:lvgl/lvgl/src/widgets/lv_dropdown.c ****         dropdown->options = NULL;
 404              		.loc 1 573 9 is_stmt 1 view .LVU117
 405 001c 206B     		ldr	r0, [r4, #48]
 406 001e FFF7FEFF 		bl	lv_mem_free
 407              	.LVL43:
 574:lvgl/lvgl/src/widgets/lv_dropdown.c ****     }
 408              		.loc 1 574 9 view .LVU118
 574:lvgl/lvgl/src/widgets/lv_dropdown.c ****     }
 409              		.loc 1 574 27 is_stmt 0 view .LVU119
 410 0022 0023     		movs	r3, #0
 411 0024 2363     		str	r3, [r4, #48]
 576:lvgl/lvgl/src/widgets/lv_dropdown.c **** 
 412              		.loc 1 576 1 view .LVU120
 413 0026 F8E7     		b	.L16
 414              		.cfi_endproc
 415              	.LFE181:
 417              		.section	.text.list_press_handler,"ax",%progbits
 418              		.align	1
 419              		.syntax unified
 420              		.thumb
 421              		.thumb_func
 422              		.fpu fpv4-sp-d16
 424              	list_press_handler:
 425              	.LVL44:
 426              	.LFB192:
1019:lvgl/lvgl/src/widgets/lv_dropdown.c ****     lv_dropdown_list_t * list = (lv_dropdown_list_t*) list_obj;
 427              		.loc 1 1019 1 is_stmt 1 view -0
 428              		.cfi_startproc
 429              		@ args = 0, pretend = 0, frame = 8
ARM GAS  C:\Users\gx\AppData\Local\Temp\ccIqfrB9.s 			page 37


 430              		@ frame_needed = 0, uses_anonymous_args = 0
1019:lvgl/lvgl/src/widgets/lv_dropdown.c ****     lv_dropdown_list_t * list = (lv_dropdown_list_t*) list_obj;
 431              		.loc 1 1019 1 is_stmt 0 view .LVU122
 432 0000 70B5     		push	{r4, r5, r6, lr}
 433              	.LCFI5:
 434              		.cfi_def_cfa_offset 16
 435              		.cfi_offset 4, -16
 436              		.cfi_offset 5, -12
 437              		.cfi_offset 6, -8
 438              		.cfi_offset 14, -4
 439 0002 82B0     		sub	sp, sp, #8
 440              	.LCFI6:
 441              		.cfi_def_cfa_offset 24
 442 0004 0446     		mov	r4, r0
1020:lvgl/lvgl/src/widgets/lv_dropdown.c ****     lv_obj_t * dropdown_obj = list->dropdown;
 443              		.loc 1 1020 5 is_stmt 1 view .LVU123
 444              	.LVL45:
1021:lvgl/lvgl/src/widgets/lv_dropdown.c ****     lv_dropdown_t * dropdown = (lv_dropdown_t *)dropdown_obj;
 445              		.loc 1 1021 5 view .LVU124
1021:lvgl/lvgl/src/widgets/lv_dropdown.c ****     lv_dropdown_t * dropdown = (lv_dropdown_t *)dropdown_obj;
 446              		.loc 1 1021 16 is_stmt 0 view .LVU125
 447 0006 466A     		ldr	r6, [r0, #36]
 448              	.LVL46:
1022:lvgl/lvgl/src/widgets/lv_dropdown.c **** 
 449              		.loc 1 1022 5 is_stmt 1 view .LVU126
1024:lvgl/lvgl/src/widgets/lv_dropdown.c ****     if(indev && (lv_indev_get_type(indev) == LV_INDEV_TYPE_POINTER || lv_indev_get_type(indev) == L
 450              		.loc 1 1024 5 view .LVU127
1024:lvgl/lvgl/src/widgets/lv_dropdown.c ****     if(indev && (lv_indev_get_type(indev) == LV_INDEV_TYPE_POINTER || lv_indev_get_type(indev) == L
 451              		.loc 1 1024 26 is_stmt 0 view .LVU128
 452 0008 FFF7FEFF 		bl	lv_indev_get_act
 453              	.LVL47:
1025:lvgl/lvgl/src/widgets/lv_dropdown.c ****         lv_point_t p;
 454              		.loc 1 1025 5 is_stmt 1 view .LVU129
1025:lvgl/lvgl/src/widgets/lv_dropdown.c ****         lv_point_t p;
 455              		.loc 1 1025 7 is_stmt 0 view .LVU130
 456 000c B0B1     		cbz	r0, .L21
 457 000e 0546     		mov	r5, r0
1025:lvgl/lvgl/src/widgets/lv_dropdown.c ****         lv_point_t p;
 458              		.loc 1 1025 18 discriminator 1 view .LVU131
 459 0010 FFF7FEFF 		bl	lv_indev_get_type
 460              	.LVL48:
1025:lvgl/lvgl/src/widgets/lv_dropdown.c ****         lv_point_t p;
 461              		.loc 1 1025 14 discriminator 1 view .LVU132
 462 0014 0128     		cmp	r0, #1
 463 0016 04D0     		beq	.L23
1025:lvgl/lvgl/src/widgets/lv_dropdown.c ****         lv_point_t p;
 464              		.loc 1 1025 71 discriminator 2 view .LVU133
 465 0018 2846     		mov	r0, r5
 466 001a FFF7FEFF 		bl	lv_indev_get_type
 467              	.LVL49:
1025:lvgl/lvgl/src/widgets/lv_dropdown.c ****         lv_point_t p;
 468              		.loc 1 1025 68 discriminator 2 view .LVU134
 469 001e 0328     		cmp	r0, #3
 470 0020 0CD1     		bne	.L21
 471              	.L23:
 472              	.LBB69:
1026:lvgl/lvgl/src/widgets/lv_dropdown.c ****         lv_indev_get_point(indev, &p);
ARM GAS  C:\Users\gx\AppData\Local\Temp\ccIqfrB9.s 			page 38


 473              		.loc 1 1026 9 is_stmt 1 view .LVU135
1027:lvgl/lvgl/src/widgets/lv_dropdown.c ****         dropdown->pr_opt_id = get_id_on_point(dropdown_obj, p.y);
 474              		.loc 1 1027 9 view .LVU136
 475 0022 01A9     		add	r1, sp, #4
 476 0024 2846     		mov	r0, r5
 477 0026 FFF7FEFF 		bl	lv_indev_get_point
 478              	.LVL50:
1028:lvgl/lvgl/src/widgets/lv_dropdown.c ****         lv_obj_invalidate(list_obj);
 479              		.loc 1 1028 9 view .LVU137
1028:lvgl/lvgl/src/widgets/lv_dropdown.c ****         lv_obj_invalidate(list_obj);
 480              		.loc 1 1028 31 is_stmt 0 view .LVU138
 481 002a BDF90610 		ldrsh	r1, [sp, #6]
 482 002e 3046     		mov	r0, r6
 483 0030 FFF7FEFF 		bl	get_id_on_point
 484              	.LVL51:
1028:lvgl/lvgl/src/widgets/lv_dropdown.c ****         lv_obj_invalidate(list_obj);
 485              		.loc 1 1028 29 view .LVU139
 486 0034 7087     		strh	r0, [r6, #58]	@ movhi
1029:lvgl/lvgl/src/widgets/lv_dropdown.c ****     }
 487              		.loc 1 1029 9 is_stmt 1 view .LVU140
 488 0036 2046     		mov	r0, r4
 489 0038 FFF7FEFF 		bl	lv_obj_invalidate
 490              	.LVL52:
 491              	.L21:
1029:lvgl/lvgl/src/widgets/lv_dropdown.c ****     }
 492              		.loc 1 1029 9 is_stmt 0 view .LVU141
 493              	.LBE69:
1031:lvgl/lvgl/src/widgets/lv_dropdown.c **** 
 494              		.loc 1 1031 1 view .LVU142
 495 003c 02B0     		add	sp, sp, #8
 496              	.LCFI7:
 497              		.cfi_def_cfa_offset 16
 498              		@ sp needed
 499 003e 70BD     		pop	{r4, r5, r6, pc}
1031:lvgl/lvgl/src/widgets/lv_dropdown.c **** 
 500              		.loc 1 1031 1 view .LVU143
 501              		.cfi_endproc
 502              	.LFE192:
 504              		.section	.text.draw_box,"ax",%progbits
 505              		.align	1
 506              		.syntax unified
 507              		.thumb
 508              		.thumb_func
 509              		.fpu fpv4-sp-d16
 511              	draw_box:
 512              	.LVL53:
 513              	.LFB188:
 866:lvgl/lvgl/src/widgets/lv_dropdown.c ****     if(id == LV_DROPDOWN_PR_NONE) return;
 514              		.loc 1 866 1 is_stmt 1 view -0
 515              		.cfi_startproc
 516              		@ args = 0, pretend = 0, frame = 64
 517              		@ frame_needed = 0, uses_anonymous_args = 0
 866:lvgl/lvgl/src/widgets/lv_dropdown.c ****     if(id == LV_DROPDOWN_PR_NONE) return;
 518              		.loc 1 866 1 is_stmt 0 view .LVU145
 519 0000 2DE9F04F 		push	{r4, r5, r6, r7, r8, r9, r10, fp, lr}
 520              	.LCFI8:
 521              		.cfi_def_cfa_offset 36
ARM GAS  C:\Users\gx\AppData\Local\Temp\ccIqfrB9.s 			page 39


 522              		.cfi_offset 4, -36
 523              		.cfi_offset 5, -32
 524              		.cfi_offset 6, -28
 525              		.cfi_offset 7, -24
 526              		.cfi_offset 8, -20
 527              		.cfi_offset 9, -16
 528              		.cfi_offset 10, -12
 529              		.cfi_offset 11, -8
 530              		.cfi_offset 14, -4
 531 0004 91B0     		sub	sp, sp, #68
 532              	.LCFI9:
 533              		.cfi_def_cfa_offset 104
 534 0006 9346     		mov	fp, r2
 867:lvgl/lvgl/src/widgets/lv_dropdown.c **** 
 535              		.loc 1 867 5 is_stmt 1 view .LVU146
 867:lvgl/lvgl/src/widgets/lv_dropdown.c **** 
 536              		.loc 1 867 7 is_stmt 0 view .LVU147
 537 0008 4FF6FF72 		movw	r2, #65535
 538              	.LVL54:
 867:lvgl/lvgl/src/widgets/lv_dropdown.c **** 
 539              		.loc 1 867 7 view .LVU148
 540 000c 9345     		cmp	fp, r2
 541 000e 56D0     		beq	.L25
 542 0010 0546     		mov	r5, r0
 543 0012 0E46     		mov	r6, r1
 869:lvgl/lvgl/src/widgets/lv_dropdown.c ****     lv_obj_t * list_obj = dropdown->list;
 544              		.loc 1 869 5 is_stmt 1 view .LVU149
 545              	.LVL55:
 870:lvgl/lvgl/src/widgets/lv_dropdown.c ****     lv_state_t state_ori = list_obj->state;
 546              		.loc 1 870 5 view .LVU150
 870:lvgl/lvgl/src/widgets/lv_dropdown.c ****     lv_state_t state_ori = list_obj->state;
 547              		.loc 1 870 16 is_stmt 0 view .LVU151
 548 0014 446A     		ldr	r4, [r0, #36]
 549              	.LVL56:
 871:lvgl/lvgl/src/widgets/lv_dropdown.c **** 
 550              		.loc 1 871 5 is_stmt 1 view .LVU152
 871:lvgl/lvgl/src/widgets/lv_dropdown.c **** 
 551              		.loc 1 871 16 is_stmt 0 view .LVU153
 552 0016 278C     		ldrh	r7, [r4, #32]
 553              	.LVL57:
 873:lvgl/lvgl/src/widgets/lv_dropdown.c ****         list_obj->state = state;
 554              		.loc 1 873 5 is_stmt 1 view .LVU154
 873:lvgl/lvgl/src/widgets/lv_dropdown.c ****         list_obj->state = state;
 555              		.loc 1 873 7 is_stmt 0 view .LVU155
 556 0018 9F42     		cmp	r7, r3
 557 001a 06D0     		beq	.L28
 874:lvgl/lvgl/src/widgets/lv_dropdown.c ****         list_obj->skip_trans = 1;
 558              		.loc 1 874 9 is_stmt 1 view .LVU156
 874:lvgl/lvgl/src/widgets/lv_dropdown.c ****         list_obj->skip_trans = 1;
 559              		.loc 1 874 25 is_stmt 0 view .LVU157
 560 001c 2384     		strh	r3, [r4, #32]	@ movhi
 875:lvgl/lvgl/src/widgets/lv_dropdown.c ****     }
 561              		.loc 1 875 9 is_stmt 1 view .LVU158
 875:lvgl/lvgl/src/widgets/lv_dropdown.c ****     }
 562              		.loc 1 875 30 is_stmt 0 view .LVU159
 563 001e 94F82230 		ldrb	r3, [r4, #34]	@ zero_extendqisi2
 564              	.LVL58:
ARM GAS  C:\Users\gx\AppData\Local\Temp\ccIqfrB9.s 			page 40


 875:lvgl/lvgl/src/widgets/lv_dropdown.c ****     }
 565              		.loc 1 875 30 view .LVU160
 566 0022 43F00403 		orr	r3, r3, #4
 567 0026 84F82230 		strb	r3, [r4, #34]
 568              	.LVL59:
 569              	.L28:
 879:lvgl/lvgl/src/widgets/lv_dropdown.c ****     lv_coord_t line_space = lv_obj_get_style_text_line_space(list_obj,  LV_PART_SELECTED);
 570              		.loc 1 879 5 is_stmt 1 view .LVU161
 571              	.LBB70:
 572              	.LBI70:
 331:lvgl/lvgl/src/widgets/../core/lv_obj_style_gen.h **** {
 573              		.loc 2 331 33 view .LVU162
 574              	.LBB71:
 333:lvgl/lvgl/src/widgets/../core/lv_obj_style_gen.h ****     return (const lv_font_t *)v.ptr;
 575              		.loc 2 333 5 view .LVU163
 333:lvgl/lvgl/src/widgets/../core/lv_obj_style_gen.h ****     return (const lv_font_t *)v.ptr;
 576              		.loc 2 333 26 is_stmt 0 view .LVU164
 577 002a 41F25942 		movw	r2, #5209
 578 002e 4FF48021 		mov	r1, #262144
 579              	.LVL60:
 333:lvgl/lvgl/src/widgets/../core/lv_obj_style_gen.h ****     return (const lv_font_t *)v.ptr;
 580              		.loc 2 333 26 view .LVU165
 581 0032 2046     		mov	r0, r4
 582              	.LVL61:
 333:lvgl/lvgl/src/widgets/../core/lv_obj_style_gen.h ****     return (const lv_font_t *)v.ptr;
 583              		.loc 2 333 26 view .LVU166
 584 0034 FFF7FEFF 		bl	lv_obj_get_style_prop
 585              	.LVL62:
 586 0038 8146     		mov	r9, r0
 587              	.LVL63:
 334:lvgl/lvgl/src/widgets/../core/lv_obj_style_gen.h **** }
 588              		.loc 2 334 5 is_stmt 1 view .LVU167
 334:lvgl/lvgl/src/widgets/../core/lv_obj_style_gen.h **** }
 589              		.loc 2 334 5 is_stmt 0 view .LVU168
 590              	.LBE71:
 591              	.LBE70:
 880:lvgl/lvgl/src/widgets/lv_dropdown.c ****     lv_coord_t font_h         = lv_font_get_line_height(font);
 592              		.loc 1 880 5 is_stmt 1 view .LVU169
 593              	.LBB72:
 594              	.LBI72:
 343:lvgl/lvgl/src/widgets/../core/lv_obj_style_gen.h **** {
 595              		.loc 2 343 26 view .LVU170
 596              	.LBB73:
 345:lvgl/lvgl/src/widgets/../core/lv_obj_style_gen.h ****     return (lv_coord_t)v.num;
 597              		.loc 2 345 5 view .LVU171
 345:lvgl/lvgl/src/widgets/../core/lv_obj_style_gen.h ****     return (lv_coord_t)v.num;
 598              		.loc 2 345 26 is_stmt 0 view .LVU172
 599 003a 41F25B42 		movw	r2, #5211
 600 003e 4FF48021 		mov	r1, #262144
 601 0042 2046     		mov	r0, r4
 602              	.LVL64:
 345:lvgl/lvgl/src/widgets/../core/lv_obj_style_gen.h ****     return (lv_coord_t)v.num;
 603              		.loc 2 345 26 view .LVU173
 604 0044 FFF7FEFF 		bl	lv_obj_get_style_prop
 605              	.LVL65:
 606 0048 8046     		mov	r8, r0
 607              	.LVL66:
ARM GAS  C:\Users\gx\AppData\Local\Temp\ccIqfrB9.s 			page 41


 608              		.loc 2 346 5 is_stmt 1 view .LVU174
 609              		.loc 2 346 12 is_stmt 0 view .LVU175
 610 004a 0FFA80FA 		sxth	r10, r0
 611              	.LVL67:
 612              		.loc 2 346 12 view .LVU176
 613              	.LBE73:
 614              	.LBE72:
 881:lvgl/lvgl/src/widgets/lv_dropdown.c **** 
 615              		.loc 1 881 5 is_stmt 1 view .LVU177
 616              	.LBB74:
 617              	.LBI74:
 118:d:\practise\f407_disc\lvgl\lvgl\src\font\lv_font.h **** {
 618              		.loc 3 118 26 view .LVU178
 619              	.LBB75:
 620              		.loc 3 120 5 view .LVU179
 621              		.loc 3 120 18 is_stmt 0 view .LVU180
 622 004e B9F90890 		ldrsh	r9, [r9, #8]
 623              	.LVL68:
 624              		.loc 3 120 18 view .LVU181
 625              	.LBE75:
 626              	.LBE74:
 884:lvgl/lvgl/src/widgets/lv_dropdown.c ****     lv_area_t rect_area;
 627              		.loc 1 884 5 is_stmt 1 view .LVU182
 884:lvgl/lvgl/src/widgets/lv_dropdown.c ****     lv_area_t rect_area;
 628              		.loc 1 884 24 is_stmt 0 view .LVU183
 629 0052 2846     		mov	r0, r5
 884:lvgl/lvgl/src/widgets/lv_dropdown.c ****     lv_area_t rect_area;
 630              		.loc 1 884 24 view .LVU184
 631 0054 FFF7FEFF 		bl	get_label
 632              	.LVL69:
 885:lvgl/lvgl/src/widgets/lv_dropdown.c ****     rect_area.y1 = label->coords.y1;
 633              		.loc 1 885 5 is_stmt 1 view .LVU185
 886:lvgl/lvgl/src/widgets/lv_dropdown.c ****     rect_area.y1 += id * (font_h + line_space);
 634              		.loc 1 886 5 view .LVU186
 886:lvgl/lvgl/src/widgets/lv_dropdown.c ****     rect_area.y1 += id * (font_h + line_space);
 635              		.loc 1 886 33 is_stmt 0 view .LVU187
 636 0058 B0F91620 		ldrsh	r2, [r0, #22]
 887:lvgl/lvgl/src/widgets/lv_dropdown.c ****     rect_area.y1 -= line_space / 2;
 637              		.loc 1 887 5 is_stmt 1 view .LVU188
 887:lvgl/lvgl/src/widgets/lv_dropdown.c ****     rect_area.y1 -= line_space / 2;
 638              		.loc 1 887 34 is_stmt 0 view .LVU189
 639 005c 09EB0A03 		add	r3, r9, r10
 887:lvgl/lvgl/src/widgets/lv_dropdown.c ****     rect_area.y1 -= line_space / 2;
 640              		.loc 1 887 18 view .LVU190
 641 0060 13FB0B23 		smlabb	r3, r3, fp, r2
 642 0064 9BB2     		uxth	r3, r3
 888:lvgl/lvgl/src/widgets/lv_dropdown.c **** 
 643              		.loc 1 888 5 is_stmt 1 view .LVU191
 888:lvgl/lvgl/src/widgets/lv_dropdown.c **** 
 644              		.loc 1 888 18 is_stmt 0 view .LVU192
 645 0066 0AEBDA7A 		add	r10, r10, r10, lsr #31
 646              	.LVL70:
 888:lvgl/lvgl/src/widgets/lv_dropdown.c **** 
 647              		.loc 1 888 18 view .LVU193
 648 006a A3EB6A03 		sub	r3, r3, r10, asr #1
 649 006e 9BB2     		uxth	r3, r3
 650 0070 ADF83A30 		strh	r3, [sp, #58]	@ movhi
ARM GAS  C:\Users\gx\AppData\Local\Temp\ccIqfrB9.s 			page 42


 890:lvgl/lvgl/src/widgets/lv_dropdown.c ****     rect_area.x1 = dropdown->list->coords.x1;
 651              		.loc 1 890 5 is_stmt 1 view .LVU194
 890:lvgl/lvgl/src/widgets/lv_dropdown.c ****     rect_area.x1 = dropdown->list->coords.x1;
 652              		.loc 1 890 33 is_stmt 0 view .LVU195
 653 0074 4B44     		add	r3, r3, r9
 654              	.LVL71:
 890:lvgl/lvgl/src/widgets/lv_dropdown.c ****     rect_area.x1 = dropdown->list->coords.x1;
 655              		.loc 1 890 42 view .LVU196
 656 0076 18FA83F3 		uxtah	r3, r8, r3
 657 007a 9BB2     		uxth	r3, r3
 890:lvgl/lvgl/src/widgets/lv_dropdown.c ****     rect_area.x1 = dropdown->list->coords.x1;
 658              		.loc 1 890 55 view .LVU197
 659 007c 013B     		subs	r3, r3, #1
 890:lvgl/lvgl/src/widgets/lv_dropdown.c ****     rect_area.x1 = dropdown->list->coords.x1;
 660              		.loc 1 890 18 view .LVU198
 661 007e ADF83E30 		strh	r3, [sp, #62]	@ movhi
 891:lvgl/lvgl/src/widgets/lv_dropdown.c ****     rect_area.x2 = dropdown->list->coords.x2;
 662              		.loc 1 891 5 is_stmt 1 view .LVU199
 891:lvgl/lvgl/src/widgets/lv_dropdown.c ****     rect_area.x2 = dropdown->list->coords.x2;
 663              		.loc 1 891 28 is_stmt 0 view .LVU200
 664 0082 6B6A     		ldr	r3, [r5, #36]
 891:lvgl/lvgl/src/widgets/lv_dropdown.c ****     rect_area.x2 = dropdown->list->coords.x2;
 665              		.loc 1 891 42 view .LVU201
 666 0084 B3F91420 		ldrsh	r2, [r3, #20]
 891:lvgl/lvgl/src/widgets/lv_dropdown.c ****     rect_area.x2 = dropdown->list->coords.x2;
 667              		.loc 1 891 18 view .LVU202
 668 0088 ADF83820 		strh	r2, [sp, #56]	@ movhi
 892:lvgl/lvgl/src/widgets/lv_dropdown.c **** 
 669              		.loc 1 892 5 is_stmt 1 view .LVU203
 892:lvgl/lvgl/src/widgets/lv_dropdown.c **** 
 670              		.loc 1 892 42 is_stmt 0 view .LVU204
 671 008c B3F91830 		ldrsh	r3, [r3, #24]
 892:lvgl/lvgl/src/widgets/lv_dropdown.c **** 
 672              		.loc 1 892 18 view .LVU205
 673 0090 ADF83C30 		strh	r3, [sp, #60]	@ movhi
 894:lvgl/lvgl/src/widgets/lv_dropdown.c ****     lv_draw_rect_dsc_init(&sel_rect);
 674              		.loc 1 894 5 is_stmt 1 view .LVU206
 895:lvgl/lvgl/src/widgets/lv_dropdown.c ****     lv_obj_init_draw_rect_dsc(list_obj,  LV_PART_SELECTED, &sel_rect);
 675              		.loc 1 895 5 view .LVU207
 676 0094 01A8     		add	r0, sp, #4
 677              	.LVL72:
 895:lvgl/lvgl/src/widgets/lv_dropdown.c ****     lv_obj_init_draw_rect_dsc(list_obj,  LV_PART_SELECTED, &sel_rect);
 678              		.loc 1 895 5 is_stmt 0 view .LVU208
 679 0096 FFF7FEFF 		bl	lv_draw_rect_dsc_init
 680              	.LVL73:
 896:lvgl/lvgl/src/widgets/lv_dropdown.c ****     lv_draw_rect(&rect_area, clip_area, &sel_rect);
 681              		.loc 1 896 5 is_stmt 1 view .LVU209
 682 009a 01AA     		add	r2, sp, #4
 683 009c 4FF48021 		mov	r1, #262144
 684 00a0 2046     		mov	r0, r4
 685 00a2 FFF7FEFF 		bl	lv_obj_init_draw_rect_dsc
 686              	.LVL74:
 897:lvgl/lvgl/src/widgets/lv_dropdown.c **** 
 687              		.loc 1 897 5 view .LVU210
 688 00a6 01AA     		add	r2, sp, #4
 689 00a8 3146     		mov	r1, r6
 690 00aa 0EA8     		add	r0, sp, #56
ARM GAS  C:\Users\gx\AppData\Local\Temp\ccIqfrB9.s 			page 43


 691 00ac FFF7FEFF 		bl	lv_draw_rect
 692              	.LVL75:
 899:lvgl/lvgl/src/widgets/lv_dropdown.c ****     list_obj->skip_trans = 0;
 693              		.loc 1 899 5 view .LVU211
 899:lvgl/lvgl/src/widgets/lv_dropdown.c ****     list_obj->skip_trans = 0;
 694              		.loc 1 899 21 is_stmt 0 view .LVU212
 695 00b0 2784     		strh	r7, [r4, #32]	@ movhi
 900:lvgl/lvgl/src/widgets/lv_dropdown.c **** }
 696              		.loc 1 900 5 is_stmt 1 view .LVU213
 900:lvgl/lvgl/src/widgets/lv_dropdown.c **** }
 697              		.loc 1 900 26 is_stmt 0 view .LVU214
 698 00b2 94F82230 		ldrb	r3, [r4, #34]	@ zero_extendqisi2
 699 00b6 6FF38203 		bfc	r3, #2, #1
 700 00ba 84F82230 		strb	r3, [r4, #34]
 701              	.LVL76:
 702              	.L25:
 901:lvgl/lvgl/src/widgets/lv_dropdown.c **** 
 703              		.loc 1 901 1 view .LVU215
 704 00be 11B0     		add	sp, sp, #68
 705              	.LCFI10:
 706              		.cfi_def_cfa_offset 36
 707              		@ sp needed
 708 00c0 BDE8F08F 		pop	{r4, r5, r6, r7, r8, r9, r10, fp, pc}
 901:lvgl/lvgl/src/widgets/lv_dropdown.c **** 
 709              		.loc 1 901 1 view .LVU216
 710              		.cfi_endproc
 711              	.LFE188:
 713              		.section	.text.draw_box_label,"ax",%progbits
 714              		.align	1
 715              		.syntax unified
 716              		.thumb
 717              		.thumb_func
 718              		.fpu fpv4-sp-d16
 720              	draw_box_label:
 721              	.LVL77:
 722              	.LFB189:
 904:lvgl/lvgl/src/widgets/lv_dropdown.c ****     if(id == LV_DROPDOWN_PR_NONE) return;
 723              		.loc 1 904 1 is_stmt 1 view -0
 724              		.cfi_startproc
 725              		@ args = 0, pretend = 0, frame = 48
 726              		@ frame_needed = 0, uses_anonymous_args = 0
 904:lvgl/lvgl/src/widgets/lv_dropdown.c ****     if(id == LV_DROPDOWN_PR_NONE) return;
 727              		.loc 1 904 1 is_stmt 0 view .LVU218
 728 0000 2DE9F041 		push	{r4, r5, r6, r7, r8, lr}
 729              	.LCFI11:
 730              		.cfi_def_cfa_offset 24
 731              		.cfi_offset 4, -24
 732              		.cfi_offset 5, -20
 733              		.cfi_offset 6, -16
 734              		.cfi_offset 7, -12
 735              		.cfi_offset 8, -8
 736              		.cfi_offset 14, -4
 737 0004 8EB0     		sub	sp, sp, #56
 738              	.LCFI12:
 739              		.cfi_def_cfa_offset 80
 740 0006 9046     		mov	r8, r2
 905:lvgl/lvgl/src/widgets/lv_dropdown.c **** 
ARM GAS  C:\Users\gx\AppData\Local\Temp\ccIqfrB9.s 			page 44


 741              		.loc 1 905 5 is_stmt 1 view .LVU219
 905:lvgl/lvgl/src/widgets/lv_dropdown.c **** 
 742              		.loc 1 905 7 is_stmt 0 view .LVU220
 743 0008 4FF6FF72 		movw	r2, #65535
 744              	.LVL78:
 905:lvgl/lvgl/src/widgets/lv_dropdown.c **** 
 745              		.loc 1 905 7 view .LVU221
 746 000c 9045     		cmp	r8, r2
 747 000e 53D0     		beq	.L30
 748 0010 0746     		mov	r7, r0
 749 0012 0D46     		mov	r5, r1
 907:lvgl/lvgl/src/widgets/lv_dropdown.c ****     lv_obj_t * list_obj = dropdown->list;
 750              		.loc 1 907 5 is_stmt 1 view .LVU222
 751              	.LVL79:
 908:lvgl/lvgl/src/widgets/lv_dropdown.c ****     lv_state_t state_orig = list_obj->state;
 752              		.loc 1 908 5 view .LVU223
 908:lvgl/lvgl/src/widgets/lv_dropdown.c ****     lv_state_t state_orig = list_obj->state;
 753              		.loc 1 908 16 is_stmt 0 view .LVU224
 754 0014 446A     		ldr	r4, [r0, #36]
 755              	.LVL80:
 909:lvgl/lvgl/src/widgets/lv_dropdown.c **** 
 756              		.loc 1 909 5 is_stmt 1 view .LVU225
 909:lvgl/lvgl/src/widgets/lv_dropdown.c **** 
 757              		.loc 1 909 16 is_stmt 0 view .LVU226
 758 0016 268C     		ldrh	r6, [r4, #32]
 759              	.LVL81:
 911:lvgl/lvgl/src/widgets/lv_dropdown.c ****         list_obj->state =  state;
 760              		.loc 1 911 5 is_stmt 1 view .LVU227
 911:lvgl/lvgl/src/widgets/lv_dropdown.c ****         list_obj->state =  state;
 761              		.loc 1 911 7 is_stmt 0 view .LVU228
 762 0018 9E42     		cmp	r6, r3
 763 001a 06D0     		beq	.L32
 912:lvgl/lvgl/src/widgets/lv_dropdown.c ****         list_obj->skip_trans = 1;
 764              		.loc 1 912 9 is_stmt 1 view .LVU229
 912:lvgl/lvgl/src/widgets/lv_dropdown.c ****         list_obj->skip_trans = 1;
 765              		.loc 1 912 25 is_stmt 0 view .LVU230
 766 001c 2384     		strh	r3, [r4, #32]	@ movhi
 913:lvgl/lvgl/src/widgets/lv_dropdown.c ****     }
 767              		.loc 1 913 9 is_stmt 1 view .LVU231
 913:lvgl/lvgl/src/widgets/lv_dropdown.c ****     }
 768              		.loc 1 913 30 is_stmt 0 view .LVU232
 769 001e 94F82230 		ldrb	r3, [r4, #34]	@ zero_extendqisi2
 770              	.LVL82:
 913:lvgl/lvgl/src/widgets/lv_dropdown.c ****     }
 771              		.loc 1 913 30 view .LVU233
 772 0022 43F00403 		orr	r3, r3, #4
 773 0026 84F82230 		strb	r3, [r4, #34]
 774              	.LVL83:
 775              	.L32:
 916:lvgl/lvgl/src/widgets/lv_dropdown.c ****     lv_draw_label_dsc_init(&label_dsc);
 776              		.loc 1 916 5 is_stmt 1 view .LVU234
 917:lvgl/lvgl/src/widgets/lv_dropdown.c ****     lv_obj_init_draw_label_dsc(list_obj, LV_PART_SELECTED, &label_dsc);
 777              		.loc 1 917 5 view .LVU235
 778 002a 06A8     		add	r0, sp, #24
 779              	.LVL84:
 917:lvgl/lvgl/src/widgets/lv_dropdown.c ****     lv_obj_init_draw_label_dsc(list_obj, LV_PART_SELECTED, &label_dsc);
 780              		.loc 1 917 5 is_stmt 0 view .LVU236
ARM GAS  C:\Users\gx\AppData\Local\Temp\ccIqfrB9.s 			page 45


 781 002c FFF7FEFF 		bl	lv_draw_label_dsc_init
 782              	.LVL85:
 918:lvgl/lvgl/src/widgets/lv_dropdown.c **** 
 783              		.loc 1 918 5 is_stmt 1 view .LVU237
 784 0030 06AA     		add	r2, sp, #24
 785 0032 4FF48021 		mov	r1, #262144
 786 0036 2046     		mov	r0, r4
 787 0038 FFF7FEFF 		bl	lv_obj_init_draw_label_dsc
 788              	.LVL86:
 920:lvgl/lvgl/src/widgets/lv_dropdown.c **** 
 789              		.loc 1 920 5 view .LVU238
 790              	.LBB76:
 791              	.LBI76:
 343:lvgl/lvgl/src/widgets/../core/lv_obj_style_gen.h **** {
 792              		.loc 2 343 26 view .LVU239
 793              	.LBB77:
 345:lvgl/lvgl/src/widgets/../core/lv_obj_style_gen.h ****     return (lv_coord_t)v.num;
 794              		.loc 2 345 5 view .LVU240
 345:lvgl/lvgl/src/widgets/../core/lv_obj_style_gen.h ****     return (lv_coord_t)v.num;
 795              		.loc 2 345 26 is_stmt 0 view .LVU241
 796 003c 41F25B42 		movw	r2, #5211
 797 0040 4FF48021 		mov	r1, #262144
 798 0044 2046     		mov	r0, r4
 799 0046 FFF7FEFF 		bl	lv_obj_get_style_prop
 800              	.LVL87:
 801              		.loc 2 346 5 is_stmt 1 view .LVU242
 802              		.loc 2 346 5 is_stmt 0 view .LVU243
 803              	.LBE77:
 804              	.LBE76:
 920:lvgl/lvgl/src/widgets/lv_dropdown.c **** 
 805              		.loc 1 920 26 view .LVU244
 806 004a ADF82A00 		strh	r0, [sp, #42]	@ movhi
 922:lvgl/lvgl/src/widgets/lv_dropdown.c ****     if(label == NULL) return;
 807              		.loc 1 922 5 is_stmt 1 view .LVU245
 922:lvgl/lvgl/src/widgets/lv_dropdown.c ****     if(label == NULL) return;
 808              		.loc 1 922 24 is_stmt 0 view .LVU246
 809 004e 3846     		mov	r0, r7
 810 0050 FFF7FEFF 		bl	get_label
 811              	.LVL88:
 923:lvgl/lvgl/src/widgets/lv_dropdown.c **** 
 812              		.loc 1 923 5 is_stmt 1 view .LVU247
 923:lvgl/lvgl/src/widgets/lv_dropdown.c **** 
 813              		.loc 1 923 7 is_stmt 0 view .LVU248
 814 0054 0746     		mov	r7, r0
 815              	.LVL89:
 923:lvgl/lvgl/src/widgets/lv_dropdown.c **** 
 816              		.loc 1 923 7 view .LVU249
 817 0056 78B3     		cbz	r0, .L30
 925:lvgl/lvgl/src/widgets/lv_dropdown.c **** 
 818              		.loc 1 925 5 is_stmt 1 view .LVU250
 925:lvgl/lvgl/src/widgets/lv_dropdown.c **** 
 819              		.loc 1 925 32 is_stmt 0 view .LVU251
 820 0058 069B     		ldr	r3, [sp, #24]
 821              	.LVL90:
 822              	.LBB78:
 823              	.LBI78:
 118:d:\practise\f407_disc\lvgl\lvgl\src\font\lv_font.h **** {
ARM GAS  C:\Users\gx\AppData\Local\Temp\ccIqfrB9.s 			page 46


 824              		.loc 3 118 26 is_stmt 1 view .LVU252
 825              	.LBB79:
 826              		.loc 3 120 5 view .LVU253
 827              		.loc 3 120 18 is_stmt 0 view .LVU254
 828 005a B3F908C0 		ldrsh	ip, [r3, #8]
 829              	.LVL91:
 830              		.loc 3 120 18 view .LVU255
 831              	.LBE79:
 832              	.LBE78:
 927:lvgl/lvgl/src/widgets/lv_dropdown.c ****     area_sel.y1 = label->coords.y1;
 833              		.loc 1 927 5 is_stmt 1 view .LVU256
 928:lvgl/lvgl/src/widgets/lv_dropdown.c ****     area_sel.y1 += id * (font_h + label_dsc.line_space);
 834              		.loc 1 928 5 view .LVU257
 928:lvgl/lvgl/src/widgets/lv_dropdown.c ****     area_sel.y1 += id * (font_h + label_dsc.line_space);
 835              		.loc 1 928 32 is_stmt 0 view .LVU258
 836 005e B0F91620 		ldrsh	r2, [r0, #22]
 929:lvgl/lvgl/src/widgets/lv_dropdown.c ****     area_sel.y1 -= label_dsc.line_space / 2;
 837              		.loc 1 929 5 is_stmt 1 view .LVU259
 929:lvgl/lvgl/src/widgets/lv_dropdown.c ****     area_sel.y1 -= label_dsc.line_space / 2;
 838              		.loc 1 929 44 is_stmt 0 view .LVU260
 839 0062 BDF92A00 		ldrsh	r0, [sp, #42]
 840              	.LVL92:
 929:lvgl/lvgl/src/widgets/lv_dropdown.c ****     area_sel.y1 -= label_dsc.line_space / 2;
 841              		.loc 1 929 33 view .LVU261
 842 0066 0CEB0001 		add	r1, ip, r0
 929:lvgl/lvgl/src/widgets/lv_dropdown.c ****     area_sel.y1 -= label_dsc.line_space / 2;
 843              		.loc 1 929 17 view .LVU262
 844 006a 11FB0822 		smlabb	r2, r1, r8, r2
 845 006e 92B2     		uxth	r2, r2
 930:lvgl/lvgl/src/widgets/lv_dropdown.c **** 
 846              		.loc 1 930 5 is_stmt 1 view .LVU263
 930:lvgl/lvgl/src/widgets/lv_dropdown.c **** 
 847              		.loc 1 930 17 is_stmt 0 view .LVU264
 848 0070 00EBD073 		add	r3, r0, r0, lsr #31
 849 0074 A2EB6302 		sub	r2, r2, r3, asr #1
 850 0078 93B2     		uxth	r3, r2
 851 007a ADF81230 		strh	r3, [sp, #18]	@ movhi
 932:lvgl/lvgl/src/widgets/lv_dropdown.c ****     area_sel.x1 = list_obj->coords.x1;
 852              		.loc 1 932 5 is_stmt 1 view .LVU265
 932:lvgl/lvgl/src/widgets/lv_dropdown.c ****     area_sel.x1 = list_obj->coords.x1;
 853              		.loc 1 932 31 is_stmt 0 view .LVU266
 854 007e 6344     		add	r3, r3, ip
 932:lvgl/lvgl/src/widgets/lv_dropdown.c ****     area_sel.x1 = list_obj->coords.x1;
 855              		.loc 1 932 51 view .LVU267
 856 0080 80B2     		uxth	r0, r0
 932:lvgl/lvgl/src/widgets/lv_dropdown.c ****     area_sel.x1 = list_obj->coords.x1;
 857              		.loc 1 932 40 view .LVU268
 858 0082 10FA83F3 		uxtah	r3, r0, r3
 859 0086 9BB2     		uxth	r3, r3
 932:lvgl/lvgl/src/widgets/lv_dropdown.c ****     area_sel.x1 = list_obj->coords.x1;
 860              		.loc 1 932 63 view .LVU269
 861 0088 013B     		subs	r3, r3, #1
 932:lvgl/lvgl/src/widgets/lv_dropdown.c ****     area_sel.x1 = list_obj->coords.x1;
 862              		.loc 1 932 17 view .LVU270
 863 008a ADF81630 		strh	r3, [sp, #22]	@ movhi
 933:lvgl/lvgl/src/widgets/lv_dropdown.c ****     area_sel.x2 = list_obj->coords.x2;
 864              		.loc 1 933 5 is_stmt 1 view .LVU271
ARM GAS  C:\Users\gx\AppData\Local\Temp\ccIqfrB9.s 			page 47


 933:lvgl/lvgl/src/widgets/lv_dropdown.c ****     area_sel.x2 = list_obj->coords.x2;
 865              		.loc 1 933 35 is_stmt 0 view .LVU272
 866 008e B4F91430 		ldrsh	r3, [r4, #20]
 933:lvgl/lvgl/src/widgets/lv_dropdown.c ****     area_sel.x2 = list_obj->coords.x2;
 867              		.loc 1 933 17 view .LVU273
 868 0092 ADF81030 		strh	r3, [sp, #16]	@ movhi
 934:lvgl/lvgl/src/widgets/lv_dropdown.c ****     lv_area_t mask_sel;
 869              		.loc 1 934 5 is_stmt 1 view .LVU274
 934:lvgl/lvgl/src/widgets/lv_dropdown.c ****     lv_area_t mask_sel;
 870              		.loc 1 934 35 is_stmt 0 view .LVU275
 871 0096 B4F91830 		ldrsh	r3, [r4, #24]
 934:lvgl/lvgl/src/widgets/lv_dropdown.c ****     lv_area_t mask_sel;
 872              		.loc 1 934 17 view .LVU276
 873 009a ADF81430 		strh	r3, [sp, #20]	@ movhi
 935:lvgl/lvgl/src/widgets/lv_dropdown.c ****     bool area_ok;
 874              		.loc 1 935 5 is_stmt 1 view .LVU277
 936:lvgl/lvgl/src/widgets/lv_dropdown.c ****     area_ok = _lv_area_intersect(&mask_sel, clip_area, &area_sel);
 875              		.loc 1 936 5 view .LVU278
 937:lvgl/lvgl/src/widgets/lv_dropdown.c ****     if(area_ok) {
 876              		.loc 1 937 5 view .LVU279
 937:lvgl/lvgl/src/widgets/lv_dropdown.c ****     if(area_ok) {
 877              		.loc 1 937 15 is_stmt 0 view .LVU280
 878 009e 04AA     		add	r2, sp, #16
 879 00a0 2946     		mov	r1, r5
 880 00a2 02A8     		add	r0, sp, #8
 881 00a4 FFF7FEFF 		bl	_lv_area_intersect
 882              	.LVL93:
 938:lvgl/lvgl/src/widgets/lv_dropdown.c ****         lv_draw_label(&label->coords, &mask_sel, &label_dsc, lv_label_get_text(label), NULL);
 883              		.loc 1 938 5 is_stmt 1 view .LVU281
 938:lvgl/lvgl/src/widgets/lv_dropdown.c ****         lv_draw_label(&label->coords, &mask_sel, &label_dsc, lv_label_get_text(label), NULL);
 884              		.loc 1 938 7 is_stmt 0 view .LVU282
 885 00a8 48B9     		cbnz	r0, .L36
 886              	.LVL94:
 887              	.L33:
 941:lvgl/lvgl/src/widgets/lv_dropdown.c ****     list_obj->skip_trans = 0;
 888              		.loc 1 941 5 is_stmt 1 view .LVU283
 941:lvgl/lvgl/src/widgets/lv_dropdown.c ****     list_obj->skip_trans = 0;
 889              		.loc 1 941 21 is_stmt 0 view .LVU284
 890 00aa 2684     		strh	r6, [r4, #32]	@ movhi
 942:lvgl/lvgl/src/widgets/lv_dropdown.c **** }
 891              		.loc 1 942 5 is_stmt 1 view .LVU285
 942:lvgl/lvgl/src/widgets/lv_dropdown.c **** }
 892              		.loc 1 942 26 is_stmt 0 view .LVU286
 893 00ac 94F82230 		ldrb	r3, [r4, #34]	@ zero_extendqisi2
 894 00b0 6FF38203 		bfc	r3, #2, #1
 895 00b4 84F82230 		strb	r3, [r4, #34]
 896              	.LVL95:
 897              	.L30:
 943:lvgl/lvgl/src/widgets/lv_dropdown.c **** 
 898              		.loc 1 943 1 view .LVU287
 899 00b8 0EB0     		add	sp, sp, #56
 900              	.LCFI13:
 901              		.cfi_remember_state
 902              		.cfi_def_cfa_offset 24
 903              		@ sp needed
 904 00ba BDE8F081 		pop	{r4, r5, r6, r7, r8, pc}
 905              	.LVL96:
ARM GAS  C:\Users\gx\AppData\Local\Temp\ccIqfrB9.s 			page 48


 906              	.L36:
 907              	.LCFI14:
 908              		.cfi_restore_state
 939:lvgl/lvgl/src/widgets/lv_dropdown.c ****     }
 909              		.loc 1 939 9 is_stmt 1 view .LVU288
 939:lvgl/lvgl/src/widgets/lv_dropdown.c ****     }
 910              		.loc 1 939 23 is_stmt 0 view .LVU289
 911 00be 07F11405 		add	r5, r7, #20
 912              	.LVL97:
 939:lvgl/lvgl/src/widgets/lv_dropdown.c ****     }
 913              		.loc 1 939 62 view .LVU290
 914 00c2 3846     		mov	r0, r7
 915              	.LVL98:
 939:lvgl/lvgl/src/widgets/lv_dropdown.c ****     }
 916              		.loc 1 939 62 view .LVU291
 917 00c4 FFF7FEFF 		bl	lv_label_get_text
 918              	.LVL99:
 919 00c8 0346     		mov	r3, r0
 939:lvgl/lvgl/src/widgets/lv_dropdown.c ****     }
 920              		.loc 1 939 9 view .LVU292
 921 00ca 0022     		movs	r2, #0
 922 00cc 0092     		str	r2, [sp]
 923 00ce 06AA     		add	r2, sp, #24
 924 00d0 02A9     		add	r1, sp, #8
 925 00d2 2846     		mov	r0, r5
 926 00d4 FFF7FEFF 		bl	lv_draw_label
 927              	.LVL100:
 928 00d8 E7E7     		b	.L33
 929              		.cfi_endproc
 930              	.LFE189:
 932              		.section	.text.draw_list,"ax",%progbits
 933              		.align	1
 934              		.syntax unified
 935              		.thumb
 936              		.thumb_func
 937              		.fpu fpv4-sp-d16
 939              	draw_list:
 940              	.LVL101:
 941              	.LFB187:
 832:lvgl/lvgl/src/widgets/lv_dropdown.c ****     lv_obj_t * list_obj = lv_event_get_target(e);
 942              		.loc 1 832 1 is_stmt 1 view -0
 943              		.cfi_startproc
 944              		@ args = 0, pretend = 0, frame = 8
 945              		@ frame_needed = 0, uses_anonymous_args = 0
 832:lvgl/lvgl/src/widgets/lv_dropdown.c ****     lv_obj_t * list_obj = lv_event_get_target(e);
 946              		.loc 1 832 1 is_stmt 0 view .LVU294
 947 0000 30B5     		push	{r4, r5, lr}
 948              	.LCFI15:
 949              		.cfi_def_cfa_offset 12
 950              		.cfi_offset 4, -12
 951              		.cfi_offset 5, -8
 952              		.cfi_offset 14, -4
 953 0002 83B0     		sub	sp, sp, #12
 954              	.LCFI16:
 955              		.cfi_def_cfa_offset 24
 956 0004 0446     		mov	r4, r0
 833:lvgl/lvgl/src/widgets/lv_dropdown.c ****     lv_dropdown_list_t * list = (lv_dropdown_list_t *)list_obj;
ARM GAS  C:\Users\gx\AppData\Local\Temp\ccIqfrB9.s 			page 49


 957              		.loc 1 833 5 is_stmt 1 view .LVU295
 833:lvgl/lvgl/src/widgets/lv_dropdown.c ****     lv_dropdown_list_t * list = (lv_dropdown_list_t *)list_obj;
 958              		.loc 1 833 27 is_stmt 0 view .LVU296
 959 0006 FFF7FEFF 		bl	lv_event_get_target
 960              	.LVL102:
 834:lvgl/lvgl/src/widgets/lv_dropdown.c ****     lv_obj_t * dropdown_obj = list->dropdown;
 961              		.loc 1 834 5 is_stmt 1 view .LVU297
 835:lvgl/lvgl/src/widgets/lv_dropdown.c ****     lv_dropdown_t * dropdown = (lv_dropdown_t *)dropdown_obj;
 962              		.loc 1 835 5 view .LVU298
 835:lvgl/lvgl/src/widgets/lv_dropdown.c ****     lv_dropdown_t * dropdown = (lv_dropdown_t *)dropdown_obj;
 963              		.loc 1 835 16 is_stmt 0 view .LVU299
 964 000a 456A     		ldr	r5, [r0, #36]
 965              	.LVL103:
 836:lvgl/lvgl/src/widgets/lv_dropdown.c ****     const lv_area_t * clip_area = lv_event_get_param(e);
 966              		.loc 1 836 5 is_stmt 1 view .LVU300
 837:lvgl/lvgl/src/widgets/lv_dropdown.c **** 
 967              		.loc 1 837 5 view .LVU301
 837:lvgl/lvgl/src/widgets/lv_dropdown.c **** 
 968              		.loc 1 837 35 is_stmt 0 view .LVU302
 969 000c 2046     		mov	r0, r4
 970              	.LVL104:
 837:lvgl/lvgl/src/widgets/lv_dropdown.c **** 
 971              		.loc 1 837 35 view .LVU303
 972 000e FFF7FEFF 		bl	lv_event_get_param
 973              	.LVL105:
 840:lvgl/lvgl/src/widgets/lv_dropdown.c ****         /* Clip area might be too large too to shadow but
 974              		.loc 1 840 5 is_stmt 1 view .LVU304
 840:lvgl/lvgl/src/widgets/lv_dropdown.c ****         /* Clip area might be too large too to shadow but
 975              		.loc 1 840 16 is_stmt 0 view .LVU305
 976 0012 6A6A     		ldr	r2, [r5, #36]
 840:lvgl/lvgl/src/widgets/lv_dropdown.c ****         /* Clip area might be too large too to shadow but
 977              		.loc 1 840 7 view .LVU306
 978 0014 2AB3     		cbz	r2, .L37
 979 0016 0146     		mov	r1, r0
 980              	.LBB80:
 843:lvgl/lvgl/src/widgets/lv_dropdown.c ****         bool has_common;
 981              		.loc 1 843 9 is_stmt 1 view .LVU307
 844:lvgl/lvgl/src/widgets/lv_dropdown.c ****         has_common = _lv_area_intersect(&clip_area_core, clip_area, &dropdown->list->coords);
 982              		.loc 1 844 9 view .LVU308
 845:lvgl/lvgl/src/widgets/lv_dropdown.c ****         if(has_common) {
 983              		.loc 1 845 9 view .LVU309
 845:lvgl/lvgl/src/widgets/lv_dropdown.c ****         if(has_common) {
 984              		.loc 1 845 22 is_stmt 0 view .LVU310
 985 0018 1432     		adds	r2, r2, #20
 986 001a 6846     		mov	r0, sp
 987              	.LVL106:
 845:lvgl/lvgl/src/widgets/lv_dropdown.c ****         if(has_common) {
 988              		.loc 1 845 22 view .LVU311
 989 001c FFF7FEFF 		bl	_lv_area_intersect
 990              	.LVL107:
 846:lvgl/lvgl/src/widgets/lv_dropdown.c ****             if(dropdown->selected_highlight) {
 991              		.loc 1 846 9 is_stmt 1 view .LVU312
 846:lvgl/lvgl/src/widgets/lv_dropdown.c ****             if(dropdown->selected_highlight) {
 992              		.loc 1 846 11 is_stmt 0 view .LVU313
 993 0020 F8B1     		cbz	r0, .L37
 847:lvgl/lvgl/src/widgets/lv_dropdown.c ****                 if(dropdown->pr_opt_id == dropdown->sel_opt_id) {
 994              		.loc 1 847 13 is_stmt 1 view .LVU314
ARM GAS  C:\Users\gx\AppData\Local\Temp\ccIqfrB9.s 			page 50


 847:lvgl/lvgl/src/widgets/lv_dropdown.c ****                 if(dropdown->pr_opt_id == dropdown->sel_opt_id) {
 995              		.loc 1 847 16 is_stmt 0 view .LVU315
 996 0022 95F83C30 		ldrb	r3, [r5, #60]	@ zero_extendqisi2
 847:lvgl/lvgl/src/widgets/lv_dropdown.c ****                 if(dropdown->pr_opt_id == dropdown->sel_opt_id) {
 997              		.loc 1 847 15 view .LVU316
 998 0026 13F0200F 		tst	r3, #32
 999 002a 28D0     		beq	.L40
 848:lvgl/lvgl/src/widgets/lv_dropdown.c ****                     draw_box(dropdown_obj, &clip_area_core, dropdown->pr_opt_id, LV_STATE_CHECKED |
 1000              		.loc 1 848 17 is_stmt 1 view .LVU317
 848:lvgl/lvgl/src/widgets/lv_dropdown.c ****                     draw_box(dropdown_obj, &clip_area_core, dropdown->pr_opt_id, LV_STATE_CHECKED |
 1001              		.loc 1 848 28 is_stmt 0 view .LVU318
 1002 002c 6A8F     		ldrh	r2, [r5, #58]
 848:lvgl/lvgl/src/widgets/lv_dropdown.c ****                     draw_box(dropdown_obj, &clip_area_core, dropdown->pr_opt_id, LV_STATE_CHECKED |
 1003              		.loc 1 848 51 view .LVU319
 1004 002e EB8E     		ldrh	r3, [r5, #54]
 848:lvgl/lvgl/src/widgets/lv_dropdown.c ****                     draw_box(dropdown_obj, &clip_area_core, dropdown->pr_opt_id, LV_STATE_CHECKED |
 1005              		.loc 1 848 19 view .LVU320
 1006 0030 9A42     		cmp	r2, r3
 1007 0032 18D0     		beq	.L43
 852:lvgl/lvgl/src/widgets/lv_dropdown.c ****                     draw_box_label(dropdown_obj, &clip_area_core, dropdown->pr_opt_id, LV_STATE_PRE
 1008              		.loc 1 852 21 is_stmt 1 view .LVU321
 1009 0034 2023     		movs	r3, #32
 1010 0036 6946     		mov	r1, sp
 1011 0038 2846     		mov	r0, r5
 1012              	.LVL108:
 852:lvgl/lvgl/src/widgets/lv_dropdown.c ****                     draw_box_label(dropdown_obj, &clip_area_core, dropdown->pr_opt_id, LV_STATE_PRE
 1013              		.loc 1 852 21 is_stmt 0 view .LVU322
 1014 003a FFF7FEFF 		bl	draw_box
 1015              	.LVL109:
 853:lvgl/lvgl/src/widgets/lv_dropdown.c ****                     draw_box(dropdown_obj, &clip_area_core, dropdown->sel_opt_id, LV_STATE_CHECKED)
 1016              		.loc 1 853 21 is_stmt 1 view .LVU323
 1017 003e 2023     		movs	r3, #32
 1018 0040 6A8F     		ldrh	r2, [r5, #58]
 1019 0042 6946     		mov	r1, sp
 1020 0044 2846     		mov	r0, r5
 1021 0046 FFF7FEFF 		bl	draw_box_label
 1022              	.LVL110:
 854:lvgl/lvgl/src/widgets/lv_dropdown.c ****                     draw_box_label(dropdown_obj, &clip_area_core, dropdown->sel_opt_id, LV_STATE_CH
 1023              		.loc 1 854 21 view .LVU324
 1024 004a 0123     		movs	r3, #1
 1025 004c EA8E     		ldrh	r2, [r5, #54]
 1026 004e 6946     		mov	r1, sp
 1027 0050 2846     		mov	r0, r5
 1028 0052 FFF7FEFF 		bl	draw_box
 1029              	.LVL111:
 855:lvgl/lvgl/src/widgets/lv_dropdown.c ****                 }
 1030              		.loc 1 855 21 view .LVU325
 1031 0056 0123     		movs	r3, #1
 1032 0058 EA8E     		ldrh	r2, [r5, #54]
 1033 005a 6946     		mov	r1, sp
 1034 005c 2846     		mov	r0, r5
 1035 005e FFF7FEFF 		bl	draw_box_label
 1036              	.LVL112:
 1037              	.L37:
 855:lvgl/lvgl/src/widgets/lv_dropdown.c ****                 }
 1038              		.loc 1 855 21 is_stmt 0 view .LVU326
 1039              	.LBE80:
ARM GAS  C:\Users\gx\AppData\Local\Temp\ccIqfrB9.s 			page 51


 863:lvgl/lvgl/src/widgets/lv_dropdown.c **** 
 1040              		.loc 1 863 1 view .LVU327
 1041 0062 03B0     		add	sp, sp, #12
 1042              	.LCFI17:
 1043              		.cfi_remember_state
 1044              		.cfi_def_cfa_offset 12
 1045              		@ sp needed
 1046 0064 30BD     		pop	{r4, r5, pc}
 1047              	.LVL113:
 1048              	.L43:
 1049              	.LCFI18:
 1050              		.cfi_restore_state
 1051              	.LBB81:
 849:lvgl/lvgl/src/widgets/lv_dropdown.c ****                     draw_box_label(dropdown_obj, &clip_area_core, dropdown->pr_opt_id, LV_STATE_CHE
 1052              		.loc 1 849 21 is_stmt 1 view .LVU328
 1053 0066 2123     		movs	r3, #33
 1054 0068 6946     		mov	r1, sp
 1055 006a 2846     		mov	r0, r5
 1056              	.LVL114:
 849:lvgl/lvgl/src/widgets/lv_dropdown.c ****                     draw_box_label(dropdown_obj, &clip_area_core, dropdown->pr_opt_id, LV_STATE_CHE
 1057              		.loc 1 849 21 is_stmt 0 view .LVU329
 1058 006c FFF7FEFF 		bl	draw_box
 1059              	.LVL115:
 850:lvgl/lvgl/src/widgets/lv_dropdown.c ****                 } else {
 1060              		.loc 1 850 21 is_stmt 1 view .LVU330
 1061 0070 2123     		movs	r3, #33
 1062 0072 6A8F     		ldrh	r2, [r5, #58]
 1063 0074 6946     		mov	r1, sp
 1064 0076 2846     		mov	r0, r5
 1065 0078 FFF7FEFF 		bl	draw_box_label
 1066              	.LVL116:
 1067 007c F1E7     		b	.L37
 1068              	.LVL117:
 1069              	.L40:
 858:lvgl/lvgl/src/widgets/lv_dropdown.c ****                 draw_box_label(dropdown_obj, &clip_area_core, dropdown->pr_opt_id, LV_STATE_PRESSED
 1070              		.loc 1 858 17 view .LVU331
 1071 007e 2023     		movs	r3, #32
 1072 0080 6A8F     		ldrh	r2, [r5, #58]
 1073 0082 6946     		mov	r1, sp
 1074 0084 2846     		mov	r0, r5
 1075              	.LVL118:
 858:lvgl/lvgl/src/widgets/lv_dropdown.c ****                 draw_box_label(dropdown_obj, &clip_area_core, dropdown->pr_opt_id, LV_STATE_PRESSED
 1076              		.loc 1 858 17 is_stmt 0 view .LVU332
 1077 0086 FFF7FEFF 		bl	draw_box
 1078              	.LVL119:
 859:lvgl/lvgl/src/widgets/lv_dropdown.c ****             }
 1079              		.loc 1 859 17 is_stmt 1 view .LVU333
 1080 008a 2023     		movs	r3, #32
 1081 008c 6A8F     		ldrh	r2, [r5, #58]
 1082 008e 6946     		mov	r1, sp
 1083 0090 2846     		mov	r0, r5
 1084 0092 FFF7FEFF 		bl	draw_box_label
 1085              	.LVL120:
 1086              	.LBE81:
 863:lvgl/lvgl/src/widgets/lv_dropdown.c **** 
 1087              		.loc 1 863 1 is_stmt 0 view .LVU334
 1088 0096 E4E7     		b	.L37
ARM GAS  C:\Users\gx\AppData\Local\Temp\ccIqfrB9.s 			page 52


 1089              		.cfi_endproc
 1090              	.LFE187:
 1092              		.section	.text.lv_dropdownlist_constructor,"ax",%progbits
 1093              		.align	1
 1094              		.syntax unified
 1095              		.thumb
 1096              		.thumb_func
 1097              		.fpu fpv4-sp-d16
 1099              	lv_dropdownlist_constructor:
 1100              	.LVL121:
 1101              	.LFB182:
 579:lvgl/lvgl/src/widgets/lv_dropdown.c ****     LV_UNUSED(class_p);
 1102              		.loc 1 579 1 is_stmt 1 view -0
 1103              		.cfi_startproc
 1104              		@ args = 0, pretend = 0, frame = 0
 1105              		@ frame_needed = 0, uses_anonymous_args = 0
 579:lvgl/lvgl/src/widgets/lv_dropdown.c ****     LV_UNUSED(class_p);
 1106              		.loc 1 579 1 is_stmt 0 view .LVU336
 1107 0000 10B5     		push	{r4, lr}
 1108              	.LCFI19:
 1109              		.cfi_def_cfa_offset 8
 1110              		.cfi_offset 4, -8
 1111              		.cfi_offset 14, -4
 1112 0002 0C46     		mov	r4, r1
 580:lvgl/lvgl/src/widgets/lv_dropdown.c ****     LV_TRACE_OBJ_CREATE("begin");
 1113              		.loc 1 580 5 is_stmt 1 view .LVU337
 581:lvgl/lvgl/src/widgets/lv_dropdown.c **** 
 1114              		.loc 1 581 5 view .LVU338
 581:lvgl/lvgl/src/widgets/lv_dropdown.c **** 
 1115              		.loc 1 581 5 view .LVU339
 581:lvgl/lvgl/src/widgets/lv_dropdown.c **** 
 1116              		.loc 1 581 5 view .LVU340
 581:lvgl/lvgl/src/widgets/lv_dropdown.c **** 
 1117              		.loc 1 581 33 view .LVU341
 583:lvgl/lvgl/src/widgets/lv_dropdown.c ****     lv_label_create(obj);
 1118              		.loc 1 583 5 view .LVU342
 1119 0004 4FF40071 		mov	r1, #512
 1120              	.LVL122:
 583:lvgl/lvgl/src/widgets/lv_dropdown.c ****     lv_label_create(obj);
 1121              		.loc 1 583 5 is_stmt 0 view .LVU343
 1122 0008 2046     		mov	r0, r4
 1123              	.LVL123:
 583:lvgl/lvgl/src/widgets/lv_dropdown.c ****     lv_label_create(obj);
 1124              		.loc 1 583 5 view .LVU344
 1125 000a FFF7FEFF 		bl	lv_obj_clear_flag
 1126              	.LVL124:
 584:lvgl/lvgl/src/widgets/lv_dropdown.c **** 
 1127              		.loc 1 584 5 is_stmt 1 view .LVU345
 1128 000e 2046     		mov	r0, r4
 1129 0010 FFF7FEFF 		bl	lv_label_create
 1130              	.LVL125:
 586:lvgl/lvgl/src/widgets/lv_dropdown.c **** }
 1131              		.loc 1 586 5 view .LVU346
 586:lvgl/lvgl/src/widgets/lv_dropdown.c **** }
 1132              		.loc 1 586 5 view .LVU347
 586:lvgl/lvgl/src/widgets/lv_dropdown.c **** }
 1133              		.loc 1 586 5 view .LVU348
ARM GAS  C:\Users\gx\AppData\Local\Temp\ccIqfrB9.s 			page 53


 586:lvgl/lvgl/src/widgets/lv_dropdown.c **** }
 1134              		.loc 1 586 36 view .LVU349
 587:lvgl/lvgl/src/widgets/lv_dropdown.c **** 
 1135              		.loc 1 587 1 is_stmt 0 view .LVU350
 1136 0014 10BD     		pop	{r4, pc}
 587:lvgl/lvgl/src/widgets/lv_dropdown.c **** 
 1137              		.loc 1 587 1 view .LVU351
 1138              		.cfi_endproc
 1139              	.LFE182:
 1141              		.section	.text.lv_dropdown_list_create,"ax",%progbits
 1142              		.align	1
 1143              		.syntax unified
 1144              		.thumb
 1145              		.thumb_func
 1146              		.fpu fpv4-sp-d16
 1148              	lv_dropdown_list_create:
 1149              	.LVL126:
 1150              	.LFB179:
 529:lvgl/lvgl/src/widgets/lv_dropdown.c ****     LV_LOG_INFO("begin")
 1151              		.loc 1 529 1 is_stmt 1 view -0
 1152              		.cfi_startproc
 1153              		@ args = 0, pretend = 0, frame = 0
 1154              		@ frame_needed = 0, uses_anonymous_args = 0
 529:lvgl/lvgl/src/widgets/lv_dropdown.c ****     LV_LOG_INFO("begin")
 1155              		.loc 1 529 1 is_stmt 0 view .LVU353
 1156 0000 10B5     		push	{r4, lr}
 1157              	.LCFI20:
 1158              		.cfi_def_cfa_offset 8
 1159              		.cfi_offset 4, -8
 1160              		.cfi_offset 14, -4
 1161 0002 0146     		mov	r1, r0
 530:lvgl/lvgl/src/widgets/lv_dropdown.c ****     lv_obj_t * obj = lv_obj_class_create_obj(&lv_dropdownlist_class, parent);
 1162              		.loc 1 530 5 is_stmt 1 view .LVU354
 530:lvgl/lvgl/src/widgets/lv_dropdown.c ****     lv_obj_t * obj = lv_obj_class_create_obj(&lv_dropdownlist_class, parent);
 1163              		.loc 1 530 5 view .LVU355
 530:lvgl/lvgl/src/widgets/lv_dropdown.c ****     lv_obj_t * obj = lv_obj_class_create_obj(&lv_dropdownlist_class, parent);
 1164              		.loc 1 530 5 view .LVU356
 531:lvgl/lvgl/src/widgets/lv_dropdown.c ****     lv_obj_class_init_obj(obj);
 1165              		.loc 1 531 5 view .LVU357
 531:lvgl/lvgl/src/widgets/lv_dropdown.c ****     lv_obj_class_init_obj(obj);
 1166              		.loc 1 531 22 is_stmt 0 view .LVU358
 1167 0004 0348     		ldr	r0, .L48
 1168              	.LVL127:
 531:lvgl/lvgl/src/widgets/lv_dropdown.c ****     lv_obj_class_init_obj(obj);
 1169              		.loc 1 531 22 view .LVU359
 1170 0006 FFF7FEFF 		bl	lv_obj_class_create_obj
 1171              	.LVL128:
 531:lvgl/lvgl/src/widgets/lv_dropdown.c ****     lv_obj_class_init_obj(obj);
 1172              		.loc 1 531 22 view .LVU360
 1173 000a 0446     		mov	r4, r0
 1174              	.LVL129:
 532:lvgl/lvgl/src/widgets/lv_dropdown.c ****     return obj;
 1175              		.loc 1 532 5 is_stmt 1 view .LVU361
 1176 000c FFF7FEFF 		bl	lv_obj_class_init_obj
 1177              	.LVL130:
 533:lvgl/lvgl/src/widgets/lv_dropdown.c **** }
 1178              		.loc 1 533 5 view .LVU362
ARM GAS  C:\Users\gx\AppData\Local\Temp\ccIqfrB9.s 			page 54


 534:lvgl/lvgl/src/widgets/lv_dropdown.c **** 
 1179              		.loc 1 534 1 is_stmt 0 view .LVU363
 1180 0010 2046     		mov	r0, r4
 1181 0012 10BD     		pop	{r4, pc}
 1182              	.LVL131:
 1183              	.L49:
 534:lvgl/lvgl/src/widgets/lv_dropdown.c **** 
 1184              		.loc 1 534 1 view .LVU364
 1185              		.align	2
 1186              	.L48:
 1187 0014 00000000 		.word	.LANCHOR0
 1188              		.cfi_endproc
 1189              	.LFE179:
 1191              		.section	.text.lv_dropdown_create,"ax",%progbits
 1192              		.align	1
 1193              		.global	lv_dropdown_create
 1194              		.syntax unified
 1195              		.thumb
 1196              		.thumb_func
 1197              		.fpu fpv4-sp-d16
 1199              	lv_dropdown_create:
 1200              	.LVL132:
 1201              	.LFB158:
  92:lvgl/lvgl/src/widgets/lv_dropdown.c ****     LV_LOG_INFO("begin")
 1202              		.loc 1 92 1 is_stmt 1 view -0
 1203              		.cfi_startproc
 1204              		@ args = 0, pretend = 0, frame = 0
 1205              		@ frame_needed = 0, uses_anonymous_args = 0
  92:lvgl/lvgl/src/widgets/lv_dropdown.c ****     LV_LOG_INFO("begin")
 1206              		.loc 1 92 1 is_stmt 0 view .LVU366
 1207 0000 10B5     		push	{r4, lr}
 1208              	.LCFI21:
 1209              		.cfi_def_cfa_offset 8
 1210              		.cfi_offset 4, -8
 1211              		.cfi_offset 14, -4
 1212 0002 0146     		mov	r1, r0
  93:lvgl/lvgl/src/widgets/lv_dropdown.c ****     lv_obj_t * obj = lv_obj_class_create_obj(&lv_dropdown_class, parent);
 1213              		.loc 1 93 5 is_stmt 1 view .LVU367
  93:lvgl/lvgl/src/widgets/lv_dropdown.c ****     lv_obj_t * obj = lv_obj_class_create_obj(&lv_dropdown_class, parent);
 1214              		.loc 1 93 5 view .LVU368
  93:lvgl/lvgl/src/widgets/lv_dropdown.c ****     lv_obj_t * obj = lv_obj_class_create_obj(&lv_dropdown_class, parent);
 1215              		.loc 1 93 5 view .LVU369
  94:lvgl/lvgl/src/widgets/lv_dropdown.c ****     lv_obj_class_init_obj(obj);
 1216              		.loc 1 94 5 view .LVU370
  94:lvgl/lvgl/src/widgets/lv_dropdown.c ****     lv_obj_class_init_obj(obj);
 1217              		.loc 1 94 22 is_stmt 0 view .LVU371
 1218 0004 0348     		ldr	r0, .L52
 1219              	.LVL133:
  94:lvgl/lvgl/src/widgets/lv_dropdown.c ****     lv_obj_class_init_obj(obj);
 1220              		.loc 1 94 22 view .LVU372
 1221 0006 FFF7FEFF 		bl	lv_obj_class_create_obj
 1222              	.LVL134:
  94:lvgl/lvgl/src/widgets/lv_dropdown.c ****     lv_obj_class_init_obj(obj);
 1223              		.loc 1 94 22 view .LVU373
 1224 000a 0446     		mov	r4, r0
 1225              	.LVL135:
  95:lvgl/lvgl/src/widgets/lv_dropdown.c ****     return obj;
ARM GAS  C:\Users\gx\AppData\Local\Temp\ccIqfrB9.s 			page 55


 1226              		.loc 1 95 5 is_stmt 1 view .LVU374
 1227 000c FFF7FEFF 		bl	lv_obj_class_init_obj
 1228              	.LVL136:
  96:lvgl/lvgl/src/widgets/lv_dropdown.c **** }
 1229              		.loc 1 96 5 view .LVU375
  97:lvgl/lvgl/src/widgets/lv_dropdown.c **** 
 1230              		.loc 1 97 1 is_stmt 0 view .LVU376
 1231 0010 2046     		mov	r0, r4
 1232 0012 10BD     		pop	{r4, pc}
 1233              	.LVL137:
 1234              	.L53:
  97:lvgl/lvgl/src/widgets/lv_dropdown.c **** 
 1235              		.loc 1 97 1 view .LVU377
 1236              		.align	2
 1237              	.L52:
 1238 0014 00000000 		.word	.LANCHOR1
 1239              		.cfi_endproc
 1240              	.LFE158:
 1242              		.section	.text.lv_dropdown_set_text,"ax",%progbits
 1243              		.align	1
 1244              		.global	lv_dropdown_set_text
 1245              		.syntax unified
 1246              		.thumb
 1247              		.thumb_func
 1248              		.fpu fpv4-sp-d16
 1250              	lv_dropdown_set_text:
 1251              	.LVL138:
 1252              	.LFB159:
 104:lvgl/lvgl/src/widgets/lv_dropdown.c ****     LV_ASSERT_OBJ(obj, MY_CLASS);
 1253              		.loc 1 104 1 is_stmt 1 view -0
 1254              		.cfi_startproc
 1255              		@ args = 0, pretend = 0, frame = 0
 1256              		@ frame_needed = 0, uses_anonymous_args = 0
 104:lvgl/lvgl/src/widgets/lv_dropdown.c ****     LV_ASSERT_OBJ(obj, MY_CLASS);
 1257              		.loc 1 104 1 is_stmt 0 view .LVU379
 1258 0000 08B5     		push	{r3, lr}
 1259              	.LCFI22:
 1260              		.cfi_def_cfa_offset 8
 1261              		.cfi_offset 3, -8
 1262              		.cfi_offset 14, -4
 105:lvgl/lvgl/src/widgets/lv_dropdown.c ****     lv_dropdown_t * dropdown = (lv_dropdown_t *)obj;
 1263              		.loc 1 105 5 is_stmt 1 view .LVU380
 105:lvgl/lvgl/src/widgets/lv_dropdown.c ****     lv_dropdown_t * dropdown = (lv_dropdown_t *)obj;
 1264              		.loc 1 105 5 view .LVU381
 105:lvgl/lvgl/src/widgets/lv_dropdown.c ****     lv_dropdown_t * dropdown = (lv_dropdown_t *)obj;
 1265              		.loc 1 105 5 view .LVU382
 106:lvgl/lvgl/src/widgets/lv_dropdown.c ****     if(dropdown->text == txt) return;
 1266              		.loc 1 106 5 view .LVU383
 1267              	.LVL139:
 107:lvgl/lvgl/src/widgets/lv_dropdown.c **** 
 1268              		.loc 1 107 5 view .LVU384
 107:lvgl/lvgl/src/widgets/lv_dropdown.c **** 
 1269              		.loc 1 107 16 is_stmt 0 view .LVU385
 1270 0002 836A     		ldr	r3, [r0, #40]
 107:lvgl/lvgl/src/widgets/lv_dropdown.c **** 
 1271              		.loc 1 107 7 view .LVU386
 1272 0004 8B42     		cmp	r3, r1
ARM GAS  C:\Users\gx\AppData\Local\Temp\ccIqfrB9.s 			page 56


 1273 0006 02D0     		beq	.L54
 109:lvgl/lvgl/src/widgets/lv_dropdown.c **** 
 1274              		.loc 1 109 5 is_stmt 1 view .LVU387
 109:lvgl/lvgl/src/widgets/lv_dropdown.c **** 
 1275              		.loc 1 109 20 is_stmt 0 view .LVU388
 1276 0008 8162     		str	r1, [r0, #40]
 111:lvgl/lvgl/src/widgets/lv_dropdown.c **** }
 1277              		.loc 1 111 5 is_stmt 1 view .LVU389
 1278 000a FFF7FEFF 		bl	lv_obj_invalidate
 1279              	.LVL140:
 1280              	.L54:
 112:lvgl/lvgl/src/widgets/lv_dropdown.c **** 
 1281              		.loc 1 112 1 is_stmt 0 view .LVU390
 1282 000e 08BD     		pop	{r3, pc}
 1283              		.cfi_endproc
 1284              	.LFE159:
 1286              		.section	.rodata.lv_dropdown_set_options.str1.4,"aMS",%progbits,1
 1287              		.align	2
 1288              	.LC0:
 1289 0000 6C76676C 		.ascii	"lvgl/lvgl/src/widgets/lv_dropdown.c\000"
 1289      2F6C7667 
 1289      6C2F7372 
 1289      632F7769 
 1289      64676574 
 1290              		.align	2
 1291              	.LC1:
 1292 0024 4E554C4C 		.ascii	"NULL pointer\000"
 1292      20706F69 
 1292      6E746572 
 1292      00
 1293 0031 000000   		.align	2
 1294              	.LC2:
 1295 0034 6F707469 		.ascii	"options != NULL\000"
 1295      6F6E7320 
 1295      213D204E 
 1295      554C4C00 
 1296              		.align	2
 1297              	.LC3:
 1298 0044 41737365 		.ascii	"Asserted at expression: %s (%s)\000"
 1298      72746564 
 1298      20617420 
 1298      65787072 
 1298      65737369 
 1299              		.align	2
 1300              	.LC4:
 1301 0064 4F757420 		.ascii	"Out of memory\000"
 1301      6F66206D 
 1301      656D6F72 
 1301      7900
 1302 0072 0000     		.align	2
 1303              	.LC5:
 1304 0074 64726F70 		.ascii	"dropdown->options != NULL\000"
 1304      646F776E 
 1304      2D3E6F70 
 1304      74696F6E 
 1304      7320213D 
 1305              		.section	.text.lv_dropdown_set_options,"ax",%progbits
ARM GAS  C:\Users\gx\AppData\Local\Temp\ccIqfrB9.s 			page 57


 1306              		.align	1
 1307              		.global	lv_dropdown_set_options
 1308              		.syntax unified
 1309              		.thumb
 1310              		.thumb_func
 1311              		.fpu fpv4-sp-d16
 1313              	lv_dropdown_set_options:
 1314              	.LVL141:
 1315              	.LFB160:
 115:lvgl/lvgl/src/widgets/lv_dropdown.c ****     LV_ASSERT_OBJ(obj, MY_CLASS);
 1316              		.loc 1 115 1 is_stmt 1 view -0
 1317              		.cfi_startproc
 1318              		@ args = 0, pretend = 0, frame = 0
 1319              		@ frame_needed = 0, uses_anonymous_args = 0
 115:lvgl/lvgl/src/widgets/lv_dropdown.c ****     LV_ASSERT_OBJ(obj, MY_CLASS);
 1320              		.loc 1 115 1 is_stmt 0 view .LVU392
 1321 0000 70B5     		push	{r4, r5, r6, lr}
 1322              	.LCFI23:
 1323              		.cfi_def_cfa_offset 16
 1324              		.cfi_offset 4, -16
 1325              		.cfi_offset 5, -12
 1326              		.cfi_offset 6, -8
 1327              		.cfi_offset 14, -4
 1328 0002 84B0     		sub	sp, sp, #16
 1329              	.LCFI24:
 1330              		.cfi_def_cfa_offset 32
 116:lvgl/lvgl/src/widgets/lv_dropdown.c ****     LV_ASSERT_NULL(options);
 1331              		.loc 1 116 5 is_stmt 1 view .LVU393
 116:lvgl/lvgl/src/widgets/lv_dropdown.c ****     LV_ASSERT_NULL(options);
 1332              		.loc 1 116 5 view .LVU394
 116:lvgl/lvgl/src/widgets/lv_dropdown.c ****     LV_ASSERT_NULL(options);
 1333              		.loc 1 116 5 view .LVU395
 117:lvgl/lvgl/src/widgets/lv_dropdown.c **** 
 1334              		.loc 1 117 5 view .LVU396
 117:lvgl/lvgl/src/widgets/lv_dropdown.c **** 
 1335              		.loc 1 117 5 view .LVU397
 1336 0004 21B1     		cbz	r1, .L67
 1337 0006 0446     		mov	r4, r0
 1338 0008 0D46     		mov	r5, r1
 117:lvgl/lvgl/src/widgets/lv_dropdown.c **** 
 1339              		.loc 1 117 5 discriminator 2 view .LVU398
 117:lvgl/lvgl/src/widgets/lv_dropdown.c **** 
 1340              		.loc 1 117 28 discriminator 2 view .LVU399
 119:lvgl/lvgl/src/widgets/lv_dropdown.c **** 
 1341              		.loc 1 119 5 discriminator 2 view .LVU400
 1342              	.LVL142:
 122:lvgl/lvgl/src/widgets/lv_dropdown.c ****     uint32_t i;
 1343              		.loc 1 122 5 discriminator 2 view .LVU401
 122:lvgl/lvgl/src/widgets/lv_dropdown.c ****     uint32_t i;
 1344              		.loc 1 122 26 is_stmt 0 discriminator 2 view .LVU402
 1345 000a 0023     		movs	r3, #0
 1346 000c 8386     		strh	r3, [r0, #52]	@ movhi
 123:lvgl/lvgl/src/widgets/lv_dropdown.c ****     for(i = 0; options[i] != '\0'; i++) {
 1347              		.loc 1 123 5 is_stmt 1 discriminator 2 view .LVU403
 124:lvgl/lvgl/src/widgets/lv_dropdown.c ****         if(options[i] == '\n') dropdown->option_cnt++;
 1348              		.loc 1 124 5 discriminator 2 view .LVU404
 1349              	.LVL143:
ARM GAS  C:\Users\gx\AppData\Local\Temp\ccIqfrB9.s 			page 58


 124:lvgl/lvgl/src/widgets/lv_dropdown.c ****         if(options[i] == '\n') dropdown->option_cnt++;
 1350              		.loc 1 124 5 is_stmt 0 discriminator 2 view .LVU405
 1351 000e 0DE0     		b	.L60
 1352              	.LVL144:
 1353              	.L67:
 117:lvgl/lvgl/src/widgets/lv_dropdown.c **** 
 1354              		.loc 1 117 5 is_stmt 1 discriminator 1 view .LVU406
 1355 0010 244B     		ldr	r3, .L71
 1356 0012 0293     		str	r3, [sp, #8]
 1357 0014 244B     		ldr	r3, .L71+4
 1358 0016 0193     		str	r3, [sp, #4]
 1359 0018 244B     		ldr	r3, .L71+8
 1360 001a 0093     		str	r3, [sp]
 1361 001c 244B     		ldr	r3, .L71+12
 1362 001e 7522     		movs	r2, #117
 1363 0020 2449     		ldr	r1, .L71+16
 1364              	.LVL145:
 117:lvgl/lvgl/src/widgets/lv_dropdown.c **** 
 1365              		.loc 1 117 5 is_stmt 0 discriminator 1 view .LVU407
 1366 0022 0320     		movs	r0, #3
 1367              	.LVL146:
 117:lvgl/lvgl/src/widgets/lv_dropdown.c **** 
 1368              		.loc 1 117 5 discriminator 1 view .LVU408
 1369 0024 FFF7FEFF 		bl	_lv_log_add
 1370              	.LVL147:
 1371              	.L59:
 117:lvgl/lvgl/src/widgets/lv_dropdown.c **** 
 1372              		.loc 1 117 5 is_stmt 1 discriminator 1 view .LVU409
 117:lvgl/lvgl/src/widgets/lv_dropdown.c **** 
 1373              		.loc 1 117 5 discriminator 1 view .LVU410
 117:lvgl/lvgl/src/widgets/lv_dropdown.c **** 
 1374              		.loc 1 117 5 discriminator 1 view .LVU411
 117:lvgl/lvgl/src/widgets/lv_dropdown.c **** 
 1375              		.loc 1 117 5 discriminator 1 view .LVU412
 1376 0028 FEE7     		b	.L59
 1377              	.LVL148:
 1378              	.L61:
 124:lvgl/lvgl/src/widgets/lv_dropdown.c ****         if(options[i] == '\n') dropdown->option_cnt++;
 1379              		.loc 1 124 36 discriminator 2 view .LVU413
 124:lvgl/lvgl/src/widgets/lv_dropdown.c ****         if(options[i] == '\n') dropdown->option_cnt++;
 1380              		.loc 1 124 37 is_stmt 0 discriminator 2 view .LVU414
 1381 002a 0133     		adds	r3, r3, #1
 1382              	.LVL149:
 1383              	.L60:
 124:lvgl/lvgl/src/widgets/lv_dropdown.c ****         if(options[i] == '\n') dropdown->option_cnt++;
 1384              		.loc 1 124 16 is_stmt 1 discriminator 1 view .LVU415
 124:lvgl/lvgl/src/widgets/lv_dropdown.c ****         if(options[i] == '\n') dropdown->option_cnt++;
 1385              		.loc 1 124 23 is_stmt 0 discriminator 1 view .LVU416
 1386 002c EA5C     		ldrb	r2, [r5, r3]	@ zero_extendqisi2
 124:lvgl/lvgl/src/widgets/lv_dropdown.c ****         if(options[i] == '\n') dropdown->option_cnt++;
 1387              		.loc 1 124 5 discriminator 1 view .LVU417
 1388 002e 2AB1     		cbz	r2, .L68
 125:lvgl/lvgl/src/widgets/lv_dropdown.c ****     }
 1389              		.loc 1 125 9 is_stmt 1 view .LVU418
 125:lvgl/lvgl/src/widgets/lv_dropdown.c ****     }
 1390              		.loc 1 125 11 is_stmt 0 view .LVU419
 1391 0030 0A2A     		cmp	r2, #10
ARM GAS  C:\Users\gx\AppData\Local\Temp\ccIqfrB9.s 			page 59


 1392 0032 FAD1     		bne	.L61
 125:lvgl/lvgl/src/widgets/lv_dropdown.c ****     }
 1393              		.loc 1 125 32 is_stmt 1 discriminator 1 view .LVU420
 125:lvgl/lvgl/src/widgets/lv_dropdown.c ****     }
 1394              		.loc 1 125 40 is_stmt 0 discriminator 1 view .LVU421
 1395 0034 A28E     		ldrh	r2, [r4, #52]
 125:lvgl/lvgl/src/widgets/lv_dropdown.c ****     }
 1396              		.loc 1 125 52 discriminator 1 view .LVU422
 1397 0036 0132     		adds	r2, r2, #1
 1398 0038 A286     		strh	r2, [r4, #52]	@ movhi
 1399 003a F6E7     		b	.L61
 1400              	.L68:
 127:lvgl/lvgl/src/widgets/lv_dropdown.c ****     dropdown->sel_opt_id      = 0;
 1401              		.loc 1 127 5 is_stmt 1 view .LVU423
 127:lvgl/lvgl/src/widgets/lv_dropdown.c ****     dropdown->sel_opt_id      = 0;
 1402              		.loc 1 127 13 is_stmt 0 view .LVU424
 1403 003c A38E     		ldrh	r3, [r4, #52]
 1404              	.LVL150:
 127:lvgl/lvgl/src/widgets/lv_dropdown.c ****     dropdown->sel_opt_id      = 0;
 1405              		.loc 1 127 25 view .LVU425
 1406 003e 0133     		adds	r3, r3, #1
 1407 0040 A386     		strh	r3, [r4, #52]	@ movhi
 128:lvgl/lvgl/src/widgets/lv_dropdown.c ****     dropdown->sel_opt_id_orig = 0;
 1408              		.loc 1 128 5 is_stmt 1 view .LVU426
 128:lvgl/lvgl/src/widgets/lv_dropdown.c ****     dropdown->sel_opt_id_orig = 0;
 1409              		.loc 1 128 31 is_stmt 0 view .LVU427
 1410 0042 0023     		movs	r3, #0
 1411 0044 E386     		strh	r3, [r4, #54]	@ movhi
 129:lvgl/lvgl/src/widgets/lv_dropdown.c **** 
 1412              		.loc 1 129 5 is_stmt 1 view .LVU428
 129:lvgl/lvgl/src/widgets/lv_dropdown.c **** 
 1413              		.loc 1 129 31 is_stmt 0 view .LVU429
 1414 0046 2387     		strh	r3, [r4, #56]	@ movhi
 133:lvgl/lvgl/src/widgets/lv_dropdown.c **** #else
 1415              		.loc 1 133 5 is_stmt 1 view .LVU430
 133:lvgl/lvgl/src/widgets/lv_dropdown.c **** #else
 1416              		.loc 1 133 18 is_stmt 0 view .LVU431
 1417 0048 2846     		mov	r0, r5
 1418              	.LVL151:
 133:lvgl/lvgl/src/widgets/lv_dropdown.c **** #else
 1419              		.loc 1 133 18 view .LVU432
 1420 004a FFF7FEFF 		bl	strlen
 1421              	.LVL152:
 133:lvgl/lvgl/src/widgets/lv_dropdown.c **** #else
 1422              		.loc 1 133 12 view .LVU433
 1423 004e 461C     		adds	r6, r0, #1
 1424              	.LVL153:
 138:lvgl/lvgl/src/widgets/lv_dropdown.c ****         lv_mem_free(dropdown->options);
 1425              		.loc 1 138 5 is_stmt 1 view .LVU434
 138:lvgl/lvgl/src/widgets/lv_dropdown.c ****         lv_mem_free(dropdown->options);
 1426              		.loc 1 138 16 is_stmt 0 view .LVU435
 1427 0050 206B     		ldr	r0, [r4, #48]
 138:lvgl/lvgl/src/widgets/lv_dropdown.c ****         lv_mem_free(dropdown->options);
 1428              		.loc 1 138 7 view .LVU436
 1429 0052 20B1     		cbz	r0, .L63
 138:lvgl/lvgl/src/widgets/lv_dropdown.c ****         lv_mem_free(dropdown->options);
 1430              		.loc 1 138 58 discriminator 1 view .LVU437
ARM GAS  C:\Users\gx\AppData\Local\Temp\ccIqfrB9.s 			page 60


 1431 0054 94F83C30 		ldrb	r3, [r4, #60]	@ zero_extendqisi2
 138:lvgl/lvgl/src/widgets/lv_dropdown.c ****         lv_mem_free(dropdown->options);
 1432              		.loc 1 138 34 discriminator 1 view .LVU438
 1433 0058 13F0100F 		tst	r3, #16
 1434 005c 0FD0     		beq	.L69
 1435              	.L63:
 143:lvgl/lvgl/src/widgets/lv_dropdown.c **** 
 1436              		.loc 1 143 5 is_stmt 1 view .LVU439
 143:lvgl/lvgl/src/widgets/lv_dropdown.c **** 
 1437              		.loc 1 143 25 is_stmt 0 view .LVU440
 1438 005e 3046     		mov	r0, r6
 1439 0060 FFF7FEFF 		bl	lv_mem_alloc
 1440              	.LVL154:
 143:lvgl/lvgl/src/widgets/lv_dropdown.c **** 
 1441              		.loc 1 143 23 view .LVU441
 1442 0064 2063     		str	r0, [r4, #48]
 145:lvgl/lvgl/src/widgets/lv_dropdown.c ****     if(dropdown->options == NULL) return;
 1443              		.loc 1 145 5 is_stmt 1 view .LVU442
 145:lvgl/lvgl/src/widgets/lv_dropdown.c ****     if(dropdown->options == NULL) return;
 1444              		.loc 1 145 5 view .LVU443
 1445 0066 78B1     		cbz	r0, .L70
 145:lvgl/lvgl/src/widgets/lv_dropdown.c ****     if(dropdown->options == NULL) return;
 1446              		.loc 1 145 5 view .LVU444
 145:lvgl/lvgl/src/widgets/lv_dropdown.c ****     if(dropdown->options == NULL) return;
 1447              		.loc 1 145 40 view .LVU445
 146:lvgl/lvgl/src/widgets/lv_dropdown.c **** 
 1448              		.loc 1 146 5 view .LVU446
 149:lvgl/lvgl/src/widgets/lv_dropdown.c **** #else
 1449              		.loc 1 149 5 view .LVU447
 1450 0068 2946     		mov	r1, r5
 1451 006a FFF7FEFF 		bl	strcpy
 1452              	.LVL155:
 155:lvgl/lvgl/src/widgets/lv_dropdown.c **** }
 1453              		.loc 1 155 5 view .LVU448
 155:lvgl/lvgl/src/widgets/lv_dropdown.c **** }
 1454              		.loc 1 155 26 is_stmt 0 view .LVU449
 1455 006e 94F83C30 		ldrb	r3, [r4, #60]	@ zero_extendqisi2
 1456 0072 6FF30413 		bfc	r3, #4, #1
 1457 0076 84F83C30 		strb	r3, [r4, #60]
 156:lvgl/lvgl/src/widgets/lv_dropdown.c **** 
 1458              		.loc 1 156 1 view .LVU450
 1459 007a 04B0     		add	sp, sp, #16
 1460              	.LCFI25:
 1461              		.cfi_remember_state
 1462              		.cfi_def_cfa_offset 16
 1463              		@ sp needed
 1464 007c 70BD     		pop	{r4, r5, r6, pc}
 1465              	.LVL156:
 1466              	.L69:
 1467              	.LCFI26:
 1468              		.cfi_restore_state
 139:lvgl/lvgl/src/widgets/lv_dropdown.c ****         dropdown->options = NULL;
 1469              		.loc 1 139 9 is_stmt 1 view .LVU451
 1470 007e FFF7FEFF 		bl	lv_mem_free
 1471              	.LVL157:
 140:lvgl/lvgl/src/widgets/lv_dropdown.c ****     }
 1472              		.loc 1 140 9 view .LVU452
ARM GAS  C:\Users\gx\AppData\Local\Temp\ccIqfrB9.s 			page 61


 140:lvgl/lvgl/src/widgets/lv_dropdown.c ****     }
 1473              		.loc 1 140 27 is_stmt 0 view .LVU453
 1474 0082 0023     		movs	r3, #0
 1475 0084 2363     		str	r3, [r4, #48]
 1476 0086 EAE7     		b	.L63
 1477              	.L70:
 145:lvgl/lvgl/src/widgets/lv_dropdown.c ****     if(dropdown->options == NULL) return;
 1478              		.loc 1 145 5 is_stmt 1 discriminator 1 view .LVU454
 1479 0088 0B4B     		ldr	r3, .L71+20
 1480 008a 0293     		str	r3, [sp, #8]
 1481 008c 0B4B     		ldr	r3, .L71+24
 1482 008e 0193     		str	r3, [sp, #4]
 1483 0090 064B     		ldr	r3, .L71+8
 1484 0092 0093     		str	r3, [sp]
 1485 0094 064B     		ldr	r3, .L71+12
 1486 0096 9122     		movs	r2, #145
 1487 0098 0649     		ldr	r1, .L71+16
 1488 009a 0320     		movs	r0, #3
 1489 009c FFF7FEFF 		bl	_lv_log_add
 1490              	.LVL158:
 1491              	.L65:
 145:lvgl/lvgl/src/widgets/lv_dropdown.c ****     if(dropdown->options == NULL) return;
 1492              		.loc 1 145 5 discriminator 2 view .LVU455
 145:lvgl/lvgl/src/widgets/lv_dropdown.c ****     if(dropdown->options == NULL) return;
 1493              		.loc 1 145 5 discriminator 2 view .LVU456
 145:lvgl/lvgl/src/widgets/lv_dropdown.c ****     if(dropdown->options == NULL) return;
 1494              		.loc 1 145 5 discriminator 2 view .LVU457
 145:lvgl/lvgl/src/widgets/lv_dropdown.c ****     if(dropdown->options == NULL) return;
 1495              		.loc 1 145 5 discriminator 2 view .LVU458
 1496 00a0 FEE7     		b	.L65
 1497              	.L72:
 1498 00a2 00BF     		.align	2
 1499              	.L71:
 1500 00a4 24000000 		.word	.LC1
 1501 00a8 34000000 		.word	.LC2
 1502 00ac 44000000 		.word	.LC3
 1503 00b0 00000000 		.word	.LANCHOR2
 1504 00b4 00000000 		.word	.LC0
 1505 00b8 64000000 		.word	.LC4
 1506 00bc 74000000 		.word	.LC5
 1507              		.cfi_endproc
 1508              	.LFE160:
 1510              		.section	.text.lv_dropdown_set_options_static,"ax",%progbits
 1511              		.align	1
 1512              		.global	lv_dropdown_set_options_static
 1513              		.syntax unified
 1514              		.thumb
 1515              		.thumb_func
 1516              		.fpu fpv4-sp-d16
 1518              	lv_dropdown_set_options_static:
 1519              	.LVL159:
 1520              	.LFB161:
 159:lvgl/lvgl/src/widgets/lv_dropdown.c ****     LV_ASSERT_OBJ(obj, MY_CLASS);
 1521              		.loc 1 159 1 view -0
 1522              		.cfi_startproc
 1523              		@ args = 0, pretend = 0, frame = 0
 1524              		@ frame_needed = 0, uses_anonymous_args = 0
ARM GAS  C:\Users\gx\AppData\Local\Temp\ccIqfrB9.s 			page 62


 159:lvgl/lvgl/src/widgets/lv_dropdown.c ****     LV_ASSERT_OBJ(obj, MY_CLASS);
 1525              		.loc 1 159 1 is_stmt 0 view .LVU460
 1526 0000 30B5     		push	{r4, r5, lr}
 1527              	.LCFI27:
 1528              		.cfi_def_cfa_offset 12
 1529              		.cfi_offset 4, -12
 1530              		.cfi_offset 5, -8
 1531              		.cfi_offset 14, -4
 1532 0002 85B0     		sub	sp, sp, #20
 1533              	.LCFI28:
 1534              		.cfi_def_cfa_offset 32
 160:lvgl/lvgl/src/widgets/lv_dropdown.c ****     LV_ASSERT_NULL(options);
 1535              		.loc 1 160 5 is_stmt 1 view .LVU461
 160:lvgl/lvgl/src/widgets/lv_dropdown.c ****     LV_ASSERT_NULL(options);
 1536              		.loc 1 160 5 view .LVU462
 160:lvgl/lvgl/src/widgets/lv_dropdown.c ****     LV_ASSERT_NULL(options);
 1537              		.loc 1 160 5 view .LVU463
 161:lvgl/lvgl/src/widgets/lv_dropdown.c **** 
 1538              		.loc 1 161 5 view .LVU464
 161:lvgl/lvgl/src/widgets/lv_dropdown.c **** 
 1539              		.loc 1 161 5 view .LVU465
 1540 0004 21B1     		cbz	r1, .L81
 1541 0006 0446     		mov	r4, r0
 1542 0008 0D46     		mov	r5, r1
 161:lvgl/lvgl/src/widgets/lv_dropdown.c **** 
 1543              		.loc 1 161 5 discriminator 2 view .LVU466
 161:lvgl/lvgl/src/widgets/lv_dropdown.c **** 
 1544              		.loc 1 161 28 discriminator 2 view .LVU467
 163:lvgl/lvgl/src/widgets/lv_dropdown.c **** 
 1545              		.loc 1 163 5 discriminator 2 view .LVU468
 1546              	.LVL160:
 166:lvgl/lvgl/src/widgets/lv_dropdown.c ****     uint32_t i;
 1547              		.loc 1 166 5 discriminator 2 view .LVU469
 166:lvgl/lvgl/src/widgets/lv_dropdown.c ****     uint32_t i;
 1548              		.loc 1 166 26 is_stmt 0 discriminator 2 view .LVU470
 1549 000a 0023     		movs	r3, #0
 1550 000c 8386     		strh	r3, [r0, #52]	@ movhi
 167:lvgl/lvgl/src/widgets/lv_dropdown.c ****     for(i = 0; options[i] != '\0'; i++) {
 1551              		.loc 1 167 5 is_stmt 1 discriminator 2 view .LVU471
 168:lvgl/lvgl/src/widgets/lv_dropdown.c ****         if(options[i] == '\n') dropdown->option_cnt++;
 1552              		.loc 1 168 5 discriminator 2 view .LVU472
 1553              	.LVL161:
 168:lvgl/lvgl/src/widgets/lv_dropdown.c ****         if(options[i] == '\n') dropdown->option_cnt++;
 1554              		.loc 1 168 5 is_stmt 0 discriminator 2 view .LVU473
 1555 000e 0DE0     		b	.L76
 1556              	.LVL162:
 1557              	.L81:
 161:lvgl/lvgl/src/widgets/lv_dropdown.c **** 
 1558              		.loc 1 161 5 is_stmt 1 discriminator 1 view .LVU474
 1559 0010 164B     		ldr	r3, .L83
 1560 0012 0293     		str	r3, [sp, #8]
 1561 0014 164B     		ldr	r3, .L83+4
 1562 0016 0193     		str	r3, [sp, #4]
 1563 0018 164B     		ldr	r3, .L83+8
 1564 001a 0093     		str	r3, [sp]
 1565 001c 164B     		ldr	r3, .L83+12
 1566 001e A122     		movs	r2, #161
ARM GAS  C:\Users\gx\AppData\Local\Temp\ccIqfrB9.s 			page 63


 1567 0020 1649     		ldr	r1, .L83+16
 1568              	.LVL163:
 161:lvgl/lvgl/src/widgets/lv_dropdown.c **** 
 1569              		.loc 1 161 5 is_stmt 0 discriminator 1 view .LVU475
 1570 0022 0320     		movs	r0, #3
 1571              	.LVL164:
 161:lvgl/lvgl/src/widgets/lv_dropdown.c **** 
 1572              		.loc 1 161 5 discriminator 1 view .LVU476
 1573 0024 FFF7FEFF 		bl	_lv_log_add
 1574              	.LVL165:
 1575              	.L75:
 161:lvgl/lvgl/src/widgets/lv_dropdown.c **** 
 1576              		.loc 1 161 5 is_stmt 1 discriminator 1 view .LVU477
 161:lvgl/lvgl/src/widgets/lv_dropdown.c **** 
 1577              		.loc 1 161 5 discriminator 1 view .LVU478
 161:lvgl/lvgl/src/widgets/lv_dropdown.c **** 
 1578              		.loc 1 161 5 discriminator 1 view .LVU479
 161:lvgl/lvgl/src/widgets/lv_dropdown.c **** 
 1579              		.loc 1 161 5 discriminator 1 view .LVU480
 1580 0028 FEE7     		b	.L75
 1581              	.LVL166:
 1582              	.L77:
 168:lvgl/lvgl/src/widgets/lv_dropdown.c ****         if(options[i] == '\n') dropdown->option_cnt++;
 1583              		.loc 1 168 36 discriminator 2 view .LVU481
 168:lvgl/lvgl/src/widgets/lv_dropdown.c ****         if(options[i] == '\n') dropdown->option_cnt++;
 1584              		.loc 1 168 37 is_stmt 0 discriminator 2 view .LVU482
 1585 002a 0133     		adds	r3, r3, #1
 1586              	.LVL167:
 1587              	.L76:
 168:lvgl/lvgl/src/widgets/lv_dropdown.c ****         if(options[i] == '\n') dropdown->option_cnt++;
 1588              		.loc 1 168 16 is_stmt 1 discriminator 1 view .LVU483
 168:lvgl/lvgl/src/widgets/lv_dropdown.c ****         if(options[i] == '\n') dropdown->option_cnt++;
 1589              		.loc 1 168 23 is_stmt 0 discriminator 1 view .LVU484
 1590 002c EA5C     		ldrb	r2, [r5, r3]	@ zero_extendqisi2
 168:lvgl/lvgl/src/widgets/lv_dropdown.c ****         if(options[i] == '\n') dropdown->option_cnt++;
 1591              		.loc 1 168 5 discriminator 1 view .LVU485
 1592 002e 2AB1     		cbz	r2, .L82
 169:lvgl/lvgl/src/widgets/lv_dropdown.c ****     }
 1593              		.loc 1 169 9 is_stmt 1 view .LVU486
 169:lvgl/lvgl/src/widgets/lv_dropdown.c ****     }
 1594              		.loc 1 169 11 is_stmt 0 view .LVU487
 1595 0030 0A2A     		cmp	r2, #10
 1596 0032 FAD1     		bne	.L77
 169:lvgl/lvgl/src/widgets/lv_dropdown.c ****     }
 1597              		.loc 1 169 32 is_stmt 1 discriminator 1 view .LVU488
 169:lvgl/lvgl/src/widgets/lv_dropdown.c ****     }
 1598              		.loc 1 169 40 is_stmt 0 discriminator 1 view .LVU489
 1599 0034 A28E     		ldrh	r2, [r4, #52]
 169:lvgl/lvgl/src/widgets/lv_dropdown.c ****     }
 1600              		.loc 1 169 52 discriminator 1 view .LVU490
 1601 0036 0132     		adds	r2, r2, #1
 1602 0038 A286     		strh	r2, [r4, #52]	@ movhi
 1603 003a F6E7     		b	.L77
 1604              	.L82:
 171:lvgl/lvgl/src/widgets/lv_dropdown.c ****     dropdown->sel_opt_id      = 0;
 1605              		.loc 1 171 5 is_stmt 1 view .LVU491
 171:lvgl/lvgl/src/widgets/lv_dropdown.c ****     dropdown->sel_opt_id      = 0;
ARM GAS  C:\Users\gx\AppData\Local\Temp\ccIqfrB9.s 			page 64


 1606              		.loc 1 171 13 is_stmt 0 view .LVU492
 1607 003c A38E     		ldrh	r3, [r4, #52]
 1608              	.LVL168:
 171:lvgl/lvgl/src/widgets/lv_dropdown.c ****     dropdown->sel_opt_id      = 0;
 1609              		.loc 1 171 25 view .LVU493
 1610 003e 0133     		adds	r3, r3, #1
 1611 0040 A386     		strh	r3, [r4, #52]	@ movhi
 172:lvgl/lvgl/src/widgets/lv_dropdown.c ****     dropdown->sel_opt_id_orig = 0;
 1612              		.loc 1 172 5 is_stmt 1 view .LVU494
 172:lvgl/lvgl/src/widgets/lv_dropdown.c ****     dropdown->sel_opt_id_orig = 0;
 1613              		.loc 1 172 31 is_stmt 0 view .LVU495
 1614 0042 0023     		movs	r3, #0
 1615 0044 E386     		strh	r3, [r4, #54]	@ movhi
 173:lvgl/lvgl/src/widgets/lv_dropdown.c **** 
 1616              		.loc 1 173 5 is_stmt 1 view .LVU496
 173:lvgl/lvgl/src/widgets/lv_dropdown.c **** 
 1617              		.loc 1 173 31 is_stmt 0 view .LVU497
 1618 0046 2387     		strh	r3, [r4, #56]	@ movhi
 175:lvgl/lvgl/src/widgets/lv_dropdown.c ****         lv_mem_free(dropdown->options);
 1619              		.loc 1 175 5 is_stmt 1 view .LVU498
 175:lvgl/lvgl/src/widgets/lv_dropdown.c ****         lv_mem_free(dropdown->options);
 1620              		.loc 1 175 29 is_stmt 0 view .LVU499
 1621 0048 94F83C30 		ldrb	r3, [r4, #60]	@ zero_extendqisi2
 175:lvgl/lvgl/src/widgets/lv_dropdown.c ****         lv_mem_free(dropdown->options);
 1622              		.loc 1 175 7 view .LVU500
 1623 004c 13F0100F 		tst	r3, #16
 1624 0050 03D1     		bne	.L79
 175:lvgl/lvgl/src/widgets/lv_dropdown.c ****         lv_mem_free(dropdown->options);
 1625              		.loc 1 175 45 discriminator 1 view .LVU501
 1626 0052 206B     		ldr	r0, [r4, #48]
 1627              	.LVL169:
 175:lvgl/lvgl/src/widgets/lv_dropdown.c ****         lv_mem_free(dropdown->options);
 1628              		.loc 1 175 34 discriminator 1 view .LVU502
 1629 0054 08B1     		cbz	r0, .L79
 176:lvgl/lvgl/src/widgets/lv_dropdown.c ****         dropdown->options = NULL;
 1630              		.loc 1 176 9 is_stmt 1 view .LVU503
 1631 0056 FFF7FEFF 		bl	lv_mem_free
 1632              	.LVL170:
 177:lvgl/lvgl/src/widgets/lv_dropdown.c ****     }
 1633              		.loc 1 177 9 view .LVU504
 1634              	.L79:
 180:lvgl/lvgl/src/widgets/lv_dropdown.c ****     dropdown->options = (char *)options;
 1635              		.loc 1 180 5 view .LVU505
 180:lvgl/lvgl/src/widgets/lv_dropdown.c ****     dropdown->options = (char *)options;
 1636              		.loc 1 180 26 is_stmt 0 view .LVU506
 1637 005a 94F83C30 		ldrb	r3, [r4, #60]	@ zero_extendqisi2
 1638 005e 43F01003 		orr	r3, r3, #16
 1639 0062 84F83C30 		strb	r3, [r4, #60]
 181:lvgl/lvgl/src/widgets/lv_dropdown.c **** }
 1640              		.loc 1 181 5 is_stmt 1 view .LVU507
 181:lvgl/lvgl/src/widgets/lv_dropdown.c **** }
 1641              		.loc 1 181 23 is_stmt 0 view .LVU508
 1642 0066 2563     		str	r5, [r4, #48]
 182:lvgl/lvgl/src/widgets/lv_dropdown.c **** 
 1643              		.loc 1 182 1 view .LVU509
 1644 0068 05B0     		add	sp, sp, #20
 1645              	.LCFI29:
ARM GAS  C:\Users\gx\AppData\Local\Temp\ccIqfrB9.s 			page 65


 1646              		.cfi_def_cfa_offset 12
 1647              		@ sp needed
 1648 006a 30BD     		pop	{r4, r5, pc}
 1649              	.LVL171:
 1650              	.L84:
 182:lvgl/lvgl/src/widgets/lv_dropdown.c **** 
 1651              		.loc 1 182 1 view .LVU510
 1652              		.align	2
 1653              	.L83:
 1654 006c 24000000 		.word	.LC1
 1655 0070 34000000 		.word	.LC2
 1656 0074 44000000 		.word	.LC3
 1657 0078 00000000 		.word	.LANCHOR3
 1658 007c 00000000 		.word	.LC0
 1659              		.cfi_endproc
 1660              	.LFE161:
 1662              		.section	.rodata.lv_dropdown_constructor.str1.4,"aMS",%progbits,1
 1663              		.align	2
 1664              	.LC6:
 1665 0000 EF81B800 		.ascii	"\357\201\270\000"
 1666              		.align	2
 1667              	.LC7:
 1668 0004 4F707469 		.ascii	"Option 1\012Option 2\012Option 3\000"
 1668      6F6E2031 
 1668      0A4F7074 
 1668      696F6E20 
 1668      320A4F70 
 1669              		.section	.text.lv_dropdown_constructor,"ax",%progbits
 1670              		.align	1
 1671              		.syntax unified
 1672              		.thumb
 1673              		.thumb_func
 1674              		.fpu fpv4-sp-d16
 1676              	lv_dropdown_constructor:
 1677              	.LVL172:
 1678              	.LFB180:
 537:lvgl/lvgl/src/widgets/lv_dropdown.c ****     LV_UNUSED(class_p);
 1679              		.loc 1 537 1 is_stmt 1 view -0
 1680              		.cfi_startproc
 1681              		@ args = 0, pretend = 0, frame = 0
 1682              		@ frame_needed = 0, uses_anonymous_args = 0
 537:lvgl/lvgl/src/widgets/lv_dropdown.c ****     LV_UNUSED(class_p);
 1683              		.loc 1 537 1 is_stmt 0 view .LVU512
 1684 0000 10B5     		push	{r4, lr}
 1685              	.LCFI30:
 1686              		.cfi_def_cfa_offset 8
 1687              		.cfi_offset 4, -8
 1688              		.cfi_offset 14, -4
 1689 0002 0C46     		mov	r4, r1
 538:lvgl/lvgl/src/widgets/lv_dropdown.c ****     LV_TRACE_OBJ_CREATE("begin");
 1690              		.loc 1 538 5 is_stmt 1 view .LVU513
 539:lvgl/lvgl/src/widgets/lv_dropdown.c **** 
 1691              		.loc 1 539 5 view .LVU514
 539:lvgl/lvgl/src/widgets/lv_dropdown.c **** 
 1692              		.loc 1 539 5 view .LVU515
 539:lvgl/lvgl/src/widgets/lv_dropdown.c **** 
 1693              		.loc 1 539 5 view .LVU516
ARM GAS  C:\Users\gx\AppData\Local\Temp\ccIqfrB9.s 			page 66


 539:lvgl/lvgl/src/widgets/lv_dropdown.c **** 
 1694              		.loc 1 539 33 view .LVU517
 541:lvgl/lvgl/src/widgets/lv_dropdown.c **** 
 1695              		.loc 1 541 5 view .LVU518
 1696              	.LVL173:
 544:lvgl/lvgl/src/widgets/lv_dropdown.c ****     dropdown->options     = NULL;
 1697              		.loc 1 544 5 view .LVU519
 544:lvgl/lvgl/src/widgets/lv_dropdown.c ****     dropdown->options     = NULL;
 1698              		.loc 1 544 29 is_stmt 0 view .LVU520
 1699 0004 0023     		movs	r3, #0
 1700 0006 4B62     		str	r3, [r1, #36]
 545:lvgl/lvgl/src/widgets/lv_dropdown.c ****     dropdown->symbol         = LV_SYMBOL_DOWN;
 1701              		.loc 1 545 5 is_stmt 1 view .LVU521
 545:lvgl/lvgl/src/widgets/lv_dropdown.c ****     dropdown->symbol         = LV_SYMBOL_DOWN;
 1702              		.loc 1 545 27 is_stmt 0 view .LVU522
 1703 0008 0B63     		str	r3, [r1, #48]
 546:lvgl/lvgl/src/widgets/lv_dropdown.c ****     dropdown->text         = NULL;
 1704              		.loc 1 546 5 is_stmt 1 view .LVU523
 546:lvgl/lvgl/src/widgets/lv_dropdown.c ****     dropdown->text         = NULL;
 1705              		.loc 1 546 30 is_stmt 0 view .LVU524
 1706 000a 0E4A     		ldr	r2, .L87
 1707 000c CA62     		str	r2, [r1, #44]
 547:lvgl/lvgl/src/widgets/lv_dropdown.c ****     dropdown->static_txt = 1;
 1708              		.loc 1 547 5 is_stmt 1 view .LVU525
 547:lvgl/lvgl/src/widgets/lv_dropdown.c ****     dropdown->static_txt = 1;
 1709              		.loc 1 547 28 is_stmt 0 view .LVU526
 1710 000e 8B62     		str	r3, [r1, #40]
 548:lvgl/lvgl/src/widgets/lv_dropdown.c ****     dropdown->selected_highlight = 1;
 1711              		.loc 1 548 5 is_stmt 1 view .LVU527
 548:lvgl/lvgl/src/widgets/lv_dropdown.c ****     dropdown->selected_highlight = 1;
 1712              		.loc 1 548 26 is_stmt 0 view .LVU528
 1713 0010 91F83C20 		ldrb	r2, [r1, #60]	@ zero_extendqisi2
 549:lvgl/lvgl/src/widgets/lv_dropdown.c ****     dropdown->sel_opt_id      = 0;
 1714              		.loc 1 549 5 is_stmt 1 view .LVU529
 550:lvgl/lvgl/src/widgets/lv_dropdown.c ****     dropdown->sel_opt_id_orig = 0;
 1715              		.loc 1 550 5 view .LVU530
 550:lvgl/lvgl/src/widgets/lv_dropdown.c ****     dropdown->sel_opt_id_orig = 0;
 1716              		.loc 1 550 31 is_stmt 0 view .LVU531
 1717 0014 CB86     		strh	r3, [r1, #54]	@ movhi
 551:lvgl/lvgl/src/widgets/lv_dropdown.c ****     dropdown->pr_opt_id = LV_DROPDOWN_PR_NONE;
 1718              		.loc 1 551 5 is_stmt 1 view .LVU532
 551:lvgl/lvgl/src/widgets/lv_dropdown.c ****     dropdown->pr_opt_id = LV_DROPDOWN_PR_NONE;
 1719              		.loc 1 551 31 is_stmt 0 view .LVU533
 1720 0016 0B87     		strh	r3, [r1, #56]	@ movhi
 552:lvgl/lvgl/src/widgets/lv_dropdown.c ****     dropdown->option_cnt      = 0;
 1721              		.loc 1 552 5 is_stmt 1 view .LVU534
 552:lvgl/lvgl/src/widgets/lv_dropdown.c ****     dropdown->option_cnt      = 0;
 1722              		.loc 1 552 25 is_stmt 0 view .LVU535
 1723 0018 4FF6FF71 		movw	r1, #65535
 1724              	.LVL174:
 552:lvgl/lvgl/src/widgets/lv_dropdown.c ****     dropdown->option_cnt      = 0;
 1725              		.loc 1 552 25 view .LVU536
 1726 001c 6187     		strh	r1, [r4, #58]	@ movhi
 553:lvgl/lvgl/src/widgets/lv_dropdown.c ****     dropdown->dir = LV_DIR_BOTTOM;
 1727              		.loc 1 553 5 is_stmt 1 view .LVU537
 553:lvgl/lvgl/src/widgets/lv_dropdown.c ****     dropdown->dir = LV_DIR_BOTTOM;
 1728              		.loc 1 553 31 is_stmt 0 view .LVU538
ARM GAS  C:\Users\gx\AppData\Local\Temp\ccIqfrB9.s 			page 67


 1729 001e A386     		strh	r3, [r4, #52]	@ movhi
 554:lvgl/lvgl/src/widgets/lv_dropdown.c **** 
 1730              		.loc 1 554 5 is_stmt 1 view .LVU539
 554:lvgl/lvgl/src/widgets/lv_dropdown.c **** 
 1731              		.loc 1 554 19 is_stmt 0 view .LVU540
 1732 0020 42F03003 		orr	r3, r2, #48
 1733 0024 0822     		movs	r2, #8
 1734 0026 62F30303 		bfi	r3, r2, #0, #4
 1735 002a 84F83C30 		strb	r3, [r4, #60]
 556:lvgl/lvgl/src/widgets/lv_dropdown.c ****     lv_dropdown_set_options_static(obj, "Option 1\nOption 2\nOption 3");
 1736              		.loc 1 556 5 is_stmt 1 view .LVU541
 1737 002e 4FF40071 		mov	r1, #512
 1738 0032 2046     		mov	r0, r4
 1739              	.LVL175:
 556:lvgl/lvgl/src/widgets/lv_dropdown.c ****     lv_dropdown_set_options_static(obj, "Option 1\nOption 2\nOption 3");
 1740              		.loc 1 556 5 is_stmt 0 view .LVU542
 1741 0034 FFF7FEFF 		bl	lv_obj_add_flag
 1742              	.LVL176:
 557:lvgl/lvgl/src/widgets/lv_dropdown.c **** 
 1743              		.loc 1 557 5 is_stmt 1 view .LVU543
 1744 0038 0349     		ldr	r1, .L87+4
 1745 003a 2046     		mov	r0, r4
 1746 003c FFF7FEFF 		bl	lv_dropdown_set_options_static
 1747              	.LVL177:
 559:lvgl/lvgl/src/widgets/lv_dropdown.c **** }
 1748              		.loc 1 559 5 view .LVU544
 559:lvgl/lvgl/src/widgets/lv_dropdown.c **** }
 1749              		.loc 1 559 5 view .LVU545
 559:lvgl/lvgl/src/widgets/lv_dropdown.c **** }
 1750              		.loc 1 559 5 view .LVU546
 559:lvgl/lvgl/src/widgets/lv_dropdown.c **** }
 1751              		.loc 1 559 36 view .LVU547
 560:lvgl/lvgl/src/widgets/lv_dropdown.c **** 
 1752              		.loc 1 560 1 is_stmt 0 view .LVU548
 1753 0040 10BD     		pop	{r4, pc}
 1754              	.LVL178:
 1755              	.L88:
 560:lvgl/lvgl/src/widgets/lv_dropdown.c **** 
 1756              		.loc 1 560 1 view .LVU549
 1757 0042 00BF     		.align	2
 1758              	.L87:
 1759 0044 00000000 		.word	.LC6
 1760 0048 04000000 		.word	.LC7
 1761              		.cfi_endproc
 1762              	.LFE180:
 1764              		.section	.rodata.lv_dropdown_add_option.str1.4,"aMS",%progbits,1
 1765              		.align	2
 1766              	.LC8:
 1767 0000 6F707469 		.ascii	"option != NULL\000"
 1767      6F6E2021 
 1767      3D204E55 
 1767      4C4C00
 1768 000f 00       		.align	2
 1769              	.LC9:
 1770 0010 0A00     		.ascii	"\012\000"
 1771 0012 0000     		.align	2
 1772              	.LC10:
ARM GAS  C:\Users\gx\AppData\Local\Temp\ccIqfrB9.s 			page 68


 1773 0014 696E735F 		.ascii	"ins_buf != NULL\000"
 1773      62756620 
 1773      213D204E 
 1773      554C4C00 
 1774              		.section	.text.lv_dropdown_add_option,"ax",%progbits
 1775              		.align	1
 1776              		.global	lv_dropdown_add_option
 1777              		.syntax unified
 1778              		.thumb
 1779              		.thumb_func
 1780              		.fpu fpv4-sp-d16
 1782              	lv_dropdown_add_option:
 1783              	.LVL179:
 1784              	.LFB162:
 185:lvgl/lvgl/src/widgets/lv_dropdown.c ****     LV_ASSERT_OBJ(obj, MY_CLASS);
 1785              		.loc 1 185 1 is_stmt 1 view -0
 1786              		.cfi_startproc
 1787              		@ args = 0, pretend = 0, frame = 0
 1788              		@ frame_needed = 0, uses_anonymous_args = 0
 185:lvgl/lvgl/src/widgets/lv_dropdown.c ****     LV_ASSERT_OBJ(obj, MY_CLASS);
 1789              		.loc 1 185 1 is_stmt 0 view .LVU551
 1790 0000 2DE9F047 		push	{r4, r5, r6, r7, r8, r9, r10, lr}
 1791              	.LCFI31:
 1792              		.cfi_def_cfa_offset 32
 1793              		.cfi_offset 4, -32
 1794              		.cfi_offset 5, -28
 1795              		.cfi_offset 6, -24
 1796              		.cfi_offset 7, -20
 1797              		.cfi_offset 8, -16
 1798              		.cfi_offset 9, -12
 1799              		.cfi_offset 10, -8
 1800              		.cfi_offset 14, -4
 1801 0004 84B0     		sub	sp, sp, #16
 1802              	.LCFI32:
 1803              		.cfi_def_cfa_offset 48
 186:lvgl/lvgl/src/widgets/lv_dropdown.c ****     LV_ASSERT_NULL(option);
 1804              		.loc 1 186 5 is_stmt 1 view .LVU552
 186:lvgl/lvgl/src/widgets/lv_dropdown.c ****     LV_ASSERT_NULL(option);
 1805              		.loc 1 186 5 view .LVU553
 186:lvgl/lvgl/src/widgets/lv_dropdown.c ****     LV_ASSERT_NULL(option);
 1806              		.loc 1 186 5 view .LVU554
 187:lvgl/lvgl/src/widgets/lv_dropdown.c **** 
 1807              		.loc 1 187 5 view .LVU555
 187:lvgl/lvgl/src/widgets/lv_dropdown.c **** 
 1808              		.loc 1 187 5 view .LVU556
 1809 0006 31B3     		cbz	r1, .L109
 1810 0008 0446     		mov	r4, r0
 1811 000a 1646     		mov	r6, r2
 1812 000c 8846     		mov	r8, r1
 187:lvgl/lvgl/src/widgets/lv_dropdown.c **** 
 1813              		.loc 1 187 5 discriminator 2 view .LVU557
 187:lvgl/lvgl/src/widgets/lv_dropdown.c **** 
 1814              		.loc 1 187 27 discriminator 2 view .LVU558
 189:lvgl/lvgl/src/widgets/lv_dropdown.c **** 
 1815              		.loc 1 189 5 discriminator 2 view .LVU559
 1816              	.LVL180:
 192:lvgl/lvgl/src/widgets/lv_dropdown.c ****         char * static_options = dropdown->options;
ARM GAS  C:\Users\gx\AppData\Local\Temp\ccIqfrB9.s 			page 69


 1817              		.loc 1 192 5 discriminator 2 view .LVU560
 192:lvgl/lvgl/src/widgets/lv_dropdown.c ****         char * static_options = dropdown->options;
 1818              		.loc 1 192 29 is_stmt 0 discriminator 2 view .LVU561
 1819 000e 90F83C30 		ldrb	r3, [r0, #60]	@ zero_extendqisi2
 192:lvgl/lvgl/src/widgets/lv_dropdown.c ****         char * static_options = dropdown->options;
 1820              		.loc 1 192 7 discriminator 2 view .LVU562
 1821 0012 13F0100F 		tst	r3, #16
 1822 0016 2BD1     		bne	.L110
 1823              	.LVL181:
 1824              	.L92:
 205:lvgl/lvgl/src/widgets/lv_dropdown.c **** #if LV_USE_ARABIC_PERSIAN_CHARS == 0
 1825              		.loc 1 205 5 is_stmt 1 view .LVU563
 205:lvgl/lvgl/src/widgets/lv_dropdown.c **** #if LV_USE_ARABIC_PERSIAN_CHARS == 0
 1826              		.loc 1 205 31 is_stmt 0 view .LVU564
 1827 0018 D4F83090 		ldr	r9, [r4, #48]
 205:lvgl/lvgl/src/widgets/lv_dropdown.c **** #if LV_USE_ARABIC_PERSIAN_CHARS == 0
 1828              		.loc 1 205 54 view .LVU565
 1829 001c B9F1000F 		cmp	r9, #0
 1830 0020 46D0     		beq	.L106
 205:lvgl/lvgl/src/widgets/lv_dropdown.c **** #if LV_USE_ARABIC_PERSIAN_CHARS == 0
 1831              		.loc 1 205 56 discriminator 1 view .LVU566
 1832 0022 4846     		mov	r0, r9
 1833 0024 FFF7FEFF 		bl	strlen
 1834              	.LVL182:
 1835 0028 0546     		mov	r5, r0
 1836              	.L95:
 1837              	.LVL183:
 207:lvgl/lvgl/src/widgets/lv_dropdown.c **** #else
 1838              		.loc 1 207 5 is_stmt 1 discriminator 4 view .LVU567
 207:lvgl/lvgl/src/widgets/lv_dropdown.c **** #else
 1839              		.loc 1 207 22 is_stmt 0 discriminator 4 view .LVU568
 1840 002a 4046     		mov	r0, r8
 1841 002c FFF7FEFF 		bl	strlen
 1842              	.LVL184:
 1843 0030 0746     		mov	r7, r0
 207:lvgl/lvgl/src/widgets/lv_dropdown.c **** #else
 1844              		.loc 1 207 12 discriminator 4 view .LVU569
 1845 0032 411C     		adds	r1, r0, #1
 1846              	.LVL185:
 212:lvgl/lvgl/src/widgets/lv_dropdown.c ****     dropdown->options        = lv_mem_realloc(dropdown->options, new_len + 1);
 1847              		.loc 1 212 5 is_stmt 1 discriminator 4 view .LVU570
 212:lvgl/lvgl/src/widgets/lv_dropdown.c ****     dropdown->options        = lv_mem_realloc(dropdown->options, new_len + 1);
 1848              		.loc 1 212 30 is_stmt 0 discriminator 4 view .LVU571
 1849 0034 2944     		add	r1, r1, r5
 1850              	.LVL186:
 213:lvgl/lvgl/src/widgets/lv_dropdown.c ****     LV_ASSERT_MALLOC(dropdown->options);
 1851              		.loc 1 213 5 is_stmt 1 discriminator 4 view .LVU572
 213:lvgl/lvgl/src/widgets/lv_dropdown.c ****     LV_ASSERT_MALLOC(dropdown->options);
 1852              		.loc 1 213 32 is_stmt 0 discriminator 4 view .LVU573
 1853 0036 0331     		adds	r1, r1, #3
 1854              	.LVL187:
 213:lvgl/lvgl/src/widgets/lv_dropdown.c ****     LV_ASSERT_MALLOC(dropdown->options);
 1855              		.loc 1 213 32 discriminator 4 view .LVU574
 1856 0038 4846     		mov	r0, r9
 1857              	.LVL188:
 213:lvgl/lvgl/src/widgets/lv_dropdown.c ****     LV_ASSERT_MALLOC(dropdown->options);
 1858              		.loc 1 213 32 discriminator 4 view .LVU575
ARM GAS  C:\Users\gx\AppData\Local\Temp\ccIqfrB9.s 			page 70


 1859 003a FFF7FEFF 		bl	lv_mem_realloc
 1860              	.LVL189:
 213:lvgl/lvgl/src/widgets/lv_dropdown.c ****     LV_ASSERT_MALLOC(dropdown->options);
 1861              		.loc 1 213 30 discriminator 4 view .LVU576
 1862 003e 2063     		str	r0, [r4, #48]
 214:lvgl/lvgl/src/widgets/lv_dropdown.c ****     if(dropdown->options == NULL) return;
 1863              		.loc 1 214 5 is_stmt 1 discriminator 4 view .LVU577
 214:lvgl/lvgl/src/widgets/lv_dropdown.c ****     if(dropdown->options == NULL) return;
 1864              		.loc 1 214 5 discriminator 4 view .LVU578
 1865 0040 0028     		cmp	r0, #0
 1866 0042 37D0     		beq	.L111
 214:lvgl/lvgl/src/widgets/lv_dropdown.c ****     if(dropdown->options == NULL) return;
 1867              		.loc 1 214 5 view .LVU579
 214:lvgl/lvgl/src/widgets/lv_dropdown.c ****     if(dropdown->options == NULL) return;
 1868              		.loc 1 214 40 view .LVU580
 215:lvgl/lvgl/src/widgets/lv_dropdown.c **** 
 1869              		.loc 1 215 5 view .LVU581
 217:lvgl/lvgl/src/widgets/lv_dropdown.c **** 
 1870              		.loc 1 217 5 view .LVU582
 217:lvgl/lvgl/src/widgets/lv_dropdown.c **** 
 1871              		.loc 1 217 32 is_stmt 0 view .LVU583
 1872 0044 0022     		movs	r2, #0
 1873 0046 4255     		strb	r2, [r0, r5]
 220:lvgl/lvgl/src/widgets/lv_dropdown.c ****     if(pos != LV_DROPDOWN_POS_LAST) {
 1874              		.loc 1 220 5 is_stmt 1 view .LVU584
 1875              	.LVL190:
 221:lvgl/lvgl/src/widgets/lv_dropdown.c ****         uint32_t opcnt = 0;
 1876              		.loc 1 221 5 view .LVU585
 221:lvgl/lvgl/src/widgets/lv_dropdown.c ****         uint32_t opcnt = 0;
 1877              		.loc 1 221 7 is_stmt 0 view .LVU586
 1878 0048 4FF6FF73 		movw	r3, #65535
 1879 004c 9E42     		cmp	r6, r3
 1880 004e 48D0     		beq	.L99
 1881              	.LBB82:
 222:lvgl/lvgl/src/widgets/lv_dropdown.c ****         for(insert_pos = 0; dropdown->options[insert_pos] != 0; insert_pos++) {
 1882              		.loc 1 222 18 view .LVU587
 1883 0050 0023     		movs	r3, #0
 223:lvgl/lvgl/src/widgets/lv_dropdown.c ****             if(opcnt == pos)
 1884              		.loc 1 223 24 view .LVU588
 1885 0052 1D46     		mov	r5, r3
 1886              	.LVL191:
 223:lvgl/lvgl/src/widgets/lv_dropdown.c ****             if(opcnt == pos)
 1887              		.loc 1 223 24 view .LVU589
 1888 0054 3CE0     		b	.L98
 1889              	.LVL192:
 1890              	.L109:
 223:lvgl/lvgl/src/widgets/lv_dropdown.c ****             if(opcnt == pos)
 1891              		.loc 1 223 24 view .LVU590
 1892              	.LBE82:
 187:lvgl/lvgl/src/widgets/lv_dropdown.c **** 
 1893              		.loc 1 187 5 is_stmt 1 discriminator 1 view .LVU591
 1894 0056 474B     		ldr	r3, .L115
 1895 0058 0293     		str	r3, [sp, #8]
 1896 005a 474B     		ldr	r3, .L115+4
 1897 005c 0193     		str	r3, [sp, #4]
 1898 005e 474B     		ldr	r3, .L115+8
 1899 0060 0093     		str	r3, [sp]
ARM GAS  C:\Users\gx\AppData\Local\Temp\ccIqfrB9.s 			page 71


 1900 0062 474B     		ldr	r3, .L115+12
 1901 0064 BB22     		movs	r2, #187
 1902              	.LVL193:
 187:lvgl/lvgl/src/widgets/lv_dropdown.c **** 
 1903              		.loc 1 187 5 is_stmt 0 discriminator 1 view .LVU592
 1904 0066 4749     		ldr	r1, .L115+16
 1905              	.LVL194:
 187:lvgl/lvgl/src/widgets/lv_dropdown.c **** 
 1906              		.loc 1 187 5 discriminator 1 view .LVU593
 1907 0068 0320     		movs	r0, #3
 1908              	.LVL195:
 187:lvgl/lvgl/src/widgets/lv_dropdown.c **** 
 1909              		.loc 1 187 5 discriminator 1 view .LVU594
 1910 006a FFF7FEFF 		bl	_lv_log_add
 1911              	.LVL196:
 1912              	.L91:
 187:lvgl/lvgl/src/widgets/lv_dropdown.c **** 
 1913              		.loc 1 187 5 is_stmt 1 discriminator 1 view .LVU595
 187:lvgl/lvgl/src/widgets/lv_dropdown.c **** 
 1914              		.loc 1 187 5 discriminator 1 view .LVU596
 187:lvgl/lvgl/src/widgets/lv_dropdown.c **** 
 1915              		.loc 1 187 5 discriminator 1 view .LVU597
 187:lvgl/lvgl/src/widgets/lv_dropdown.c **** 
 1916              		.loc 1 187 5 discriminator 1 view .LVU598
 1917 006e FEE7     		b	.L91
 1918              	.LVL197:
 1919              	.L110:
 1920              	.LBB83:
 193:lvgl/lvgl/src/widgets/lv_dropdown.c ****         size_t len = strlen(static_options) + 1;
 1921              		.loc 1 193 9 view .LVU599
 193:lvgl/lvgl/src/widgets/lv_dropdown.c ****         size_t len = strlen(static_options) + 1;
 1922              		.loc 1 193 16 is_stmt 0 view .LVU600
 1923 0070 056B     		ldr	r5, [r0, #48]
 1924              	.LVL198:
 194:lvgl/lvgl/src/widgets/lv_dropdown.c **** 
 1925              		.loc 1 194 9 is_stmt 1 view .LVU601
 194:lvgl/lvgl/src/widgets/lv_dropdown.c **** 
 1926              		.loc 1 194 22 is_stmt 0 view .LVU602
 1927 0072 2846     		mov	r0, r5
 1928              	.LVL199:
 194:lvgl/lvgl/src/widgets/lv_dropdown.c **** 
 1929              		.loc 1 194 22 view .LVU603
 1930 0074 FFF7FEFF 		bl	strlen
 1931              	.LVL200:
 196:lvgl/lvgl/src/widgets/lv_dropdown.c ****         LV_ASSERT_MALLOC(dropdown->options);
 1932              		.loc 1 196 9 is_stmt 1 view .LVU604
 196:lvgl/lvgl/src/widgets/lv_dropdown.c ****         LV_ASSERT_MALLOC(dropdown->options);
 1933              		.loc 1 196 29 is_stmt 0 view .LVU605
 1934 0078 0130     		adds	r0, r0, #1
 1935              	.LVL201:
 196:lvgl/lvgl/src/widgets/lv_dropdown.c ****         LV_ASSERT_MALLOC(dropdown->options);
 1936              		.loc 1 196 29 view .LVU606
 1937 007a FFF7FEFF 		bl	lv_mem_alloc
 1938              	.LVL202:
 196:lvgl/lvgl/src/widgets/lv_dropdown.c ****         LV_ASSERT_MALLOC(dropdown->options);
 1939              		.loc 1 196 27 view .LVU607
 1940 007e 2063     		str	r0, [r4, #48]
ARM GAS  C:\Users\gx\AppData\Local\Temp\ccIqfrB9.s 			page 72


 197:lvgl/lvgl/src/widgets/lv_dropdown.c ****         if(dropdown->options == NULL) return;
 1941              		.loc 1 197 9 is_stmt 1 view .LVU608
 197:lvgl/lvgl/src/widgets/lv_dropdown.c ****         if(dropdown->options == NULL) return;
 1942              		.loc 1 197 9 view .LVU609
 1943 0080 48B1     		cbz	r0, .L112
 197:lvgl/lvgl/src/widgets/lv_dropdown.c ****         if(dropdown->options == NULL) return;
 1944              		.loc 1 197 9 view .LVU610
 197:lvgl/lvgl/src/widgets/lv_dropdown.c ****         if(dropdown->options == NULL) return;
 1945              		.loc 1 197 44 view .LVU611
 198:lvgl/lvgl/src/widgets/lv_dropdown.c **** 
 1946              		.loc 1 198 9 view .LVU612
 200:lvgl/lvgl/src/widgets/lv_dropdown.c ****         dropdown->static_txt = 0;
 1947              		.loc 1 200 9 view .LVU613
 1948 0082 2946     		mov	r1, r5
 1949 0084 FFF7FEFF 		bl	strcpy
 1950              	.LVL203:
 201:lvgl/lvgl/src/widgets/lv_dropdown.c ****     }
 1951              		.loc 1 201 9 view .LVU614
 201:lvgl/lvgl/src/widgets/lv_dropdown.c ****     }
 1952              		.loc 1 201 30 is_stmt 0 view .LVU615
 1953 0088 94F83C30 		ldrb	r3, [r4, #60]	@ zero_extendqisi2
 1954 008c 6FF30413 		bfc	r3, #4, #1
 1955 0090 84F83C30 		strb	r3, [r4, #60]
 1956 0094 C0E7     		b	.L92
 1957              	.L112:
 197:lvgl/lvgl/src/widgets/lv_dropdown.c ****         if(dropdown->options == NULL) return;
 1958              		.loc 1 197 9 is_stmt 1 discriminator 1 view .LVU616
 1959 0096 3C4B     		ldr	r3, .L115+20
 1960 0098 0293     		str	r3, [sp, #8]
 1961 009a 3C4B     		ldr	r3, .L115+24
 1962 009c 0193     		str	r3, [sp, #4]
 1963 009e 374B     		ldr	r3, .L115+8
 1964 00a0 0093     		str	r3, [sp]
 1965 00a2 374B     		ldr	r3, .L115+12
 1966 00a4 C522     		movs	r2, #197
 1967 00a6 3749     		ldr	r1, .L115+16
 1968 00a8 0320     		movs	r0, #3
 1969 00aa FFF7FEFF 		bl	_lv_log_add
 1970              	.LVL204:
 1971              	.L94:
 197:lvgl/lvgl/src/widgets/lv_dropdown.c ****         if(dropdown->options == NULL) return;
 1972              		.loc 1 197 9 discriminator 2 view .LVU617
 197:lvgl/lvgl/src/widgets/lv_dropdown.c ****         if(dropdown->options == NULL) return;
 1973              		.loc 1 197 9 discriminator 2 view .LVU618
 197:lvgl/lvgl/src/widgets/lv_dropdown.c ****         if(dropdown->options == NULL) return;
 1974              		.loc 1 197 9 discriminator 2 view .LVU619
 197:lvgl/lvgl/src/widgets/lv_dropdown.c ****         if(dropdown->options == NULL) return;
 1975              		.loc 1 197 9 discriminator 2 view .LVU620
 1976 00ae FEE7     		b	.L94
 1977              	.LVL205:
 1978              	.L106:
 197:lvgl/lvgl/src/widgets/lv_dropdown.c ****         if(dropdown->options == NULL) return;
 1979              		.loc 1 197 9 is_stmt 0 discriminator 2 view .LVU621
 1980              	.LBE83:
 205:lvgl/lvgl/src/widgets/lv_dropdown.c **** #if LV_USE_ARABIC_PERSIAN_CHARS == 0
 1981              		.loc 1 205 54 view .LVU622
 1982 00b0 0025     		movs	r5, #0
ARM GAS  C:\Users\gx\AppData\Local\Temp\ccIqfrB9.s 			page 73


 1983 00b2 BAE7     		b	.L95
 1984              	.LVL206:
 1985              	.L111:
 214:lvgl/lvgl/src/widgets/lv_dropdown.c ****     if(dropdown->options == NULL) return;
 1986              		.loc 1 214 5 is_stmt 1 discriminator 1 view .LVU623
 1987 00b4 344B     		ldr	r3, .L115+20
 1988 00b6 0293     		str	r3, [sp, #8]
 1989 00b8 344B     		ldr	r3, .L115+24
 1990 00ba 0193     		str	r3, [sp, #4]
 1991 00bc 2F4B     		ldr	r3, .L115+8
 1992 00be 0093     		str	r3, [sp]
 1993 00c0 2F4B     		ldr	r3, .L115+12
 1994 00c2 D622     		movs	r2, #214
 1995 00c4 2F49     		ldr	r1, .L115+16
 1996 00c6 0320     		movs	r0, #3
 1997 00c8 FFF7FEFF 		bl	_lv_log_add
 1998              	.LVL207:
 1999              	.L97:
 214:lvgl/lvgl/src/widgets/lv_dropdown.c ****     if(dropdown->options == NULL) return;
 2000              		.loc 1 214 5 discriminator 3 view .LVU624
 214:lvgl/lvgl/src/widgets/lv_dropdown.c ****     if(dropdown->options == NULL) return;
 2001              		.loc 1 214 5 discriminator 3 view .LVU625
 214:lvgl/lvgl/src/widgets/lv_dropdown.c ****     if(dropdown->options == NULL) return;
 2002              		.loc 1 214 5 discriminator 3 view .LVU626
 214:lvgl/lvgl/src/widgets/lv_dropdown.c ****     if(dropdown->options == NULL) return;
 2003              		.loc 1 214 5 discriminator 3 view .LVU627
 2004 00cc FEE7     		b	.L97
 2005              	.LVL208:
 2006              	.L100:
 2007              	.LBB84:
 223:lvgl/lvgl/src/widgets/lv_dropdown.c ****             if(opcnt == pos)
 2008              		.loc 1 223 65 discriminator 2 view .LVU628
 223:lvgl/lvgl/src/widgets/lv_dropdown.c ****             if(opcnt == pos)
 2009              		.loc 1 223 75 is_stmt 0 discriminator 2 view .LVU629
 2010 00ce 0135     		adds	r5, r5, #1
 2011              	.LVL209:
 2012              	.L98:
 223:lvgl/lvgl/src/widgets/lv_dropdown.c ****             if(opcnt == pos)
 2013              		.loc 1 223 29 is_stmt 1 discriminator 1 view .LVU630
 223:lvgl/lvgl/src/widgets/lv_dropdown.c ****             if(opcnt == pos)
 2014              		.loc 1 223 37 is_stmt 0 discriminator 1 view .LVU631
 2015 00d0 226B     		ldr	r2, [r4, #48]
 223:lvgl/lvgl/src/widgets/lv_dropdown.c ****             if(opcnt == pos)
 2016              		.loc 1 223 46 discriminator 1 view .LVU632
 2017 00d2 525D     		ldrb	r2, [r2, r5]	@ zero_extendqisi2
 223:lvgl/lvgl/src/widgets/lv_dropdown.c ****             if(opcnt == pos)
 2018              		.loc 1 223 9 discriminator 1 view .LVU633
 2019 00d4 2AB1     		cbz	r2, .L99
 224:lvgl/lvgl/src/widgets/lv_dropdown.c ****                 break;
 2020              		.loc 1 224 13 is_stmt 1 view .LVU634
 224:lvgl/lvgl/src/widgets/lv_dropdown.c ****                 break;
 2021              		.loc 1 224 15 is_stmt 0 view .LVU635
 2022 00d6 B342     		cmp	r3, r6
 2023 00d8 03D0     		beq	.L99
 226:lvgl/lvgl/src/widgets/lv_dropdown.c ****                 opcnt++;
 2024              		.loc 1 226 13 is_stmt 1 view .LVU636
 226:lvgl/lvgl/src/widgets/lv_dropdown.c ****                 opcnt++;
ARM GAS  C:\Users\gx\AppData\Local\Temp\ccIqfrB9.s 			page 74


 2025              		.loc 1 226 15 is_stmt 0 view .LVU637
 2026 00da 0A2A     		cmp	r2, #10
 2027 00dc F7D1     		bne	.L100
 227:lvgl/lvgl/src/widgets/lv_dropdown.c ****         }
 2028              		.loc 1 227 17 is_stmt 1 view .LVU638
 227:lvgl/lvgl/src/widgets/lv_dropdown.c ****         }
 2029              		.loc 1 227 22 is_stmt 0 view .LVU639
 2030 00de 0133     		adds	r3, r3, #1
 2031              	.LVL210:
 227:lvgl/lvgl/src/widgets/lv_dropdown.c ****         }
 2032              		.loc 1 227 22 view .LVU640
 2033 00e0 F5E7     		b	.L100
 2034              	.LVL211:
 2035              	.L99:
 227:lvgl/lvgl/src/widgets/lv_dropdown.c ****         }
 2036              		.loc 1 227 22 view .LVU641
 2037              	.LBE84:
 232:lvgl/lvgl/src/widgets/lv_dropdown.c ****         _lv_txt_ins(dropdown->options, _lv_txt_encoded_get_char_id(dropdown->options, insert_pos++)
 2038              		.loc 1 232 5 is_stmt 1 view .LVU642
 232:lvgl/lvgl/src/widgets/lv_dropdown.c ****         _lv_txt_ins(dropdown->options, _lv_txt_encoded_get_char_id(dropdown->options, insert_pos++)
 2039              		.loc 1 232 7 is_stmt 0 view .LVU643
 2040 00e2 8DB1     		cbz	r5, .L102
 232:lvgl/lvgl/src/widgets/lv_dropdown.c ****         _lv_txt_ins(dropdown->options, _lv_txt_encoded_get_char_id(dropdown->options, insert_pos++)
 2041              		.loc 1 232 44 discriminator 1 view .LVU644
 2042 00e4 A38E     		ldrh	r3, [r4, #52]
 232:lvgl/lvgl/src/widgets/lv_dropdown.c ****         _lv_txt_ins(dropdown->options, _lv_txt_encoded_get_char_id(dropdown->options, insert_pos++)
 2043              		.loc 1 232 25 discriminator 1 view .LVU645
 2044 00e6 B342     		cmp	r3, r6
 2045 00e8 0ED8     		bhi	.L102
 233:lvgl/lvgl/src/widgets/lv_dropdown.c **** 
 2046              		.loc 1 233 9 is_stmt 1 view .LVU646
 2047 00ea D4F83090 		ldr	r9, [r4, #48]
 2048 00ee 05F1010A 		add	r10, r5, #1
 2049              	.LVL212:
 233:lvgl/lvgl/src/widgets/lv_dropdown.c **** 
 2050              		.loc 1 233 9 is_stmt 0 view .LVU647
 2051 00f2 274B     		ldr	r3, .L115+28
 2052 00f4 1B68     		ldr	r3, [r3]
 2053 00f6 2946     		mov	r1, r5
 2054 00f8 4846     		mov	r0, r9
 2055 00fa 9847     		blx	r3
 2056              	.LVL213:
 2057 00fc 0146     		mov	r1, r0
 2058 00fe 254A     		ldr	r2, .L115+32
 2059 0100 4846     		mov	r0, r9
 2060 0102 FFF7FEFF 		bl	_lv_txt_ins
 2061              	.LVL214:
 2062 0106 5546     		mov	r5, r10
 2063              	.LVL215:
 2064              	.L102:
 236:lvgl/lvgl/src/widgets/lv_dropdown.c ****     LV_ASSERT_MALLOC(ins_buf);
 2065              		.loc 1 236 5 is_stmt 1 view .LVU648
 236:lvgl/lvgl/src/widgets/lv_dropdown.c ****     LV_ASSERT_MALLOC(ins_buf);
 2066              		.loc 1 236 22 is_stmt 0 view .LVU649
 2067 0108 F81C     		adds	r0, r7, #3
 2068 010a FFF7FEFF 		bl	lv_mem_buf_get
 2069              	.LVL216:
ARM GAS  C:\Users\gx\AppData\Local\Temp\ccIqfrB9.s 			page 75


 237:lvgl/lvgl/src/widgets/lv_dropdown.c ****     if(ins_buf == NULL) return;
 2070              		.loc 1 237 5 is_stmt 1 view .LVU650
 237:lvgl/lvgl/src/widgets/lv_dropdown.c ****     if(ins_buf == NULL) return;
 2071              		.loc 1 237 5 view .LVU651
 2072 010e 0746     		mov	r7, r0
 2073              	.LVL217:
 237:lvgl/lvgl/src/widgets/lv_dropdown.c ****     if(ins_buf == NULL) return;
 2074              		.loc 1 237 5 is_stmt 0 view .LVU652
 2075 0110 E0B1     		cbz	r0, .L113
 237:lvgl/lvgl/src/widgets/lv_dropdown.c ****     if(ins_buf == NULL) return;
 2076              		.loc 1 237 5 is_stmt 1 view .LVU653
 237:lvgl/lvgl/src/widgets/lv_dropdown.c ****     if(ins_buf == NULL) return;
 2077              		.loc 1 237 30 view .LVU654
 238:lvgl/lvgl/src/widgets/lv_dropdown.c **** #if LV_USE_ARABIC_PERSIAN_CHARS == 0
 2078              		.loc 1 238 5 view .LVU655
 240:lvgl/lvgl/src/widgets/lv_dropdown.c **** #else
 2079              		.loc 1 240 5 view .LVU656
 2080 0112 4146     		mov	r1, r8
 2081 0114 FFF7FEFF 		bl	strcpy
 2082              	.LVL218:
 244:lvgl/lvgl/src/widgets/lv_dropdown.c **** 
 2083              		.loc 1 244 5 view .LVU657
 244:lvgl/lvgl/src/widgets/lv_dropdown.c **** 
 2084              		.loc 1 244 22 is_stmt 0 view .LVU658
 2085 0118 A38E     		ldrh	r3, [r4, #52]
 244:lvgl/lvgl/src/widgets/lv_dropdown.c **** 
 2086              		.loc 1 244 7 view .LVU659
 2087 011a B342     		cmp	r3, r6
 2088 011c 23D8     		bhi	.L114
 2089              	.L105:
 246:lvgl/lvgl/src/widgets/lv_dropdown.c ****     lv_mem_buf_release(ins_buf);
 2090              		.loc 1 246 5 is_stmt 1 view .LVU660
 2091 011e 266B     		ldr	r6, [r4, #48]
 2092              	.LVL219:
 246:lvgl/lvgl/src/widgets/lv_dropdown.c ****     lv_mem_buf_release(ins_buf);
 2093              		.loc 1 246 5 is_stmt 0 view .LVU661
 2094 0120 1B4B     		ldr	r3, .L115+28
 2095 0122 1B68     		ldr	r3, [r3]
 2096 0124 2946     		mov	r1, r5
 2097 0126 3046     		mov	r0, r6
 2098 0128 9847     		blx	r3
 2099              	.LVL220:
 2100 012a 0146     		mov	r1, r0
 2101 012c 3A46     		mov	r2, r7
 2102 012e 3046     		mov	r0, r6
 2103 0130 FFF7FEFF 		bl	_lv_txt_ins
 2104              	.LVL221:
 247:lvgl/lvgl/src/widgets/lv_dropdown.c **** 
 2105              		.loc 1 247 5 is_stmt 1 view .LVU662
 2106 0134 3846     		mov	r0, r7
 2107 0136 FFF7FEFF 		bl	lv_mem_buf_release
 2108              	.LVL222:
 249:lvgl/lvgl/src/widgets/lv_dropdown.c **** 
 2109              		.loc 1 249 5 view .LVU663
 249:lvgl/lvgl/src/widgets/lv_dropdown.c **** 
 2110              		.loc 1 249 13 is_stmt 0 view .LVU664
 2111 013a A38E     		ldrh	r3, [r4, #52]
ARM GAS  C:\Users\gx\AppData\Local\Temp\ccIqfrB9.s 			page 76


 249:lvgl/lvgl/src/widgets/lv_dropdown.c **** 
 2112              		.loc 1 249 25 view .LVU665
 2113 013c 0133     		adds	r3, r3, #1
 2114 013e A386     		strh	r3, [r4, #52]	@ movhi
 251:lvgl/lvgl/src/widgets/lv_dropdown.c **** }
 2115              		.loc 1 251 5 is_stmt 1 view .LVU666
 2116 0140 2046     		mov	r0, r4
 2117 0142 FFF7FEFF 		bl	lv_obj_invalidate
 2118              	.LVL223:
 252:lvgl/lvgl/src/widgets/lv_dropdown.c **** 
 2119              		.loc 1 252 1 is_stmt 0 view .LVU667
 2120 0146 04B0     		add	sp, sp, #16
 2121              	.LCFI33:
 2122              		.cfi_remember_state
 2123              		.cfi_def_cfa_offset 32
 2124              		@ sp needed
 2125 0148 BDE8F087 		pop	{r4, r5, r6, r7, r8, r9, r10, pc}
 2126              	.LVL224:
 2127              	.L113:
 2128              	.LCFI34:
 2129              		.cfi_restore_state
 237:lvgl/lvgl/src/widgets/lv_dropdown.c ****     if(ins_buf == NULL) return;
 2130              		.loc 1 237 5 is_stmt 1 discriminator 1 view .LVU668
 2131 014c 0E4B     		ldr	r3, .L115+20
 2132 014e 0293     		str	r3, [sp, #8]
 2133 0150 114B     		ldr	r3, .L115+36
 2134 0152 0193     		str	r3, [sp, #4]
 2135 0154 094B     		ldr	r3, .L115+8
 2136 0156 0093     		str	r3, [sp]
 2137 0158 094B     		ldr	r3, .L115+12
 2138 015a ED22     		movs	r2, #237
 2139 015c 0949     		ldr	r1, .L115+16
 2140 015e 0320     		movs	r0, #3
 2141              	.LVL225:
 237:lvgl/lvgl/src/widgets/lv_dropdown.c ****     if(ins_buf == NULL) return;
 2142              		.loc 1 237 5 is_stmt 0 discriminator 1 view .LVU669
 2143 0160 FFF7FEFF 		bl	_lv_log_add
 2144              	.LVL226:
 2145              	.L104:
 237:lvgl/lvgl/src/widgets/lv_dropdown.c ****     if(ins_buf == NULL) return;
 2146              		.loc 1 237 5 is_stmt 1 discriminator 4 view .LVU670
 237:lvgl/lvgl/src/widgets/lv_dropdown.c ****     if(ins_buf == NULL) return;
 2147              		.loc 1 237 5 discriminator 4 view .LVU671
 237:lvgl/lvgl/src/widgets/lv_dropdown.c ****     if(ins_buf == NULL) return;
 2148              		.loc 1 237 5 discriminator 4 view .LVU672
 237:lvgl/lvgl/src/widgets/lv_dropdown.c ****     if(ins_buf == NULL) return;
 2149              		.loc 1 237 5 discriminator 4 view .LVU673
 2150 0164 FEE7     		b	.L104
 2151              	.L114:
 244:lvgl/lvgl/src/widgets/lv_dropdown.c **** 
 2152              		.loc 1 244 36 discriminator 1 view .LVU674
 2153 0166 3846     		mov	r0, r7
 2154 0168 FFF7FEFF 		bl	strlen
 2155              	.LVL227:
 2156 016c 094B     		ldr	r3, .L115+32
 2157 016e 1B88     		ldrh	r3, [r3]	@ unaligned
 2158 0170 3B52     		strh	r3, [r7, r0]	@ unaligned
ARM GAS  C:\Users\gx\AppData\Local\Temp\ccIqfrB9.s 			page 77


 2159 0172 D4E7     		b	.L105
 2160              	.L116:
 2161              		.align	2
 2162              	.L115:
 2163 0174 24000000 		.word	.LC1
 2164 0178 00000000 		.word	.LC8
 2165 017c 44000000 		.word	.LC3
 2166 0180 00000000 		.word	.LANCHOR4
 2167 0184 00000000 		.word	.LC0
 2168 0188 64000000 		.word	.LC4
 2169 018c 74000000 		.word	.LC5
 2170 0190 00000000 		.word	_lv_txt_encoded_get_char_id
 2171 0194 10000000 		.word	.LC9
 2172 0198 14000000 		.word	.LC10
 2173              		.cfi_endproc
 2174              	.LFE162:
 2176              		.section	.text.lv_dropdown_clear_options,"ax",%progbits
 2177              		.align	1
 2178              		.global	lv_dropdown_clear_options
 2179              		.syntax unified
 2180              		.thumb
 2181              		.thumb_func
 2182              		.fpu fpv4-sp-d16
 2184              	lv_dropdown_clear_options:
 2185              	.LVL228:
 2186              	.LFB163:
 255:lvgl/lvgl/src/widgets/lv_dropdown.c ****     LV_ASSERT_OBJ(obj, MY_CLASS);
 2187              		.loc 1 255 1 view -0
 2188              		.cfi_startproc
 2189              		@ args = 0, pretend = 0, frame = 0
 2190              		@ frame_needed = 0, uses_anonymous_args = 0
 255:lvgl/lvgl/src/widgets/lv_dropdown.c ****     LV_ASSERT_OBJ(obj, MY_CLASS);
 2191              		.loc 1 255 1 is_stmt 0 view .LVU676
 2192 0000 10B5     		push	{r4, lr}
 2193              	.LCFI35:
 2194              		.cfi_def_cfa_offset 8
 2195              		.cfi_offset 4, -8
 2196              		.cfi_offset 14, -4
 2197 0002 0446     		mov	r4, r0
 256:lvgl/lvgl/src/widgets/lv_dropdown.c ****     lv_dropdown_t * dropdown = (lv_dropdown_t *)obj;
 2198              		.loc 1 256 5 is_stmt 1 view .LVU677
 256:lvgl/lvgl/src/widgets/lv_dropdown.c ****     lv_dropdown_t * dropdown = (lv_dropdown_t *)obj;
 2199              		.loc 1 256 5 view .LVU678
 256:lvgl/lvgl/src/widgets/lv_dropdown.c ****     lv_dropdown_t * dropdown = (lv_dropdown_t *)obj;
 2200              		.loc 1 256 5 view .LVU679
 257:lvgl/lvgl/src/widgets/lv_dropdown.c ****     if(dropdown->options == NULL) return;
 2201              		.loc 1 257 5 view .LVU680
 2202              	.LVL229:
 258:lvgl/lvgl/src/widgets/lv_dropdown.c **** 
 2203              		.loc 1 258 5 view .LVU681
 258:lvgl/lvgl/src/widgets/lv_dropdown.c **** 
 2204              		.loc 1 258 16 is_stmt 0 view .LVU682
 2205 0004 006B     		ldr	r0, [r0, #48]
 2206              	.LVL230:
 258:lvgl/lvgl/src/widgets/lv_dropdown.c **** 
 2207              		.loc 1 258 7 view .LVU683
 2208 0006 80B1     		cbz	r0, .L117
ARM GAS  C:\Users\gx\AppData\Local\Temp\ccIqfrB9.s 			page 78


 260:lvgl/lvgl/src/widgets/lv_dropdown.c ****         lv_mem_free(dropdown->options);
 2209              		.loc 1 260 5 is_stmt 1 view .LVU684
 260:lvgl/lvgl/src/widgets/lv_dropdown.c ****         lv_mem_free(dropdown->options);
 2210              		.loc 1 260 29 is_stmt 0 view .LVU685
 2211 0008 94F83C30 		ldrb	r3, [r4, #60]	@ zero_extendqisi2
 260:lvgl/lvgl/src/widgets/lv_dropdown.c ****         lv_mem_free(dropdown->options);
 2212              		.loc 1 260 7 view .LVU686
 2213 000c 13F0100F 		tst	r3, #16
 2214 0010 0CD0     		beq	.L121
 2215              	.L119:
 263:lvgl/lvgl/src/widgets/lv_dropdown.c ****     dropdown->static_txt = 0;
 2216              		.loc 1 263 5 is_stmt 1 view .LVU687
 263:lvgl/lvgl/src/widgets/lv_dropdown.c ****     dropdown->static_txt = 0;
 2217              		.loc 1 263 23 is_stmt 0 view .LVU688
 2218 0012 0023     		movs	r3, #0
 2219 0014 2363     		str	r3, [r4, #48]
 264:lvgl/lvgl/src/widgets/lv_dropdown.c ****     dropdown->option_cnt = 0;
 2220              		.loc 1 264 5 is_stmt 1 view .LVU689
 264:lvgl/lvgl/src/widgets/lv_dropdown.c ****     dropdown->option_cnt = 0;
 2221              		.loc 1 264 26 is_stmt 0 view .LVU690
 2222 0016 94F83C20 		ldrb	r2, [r4, #60]	@ zero_extendqisi2
 2223 001a 63F30412 		bfi	r2, r3, #4, #1
 2224 001e 84F83C20 		strb	r2, [r4, #60]
 265:lvgl/lvgl/src/widgets/lv_dropdown.c **** 
 2225              		.loc 1 265 5 is_stmt 1 view .LVU691
 265:lvgl/lvgl/src/widgets/lv_dropdown.c **** 
 2226              		.loc 1 265 26 is_stmt 0 view .LVU692
 2227 0022 A386     		strh	r3, [r4, #52]	@ movhi
 267:lvgl/lvgl/src/widgets/lv_dropdown.c **** }
 2228              		.loc 1 267 5 is_stmt 1 view .LVU693
 2229 0024 2046     		mov	r0, r4
 2230 0026 FFF7FEFF 		bl	lv_obj_invalidate
 2231              	.LVL231:
 2232              	.L117:
 268:lvgl/lvgl/src/widgets/lv_dropdown.c **** 
 2233              		.loc 1 268 1 is_stmt 0 view .LVU694
 2234 002a 10BD     		pop	{r4, pc}
 2235              	.LVL232:
 2236              	.L121:
 261:lvgl/lvgl/src/widgets/lv_dropdown.c **** 
 2237              		.loc 1 261 9 is_stmt 1 view .LVU695
 2238 002c FFF7FEFF 		bl	lv_mem_free
 2239              	.LVL233:
 2240 0030 EFE7     		b	.L119
 2241              		.cfi_endproc
 2242              	.LFE163:
 2244              		.section	.text.lv_dropdown_set_selected,"ax",%progbits
 2245              		.align	1
 2246              		.global	lv_dropdown_set_selected
 2247              		.syntax unified
 2248              		.thumb
 2249              		.thumb_func
 2250              		.fpu fpv4-sp-d16
 2252              	lv_dropdown_set_selected:
 2253              	.LVL234:
 2254              	.LFB164:
 271:lvgl/lvgl/src/widgets/lv_dropdown.c ****     LV_ASSERT_OBJ(obj, MY_CLASS);
ARM GAS  C:\Users\gx\AppData\Local\Temp\ccIqfrB9.s 			page 79


 2255              		.loc 1 271 1 view -0
 2256              		.cfi_startproc
 2257              		@ args = 0, pretend = 0, frame = 0
 2258              		@ frame_needed = 0, uses_anonymous_args = 0
 271:lvgl/lvgl/src/widgets/lv_dropdown.c ****     LV_ASSERT_OBJ(obj, MY_CLASS);
 2259              		.loc 1 271 1 is_stmt 0 view .LVU697
 2260 0000 08B5     		push	{r3, lr}
 2261              	.LCFI36:
 2262              		.cfi_def_cfa_offset 8
 2263              		.cfi_offset 3, -8
 2264              		.cfi_offset 14, -4
 272:lvgl/lvgl/src/widgets/lv_dropdown.c **** 
 2265              		.loc 1 272 5 is_stmt 1 view .LVU698
 272:lvgl/lvgl/src/widgets/lv_dropdown.c **** 
 2266              		.loc 1 272 5 view .LVU699
 272:lvgl/lvgl/src/widgets/lv_dropdown.c **** 
 2267              		.loc 1 272 5 view .LVU700
 274:lvgl/lvgl/src/widgets/lv_dropdown.c ****     if(dropdown->sel_opt_id == sel_opt) return;
 2268              		.loc 1 274 5 view .LVU701
 2269              	.LVL235:
 275:lvgl/lvgl/src/widgets/lv_dropdown.c **** 
 2270              		.loc 1 275 5 view .LVU702
 275:lvgl/lvgl/src/widgets/lv_dropdown.c **** 
 2271              		.loc 1 275 16 is_stmt 0 view .LVU703
 2272 0002 C38E     		ldrh	r3, [r0, #54]
 275:lvgl/lvgl/src/widgets/lv_dropdown.c **** 
 2273              		.loc 1 275 7 view .LVU704
 2274 0004 8B42     		cmp	r3, r1
 2275 0006 08D0     		beq	.L122
 277:lvgl/lvgl/src/widgets/lv_dropdown.c ****     dropdown->sel_opt_id_orig = dropdown->sel_opt_id;
 2276              		.loc 1 277 5 is_stmt 1 view .LVU705
 277:lvgl/lvgl/src/widgets/lv_dropdown.c ****     dropdown->sel_opt_id_orig = dropdown->sel_opt_id;
 2277              		.loc 1 277 51 is_stmt 0 view .LVU706
 2278 0008 838E     		ldrh	r3, [r0, #52]
 277:lvgl/lvgl/src/widgets/lv_dropdown.c ****     dropdown->sel_opt_id_orig = dropdown->sel_opt_id;
 2279              		.loc 1 277 31 view .LVU707
 2280 000a 8B42     		cmp	r3, r1
 2281 000c 01D8     		bhi	.L124
 277:lvgl/lvgl/src/widgets/lv_dropdown.c ****     dropdown->sel_opt_id_orig = dropdown->sel_opt_id;
 2282              		.loc 1 277 31 discriminator 1 view .LVU708
 2283 000e 591E     		subs	r1, r3, #1
 2284              	.LVL236:
 277:lvgl/lvgl/src/widgets/lv_dropdown.c ****     dropdown->sel_opt_id_orig = dropdown->sel_opt_id;
 2285              		.loc 1 277 31 discriminator 1 view .LVU709
 2286 0010 89B2     		uxth	r1, r1
 2287              	.L124:
 277:lvgl/lvgl/src/widgets/lv_dropdown.c ****     dropdown->sel_opt_id_orig = dropdown->sel_opt_id;
 2288              		.loc 1 277 31 discriminator 4 view .LVU710
 2289 0012 C186     		strh	r1, [r0, #54]	@ movhi
 278:lvgl/lvgl/src/widgets/lv_dropdown.c **** 
 2290              		.loc 1 278 5 is_stmt 1 discriminator 4 view .LVU711
 278:lvgl/lvgl/src/widgets/lv_dropdown.c **** 
 2291              		.loc 1 278 31 is_stmt 0 discriminator 4 view .LVU712
 2292 0014 0187     		strh	r1, [r0, #56]	@ movhi
 280:lvgl/lvgl/src/widgets/lv_dropdown.c **** }
 2293              		.loc 1 280 5 is_stmt 1 discriminator 4 view .LVU713
 2294 0016 FFF7FEFF 		bl	lv_obj_invalidate
ARM GAS  C:\Users\gx\AppData\Local\Temp\ccIqfrB9.s 			page 80


 2295              	.LVL237:
 2296              	.L122:
 281:lvgl/lvgl/src/widgets/lv_dropdown.c **** 
 2297              		.loc 1 281 1 is_stmt 0 view .LVU714
 2298 001a 08BD     		pop	{r3, pc}
 2299              		.cfi_endproc
 2300              	.LFE164:
 2302              		.section	.text.lv_dropdown_set_dir,"ax",%progbits
 2303              		.align	1
 2304              		.global	lv_dropdown_set_dir
 2305              		.syntax unified
 2306              		.thumb
 2307              		.thumb_func
 2308              		.fpu fpv4-sp-d16
 2310              	lv_dropdown_set_dir:
 2311              	.LVL238:
 2312              	.LFB165:
 284:lvgl/lvgl/src/widgets/lv_dropdown.c ****     LV_ASSERT_OBJ(obj, MY_CLASS);
 2313              		.loc 1 284 1 is_stmt 1 view -0
 2314              		.cfi_startproc
 2315              		@ args = 0, pretend = 0, frame = 0
 2316              		@ frame_needed = 0, uses_anonymous_args = 0
 284:lvgl/lvgl/src/widgets/lv_dropdown.c ****     LV_ASSERT_OBJ(obj, MY_CLASS);
 2317              		.loc 1 284 1 is_stmt 0 view .LVU716
 2318 0000 08B5     		push	{r3, lr}
 2319              	.LCFI37:
 2320              		.cfi_def_cfa_offset 8
 2321              		.cfi_offset 3, -8
 2322              		.cfi_offset 14, -4
 285:lvgl/lvgl/src/widgets/lv_dropdown.c **** 
 2323              		.loc 1 285 5 is_stmt 1 view .LVU717
 285:lvgl/lvgl/src/widgets/lv_dropdown.c **** 
 2324              		.loc 1 285 5 view .LVU718
 285:lvgl/lvgl/src/widgets/lv_dropdown.c **** 
 2325              		.loc 1 285 5 view .LVU719
 287:lvgl/lvgl/src/widgets/lv_dropdown.c ****     if(dropdown->dir == dir) return;
 2326              		.loc 1 287 5 view .LVU720
 2327              	.LVL239:
 288:lvgl/lvgl/src/widgets/lv_dropdown.c **** 
 2328              		.loc 1 288 5 view .LVU721
 288:lvgl/lvgl/src/widgets/lv_dropdown.c **** 
 2329              		.loc 1 288 16 is_stmt 0 view .LVU722
 2330 0002 90F83C30 		ldrb	r3, [r0, #60]	@ zero_extendqisi2
 2331 0006 03F00F03 		and	r3, r3, #15
 288:lvgl/lvgl/src/widgets/lv_dropdown.c **** 
 2332              		.loc 1 288 7 view .LVU723
 2333 000a 8B42     		cmp	r3, r1
 2334 000c 07D0     		beq	.L126
 290:lvgl/lvgl/src/widgets/lv_dropdown.c **** 
 2335              		.loc 1 290 5 is_stmt 1 view .LVU724
 290:lvgl/lvgl/src/widgets/lv_dropdown.c **** 
 2336              		.loc 1 290 19 is_stmt 0 view .LVU725
 2337 000e 90F83C30 		ldrb	r3, [r0, #60]	@ zero_extendqisi2
 2338 0012 61F30303 		bfi	r3, r1, #0, #4
 2339 0016 80F83C30 		strb	r3, [r0, #60]
 292:lvgl/lvgl/src/widgets/lv_dropdown.c **** }
 2340              		.loc 1 292 5 is_stmt 1 view .LVU726
ARM GAS  C:\Users\gx\AppData\Local\Temp\ccIqfrB9.s 			page 81


 2341 001a FFF7FEFF 		bl	lv_obj_invalidate
 2342              	.LVL240:
 2343              	.L126:
 293:lvgl/lvgl/src/widgets/lv_dropdown.c **** 
 2344              		.loc 1 293 1 is_stmt 0 view .LVU727
 2345 001e 08BD     		pop	{r3, pc}
 2346              		.cfi_endproc
 2347              	.LFE165:
 2349              		.section	.text.lv_dropdown_set_symbol,"ax",%progbits
 2350              		.align	1
 2351              		.global	lv_dropdown_set_symbol
 2352              		.syntax unified
 2353              		.thumb
 2354              		.thumb_func
 2355              		.fpu fpv4-sp-d16
 2357              	lv_dropdown_set_symbol:
 2358              	.LVL241:
 2359              	.LFB166:
 296:lvgl/lvgl/src/widgets/lv_dropdown.c ****     LV_ASSERT_OBJ(obj, MY_CLASS);
 2360              		.loc 1 296 1 is_stmt 1 view -0
 2361              		.cfi_startproc
 2362              		@ args = 0, pretend = 0, frame = 0
 2363              		@ frame_needed = 0, uses_anonymous_args = 0
 296:lvgl/lvgl/src/widgets/lv_dropdown.c ****     LV_ASSERT_OBJ(obj, MY_CLASS);
 2364              		.loc 1 296 1 is_stmt 0 view .LVU729
 2365 0000 08B5     		push	{r3, lr}
 2366              	.LCFI38:
 2367              		.cfi_def_cfa_offset 8
 2368              		.cfi_offset 3, -8
 2369              		.cfi_offset 14, -4
 297:lvgl/lvgl/src/widgets/lv_dropdown.c **** 
 2370              		.loc 1 297 5 is_stmt 1 view .LVU730
 297:lvgl/lvgl/src/widgets/lv_dropdown.c **** 
 2371              		.loc 1 297 5 view .LVU731
 297:lvgl/lvgl/src/widgets/lv_dropdown.c **** 
 2372              		.loc 1 297 5 view .LVU732
 299:lvgl/lvgl/src/widgets/lv_dropdown.c ****     dropdown->symbol = symbol;
 2373              		.loc 1 299 5 view .LVU733
 2374              	.LVL242:
 300:lvgl/lvgl/src/widgets/lv_dropdown.c ****     lv_obj_invalidate(obj);
 2375              		.loc 1 300 5 view .LVU734
 300:lvgl/lvgl/src/widgets/lv_dropdown.c ****     lv_obj_invalidate(obj);
 2376              		.loc 1 300 22 is_stmt 0 view .LVU735
 2377 0002 C162     		str	r1, [r0, #44]
 301:lvgl/lvgl/src/widgets/lv_dropdown.c **** }
 2378              		.loc 1 301 5 is_stmt 1 view .LVU736
 2379 0004 FFF7FEFF 		bl	lv_obj_invalidate
 2380              	.LVL243:
 302:lvgl/lvgl/src/widgets/lv_dropdown.c **** 
 2381              		.loc 1 302 1 is_stmt 0 view .LVU737
 2382 0008 08BD     		pop	{r3, pc}
 2383              		.cfi_endproc
 2384              	.LFE166:
 2386              		.section	.text.lv_dropdown_set_selected_highlight,"ax",%progbits
 2387              		.align	1
 2388              		.global	lv_dropdown_set_selected_highlight
 2389              		.syntax unified
ARM GAS  C:\Users\gx\AppData\Local\Temp\ccIqfrB9.s 			page 82


 2390              		.thumb
 2391              		.thumb_func
 2392              		.fpu fpv4-sp-d16
 2394              	lv_dropdown_set_selected_highlight:
 2395              	.LVL244:
 2396              	.LFB167:
 305:lvgl/lvgl/src/widgets/lv_dropdown.c ****     LV_ASSERT_OBJ(obj, MY_CLASS);
 2397              		.loc 1 305 1 is_stmt 1 view -0
 2398              		.cfi_startproc
 2399              		@ args = 0, pretend = 0, frame = 0
 2400              		@ frame_needed = 0, uses_anonymous_args = 0
 305:lvgl/lvgl/src/widgets/lv_dropdown.c ****     LV_ASSERT_OBJ(obj, MY_CLASS);
 2401              		.loc 1 305 1 is_stmt 0 view .LVU739
 2402 0000 08B5     		push	{r3, lr}
 2403              	.LCFI39:
 2404              		.cfi_def_cfa_offset 8
 2405              		.cfi_offset 3, -8
 2406              		.cfi_offset 14, -4
 306:lvgl/lvgl/src/widgets/lv_dropdown.c **** 
 2407              		.loc 1 306 5 is_stmt 1 view .LVU740
 306:lvgl/lvgl/src/widgets/lv_dropdown.c **** 
 2408              		.loc 1 306 5 view .LVU741
 306:lvgl/lvgl/src/widgets/lv_dropdown.c **** 
 2409              		.loc 1 306 5 view .LVU742
 308:lvgl/lvgl/src/widgets/lv_dropdown.c ****     dropdown->selected_highlight = en;
 2410              		.loc 1 308 5 view .LVU743
 2411              	.LVL245:
 309:lvgl/lvgl/src/widgets/lv_dropdown.c ****     if(dropdown->list) lv_obj_invalidate(dropdown->list);
 2412              		.loc 1 309 5 view .LVU744
 309:lvgl/lvgl/src/widgets/lv_dropdown.c ****     if(dropdown->list) lv_obj_invalidate(dropdown->list);
 2413              		.loc 1 309 34 is_stmt 0 view .LVU745
 2414 0002 90F83C30 		ldrb	r3, [r0, #60]	@ zero_extendqisi2
 2415 0006 61F34513 		bfi	r3, r1, #5, #1
 2416 000a 80F83C30 		strb	r3, [r0, #60]
 310:lvgl/lvgl/src/widgets/lv_dropdown.c **** }
 2417              		.loc 1 310 5 is_stmt 1 view .LVU746
 310:lvgl/lvgl/src/widgets/lv_dropdown.c **** }
 2418              		.loc 1 310 16 is_stmt 0 view .LVU747
 2419 000e 406A     		ldr	r0, [r0, #36]
 2420              	.LVL246:
 310:lvgl/lvgl/src/widgets/lv_dropdown.c **** }
 2421              		.loc 1 310 7 view .LVU748
 2422 0010 08B1     		cbz	r0, .L131
 310:lvgl/lvgl/src/widgets/lv_dropdown.c **** }
 2423              		.loc 1 310 24 is_stmt 1 discriminator 1 view .LVU749
 2424 0012 FFF7FEFF 		bl	lv_obj_invalidate
 2425              	.LVL247:
 2426              	.L131:
 311:lvgl/lvgl/src/widgets/lv_dropdown.c **** 
 2427              		.loc 1 311 1 is_stmt 0 view .LVU750
 2428 0016 08BD     		pop	{r3, pc}
 2429              		.cfi_endproc
 2430              	.LFE167:
 2432              		.section	.text.lv_dropdown_get_list,"ax",%progbits
 2433              		.align	1
 2434              		.global	lv_dropdown_get_list
 2435              		.syntax unified
ARM GAS  C:\Users\gx\AppData\Local\Temp\ccIqfrB9.s 			page 83


 2436              		.thumb
 2437              		.thumb_func
 2438              		.fpu fpv4-sp-d16
 2440              	lv_dropdown_get_list:
 2441              	.LVL248:
 2442              	.LFB168:
 318:lvgl/lvgl/src/widgets/lv_dropdown.c ****     LV_ASSERT_OBJ(obj, MY_CLASS);
 2443              		.loc 1 318 1 is_stmt 1 view -0
 2444              		.cfi_startproc
 2445              		@ args = 0, pretend = 0, frame = 0
 2446              		@ frame_needed = 0, uses_anonymous_args = 0
 2447              		@ link register save eliminated.
 319:lvgl/lvgl/src/widgets/lv_dropdown.c ****     lv_dropdown_t * dropdown = (lv_dropdown_t *)obj;
 2448              		.loc 1 319 5 view .LVU752
 319:lvgl/lvgl/src/widgets/lv_dropdown.c ****     lv_dropdown_t * dropdown = (lv_dropdown_t *)obj;
 2449              		.loc 1 319 5 view .LVU753
 319:lvgl/lvgl/src/widgets/lv_dropdown.c ****     lv_dropdown_t * dropdown = (lv_dropdown_t *)obj;
 2450              		.loc 1 319 5 view .LVU754
 320:lvgl/lvgl/src/widgets/lv_dropdown.c **** 
 2451              		.loc 1 320 5 view .LVU755
 322:lvgl/lvgl/src/widgets/lv_dropdown.c **** 
 2452              		.loc 1 322 5 view .LVU756
 324:lvgl/lvgl/src/widgets/lv_dropdown.c **** 
 2453              		.loc 1 324 1 is_stmt 0 view .LVU757
 2454 0000 406A     		ldr	r0, [r0, #36]
 2455              	.LVL249:
 324:lvgl/lvgl/src/widgets/lv_dropdown.c **** 
 2456              		.loc 1 324 1 view .LVU758
 2457 0002 7047     		bx	lr
 2458              		.cfi_endproc
 2459              	.LFE168:
 2461              		.section	.text.lv_dropdown_get_text,"ax",%progbits
 2462              		.align	1
 2463              		.global	lv_dropdown_get_text
 2464              		.syntax unified
 2465              		.thumb
 2466              		.thumb_func
 2467              		.fpu fpv4-sp-d16
 2469              	lv_dropdown_get_text:
 2470              	.LVL250:
 2471              	.LFB169:
 327:lvgl/lvgl/src/widgets/lv_dropdown.c ****     LV_ASSERT_OBJ(obj, MY_CLASS);
 2472              		.loc 1 327 1 is_stmt 1 view -0
 2473              		.cfi_startproc
 2474              		@ args = 0, pretend = 0, frame = 0
 2475              		@ frame_needed = 0, uses_anonymous_args = 0
 2476              		@ link register save eliminated.
 328:lvgl/lvgl/src/widgets/lv_dropdown.c ****     lv_dropdown_t * dropdown = (lv_dropdown_t *)obj;
 2477              		.loc 1 328 5 view .LVU760
 328:lvgl/lvgl/src/widgets/lv_dropdown.c ****     lv_dropdown_t * dropdown = (lv_dropdown_t *)obj;
 2478              		.loc 1 328 5 view .LVU761
 328:lvgl/lvgl/src/widgets/lv_dropdown.c ****     lv_dropdown_t * dropdown = (lv_dropdown_t *)obj;
 2479              		.loc 1 328 5 view .LVU762
 329:lvgl/lvgl/src/widgets/lv_dropdown.c **** 
 2480              		.loc 1 329 5 view .LVU763
 331:lvgl/lvgl/src/widgets/lv_dropdown.c **** }
 2481              		.loc 1 331 5 view .LVU764
ARM GAS  C:\Users\gx\AppData\Local\Temp\ccIqfrB9.s 			page 84


 332:lvgl/lvgl/src/widgets/lv_dropdown.c **** 
 2482              		.loc 1 332 1 is_stmt 0 view .LVU765
 2483 0000 806A     		ldr	r0, [r0, #40]
 2484              	.LVL251:
 332:lvgl/lvgl/src/widgets/lv_dropdown.c **** 
 2485              		.loc 1 332 1 view .LVU766
 2486 0002 7047     		bx	lr
 2487              		.cfi_endproc
 2488              	.LFE169:
 2490              		.section	.rodata.lv_dropdown_get_options.str1.4,"aMS",%progbits,1
 2491              		.align	2
 2492              	.LC11:
 2493 0000 00       		.ascii	"\000"
 2494              		.section	.text.lv_dropdown_get_options,"ax",%progbits
 2495              		.align	1
 2496              		.global	lv_dropdown_get_options
 2497              		.syntax unified
 2498              		.thumb
 2499              		.thumb_func
 2500              		.fpu fpv4-sp-d16
 2502              	lv_dropdown_get_options:
 2503              	.LVL252:
 2504              	.LFB170:
 335:lvgl/lvgl/src/widgets/lv_dropdown.c ****     LV_ASSERT_OBJ(obj, MY_CLASS);
 2505              		.loc 1 335 1 is_stmt 1 view -0
 2506              		.cfi_startproc
 2507              		@ args = 0, pretend = 0, frame = 0
 2508              		@ frame_needed = 0, uses_anonymous_args = 0
 2509              		@ link register save eliminated.
 336:lvgl/lvgl/src/widgets/lv_dropdown.c **** 
 2510              		.loc 1 336 5 view .LVU768
 336:lvgl/lvgl/src/widgets/lv_dropdown.c **** 
 2511              		.loc 1 336 5 view .LVU769
 336:lvgl/lvgl/src/widgets/lv_dropdown.c **** 
 2512              		.loc 1 336 5 view .LVU770
 338:lvgl/lvgl/src/widgets/lv_dropdown.c ****     return dropdown->options == NULL ? "" : dropdown->options;
 2513              		.loc 1 338 5 view .LVU771
 339:lvgl/lvgl/src/widgets/lv_dropdown.c **** }
 2514              		.loc 1 339 5 view .LVU772
 339:lvgl/lvgl/src/widgets/lv_dropdown.c **** }
 2515              		.loc 1 339 20 is_stmt 0 view .LVU773
 2516 0000 006B     		ldr	r0, [r0, #48]
 2517              	.LVL253:
 339:lvgl/lvgl/src/widgets/lv_dropdown.c **** }
 2518              		.loc 1 339 43 view .LVU774
 2519 0002 00B1     		cbz	r0, .L138
 2520              	.L136:
 340:lvgl/lvgl/src/widgets/lv_dropdown.c **** 
 2521              		.loc 1 340 1 view .LVU775
 2522 0004 7047     		bx	lr
 2523              	.L138:
 339:lvgl/lvgl/src/widgets/lv_dropdown.c **** }
 2524              		.loc 1 339 43 view .LVU776
 2525 0006 0148     		ldr	r0, .L139
 2526 0008 FCE7     		b	.L136
 2527              	.L140:
 2528 000a 00BF     		.align	2
ARM GAS  C:\Users\gx\AppData\Local\Temp\ccIqfrB9.s 			page 85


 2529              	.L139:
 2530 000c 00000000 		.word	.LC11
 2531              		.cfi_endproc
 2532              	.LFE170:
 2534              		.section	.text.lv_dropdown_get_selected,"ax",%progbits
 2535              		.align	1
 2536              		.global	lv_dropdown_get_selected
 2537              		.syntax unified
 2538              		.thumb
 2539              		.thumb_func
 2540              		.fpu fpv4-sp-d16
 2542              	lv_dropdown_get_selected:
 2543              	.LVL254:
 2544              	.LFB171:
 343:lvgl/lvgl/src/widgets/lv_dropdown.c ****     LV_ASSERT_OBJ(obj, MY_CLASS);
 2545              		.loc 1 343 1 is_stmt 1 view -0
 2546              		.cfi_startproc
 2547              		@ args = 0, pretend = 0, frame = 0
 2548              		@ frame_needed = 0, uses_anonymous_args = 0
 2549              		@ link register save eliminated.
 344:lvgl/lvgl/src/widgets/lv_dropdown.c **** 
 2550              		.loc 1 344 5 view .LVU778
 344:lvgl/lvgl/src/widgets/lv_dropdown.c **** 
 2551              		.loc 1 344 5 view .LVU779
 344:lvgl/lvgl/src/widgets/lv_dropdown.c **** 
 2552              		.loc 1 344 5 view .LVU780
 346:lvgl/lvgl/src/widgets/lv_dropdown.c **** 
 2553              		.loc 1 346 5 view .LVU781
 348:lvgl/lvgl/src/widgets/lv_dropdown.c **** }
 2554              		.loc 1 348 5 view .LVU782
 349:lvgl/lvgl/src/widgets/lv_dropdown.c **** 
 2555              		.loc 1 349 1 is_stmt 0 view .LVU783
 2556 0000 C08E     		ldrh	r0, [r0, #54]
 2557              	.LVL255:
 349:lvgl/lvgl/src/widgets/lv_dropdown.c **** 
 2558              		.loc 1 349 1 view .LVU784
 2559 0002 7047     		bx	lr
 2560              		.cfi_endproc
 2561              	.LFE171:
 2563              		.section	.text.lv_dropdown_get_option_cnt,"ax",%progbits
 2564              		.align	1
 2565              		.global	lv_dropdown_get_option_cnt
 2566              		.syntax unified
 2567              		.thumb
 2568              		.thumb_func
 2569              		.fpu fpv4-sp-d16
 2571              	lv_dropdown_get_option_cnt:
 2572              	.LVL256:
 2573              	.LFB172:
 352:lvgl/lvgl/src/widgets/lv_dropdown.c ****     LV_ASSERT_OBJ(obj, MY_CLASS);
 2574              		.loc 1 352 1 is_stmt 1 view -0
 2575              		.cfi_startproc
 2576              		@ args = 0, pretend = 0, frame = 0
 2577              		@ frame_needed = 0, uses_anonymous_args = 0
 2578              		@ link register save eliminated.
 353:lvgl/lvgl/src/widgets/lv_dropdown.c **** 
 2579              		.loc 1 353 5 view .LVU786
ARM GAS  C:\Users\gx\AppData\Local\Temp\ccIqfrB9.s 			page 86


 353:lvgl/lvgl/src/widgets/lv_dropdown.c **** 
 2580              		.loc 1 353 5 view .LVU787
 353:lvgl/lvgl/src/widgets/lv_dropdown.c **** 
 2581              		.loc 1 353 5 view .LVU788
 355:lvgl/lvgl/src/widgets/lv_dropdown.c **** 
 2582              		.loc 1 355 5 view .LVU789
 357:lvgl/lvgl/src/widgets/lv_dropdown.c **** }
 2583              		.loc 1 357 5 view .LVU790
 358:lvgl/lvgl/src/widgets/lv_dropdown.c **** 
 2584              		.loc 1 358 1 is_stmt 0 view .LVU791
 2585 0000 808E     		ldrh	r0, [r0, #52]
 2586              	.LVL257:
 358:lvgl/lvgl/src/widgets/lv_dropdown.c **** 
 2587              		.loc 1 358 1 view .LVU792
 2588 0002 7047     		bx	lr
 2589              		.cfi_endproc
 2590              	.LFE172:
 2592              		.section	.rodata.lv_dropdown_get_selected_str.str1.4,"aMS",%progbits,1
 2593              		.align	2
 2594              	.LC12:
 2595 0000 6C765F64 		.ascii	"lv_dropdown_get_selected_str: the buffer was too sm"
 2595      726F7064 
 2595      6F776E5F 
 2595      6765745F 
 2595      73656C65 
 2596 0033 616C6C00 		.ascii	"all\000"
 2597              		.section	.text.lv_dropdown_get_selected_str,"ax",%progbits
 2598              		.align	1
 2599              		.global	lv_dropdown_get_selected_str
 2600              		.syntax unified
 2601              		.thumb
 2602              		.thumb_func
 2603              		.fpu fpv4-sp-d16
 2605              	lv_dropdown_get_selected_str:
 2606              	.LVL258:
 2607              	.LFB173:
 361:lvgl/lvgl/src/widgets/lv_dropdown.c ****     LV_ASSERT_OBJ(obj, MY_CLASS);
 2608              		.loc 1 361 1 is_stmt 1 view -0
 2609              		.cfi_startproc
 2610              		@ args = 0, pretend = 0, frame = 0
 2611              		@ frame_needed = 0, uses_anonymous_args = 0
 361:lvgl/lvgl/src/widgets/lv_dropdown.c ****     LV_ASSERT_OBJ(obj, MY_CLASS);
 2612              		.loc 1 361 1 is_stmt 0 view .LVU794
 2613 0000 2DE9F041 		push	{r4, r5, r6, r7, r8, lr}
 2614              	.LCFI40:
 2615              		.cfi_def_cfa_offset 24
 2616              		.cfi_offset 4, -24
 2617              		.cfi_offset 5, -20
 2618              		.cfi_offset 6, -16
 2619              		.cfi_offset 7, -12
 2620              		.cfi_offset 8, -8
 2621              		.cfi_offset 14, -4
 2622 0004 82B0     		sub	sp, sp, #8
 2623              	.LCFI41:
 2624              		.cfi_def_cfa_offset 32
 2625 0006 0646     		mov	r6, r0
 2626 0008 8846     		mov	r8, r1
ARM GAS  C:\Users\gx\AppData\Local\Temp\ccIqfrB9.s 			page 87


 2627 000a 1746     		mov	r7, r2
 362:lvgl/lvgl/src/widgets/lv_dropdown.c **** 
 2628              		.loc 1 362 5 is_stmt 1 view .LVU795
 362:lvgl/lvgl/src/widgets/lv_dropdown.c **** 
 2629              		.loc 1 362 5 view .LVU796
 362:lvgl/lvgl/src/widgets/lv_dropdown.c **** 
 2630              		.loc 1 362 5 view .LVU797
 364:lvgl/lvgl/src/widgets/lv_dropdown.c **** 
 2631              		.loc 1 364 5 view .LVU798
 2632              	.LVL259:
 366:lvgl/lvgl/src/widgets/lv_dropdown.c ****     uint32_t line        = 0;
 2633              		.loc 1 366 5 view .LVU799
 367:lvgl/lvgl/src/widgets/lv_dropdown.c ****     size_t txt_len     = strlen(dropdown->options);
 2634              		.loc 1 367 5 view .LVU800
 368:lvgl/lvgl/src/widgets/lv_dropdown.c **** 
 2635              		.loc 1 368 5 view .LVU801
 368:lvgl/lvgl/src/widgets/lv_dropdown.c **** 
 2636              		.loc 1 368 41 is_stmt 0 view .LVU802
 2637 000c 046B     		ldr	r4, [r0, #48]
 368:lvgl/lvgl/src/widgets/lv_dropdown.c **** 
 2638              		.loc 1 368 26 view .LVU803
 2639 000e 2046     		mov	r0, r4
 2640              	.LVL260:
 368:lvgl/lvgl/src/widgets/lv_dropdown.c **** 
 2641              		.loc 1 368 26 view .LVU804
 2642 0010 FFF7FEFF 		bl	strlen
 2643              	.LVL261:
 370:lvgl/lvgl/src/widgets/lv_dropdown.c ****         if(dropdown->options[i] == '\n') line++;
 2644              		.loc 1 370 5 is_stmt 1 view .LVU805
 367:lvgl/lvgl/src/widgets/lv_dropdown.c ****     size_t txt_len     = strlen(dropdown->options);
 2645              		.loc 1 367 14 is_stmt 0 view .LVU806
 2646 0014 0021     		movs	r1, #0
 370:lvgl/lvgl/src/widgets/lv_dropdown.c ****         if(dropdown->options[i] == '\n') line++;
 2647              		.loc 1 370 11 view .LVU807
 2648 0016 0B46     		mov	r3, r1
 370:lvgl/lvgl/src/widgets/lv_dropdown.c ****         if(dropdown->options[i] == '\n') line++;
 2649              		.loc 1 370 5 view .LVU808
 2650 0018 00E0     		b	.L144
 2651              	.LVL262:
 2652              	.L145:
 370:lvgl/lvgl/src/widgets/lv_dropdown.c ****         if(dropdown->options[i] == '\n') line++;
 2653              		.loc 1 370 66 is_stmt 1 discriminator 2 view .LVU809
 370:lvgl/lvgl/src/widgets/lv_dropdown.c ****         if(dropdown->options[i] == '\n') line++;
 2654              		.loc 1 370 67 is_stmt 0 discriminator 2 view .LVU810
 2655 001a 0133     		adds	r3, r3, #1
 2656              	.LVL263:
 2657              	.L144:
 370:lvgl/lvgl/src/widgets/lv_dropdown.c ****         if(dropdown->options[i] == '\n') line++;
 2658              		.loc 1 370 16 is_stmt 1 discriminator 1 view .LVU811
 370:lvgl/lvgl/src/widgets/lv_dropdown.c ****         if(dropdown->options[i] == '\n') line++;
 2659              		.loc 1 370 5 is_stmt 0 discriminator 1 view .LVU812
 2660 001c 8342     		cmp	r3, r0
 2661 001e 27D2     		bcs	.L152
 370:lvgl/lvgl/src/widgets/lv_dropdown.c ****         if(dropdown->options[i] == '\n') line++;
 2662              		.loc 1 370 47 discriminator 3 view .LVU813
 2663 0020 328F     		ldrh	r2, [r6, #56]
 370:lvgl/lvgl/src/widgets/lv_dropdown.c ****         if(dropdown->options[i] == '\n') line++;
ARM GAS  C:\Users\gx\AppData\Local\Temp\ccIqfrB9.s 			page 88


 2664              		.loc 1 370 28 discriminator 3 view .LVU814
 2665 0022 8A42     		cmp	r2, r1
 2666 0024 04D0     		beq	.L154
 371:lvgl/lvgl/src/widgets/lv_dropdown.c ****     }
 2667              		.loc 1 371 9 is_stmt 1 view .LVU815
 371:lvgl/lvgl/src/widgets/lv_dropdown.c ****     }
 2668              		.loc 1 371 29 is_stmt 0 view .LVU816
 2669 0026 E25C     		ldrb	r2, [r4, r3]	@ zero_extendqisi2
 371:lvgl/lvgl/src/widgets/lv_dropdown.c ****     }
 2670              		.loc 1 371 11 view .LVU817
 2671 0028 0A2A     		cmp	r2, #10
 2672 002a F6D1     		bne	.L145
 371:lvgl/lvgl/src/widgets/lv_dropdown.c ****     }
 2673              		.loc 1 371 42 is_stmt 1 discriminator 1 view .LVU818
 371:lvgl/lvgl/src/widgets/lv_dropdown.c ****     }
 2674              		.loc 1 371 46 is_stmt 0 discriminator 1 view .LVU819
 2675 002c 0131     		adds	r1, r1, #1
 2676              	.LVL264:
 371:lvgl/lvgl/src/widgets/lv_dropdown.c ****     }
 2677              		.loc 1 371 46 discriminator 1 view .LVU820
 2678 002e F4E7     		b	.L145
 2679              	.L154:
 371:lvgl/lvgl/src/widgets/lv_dropdown.c ****     }
 2680              		.loc 1 371 46 discriminator 1 view .LVU821
 2681 0030 0024     		movs	r4, #0
 2682 0032 03E0     		b	.L150
 2683              	.LVL265:
 2684              	.L148:
 380:lvgl/lvgl/src/widgets/lv_dropdown.c ****     }
 2685              		.loc 1 380 9 is_stmt 1 discriminator 2 view .LVU822
 380:lvgl/lvgl/src/widgets/lv_dropdown.c ****     }
 2686              		.loc 1 380 16 is_stmt 0 discriminator 2 view .LVU823
 2687 0034 08F80450 		strb	r5, [r8, r4]
 375:lvgl/lvgl/src/widgets/lv_dropdown.c ****         if(buf_size && c >= buf_size - 1) {
 2688              		.loc 1 375 61 is_stmt 1 discriminator 2 view .LVU824
 375:lvgl/lvgl/src/widgets/lv_dropdown.c ****         if(buf_size && c >= buf_size - 1) {
 2689              		.loc 1 375 62 is_stmt 0 discriminator 2 view .LVU825
 2690 0038 0134     		adds	r4, r4, #1
 2691              	.LVL266:
 375:lvgl/lvgl/src/widgets/lv_dropdown.c ****         if(buf_size && c >= buf_size - 1) {
 2692              		.loc 1 375 67 discriminator 2 view .LVU826
 2693 003a 0133     		adds	r3, r3, #1
 2694              	.LVL267:
 2695              	.L150:
 375:lvgl/lvgl/src/widgets/lv_dropdown.c ****         if(buf_size && c >= buf_size - 1) {
 2696              		.loc 1 375 16 is_stmt 1 discriminator 1 view .LVU827
 375:lvgl/lvgl/src/widgets/lv_dropdown.c ****         if(buf_size && c >= buf_size - 1) {
 2697              		.loc 1 375 5 is_stmt 0 discriminator 1 view .LVU828
 2698 003c 8342     		cmp	r3, r0
 2699 003e 11D2     		bcs	.L149
 375:lvgl/lvgl/src/widgets/lv_dropdown.c ****         if(buf_size && c >= buf_size - 1) {
 2700              		.loc 1 375 39 discriminator 3 view .LVU829
 2701 0040 326B     		ldr	r2, [r6, #48]
 375:lvgl/lvgl/src/widgets/lv_dropdown.c ****         if(buf_size && c >= buf_size - 1) {
 2702              		.loc 1 375 48 discriminator 3 view .LVU830
 2703 0042 D55C     		ldrb	r5, [r2, r3]	@ zero_extendqisi2
 375:lvgl/lvgl/src/widgets/lv_dropdown.c ****         if(buf_size && c >= buf_size - 1) {
ARM GAS  C:\Users\gx\AppData\Local\Temp\ccIqfrB9.s 			page 89


 2704              		.loc 1 375 28 discriminator 3 view .LVU831
 2705 0044 0A2D     		cmp	r5, #10
 2706 0046 0DD0     		beq	.L149
 376:lvgl/lvgl/src/widgets/lv_dropdown.c ****             LV_LOG_WARN("lv_dropdown_get_selected_str: the buffer was too small")
 2707              		.loc 1 376 9 is_stmt 1 view .LVU832
 376:lvgl/lvgl/src/widgets/lv_dropdown.c ****             LV_LOG_WARN("lv_dropdown_get_selected_str: the buffer was too small")
 2708              		.loc 1 376 11 is_stmt 0 view .LVU833
 2709 0048 002F     		cmp	r7, #0
 2710 004a F3D0     		beq	.L148
 376:lvgl/lvgl/src/widgets/lv_dropdown.c ****             LV_LOG_WARN("lv_dropdown_get_selected_str: the buffer was too small")
 2711              		.loc 1 376 38 discriminator 1 view .LVU834
 2712 004c 7A1E     		subs	r2, r7, #1
 376:lvgl/lvgl/src/widgets/lv_dropdown.c ****             LV_LOG_WARN("lv_dropdown_get_selected_str: the buffer was too small")
 2713              		.loc 1 376 21 discriminator 1 view .LVU835
 2714 004e A242     		cmp	r2, r4
 2715 0050 F0D8     		bhi	.L148
 377:lvgl/lvgl/src/widgets/lv_dropdown.c ****             break;
 2716              		.loc 1 377 13 is_stmt 1 view .LVU836
 2717 0052 084B     		ldr	r3, .L155
 2718              	.LVL268:
 377:lvgl/lvgl/src/widgets/lv_dropdown.c ****             break;
 2719              		.loc 1 377 13 is_stmt 0 view .LVU837
 2720 0054 0093     		str	r3, [sp]
 2721 0056 084B     		ldr	r3, .L155+4
 2722 0058 40F27912 		movw	r2, #377
 2723 005c 0749     		ldr	r1, .L155+8
 2724              	.LVL269:
 377:lvgl/lvgl/src/widgets/lv_dropdown.c ****             break;
 2725              		.loc 1 377 13 view .LVU838
 2726 005e 0220     		movs	r0, #2
 2727              	.LVL270:
 377:lvgl/lvgl/src/widgets/lv_dropdown.c ****             break;
 2728              		.loc 1 377 13 view .LVU839
 2729 0060 FFF7FEFF 		bl	_lv_log_add
 2730              	.LVL271:
 378:lvgl/lvgl/src/widgets/lv_dropdown.c ****         }
 2731              		.loc 1 378 13 is_stmt 1 view .LVU840
 2732              	.L149:
 383:lvgl/lvgl/src/widgets/lv_dropdown.c **** }
 2733              		.loc 1 383 5 view .LVU841
 383:lvgl/lvgl/src/widgets/lv_dropdown.c **** }
 2734              		.loc 1 383 12 is_stmt 0 view .LVU842
 2735 0064 0023     		movs	r3, #0
 2736 0066 08F80430 		strb	r3, [r8, r4]
 384:lvgl/lvgl/src/widgets/lv_dropdown.c **** 
 2737              		.loc 1 384 1 view .LVU843
 2738 006a 02B0     		add	sp, sp, #8
 2739              	.LCFI42:
 2740              		.cfi_remember_state
 2741              		.cfi_def_cfa_offset 24
 2742              		@ sp needed
 2743 006c BDE8F081 		pop	{r4, r5, r6, r7, r8, pc}
 2744              	.LVL272:
 2745              	.L152:
 2746              	.LCFI43:
 2747              		.cfi_restore_state
 384:lvgl/lvgl/src/widgets/lv_dropdown.c **** 
ARM GAS  C:\Users\gx\AppData\Local\Temp\ccIqfrB9.s 			page 90


 2748              		.loc 1 384 1 view .LVU844
 2749 0070 0024     		movs	r4, #0
 2750 0072 E3E7     		b	.L150
 2751              	.L156:
 2752              		.align	2
 2753              	.L155:
 2754 0074 00000000 		.word	.LC12
 2755 0078 00000000 		.word	.LANCHOR5
 2756 007c 00000000 		.word	.LC0
 2757              		.cfi_endproc
 2758              	.LFE173:
 2760              		.section	.text.draw_main,"ax",%progbits
 2761              		.align	1
 2762              		.syntax unified
 2763              		.thumb
 2764              		.thumb_func
 2765              		.fpu fpv4-sp-d16
 2767              	draw_main:
 2768              	.LVL273:
 2769              	.LFB186:
 725:lvgl/lvgl/src/widgets/lv_dropdown.c ****     lv_obj_t * obj = lv_event_get_target(e);
 2770              		.loc 1 725 1 is_stmt 1 view -0
 2771              		.cfi_startproc
 2772              		@ args = 0, pretend = 0, frame = 120
 2773              		@ frame_needed = 0, uses_anonymous_args = 0
 725:lvgl/lvgl/src/widgets/lv_dropdown.c ****     lv_obj_t * obj = lv_event_get_target(e);
 2774              		.loc 1 725 1 is_stmt 0 view .LVU846
 2775 0000 2DE9F04F 		push	{r4, r5, r6, r7, r8, r9, r10, fp, lr}
 2776              	.LCFI44:
 2777              		.cfi_def_cfa_offset 36
 2778              		.cfi_offset 4, -36
 2779              		.cfi_offset 5, -32
 2780              		.cfi_offset 6, -28
 2781              		.cfi_offset 7, -24
 2782              		.cfi_offset 8, -20
 2783              		.cfi_offset 9, -16
 2784              		.cfi_offset 10, -12
 2785              		.cfi_offset 11, -8
 2786              		.cfi_offset 14, -4
 2787 0004 A3B0     		sub	sp, sp, #140
 2788              	.LCFI45:
 2789              		.cfi_def_cfa_offset 176
 2790 0006 0546     		mov	r5, r0
 726:lvgl/lvgl/src/widgets/lv_dropdown.c ****     lv_dropdown_t * dropdown = (lv_dropdown_t *)obj;
 2791              		.loc 1 726 5 is_stmt 1 view .LVU847
 726:lvgl/lvgl/src/widgets/lv_dropdown.c ****     lv_dropdown_t * dropdown = (lv_dropdown_t *)obj;
 2792              		.loc 1 726 22 is_stmt 0 view .LVU848
 2793 0008 FFF7FEFF 		bl	lv_event_get_target
 2794              	.LVL274:
 726:lvgl/lvgl/src/widgets/lv_dropdown.c ****     lv_dropdown_t * dropdown = (lv_dropdown_t *)obj;
 2795              		.loc 1 726 22 view .LVU849
 2796 000c 0446     		mov	r4, r0
 2797              	.LVL275:
 727:lvgl/lvgl/src/widgets/lv_dropdown.c ****     const lv_area_t * clip_area = lv_event_get_param(e);
 2798              		.loc 1 727 5 is_stmt 1 view .LVU850
 728:lvgl/lvgl/src/widgets/lv_dropdown.c **** 
 2799              		.loc 1 728 5 view .LVU851
ARM GAS  C:\Users\gx\AppData\Local\Temp\ccIqfrB9.s 			page 91


 728:lvgl/lvgl/src/widgets/lv_dropdown.c **** 
 2800              		.loc 1 728 35 is_stmt 0 view .LVU852
 2801 000e 2846     		mov	r0, r5
 2802              	.LVL276:
 728:lvgl/lvgl/src/widgets/lv_dropdown.c **** 
 2803              		.loc 1 728 35 view .LVU853
 2804 0010 FFF7FEFF 		bl	lv_event_get_param
 2805              	.LVL277:
 2806 0014 0490     		str	r0, [sp, #16]
 2807              	.LVL278:
 730:lvgl/lvgl/src/widgets/lv_dropdown.c ****     lv_coord_t left = lv_obj_get_style_pad_left(obj, LV_PART_MAIN) + border_width;
 2808              		.loc 1 730 5 is_stmt 1 view .LVU854
 2809              	.LBB85:
 2810              	.LBI85:
 295:lvgl/lvgl/src/widgets/../core/lv_obj_style_gen.h **** {
 2811              		.loc 2 295 26 view .LVU855
 2812              	.LBB86:
 297:lvgl/lvgl/src/widgets/../core/lv_obj_style_gen.h ****     return (lv_coord_t)v.num;
 2813              		.loc 2 297 5 view .LVU856
 297:lvgl/lvgl/src/widgets/../core/lv_obj_style_gen.h ****     return (lv_coord_t)v.num;
 2814              		.loc 2 297 26 is_stmt 0 view .LVU857
 2815 0016 41F23202 		movw	r2, #4146
 2816 001a 0021     		movs	r1, #0
 2817 001c 2046     		mov	r0, r4
 2818              	.LVL279:
 297:lvgl/lvgl/src/widgets/../core/lv_obj_style_gen.h ****     return (lv_coord_t)v.num;
 2819              		.loc 2 297 26 view .LVU858
 2820 001e FFF7FEFF 		bl	lv_obj_get_style_prop
 2821              	.LVL280:
 2822 0022 0546     		mov	r5, r0
 2823              	.LVL281:
 298:lvgl/lvgl/src/widgets/../core/lv_obj_style_gen.h **** }
 2824              		.loc 2 298 5 is_stmt 1 view .LVU859
 298:lvgl/lvgl/src/widgets/../core/lv_obj_style_gen.h **** }
 2825              		.loc 2 298 5 is_stmt 0 view .LVU860
 2826              	.LBE86:
 2827              	.LBE85:
 731:lvgl/lvgl/src/widgets/lv_dropdown.c ****     lv_coord_t right = lv_obj_get_style_pad_right(obj, LV_PART_MAIN) + border_width;
 2828              		.loc 1 731 5 is_stmt 1 view .LVU861
 2829              	.LBB87:
 2830              	.LBI87:
 103:lvgl/lvgl/src/widgets/../core/lv_obj_style_gen.h **** {
 2831              		.loc 2 103 26 view .LVU862
 2832              	.LBB88:
 105:lvgl/lvgl/src/widgets/../core/lv_obj_style_gen.h ****     return (lv_coord_t)v.num;
 2833              		.loc 2 105 5 view .LVU863
 105:lvgl/lvgl/src/widgets/../core/lv_obj_style_gen.h ****     return (lv_coord_t)v.num;
 2834              		.loc 2 105 26 is_stmt 0 view .LVU864
 2835 0024 41F21202 		movw	r2, #4114
 2836 0028 0021     		movs	r1, #0
 2837 002a 2046     		mov	r0, r4
 2838 002c FFF7FEFF 		bl	lv_obj_get_style_prop
 2839              	.LVL282:
 106:lvgl/lvgl/src/widgets/../core/lv_obj_style_gen.h **** }
 2840              		.loc 2 106 5 is_stmt 1 view .LVU865
 106:lvgl/lvgl/src/widgets/../core/lv_obj_style_gen.h **** }
 2841              		.loc 2 106 5 is_stmt 0 view .LVU866
ARM GAS  C:\Users\gx\AppData\Local\Temp\ccIqfrB9.s 			page 92


 2842              	.LBE88:
 2843              	.LBE87:
 731:lvgl/lvgl/src/widgets/lv_dropdown.c ****     lv_coord_t right = lv_obj_get_style_pad_right(obj, LV_PART_MAIN) + border_width;
 2844              		.loc 1 731 68 view .LVU867
 2845 0030 ADB2     		uxth	r5, r5
 731:lvgl/lvgl/src/widgets/lv_dropdown.c ****     lv_coord_t right = lv_obj_get_style_pad_right(obj, LV_PART_MAIN) + border_width;
 2846              		.loc 1 731 68 view .LVU868
 2847 0032 15FA80F6 		uxtah	r6, r5, r0
 2848 0036 B6B2     		uxth	r6, r6
 2849              	.LVL283:
 732:lvgl/lvgl/src/widgets/lv_dropdown.c ****     lv_coord_t top = lv_obj_get_style_pad_top(obj, LV_PART_MAIN) + border_width;
 2850              		.loc 1 732 5 is_stmt 1 view .LVU869
 2851              	.LBB89:
 2852              	.LBI89:
 109:lvgl/lvgl/src/widgets/../core/lv_obj_style_gen.h **** {
 2853              		.loc 2 109 26 view .LVU870
 2854              	.LBB90:
 111:lvgl/lvgl/src/widgets/../core/lv_obj_style_gen.h ****     return (lv_coord_t)v.num;
 2855              		.loc 2 111 5 view .LVU871
 111:lvgl/lvgl/src/widgets/../core/lv_obj_style_gen.h ****     return (lv_coord_t)v.num;
 2856              		.loc 2 111 26 is_stmt 0 view .LVU872
 2857 0038 41F21302 		movw	r2, #4115
 2858 003c 0021     		movs	r1, #0
 2859 003e 2046     		mov	r0, r4
 2860 0040 FFF7FEFF 		bl	lv_obj_get_style_prop
 2861              	.LVL284:
 112:lvgl/lvgl/src/widgets/../core/lv_obj_style_gen.h **** }
 2862              		.loc 2 112 5 is_stmt 1 view .LVU873
 112:lvgl/lvgl/src/widgets/../core/lv_obj_style_gen.h **** }
 2863              		.loc 2 112 5 is_stmt 0 view .LVU874
 2864              	.LBE90:
 2865              	.LBE89:
 732:lvgl/lvgl/src/widgets/lv_dropdown.c ****     lv_coord_t top = lv_obj_get_style_pad_top(obj, LV_PART_MAIN) + border_width;
 2866              		.loc 1 732 70 view .LVU875
 2867 0044 15FA80F7 		uxtah	r7, r5, r0
 2868 0048 BFB2     		uxth	r7, r7
 2869              	.LVL285:
 733:lvgl/lvgl/src/widgets/lv_dropdown.c **** 
 2870              		.loc 1 733 5 is_stmt 1 view .LVU876
 2871              	.LBB91:
 2872              	.LBI91:
  91:lvgl/lvgl/src/widgets/../core/lv_obj_style_gen.h **** {
 2873              		.loc 2 91 26 view .LVU877
 2874              	.LBB92:
  93:lvgl/lvgl/src/widgets/../core/lv_obj_style_gen.h ****     return (lv_coord_t)v.num;
 2875              		.loc 2 93 5 view .LVU878
  93:lvgl/lvgl/src/widgets/../core/lv_obj_style_gen.h ****     return (lv_coord_t)v.num;
 2876              		.loc 2 93 26 is_stmt 0 view .LVU879
 2877 004a 41F21002 		movw	r2, #4112
 2878 004e 0021     		movs	r1, #0
 2879 0050 2046     		mov	r0, r4
 2880 0052 FFF7FEFF 		bl	lv_obj_get_style_prop
 2881              	.LVL286:
  94:lvgl/lvgl/src/widgets/../core/lv_obj_style_gen.h **** }
 2882              		.loc 2 94 5 is_stmt 1 view .LVU880
  94:lvgl/lvgl/src/widgets/../core/lv_obj_style_gen.h **** }
 2883              		.loc 2 94 5 is_stmt 0 view .LVU881
ARM GAS  C:\Users\gx\AppData\Local\Temp\ccIqfrB9.s 			page 93


 2884              	.LBE92:
 2885              	.LBE91:
 733:lvgl/lvgl/src/widgets/lv_dropdown.c **** 
 2886              		.loc 1 733 66 view .LVU882
 2887 0056 15FA80F5 		uxtah	r5, r5, r0
 2888              	.LVL287:
 733:lvgl/lvgl/src/widgets/lv_dropdown.c **** 
 2889              		.loc 1 733 66 view .LVU883
 2890 005a ADB2     		uxth	r5, r5
 2891              	.LVL288:
 735:lvgl/lvgl/src/widgets/lv_dropdown.c ****     lv_draw_label_dsc_init(&symbol_dsc);
 2892              		.loc 1 735 5 is_stmt 1 view .LVU884
 736:lvgl/lvgl/src/widgets/lv_dropdown.c ****     lv_obj_init_draw_label_dsc(obj, LV_PART_INDICATOR, &symbol_dsc);
 2893              		.loc 1 736 5 view .LVU885
 2894 005c 1AA8     		add	r0, sp, #104
 2895 005e FFF7FEFF 		bl	lv_draw_label_dsc_init
 2896              	.LVL289:
 737:lvgl/lvgl/src/widgets/lv_dropdown.c **** 
 2897              		.loc 1 737 5 view .LVU886
 2898 0062 1AAA     		add	r2, sp, #104
 2899 0064 4FF40031 		mov	r1, #131072
 2900 0068 2046     		mov	r0, r4
 2901 006a FFF7FEFF 		bl	lv_obj_init_draw_label_dsc
 2902              	.LVL290:
 740:lvgl/lvgl/src/widgets/lv_dropdown.c ****     if(dropdown->text) opt_txt = dropdown->text;
 2903              		.loc 1 740 5 view .LVU887
 741:lvgl/lvgl/src/widgets/lv_dropdown.c ****     else {
 2904              		.loc 1 741 5 view .LVU888
 741:lvgl/lvgl/src/widgets/lv_dropdown.c ****     else {
 2905              		.loc 1 741 16 is_stmt 0 view .LVU889
 2906 006e D4F82880 		ldr	r8, [r4, #40]
 741:lvgl/lvgl/src/widgets/lv_dropdown.c ****     else {
 2907              		.loc 1 741 7 view .LVU890
 2908 0072 B8F1000F 		cmp	r8, #0
 2909 0076 00F0AF80 		beq	.L177
 2910              	.L158:
 2911              	.LVL291:
 748:lvgl/lvgl/src/widgets/lv_dropdown.c ****     if(dropdown->dir == LV_DIR_LEFT) symbol_to_left = true;
 2912              		.loc 1 748 5 is_stmt 1 view .LVU891
 749:lvgl/lvgl/src/widgets/lv_dropdown.c ****     if(lv_obj_get_style_base_dir(obj, LV_PART_MAIN) == LV_BASE_DIR_RTL) symbol_to_left = true;
 2913              		.loc 1 749 5 view .LVU892
 749:lvgl/lvgl/src/widgets/lv_dropdown.c ****     if(lv_obj_get_style_base_dir(obj, LV_PART_MAIN) == LV_BASE_DIR_RTL) symbol_to_left = true;
 2914              		.loc 1 749 22 is_stmt 0 view .LVU893
 2915 007a 94F83C30 		ldrb	r3, [r4, #60]	@ zero_extendqisi2
 2916 007e 03F00F03 		and	r3, r3, #15
 749:lvgl/lvgl/src/widgets/lv_dropdown.c ****     if(lv_obj_get_style_base_dir(obj, LV_PART_MAIN) == LV_BASE_DIR_RTL) symbol_to_left = true;
 2917              		.loc 1 749 7 view .LVU894
 2918 0082 012B     		cmp	r3, #1
 2919 0084 00F0B280 		beq	.L173
 748:lvgl/lvgl/src/widgets/lv_dropdown.c ****     if(dropdown->dir == LV_DIR_LEFT) symbol_to_left = true;
 2920              		.loc 1 748 10 view .LVU895
 2921 0088 4FF0000B 		mov	fp, #0
 2922              	.L159:
 2923              	.LVL292:
 750:lvgl/lvgl/src/widgets/lv_dropdown.c **** 
 2924              		.loc 1 750 5 is_stmt 1 view .LVU896
 2925              	.LBB93:
ARM GAS  C:\Users\gx\AppData\Local\Temp\ccIqfrB9.s 			page 94


 2926              	.LBI93:
 187:lvgl/lvgl/src/widgets/../core/lv_obj_style_gen.h **** {
 2927              		.loc 2 187 29 view .LVU897
 2928              	.LBB94:
 189:lvgl/lvgl/src/widgets/../core/lv_obj_style_gen.h ****     return (lv_base_dir_t)v.num;
 2929              		.loc 2 189 5 view .LVU898
 189:lvgl/lvgl/src/widgets/../core/lv_obj_style_gen.h ****     return (lv_base_dir_t)v.num;
 2930              		.loc 2 189 26 is_stmt 0 view .LVU899
 2931 008c 41F26A42 		movw	r2, #5226
 2932 0090 0021     		movs	r1, #0
 2933 0092 2046     		mov	r0, r4
 2934 0094 FFF7FEFF 		bl	lv_obj_get_style_prop
 2935              	.LVL293:
 190:lvgl/lvgl/src/widgets/../core/lv_obj_style_gen.h **** }
 2936              		.loc 2 190 5 is_stmt 1 view .LVU900
 190:lvgl/lvgl/src/widgets/../core/lv_obj_style_gen.h **** }
 2937              		.loc 2 190 12 is_stmt 0 view .LVU901
 2938 0098 C0B2     		uxtb	r0, r0
 2939              	.LVL294:
 190:lvgl/lvgl/src/widgets/../core/lv_obj_style_gen.h **** }
 2940              		.loc 2 190 12 view .LVU902
 2941              	.LBE94:
 2942              	.LBE93:
 750:lvgl/lvgl/src/widgets/lv_dropdown.c **** 
 2943              		.loc 1 750 7 view .LVU903
 2944 009a 0128     		cmp	r0, #1
 2945 009c 00F0A980 		beq	.L178
 2946              	.LVL295:
 2947              	.L160:
 752:lvgl/lvgl/src/widgets/lv_dropdown.c ****         lv_img_src_t symbol_type = lv_img_src_get_type(dropdown->symbol);
 2948              		.loc 1 752 5 is_stmt 1 view .LVU904
 752:lvgl/lvgl/src/widgets/lv_dropdown.c ****         lv_img_src_t symbol_type = lv_img_src_get_type(dropdown->symbol);
 2949              		.loc 1 752 16 is_stmt 0 view .LVU905
 2950 00a0 E06A     		ldr	r0, [r4, #44]
 752:lvgl/lvgl/src/widgets/lv_dropdown.c ****         lv_img_src_t symbol_type = lv_img_src_get_type(dropdown->symbol);
 2951              		.loc 1 752 7 view .LVU906
 2952 00a2 0028     		cmp	r0, #0
 2953 00a4 58D0     		beq	.L161
 2954              	.LBB95:
 753:lvgl/lvgl/src/widgets/lv_dropdown.c ****         lv_coord_t symbol_w;
 2955              		.loc 1 753 9 is_stmt 1 view .LVU907
 753:lvgl/lvgl/src/widgets/lv_dropdown.c ****         lv_coord_t symbol_w;
 2956              		.loc 1 753 36 is_stmt 0 view .LVU908
 2957 00a6 FFF7FEFF 		bl	lv_img_src_get_type
 2958              	.LVL296:
 2959 00aa 0590     		str	r0, [sp, #20]
 2960              	.LVL297:
 754:lvgl/lvgl/src/widgets/lv_dropdown.c ****         lv_coord_t symbol_h;
 2961              		.loc 1 754 9 is_stmt 1 view .LVU909
 755:lvgl/lvgl/src/widgets/lv_dropdown.c ****         if(symbol_type == LV_IMG_SRC_SYMBOL) {
 2962              		.loc 1 755 9 view .LVU910
 756:lvgl/lvgl/src/widgets/lv_dropdown.c ****             lv_point_t size;
 2963              		.loc 1 756 9 view .LVU911
 756:lvgl/lvgl/src/widgets/lv_dropdown.c ****             lv_point_t size;
 2964              		.loc 1 756 11 is_stmt 0 view .LVU912
 2965 00ac 0228     		cmp	r0, #2
 2966 00ae 00F0A380 		beq	.L179
ARM GAS  C:\Users\gx\AppData\Local\Temp\ccIqfrB9.s 			page 95


 2967              	.LBB96:
 762:lvgl/lvgl/src/widgets/lv_dropdown.c ****             lv_res_t res = lv_img_decoder_get_info(dropdown->symbol, &header);
 2968              		.loc 1 762 13 is_stmt 1 view .LVU913
 763:lvgl/lvgl/src/widgets/lv_dropdown.c ****             if(res == LV_RES_OK) {
 2969              		.loc 1 763 13 view .LVU914
 763:lvgl/lvgl/src/widgets/lv_dropdown.c ****             if(res == LV_RES_OK) {
 2970              		.loc 1 763 28 is_stmt 0 view .LVU915
 2971 00b2 09A9     		add	r1, sp, #36
 2972 00b4 E06A     		ldr	r0, [r4, #44]
 2973              	.LVL298:
 763:lvgl/lvgl/src/widgets/lv_dropdown.c ****             if(res == LV_RES_OK) {
 2974              		.loc 1 763 28 view .LVU916
 2975 00b6 FFF7FEFF 		bl	lv_img_decoder_get_info
 2976              	.LVL299:
 764:lvgl/lvgl/src/widgets/lv_dropdown.c ****                 symbol_w = header.w;
 2977              		.loc 1 764 13 is_stmt 1 view .LVU917
 764:lvgl/lvgl/src/widgets/lv_dropdown.c ****                 symbol_w = header.w;
 2978              		.loc 1 764 15 is_stmt 0 view .LVU918
 2979 00ba 0128     		cmp	r0, #1
 2980 00bc 00F0B180 		beq	.L180
 769:lvgl/lvgl/src/widgets/lv_dropdown.c ****             }
 2981              		.loc 1 769 26 view .LVU919
 2982 00c0 4FF0FF3A 		mov	r10, #-1
 768:lvgl/lvgl/src/widgets/lv_dropdown.c ****                 symbol_h = -1;
 2983              		.loc 1 768 26 view .LVU920
 2984 00c4 D146     		mov	r9, r10
 2985              	.LVL300:
 2986              	.L163:
 768:lvgl/lvgl/src/widgets/lv_dropdown.c ****                 symbol_h = -1;
 2987              		.loc 1 768 26 view .LVU921
 2988              	.LBE96:
 773:lvgl/lvgl/src/widgets/lv_dropdown.c ****         if(symbol_to_left) {
 2989              		.loc 1 773 9 is_stmt 1 view .LVU922
 774:lvgl/lvgl/src/widgets/lv_dropdown.c ****             symbol_area.x1 = obj->coords.x1 + left;
 2990              		.loc 1 774 9 view .LVU923
 774:lvgl/lvgl/src/widgets/lv_dropdown.c ****             symbol_area.x1 = obj->coords.x1 + left;
 2991              		.loc 1 774 11 is_stmt 0 view .LVU924
 2992 00c6 BBF1000F 		cmp	fp, #0
 2993 00ca 00F0B280 		beq	.L165
 775:lvgl/lvgl/src/widgets/lv_dropdown.c ****             symbol_area.x2 = symbol_area.x1 + symbol_w - 1;
 2994              		.loc 1 775 13 is_stmt 1 view .LVU925
 775:lvgl/lvgl/src/widgets/lv_dropdown.c ****             symbol_area.x2 = symbol_area.x1 + symbol_w - 1;
 2995              		.loc 1 775 41 is_stmt 0 view .LVU926
 2996 00ce A38A     		ldrh	r3, [r4, #20]
 775:lvgl/lvgl/src/widgets/lv_dropdown.c ****             symbol_area.x2 = symbol_area.x1 + symbol_w - 1;
 2997              		.loc 1 775 45 view .LVU927
 2998 00d0 3344     		add	r3, r3, r6
 775:lvgl/lvgl/src/widgets/lv_dropdown.c ****             symbol_area.x2 = symbol_area.x1 + symbol_w - 1;
 2999              		.loc 1 775 28 view .LVU928
 3000 00d2 ADF81C30 		strh	r3, [sp, #28]	@ movhi
 776:lvgl/lvgl/src/widgets/lv_dropdown.c ****         } else {
 3001              		.loc 1 776 13 is_stmt 1 view .LVU929
 776:lvgl/lvgl/src/widgets/lv_dropdown.c ****         } else {
 3002              		.loc 1 776 45 is_stmt 0 view .LVU930
 3003 00d6 19FA83F3 		uxtah	r3, r9, r3
 3004 00da 9BB2     		uxth	r3, r3
 776:lvgl/lvgl/src/widgets/lv_dropdown.c ****         } else {
ARM GAS  C:\Users\gx\AppData\Local\Temp\ccIqfrB9.s 			page 96


 3005              		.loc 1 776 56 view .LVU931
 3006 00dc 013B     		subs	r3, r3, #1
 776:lvgl/lvgl/src/widgets/lv_dropdown.c ****         } else {
 3007              		.loc 1 776 28 view .LVU932
 3008 00de ADF82030 		strh	r3, [sp, #32]	@ movhi
 3009              	.L166:
 782:lvgl/lvgl/src/widgets/lv_dropdown.c ****             symbol_area.y1 = obj->coords.y1 + top;
 3010              		.loc 1 782 9 is_stmt 1 view .LVU933
 782:lvgl/lvgl/src/widgets/lv_dropdown.c ****             symbol_area.y1 = obj->coords.y1 + top;
 3011              		.loc 1 782 11 is_stmt 0 view .LVU934
 3012 00e2 059B     		ldr	r3, [sp, #20]
 3013 00e4 022B     		cmp	r3, #2
 3014 00e6 00F0AF80 		beq	.L181
 3015              	.LBB97:
 787:lvgl/lvgl/src/widgets/lv_dropdown.c ****             symbol_area.y2 = symbol_area.y1 + symbol_h - 1;
 3016              		.loc 1 787 13 is_stmt 1 view .LVU935
 787:lvgl/lvgl/src/widgets/lv_dropdown.c ****             symbol_area.y2 = symbol_area.y1 + symbol_h - 1;
 3017              		.loc 1 787 41 is_stmt 0 view .LVU936
 3018 00ea E38A     		ldrh	r3, [r4, #22]
 3019 00ec 0593     		str	r3, [sp, #20]
 3020              	.LVL301:
 787:lvgl/lvgl/src/widgets/lv_dropdown.c ****             symbol_area.y2 = symbol_area.y1 + symbol_h - 1;
 3021              		.loc 1 787 48 view .LVU937
 3022 00ee 2046     		mov	r0, r4
 3023 00f0 FFF7FEFF 		bl	lv_obj_get_height
 3024              	.LVL302:
 787:lvgl/lvgl/src/widgets/lv_dropdown.c ****             symbol_area.y2 = symbol_area.y1 + symbol_h - 1;
 3025              		.loc 1 787 71 view .LVU938
 3026 00f4 A0EB0A00 		sub	r0, r0, r10
 787:lvgl/lvgl/src/widgets/lv_dropdown.c ****             symbol_area.y2 = symbol_area.y1 + symbol_h - 1;
 3027              		.loc 1 787 83 view .LVU939
 3028 00f8 00EBD070 		add	r0, r0, r0, lsr #31
 787:lvgl/lvgl/src/widgets/lv_dropdown.c ****             symbol_area.y2 = symbol_area.y1 + symbol_h - 1;
 3029              		.loc 1 787 45 view .LVU940
 3030 00fc 059B     		ldr	r3, [sp, #20]
 3031 00fe 03EB6000 		add	r0, r3, r0, asr #1
 787:lvgl/lvgl/src/widgets/lv_dropdown.c ****             symbol_area.y2 = symbol_area.y1 + symbol_h - 1;
 3032              		.loc 1 787 28 view .LVU941
 3033 0102 ADF81E00 		strh	r0, [sp, #30]	@ movhi
 788:lvgl/lvgl/src/widgets/lv_dropdown.c ****             lv_draw_img_dsc_t img_dsc;
 3034              		.loc 1 788 13 is_stmt 1 view .LVU942
 788:lvgl/lvgl/src/widgets/lv_dropdown.c ****             lv_draw_img_dsc_t img_dsc;
 3035              		.loc 1 788 45 is_stmt 0 view .LVU943
 3036 0106 1AFA80F0 		uxtah	r0, r10, r0
 3037 010a 80B2     		uxth	r0, r0
 788:lvgl/lvgl/src/widgets/lv_dropdown.c ****             lv_draw_img_dsc_t img_dsc;
 3038              		.loc 1 788 56 view .LVU944
 3039 010c 0138     		subs	r0, r0, #1
 788:lvgl/lvgl/src/widgets/lv_dropdown.c ****             lv_draw_img_dsc_t img_dsc;
 3040              		.loc 1 788 28 view .LVU945
 3041 010e ADF82200 		strh	r0, [sp, #34]	@ movhi
 789:lvgl/lvgl/src/widgets/lv_dropdown.c ****             lv_draw_img_dsc_init(&img_dsc);
 3042              		.loc 1 789 13 is_stmt 1 view .LVU946
 790:lvgl/lvgl/src/widgets/lv_dropdown.c ****             lv_obj_init_draw_img_dsc(obj, LV_PART_INDICATOR, &img_dsc);
 3043              		.loc 1 790 13 view .LVU947
 3044 0112 09A8     		add	r0, sp, #36
 3045 0114 FFF7FEFF 		bl	lv_draw_img_dsc_init
ARM GAS  C:\Users\gx\AppData\Local\Temp\ccIqfrB9.s 			page 97


 3046              	.LVL303:
 791:lvgl/lvgl/src/widgets/lv_dropdown.c ****             img_dsc.pivot.x = symbol_w / 2;
 3047              		.loc 1 791 13 view .LVU948
 3048 0118 09AA     		add	r2, sp, #36
 3049 011a 4FF40031 		mov	r1, #131072
 3050 011e 2046     		mov	r0, r4
 3051 0120 FFF7FEFF 		bl	lv_obj_init_draw_img_dsc
 3052              	.LVL304:
 792:lvgl/lvgl/src/widgets/lv_dropdown.c ****             img_dsc.pivot.y = symbol_h / 2;
 3053              		.loc 1 792 13 view .LVU949
 792:lvgl/lvgl/src/widgets/lv_dropdown.c ****             img_dsc.pivot.y = symbol_h / 2;
 3054              		.loc 1 792 29 is_stmt 0 view .LVU950
 3055 0124 09EBD973 		add	r3, r9, r9, lsr #31
 3056 0128 5B10     		asrs	r3, r3, #1
 3057 012a ADF82830 		strh	r3, [sp, #40]	@ movhi
 793:lvgl/lvgl/src/widgets/lv_dropdown.c ****             img_dsc.angle = lv_obj_get_style_transform_angle(obj, LV_PART_INDICATOR);
 3058              		.loc 1 793 13 is_stmt 1 view .LVU951
 793:lvgl/lvgl/src/widgets/lv_dropdown.c ****             img_dsc.angle = lv_obj_get_style_transform_angle(obj, LV_PART_INDICATOR);
 3059              		.loc 1 793 29 is_stmt 0 view .LVU952
 3060 012e 0AEBDA7A 		add	r10, r10, r10, lsr #31
 3061              	.LVL305:
 793:lvgl/lvgl/src/widgets/lv_dropdown.c ****             img_dsc.angle = lv_obj_get_style_transform_angle(obj, LV_PART_INDICATOR);
 3062              		.loc 1 793 29 view .LVU953
 3063 0132 4FEA6A0A 		asr	r10, r10, #1
 3064 0136 ADF82AA0 		strh	r10, [sp, #42]	@ movhi
 794:lvgl/lvgl/src/widgets/lv_dropdown.c ****             lv_draw_img(&symbol_area, clip_area, dropdown->symbol, &img_dsc);
 3065              		.loc 1 794 13 is_stmt 1 view .LVU954
 3066              	.LVL306:
 3067              	.LBB98:
 3068              	.LBI98:
  85:lvgl/lvgl/src/widgets/../core/lv_obj_style_gen.h **** {
 3069              		.loc 2 85 26 view .LVU955
 3070              	.LBB99:
  87:lvgl/lvgl/src/widgets/../core/lv_obj_style_gen.h ****     return (lv_coord_t)v.num;
 3071              		.loc 2 87 5 view .LVU956
  87:lvgl/lvgl/src/widgets/../core/lv_obj_style_gen.h ****     return (lv_coord_t)v.num;
 3072              		.loc 2 87 26 is_stmt 0 view .LVU957
 3073 013a 43F60F02 		movw	r2, #14351
 3074 013e 4FF40031 		mov	r1, #131072
 3075 0142 2046     		mov	r0, r4
 3076 0144 FFF7FEFF 		bl	lv_obj_get_style_prop
 3077              	.LVL307:
  88:lvgl/lvgl/src/widgets/../core/lv_obj_style_gen.h **** }
 3078              		.loc 2 88 5 is_stmt 1 view .LVU958
  88:lvgl/lvgl/src/widgets/../core/lv_obj_style_gen.h **** }
 3079              		.loc 2 88 5 is_stmt 0 view .LVU959
 3080              	.LBE99:
 3081              	.LBE98:
 794:lvgl/lvgl/src/widgets/lv_dropdown.c ****             lv_draw_img(&symbol_area, clip_area, dropdown->symbol, &img_dsc);
 3082              		.loc 1 794 27 view .LVU960
 3083 0148 ADF82400 		strh	r0, [sp, #36]	@ movhi
 795:lvgl/lvgl/src/widgets/lv_dropdown.c ****         }
 3084              		.loc 1 795 13 is_stmt 1 view .LVU961
 3085 014c 09AB     		add	r3, sp, #36
 3086 014e E26A     		ldr	r2, [r4, #44]
 3087 0150 0499     		ldr	r1, [sp, #16]
 3088 0152 07A8     		add	r0, sp, #28
ARM GAS  C:\Users\gx\AppData\Local\Temp\ccIqfrB9.s 			page 98


 3089 0154 FFF7FEFF 		bl	lv_draw_img
 3090              	.LVL308:
 3091              	.L161:
 795:lvgl/lvgl/src/widgets/lv_dropdown.c ****         }
 3092              		.loc 1 795 13 is_stmt 0 view .LVU962
 3093              	.LBE97:
 3094              	.LBE95:
 799:lvgl/lvgl/src/widgets/lv_dropdown.c ****     lv_draw_label_dsc_init(&label_dsc);
 3095              		.loc 1 799 5 is_stmt 1 view .LVU963
 800:lvgl/lvgl/src/widgets/lv_dropdown.c ****     lv_obj_init_draw_label_dsc(obj, LV_PART_MAIN, &label_dsc);
 3096              		.loc 1 800 5 view .LVU964
 3097 0158 12A8     		add	r0, sp, #72
 3098 015a FFF7FEFF 		bl	lv_draw_label_dsc_init
 3099              	.LVL309:
 801:lvgl/lvgl/src/widgets/lv_dropdown.c **** 
 3100              		.loc 1 801 5 view .LVU965
 3101 015e 12AA     		add	r2, sp, #72
 3102 0160 0021     		movs	r1, #0
 3103 0162 2046     		mov	r0, r4
 3104 0164 FFF7FEFF 		bl	lv_obj_init_draw_label_dsc
 3105              	.LVL310:
 803:lvgl/lvgl/src/widgets/lv_dropdown.c ****     lv_txt_get_size(&size, opt_txt, label_dsc.font, label_dsc.letter_space, label_dsc.line_space, L
 3106              		.loc 1 803 5 view .LVU966
 804:lvgl/lvgl/src/widgets/lv_dropdown.c **** 
 3107              		.loc 1 804 5 view .LVU967
 3108 0168 9DF86530 		ldrb	r3, [sp, #101]	@ zero_extendqisi2
 3109 016c 0293     		str	r3, [sp, #8]
 3110 016e 4FF4C043 		mov	r3, #24576
 3111 0172 0193     		str	r3, [sp, #4]
 3112 0174 BDF95A30 		ldrsh	r3, [sp, #90]
 3113 0178 0093     		str	r3, [sp]
 3114 017a BDF95C30 		ldrsh	r3, [sp, #92]
 3115 017e 129A     		ldr	r2, [sp, #72]
 3116 0180 4146     		mov	r1, r8
 3117 0182 11A8     		add	r0, sp, #68
 3118 0184 FFF7FEFF 		bl	lv_txt_get_size
 3119              	.LVL311:
 806:lvgl/lvgl/src/widgets/lv_dropdown.c ****     txt_area.y1 = obj->coords.y1 + top;
 3120              		.loc 1 806 5 view .LVU968
 807:lvgl/lvgl/src/widgets/lv_dropdown.c ****     txt_area.y2 = txt_area.y1 + size.y;
 3121              		.loc 1 807 5 view .LVU969
 807:lvgl/lvgl/src/widgets/lv_dropdown.c ****     txt_area.y2 = txt_area.y1 + size.y;
 3122              		.loc 1 807 30 is_stmt 0 view .LVU970
 3123 0188 E08A     		ldrh	r0, [r4, #22]
 807:lvgl/lvgl/src/widgets/lv_dropdown.c ****     txt_area.y2 = txt_area.y1 + size.y;
 3124              		.loc 1 807 34 view .LVU971
 3125 018a 0544     		add	r5, r5, r0
 3126              	.LVL312:
 807:lvgl/lvgl/src/widgets/lv_dropdown.c ****     txt_area.y2 = txt_area.y1 + size.y;
 3127              		.loc 1 807 17 view .LVU972
 3128 018c ADF83E50 		strh	r5, [sp, #62]	@ movhi
 808:lvgl/lvgl/src/widgets/lv_dropdown.c ****     /*Center align the text if no symbol*/
 3129              		.loc 1 808 5 is_stmt 1 view .LVU973
 808:lvgl/lvgl/src/widgets/lv_dropdown.c ****     /*Center align the text if no symbol*/
 3130              		.loc 1 808 37 is_stmt 0 view .LVU974
 3131 0190 BDF84630 		ldrh	r3, [sp, #70]
 808:lvgl/lvgl/src/widgets/lv_dropdown.c ****     /*Center align the text if no symbol*/
ARM GAS  C:\Users\gx\AppData\Local\Temp\ccIqfrB9.s 			page 99


 3132              		.loc 1 808 31 view .LVU975
 3133 0194 13FA85F5 		uxtah	r5, r3, r5
 808:lvgl/lvgl/src/widgets/lv_dropdown.c ****     /*Center align the text if no symbol*/
 3134              		.loc 1 808 17 view .LVU976
 3135 0198 ADF84250 		strh	r5, [sp, #66]	@ movhi
 810:lvgl/lvgl/src/widgets/lv_dropdown.c ****         txt_area.x1 = obj->coords.x1 + (lv_obj_get_width(obj) - size.x) / 2;
 3136              		.loc 1 810 5 is_stmt 1 view .LVU977
 810:lvgl/lvgl/src/widgets/lv_dropdown.c ****         txt_area.x1 = obj->coords.x1 + (lv_obj_get_width(obj) - size.x) / 2;
 3137              		.loc 1 810 16 is_stmt 0 view .LVU978
 3138 019c E36A     		ldr	r3, [r4, #44]
 810:lvgl/lvgl/src/widgets/lv_dropdown.c ****         txt_area.x1 = obj->coords.x1 + (lv_obj_get_width(obj) - size.x) / 2;
 3139              		.loc 1 810 7 view .LVU979
 3140 019e 002B     		cmp	r3, #0
 3141 01a0 65D0     		beq	.L182
 816:lvgl/lvgl/src/widgets/lv_dropdown.c ****             txt_area.x1 = obj->coords.x2 - right - size.x;
 3142              		.loc 1 816 9 is_stmt 1 view .LVU980
 816:lvgl/lvgl/src/widgets/lv_dropdown.c ****             txt_area.x1 = obj->coords.x2 - right - size.x;
 3143              		.loc 1 816 11 is_stmt 0 view .LVU981
 3144 01a2 BBF1000F 		cmp	fp, #0
 3145 01a6 75D0     		beq	.L171
 817:lvgl/lvgl/src/widgets/lv_dropdown.c ****             txt_area.x2 = txt_area.x1 + size.x;
 3146              		.loc 1 817 13 is_stmt 1 view .LVU982
 817:lvgl/lvgl/src/widgets/lv_dropdown.c ****             txt_area.x2 = txt_area.x1 + size.x;
 3147              		.loc 1 817 38 is_stmt 0 view .LVU983
 3148 01a8 208B     		ldrh	r0, [r4, #24]
 817:lvgl/lvgl/src/widgets/lv_dropdown.c ****             txt_area.x2 = txt_area.x1 + size.x;
 3149              		.loc 1 817 42 view .LVU984
 3150 01aa C71B     		subs	r7, r0, r7
 3151              	.LVL313:
 817:lvgl/lvgl/src/widgets/lv_dropdown.c ****             txt_area.x2 = txt_area.x1 + size.x;
 3152              		.loc 1 817 42 view .LVU985
 3153 01ac BFB2     		uxth	r7, r7
 817:lvgl/lvgl/src/widgets/lv_dropdown.c ****             txt_area.x2 = txt_area.x1 + size.x;
 3154              		.loc 1 817 56 view .LVU986
 3155 01ae BDF84430 		ldrh	r3, [sp, #68]
 817:lvgl/lvgl/src/widgets/lv_dropdown.c ****             txt_area.x2 = txt_area.x1 + size.x;
 3156              		.loc 1 817 50 view .LVU987
 3157 01b2 FB1A     		subs	r3, r7, r3
 817:lvgl/lvgl/src/widgets/lv_dropdown.c ****             txt_area.x2 = txt_area.x1 + size.x;
 3158              		.loc 1 817 25 view .LVU988
 3159 01b4 ADF83C30 		strh	r3, [sp, #60]	@ movhi
 818:lvgl/lvgl/src/widgets/lv_dropdown.c ****         } else {
 3160              		.loc 1 818 13 is_stmt 1 view .LVU989
 818:lvgl/lvgl/src/widgets/lv_dropdown.c ****         } else {
 3161              		.loc 1 818 25 is_stmt 0 view .LVU990
 3162 01b8 ADF84070 		strh	r7, [sp, #64]	@ movhi
 3163              	.LVL314:
 3164              	.L170:
 824:lvgl/lvgl/src/widgets/lv_dropdown.c **** 
 3165              		.loc 1 824 5 is_stmt 1 view .LVU991
 3166 01bc 0023     		movs	r3, #0
 3167 01be 0093     		str	r3, [sp]
 3168 01c0 4346     		mov	r3, r8
 3169 01c2 12AA     		add	r2, sp, #72
 3170 01c4 0499     		ldr	r1, [sp, #16]
 3171 01c6 0FA8     		add	r0, sp, #60
 3172 01c8 FFF7FEFF 		bl	lv_draw_label
ARM GAS  C:\Users\gx\AppData\Local\Temp\ccIqfrB9.s 			page 100


 3173              	.LVL315:
 826:lvgl/lvgl/src/widgets/lv_dropdown.c ****         lv_mem_buf_release((char *)opt_txt);
 3174              		.loc 1 826 5 view .LVU992
 826:lvgl/lvgl/src/widgets/lv_dropdown.c ****         lv_mem_buf_release((char *)opt_txt);
 3175              		.loc 1 826 16 is_stmt 0 view .LVU993
 3176 01cc A36A     		ldr	r3, [r4, #40]
 826:lvgl/lvgl/src/widgets/lv_dropdown.c ****         lv_mem_buf_release((char *)opt_txt);
 3177              		.loc 1 826 7 view .LVU994
 3178 01ce 002B     		cmp	r3, #0
 3179 01d0 6BD0     		beq	.L183
 3180              	.L157:
 829:lvgl/lvgl/src/widgets/lv_dropdown.c **** 
 3181              		.loc 1 829 1 view .LVU995
 3182 01d2 23B0     		add	sp, sp, #140
 3183              	.LCFI46:
 3184              		.cfi_remember_state
 3185              		.cfi_def_cfa_offset 36
 3186              		@ sp needed
 3187 01d4 BDE8F08F 		pop	{r4, r5, r6, r7, r8, r9, r10, fp, pc}
 3188              	.LVL316:
 3189              	.L177:
 3190              	.LCFI47:
 3191              		.cfi_restore_state
 3192              	.LBB102:
 743:lvgl/lvgl/src/widgets/lv_dropdown.c ****         lv_dropdown_get_selected_str(obj, buf, 128);
 3193              		.loc 1 743 9 is_stmt 1 view .LVU996
 743:lvgl/lvgl/src/widgets/lv_dropdown.c ****         lv_dropdown_get_selected_str(obj, buf, 128);
 3194              		.loc 1 743 22 is_stmt 0 view .LVU997
 3195 01d8 8020     		movs	r0, #128
 3196 01da FFF7FEFF 		bl	lv_mem_buf_get
 3197              	.LVL317:
 3198 01de 8046     		mov	r8, r0
 3199              	.LVL318:
 744:lvgl/lvgl/src/widgets/lv_dropdown.c ****         opt_txt = buf;
 3200              		.loc 1 744 9 is_stmt 1 view .LVU998
 3201 01e0 8022     		movs	r2, #128
 3202 01e2 0146     		mov	r1, r0
 3203 01e4 2046     		mov	r0, r4
 3204              	.LVL319:
 744:lvgl/lvgl/src/widgets/lv_dropdown.c ****         opt_txt = buf;
 3205              		.loc 1 744 9 is_stmt 0 view .LVU999
 3206 01e6 FFF7FEFF 		bl	lv_dropdown_get_selected_str
 3207              	.LVL320:
 745:lvgl/lvgl/src/widgets/lv_dropdown.c ****     }
 3208              		.loc 1 745 9 is_stmt 1 view .LVU1000
 745:lvgl/lvgl/src/widgets/lv_dropdown.c ****     }
 3209              		.loc 1 745 9 is_stmt 0 view .LVU1001
 3210 01ea 46E7     		b	.L158
 3211              	.LVL321:
 3212              	.L173:
 745:lvgl/lvgl/src/widgets/lv_dropdown.c ****     }
 3213              		.loc 1 745 9 view .LVU1002
 3214              	.LBE102:
 749:lvgl/lvgl/src/widgets/lv_dropdown.c ****     if(lv_obj_get_style_base_dir(obj, LV_PART_MAIN) == LV_BASE_DIR_RTL) symbol_to_left = true;
 3215              		.loc 1 749 53 view .LVU1003
 3216 01ec 4FF0010B 		mov	fp, #1
 3217 01f0 4CE7     		b	.L159
ARM GAS  C:\Users\gx\AppData\Local\Temp\ccIqfrB9.s 			page 101


 3218              	.LVL322:
 3219              	.L178:
 750:lvgl/lvgl/src/widgets/lv_dropdown.c **** 
 3220              		.loc 1 750 88 view .LVU1004
 3221 01f2 4FF0010B 		mov	fp, #1
 3222              	.LVL323:
 750:lvgl/lvgl/src/widgets/lv_dropdown.c **** 
 3223              		.loc 1 750 88 view .LVU1005
 3224 01f6 53E7     		b	.L160
 3225              	.LVL324:
 3226              	.L179:
 3227              	.LBB103:
 3228              	.LBB100:
 757:lvgl/lvgl/src/widgets/lv_dropdown.c ****             lv_txt_get_size(&size, dropdown->symbol, symbol_dsc.font, symbol_dsc.letter_space, symb
 3229              		.loc 1 757 13 is_stmt 1 view .LVU1006
 758:lvgl/lvgl/src/widgets/lv_dropdown.c ****             symbol_w = size.x;
 3230              		.loc 1 758 13 view .LVU1007
 758:lvgl/lvgl/src/widgets/lv_dropdown.c ****             symbol_w = size.x;
 3231              		.loc 1 758 44 is_stmt 0 view .LVU1008
 3232 01f8 E16A     		ldr	r1, [r4, #44]
 758:lvgl/lvgl/src/widgets/lv_dropdown.c ****             symbol_w = size.x;
 3233              		.loc 1 758 13 view .LVU1009
 3234 01fa 9DF88530 		ldrb	r3, [sp, #133]	@ zero_extendqisi2
 3235 01fe 0293     		str	r3, [sp, #8]
 3236 0200 4FF4C043 		mov	r3, #24576
 3237 0204 0193     		str	r3, [sp, #4]
 3238 0206 BDF97A30 		ldrsh	r3, [sp, #122]
 3239 020a 0093     		str	r3, [sp]
 3240 020c BDF97C30 		ldrsh	r3, [sp, #124]
 3241 0210 1A9A     		ldr	r2, [sp, #104]
 3242 0212 09A8     		add	r0, sp, #36
 3243              	.LVL325:
 758:lvgl/lvgl/src/widgets/lv_dropdown.c ****             symbol_w = size.x;
 3244              		.loc 1 758 13 view .LVU1010
 3245 0214 FFF7FEFF 		bl	lv_txt_get_size
 3246              	.LVL326:
 759:lvgl/lvgl/src/widgets/lv_dropdown.c ****             symbol_h = size.y;
 3247              		.loc 1 759 13 is_stmt 1 view .LVU1011
 759:lvgl/lvgl/src/widgets/lv_dropdown.c ****             symbol_h = size.y;
 3248              		.loc 1 759 22 is_stmt 0 view .LVU1012
 3249 0218 BDF92490 		ldrsh	r9, [sp, #36]
 3250              	.LVL327:
 760:lvgl/lvgl/src/widgets/lv_dropdown.c ****         } else {
 3251              		.loc 1 760 13 is_stmt 1 view .LVU1013
 760:lvgl/lvgl/src/widgets/lv_dropdown.c ****         } else {
 3252              		.loc 1 760 22 is_stmt 0 view .LVU1014
 3253 021c BDF926A0 		ldrsh	r10, [sp, #38]
 3254              	.LVL328:
 760:lvgl/lvgl/src/widgets/lv_dropdown.c ****         } else {
 3255              		.loc 1 760 22 view .LVU1015
 3256              	.LBE100:
 3257 0220 51E7     		b	.L163
 3258              	.LVL329:
 3259              	.L180:
 3260              	.LBB101:
 765:lvgl/lvgl/src/widgets/lv_dropdown.c ****                 symbol_h = header.h;
 3261              		.loc 1 765 17 is_stmt 1 view .LVU1016
ARM GAS  C:\Users\gx\AppData\Local\Temp\ccIqfrB9.s 			page 102


 765:lvgl/lvgl/src/widgets/lv_dropdown.c ****                 symbol_h = header.h;
 3262              		.loc 1 765 26 is_stmt 0 view .LVU1017
 3263 0222 099B     		ldr	r3, [sp, #36]
 3264 0224 C3F38A29 		ubfx	r9, r3, #10, #11
 3265              	.LVL330:
 766:lvgl/lvgl/src/widgets/lv_dropdown.c ****             } else {
 3266              		.loc 1 766 17 is_stmt 1 view .LVU1018
 766:lvgl/lvgl/src/widgets/lv_dropdown.c ****             } else {
 3267              		.loc 1 766 34 is_stmt 0 view .LVU1019
 3268 0228 BDF826A0 		ldrh	r10, [sp, #38]
 766:lvgl/lvgl/src/widgets/lv_dropdown.c ****             } else {
 3269              		.loc 1 766 26 view .LVU1020
 3270 022c CAF34A1A 		ubfx	r10, r10, #5, #11
 3271              	.LVL331:
 766:lvgl/lvgl/src/widgets/lv_dropdown.c ****             } else {
 3272              		.loc 1 766 26 view .LVU1021
 3273 0230 49E7     		b	.L163
 3274              	.LVL332:
 3275              	.L165:
 766:lvgl/lvgl/src/widgets/lv_dropdown.c ****             } else {
 3276              		.loc 1 766 26 view .LVU1022
 3277              	.LBE101:
 778:lvgl/lvgl/src/widgets/lv_dropdown.c ****             symbol_area.x2 = symbol_area.x1 + symbol_w - 1;
 3278              		.loc 1 778 13 is_stmt 1 view .LVU1023
 778:lvgl/lvgl/src/widgets/lv_dropdown.c ****             symbol_area.x2 = symbol_area.x1 + symbol_w - 1;
 3279              		.loc 1 778 41 is_stmt 0 view .LVU1024
 3280 0232 238B     		ldrh	r3, [r4, #24]
 778:lvgl/lvgl/src/widgets/lv_dropdown.c ****             symbol_area.x2 = symbol_area.x1 + symbol_w - 1;
 3281              		.loc 1 778 45 view .LVU1025
 3282 0234 DB1B     		subs	r3, r3, r7
 3283 0236 9BB2     		uxth	r3, r3
 778:lvgl/lvgl/src/widgets/lv_dropdown.c ****             symbol_area.x2 = symbol_area.x1 + symbol_w - 1;
 3284              		.loc 1 778 53 view .LVU1026
 3285 0238 A3EB0902 		sub	r2, r3, r9
 778:lvgl/lvgl/src/widgets/lv_dropdown.c ****             symbol_area.x2 = symbol_area.x1 + symbol_w - 1;
 3286              		.loc 1 778 28 view .LVU1027
 3287 023c ADF81C20 		strh	r2, [sp, #28]	@ movhi
 779:lvgl/lvgl/src/widgets/lv_dropdown.c ****         }
 3288              		.loc 1 779 13 is_stmt 1 view .LVU1028
 779:lvgl/lvgl/src/widgets/lv_dropdown.c ****         }
 3289              		.loc 1 779 56 is_stmt 0 view .LVU1029
 3290 0240 013B     		subs	r3, r3, #1
 779:lvgl/lvgl/src/widgets/lv_dropdown.c ****         }
 3291              		.loc 1 779 28 view .LVU1030
 3292 0242 ADF82030 		strh	r3, [sp, #32]	@ movhi
 3293 0246 4CE7     		b	.L166
 3294              	.L181:
 783:lvgl/lvgl/src/widgets/lv_dropdown.c ****             symbol_area.y2 = symbol_area.y1 + symbol_h - 1;
 3295              		.loc 1 783 13 is_stmt 1 view .LVU1031
 783:lvgl/lvgl/src/widgets/lv_dropdown.c ****             symbol_area.y2 = symbol_area.y1 + symbol_h - 1;
 3296              		.loc 1 783 41 is_stmt 0 view .LVU1032
 3297 0248 E38A     		ldrh	r3, [r4, #22]
 783:lvgl/lvgl/src/widgets/lv_dropdown.c ****             symbol_area.y2 = symbol_area.y1 + symbol_h - 1;
 3298              		.loc 1 783 45 view .LVU1033
 3299 024a 2B44     		add	r3, r3, r5
 783:lvgl/lvgl/src/widgets/lv_dropdown.c ****             symbol_area.y2 = symbol_area.y1 + symbol_h - 1;
 3300              		.loc 1 783 28 view .LVU1034
ARM GAS  C:\Users\gx\AppData\Local\Temp\ccIqfrB9.s 			page 103


 3301 024c ADF81E30 		strh	r3, [sp, #30]	@ movhi
 784:lvgl/lvgl/src/widgets/lv_dropdown.c ****             lv_draw_label(&symbol_area, clip_area, &symbol_dsc, dropdown->symbol, NULL);
 3302              		.loc 1 784 13 is_stmt 1 view .LVU1035
 784:lvgl/lvgl/src/widgets/lv_dropdown.c ****             lv_draw_label(&symbol_area, clip_area, &symbol_dsc, dropdown->symbol, NULL);
 3303              		.loc 1 784 45 is_stmt 0 view .LVU1036
 3304 0250 1AFA83F3 		uxtah	r3, r10, r3
 3305 0254 9BB2     		uxth	r3, r3
 784:lvgl/lvgl/src/widgets/lv_dropdown.c ****             lv_draw_label(&symbol_area, clip_area, &symbol_dsc, dropdown->symbol, NULL);
 3306              		.loc 1 784 56 view .LVU1037
 3307 0256 013B     		subs	r3, r3, #1
 784:lvgl/lvgl/src/widgets/lv_dropdown.c ****             lv_draw_label(&symbol_area, clip_area, &symbol_dsc, dropdown->symbol, NULL);
 3308              		.loc 1 784 28 view .LVU1038
 3309 0258 ADF82230 		strh	r3, [sp, #34]	@ movhi
 785:lvgl/lvgl/src/widgets/lv_dropdown.c ****         } else {
 3310              		.loc 1 785 13 is_stmt 1 view .LVU1039
 785:lvgl/lvgl/src/widgets/lv_dropdown.c ****         } else {
 3311              		.loc 1 785 73 is_stmt 0 view .LVU1040
 3312 025c E36A     		ldr	r3, [r4, #44]
 785:lvgl/lvgl/src/widgets/lv_dropdown.c ****         } else {
 3313              		.loc 1 785 13 view .LVU1041
 3314 025e 0022     		movs	r2, #0
 3315 0260 0092     		str	r2, [sp]
 3316 0262 1AAA     		add	r2, sp, #104
 3317 0264 0499     		ldr	r1, [sp, #16]
 3318 0266 07A8     		add	r0, sp, #28
 3319 0268 FFF7FEFF 		bl	lv_draw_label
 3320              	.LVL333:
 3321 026c 74E7     		b	.L161
 3322              	.LVL334:
 3323              	.L182:
 785:lvgl/lvgl/src/widgets/lv_dropdown.c ****         } else {
 3324              		.loc 1 785 13 view .LVU1042
 3325              	.LBE103:
 811:lvgl/lvgl/src/widgets/lv_dropdown.c ****         txt_area.x2 = txt_area.x1 + size.x;
 3326              		.loc 1 811 9 is_stmt 1 view .LVU1043
 811:lvgl/lvgl/src/widgets/lv_dropdown.c ****         txt_area.x2 = txt_area.x1 + size.x;
 3327              		.loc 1 811 34 is_stmt 0 view .LVU1044
 3328 026e A58A     		ldrh	r5, [r4, #20]
 811:lvgl/lvgl/src/widgets/lv_dropdown.c ****         txt_area.x2 = txt_area.x1 + size.x;
 3329              		.loc 1 811 41 view .LVU1045
 3330 0270 2046     		mov	r0, r4
 3331 0272 FFF7FEFF 		bl	lv_obj_get_width
 3332              	.LVL335:
 811:lvgl/lvgl/src/widgets/lv_dropdown.c ****         txt_area.x2 = txt_area.x1 + size.x;
 3333              		.loc 1 811 69 view .LVU1046
 3334 0276 BDF94420 		ldrsh	r2, [sp, #68]
 811:lvgl/lvgl/src/widgets/lv_dropdown.c ****         txt_area.x2 = txt_area.x1 + size.x;
 3335              		.loc 1 811 63 view .LVU1047
 3336 027a 801A     		subs	r0, r0, r2
 811:lvgl/lvgl/src/widgets/lv_dropdown.c ****         txt_area.x2 = txt_area.x1 + size.x;
 3337              		.loc 1 811 73 view .LVU1048
 3338 027c 00EBD070 		add	r0, r0, r0, lsr #31
 811:lvgl/lvgl/src/widgets/lv_dropdown.c ****         txt_area.x2 = txt_area.x1 + size.x;
 3339              		.loc 1 811 38 view .LVU1049
 3340 0280 05EB6003 		add	r3, r5, r0, asr #1
 811:lvgl/lvgl/src/widgets/lv_dropdown.c ****         txt_area.x2 = txt_area.x1 + size.x;
 3341              		.loc 1 811 21 view .LVU1050
ARM GAS  C:\Users\gx\AppData\Local\Temp\ccIqfrB9.s 			page 104


 3342 0284 ADF83C30 		strh	r3, [sp, #60]	@ movhi
 812:lvgl/lvgl/src/widgets/lv_dropdown.c ****     }
 3343              		.loc 1 812 9 is_stmt 1 view .LVU1051
 812:lvgl/lvgl/src/widgets/lv_dropdown.c ****     }
 3344              		.loc 1 812 41 is_stmt 0 view .LVU1052
 3345 0288 92B2     		uxth	r2, r2
 812:lvgl/lvgl/src/widgets/lv_dropdown.c ****     }
 3346              		.loc 1 812 35 view .LVU1053
 3347 028a 12FA83F3 		uxtah	r3, r2, r3
 812:lvgl/lvgl/src/widgets/lv_dropdown.c ****     }
 3348              		.loc 1 812 21 view .LVU1054
 3349 028e ADF84030 		strh	r3, [sp, #64]	@ movhi
 3350 0292 93E7     		b	.L170
 3351              	.L171:
 820:lvgl/lvgl/src/widgets/lv_dropdown.c ****             txt_area.x2 = txt_area.x1 + size.x;
 3352              		.loc 1 820 13 is_stmt 1 view .LVU1055
 820:lvgl/lvgl/src/widgets/lv_dropdown.c ****             txt_area.x2 = txt_area.x1 + size.x;
 3353              		.loc 1 820 38 is_stmt 0 view .LVU1056
 3354 0294 A08A     		ldrh	r0, [r4, #20]
 820:lvgl/lvgl/src/widgets/lv_dropdown.c ****             txt_area.x2 = txt_area.x1 + size.x;
 3355              		.loc 1 820 42 view .LVU1057
 3356 0296 0644     		add	r6, r6, r0
 3357              	.LVL336:
 820:lvgl/lvgl/src/widgets/lv_dropdown.c ****             txt_area.x2 = txt_area.x1 + size.x;
 3358              		.loc 1 820 25 view .LVU1058
 3359 0298 ADF83C60 		strh	r6, [sp, #60]	@ movhi
 821:lvgl/lvgl/src/widgets/lv_dropdown.c ****         }
 3360              		.loc 1 821 13 is_stmt 1 view .LVU1059
 821:lvgl/lvgl/src/widgets/lv_dropdown.c ****         }
 3361              		.loc 1 821 45 is_stmt 0 view .LVU1060
 3362 029c BDF84430 		ldrh	r3, [sp, #68]
 821:lvgl/lvgl/src/widgets/lv_dropdown.c ****         }
 3363              		.loc 1 821 39 view .LVU1061
 3364 02a0 13FA86F6 		uxtah	r6, r3, r6
 821:lvgl/lvgl/src/widgets/lv_dropdown.c ****         }
 3365              		.loc 1 821 25 view .LVU1062
 3366 02a4 ADF84060 		strh	r6, [sp, #64]	@ movhi
 3367 02a8 88E7     		b	.L170
 3368              	.LVL337:
 3369              	.L183:
 827:lvgl/lvgl/src/widgets/lv_dropdown.c ****     }
 3370              		.loc 1 827 9 is_stmt 1 view .LVU1063
 3371 02aa 4046     		mov	r0, r8
 3372 02ac FFF7FEFF 		bl	lv_mem_buf_release
 3373              	.LVL338:
 829:lvgl/lvgl/src/widgets/lv_dropdown.c **** 
 3374              		.loc 1 829 1 is_stmt 0 view .LVU1064
 3375 02b0 8FE7     		b	.L157
 3376              		.cfi_endproc
 3377              	.LFE186:
 3379              		.section	.text.lv_dropdown_get_symbol,"ax",%progbits
 3380              		.align	1
 3381              		.global	lv_dropdown_get_symbol
 3382              		.syntax unified
 3383              		.thumb
 3384              		.thumb_func
 3385              		.fpu fpv4-sp-d16
ARM GAS  C:\Users\gx\AppData\Local\Temp\ccIqfrB9.s 			page 105


 3387              	lv_dropdown_get_symbol:
 3388              	.LVL339:
 3389              	.LFB174:
 387:lvgl/lvgl/src/widgets/lv_dropdown.c ****     LV_ASSERT_OBJ(obj, MY_CLASS);
 3390              		.loc 1 387 1 is_stmt 1 view -0
 3391              		.cfi_startproc
 3392              		@ args = 0, pretend = 0, frame = 0
 3393              		@ frame_needed = 0, uses_anonymous_args = 0
 3394              		@ link register save eliminated.
 388:lvgl/lvgl/src/widgets/lv_dropdown.c ****     lv_dropdown_t * dropdown = (lv_dropdown_t *)obj;
 3395              		.loc 1 388 5 view .LVU1066
 388:lvgl/lvgl/src/widgets/lv_dropdown.c ****     lv_dropdown_t * dropdown = (lv_dropdown_t *)obj;
 3396              		.loc 1 388 5 view .LVU1067
 388:lvgl/lvgl/src/widgets/lv_dropdown.c ****     lv_dropdown_t * dropdown = (lv_dropdown_t *)obj;
 3397              		.loc 1 388 5 view .LVU1068
 389:lvgl/lvgl/src/widgets/lv_dropdown.c ****     return dropdown->symbol;
 3398              		.loc 1 389 5 view .LVU1069
 390:lvgl/lvgl/src/widgets/lv_dropdown.c **** }
 3399              		.loc 1 390 5 view .LVU1070
 391:lvgl/lvgl/src/widgets/lv_dropdown.c **** 
 3400              		.loc 1 391 1 is_stmt 0 view .LVU1071
 3401 0000 C06A     		ldr	r0, [r0, #44]
 3402              	.LVL340:
 391:lvgl/lvgl/src/widgets/lv_dropdown.c **** 
 3403              		.loc 1 391 1 view .LVU1072
 3404 0002 7047     		bx	lr
 3405              		.cfi_endproc
 3406              	.LFE174:
 3408              		.section	.text.lv_dropdown_get_selected_highlight,"ax",%progbits
 3409              		.align	1
 3410              		.global	lv_dropdown_get_selected_highlight
 3411              		.syntax unified
 3412              		.thumb
 3413              		.thumb_func
 3414              		.fpu fpv4-sp-d16
 3416              	lv_dropdown_get_selected_highlight:
 3417              	.LVL341:
 3418              	.LFB175:
 394:lvgl/lvgl/src/widgets/lv_dropdown.c ****     LV_ASSERT_OBJ(obj, MY_CLASS);
 3419              		.loc 1 394 1 is_stmt 1 view -0
 3420              		.cfi_startproc
 3421              		@ args = 0, pretend = 0, frame = 0
 3422              		@ frame_needed = 0, uses_anonymous_args = 0
 3423              		@ link register save eliminated.
 395:lvgl/lvgl/src/widgets/lv_dropdown.c ****     lv_dropdown_t * dropdown = (lv_dropdown_t *)obj;
 3424              		.loc 1 395 5 view .LVU1074
 395:lvgl/lvgl/src/widgets/lv_dropdown.c ****     lv_dropdown_t * dropdown = (lv_dropdown_t *)obj;
 3425              		.loc 1 395 5 view .LVU1075
 395:lvgl/lvgl/src/widgets/lv_dropdown.c ****     lv_dropdown_t * dropdown = (lv_dropdown_t *)obj;
 3426              		.loc 1 395 5 view .LVU1076
 396:lvgl/lvgl/src/widgets/lv_dropdown.c ****     return dropdown->selected_highlight;
 3427              		.loc 1 396 5 view .LVU1077
 397:lvgl/lvgl/src/widgets/lv_dropdown.c **** }
 3428              		.loc 1 397 5 view .LVU1078
 397:lvgl/lvgl/src/widgets/lv_dropdown.c **** }
 3429              		.loc 1 397 20 is_stmt 0 view .LVU1079
 3430 0000 90F83C00 		ldrb	r0, [r0, #60]	@ zero_extendqisi2
ARM GAS  C:\Users\gx\AppData\Local\Temp\ccIqfrB9.s 			page 106


 3431              	.LVL342:
 398:lvgl/lvgl/src/widgets/lv_dropdown.c **** 
 3432              		.loc 1 398 1 view .LVU1080
 3433 0004 C0F34010 		ubfx	r0, r0, #5, #1
 3434 0008 7047     		bx	lr
 3435              		.cfi_endproc
 3436              	.LFE175:
 3438              		.section	.text.lv_dropdown_get_dir,"ax",%progbits
 3439              		.align	1
 3440              		.global	lv_dropdown_get_dir
 3441              		.syntax unified
 3442              		.thumb
 3443              		.thumb_func
 3444              		.fpu fpv4-sp-d16
 3446              	lv_dropdown_get_dir:
 3447              	.LVL343:
 3448              	.LFB176:
 401:lvgl/lvgl/src/widgets/lv_dropdown.c ****     LV_ASSERT_OBJ(obj, MY_CLASS);
 3449              		.loc 1 401 1 is_stmt 1 view -0
 3450              		.cfi_startproc
 3451              		@ args = 0, pretend = 0, frame = 0
 3452              		@ frame_needed = 0, uses_anonymous_args = 0
 3453              		@ link register save eliminated.
 402:lvgl/lvgl/src/widgets/lv_dropdown.c ****     lv_dropdown_t * dropdown = (lv_dropdown_t *)obj;
 3454              		.loc 1 402 5 view .LVU1082
 402:lvgl/lvgl/src/widgets/lv_dropdown.c ****     lv_dropdown_t * dropdown = (lv_dropdown_t *)obj;
 3455              		.loc 1 402 5 view .LVU1083
 402:lvgl/lvgl/src/widgets/lv_dropdown.c ****     lv_dropdown_t * dropdown = (lv_dropdown_t *)obj;
 3456              		.loc 1 402 5 view .LVU1084
 403:lvgl/lvgl/src/widgets/lv_dropdown.c ****     return dropdown->dir;
 3457              		.loc 1 403 5 view .LVU1085
 404:lvgl/lvgl/src/widgets/lv_dropdown.c **** }
 3458              		.loc 1 404 5 view .LVU1086
 404:lvgl/lvgl/src/widgets/lv_dropdown.c **** }
 3459              		.loc 1 404 20 is_stmt 0 view .LVU1087
 3460 0000 90F83C00 		ldrb	r0, [r0, #60]	@ zero_extendqisi2
 3461              	.LVL344:
 405:lvgl/lvgl/src/widgets/lv_dropdown.c **** 
 3462              		.loc 1 405 1 view .LVU1088
 3463 0004 00F00F00 		and	r0, r0, #15
 3464 0008 7047     		bx	lr
 3465              		.cfi_endproc
 3466              	.LFE176:
 3468              		.section	.text.lv_dropdown_open,"ax",%progbits
 3469              		.align	1
 3470              		.global	lv_dropdown_open
 3471              		.syntax unified
 3472              		.thumb
 3473              		.thumb_func
 3474              		.fpu fpv4-sp-d16
 3476              	lv_dropdown_open:
 3477              	.LVL345:
 3478              	.LFB177:
 412:lvgl/lvgl/src/widgets/lv_dropdown.c ****     lv_dropdown_t * dropdown = (lv_dropdown_t *)dropdown_obj;
 3479              		.loc 1 412 1 is_stmt 1 view -0
 3480              		.cfi_startproc
 3481              		@ args = 0, pretend = 0, frame = 0
ARM GAS  C:\Users\gx\AppData\Local\Temp\ccIqfrB9.s 			page 107


 3482              		@ frame_needed = 0, uses_anonymous_args = 0
 412:lvgl/lvgl/src/widgets/lv_dropdown.c ****     lv_dropdown_t * dropdown = (lv_dropdown_t *)dropdown_obj;
 3483              		.loc 1 412 1 is_stmt 0 view .LVU1090
 3484 0000 2DE9F043 		push	{r4, r5, r6, r7, r8, r9, lr}
 3485              	.LCFI48:
 3486              		.cfi_def_cfa_offset 28
 3487              		.cfi_offset 4, -28
 3488              		.cfi_offset 5, -24
 3489              		.cfi_offset 6, -20
 3490              		.cfi_offset 7, -16
 3491              		.cfi_offset 8, -12
 3492              		.cfi_offset 9, -8
 3493              		.cfi_offset 14, -4
 3494 0004 83B0     		sub	sp, sp, #12
 3495              	.LCFI49:
 3496              		.cfi_def_cfa_offset 40
 3497 0006 0446     		mov	r4, r0
 413:lvgl/lvgl/src/widgets/lv_dropdown.c **** 
 3498              		.loc 1 413 5 is_stmt 1 view .LVU1091
 3499              	.LVL346:
 415:lvgl/lvgl/src/widgets/lv_dropdown.c **** 
 3500              		.loc 1 415 5 view .LVU1092
 3501 0008 0121     		movs	r1, #1
 3502 000a FFF7FEFF 		bl	lv_obj_add_state
 3503              	.LVL347:
 417:lvgl/lvgl/src/widgets/lv_dropdown.c ****         lv_obj_t * list_obj = lv_dropdown_list_create(lv_obj_get_screen(dropdown_obj));
 3504              		.loc 1 417 5 view .LVU1093
 417:lvgl/lvgl/src/widgets/lv_dropdown.c ****         lv_obj_t * list_obj = lv_dropdown_list_create(lv_obj_get_screen(dropdown_obj));
 3505              		.loc 1 417 16 is_stmt 0 view .LVU1094
 3506 000e 636A     		ldr	r3, [r4, #36]
 417:lvgl/lvgl/src/widgets/lv_dropdown.c ****         lv_obj_t * list_obj = lv_dropdown_list_create(lv_obj_get_screen(dropdown_obj));
 3507              		.loc 1 417 7 view .LVU1095
 3508 0010 002B     		cmp	r3, #0
 3509 0012 00F08780 		beq	.L208
 3510              	.L188:
 427:lvgl/lvgl/src/widgets/lv_dropdown.c **** 
 3511              		.loc 1 427 5 is_stmt 1 view .LVU1096
 3512 0016 0022     		movs	r2, #0
 3513 0018 1F21     		movs	r1, #31
 3514 001a 2046     		mov	r0, r4
 3515 001c FFF7FEFF 		bl	lv_event_send
 3516              	.LVL348:
 429:lvgl/lvgl/src/widgets/lv_dropdown.c ****     lv_label_set_text_static(label, dropdown->options);
 3517              		.loc 1 429 5 view .LVU1097
 429:lvgl/lvgl/src/widgets/lv_dropdown.c ****     lv_label_set_text_static(label, dropdown->options);
 3518              		.loc 1 429 24 is_stmt 0 view .LVU1098
 3519 0020 2046     		mov	r0, r4
 3520 0022 FFF7FEFF 		bl	get_label
 3521              	.LVL349:
 3522 0026 0746     		mov	r7, r0
 3523              	.LVL350:
 430:lvgl/lvgl/src/widgets/lv_dropdown.c ****     lv_obj_set_width(dropdown->list, LV_SIZE_CONTENT);
 3524              		.loc 1 430 5 is_stmt 1 view .LVU1099
 3525 0028 216B     		ldr	r1, [r4, #48]
 3526 002a FFF7FEFF 		bl	lv_label_set_text_static
 3527              	.LVL351:
 431:lvgl/lvgl/src/widgets/lv_dropdown.c **** 
ARM GAS  C:\Users\gx\AppData\Local\Temp\ccIqfrB9.s 			page 108


 3528              		.loc 1 431 5 view .LVU1100
 3529 002e 42F2D171 		movw	r1, #10193
 3530 0032 606A     		ldr	r0, [r4, #36]
 3531 0034 FFF7FEFF 		bl	lv_obj_set_width
 3532              	.LVL352:
 433:lvgl/lvgl/src/widgets/lv_dropdown.c ****     /*Set smaller width to the width of the button*/
 3533              		.loc 1 433 5 view .LVU1101
 3534 0038 3846     		mov	r0, r7
 3535 003a FFF7FEFF 		bl	lv_obj_update_layout
 3536              	.LVL353:
 435:lvgl/lvgl/src/widgets/lv_dropdown.c ****        (dropdown->dir == LV_DIR_TOP || dropdown->dir == LV_DIR_BOTTOM)) {
 3537              		.loc 1 435 5 view .LVU1102
 435:lvgl/lvgl/src/widgets/lv_dropdown.c ****        (dropdown->dir == LV_DIR_TOP || dropdown->dir == LV_DIR_BOTTOM)) {
 3538              		.loc 1 435 8 is_stmt 0 view .LVU1103
 3539 003e 606A     		ldr	r0, [r4, #36]
 3540 0040 FFF7FEFF 		bl	lv_obj_get_width
 3541              	.LVL354:
 3542 0044 0546     		mov	r5, r0
 435:lvgl/lvgl/src/widgets/lv_dropdown.c ****        (dropdown->dir == LV_DIR_TOP || dropdown->dir == LV_DIR_BOTTOM)) {
 3543              		.loc 1 435 44 view .LVU1104
 3544 0046 2046     		mov	r0, r4
 3545 0048 FFF7FEFF 		bl	lv_obj_get_width
 3546              	.LVL355:
 435:lvgl/lvgl/src/widgets/lv_dropdown.c ****        (dropdown->dir == LV_DIR_TOP || dropdown->dir == LV_DIR_BOTTOM)) {
 3547              		.loc 1 435 7 view .LVU1105
 3548 004c 8542     		cmp	r5, r0
 3549 004e 07DC     		bgt	.L189
 436:lvgl/lvgl/src/widgets/lv_dropdown.c ****         lv_obj_set_width(dropdown->list, lv_obj_get_width(dropdown_obj));
 3550              		.loc 1 436 23 discriminator 1 view .LVU1106
 3551 0050 94F83C30 		ldrb	r3, [r4, #60]	@ zero_extendqisi2
 3552 0054 03F00F03 		and	r3, r3, #15
 435:lvgl/lvgl/src/widgets/lv_dropdown.c ****        (dropdown->dir == LV_DIR_TOP || dropdown->dir == LV_DIR_BOTTOM)) {
 3553              		.loc 1 435 75 discriminator 1 view .LVU1107
 3554 0058 042B     		cmp	r3, #4
 3555 005a 76D0     		beq	.L190
 436:lvgl/lvgl/src/widgets/lv_dropdown.c ****         lv_obj_set_width(dropdown->list, lv_obj_get_width(dropdown_obj));
 3556              		.loc 1 436 37 view .LVU1108
 3557 005c 082B     		cmp	r3, #8
 3558 005e 74D0     		beq	.L190
 3559              	.L189:
 440:lvgl/lvgl/src/widgets/lv_dropdown.c ****     lv_coord_t border_width = lv_obj_get_style_border_width(dropdown->list, LV_PART_MAIN);
 3560              		.loc 1 440 5 is_stmt 1 view .LVU1109
 440:lvgl/lvgl/src/widgets/lv_dropdown.c ****     lv_coord_t border_width = lv_obj_get_style_border_width(dropdown->list, LV_PART_MAIN);
 3561              		.loc 1 440 26 is_stmt 0 view .LVU1110
 3562 0060 3846     		mov	r0, r7
 3563 0062 FFF7FEFF 		bl	lv_obj_get_height
 3564              	.LVL356:
 3565 0066 8146     		mov	r9, r0
 3566              	.LVL357:
 441:lvgl/lvgl/src/widgets/lv_dropdown.c ****     lv_coord_t top = lv_obj_get_style_pad_top(dropdown->list, LV_PART_MAIN) + border_width;
 3567              		.loc 1 441 5 is_stmt 1 view .LVU1111
 3568              	.LBB104:
 3569              	.LBI104:
 295:lvgl/lvgl/src/widgets/../core/lv_obj_style_gen.h **** {
 3570              		.loc 2 295 26 view .LVU1112
 3571              	.LBB105:
 297:lvgl/lvgl/src/widgets/../core/lv_obj_style_gen.h ****     return (lv_coord_t)v.num;
ARM GAS  C:\Users\gx\AppData\Local\Temp\ccIqfrB9.s 			page 109


 3572              		.loc 2 297 5 view .LVU1113
 297:lvgl/lvgl/src/widgets/../core/lv_obj_style_gen.h ****     return (lv_coord_t)v.num;
 3573              		.loc 2 297 26 is_stmt 0 view .LVU1114
 3574 0068 41F23202 		movw	r2, #4146
 3575 006c 0021     		movs	r1, #0
 3576 006e 606A     		ldr	r0, [r4, #36]
 3577 0070 FFF7FEFF 		bl	lv_obj_get_style_prop
 3578              	.LVL358:
 297:lvgl/lvgl/src/widgets/../core/lv_obj_style_gen.h ****     return (lv_coord_t)v.num;
 3579              		.loc 2 297 26 view .LVU1115
 3580 0074 8046     		mov	r8, r0
 3581              	.LVL359:
 298:lvgl/lvgl/src/widgets/../core/lv_obj_style_gen.h **** }
 3582              		.loc 2 298 5 is_stmt 1 view .LVU1116
 298:lvgl/lvgl/src/widgets/../core/lv_obj_style_gen.h **** }
 3583              		.loc 2 298 5 is_stmt 0 view .LVU1117
 3584              	.LBE105:
 3585              	.LBE104:
 442:lvgl/lvgl/src/widgets/lv_dropdown.c ****     lv_coord_t bottom = lv_obj_get_style_pad_bottom(dropdown->list, LV_PART_MAIN) + border_width;
 3586              		.loc 1 442 5 is_stmt 1 view .LVU1118
 3587              	.LBB106:
 3588              	.LBI106:
  91:lvgl/lvgl/src/widgets/../core/lv_obj_style_gen.h **** {
 3589              		.loc 2 91 26 view .LVU1119
 3590              	.LBB107:
  93:lvgl/lvgl/src/widgets/../core/lv_obj_style_gen.h ****     return (lv_coord_t)v.num;
 3591              		.loc 2 93 5 view .LVU1120
  93:lvgl/lvgl/src/widgets/../core/lv_obj_style_gen.h ****     return (lv_coord_t)v.num;
 3592              		.loc 2 93 26 is_stmt 0 view .LVU1121
 3593 0076 41F21002 		movw	r2, #4112
 3594 007a 0021     		movs	r1, #0
 3595 007c 606A     		ldr	r0, [r4, #36]
 3596 007e FFF7FEFF 		bl	lv_obj_get_style_prop
 3597              	.LVL360:
  94:lvgl/lvgl/src/widgets/../core/lv_obj_style_gen.h **** }
 3598              		.loc 2 94 5 is_stmt 1 view .LVU1122
  94:lvgl/lvgl/src/widgets/../core/lv_obj_style_gen.h **** }
 3599              		.loc 2 94 5 is_stmt 0 view .LVU1123
 3600              	.LBE107:
 3601              	.LBE106:
 442:lvgl/lvgl/src/widgets/lv_dropdown.c ****     lv_coord_t bottom = lv_obj_get_style_pad_bottom(dropdown->list, LV_PART_MAIN) + border_width;
 3602              		.loc 1 442 77 view .LVU1124
 3603 0082 1FFA88F8 		uxth	r8, r8
 442:lvgl/lvgl/src/widgets/lv_dropdown.c ****     lv_coord_t bottom = lv_obj_get_style_pad_bottom(dropdown->list, LV_PART_MAIN) + border_width;
 3604              		.loc 1 442 77 view .LVU1125
 3605 0086 18FA80F3 		uxtah	r3, r8, r0
 3606 008a 9EB2     		uxth	r6, r3
 3607              	.LVL361:
 443:lvgl/lvgl/src/widgets/lv_dropdown.c **** 
 3608              		.loc 1 443 5 is_stmt 1 view .LVU1126
 3609              	.LBB108:
 3610              	.LBI108:
  97:lvgl/lvgl/src/widgets/../core/lv_obj_style_gen.h **** {
 3611              		.loc 2 97 26 view .LVU1127
 3612              	.LBB109:
  99:lvgl/lvgl/src/widgets/../core/lv_obj_style_gen.h ****     return (lv_coord_t)v.num;
 3613              		.loc 2 99 5 view .LVU1128
ARM GAS  C:\Users\gx\AppData\Local\Temp\ccIqfrB9.s 			page 110


  99:lvgl/lvgl/src/widgets/../core/lv_obj_style_gen.h ****     return (lv_coord_t)v.num;
 3614              		.loc 2 99 26 is_stmt 0 view .LVU1129
 3615 008c 41F21102 		movw	r2, #4113
 3616 0090 0021     		movs	r1, #0
 3617 0092 606A     		ldr	r0, [r4, #36]
 3618 0094 FFF7FEFF 		bl	lv_obj_get_style_prop
 3619              	.LVL362:
 100:lvgl/lvgl/src/widgets/../core/lv_obj_style_gen.h **** }
 3620              		.loc 2 100 5 is_stmt 1 view .LVU1130
 100:lvgl/lvgl/src/widgets/../core/lv_obj_style_gen.h **** }
 3621              		.loc 2 100 5 is_stmt 0 view .LVU1131
 3622              	.LBE109:
 3623              	.LBE108:
 443:lvgl/lvgl/src/widgets/lv_dropdown.c **** 
 3624              		.loc 1 443 83 view .LVU1132
 3625 0098 18FA80F5 		uxtah	r5, r8, r0
 3626              	.LVL363:
 445:lvgl/lvgl/src/widgets/lv_dropdown.c ****     lv_coord_t list_h = list_fit_h;
 3627              		.loc 1 445 5 is_stmt 1 view .LVU1133
 445:lvgl/lvgl/src/widgets/lv_dropdown.c ****     lv_coord_t list_h = list_fit_h;
 3628              		.loc 1 445 37 is_stmt 0 view .LVU1134
 3629 009c 4E44     		add	r6, r6, r9
 3630              	.LVL364:
 445:lvgl/lvgl/src/widgets/lv_dropdown.c ****     lv_coord_t list_h = list_fit_h;
 3631              		.loc 1 445 37 view .LVU1135
 3632 009e B6B2     		uxth	r6, r6
 445:lvgl/lvgl/src/widgets/lv_dropdown.c ****     lv_coord_t list_h = list_fit_h;
 3633              		.loc 1 445 43 view .LVU1136
 3634 00a0 16FA85F6 		uxtah	r6, r6, r5
 445:lvgl/lvgl/src/widgets/lv_dropdown.c ****     lv_coord_t list_h = list_fit_h;
 3635              		.loc 1 445 16 view .LVU1137
 3636 00a4 35B2     		sxth	r5, r6
 3637              	.LVL365:
 446:lvgl/lvgl/src/widgets/lv_dropdown.c **** 
 3638              		.loc 1 446 5 is_stmt 1 view .LVU1138
 448:lvgl/lvgl/src/widgets/lv_dropdown.c ****     /*No space on the bottom? See if top is better.*/
 3639              		.loc 1 448 5 view .LVU1139
 448:lvgl/lvgl/src/widgets/lv_dropdown.c ****     /*No space on the bottom? See if top is better.*/
 3640              		.loc 1 448 28 is_stmt 0 view .LVU1140
 3641 00a6 94F83C30 		ldrb	r3, [r4, #60]	@ zero_extendqisi2
 3642 00aa 03F00F06 		and	r6, r3, #15
 3643              	.LVL366:
 450:lvgl/lvgl/src/widgets/lv_dropdown.c ****         if(dropdown_obj->coords.y2 + list_h > LV_VER_RES) {
 3644              		.loc 1 450 5 is_stmt 1 view .LVU1141
 450:lvgl/lvgl/src/widgets/lv_dropdown.c ****         if(dropdown_obj->coords.y2 + list_h > LV_VER_RES) {
 3645              		.loc 1 450 7 is_stmt 0 view .LVU1142
 3646 00ae 082E     		cmp	r6, #8
 3647 00b0 54D0     		beq	.L209
 463:lvgl/lvgl/src/widgets/lv_dropdown.c ****         if(dropdown_obj->coords.y1 - list_h < 0) {
 3648              		.loc 1 463 10 is_stmt 1 view .LVU1143
 463:lvgl/lvgl/src/widgets/lv_dropdown.c ****         if(dropdown_obj->coords.y1 - list_h < 0) {
 3649              		.loc 1 463 12 is_stmt 0 view .LVU1144
 3650 00b2 042E     		cmp	r6, #4
 3651 00b4 78D0     		beq	.L210
 446:lvgl/lvgl/src/widgets/lv_dropdown.c **** 
 3652              		.loc 1 446 16 view .LVU1145
 3653 00b6 2B46     		mov	r3, r5
ARM GAS  C:\Users\gx\AppData\Local\Temp\ccIqfrB9.s 			page 111


 3654              	.LVL367:
 3655              	.L192:
 476:lvgl/lvgl/src/widgets/lv_dropdown.c ****     lv_obj_set_height(dropdown->list, list_h);
 3656              		.loc 1 476 5 is_stmt 1 view .LVU1146
 476:lvgl/lvgl/src/widgets/lv_dropdown.c ****     lv_obj_set_height(dropdown->list, list_h);
 3657              		.loc 1 476 7 is_stmt 0 view .LVU1147
 3658 00b8 AB42     		cmp	r3, r5
 3659 00ba 00DC     		bgt	.L195
 3660 00bc 1D46     		mov	r5, r3
 3661              	.LVL368:
 3662              	.L195:
 477:lvgl/lvgl/src/widgets/lv_dropdown.c **** 
 3663              		.loc 1 477 5 is_stmt 1 view .LVU1148
 3664 00be 2946     		mov	r1, r5
 3665 00c0 606A     		ldr	r0, [r4, #36]
 3666 00c2 FFF7FEFF 		bl	lv_obj_set_height
 3667              	.LVL369:
 479:lvgl/lvgl/src/widgets/lv_dropdown.c **** 
 3668              		.loc 1 479 5 view .LVU1149
 3669 00c6 2046     		mov	r0, r4
 3670 00c8 FFF7FEFF 		bl	position_to_selected
 3671              	.LVL370:
 481:lvgl/lvgl/src/widgets/lv_dropdown.c ****     else if(dir == LV_DIR_TOP)   lv_obj_align_to(dropdown->list, dropdown_obj, LV_ALIGN_OUT_TOP_LEF
 3672              		.loc 1 481 5 view .LVU1150
 481:lvgl/lvgl/src/widgets/lv_dropdown.c ****     else if(dir == LV_DIR_TOP)   lv_obj_align_to(dropdown->list, dropdown_obj, LV_ALIGN_OUT_TOP_LEF
 3673              		.loc 1 481 7 is_stmt 0 view .LVU1151
 3674 00cc 082E     		cmp	r6, #8
 3675 00ce 00F08980 		beq	.L211
 482:lvgl/lvgl/src/widgets/lv_dropdown.c ****     else if(dir == LV_DIR_LEFT)  lv_obj_align_to(dropdown->list, dropdown_obj, LV_ALIGN_OUT_LEFT_TO
 3676              		.loc 1 482 10 is_stmt 1 view .LVU1152
 482:lvgl/lvgl/src/widgets/lv_dropdown.c ****     else if(dir == LV_DIR_LEFT)  lv_obj_align_to(dropdown->list, dropdown_obj, LV_ALIGN_OUT_LEFT_TO
 3677              		.loc 1 482 12 is_stmt 0 view .LVU1153
 3678 00d2 042E     		cmp	r6, #4
 3679 00d4 00F08E80 		beq	.L212
 483:lvgl/lvgl/src/widgets/lv_dropdown.c ****     else if(dir == LV_DIR_RIGHT) lv_obj_align_to(dropdown->list, dropdown_obj, LV_ALIGN_OUT_RIGHT_T
 3680              		.loc 1 483 10 is_stmt 1 view .LVU1154
 483:lvgl/lvgl/src/widgets/lv_dropdown.c ****     else if(dir == LV_DIR_RIGHT) lv_obj_align_to(dropdown->list, dropdown_obj, LV_ALIGN_OUT_RIGHT_T
 3681              		.loc 1 483 12 is_stmt 0 view .LVU1155
 3682 00d8 012E     		cmp	r6, #1
 3683 00da 00F09380 		beq	.L213
 484:lvgl/lvgl/src/widgets/lv_dropdown.c **** 
 3684              		.loc 1 484 10 is_stmt 1 view .LVU1156
 484:lvgl/lvgl/src/widgets/lv_dropdown.c **** 
 3685              		.loc 1 484 12 is_stmt 0 view .LVU1157
 3686 00de 022E     		cmp	r6, #2
 3687 00e0 00F09880 		beq	.L214
 3688              	.L197:
 486:lvgl/lvgl/src/widgets/lv_dropdown.c **** 
 3689              		.loc 1 486 5 is_stmt 1 view .LVU1158
 3690 00e4 606A     		ldr	r0, [r4, #36]
 3691 00e6 FFF7FEFF 		bl	lv_obj_update_layout
 3692              	.LVL371:
 488:lvgl/lvgl/src/widgets/lv_dropdown.c ****         lv_coord_t y1 = lv_obj_get_y(dropdown->list);
 3693              		.loc 1 488 5 view .LVU1159
 488:lvgl/lvgl/src/widgets/lv_dropdown.c ****         lv_coord_t y1 = lv_obj_get_y(dropdown->list);
 3694              		.loc 1 488 22 is_stmt 0 view .LVU1160
 3695 00ea 94F83C30 		ldrb	r3, [r4, #60]	@ zero_extendqisi2
ARM GAS  C:\Users\gx\AppData\Local\Temp\ccIqfrB9.s 			page 112


 488:lvgl/lvgl/src/widgets/lv_dropdown.c ****         lv_coord_t y1 = lv_obj_get_y(dropdown->list);
 3696              		.loc 1 488 37 view .LVU1161
 3697 00ee 03F00F03 		and	r3, r3, #15
 3698 00f2 013B     		subs	r3, r3, #1
 3699 00f4 DBB2     		uxtb	r3, r3
 488:lvgl/lvgl/src/widgets/lv_dropdown.c ****         lv_coord_t y1 = lv_obj_get_y(dropdown->list);
 3700              		.loc 1 488 7 view .LVU1162
 3701 00f6 012B     		cmp	r3, #1
 3702 00f8 40F29480 		bls	.L215
 3703              	.LVL372:
 3704              	.L200:
 496:lvgl/lvgl/src/widgets/lv_dropdown.c **** 
 3705              		.loc 1 496 5 is_stmt 1 view .LVU1163
 496:lvgl/lvgl/src/widgets/lv_dropdown.c **** 
 3706              		.loc 1 496 29 is_stmt 0 view .LVU1164
 3707 00fc 226B     		ldr	r2, [r4, #48]
 3708 00fe 0021     		movs	r1, #0
 3709 0100 3846     		mov	r0, r7
 3710 0102 FFF7FEFF 		bl	lv_obj_calculate_style_text_align
 3711              	.LVL373:
 498:lvgl/lvgl/src/widgets/lv_dropdown.c ****     default:
 3712              		.loc 1 498 5 is_stmt 1 view .LVU1165
 3713 0106 0228     		cmp	r0, #2
 3714 0108 00F0B280 		beq	.L201
 3715 010c 0328     		cmp	r0, #3
 3716 010e 00F0A880 		beq	.L202
 501:lvgl/lvgl/src/widgets/lv_dropdown.c ****         break;
 3717              		.loc 1 501 9 view .LVU1166
 3718 0112 0023     		movs	r3, #0
 3719 0114 1A46     		mov	r2, r3
 3720 0116 0121     		movs	r1, #1
 3721 0118 3846     		mov	r0, r7
 3722              	.LVL374:
 501:lvgl/lvgl/src/widgets/lv_dropdown.c ****         break;
 3723              		.loc 1 501 9 is_stmt 0 view .LVU1167
 3724 011a FFF7FEFF 		bl	lv_obj_align
 3725              	.LVL375:
 502:lvgl/lvgl/src/widgets/lv_dropdown.c ****     case LV_TEXT_ALIGN_RIGHT:
 3726              		.loc 1 502 9 is_stmt 1 view .LVU1168
 3727              	.L187:
 511:lvgl/lvgl/src/widgets/lv_dropdown.c **** 
 3728              		.loc 1 511 1 is_stmt 0 view .LVU1169
 3729 011e 03B0     		add	sp, sp, #12
 3730              	.LCFI50:
 3731              		.cfi_remember_state
 3732              		.cfi_def_cfa_offset 28
 3733              		@ sp needed
 3734 0120 BDE8F083 		pop	{r4, r5, r6, r7, r8, r9, pc}
 3735              	.LVL376:
 3736              	.L208:
 3737              	.LCFI51:
 3738              		.cfi_restore_state
 3739              	.LBB110:
 418:lvgl/lvgl/src/widgets/lv_dropdown.c ****         ((lv_dropdown_list_t*) list_obj)->dropdown = dropdown_obj;
 3740              		.loc 1 418 9 is_stmt 1 view .LVU1170
 418:lvgl/lvgl/src/widgets/lv_dropdown.c ****         ((lv_dropdown_list_t*) list_obj)->dropdown = dropdown_obj;
 3741              		.loc 1 418 55 is_stmt 0 view .LVU1171
ARM GAS  C:\Users\gx\AppData\Local\Temp\ccIqfrB9.s 			page 113


 3742 0124 2046     		mov	r0, r4
 3743 0126 FFF7FEFF 		bl	lv_obj_get_screen
 3744              	.LVL377:
 418:lvgl/lvgl/src/widgets/lv_dropdown.c ****         ((lv_dropdown_list_t*) list_obj)->dropdown = dropdown_obj;
 3745              		.loc 1 418 31 view .LVU1172
 3746 012a FFF7FEFF 		bl	lv_dropdown_list_create
 3747              	.LVL378:
 419:lvgl/lvgl/src/widgets/lv_dropdown.c ****         dropdown->list = list_obj;
 3748              		.loc 1 419 9 is_stmt 1 view .LVU1173
 419:lvgl/lvgl/src/widgets/lv_dropdown.c ****         dropdown->list = list_obj;
 3749              		.loc 1 419 52 is_stmt 0 view .LVU1174
 3750 012e 4462     		str	r4, [r0, #36]
 420:lvgl/lvgl/src/widgets/lv_dropdown.c ****         lv_obj_clear_flag(dropdown->list, LV_OBJ_FLAG_CLICK_FOCUSABLE);
 3751              		.loc 1 420 9 is_stmt 1 view .LVU1175
 420:lvgl/lvgl/src/widgets/lv_dropdown.c ****         lv_obj_clear_flag(dropdown->list, LV_OBJ_FLAG_CLICK_FOCUSABLE);
 3752              		.loc 1 420 24 is_stmt 0 view .LVU1176
 3753 0130 6062     		str	r0, [r4, #36]
 421:lvgl/lvgl/src/widgets/lv_dropdown.c ****         lv_obj_add_flag(dropdown->list, LV_OBJ_FLAG_IGNORE_LAYOUT);
 3754              		.loc 1 421 9 is_stmt 1 view .LVU1177
 3755 0132 0421     		movs	r1, #4
 3756 0134 FFF7FEFF 		bl	lv_obj_clear_flag
 3757              	.LVL379:
 422:lvgl/lvgl/src/widgets/lv_dropdown.c ****         lv_obj_update_layout(dropdown->list);
 3758              		.loc 1 422 9 view .LVU1178
 3759 0138 4FF40041 		mov	r1, #32768
 3760 013c 606A     		ldr	r0, [r4, #36]
 3761 013e FFF7FEFF 		bl	lv_obj_add_flag
 3762              	.LVL380:
 423:lvgl/lvgl/src/widgets/lv_dropdown.c ****     }
 3763              		.loc 1 423 9 view .LVU1179
 3764 0142 606A     		ldr	r0, [r4, #36]
 3765 0144 FFF7FEFF 		bl	lv_obj_update_layout
 3766              	.LVL381:
 3767 0148 65E7     		b	.L188
 3768              	.LVL382:
 3769              	.L190:
 423:lvgl/lvgl/src/widgets/lv_dropdown.c ****     }
 3770              		.loc 1 423 9 is_stmt 0 view .LVU1180
 3771              	.LBE110:
 437:lvgl/lvgl/src/widgets/lv_dropdown.c ****     }
 3772              		.loc 1 437 9 is_stmt 1 view .LVU1181
 437:lvgl/lvgl/src/widgets/lv_dropdown.c ****     }
 3773              		.loc 1 437 34 is_stmt 0 view .LVU1182
 3774 014a 656A     		ldr	r5, [r4, #36]
 437:lvgl/lvgl/src/widgets/lv_dropdown.c ****     }
 3775              		.loc 1 437 9 view .LVU1183
 3776 014c 2046     		mov	r0, r4
 3777 014e FFF7FEFF 		bl	lv_obj_get_width
 3778              	.LVL383:
 3779 0152 0146     		mov	r1, r0
 3780 0154 2846     		mov	r0, r5
 3781 0156 FFF7FEFF 		bl	lv_obj_set_width
 3782              	.LVL384:
 3783 015a 81E7     		b	.L189
 3784              	.LVL385:
 3785              	.L209:
 451:lvgl/lvgl/src/widgets/lv_dropdown.c ****             if(dropdown_obj->coords.y1 > LV_VER_RES - dropdown_obj->coords.y2) {
ARM GAS  C:\Users\gx\AppData\Local\Temp\ccIqfrB9.s 			page 114


 3786              		.loc 1 451 9 is_stmt 1 view .LVU1184
 451:lvgl/lvgl/src/widgets/lv_dropdown.c ****             if(dropdown_obj->coords.y1 > LV_VER_RES - dropdown_obj->coords.y2) {
 3787              		.loc 1 451 32 is_stmt 0 view .LVU1185
 3788 015c B4F91A80 		ldrsh	r8, [r4, #26]
 3789              	.LVL386:
 451:lvgl/lvgl/src/widgets/lv_dropdown.c ****             if(dropdown_obj->coords.y1 > LV_VER_RES - dropdown_obj->coords.y2) {
 3790              		.loc 1 451 36 view .LVU1186
 3791 0160 A844     		add	r8, r8, r5
 451:lvgl/lvgl/src/widgets/lv_dropdown.c ****             if(dropdown_obj->coords.y1 > LV_VER_RES - dropdown_obj->coords.y2) {
 3792              		.loc 1 451 47 view .LVU1187
 3793 0162 FFF7FEFF 		bl	lv_disp_get_default
 3794              	.LVL387:
 451:lvgl/lvgl/src/widgets/lv_dropdown.c ****             if(dropdown_obj->coords.y1 > LV_VER_RES - dropdown_obj->coords.y2) {
 3795              		.loc 1 451 47 view .LVU1188
 3796 0166 FFF7FEFF 		bl	lv_disp_get_ver_res
 3797              	.LVL388:
 451:lvgl/lvgl/src/widgets/lv_dropdown.c ****             if(dropdown_obj->coords.y1 > LV_VER_RES - dropdown_obj->coords.y2) {
 3798              		.loc 1 451 11 view .LVU1189
 3799 016a 8045     		cmp	r8, r0
 3800 016c 01DC     		bgt	.L216
 446:lvgl/lvgl/src/widgets/lv_dropdown.c **** 
 3801              		.loc 1 446 16 view .LVU1190
 3802 016e 2B46     		mov	r3, r5
 3803 0170 A2E7     		b	.L192
 3804              	.L216:
 452:lvgl/lvgl/src/widgets/lv_dropdown.c ****                 /*There is more space on the top, so make it drop up*/
 3805              		.loc 1 452 13 is_stmt 1 view .LVU1191
 452:lvgl/lvgl/src/widgets/lv_dropdown.c ****                 /*There is more space on the top, so make it drop up*/
 3806              		.loc 1 452 36 is_stmt 0 view .LVU1192
 3807 0172 B4F91680 		ldrsh	r8, [r4, #22]
 452:lvgl/lvgl/src/widgets/lv_dropdown.c ****                 /*There is more space on the top, so make it drop up*/
 3808              		.loc 1 452 42 view .LVU1193
 3809 0176 FFF7FEFF 		bl	lv_disp_get_default
 3810              	.LVL389:
 3811 017a FFF7FEFF 		bl	lv_disp_get_ver_res
 3812              	.LVL390:
 452:lvgl/lvgl/src/widgets/lv_dropdown.c ****                 /*There is more space on the top, so make it drop up*/
 3813              		.loc 1 452 75 view .LVU1194
 3814 017e B4F91A30 		ldrsh	r3, [r4, #26]
 452:lvgl/lvgl/src/widgets/lv_dropdown.c ****                 /*There is more space on the top, so make it drop up*/
 3815              		.loc 1 452 53 view .LVU1195
 3816 0182 C01A     		subs	r0, r0, r3
 452:lvgl/lvgl/src/widgets/lv_dropdown.c ****                 /*There is more space on the top, so make it drop up*/
 3817              		.loc 1 452 15 view .LVU1196
 3818 0184 8045     		cmp	r8, r0
 3819 0186 04DD     		ble	.L193
 454:lvgl/lvgl/src/widgets/lv_dropdown.c ****                 list_h = dropdown_obj->coords.y1 - 1;
 3820              		.loc 1 454 17 is_stmt 1 view .LVU1197
 3821              	.LVL391:
 455:lvgl/lvgl/src/widgets/lv_dropdown.c ****             }
 3822              		.loc 1 455 17 view .LVU1198
 455:lvgl/lvgl/src/widgets/lv_dropdown.c ****             }
 3823              		.loc 1 455 46 is_stmt 0 view .LVU1199
 3824 0188 E38A     		ldrh	r3, [r4, #22]
 455:lvgl/lvgl/src/widgets/lv_dropdown.c ****             }
 3825              		.loc 1 455 50 view .LVU1200
 3826 018a 013B     		subs	r3, r3, #1
ARM GAS  C:\Users\gx\AppData\Local\Temp\ccIqfrB9.s 			page 115


 455:lvgl/lvgl/src/widgets/lv_dropdown.c ****             }
 3827              		.loc 1 455 24 view .LVU1201
 3828 018c 1BB2     		sxth	r3, r3
 3829              	.LVL392:
 454:lvgl/lvgl/src/widgets/lv_dropdown.c ****                 list_h = dropdown_obj->coords.y1 - 1;
 3830              		.loc 1 454 21 view .LVU1202
 3831 018e 0426     		movs	r6, #4
 3832 0190 92E7     		b	.L192
 3833              	.LVL393:
 3834              	.L193:
 458:lvgl/lvgl/src/widgets/lv_dropdown.c ****             }
 3835              		.loc 1 458 17 is_stmt 1 view .LVU1203
 458:lvgl/lvgl/src/widgets/lv_dropdown.c ****             }
 3836              		.loc 1 458 26 is_stmt 0 view .LVU1204
 3837 0192 FFF7FEFF 		bl	lv_disp_get_default
 3838              	.LVL394:
 3839 0196 FFF7FEFF 		bl	lv_disp_get_ver_res
 3840              	.LVL395:
 3841 019a 83B2     		uxth	r3, r0
 458:lvgl/lvgl/src/widgets/lv_dropdown.c ****             }
 3842              		.loc 1 458 59 view .LVU1205
 3843 019c 628B     		ldrh	r2, [r4, #26]
 458:lvgl/lvgl/src/widgets/lv_dropdown.c ****             }
 3844              		.loc 1 458 37 view .LVU1206
 3845 019e 9B1A     		subs	r3, r3, r2
 3846 01a0 9BB2     		uxth	r3, r3
 458:lvgl/lvgl/src/widgets/lv_dropdown.c ****             }
 3847              		.loc 1 458 63 view .LVU1207
 3848 01a2 013B     		subs	r3, r3, #1
 458:lvgl/lvgl/src/widgets/lv_dropdown.c ****             }
 3849              		.loc 1 458 24 view .LVU1208
 3850 01a4 1BB2     		sxth	r3, r3
 3851              	.LVL396:
 458:lvgl/lvgl/src/widgets/lv_dropdown.c ****             }
 3852              		.loc 1 458 24 view .LVU1209
 3853 01a6 87E7     		b	.L192
 3854              	.LVL397:
 3855              	.L210:
 464:lvgl/lvgl/src/widgets/lv_dropdown.c ****             if(dropdown_obj->coords.y1 < LV_VER_RES - dropdown_obj->coords.y2) {
 3856              		.loc 1 464 9 is_stmt 1 view .LVU1210
 464:lvgl/lvgl/src/widgets/lv_dropdown.c ****             if(dropdown_obj->coords.y1 < LV_VER_RES - dropdown_obj->coords.y2) {
 3857              		.loc 1 464 32 is_stmt 0 view .LVU1211
 3858 01a8 B4F91680 		ldrsh	r8, [r4, #22]
 3859              	.LVL398:
 464:lvgl/lvgl/src/widgets/lv_dropdown.c ****             if(dropdown_obj->coords.y1 < LV_VER_RES - dropdown_obj->coords.y2) {
 3860              		.loc 1 464 36 view .LVU1212
 3861 01ac A8EB0503 		sub	r3, r8, r5
 3862              	.LVL399:
 464:lvgl/lvgl/src/widgets/lv_dropdown.c ****             if(dropdown_obj->coords.y1 < LV_VER_RES - dropdown_obj->coords.y2) {
 3863              		.loc 1 464 11 view .LVU1213
 3864 01b0 002B     		cmp	r3, #0
 3865 01b2 01DB     		blt	.L217
 446:lvgl/lvgl/src/widgets/lv_dropdown.c **** 
 3866              		.loc 1 446 16 view .LVU1214
 3867 01b4 2B46     		mov	r3, r5
 3868 01b6 7FE7     		b	.L192
 3869              	.L217:
ARM GAS  C:\Users\gx\AppData\Local\Temp\ccIqfrB9.s 			page 116


 465:lvgl/lvgl/src/widgets/lv_dropdown.c ****                 /*There is more space on the top, so make it drop up*/
 3870              		.loc 1 465 13 is_stmt 1 view .LVU1215
 465:lvgl/lvgl/src/widgets/lv_dropdown.c ****                 /*There is more space on the top, so make it drop up*/
 3871              		.loc 1 465 42 is_stmt 0 view .LVU1216
 3872 01b8 FFF7FEFF 		bl	lv_disp_get_default
 3873              	.LVL400:
 465:lvgl/lvgl/src/widgets/lv_dropdown.c ****                 /*There is more space on the top, so make it drop up*/
 3874              		.loc 1 465 42 view .LVU1217
 3875 01bc FFF7FEFF 		bl	lv_disp_get_ver_res
 3876              	.LVL401:
 465:lvgl/lvgl/src/widgets/lv_dropdown.c ****                 /*There is more space on the top, so make it drop up*/
 3877              		.loc 1 465 75 view .LVU1218
 3878 01c0 B4F91A30 		ldrsh	r3, [r4, #26]
 465:lvgl/lvgl/src/widgets/lv_dropdown.c ****                 /*There is more space on the top, so make it drop up*/
 3879              		.loc 1 465 53 view .LVU1219
 3880 01c4 C01A     		subs	r0, r0, r3
 465:lvgl/lvgl/src/widgets/lv_dropdown.c ****                 /*There is more space on the top, so make it drop up*/
 3881              		.loc 1 465 15 view .LVU1220
 3882 01c6 8045     		cmp	r8, r0
 3883 01c8 02DB     		blt	.L218
 471:lvgl/lvgl/src/widgets/lv_dropdown.c ****             }
 3884              		.loc 1 471 17 is_stmt 1 view .LVU1221
 471:lvgl/lvgl/src/widgets/lv_dropdown.c ****             }
 3885              		.loc 1 471 24 is_stmt 0 view .LVU1222
 3886 01ca B4F91630 		ldrsh	r3, [r4, #22]
 3887              	.LVL402:
 471:lvgl/lvgl/src/widgets/lv_dropdown.c ****             }
 3888              		.loc 1 471 24 view .LVU1223
 3889 01ce 73E7     		b	.L192
 3890              	.LVL403:
 3891              	.L218:
 467:lvgl/lvgl/src/widgets/lv_dropdown.c ****                 list_h = LV_VER_RES - dropdown_obj->coords.y2;
 3892              		.loc 1 467 17 is_stmt 1 view .LVU1224
 468:lvgl/lvgl/src/widgets/lv_dropdown.c ****             }
 3893              		.loc 1 468 17 view .LVU1225
 468:lvgl/lvgl/src/widgets/lv_dropdown.c ****             }
 3894              		.loc 1 468 26 is_stmt 0 view .LVU1226
 3895 01d0 FFF7FEFF 		bl	lv_disp_get_default
 3896              	.LVL404:
 3897 01d4 FFF7FEFF 		bl	lv_disp_get_ver_res
 3898              	.LVL405:
 3899 01d8 83B2     		uxth	r3, r0
 468:lvgl/lvgl/src/widgets/lv_dropdown.c ****             }
 3900              		.loc 1 468 59 view .LVU1227
 3901 01da 628B     		ldrh	r2, [r4, #26]
 468:lvgl/lvgl/src/widgets/lv_dropdown.c ****             }
 3902              		.loc 1 468 37 view .LVU1228
 3903 01dc 9B1A     		subs	r3, r3, r2
 468:lvgl/lvgl/src/widgets/lv_dropdown.c ****             }
 3904              		.loc 1 468 24 view .LVU1229
 3905 01de 1BB2     		sxth	r3, r3
 3906              	.LVL406:
 467:lvgl/lvgl/src/widgets/lv_dropdown.c ****                 list_h = LV_VER_RES - dropdown_obj->coords.y2;
 3907              		.loc 1 467 21 view .LVU1230
 3908 01e0 0826     		movs	r6, #8
 3909 01e2 69E7     		b	.L192
 3910              	.LVL407:
ARM GAS  C:\Users\gx\AppData\Local\Temp\ccIqfrB9.s 			page 117


 3911              	.L211:
 481:lvgl/lvgl/src/widgets/lv_dropdown.c ****     else if(dir == LV_DIR_TOP)   lv_obj_align_to(dropdown->list, dropdown_obj, LV_ALIGN_OUT_TOP_LEF
 3912              		.loc 1 481 34 is_stmt 1 discriminator 1 view .LVU1231
 3913 01e4 0023     		movs	r3, #0
 3914 01e6 0093     		str	r3, [sp]
 3915 01e8 0D22     		movs	r2, #13
 3916 01ea 2146     		mov	r1, r4
 3917 01ec 606A     		ldr	r0, [r4, #36]
 3918 01ee FFF7FEFF 		bl	lv_obj_align_to
 3919              	.LVL408:
 3920 01f2 77E7     		b	.L197
 3921              	.L212:
 482:lvgl/lvgl/src/widgets/lv_dropdown.c ****     else if(dir == LV_DIR_LEFT)  lv_obj_align_to(dropdown->list, dropdown_obj, LV_ALIGN_OUT_LEFT_TO
 3922              		.loc 1 482 34 discriminator 1 view .LVU1232
 3923 01f4 0023     		movs	r3, #0
 3924 01f6 0093     		str	r3, [sp]
 3925 01f8 0A22     		movs	r2, #10
 3926 01fa 2146     		mov	r1, r4
 3927 01fc 606A     		ldr	r0, [r4, #36]
 3928 01fe FFF7FEFF 		bl	lv_obj_align_to
 3929              	.LVL409:
 3930 0202 6FE7     		b	.L197
 3931              	.L213:
 483:lvgl/lvgl/src/widgets/lv_dropdown.c ****     else if(dir == LV_DIR_RIGHT) lv_obj_align_to(dropdown->list, dropdown_obj, LV_ALIGN_OUT_RIGHT_T
 3932              		.loc 1 483 34 discriminator 1 view .LVU1233
 3933 0204 0023     		movs	r3, #0
 3934 0206 0093     		str	r3, [sp]
 3935 0208 1022     		movs	r2, #16
 3936 020a 2146     		mov	r1, r4
 3937 020c 606A     		ldr	r0, [r4, #36]
 3938 020e FFF7FEFF 		bl	lv_obj_align_to
 3939              	.LVL410:
 3940 0212 67E7     		b	.L197
 3941              	.L214:
 484:lvgl/lvgl/src/widgets/lv_dropdown.c **** 
 3942              		.loc 1 484 34 discriminator 1 view .LVU1234
 3943 0214 0023     		movs	r3, #0
 3944 0216 0093     		str	r3, [sp]
 3945 0218 1322     		movs	r2, #19
 3946 021a 2146     		mov	r1, r4
 3947 021c 606A     		ldr	r0, [r4, #36]
 3948 021e FFF7FEFF 		bl	lv_obj_align_to
 3949              	.LVL411:
 3950 0222 5FE7     		b	.L197
 3951              	.L215:
 3952              	.LBB111:
 489:lvgl/lvgl/src/widgets/lv_dropdown.c ****         lv_coord_t y2 = lv_obj_get_y2(dropdown->list);
 3953              		.loc 1 489 9 view .LVU1235
 489:lvgl/lvgl/src/widgets/lv_dropdown.c ****         lv_coord_t y2 = lv_obj_get_y2(dropdown->list);
 3954              		.loc 1 489 25 is_stmt 0 view .LVU1236
 3955 0224 606A     		ldr	r0, [r4, #36]
 3956 0226 FFF7FEFF 		bl	lv_obj_get_y
 3957              	.LVL412:
 3958 022a 8046     		mov	r8, r0
 3959              	.LVL413:
 490:lvgl/lvgl/src/widgets/lv_dropdown.c ****         if(y2 >= LV_VER_RES) {
 3960              		.loc 1 490 9 is_stmt 1 view .LVU1237
ARM GAS  C:\Users\gx\AppData\Local\Temp\ccIqfrB9.s 			page 118


 490:lvgl/lvgl/src/widgets/lv_dropdown.c ****         if(y2 >= LV_VER_RES) {
 3961              		.loc 1 490 25 is_stmt 0 view .LVU1238
 3962 022c 606A     		ldr	r0, [r4, #36]
 3963 022e FFF7FEFF 		bl	lv_obj_get_y2
 3964              	.LVL414:
 3965 0232 0546     		mov	r5, r0
 3966              	.LVL415:
 491:lvgl/lvgl/src/widgets/lv_dropdown.c ****             lv_obj_set_y(dropdown->list, y1 - (y2 - LV_VER_RES) - 1);
 3967              		.loc 1 491 9 is_stmt 1 view .LVU1239
 491:lvgl/lvgl/src/widgets/lv_dropdown.c ****             lv_obj_set_y(dropdown->list, y1 - (y2 - LV_VER_RES) - 1);
 3968              		.loc 1 491 18 is_stmt 0 view .LVU1240
 3969 0234 FFF7FEFF 		bl	lv_disp_get_default
 3970              	.LVL416:
 3971 0238 FFF7FEFF 		bl	lv_disp_get_ver_res
 3972              	.LVL417:
 491:lvgl/lvgl/src/widgets/lv_dropdown.c ****             lv_obj_set_y(dropdown->list, y1 - (y2 - LV_VER_RES) - 1);
 3973              		.loc 1 491 11 view .LVU1241
 3974 023c A842     		cmp	r0, r5
 3975 023e 3FF75DAF 		bgt	.L200
 492:lvgl/lvgl/src/widgets/lv_dropdown.c ****         }
 3976              		.loc 1 492 13 is_stmt 1 view .LVU1242
 492:lvgl/lvgl/src/widgets/lv_dropdown.c ****         }
 3977              		.loc 1 492 34 is_stmt 0 view .LVU1243
 3978 0242 666A     		ldr	r6, [r4, #36]
 3979              	.LVL418:
 492:lvgl/lvgl/src/widgets/lv_dropdown.c ****         }
 3980              		.loc 1 492 53 view .LVU1244
 3981 0244 FFF7FEFF 		bl	lv_disp_get_default
 3982              	.LVL419:
 3983 0248 FFF7FEFF 		bl	lv_disp_get_ver_res
 3984              	.LVL420:
 3985 024c 83B2     		uxth	r3, r0
 492:lvgl/lvgl/src/widgets/lv_dropdown.c ****         }
 3986              		.loc 1 492 51 view .LVU1245
 3987 024e 5D1B     		subs	r5, r3, r5
 3988              	.LVL421:
 492:lvgl/lvgl/src/widgets/lv_dropdown.c ****         }
 3989              		.loc 1 492 45 view .LVU1246
 3990 0250 18FA85F1 		uxtah	r1, r8, r5
 3991 0254 89B2     		uxth	r1, r1
 492:lvgl/lvgl/src/widgets/lv_dropdown.c ****         }
 3992              		.loc 1 492 65 view .LVU1247
 3993 0256 0139     		subs	r1, r1, #1
 492:lvgl/lvgl/src/widgets/lv_dropdown.c ****         }
 3994              		.loc 1 492 13 view .LVU1248
 3995 0258 09B2     		sxth	r1, r1
 3996 025a 3046     		mov	r0, r6
 3997 025c FFF7FEFF 		bl	lv_obj_set_y
 3998              	.LVL422:
 3999 0260 4CE7     		b	.L200
 4000              	.LVL423:
 4001              	.L202:
 492:lvgl/lvgl/src/widgets/lv_dropdown.c ****         }
 4002              		.loc 1 492 13 view .LVU1249
 4003              	.LBE111:
 504:lvgl/lvgl/src/widgets/lv_dropdown.c ****         break;
 4004              		.loc 1 504 9 is_stmt 1 view .LVU1250
ARM GAS  C:\Users\gx\AppData\Local\Temp\ccIqfrB9.s 			page 119


 4005 0262 0023     		movs	r3, #0
 4006 0264 1A46     		mov	r2, r3
 4007 0266 0321     		movs	r1, #3
 4008 0268 3846     		mov	r0, r7
 4009              	.LVL424:
 504:lvgl/lvgl/src/widgets/lv_dropdown.c ****         break;
 4010              		.loc 1 504 9 is_stmt 0 view .LVU1251
 4011 026a FFF7FEFF 		bl	lv_obj_align
 4012              	.LVL425:
 505:lvgl/lvgl/src/widgets/lv_dropdown.c ****     case LV_TEXT_ALIGN_CENTER:
 4013              		.loc 1 505 9 is_stmt 1 view .LVU1252
 4014 026e 56E7     		b	.L187
 4015              	.LVL426:
 4016              	.L201:
 507:lvgl/lvgl/src/widgets/lv_dropdown.c ****         break;
 4017              		.loc 1 507 9 view .LVU1253
 4018 0270 0023     		movs	r3, #0
 4019 0272 1A46     		mov	r2, r3
 4020 0274 0921     		movs	r1, #9
 4021 0276 3846     		mov	r0, r7
 4022              	.LVL427:
 507:lvgl/lvgl/src/widgets/lv_dropdown.c ****         break;
 4023              		.loc 1 507 9 is_stmt 0 view .LVU1254
 4024 0278 FFF7FEFF 		bl	lv_obj_align
 4025              	.LVL428:
 508:lvgl/lvgl/src/widgets/lv_dropdown.c **** 
 4026              		.loc 1 508 9 is_stmt 1 view .LVU1255
 511:lvgl/lvgl/src/widgets/lv_dropdown.c **** 
 4027              		.loc 1 511 1 is_stmt 0 view .LVU1256
 4028 027c 4FE7     		b	.L187
 4029              		.cfi_endproc
 4030              	.LFE177:
 4032              		.section	.text.lv_dropdown_close,"ax",%progbits
 4033              		.align	1
 4034              		.global	lv_dropdown_close
 4035              		.syntax unified
 4036              		.thumb
 4037              		.thumb_func
 4038              		.fpu fpv4-sp-d16
 4040              	lv_dropdown_close:
 4041              	.LVL429:
 4042              	.LFB178:
 514:lvgl/lvgl/src/widgets/lv_dropdown.c ****     lv_obj_clear_state(obj, LV_STATE_CHECKED);
 4043              		.loc 1 514 1 is_stmt 1 view -0
 4044              		.cfi_startproc
 4045              		@ args = 0, pretend = 0, frame = 0
 4046              		@ frame_needed = 0, uses_anonymous_args = 0
 514:lvgl/lvgl/src/widgets/lv_dropdown.c ****     lv_obj_clear_state(obj, LV_STATE_CHECKED);
 4047              		.loc 1 514 1 is_stmt 0 view .LVU1258
 4048 0000 10B5     		push	{r4, lr}
 4049              	.LCFI52:
 4050              		.cfi_def_cfa_offset 8
 4051              		.cfi_offset 4, -8
 4052              		.cfi_offset 14, -4
 4053 0002 0446     		mov	r4, r0
 515:lvgl/lvgl/src/widgets/lv_dropdown.c ****     lv_dropdown_t * dropdown = (lv_dropdown_t *)obj;
 4054              		.loc 1 515 5 is_stmt 1 view .LVU1259
ARM GAS  C:\Users\gx\AppData\Local\Temp\ccIqfrB9.s 			page 120


 4055 0004 0121     		movs	r1, #1
 4056 0006 FFF7FEFF 		bl	lv_obj_clear_state
 4057              	.LVL430:
 516:lvgl/lvgl/src/widgets/lv_dropdown.c **** 
 4058              		.loc 1 516 5 view .LVU1260
 518:lvgl/lvgl/src/widgets/lv_dropdown.c ****     if(dropdown->list) lv_obj_del(dropdown->list);
 4059              		.loc 1 518 5 view .LVU1261
 518:lvgl/lvgl/src/widgets/lv_dropdown.c ****     if(dropdown->list) lv_obj_del(dropdown->list);
 4060              		.loc 1 518 25 is_stmt 0 view .LVU1262
 4061 000a 4FF6FF73 		movw	r3, #65535
 4062 000e 6387     		strh	r3, [r4, #58]	@ movhi
 519:lvgl/lvgl/src/widgets/lv_dropdown.c **** 
 4063              		.loc 1 519 5 is_stmt 1 view .LVU1263
 519:lvgl/lvgl/src/widgets/lv_dropdown.c **** 
 4064              		.loc 1 519 16 is_stmt 0 view .LVU1264
 4065 0010 606A     		ldr	r0, [r4, #36]
 519:lvgl/lvgl/src/widgets/lv_dropdown.c **** 
 4066              		.loc 1 519 7 view .LVU1265
 4067 0012 08B1     		cbz	r0, .L220
 519:lvgl/lvgl/src/widgets/lv_dropdown.c **** 
 4068              		.loc 1 519 24 is_stmt 1 discriminator 1 view .LVU1266
 4069 0014 FFF7FEFF 		bl	lv_obj_del
 4070              	.LVL431:
 4071              	.L220:
 521:lvgl/lvgl/src/widgets/lv_dropdown.c **** }
 4072              		.loc 1 521 5 view .LVU1267
 4073 0018 0022     		movs	r2, #0
 4074 001a 2021     		movs	r1, #32
 4075 001c 2046     		mov	r0, r4
 4076 001e FFF7FEFF 		bl	lv_event_send
 4077              	.LVL432:
 522:lvgl/lvgl/src/widgets/lv_dropdown.c **** 
 4078              		.loc 1 522 1 is_stmt 0 view .LVU1268
 4079 0022 10BD     		pop	{r4, pc}
 522:lvgl/lvgl/src/widgets/lv_dropdown.c **** 
 4080              		.loc 1 522 1 view .LVU1269
 4081              		.cfi_endproc
 4082              	.LFE178:
 4084              		.section	.text.btn_release_handler,"ax",%progbits
 4085              		.align	1
 4086              		.syntax unified
 4087              		.thumb
 4088              		.thumb_func
 4089              		.fpu fpv4-sp-d16
 4091              	btn_release_handler:
 4092              	.LVL433:
 4093              	.LFB190:
 947:lvgl/lvgl/src/widgets/lv_dropdown.c ****     lv_dropdown_t * dropdown = (lv_dropdown_t *)obj;
 4094              		.loc 1 947 1 is_stmt 1 view -0
 4095              		.cfi_startproc
 4096              		@ args = 0, pretend = 0, frame = 8
 4097              		@ frame_needed = 0, uses_anonymous_args = 0
 947:lvgl/lvgl/src/widgets/lv_dropdown.c ****     lv_dropdown_t * dropdown = (lv_dropdown_t *)obj;
 4098              		.loc 1 947 1 is_stmt 0 view .LVU1271
 4099 0000 30B5     		push	{r4, r5, lr}
 4100              	.LCFI53:
 4101              		.cfi_def_cfa_offset 12
ARM GAS  C:\Users\gx\AppData\Local\Temp\ccIqfrB9.s 			page 121


 4102              		.cfi_offset 4, -12
 4103              		.cfi_offset 5, -8
 4104              		.cfi_offset 14, -4
 4105 0002 83B0     		sub	sp, sp, #12
 4106              	.LCFI54:
 4107              		.cfi_def_cfa_offset 24
 4108 0004 0446     		mov	r4, r0
 948:lvgl/lvgl/src/widgets/lv_dropdown.c ****     lv_indev_t * indev = lv_indev_get_act();
 4109              		.loc 1 948 5 is_stmt 1 view .LVU1272
 4110              	.LVL434:
 949:lvgl/lvgl/src/widgets/lv_dropdown.c ****     if(lv_indev_get_scroll_obj(indev) == NULL) {
 4111              		.loc 1 949 5 view .LVU1273
 949:lvgl/lvgl/src/widgets/lv_dropdown.c ****     if(lv_indev_get_scroll_obj(indev) == NULL) {
 4112              		.loc 1 949 26 is_stmt 0 view .LVU1274
 4113 0006 FFF7FEFF 		bl	lv_indev_get_act
 4114              	.LVL435:
 949:lvgl/lvgl/src/widgets/lv_dropdown.c ****     if(lv_indev_get_scroll_obj(indev) == NULL) {
 4115              		.loc 1 949 26 view .LVU1275
 4116 000a 0546     		mov	r5, r0
 4117              	.LVL436:
 950:lvgl/lvgl/src/widgets/lv_dropdown.c ****         if(dropdown->list) {
 4118              		.loc 1 950 5 is_stmt 1 view .LVU1276
 950:lvgl/lvgl/src/widgets/lv_dropdown.c ****         if(dropdown->list) {
 4119              		.loc 1 950 8 is_stmt 0 view .LVU1277
 4120 000c FFF7FEFF 		bl	lv_indev_get_scroll_obj
 4121              	.LVL437:
 950:lvgl/lvgl/src/widgets/lv_dropdown.c ****         if(dropdown->list) {
 4122              		.loc 1 950 7 view .LVU1278
 4123 0010 38B1     		cbz	r0, .L230
 971:lvgl/lvgl/src/widgets/lv_dropdown.c ****         lv_obj_invalidate(obj);
 4124              		.loc 1 971 9 is_stmt 1 view .LVU1279
 971:lvgl/lvgl/src/widgets/lv_dropdown.c ****         lv_obj_invalidate(obj);
 4125              		.loc 1 971 40 is_stmt 0 view .LVU1280
 4126 0012 238F     		ldrh	r3, [r4, #56]
 971:lvgl/lvgl/src/widgets/lv_dropdown.c ****         lv_obj_invalidate(obj);
 4127              		.loc 1 971 30 view .LVU1281
 4128 0014 E386     		strh	r3, [r4, #54]	@ movhi
 972:lvgl/lvgl/src/widgets/lv_dropdown.c ****     }
 4129              		.loc 1 972 9 is_stmt 1 view .LVU1282
 4130 0016 2046     		mov	r0, r4
 4131 0018 FFF7FEFF 		bl	lv_obj_invalidate
 4132              	.LVL438:
 974:lvgl/lvgl/src/widgets/lv_dropdown.c **** }
 4133              		.loc 1 974 12 is_stmt 0 view .LVU1283
 4134 001c 0120     		movs	r0, #1
 4135              	.L227:
 975:lvgl/lvgl/src/widgets/lv_dropdown.c **** 
 4136              		.loc 1 975 1 view .LVU1284
 4137 001e 03B0     		add	sp, sp, #12
 4138              	.LCFI55:
 4139              		.cfi_remember_state
 4140              		.cfi_def_cfa_offset 12
 4141              		@ sp needed
 4142 0020 30BD     		pop	{r4, r5, pc}
 4143              	.LVL439:
 4144              	.L230:
 4145              	.LCFI56:
ARM GAS  C:\Users\gx\AppData\Local\Temp\ccIqfrB9.s 			page 122


 4146              		.cfi_restore_state
 951:lvgl/lvgl/src/widgets/lv_dropdown.c ****             lv_dropdown_close(obj);
 4147              		.loc 1 951 9 is_stmt 1 view .LVU1285
 951:lvgl/lvgl/src/widgets/lv_dropdown.c ****             lv_dropdown_close(obj);
 4148              		.loc 1 951 20 is_stmt 0 view .LVU1286
 4149 0022 636A     		ldr	r3, [r4, #36]
 951:lvgl/lvgl/src/widgets/lv_dropdown.c ****             lv_dropdown_close(obj);
 4150              		.loc 1 951 11 view .LVU1287
 4151 0024 0BB3     		cbz	r3, .L224
 4152              	.LBB112:
 952:lvgl/lvgl/src/widgets/lv_dropdown.c ****             if(dropdown->sel_opt_id_orig != dropdown->sel_opt_id) {
 4153              		.loc 1 952 13 is_stmt 1 view .LVU1288
 4154 0026 2046     		mov	r0, r4
 4155 0028 FFF7FEFF 		bl	lv_dropdown_close
 4156              	.LVL440:
 953:lvgl/lvgl/src/widgets/lv_dropdown.c ****                 dropdown->sel_opt_id_orig = dropdown->sel_opt_id;
 4157              		.loc 1 953 13 view .LVU1289
 953:lvgl/lvgl/src/widgets/lv_dropdown.c ****                 dropdown->sel_opt_id_orig = dropdown->sel_opt_id;
 4158              		.loc 1 953 24 is_stmt 0 view .LVU1290
 4159 002c 228F     		ldrh	r2, [r4, #56]
 953:lvgl/lvgl/src/widgets/lv_dropdown.c ****                 dropdown->sel_opt_id_orig = dropdown->sel_opt_id;
 4160              		.loc 1 953 53 view .LVU1291
 4161 002e E38E     		ldrh	r3, [r4, #54]
 953:lvgl/lvgl/src/widgets/lv_dropdown.c ****                 dropdown->sel_opt_id_orig = dropdown->sel_opt_id;
 4162              		.loc 1 953 15 view .LVU1292
 4163 0030 9A42     		cmp	r2, r3
 4164 0032 0BD0     		beq	.L225
 4165              	.LBB113:
 954:lvgl/lvgl/src/widgets/lv_dropdown.c ****                 lv_res_t res;
 4166              		.loc 1 954 17 is_stmt 1 view .LVU1293
 954:lvgl/lvgl/src/widgets/lv_dropdown.c ****                 lv_res_t res;
 4167              		.loc 1 954 43 is_stmt 0 view .LVU1294
 4168 0034 2387     		strh	r3, [r4, #56]	@ movhi
 955:lvgl/lvgl/src/widgets/lv_dropdown.c ****                 uint32_t id  = dropdown->sel_opt_id; /*Just to use uint32_t in event data*/
 4169              		.loc 1 955 17 is_stmt 1 view .LVU1295
 956:lvgl/lvgl/src/widgets/lv_dropdown.c ****                 res = lv_event_send(obj, LV_EVENT_VALUE_CHANGED, &id);
 4170              		.loc 1 956 17 view .LVU1296
 956:lvgl/lvgl/src/widgets/lv_dropdown.c ****                 res = lv_event_send(obj, LV_EVENT_VALUE_CHANGED, &id);
 4171              		.loc 1 956 26 is_stmt 0 view .LVU1297
 4172 0036 0193     		str	r3, [sp, #4]
 957:lvgl/lvgl/src/widgets/lv_dropdown.c ****                 if(res != LV_RES_OK) return res;
 4173              		.loc 1 957 17 is_stmt 1 view .LVU1298
 957:lvgl/lvgl/src/widgets/lv_dropdown.c ****                 if(res != LV_RES_OK) return res;
 4174              		.loc 1 957 23 is_stmt 0 view .LVU1299
 4175 0038 01AA     		add	r2, sp, #4
 4176 003a 1C21     		movs	r1, #28
 4177 003c 2046     		mov	r0, r4
 4178 003e FFF7FEFF 		bl	lv_event_send
 4179              	.LVL441:
 958:lvgl/lvgl/src/widgets/lv_dropdown.c ****                 lv_obj_invalidate(obj);
 4180              		.loc 1 958 17 is_stmt 1 view .LVU1300
 958:lvgl/lvgl/src/widgets/lv_dropdown.c ****                 lv_obj_invalidate(obj);
 4181              		.loc 1 958 19 is_stmt 0 view .LVU1301
 4182 0042 0128     		cmp	r0, #1
 4183 0044 EBD1     		bne	.L227
 959:lvgl/lvgl/src/widgets/lv_dropdown.c ****             }
 4184              		.loc 1 959 17 is_stmt 1 view .LVU1302
ARM GAS  C:\Users\gx\AppData\Local\Temp\ccIqfrB9.s 			page 123


 4185 0046 2046     		mov	r0, r4
 4186              	.LVL442:
 959:lvgl/lvgl/src/widgets/lv_dropdown.c ****             }
 4187              		.loc 1 959 17 is_stmt 0 view .LVU1303
 4188 0048 FFF7FEFF 		bl	lv_obj_invalidate
 4189              	.LVL443:
 4190              	.L225:
 959:lvgl/lvgl/src/widgets/lv_dropdown.c ****             }
 4191              		.loc 1 959 17 view .LVU1304
 4192              	.LBE113:
 961:lvgl/lvgl/src/widgets/lv_dropdown.c ****             if(indev_type == LV_INDEV_TYPE_ENCODER) {
 4193              		.loc 1 961 13 is_stmt 1 view .LVU1305
 961:lvgl/lvgl/src/widgets/lv_dropdown.c ****             if(indev_type == LV_INDEV_TYPE_ENCODER) {
 4194              		.loc 1 961 42 is_stmt 0 view .LVU1306
 4195 004c 2846     		mov	r0, r5
 4196 004e FFF7FEFF 		bl	lv_indev_get_type
 4197              	.LVL444:
 962:lvgl/lvgl/src/widgets/lv_dropdown.c ****                 lv_group_set_editing(lv_obj_get_group(obj), false);
 4198              		.loc 1 962 13 is_stmt 1 view .LVU1307
 962:lvgl/lvgl/src/widgets/lv_dropdown.c ****                 lv_group_set_editing(lv_obj_get_group(obj), false);
 4199              		.loc 1 962 15 is_stmt 0 view .LVU1308
 4200 0052 0428     		cmp	r0, #4
 4201 0054 01D0     		beq	.L231
 4202              	.LBE112:
 974:lvgl/lvgl/src/widgets/lv_dropdown.c **** }
 4203              		.loc 1 974 12 view .LVU1309
 4204 0056 0120     		movs	r0, #1
 4205              	.LVL445:
 974:lvgl/lvgl/src/widgets/lv_dropdown.c **** }
 4206              		.loc 1 974 12 view .LVU1310
 4207 0058 E1E7     		b	.L227
 4208              	.LVL446:
 4209              	.L231:
 4210              	.LBB114:
 963:lvgl/lvgl/src/widgets/lv_dropdown.c ****             }
 4211              		.loc 1 963 17 is_stmt 1 view .LVU1311
 963:lvgl/lvgl/src/widgets/lv_dropdown.c ****             }
 4212              		.loc 1 963 38 is_stmt 0 view .LVU1312
 4213 005a 2046     		mov	r0, r4
 4214              	.LVL447:
 963:lvgl/lvgl/src/widgets/lv_dropdown.c ****             }
 4215              		.loc 1 963 38 view .LVU1313
 4216 005c FFF7FEFF 		bl	lv_obj_get_group
 4217              	.LVL448:
 963:lvgl/lvgl/src/widgets/lv_dropdown.c ****             }
 4218              		.loc 1 963 17 view .LVU1314
 4219 0060 0021     		movs	r1, #0
 4220 0062 FFF7FEFF 		bl	lv_group_set_editing
 4221              	.LVL449:
 4222              	.LBE114:
 974:lvgl/lvgl/src/widgets/lv_dropdown.c **** }
 4223              		.loc 1 974 12 view .LVU1315
 4224 0066 0120     		movs	r0, #1
 4225 0068 D9E7     		b	.L227
 4226              	.L224:
 967:lvgl/lvgl/src/widgets/lv_dropdown.c ****         }
 4227              		.loc 1 967 13 is_stmt 1 view .LVU1316
ARM GAS  C:\Users\gx\AppData\Local\Temp\ccIqfrB9.s 			page 124


 4228 006a 2046     		mov	r0, r4
 4229 006c FFF7FEFF 		bl	lv_dropdown_open
 4230              	.LVL450:
 974:lvgl/lvgl/src/widgets/lv_dropdown.c **** }
 4231              		.loc 1 974 12 is_stmt 0 view .LVU1317
 4232 0070 0120     		movs	r0, #1
 4233 0072 D4E7     		b	.L227
 4234              		.cfi_endproc
 4235              	.LFE190:
 4237              		.section	.text.lv_dropdown_event,"ax",%progbits
 4238              		.align	1
 4239              		.syntax unified
 4240              		.thumb
 4241              		.thumb_func
 4242              		.fpu fpv4-sp-d16
 4244              	lv_dropdown_event:
 4245              	.LVL451:
 4246              	.LFB184:
 599:lvgl/lvgl/src/widgets/lv_dropdown.c ****     LV_UNUSED(class_p);
 4247              		.loc 1 599 1 is_stmt 1 view -0
 4248              		.cfi_startproc
 4249              		@ args = 0, pretend = 0, frame = 0
 4250              		@ frame_needed = 0, uses_anonymous_args = 0
 599:lvgl/lvgl/src/widgets/lv_dropdown.c ****     LV_UNUSED(class_p);
 4251              		.loc 1 599 1 is_stmt 0 view .LVU1319
 4252 0000 70B5     		push	{r4, r5, r6, lr}
 4253              	.LCFI57:
 4254              		.cfi_def_cfa_offset 16
 4255              		.cfi_offset 4, -16
 4256              		.cfi_offset 5, -12
 4257              		.cfi_offset 6, -8
 4258              		.cfi_offset 14, -4
 4259 0002 0C46     		mov	r4, r1
 600:lvgl/lvgl/src/widgets/lv_dropdown.c **** 
 4260              		.loc 1 600 5 is_stmt 1 view .LVU1320
 602:lvgl/lvgl/src/widgets/lv_dropdown.c **** 
 4261              		.loc 1 602 5 view .LVU1321
 605:lvgl/lvgl/src/widgets/lv_dropdown.c ****     if(res != LV_RES_OK) return;
 4262              		.loc 1 605 5 view .LVU1322
 605:lvgl/lvgl/src/widgets/lv_dropdown.c ****     if(res != LV_RES_OK) return;
 4263              		.loc 1 605 11 is_stmt 0 view .LVU1323
 4264 0004 4948     		ldr	r0, .L261
 4265              	.LVL452:
 605:lvgl/lvgl/src/widgets/lv_dropdown.c ****     if(res != LV_RES_OK) return;
 4266              		.loc 1 605 11 view .LVU1324
 4267 0006 FFF7FEFF 		bl	lv_obj_event_base
 4268              	.LVL453:
 606:lvgl/lvgl/src/widgets/lv_dropdown.c **** 
 4269              		.loc 1 606 5 is_stmt 1 view .LVU1325
 606:lvgl/lvgl/src/widgets/lv_dropdown.c **** 
 4270              		.loc 1 606 7 is_stmt 0 view .LVU1326
 4271 000a 0128     		cmp	r0, #1
 4272 000c 00D0     		beq	.L249
 4273              	.LVL454:
 4274              	.L232:
 686:lvgl/lvgl/src/widgets/lv_dropdown.c **** 
 4275              		.loc 1 686 1 view .LVU1327
ARM GAS  C:\Users\gx\AppData\Local\Temp\ccIqfrB9.s 			page 125


 4276 000e 70BD     		pop	{r4, r5, r6, pc}
 4277              	.LVL455:
 4278              	.L249:
 608:lvgl/lvgl/src/widgets/lv_dropdown.c ****     lv_obj_t * obj = lv_event_get_target(e);
 4279              		.loc 1 608 5 is_stmt 1 view .LVU1328
 608:lvgl/lvgl/src/widgets/lv_dropdown.c ****     lv_obj_t * obj = lv_event_get_target(e);
 4280              		.loc 1 608 28 is_stmt 0 view .LVU1329
 4281 0010 2046     		mov	r0, r4
 4282              	.LVL456:
 608:lvgl/lvgl/src/widgets/lv_dropdown.c ****     lv_obj_t * obj = lv_event_get_target(e);
 4283              		.loc 1 608 28 view .LVU1330
 4284 0012 FFF7FEFF 		bl	lv_event_get_code
 4285              	.LVL457:
 4286 0016 0546     		mov	r5, r0
 4287              	.LVL458:
 609:lvgl/lvgl/src/widgets/lv_dropdown.c ****     lv_dropdown_t * dropdown = (lv_dropdown_t *)obj;
 4288              		.loc 1 609 5 is_stmt 1 view .LVU1331
 609:lvgl/lvgl/src/widgets/lv_dropdown.c ****     lv_dropdown_t * dropdown = (lv_dropdown_t *)obj;
 4289              		.loc 1 609 22 is_stmt 0 view .LVU1332
 4290 0018 2046     		mov	r0, r4
 4291 001a FFF7FEFF 		bl	lv_event_get_target
 4292              	.LVL459:
 4293 001e 0646     		mov	r6, r0
 4294              	.LVL460:
 610:lvgl/lvgl/src/widgets/lv_dropdown.c **** 
 4295              		.loc 1 610 5 is_stmt 1 view .LVU1333
 612:lvgl/lvgl/src/widgets/lv_dropdown.c ****         lv_group_t * g             = lv_obj_get_group(obj);
 4296              		.loc 1 612 5 view .LVU1334
 612:lvgl/lvgl/src/widgets/lv_dropdown.c ****         lv_group_t * g             = lv_obj_get_group(obj);
 4297              		.loc 1 612 7 is_stmt 0 view .LVU1335
 4298 0020 0E2D     		cmp	r5, #14
 4299 0022 14D0     		beq	.L250
 630:lvgl/lvgl/src/widgets/lv_dropdown.c ****         lv_dropdown_close(obj);
 4300              		.loc 1 630 10 is_stmt 1 view .LVU1336
 630:lvgl/lvgl/src/widgets/lv_dropdown.c ****         lv_dropdown_close(obj);
 4301              		.loc 1 630 40 is_stmt 0 view .LVU1337
 4302 0024 A5F10F03 		sub	r3, r5, #15
 4303 0028 DBB2     		uxtb	r3, r3
 630:lvgl/lvgl/src/widgets/lv_dropdown.c ****         lv_dropdown_close(obj);
 4304              		.loc 1 630 12 view .LVU1338
 4305 002a 012B     		cmp	r3, #1
 4306 002c 25D9     		bls	.L251
 633:lvgl/lvgl/src/widgets/lv_dropdown.c ****         res = btn_release_handler(obj);
 4307              		.loc 1 633 10 is_stmt 1 view .LVU1339
 633:lvgl/lvgl/src/widgets/lv_dropdown.c ****         res = btn_release_handler(obj);
 4308              		.loc 1 633 12 is_stmt 0 view .LVU1340
 4309 002e 082D     		cmp	r5, #8
 4310 0030 26D0     		beq	.L252
 637:lvgl/lvgl/src/widgets/lv_dropdown.c ****         lv_obj_refresh_self_size(obj);
 4311              		.loc 1 637 10 is_stmt 1 view .LVU1341
 637:lvgl/lvgl/src/widgets/lv_dropdown.c ****         lv_obj_refresh_self_size(obj);
 4312              		.loc 1 637 12 is_stmt 0 view .LVU1342
 4313 0032 242D     		cmp	r5, #36
 4314 0034 27D0     		beq	.L253
 640:lvgl/lvgl/src/widgets/lv_dropdown.c ****         lv_obj_refresh_self_size(obj);
 4315              		.loc 1 640 10 is_stmt 1 view .LVU1343
 640:lvgl/lvgl/src/widgets/lv_dropdown.c ****         lv_obj_refresh_self_size(obj);
ARM GAS  C:\Users\gx\AppData\Local\Temp\ccIqfrB9.s 			page 126


 4316              		.loc 1 640 12 is_stmt 0 view .LVU1344
 4317 0036 232D     		cmp	r5, #35
 4318 0038 28D0     		beq	.L254
 643:lvgl/lvgl/src/widgets/lv_dropdown.c ****         lv_point_t * p = lv_event_get_param(e);
 4319              		.loc 1 643 10 is_stmt 1 view .LVU1345
 643:lvgl/lvgl/src/widgets/lv_dropdown.c ****         lv_point_t * p = lv_event_get_param(e);
 4320              		.loc 1 643 12 is_stmt 0 view .LVU1346
 4321 003a 262D     		cmp	r5, #38
 4322 003c 29D0     		beq	.L255
 648:lvgl/lvgl/src/widgets/lv_dropdown.c ****         char c = *((char *)lv_event_get_param(e));
 4323              		.loc 1 648 10 is_stmt 1 view .LVU1347
 648:lvgl/lvgl/src/widgets/lv_dropdown.c ****         char c = *((char *)lv_event_get_param(e));
 4324              		.loc 1 648 12 is_stmt 0 view .LVU1348
 4325 003e 0D2D     		cmp	r5, #13
 4326 0040 35D0     		beq	.L256
 683:lvgl/lvgl/src/widgets/lv_dropdown.c ****         draw_main(e);
 4327              		.loc 1 683 10 is_stmt 1 view .LVU1349
 683:lvgl/lvgl/src/widgets/lv_dropdown.c ****         draw_main(e);
 4328              		.loc 1 683 12 is_stmt 0 view .LVU1350
 4329 0042 152D     		cmp	r5, #21
 4330 0044 E3D1     		bne	.L232
 684:lvgl/lvgl/src/widgets/lv_dropdown.c ****     }
 4331              		.loc 1 684 9 is_stmt 1 view .LVU1351
 4332 0046 2046     		mov	r0, r4
 4333              	.LVL461:
 684:lvgl/lvgl/src/widgets/lv_dropdown.c ****     }
 4334              		.loc 1 684 9 is_stmt 0 view .LVU1352
 4335 0048 FFF7FEFF 		bl	draw_main
 4336              	.LVL462:
 4337 004c DFE7     		b	.L232
 4338              	.LVL463:
 4339              	.L250:
 4340              	.LBB115:
 613:lvgl/lvgl/src/widgets/lv_dropdown.c ****         bool editing               = lv_group_get_editing(g);
 4341              		.loc 1 613 9 is_stmt 1 view .LVU1353
 613:lvgl/lvgl/src/widgets/lv_dropdown.c ****         bool editing               = lv_group_get_editing(g);
 4342              		.loc 1 613 38 is_stmt 0 view .LVU1354
 4343 004e FFF7FEFF 		bl	lv_obj_get_group
 4344              	.LVL464:
 614:lvgl/lvgl/src/widgets/lv_dropdown.c ****         lv_indev_type_t indev_type = lv_indev_get_type(lv_indev_get_act());
 4345              		.loc 1 614 9 is_stmt 1 view .LVU1355
 614:lvgl/lvgl/src/widgets/lv_dropdown.c ****         lv_indev_type_t indev_type = lv_indev_get_type(lv_indev_get_act());
 4346              		.loc 1 614 38 is_stmt 0 view .LVU1356
 4347 0052 FFF7FEFF 		bl	lv_group_get_editing
 4348              	.LVL465:
 614:lvgl/lvgl/src/widgets/lv_dropdown.c ****         lv_indev_type_t indev_type = lv_indev_get_type(lv_indev_get_act());
 4349              		.loc 1 614 38 view .LVU1357
 4350 0056 0446     		mov	r4, r0
 4351              	.LVL466:
 615:lvgl/lvgl/src/widgets/lv_dropdown.c **** 
 4352              		.loc 1 615 9 is_stmt 1 view .LVU1358
 615:lvgl/lvgl/src/widgets/lv_dropdown.c **** 
 4353              		.loc 1 615 56 is_stmt 0 view .LVU1359
 4354 0058 FFF7FEFF 		bl	lv_indev_get_act
 4355              	.LVL467:
 615:lvgl/lvgl/src/widgets/lv_dropdown.c **** 
 4356              		.loc 1 615 38 view .LVU1360
ARM GAS  C:\Users\gx\AppData\Local\Temp\ccIqfrB9.s 			page 127


 4357 005c FFF7FEFF 		bl	lv_indev_get_type
 4358              	.LVL468:
 618:lvgl/lvgl/src/widgets/lv_dropdown.c ****             /*Open the list if editing*/
 4359              		.loc 1 618 9 is_stmt 1 view .LVU1361
 618:lvgl/lvgl/src/widgets/lv_dropdown.c ****             /*Open the list if editing*/
 4360              		.loc 1 618 11 is_stmt 0 view .LVU1362
 4361 0060 0428     		cmp	r0, #4
 4362 0062 D4D1     		bne	.L232
 620:lvgl/lvgl/src/widgets/lv_dropdown.c ****                 lv_dropdown_open(obj);
 4363              		.loc 1 620 13 is_stmt 1 view .LVU1363
 620:lvgl/lvgl/src/widgets/lv_dropdown.c ****                 lv_dropdown_open(obj);
 4364              		.loc 1 620 15 is_stmt 0 view .LVU1364
 4365 0064 1CB1     		cbz	r4, .L235
 621:lvgl/lvgl/src/widgets/lv_dropdown.c ****             }
 4366              		.loc 1 621 17 is_stmt 1 view .LVU1365
 4367 0066 3046     		mov	r0, r6
 4368              	.LVL469:
 621:lvgl/lvgl/src/widgets/lv_dropdown.c ****             }
 4369              		.loc 1 621 17 is_stmt 0 view .LVU1366
 4370 0068 FFF7FEFF 		bl	lv_dropdown_open
 4371              	.LVL470:
 4372 006c CFE7     		b	.L232
 4373              	.LVL471:
 4374              	.L235:
 625:lvgl/lvgl/src/widgets/lv_dropdown.c ****                 lv_dropdown_close(obj);
 4375              		.loc 1 625 17 is_stmt 1 view .LVU1367
 625:lvgl/lvgl/src/widgets/lv_dropdown.c ****                 lv_dropdown_close(obj);
 4376              		.loc 1 625 48 is_stmt 0 view .LVU1368
 4377 006e 338F     		ldrh	r3, [r6, #56]
 625:lvgl/lvgl/src/widgets/lv_dropdown.c ****                 lv_dropdown_close(obj);
 4378              		.loc 1 625 38 view .LVU1369
 4379 0070 F386     		strh	r3, [r6, #54]	@ movhi
 626:lvgl/lvgl/src/widgets/lv_dropdown.c ****             }
 4380              		.loc 1 626 17 is_stmt 1 view .LVU1370
 4381 0072 3046     		mov	r0, r6
 4382              	.LVL472:
 626:lvgl/lvgl/src/widgets/lv_dropdown.c ****             }
 4383              		.loc 1 626 17 is_stmt 0 view .LVU1371
 4384 0074 FFF7FEFF 		bl	lv_dropdown_close
 4385              	.LVL473:
 4386 0078 C9E7     		b	.L232
 4387              	.LVL474:
 4388              	.L251:
 626:lvgl/lvgl/src/widgets/lv_dropdown.c ****             }
 4389              		.loc 1 626 17 view .LVU1372
 4390              	.LBE115:
 631:lvgl/lvgl/src/widgets/lv_dropdown.c ****     }
 4391              		.loc 1 631 9 is_stmt 1 view .LVU1373
 4392 007a FFF7FEFF 		bl	lv_dropdown_close
 4393              	.LVL475:
 631:lvgl/lvgl/src/widgets/lv_dropdown.c ****     }
 4394              		.loc 1 631 9 is_stmt 0 view .LVU1374
 4395 007e C6E7     		b	.L232
 4396              	.LVL476:
 4397              	.L252:
 634:lvgl/lvgl/src/widgets/lv_dropdown.c ****         if(res != LV_RES_OK) return;
 4398              		.loc 1 634 9 is_stmt 1 view .LVU1375
ARM GAS  C:\Users\gx\AppData\Local\Temp\ccIqfrB9.s 			page 128


 634:lvgl/lvgl/src/widgets/lv_dropdown.c ****         if(res != LV_RES_OK) return;
 4399              		.loc 1 634 15 is_stmt 0 view .LVU1376
 4400 0080 FFF7FEFF 		bl	btn_release_handler
 4401              	.LVL477:
 635:lvgl/lvgl/src/widgets/lv_dropdown.c ****     }
 4402              		.loc 1 635 9 is_stmt 1 view .LVU1377
 4403 0084 C3E7     		b	.L232
 4404              	.LVL478:
 4405              	.L253:
 638:lvgl/lvgl/src/widgets/lv_dropdown.c ****     }
 4406              		.loc 1 638 9 view .LVU1378
 4407 0086 FFF7FEFF 		bl	lv_obj_refresh_self_size
 4408              	.LVL479:
 638:lvgl/lvgl/src/widgets/lv_dropdown.c ****     }
 4409              		.loc 1 638 9 is_stmt 0 view .LVU1379
 4410 008a C0E7     		b	.L232
 4411              	.LVL480:
 4412              	.L254:
 641:lvgl/lvgl/src/widgets/lv_dropdown.c ****     }
 4413              		.loc 1 641 9 is_stmt 1 view .LVU1380
 4414 008c FFF7FEFF 		bl	lv_obj_refresh_self_size
 4415              	.LVL481:
 641:lvgl/lvgl/src/widgets/lv_dropdown.c ****     }
 4416              		.loc 1 641 9 is_stmt 0 view .LVU1381
 4417 0090 BDE7     		b	.L232
 4418              	.LVL482:
 4419              	.L255:
 4420              	.LBB116:
 644:lvgl/lvgl/src/widgets/lv_dropdown.c ****         const lv_font_t * font = lv_obj_get_style_text_font(obj, LV_PART_MAIN);
 4421              		.loc 1 644 9 is_stmt 1 view .LVU1382
 644:lvgl/lvgl/src/widgets/lv_dropdown.c ****         const lv_font_t * font = lv_obj_get_style_text_font(obj, LV_PART_MAIN);
 4422              		.loc 1 644 26 is_stmt 0 view .LVU1383
 4423 0092 2046     		mov	r0, r4
 4424              	.LVL483:
 644:lvgl/lvgl/src/widgets/lv_dropdown.c ****         const lv_font_t * font = lv_obj_get_style_text_font(obj, LV_PART_MAIN);
 4425              		.loc 1 644 26 view .LVU1384
 4426 0094 FFF7FEFF 		bl	lv_event_get_param
 4427              	.LVL484:
 4428 0098 0446     		mov	r4, r0
 4429              	.LVL485:
 645:lvgl/lvgl/src/widgets/lv_dropdown.c ****         p->y = lv_font_get_line_height(font);
 4430              		.loc 1 645 9 is_stmt 1 view .LVU1385
 4431              	.LBB117:
 4432              	.LBI117:
 331:lvgl/lvgl/src/widgets/../core/lv_obj_style_gen.h **** {
 4433              		.loc 2 331 33 view .LVU1386
 4434              	.LBB118:
 333:lvgl/lvgl/src/widgets/../core/lv_obj_style_gen.h ****     return (const lv_font_t *)v.ptr;
 4435              		.loc 2 333 5 view .LVU1387
 333:lvgl/lvgl/src/widgets/../core/lv_obj_style_gen.h ****     return (const lv_font_t *)v.ptr;
 4436              		.loc 2 333 26 is_stmt 0 view .LVU1388
 4437 009a 41F25942 		movw	r2, #5209
 4438 009e 0021     		movs	r1, #0
 4439 00a0 3046     		mov	r0, r6
 4440              	.LVL486:
 333:lvgl/lvgl/src/widgets/../core/lv_obj_style_gen.h ****     return (const lv_font_t *)v.ptr;
 4441              		.loc 2 333 26 view .LVU1389
ARM GAS  C:\Users\gx\AppData\Local\Temp\ccIqfrB9.s 			page 129


 4442 00a2 FFF7FEFF 		bl	lv_obj_get_style_prop
 4443              	.LVL487:
 334:lvgl/lvgl/src/widgets/../core/lv_obj_style_gen.h **** }
 4444              		.loc 2 334 5 is_stmt 1 view .LVU1390
 334:lvgl/lvgl/src/widgets/../core/lv_obj_style_gen.h **** }
 4445              		.loc 2 334 5 is_stmt 0 view .LVU1391
 4446              	.LBE118:
 4447              	.LBE117:
 646:lvgl/lvgl/src/widgets/lv_dropdown.c ****     }
 4448              		.loc 1 646 9 is_stmt 1 view .LVU1392
 4449              	.LBB119:
 4450              	.LBI119:
 118:d:\practise\f407_disc\lvgl\lvgl\src\font\lv_font.h **** {
 4451              		.loc 3 118 26 view .LVU1393
 4452              	.LBB120:
 4453              		.loc 3 120 5 view .LVU1394
 4454              		.loc 3 120 18 is_stmt 0 view .LVU1395
 4455 00a6 B0F90830 		ldrsh	r3, [r0, #8]
 4456              	.LVL488:
 4457              		.loc 3 120 18 view .LVU1396
 4458              	.LBE120:
 4459              	.LBE119:
 646:lvgl/lvgl/src/widgets/lv_dropdown.c ****     }
 4460              		.loc 1 646 14 view .LVU1397
 4461 00aa 6380     		strh	r3, [r4, #2]	@ movhi
 4462              	.LBE116:
 4463 00ac AFE7     		b	.L232
 4464              	.LVL489:
 4465              	.L256:
 4466              	.LBB121:
 649:lvgl/lvgl/src/widgets/lv_dropdown.c ****         if(c == LV_KEY_RIGHT || c == LV_KEY_DOWN) {
 4467              		.loc 1 649 9 is_stmt 1 view .LVU1398
 649:lvgl/lvgl/src/widgets/lv_dropdown.c ****         if(c == LV_KEY_RIGHT || c == LV_KEY_DOWN) {
 4468              		.loc 1 649 28 is_stmt 0 view .LVU1399
 4469 00ae 2046     		mov	r0, r4
 4470              	.LVL490:
 649:lvgl/lvgl/src/widgets/lv_dropdown.c ****         if(c == LV_KEY_RIGHT || c == LV_KEY_DOWN) {
 4471              		.loc 1 649 28 view .LVU1400
 4472 00b0 FFF7FEFF 		bl	lv_event_get_param
 4473              	.LVL491:
 649:lvgl/lvgl/src/widgets/lv_dropdown.c ****         if(c == LV_KEY_RIGHT || c == LV_KEY_DOWN) {
 4474              		.loc 1 649 14 view .LVU1401
 4475 00b4 0278     		ldrb	r2, [r0]	@ zero_extendqisi2
 4476              	.LVL492:
 650:lvgl/lvgl/src/widgets/lv_dropdown.c ****             if(dropdown->list == NULL) {
 4477              		.loc 1 650 9 is_stmt 1 view .LVU1402
 650:lvgl/lvgl/src/widgets/lv_dropdown.c ****             if(dropdown->list == NULL) {
 4478              		.loc 1 650 30 is_stmt 0 view .LVU1403
 4479 00b6 A2F11203 		sub	r3, r2, #18
 4480 00ba DBB2     		uxtb	r3, r3
 650:lvgl/lvgl/src/widgets/lv_dropdown.c ****             if(dropdown->list == NULL) {
 4481              		.loc 1 650 11 view .LVU1404
 4482 00bc 012B     		cmp	r3, #1
 4483 00be 0FD9     		bls	.L257
 659:lvgl/lvgl/src/widgets/lv_dropdown.c **** 
 4484              		.loc 1 659 14 is_stmt 1 view .LVU1405
 659:lvgl/lvgl/src/widgets/lv_dropdown.c **** 
ARM GAS  C:\Users\gx\AppData\Local\Temp\ccIqfrB9.s 			page 130


 4485              		.loc 1 659 16 is_stmt 0 view .LVU1406
 4486 00c0 142A     		cmp	r2, #20
 4487 00c2 1DD0     		beq	.L244
 659:lvgl/lvgl/src/widgets/lv_dropdown.c **** 
 4488              		.loc 1 659 34 discriminator 1 view .LVU1407
 4489 00c4 112A     		cmp	r2, #17
 4490 00c6 1BD0     		beq	.L244
 669:lvgl/lvgl/src/widgets/lv_dropdown.c ****             dropdown->sel_opt_id = dropdown->sel_opt_id_orig;
 4491              		.loc 1 669 14 is_stmt 1 view .LVU1408
 669:lvgl/lvgl/src/widgets/lv_dropdown.c ****             dropdown->sel_opt_id = dropdown->sel_opt_id_orig;
 4492              		.loc 1 669 16 is_stmt 0 view .LVU1409
 4493 00c8 1B2A     		cmp	r2, #27
 4494 00ca 28D0     		beq	.L258
 673:lvgl/lvgl/src/widgets/lv_dropdown.c ****             lv_indev_t * indev = lv_indev_get_act();
 4495              		.loc 1 673 14 is_stmt 1 view .LVU1410
 673:lvgl/lvgl/src/widgets/lv_dropdown.c ****             lv_indev_t * indev = lv_indev_get_act();
 4496              		.loc 1 673 16 is_stmt 0 view .LVU1411
 4497 00cc 0A2A     		cmp	r2, #10
 4498 00ce 9ED1     		bne	.L232
 4499              	.LBB122:
 674:lvgl/lvgl/src/widgets/lv_dropdown.c ****             /*If there is no indev ENTER was sent manually so process it.
 4500              		.loc 1 674 13 is_stmt 1 view .LVU1412
 674:lvgl/lvgl/src/widgets/lv_dropdown.c ****             /*If there is no indev ENTER was sent manually so process it.
 4501              		.loc 1 674 34 is_stmt 0 view .LVU1413
 4502 00d0 FFF7FEFF 		bl	lv_indev_get_act
 4503              	.LVL493:
 677:lvgl/lvgl/src/widgets/lv_dropdown.c ****                 res = btn_release_handler(obj);
 4504              		.loc 1 677 13 is_stmt 1 view .LVU1414
 677:lvgl/lvgl/src/widgets/lv_dropdown.c ****                 res = btn_release_handler(obj);
 4505              		.loc 1 677 15 is_stmt 0 view .LVU1415
 4506 00d4 0028     		cmp	r0, #0
 4507 00d6 9AD1     		bne	.L232
 678:lvgl/lvgl/src/widgets/lv_dropdown.c ****                 if(res != LV_RES_OK) return;
 4508              		.loc 1 678 17 is_stmt 1 view .LVU1416
 678:lvgl/lvgl/src/widgets/lv_dropdown.c ****                 if(res != LV_RES_OK) return;
 4509              		.loc 1 678 23 is_stmt 0 view .LVU1417
 4510 00d8 3046     		mov	r0, r6
 4511              	.LVL494:
 678:lvgl/lvgl/src/widgets/lv_dropdown.c ****                 if(res != LV_RES_OK) return;
 4512              		.loc 1 678 23 view .LVU1418
 4513 00da FFF7FEFF 		bl	btn_release_handler
 4514              	.LVL495:
 679:lvgl/lvgl/src/widgets/lv_dropdown.c ****             }
 4515              		.loc 1 679 17 is_stmt 1 view .LVU1419
 4516 00de 96E7     		b	.L232
 4517              	.LVL496:
 4518              	.L257:
 679:lvgl/lvgl/src/widgets/lv_dropdown.c ****             }
 4519              		.loc 1 679 17 is_stmt 0 view .LVU1420
 4520              	.LBE122:
 651:lvgl/lvgl/src/widgets/lv_dropdown.c ****                 lv_dropdown_open(obj);
 4521              		.loc 1 651 13 is_stmt 1 view .LVU1421
 651:lvgl/lvgl/src/widgets/lv_dropdown.c ****                 lv_dropdown_open(obj);
 4522              		.loc 1 651 24 is_stmt 0 view .LVU1422
 4523 00e0 736A     		ldr	r3, [r6, #36]
 651:lvgl/lvgl/src/widgets/lv_dropdown.c ****                 lv_dropdown_open(obj);
 4524              		.loc 1 651 15 view .LVU1423
ARM GAS  C:\Users\gx\AppData\Local\Temp\ccIqfrB9.s 			page 131


 4525 00e2 4BB1     		cbz	r3, .L259
 654:lvgl/lvgl/src/widgets/lv_dropdown.c ****                 dropdown->sel_opt_id++;
 4526              		.loc 1 654 18 is_stmt 1 view .LVU1424
 654:lvgl/lvgl/src/widgets/lv_dropdown.c ****                 dropdown->sel_opt_id++;
 4527              		.loc 1 654 29 is_stmt 0 view .LVU1425
 4528 00e4 F38E     		ldrh	r3, [r6, #54]
 654:lvgl/lvgl/src/widgets/lv_dropdown.c ****                 dropdown->sel_opt_id++;
 4529              		.loc 1 654 42 view .LVU1426
 4530 00e6 591C     		adds	r1, r3, #1
 654:lvgl/lvgl/src/widgets/lv_dropdown.c ****                 dropdown->sel_opt_id++;
 4531              		.loc 1 654 56 view .LVU1427
 4532 00e8 B28E     		ldrh	r2, [r6, #52]
 4533              	.LVL497:
 654:lvgl/lvgl/src/widgets/lv_dropdown.c ****                 dropdown->sel_opt_id++;
 4534              		.loc 1 654 20 view .LVU1428
 4535 00ea 9142     		cmp	r1, r2
 4536 00ec 8FDA     		bge	.L232
 655:lvgl/lvgl/src/widgets/lv_dropdown.c ****                 position_to_selected(obj);
 4537              		.loc 1 655 17 is_stmt 1 view .LVU1429
 655:lvgl/lvgl/src/widgets/lv_dropdown.c ****                 position_to_selected(obj);
 4538              		.loc 1 655 37 is_stmt 0 view .LVU1430
 4539 00ee F186     		strh	r1, [r6, #54]	@ movhi
 4540              	.LVL498:
 656:lvgl/lvgl/src/widgets/lv_dropdown.c ****             }
 4541              		.loc 1 656 17 is_stmt 1 view .LVU1431
 4542 00f0 3046     		mov	r0, r6
 4543 00f2 FFF7FEFF 		bl	position_to_selected
 4544              	.LVL499:
 4545 00f6 8AE7     		b	.L232
 4546              	.LVL500:
 4547              	.L259:
 652:lvgl/lvgl/src/widgets/lv_dropdown.c ****             }
 4548              		.loc 1 652 17 view .LVU1432
 4549 00f8 3046     		mov	r0, r6
 4550 00fa FFF7FEFF 		bl	lv_dropdown_open
 4551              	.LVL501:
 652:lvgl/lvgl/src/widgets/lv_dropdown.c ****             }
 4552              		.loc 1 652 17 is_stmt 0 view .LVU1433
 4553 00fe 86E7     		b	.L232
 4554              	.LVL502:
 4555              	.L244:
 661:lvgl/lvgl/src/widgets/lv_dropdown.c ****                 lv_dropdown_open(obj);
 4556              		.loc 1 661 13 is_stmt 1 view .LVU1434
 661:lvgl/lvgl/src/widgets/lv_dropdown.c ****                 lv_dropdown_open(obj);
 4557              		.loc 1 661 24 is_stmt 0 view .LVU1435
 4558 0100 736A     		ldr	r3, [r6, #36]
 661:lvgl/lvgl/src/widgets/lv_dropdown.c ****                 lv_dropdown_open(obj);
 4559              		.loc 1 661 15 view .LVU1436
 4560 0102 43B1     		cbz	r3, .L260
 664:lvgl/lvgl/src/widgets/lv_dropdown.c ****                 dropdown->sel_opt_id--;
 4561              		.loc 1 664 18 is_stmt 1 view .LVU1437
 664:lvgl/lvgl/src/widgets/lv_dropdown.c ****                 dropdown->sel_opt_id--;
 4562              		.loc 1 664 29 is_stmt 0 view .LVU1438
 4563 0104 F38E     		ldrh	r3, [r6, #54]
 664:lvgl/lvgl/src/widgets/lv_dropdown.c ****                 dropdown->sel_opt_id--;
 4564              		.loc 1 664 20 view .LVU1439
 4565 0106 002B     		cmp	r3, #0
ARM GAS  C:\Users\gx\AppData\Local\Temp\ccIqfrB9.s 			page 132


 4566 0108 81D0     		beq	.L232
 665:lvgl/lvgl/src/widgets/lv_dropdown.c ****                 position_to_selected(obj);
 4567              		.loc 1 665 17 is_stmt 1 view .LVU1440
 665:lvgl/lvgl/src/widgets/lv_dropdown.c ****                 position_to_selected(obj);
 4568              		.loc 1 665 37 is_stmt 0 view .LVU1441
 4569 010a 013B     		subs	r3, r3, #1
 4570 010c F386     		strh	r3, [r6, #54]	@ movhi
 666:lvgl/lvgl/src/widgets/lv_dropdown.c ****             }
 4571              		.loc 1 666 17 is_stmt 1 view .LVU1442
 4572 010e 3046     		mov	r0, r6
 4573 0110 FFF7FEFF 		bl	position_to_selected
 4574              	.LVL503:
 666:lvgl/lvgl/src/widgets/lv_dropdown.c ****             }
 4575              		.loc 1 666 17 is_stmt 0 view .LVU1443
 4576 0114 7BE7     		b	.L232
 4577              	.LVL504:
 4578              	.L260:
 662:lvgl/lvgl/src/widgets/lv_dropdown.c ****             }
 4579              		.loc 1 662 17 is_stmt 1 view .LVU1444
 4580 0116 3046     		mov	r0, r6
 4581 0118 FFF7FEFF 		bl	lv_dropdown_open
 4582              	.LVL505:
 662:lvgl/lvgl/src/widgets/lv_dropdown.c ****             }
 4583              		.loc 1 662 17 is_stmt 0 view .LVU1445
 4584 011c 77E7     		b	.L232
 4585              	.LVL506:
 4586              	.L258:
 670:lvgl/lvgl/src/widgets/lv_dropdown.c ****             lv_dropdown_close(obj);
 4587              		.loc 1 670 13 is_stmt 1 view .LVU1446
 670:lvgl/lvgl/src/widgets/lv_dropdown.c ****             lv_dropdown_close(obj);
 4588              		.loc 1 670 44 is_stmt 0 view .LVU1447
 4589 011e 338F     		ldrh	r3, [r6, #56]
 670:lvgl/lvgl/src/widgets/lv_dropdown.c ****             lv_dropdown_close(obj);
 4590              		.loc 1 670 34 view .LVU1448
 4591 0120 F386     		strh	r3, [r6, #54]	@ movhi
 671:lvgl/lvgl/src/widgets/lv_dropdown.c ****         }
 4592              		.loc 1 671 13 is_stmt 1 view .LVU1449
 4593 0122 3046     		mov	r0, r6
 4594 0124 FFF7FEFF 		bl	lv_dropdown_close
 4595              	.LVL507:
 671:lvgl/lvgl/src/widgets/lv_dropdown.c ****         }
 4596              		.loc 1 671 13 is_stmt 0 view .LVU1450
 4597 0128 71E7     		b	.L232
 4598              	.L262:
 4599 012a 00BF     		.align	2
 4600              	.L261:
 4601 012c 00000000 		.word	.LANCHOR1
 4602              	.LBE121:
 4603              		.cfi_endproc
 4604              	.LFE184:
 4606              		.section	.text.list_release_handler,"ax",%progbits
 4607              		.align	1
 4608              		.syntax unified
 4609              		.thumb
 4610              		.thumb_func
 4611              		.fpu fpv4-sp-d16
 4613              	list_release_handler:
ARM GAS  C:\Users\gx\AppData\Local\Temp\ccIqfrB9.s 			page 133


 4614              	.LVL508:
 4615              	.LFB191:
 983:lvgl/lvgl/src/widgets/lv_dropdown.c ****     lv_dropdown_list_t * list = (lv_dropdown_list_t*) list_obj;
 4616              		.loc 1 983 1 is_stmt 1 view -0
 4617              		.cfi_startproc
 4618              		@ args = 0, pretend = 0, frame = 8
 4619              		@ frame_needed = 0, uses_anonymous_args = 0
 983:lvgl/lvgl/src/widgets/lv_dropdown.c ****     lv_dropdown_list_t * list = (lv_dropdown_list_t*) list_obj;
 4620              		.loc 1 983 1 is_stmt 0 view .LVU1452
 4621 0000 70B5     		push	{r4, r5, r6, lr}
 4622              	.LCFI58:
 4623              		.cfi_def_cfa_offset 16
 4624              		.cfi_offset 4, -16
 4625              		.cfi_offset 5, -12
 4626              		.cfi_offset 6, -8
 4627              		.cfi_offset 14, -4
 4628 0002 82B0     		sub	sp, sp, #8
 4629              	.LCFI59:
 4630              		.cfi_def_cfa_offset 24
 984:lvgl/lvgl/src/widgets/lv_dropdown.c ****     lv_obj_t * dropdown_obj = list->dropdown;
 4631              		.loc 1 984 5 is_stmt 1 view .LVU1453
 4632              	.LVL509:
 985:lvgl/lvgl/src/widgets/lv_dropdown.c ****     lv_dropdown_t * dropdown = (lv_dropdown_t *)dropdown_obj;
 4633              		.loc 1 985 5 view .LVU1454
 985:lvgl/lvgl/src/widgets/lv_dropdown.c ****     lv_dropdown_t * dropdown = (lv_dropdown_t *)dropdown_obj;
 4634              		.loc 1 985 16 is_stmt 0 view .LVU1455
 4635 0004 446A     		ldr	r4, [r0, #36]
 4636              	.LVL510:
 986:lvgl/lvgl/src/widgets/lv_dropdown.c **** 
 4637              		.loc 1 986 5 is_stmt 1 view .LVU1456
 988:lvgl/lvgl/src/widgets/lv_dropdown.c ****     /*Leave edit mode once a new item is selected*/
 4638              		.loc 1 988 5 view .LVU1457
 988:lvgl/lvgl/src/widgets/lv_dropdown.c ****     /*Leave edit mode once a new item is selected*/
 4639              		.loc 1 988 26 is_stmt 0 view .LVU1458
 4640 0006 FFF7FEFF 		bl	lv_indev_get_act
 4641              	.LVL511:
 988:lvgl/lvgl/src/widgets/lv_dropdown.c ****     /*Leave edit mode once a new item is selected*/
 4642              		.loc 1 988 26 view .LVU1459
 4643 000a 0546     		mov	r5, r0
 4644              	.LVL512:
 990:lvgl/lvgl/src/widgets/lv_dropdown.c ****         dropdown->sel_opt_id_orig = dropdown->sel_opt_id;
 4645              		.loc 1 990 5 is_stmt 1 view .LVU1460
 990:lvgl/lvgl/src/widgets/lv_dropdown.c ****         dropdown->sel_opt_id_orig = dropdown->sel_opt_id;
 4646              		.loc 1 990 8 is_stmt 0 view .LVU1461
 4647 000c FFF7FEFF 		bl	lv_indev_get_type
 4648              	.LVL513:
 990:lvgl/lvgl/src/widgets/lv_dropdown.c ****         dropdown->sel_opt_id_orig = dropdown->sel_opt_id;
 4649              		.loc 1 990 7 view .LVU1462
 4650 0010 0428     		cmp	r0, #4
 4651 0012 22D0     		beq	.L269
 4652              	.L264:
 999:lvgl/lvgl/src/widgets/lv_dropdown.c ****         lv_point_t p;
 4653              		.loc 1 999 5 is_stmt 1 view .LVU1463
 999:lvgl/lvgl/src/widgets/lv_dropdown.c ****         lv_point_t p;
 4654              		.loc 1 999 8 is_stmt 0 view .LVU1464
 4655 0014 2846     		mov	r0, r5
 4656 0016 FFF7FEFF 		bl	lv_indev_get_type
ARM GAS  C:\Users\gx\AppData\Local\Temp\ccIqfrB9.s 			page 134


 4657              	.LVL514:
 999:lvgl/lvgl/src/widgets/lv_dropdown.c ****         lv_point_t p;
 4658              		.loc 1 999 7 view .LVU1465
 4659 001a 0128     		cmp	r0, #1
 4660 001c 04D0     		beq	.L265
 999:lvgl/lvgl/src/widgets/lv_dropdown.c ****         lv_point_t p;
 4661              		.loc 1 999 61 discriminator 1 view .LVU1466
 4662 001e 2846     		mov	r0, r5
 4663 0020 FFF7FEFF 		bl	lv_indev_get_type
 4664              	.LVL515:
 999:lvgl/lvgl/src/widgets/lv_dropdown.c ****         lv_point_t p;
 4665              		.loc 1 999 58 discriminator 1 view .LVU1467
 4666 0024 0328     		cmp	r0, #3
 4667 0026 0AD1     		bne	.L266
 4668              	.L265:
 4669              	.LBB123:
1000:lvgl/lvgl/src/widgets/lv_dropdown.c ****         lv_indev_get_point(indev, &p);
 4670              		.loc 1 1000 9 is_stmt 1 view .LVU1468
1001:lvgl/lvgl/src/widgets/lv_dropdown.c ****         dropdown->sel_opt_id     = get_id_on_point(dropdown_obj, p.y);
 4671              		.loc 1 1001 9 view .LVU1469
 4672 0028 6946     		mov	r1, sp
 4673 002a 2846     		mov	r0, r5
 4674 002c FFF7FEFF 		bl	lv_indev_get_point
 4675              	.LVL516:
1002:lvgl/lvgl/src/widgets/lv_dropdown.c ****         dropdown->sel_opt_id_orig = dropdown->sel_opt_id;
 4676              		.loc 1 1002 9 view .LVU1470
1002:lvgl/lvgl/src/widgets/lv_dropdown.c ****         dropdown->sel_opt_id_orig = dropdown->sel_opt_id;
 4677              		.loc 1 1002 36 is_stmt 0 view .LVU1471
 4678 0030 BDF90210 		ldrsh	r1, [sp, #2]
 4679 0034 2046     		mov	r0, r4
 4680 0036 FFF7FEFF 		bl	get_id_on_point
 4681              	.LVL517:
1002:lvgl/lvgl/src/widgets/lv_dropdown.c ****         dropdown->sel_opt_id_orig = dropdown->sel_opt_id;
 4682              		.loc 1 1002 34 view .LVU1472
 4683 003a E086     		strh	r0, [r4, #54]	@ movhi
1003:lvgl/lvgl/src/widgets/lv_dropdown.c ****     }
 4684              		.loc 1 1003 9 is_stmt 1 view .LVU1473
1003:lvgl/lvgl/src/widgets/lv_dropdown.c ****     }
 4685              		.loc 1 1003 35 is_stmt 0 view .LVU1474
 4686 003c 2087     		strh	r0, [r4, #56]	@ movhi
 4687              	.L266:
1003:lvgl/lvgl/src/widgets/lv_dropdown.c ****     }
 4688              		.loc 1 1003 35 view .LVU1475
 4689              	.LBE123:
1006:lvgl/lvgl/src/widgets/lv_dropdown.c **** 
 4690              		.loc 1 1006 5 is_stmt 1 view .LVU1476
 4691 003e 2046     		mov	r0, r4
 4692 0040 FFF7FEFF 		bl	lv_dropdown_close
 4693              	.LVL518:
1009:lvgl/lvgl/src/widgets/lv_dropdown.c **** 
 4694              		.loc 1 1009 5 view .LVU1477
1009:lvgl/lvgl/src/widgets/lv_dropdown.c **** 
 4695              		.loc 1 1009 16 is_stmt 0 view .LVU1478
 4696 0044 A36A     		ldr	r3, [r4, #40]
1009:lvgl/lvgl/src/widgets/lv_dropdown.c **** 
 4697              		.loc 1 1009 7 view .LVU1479
 4698 0046 BBB1     		cbz	r3, .L270
ARM GAS  C:\Users\gx\AppData\Local\Temp\ccIqfrB9.s 			page 135


 4699              	.L267:
1011:lvgl/lvgl/src/widgets/lv_dropdown.c ****     lv_res_t res = lv_event_send(dropdown_obj, LV_EVENT_VALUE_CHANGED, &id);
 4700              		.loc 1 1011 5 is_stmt 1 view .LVU1480
1011:lvgl/lvgl/src/widgets/lv_dropdown.c ****     lv_res_t res = lv_event_send(dropdown_obj, LV_EVENT_VALUE_CHANGED, &id);
 4701              		.loc 1 1011 28 is_stmt 0 view .LVU1481
 4702 0048 E38E     		ldrh	r3, [r4, #54]
1011:lvgl/lvgl/src/widgets/lv_dropdown.c ****     lv_res_t res = lv_event_send(dropdown_obj, LV_EVENT_VALUE_CHANGED, &id);
 4703              		.loc 1 1011 14 view .LVU1482
 4704 004a 0193     		str	r3, [sp, #4]
1012:lvgl/lvgl/src/widgets/lv_dropdown.c ****     if(res != LV_RES_OK) return res;
 4705              		.loc 1 1012 5 is_stmt 1 view .LVU1483
1012:lvgl/lvgl/src/widgets/lv_dropdown.c ****     if(res != LV_RES_OK) return res;
 4706              		.loc 1 1012 20 is_stmt 0 view .LVU1484
 4707 004c 01AA     		add	r2, sp, #4
 4708 004e 1C21     		movs	r1, #28
 4709 0050 2046     		mov	r0, r4
 4710 0052 FFF7FEFF 		bl	lv_event_send
 4711              	.LVL519:
1013:lvgl/lvgl/src/widgets/lv_dropdown.c **** 
 4712              		.loc 1 1013 5 is_stmt 1 view .LVU1485
1016:lvgl/lvgl/src/widgets/lv_dropdown.c **** 
 4713              		.loc 1 1016 1 is_stmt 0 view .LVU1486
 4714 0056 02B0     		add	sp, sp, #8
 4715              	.LCFI60:
 4716              		.cfi_remember_state
 4717              		.cfi_def_cfa_offset 16
 4718              		@ sp needed
 4719 0058 70BD     		pop	{r4, r5, r6, pc}
 4720              	.LVL520:
 4721              	.L269:
 4722              	.LCFI61:
 4723              		.cfi_restore_state
 4724              	.LBB124:
 991:lvgl/lvgl/src/widgets/lv_dropdown.c ****         lv_group_t * g      = lv_obj_get_group(dropdown_obj);
 4725              		.loc 1 991 9 is_stmt 1 view .LVU1487
 991:lvgl/lvgl/src/widgets/lv_dropdown.c ****         lv_group_t * g      = lv_obj_get_group(dropdown_obj);
 4726              		.loc 1 991 45 is_stmt 0 view .LVU1488
 4727 005a E38E     		ldrh	r3, [r4, #54]
 991:lvgl/lvgl/src/widgets/lv_dropdown.c ****         lv_group_t * g      = lv_obj_get_group(dropdown_obj);
 4728              		.loc 1 991 35 view .LVU1489
 4729 005c 2387     		strh	r3, [r4, #56]	@ movhi
 992:lvgl/lvgl/src/widgets/lv_dropdown.c ****         if(lv_group_get_editing(g)) {
 4730              		.loc 1 992 9 is_stmt 1 view .LVU1490
 992:lvgl/lvgl/src/widgets/lv_dropdown.c ****         if(lv_group_get_editing(g)) {
 4731              		.loc 1 992 31 is_stmt 0 view .LVU1491
 4732 005e 2046     		mov	r0, r4
 4733 0060 FFF7FEFF 		bl	lv_obj_get_group
 4734              	.LVL521:
 4735 0064 0646     		mov	r6, r0
 4736              	.LVL522:
 993:lvgl/lvgl/src/widgets/lv_dropdown.c ****             lv_group_set_editing(g, false);
 4737              		.loc 1 993 9 is_stmt 1 view .LVU1492
 993:lvgl/lvgl/src/widgets/lv_dropdown.c ****             lv_group_set_editing(g, false);
 4738              		.loc 1 993 12 is_stmt 0 view .LVU1493
 4739 0066 FFF7FEFF 		bl	lv_group_get_editing
 4740              	.LVL523:
 993:lvgl/lvgl/src/widgets/lv_dropdown.c ****             lv_group_set_editing(g, false);
ARM GAS  C:\Users\gx\AppData\Local\Temp\ccIqfrB9.s 			page 136


 4741              		.loc 1 993 11 view .LVU1494
 4742 006a 0028     		cmp	r0, #0
 4743 006c D2D0     		beq	.L264
 994:lvgl/lvgl/src/widgets/lv_dropdown.c ****         }
 4744              		.loc 1 994 13 is_stmt 1 view .LVU1495
 4745 006e 0021     		movs	r1, #0
 4746 0070 3046     		mov	r0, r6
 4747 0072 FFF7FEFF 		bl	lv_group_set_editing
 4748              	.LVL524:
 4749 0076 CDE7     		b	.L264
 4750              	.LVL525:
 4751              	.L270:
 994:lvgl/lvgl/src/widgets/lv_dropdown.c ****         }
 4752              		.loc 1 994 13 is_stmt 0 view .LVU1496
 4753              	.LBE124:
1009:lvgl/lvgl/src/widgets/lv_dropdown.c **** 
 4754              		.loc 1 1009 32 is_stmt 1 discriminator 1 view .LVU1497
 4755 0078 2046     		mov	r0, r4
 4756 007a FFF7FEFF 		bl	lv_obj_invalidate
 4757              	.LVL526:
 4758 007e E3E7     		b	.L267
 4759              		.cfi_endproc
 4760              	.LFE191:
 4762              		.section	.text.lv_dropdown_list_event,"ax",%progbits
 4763              		.align	1
 4764              		.syntax unified
 4765              		.thumb
 4766              		.thumb_func
 4767              		.fpu fpv4-sp-d16
 4769              	lv_dropdown_list_event:
 4770              	.LVL527:
 4771              	.LFB185:
 689:lvgl/lvgl/src/widgets/lv_dropdown.c ****     LV_UNUSED(class_p);
 4772              		.loc 1 689 1 view -0
 4773              		.cfi_startproc
 4774              		@ args = 0, pretend = 0, frame = 0
 4775              		@ frame_needed = 0, uses_anonymous_args = 0
 689:lvgl/lvgl/src/widgets/lv_dropdown.c ****     LV_UNUSED(class_p);
 4776              		.loc 1 689 1 is_stmt 0 view .LVU1499
 4777 0000 70B5     		push	{r4, r5, r6, lr}
 4778              	.LCFI62:
 4779              		.cfi_def_cfa_offset 16
 4780              		.cfi_offset 4, -16
 4781              		.cfi_offset 5, -12
 4782              		.cfi_offset 6, -8
 4783              		.cfi_offset 14, -4
 4784 0002 0D46     		mov	r5, r1
 690:lvgl/lvgl/src/widgets/lv_dropdown.c **** 
 4785              		.loc 1 690 5 is_stmt 1 view .LVU1500
 692:lvgl/lvgl/src/widgets/lv_dropdown.c **** 
 4786              		.loc 1 692 5 view .LVU1501
 695:lvgl/lvgl/src/widgets/lv_dropdown.c ****     if(code != LV_EVENT_DRAW_POST) {
 4787              		.loc 1 695 5 view .LVU1502
 695:lvgl/lvgl/src/widgets/lv_dropdown.c ****     if(code != LV_EVENT_DRAW_POST) {
 4788              		.loc 1 695 28 is_stmt 0 view .LVU1503
 4789 0004 0846     		mov	r0, r1
 4790              	.LVL528:
ARM GAS  C:\Users\gx\AppData\Local\Temp\ccIqfrB9.s 			page 137


 695:lvgl/lvgl/src/widgets/lv_dropdown.c ****     if(code != LV_EVENT_DRAW_POST) {
 4791              		.loc 1 695 28 view .LVU1504
 4792 0006 FFF7FEFF 		bl	lv_event_get_code
 4793              	.LVL529:
 695:lvgl/lvgl/src/widgets/lv_dropdown.c ****     if(code != LV_EVENT_DRAW_POST) {
 4794              		.loc 1 695 28 view .LVU1505
 4795 000a 0446     		mov	r4, r0
 4796              	.LVL530:
 696:lvgl/lvgl/src/widgets/lv_dropdown.c ****         res = lv_obj_event_base(MY_CLASS_LIST, e);
 4797              		.loc 1 696 5 is_stmt 1 view .LVU1506
 696:lvgl/lvgl/src/widgets/lv_dropdown.c ****         res = lv_obj_event_base(MY_CLASS_LIST, e);
 4798              		.loc 1 696 7 is_stmt 0 view .LVU1507
 4799 000c 1828     		cmp	r0, #24
 4800 000e 05D0     		beq	.L272
 697:lvgl/lvgl/src/widgets/lv_dropdown.c ****         if(res != LV_RES_OK) return;
 4801              		.loc 1 697 9 is_stmt 1 view .LVU1508
 697:lvgl/lvgl/src/widgets/lv_dropdown.c ****         if(res != LV_RES_OK) return;
 4802              		.loc 1 697 15 is_stmt 0 view .LVU1509
 4803 0010 2946     		mov	r1, r5
 4804 0012 1748     		ldr	r0, .L282
 4805              	.LVL531:
 697:lvgl/lvgl/src/widgets/lv_dropdown.c ****         if(res != LV_RES_OK) return;
 4806              		.loc 1 697 15 view .LVU1510
 4807 0014 FFF7FEFF 		bl	lv_obj_event_base
 4808              	.LVL532:
 698:lvgl/lvgl/src/widgets/lv_dropdown.c ****     }
 4809              		.loc 1 698 9 is_stmt 1 view .LVU1511
 698:lvgl/lvgl/src/widgets/lv_dropdown.c ****     }
 4810              		.loc 1 698 11 is_stmt 0 view .LVU1512
 4811 0018 0128     		cmp	r0, #1
 4812 001a 0CD1     		bne	.L271
 4813              	.LVL533:
 4814              	.L272:
 700:lvgl/lvgl/src/widgets/lv_dropdown.c ****     lv_obj_t * dropdown_obj = ((lv_dropdown_list_t *)list)->dropdown;
 4815              		.loc 1 700 5 is_stmt 1 view .LVU1513
 700:lvgl/lvgl/src/widgets/lv_dropdown.c ****     lv_obj_t * dropdown_obj = ((lv_dropdown_list_t *)list)->dropdown;
 4816              		.loc 1 700 23 is_stmt 0 view .LVU1514
 4817 001c 2846     		mov	r0, r5
 4818 001e FFF7FEFF 		bl	lv_event_get_target
 4819              	.LVL534:
 4820 0022 0646     		mov	r6, r0
 4821              	.LVL535:
 701:lvgl/lvgl/src/widgets/lv_dropdown.c ****     lv_dropdown_t * dropdown = (lv_dropdown_t *)dropdown_obj;
 4822              		.loc 1 701 5 is_stmt 1 view .LVU1515
 701:lvgl/lvgl/src/widgets/lv_dropdown.c ****     lv_dropdown_t * dropdown = (lv_dropdown_t *)dropdown_obj;
 4823              		.loc 1 701 16 is_stmt 0 view .LVU1516
 4824 0024 436A     		ldr	r3, [r0, #36]
 4825              	.LVL536:
 702:lvgl/lvgl/src/widgets/lv_dropdown.c **** 
 4826              		.loc 1 702 5 is_stmt 1 view .LVU1517
 704:lvgl/lvgl/src/widgets/lv_dropdown.c ****         if(lv_indev_get_scroll_obj(lv_indev_get_act()) == NULL) {
 4827              		.loc 1 704 5 view .LVU1518
 704:lvgl/lvgl/src/widgets/lv_dropdown.c ****         if(lv_indev_get_scroll_obj(lv_indev_get_act()) == NULL) {
 4828              		.loc 1 704 7 is_stmt 0 view .LVU1519
 4829 0026 082C     		cmp	r4, #8
 4830 0028 06D0     		beq	.L278
 709:lvgl/lvgl/src/widgets/lv_dropdown.c ****         list_press_handler(list);
ARM GAS  C:\Users\gx\AppData\Local\Temp\ccIqfrB9.s 			page 138


 4831              		.loc 1 709 10 is_stmt 1 view .LVU1520
 709:lvgl/lvgl/src/widgets/lv_dropdown.c ****         list_press_handler(list);
 4832              		.loc 1 709 12 is_stmt 0 view .LVU1521
 4833 002a 012C     		cmp	r4, #1
 4834 002c 0ED0     		beq	.L279
 712:lvgl/lvgl/src/widgets/lv_dropdown.c ****         dropdown->pr_opt_id = LV_DROPDOWN_PR_NONE;
 4835              		.loc 1 712 10 is_stmt 1 view .LVU1522
 712:lvgl/lvgl/src/widgets/lv_dropdown.c ****         dropdown->pr_opt_id = LV_DROPDOWN_PR_NONE;
 4836              		.loc 1 712 12 is_stmt 0 view .LVU1523
 4837 002e 092C     		cmp	r4, #9
 4838 0030 0FD0     		beq	.L280
 716:lvgl/lvgl/src/widgets/lv_dropdown.c ****         draw_list(e);
 4839              		.loc 1 716 10 is_stmt 1 view .LVU1524
 716:lvgl/lvgl/src/widgets/lv_dropdown.c ****         draw_list(e);
 4840              		.loc 1 716 12 is_stmt 0 view .LVU1525
 4841 0032 182C     		cmp	r4, #24
 4842 0034 13D0     		beq	.L281
 4843              	.LVL537:
 4844              	.L271:
 721:lvgl/lvgl/src/widgets/lv_dropdown.c **** 
 4845              		.loc 1 721 1 view .LVU1526
 4846 0036 70BD     		pop	{r4, r5, r6, pc}
 4847              	.LVL538:
 4848              	.L278:
 705:lvgl/lvgl/src/widgets/lv_dropdown.c ****             list_release_handler(list);
 4849              		.loc 1 705 9 is_stmt 1 view .LVU1527
 705:lvgl/lvgl/src/widgets/lv_dropdown.c ****             list_release_handler(list);
 4850              		.loc 1 705 36 is_stmt 0 view .LVU1528
 4851 0038 FFF7FEFF 		bl	lv_indev_get_act
 4852              	.LVL539:
 705:lvgl/lvgl/src/widgets/lv_dropdown.c ****             list_release_handler(list);
 4853              		.loc 1 705 12 view .LVU1529
 4854 003c FFF7FEFF 		bl	lv_indev_get_scroll_obj
 4855              	.LVL540:
 705:lvgl/lvgl/src/widgets/lv_dropdown.c ****             list_release_handler(list);
 4856              		.loc 1 705 11 view .LVU1530
 4857 0040 0028     		cmp	r0, #0
 4858 0042 F8D1     		bne	.L271
 706:lvgl/lvgl/src/widgets/lv_dropdown.c ****         }
 4859              		.loc 1 706 13 is_stmt 1 view .LVU1531
 4860 0044 3046     		mov	r0, r6
 4861 0046 FFF7FEFF 		bl	list_release_handler
 4862              	.LVL541:
 4863 004a F4E7     		b	.L271
 4864              	.LVL542:
 4865              	.L279:
 710:lvgl/lvgl/src/widgets/lv_dropdown.c ****     }
 4866              		.loc 1 710 9 view .LVU1532
 4867 004c FFF7FEFF 		bl	list_press_handler
 4868              	.LVL543:
 710:lvgl/lvgl/src/widgets/lv_dropdown.c ****     }
 4869              		.loc 1 710 9 is_stmt 0 view .LVU1533
 4870 0050 F1E7     		b	.L271
 4871              	.LVL544:
 4872              	.L280:
 713:lvgl/lvgl/src/widgets/lv_dropdown.c ****         lv_obj_invalidate(list);
 4873              		.loc 1 713 9 is_stmt 1 view .LVU1534
ARM GAS  C:\Users\gx\AppData\Local\Temp\ccIqfrB9.s 			page 139


 713:lvgl/lvgl/src/widgets/lv_dropdown.c ****         lv_obj_invalidate(list);
 4874              		.loc 1 713 29 is_stmt 0 view .LVU1535
 4875 0052 4FF6FF72 		movw	r2, #65535
 4876 0056 5A87     		strh	r2, [r3, #58]	@ movhi
 714:lvgl/lvgl/src/widgets/lv_dropdown.c ****     }
 4877              		.loc 1 714 9 is_stmt 1 view .LVU1536
 4878 0058 FFF7FEFF 		bl	lv_obj_invalidate
 4879              	.LVL545:
 714:lvgl/lvgl/src/widgets/lv_dropdown.c ****     }
 4880              		.loc 1 714 9 is_stmt 0 view .LVU1537
 4881 005c EBE7     		b	.L271
 4882              	.LVL546:
 4883              	.L281:
 717:lvgl/lvgl/src/widgets/lv_dropdown.c ****         res = lv_obj_event_base(MY_CLASS_LIST, e);
 4884              		.loc 1 717 9 is_stmt 1 view .LVU1538
 4885 005e 2846     		mov	r0, r5
 4886              	.LVL547:
 717:lvgl/lvgl/src/widgets/lv_dropdown.c ****         res = lv_obj_event_base(MY_CLASS_LIST, e);
 4887              		.loc 1 717 9 is_stmt 0 view .LVU1539
 4888 0060 FFF7FEFF 		bl	draw_list
 4889              	.LVL548:
 718:lvgl/lvgl/src/widgets/lv_dropdown.c ****         if(res != LV_RES_OK) return;
 4890              		.loc 1 718 9 is_stmt 1 view .LVU1540
 718:lvgl/lvgl/src/widgets/lv_dropdown.c ****         if(res != LV_RES_OK) return;
 4891              		.loc 1 718 15 is_stmt 0 view .LVU1541
 4892 0064 2946     		mov	r1, r5
 4893 0066 0248     		ldr	r0, .L282
 4894 0068 FFF7FEFF 		bl	lv_obj_event_base
 4895              	.LVL549:
 719:lvgl/lvgl/src/widgets/lv_dropdown.c ****     }
 4896              		.loc 1 719 9 is_stmt 1 view .LVU1542
 4897 006c E3E7     		b	.L271
 4898              	.L283:
 4899 006e 00BF     		.align	2
 4900              	.L282:
 4901 0070 00000000 		.word	.LANCHOR0
 4902              		.cfi_endproc
 4903              	.LFE185:
 4905              		.global	lv_dropdownlist_class
 4906              		.global	lv_dropdown_class
 4907              		.section	.rodata.__func__.10245,"a"
 4908              		.align	2
 4909              		.set	.LANCHOR2,. + 0
 4912              	__func__.10245:
 4913 0000 6C765F64 		.ascii	"lv_dropdown_set_options\000"
 4913      726F7064 
 4913      6F776E5F 
 4913      7365745F 
 4913      6F707469 
 4914              		.section	.rodata.__func__.10258,"a"
 4915              		.align	2
 4916              		.set	.LANCHOR3,. + 0
 4919              	__func__.10258:
 4920 0000 6C765F64 		.ascii	"lv_dropdown_set_options_static\000"
 4920      726F7064 
 4920      6F776E5F 
 4920      7365745F 
ARM GAS  C:\Users\gx\AppData\Local\Temp\ccIqfrB9.s 			page 140


 4920      6F707469 
 4921              		.section	.rodata.__func__.10270,"a"
 4922              		.align	2
 4923              		.set	.LANCHOR4,. + 0
 4926              	__func__.10270:
 4927 0000 6C765F64 		.ascii	"lv_dropdown_add_option\000"
 4927      726F7064 
 4927      6F776E5F 
 4927      6164645F 
 4927      6F707469 
 4928              		.section	.rodata.__func__.10344,"a"
 4929              		.align	2
 4930              		.set	.LANCHOR5,. + 0
 4933              	__func__.10344:
 4934 0000 6C765F64 		.ascii	"lv_dropdown_get_selected_str\000"
 4934      726F7064 
 4934      6F776E5F 
 4934      6765745F 
 4934      73656C65 
 4935              		.section	.rodata.lv_dropdown_class,"a"
 4936              		.align	2
 4937              		.set	.LANCHOR1,. + 0
 4940              	lv_dropdown_class:
 4941 0000 00000000 		.word	lv_obj_class
 4942 0004 00000000 		.word	lv_dropdown_constructor
 4943 0008 00000000 		.word	lv_dropdown_destructor
 4944 000c 00000000 		.space	4
 4945 0010 00000000 		.word	lv_dropdown_event
 4946 0014 8200     		.short	130
 4947 0016 D127     		.short	10193
 4948 0018 05       		.byte	5
 4949 0019 04       		.byte	4
 4950 001a 00       		.byte	0
 4951 001b 00       		.space	1
 4952              		.section	.rodata.lv_dropdownlist_class,"a"
 4953              		.align	2
 4954              		.set	.LANCHOR0,. + 0
 4957              	lv_dropdownlist_class:
 4958 0000 00000000 		.word	lv_obj_class
 4959 0004 00000000 		.word	lv_dropdownlist_constructor
 4960 0008 00000000 		.word	lv_dropdownlist_destructor
 4961 000c 00000000 		.space	4
 4962 0010 00000000 		.word	lv_dropdown_list_event
 4963 0014 00000000 		.space	4
 4964 0018 80       		.byte	128
 4965 0019 02       		.byte	2
 4966 001a 00       		.byte	0
 4967 001b 00       		.space	1
 4968              		.text
 4969              	.Letext0:
 4970              		.file 4 "c:\\program files (x86)\\gnu arm embedded toolchain\\9 2020-q2-update\\arm-none-eabi\\inc
 4971              		.file 5 "c:\\program files (x86)\\gnu arm embedded toolchain\\9 2020-q2-update\\arm-none-eabi\\inc
 4972              		.file 6 "c:\\program files (x86)\\gnu arm embedded toolchain\\9 2020-q2-update\\lib\\gcc\\arm-none
 4973              		.file 7 "c:\\program files (x86)\\gnu arm embedded toolchain\\9 2020-q2-update\\arm-none-eabi\\inc
 4974              		.file 8 "c:\\program files (x86)\\gnu arm embedded toolchain\\9 2020-q2-update\\arm-none-eabi\\inc
 4975              		.file 9 "c:\\program files (x86)\\gnu arm embedded toolchain\\9 2020-q2-update\\arm-none-eabi\\inc
 4976              		.file 10 "d:\\practise\\f407_disc\\lvgl\\lvgl\\src\\misc\\lv_area.h"
ARM GAS  C:\Users\gx\AppData\Local\Temp\ccIqfrB9.s 			page 141


 4977              		.file 11 "lvgl/lvgl/src/widgets/../core/../misc/lv_types.h"
 4978              		.file 12 "lvgl/lvgl/src/widgets/../core/../misc/lv_color.h"
 4979              		.file 13 "lvgl/lvgl/src/widgets/../core/../misc/lv_anim.h"
 4980              		.file 14 "lvgl/lvgl/src/widgets/../core/../misc/lv_txt.h"
 4981              		.file 15 "lvgl/lvgl/src/widgets/../core/../misc/lv_bidi.h"
 4982              		.file 16 "lvgl/lvgl/src/widgets/../core/../misc/lv_style.h"
 4983              		.file 17 "d:\\practise\\f407_disc\\lvgl\\lvgl\\src\\draw\\lv_img_buf.h"
 4984              		.file 18 "d:\\practise\\f407_disc\\lvgl\\lvgl\\src\\misc\\lv_ll.h"
 4985              		.file 19 "d:\\practise\\f407_disc\\lvgl\\lvgl\\src\\misc\\lv_timer.h"
 4986              		.file 20 "lvgl/lvgl/src/widgets/../core/../hal/lv_hal_disp.h"
 4987              		.file 21 "lvgl/lvgl/src/widgets/../core/lv_theme.h"
 4988              		.file 22 "lvgl/lvgl/src/widgets/../core/lv_obj.h"
 4989              		.file 23 "lvgl/lvgl/src/widgets/../core/../hal/lv_hal_indev.h"
 4990              		.file 24 "lvgl/lvgl/src/widgets/../core/lv_group.h"
 4991              		.file 25 "lvgl/lvgl/src/widgets/../core/lv_obj_scroll.h"
 4992              		.file 26 "lvgl/lvgl/src/widgets/../core/lv_obj_style.h"
 4993              		.file 27 "lvgl/lvgl/src/widgets/../core/../draw/lv_img_decoder.h"
 4994              		.file 28 "lvgl/lvgl/src/widgets/../core/../draw/lv_draw_rect.h"
 4995              		.file 29 "lvgl/lvgl/src/widgets/../core/../draw/lv_draw_label.h"
 4996              		.file 30 "lvgl/lvgl/src/widgets/../core/../draw/lv_draw_img.h"
 4997              		.file 31 "lvgl/lvgl/src/widgets/../core/lv_obj_class.h"
 4998              		.file 32 "lvgl/lvgl/src/widgets/../core/lv_event.h"
 4999              		.file 33 "lvgl/lvgl/src/widgets/../widgets/lv_label.h"
 5000              		.file 34 "lvgl/lvgl/src/widgets/lv_dropdown.h"
 5001              		.file 35 "lvgl/lvgl/src/widgets/../core/lv_obj_tree.h"
 5002              		.file 36 "lvgl/lvgl/src/widgets/../core/lv_obj_pos.h"
 5003              		.file 37 "lvgl/lvgl/src/widgets/../core/lv_indev.h"
 5004              		.file 38 "lvgl/lvgl/src/widgets/../core/lv_obj_draw.h"
 5005              		.file 39 "d:\\practise\\f407_disc\\lvgl\\lvgl\\src\\misc\\lv_mem.h"
 5006              		.file 40 "c:\\program files (x86)\\gnu arm embedded toolchain\\9 2020-q2-update\\arm-none-eabi\\in
 5007              		.file 41 "d:\\practise\\f407_disc\\lvgl\\lvgl\\src\\misc\\lv_log.h"
 5008              		.file 42 "<built-in>"
ARM GAS  C:\Users\gx\AppData\Local\Temp\ccIqfrB9.s 			page 142


DEFINED SYMBOLS
                            *ABS*:00000000 lv_dropdown.c
C:\Users\gx\AppData\Local\Temp\ccIqfrB9.s:18     .text.lv_dropdownlist_destructor:00000000 $t
C:\Users\gx\AppData\Local\Temp\ccIqfrB9.s:25     .text.lv_dropdownlist_destructor:00000000 lv_dropdownlist_destructor
C:\Users\gx\AppData\Local\Temp\ccIqfrB9.s:51     .text.get_label:00000000 $t
C:\Users\gx\AppData\Local\Temp\ccIqfrB9.s:57     .text.get_label:00000000 get_label
C:\Users\gx\AppData\Local\Temp\ccIqfrB9.s:94     .text.position_to_selected:00000000 $t
C:\Users\gx\AppData\Local\Temp\ccIqfrB9.s:100    .text.position_to_selected:00000000 position_to_selected
C:\Users\gx\AppData\Local\Temp\ccIqfrB9.s:221    .text.get_id_on_point:00000000 $t
C:\Users\gx\AppData\Local\Temp\ccIqfrB9.s:227    .text.get_id_on_point:00000000 get_id_on_point
C:\Users\gx\AppData\Local\Temp\ccIqfrB9.s:356    .text.lv_dropdown_destructor:00000000 $t
C:\Users\gx\AppData\Local\Temp\ccIqfrB9.s:362    .text.lv_dropdown_destructor:00000000 lv_dropdown_destructor
C:\Users\gx\AppData\Local\Temp\ccIqfrB9.s:418    .text.list_press_handler:00000000 $t
C:\Users\gx\AppData\Local\Temp\ccIqfrB9.s:424    .text.list_press_handler:00000000 list_press_handler
C:\Users\gx\AppData\Local\Temp\ccIqfrB9.s:505    .text.draw_box:00000000 $t
C:\Users\gx\AppData\Local\Temp\ccIqfrB9.s:511    .text.draw_box:00000000 draw_box
C:\Users\gx\AppData\Local\Temp\ccIqfrB9.s:714    .text.draw_box_label:00000000 $t
C:\Users\gx\AppData\Local\Temp\ccIqfrB9.s:720    .text.draw_box_label:00000000 draw_box_label
C:\Users\gx\AppData\Local\Temp\ccIqfrB9.s:933    .text.draw_list:00000000 $t
C:\Users\gx\AppData\Local\Temp\ccIqfrB9.s:939    .text.draw_list:00000000 draw_list
C:\Users\gx\AppData\Local\Temp\ccIqfrB9.s:1093   .text.lv_dropdownlist_constructor:00000000 $t
C:\Users\gx\AppData\Local\Temp\ccIqfrB9.s:1099   .text.lv_dropdownlist_constructor:00000000 lv_dropdownlist_constructor
C:\Users\gx\AppData\Local\Temp\ccIqfrB9.s:1142   .text.lv_dropdown_list_create:00000000 $t
C:\Users\gx\AppData\Local\Temp\ccIqfrB9.s:1148   .text.lv_dropdown_list_create:00000000 lv_dropdown_list_create
C:\Users\gx\AppData\Local\Temp\ccIqfrB9.s:1187   .text.lv_dropdown_list_create:00000014 $d
C:\Users\gx\AppData\Local\Temp\ccIqfrB9.s:1192   .text.lv_dropdown_create:00000000 $t
C:\Users\gx\AppData\Local\Temp\ccIqfrB9.s:1199   .text.lv_dropdown_create:00000000 lv_dropdown_create
C:\Users\gx\AppData\Local\Temp\ccIqfrB9.s:1238   .text.lv_dropdown_create:00000014 $d
C:\Users\gx\AppData\Local\Temp\ccIqfrB9.s:1243   .text.lv_dropdown_set_text:00000000 $t
C:\Users\gx\AppData\Local\Temp\ccIqfrB9.s:1250   .text.lv_dropdown_set_text:00000000 lv_dropdown_set_text
C:\Users\gx\AppData\Local\Temp\ccIqfrB9.s:1287   .rodata.lv_dropdown_set_options.str1.4:00000000 $d
C:\Users\gx\AppData\Local\Temp\ccIqfrB9.s:1306   .text.lv_dropdown_set_options:00000000 $t
C:\Users\gx\AppData\Local\Temp\ccIqfrB9.s:1313   .text.lv_dropdown_set_options:00000000 lv_dropdown_set_options
C:\Users\gx\AppData\Local\Temp\ccIqfrB9.s:1500   .text.lv_dropdown_set_options:000000a4 $d
C:\Users\gx\AppData\Local\Temp\ccIqfrB9.s:1511   .text.lv_dropdown_set_options_static:00000000 $t
C:\Users\gx\AppData\Local\Temp\ccIqfrB9.s:1518   .text.lv_dropdown_set_options_static:00000000 lv_dropdown_set_options_static
C:\Users\gx\AppData\Local\Temp\ccIqfrB9.s:1654   .text.lv_dropdown_set_options_static:0000006c $d
C:\Users\gx\AppData\Local\Temp\ccIqfrB9.s:1663   .rodata.lv_dropdown_constructor.str1.4:00000000 $d
C:\Users\gx\AppData\Local\Temp\ccIqfrB9.s:1670   .text.lv_dropdown_constructor:00000000 $t
C:\Users\gx\AppData\Local\Temp\ccIqfrB9.s:1676   .text.lv_dropdown_constructor:00000000 lv_dropdown_constructor
C:\Users\gx\AppData\Local\Temp\ccIqfrB9.s:1759   .text.lv_dropdown_constructor:00000044 $d
C:\Users\gx\AppData\Local\Temp\ccIqfrB9.s:1765   .rodata.lv_dropdown_add_option.str1.4:00000000 $d
C:\Users\gx\AppData\Local\Temp\ccIqfrB9.s:1775   .text.lv_dropdown_add_option:00000000 $t
C:\Users\gx\AppData\Local\Temp\ccIqfrB9.s:1782   .text.lv_dropdown_add_option:00000000 lv_dropdown_add_option
C:\Users\gx\AppData\Local\Temp\ccIqfrB9.s:2163   .text.lv_dropdown_add_option:00000174 $d
C:\Users\gx\AppData\Local\Temp\ccIqfrB9.s:2177   .text.lv_dropdown_clear_options:00000000 $t
C:\Users\gx\AppData\Local\Temp\ccIqfrB9.s:2184   .text.lv_dropdown_clear_options:00000000 lv_dropdown_clear_options
C:\Users\gx\AppData\Local\Temp\ccIqfrB9.s:2245   .text.lv_dropdown_set_selected:00000000 $t
C:\Users\gx\AppData\Local\Temp\ccIqfrB9.s:2252   .text.lv_dropdown_set_selected:00000000 lv_dropdown_set_selected
C:\Users\gx\AppData\Local\Temp\ccIqfrB9.s:2303   .text.lv_dropdown_set_dir:00000000 $t
C:\Users\gx\AppData\Local\Temp\ccIqfrB9.s:2310   .text.lv_dropdown_set_dir:00000000 lv_dropdown_set_dir
C:\Users\gx\AppData\Local\Temp\ccIqfrB9.s:2350   .text.lv_dropdown_set_symbol:00000000 $t
C:\Users\gx\AppData\Local\Temp\ccIqfrB9.s:2357   .text.lv_dropdown_set_symbol:00000000 lv_dropdown_set_symbol
C:\Users\gx\AppData\Local\Temp\ccIqfrB9.s:2387   .text.lv_dropdown_set_selected_highlight:00000000 $t
C:\Users\gx\AppData\Local\Temp\ccIqfrB9.s:2394   .text.lv_dropdown_set_selected_highlight:00000000 lv_dropdown_set_selected_highlight
C:\Users\gx\AppData\Local\Temp\ccIqfrB9.s:2433   .text.lv_dropdown_get_list:00000000 $t
C:\Users\gx\AppData\Local\Temp\ccIqfrB9.s:2440   .text.lv_dropdown_get_list:00000000 lv_dropdown_get_list
ARM GAS  C:\Users\gx\AppData\Local\Temp\ccIqfrB9.s 			page 143


C:\Users\gx\AppData\Local\Temp\ccIqfrB9.s:2462   .text.lv_dropdown_get_text:00000000 $t
C:\Users\gx\AppData\Local\Temp\ccIqfrB9.s:2469   .text.lv_dropdown_get_text:00000000 lv_dropdown_get_text
C:\Users\gx\AppData\Local\Temp\ccIqfrB9.s:2491   .rodata.lv_dropdown_get_options.str1.4:00000000 $d
C:\Users\gx\AppData\Local\Temp\ccIqfrB9.s:2495   .text.lv_dropdown_get_options:00000000 $t
C:\Users\gx\AppData\Local\Temp\ccIqfrB9.s:2502   .text.lv_dropdown_get_options:00000000 lv_dropdown_get_options
C:\Users\gx\AppData\Local\Temp\ccIqfrB9.s:2530   .text.lv_dropdown_get_options:0000000c $d
C:\Users\gx\AppData\Local\Temp\ccIqfrB9.s:2535   .text.lv_dropdown_get_selected:00000000 $t
C:\Users\gx\AppData\Local\Temp\ccIqfrB9.s:2542   .text.lv_dropdown_get_selected:00000000 lv_dropdown_get_selected
C:\Users\gx\AppData\Local\Temp\ccIqfrB9.s:2564   .text.lv_dropdown_get_option_cnt:00000000 $t
C:\Users\gx\AppData\Local\Temp\ccIqfrB9.s:2571   .text.lv_dropdown_get_option_cnt:00000000 lv_dropdown_get_option_cnt
C:\Users\gx\AppData\Local\Temp\ccIqfrB9.s:2593   .rodata.lv_dropdown_get_selected_str.str1.4:00000000 $d
C:\Users\gx\AppData\Local\Temp\ccIqfrB9.s:2598   .text.lv_dropdown_get_selected_str:00000000 $t
C:\Users\gx\AppData\Local\Temp\ccIqfrB9.s:2605   .text.lv_dropdown_get_selected_str:00000000 lv_dropdown_get_selected_str
C:\Users\gx\AppData\Local\Temp\ccIqfrB9.s:2754   .text.lv_dropdown_get_selected_str:00000074 $d
C:\Users\gx\AppData\Local\Temp\ccIqfrB9.s:2761   .text.draw_main:00000000 $t
C:\Users\gx\AppData\Local\Temp\ccIqfrB9.s:2767   .text.draw_main:00000000 draw_main
C:\Users\gx\AppData\Local\Temp\ccIqfrB9.s:3380   .text.lv_dropdown_get_symbol:00000000 $t
C:\Users\gx\AppData\Local\Temp\ccIqfrB9.s:3387   .text.lv_dropdown_get_symbol:00000000 lv_dropdown_get_symbol
C:\Users\gx\AppData\Local\Temp\ccIqfrB9.s:3409   .text.lv_dropdown_get_selected_highlight:00000000 $t
C:\Users\gx\AppData\Local\Temp\ccIqfrB9.s:3416   .text.lv_dropdown_get_selected_highlight:00000000 lv_dropdown_get_selected_highlight
C:\Users\gx\AppData\Local\Temp\ccIqfrB9.s:3439   .text.lv_dropdown_get_dir:00000000 $t
C:\Users\gx\AppData\Local\Temp\ccIqfrB9.s:3446   .text.lv_dropdown_get_dir:00000000 lv_dropdown_get_dir
C:\Users\gx\AppData\Local\Temp\ccIqfrB9.s:3469   .text.lv_dropdown_open:00000000 $t
C:\Users\gx\AppData\Local\Temp\ccIqfrB9.s:3476   .text.lv_dropdown_open:00000000 lv_dropdown_open
C:\Users\gx\AppData\Local\Temp\ccIqfrB9.s:4033   .text.lv_dropdown_close:00000000 $t
C:\Users\gx\AppData\Local\Temp\ccIqfrB9.s:4040   .text.lv_dropdown_close:00000000 lv_dropdown_close
C:\Users\gx\AppData\Local\Temp\ccIqfrB9.s:4085   .text.btn_release_handler:00000000 $t
C:\Users\gx\AppData\Local\Temp\ccIqfrB9.s:4091   .text.btn_release_handler:00000000 btn_release_handler
C:\Users\gx\AppData\Local\Temp\ccIqfrB9.s:4238   .text.lv_dropdown_event:00000000 $t
C:\Users\gx\AppData\Local\Temp\ccIqfrB9.s:4244   .text.lv_dropdown_event:00000000 lv_dropdown_event
C:\Users\gx\AppData\Local\Temp\ccIqfrB9.s:4601   .text.lv_dropdown_event:0000012c $d
C:\Users\gx\AppData\Local\Temp\ccIqfrB9.s:4607   .text.list_release_handler:00000000 $t
C:\Users\gx\AppData\Local\Temp\ccIqfrB9.s:4613   .text.list_release_handler:00000000 list_release_handler
C:\Users\gx\AppData\Local\Temp\ccIqfrB9.s:4763   .text.lv_dropdown_list_event:00000000 $t
C:\Users\gx\AppData\Local\Temp\ccIqfrB9.s:4769   .text.lv_dropdown_list_event:00000000 lv_dropdown_list_event
C:\Users\gx\AppData\Local\Temp\ccIqfrB9.s:4901   .text.lv_dropdown_list_event:00000070 $d
C:\Users\gx\AppData\Local\Temp\ccIqfrB9.s:4957   .rodata.lv_dropdownlist_class:00000000 lv_dropdownlist_class
C:\Users\gx\AppData\Local\Temp\ccIqfrB9.s:4940   .rodata.lv_dropdown_class:00000000 lv_dropdown_class
C:\Users\gx\AppData\Local\Temp\ccIqfrB9.s:4908   .rodata.__func__.10245:00000000 $d
C:\Users\gx\AppData\Local\Temp\ccIqfrB9.s:4912   .rodata.__func__.10245:00000000 __func__.10245
C:\Users\gx\AppData\Local\Temp\ccIqfrB9.s:4915   .rodata.__func__.10258:00000000 $d
C:\Users\gx\AppData\Local\Temp\ccIqfrB9.s:4919   .rodata.__func__.10258:00000000 __func__.10258
C:\Users\gx\AppData\Local\Temp\ccIqfrB9.s:4922   .rodata.__func__.10270:00000000 $d
C:\Users\gx\AppData\Local\Temp\ccIqfrB9.s:4926   .rodata.__func__.10270:00000000 __func__.10270
C:\Users\gx\AppData\Local\Temp\ccIqfrB9.s:4929   .rodata.__func__.10344:00000000 $d
C:\Users\gx\AppData\Local\Temp\ccIqfrB9.s:4933   .rodata.__func__.10344:00000000 __func__.10344
C:\Users\gx\AppData\Local\Temp\ccIqfrB9.s:4936   .rodata.lv_dropdown_class:00000000 $d
C:\Users\gx\AppData\Local\Temp\ccIqfrB9.s:4953   .rodata.lv_dropdownlist_class:00000000 $d

UNDEFINED SYMBOLS
lv_obj_get_child
lv_obj_get_height
lv_obj_get_content_height
lv_obj_get_style_prop
lv_obj_scroll_to_y
lv_obj_invalidate
lv_obj_del
ARM GAS  C:\Users\gx\AppData\Local\Temp\ccIqfrB9.s 			page 144


lv_mem_free
lv_indev_get_act
lv_indev_get_type
lv_indev_get_point
lv_draw_rect_dsc_init
lv_obj_init_draw_rect_dsc
lv_draw_rect
lv_draw_label_dsc_init
lv_obj_init_draw_label_dsc
_lv_area_intersect
lv_label_get_text
lv_draw_label
lv_event_get_target
lv_event_get_param
lv_obj_clear_flag
lv_label_create
lv_obj_class_create_obj
lv_obj_class_init_obj
_lv_log_add
strlen
lv_mem_alloc
strcpy
lv_obj_add_flag
lv_mem_realloc
_lv_txt_ins
lv_mem_buf_get
lv_mem_buf_release
_lv_txt_encoded_get_char_id
lv_img_src_get_type
lv_img_decoder_get_info
lv_draw_img_dsc_init
lv_obj_init_draw_img_dsc
lv_draw_img
lv_txt_get_size
lv_obj_get_width
lv_obj_add_state
lv_event_send
lv_label_set_text_static
lv_obj_set_width
lv_obj_update_layout
lv_obj_set_height
lv_obj_calculate_style_text_align
lv_obj_align
lv_obj_get_screen
lv_disp_get_default
lv_disp_get_ver_res
lv_obj_align_to
lv_obj_get_y
lv_obj_get_y2
lv_obj_set_y
lv_obj_clear_state
lv_indev_get_scroll_obj
lv_obj_get_group
lv_group_set_editing
lv_obj_event_base
lv_event_get_code
lv_group_get_editing
ARM GAS  C:\Users\gx\AppData\Local\Temp\ccIqfrB9.s 			page 145


lv_obj_refresh_self_size
lv_obj_class
