ARM GAS  C:\Users\gx\AppData\Local\Temp\ccP7i1j8.s 			page 1


   1              		.cpu cortex-m4
   2              		.eabi_attribute 27, 1
   3              		.eabi_attribute 28, 1
   4              		.eabi_attribute 20, 1
   5              		.eabi_attribute 21, 1
   6              		.eabi_attribute 23, 3
   7              		.eabi_attribute 24, 1
   8              		.eabi_attribute 25, 1
   9              		.eabi_attribute 26, 1
  10              		.eabi_attribute 30, 1
  11              		.eabi_attribute 34, 1
  12              		.eabi_attribute 18, 4
  13              		.file	"lv_draw_rect.c"
  14              		.text
  15              	.Ltext0:
  16              		.cfi_sections	.debug_frame
  17              		.section	.text.draw_border_simple,"ax",%progbits
  18              		.align	1
  19              		.arch armv7e-m
  20              		.syntax unified
  21              		.thumb
  22              		.thumb_func
  23              		.fpu fpv4-sp-d16
  25              	draw_border_simple:
  26              	.LVL0:
  27              	.LFB163:
  28              		.file 1 "lvgl/lvgl/src/draw/lv_draw_rect.c"
   1:lvgl/lvgl/src/draw/lv_draw_rect.c **** /**
   2:lvgl/lvgl/src/draw/lv_draw_rect.c ****  * @file lv_draw_rect.c
   3:lvgl/lvgl/src/draw/lv_draw_rect.c ****  *
   4:lvgl/lvgl/src/draw/lv_draw_rect.c ****  */
   5:lvgl/lvgl/src/draw/lv_draw_rect.c **** 
   6:lvgl/lvgl/src/draw/lv_draw_rect.c **** /*********************
   7:lvgl/lvgl/src/draw/lv_draw_rect.c ****  *      INCLUDES
   8:lvgl/lvgl/src/draw/lv_draw_rect.c ****  *********************/
   9:lvgl/lvgl/src/draw/lv_draw_rect.c **** #include "lv_draw_rect.h"
  10:lvgl/lvgl/src/draw/lv_draw_rect.c **** #include "lv_draw_blend.h"
  11:lvgl/lvgl/src/draw/lv_draw_rect.c **** #include "lv_draw_mask.h"
  12:lvgl/lvgl/src/draw/lv_draw_rect.c **** #include "../misc/lv_math.h"
  13:lvgl/lvgl/src/draw/lv_draw_rect.c **** #include "../misc/lv_txt_ap.h"
  14:lvgl/lvgl/src/draw/lv_draw_rect.c **** #include "../core/lv_refr.h"
  15:lvgl/lvgl/src/draw/lv_draw_rect.c **** #include "../misc/lv_assert.h"
  16:lvgl/lvgl/src/draw/lv_draw_rect.c **** 
  17:lvgl/lvgl/src/draw/lv_draw_rect.c **** /*********************
  18:lvgl/lvgl/src/draw/lv_draw_rect.c ****  *      DEFINES
  19:lvgl/lvgl/src/draw/lv_draw_rect.c ****  *********************/
  20:lvgl/lvgl/src/draw/lv_draw_rect.c **** #define SHADOW_UPSCALE_SHIFT   6
  21:lvgl/lvgl/src/draw/lv_draw_rect.c **** #define SHADOW_ENHANCE          1
  22:lvgl/lvgl/src/draw/lv_draw_rect.c **** #define SPLIT_LIMIT             50
  23:lvgl/lvgl/src/draw/lv_draw_rect.c **** 
  24:lvgl/lvgl/src/draw/lv_draw_rect.c **** /**********************
  25:lvgl/lvgl/src/draw/lv_draw_rect.c ****  *      TYPEDEFS
  26:lvgl/lvgl/src/draw/lv_draw_rect.c ****  **********************/
  27:lvgl/lvgl/src/draw/lv_draw_rect.c **** 
  28:lvgl/lvgl/src/draw/lv_draw_rect.c **** /**********************
  29:lvgl/lvgl/src/draw/lv_draw_rect.c ****  *  STATIC PROTOTYPES
  30:lvgl/lvgl/src/draw/lv_draw_rect.c ****  **********************/
ARM GAS  C:\Users\gx\AppData\Local\Temp\ccP7i1j8.s 			page 2


  31:lvgl/lvgl/src/draw/lv_draw_rect.c **** LV_ATTRIBUTE_FAST_MEM static void draw_bg(const lv_area_t * coords, const lv_area_t * clip_area,
  32:lvgl/lvgl/src/draw/lv_draw_rect.c ****                                           const lv_draw_rect_dsc_t * dsc);
  33:lvgl/lvgl/src/draw/lv_draw_rect.c **** LV_ATTRIBUTE_FAST_MEM static void draw_bg_img(const lv_area_t * coords, const lv_area_t * clip,
  34:lvgl/lvgl/src/draw/lv_draw_rect.c ****                                           const lv_draw_rect_dsc_t * dsc);
  35:lvgl/lvgl/src/draw/lv_draw_rect.c **** LV_ATTRIBUTE_FAST_MEM static void draw_border(const lv_area_t * coords, const lv_area_t * clip,
  36:lvgl/lvgl/src/draw/lv_draw_rect.c ****                                               const lv_draw_rect_dsc_t * dsc);
  37:lvgl/lvgl/src/draw/lv_draw_rect.c **** 
  38:lvgl/lvgl/src/draw/lv_draw_rect.c **** static void draw_outline(const lv_area_t * coords, const lv_area_t * clip, const lv_draw_rect_dsc_t
  39:lvgl/lvgl/src/draw/lv_draw_rect.c **** 
  40:lvgl/lvgl/src/draw/lv_draw_rect.c **** #if LV_DRAW_COMPLEX
  41:lvgl/lvgl/src/draw/lv_draw_rect.c **** LV_ATTRIBUTE_FAST_MEM static void draw_shadow(const lv_area_t * coords, const lv_area_t * clip,
  42:lvgl/lvgl/src/draw/lv_draw_rect.c ****                                               const lv_draw_rect_dsc_t * dsc);
  43:lvgl/lvgl/src/draw/lv_draw_rect.c **** LV_ATTRIBUTE_FAST_MEM static void shadow_draw_corner_buf(const lv_area_t * coords,  uint16_t * sh_b
  44:lvgl/lvgl/src/draw/lv_draw_rect.c ****                                                          lv_coord_t r);
  45:lvgl/lvgl/src/draw/lv_draw_rect.c **** LV_ATTRIBUTE_FAST_MEM static void shadow_blur_corner(lv_coord_t size, lv_coord_t sw, uint16_t * sh_
  46:lvgl/lvgl/src/draw/lv_draw_rect.c **** #endif
  47:lvgl/lvgl/src/draw/lv_draw_rect.c **** 
  48:lvgl/lvgl/src/draw/lv_draw_rect.c **** void draw_border_generic(const lv_area_t * clip_area, const lv_area_t * outer_area, const lv_area_t
  49:lvgl/lvgl/src/draw/lv_draw_rect.c ****                          lv_coord_t rout, lv_coord_t rin, lv_color_t color, lv_opa_t opa, lv_blend_
  50:lvgl/lvgl/src/draw/lv_draw_rect.c **** 
  51:lvgl/lvgl/src/draw/lv_draw_rect.c **** static void draw_border_simple(const lv_area_t * clip, const lv_area_t * outer_area, const lv_area_
  52:lvgl/lvgl/src/draw/lv_draw_rect.c ****         lv_color_t color, lv_opa_t opa);
  53:lvgl/lvgl/src/draw/lv_draw_rect.c **** 
  54:lvgl/lvgl/src/draw/lv_draw_rect.c **** #if LV_DRAW_COMPLEX
  55:lvgl/lvgl/src/draw/lv_draw_rect.c **** LV_ATTRIBUTE_FAST_MEM static inline lv_color_t grad_get(const lv_draw_rect_dsc_t * dsc, lv_coord_t 
  56:lvgl/lvgl/src/draw/lv_draw_rect.c **** #endif
  57:lvgl/lvgl/src/draw/lv_draw_rect.c **** 
  58:lvgl/lvgl/src/draw/lv_draw_rect.c **** /**********************
  59:lvgl/lvgl/src/draw/lv_draw_rect.c ****  *  STATIC VARIABLES
  60:lvgl/lvgl/src/draw/lv_draw_rect.c ****  **********************/
  61:lvgl/lvgl/src/draw/lv_draw_rect.c **** #if defined(LV_SHADOW_CACHE_SIZE) && LV_SHADOW_CACHE_SIZE > 0
  62:lvgl/lvgl/src/draw/lv_draw_rect.c ****     static uint8_t sh_cache[LV_SHADOW_CACHE_SIZE * LV_SHADOW_CACHE_SIZE];
  63:lvgl/lvgl/src/draw/lv_draw_rect.c ****     static int32_t sh_cache_size = -1;
  64:lvgl/lvgl/src/draw/lv_draw_rect.c ****     static int32_t sh_cache_r = -1;
  65:lvgl/lvgl/src/draw/lv_draw_rect.c **** #endif
  66:lvgl/lvgl/src/draw/lv_draw_rect.c **** 
  67:lvgl/lvgl/src/draw/lv_draw_rect.c **** /**********************
  68:lvgl/lvgl/src/draw/lv_draw_rect.c ****  *      MACROS
  69:lvgl/lvgl/src/draw/lv_draw_rect.c ****  **********************/
  70:lvgl/lvgl/src/draw/lv_draw_rect.c **** 
  71:lvgl/lvgl/src/draw/lv_draw_rect.c **** /**********************
  72:lvgl/lvgl/src/draw/lv_draw_rect.c ****  *   GLOBAL FUNCTIONS
  73:lvgl/lvgl/src/draw/lv_draw_rect.c ****  **********************/
  74:lvgl/lvgl/src/draw/lv_draw_rect.c **** 
  75:lvgl/lvgl/src/draw/lv_draw_rect.c **** LV_ATTRIBUTE_FAST_MEM void lv_draw_rect_dsc_init(lv_draw_rect_dsc_t * dsc)
  76:lvgl/lvgl/src/draw/lv_draw_rect.c **** {
  77:lvgl/lvgl/src/draw/lv_draw_rect.c ****     lv_memset_00(dsc, sizeof(lv_draw_rect_dsc_t));
  78:lvgl/lvgl/src/draw/lv_draw_rect.c ****     dsc->bg_color = lv_color_white();
  79:lvgl/lvgl/src/draw/lv_draw_rect.c ****     dsc->bg_grad_color = lv_color_black();
  80:lvgl/lvgl/src/draw/lv_draw_rect.c ****     dsc->border_color = lv_color_black();
  81:lvgl/lvgl/src/draw/lv_draw_rect.c ****     dsc->shadow_color = lv_color_black();
  82:lvgl/lvgl/src/draw/lv_draw_rect.c ****     dsc->bg_grad_color_stop = 0xFF;
  83:lvgl/lvgl/src/draw/lv_draw_rect.c ****     dsc->bg_img_symbol_font = LV_FONT_DEFAULT;
  84:lvgl/lvgl/src/draw/lv_draw_rect.c ****     dsc->bg_opa = LV_OPA_COVER;
  85:lvgl/lvgl/src/draw/lv_draw_rect.c ****     dsc->bg_img_opa = LV_OPA_COVER;
  86:lvgl/lvgl/src/draw/lv_draw_rect.c ****     dsc->outline_opa = LV_OPA_COVER;
  87:lvgl/lvgl/src/draw/lv_draw_rect.c ****     dsc->border_opa = LV_OPA_COVER;
ARM GAS  C:\Users\gx\AppData\Local\Temp\ccP7i1j8.s 			page 3


  88:lvgl/lvgl/src/draw/lv_draw_rect.c ****     dsc->shadow_opa = LV_OPA_COVER;
  89:lvgl/lvgl/src/draw/lv_draw_rect.c ****     dsc->border_side = LV_BORDER_SIDE_FULL;
  90:lvgl/lvgl/src/draw/lv_draw_rect.c **** }
  91:lvgl/lvgl/src/draw/lv_draw_rect.c **** 
  92:lvgl/lvgl/src/draw/lv_draw_rect.c **** /**
  93:lvgl/lvgl/src/draw/lv_draw_rect.c ****  * Draw a rectangle
  94:lvgl/lvgl/src/draw/lv_draw_rect.c ****  * @param coords the coordinates of the rectangle
  95:lvgl/lvgl/src/draw/lv_draw_rect.c ****  * @param mask the rectangle will be drawn only in this mask
  96:lvgl/lvgl/src/draw/lv_draw_rect.c ****  * @param dsc pointer to an initialized `lv_draw_rect_dsc_t` variable
  97:lvgl/lvgl/src/draw/lv_draw_rect.c ****  */
  98:lvgl/lvgl/src/draw/lv_draw_rect.c **** void lv_draw_rect(const lv_area_t * coords, const lv_area_t * clip, const lv_draw_rect_dsc_t * dsc)
  99:lvgl/lvgl/src/draw/lv_draw_rect.c **** {
 100:lvgl/lvgl/src/draw/lv_draw_rect.c ****     if(lv_area_get_height(coords) < 1 || lv_area_get_width(coords) < 1) return;
 101:lvgl/lvgl/src/draw/lv_draw_rect.c **** #if LV_DRAW_COMPLEX
 102:lvgl/lvgl/src/draw/lv_draw_rect.c ****     draw_shadow(coords, clip, dsc);
 103:lvgl/lvgl/src/draw/lv_draw_rect.c **** #endif
 104:lvgl/lvgl/src/draw/lv_draw_rect.c **** 
 105:lvgl/lvgl/src/draw/lv_draw_rect.c ****     draw_bg(coords, clip, dsc);
 106:lvgl/lvgl/src/draw/lv_draw_rect.c ****     draw_bg_img(coords, clip, dsc);
 107:lvgl/lvgl/src/draw/lv_draw_rect.c **** 
 108:lvgl/lvgl/src/draw/lv_draw_rect.c ****     draw_border(coords, clip, dsc);
 109:lvgl/lvgl/src/draw/lv_draw_rect.c **** 
 110:lvgl/lvgl/src/draw/lv_draw_rect.c ****     draw_outline(coords, clip, dsc);
 111:lvgl/lvgl/src/draw/lv_draw_rect.c **** 
 112:lvgl/lvgl/src/draw/lv_draw_rect.c ****     LV_ASSERT_MEM_INTEGRITY();
 113:lvgl/lvgl/src/draw/lv_draw_rect.c **** }
 114:lvgl/lvgl/src/draw/lv_draw_rect.c **** 
 115:lvgl/lvgl/src/draw/lv_draw_rect.c **** /**********************
 116:lvgl/lvgl/src/draw/lv_draw_rect.c ****  *   STATIC FUNCTIONS
 117:lvgl/lvgl/src/draw/lv_draw_rect.c ****  **********************/
 118:lvgl/lvgl/src/draw/lv_draw_rect.c **** 
 119:lvgl/lvgl/src/draw/lv_draw_rect.c **** LV_ATTRIBUTE_FAST_MEM static void draw_bg(const lv_area_t * coords, const lv_area_t * clip_area,
 120:lvgl/lvgl/src/draw/lv_draw_rect.c ****                                           const lv_draw_rect_dsc_t * dsc)
 121:lvgl/lvgl/src/draw/lv_draw_rect.c **** {
 122:lvgl/lvgl/src/draw/lv_draw_rect.c ****     if(dsc->bg_opa <= LV_OPA_MIN) return;
 123:lvgl/lvgl/src/draw/lv_draw_rect.c **** 
 124:lvgl/lvgl/src/draw/lv_draw_rect.c ****     lv_area_t coords_bg;
 125:lvgl/lvgl/src/draw/lv_draw_rect.c ****     lv_area_copy(&coords_bg, coords);
 126:lvgl/lvgl/src/draw/lv_draw_rect.c **** 
 127:lvgl/lvgl/src/draw/lv_draw_rect.c ****     /*If the border fully covers make the bg area 1px smaller to avoid artifacts on the corners*/
 128:lvgl/lvgl/src/draw/lv_draw_rect.c ****     if(dsc->border_width > 1 && dsc->border_opa >= LV_OPA_MAX && dsc->radius != 0) {
 129:lvgl/lvgl/src/draw/lv_draw_rect.c ****         coords_bg.x1 += (dsc->border_side & LV_BORDER_SIDE_LEFT) ? 1 : 0;
 130:lvgl/lvgl/src/draw/lv_draw_rect.c ****         coords_bg.y1 += (dsc->border_side & LV_BORDER_SIDE_TOP) ? 1 : 0;
 131:lvgl/lvgl/src/draw/lv_draw_rect.c ****         coords_bg.x2 -= (dsc->border_side & LV_BORDER_SIDE_RIGHT) ? 1 : 0;
 132:lvgl/lvgl/src/draw/lv_draw_rect.c ****         coords_bg.y2 -= (dsc->border_side & LV_BORDER_SIDE_BOTTOM) ? 1 : 0;
 133:lvgl/lvgl/src/draw/lv_draw_rect.c ****     }
 134:lvgl/lvgl/src/draw/lv_draw_rect.c **** 
 135:lvgl/lvgl/src/draw/lv_draw_rect.c ****     lv_opa_t opa = dsc->bg_opa >= LV_OPA_MAX ? LV_OPA_COVER : dsc->bg_opa;
 136:lvgl/lvgl/src/draw/lv_draw_rect.c ****     lv_grad_dir_t grad_dir = dsc->bg_grad_dir;
 137:lvgl/lvgl/src/draw/lv_draw_rect.c ****     if(dsc->bg_color.full == dsc->bg_grad_color.full) grad_dir = LV_GRAD_DIR_NONE;
 138:lvgl/lvgl/src/draw/lv_draw_rect.c **** 
 139:lvgl/lvgl/src/draw/lv_draw_rect.c ****     bool mask_any = lv_draw_mask_is_any(&coords_bg);
 140:lvgl/lvgl/src/draw/lv_draw_rect.c **** 
 141:lvgl/lvgl/src/draw/lv_draw_rect.c ****     /*Most simple case: just a plain rectangle*/
 142:lvgl/lvgl/src/draw/lv_draw_rect.c ****     if(!mask_any && dsc->radius == 0 && (grad_dir == LV_GRAD_DIR_NONE)) {
 143:lvgl/lvgl/src/draw/lv_draw_rect.c ****         _lv_blend_fill(clip_area, &coords_bg, dsc->bg_color, NULL,
 144:lvgl/lvgl/src/draw/lv_draw_rect.c ****                        LV_DRAW_MASK_RES_FULL_COVER, opa, dsc->blend_mode);
ARM GAS  C:\Users\gx\AppData\Local\Temp\ccP7i1j8.s 			page 4


 145:lvgl/lvgl/src/draw/lv_draw_rect.c ****         return;
 146:lvgl/lvgl/src/draw/lv_draw_rect.c ****     }
 147:lvgl/lvgl/src/draw/lv_draw_rect.c **** 
 148:lvgl/lvgl/src/draw/lv_draw_rect.c ****     /*Complex case: there is gradient, mask, or radius*/
 149:lvgl/lvgl/src/draw/lv_draw_rect.c **** #if LV_DRAW_COMPLEX == 0
 150:lvgl/lvgl/src/draw/lv_draw_rect.c ****     LV_LOG_WARN("Can't draw complex rectangle because LV_DRAW_COMPLEX = 0")
 151:lvgl/lvgl/src/draw/lv_draw_rect.c **** #else
 152:lvgl/lvgl/src/draw/lv_draw_rect.c ****     /*Get clipped fill area which is the real draw area.
 153:lvgl/lvgl/src/draw/lv_draw_rect.c ****      *It is always the same or inside `fill_area`*/
 154:lvgl/lvgl/src/draw/lv_draw_rect.c ****     lv_area_t draw_area;
 155:lvgl/lvgl/src/draw/lv_draw_rect.c ****     if(!_lv_area_intersect(&draw_area, &coords_bg, clip_area)) return;
 156:lvgl/lvgl/src/draw/lv_draw_rect.c **** 
 157:lvgl/lvgl/src/draw/lv_draw_rect.c ****     /*Get the real radius. Can't be larger than the half of the shortest side */
 158:lvgl/lvgl/src/draw/lv_draw_rect.c ****     lv_coord_t coords_w = lv_area_get_width(&coords_bg);
 159:lvgl/lvgl/src/draw/lv_draw_rect.c ****     lv_coord_t coords_h = lv_area_get_height(&coords_bg);
 160:lvgl/lvgl/src/draw/lv_draw_rect.c ****     int32_t short_side = LV_MIN(coords_w, coords_h);
 161:lvgl/lvgl/src/draw/lv_draw_rect.c ****     int32_t rout = LV_MIN(dsc->radius, short_side >> 1);
 162:lvgl/lvgl/src/draw/lv_draw_rect.c **** 
 163:lvgl/lvgl/src/draw/lv_draw_rect.c ****     /*Add a radius mask if there is radius*/
 164:lvgl/lvgl/src/draw/lv_draw_rect.c ****     int32_t draw_area_w = lv_area_get_width(&draw_area);
 165:lvgl/lvgl/src/draw/lv_draw_rect.c ****     int16_t mask_rout_id = LV_MASK_ID_INV;
 166:lvgl/lvgl/src/draw/lv_draw_rect.c ****     lv_opa_t * mask_buf = NULL;
 167:lvgl/lvgl/src/draw/lv_draw_rect.c ****     lv_draw_mask_radius_param_t mask_rout_param;
 168:lvgl/lvgl/src/draw/lv_draw_rect.c ****     if(rout > 0 || mask_any) {
 169:lvgl/lvgl/src/draw/lv_draw_rect.c ****         mask_buf = lv_mem_buf_get(draw_area_w);
 170:lvgl/lvgl/src/draw/lv_draw_rect.c ****         lv_draw_mask_radius_init(&mask_rout_param, &coords_bg, rout, false);
 171:lvgl/lvgl/src/draw/lv_draw_rect.c ****         mask_rout_id = lv_draw_mask_add(&mask_rout_param, NULL);
 172:lvgl/lvgl/src/draw/lv_draw_rect.c ****     }
 173:lvgl/lvgl/src/draw/lv_draw_rect.c **** 
 174:lvgl/lvgl/src/draw/lv_draw_rect.c ****     /*In case of horizontal gradient pre-compute a line with a gradient*/
 175:lvgl/lvgl/src/draw/lv_draw_rect.c ****     lv_color_t * grad_map = NULL;
 176:lvgl/lvgl/src/draw/lv_draw_rect.c ****     if(grad_dir == LV_GRAD_DIR_HOR) {
 177:lvgl/lvgl/src/draw/lv_draw_rect.c ****         grad_map = lv_mem_buf_get(coords_w * sizeof(lv_color_t));
 178:lvgl/lvgl/src/draw/lv_draw_rect.c ****         int32_t i;
 179:lvgl/lvgl/src/draw/lv_draw_rect.c ****         for(i = 0; i < coords_w; i++) {
 180:lvgl/lvgl/src/draw/lv_draw_rect.c ****             grad_map[i] = grad_get(dsc, coords_w, i);
 181:lvgl/lvgl/src/draw/lv_draw_rect.c ****         }
 182:lvgl/lvgl/src/draw/lv_draw_rect.c ****     }
 183:lvgl/lvgl/src/draw/lv_draw_rect.c **** 
 184:lvgl/lvgl/src/draw/lv_draw_rect.c ****     int32_t h;
 185:lvgl/lvgl/src/draw/lv_draw_rect.c ****     lv_draw_mask_res_t mask_res;
 186:lvgl/lvgl/src/draw/lv_draw_rect.c ****     lv_area_t blend_area;
 187:lvgl/lvgl/src/draw/lv_draw_rect.c ****     blend_area.x1 = draw_area.x1;
 188:lvgl/lvgl/src/draw/lv_draw_rect.c ****     blend_area.x2 = draw_area.x2;
 189:lvgl/lvgl/src/draw/lv_draw_rect.c **** 
 190:lvgl/lvgl/src/draw/lv_draw_rect.c **** 
 191:lvgl/lvgl/src/draw/lv_draw_rect.c ****     /*There is an other mask too. Draw line by line. */
 192:lvgl/lvgl/src/draw/lv_draw_rect.c ****     if(mask_any) {
 193:lvgl/lvgl/src/draw/lv_draw_rect.c ****         for(h = draw_area.y1; h <= draw_area.y2; h++) {
 194:lvgl/lvgl/src/draw/lv_draw_rect.c ****             blend_area.y1 = h;
 195:lvgl/lvgl/src/draw/lv_draw_rect.c ****             blend_area.y2 = h;
 196:lvgl/lvgl/src/draw/lv_draw_rect.c **** 
 197:lvgl/lvgl/src/draw/lv_draw_rect.c ****             /* Initialize the mask to opa instead of 0xFF and blend with LV_OPA_COVER.
 198:lvgl/lvgl/src/draw/lv_draw_rect.c ****              * It saves calculating the final opa in _lv_blend_fill*/
 199:lvgl/lvgl/src/draw/lv_draw_rect.c ****             lv_memset(mask_buf, opa, draw_area_w);
 200:lvgl/lvgl/src/draw/lv_draw_rect.c ****             mask_res = lv_draw_mask_apply(mask_buf, draw_area.x1, h, draw_area_w);
 201:lvgl/lvgl/src/draw/lv_draw_rect.c **** 
ARM GAS  C:\Users\gx\AppData\Local\Temp\ccP7i1j8.s 			page 5


 202:lvgl/lvgl/src/draw/lv_draw_rect.c ****             if(grad_dir == LV_GRAD_DIR_NONE) {
 203:lvgl/lvgl/src/draw/lv_draw_rect.c ****                 _lv_blend_fill(clip_area, &blend_area, dsc->bg_color, mask_buf, mask_res, LV_OPA_CO
 204:lvgl/lvgl/src/draw/lv_draw_rect.c ****             }
 205:lvgl/lvgl/src/draw/lv_draw_rect.c ****             else if(grad_dir == LV_GRAD_DIR_HOR) {
 206:lvgl/lvgl/src/draw/lv_draw_rect.c ****                 _lv_blend_map(clip_area, &blend_area, grad_map, mask_buf, mask_res, LV_OPA_COVER, d
 207:lvgl/lvgl/src/draw/lv_draw_rect.c ****             }
 208:lvgl/lvgl/src/draw/lv_draw_rect.c ****             else if(grad_dir == LV_GRAD_DIR_VER) {
 209:lvgl/lvgl/src/draw/lv_draw_rect.c ****                 lv_color_t c = grad_get(dsc, coords_h, h - coords_bg.y1);
 210:lvgl/lvgl/src/draw/lv_draw_rect.c ****                 _lv_blend_fill(clip_area, &blend_area, c, mask_buf, mask_res, LV_OPA_COVER, dsc->bl
 211:lvgl/lvgl/src/draw/lv_draw_rect.c ****             }
 212:lvgl/lvgl/src/draw/lv_draw_rect.c ****         }
 213:lvgl/lvgl/src/draw/lv_draw_rect.c ****         goto bg_clean_up;
 214:lvgl/lvgl/src/draw/lv_draw_rect.c ****     }
 215:lvgl/lvgl/src/draw/lv_draw_rect.c **** 
 216:lvgl/lvgl/src/draw/lv_draw_rect.c **** 
 217:lvgl/lvgl/src/draw/lv_draw_rect.c ****     /* Draw the top of the rectangle line by line and mirror it to the bottom.
 218:lvgl/lvgl/src/draw/lv_draw_rect.c ****      * If there is no radius this cycle won't run because `h` is always `>= h_end`*/
 219:lvgl/lvgl/src/draw/lv_draw_rect.c ****     blend_area.x1 = draw_area.x1;
 220:lvgl/lvgl/src/draw/lv_draw_rect.c ****     blend_area.x2 = draw_area.x2;
 221:lvgl/lvgl/src/draw/lv_draw_rect.c ****     for(h = 0; h < rout; h++) {
 222:lvgl/lvgl/src/draw/lv_draw_rect.c ****         lv_coord_t top_y = coords_bg.y1 + h;
 223:lvgl/lvgl/src/draw/lv_draw_rect.c ****         lv_coord_t bottom_y = coords_bg.y2 - h;
 224:lvgl/lvgl/src/draw/lv_draw_rect.c ****         if(top_y < draw_area.y1 && bottom_y > draw_area.y2) continue;   /*This line is clipped now*
 225:lvgl/lvgl/src/draw/lv_draw_rect.c **** 
 226:lvgl/lvgl/src/draw/lv_draw_rect.c ****         /* Initialize the mask to opa instead of 0xFF and blend with LV_OPA_COVER.
 227:lvgl/lvgl/src/draw/lv_draw_rect.c ****          * It saves calculating the final opa in _lv_blend_fill*/
 228:lvgl/lvgl/src/draw/lv_draw_rect.c ****         lv_memset(mask_buf, opa, draw_area_w);
 229:lvgl/lvgl/src/draw/lv_draw_rect.c ****         mask_res = lv_draw_mask_apply(mask_buf, blend_area.x1, top_y, draw_area_w);
 230:lvgl/lvgl/src/draw/lv_draw_rect.c **** 
 231:lvgl/lvgl/src/draw/lv_draw_rect.c ****         if(top_y >= draw_area.y1) {
 232:lvgl/lvgl/src/draw/lv_draw_rect.c ****             blend_area.y1 = top_y;
 233:lvgl/lvgl/src/draw/lv_draw_rect.c ****             blend_area.y2 = top_y;
 234:lvgl/lvgl/src/draw/lv_draw_rect.c **** 
 235:lvgl/lvgl/src/draw/lv_draw_rect.c ****             if(grad_dir == LV_GRAD_DIR_NONE) {
 236:lvgl/lvgl/src/draw/lv_draw_rect.c ****                 _lv_blend_fill(clip_area, &blend_area, dsc->bg_color, mask_buf, mask_res, LV_OPA_CO
 237:lvgl/lvgl/src/draw/lv_draw_rect.c ****             }
 238:lvgl/lvgl/src/draw/lv_draw_rect.c ****             else if(grad_dir == LV_GRAD_DIR_HOR) {
 239:lvgl/lvgl/src/draw/lv_draw_rect.c ****                 _lv_blend_map(clip_area, &blend_area, grad_map, mask_buf, mask_res, LV_OPA_COVER, d
 240:lvgl/lvgl/src/draw/lv_draw_rect.c ****             }
 241:lvgl/lvgl/src/draw/lv_draw_rect.c ****             else if(grad_dir == LV_GRAD_DIR_VER) {
 242:lvgl/lvgl/src/draw/lv_draw_rect.c ****                 lv_color_t c = grad_get(dsc, coords_h, top_y - coords_bg.y1);
 243:lvgl/lvgl/src/draw/lv_draw_rect.c ****                 _lv_blend_fill(clip_area, &blend_area, c, mask_buf, mask_res, LV_OPA_COVER, dsc->bl
 244:lvgl/lvgl/src/draw/lv_draw_rect.c ****             }
 245:lvgl/lvgl/src/draw/lv_draw_rect.c ****         }
 246:lvgl/lvgl/src/draw/lv_draw_rect.c **** 
 247:lvgl/lvgl/src/draw/lv_draw_rect.c ****         if(bottom_y <= draw_area.y2) {
 248:lvgl/lvgl/src/draw/lv_draw_rect.c ****             blend_area.y1 = bottom_y;
 249:lvgl/lvgl/src/draw/lv_draw_rect.c ****             blend_area.y2 = bottom_y;
 250:lvgl/lvgl/src/draw/lv_draw_rect.c **** 
 251:lvgl/lvgl/src/draw/lv_draw_rect.c ****             if(grad_dir == LV_GRAD_DIR_NONE) {
 252:lvgl/lvgl/src/draw/lv_draw_rect.c ****                 _lv_blend_fill(clip_area, &blend_area, dsc->bg_color, mask_buf, mask_res, LV_OPA_CO
 253:lvgl/lvgl/src/draw/lv_draw_rect.c ****             }
 254:lvgl/lvgl/src/draw/lv_draw_rect.c ****             else if(grad_dir == LV_GRAD_DIR_HOR) {
 255:lvgl/lvgl/src/draw/lv_draw_rect.c ****                 _lv_blend_map(clip_area, &blend_area, grad_map, mask_buf, mask_res, LV_OPA_COVER, d
 256:lvgl/lvgl/src/draw/lv_draw_rect.c ****             }
 257:lvgl/lvgl/src/draw/lv_draw_rect.c ****             else if(grad_dir == LV_GRAD_DIR_VER) {
 258:lvgl/lvgl/src/draw/lv_draw_rect.c ****                 lv_color_t c = grad_get(dsc, coords_h, bottom_y - coords_bg.y1);
ARM GAS  C:\Users\gx\AppData\Local\Temp\ccP7i1j8.s 			page 6


 259:lvgl/lvgl/src/draw/lv_draw_rect.c ****                 _lv_blend_fill(clip_area, &blend_area, c, mask_buf, mask_res, LV_OPA_COVER, dsc->bl
 260:lvgl/lvgl/src/draw/lv_draw_rect.c ****             }
 261:lvgl/lvgl/src/draw/lv_draw_rect.c ****         }
 262:lvgl/lvgl/src/draw/lv_draw_rect.c ****     }
 263:lvgl/lvgl/src/draw/lv_draw_rect.c **** 
 264:lvgl/lvgl/src/draw/lv_draw_rect.c ****     /* Draw the center of the rectangle.*/
 265:lvgl/lvgl/src/draw/lv_draw_rect.c **** 
 266:lvgl/lvgl/src/draw/lv_draw_rect.c ****     /*If no other masks and no gradient, the center is a simple rectangle*/
 267:lvgl/lvgl/src/draw/lv_draw_rect.c ****     if(!mask_any && grad_dir == LV_GRAD_DIR_NONE) {
 268:lvgl/lvgl/src/draw/lv_draw_rect.c ****         blend_area.y1 = coords_bg.y1 + rout;
 269:lvgl/lvgl/src/draw/lv_draw_rect.c ****         blend_area.y2 = coords_bg.y2 - rout;
 270:lvgl/lvgl/src/draw/lv_draw_rect.c ****         _lv_blend_fill(clip_area, &blend_area, dsc->bg_color, mask_buf, LV_DRAW_MASK_RES_FULL_COVER
 271:lvgl/lvgl/src/draw/lv_draw_rect.c ****     }
 272:lvgl/lvgl/src/draw/lv_draw_rect.c ****     /*With gradient and/or mask draw line by line*/
 273:lvgl/lvgl/src/draw/lv_draw_rect.c ****     else {
 274:lvgl/lvgl/src/draw/lv_draw_rect.c ****         mask_res = LV_DRAW_MASK_RES_FULL_COVER;
 275:lvgl/lvgl/src/draw/lv_draw_rect.c ****         int32_t h_end = coords_bg.y2 - rout;
 276:lvgl/lvgl/src/draw/lv_draw_rect.c ****         for(h = coords_bg.y1 + rout; h <= h_end; h++) {
 277:lvgl/lvgl/src/draw/lv_draw_rect.c ****             /*If there is no other mask do not apply mask as in the center there is no radius to ma
 278:lvgl/lvgl/src/draw/lv_draw_rect.c ****             if(mask_any) {
 279:lvgl/lvgl/src/draw/lv_draw_rect.c ****                 lv_memset_ff(mask_buf, draw_area_w);
 280:lvgl/lvgl/src/draw/lv_draw_rect.c ****                 mask_res = lv_draw_mask_apply(mask_buf, draw_area.x1, h, draw_area_w);
 281:lvgl/lvgl/src/draw/lv_draw_rect.c ****             }
 282:lvgl/lvgl/src/draw/lv_draw_rect.c **** 
 283:lvgl/lvgl/src/draw/lv_draw_rect.c ****             blend_area.y1 = h;
 284:lvgl/lvgl/src/draw/lv_draw_rect.c ****             blend_area.y2 = h;
 285:lvgl/lvgl/src/draw/lv_draw_rect.c ****             if(grad_dir == LV_GRAD_DIR_NONE) {
 286:lvgl/lvgl/src/draw/lv_draw_rect.c ****                  _lv_blend_fill(clip_area, &blend_area, dsc->bg_color, mask_buf, mask_res, opa, dsc
 287:lvgl/lvgl/src/draw/lv_draw_rect.c ****             }
 288:lvgl/lvgl/src/draw/lv_draw_rect.c ****             else if(grad_dir == LV_GRAD_DIR_HOR) {
 289:lvgl/lvgl/src/draw/lv_draw_rect.c ****                 _lv_blend_map(clip_area, &blend_area, grad_map, mask_buf, mask_res, opa, dsc->blend
 290:lvgl/lvgl/src/draw/lv_draw_rect.c ****             }
 291:lvgl/lvgl/src/draw/lv_draw_rect.c ****             else if(grad_dir == LV_GRAD_DIR_VER) {
 292:lvgl/lvgl/src/draw/lv_draw_rect.c ****                 lv_color_t c = grad_get(dsc, coords_h, h - coords_bg.y1);
 293:lvgl/lvgl/src/draw/lv_draw_rect.c ****                 _lv_blend_fill(clip_area, &blend_area, c, mask_buf, mask_res, opa, dsc->blend_mode)
 294:lvgl/lvgl/src/draw/lv_draw_rect.c ****             }
 295:lvgl/lvgl/src/draw/lv_draw_rect.c ****         }
 296:lvgl/lvgl/src/draw/lv_draw_rect.c ****     }
 297:lvgl/lvgl/src/draw/lv_draw_rect.c **** 
 298:lvgl/lvgl/src/draw/lv_draw_rect.c **** 
 299:lvgl/lvgl/src/draw/lv_draw_rect.c **** bg_clean_up:
 300:lvgl/lvgl/src/draw/lv_draw_rect.c ****     if(grad_map) lv_mem_buf_release(grad_map);
 301:lvgl/lvgl/src/draw/lv_draw_rect.c ****     if(mask_buf) lv_mem_buf_release(mask_buf);
 302:lvgl/lvgl/src/draw/lv_draw_rect.c ****     if(mask_rout_id != LV_MASK_ID_INV) {
 303:lvgl/lvgl/src/draw/lv_draw_rect.c ****         lv_draw_mask_remove_id(mask_rout_id);
 304:lvgl/lvgl/src/draw/lv_draw_rect.c ****         lv_draw_mask_free_param(&mask_rout_param);
 305:lvgl/lvgl/src/draw/lv_draw_rect.c ****     }
 306:lvgl/lvgl/src/draw/lv_draw_rect.c **** 
 307:lvgl/lvgl/src/draw/lv_draw_rect.c **** #endif
 308:lvgl/lvgl/src/draw/lv_draw_rect.c **** }
 309:lvgl/lvgl/src/draw/lv_draw_rect.c **** 
 310:lvgl/lvgl/src/draw/lv_draw_rect.c **** LV_ATTRIBUTE_FAST_MEM static void draw_bg_img(const lv_area_t * coords, const lv_area_t * clip,
 311:lvgl/lvgl/src/draw/lv_draw_rect.c ****                                           const lv_draw_rect_dsc_t * dsc)
 312:lvgl/lvgl/src/draw/lv_draw_rect.c **** {
 313:lvgl/lvgl/src/draw/lv_draw_rect.c ****     if(dsc->bg_img_src == NULL) return;
 314:lvgl/lvgl/src/draw/lv_draw_rect.c ****     if(dsc->bg_img_opa <= LV_OPA_MIN) return;
 315:lvgl/lvgl/src/draw/lv_draw_rect.c **** 
ARM GAS  C:\Users\gx\AppData\Local\Temp\ccP7i1j8.s 			page 7


 316:lvgl/lvgl/src/draw/lv_draw_rect.c ****     lv_img_src_t src_type = lv_img_src_get_type(dsc->bg_img_src);
 317:lvgl/lvgl/src/draw/lv_draw_rect.c ****     if(src_type == LV_IMG_SRC_SYMBOL) {
 318:lvgl/lvgl/src/draw/lv_draw_rect.c ****         lv_point_t size;
 319:lvgl/lvgl/src/draw/lv_draw_rect.c ****         lv_txt_get_size(&size, dsc->bg_img_src, dsc->bg_img_symbol_font, 0, 0, LV_COORD_MAX, LV_TEX
 320:lvgl/lvgl/src/draw/lv_draw_rect.c ****         lv_area_t a;
 321:lvgl/lvgl/src/draw/lv_draw_rect.c ****         a.x1 = coords->x1 + lv_area_get_width(coords) / 2 - size.x / 2;
 322:lvgl/lvgl/src/draw/lv_draw_rect.c ****         a.x2 = a.x1 + size.x - 1;
 323:lvgl/lvgl/src/draw/lv_draw_rect.c ****         a.y1 = coords->y1 + lv_area_get_height(coords) / 2 - size.y / 2;
 324:lvgl/lvgl/src/draw/lv_draw_rect.c ****         a.y2 = a.y1 + size.y - 1;
 325:lvgl/lvgl/src/draw/lv_draw_rect.c **** 
 326:lvgl/lvgl/src/draw/lv_draw_rect.c ****         lv_draw_label_dsc_t label_draw_dsc;
 327:lvgl/lvgl/src/draw/lv_draw_rect.c ****         lv_draw_label_dsc_init(&label_draw_dsc);
 328:lvgl/lvgl/src/draw/lv_draw_rect.c ****         label_draw_dsc.font = dsc->bg_img_symbol_font;
 329:lvgl/lvgl/src/draw/lv_draw_rect.c ****         label_draw_dsc.color = dsc->bg_img_recolor;
 330:lvgl/lvgl/src/draw/lv_draw_rect.c ****         label_draw_dsc.opa = dsc->bg_img_opa;
 331:lvgl/lvgl/src/draw/lv_draw_rect.c ****         lv_draw_label(&a, clip, &label_draw_dsc, dsc->bg_img_src, NULL);
 332:lvgl/lvgl/src/draw/lv_draw_rect.c ****     }
 333:lvgl/lvgl/src/draw/lv_draw_rect.c ****     else {
 334:lvgl/lvgl/src/draw/lv_draw_rect.c ****         lv_img_header_t header;
 335:lvgl/lvgl/src/draw/lv_draw_rect.c ****         lv_res_t res = lv_img_decoder_get_info(dsc->bg_img_src, &header);
 336:lvgl/lvgl/src/draw/lv_draw_rect.c ****         if(res != LV_RES_OK) {
 337:lvgl/lvgl/src/draw/lv_draw_rect.c ****             LV_LOG_WARN("Coudn't read the background image");
 338:lvgl/lvgl/src/draw/lv_draw_rect.c ****             return;
 339:lvgl/lvgl/src/draw/lv_draw_rect.c ****         }
 340:lvgl/lvgl/src/draw/lv_draw_rect.c **** 
 341:lvgl/lvgl/src/draw/lv_draw_rect.c ****         lv_draw_img_dsc_t img_dsc;
 342:lvgl/lvgl/src/draw/lv_draw_rect.c ****         lv_draw_img_dsc_init(&img_dsc);
 343:lvgl/lvgl/src/draw/lv_draw_rect.c ****         img_dsc.blend_mode = dsc->blend_mode;
 344:lvgl/lvgl/src/draw/lv_draw_rect.c ****         img_dsc.recolor = dsc->bg_img_recolor;
 345:lvgl/lvgl/src/draw/lv_draw_rect.c ****         img_dsc.recolor_opa = dsc->bg_img_recolor_opa;
 346:lvgl/lvgl/src/draw/lv_draw_rect.c ****         img_dsc.opa = dsc->bg_img_opa;
 347:lvgl/lvgl/src/draw/lv_draw_rect.c **** 
 348:lvgl/lvgl/src/draw/lv_draw_rect.c ****         /*Center align*/
 349:lvgl/lvgl/src/draw/lv_draw_rect.c ****         if(dsc->bg_img_tiled == false) {
 350:lvgl/lvgl/src/draw/lv_draw_rect.c ****             lv_area_t area;
 351:lvgl/lvgl/src/draw/lv_draw_rect.c ****             area.x1 = coords->x1 + lv_area_get_width(coords) / 2 - header.w / 2;
 352:lvgl/lvgl/src/draw/lv_draw_rect.c ****             area.y1 = coords->y1 + lv_area_get_height(coords) / 2 - header.h / 2;
 353:lvgl/lvgl/src/draw/lv_draw_rect.c ****             area.x2 = area.x1 + header.w - 1;
 354:lvgl/lvgl/src/draw/lv_draw_rect.c ****             area.y2 = area.y1 + header.h - 1;
 355:lvgl/lvgl/src/draw/lv_draw_rect.c **** 
 356:lvgl/lvgl/src/draw/lv_draw_rect.c ****             lv_draw_img(&area, clip, dsc->bg_img_src, &img_dsc);
 357:lvgl/lvgl/src/draw/lv_draw_rect.c ****         } else {
 358:lvgl/lvgl/src/draw/lv_draw_rect.c ****             lv_area_t area;
 359:lvgl/lvgl/src/draw/lv_draw_rect.c ****             area.y1 = coords->y1;
 360:lvgl/lvgl/src/draw/lv_draw_rect.c ****             area.y2 = area.y1 + header.h - 1;
 361:lvgl/lvgl/src/draw/lv_draw_rect.c **** 
 362:lvgl/lvgl/src/draw/lv_draw_rect.c ****             for(; area.y1 <= coords->y2; area.y1 += header.h, area.y2 += header.h) {
 363:lvgl/lvgl/src/draw/lv_draw_rect.c **** 
 364:lvgl/lvgl/src/draw/lv_draw_rect.c ****                 area.x1 = coords->x1;
 365:lvgl/lvgl/src/draw/lv_draw_rect.c ****                 area.x2 = area.x1 + header.w - 1;
 366:lvgl/lvgl/src/draw/lv_draw_rect.c ****                 for(; area.x1 <= coords->x2; area.x1 += header.w, area.x2 += header.w) {
 367:lvgl/lvgl/src/draw/lv_draw_rect.c ****                     lv_draw_img(&area, clip, dsc->bg_img_src, &img_dsc);
 368:lvgl/lvgl/src/draw/lv_draw_rect.c ****                 }
 369:lvgl/lvgl/src/draw/lv_draw_rect.c ****             }
 370:lvgl/lvgl/src/draw/lv_draw_rect.c ****         }
 371:lvgl/lvgl/src/draw/lv_draw_rect.c ****     }
 372:lvgl/lvgl/src/draw/lv_draw_rect.c **** }
ARM GAS  C:\Users\gx\AppData\Local\Temp\ccP7i1j8.s 			page 8


 373:lvgl/lvgl/src/draw/lv_draw_rect.c **** 
 374:lvgl/lvgl/src/draw/lv_draw_rect.c **** LV_ATTRIBUTE_FAST_MEM static void draw_border(const lv_area_t * coords, const lv_area_t * clip,
 375:lvgl/lvgl/src/draw/lv_draw_rect.c ****                                               const lv_draw_rect_dsc_t * dsc)
 376:lvgl/lvgl/src/draw/lv_draw_rect.c **** {
 377:lvgl/lvgl/src/draw/lv_draw_rect.c ****     if(dsc->border_opa <= LV_OPA_MIN) return;
 378:lvgl/lvgl/src/draw/lv_draw_rect.c ****     if(dsc->border_width == 0) return;
 379:lvgl/lvgl/src/draw/lv_draw_rect.c ****     if(dsc->border_side == LV_BORDER_SIDE_NONE) return;
 380:lvgl/lvgl/src/draw/lv_draw_rect.c ****     if(dsc->border_post) return;
 381:lvgl/lvgl/src/draw/lv_draw_rect.c **** 
 382:lvgl/lvgl/src/draw/lv_draw_rect.c ****     int32_t coords_w = lv_area_get_width(coords);
 383:lvgl/lvgl/src/draw/lv_draw_rect.c ****     int32_t coords_h = lv_area_get_height(coords);
 384:lvgl/lvgl/src/draw/lv_draw_rect.c ****     int32_t rout = dsc->radius;
 385:lvgl/lvgl/src/draw/lv_draw_rect.c ****     int32_t short_side = LV_MIN(coords_w, coords_h);
 386:lvgl/lvgl/src/draw/lv_draw_rect.c ****     if(rout > short_side >> 1) rout = short_side >> 1;
 387:lvgl/lvgl/src/draw/lv_draw_rect.c **** 
 388:lvgl/lvgl/src/draw/lv_draw_rect.c ****     /*Get the inner area*/
 389:lvgl/lvgl/src/draw/lv_draw_rect.c ****     lv_area_t area_inner;
 390:lvgl/lvgl/src/draw/lv_draw_rect.c ****     lv_area_copy(&area_inner, coords);
 391:lvgl/lvgl/src/draw/lv_draw_rect.c ****     area_inner.x1 += ((dsc->border_side & LV_BORDER_SIDE_LEFT) ? dsc->border_width : - (dsc->border
 392:lvgl/lvgl/src/draw/lv_draw_rect.c ****     area_inner.x2 -= ((dsc->border_side & LV_BORDER_SIDE_RIGHT) ? dsc->border_width : - (dsc->borde
 393:lvgl/lvgl/src/draw/lv_draw_rect.c ****     area_inner.y1 += ((dsc->border_side & LV_BORDER_SIDE_TOP) ? dsc->border_width : - (dsc->border_
 394:lvgl/lvgl/src/draw/lv_draw_rect.c ****     area_inner.y2 -= ((dsc->border_side & LV_BORDER_SIDE_BOTTOM) ? dsc->border_width : - (dsc->bord
 395:lvgl/lvgl/src/draw/lv_draw_rect.c **** 
 396:lvgl/lvgl/src/draw/lv_draw_rect.c ****     lv_coord_t rin = rout - dsc->border_width;
 397:lvgl/lvgl/src/draw/lv_draw_rect.c ****     if(rin < 0) rin = 0;
 398:lvgl/lvgl/src/draw/lv_draw_rect.c **** 
 399:lvgl/lvgl/src/draw/lv_draw_rect.c ****     draw_border_generic(clip, coords, &area_inner, rout, rin, dsc->border_color, dsc->border_opa, d
 400:lvgl/lvgl/src/draw/lv_draw_rect.c **** 
 401:lvgl/lvgl/src/draw/lv_draw_rect.c **** }
 402:lvgl/lvgl/src/draw/lv_draw_rect.c **** 
 403:lvgl/lvgl/src/draw/lv_draw_rect.c **** 
 404:lvgl/lvgl/src/draw/lv_draw_rect.c **** #if LV_DRAW_COMPLEX
 405:lvgl/lvgl/src/draw/lv_draw_rect.c **** LV_ATTRIBUTE_FAST_MEM static inline lv_color_t grad_get(const lv_draw_rect_dsc_t * dsc, lv_coord_t 
 406:lvgl/lvgl/src/draw/lv_draw_rect.c **** {
 407:lvgl/lvgl/src/draw/lv_draw_rect.c ****     int32_t min = (dsc->bg_main_color_stop * s) >> 8;
 408:lvgl/lvgl/src/draw/lv_draw_rect.c ****     if(i <= min) return dsc->bg_color;
 409:lvgl/lvgl/src/draw/lv_draw_rect.c **** 
 410:lvgl/lvgl/src/draw/lv_draw_rect.c ****     int32_t max = (dsc->bg_grad_color_stop * s) >> 8;
 411:lvgl/lvgl/src/draw/lv_draw_rect.c ****     if(i >= max) return dsc->bg_grad_color;
 412:lvgl/lvgl/src/draw/lv_draw_rect.c **** 
 413:lvgl/lvgl/src/draw/lv_draw_rect.c ****     int32_t d = dsc->bg_grad_color_stop - dsc->bg_main_color_stop;
 414:lvgl/lvgl/src/draw/lv_draw_rect.c ****     d = (s * d) >> 8;
 415:lvgl/lvgl/src/draw/lv_draw_rect.c ****     i -= min;
 416:lvgl/lvgl/src/draw/lv_draw_rect.c ****     lv_opa_t mix = (i * 255) / d;
 417:lvgl/lvgl/src/draw/lv_draw_rect.c ****     return lv_color_mix(dsc->bg_grad_color, dsc->bg_color, mix);
 418:lvgl/lvgl/src/draw/lv_draw_rect.c **** }
 419:lvgl/lvgl/src/draw/lv_draw_rect.c **** 
 420:lvgl/lvgl/src/draw/lv_draw_rect.c **** LV_ATTRIBUTE_FAST_MEM static void draw_shadow(const lv_area_t * coords, const lv_area_t * clip,
 421:lvgl/lvgl/src/draw/lv_draw_rect.c ****                                               const lv_draw_rect_dsc_t * dsc)
 422:lvgl/lvgl/src/draw/lv_draw_rect.c **** {
 423:lvgl/lvgl/src/draw/lv_draw_rect.c **** 
 424:lvgl/lvgl/src/draw/lv_draw_rect.c ****     /*Check whether the shadow is visible*/
 425:lvgl/lvgl/src/draw/lv_draw_rect.c ****     if(dsc->shadow_width == 0) return;
 426:lvgl/lvgl/src/draw/lv_draw_rect.c ****     if(dsc->shadow_opa <= LV_OPA_MIN) return;
 427:lvgl/lvgl/src/draw/lv_draw_rect.c **** 
 428:lvgl/lvgl/src/draw/lv_draw_rect.c ****     if(dsc->shadow_width == 1 && dsc->shadow_spread <= 0 &&
 429:lvgl/lvgl/src/draw/lv_draw_rect.c ****        dsc->shadow_ofs_x == 0 && dsc->shadow_ofs_y == 0) {
ARM GAS  C:\Users\gx\AppData\Local\Temp\ccP7i1j8.s 			page 9


 430:lvgl/lvgl/src/draw/lv_draw_rect.c ****         return;
 431:lvgl/lvgl/src/draw/lv_draw_rect.c ****     }
 432:lvgl/lvgl/src/draw/lv_draw_rect.c **** 
 433:lvgl/lvgl/src/draw/lv_draw_rect.c ****     /*Calculate the rectangle which is blurred to get the shadow in `shadow_area`*/
 434:lvgl/lvgl/src/draw/lv_draw_rect.c ****     lv_area_t core_area;
 435:lvgl/lvgl/src/draw/lv_draw_rect.c ****     core_area.x1 = coords->x1  + dsc->shadow_ofs_x - dsc->shadow_spread;
 436:lvgl/lvgl/src/draw/lv_draw_rect.c ****     core_area.x2 = coords->x2  + dsc->shadow_ofs_x + dsc->shadow_spread;
 437:lvgl/lvgl/src/draw/lv_draw_rect.c ****     core_area.y1 = coords->y1  + dsc->shadow_ofs_y - dsc->shadow_spread;
 438:lvgl/lvgl/src/draw/lv_draw_rect.c ****     core_area.y2 = coords->y2  + dsc->shadow_ofs_y + dsc->shadow_spread;
 439:lvgl/lvgl/src/draw/lv_draw_rect.c **** 
 440:lvgl/lvgl/src/draw/lv_draw_rect.c ****     /*Calculate the bounding box of the shadow*/
 441:lvgl/lvgl/src/draw/lv_draw_rect.c ****     lv_area_t shadow_area;
 442:lvgl/lvgl/src/draw/lv_draw_rect.c ****     shadow_area.x1 = core_area.x1 - dsc->shadow_width / 2 - 1;
 443:lvgl/lvgl/src/draw/lv_draw_rect.c ****     shadow_area.x2 = core_area.x2 + dsc->shadow_width / 2 + 1;
 444:lvgl/lvgl/src/draw/lv_draw_rect.c ****     shadow_area.y1 = core_area.y1 - dsc->shadow_width / 2 - 1;
 445:lvgl/lvgl/src/draw/lv_draw_rect.c ****     shadow_area.y2 = core_area.y2 + dsc->shadow_width / 2 + 1;
 446:lvgl/lvgl/src/draw/lv_draw_rect.c **** 
 447:lvgl/lvgl/src/draw/lv_draw_rect.c ****     lv_opa_t opa = dsc->shadow_opa;
 448:lvgl/lvgl/src/draw/lv_draw_rect.c ****     if(opa > LV_OPA_MAX) opa = LV_OPA_COVER;
 449:lvgl/lvgl/src/draw/lv_draw_rect.c **** 
 450:lvgl/lvgl/src/draw/lv_draw_rect.c ****     /*Get clipped draw area which is the real draw area.
 451:lvgl/lvgl/src/draw/lv_draw_rect.c ****      *It is always the same or inside `shadow_area`*/
 452:lvgl/lvgl/src/draw/lv_draw_rect.c ****     lv_area_t draw_area;
 453:lvgl/lvgl/src/draw/lv_draw_rect.c ****     if(!_lv_area_intersect(&draw_area, &shadow_area, clip)) return;
 454:lvgl/lvgl/src/draw/lv_draw_rect.c **** 
 455:lvgl/lvgl/src/draw/lv_draw_rect.c ****     /*Consider 1 px smaller bg to be sure the edge will be covered by the shadow*/
 456:lvgl/lvgl/src/draw/lv_draw_rect.c ****     lv_area_t bg_area;
 457:lvgl/lvgl/src/draw/lv_draw_rect.c ****     lv_area_copy(&bg_area, coords);
 458:lvgl/lvgl/src/draw/lv_draw_rect.c ****     lv_area_increase(&bg_area, -1, -1);
 459:lvgl/lvgl/src/draw/lv_draw_rect.c **** 
 460:lvgl/lvgl/src/draw/lv_draw_rect.c ****     /*Get the clamped radius*/
 461:lvgl/lvgl/src/draw/lv_draw_rect.c ****     int32_t r_bg = dsc->radius;
 462:lvgl/lvgl/src/draw/lv_draw_rect.c ****     lv_coord_t short_side = LV_MIN(lv_area_get_width(&bg_area), lv_area_get_height(&bg_area));
 463:lvgl/lvgl/src/draw/lv_draw_rect.c ****     if(r_bg > short_side >> 1) r_bg = short_side >> 1;
 464:lvgl/lvgl/src/draw/lv_draw_rect.c **** 
 465:lvgl/lvgl/src/draw/lv_draw_rect.c ****     /*Get the clamped radius*/
 466:lvgl/lvgl/src/draw/lv_draw_rect.c ****     int32_t r_sh = dsc->radius;
 467:lvgl/lvgl/src/draw/lv_draw_rect.c ****     short_side = LV_MIN(lv_area_get_width(&core_area), lv_area_get_height(&core_area));
 468:lvgl/lvgl/src/draw/lv_draw_rect.c ****     if(r_sh > short_side >> 1) r_sh = short_side >> 1;
 469:lvgl/lvgl/src/draw/lv_draw_rect.c **** 
 470:lvgl/lvgl/src/draw/lv_draw_rect.c ****     /*Get how many pixels are affected by the blur on the corners*/
 471:lvgl/lvgl/src/draw/lv_draw_rect.c ****     int32_t corner_size = dsc->shadow_width  + r_sh;
 472:lvgl/lvgl/src/draw/lv_draw_rect.c **** 
 473:lvgl/lvgl/src/draw/lv_draw_rect.c ****     lv_opa_t * sh_buf;
 474:lvgl/lvgl/src/draw/lv_draw_rect.c **** 
 475:lvgl/lvgl/src/draw/lv_draw_rect.c **** #if LV_SHADOW_CACHE_SIZE
 476:lvgl/lvgl/src/draw/lv_draw_rect.c ****     if(sh_cache_size == corner_size && sh_cache_r == r_sh) {
 477:lvgl/lvgl/src/draw/lv_draw_rect.c ****         /*Use the cache if available*/
 478:lvgl/lvgl/src/draw/lv_draw_rect.c ****         sh_buf = lv_mem_buf_get(corner_size * corner_size);
 479:lvgl/lvgl/src/draw/lv_draw_rect.c ****         lv_memcpy(sh_buf, sh_cache, corner_size * corner_size);
 480:lvgl/lvgl/src/draw/lv_draw_rect.c ****     }
 481:lvgl/lvgl/src/draw/lv_draw_rect.c ****     else {
 482:lvgl/lvgl/src/draw/lv_draw_rect.c ****         /*A larger buffer is required for calculation*/
 483:lvgl/lvgl/src/draw/lv_draw_rect.c ****         sh_buf = lv_mem_buf_get(corner_size * corner_size * sizeof(uint16_t));
 484:lvgl/lvgl/src/draw/lv_draw_rect.c ****         shadow_draw_corner_buf(&core_area, (uint16_t *)sh_buf, dsc->shadow_width, r_sh);
 485:lvgl/lvgl/src/draw/lv_draw_rect.c **** 
 486:lvgl/lvgl/src/draw/lv_draw_rect.c ****         /*Cache the corner if it fits into the cache size*/
ARM GAS  C:\Users\gx\AppData\Local\Temp\ccP7i1j8.s 			page 10


 487:lvgl/lvgl/src/draw/lv_draw_rect.c ****         if((uint32_t)corner_size * corner_size < sizeof(sh_cache)) {
 488:lvgl/lvgl/src/draw/lv_draw_rect.c ****             lv_memcpy(sh_cache, sh_buf, corner_size * corner_size);
 489:lvgl/lvgl/src/draw/lv_draw_rect.c ****             sh_cache_size = corner_size;
 490:lvgl/lvgl/src/draw/lv_draw_rect.c ****             sh_cache_r = r_sh;
 491:lvgl/lvgl/src/draw/lv_draw_rect.c ****         }
 492:lvgl/lvgl/src/draw/lv_draw_rect.c ****     }
 493:lvgl/lvgl/src/draw/lv_draw_rect.c **** #else
 494:lvgl/lvgl/src/draw/lv_draw_rect.c ****     sh_buf = lv_mem_buf_get(corner_size * corner_size * sizeof(uint16_t));
 495:lvgl/lvgl/src/draw/lv_draw_rect.c ****     shadow_draw_corner_buf(&core_area, (uint16_t *)sh_buf, dsc->shadow_width, r_sh);
 496:lvgl/lvgl/src/draw/lv_draw_rect.c **** #endif
 497:lvgl/lvgl/src/draw/lv_draw_rect.c **** 
 498:lvgl/lvgl/src/draw/lv_draw_rect.c **** 
 499:lvgl/lvgl/src/draw/lv_draw_rect.c ****     /*Skip a lot of masking if the background will cover the shadow that would be masked out*/
 500:lvgl/lvgl/src/draw/lv_draw_rect.c ****     bool mask_any = lv_draw_mask_is_any(&shadow_area);
 501:lvgl/lvgl/src/draw/lv_draw_rect.c ****     bool simple = true;
 502:lvgl/lvgl/src/draw/lv_draw_rect.c ****     if(mask_any || dsc->bg_opa < LV_OPA_COVER) simple = false;
 503:lvgl/lvgl/src/draw/lv_draw_rect.c **** 
 504:lvgl/lvgl/src/draw/lv_draw_rect.c ****     /*Create a radius mask to clip remove shadow on the bg area*/
 505:lvgl/lvgl/src/draw/lv_draw_rect.c ****     lv_draw_mask_res_t mask_res;
 506:lvgl/lvgl/src/draw/lv_draw_rect.c **** 
 507:lvgl/lvgl/src/draw/lv_draw_rect.c ****     lv_draw_mask_radius_param_t mask_rout_param;
 508:lvgl/lvgl/src/draw/lv_draw_rect.c ****     int16_t mask_rout_id = LV_MASK_ID_INV;
 509:lvgl/lvgl/src/draw/lv_draw_rect.c ****     if(!simple) {
 510:lvgl/lvgl/src/draw/lv_draw_rect.c ****         lv_draw_mask_radius_init(&mask_rout_param, &bg_area, r_bg, true);
 511:lvgl/lvgl/src/draw/lv_draw_rect.c ****         mask_rout_id = lv_draw_mask_add(&mask_rout_param, NULL);
 512:lvgl/lvgl/src/draw/lv_draw_rect.c ****     }
 513:lvgl/lvgl/src/draw/lv_draw_rect.c ****     lv_opa_t * mask_buf = lv_mem_buf_get(lv_area_get_width(&shadow_area));
 514:lvgl/lvgl/src/draw/lv_draw_rect.c ****     lv_area_t blend_area;
 515:lvgl/lvgl/src/draw/lv_draw_rect.c ****     lv_area_t clip_area_sub;
 516:lvgl/lvgl/src/draw/lv_draw_rect.c ****     lv_opa_t ** mask_act;
 517:lvgl/lvgl/src/draw/lv_draw_rect.c ****     lv_opa_t * sh_buf_tmp;
 518:lvgl/lvgl/src/draw/lv_draw_rect.c ****     lv_coord_t y;
 519:lvgl/lvgl/src/draw/lv_draw_rect.c ****     bool simple_sub;
 520:lvgl/lvgl/src/draw/lv_draw_rect.c **** 
 521:lvgl/lvgl/src/draw/lv_draw_rect.c ****     lv_coord_t w_half = shadow_area.x1 + lv_area_get_width(&shadow_area) / 2;
 522:lvgl/lvgl/src/draw/lv_draw_rect.c ****     lv_coord_t h_half = shadow_area.y1 + lv_area_get_height(&shadow_area) / 2;
 523:lvgl/lvgl/src/draw/lv_draw_rect.c **** 
 524:lvgl/lvgl/src/draw/lv_draw_rect.c ****     /*Draw the corners if they are on the current clip area and not fully covered by the bg*/
 525:lvgl/lvgl/src/draw/lv_draw_rect.c **** 
 526:lvgl/lvgl/src/draw/lv_draw_rect.c ****     /*Top right corner*/
 527:lvgl/lvgl/src/draw/lv_draw_rect.c ****     blend_area.x2 = shadow_area.x2;
 528:lvgl/lvgl/src/draw/lv_draw_rect.c ****     blend_area.x1 = shadow_area.x2 - corner_size + 1;
 529:lvgl/lvgl/src/draw/lv_draw_rect.c ****     blend_area.y1 = shadow_area.y1;
 530:lvgl/lvgl/src/draw/lv_draw_rect.c ****     blend_area.y2 = shadow_area.y1 + corner_size - 1;
 531:lvgl/lvgl/src/draw/lv_draw_rect.c ****     /*Do not overdraw the top other corners*/
 532:lvgl/lvgl/src/draw/lv_draw_rect.c ****     blend_area.x1 = LV_MAX(blend_area.x1, w_half);
 533:lvgl/lvgl/src/draw/lv_draw_rect.c ****     blend_area.y2 = LV_MIN(blend_area.y2, h_half);
 534:lvgl/lvgl/src/draw/lv_draw_rect.c **** 
 535:lvgl/lvgl/src/draw/lv_draw_rect.c ****     if(_lv_area_intersect(&clip_area_sub, &blend_area, clip) && !_lv_area_is_in(&clip_area_sub, &bg
 536:lvgl/lvgl/src/draw/lv_draw_rect.c ****         lv_coord_t w = lv_area_get_width(&clip_area_sub);
 537:lvgl/lvgl/src/draw/lv_draw_rect.c ****         sh_buf_tmp = sh_buf;
 538:lvgl/lvgl/src/draw/lv_draw_rect.c ****         sh_buf_tmp += (clip_area_sub.y1 - shadow_area.y1) * corner_size;
 539:lvgl/lvgl/src/draw/lv_draw_rect.c ****         sh_buf_tmp += clip_area_sub.x1 - (shadow_area.x2 - corner_size + 1);
 540:lvgl/lvgl/src/draw/lv_draw_rect.c **** 
 541:lvgl/lvgl/src/draw/lv_draw_rect.c ****         /*Do not mask if out of the bg*/
 542:lvgl/lvgl/src/draw/lv_draw_rect.c ****         if(!mask_any && _lv_area_is_out(&clip_area_sub, &bg_area, r_bg)) simple_sub = true;
 543:lvgl/lvgl/src/draw/lv_draw_rect.c ****         else simple_sub = simple;
ARM GAS  C:\Users\gx\AppData\Local\Temp\ccP7i1j8.s 			page 11


 544:lvgl/lvgl/src/draw/lv_draw_rect.c ****         mask_act = simple_sub ? &sh_buf_tmp : &mask_buf;
 545:lvgl/lvgl/src/draw/lv_draw_rect.c ****         if(w > 0) {
 546:lvgl/lvgl/src/draw/lv_draw_rect.c ****             mask_res = LV_DRAW_MASK_RES_CHANGED;    /*In simple mode it won't be overwritten*/
 547:lvgl/lvgl/src/draw/lv_draw_rect.c ****             for(y = clip_area_sub.y1; y <= clip_area_sub.y2; y++) {
 548:lvgl/lvgl/src/draw/lv_draw_rect.c ****                 blend_area.y1 = y;
 549:lvgl/lvgl/src/draw/lv_draw_rect.c ****                 blend_area.y2 = y;
 550:lvgl/lvgl/src/draw/lv_draw_rect.c **** 
 551:lvgl/lvgl/src/draw/lv_draw_rect.c ****                 if(!simple_sub) {
 552:lvgl/lvgl/src/draw/lv_draw_rect.c ****                     lv_memcpy(mask_buf, sh_buf_tmp, corner_size);
 553:lvgl/lvgl/src/draw/lv_draw_rect.c ****                     mask_res = lv_draw_mask_apply(mask_buf, clip_area_sub.x1, y, w);
 554:lvgl/lvgl/src/draw/lv_draw_rect.c ****                     if(mask_res == LV_DRAW_MASK_RES_FULL_COVER) mask_res = LV_DRAW_MASK_RES_CHANGED
 555:lvgl/lvgl/src/draw/lv_draw_rect.c ****                 }
 556:lvgl/lvgl/src/draw/lv_draw_rect.c ****                 _lv_blend_fill(&clip_area_sub, &blend_area, dsc->shadow_color, *mask_act, mask_res,
 557:lvgl/lvgl/src/draw/lv_draw_rect.c ****                 sh_buf_tmp += corner_size;
 558:lvgl/lvgl/src/draw/lv_draw_rect.c ****             }
 559:lvgl/lvgl/src/draw/lv_draw_rect.c ****         }
 560:lvgl/lvgl/src/draw/lv_draw_rect.c ****     }
 561:lvgl/lvgl/src/draw/lv_draw_rect.c **** 
 562:lvgl/lvgl/src/draw/lv_draw_rect.c ****     /*Bottom right corner.
 563:lvgl/lvgl/src/draw/lv_draw_rect.c ****      *Almost the same as top right just read the lines of `sh_buf` from then end*/
 564:lvgl/lvgl/src/draw/lv_draw_rect.c ****     blend_area.x2 = shadow_area.x2;
 565:lvgl/lvgl/src/draw/lv_draw_rect.c ****     blend_area.x1 = shadow_area.x2 - corner_size + 1;
 566:lvgl/lvgl/src/draw/lv_draw_rect.c ****     blend_area.y1 = shadow_area.y2 - corner_size + 1;
 567:lvgl/lvgl/src/draw/lv_draw_rect.c ****     blend_area.y2 = shadow_area.y2;
 568:lvgl/lvgl/src/draw/lv_draw_rect.c ****     /*Do not overdraw the other corners*/
 569:lvgl/lvgl/src/draw/lv_draw_rect.c ****     blend_area.x1 = LV_MAX(blend_area.x1, w_half);
 570:lvgl/lvgl/src/draw/lv_draw_rect.c ****     blend_area.y1 = LV_MAX(blend_area.y1, h_half + 1);
 571:lvgl/lvgl/src/draw/lv_draw_rect.c **** 
 572:lvgl/lvgl/src/draw/lv_draw_rect.c ****     if(_lv_area_intersect(&clip_area_sub, &blend_area, clip) && !_lv_area_is_in(&clip_area_sub, &bg
 573:lvgl/lvgl/src/draw/lv_draw_rect.c ****         lv_coord_t w = lv_area_get_width(&clip_area_sub);
 574:lvgl/lvgl/src/draw/lv_draw_rect.c ****         sh_buf_tmp = sh_buf;
 575:lvgl/lvgl/src/draw/lv_draw_rect.c ****         sh_buf_tmp += (blend_area.y2 - clip_area_sub.y2) * corner_size;
 576:lvgl/lvgl/src/draw/lv_draw_rect.c ****         sh_buf_tmp += clip_area_sub.x1 - (shadow_area.x2 - corner_size + 1);
 577:lvgl/lvgl/src/draw/lv_draw_rect.c ****         /*Do not mask if out of the bg*/
 578:lvgl/lvgl/src/draw/lv_draw_rect.c ****         if(!mask_any && _lv_area_is_out(&clip_area_sub, &bg_area, r_bg)) simple_sub = true;
 579:lvgl/lvgl/src/draw/lv_draw_rect.c ****         else simple_sub = simple;
 580:lvgl/lvgl/src/draw/lv_draw_rect.c ****         mask_act = simple_sub ? &sh_buf_tmp : &mask_buf;
 581:lvgl/lvgl/src/draw/lv_draw_rect.c **** 
 582:lvgl/lvgl/src/draw/lv_draw_rect.c ****         if(w > 0) {
 583:lvgl/lvgl/src/draw/lv_draw_rect.c ****             mask_res = LV_DRAW_MASK_RES_CHANGED;    /*In simple mode it won't be overwritten*/
 584:lvgl/lvgl/src/draw/lv_draw_rect.c ****             for(y = clip_area_sub.y2; y >= clip_area_sub.y1; y--) {
 585:lvgl/lvgl/src/draw/lv_draw_rect.c ****                 blend_area.y1 = y;
 586:lvgl/lvgl/src/draw/lv_draw_rect.c ****                 blend_area.y2 = y;
 587:lvgl/lvgl/src/draw/lv_draw_rect.c **** 
 588:lvgl/lvgl/src/draw/lv_draw_rect.c ****                 if(!simple_sub) {
 589:lvgl/lvgl/src/draw/lv_draw_rect.c ****                     lv_memcpy(mask_buf, sh_buf_tmp, corner_size);
 590:lvgl/lvgl/src/draw/lv_draw_rect.c ****                     mask_res = lv_draw_mask_apply(mask_buf, clip_area_sub.x1, y, w);
 591:lvgl/lvgl/src/draw/lv_draw_rect.c ****                     if(mask_res == LV_DRAW_MASK_RES_FULL_COVER) mask_res = LV_DRAW_MASK_RES_CHANGED
 592:lvgl/lvgl/src/draw/lv_draw_rect.c ****                 }
 593:lvgl/lvgl/src/draw/lv_draw_rect.c ****                 _lv_blend_fill(&clip_area_sub, &blend_area, dsc->shadow_color, *mask_act, mask_res,
 594:lvgl/lvgl/src/draw/lv_draw_rect.c ****                 sh_buf_tmp += corner_size;
 595:lvgl/lvgl/src/draw/lv_draw_rect.c ****             }
 596:lvgl/lvgl/src/draw/lv_draw_rect.c ****         }
 597:lvgl/lvgl/src/draw/lv_draw_rect.c ****     }
 598:lvgl/lvgl/src/draw/lv_draw_rect.c **** 
 599:lvgl/lvgl/src/draw/lv_draw_rect.c ****     /*Top side*/
 600:lvgl/lvgl/src/draw/lv_draw_rect.c ****     blend_area.x1 = shadow_area.x1 + corner_size;
ARM GAS  C:\Users\gx\AppData\Local\Temp\ccP7i1j8.s 			page 12


 601:lvgl/lvgl/src/draw/lv_draw_rect.c ****     blend_area.x2 = shadow_area.x2 - corner_size;
 602:lvgl/lvgl/src/draw/lv_draw_rect.c ****     blend_area.y1 = shadow_area.y1;
 603:lvgl/lvgl/src/draw/lv_draw_rect.c ****     blend_area.y2 = shadow_area.y1 + corner_size - 1;
 604:lvgl/lvgl/src/draw/lv_draw_rect.c **** 
 605:lvgl/lvgl/src/draw/lv_draw_rect.c ****     if(_lv_area_intersect(&clip_area_sub, &blend_area, clip) && !_lv_area_is_in(&clip_area_sub, &bg
 606:lvgl/lvgl/src/draw/lv_draw_rect.c ****         lv_coord_t w = lv_area_get_width(&clip_area_sub);
 607:lvgl/lvgl/src/draw/lv_draw_rect.c ****         sh_buf_tmp = sh_buf;
 608:lvgl/lvgl/src/draw/lv_draw_rect.c ****         sh_buf_tmp += (clip_area_sub.y1 - blend_area.y1) * corner_size;
 609:lvgl/lvgl/src/draw/lv_draw_rect.c **** 
 610:lvgl/lvgl/src/draw/lv_draw_rect.c ****         /*Do not mask if out of the bg*/
 611:lvgl/lvgl/src/draw/lv_draw_rect.c ****         if(!mask_any && _lv_area_is_out(&clip_area_sub, &bg_area, r_bg)) simple_sub = true;
 612:lvgl/lvgl/src/draw/lv_draw_rect.c ****         else simple_sub = simple;
 613:lvgl/lvgl/src/draw/lv_draw_rect.c **** 
 614:lvgl/lvgl/src/draw/lv_draw_rect.c ****         if(w > 0) {
 615:lvgl/lvgl/src/draw/lv_draw_rect.c ****             mask_res = LV_DRAW_MASK_RES_CHANGED;    /*In simple mode it won't be overwritten*/
 616:lvgl/lvgl/src/draw/lv_draw_rect.c ****             for(y = clip_area_sub.y1; y <= clip_area_sub.y2; y++) {
 617:lvgl/lvgl/src/draw/lv_draw_rect.c ****                 blend_area.y1 = y;
 618:lvgl/lvgl/src/draw/lv_draw_rect.c ****                 blend_area.y2 = y;
 619:lvgl/lvgl/src/draw/lv_draw_rect.c **** 
 620:lvgl/lvgl/src/draw/lv_draw_rect.c ****                 if(!simple_sub) {
 621:lvgl/lvgl/src/draw/lv_draw_rect.c ****                     lv_memset(mask_buf, sh_buf_tmp[0], w);
 622:lvgl/lvgl/src/draw/lv_draw_rect.c ****                     mask_res = lv_draw_mask_apply(mask_buf, clip_area_sub.x1, y, w);
 623:lvgl/lvgl/src/draw/lv_draw_rect.c ****                     if(mask_res == LV_DRAW_MASK_RES_FULL_COVER) mask_res = LV_DRAW_MASK_RES_CHANGED
 624:lvgl/lvgl/src/draw/lv_draw_rect.c ****                     _lv_blend_fill(&clip_area_sub, &blend_area, dsc->shadow_color, mask_buf, mask_r
 625:lvgl/lvgl/src/draw/lv_draw_rect.c ****                 } else {
 626:lvgl/lvgl/src/draw/lv_draw_rect.c ****                     lv_opa_t line_opa = opa == LV_OPA_COVER ? sh_buf_tmp[0] : (sh_buf_tmp[0] * dsc-
 627:lvgl/lvgl/src/draw/lv_draw_rect.c ****                     _lv_blend_fill(&clip_area_sub, &blend_area, dsc->shadow_color, NULL, LV_DRAW_MA
 628:lvgl/lvgl/src/draw/lv_draw_rect.c ****                 }
 629:lvgl/lvgl/src/draw/lv_draw_rect.c ****                 sh_buf_tmp += corner_size;
 630:lvgl/lvgl/src/draw/lv_draw_rect.c ****             }
 631:lvgl/lvgl/src/draw/lv_draw_rect.c ****         }
 632:lvgl/lvgl/src/draw/lv_draw_rect.c ****     }
 633:lvgl/lvgl/src/draw/lv_draw_rect.c **** 
 634:lvgl/lvgl/src/draw/lv_draw_rect.c ****     /*Bottom side*/
 635:lvgl/lvgl/src/draw/lv_draw_rect.c ****     blend_area.x1 = shadow_area.x1 + corner_size;
 636:lvgl/lvgl/src/draw/lv_draw_rect.c ****     blend_area.x2 = shadow_area.x2 - corner_size;
 637:lvgl/lvgl/src/draw/lv_draw_rect.c ****     blend_area.y1 = shadow_area.y2 - corner_size + 1;
 638:lvgl/lvgl/src/draw/lv_draw_rect.c ****     blend_area.y2 = shadow_area.y2;
 639:lvgl/lvgl/src/draw/lv_draw_rect.c **** 
 640:lvgl/lvgl/src/draw/lv_draw_rect.c ****     if(_lv_area_intersect(&clip_area_sub, &blend_area, clip) && !_lv_area_is_in(&clip_area_sub, &bg
 641:lvgl/lvgl/src/draw/lv_draw_rect.c ****         lv_coord_t w = lv_area_get_width(&clip_area_sub);
 642:lvgl/lvgl/src/draw/lv_draw_rect.c ****         sh_buf_tmp = sh_buf;
 643:lvgl/lvgl/src/draw/lv_draw_rect.c ****         sh_buf_tmp += (blend_area.y2 - clip_area_sub.y2) * corner_size;
 644:lvgl/lvgl/src/draw/lv_draw_rect.c ****         if(w > 0) {
 645:lvgl/lvgl/src/draw/lv_draw_rect.c ****             mask_res = LV_DRAW_MASK_RES_CHANGED;    /*In simple mode it won't be overwritten*/
 646:lvgl/lvgl/src/draw/lv_draw_rect.c ****             for(y = clip_area_sub.y2; y >= clip_area_sub.y1; y--) {
 647:lvgl/lvgl/src/draw/lv_draw_rect.c ****                 blend_area.y1 = y;
 648:lvgl/lvgl/src/draw/lv_draw_rect.c ****                 blend_area.y2 = y;
 649:lvgl/lvgl/src/draw/lv_draw_rect.c **** 
 650:lvgl/lvgl/src/draw/lv_draw_rect.c ****                 /*Do not mask if out of the bg*/
 651:lvgl/lvgl/src/draw/lv_draw_rect.c ****                 if(!mask_any && _lv_area_is_out(&clip_area_sub, &bg_area, r_bg)) simple_sub = true;
 652:lvgl/lvgl/src/draw/lv_draw_rect.c ****                 else simple_sub = simple;
 653:lvgl/lvgl/src/draw/lv_draw_rect.c **** 
 654:lvgl/lvgl/src/draw/lv_draw_rect.c ****                 if(!simple_sub) {
 655:lvgl/lvgl/src/draw/lv_draw_rect.c ****                     lv_memset(mask_buf, sh_buf_tmp[0], w);
 656:lvgl/lvgl/src/draw/lv_draw_rect.c ****                     mask_res = lv_draw_mask_apply(mask_buf, clip_area_sub.x1, y, w);
 657:lvgl/lvgl/src/draw/lv_draw_rect.c ****                     if(mask_res == LV_DRAW_MASK_RES_FULL_COVER) mask_res = LV_DRAW_MASK_RES_CHANGED
ARM GAS  C:\Users\gx\AppData\Local\Temp\ccP7i1j8.s 			page 13


 658:lvgl/lvgl/src/draw/lv_draw_rect.c ****                     _lv_blend_fill(&clip_area_sub, &blend_area, dsc->shadow_color, mask_buf, mask_r
 659:lvgl/lvgl/src/draw/lv_draw_rect.c ****                 } else {
 660:lvgl/lvgl/src/draw/lv_draw_rect.c ****                     lv_opa_t line_opa = opa == LV_OPA_COVER ? sh_buf_tmp[0] : (sh_buf_tmp[0] * dsc-
 661:lvgl/lvgl/src/draw/lv_draw_rect.c ****                     _lv_blend_fill(&clip_area_sub, &blend_area, dsc->shadow_color, NULL, LV_DRAW_MA
 662:lvgl/lvgl/src/draw/lv_draw_rect.c **** 
 663:lvgl/lvgl/src/draw/lv_draw_rect.c ****                 }
 664:lvgl/lvgl/src/draw/lv_draw_rect.c ****                 sh_buf_tmp += corner_size;
 665:lvgl/lvgl/src/draw/lv_draw_rect.c ****             }
 666:lvgl/lvgl/src/draw/lv_draw_rect.c ****         }
 667:lvgl/lvgl/src/draw/lv_draw_rect.c ****     }
 668:lvgl/lvgl/src/draw/lv_draw_rect.c **** 
 669:lvgl/lvgl/src/draw/lv_draw_rect.c ****     /*Right side*/
 670:lvgl/lvgl/src/draw/lv_draw_rect.c ****     blend_area.x1 = shadow_area.x2 - corner_size + 1;
 671:lvgl/lvgl/src/draw/lv_draw_rect.c ****     blend_area.x2 = shadow_area.x2;
 672:lvgl/lvgl/src/draw/lv_draw_rect.c ****     blend_area.y1 = shadow_area.y1 + corner_size;
 673:lvgl/lvgl/src/draw/lv_draw_rect.c ****     blend_area.y2 = shadow_area.y2 - corner_size;
 674:lvgl/lvgl/src/draw/lv_draw_rect.c ****     /*Do not overdraw the other corners*/
 675:lvgl/lvgl/src/draw/lv_draw_rect.c ****     blend_area.y1 = LV_MIN(blend_area.y1, h_half + 1);
 676:lvgl/lvgl/src/draw/lv_draw_rect.c ****     blend_area.y2 = LV_MAX(blend_area.y2, h_half);
 677:lvgl/lvgl/src/draw/lv_draw_rect.c **** 
 678:lvgl/lvgl/src/draw/lv_draw_rect.c ****     if(_lv_area_intersect(&clip_area_sub, &blend_area, clip) && !_lv_area_is_in(&clip_area_sub, &bg
 679:lvgl/lvgl/src/draw/lv_draw_rect.c ****         lv_coord_t w = lv_area_get_width(&clip_area_sub);
 680:lvgl/lvgl/src/draw/lv_draw_rect.c ****         sh_buf_tmp = sh_buf;
 681:lvgl/lvgl/src/draw/lv_draw_rect.c ****         sh_buf_tmp += (corner_size - 1) * corner_size;
 682:lvgl/lvgl/src/draw/lv_draw_rect.c ****         sh_buf_tmp += clip_area_sub.x1 - blend_area.x1;
 683:lvgl/lvgl/src/draw/lv_draw_rect.c **** 
 684:lvgl/lvgl/src/draw/lv_draw_rect.c ****         /*Do not mask if out of the bg*/
 685:lvgl/lvgl/src/draw/lv_draw_rect.c ****         if(!mask_any && _lv_area_is_out(&clip_area_sub, &bg_area, r_bg)) simple_sub = true;
 686:lvgl/lvgl/src/draw/lv_draw_rect.c ****         else simple_sub = simple;
 687:lvgl/lvgl/src/draw/lv_draw_rect.c ****         mask_act = simple_sub ? &sh_buf_tmp : &mask_buf;
 688:lvgl/lvgl/src/draw/lv_draw_rect.c **** 
 689:lvgl/lvgl/src/draw/lv_draw_rect.c ****         if(w > 0) {
 690:lvgl/lvgl/src/draw/lv_draw_rect.c ****             mask_res = LV_DRAW_MASK_RES_CHANGED;    /*In simple mode it won't be overwritten*/
 691:lvgl/lvgl/src/draw/lv_draw_rect.c ****             for(y = clip_area_sub.y1; y <= clip_area_sub.y2; y++) {
 692:lvgl/lvgl/src/draw/lv_draw_rect.c ****                 blend_area.y1 = y;
 693:lvgl/lvgl/src/draw/lv_draw_rect.c ****                 blend_area.y2 = y;
 694:lvgl/lvgl/src/draw/lv_draw_rect.c **** 
 695:lvgl/lvgl/src/draw/lv_draw_rect.c ****                 if(!simple_sub) {
 696:lvgl/lvgl/src/draw/lv_draw_rect.c ****                     lv_memcpy(mask_buf, sh_buf_tmp, w);
 697:lvgl/lvgl/src/draw/lv_draw_rect.c ****                     mask_res = lv_draw_mask_apply(mask_buf, clip_area_sub.x1, y, w);
 698:lvgl/lvgl/src/draw/lv_draw_rect.c ****                     if(mask_res == LV_DRAW_MASK_RES_FULL_COVER) mask_res = LV_DRAW_MASK_RES_CHANGED
 699:lvgl/lvgl/src/draw/lv_draw_rect.c ****                 }
 700:lvgl/lvgl/src/draw/lv_draw_rect.c ****                 _lv_blend_fill(&clip_area_sub, &blend_area, dsc->shadow_color, *mask_act, mask_res,
 701:lvgl/lvgl/src/draw/lv_draw_rect.c ****             }
 702:lvgl/lvgl/src/draw/lv_draw_rect.c ****         }
 703:lvgl/lvgl/src/draw/lv_draw_rect.c ****     }
 704:lvgl/lvgl/src/draw/lv_draw_rect.c **** 
 705:lvgl/lvgl/src/draw/lv_draw_rect.c ****     /*Mirror the shadow corner buffer horizontally*/
 706:lvgl/lvgl/src/draw/lv_draw_rect.c ****     sh_buf_tmp = sh_buf ;
 707:lvgl/lvgl/src/draw/lv_draw_rect.c ****     for(y = 0; y < corner_size; y++) {
 708:lvgl/lvgl/src/draw/lv_draw_rect.c ****         int32_t x;
 709:lvgl/lvgl/src/draw/lv_draw_rect.c ****         lv_opa_t * start = sh_buf_tmp;
 710:lvgl/lvgl/src/draw/lv_draw_rect.c ****         lv_opa_t * end = sh_buf_tmp + corner_size - 1;
 711:lvgl/lvgl/src/draw/lv_draw_rect.c ****         for(x = 0; x < corner_size / 2; x++) {
 712:lvgl/lvgl/src/draw/lv_draw_rect.c ****             lv_opa_t tmp = *start;
 713:lvgl/lvgl/src/draw/lv_draw_rect.c ****             *start = *end;
 714:lvgl/lvgl/src/draw/lv_draw_rect.c ****             *end = tmp;
ARM GAS  C:\Users\gx\AppData\Local\Temp\ccP7i1j8.s 			page 14


 715:lvgl/lvgl/src/draw/lv_draw_rect.c **** 
 716:lvgl/lvgl/src/draw/lv_draw_rect.c ****             start++;
 717:lvgl/lvgl/src/draw/lv_draw_rect.c ****             end--;
 718:lvgl/lvgl/src/draw/lv_draw_rect.c ****         }
 719:lvgl/lvgl/src/draw/lv_draw_rect.c ****         sh_buf_tmp += corner_size;
 720:lvgl/lvgl/src/draw/lv_draw_rect.c ****     }
 721:lvgl/lvgl/src/draw/lv_draw_rect.c **** 
 722:lvgl/lvgl/src/draw/lv_draw_rect.c **** 
 723:lvgl/lvgl/src/draw/lv_draw_rect.c ****     /*Left side*/
 724:lvgl/lvgl/src/draw/lv_draw_rect.c ****     blend_area.x1 = shadow_area.x1;
 725:lvgl/lvgl/src/draw/lv_draw_rect.c ****     blend_area.x2 = shadow_area.x1 + corner_size - 1;
 726:lvgl/lvgl/src/draw/lv_draw_rect.c ****     blend_area.y1 = shadow_area.y1 + corner_size;
 727:lvgl/lvgl/src/draw/lv_draw_rect.c ****     blend_area.y2 = shadow_area.y2 - corner_size;
 728:lvgl/lvgl/src/draw/lv_draw_rect.c ****     /*Do not overdraw the other corners*/
 729:lvgl/lvgl/src/draw/lv_draw_rect.c ****     blend_area.y1 = LV_MIN(blend_area.y1, h_half + 1);
 730:lvgl/lvgl/src/draw/lv_draw_rect.c ****     blend_area.y2 = LV_MAX(blend_area.y2, h_half);
 731:lvgl/lvgl/src/draw/lv_draw_rect.c **** 
 732:lvgl/lvgl/src/draw/lv_draw_rect.c ****     if(_lv_area_intersect(&clip_area_sub, &blend_area, clip) && !_lv_area_is_in(&clip_area_sub, &bg
 733:lvgl/lvgl/src/draw/lv_draw_rect.c ****         lv_coord_t w = lv_area_get_width(&clip_area_sub);
 734:lvgl/lvgl/src/draw/lv_draw_rect.c ****         sh_buf_tmp = sh_buf;
 735:lvgl/lvgl/src/draw/lv_draw_rect.c ****         sh_buf_tmp += (corner_size - 1) * corner_size;
 736:lvgl/lvgl/src/draw/lv_draw_rect.c ****         sh_buf_tmp += clip_area_sub.x1 - blend_area.x1;
 737:lvgl/lvgl/src/draw/lv_draw_rect.c **** 
 738:lvgl/lvgl/src/draw/lv_draw_rect.c ****         /*Do not mask if out of the bg*/
 739:lvgl/lvgl/src/draw/lv_draw_rect.c ****         if(!mask_any && _lv_area_is_out(&clip_area_sub, &bg_area, r_bg)) simple_sub = true;
 740:lvgl/lvgl/src/draw/lv_draw_rect.c ****         else simple_sub = simple;
 741:lvgl/lvgl/src/draw/lv_draw_rect.c ****         mask_act = simple_sub ? &sh_buf_tmp : &mask_buf;
 742:lvgl/lvgl/src/draw/lv_draw_rect.c ****         if(w > 0) {
 743:lvgl/lvgl/src/draw/lv_draw_rect.c ****             mask_res = LV_DRAW_MASK_RES_CHANGED;    /*In simple mode it won't be overwritten*/
 744:lvgl/lvgl/src/draw/lv_draw_rect.c ****             for(y = clip_area_sub.y1; y <= clip_area_sub.y2; y++) {
 745:lvgl/lvgl/src/draw/lv_draw_rect.c ****                 blend_area.y1 = y;
 746:lvgl/lvgl/src/draw/lv_draw_rect.c ****                 blend_area.y2 = y;
 747:lvgl/lvgl/src/draw/lv_draw_rect.c **** 
 748:lvgl/lvgl/src/draw/lv_draw_rect.c ****                 if(!simple_sub) {
 749:lvgl/lvgl/src/draw/lv_draw_rect.c ****                     lv_memcpy(mask_buf, sh_buf_tmp, w);
 750:lvgl/lvgl/src/draw/lv_draw_rect.c ****                     mask_res = lv_draw_mask_apply(mask_buf, clip_area_sub.x1, y, w);
 751:lvgl/lvgl/src/draw/lv_draw_rect.c ****                     if(mask_res == LV_DRAW_MASK_RES_FULL_COVER) mask_res = LV_DRAW_MASK_RES_CHANGED
 752:lvgl/lvgl/src/draw/lv_draw_rect.c ****                 }
 753:lvgl/lvgl/src/draw/lv_draw_rect.c ****                 _lv_blend_fill(&clip_area_sub, &blend_area, dsc->shadow_color, *mask_act, mask_res,
 754:lvgl/lvgl/src/draw/lv_draw_rect.c ****             }
 755:lvgl/lvgl/src/draw/lv_draw_rect.c ****         }
 756:lvgl/lvgl/src/draw/lv_draw_rect.c ****     }
 757:lvgl/lvgl/src/draw/lv_draw_rect.c **** 
 758:lvgl/lvgl/src/draw/lv_draw_rect.c ****     /*Top left corner*/
 759:lvgl/lvgl/src/draw/lv_draw_rect.c ****     blend_area.x1 = shadow_area.x1;
 760:lvgl/lvgl/src/draw/lv_draw_rect.c ****     blend_area.x2 = shadow_area.x1 + corner_size - 1;
 761:lvgl/lvgl/src/draw/lv_draw_rect.c ****     blend_area.y1 = shadow_area.y1;
 762:lvgl/lvgl/src/draw/lv_draw_rect.c ****     blend_area.y2 = shadow_area.y1 + corner_size - 1;
 763:lvgl/lvgl/src/draw/lv_draw_rect.c ****     /*Do not overdraw the other corners*/
 764:lvgl/lvgl/src/draw/lv_draw_rect.c ****     blend_area.x2 = LV_MIN(blend_area.x2, w_half - 1);
 765:lvgl/lvgl/src/draw/lv_draw_rect.c ****     blend_area.y2 = LV_MIN(blend_area.y2, h_half);
 766:lvgl/lvgl/src/draw/lv_draw_rect.c **** 
 767:lvgl/lvgl/src/draw/lv_draw_rect.c ****     if(_lv_area_intersect(&clip_area_sub, &blend_area, clip) && !_lv_area_is_in(&clip_area_sub, &bg
 768:lvgl/lvgl/src/draw/lv_draw_rect.c ****         lv_coord_t w = lv_area_get_width(&clip_area_sub);
 769:lvgl/lvgl/src/draw/lv_draw_rect.c ****         sh_buf_tmp = sh_buf;
 770:lvgl/lvgl/src/draw/lv_draw_rect.c ****         sh_buf_tmp += (clip_area_sub.y1 - blend_area.y1) * corner_size;
 771:lvgl/lvgl/src/draw/lv_draw_rect.c ****         sh_buf_tmp += clip_area_sub.x1 - blend_area.x1;
ARM GAS  C:\Users\gx\AppData\Local\Temp\ccP7i1j8.s 			page 15


 772:lvgl/lvgl/src/draw/lv_draw_rect.c **** 
 773:lvgl/lvgl/src/draw/lv_draw_rect.c ****         /*Do not mask if out of the bg*/
 774:lvgl/lvgl/src/draw/lv_draw_rect.c ****         if(!mask_any && _lv_area_is_out(&clip_area_sub, &bg_area, r_bg)) simple_sub = true;
 775:lvgl/lvgl/src/draw/lv_draw_rect.c ****         else simple_sub = simple;
 776:lvgl/lvgl/src/draw/lv_draw_rect.c ****         mask_act = simple_sub ? &sh_buf_tmp : &mask_buf;
 777:lvgl/lvgl/src/draw/lv_draw_rect.c **** 
 778:lvgl/lvgl/src/draw/lv_draw_rect.c ****         if(w > 0) {
 779:lvgl/lvgl/src/draw/lv_draw_rect.c ****             mask_res = LV_DRAW_MASK_RES_CHANGED;    /*In simple mode it won't be overwritten*/
 780:lvgl/lvgl/src/draw/lv_draw_rect.c ****             for(y = clip_area_sub.y1; y <= clip_area_sub.y2; y++) {
 781:lvgl/lvgl/src/draw/lv_draw_rect.c ****                 blend_area.y1 = y;
 782:lvgl/lvgl/src/draw/lv_draw_rect.c ****                 blend_area.y2 = y;
 783:lvgl/lvgl/src/draw/lv_draw_rect.c **** 
 784:lvgl/lvgl/src/draw/lv_draw_rect.c ****                 if(!simple_sub) {
 785:lvgl/lvgl/src/draw/lv_draw_rect.c ****                     lv_memcpy(mask_buf, sh_buf_tmp, corner_size);
 786:lvgl/lvgl/src/draw/lv_draw_rect.c ****                     mask_res = lv_draw_mask_apply(mask_buf, clip_area_sub.x1, y, w);
 787:lvgl/lvgl/src/draw/lv_draw_rect.c ****                     if(mask_res == LV_DRAW_MASK_RES_FULL_COVER) mask_res = LV_DRAW_MASK_RES_CHANGED
 788:lvgl/lvgl/src/draw/lv_draw_rect.c ****                 }
 789:lvgl/lvgl/src/draw/lv_draw_rect.c ****                 _lv_blend_fill(&clip_area_sub, &blend_area, dsc->shadow_color, *mask_act, mask_res,
 790:lvgl/lvgl/src/draw/lv_draw_rect.c ****                 sh_buf_tmp += corner_size;
 791:lvgl/lvgl/src/draw/lv_draw_rect.c ****             }
 792:lvgl/lvgl/src/draw/lv_draw_rect.c ****         }
 793:lvgl/lvgl/src/draw/lv_draw_rect.c ****     }
 794:lvgl/lvgl/src/draw/lv_draw_rect.c **** 
 795:lvgl/lvgl/src/draw/lv_draw_rect.c ****     /*Bottom left corner.
 796:lvgl/lvgl/src/draw/lv_draw_rect.c ****      *Almost the same as bottom right just read the lines of `sh_buf` from then end*/
 797:lvgl/lvgl/src/draw/lv_draw_rect.c ****     blend_area.x1 = shadow_area.x1 ;
 798:lvgl/lvgl/src/draw/lv_draw_rect.c ****     blend_area.x2 = shadow_area.x1 + corner_size - 1;
 799:lvgl/lvgl/src/draw/lv_draw_rect.c ****     blend_area.y1 = shadow_area.y2 - corner_size + 1;
 800:lvgl/lvgl/src/draw/lv_draw_rect.c ****     blend_area.y2 = shadow_area.y2;
 801:lvgl/lvgl/src/draw/lv_draw_rect.c ****     /*Do not overdraw the other corners*/
 802:lvgl/lvgl/src/draw/lv_draw_rect.c ****     blend_area.y1 = LV_MAX(blend_area.y1, h_half + 1);
 803:lvgl/lvgl/src/draw/lv_draw_rect.c ****     blend_area.x2 = LV_MIN(blend_area.x2, w_half - 1);
 804:lvgl/lvgl/src/draw/lv_draw_rect.c **** 
 805:lvgl/lvgl/src/draw/lv_draw_rect.c ****     if(_lv_area_intersect(&clip_area_sub, &blend_area, clip) && !_lv_area_is_in(&clip_area_sub, &bg
 806:lvgl/lvgl/src/draw/lv_draw_rect.c ****         lv_coord_t w = lv_area_get_width(&clip_area_sub);
 807:lvgl/lvgl/src/draw/lv_draw_rect.c ****         sh_buf_tmp = sh_buf;
 808:lvgl/lvgl/src/draw/lv_draw_rect.c ****         sh_buf_tmp += (blend_area.y2 - clip_area_sub.y2) * corner_size;
 809:lvgl/lvgl/src/draw/lv_draw_rect.c ****         sh_buf_tmp += clip_area_sub.x1 - blend_area.x1;
 810:lvgl/lvgl/src/draw/lv_draw_rect.c **** 
 811:lvgl/lvgl/src/draw/lv_draw_rect.c ****         /*Do not mask if out of the bg*/
 812:lvgl/lvgl/src/draw/lv_draw_rect.c ****         if(!mask_any && _lv_area_is_out(&clip_area_sub, &bg_area, r_bg)) simple_sub = true;
 813:lvgl/lvgl/src/draw/lv_draw_rect.c ****         else simple_sub = simple;
 814:lvgl/lvgl/src/draw/lv_draw_rect.c ****         mask_act = simple_sub ? &sh_buf_tmp : &mask_buf;
 815:lvgl/lvgl/src/draw/lv_draw_rect.c ****         if(w > 0) {
 816:lvgl/lvgl/src/draw/lv_draw_rect.c ****             mask_res = LV_DRAW_MASK_RES_CHANGED;    /*In simple mode it won't be overwritten*/
 817:lvgl/lvgl/src/draw/lv_draw_rect.c ****             for(y = clip_area_sub.y2; y >= clip_area_sub.y1; y--) {
 818:lvgl/lvgl/src/draw/lv_draw_rect.c ****                 blend_area.y1 = y;
 819:lvgl/lvgl/src/draw/lv_draw_rect.c ****                 blend_area.y2 = y;
 820:lvgl/lvgl/src/draw/lv_draw_rect.c **** 
 821:lvgl/lvgl/src/draw/lv_draw_rect.c ****                 if(!simple_sub) {
 822:lvgl/lvgl/src/draw/lv_draw_rect.c ****                     lv_memcpy(mask_buf, sh_buf_tmp, corner_size);
 823:lvgl/lvgl/src/draw/lv_draw_rect.c ****                     mask_res = lv_draw_mask_apply(mask_buf, clip_area_sub.x1, y, w);
 824:lvgl/lvgl/src/draw/lv_draw_rect.c ****                     if(mask_res == LV_DRAW_MASK_RES_FULL_COVER) mask_res = LV_DRAW_MASK_RES_CHANGED
 825:lvgl/lvgl/src/draw/lv_draw_rect.c ****                 }
 826:lvgl/lvgl/src/draw/lv_draw_rect.c ****                 _lv_blend_fill(&clip_area_sub, &blend_area, dsc->shadow_color, *mask_act, mask_res,
 827:lvgl/lvgl/src/draw/lv_draw_rect.c ****                 sh_buf_tmp += corner_size;
 828:lvgl/lvgl/src/draw/lv_draw_rect.c ****             }
ARM GAS  C:\Users\gx\AppData\Local\Temp\ccP7i1j8.s 			page 16


 829:lvgl/lvgl/src/draw/lv_draw_rect.c ****         }
 830:lvgl/lvgl/src/draw/lv_draw_rect.c ****     }
 831:lvgl/lvgl/src/draw/lv_draw_rect.c **** 
 832:lvgl/lvgl/src/draw/lv_draw_rect.c ****     /*Draw the center rectangle.*/
 833:lvgl/lvgl/src/draw/lv_draw_rect.c ****     blend_area.x1 = shadow_area.x1 + corner_size ;
 834:lvgl/lvgl/src/draw/lv_draw_rect.c ****     blend_area.x2 = shadow_area.x2 - corner_size;
 835:lvgl/lvgl/src/draw/lv_draw_rect.c ****     blend_area.y1 = shadow_area.y1 + corner_size;
 836:lvgl/lvgl/src/draw/lv_draw_rect.c ****     blend_area.y2 = shadow_area.y2 - corner_size;
 837:lvgl/lvgl/src/draw/lv_draw_rect.c **** 
 838:lvgl/lvgl/src/draw/lv_draw_rect.c ****     if(_lv_area_intersect(&clip_area_sub, &blend_area, clip) && !_lv_area_is_in(&clip_area_sub, &bg
 839:lvgl/lvgl/src/draw/lv_draw_rect.c ****         lv_coord_t w = lv_area_get_width(&clip_area_sub);
 840:lvgl/lvgl/src/draw/lv_draw_rect.c ****         if(w > 0) {
 841:lvgl/lvgl/src/draw/lv_draw_rect.c ****             for(y = clip_area_sub.y1; y <= clip_area_sub.y2; y++) {
 842:lvgl/lvgl/src/draw/lv_draw_rect.c ****                 blend_area.y1 = y;
 843:lvgl/lvgl/src/draw/lv_draw_rect.c ****                 blend_area.y2 = y;
 844:lvgl/lvgl/src/draw/lv_draw_rect.c **** 
 845:lvgl/lvgl/src/draw/lv_draw_rect.c ****                 lv_memset_ff(mask_buf, w);
 846:lvgl/lvgl/src/draw/lv_draw_rect.c ****                 mask_res = lv_draw_mask_apply(mask_buf, clip_area_sub.x1, y, w);
 847:lvgl/lvgl/src/draw/lv_draw_rect.c ****                 _lv_blend_fill(&clip_area_sub, &blend_area, dsc->shadow_color, mask_buf, mask_res, 
 848:lvgl/lvgl/src/draw/lv_draw_rect.c ****             }
 849:lvgl/lvgl/src/draw/lv_draw_rect.c ****         }
 850:lvgl/lvgl/src/draw/lv_draw_rect.c ****     }
 851:lvgl/lvgl/src/draw/lv_draw_rect.c **** 
 852:lvgl/lvgl/src/draw/lv_draw_rect.c ****     if(!simple) {
 853:lvgl/lvgl/src/draw/lv_draw_rect.c ****         lv_draw_mask_free_param(&mask_rout_param);
 854:lvgl/lvgl/src/draw/lv_draw_rect.c ****         lv_draw_mask_remove_id(mask_rout_id);
 855:lvgl/lvgl/src/draw/lv_draw_rect.c ****     }
 856:lvgl/lvgl/src/draw/lv_draw_rect.c ****     lv_mem_buf_release(sh_buf);
 857:lvgl/lvgl/src/draw/lv_draw_rect.c ****     lv_mem_buf_release(mask_buf);
 858:lvgl/lvgl/src/draw/lv_draw_rect.c **** }
 859:lvgl/lvgl/src/draw/lv_draw_rect.c **** 
 860:lvgl/lvgl/src/draw/lv_draw_rect.c **** /**
 861:lvgl/lvgl/src/draw/lv_draw_rect.c ****  * Calculate a blurred corner
 862:lvgl/lvgl/src/draw/lv_draw_rect.c ****  * @param coords Coordinates of the shadow
 863:lvgl/lvgl/src/draw/lv_draw_rect.c ****  * @param sh_buf a buffer to store the result. It's size should be `(sw + r)^2 * 2`
 864:lvgl/lvgl/src/draw/lv_draw_rect.c ****  * @param sw shadow width
 865:lvgl/lvgl/src/draw/lv_draw_rect.c ****  * @param r radius
 866:lvgl/lvgl/src/draw/lv_draw_rect.c ****  */
 867:lvgl/lvgl/src/draw/lv_draw_rect.c **** LV_ATTRIBUTE_FAST_MEM static void shadow_draw_corner_buf(const lv_area_t * coords, uint16_t * sh_bu
 868:lvgl/lvgl/src/draw/lv_draw_rect.c ****                                                          lv_coord_t r)
 869:lvgl/lvgl/src/draw/lv_draw_rect.c **** {
 870:lvgl/lvgl/src/draw/lv_draw_rect.c ****     int32_t sw_ori = sw;
 871:lvgl/lvgl/src/draw/lv_draw_rect.c ****     int32_t size = sw_ori  + r;
 872:lvgl/lvgl/src/draw/lv_draw_rect.c **** 
 873:lvgl/lvgl/src/draw/lv_draw_rect.c ****     lv_area_t sh_area;
 874:lvgl/lvgl/src/draw/lv_draw_rect.c ****     lv_area_copy(&sh_area, coords);
 875:lvgl/lvgl/src/draw/lv_draw_rect.c ****     sh_area.x2 = sw / 2 + r - 1  - ((sw & 1) ? 0 : 1);
 876:lvgl/lvgl/src/draw/lv_draw_rect.c ****     sh_area.y1 = sw / 2 + 1;
 877:lvgl/lvgl/src/draw/lv_draw_rect.c **** 
 878:lvgl/lvgl/src/draw/lv_draw_rect.c ****     sh_area.x1 = sh_area.x2 - lv_area_get_width(coords);
 879:lvgl/lvgl/src/draw/lv_draw_rect.c ****     sh_area.y2 = sh_area.y1 + lv_area_get_height(coords);
 880:lvgl/lvgl/src/draw/lv_draw_rect.c **** 
 881:lvgl/lvgl/src/draw/lv_draw_rect.c ****     lv_draw_mask_radius_param_t mask_param;
 882:lvgl/lvgl/src/draw/lv_draw_rect.c ****     lv_draw_mask_radius_init(&mask_param, &sh_area, r, false);
 883:lvgl/lvgl/src/draw/lv_draw_rect.c **** 
 884:lvgl/lvgl/src/draw/lv_draw_rect.c **** #if SHADOW_ENHANCE
 885:lvgl/lvgl/src/draw/lv_draw_rect.c ****     /*Set half shadow width width because blur will be repeated*/
ARM GAS  C:\Users\gx\AppData\Local\Temp\ccP7i1j8.s 			page 17


 886:lvgl/lvgl/src/draw/lv_draw_rect.c ****     if(sw_ori == 1) sw = 1;
 887:lvgl/lvgl/src/draw/lv_draw_rect.c ****     else sw = sw_ori >> 1;
 888:lvgl/lvgl/src/draw/lv_draw_rect.c **** #endif
 889:lvgl/lvgl/src/draw/lv_draw_rect.c **** 
 890:lvgl/lvgl/src/draw/lv_draw_rect.c ****     int32_t y;
 891:lvgl/lvgl/src/draw/lv_draw_rect.c ****     lv_opa_t * mask_line = lv_mem_buf_get(size);
 892:lvgl/lvgl/src/draw/lv_draw_rect.c ****     uint16_t * sh_ups_tmp_buf = (uint16_t *)sh_buf;
 893:lvgl/lvgl/src/draw/lv_draw_rect.c ****     for(y = 0; y < size; y++) {
 894:lvgl/lvgl/src/draw/lv_draw_rect.c ****         lv_memset_ff(mask_line, size);
 895:lvgl/lvgl/src/draw/lv_draw_rect.c ****         lv_draw_mask_res_t mask_res = mask_param.dsc.cb(mask_line, 0, y, size, &mask_param);
 896:lvgl/lvgl/src/draw/lv_draw_rect.c ****         if(mask_res == LV_DRAW_MASK_RES_TRANSP) {
 897:lvgl/lvgl/src/draw/lv_draw_rect.c ****             lv_memset_00(sh_ups_tmp_buf, size * sizeof(sh_ups_tmp_buf[0]));
 898:lvgl/lvgl/src/draw/lv_draw_rect.c ****         }
 899:lvgl/lvgl/src/draw/lv_draw_rect.c ****         else {
 900:lvgl/lvgl/src/draw/lv_draw_rect.c ****             int32_t i;
 901:lvgl/lvgl/src/draw/lv_draw_rect.c ****             sh_ups_tmp_buf[0] = (mask_line[0] << SHADOW_UPSCALE_SHIFT) / sw;
 902:lvgl/lvgl/src/draw/lv_draw_rect.c ****             for(i = 1; i < size; i++) {
 903:lvgl/lvgl/src/draw/lv_draw_rect.c ****                 if(mask_line[i] == mask_line[i - 1]) sh_ups_tmp_buf[i] = sh_ups_tmp_buf[i - 1];
 904:lvgl/lvgl/src/draw/lv_draw_rect.c ****                 else  sh_ups_tmp_buf[i] = (mask_line[i] << SHADOW_UPSCALE_SHIFT) / sw;
 905:lvgl/lvgl/src/draw/lv_draw_rect.c ****             }
 906:lvgl/lvgl/src/draw/lv_draw_rect.c ****         }
 907:lvgl/lvgl/src/draw/lv_draw_rect.c **** 
 908:lvgl/lvgl/src/draw/lv_draw_rect.c ****         sh_ups_tmp_buf += size;
 909:lvgl/lvgl/src/draw/lv_draw_rect.c ****     }
 910:lvgl/lvgl/src/draw/lv_draw_rect.c ****     lv_mem_buf_release(mask_line);
 911:lvgl/lvgl/src/draw/lv_draw_rect.c **** 
 912:lvgl/lvgl/src/draw/lv_draw_rect.c ****     lv_draw_mask_free_param(&mask_param);
 913:lvgl/lvgl/src/draw/lv_draw_rect.c **** 
 914:lvgl/lvgl/src/draw/lv_draw_rect.c ****     if(sw == 1) {
 915:lvgl/lvgl/src/draw/lv_draw_rect.c ****         int32_t i;
 916:lvgl/lvgl/src/draw/lv_draw_rect.c ****         lv_opa_t * res_buf = (lv_opa_t *)sh_buf;
 917:lvgl/lvgl/src/draw/lv_draw_rect.c ****         for(i = 0; i < size * size; i++) {
 918:lvgl/lvgl/src/draw/lv_draw_rect.c ****             res_buf[i] = (sh_buf[i] >> SHADOW_UPSCALE_SHIFT);
 919:lvgl/lvgl/src/draw/lv_draw_rect.c ****         }
 920:lvgl/lvgl/src/draw/lv_draw_rect.c ****         return;
 921:lvgl/lvgl/src/draw/lv_draw_rect.c ****     }
 922:lvgl/lvgl/src/draw/lv_draw_rect.c **** 
 923:lvgl/lvgl/src/draw/lv_draw_rect.c ****     shadow_blur_corner(size, sw, sh_buf);
 924:lvgl/lvgl/src/draw/lv_draw_rect.c **** 
 925:lvgl/lvgl/src/draw/lv_draw_rect.c **** #if SHADOW_ENHANCE == 0
 926:lvgl/lvgl/src/draw/lv_draw_rect.c ****     /*The result is required in lv_opa_t not uint16_t*/
 927:lvgl/lvgl/src/draw/lv_draw_rect.c ****     uint32_t x;
 928:lvgl/lvgl/src/draw/lv_draw_rect.c ****     lv_opa_t * res_buf = (lv_opa_t *)sh_buf;
 929:lvgl/lvgl/src/draw/lv_draw_rect.c ****     for(x = 0; x < size * size; x++) {
 930:lvgl/lvgl/src/draw/lv_draw_rect.c ****         res_buf[x] = sh_buf[x];
 931:lvgl/lvgl/src/draw/lv_draw_rect.c ****     }
 932:lvgl/lvgl/src/draw/lv_draw_rect.c **** #else
 933:lvgl/lvgl/src/draw/lv_draw_rect.c ****     sw += sw_ori & 1;
 934:lvgl/lvgl/src/draw/lv_draw_rect.c ****     if(sw > 1) {
 935:lvgl/lvgl/src/draw/lv_draw_rect.c ****         uint32_t i;
 936:lvgl/lvgl/src/draw/lv_draw_rect.c ****         uint32_t max_v_div = (LV_OPA_COVER << SHADOW_UPSCALE_SHIFT) / sw;
 937:lvgl/lvgl/src/draw/lv_draw_rect.c ****         for(i = 0; i < (uint32_t)size * size; i++) {
 938:lvgl/lvgl/src/draw/lv_draw_rect.c ****             if(sh_buf[i] == 0) continue;
 939:lvgl/lvgl/src/draw/lv_draw_rect.c ****             else if(sh_buf[i] == LV_OPA_COVER) sh_buf[i] = max_v_div;
 940:lvgl/lvgl/src/draw/lv_draw_rect.c ****             else  sh_buf[i] = (sh_buf[i] << SHADOW_UPSCALE_SHIFT) / sw;
 941:lvgl/lvgl/src/draw/lv_draw_rect.c ****         }
 942:lvgl/lvgl/src/draw/lv_draw_rect.c **** 
ARM GAS  C:\Users\gx\AppData\Local\Temp\ccP7i1j8.s 			page 18


 943:lvgl/lvgl/src/draw/lv_draw_rect.c ****         shadow_blur_corner(size, sw, sh_buf);
 944:lvgl/lvgl/src/draw/lv_draw_rect.c ****     }
 945:lvgl/lvgl/src/draw/lv_draw_rect.c ****     int32_t x;
 946:lvgl/lvgl/src/draw/lv_draw_rect.c ****     lv_opa_t * res_buf = (lv_opa_t *)sh_buf;
 947:lvgl/lvgl/src/draw/lv_draw_rect.c ****     for(x = 0; x < size * size; x++) {
 948:lvgl/lvgl/src/draw/lv_draw_rect.c ****         res_buf[x] = sh_buf[x];
 949:lvgl/lvgl/src/draw/lv_draw_rect.c ****     }
 950:lvgl/lvgl/src/draw/lv_draw_rect.c **** #endif
 951:lvgl/lvgl/src/draw/lv_draw_rect.c **** 
 952:lvgl/lvgl/src/draw/lv_draw_rect.c **** }
 953:lvgl/lvgl/src/draw/lv_draw_rect.c **** 
 954:lvgl/lvgl/src/draw/lv_draw_rect.c **** LV_ATTRIBUTE_FAST_MEM static void shadow_blur_corner(lv_coord_t size, lv_coord_t sw, uint16_t * sh_
 955:lvgl/lvgl/src/draw/lv_draw_rect.c **** {
 956:lvgl/lvgl/src/draw/lv_draw_rect.c ****     int32_t s_left = sw >> 1;
 957:lvgl/lvgl/src/draw/lv_draw_rect.c ****     int32_t s_right = (sw >> 1);
 958:lvgl/lvgl/src/draw/lv_draw_rect.c ****     if((sw & 1) == 0) s_left--;
 959:lvgl/lvgl/src/draw/lv_draw_rect.c **** 
 960:lvgl/lvgl/src/draw/lv_draw_rect.c ****     /*Horizontal blur*/
 961:lvgl/lvgl/src/draw/lv_draw_rect.c ****     uint16_t * sh_ups_blur_buf = lv_mem_buf_get(size * sizeof(uint16_t));
 962:lvgl/lvgl/src/draw/lv_draw_rect.c **** 
 963:lvgl/lvgl/src/draw/lv_draw_rect.c ****     int32_t x;
 964:lvgl/lvgl/src/draw/lv_draw_rect.c ****     int32_t y;
 965:lvgl/lvgl/src/draw/lv_draw_rect.c **** 
 966:lvgl/lvgl/src/draw/lv_draw_rect.c ****     uint16_t * sh_ups_tmp_buf = sh_ups_buf;
 967:lvgl/lvgl/src/draw/lv_draw_rect.c **** 
 968:lvgl/lvgl/src/draw/lv_draw_rect.c ****     for(y = 0; y < size; y++) {
 969:lvgl/lvgl/src/draw/lv_draw_rect.c ****         int32_t v = sh_ups_tmp_buf[size - 1] * sw;
 970:lvgl/lvgl/src/draw/lv_draw_rect.c ****         for(x = size - 1; x >= 0; x--) {
 971:lvgl/lvgl/src/draw/lv_draw_rect.c ****             sh_ups_blur_buf[x] = v;
 972:lvgl/lvgl/src/draw/lv_draw_rect.c **** 
 973:lvgl/lvgl/src/draw/lv_draw_rect.c ****             /*Forget the right pixel*/
 974:lvgl/lvgl/src/draw/lv_draw_rect.c ****             uint32_t right_val = 0;
 975:lvgl/lvgl/src/draw/lv_draw_rect.c ****             if(x + s_right < size) right_val = sh_ups_tmp_buf[x + s_right];
 976:lvgl/lvgl/src/draw/lv_draw_rect.c ****             v -= right_val;
 977:lvgl/lvgl/src/draw/lv_draw_rect.c **** 
 978:lvgl/lvgl/src/draw/lv_draw_rect.c ****             /*Add the left pixel*/
 979:lvgl/lvgl/src/draw/lv_draw_rect.c ****             uint32_t left_val;
 980:lvgl/lvgl/src/draw/lv_draw_rect.c ****             if(x - s_left - 1 < 0) left_val = sh_ups_tmp_buf[0];
 981:lvgl/lvgl/src/draw/lv_draw_rect.c ****             else left_val = sh_ups_tmp_buf[x - s_left - 1];
 982:lvgl/lvgl/src/draw/lv_draw_rect.c ****             v += left_val;
 983:lvgl/lvgl/src/draw/lv_draw_rect.c ****         }
 984:lvgl/lvgl/src/draw/lv_draw_rect.c ****         lv_memcpy(sh_ups_tmp_buf, sh_ups_blur_buf, size * sizeof(uint16_t));
 985:lvgl/lvgl/src/draw/lv_draw_rect.c ****         sh_ups_tmp_buf += size;
 986:lvgl/lvgl/src/draw/lv_draw_rect.c ****     }
 987:lvgl/lvgl/src/draw/lv_draw_rect.c **** 
 988:lvgl/lvgl/src/draw/lv_draw_rect.c ****     /*Vertical blur*/
 989:lvgl/lvgl/src/draw/lv_draw_rect.c ****     uint32_t i;
 990:lvgl/lvgl/src/draw/lv_draw_rect.c ****     uint32_t max_v = LV_OPA_COVER << SHADOW_UPSCALE_SHIFT;
 991:lvgl/lvgl/src/draw/lv_draw_rect.c ****     uint32_t max_v_div = max_v / sw;
 992:lvgl/lvgl/src/draw/lv_draw_rect.c ****     for(i = 0; i < (uint32_t)size * size; i++) {
 993:lvgl/lvgl/src/draw/lv_draw_rect.c ****         if(sh_ups_buf[i] == 0) continue;
 994:lvgl/lvgl/src/draw/lv_draw_rect.c ****         else if(sh_ups_buf[i] == max_v) sh_ups_buf[i] = max_v_div;
 995:lvgl/lvgl/src/draw/lv_draw_rect.c ****         else sh_ups_buf[i] = sh_ups_buf[i] / sw;
 996:lvgl/lvgl/src/draw/lv_draw_rect.c ****     }
 997:lvgl/lvgl/src/draw/lv_draw_rect.c **** 
 998:lvgl/lvgl/src/draw/lv_draw_rect.c ****     for(x = 0; x < size; x++) {
 999:lvgl/lvgl/src/draw/lv_draw_rect.c ****         sh_ups_tmp_buf = &sh_ups_buf[x];
ARM GAS  C:\Users\gx\AppData\Local\Temp\ccP7i1j8.s 			page 19


1000:lvgl/lvgl/src/draw/lv_draw_rect.c ****         int32_t v = sh_ups_tmp_buf[0] * sw;
1001:lvgl/lvgl/src/draw/lv_draw_rect.c ****         for(y = 0; y < size ; y++, sh_ups_tmp_buf += size) {
1002:lvgl/lvgl/src/draw/lv_draw_rect.c ****             sh_ups_blur_buf[y] = v < 0 ? 0 : (v >> SHADOW_UPSCALE_SHIFT);
1003:lvgl/lvgl/src/draw/lv_draw_rect.c **** 
1004:lvgl/lvgl/src/draw/lv_draw_rect.c ****             /*Forget the top pixel*/
1005:lvgl/lvgl/src/draw/lv_draw_rect.c ****             uint32_t top_val;
1006:lvgl/lvgl/src/draw/lv_draw_rect.c ****             if(y - s_right <= 0) top_val = sh_ups_tmp_buf[0];
1007:lvgl/lvgl/src/draw/lv_draw_rect.c ****             else top_val = sh_ups_buf[(y - s_right) * size + x];
1008:lvgl/lvgl/src/draw/lv_draw_rect.c ****             v -= top_val;
1009:lvgl/lvgl/src/draw/lv_draw_rect.c **** 
1010:lvgl/lvgl/src/draw/lv_draw_rect.c ****             /*Add the bottom pixel*/
1011:lvgl/lvgl/src/draw/lv_draw_rect.c ****             uint32_t bottom_val;
1012:lvgl/lvgl/src/draw/lv_draw_rect.c ****             if(y + s_left + 1 < size) bottom_val = sh_ups_buf[(y + s_left + 1) * size + x];
1013:lvgl/lvgl/src/draw/lv_draw_rect.c ****             else bottom_val = sh_ups_buf[(size - 1) * size + x];
1014:lvgl/lvgl/src/draw/lv_draw_rect.c ****             v += bottom_val;
1015:lvgl/lvgl/src/draw/lv_draw_rect.c ****         }
1016:lvgl/lvgl/src/draw/lv_draw_rect.c **** 
1017:lvgl/lvgl/src/draw/lv_draw_rect.c ****         /*Write back the result into `sh_ups_buf`*/
1018:lvgl/lvgl/src/draw/lv_draw_rect.c ****         sh_ups_tmp_buf = &sh_ups_buf[x];
1019:lvgl/lvgl/src/draw/lv_draw_rect.c ****         for(y = 0; y < size; y++, sh_ups_tmp_buf += size) {
1020:lvgl/lvgl/src/draw/lv_draw_rect.c ****             (*sh_ups_tmp_buf) = sh_ups_blur_buf[y];
1021:lvgl/lvgl/src/draw/lv_draw_rect.c ****         }
1022:lvgl/lvgl/src/draw/lv_draw_rect.c ****     }
1023:lvgl/lvgl/src/draw/lv_draw_rect.c **** 
1024:lvgl/lvgl/src/draw/lv_draw_rect.c ****     lv_mem_buf_release(sh_ups_blur_buf);
1025:lvgl/lvgl/src/draw/lv_draw_rect.c **** }
1026:lvgl/lvgl/src/draw/lv_draw_rect.c **** 
1027:lvgl/lvgl/src/draw/lv_draw_rect.c **** #endif
1028:lvgl/lvgl/src/draw/lv_draw_rect.c **** 
1029:lvgl/lvgl/src/draw/lv_draw_rect.c **** static void draw_outline(const lv_area_t * coords, const lv_area_t * clip, const lv_draw_rect_dsc_t
1030:lvgl/lvgl/src/draw/lv_draw_rect.c **** {
1031:lvgl/lvgl/src/draw/lv_draw_rect.c ****     if(dsc->outline_opa <= LV_OPA_MIN) return;
1032:lvgl/lvgl/src/draw/lv_draw_rect.c ****     if(dsc->outline_width == 0) return;
1033:lvgl/lvgl/src/draw/lv_draw_rect.c **** 
1034:lvgl/lvgl/src/draw/lv_draw_rect.c ****     lv_opa_t opa = dsc->outline_opa;
1035:lvgl/lvgl/src/draw/lv_draw_rect.c **** 
1036:lvgl/lvgl/src/draw/lv_draw_rect.c ****     if(opa > LV_OPA_MAX) opa = LV_OPA_COVER;
1037:lvgl/lvgl/src/draw/lv_draw_rect.c **** 
1038:lvgl/lvgl/src/draw/lv_draw_rect.c ****     /*Get the inner radius*/
1039:lvgl/lvgl/src/draw/lv_draw_rect.c ****     lv_area_t area_inner;
1040:lvgl/lvgl/src/draw/lv_draw_rect.c ****     lv_area_copy(&area_inner, coords);
1041:lvgl/lvgl/src/draw/lv_draw_rect.c **** 
1042:lvgl/lvgl/src/draw/lv_draw_rect.c ****     /*Extend the outline into the background area if it's overlapping the edge*/
1043:lvgl/lvgl/src/draw/lv_draw_rect.c ****     lv_coord_t pad = (dsc->outline_pad == 0 ? (dsc->outline_pad - 1) : dsc->outline_pad);
1044:lvgl/lvgl/src/draw/lv_draw_rect.c ****     area_inner.x1 -= pad;
1045:lvgl/lvgl/src/draw/lv_draw_rect.c ****     area_inner.y1 -= pad;
1046:lvgl/lvgl/src/draw/lv_draw_rect.c ****     area_inner.x2 += pad;
1047:lvgl/lvgl/src/draw/lv_draw_rect.c ****     area_inner.y2 += pad;
1048:lvgl/lvgl/src/draw/lv_draw_rect.c **** 
1049:lvgl/lvgl/src/draw/lv_draw_rect.c ****     lv_area_t area_outer;
1050:lvgl/lvgl/src/draw/lv_draw_rect.c ****     lv_area_copy(&area_outer, &area_inner);
1051:lvgl/lvgl/src/draw/lv_draw_rect.c **** 
1052:lvgl/lvgl/src/draw/lv_draw_rect.c ****     area_outer.x1 -= dsc->outline_width;
1053:lvgl/lvgl/src/draw/lv_draw_rect.c ****     area_outer.x2 += dsc->outline_width;
1054:lvgl/lvgl/src/draw/lv_draw_rect.c ****     area_outer.y1 -= dsc->outline_width;
1055:lvgl/lvgl/src/draw/lv_draw_rect.c ****     area_outer.y2 += dsc->outline_width;
1056:lvgl/lvgl/src/draw/lv_draw_rect.c **** 
ARM GAS  C:\Users\gx\AppData\Local\Temp\ccP7i1j8.s 			page 20


1057:lvgl/lvgl/src/draw/lv_draw_rect.c **** 
1058:lvgl/lvgl/src/draw/lv_draw_rect.c ****     int32_t inner_w = lv_area_get_width(&area_inner);
1059:lvgl/lvgl/src/draw/lv_draw_rect.c ****     int32_t inner_h = lv_area_get_height(&area_inner);
1060:lvgl/lvgl/src/draw/lv_draw_rect.c ****     int32_t rin = dsc->radius;
1061:lvgl/lvgl/src/draw/lv_draw_rect.c ****     int32_t short_side = LV_MIN(inner_w, inner_h);
1062:lvgl/lvgl/src/draw/lv_draw_rect.c ****     if(rin > short_side >> 1) rin = short_side >> 1;
1063:lvgl/lvgl/src/draw/lv_draw_rect.c **** 
1064:lvgl/lvgl/src/draw/lv_draw_rect.c ****     lv_coord_t rout = rin + dsc->outline_width;
1065:lvgl/lvgl/src/draw/lv_draw_rect.c **** 
1066:lvgl/lvgl/src/draw/lv_draw_rect.c ****     draw_border_generic(clip, &area_outer, &area_inner, rout, rin, dsc->outline_color, dsc->outline
1067:lvgl/lvgl/src/draw/lv_draw_rect.c **** }
1068:lvgl/lvgl/src/draw/lv_draw_rect.c **** 
1069:lvgl/lvgl/src/draw/lv_draw_rect.c **** void draw_border_generic(const lv_area_t * clip_area, const lv_area_t * outer_area, const lv_area_t
1070:lvgl/lvgl/src/draw/lv_draw_rect.c ****                          lv_coord_t rout, lv_coord_t rin, lv_color_t color, lv_opa_t opa, lv_blend_
1071:lvgl/lvgl/src/draw/lv_draw_rect.c **** {
1072:lvgl/lvgl/src/draw/lv_draw_rect.c ****     opa = opa >= LV_OPA_COVER ? LV_OPA_COVER : opa;
1073:lvgl/lvgl/src/draw/lv_draw_rect.c **** 
1074:lvgl/lvgl/src/draw/lv_draw_rect.c ****     if(rout == 0 || rin == 0) {
1075:lvgl/lvgl/src/draw/lv_draw_rect.c ****         draw_border_simple(clip_area, outer_area, inner_area, color, opa);
1076:lvgl/lvgl/src/draw/lv_draw_rect.c ****         return;
1077:lvgl/lvgl/src/draw/lv_draw_rect.c ****     }
1078:lvgl/lvgl/src/draw/lv_draw_rect.c **** 
1079:lvgl/lvgl/src/draw/lv_draw_rect.c **** #if LV_DRAW_COMPLEX
1080:lvgl/lvgl/src/draw/lv_draw_rect.c ****     /*Get clipped draw area which is the real draw area.
1081:lvgl/lvgl/src/draw/lv_draw_rect.c ****      *It is always the same or inside `coords`*/
1082:lvgl/lvgl/src/draw/lv_draw_rect.c ****     lv_area_t draw_area;
1083:lvgl/lvgl/src/draw/lv_draw_rect.c ****     if(!_lv_area_intersect(&draw_area, outer_area, clip_area)) return;
1084:lvgl/lvgl/src/draw/lv_draw_rect.c ****     int32_t draw_area_w = lv_area_get_width(&draw_area);
1085:lvgl/lvgl/src/draw/lv_draw_rect.c **** 
1086:lvgl/lvgl/src/draw/lv_draw_rect.c ****     bool mask_any = lv_draw_mask_is_any(outer_area);
1087:lvgl/lvgl/src/draw/lv_draw_rect.c **** 
1088:lvgl/lvgl/src/draw/lv_draw_rect.c ****     /*Create a mask if there is a radius*/
1089:lvgl/lvgl/src/draw/lv_draw_rect.c ****     lv_opa_t * mask_buf = lv_mem_buf_get(draw_area_w);
1090:lvgl/lvgl/src/draw/lv_draw_rect.c **** 
1091:lvgl/lvgl/src/draw/lv_draw_rect.c ****     /*Create mask for the outer area*/
1092:lvgl/lvgl/src/draw/lv_draw_rect.c ****     int16_t mask_rout_id = LV_MASK_ID_INV;
1093:lvgl/lvgl/src/draw/lv_draw_rect.c ****     lv_draw_mask_radius_param_t mask_rout_param;
1094:lvgl/lvgl/src/draw/lv_draw_rect.c ****     if(rout > 0) {
1095:lvgl/lvgl/src/draw/lv_draw_rect.c ****         lv_draw_mask_radius_init(&mask_rout_param, outer_area, rout, false);
1096:lvgl/lvgl/src/draw/lv_draw_rect.c ****         mask_rout_id = lv_draw_mask_add(&mask_rout_param, NULL);
1097:lvgl/lvgl/src/draw/lv_draw_rect.c ****     }
1098:lvgl/lvgl/src/draw/lv_draw_rect.c **** 
1099:lvgl/lvgl/src/draw/lv_draw_rect.c ****     /*Create mask for the inner mask*/
1100:lvgl/lvgl/src/draw/lv_draw_rect.c ****     lv_draw_mask_radius_param_t mask_rin_param;
1101:lvgl/lvgl/src/draw/lv_draw_rect.c ****     lv_draw_mask_radius_init(&mask_rin_param, inner_area, rin, true);
1102:lvgl/lvgl/src/draw/lv_draw_rect.c ****     int16_t mask_rin_id = lv_draw_mask_add(&mask_rin_param, NULL);
1103:lvgl/lvgl/src/draw/lv_draw_rect.c **** 
1104:lvgl/lvgl/src/draw/lv_draw_rect.c ****     int32_t h;
1105:lvgl/lvgl/src/draw/lv_draw_rect.c ****     lv_draw_mask_res_t mask_res;
1106:lvgl/lvgl/src/draw/lv_draw_rect.c ****     lv_area_t blend_area;
1107:lvgl/lvgl/src/draw/lv_draw_rect.c **** 
1108:lvgl/lvgl/src/draw/lv_draw_rect.c ****     /*Calculate the x and y coordinates where the straight parts area*/
1109:lvgl/lvgl/src/draw/lv_draw_rect.c ****     lv_area_t core_area;
1110:lvgl/lvgl/src/draw/lv_draw_rect.c ****     core_area.x1 = LV_MAX(outer_area->x1 + rout, inner_area->x1);
1111:lvgl/lvgl/src/draw/lv_draw_rect.c ****     core_area.x2 = LV_MIN(outer_area->x2 - rout, inner_area->x2);
1112:lvgl/lvgl/src/draw/lv_draw_rect.c ****     core_area.y1 = LV_MAX(outer_area->y1 + rout, inner_area->y1);
1113:lvgl/lvgl/src/draw/lv_draw_rect.c ****     core_area.y2 = LV_MIN(outer_area->y2 - rout, inner_area->y2);
ARM GAS  C:\Users\gx\AppData\Local\Temp\ccP7i1j8.s 			page 21


1114:lvgl/lvgl/src/draw/lv_draw_rect.c ****     lv_coord_t core_w = lv_area_get_width(&core_area);
1115:lvgl/lvgl/src/draw/lv_draw_rect.c **** 
1116:lvgl/lvgl/src/draw/lv_draw_rect.c ****     bool top_side = outer_area->y1 <= inner_area->y1 ? true : false;
1117:lvgl/lvgl/src/draw/lv_draw_rect.c ****     bool bottom_side = outer_area->y2 >= inner_area->y2 ? true : false;
1118:lvgl/lvgl/src/draw/lv_draw_rect.c **** 
1119:lvgl/lvgl/src/draw/lv_draw_rect.c ****     /*If there is other masks, need to draw line by line*/
1120:lvgl/lvgl/src/draw/lv_draw_rect.c ****     if(mask_any) {
1121:lvgl/lvgl/src/draw/lv_draw_rect.c ****         blend_area.x1 = draw_area.x1;
1122:lvgl/lvgl/src/draw/lv_draw_rect.c ****         blend_area.x2 = draw_area.x2;
1123:lvgl/lvgl/src/draw/lv_draw_rect.c ****         for(h = draw_area.y1; h < draw_area.y2; h++) {
1124:lvgl/lvgl/src/draw/lv_draw_rect.c ****             if(!top_side && h < core_area.y1) continue;
1125:lvgl/lvgl/src/draw/lv_draw_rect.c ****             if(!bottom_side && h > core_area.y2) break;
1126:lvgl/lvgl/src/draw/lv_draw_rect.c **** 
1127:lvgl/lvgl/src/draw/lv_draw_rect.c ****             blend_area.y1 = h;
1128:lvgl/lvgl/src/draw/lv_draw_rect.c ****             blend_area.y2 = h;
1129:lvgl/lvgl/src/draw/lv_draw_rect.c **** 
1130:lvgl/lvgl/src/draw/lv_draw_rect.c ****             lv_memset_ff(mask_buf, draw_area_w);
1131:lvgl/lvgl/src/draw/lv_draw_rect.c ****             mask_res = lv_draw_mask_apply(mask_buf, draw_area.x1, h, draw_area_w);
1132:lvgl/lvgl/src/draw/lv_draw_rect.c ****             _lv_blend_fill(clip_area, &blend_area, color, mask_buf, mask_res, opa, blend_mode);
1133:lvgl/lvgl/src/draw/lv_draw_rect.c ****         }
1134:lvgl/lvgl/src/draw/lv_draw_rect.c **** 
1135:lvgl/lvgl/src/draw/lv_draw_rect.c ****         lv_draw_mask_free_param(&mask_rin_param);
1136:lvgl/lvgl/src/draw/lv_draw_rect.c ****         lv_draw_mask_remove_id(mask_rin_id);
1137:lvgl/lvgl/src/draw/lv_draw_rect.c ****         lv_draw_mask_free_param(&mask_rout_param);
1138:lvgl/lvgl/src/draw/lv_draw_rect.c ****         lv_draw_mask_remove_id(mask_rout_id);
1139:lvgl/lvgl/src/draw/lv_draw_rect.c ****         lv_mem_buf_release(mask_buf);
1140:lvgl/lvgl/src/draw/lv_draw_rect.c ****         return;
1141:lvgl/lvgl/src/draw/lv_draw_rect.c ****     }
1142:lvgl/lvgl/src/draw/lv_draw_rect.c **** 
1143:lvgl/lvgl/src/draw/lv_draw_rect.c ****     /*No masks*/
1144:lvgl/lvgl/src/draw/lv_draw_rect.c ****     bool left_side = outer_area->x1 <= inner_area->x1 ? true : false;
1145:lvgl/lvgl/src/draw/lv_draw_rect.c ****     bool right_side = outer_area->x2 >= inner_area->x2 ? true : false;
1146:lvgl/lvgl/src/draw/lv_draw_rect.c **** 
1147:lvgl/lvgl/src/draw/lv_draw_rect.c ****     bool split_hor = true;
1148:lvgl/lvgl/src/draw/lv_draw_rect.c ****     if(left_side && right_side && top_side && bottom_side &&
1149:lvgl/lvgl/src/draw/lv_draw_rect.c ****        core_w < SPLIT_LIMIT)
1150:lvgl/lvgl/src/draw/lv_draw_rect.c ****     {
1151:lvgl/lvgl/src/draw/lv_draw_rect.c ****         split_hor = false;
1152:lvgl/lvgl/src/draw/lv_draw_rect.c ****     }
1153:lvgl/lvgl/src/draw/lv_draw_rect.c **** 
1154:lvgl/lvgl/src/draw/lv_draw_rect.c ****     /*Draw the straight lines first if they are long enough*/
1155:lvgl/lvgl/src/draw/lv_draw_rect.c ****     if(top_side && split_hor) {
1156:lvgl/lvgl/src/draw/lv_draw_rect.c ****         blend_area.x1 = core_area.x1;
1157:lvgl/lvgl/src/draw/lv_draw_rect.c ****         blend_area.x2 = core_area.x2;
1158:lvgl/lvgl/src/draw/lv_draw_rect.c ****         blend_area.y1 = outer_area->y1;
1159:lvgl/lvgl/src/draw/lv_draw_rect.c ****         blend_area.y2 = inner_area->y1 - 1;
1160:lvgl/lvgl/src/draw/lv_draw_rect.c ****         _lv_blend_fill(clip_area, &blend_area, color, NULL, LV_DRAW_MASK_RES_FULL_COVER, opa, blend
1161:lvgl/lvgl/src/draw/lv_draw_rect.c ****     }
1162:lvgl/lvgl/src/draw/lv_draw_rect.c **** 
1163:lvgl/lvgl/src/draw/lv_draw_rect.c ****     if(bottom_side && split_hor) {
1164:lvgl/lvgl/src/draw/lv_draw_rect.c ****         blend_area.x1 = core_area.x1;
1165:lvgl/lvgl/src/draw/lv_draw_rect.c ****         blend_area.x2 = core_area.x2;
1166:lvgl/lvgl/src/draw/lv_draw_rect.c ****         blend_area.y1 = inner_area->y2 + 1;
1167:lvgl/lvgl/src/draw/lv_draw_rect.c ****         blend_area.y2 = outer_area->y2;
1168:lvgl/lvgl/src/draw/lv_draw_rect.c ****         _lv_blend_fill(clip_area, &blend_area, color, NULL, LV_DRAW_MASK_RES_FULL_COVER, opa, blend
1169:lvgl/lvgl/src/draw/lv_draw_rect.c ****     }
1170:lvgl/lvgl/src/draw/lv_draw_rect.c **** 
ARM GAS  C:\Users\gx\AppData\Local\Temp\ccP7i1j8.s 			page 22


1171:lvgl/lvgl/src/draw/lv_draw_rect.c ****     if(left_side) {
1172:lvgl/lvgl/src/draw/lv_draw_rect.c ****         blend_area.x1 = outer_area->x1;
1173:lvgl/lvgl/src/draw/lv_draw_rect.c ****         blend_area.x2 = inner_area->x1 - 1;
1174:lvgl/lvgl/src/draw/lv_draw_rect.c ****         blend_area.y1 = core_area.y1;
1175:lvgl/lvgl/src/draw/lv_draw_rect.c ****         blend_area.y2 = core_area.y2;
1176:lvgl/lvgl/src/draw/lv_draw_rect.c ****         _lv_blend_fill(clip_area, &blend_area, color, NULL, LV_DRAW_MASK_RES_FULL_COVER, opa, blend
1177:lvgl/lvgl/src/draw/lv_draw_rect.c ****     }
1178:lvgl/lvgl/src/draw/lv_draw_rect.c **** 
1179:lvgl/lvgl/src/draw/lv_draw_rect.c ****     if(right_side) {
1180:lvgl/lvgl/src/draw/lv_draw_rect.c ****         blend_area.x1 = inner_area->x2 + 1;
1181:lvgl/lvgl/src/draw/lv_draw_rect.c ****         blend_area.x2 = outer_area->x2;
1182:lvgl/lvgl/src/draw/lv_draw_rect.c ****         blend_area.y1 = core_area.y1;
1183:lvgl/lvgl/src/draw/lv_draw_rect.c ****         blend_area.y2 = core_area.y2;
1184:lvgl/lvgl/src/draw/lv_draw_rect.c ****         _lv_blend_fill(clip_area, &blend_area, color, NULL, LV_DRAW_MASK_RES_FULL_COVER, opa, blend
1185:lvgl/lvgl/src/draw/lv_draw_rect.c ****     }
1186:lvgl/lvgl/src/draw/lv_draw_rect.c **** 
1187:lvgl/lvgl/src/draw/lv_draw_rect.c ****     /*Draw the corners*/
1188:lvgl/lvgl/src/draw/lv_draw_rect.c ****     lv_coord_t blend_w;
1189:lvgl/lvgl/src/draw/lv_draw_rect.c **** 
1190:lvgl/lvgl/src/draw/lv_draw_rect.c ****     /*Left and right corner together is they close to eachother*/
1191:lvgl/lvgl/src/draw/lv_draw_rect.c ****     if(!split_hor) {
1192:lvgl/lvgl/src/draw/lv_draw_rect.c ****         /*Calculate the top corner and mirror it to the bottom*/
1193:lvgl/lvgl/src/draw/lv_draw_rect.c ****         blend_area.x1 = draw_area.x1;
1194:lvgl/lvgl/src/draw/lv_draw_rect.c ****         blend_area.x2 = draw_area.x2;
1195:lvgl/lvgl/src/draw/lv_draw_rect.c ****         lv_coord_t max_h = LV_MAX(rout, outer_area->y1 - inner_area->y1);
1196:lvgl/lvgl/src/draw/lv_draw_rect.c ****         for(h = 0; h < max_h; h++) {
1197:lvgl/lvgl/src/draw/lv_draw_rect.c ****             lv_coord_t top_y = outer_area->y1 + h;
1198:lvgl/lvgl/src/draw/lv_draw_rect.c ****             lv_coord_t bottom_y = outer_area->y2 - h;
1199:lvgl/lvgl/src/draw/lv_draw_rect.c ****             if(top_y < draw_area.y1 && bottom_y > draw_area.y2) continue;   /*This line is clipped 
1200:lvgl/lvgl/src/draw/lv_draw_rect.c **** 
1201:lvgl/lvgl/src/draw/lv_draw_rect.c ****             lv_memset_ff(mask_buf, draw_area_w);
1202:lvgl/lvgl/src/draw/lv_draw_rect.c ****             mask_res = lv_draw_mask_apply(mask_buf, blend_area.x1, top_y, draw_area_w);
1203:lvgl/lvgl/src/draw/lv_draw_rect.c **** 
1204:lvgl/lvgl/src/draw/lv_draw_rect.c ****             if(top_y >= draw_area.y1) {
1205:lvgl/lvgl/src/draw/lv_draw_rect.c ****                 blend_area.y1 = top_y;
1206:lvgl/lvgl/src/draw/lv_draw_rect.c ****                 blend_area.y2 = top_y;
1207:lvgl/lvgl/src/draw/lv_draw_rect.c ****                 _lv_blend_fill(clip_area, &blend_area, color, mask_buf, mask_res, opa, blend_mode);
1208:lvgl/lvgl/src/draw/lv_draw_rect.c ****             }
1209:lvgl/lvgl/src/draw/lv_draw_rect.c **** 
1210:lvgl/lvgl/src/draw/lv_draw_rect.c ****             if(bottom_y <= draw_area.y2) {
1211:lvgl/lvgl/src/draw/lv_draw_rect.c ****                 blend_area.y1 = bottom_y;
1212:lvgl/lvgl/src/draw/lv_draw_rect.c ****                 blend_area.y2 = bottom_y;
1213:lvgl/lvgl/src/draw/lv_draw_rect.c ****                 _lv_blend_fill(clip_area, &blend_area, color, mask_buf, mask_res, opa, blend_mode);
1214:lvgl/lvgl/src/draw/lv_draw_rect.c ****             }
1215:lvgl/lvgl/src/draw/lv_draw_rect.c ****         }
1216:lvgl/lvgl/src/draw/lv_draw_rect.c ****     } else {
1217:lvgl/lvgl/src/draw/lv_draw_rect.c ****         /*Left corners*/
1218:lvgl/lvgl/src/draw/lv_draw_rect.c ****         blend_area.x1 = draw_area.x1;
1219:lvgl/lvgl/src/draw/lv_draw_rect.c ****         blend_area.x2 = LV_MIN(draw_area.x2, core_area.x1 - 1);
1220:lvgl/lvgl/src/draw/lv_draw_rect.c ****         blend_w = lv_area_get_width(&blend_area);
1221:lvgl/lvgl/src/draw/lv_draw_rect.c ****         if(blend_w > 0) {
1222:lvgl/lvgl/src/draw/lv_draw_rect.c ****             if(left_side || top_side) {
1223:lvgl/lvgl/src/draw/lv_draw_rect.c ****                 for(h = draw_area.y1; h < core_area.y1; h++) {
1224:lvgl/lvgl/src/draw/lv_draw_rect.c ****                     blend_area.y1 = h;
1225:lvgl/lvgl/src/draw/lv_draw_rect.c ****                     blend_area.y2 = h;
1226:lvgl/lvgl/src/draw/lv_draw_rect.c **** 
1227:lvgl/lvgl/src/draw/lv_draw_rect.c ****                     lv_memset_ff(mask_buf, blend_w);
ARM GAS  C:\Users\gx\AppData\Local\Temp\ccP7i1j8.s 			page 23


1228:lvgl/lvgl/src/draw/lv_draw_rect.c ****                     mask_res = lv_draw_mask_apply(mask_buf, blend_area.x1, h, blend_w);
1229:lvgl/lvgl/src/draw/lv_draw_rect.c ****                     _lv_blend_fill(clip_area, &blend_area, color, mask_buf, mask_res, opa, blend_mo
1230:lvgl/lvgl/src/draw/lv_draw_rect.c ****                 }
1231:lvgl/lvgl/src/draw/lv_draw_rect.c ****             }
1232:lvgl/lvgl/src/draw/lv_draw_rect.c **** 
1233:lvgl/lvgl/src/draw/lv_draw_rect.c ****             if(left_side || bottom_side) {
1234:lvgl/lvgl/src/draw/lv_draw_rect.c ****                 for(h = core_area.y2 + 1; h <= draw_area.y2; h++) {
1235:lvgl/lvgl/src/draw/lv_draw_rect.c ****                     blend_area.y1 = h;
1236:lvgl/lvgl/src/draw/lv_draw_rect.c ****                     blend_area.y2 = h;
1237:lvgl/lvgl/src/draw/lv_draw_rect.c **** 
1238:lvgl/lvgl/src/draw/lv_draw_rect.c ****                     lv_memset_ff(mask_buf, blend_w);
1239:lvgl/lvgl/src/draw/lv_draw_rect.c ****                     mask_res = lv_draw_mask_apply(mask_buf, blend_area.x1, h, blend_w);
1240:lvgl/lvgl/src/draw/lv_draw_rect.c ****                     _lv_blend_fill(clip_area, &blend_area, color, mask_buf, mask_res, opa, blend_mo
1241:lvgl/lvgl/src/draw/lv_draw_rect.c ****                 }
1242:lvgl/lvgl/src/draw/lv_draw_rect.c ****             }
1243:lvgl/lvgl/src/draw/lv_draw_rect.c ****         }
1244:lvgl/lvgl/src/draw/lv_draw_rect.c **** 
1245:lvgl/lvgl/src/draw/lv_draw_rect.c ****         /*Right corners*/
1246:lvgl/lvgl/src/draw/lv_draw_rect.c ****         blend_area.x1 = LV_MAX(draw_area.x1, core_area.x2 + 1);
1247:lvgl/lvgl/src/draw/lv_draw_rect.c ****         blend_area.x2 = draw_area.x2;
1248:lvgl/lvgl/src/draw/lv_draw_rect.c ****         blend_w = lv_area_get_width(&blend_area);
1249:lvgl/lvgl/src/draw/lv_draw_rect.c **** 
1250:lvgl/lvgl/src/draw/lv_draw_rect.c ****         if(blend_w > 0) {
1251:lvgl/lvgl/src/draw/lv_draw_rect.c ****             if(right_side || top_side) {
1252:lvgl/lvgl/src/draw/lv_draw_rect.c ****                 for(h = draw_area.y1; h < core_area.y1; h++) {
1253:lvgl/lvgl/src/draw/lv_draw_rect.c ****                     blend_area.y1 = h;
1254:lvgl/lvgl/src/draw/lv_draw_rect.c ****                     blend_area.y2 = h;
1255:lvgl/lvgl/src/draw/lv_draw_rect.c **** 
1256:lvgl/lvgl/src/draw/lv_draw_rect.c ****                     lv_memset_ff(mask_buf, blend_w);
1257:lvgl/lvgl/src/draw/lv_draw_rect.c ****                     mask_res = lv_draw_mask_apply(mask_buf, blend_area.x1, h, blend_w);
1258:lvgl/lvgl/src/draw/lv_draw_rect.c ****                     _lv_blend_fill(clip_area, &blend_area, color, mask_buf, mask_res, opa, blend_mo
1259:lvgl/lvgl/src/draw/lv_draw_rect.c ****                 }
1260:lvgl/lvgl/src/draw/lv_draw_rect.c ****             }
1261:lvgl/lvgl/src/draw/lv_draw_rect.c **** 
1262:lvgl/lvgl/src/draw/lv_draw_rect.c ****             if(right_side || bottom_side) {
1263:lvgl/lvgl/src/draw/lv_draw_rect.c ****                 for(h = core_area.y2 + 1; h <= draw_area.y2; h++) {
1264:lvgl/lvgl/src/draw/lv_draw_rect.c ****                     blend_area.y1 = h;
1265:lvgl/lvgl/src/draw/lv_draw_rect.c ****                     blend_area.y2 = h;
1266:lvgl/lvgl/src/draw/lv_draw_rect.c **** 
1267:lvgl/lvgl/src/draw/lv_draw_rect.c ****                     lv_memset_ff(mask_buf, blend_w);
1268:lvgl/lvgl/src/draw/lv_draw_rect.c ****                     mask_res = lv_draw_mask_apply(mask_buf, blend_area.x1, h, blend_w);
1269:lvgl/lvgl/src/draw/lv_draw_rect.c ****                     _lv_blend_fill(clip_area, &blend_area, color, mask_buf, mask_res, opa, blend_mo
1270:lvgl/lvgl/src/draw/lv_draw_rect.c ****                 }
1271:lvgl/lvgl/src/draw/lv_draw_rect.c ****             }
1272:lvgl/lvgl/src/draw/lv_draw_rect.c ****         }
1273:lvgl/lvgl/src/draw/lv_draw_rect.c ****     }
1274:lvgl/lvgl/src/draw/lv_draw_rect.c **** 
1275:lvgl/lvgl/src/draw/lv_draw_rect.c ****     lv_draw_mask_free_param(&mask_rin_param);
1276:lvgl/lvgl/src/draw/lv_draw_rect.c ****     lv_draw_mask_remove_id(mask_rin_id);
1277:lvgl/lvgl/src/draw/lv_draw_rect.c ****     lv_draw_mask_free_param(&mask_rout_param);
1278:lvgl/lvgl/src/draw/lv_draw_rect.c ****     lv_draw_mask_remove_id(mask_rout_id);
1279:lvgl/lvgl/src/draw/lv_draw_rect.c ****     lv_mem_buf_release(mask_buf);
1280:lvgl/lvgl/src/draw/lv_draw_rect.c **** 
1281:lvgl/lvgl/src/draw/lv_draw_rect.c **** #else /*LV_DRAW_COMPLEX*/
1282:lvgl/lvgl/src/draw/lv_draw_rect.c ****     LV_UNUSED(blend_mode);
1283:lvgl/lvgl/src/draw/lv_draw_rect.c **** #endif /*LV_DRAW_COMPLEX*/
1284:lvgl/lvgl/src/draw/lv_draw_rect.c **** }
ARM GAS  C:\Users\gx\AppData\Local\Temp\ccP7i1j8.s 			page 24


1285:lvgl/lvgl/src/draw/lv_draw_rect.c **** 
1286:lvgl/lvgl/src/draw/lv_draw_rect.c **** static void draw_border_simple(const lv_area_t * clip, const lv_area_t * outer_area, const lv_area_
1287:lvgl/lvgl/src/draw/lv_draw_rect.c ****         lv_color_t color, lv_opa_t opa)
1288:lvgl/lvgl/src/draw/lv_draw_rect.c **** {
  29              		.loc 1 1288 1 view -0
  30              		.cfi_startproc
  31              		@ args = 4, pretend = 0, frame = 32
  32              		@ frame_needed = 0, uses_anonymous_args = 0
  33              		.loc 1 1288 1 is_stmt 0 view .LVU1
  34 0000 2DE9F04F 		push	{r4, r5, r6, r7, r8, r9, r10, fp, lr}
  35              	.LCFI0:
  36              		.cfi_def_cfa_offset 36
  37              		.cfi_offset 4, -36
  38              		.cfi_offset 5, -32
  39              		.cfi_offset 6, -28
  40              		.cfi_offset 7, -24
  41              		.cfi_offset 8, -20
  42              		.cfi_offset 9, -16
  43              		.cfi_offset 10, -12
  44              		.cfi_offset 11, -8
  45              		.cfi_offset 14, -4
  46 0004 8DB0     		sub	sp, sp, #52
  47              	.LCFI1:
  48              		.cfi_def_cfa_offset 88
  49 0006 0590     		str	r0, [sp, #20]
  50 0008 0C46     		mov	r4, r1
  51 000a 1546     		mov	r5, r2
  52 000c ADF81A30 		strh	r3, [sp, #26]	@ movhi
  53 0010 9DF85830 		ldrb	r3, [sp, #88]	@ zero_extendqisi2
  54              	.LVL1:
  55              		.loc 1 1288 1 view .LVU2
  56 0014 0793     		str	r3, [sp, #28]
1289:lvgl/lvgl/src/draw/lv_draw_rect.c **** 
1290:lvgl/lvgl/src/draw/lv_draw_rect.c **** 
1291:lvgl/lvgl/src/draw/lv_draw_rect.c ****     bool top_side = outer_area->y1 <= inner_area->y1 ? true : false;
  57              		.loc 1 1291 5 is_stmt 1 view .LVU3
  58              		.loc 1 1291 31 is_stmt 0 view .LVU4
  59 0016 B1F90270 		ldrsh	r7, [r1, #2]
  60              		.loc 1 1291 49 view .LVU5
  61 001a B2F90260 		ldrsh	r6, [r2, #2]
  62              	.LVL2:
1292:lvgl/lvgl/src/draw/lv_draw_rect.c ****     bool bottom_side = outer_area->y2 >= inner_area->y2 ? true : false;
  63              		.loc 1 1292 5 is_stmt 1 view .LVU6
  64              		.loc 1 1292 34 is_stmt 0 view .LVU7
  65 001e B1F906B0 		ldrsh	fp, [r1, #6]
  66              		.loc 1 1292 52 view .LVU8
  67 0022 B2F906A0 		ldrsh	r10, [r2, #6]
  68              	.LVL3:
1293:lvgl/lvgl/src/draw/lv_draw_rect.c ****     bool left_side = outer_area->x1 <= inner_area->x1 ? true : false;
  69              		.loc 1 1293 5 is_stmt 1 view .LVU9
  70              		.loc 1 1293 32 is_stmt 0 view .LVU10
  71 0026 B1F90090 		ldrsh	r9, [r1]
  72              		.loc 1 1293 50 view .LVU11
  73 002a B2F90030 		ldrsh	r3, [r2]
  74 002e 0893     		str	r3, [sp, #32]
  75              	.LVL4:
1294:lvgl/lvgl/src/draw/lv_draw_rect.c ****     bool right_side = outer_area->x2 >= inner_area->x2 ? true : false;
ARM GAS  C:\Users\gx\AppData\Local\Temp\ccP7i1j8.s 			page 25


  76              		.loc 1 1294 5 is_stmt 1 view .LVU12
  77              		.loc 1 1294 33 is_stmt 0 view .LVU13
  78 0030 B1F90480 		ldrsh	r8, [r1, #4]
  79              		.loc 1 1294 51 view .LVU14
  80 0034 B2F90430 		ldrsh	r3, [r2, #4]
  81 0038 0993     		str	r3, [sp, #36]
  82              	.LVL5:
1295:lvgl/lvgl/src/draw/lv_draw_rect.c **** 
1296:lvgl/lvgl/src/draw/lv_draw_rect.c ****     lv_area_t a;
  83              		.loc 1 1296 5 is_stmt 1 view .LVU15
1297:lvgl/lvgl/src/draw/lv_draw_rect.c ****     /*Top*/
1298:lvgl/lvgl/src/draw/lv_draw_rect.c ****     a.x1 = outer_area->x1;
  84              		.loc 1 1298 5 view .LVU16
  85              		.loc 1 1298 10 is_stmt 0 view .LVU17
  86 003a ADF82890 		strh	r9, [sp, #40]	@ movhi
1299:lvgl/lvgl/src/draw/lv_draw_rect.c ****     a.x2 = outer_area->x2;
  87              		.loc 1 1299 5 is_stmt 1 view .LVU18
  88              		.loc 1 1299 10 is_stmt 0 view .LVU19
  89 003e ADF82C80 		strh	r8, [sp, #44]	@ movhi
1300:lvgl/lvgl/src/draw/lv_draw_rect.c ****     a.y1 = outer_area->y1;
  90              		.loc 1 1300 5 is_stmt 1 view .LVU20
  91              		.loc 1 1300 10 is_stmt 0 view .LVU21
  92 0042 ADF82A70 		strh	r7, [sp, #42]	@ movhi
1301:lvgl/lvgl/src/draw/lv_draw_rect.c ****     a.y2 = inner_area->y1;
  93              		.loc 1 1301 5 is_stmt 1 view .LVU22
  94              		.loc 1 1301 10 is_stmt 0 view .LVU23
  95 0046 ADF82E60 		strh	r6, [sp, #46]	@ movhi
1302:lvgl/lvgl/src/draw/lv_draw_rect.c ****     if(top_side) {
  96              		.loc 1 1302 5 is_stmt 1 view .LVU24
  97              		.loc 1 1302 7 is_stmt 0 view .LVU25
  98 004a B742     		cmp	r7, r6
  99 004c 2EDD     		ble	.L11
 100              	.LVL6:
 101              	.L2:
1303:lvgl/lvgl/src/draw/lv_draw_rect.c ****         _lv_blend_fill(clip, &a, color, NULL, LV_DRAW_MASK_RES_FULL_COVER, opa, LV_BLEND_MODE_NORMA
1304:lvgl/lvgl/src/draw/lv_draw_rect.c ****     }
1305:lvgl/lvgl/src/draw/lv_draw_rect.c **** 
1306:lvgl/lvgl/src/draw/lv_draw_rect.c ****     /*Bottom*/
1307:lvgl/lvgl/src/draw/lv_draw_rect.c ****     a.y1 = inner_area->y2;
 102              		.loc 1 1307 5 is_stmt 1 view .LVU26
 103              		.loc 1 1307 22 is_stmt 0 view .LVU27
 104 004e B5F90630 		ldrsh	r3, [r5, #6]
 105              		.loc 1 1307 10 view .LVU28
 106 0052 ADF82A30 		strh	r3, [sp, #42]	@ movhi
1308:lvgl/lvgl/src/draw/lv_draw_rect.c ****     a.y2 = outer_area->y2;
 107              		.loc 1 1308 5 is_stmt 1 view .LVU29
 108              		.loc 1 1308 22 is_stmt 0 view .LVU30
 109 0056 B4F90630 		ldrsh	r3, [r4, #6]
 110              		.loc 1 1308 10 view .LVU31
 111 005a ADF82E30 		strh	r3, [sp, #46]	@ movhi
1309:lvgl/lvgl/src/draw/lv_draw_rect.c ****     if(bottom_side) {
 112              		.loc 1 1309 5 is_stmt 1 view .LVU32
 113              		.loc 1 1309 7 is_stmt 0 view .LVU33
 114 005e D345     		cmp	fp, r10
 115 0060 30DA     		bge	.L12
 116              	.L3:
1310:lvgl/lvgl/src/draw/lv_draw_rect.c ****         _lv_blend_fill(clip, &a, color, NULL, LV_DRAW_MASK_RES_FULL_COVER, opa, LV_BLEND_MODE_NORMA
ARM GAS  C:\Users\gx\AppData\Local\Temp\ccP7i1j8.s 			page 26


1311:lvgl/lvgl/src/draw/lv_draw_rect.c ****     }
1312:lvgl/lvgl/src/draw/lv_draw_rect.c **** 
1313:lvgl/lvgl/src/draw/lv_draw_rect.c ****     /*Left*/
1314:lvgl/lvgl/src/draw/lv_draw_rect.c ****     a.x1 = outer_area->x1;
 117              		.loc 1 1314 5 is_stmt 1 view .LVU34
 118              		.loc 1 1314 22 is_stmt 0 view .LVU35
 119 0062 B4F90030 		ldrsh	r3, [r4]
 120              		.loc 1 1314 10 view .LVU36
 121 0066 ADF82830 		strh	r3, [sp, #40]	@ movhi
1315:lvgl/lvgl/src/draw/lv_draw_rect.c ****     a.x2 = inner_area->x1;
 122              		.loc 1 1315 5 is_stmt 1 view .LVU37
 123              		.loc 1 1315 22 is_stmt 0 view .LVU38
 124 006a B5F90030 		ldrsh	r3, [r5]
 125              		.loc 1 1315 10 view .LVU39
 126 006e ADF82C30 		strh	r3, [sp, #44]	@ movhi
1316:lvgl/lvgl/src/draw/lv_draw_rect.c ****     a.y1 = (top_side) ? inner_area->y1 : outer_area->y1;
 127              		.loc 1 1316 5 is_stmt 1 view .LVU40
 128              		.loc 1 1316 10 is_stmt 0 view .LVU41
 129 0072 B742     		cmp	r7, r6
 130 0074 33DC     		bgt	.L4
 131              		.loc 1 1316 10 discriminator 1 view .LVU42
 132 0076 B5F90230 		ldrsh	r3, [r5, #2]
 133              	.L5:
 134              		.loc 1 1316 10 discriminator 4 view .LVU43
 135 007a ADF82A30 		strh	r3, [sp, #42]	@ movhi
1317:lvgl/lvgl/src/draw/lv_draw_rect.c ****     a.y2 = (bottom_side) ? inner_area->y2 : outer_area->y2;
 136              		.loc 1 1317 5 is_stmt 1 discriminator 4 view .LVU44
 137              		.loc 1 1317 10 is_stmt 0 discriminator 4 view .LVU45
 138 007e D345     		cmp	fp, r10
 139 0080 30DB     		blt	.L6
 140              		.loc 1 1317 10 discriminator 1 view .LVU46
 141 0082 B5F90630 		ldrsh	r3, [r5, #6]
 142              	.L7:
 143              		.loc 1 1317 10 discriminator 4 view .LVU47
 144 0086 ADF82E30 		strh	r3, [sp, #46]	@ movhi
1318:lvgl/lvgl/src/draw/lv_draw_rect.c ****     if(left_side) {
 145              		.loc 1 1318 5 is_stmt 1 discriminator 4 view .LVU48
 146              		.loc 1 1318 7 is_stmt 0 discriminator 4 view .LVU49
 147 008a 089B     		ldr	r3, [sp, #32]
 148 008c 9945     		cmp	r9, r3
 149 008e 2CDD     		ble	.L13
 150              	.L8:
1319:lvgl/lvgl/src/draw/lv_draw_rect.c ****         _lv_blend_fill(clip, &a, color, NULL, LV_DRAW_MASK_RES_FULL_COVER, opa, LV_BLEND_MODE_NORMA
1320:lvgl/lvgl/src/draw/lv_draw_rect.c ****     }
1321:lvgl/lvgl/src/draw/lv_draw_rect.c **** 
1322:lvgl/lvgl/src/draw/lv_draw_rect.c ****     /*Right*/
1323:lvgl/lvgl/src/draw/lv_draw_rect.c ****     a.x1 = inner_area->x2;
 151              		.loc 1 1323 5 is_stmt 1 view .LVU50
 152              		.loc 1 1323 22 is_stmt 0 view .LVU51
 153 0090 B5F90430 		ldrsh	r3, [r5, #4]
 154              		.loc 1 1323 10 view .LVU52
 155 0094 ADF82830 		strh	r3, [sp, #40]	@ movhi
1324:lvgl/lvgl/src/draw/lv_draw_rect.c ****     a.x2 = outer_area->x2;
 156              		.loc 1 1324 5 is_stmt 1 view .LVU53
 157              		.loc 1 1324 22 is_stmt 0 view .LVU54
 158 0098 B4F90430 		ldrsh	r3, [r4, #4]
 159              		.loc 1 1324 10 view .LVU55
ARM GAS  C:\Users\gx\AppData\Local\Temp\ccP7i1j8.s 			page 27


 160 009c ADF82C30 		strh	r3, [sp, #44]	@ movhi
1325:lvgl/lvgl/src/draw/lv_draw_rect.c ****     if(right_side) {
 161              		.loc 1 1325 5 is_stmt 1 view .LVU56
 162              		.loc 1 1325 7 is_stmt 0 view .LVU57
 163 00a0 099B     		ldr	r3, [sp, #36]
 164 00a2 9845     		cmp	r8, r3
 165 00a4 2EDA     		bge	.L14
 166              	.L1:
1326:lvgl/lvgl/src/draw/lv_draw_rect.c ****         _lv_blend_fill(clip, &a, color, NULL, LV_DRAW_MASK_RES_FULL_COVER, opa, LV_BLEND_MODE_NORMA
1327:lvgl/lvgl/src/draw/lv_draw_rect.c ****     }
1328:lvgl/lvgl/src/draw/lv_draw_rect.c **** 
1329:lvgl/lvgl/src/draw/lv_draw_rect.c **** }
 167              		.loc 1 1329 1 view .LVU58
 168 00a6 0DB0     		add	sp, sp, #52
 169              	.LCFI2:
 170              		.cfi_remember_state
 171              		.cfi_def_cfa_offset 36
 172              		@ sp needed
 173 00a8 BDE8F08F 		pop	{r4, r5, r6, r7, r8, r9, r10, fp, pc}
 174              	.LVL7:
 175              	.L11:
 176              	.LCFI3:
 177              		.cfi_restore_state
1303:lvgl/lvgl/src/draw/lv_draw_rect.c ****     }
 178              		.loc 1 1303 9 is_stmt 1 view .LVU59
 179 00ac 0023     		movs	r3, #0
 180 00ae 0293     		str	r3, [sp, #8]
 181 00b0 079A     		ldr	r2, [sp, #28]
 182              	.LVL8:
1303:lvgl/lvgl/src/draw/lv_draw_rect.c ****     }
 183              		.loc 1 1303 9 is_stmt 0 view .LVU60
 184 00b2 0192     		str	r2, [sp, #4]
 185 00b4 0122     		movs	r2, #1
 186 00b6 0092     		str	r2, [sp]
 187 00b8 BDF81A20 		ldrh	r2, [sp, #26]
 188 00bc 0AA9     		add	r1, sp, #40
 189              	.LVL9:
1303:lvgl/lvgl/src/draw/lv_draw_rect.c ****     }
 190              		.loc 1 1303 9 view .LVU61
 191 00be FFF7FEFF 		bl	_lv_blend_fill
 192              	.LVL10:
1303:lvgl/lvgl/src/draw/lv_draw_rect.c ****     }
 193              		.loc 1 1303 9 view .LVU62
 194 00c2 C4E7     		b	.L2
 195              	.L12:
1310:lvgl/lvgl/src/draw/lv_draw_rect.c ****     }
 196              		.loc 1 1310 9 is_stmt 1 view .LVU63
 197 00c4 0023     		movs	r3, #0
 198 00c6 0293     		str	r3, [sp, #8]
 199 00c8 079A     		ldr	r2, [sp, #28]
 200 00ca 0192     		str	r2, [sp, #4]
 201 00cc 0122     		movs	r2, #1
 202 00ce 0092     		str	r2, [sp]
 203 00d0 BDF81A20 		ldrh	r2, [sp, #26]
 204 00d4 0AA9     		add	r1, sp, #40
 205 00d6 0598     		ldr	r0, [sp, #20]
 206 00d8 FFF7FEFF 		bl	_lv_blend_fill
ARM GAS  C:\Users\gx\AppData\Local\Temp\ccP7i1j8.s 			page 28


 207              	.LVL11:
 208 00dc C1E7     		b	.L3
 209              	.L4:
1316:lvgl/lvgl/src/draw/lv_draw_rect.c ****     a.y2 = (bottom_side) ? inner_area->y2 : outer_area->y2;
 210              		.loc 1 1316 10 is_stmt 0 discriminator 2 view .LVU64
 211 00de B4F90230 		ldrsh	r3, [r4, #2]
 212 00e2 CAE7     		b	.L5
 213              	.L6:
1317:lvgl/lvgl/src/draw/lv_draw_rect.c ****     if(left_side) {
 214              		.loc 1 1317 10 discriminator 2 view .LVU65
 215 00e4 B4F90630 		ldrsh	r3, [r4, #6]
 216 00e8 CDE7     		b	.L7
 217              	.L13:
1319:lvgl/lvgl/src/draw/lv_draw_rect.c ****     }
 218              		.loc 1 1319 9 is_stmt 1 view .LVU66
 219 00ea 0023     		movs	r3, #0
 220 00ec 0293     		str	r3, [sp, #8]
 221 00ee 079A     		ldr	r2, [sp, #28]
 222 00f0 0192     		str	r2, [sp, #4]
 223 00f2 0122     		movs	r2, #1
 224 00f4 0092     		str	r2, [sp]
 225 00f6 BDF81A20 		ldrh	r2, [sp, #26]
 226 00fa 0AA9     		add	r1, sp, #40
 227 00fc 0598     		ldr	r0, [sp, #20]
 228 00fe FFF7FEFF 		bl	_lv_blend_fill
 229              	.LVL12:
 230 0102 C5E7     		b	.L8
 231              	.L14:
1326:lvgl/lvgl/src/draw/lv_draw_rect.c ****     }
 232              		.loc 1 1326 9 view .LVU67
 233 0104 0023     		movs	r3, #0
 234 0106 0293     		str	r3, [sp, #8]
 235 0108 079A     		ldr	r2, [sp, #28]
 236 010a 0192     		str	r2, [sp, #4]
 237 010c 0122     		movs	r2, #1
 238 010e 0092     		str	r2, [sp]
 239 0110 BDF81A20 		ldrh	r2, [sp, #26]
 240 0114 0AA9     		add	r1, sp, #40
 241 0116 0598     		ldr	r0, [sp, #20]
 242 0118 FFF7FEFF 		bl	_lv_blend_fill
 243              	.LVL13:
 244              		.loc 1 1329 1 is_stmt 0 view .LVU68
 245 011c C3E7     		b	.L1
 246              		.cfi_endproc
 247              	.LFE163:
 249              		.section	.text.shadow_blur_corner,"ax",%progbits
 250              		.align	1
 251              		.syntax unified
 252              		.thumb
 253              		.thumb_func
 254              		.fpu fpv4-sp-d16
 256              	shadow_blur_corner:
 257              	.LVL14:
 258              	.LFB160:
 955:lvgl/lvgl/src/draw/lv_draw_rect.c ****     int32_t s_left = sw >> 1;
 259              		.loc 1 955 1 is_stmt 1 view -0
 260              		.cfi_startproc
ARM GAS  C:\Users\gx\AppData\Local\Temp\ccP7i1j8.s 			page 29


 261              		@ args = 0, pretend = 0, frame = 16
 262              		@ frame_needed = 0, uses_anonymous_args = 0
 955:lvgl/lvgl/src/draw/lv_draw_rect.c ****     int32_t s_left = sw >> 1;
 263              		.loc 1 955 1 is_stmt 0 view .LVU70
 264 0000 2DE9F04F 		push	{r4, r5, r6, r7, r8, r9, r10, fp, lr}
 265              	.LCFI4:
 266              		.cfi_def_cfa_offset 36
 267              		.cfi_offset 4, -36
 268              		.cfi_offset 5, -32
 269              		.cfi_offset 6, -28
 270              		.cfi_offset 7, -24
 271              		.cfi_offset 8, -20
 272              		.cfi_offset 9, -16
 273              		.cfi_offset 10, -12
 274              		.cfi_offset 11, -8
 275              		.cfi_offset 14, -4
 276 0004 85B0     		sub	sp, sp, #20
 277              	.LCFI5:
 278              		.cfi_def_cfa_offset 56
 279 0006 0290     		str	r0, [sp, #8]
 280 0008 0191     		str	r1, [sp, #4]
 281 000a 1646     		mov	r6, r2
 956:lvgl/lvgl/src/draw/lv_draw_rect.c ****     int32_t s_right = (sw >> 1);
 282              		.loc 1 956 5 is_stmt 1 view .LVU71
 956:lvgl/lvgl/src/draw/lv_draw_rect.c ****     int32_t s_right = (sw >> 1);
 283              		.loc 1 956 25 is_stmt 0 view .LVU72
 284 000c 4F10     		asrs	r7, r1, #1
 285              	.LVL15:
 957:lvgl/lvgl/src/draw/lv_draw_rect.c ****     if((sw & 1) == 0) s_left--;
 286              		.loc 1 957 5 is_stmt 1 view .LVU73
 958:lvgl/lvgl/src/draw/lv_draw_rect.c **** 
 287              		.loc 1 958 5 view .LVU74
 958:lvgl/lvgl/src/draw/lv_draw_rect.c **** 
 288              		.loc 1 958 7 is_stmt 0 view .LVU75
 289 000e 11F0010F 		tst	r1, #1
 290 0012 0ED1     		bne	.L39
 958:lvgl/lvgl/src/draw/lv_draw_rect.c **** 
 291              		.loc 1 958 23 is_stmt 1 discriminator 1 view .LVU76
 958:lvgl/lvgl/src/draw/lv_draw_rect.c **** 
 292              		.loc 1 958 29 is_stmt 0 discriminator 1 view .LVU77
 293 0014 07F1FF38 		add	r8, r7, #-1
 294              	.LVL16:
 295              	.L16:
 961:lvgl/lvgl/src/draw/lv_draw_rect.c **** 
 296              		.loc 1 961 5 is_stmt 1 view .LVU78
 961:lvgl/lvgl/src/draw/lv_draw_rect.c **** 
 297              		.loc 1 961 34 is_stmt 0 view .LVU79
 298 0018 029B     		ldr	r3, [sp, #8]
 299 001a 9A46     		mov	r10, r3
 961:lvgl/lvgl/src/draw/lv_draw_rect.c **** 
 300              		.loc 1 961 54 view .LVU80
 301 001c 5D00     		lsls	r5, r3, #1
 961:lvgl/lvgl/src/draw/lv_draw_rect.c **** 
 302              		.loc 1 961 34 view .LVU81
 303 001e 2846     		mov	r0, r5
 304              	.LVL17:
 961:lvgl/lvgl/src/draw/lv_draw_rect.c **** 
ARM GAS  C:\Users\gx\AppData\Local\Temp\ccP7i1j8.s 			page 30


 305              		.loc 1 961 34 view .LVU82
 306 0020 FFF7FEFF 		bl	lv_mem_buf_get
 307              	.LVL18:
 961:lvgl/lvgl/src/draw/lv_draw_rect.c **** 
 308              		.loc 1 961 34 view .LVU83
 309 0024 0446     		mov	r4, r0
 310              	.LVL19:
 963:lvgl/lvgl/src/draw/lv_draw_rect.c ****     int32_t y;
 311              		.loc 1 963 5 is_stmt 1 view .LVU84
 964:lvgl/lvgl/src/draw/lv_draw_rect.c **** 
 312              		.loc 1 964 5 view .LVU85
 966:lvgl/lvgl/src/draw/lv_draw_rect.c **** 
 313              		.loc 1 966 5 view .LVU86
 968:lvgl/lvgl/src/draw/lv_draw_rect.c ****         int32_t v = sh_ups_tmp_buf[size - 1] * sw;
 314              		.loc 1 968 5 view .LVU87
 966:lvgl/lvgl/src/draw/lv_draw_rect.c **** 
 315              		.loc 1 966 16 is_stmt 0 view .LVU88
 316 0026 B146     		mov	r9, r6
 968:lvgl/lvgl/src/draw/lv_draw_rect.c ****         int32_t v = sh_ups_tmp_buf[size - 1] * sw;
 317              		.loc 1 968 11 view .LVU89
 318 0028 4FF0000B 		mov	fp, #0
 319 002c 0396     		str	r6, [sp, #12]
 320 002e 029E     		ldr	r6, [sp, #8]
 321              	.LVL20:
 968:lvgl/lvgl/src/draw/lv_draw_rect.c ****         int32_t v = sh_ups_tmp_buf[size - 1] * sw;
 322              		.loc 1 968 5 view .LVU90
 323 0030 23E0     		b	.L17
 324              	.LVL21:
 325              	.L39:
 956:lvgl/lvgl/src/draw/lv_draw_rect.c ****     int32_t s_right = (sw >> 1);
 326              		.loc 1 956 13 view .LVU91
 327 0032 B846     		mov	r8, r7
 328 0034 F0E7     		b	.L16
 329              	.LVL22:
 330              	.L40:
 331              	.LBB144:
 332              	.LBB145:
 974:lvgl/lvgl/src/draw/lv_draw_rect.c ****             if(x + s_right < size) right_val = sh_ups_tmp_buf[x + s_right];
 333              		.loc 1 974 22 view .LVU92
 334 0036 0022     		movs	r2, #0
 335              	.LVL23:
 336              	.L19:
 976:lvgl/lvgl/src/draw/lv_draw_rect.c **** 
 337              		.loc 1 976 13 is_stmt 1 view .LVU93
 976:lvgl/lvgl/src/draw/lv_draw_rect.c **** 
 338              		.loc 1 976 15 is_stmt 0 view .LVU94
 339 0038 9B1A     		subs	r3, r3, r2
 340              	.LVL24:
 979:lvgl/lvgl/src/draw/lv_draw_rect.c ****             if(x - s_left - 1 < 0) left_val = sh_ups_tmp_buf[0];
 341              		.loc 1 979 13 is_stmt 1 view .LVU95
 980:lvgl/lvgl/src/draw/lv_draw_rect.c ****             else left_val = sh_ups_tmp_buf[x - s_left - 1];
 342              		.loc 1 980 13 view .LVU96
 980:lvgl/lvgl/src/draw/lv_draw_rect.c ****             else left_val = sh_ups_tmp_buf[x - s_left - 1];
 343              		.loc 1 980 18 is_stmt 0 view .LVU97
 344 003a A0EB0802 		sub	r2, r0, r8
 345              	.LVL25:
 980:lvgl/lvgl/src/draw/lv_draw_rect.c ****             else left_val = sh_ups_tmp_buf[x - s_left - 1];
ARM GAS  C:\Users\gx\AppData\Local\Temp\ccP7i1j8.s 			page 31


 346              		.loc 1 980 15 view .LVU98
 347 003e 002A     		cmp	r2, #0
 348 0040 10DD     		ble	.L43
 981:lvgl/lvgl/src/draw/lv_draw_rect.c ****             v += left_val;
 349              		.loc 1 981 18 is_stmt 1 view .LVU99
 981:lvgl/lvgl/src/draw/lv_draw_rect.c ****             v += left_val;
 350              		.loc 1 981 43 is_stmt 0 view .LVU100
 351 0042 02F10042 		add	r2, r2, #-2147483648
 352 0046 013A     		subs	r2, r2, #1
 353 0048 39F81220 		ldrh	r2, [r9, r2, lsl #1]
 354              	.LVL26:
 355              	.L21:
 982:lvgl/lvgl/src/draw/lv_draw_rect.c ****         }
 356              		.loc 1 982 13 is_stmt 1 discriminator 2 view .LVU101
 982:lvgl/lvgl/src/draw/lv_draw_rect.c ****         }
 357              		.loc 1 982 15 is_stmt 0 discriminator 2 view .LVU102
 358 004c 1344     		add	r3, r3, r2
 359              	.LVL27:
 982:lvgl/lvgl/src/draw/lv_draw_rect.c ****         }
 360              		.loc 1 982 15 discriminator 2 view .LVU103
 361              	.LBE145:
 970:lvgl/lvgl/src/draw/lv_draw_rect.c ****             sh_ups_blur_buf[x] = v;
 362              		.loc 1 970 35 is_stmt 1 discriminator 2 view .LVU104
 970:lvgl/lvgl/src/draw/lv_draw_rect.c ****             sh_ups_blur_buf[x] = v;
 363              		.loc 1 970 36 is_stmt 0 discriminator 2 view .LVU105
 364 004e 0138     		subs	r0, r0, #1
 365              	.LVL28:
 366              	.L18:
 970:lvgl/lvgl/src/draw/lv_draw_rect.c ****             sh_ups_blur_buf[x] = v;
 367              		.loc 1 970 27 is_stmt 1 discriminator 1 view .LVU106
 970:lvgl/lvgl/src/draw/lv_draw_rect.c ****             sh_ups_blur_buf[x] = v;
 368              		.loc 1 970 9 is_stmt 0 discriminator 1 view .LVU107
 369 0050 0028     		cmp	r0, #0
 370 0052 0ADB     		blt	.L44
 371              	.LBB146:
 971:lvgl/lvgl/src/draw/lv_draw_rect.c **** 
 372              		.loc 1 971 13 is_stmt 1 view .LVU108
 971:lvgl/lvgl/src/draw/lv_draw_rect.c **** 
 373              		.loc 1 971 32 is_stmt 0 view .LVU109
 374 0054 24F81030 		strh	r3, [r4, r0, lsl #1]	@ movhi
 974:lvgl/lvgl/src/draw/lv_draw_rect.c ****             if(x + s_right < size) right_val = sh_ups_tmp_buf[x + s_right];
 375              		.loc 1 974 13 is_stmt 1 view .LVU110
 376              	.LVL29:
 975:lvgl/lvgl/src/draw/lv_draw_rect.c ****             v -= right_val;
 377              		.loc 1 975 13 view .LVU111
 975:lvgl/lvgl/src/draw/lv_draw_rect.c ****             v -= right_val;
 378              		.loc 1 975 18 is_stmt 0 view .LVU112
 379 0058 C219     		adds	r2, r0, r7
 975:lvgl/lvgl/src/draw/lv_draw_rect.c ****             v -= right_val;
 380              		.loc 1 975 15 view .LVU113
 381 005a 8A42     		cmp	r2, r1
 382 005c EBDA     		bge	.L40
 975:lvgl/lvgl/src/draw/lv_draw_rect.c ****             v -= right_val;
 383              		.loc 1 975 36 is_stmt 1 discriminator 1 view .LVU114
 975:lvgl/lvgl/src/draw/lv_draw_rect.c ****             v -= right_val;
 384              		.loc 1 975 62 is_stmt 0 discriminator 1 view .LVU115
 385 005e 39F81220 		ldrh	r2, [r9, r2, lsl #1]
ARM GAS  C:\Users\gx\AppData\Local\Temp\ccP7i1j8.s 			page 32


 386              	.LVL30:
 975:lvgl/lvgl/src/draw/lv_draw_rect.c ****             v -= right_val;
 387              		.loc 1 975 62 discriminator 1 view .LVU116
 388 0062 E9E7     		b	.L19
 389              	.LVL31:
 390              	.L43:
 980:lvgl/lvgl/src/draw/lv_draw_rect.c ****             else left_val = sh_ups_tmp_buf[x - s_left - 1];
 391              		.loc 1 980 36 is_stmt 1 discriminator 1 view .LVU117
 980:lvgl/lvgl/src/draw/lv_draw_rect.c ****             else left_val = sh_ups_tmp_buf[x - s_left - 1];
 392              		.loc 1 980 61 is_stmt 0 discriminator 1 view .LVU118
 393 0064 B9F80020 		ldrh	r2, [r9]
 394              	.LVL32:
 980:lvgl/lvgl/src/draw/lv_draw_rect.c ****             else left_val = sh_ups_tmp_buf[x - s_left - 1];
 395              		.loc 1 980 61 discriminator 1 view .LVU119
 396 0068 F0E7     		b	.L21
 397              	.LVL33:
 398              	.L44:
 980:lvgl/lvgl/src/draw/lv_draw_rect.c ****             else left_val = sh_ups_tmp_buf[x - s_left - 1];
 399              		.loc 1 980 61 discriminator 1 view .LVU120
 400              	.LBE146:
 984:lvgl/lvgl/src/draw/lv_draw_rect.c ****         sh_ups_tmp_buf += size;
 401              		.loc 1 984 9 is_stmt 1 discriminator 2 view .LVU121
 402 006a 2A46     		mov	r2, r5
 403 006c 2146     		mov	r1, r4
 404 006e 4846     		mov	r0, r9
 405              	.LVL34:
 984:lvgl/lvgl/src/draw/lv_draw_rect.c ****         sh_ups_tmp_buf += size;
 406              		.loc 1 984 9 is_stmt 0 discriminator 2 view .LVU122
 407 0070 FFF7FEFF 		bl	lv_memcpy
 408              	.LVL35:
 985:lvgl/lvgl/src/draw/lv_draw_rect.c ****     }
 409              		.loc 1 985 9 is_stmt 1 discriminator 2 view .LVU123
 985:lvgl/lvgl/src/draw/lv_draw_rect.c ****     }
 410              		.loc 1 985 24 is_stmt 0 discriminator 2 view .LVU124
 411 0074 A944     		add	r9, r9, r5
 412              	.LVL36:
 985:lvgl/lvgl/src/draw/lv_draw_rect.c ****     }
 413              		.loc 1 985 24 discriminator 2 view .LVU125
 414              	.LBE144:
 968:lvgl/lvgl/src/draw/lv_draw_rect.c ****         int32_t v = sh_ups_tmp_buf[size - 1] * sw;
 415              		.loc 1 968 26 is_stmt 1 discriminator 2 view .LVU126
 968:lvgl/lvgl/src/draw/lv_draw_rect.c ****         int32_t v = sh_ups_tmp_buf[size - 1] * sw;
 416              		.loc 1 968 27 is_stmt 0 discriminator 2 view .LVU127
 417 0076 0BF1010B 		add	fp, fp, #1
 418              	.LVL37:
 419              	.L17:
 968:lvgl/lvgl/src/draw/lv_draw_rect.c ****         int32_t v = sh_ups_tmp_buf[size - 1] * sw;
 420              		.loc 1 968 16 is_stmt 1 discriminator 1 view .LVU128
 968:lvgl/lvgl/src/draw/lv_draw_rect.c ****         int32_t v = sh_ups_tmp_buf[size - 1] * sw;
 421              		.loc 1 968 18 is_stmt 0 discriminator 1 view .LVU129
 422 007a 3146     		mov	r1, r6
 968:lvgl/lvgl/src/draw/lv_draw_rect.c ****         int32_t v = sh_ups_tmp_buf[size - 1] * sw;
 423              		.loc 1 968 5 discriminator 1 view .LVU130
 424 007c 5E45     		cmp	r6, fp
 425 007e 09DD     		ble	.L45
 426              	.LBB147:
 969:lvgl/lvgl/src/draw/lv_draw_rect.c ****         for(x = size - 1; x >= 0; x--) {
ARM GAS  C:\Users\gx\AppData\Local\Temp\ccP7i1j8.s 			page 33


 427              		.loc 1 969 9 is_stmt 1 view .LVU131
 969:lvgl/lvgl/src/draw/lv_draw_rect.c ****         for(x = size - 1; x >= 0; x--) {
 428              		.loc 1 969 35 is_stmt 0 view .LVU132
 429 0080 0AF10043 		add	r3, r10, #-2147483648
 430 0084 013B     		subs	r3, r3, #1
 431 0086 39F81330 		ldrh	r3, [r9, r3, lsl #1]
 969:lvgl/lvgl/src/draw/lv_draw_rect.c ****         for(x = size - 1; x >= 0; x--) {
 432              		.loc 1 969 17 view .LVU133
 433 008a 019A     		ldr	r2, [sp, #4]
 434 008c 02FB03F3 		mul	r3, r2, r3
 435              	.LVL38:
 970:lvgl/lvgl/src/draw/lv_draw_rect.c ****             sh_ups_blur_buf[x] = v;
 436              		.loc 1 970 9 is_stmt 1 view .LVU134
 970:lvgl/lvgl/src/draw/lv_draw_rect.c ****             sh_ups_blur_buf[x] = v;
 437              		.loc 1 970 15 is_stmt 0 view .LVU135
 438 0090 701E     		subs	r0, r6, #1
 439              	.LVL39:
 970:lvgl/lvgl/src/draw/lv_draw_rect.c ****             sh_ups_blur_buf[x] = v;
 440              		.loc 1 970 9 view .LVU136
 441 0092 DDE7     		b	.L18
 442              	.LVL40:
 443              	.L45:
 970:lvgl/lvgl/src/draw/lv_draw_rect.c ****             sh_ups_blur_buf[x] = v;
 444              		.loc 1 970 9 view .LVU137
 445 0094 039E     		ldr	r6, [sp, #12]
 446              	.LBE147:
 989:lvgl/lvgl/src/draw/lv_draw_rect.c ****     uint32_t max_v = LV_OPA_COVER << SHADOW_UPSCALE_SHIFT;
 447              		.loc 1 989 5 is_stmt 1 view .LVU138
 990:lvgl/lvgl/src/draw/lv_draw_rect.c ****     uint32_t max_v_div = max_v / sw;
 448              		.loc 1 990 5 view .LVU139
 449              	.LVL41:
 991:lvgl/lvgl/src/draw/lv_draw_rect.c ****     for(i = 0; i < (uint32_t)size * size; i++) {
 450              		.loc 1 991 5 view .LVU140
 991:lvgl/lvgl/src/draw/lv_draw_rect.c ****     for(i = 0; i < (uint32_t)size * size; i++) {
 451              		.loc 1 991 14 is_stmt 0 view .LVU141
 452 0096 4FF47F5C 		mov	ip, #16320
 453 009a 019A     		ldr	r2, [sp, #4]
 454 009c BCFBF2FC 		udiv	ip, ip, r2
 455              	.LVL42:
 992:lvgl/lvgl/src/draw/lv_draw_rect.c ****         if(sh_ups_buf[i] == 0) continue;
 456              		.loc 1 992 5 is_stmt 1 view .LVU142
 992:lvgl/lvgl/src/draw/lv_draw_rect.c ****         if(sh_ups_buf[i] == 0) continue;
 457              		.loc 1 992 11 is_stmt 0 view .LVU143
 458 00a0 0023     		movs	r3, #0
 459 00a2 9646     		mov	lr, r2
 992:lvgl/lvgl/src/draw/lv_draw_rect.c ****         if(sh_ups_buf[i] == 0) continue;
 460              		.loc 1 992 5 view .LVU144
 461 00a4 02E0     		b	.L24
 462              	.LVL43:
 463              	.L47:
 994:lvgl/lvgl/src/draw/lv_draw_rect.c ****         else sh_ups_buf[i] = sh_ups_buf[i] / sw;
 464              		.loc 1 994 41 is_stmt 1 discriminator 1 view .LVU145
 994:lvgl/lvgl/src/draw/lv_draw_rect.c ****         else sh_ups_buf[i] = sh_ups_buf[i] / sw;
 465              		.loc 1 994 55 is_stmt 0 discriminator 1 view .LVU146
 466 00a6 26F800C0 		strh	ip, [r6, r0]	@ movhi
 467              	.L25:
 992:lvgl/lvgl/src/draw/lv_draw_rect.c ****         if(sh_ups_buf[i] == 0) continue;
ARM GAS  C:\Users\gx\AppData\Local\Temp\ccP7i1j8.s 			page 34


 468              		.loc 1 992 43 is_stmt 1 discriminator 2 view .LVU147
 992:lvgl/lvgl/src/draw/lv_draw_rect.c ****         if(sh_ups_buf[i] == 0) continue;
 469              		.loc 1 992 44 is_stmt 0 discriminator 2 view .LVU148
 470 00aa 0133     		adds	r3, r3, #1
 471              	.LVL44:
 472              	.L24:
 992:lvgl/lvgl/src/draw/lv_draw_rect.c ****         if(sh_ups_buf[i] == 0) continue;
 473              		.loc 1 992 16 is_stmt 1 discriminator 1 view .LVU149
 992:lvgl/lvgl/src/draw/lv_draw_rect.c ****         if(sh_ups_buf[i] == 0) continue;
 474              		.loc 1 992 35 is_stmt 0 discriminator 1 view .LVU150
 475 00ac 0AFB0AF2 		mul	r2, r10, r10
 992:lvgl/lvgl/src/draw/lv_draw_rect.c ****         if(sh_ups_buf[i] == 0) continue;
 476              		.loc 1 992 5 discriminator 1 view .LVU151
 477 00b0 9A42     		cmp	r2, r3
 478 00b2 0BD9     		bls	.L46
 993:lvgl/lvgl/src/draw/lv_draw_rect.c ****         else if(sh_ups_buf[i] == max_v) sh_ups_buf[i] = max_v_div;
 479              		.loc 1 993 9 is_stmt 1 view .LVU152
 993:lvgl/lvgl/src/draw/lv_draw_rect.c ****         else if(sh_ups_buf[i] == max_v) sh_ups_buf[i] = max_v_div;
 480              		.loc 1 993 22 is_stmt 0 view .LVU153
 481 00b4 5800     		lsls	r0, r3, #1
 482 00b6 36F81320 		ldrh	r2, [r6, r3, lsl #1]
 993:lvgl/lvgl/src/draw/lv_draw_rect.c ****         else if(sh_ups_buf[i] == max_v) sh_ups_buf[i] = max_v_div;
 483              		.loc 1 993 11 view .LVU154
 484 00ba 002A     		cmp	r2, #0
 485 00bc F5D0     		beq	.L25
 994:lvgl/lvgl/src/draw/lv_draw_rect.c ****         else sh_ups_buf[i] = sh_ups_buf[i] / sw;
 486              		.loc 1 994 14 is_stmt 1 view .LVU155
 994:lvgl/lvgl/src/draw/lv_draw_rect.c ****         else sh_ups_buf[i] = sh_ups_buf[i] / sw;
 487              		.loc 1 994 16 is_stmt 0 view .LVU156
 488 00be B2F57F5F 		cmp	r2, #16320
 489 00c2 F0D0     		beq	.L47
 995:lvgl/lvgl/src/draw/lv_draw_rect.c ****     }
 490              		.loc 1 995 14 is_stmt 1 view .LVU157
 995:lvgl/lvgl/src/draw/lv_draw_rect.c ****     }
 491              		.loc 1 995 44 is_stmt 0 view .LVU158
 492 00c4 92FBFEF2 		sdiv	r2, r2, lr
 995:lvgl/lvgl/src/draw/lv_draw_rect.c ****     }
 493              		.loc 1 995 28 view .LVU159
 494 00c8 3252     		strh	r2, [r6, r0]	@ movhi
 495 00ca EEE7     		b	.L25
 496              	.L46:
 998:lvgl/lvgl/src/draw/lv_draw_rect.c ****         sh_ups_tmp_buf = &sh_ups_buf[x];
 497              		.loc 1 998 11 view .LVU160
 498 00cc 4FF00009 		mov	r9, #0
 499              	.LVL45:
 998:lvgl/lvgl/src/draw/lv_draw_rect.c ****         sh_ups_tmp_buf = &sh_ups_buf[x];
 500              		.loc 1 998 11 view .LVU161
 501 00d0 DDF804A0 		ldr	r10, [sp, #4]
 502 00d4 32E0     		b	.L28
 503              	.LVL46:
 504              	.L41:
 505              	.LBB148:
 506              	.LBB149:
1002:lvgl/lvgl/src/draw/lv_draw_rect.c **** 
 507              		.loc 1 1002 32 view .LVU162
 508 00d6 0020     		movs	r0, #0
 509 00d8 10E0     		b	.L30
ARM GAS  C:\Users\gx\AppData\Local\Temp\ccP7i1j8.s 			page 35


 510              	.L49:
1006:lvgl/lvgl/src/draw/lv_draw_rect.c ****             else top_val = sh_ups_buf[(y - s_right) * size + x];
 511              		.loc 1 1006 34 is_stmt 1 discriminator 1 view .LVU163
1006:lvgl/lvgl/src/draw/lv_draw_rect.c ****             else top_val = sh_ups_buf[(y - s_right) * size + x];
 512              		.loc 1 1006 58 is_stmt 0 discriminator 1 view .LVU164
 513 00da BEF80000 		ldrh	r0, [lr]
 514              	.LVL47:
1006:lvgl/lvgl/src/draw/lv_draw_rect.c ****             else top_val = sh_ups_buf[(y - s_right) * size + x];
 515              		.loc 1 1006 58 discriminator 1 view .LVU165
 516 00de 16E0     		b	.L32
 517              	.LVL48:
 518              	.L33:
1013:lvgl/lvgl/src/draw/lv_draw_rect.c ****             v += bottom_val;
 519              		.loc 1 1013 18 is_stmt 1 view .LVU166
1013:lvgl/lvgl/src/draw/lv_draw_rect.c ****             v += bottom_val;
 520              		.loc 1 1013 48 is_stmt 0 view .LVU167
 521 00e0 481E     		subs	r0, r1, #1
1013:lvgl/lvgl/src/draw/lv_draw_rect.c ****             v += bottom_val;
 522              		.loc 1 1013 60 view .LVU168
 523 00e2 00FB0190 		mla	r0, r0, r1, r9
1013:lvgl/lvgl/src/draw/lv_draw_rect.c ****             v += bottom_val;
 524              		.loc 1 1013 41 view .LVU169
 525 00e6 36F81000 		ldrh	r0, [r6, r0, lsl #1]
 526              	.LVL49:
 527              	.L34:
1014:lvgl/lvgl/src/draw/lv_draw_rect.c ****         }
 528              		.loc 1 1014 13 is_stmt 1 discriminator 2 view .LVU170
1014:lvgl/lvgl/src/draw/lv_draw_rect.c ****         }
 529              		.loc 1 1014 15 is_stmt 0 discriminator 2 view .LVU171
 530 00ea 0244     		add	r2, r2, r0
 531              	.LVL50:
1014:lvgl/lvgl/src/draw/lv_draw_rect.c ****         }
 532              		.loc 1 1014 15 discriminator 2 view .LVU172
 533              	.LBE149:
1001:lvgl/lvgl/src/draw/lv_draw_rect.c ****             sh_ups_blur_buf[y] = v < 0 ? 0 : (v >> SHADOW_UPSCALE_SHIFT);
 534              		.loc 1 1001 31 is_stmt 1 discriminator 2 view .LVU173
1001:lvgl/lvgl/src/draw/lv_draw_rect.c ****             sh_ups_blur_buf[y] = v < 0 ? 0 : (v >> SHADOW_UPSCALE_SHIFT);
 535              		.loc 1 1001 32 is_stmt 0 discriminator 2 view .LVU174
 536 00ec 0133     		adds	r3, r3, #1
 537              	.LVL51:
1001:lvgl/lvgl/src/draw/lv_draw_rect.c ****             sh_ups_blur_buf[y] = v < 0 ? 0 : (v >> SHADOW_UPSCALE_SHIFT);
 538              		.loc 1 1001 51 discriminator 2 view .LVU175
 539 00ee AE44     		add	lr, lr, r5
 540              	.LVL52:
 541              	.L29:
1001:lvgl/lvgl/src/draw/lv_draw_rect.c ****             sh_ups_blur_buf[y] = v < 0 ? 0 : (v >> SHADOW_UPSCALE_SHIFT);
 542              		.loc 1 1001 20 is_stmt 1 discriminator 1 view .LVU176
1001:lvgl/lvgl/src/draw/lv_draw_rect.c ****             sh_ups_blur_buf[y] = v < 0 ? 0 : (v >> SHADOW_UPSCALE_SHIFT);
 543              		.loc 1 1001 9 is_stmt 0 discriminator 1 view .LVU177
 544 00f0 9942     		cmp	r1, r3
 545 00f2 17DD     		ble	.L48
 546              	.LBB150:
1002:lvgl/lvgl/src/draw/lv_draw_rect.c **** 
 547              		.loc 1 1002 13 is_stmt 1 view .LVU178
1002:lvgl/lvgl/src/draw/lv_draw_rect.c **** 
 548              		.loc 1 1002 32 is_stmt 0 view .LVU179
 549 00f4 002A     		cmp	r2, #0
ARM GAS  C:\Users\gx\AppData\Local\Temp\ccP7i1j8.s 			page 36


 550 00f6 EEDB     		blt	.L41
1002:lvgl/lvgl/src/draw/lv_draw_rect.c **** 
 551              		.loc 1 1002 32 discriminator 1 view .LVU180
 552 00f8 C2F38F10 		ubfx	r0, r2, #6, #16
 553              	.L30:
1002:lvgl/lvgl/src/draw/lv_draw_rect.c **** 
 554              		.loc 1 1002 32 discriminator 4 view .LVU181
 555 00fc 24F81300 		strh	r0, [r4, r3, lsl #1]	@ movhi
1005:lvgl/lvgl/src/draw/lv_draw_rect.c ****             if(y - s_right <= 0) top_val = sh_ups_tmp_buf[0];
 556              		.loc 1 1005 13 is_stmt 1 discriminator 4 view .LVU182
1006:lvgl/lvgl/src/draw/lv_draw_rect.c ****             else top_val = sh_ups_buf[(y - s_right) * size + x];
 557              		.loc 1 1006 13 discriminator 4 view .LVU183
1006:lvgl/lvgl/src/draw/lv_draw_rect.c ****             else top_val = sh_ups_buf[(y - s_right) * size + x];
 558              		.loc 1 1006 18 is_stmt 0 discriminator 4 view .LVU184
 559 0100 D81B     		subs	r0, r3, r7
1006:lvgl/lvgl/src/draw/lv_draw_rect.c ****             else top_val = sh_ups_buf[(y - s_right) * size + x];
 560              		.loc 1 1006 15 discriminator 4 view .LVU185
 561 0102 0028     		cmp	r0, #0
 562 0104 E9DD     		ble	.L49
1007:lvgl/lvgl/src/draw/lv_draw_rect.c ****             v -= top_val;
 563              		.loc 1 1007 18 is_stmt 1 view .LVU186
1007:lvgl/lvgl/src/draw/lv_draw_rect.c ****             v -= top_val;
 564              		.loc 1 1007 60 is_stmt 0 view .LVU187
 565 0106 00FB0190 		mla	r0, r0, r1, r9
1007:lvgl/lvgl/src/draw/lv_draw_rect.c ****             v -= top_val;
 566              		.loc 1 1007 38 view .LVU188
 567 010a 36F81000 		ldrh	r0, [r6, r0, lsl #1]
 568              	.LVL53:
 569              	.L32:
1008:lvgl/lvgl/src/draw/lv_draw_rect.c **** 
 570              		.loc 1 1008 13 is_stmt 1 view .LVU189
1008:lvgl/lvgl/src/draw/lv_draw_rect.c **** 
 571              		.loc 1 1008 15 is_stmt 0 view .LVU190
 572 010e 121A     		subs	r2, r2, r0
 573              	.LVL54:
1011:lvgl/lvgl/src/draw/lv_draw_rect.c ****             if(y + s_left + 1 < size) bottom_val = sh_ups_buf[(y + s_left + 1) * size + x];
 574              		.loc 1 1011 13 is_stmt 1 view .LVU191
1012:lvgl/lvgl/src/draw/lv_draw_rect.c ****             else bottom_val = sh_ups_buf[(size - 1) * size + x];
 575              		.loc 1 1012 13 view .LVU192
1012:lvgl/lvgl/src/draw/lv_draw_rect.c ****             else bottom_val = sh_ups_buf[(size - 1) * size + x];
 576              		.loc 1 1012 18 is_stmt 0 view .LVU193
 577 0110 08EB0300 		add	r0, r8, r3
 578              	.LVL55:
1012:lvgl/lvgl/src/draw/lv_draw_rect.c ****             else bottom_val = sh_ups_buf[(size - 1) * size + x];
 579              		.loc 1 1012 27 view .LVU194
 580 0114 0130     		adds	r0, r0, #1
1012:lvgl/lvgl/src/draw/lv_draw_rect.c ****             else bottom_val = sh_ups_buf[(size - 1) * size + x];
 581              		.loc 1 1012 15 view .LVU195
 582 0116 8142     		cmp	r1, r0
 583 0118 E2DD     		ble	.L33
1012:lvgl/lvgl/src/draw/lv_draw_rect.c ****             else bottom_val = sh_ups_buf[(size - 1) * size + x];
 584              		.loc 1 1012 39 is_stmt 1 discriminator 1 view .LVU196
1012:lvgl/lvgl/src/draw/lv_draw_rect.c ****             else bottom_val = sh_ups_buf[(size - 1) * size + x];
 585              		.loc 1 1012 87 is_stmt 0 discriminator 1 view .LVU197
 586 011a 00FB0190 		mla	r0, r0, r1, r9
1012:lvgl/lvgl/src/draw/lv_draw_rect.c ****             else bottom_val = sh_ups_buf[(size - 1) * size + x];
 587              		.loc 1 1012 62 discriminator 1 view .LVU198
ARM GAS  C:\Users\gx\AppData\Local\Temp\ccP7i1j8.s 			page 37


 588 011e 36F81000 		ldrh	r0, [r6, r0, lsl #1]
 589              	.LVL56:
1012:lvgl/lvgl/src/draw/lv_draw_rect.c ****             else bottom_val = sh_ups_buf[(size - 1) * size + x];
 590              		.loc 1 1012 62 discriminator 1 view .LVU199
 591 0122 E2E7     		b	.L34
 592              	.LVL57:
 593              	.L48:
1012:lvgl/lvgl/src/draw/lv_draw_rect.c ****             else bottom_val = sh_ups_buf[(size - 1) * size + x];
 594              		.loc 1 1012 62 discriminator 1 view .LVU200
 595              	.LBE150:
1019:lvgl/lvgl/src/draw/lv_draw_rect.c ****             (*sh_ups_tmp_buf) = sh_ups_blur_buf[y];
 596              		.loc 1 1019 15 view .LVU201
 597 0124 0023     		movs	r3, #0
 598              	.LVL58:
1019:lvgl/lvgl/src/draw/lv_draw_rect.c ****             (*sh_ups_tmp_buf) = sh_ups_blur_buf[y];
 599              		.loc 1 1019 15 view .LVU202
 600 0126 05E0     		b	.L36
 601              	.LVL59:
 602              	.L37:
1020:lvgl/lvgl/src/draw/lv_draw_rect.c ****         }
 603              		.loc 1 1020 13 is_stmt 1 discriminator 3 view .LVU203
1020:lvgl/lvgl/src/draw/lv_draw_rect.c ****         }
 604              		.loc 1 1020 48 is_stmt 0 discriminator 3 view .LVU204
 605 0128 34F81320 		ldrh	r2, [r4, r3, lsl #1]
1020:lvgl/lvgl/src/draw/lv_draw_rect.c ****         }
 606              		.loc 1 1020 31 discriminator 3 view .LVU205
 607 012c ACF80020 		strh	r2, [ip]	@ movhi
1019:lvgl/lvgl/src/draw/lv_draw_rect.c ****             (*sh_ups_tmp_buf) = sh_ups_blur_buf[y];
 608              		.loc 1 1019 30 is_stmt 1 discriminator 3 view .LVU206
1019:lvgl/lvgl/src/draw/lv_draw_rect.c ****             (*sh_ups_tmp_buf) = sh_ups_blur_buf[y];
 609              		.loc 1 1019 31 is_stmt 0 discriminator 3 view .LVU207
 610 0130 0133     		adds	r3, r3, #1
 611              	.LVL60:
1019:lvgl/lvgl/src/draw/lv_draw_rect.c ****             (*sh_ups_tmp_buf) = sh_ups_blur_buf[y];
 612              		.loc 1 1019 50 discriminator 3 view .LVU208
 613 0132 AC44     		add	ip, ip, r5
 614              	.LVL61:
 615              	.L36:
1019:lvgl/lvgl/src/draw/lv_draw_rect.c ****             (*sh_ups_tmp_buf) = sh_ups_blur_buf[y];
 616              		.loc 1 1019 20 is_stmt 1 discriminator 1 view .LVU209
1019:lvgl/lvgl/src/draw/lv_draw_rect.c ****             (*sh_ups_tmp_buf) = sh_ups_blur_buf[y];
 617              		.loc 1 1019 9 is_stmt 0 discriminator 1 view .LVU210
 618 0134 9942     		cmp	r1, r3
 619 0136 F7DC     		bgt	.L37
 620              	.LBE148:
 998:lvgl/lvgl/src/draw/lv_draw_rect.c ****         sh_ups_tmp_buf = &sh_ups_buf[x];
 621              		.loc 1 998 26 is_stmt 1 discriminator 2 view .LVU211
 998:lvgl/lvgl/src/draw/lv_draw_rect.c ****         sh_ups_tmp_buf = &sh_ups_buf[x];
 622              		.loc 1 998 27 is_stmt 0 discriminator 2 view .LVU212
 623 0138 09F10109 		add	r9, r9, #1
 624              	.LVL62:
 625              	.L28:
 998:lvgl/lvgl/src/draw/lv_draw_rect.c ****         sh_ups_tmp_buf = &sh_ups_buf[x];
 626              		.loc 1 998 16 is_stmt 1 discriminator 1 view .LVU213
 998:lvgl/lvgl/src/draw/lv_draw_rect.c ****         sh_ups_tmp_buf = &sh_ups_buf[x];
 627              		.loc 1 998 5 is_stmt 0 discriminator 1 view .LVU214
 628 013c 4945     		cmp	r1, r9
ARM GAS  C:\Users\gx\AppData\Local\Temp\ccP7i1j8.s 			page 38


 629 013e 08DD     		ble	.L50
 630              	.LBB151:
 999:lvgl/lvgl/src/draw/lv_draw_rect.c ****         int32_t v = sh_ups_tmp_buf[0] * sw;
 631              		.loc 1 999 9 is_stmt 1 view .LVU215
 999:lvgl/lvgl/src/draw/lv_draw_rect.c ****         int32_t v = sh_ups_tmp_buf[0] * sw;
 632              		.loc 1 999 24 is_stmt 0 view .LVU216
 633 0140 06EB490C 		add	ip, r6, r9, lsl #1
 634              	.LVL63:
1000:lvgl/lvgl/src/draw/lv_draw_rect.c ****         for(y = 0; y < size ; y++, sh_ups_tmp_buf += size) {
 635              		.loc 1 1000 9 is_stmt 1 view .LVU217
1000:lvgl/lvgl/src/draw/lv_draw_rect.c ****         for(y = 0; y < size ; y++, sh_ups_tmp_buf += size) {
 636              		.loc 1 1000 35 is_stmt 0 view .LVU218
 637 0144 36F81920 		ldrh	r2, [r6, r9, lsl #1]
1000:lvgl/lvgl/src/draw/lv_draw_rect.c ****         for(y = 0; y < size ; y++, sh_ups_tmp_buf += size) {
 638              		.loc 1 1000 17 view .LVU219
 639 0148 0AFB02F2 		mul	r2, r10, r2
 640              	.LVL64:
1001:lvgl/lvgl/src/draw/lv_draw_rect.c ****             sh_ups_blur_buf[y] = v < 0 ? 0 : (v >> SHADOW_UPSCALE_SHIFT);
 641              		.loc 1 1001 9 is_stmt 1 view .LVU220
 999:lvgl/lvgl/src/draw/lv_draw_rect.c ****         int32_t v = sh_ups_tmp_buf[0] * sw;
 642              		.loc 1 999 24 is_stmt 0 view .LVU221
 643 014c E646     		mov	lr, ip
1001:lvgl/lvgl/src/draw/lv_draw_rect.c ****             sh_ups_blur_buf[y] = v < 0 ? 0 : (v >> SHADOW_UPSCALE_SHIFT);
 644              		.loc 1 1001 15 view .LVU222
 645 014e 0023     		movs	r3, #0
1001:lvgl/lvgl/src/draw/lv_draw_rect.c ****             sh_ups_blur_buf[y] = v < 0 ? 0 : (v >> SHADOW_UPSCALE_SHIFT);
 646              		.loc 1 1001 9 view .LVU223
 647 0150 CEE7     		b	.L29
 648              	.LVL65:
 649              	.L50:
1001:lvgl/lvgl/src/draw/lv_draw_rect.c ****             sh_ups_blur_buf[y] = v < 0 ? 0 : (v >> SHADOW_UPSCALE_SHIFT);
 650              		.loc 1 1001 9 view .LVU224
 651              	.LBE151:
1024:lvgl/lvgl/src/draw/lv_draw_rect.c **** }
 652              		.loc 1 1024 5 is_stmt 1 view .LVU225
 653 0152 2046     		mov	r0, r4
 654 0154 FFF7FEFF 		bl	lv_mem_buf_release
 655              	.LVL66:
1025:lvgl/lvgl/src/draw/lv_draw_rect.c **** 
 656              		.loc 1 1025 1 is_stmt 0 view .LVU226
 657 0158 05B0     		add	sp, sp, #20
 658              	.LCFI6:
 659              		.cfi_def_cfa_offset 36
 660              		@ sp needed
 661 015a BDE8F08F 		pop	{r4, r5, r6, r7, r8, r9, r10, fp, pc}
1025:lvgl/lvgl/src/draw/lv_draw_rect.c **** 
 662              		.loc 1 1025 1 view .LVU227
 663              		.cfi_endproc
 664              	.LFE160:
 666              		.section	.text.shadow_draw_corner_buf,"ax",%progbits
 667              		.align	1
 668              		.syntax unified
 669              		.thumb
 670              		.thumb_func
 671              		.fpu fpv4-sp-d16
 673              	shadow_draw_corner_buf:
 674              	.LVL67:
ARM GAS  C:\Users\gx\AppData\Local\Temp\ccP7i1j8.s 			page 39


 675              	.LFB159:
 869:lvgl/lvgl/src/draw/lv_draw_rect.c ****     int32_t sw_ori = sw;
 676              		.loc 1 869 1 is_stmt 1 view -0
 677              		.cfi_startproc
 678              		@ args = 0, pretend = 0, frame = 40
 679              		@ frame_needed = 0, uses_anonymous_args = 0
 869:lvgl/lvgl/src/draw/lv_draw_rect.c ****     int32_t sw_ori = sw;
 680              		.loc 1 869 1 is_stmt 0 view .LVU229
 681 0000 2DE9F04F 		push	{r4, r5, r6, r7, r8, r9, r10, fp, lr}
 682              	.LCFI7:
 683              		.cfi_def_cfa_offset 36
 684              		.cfi_offset 4, -36
 685              		.cfi_offset 5, -32
 686              		.cfi_offset 6, -28
 687              		.cfi_offset 7, -24
 688              		.cfi_offset 8, -20
 689              		.cfi_offset 9, -16
 690              		.cfi_offset 10, -12
 691              		.cfi_offset 11, -8
 692              		.cfi_offset 14, -4
 693 0004 8DB0     		sub	sp, sp, #52
 694              	.LCFI8:
 695              		.cfi_def_cfa_offset 88
 696 0006 8A46     		mov	r10, r1
 697 0008 9346     		mov	fp, r2
 698 000a 1A46     		mov	r2, r3
 699              	.LVL68:
 870:lvgl/lvgl/src/draw/lv_draw_rect.c ****     int32_t size = sw_ori  + r;
 700              		.loc 1 870 5 is_stmt 1 view .LVU230
 871:lvgl/lvgl/src/draw/lv_draw_rect.c **** 
 701              		.loc 1 871 5 view .LVU231
 871:lvgl/lvgl/src/draw/lv_draw_rect.c **** 
 702              		.loc 1 871 13 is_stmt 0 view .LVU232
 703 000c 03EB0B05 		add	r5, r3, fp
 704              	.LVL69:
 873:lvgl/lvgl/src/draw/lv_draw_rect.c ****     lv_area_copy(&sh_area, coords);
 705              		.loc 1 873 5 is_stmt 1 view .LVU233
 874:lvgl/lvgl/src/draw/lv_draw_rect.c ****     sh_area.x2 = sw / 2 + r - 1  - ((sw & 1) ? 0 : 1);
 706              		.loc 1 874 5 view .LVU234
 707              	.LBB152:
 708              	.LBI152:
 709              		.file 2 "lvgl/lvgl/src/draw/../misc/lv_area.h"
   1:lvgl/lvgl/src/draw/../misc/lv_area.h **** /**
   2:lvgl/lvgl/src/draw/../misc/lv_area.h ****  * @file lv_area.h
   3:lvgl/lvgl/src/draw/../misc/lv_area.h ****  *
   4:lvgl/lvgl/src/draw/../misc/lv_area.h ****  */
   5:lvgl/lvgl/src/draw/../misc/lv_area.h **** 
   6:lvgl/lvgl/src/draw/../misc/lv_area.h **** #ifndef LV_AREA_H
   7:lvgl/lvgl/src/draw/../misc/lv_area.h **** #define LV_AREA_H
   8:lvgl/lvgl/src/draw/../misc/lv_area.h **** 
   9:lvgl/lvgl/src/draw/../misc/lv_area.h **** #ifdef __cplusplus
  10:lvgl/lvgl/src/draw/../misc/lv_area.h **** extern "C" {
  11:lvgl/lvgl/src/draw/../misc/lv_area.h **** #endif
  12:lvgl/lvgl/src/draw/../misc/lv_area.h **** 
  13:lvgl/lvgl/src/draw/../misc/lv_area.h **** /*********************
  14:lvgl/lvgl/src/draw/../misc/lv_area.h ****  *      INCLUDES
  15:lvgl/lvgl/src/draw/../misc/lv_area.h ****  *********************/
ARM GAS  C:\Users\gx\AppData\Local\Temp\ccP7i1j8.s 			page 40


  16:lvgl/lvgl/src/draw/../misc/lv_area.h **** #include "../lv_conf_internal.h"
  17:lvgl/lvgl/src/draw/../misc/lv_area.h **** #include <string.h>
  18:lvgl/lvgl/src/draw/../misc/lv_area.h **** #include <stdbool.h>
  19:lvgl/lvgl/src/draw/../misc/lv_area.h **** #include <stdint.h>
  20:lvgl/lvgl/src/draw/../misc/lv_area.h **** 
  21:lvgl/lvgl/src/draw/../misc/lv_area.h **** /*********************
  22:lvgl/lvgl/src/draw/../misc/lv_area.h ****  *      DEFINES
  23:lvgl/lvgl/src/draw/../misc/lv_area.h ****  *********************/
  24:lvgl/lvgl/src/draw/../misc/lv_area.h **** 
  25:lvgl/lvgl/src/draw/../misc/lv_area.h **** #define _LV_COORD_MAX_REDUCE    8192
  26:lvgl/lvgl/src/draw/../misc/lv_area.h **** 
  27:lvgl/lvgl/src/draw/../misc/lv_area.h **** #if LV_USE_LARGE_COORD
  28:lvgl/lvgl/src/draw/../misc/lv_area.h **** typedef int32_t lv_coord_t;
  29:lvgl/lvgl/src/draw/../misc/lv_area.h **** #else
  30:lvgl/lvgl/src/draw/../misc/lv_area.h **** typedef int16_t lv_coord_t;
  31:lvgl/lvgl/src/draw/../misc/lv_area.h **** #endif
  32:lvgl/lvgl/src/draw/../misc/lv_area.h **** 
  33:lvgl/lvgl/src/draw/../misc/lv_area.h **** /*To allow some special values in the end reduce the max value*/
  34:lvgl/lvgl/src/draw/../misc/lv_area.h **** #define LV_COORD_MAX ((lv_coord_t)((uint32_t)((uint32_t)1 << (8 * sizeof(lv_coord_t) - 1)) - _LV_CO
  35:lvgl/lvgl/src/draw/../misc/lv_area.h **** #define LV_COORD_MIN (-LV_COORD_MAX)
  36:lvgl/lvgl/src/draw/../misc/lv_area.h **** 
  37:lvgl/lvgl/src/draw/../misc/lv_area.h **** LV_EXPORT_CONST_INT(LV_COORD_MAX);
  38:lvgl/lvgl/src/draw/../misc/lv_area.h **** LV_EXPORT_CONST_INT(LV_COORD_MIN);
  39:lvgl/lvgl/src/draw/../misc/lv_area.h **** 
  40:lvgl/lvgl/src/draw/../misc/lv_area.h **** /**********************
  41:lvgl/lvgl/src/draw/../misc/lv_area.h ****  *      TYPEDEFS
  42:lvgl/lvgl/src/draw/../misc/lv_area.h ****  **********************/
  43:lvgl/lvgl/src/draw/../misc/lv_area.h **** 
  44:lvgl/lvgl/src/draw/../misc/lv_area.h **** /**
  45:lvgl/lvgl/src/draw/../misc/lv_area.h ****  * Represents a point on the screen.
  46:lvgl/lvgl/src/draw/../misc/lv_area.h ****  */
  47:lvgl/lvgl/src/draw/../misc/lv_area.h **** typedef struct {
  48:lvgl/lvgl/src/draw/../misc/lv_area.h ****     lv_coord_t x;
  49:lvgl/lvgl/src/draw/../misc/lv_area.h ****     lv_coord_t y;
  50:lvgl/lvgl/src/draw/../misc/lv_area.h **** } lv_point_t;
  51:lvgl/lvgl/src/draw/../misc/lv_area.h **** 
  52:lvgl/lvgl/src/draw/../misc/lv_area.h **** /** Represents an area of the screen.*/
  53:lvgl/lvgl/src/draw/../misc/lv_area.h **** typedef struct {
  54:lvgl/lvgl/src/draw/../misc/lv_area.h ****     lv_coord_t x1;
  55:lvgl/lvgl/src/draw/../misc/lv_area.h ****     lv_coord_t y1;
  56:lvgl/lvgl/src/draw/../misc/lv_area.h ****     lv_coord_t x2;
  57:lvgl/lvgl/src/draw/../misc/lv_area.h ****     lv_coord_t y2;
  58:lvgl/lvgl/src/draw/../misc/lv_area.h **** } lv_area_t;
  59:lvgl/lvgl/src/draw/../misc/lv_area.h **** 
  60:lvgl/lvgl/src/draw/../misc/lv_area.h **** /** Alignments*/
  61:lvgl/lvgl/src/draw/../misc/lv_area.h **** enum {
  62:lvgl/lvgl/src/draw/../misc/lv_area.h ****     LV_ALIGN_DEFAULT = 0,
  63:lvgl/lvgl/src/draw/../misc/lv_area.h ****     LV_ALIGN_TOP_LEFT,
  64:lvgl/lvgl/src/draw/../misc/lv_area.h ****     LV_ALIGN_TOP_MID,
  65:lvgl/lvgl/src/draw/../misc/lv_area.h ****     LV_ALIGN_TOP_RIGHT,
  66:lvgl/lvgl/src/draw/../misc/lv_area.h ****     LV_ALIGN_BOTTOM_LEFT,
  67:lvgl/lvgl/src/draw/../misc/lv_area.h ****     LV_ALIGN_BOTTOM_MID,
  68:lvgl/lvgl/src/draw/../misc/lv_area.h ****     LV_ALIGN_BOTTOM_RIGHT,
  69:lvgl/lvgl/src/draw/../misc/lv_area.h ****     LV_ALIGN_LEFT_MID,
  70:lvgl/lvgl/src/draw/../misc/lv_area.h ****     LV_ALIGN_RIGHT_MID,
  71:lvgl/lvgl/src/draw/../misc/lv_area.h ****     LV_ALIGN_CENTER,
  72:lvgl/lvgl/src/draw/../misc/lv_area.h **** 
ARM GAS  C:\Users\gx\AppData\Local\Temp\ccP7i1j8.s 			page 41


  73:lvgl/lvgl/src/draw/../misc/lv_area.h ****     LV_ALIGN_OUT_TOP_LEFT,
  74:lvgl/lvgl/src/draw/../misc/lv_area.h ****     LV_ALIGN_OUT_TOP_MID,
  75:lvgl/lvgl/src/draw/../misc/lv_area.h ****     LV_ALIGN_OUT_TOP_RIGHT,
  76:lvgl/lvgl/src/draw/../misc/lv_area.h ****     LV_ALIGN_OUT_BOTTOM_LEFT,
  77:lvgl/lvgl/src/draw/../misc/lv_area.h ****     LV_ALIGN_OUT_BOTTOM_MID,
  78:lvgl/lvgl/src/draw/../misc/lv_area.h ****     LV_ALIGN_OUT_BOTTOM_RIGHT,
  79:lvgl/lvgl/src/draw/../misc/lv_area.h ****     LV_ALIGN_OUT_LEFT_TOP,
  80:lvgl/lvgl/src/draw/../misc/lv_area.h ****     LV_ALIGN_OUT_LEFT_MID,
  81:lvgl/lvgl/src/draw/../misc/lv_area.h ****     LV_ALIGN_OUT_LEFT_BOTTOM,
  82:lvgl/lvgl/src/draw/../misc/lv_area.h ****     LV_ALIGN_OUT_RIGHT_TOP,
  83:lvgl/lvgl/src/draw/../misc/lv_area.h ****     LV_ALIGN_OUT_RIGHT_MID,
  84:lvgl/lvgl/src/draw/../misc/lv_area.h ****     LV_ALIGN_OUT_RIGHT_BOTTOM,
  85:lvgl/lvgl/src/draw/../misc/lv_area.h **** };
  86:lvgl/lvgl/src/draw/../misc/lv_area.h **** typedef uint8_t lv_align_t;
  87:lvgl/lvgl/src/draw/../misc/lv_area.h **** 
  88:lvgl/lvgl/src/draw/../misc/lv_area.h **** enum {
  89:lvgl/lvgl/src/draw/../misc/lv_area.h ****     LV_DIR_NONE     = 0x00,
  90:lvgl/lvgl/src/draw/../misc/lv_area.h ****     LV_DIR_LEFT     = (1 << 0),
  91:lvgl/lvgl/src/draw/../misc/lv_area.h ****     LV_DIR_RIGHT    = (1 << 1),
  92:lvgl/lvgl/src/draw/../misc/lv_area.h ****     LV_DIR_TOP      = (1 << 2),
  93:lvgl/lvgl/src/draw/../misc/lv_area.h ****     LV_DIR_BOTTOM   = (1 << 3),
  94:lvgl/lvgl/src/draw/../misc/lv_area.h ****     LV_DIR_HOR      = LV_DIR_LEFT | LV_DIR_RIGHT,
  95:lvgl/lvgl/src/draw/../misc/lv_area.h ****     LV_DIR_VER      = LV_DIR_TOP | LV_DIR_BOTTOM,
  96:lvgl/lvgl/src/draw/../misc/lv_area.h ****     LV_DIR_ALL      = LV_DIR_HOR | LV_DIR_VER,
  97:lvgl/lvgl/src/draw/../misc/lv_area.h **** };
  98:lvgl/lvgl/src/draw/../misc/lv_area.h **** 
  99:lvgl/lvgl/src/draw/../misc/lv_area.h **** typedef uint8_t lv_dir_t;
 100:lvgl/lvgl/src/draw/../misc/lv_area.h **** 
 101:lvgl/lvgl/src/draw/../misc/lv_area.h **** /**********************
 102:lvgl/lvgl/src/draw/../misc/lv_area.h ****  * GLOBAL PROTOTYPES
 103:lvgl/lvgl/src/draw/../misc/lv_area.h ****  **********************/
 104:lvgl/lvgl/src/draw/../misc/lv_area.h **** 
 105:lvgl/lvgl/src/draw/../misc/lv_area.h **** /**
 106:lvgl/lvgl/src/draw/../misc/lv_area.h ****  * Initialize an area
 107:lvgl/lvgl/src/draw/../misc/lv_area.h ****  * @param area_p pointer to an area
 108:lvgl/lvgl/src/draw/../misc/lv_area.h ****  * @param x1 left coordinate of the area
 109:lvgl/lvgl/src/draw/../misc/lv_area.h ****  * @param y1 top coordinate of the area
 110:lvgl/lvgl/src/draw/../misc/lv_area.h ****  * @param x2 right coordinate of the area
 111:lvgl/lvgl/src/draw/../misc/lv_area.h ****  * @param y2 bottom coordinate of the area
 112:lvgl/lvgl/src/draw/../misc/lv_area.h ****  */
 113:lvgl/lvgl/src/draw/../misc/lv_area.h **** void lv_area_set(lv_area_t * area_p, lv_coord_t x1, lv_coord_t y1, lv_coord_t x2, lv_coord_t y2);
 114:lvgl/lvgl/src/draw/../misc/lv_area.h **** 
 115:lvgl/lvgl/src/draw/../misc/lv_area.h **** /**
 116:lvgl/lvgl/src/draw/../misc/lv_area.h ****  * Copy an area
 117:lvgl/lvgl/src/draw/../misc/lv_area.h ****  * @param dest pointer to the destination area
 118:lvgl/lvgl/src/draw/../misc/lv_area.h ****  * @param src pointer to the source area
 119:lvgl/lvgl/src/draw/../misc/lv_area.h ****  */
 120:lvgl/lvgl/src/draw/../misc/lv_area.h **** inline static void lv_area_copy(lv_area_t * dest, const lv_area_t * src)
 710              		.loc 2 120 20 view .LVU235
 711              	.LBB153:
 121:lvgl/lvgl/src/draw/../misc/lv_area.h **** {
 122:lvgl/lvgl/src/draw/../misc/lv_area.h ****     dest->x1 = src->x1;
 712              		.loc 2 122 5 view .LVU236
 123:lvgl/lvgl/src/draw/../misc/lv_area.h ****     dest->y1 = src->y1;
 713              		.loc 2 123 5 view .LVU237
 124:lvgl/lvgl/src/draw/../misc/lv_area.h ****     dest->x2 = src->x2;
 714              		.loc 2 124 5 view .LVU238
ARM GAS  C:\Users\gx\AppData\Local\Temp\ccP7i1j8.s 			page 42


 125:lvgl/lvgl/src/draw/../misc/lv_area.h ****     dest->y2 = src->y2;
 715              		.loc 2 125 5 view .LVU239
 716              		.loc 2 125 5 is_stmt 0 view .LVU240
 717              	.LBE153:
 718              	.LBE152:
 875:lvgl/lvgl/src/draw/lv_draw_rect.c ****     sh_area.y1 = sw / 2 + 1;
 719              		.loc 1 875 5 is_stmt 1 view .LVU241
 875:lvgl/lvgl/src/draw/lv_draw_rect.c ****     sh_area.y1 = sw / 2 + 1;
 720              		.loc 1 875 25 is_stmt 0 view .LVU242
 721 0010 0BEBDB71 		add	r1, fp, fp, lsr #31
 722              	.LVL70:
 875:lvgl/lvgl/src/draw/lv_draw_rect.c ****     sh_area.y1 = sw / 2 + 1;
 723              		.loc 1 875 25 view .LVU243
 724 0014 C1F34F01 		ubfx	r1, r1, #1, #16
 725 0018 CB18     		adds	r3, r1, r3
 726              	.LVL71:
 875:lvgl/lvgl/src/draw/lv_draw_rect.c ****     sh_area.y1 = sw / 2 + 1;
 727              		.loc 1 875 25 view .LVU244
 728 001a 9BB2     		uxth	r3, r3
 875:lvgl/lvgl/src/draw/lv_draw_rect.c ****     sh_area.y1 = sw / 2 + 1;
 729              		.loc 1 875 50 view .LVU245
 730 001c 1BF00107 		ands	r7, fp, #1
 731 0020 0CBF     		ite	eq
 732 0022 0124     		moveq	r4, #1
 733 0024 0024     		movne	r4, #0
 875:lvgl/lvgl/src/draw/lv_draw_rect.c ****     sh_area.y1 = sw / 2 + 1;
 734              		.loc 1 875 34 view .LVU246
 735 0026 1B1B     		subs	r3, r3, r4
 736 0028 013B     		subs	r3, r3, #1
 737 002a 9EB2     		uxth	r6, r3
 875:lvgl/lvgl/src/draw/lv_draw_rect.c ****     sh_area.y1 = sw / 2 + 1;
 738              		.loc 1 875 16 view .LVU247
 739 002c ADF82C30 		strh	r3, [sp, #44]	@ movhi
 876:lvgl/lvgl/src/draw/lv_draw_rect.c **** 
 740              		.loc 1 876 5 is_stmt 1 view .LVU248
 876:lvgl/lvgl/src/draw/lv_draw_rect.c **** 
 741              		.loc 1 876 25 is_stmt 0 view .LVU249
 742 0030 0131     		adds	r1, r1, #1
 876:lvgl/lvgl/src/draw/lv_draw_rect.c **** 
 743              		.loc 1 876 16 view .LVU250
 744 0032 ADF82A10 		strh	r1, [sp, #42]	@ movhi
 878:lvgl/lvgl/src/draw/lv_draw_rect.c ****     sh_area.y2 = sh_area.y1 + lv_area_get_height(coords);
 745              		.loc 1 878 5 is_stmt 1 view .LVU251
 746              	.LVL72:
 747              	.LBB154:
 748              	.LBI154:
 126:lvgl/lvgl/src/draw/../misc/lv_area.h **** }
 127:lvgl/lvgl/src/draw/../misc/lv_area.h **** 
 128:lvgl/lvgl/src/draw/../misc/lv_area.h **** /**
 129:lvgl/lvgl/src/draw/../misc/lv_area.h ****  * Get the width of an area
 130:lvgl/lvgl/src/draw/../misc/lv_area.h ****  * @param area_p pointer to an area
 131:lvgl/lvgl/src/draw/../misc/lv_area.h ****  * @return the width of the area (if x1 == x2 -> width = 1)
 132:lvgl/lvgl/src/draw/../misc/lv_area.h ****  */
 133:lvgl/lvgl/src/draw/../misc/lv_area.h **** static inline lv_coord_t lv_area_get_width(const lv_area_t * area_p)
 749              		.loc 2 133 26 view .LVU252
 750              	.LBB155:
 134:lvgl/lvgl/src/draw/../misc/lv_area.h **** {
ARM GAS  C:\Users\gx\AppData\Local\Temp\ccP7i1j8.s 			page 43


 135:lvgl/lvgl/src/draw/../misc/lv_area.h ****     return (lv_coord_t)(area_p->x2 - area_p->x1 + 1);
 751              		.loc 2 135 5 view .LVU253
 752              		.loc 2 135 31 is_stmt 0 view .LVU254
 753 0036 8488     		ldrh	r4, [r0, #4]
 754              		.loc 2 135 44 view .LVU255
 755 0038 0388     		ldrh	r3, [r0]
 756              		.loc 2 135 36 view .LVU256
 757 003a E41A     		subs	r4, r4, r3
 758 003c A4B2     		uxth	r4, r4
 759              		.loc 2 135 49 view .LVU257
 760 003e 0134     		adds	r4, r4, #1
 761 0040 A4B2     		uxth	r4, r4
 762              	.LVL73:
 763              		.loc 2 135 49 view .LVU258
 764              	.LBE155:
 765              	.LBE154:
 878:lvgl/lvgl/src/draw/lv_draw_rect.c ****     sh_area.y2 = sh_area.y1 + lv_area_get_height(coords);
 766              		.loc 1 878 29 view .LVU259
 767 0042 341B     		subs	r4, r6, r4
 878:lvgl/lvgl/src/draw/lv_draw_rect.c ****     sh_area.y2 = sh_area.y1 + lv_area_get_height(coords);
 768              		.loc 1 878 16 view .LVU260
 769 0044 ADF82840 		strh	r4, [sp, #40]	@ movhi
 879:lvgl/lvgl/src/draw/lv_draw_rect.c **** 
 770              		.loc 1 879 5 is_stmt 1 view .LVU261
 771              	.LVL74:
 772              	.LBB156:
 773              	.LBI156:
 136:lvgl/lvgl/src/draw/../misc/lv_area.h **** }
 137:lvgl/lvgl/src/draw/../misc/lv_area.h **** 
 138:lvgl/lvgl/src/draw/../misc/lv_area.h **** /**
 139:lvgl/lvgl/src/draw/../misc/lv_area.h ****  * Get the height of an area
 140:lvgl/lvgl/src/draw/../misc/lv_area.h ****  * @param area_p pointer to an area
 141:lvgl/lvgl/src/draw/../misc/lv_area.h ****  * @return the height of the area (if y1 == y2 -> height = 1)
 142:lvgl/lvgl/src/draw/../misc/lv_area.h ****  */
 143:lvgl/lvgl/src/draw/../misc/lv_area.h **** static inline lv_coord_t lv_area_get_height(const lv_area_t * area_p)
 774              		.loc 2 143 26 view .LVU262
 775              	.LBB157:
 144:lvgl/lvgl/src/draw/../misc/lv_area.h **** {
 145:lvgl/lvgl/src/draw/../misc/lv_area.h ****     return (lv_coord_t)(area_p->y2 - area_p->y1 + 1);
 776              		.loc 2 145 5 view .LVU263
 777              		.loc 2 145 31 is_stmt 0 view .LVU264
 778 0048 C488     		ldrh	r4, [r0, #6]
 779              		.loc 2 145 44 view .LVU265
 780 004a 4088     		ldrh	r0, [r0, #2]
 781              	.LVL75:
 782              		.loc 2 145 36 view .LVU266
 783 004c 201A     		subs	r0, r4, r0
 784 004e 80B2     		uxth	r0, r0
 785              		.loc 2 145 49 view .LVU267
 786 0050 0130     		adds	r0, r0, #1
 787 0052 80B2     		uxth	r0, r0
 788              	.LVL76:
 789              		.loc 2 145 49 view .LVU268
 790              	.LBE157:
 791              	.LBE156:
 879:lvgl/lvgl/src/draw/lv_draw_rect.c **** 
 792              		.loc 1 879 29 view .LVU269
ARM GAS  C:\Users\gx\AppData\Local\Temp\ccP7i1j8.s 			page 44


 793 0054 10FA81F1 		uxtah	r1, r0, r1
 879:lvgl/lvgl/src/draw/lv_draw_rect.c **** 
 794              		.loc 1 879 16 view .LVU270
 795 0058 ADF82E10 		strh	r1, [sp, #46]	@ movhi
 881:lvgl/lvgl/src/draw/lv_draw_rect.c ****     lv_draw_mask_radius_init(&mask_param, &sh_area, r, false);
 796              		.loc 1 881 5 is_stmt 1 view .LVU271
 882:lvgl/lvgl/src/draw/lv_draw_rect.c **** 
 797              		.loc 1 882 5 view .LVU272
 798 005c 0023     		movs	r3, #0
 799 005e 0AA9     		add	r1, sp, #40
 800 0060 04A8     		add	r0, sp, #16
 801 0062 FFF7FEFF 		bl	lv_draw_mask_radius_init
 802              	.LVL77:
 886:lvgl/lvgl/src/draw/lv_draw_rect.c ****     else sw = sw_ori >> 1;
 803              		.loc 1 886 5 view .LVU273
 886:lvgl/lvgl/src/draw/lv_draw_rect.c ****     else sw = sw_ori >> 1;
 804              		.loc 1 886 7 is_stmt 0 view .LVU274
 805 0066 BBF1010F 		cmp	fp, #1
 806 006a 0BD0     		beq	.L72
 887:lvgl/lvgl/src/draw/lv_draw_rect.c **** #endif
 807              		.loc 1 887 10 is_stmt 1 view .LVU275
 887:lvgl/lvgl/src/draw/lv_draw_rect.c **** #endif
 808              		.loc 1 887 13 is_stmt 0 view .LVU276
 809 006c 4FEA6B0B 		asr	fp, fp, #1
 810              	.LVL78:
 811              	.L52:
 890:lvgl/lvgl/src/draw/lv_draw_rect.c ****     lv_opa_t * mask_line = lv_mem_buf_get(size);
 812              		.loc 1 890 5 is_stmt 1 view .LVU277
 891:lvgl/lvgl/src/draw/lv_draw_rect.c ****     uint16_t * sh_ups_tmp_buf = (uint16_t *)sh_buf;
 813              		.loc 1 891 5 view .LVU278
 891:lvgl/lvgl/src/draw/lv_draw_rect.c ****     uint16_t * sh_ups_tmp_buf = (uint16_t *)sh_buf;
 814              		.loc 1 891 28 is_stmt 0 view .LVU279
 815 0070 A946     		mov	r9, r5
 816 0072 2846     		mov	r0, r5
 817 0074 FFF7FEFF 		bl	lv_mem_buf_get
 818              	.LVL79:
 819 0078 0446     		mov	r4, r0
 820              	.LVL80:
 892:lvgl/lvgl/src/draw/lv_draw_rect.c ****     for(y = 0; y < size; y++) {
 821              		.loc 1 892 5 is_stmt 1 view .LVU280
 893:lvgl/lvgl/src/draw/lv_draw_rect.c ****         lv_memset_ff(mask_line, size);
 822              		.loc 1 893 5 view .LVU281
 892:lvgl/lvgl/src/draw/lv_draw_rect.c ****     for(y = 0; y < size; y++) {
 823              		.loc 1 892 16 is_stmt 0 view .LVU282
 824 007a 5646     		mov	r6, r10
 893:lvgl/lvgl/src/draw/lv_draw_rect.c ****         lv_memset_ff(mask_line, size);
 825              		.loc 1 893 11 view .LVU283
 826 007c 4FF00008 		mov	r8, #0
 827 0080 0397     		str	r7, [sp, #12]
 893:lvgl/lvgl/src/draw/lv_draw_rect.c ****         lv_memset_ff(mask_line, size);
 828              		.loc 1 893 5 view .LVU284
 829 0082 0BE0     		b	.L53
 830              	.LVL81:
 831              	.L72:
 886:lvgl/lvgl/src/draw/lv_draw_rect.c ****     else sw = sw_ori >> 1;
 832              		.loc 1 886 24 view .LVU285
 833 0084 4FF0010B 		mov	fp, #1
ARM GAS  C:\Users\gx\AppData\Local\Temp\ccP7i1j8.s 			page 45


 834              	.LVL82:
 886:lvgl/lvgl/src/draw/lv_draw_rect.c ****     else sw = sw_ori >> 1;
 835              		.loc 1 886 24 view .LVU286
 836 0088 F2E7     		b	.L52
 837              	.LVL83:
 838              	.L77:
 839              	.LBB158:
 897:lvgl/lvgl/src/draw/lv_draw_rect.c ****         }
 840              		.loc 1 897 13 is_stmt 1 view .LVU287
 841 008a 4FEA4901 		lsl	r1, r9, #1
 842 008e 3046     		mov	r0, r6
 843              	.LVL84:
 897:lvgl/lvgl/src/draw/lv_draw_rect.c ****         }
 844              		.loc 1 897 13 is_stmt 0 view .LVU288
 845 0090 FFF7FEFF 		bl	lv_memset_00
 846              	.LVL85:
 847              	.L55:
 908:lvgl/lvgl/src/draw/lv_draw_rect.c ****     }
 848              		.loc 1 908 9 is_stmt 1 discriminator 2 view .LVU289
 908:lvgl/lvgl/src/draw/lv_draw_rect.c ****     }
 849              		.loc 1 908 24 is_stmt 0 discriminator 2 view .LVU290
 850 0094 06EB4906 		add	r6, r6, r9, lsl #1
 851              	.LVL86:
 908:lvgl/lvgl/src/draw/lv_draw_rect.c ****     }
 852              		.loc 1 908 24 discriminator 2 view .LVU291
 853              	.LBE158:
 893:lvgl/lvgl/src/draw/lv_draw_rect.c ****         lv_memset_ff(mask_line, size);
 854              		.loc 1 893 26 is_stmt 1 discriminator 2 view .LVU292
 893:lvgl/lvgl/src/draw/lv_draw_rect.c ****         lv_memset_ff(mask_line, size);
 855              		.loc 1 893 27 is_stmt 0 discriminator 2 view .LVU293
 856 0098 08F10108 		add	r8, r8, #1
 857              	.LVL87:
 858              	.L53:
 893:lvgl/lvgl/src/draw/lv_draw_rect.c ****         lv_memset_ff(mask_line, size);
 859              		.loc 1 893 16 is_stmt 1 discriminator 1 view .LVU294
 893:lvgl/lvgl/src/draw/lv_draw_rect.c ****         lv_memset_ff(mask_line, size);
 860              		.loc 1 893 5 is_stmt 0 discriminator 1 view .LVU295
 861 009c A845     		cmp	r8, r5
 862 009e 2FDA     		bge	.L76
 863              	.LBB160:
 894:lvgl/lvgl/src/draw/lv_draw_rect.c ****         lv_draw_mask_res_t mask_res = mask_param.dsc.cb(mask_line, 0, y, size, &mask_param);
 864              		.loc 1 894 9 is_stmt 1 view .LVU296
 865 00a0 4946     		mov	r1, r9
 866 00a2 2046     		mov	r0, r4
 867 00a4 FFF7FEFF 		bl	lv_memset_ff
 868              	.LVL88:
 895:lvgl/lvgl/src/draw/lv_draw_rect.c ****         if(mask_res == LV_DRAW_MASK_RES_TRANSP) {
 869              		.loc 1 895 9 view .LVU297
 895:lvgl/lvgl/src/draw/lv_draw_rect.c ****         if(mask_res == LV_DRAW_MASK_RES_TRANSP) {
 870              		.loc 1 895 39 is_stmt 0 view .LVU298
 871 00a8 04AB     		add	r3, sp, #16
 872 00aa 0093     		str	r3, [sp]
 873 00ac 2BB2     		sxth	r3, r5
 874 00ae 0FFA88F2 		sxth	r2, r8
 875 00b2 0021     		movs	r1, #0
 876 00b4 2046     		mov	r0, r4
 877 00b6 049F     		ldr	r7, [sp, #16]
ARM GAS  C:\Users\gx\AppData\Local\Temp\ccP7i1j8.s 			page 46


 878 00b8 B847     		blx	r7
 879              	.LVL89:
 896:lvgl/lvgl/src/draw/lv_draw_rect.c ****             lv_memset_00(sh_ups_tmp_buf, size * sizeof(sh_ups_tmp_buf[0]));
 880              		.loc 1 896 9 is_stmt 1 view .LVU299
 896:lvgl/lvgl/src/draw/lv_draw_rect.c ****             lv_memset_00(sh_ups_tmp_buf, size * sizeof(sh_ups_tmp_buf[0]));
 881              		.loc 1 896 11 is_stmt 0 view .LVU300
 882 00ba 0028     		cmp	r0, #0
 883 00bc E5D0     		beq	.L77
 884              	.LBB159:
 900:lvgl/lvgl/src/draw/lv_draw_rect.c ****             sh_ups_tmp_buf[0] = (mask_line[0] << SHADOW_UPSCALE_SHIFT) / sw;
 885              		.loc 1 900 13 is_stmt 1 view .LVU301
 901:lvgl/lvgl/src/draw/lv_draw_rect.c ****             for(i = 1; i < size; i++) {
 886              		.loc 1 901 13 view .LVU302
 901:lvgl/lvgl/src/draw/lv_draw_rect.c ****             for(i = 1; i < size; i++) {
 887              		.loc 1 901 43 is_stmt 0 view .LVU303
 888 00be 2378     		ldrb	r3, [r4]	@ zero_extendqisi2
 901:lvgl/lvgl/src/draw/lv_draw_rect.c ****             for(i = 1; i < size; i++) {
 889              		.loc 1 901 47 view .LVU304
 890 00c0 9B01     		lsls	r3, r3, #6
 901:lvgl/lvgl/src/draw/lv_draw_rect.c ****             for(i = 1; i < size; i++) {
 891              		.loc 1 901 72 view .LVU305
 892 00c2 5846     		mov	r0, fp
 893              	.LVL90:
 901:lvgl/lvgl/src/draw/lv_draw_rect.c ****             for(i = 1; i < size; i++) {
 894              		.loc 1 901 72 view .LVU306
 895 00c4 93FBFBF3 		sdiv	r3, r3, fp
 901:lvgl/lvgl/src/draw/lv_draw_rect.c ****             for(i = 1; i < size; i++) {
 896              		.loc 1 901 31 view .LVU307
 897 00c8 3380     		strh	r3, [r6]	@ movhi
 902:lvgl/lvgl/src/draw/lv_draw_rect.c ****                 if(mask_line[i] == mask_line[i - 1]) sh_ups_tmp_buf[i] = sh_ups_tmp_buf[i - 1];
 898              		.loc 1 902 13 is_stmt 1 view .LVU308
 899              	.LVL91:
 902:lvgl/lvgl/src/draw/lv_draw_rect.c ****                 if(mask_line[i] == mask_line[i - 1]) sh_ups_tmp_buf[i] = sh_ups_tmp_buf[i - 1];
 900              		.loc 1 902 19 is_stmt 0 view .LVU309
 901 00ca 0123     		movs	r3, #1
 902 00cc 039F     		ldr	r7, [sp, #12]
 902:lvgl/lvgl/src/draw/lv_draw_rect.c ****                 if(mask_line[i] == mask_line[i - 1]) sh_ups_tmp_buf[i] = sh_ups_tmp_buf[i - 1];
 903              		.loc 1 902 13 view .LVU310
 904 00ce 05E0     		b	.L56
 905              	.LVL92:
 906              	.L57:
 904:lvgl/lvgl/src/draw/lv_draw_rect.c ****             }
 907              		.loc 1 904 23 is_stmt 1 view .LVU311
 904:lvgl/lvgl/src/draw/lv_draw_rect.c ****             }
 908              		.loc 1 904 57 is_stmt 0 view .LVU312
 909 00d0 9201     		lsls	r2, r2, #6
 904:lvgl/lvgl/src/draw/lv_draw_rect.c ****             }
 910              		.loc 1 904 82 view .LVU313
 911 00d2 92FBF0F2 		sdiv	r2, r2, r0
 904:lvgl/lvgl/src/draw/lv_draw_rect.c ****             }
 912              		.loc 1 904 41 view .LVU314
 913 00d6 26F81320 		strh	r2, [r6, r3, lsl #1]	@ movhi
 914              	.L58:
 902:lvgl/lvgl/src/draw/lv_draw_rect.c ****                 if(mask_line[i] == mask_line[i - 1]) sh_ups_tmp_buf[i] = sh_ups_tmp_buf[i - 1];
 915              		.loc 1 902 34 is_stmt 1 discriminator 2 view .LVU315
 902:lvgl/lvgl/src/draw/lv_draw_rect.c ****                 if(mask_line[i] == mask_line[i - 1]) sh_ups_tmp_buf[i] = sh_ups_tmp_buf[i - 1];
 916              		.loc 1 902 35 is_stmt 0 discriminator 2 view .LVU316
ARM GAS  C:\Users\gx\AppData\Local\Temp\ccP7i1j8.s 			page 47


 917 00da 0133     		adds	r3, r3, #1
 918              	.LVL93:
 919              	.L56:
 902:lvgl/lvgl/src/draw/lv_draw_rect.c ****                 if(mask_line[i] == mask_line[i - 1]) sh_ups_tmp_buf[i] = sh_ups_tmp_buf[i - 1];
 920              		.loc 1 902 24 is_stmt 1 discriminator 1 view .LVU317
 902:lvgl/lvgl/src/draw/lv_draw_rect.c ****                 if(mask_line[i] == mask_line[i - 1]) sh_ups_tmp_buf[i] = sh_ups_tmp_buf[i - 1];
 921              		.loc 1 902 13 is_stmt 0 discriminator 1 view .LVU318
 922 00dc AB42     		cmp	r3, r5
 923 00de 0DDA     		bge	.L78
 903:lvgl/lvgl/src/draw/lv_draw_rect.c ****                 else  sh_ups_tmp_buf[i] = (mask_line[i] << SHADOW_UPSCALE_SHIFT) / sw;
 924              		.loc 1 903 17 is_stmt 1 view .LVU319
 903:lvgl/lvgl/src/draw/lv_draw_rect.c ****                 else  sh_ups_tmp_buf[i] = (mask_line[i] << SHADOW_UPSCALE_SHIFT) / sw;
 925              		.loc 1 903 29 is_stmt 0 view .LVU320
 926 00e0 E25C     		ldrb	r2, [r4, r3]	@ zero_extendqisi2
 903:lvgl/lvgl/src/draw/lv_draw_rect.c ****                 else  sh_ups_tmp_buf[i] = (mask_line[i] << SHADOW_UPSCALE_SHIFT) / sw;
 927              		.loc 1 903 45 view .LVU321
 928 00e2 E118     		adds	r1, r4, r3
 929 00e4 11F8011C 		ldrb	r1, [r1, #-1]	@ zero_extendqisi2
 903:lvgl/lvgl/src/draw/lv_draw_rect.c ****                 else  sh_ups_tmp_buf[i] = (mask_line[i] << SHADOW_UPSCALE_SHIFT) / sw;
 930              		.loc 1 903 19 view .LVU322
 931 00e8 8A42     		cmp	r2, r1
 932 00ea F1D1     		bne	.L57
 903:lvgl/lvgl/src/draw/lv_draw_rect.c ****                 else  sh_ups_tmp_buf[i] = (mask_line[i] << SHADOW_UPSCALE_SHIFT) / sw;
 933              		.loc 1 903 54 is_stmt 1 discriminator 1 view .LVU323
 903:lvgl/lvgl/src/draw/lv_draw_rect.c ****                 else  sh_ups_tmp_buf[i] = (mask_line[i] << SHADOW_UPSCALE_SHIFT) / sw;
 934              		.loc 1 903 88 is_stmt 0 discriminator 1 view .LVU324
 935 00ec 03F10042 		add	r2, r3, #-2147483648
 936 00f0 013A     		subs	r2, r2, #1
 937 00f2 36F81220 		ldrh	r2, [r6, r2, lsl #1]
 903:lvgl/lvgl/src/draw/lv_draw_rect.c ****                 else  sh_ups_tmp_buf[i] = (mask_line[i] << SHADOW_UPSCALE_SHIFT) / sw;
 938              		.loc 1 903 72 discriminator 1 view .LVU325
 939 00f6 26F81320 		strh	r2, [r6, r3, lsl #1]	@ movhi
 940 00fa EEE7     		b	.L58
 941              	.L78:
 903:lvgl/lvgl/src/draw/lv_draw_rect.c ****                 else  sh_ups_tmp_buf[i] = (mask_line[i] << SHADOW_UPSCALE_SHIFT) / sw;
 942              		.loc 1 903 72 discriminator 1 view .LVU326
 943 00fc 0397     		str	r7, [sp, #12]
 944 00fe C9E7     		b	.L55
 945              	.LVL94:
 946              	.L76:
 903:lvgl/lvgl/src/draw/lv_draw_rect.c ****                 else  sh_ups_tmp_buf[i] = (mask_line[i] << SHADOW_UPSCALE_SHIFT) / sw;
 947              		.loc 1 903 72 discriminator 1 view .LVU327
 948 0100 039F     		ldr	r7, [sp, #12]
 949              	.LBE159:
 950              	.LBE160:
 910:lvgl/lvgl/src/draw/lv_draw_rect.c **** 
 951              		.loc 1 910 5 is_stmt 1 view .LVU328
 952 0102 2046     		mov	r0, r4
 953 0104 FFF7FEFF 		bl	lv_mem_buf_release
 954              	.LVL95:
 912:lvgl/lvgl/src/draw/lv_draw_rect.c **** 
 955              		.loc 1 912 5 view .LVU329
 956 0108 04A8     		add	r0, sp, #16
 957 010a FFF7FEFF 		bl	lv_draw_mask_free_param
 958              	.LVL96:
 914:lvgl/lvgl/src/draw/lv_draw_rect.c ****         int32_t i;
 959              		.loc 1 914 5 view .LVU330
ARM GAS  C:\Users\gx\AppData\Local\Temp\ccP7i1j8.s 			page 48


 914:lvgl/lvgl/src/draw/lv_draw_rect.c ****         int32_t i;
 960              		.loc 1 914 7 is_stmt 0 view .LVU331
 961 010e BBF1010F 		cmp	fp, #1
 962 0112 1BD0     		beq	.L79
 923:lvgl/lvgl/src/draw/lv_draw_rect.c **** 
 963              		.loc 1 923 5 is_stmt 1 view .LVU332
 964 0114 2CB2     		sxth	r4, r5
 965              	.LVL97:
 923:lvgl/lvgl/src/draw/lv_draw_rect.c **** 
 966              		.loc 1 923 5 is_stmt 0 view .LVU333
 967 0116 5246     		mov	r2, r10
 968 0118 5946     		mov	r1, fp
 969 011a 2046     		mov	r0, r4
 970 011c FFF7FEFF 		bl	shadow_blur_corner
 971              	.LVL98:
 933:lvgl/lvgl/src/draw/lv_draw_rect.c ****     if(sw > 1) {
 972              		.loc 1 933 5 is_stmt 1 view .LVU334
 933:lvgl/lvgl/src/draw/lv_draw_rect.c ****     if(sw > 1) {
 973              		.loc 1 933 8 is_stmt 0 view .LVU335
 974 0120 07EB0B01 		add	r1, r7, fp
 975              	.LVL99:
 934:lvgl/lvgl/src/draw/lv_draw_rect.c ****         uint32_t i;
 976              		.loc 1 934 5 is_stmt 1 view .LVU336
 934:lvgl/lvgl/src/draw/lv_draw_rect.c ****         uint32_t i;
 977              		.loc 1 934 7 is_stmt 0 view .LVU337
 978 0124 0129     		cmp	r1, #1
 979 0126 2BDD     		ble	.L65
 980              	.LBB161:
 935:lvgl/lvgl/src/draw/lv_draw_rect.c ****         uint32_t max_v_div = (LV_OPA_COVER << SHADOW_UPSCALE_SHIFT) / sw;
 981              		.loc 1 935 9 is_stmt 1 view .LVU338
 936:lvgl/lvgl/src/draw/lv_draw_rect.c ****         for(i = 0; i < (uint32_t)size * size; i++) {
 982              		.loc 1 936 9 view .LVU339
 936:lvgl/lvgl/src/draw/lv_draw_rect.c ****         for(i = 0; i < (uint32_t)size * size; i++) {
 983              		.loc 1 936 69 is_stmt 0 view .LVU340
 984 0128 0F46     		mov	r7, r1
 985 012a 4FF47F56 		mov	r6, #16320
 986              	.LVL100:
 936:lvgl/lvgl/src/draw/lv_draw_rect.c ****         for(i = 0; i < (uint32_t)size * size; i++) {
 987              		.loc 1 936 69 view .LVU341
 988 012e 96FBF1F6 		sdiv	r6, r6, r1
 989              	.LVL101:
 937:lvgl/lvgl/src/draw/lv_draw_rect.c ****             if(sh_buf[i] == 0) continue;
 990              		.loc 1 937 9 is_stmt 1 view .LVU342
 937:lvgl/lvgl/src/draw/lv_draw_rect.c ****             if(sh_buf[i] == 0) continue;
 991              		.loc 1 937 15 is_stmt 0 view .LVU343
 992 0132 0023     		movs	r3, #0
 937:lvgl/lvgl/src/draw/lv_draw_rect.c ****             if(sh_buf[i] == 0) continue;
 993              		.loc 1 937 9 view .LVU344
 994 0134 12E0     		b	.L66
 995              	.LVL102:
 996              	.L63:
 937:lvgl/lvgl/src/draw/lv_draw_rect.c ****             if(sh_buf[i] == 0) continue;
 997              		.loc 1 937 9 view .LVU345
 998              	.LBE161:
 999              	.LBB162:
 918:lvgl/lvgl/src/draw/lv_draw_rect.c ****         }
 1000              		.loc 1 918 13 is_stmt 1 discriminator 3 view .LVU346
ARM GAS  C:\Users\gx\AppData\Local\Temp\ccP7i1j8.s 			page 49


 918:lvgl/lvgl/src/draw/lv_draw_rect.c ****         }
 1001              		.loc 1 918 33 is_stmt 0 discriminator 3 view .LVU347
 1002 0136 3AF81320 		ldrh	r2, [r10, r3, lsl #1]
 918:lvgl/lvgl/src/draw/lv_draw_rect.c ****         }
 1003              		.loc 1 918 24 discriminator 3 view .LVU348
 1004 013a 9209     		lsrs	r2, r2, #6
 1005 013c 0AF80320 		strb	r2, [r10, r3]
 917:lvgl/lvgl/src/draw/lv_draw_rect.c ****             res_buf[i] = (sh_buf[i] >> SHADOW_UPSCALE_SHIFT);
 1006              		.loc 1 917 37 is_stmt 1 discriminator 3 view .LVU349
 917:lvgl/lvgl/src/draw/lv_draw_rect.c ****             res_buf[i] = (sh_buf[i] >> SHADOW_UPSCALE_SHIFT);
 1007              		.loc 1 917 38 is_stmt 0 discriminator 3 view .LVU350
 1008 0140 0133     		adds	r3, r3, #1
 1009              	.LVL103:
 1010              	.L61:
 917:lvgl/lvgl/src/draw/lv_draw_rect.c ****             res_buf[i] = (sh_buf[i] >> SHADOW_UPSCALE_SHIFT);
 1011              		.loc 1 917 20 is_stmt 1 discriminator 1 view .LVU351
 917:lvgl/lvgl/src/draw/lv_draw_rect.c ****             res_buf[i] = (sh_buf[i] >> SHADOW_UPSCALE_SHIFT);
 1012              		.loc 1 917 29 is_stmt 0 discriminator 1 view .LVU352
 1013 0142 05FB05F2 		mul	r2, r5, r5
 917:lvgl/lvgl/src/draw/lv_draw_rect.c ****             res_buf[i] = (sh_buf[i] >> SHADOW_UPSCALE_SHIFT);
 1014              		.loc 1 917 9 discriminator 1 view .LVU353
 1015 0146 9A42     		cmp	r2, r3
 1016 0148 F5DC     		bgt	.L63
 1017 014a 24E0     		b	.L51
 1018              	.LVL104:
 1019              	.L79:
 917:lvgl/lvgl/src/draw/lv_draw_rect.c ****             res_buf[i] = (sh_buf[i] >> SHADOW_UPSCALE_SHIFT);
 1020              		.loc 1 917 15 view .LVU354
 1021 014c 0023     		movs	r3, #0
 1022 014e F8E7     		b	.L61
 1023              	.LVL105:
 1024              	.L68:
 917:lvgl/lvgl/src/draw/lv_draw_rect.c ****             res_buf[i] = (sh_buf[i] >> SHADOW_UPSCALE_SHIFT);
 1025              		.loc 1 917 15 view .LVU355
 1026              	.LBE162:
 1027              	.LBB163:
 940:lvgl/lvgl/src/draw/lv_draw_rect.c ****         }
 1028              		.loc 1 940 19 is_stmt 1 view .LVU356
 940:lvgl/lvgl/src/draw/lv_draw_rect.c ****         }
 1029              		.loc 1 940 42 is_stmt 0 view .LVU357
 1030 0150 9201     		lsls	r2, r2, #6
 940:lvgl/lvgl/src/draw/lv_draw_rect.c ****         }
 1031              		.loc 1 940 67 view .LVU358
 1032 0152 92FBF7F2 		sdiv	r2, r2, r7
 940:lvgl/lvgl/src/draw/lv_draw_rect.c ****         }
 1033              		.loc 1 940 29 view .LVU359
 1034 0156 2AF80020 		strh	r2, [r10, r0]	@ movhi
 1035              	.L67:
 937:lvgl/lvgl/src/draw/lv_draw_rect.c ****             if(sh_buf[i] == 0) continue;
 1036              		.loc 1 937 47 is_stmt 1 discriminator 2 view .LVU360
 937:lvgl/lvgl/src/draw/lv_draw_rect.c ****             if(sh_buf[i] == 0) continue;
 1037              		.loc 1 937 48 is_stmt 0 discriminator 2 view .LVU361
 1038 015a 0133     		adds	r3, r3, #1
 1039              	.LVL106:
 1040              	.L66:
 937:lvgl/lvgl/src/draw/lv_draw_rect.c ****             if(sh_buf[i] == 0) continue;
 1041              		.loc 1 937 20 is_stmt 1 discriminator 1 view .LVU362
ARM GAS  C:\Users\gx\AppData\Local\Temp\ccP7i1j8.s 			page 50


 937:lvgl/lvgl/src/draw/lv_draw_rect.c ****             if(sh_buf[i] == 0) continue;
 1042              		.loc 1 937 39 is_stmt 0 discriminator 1 view .LVU363
 1043 015c 09FB09F2 		mul	r2, r9, r9
 937:lvgl/lvgl/src/draw/lv_draw_rect.c ****             if(sh_buf[i] == 0) continue;
 1044              		.loc 1 937 9 discriminator 1 view .LVU364
 1045 0160 9A42     		cmp	r2, r3
 1046 0162 09D9     		bls	.L80
 938:lvgl/lvgl/src/draw/lv_draw_rect.c ****             else if(sh_buf[i] == LV_OPA_COVER) sh_buf[i] = max_v_div;
 1047              		.loc 1 938 13 is_stmt 1 view .LVU365
 938:lvgl/lvgl/src/draw/lv_draw_rect.c ****             else if(sh_buf[i] == LV_OPA_COVER) sh_buf[i] = max_v_div;
 1048              		.loc 1 938 22 is_stmt 0 view .LVU366
 1049 0164 5800     		lsls	r0, r3, #1
 1050 0166 3AF81320 		ldrh	r2, [r10, r3, lsl #1]
 938:lvgl/lvgl/src/draw/lv_draw_rect.c ****             else if(sh_buf[i] == LV_OPA_COVER) sh_buf[i] = max_v_div;
 1051              		.loc 1 938 15 view .LVU367
 1052 016a 002A     		cmp	r2, #0
 1053 016c F5D0     		beq	.L67
 939:lvgl/lvgl/src/draw/lv_draw_rect.c ****             else  sh_buf[i] = (sh_buf[i] << SHADOW_UPSCALE_SHIFT) / sw;
 1054              		.loc 1 939 18 is_stmt 1 view .LVU368
 939:lvgl/lvgl/src/draw/lv_draw_rect.c ****             else  sh_buf[i] = (sh_buf[i] << SHADOW_UPSCALE_SHIFT) / sw;
 1055              		.loc 1 939 20 is_stmt 0 view .LVU369
 1056 016e FF2A     		cmp	r2, #255
 1057 0170 EED1     		bne	.L68
 939:lvgl/lvgl/src/draw/lv_draw_rect.c ****             else  sh_buf[i] = (sh_buf[i] << SHADOW_UPSCALE_SHIFT) / sw;
 1058              		.loc 1 939 48 is_stmt 1 discriminator 1 view .LVU370
 939:lvgl/lvgl/src/draw/lv_draw_rect.c ****             else  sh_buf[i] = (sh_buf[i] << SHADOW_UPSCALE_SHIFT) / sw;
 1059              		.loc 1 939 58 is_stmt 0 discriminator 1 view .LVU371
 1060 0172 2AF80060 		strh	r6, [r10, r0]	@ movhi
 1061 0176 F0E7     		b	.L67
 1062              	.L80:
 943:lvgl/lvgl/src/draw/lv_draw_rect.c ****     }
 1063              		.loc 1 943 9 is_stmt 1 view .LVU372
 1064 0178 5246     		mov	r2, r10
 1065 017a 2046     		mov	r0, r4
 1066 017c FFF7FEFF 		bl	shadow_blur_corner
 1067              	.LVL107:
 1068              	.L65:
 937:lvgl/lvgl/src/draw/lv_draw_rect.c ****             if(sh_buf[i] == 0) continue;
 1069              		.loc 1 937 15 is_stmt 0 discriminator 1 view .LVU373
 1070 0180 0023     		movs	r3, #0
 1071 0182 04E0     		b	.L70
 1072              	.LVL108:
 1073              	.L71:
 937:lvgl/lvgl/src/draw/lv_draw_rect.c ****             if(sh_buf[i] == 0) continue;
 1074              		.loc 1 937 15 discriminator 1 view .LVU374
 1075              	.LBE163:
 948:lvgl/lvgl/src/draw/lv_draw_rect.c ****     }
 1076              		.loc 1 948 9 is_stmt 1 discriminator 3 view .LVU375
 948:lvgl/lvgl/src/draw/lv_draw_rect.c ****     }
 1077              		.loc 1 948 28 is_stmt 0 discriminator 3 view .LVU376
 1078 0184 3AF81320 		ldrh	r2, [r10, r3, lsl #1]
 948:lvgl/lvgl/src/draw/lv_draw_rect.c ****     }
 1079              		.loc 1 948 20 discriminator 3 view .LVU377
 1080 0188 0AF80320 		strb	r2, [r10, r3]
 947:lvgl/lvgl/src/draw/lv_draw_rect.c ****         res_buf[x] = sh_buf[x];
 1081              		.loc 1 947 33 is_stmt 1 discriminator 3 view .LVU378
 947:lvgl/lvgl/src/draw/lv_draw_rect.c ****         res_buf[x] = sh_buf[x];
ARM GAS  C:\Users\gx\AppData\Local\Temp\ccP7i1j8.s 			page 51


 1082              		.loc 1 947 34 is_stmt 0 discriminator 3 view .LVU379
 1083 018c 0133     		adds	r3, r3, #1
 1084              	.LVL109:
 1085              	.L70:
 947:lvgl/lvgl/src/draw/lv_draw_rect.c ****         res_buf[x] = sh_buf[x];
 1086              		.loc 1 947 16 is_stmt 1 discriminator 1 view .LVU380
 947:lvgl/lvgl/src/draw/lv_draw_rect.c ****         res_buf[x] = sh_buf[x];
 1087              		.loc 1 947 25 is_stmt 0 discriminator 1 view .LVU381
 1088 018e 05FB05F2 		mul	r2, r5, r5
 947:lvgl/lvgl/src/draw/lv_draw_rect.c ****         res_buf[x] = sh_buf[x];
 1089              		.loc 1 947 5 discriminator 1 view .LVU382
 1090 0192 9A42     		cmp	r2, r3
 1091 0194 F6DC     		bgt	.L71
 1092              	.LVL110:
 1093              	.L51:
 952:lvgl/lvgl/src/draw/lv_draw_rect.c **** 
 1094              		.loc 1 952 1 view .LVU383
 1095 0196 0DB0     		add	sp, sp, #52
 1096              	.LCFI9:
 1097              		.cfi_def_cfa_offset 36
 1098              		@ sp needed
 1099 0198 BDE8F08F 		pop	{r4, r5, r6, r7, r8, r9, r10, fp, pc}
 952:lvgl/lvgl/src/draw/lv_draw_rect.c **** 
 1100              		.loc 1 952 1 view .LVU384
 1101              		.cfi_endproc
 1102              	.LFE159:
 1104              		.section	.text.draw_shadow,"ax",%progbits
 1105              		.align	1
 1106              		.syntax unified
 1107              		.thumb
 1108              		.thumb_func
 1109              		.fpu fpv4-sp-d16
 1111              	draw_shadow:
 1112              	.LVL111:
 1113              	.LFB158:
 422:lvgl/lvgl/src/draw/lv_draw_rect.c **** 
 1114              		.loc 1 422 1 is_stmt 1 view -0
 1115              		.cfi_startproc
 1116              		@ args = 0, pretend = 0, frame = 128
 1117              		@ frame_needed = 0, uses_anonymous_args = 0
 425:lvgl/lvgl/src/draw/lv_draw_rect.c ****     if(dsc->shadow_opa <= LV_OPA_MIN) return;
 1118              		.loc 1 425 5 view .LVU386
 425:lvgl/lvgl/src/draw/lv_draw_rect.c ****     if(dsc->shadow_opa <= LV_OPA_MIN) return;
 1119              		.loc 1 425 11 is_stmt 0 view .LVU387
 1120 0000 B2F92A30 		ldrsh	r3, [r2, #42]
 425:lvgl/lvgl/src/draw/lv_draw_rect.c ****     if(dsc->shadow_opa <= LV_OPA_MIN) return;
 1121              		.loc 1 425 7 view .LVU388
 1122 0004 002B     		cmp	r3, #0
 1123 0006 00F05186 		beq	.L182
 422:lvgl/lvgl/src/draw/lv_draw_rect.c **** 
 1124              		.loc 1 422 1 view .LVU389
 1125 000a 2DE9F04F 		push	{r4, r5, r6, r7, r8, r9, r10, fp, lr}
 1126              	.LCFI10:
 1127              		.cfi_def_cfa_offset 36
 1128              		.cfi_offset 4, -36
 1129              		.cfi_offset 5, -32
 1130              		.cfi_offset 6, -28
ARM GAS  C:\Users\gx\AppData\Local\Temp\ccP7i1j8.s 			page 52


 1131              		.cfi_offset 7, -24
 1132              		.cfi_offset 8, -20
 1133              		.cfi_offset 9, -16
 1134              		.cfi_offset 10, -12
 1135              		.cfi_offset 11, -8
 1136              		.cfi_offset 14, -4
 1137 000e A5B0     		sub	sp, sp, #148
 1138              	.LCFI11:
 1139              		.cfi_def_cfa_offset 184
 1140 0010 0446     		mov	r4, r0
 1141 0012 8946     		mov	r9, r1
 1142 0014 1546     		mov	r5, r2
 426:lvgl/lvgl/src/draw/lv_draw_rect.c **** 
 1143              		.loc 1 426 5 is_stmt 1 view .LVU390
 426:lvgl/lvgl/src/draw/lv_draw_rect.c **** 
 1144              		.loc 1 426 11 is_stmt 0 view .LVU391
 1145 0016 92F83270 		ldrb	r7, [r2, #50]	@ zero_extendqisi2
 426:lvgl/lvgl/src/draw/lv_draw_rect.c **** 
 1146              		.loc 1 426 7 view .LVU392
 1147 001a 022F     		cmp	r7, #2
 1148 001c 47D9     		bls	.L81
 428:lvgl/lvgl/src/draw/lv_draw_rect.c ****        dsc->shadow_ofs_x == 0 && dsc->shadow_ofs_y == 0) {
 1149              		.loc 1 428 5 is_stmt 1 view .LVU393
 428:lvgl/lvgl/src/draw/lv_draw_rect.c ****        dsc->shadow_ofs_x == 0 && dsc->shadow_ofs_y == 0) {
 1150              		.loc 1 428 7 is_stmt 0 view .LVU394
 1151 001e 012B     		cmp	r3, #1
 1152 0020 48D0     		beq	.L185
 1153              	.LVL112:
 1154              	.L83:
 434:lvgl/lvgl/src/draw/lv_draw_rect.c ****     core_area.x1 = coords->x1  + dsc->shadow_ofs_x - dsc->shadow_spread;
 1155              		.loc 1 434 5 is_stmt 1 view .LVU395
 435:lvgl/lvgl/src/draw/lv_draw_rect.c ****     core_area.x2 = coords->x2  + dsc->shadow_ofs_x + dsc->shadow_spread;
 1156              		.loc 1 435 5 view .LVU396
 435:lvgl/lvgl/src/draw/lv_draw_rect.c ****     core_area.x2 = coords->x2  + dsc->shadow_ofs_x + dsc->shadow_spread;
 1157              		.loc 1 435 26 is_stmt 0 view .LVU397
 1158 0022 2088     		ldrh	r0, [r4]
 1159              	.LVL113:
 435:lvgl/lvgl/src/draw/lv_draw_rect.c ****     core_area.x2 = coords->x2  + dsc->shadow_ofs_x + dsc->shadow_spread;
 1160              		.loc 1 435 37 view .LVU398
 1161 0024 A98D     		ldrh	r1, [r5, #44]
 1162              	.LVL114:
 435:lvgl/lvgl/src/draw/lv_draw_rect.c ****     core_area.x2 = coords->x2  + dsc->shadow_ofs_x + dsc->shadow_spread;
 1163              		.loc 1 435 32 view .LVU399
 1164 0026 0844     		add	r0, r0, r1
 1165 0028 80B2     		uxth	r0, r0
 435:lvgl/lvgl/src/draw/lv_draw_rect.c ****     core_area.x2 = coords->x2  + dsc->shadow_ofs_x + dsc->shadow_spread;
 1166              		.loc 1 435 57 view .LVU400
 1167 002a B5F830E0 		ldrh	lr, [r5, #48]
 435:lvgl/lvgl/src/draw/lv_draw_rect.c ****     core_area.x2 = coords->x2  + dsc->shadow_ofs_x + dsc->shadow_spread;
 1168              		.loc 1 435 52 view .LVU401
 1169 002e A0EB0E00 		sub	r0, r0, lr
 1170 0032 1FFA80FC 		uxth	ip, r0
 435:lvgl/lvgl/src/draw/lv_draw_rect.c ****     core_area.x2 = coords->x2  + dsc->shadow_ofs_x + dsc->shadow_spread;
 1171              		.loc 1 435 18 view .LVU402
 1172 0036 ADF88800 		strh	r0, [sp, #136]	@ movhi
 436:lvgl/lvgl/src/draw/lv_draw_rect.c ****     core_area.y1 = coords->y1  + dsc->shadow_ofs_y - dsc->shadow_spread;
 1173              		.loc 1 436 5 is_stmt 1 view .LVU403
ARM GAS  C:\Users\gx\AppData\Local\Temp\ccP7i1j8.s 			page 53


 436:lvgl/lvgl/src/draw/lv_draw_rect.c ****     core_area.y1 = coords->y1  + dsc->shadow_ofs_y - dsc->shadow_spread;
 1174              		.loc 1 436 26 is_stmt 0 view .LVU404
 1175 003a A288     		ldrh	r2, [r4, #4]
 436:lvgl/lvgl/src/draw/lv_draw_rect.c ****     core_area.y1 = coords->y1  + dsc->shadow_ofs_y - dsc->shadow_spread;
 1176              		.loc 1 436 32 view .LVU405
 1177 003c 1144     		add	r1, r1, r2
 436:lvgl/lvgl/src/draw/lv_draw_rect.c ****     core_area.y1 = coords->y1  + dsc->shadow_ofs_y - dsc->shadow_spread;
 1178              		.loc 1 436 52 view .LVU406
 1179 003e 1EFA81F1 		uxtah	r1, lr, r1
 436:lvgl/lvgl/src/draw/lv_draw_rect.c ****     core_area.y1 = coords->y1  + dsc->shadow_ofs_y - dsc->shadow_spread;
 1180              		.loc 1 436 18 view .LVU407
 1181 0042 ADF88C10 		strh	r1, [sp, #140]	@ movhi
 437:lvgl/lvgl/src/draw/lv_draw_rect.c ****     core_area.y2 = coords->y2  + dsc->shadow_ofs_y + dsc->shadow_spread;
 1182              		.loc 1 437 5 is_stmt 1 view .LVU408
 437:lvgl/lvgl/src/draw/lv_draw_rect.c ****     core_area.y2 = coords->y2  + dsc->shadow_ofs_y + dsc->shadow_spread;
 1183              		.loc 1 437 26 is_stmt 0 view .LVU409
 1184 0046 6088     		ldrh	r0, [r4, #2]
 437:lvgl/lvgl/src/draw/lv_draw_rect.c ****     core_area.y2 = coords->y2  + dsc->shadow_ofs_y + dsc->shadow_spread;
 1185              		.loc 1 437 37 view .LVU410
 1186 0048 EA8D     		ldrh	r2, [r5, #46]
 437:lvgl/lvgl/src/draw/lv_draw_rect.c ****     core_area.y2 = coords->y2  + dsc->shadow_ofs_y + dsc->shadow_spread;
 1187              		.loc 1 437 32 view .LVU411
 1188 004a 1044     		add	r0, r0, r2
 1189 004c 80B2     		uxth	r0, r0
 437:lvgl/lvgl/src/draw/lv_draw_rect.c ****     core_area.y2 = coords->y2  + dsc->shadow_ofs_y + dsc->shadow_spread;
 1190              		.loc 1 437 52 view .LVU412
 1191 004e A0EB0E00 		sub	r0, r0, lr
 1192 0052 86B2     		uxth	r6, r0
 437:lvgl/lvgl/src/draw/lv_draw_rect.c ****     core_area.y2 = coords->y2  + dsc->shadow_ofs_y + dsc->shadow_spread;
 1193              		.loc 1 437 18 view .LVU413
 1194 0054 ADF88A00 		strh	r0, [sp, #138]	@ movhi
 438:lvgl/lvgl/src/draw/lv_draw_rect.c **** 
 1195              		.loc 1 438 5 is_stmt 1 view .LVU414
 438:lvgl/lvgl/src/draw/lv_draw_rect.c **** 
 1196              		.loc 1 438 26 is_stmt 0 view .LVU415
 1197 0058 E088     		ldrh	r0, [r4, #6]
 438:lvgl/lvgl/src/draw/lv_draw_rect.c **** 
 1198              		.loc 1 438 32 view .LVU416
 1199 005a 0244     		add	r2, r2, r0
 438:lvgl/lvgl/src/draw/lv_draw_rect.c **** 
 1200              		.loc 1 438 52 view .LVU417
 1201 005c 1EFA82F2 		uxtah	r2, lr, r2
 438:lvgl/lvgl/src/draw/lv_draw_rect.c **** 
 1202              		.loc 1 438 18 view .LVU418
 1203 0060 ADF88E20 		strh	r2, [sp, #142]	@ movhi
 441:lvgl/lvgl/src/draw/lv_draw_rect.c ****     shadow_area.x1 = core_area.x1 - dsc->shadow_width / 2 - 1;
 1204              		.loc 1 441 5 is_stmt 1 view .LVU419
 442:lvgl/lvgl/src/draw/lv_draw_rect.c ****     shadow_area.x2 = core_area.x2 + dsc->shadow_width / 2 + 1;
 1205              		.loc 1 442 5 view .LVU420
 442:lvgl/lvgl/src/draw/lv_draw_rect.c ****     shadow_area.x2 = core_area.x2 + dsc->shadow_width / 2 + 1;
 1206              		.loc 1 442 35 is_stmt 0 view .LVU421
 1207 0064 03EBD373 		add	r3, r3, r3, lsr #31
 1208 0068 C3F34F03 		ubfx	r3, r3, #1, #16
 1209 006c ACEB0300 		sub	r0, ip, r3
 1210 0070 80B2     		uxth	r0, r0
 442:lvgl/lvgl/src/draw/lv_draw_rect.c ****     shadow_area.x2 = core_area.x2 + dsc->shadow_width / 2 + 1;
 1211              		.loc 1 442 59 view .LVU422
ARM GAS  C:\Users\gx\AppData\Local\Temp\ccP7i1j8.s 			page 54


 1212 0072 0138     		subs	r0, r0, #1
 442:lvgl/lvgl/src/draw/lv_draw_rect.c ****     shadow_area.x2 = core_area.x2 + dsc->shadow_width / 2 + 1;
 1213              		.loc 1 442 20 view .LVU423
 1214 0074 ADF88000 		strh	r0, [sp, #128]	@ movhi
 443:lvgl/lvgl/src/draw/lv_draw_rect.c ****     shadow_area.y1 = core_area.y1 - dsc->shadow_width / 2 - 1;
 1215              		.loc 1 443 5 is_stmt 1 view .LVU424
 443:lvgl/lvgl/src/draw/lv_draw_rect.c ****     shadow_area.y1 = core_area.y1 - dsc->shadow_width / 2 - 1;
 1216              		.loc 1 443 35 is_stmt 0 view .LVU425
 1217 0078 13FA81F1 		uxtah	r1, r3, r1
 1218 007c 89B2     		uxth	r1, r1
 443:lvgl/lvgl/src/draw/lv_draw_rect.c ****     shadow_area.y1 = core_area.y1 - dsc->shadow_width / 2 - 1;
 1219              		.loc 1 443 59 view .LVU426
 1220 007e 0131     		adds	r1, r1, #1
 443:lvgl/lvgl/src/draw/lv_draw_rect.c ****     shadow_area.y1 = core_area.y1 - dsc->shadow_width / 2 - 1;
 1221              		.loc 1 443 20 view .LVU427
 1222 0080 ADF88410 		strh	r1, [sp, #132]	@ movhi
 444:lvgl/lvgl/src/draw/lv_draw_rect.c ****     shadow_area.y2 = core_area.y2 + dsc->shadow_width / 2 + 1;
 1223              		.loc 1 444 5 is_stmt 1 view .LVU428
 444:lvgl/lvgl/src/draw/lv_draw_rect.c ****     shadow_area.y2 = core_area.y2 + dsc->shadow_width / 2 + 1;
 1224              		.loc 1 444 35 is_stmt 0 view .LVU429
 1225 0084 F11A     		subs	r1, r6, r3
 1226 0086 89B2     		uxth	r1, r1
 444:lvgl/lvgl/src/draw/lv_draw_rect.c ****     shadow_area.y2 = core_area.y2 + dsc->shadow_width / 2 + 1;
 1227              		.loc 1 444 59 view .LVU430
 1228 0088 0139     		subs	r1, r1, #1
 444:lvgl/lvgl/src/draw/lv_draw_rect.c ****     shadow_area.y2 = core_area.y2 + dsc->shadow_width / 2 + 1;
 1229              		.loc 1 444 20 view .LVU431
 1230 008a ADF88210 		strh	r1, [sp, #130]	@ movhi
 445:lvgl/lvgl/src/draw/lv_draw_rect.c **** 
 1231              		.loc 1 445 5 is_stmt 1 view .LVU432
 445:lvgl/lvgl/src/draw/lv_draw_rect.c **** 
 1232              		.loc 1 445 35 is_stmt 0 view .LVU433
 1233 008e 13FA82F3 		uxtah	r3, r3, r2
 1234 0092 9BB2     		uxth	r3, r3
 445:lvgl/lvgl/src/draw/lv_draw_rect.c **** 
 1235              		.loc 1 445 59 view .LVU434
 1236 0094 0133     		adds	r3, r3, #1
 445:lvgl/lvgl/src/draw/lv_draw_rect.c **** 
 1237              		.loc 1 445 20 view .LVU435
 1238 0096 ADF88630 		strh	r3, [sp, #134]	@ movhi
 447:lvgl/lvgl/src/draw/lv_draw_rect.c ****     if(opa > LV_OPA_MAX) opa = LV_OPA_COVER;
 1239              		.loc 1 447 5 is_stmt 1 view .LVU436
 1240              	.LVL115:
 448:lvgl/lvgl/src/draw/lv_draw_rect.c **** 
 1241              		.loc 1 448 5 view .LVU437
 448:lvgl/lvgl/src/draw/lv_draw_rect.c **** 
 1242              		.loc 1 448 7 is_stmt 0 view .LVU438
 1243 009a FD2F     		cmp	r7, #253
 1244 009c 00D9     		bls	.L84
 448:lvgl/lvgl/src/draw/lv_draw_rect.c **** 
 1245              		.loc 1 448 30 view .LVU439
 1246 009e FF27     		movs	r7, #255
 1247              	.LVL116:
 1248              	.L84:
 452:lvgl/lvgl/src/draw/lv_draw_rect.c ****     if(!_lv_area_intersect(&draw_area, &shadow_area, clip)) return;
 1249              		.loc 1 452 5 is_stmt 1 view .LVU440
 453:lvgl/lvgl/src/draw/lv_draw_rect.c **** 
ARM GAS  C:\Users\gx\AppData\Local\Temp\ccP7i1j8.s 			page 55


 1250              		.loc 1 453 5 view .LVU441
 453:lvgl/lvgl/src/draw/lv_draw_rect.c **** 
 1251              		.loc 1 453 9 is_stmt 0 view .LVU442
 1252 00a0 4A46     		mov	r2, r9
 1253 00a2 20A9     		add	r1, sp, #128
 1254 00a4 1EA8     		add	r0, sp, #120
 1255 00a6 FFF7FEFF 		bl	_lv_area_intersect
 1256              	.LVL117:
 453:lvgl/lvgl/src/draw/lv_draw_rect.c **** 
 1257              		.loc 1 453 7 view .LVU443
 1258 00aa 0590     		str	r0, [sp, #20]
 1259 00ac 50B9     		cbnz	r0, .L186
 1260              	.LVL118:
 1261              	.L81:
 858:lvgl/lvgl/src/draw/lv_draw_rect.c **** 
 1262              		.loc 1 858 1 view .LVU444
 1263 00ae 25B0     		add	sp, sp, #148
 1264              	.LCFI12:
 1265              		.cfi_remember_state
 1266              		.cfi_def_cfa_offset 36
 1267              		@ sp needed
 1268 00b0 BDE8F08F 		pop	{r4, r5, r6, r7, r8, r9, r10, fp, pc}
 1269              	.LVL119:
 1270              	.L185:
 1271              	.LCFI13:
 1272              		.cfi_restore_state
 428:lvgl/lvgl/src/draw/lv_draw_rect.c ****        dsc->shadow_ofs_x == 0 && dsc->shadow_ofs_y == 0) {
 1273              		.loc 1 428 37 discriminator 1 view .LVU445
 1274 00b4 B2F93020 		ldrsh	r2, [r2, #48]
 1275              	.LVL120:
 428:lvgl/lvgl/src/draw/lv_draw_rect.c ****        dsc->shadow_ofs_x == 0 && dsc->shadow_ofs_y == 0) {
 1276              		.loc 1 428 31 discriminator 1 view .LVU446
 1277 00b8 002A     		cmp	r2, #0
 1278 00ba B2DC     		bgt	.L83
 429:lvgl/lvgl/src/draw/lv_draw_rect.c ****         return;
 1279              		.loc 1 429 31 view .LVU447
 1280 00bc EA6A     		ldr	r2, [r5, #44]
 1281 00be 002A     		cmp	r2, #0
 1282 00c0 AFD1     		bne	.L83
 1283 00c2 F4E7     		b	.L81
 1284              	.LVL121:
 1285              	.L186:
 456:lvgl/lvgl/src/draw/lv_draw_rect.c ****     lv_area_copy(&bg_area, coords);
 1286              		.loc 1 456 5 is_stmt 1 view .LVU448
 457:lvgl/lvgl/src/draw/lv_draw_rect.c ****     lv_area_increase(&bg_area, -1, -1);
 1287              		.loc 1 457 5 view .LVU449
 1288              	.LBB164:
 1289              	.LBI164:
 120:lvgl/lvgl/src/draw/../misc/lv_area.h **** {
 1290              		.loc 2 120 20 view .LVU450
 1291              	.LBB165:
 122:lvgl/lvgl/src/draw/../misc/lv_area.h ****     dest->y1 = src->y1;
 1292              		.loc 2 122 5 view .LVU451
 122:lvgl/lvgl/src/draw/../misc/lv_area.h ****     dest->y1 = src->y1;
 1293              		.loc 2 122 19 is_stmt 0 view .LVU452
 1294 00c4 B4F90030 		ldrsh	r3, [r4]
 122:lvgl/lvgl/src/draw/../misc/lv_area.h ****     dest->y1 = src->y1;
ARM GAS  C:\Users\gx\AppData\Local\Temp\ccP7i1j8.s 			page 56


 1295              		.loc 2 122 14 view .LVU453
 1296 00c8 ADF87030 		strh	r3, [sp, #112]	@ movhi
 123:lvgl/lvgl/src/draw/../misc/lv_area.h ****     dest->x2 = src->x2;
 1297              		.loc 2 123 5 is_stmt 1 view .LVU454
 123:lvgl/lvgl/src/draw/../misc/lv_area.h ****     dest->x2 = src->x2;
 1298              		.loc 2 123 19 is_stmt 0 view .LVU455
 1299 00cc B4F90230 		ldrsh	r3, [r4, #2]
 123:lvgl/lvgl/src/draw/../misc/lv_area.h ****     dest->x2 = src->x2;
 1300              		.loc 2 123 14 view .LVU456
 1301 00d0 ADF87230 		strh	r3, [sp, #114]	@ movhi
 124:lvgl/lvgl/src/draw/../misc/lv_area.h ****     dest->y2 = src->y2;
 1302              		.loc 2 124 5 is_stmt 1 view .LVU457
 124:lvgl/lvgl/src/draw/../misc/lv_area.h ****     dest->y2 = src->y2;
 1303              		.loc 2 124 19 is_stmt 0 view .LVU458
 1304 00d4 B4F90430 		ldrsh	r3, [r4, #4]
 124:lvgl/lvgl/src/draw/../misc/lv_area.h ****     dest->y2 = src->y2;
 1305              		.loc 2 124 14 view .LVU459
 1306 00d8 ADF87430 		strh	r3, [sp, #116]	@ movhi
 125:lvgl/lvgl/src/draw/../misc/lv_area.h **** }
 1307              		.loc 2 125 5 is_stmt 1 view .LVU460
 125:lvgl/lvgl/src/draw/../misc/lv_area.h **** }
 1308              		.loc 2 125 19 is_stmt 0 view .LVU461
 1309 00dc B4F90630 		ldrsh	r3, [r4, #6]
 125:lvgl/lvgl/src/draw/../misc/lv_area.h **** }
 1310              		.loc 2 125 14 view .LVU462
 1311 00e0 ADF87630 		strh	r3, [sp, #118]	@ movhi
 1312              	.LVL122:
 125:lvgl/lvgl/src/draw/../misc/lv_area.h **** }
 1313              		.loc 2 125 14 view .LVU463
 1314              	.LBE165:
 1315              	.LBE164:
 458:lvgl/lvgl/src/draw/lv_draw_rect.c **** 
 1316              		.loc 1 458 5 is_stmt 1 view .LVU464
 1317 00e4 4FF0FF32 		mov	r2, #-1
 1318 00e8 1146     		mov	r1, r2
 1319 00ea 1CA8     		add	r0, sp, #112
 1320 00ec FFF7FEFF 		bl	lv_area_increase
 1321              	.LVL123:
 461:lvgl/lvgl/src/draw/lv_draw_rect.c ****     lv_coord_t short_side = LV_MIN(lv_area_get_width(&bg_area), lv_area_get_height(&bg_area));
 1322              		.loc 1 461 5 view .LVU465
 461:lvgl/lvgl/src/draw/lv_draw_rect.c ****     lv_coord_t short_side = LV_MIN(lv_area_get_width(&bg_area), lv_area_get_height(&bg_area));
 1323              		.loc 1 461 23 is_stmt 0 view .LVU466
 1324 00f0 B5F90020 		ldrsh	r2, [r5]
 1325              	.LVL124:
 462:lvgl/lvgl/src/draw/lv_draw_rect.c ****     if(r_bg > short_side >> 1) r_bg = short_side >> 1;
 1326              		.loc 1 462 5 is_stmt 1 view .LVU467
 1327              	.LBB166:
 1328              	.LBI166:
 133:lvgl/lvgl/src/draw/../misc/lv_area.h **** {
 1329              		.loc 2 133 26 view .LVU468
 1330              	.LBB167:
 135:lvgl/lvgl/src/draw/../misc/lv_area.h **** }
 1331              		.loc 2 135 5 view .LVU469
 135:lvgl/lvgl/src/draw/../misc/lv_area.h **** }
 1332              		.loc 2 135 31 is_stmt 0 view .LVU470
 1333 00f4 BDF87410 		ldrh	r1, [sp, #116]
 135:lvgl/lvgl/src/draw/../misc/lv_area.h **** }
ARM GAS  C:\Users\gx\AppData\Local\Temp\ccP7i1j8.s 			page 57


 1334              		.loc 2 135 44 view .LVU471
 1335 00f8 BDF87030 		ldrh	r3, [sp, #112]
 135:lvgl/lvgl/src/draw/../misc/lv_area.h **** }
 1336              		.loc 2 135 36 view .LVU472
 1337 00fc C91A     		subs	r1, r1, r3
 1338 00fe 89B2     		uxth	r1, r1
 135:lvgl/lvgl/src/draw/../misc/lv_area.h **** }
 1339              		.loc 2 135 49 view .LVU473
 1340 0100 0131     		adds	r1, r1, #1
 135:lvgl/lvgl/src/draw/../misc/lv_area.h **** }
 1341              		.loc 2 135 12 view .LVU474
 1342 0102 09B2     		sxth	r1, r1
 1343              	.LVL125:
 135:lvgl/lvgl/src/draw/../misc/lv_area.h **** }
 1344              		.loc 2 135 12 view .LVU475
 1345              	.LBE167:
 1346              	.LBE166:
 1347              	.LBB168:
 1348              	.LBI168:
 143:lvgl/lvgl/src/draw/../misc/lv_area.h **** {
 1349              		.loc 2 143 26 is_stmt 1 view .LVU476
 1350              	.LBB169:
 1351              		.loc 2 145 5 view .LVU477
 1352              		.loc 2 145 31 is_stmt 0 view .LVU478
 1353 0104 BDF87630 		ldrh	r3, [sp, #118]
 1354              		.loc 2 145 44 view .LVU479
 1355 0108 BDF87200 		ldrh	r0, [sp, #114]
 1356              		.loc 2 145 36 view .LVU480
 1357 010c 1B1A     		subs	r3, r3, r0
 1358 010e 9BB2     		uxth	r3, r3
 1359              		.loc 2 145 49 view .LVU481
 1360 0110 0133     		adds	r3, r3, #1
 1361              		.loc 2 145 12 view .LVU482
 1362 0112 1BB2     		sxth	r3, r3
 1363              	.LVL126:
 1364              		.loc 2 145 12 view .LVU483
 1365              	.LBE169:
 1366              	.LBE168:
 462:lvgl/lvgl/src/draw/lv_draw_rect.c ****     if(r_bg > short_side >> 1) r_bg = short_side >> 1;
 1367              		.loc 1 462 16 view .LVU484
 1368 0114 9942     		cmp	r1, r3
 1369 0116 00DA     		bge	.L85
 462:lvgl/lvgl/src/draw/lv_draw_rect.c ****     if(r_bg > short_side >> 1) r_bg = short_side >> 1;
 1370              		.loc 1 462 29 view .LVU485
 1371 0118 0B46     		mov	r3, r1
 1372              	.L85:
 1373              	.LVL127:
 463:lvgl/lvgl/src/draw/lv_draw_rect.c **** 
 1374              		.loc 1 463 5 is_stmt 1 discriminator 4 view .LVU486
 463:lvgl/lvgl/src/draw/lv_draw_rect.c **** 
 1375              		.loc 1 463 26 is_stmt 0 discriminator 4 view .LVU487
 1376 011a 5910     		asrs	r1, r3, #1
 1377 011c 0691     		str	r1, [sp, #24]
 463:lvgl/lvgl/src/draw/lv_draw_rect.c **** 
 1378              		.loc 1 463 7 discriminator 4 view .LVU488
 1379 011e B2EB630F 		cmp	r2, r3, asr #1
 1380 0122 00DC     		bgt	.L86
ARM GAS  C:\Users\gx\AppData\Local\Temp\ccP7i1j8.s 			page 58


 461:lvgl/lvgl/src/draw/lv_draw_rect.c ****     lv_coord_t short_side = LV_MIN(lv_area_get_width(&bg_area), lv_area_get_height(&bg_area));
 1381              		.loc 1 461 13 view .LVU489
 1382 0124 0692     		str	r2, [sp, #24]
 1383              	.L86:
 1384              	.LVL128:
 466:lvgl/lvgl/src/draw/lv_draw_rect.c ****     short_side = LV_MIN(lv_area_get_width(&core_area), lv_area_get_height(&core_area));
 1385              		.loc 1 466 5 is_stmt 1 view .LVU490
 467:lvgl/lvgl/src/draw/lv_draw_rect.c ****     if(r_sh > short_side >> 1) r_sh = short_side >> 1;
 1386              		.loc 1 467 5 view .LVU491
 1387              	.LBB170:
 1388              	.LBI170:
 133:lvgl/lvgl/src/draw/../misc/lv_area.h **** {
 1389              		.loc 2 133 26 view .LVU492
 1390              	.LBB171:
 135:lvgl/lvgl/src/draw/../misc/lv_area.h **** }
 1391              		.loc 2 135 5 view .LVU493
 135:lvgl/lvgl/src/draw/../misc/lv_area.h **** }
 1392              		.loc 2 135 31 is_stmt 0 view .LVU494
 1393 0126 BDF88C10 		ldrh	r1, [sp, #140]
 135:lvgl/lvgl/src/draw/../misc/lv_area.h **** }
 1394              		.loc 2 135 44 view .LVU495
 1395 012a BDF88830 		ldrh	r3, [sp, #136]
 1396              	.LVL129:
 135:lvgl/lvgl/src/draw/../misc/lv_area.h **** }
 1397              		.loc 2 135 36 view .LVU496
 1398 012e C91A     		subs	r1, r1, r3
 1399 0130 89B2     		uxth	r1, r1
 135:lvgl/lvgl/src/draw/../misc/lv_area.h **** }
 1400              		.loc 2 135 49 view .LVU497
 1401 0132 0131     		adds	r1, r1, #1
 135:lvgl/lvgl/src/draw/../misc/lv_area.h **** }
 1402              		.loc 2 135 12 view .LVU498
 1403 0134 09B2     		sxth	r1, r1
 1404              	.LVL130:
 135:lvgl/lvgl/src/draw/../misc/lv_area.h **** }
 1405              		.loc 2 135 12 view .LVU499
 1406              	.LBE171:
 1407              	.LBE170:
 1408              	.LBB172:
 1409              	.LBI172:
 143:lvgl/lvgl/src/draw/../misc/lv_area.h **** {
 1410              		.loc 2 143 26 is_stmt 1 view .LVU500
 1411              	.LBB173:
 1412              		.loc 2 145 5 view .LVU501
 1413              		.loc 2 145 31 is_stmt 0 view .LVU502
 1414 0136 BDF88E30 		ldrh	r3, [sp, #142]
 1415              		.loc 2 145 44 view .LVU503
 1416 013a BDF88A00 		ldrh	r0, [sp, #138]
 1417              		.loc 2 145 36 view .LVU504
 1418 013e 1B1A     		subs	r3, r3, r0
 1419 0140 9BB2     		uxth	r3, r3
 1420              		.loc 2 145 49 view .LVU505
 1421 0142 0133     		adds	r3, r3, #1
 1422              		.loc 2 145 12 view .LVU506
 1423 0144 1BB2     		sxth	r3, r3
 1424              	.LVL131:
 1425              		.loc 2 145 12 view .LVU507
ARM GAS  C:\Users\gx\AppData\Local\Temp\ccP7i1j8.s 			page 59


 1426              	.LBE173:
 1427              	.LBE172:
 467:lvgl/lvgl/src/draw/lv_draw_rect.c ****     if(r_sh > short_side >> 1) r_sh = short_side >> 1;
 1428              		.loc 1 467 16 view .LVU508
 1429 0146 8B42     		cmp	r3, r1
 1430 0148 00DD     		ble	.L87
 467:lvgl/lvgl/src/draw/lv_draw_rect.c ****     if(r_sh > short_side >> 1) r_sh = short_side >> 1;
 1431              		.loc 1 467 18 view .LVU509
 1432 014a 0B46     		mov	r3, r1
 1433              	.L87:
 1434              	.LVL132:
 468:lvgl/lvgl/src/draw/lv_draw_rect.c **** 
 1435              		.loc 1 468 5 is_stmt 1 discriminator 4 view .LVU510
 468:lvgl/lvgl/src/draw/lv_draw_rect.c **** 
 1436              		.loc 1 468 26 is_stmt 0 discriminator 4 view .LVU511
 1437 014c 5E10     		asrs	r6, r3, #1
 468:lvgl/lvgl/src/draw/lv_draw_rect.c **** 
 1438              		.loc 1 468 7 discriminator 4 view .LVU512
 1439 014e B2EB630F 		cmp	r2, r3, asr #1
 1440 0152 00DC     		bgt	.L88
 466:lvgl/lvgl/src/draw/lv_draw_rect.c ****     short_side = LV_MIN(lv_area_get_width(&core_area), lv_area_get_height(&core_area));
 1441              		.loc 1 466 13 view .LVU513
 1442 0154 1646     		mov	r6, r2
 1443              	.L88:
 1444              	.LVL133:
 471:lvgl/lvgl/src/draw/lv_draw_rect.c **** 
 1445              		.loc 1 471 5 is_stmt 1 view .LVU514
 471:lvgl/lvgl/src/draw/lv_draw_rect.c **** 
 1446              		.loc 1 471 30 is_stmt 0 view .LVU515
 1447 0156 B5F92A40 		ldrsh	r4, [r5, #42]
 1448              	.LVL134:
 471:lvgl/lvgl/src/draw/lv_draw_rect.c **** 
 1449              		.loc 1 471 13 view .LVU516
 1450 015a 3444     		add	r4, r4, r6
 1451              	.LVL135:
 473:lvgl/lvgl/src/draw/lv_draw_rect.c **** 
 1452              		.loc 1 473 5 is_stmt 1 view .LVU517
 494:lvgl/lvgl/src/draw/lv_draw_rect.c ****     shadow_draw_corner_buf(&core_area, (uint16_t *)sh_buf, dsc->shadow_width, r_sh);
 1453              		.loc 1 494 5 view .LVU518
 494:lvgl/lvgl/src/draw/lv_draw_rect.c ****     shadow_draw_corner_buf(&core_area, (uint16_t *)sh_buf, dsc->shadow_width, r_sh);
 1454              		.loc 1 494 41 is_stmt 0 view .LVU519
 1455 015c 04FB04F0 		mul	r0, r4, r4
 494:lvgl/lvgl/src/draw/lv_draw_rect.c ****     shadow_draw_corner_buf(&core_area, (uint16_t *)sh_buf, dsc->shadow_width, r_sh);
 1456              		.loc 1 494 14 view .LVU520
 1457 0160 4000     		lsls	r0, r0, #1
 1458 0162 FFF7FEFF 		bl	lv_mem_buf_get
 1459              	.LVL136:
 494:lvgl/lvgl/src/draw/lv_draw_rect.c ****     shadow_draw_corner_buf(&core_area, (uint16_t *)sh_buf, dsc->shadow_width, r_sh);
 1460              		.loc 1 494 14 view .LVU521
 1461 0166 0146     		mov	r1, r0
 1462 0168 0790     		str	r0, [sp, #28]
 1463              	.LVL137:
 495:lvgl/lvgl/src/draw/lv_draw_rect.c **** #endif
 1464              		.loc 1 495 5 is_stmt 1 view .LVU522
 1465 016a 3346     		mov	r3, r6
 1466 016c B5F92A20 		ldrsh	r2, [r5, #42]
 1467 0170 22A8     		add	r0, sp, #136
ARM GAS  C:\Users\gx\AppData\Local\Temp\ccP7i1j8.s 			page 60


 1468              	.LVL138:
 495:lvgl/lvgl/src/draw/lv_draw_rect.c **** #endif
 1469              		.loc 1 495 5 is_stmt 0 view .LVU523
 1470 0172 FFF7FEFF 		bl	shadow_draw_corner_buf
 1471              	.LVL139:
 500:lvgl/lvgl/src/draw/lv_draw_rect.c ****     bool simple = true;
 1472              		.loc 1 500 5 is_stmt 1 view .LVU524
 500:lvgl/lvgl/src/draw/lv_draw_rect.c ****     bool simple = true;
 1473              		.loc 1 500 21 is_stmt 0 view .LVU525
 1474 0176 20A8     		add	r0, sp, #128
 1475 0178 FFF7FEFF 		bl	lv_draw_mask_is_any
 1476              	.LVL140:
 501:lvgl/lvgl/src/draw/lv_draw_rect.c ****     if(mask_any || dsc->bg_opa < LV_OPA_COVER) simple = false;
 1477              		.loc 1 501 5 is_stmt 1 view .LVU526
 502:lvgl/lvgl/src/draw/lv_draw_rect.c **** 
 1478              		.loc 1 502 5 view .LVU527
 502:lvgl/lvgl/src/draw/lv_draw_rect.c **** 
 1479              		.loc 1 502 7 is_stmt 0 view .LVU528
 1480 017c 0990     		str	r0, [sp, #36]
 1481 017e 18B9     		cbnz	r0, .L89
 502:lvgl/lvgl/src/draw/lv_draw_rect.c **** 
 1482              		.loc 1 502 23 discriminator 2 view .LVU529
 1483 0180 AB7A     		ldrb	r3, [r5, #10]	@ zero_extendqisi2
 502:lvgl/lvgl/src/draw/lv_draw_rect.c **** 
 1484              		.loc 1 502 17 discriminator 2 view .LVU530
 1485 0182 FF2B     		cmp	r3, #255
 1486 0184 00F0E680 		beq	.L157
 1487              	.L89:
 502:lvgl/lvgl/src/draw/lv_draw_rect.c **** 
 1488              		.loc 1 502 48 is_stmt 1 view .LVU531
 1489              	.LVL141:
 505:lvgl/lvgl/src/draw/lv_draw_rect.c **** 
 1490              		.loc 1 505 5 view .LVU532
 507:lvgl/lvgl/src/draw/lv_draw_rect.c ****     int16_t mask_rout_id = LV_MASK_ID_INV;
 1491              		.loc 1 507 5 view .LVU533
 508:lvgl/lvgl/src/draw/lv_draw_rect.c ****     if(!simple) {
 1492              		.loc 1 508 5 view .LVU534
 509:lvgl/lvgl/src/draw/lv_draw_rect.c ****         lv_draw_mask_radius_init(&mask_rout_param, &bg_area, r_bg, true);
 1493              		.loc 1 509 5 view .LVU535
 510:lvgl/lvgl/src/draw/lv_draw_rect.c ****         mask_rout_id = lv_draw_mask_add(&mask_rout_param, NULL);
 1494              		.loc 1 510 9 view .LVU536
 1495 0188 0123     		movs	r3, #1
 1496 018a 069A     		ldr	r2, [sp, #24]
 1497 018c 1CA9     		add	r1, sp, #112
 1498 018e 16A8     		add	r0, sp, #88
 1499              	.LVL142:
 510:lvgl/lvgl/src/draw/lv_draw_rect.c ****         mask_rout_id = lv_draw_mask_add(&mask_rout_param, NULL);
 1500              		.loc 1 510 9 is_stmt 0 view .LVU537
 1501 0190 FFF7FEFF 		bl	lv_draw_mask_radius_init
 1502              	.LVL143:
 511:lvgl/lvgl/src/draw/lv_draw_rect.c ****     }
 1503              		.loc 1 511 9 is_stmt 1 view .LVU538
 511:lvgl/lvgl/src/draw/lv_draw_rect.c ****     }
 1504              		.loc 1 511 24 is_stmt 0 view .LVU539
 1505 0194 0021     		movs	r1, #0
 1506 0196 16A8     		add	r0, sp, #88
 1507 0198 FFF7FEFF 		bl	lv_draw_mask_add
ARM GAS  C:\Users\gx\AppData\Local\Temp\ccP7i1j8.s 			page 61


 1508              	.LVL144:
 1509 019c 0C90     		str	r0, [sp, #48]
 1510              	.LVL145:
 502:lvgl/lvgl/src/draw/lv_draw_rect.c **** 
 1511              		.loc 1 502 55 view .LVU540
 1512 019e 0023     		movs	r3, #0
 1513 01a0 0593     		str	r3, [sp, #20]
 1514              	.LVL146:
 1515              	.L90:
 513:lvgl/lvgl/src/draw/lv_draw_rect.c ****     lv_area_t blend_area;
 1516              		.loc 1 513 5 is_stmt 1 view .LVU541
 1517              	.LBB174:
 1518              	.LBI174:
 133:lvgl/lvgl/src/draw/../misc/lv_area.h **** {
 1519              		.loc 2 133 26 view .LVU542
 1520              	.LBB175:
 135:lvgl/lvgl/src/draw/../misc/lv_area.h **** }
 1521              		.loc 2 135 5 view .LVU543
 135:lvgl/lvgl/src/draw/../misc/lv_area.h **** }
 1522              		.loc 2 135 31 is_stmt 0 view .LVU544
 1523 01a2 BDF88400 		ldrh	r0, [sp, #132]
 135:lvgl/lvgl/src/draw/../misc/lv_area.h **** }
 1524              		.loc 2 135 44 view .LVU545
 1525 01a6 BDF88030 		ldrh	r3, [sp, #128]
 135:lvgl/lvgl/src/draw/../misc/lv_area.h **** }
 1526              		.loc 2 135 36 view .LVU546
 1527 01aa C01A     		subs	r0, r0, r3
 1528 01ac 80B2     		uxth	r0, r0
 135:lvgl/lvgl/src/draw/../misc/lv_area.h **** }
 1529              		.loc 2 135 49 view .LVU547
 1530 01ae 0130     		adds	r0, r0, #1
 1531              	.LVL147:
 135:lvgl/lvgl/src/draw/../misc/lv_area.h **** }
 1532              		.loc 2 135 49 view .LVU548
 1533              	.LBE175:
 1534              	.LBE174:
 513:lvgl/lvgl/src/draw/lv_draw_rect.c ****     lv_area_t blend_area;
 1535              		.loc 1 513 27 view .LVU549
 1536 01b0 00B2     		sxth	r0, r0
 1537 01b2 FFF7FEFF 		bl	lv_mem_buf_get
 1538              	.LVL148:
 513:lvgl/lvgl/src/draw/lv_draw_rect.c ****     lv_area_t blend_area;
 1539              		.loc 1 513 16 view .LVU550
 1540 01b6 1590     		str	r0, [sp, #84]
 514:lvgl/lvgl/src/draw/lv_draw_rect.c ****     lv_area_t clip_area_sub;
 1541              		.loc 1 514 5 is_stmt 1 view .LVU551
 515:lvgl/lvgl/src/draw/lv_draw_rect.c ****     lv_opa_t ** mask_act;
 1542              		.loc 1 515 5 view .LVU552
 516:lvgl/lvgl/src/draw/lv_draw_rect.c ****     lv_opa_t * sh_buf_tmp;
 1543              		.loc 1 516 5 view .LVU553
 517:lvgl/lvgl/src/draw/lv_draw_rect.c ****     lv_coord_t y;
 1544              		.loc 1 517 5 view .LVU554
 518:lvgl/lvgl/src/draw/lv_draw_rect.c ****     bool simple_sub;
 1545              		.loc 1 518 5 view .LVU555
 519:lvgl/lvgl/src/draw/lv_draw_rect.c **** 
 1546              		.loc 1 519 5 view .LVU556
 521:lvgl/lvgl/src/draw/lv_draw_rect.c ****     lv_coord_t h_half = shadow_area.y1 + lv_area_get_height(&shadow_area) / 2;
ARM GAS  C:\Users\gx\AppData\Local\Temp\ccP7i1j8.s 			page 62


 1547              		.loc 1 521 5 view .LVU557
 521:lvgl/lvgl/src/draw/lv_draw_rect.c ****     lv_coord_t h_half = shadow_area.y1 + lv_area_get_height(&shadow_area) / 2;
 1548              		.loc 1 521 36 is_stmt 0 view .LVU558
 1549 01b8 BDF88020 		ldrh	r2, [sp, #128]
 1550              	.LVL149:
 1551              	.LBB176:
 1552              	.LBI176:
 133:lvgl/lvgl/src/draw/../misc/lv_area.h **** {
 1553              		.loc 2 133 26 is_stmt 1 view .LVU559
 1554              	.LBB177:
 135:lvgl/lvgl/src/draw/../misc/lv_area.h **** }
 1555              		.loc 2 135 5 view .LVU560
 135:lvgl/lvgl/src/draw/../misc/lv_area.h **** }
 1556              		.loc 2 135 31 is_stmt 0 view .LVU561
 1557 01bc BDF98460 		ldrsh	r6, [sp, #132]
 1558              	.LVL150:
 135:lvgl/lvgl/src/draw/../misc/lv_area.h **** }
 1559              		.loc 2 135 31 view .LVU562
 1560 01c0 B1B2     		uxth	r1, r6
 135:lvgl/lvgl/src/draw/../misc/lv_area.h **** }
 1561              		.loc 2 135 36 view .LVU563
 1562 01c2 8B1A     		subs	r3, r1, r2
 1563 01c4 9BB2     		uxth	r3, r3
 135:lvgl/lvgl/src/draw/../misc/lv_area.h **** }
 1564              		.loc 2 135 49 view .LVU564
 1565 01c6 0133     		adds	r3, r3, #1
 1566              	.LVL151:
 135:lvgl/lvgl/src/draw/../misc/lv_area.h **** }
 1567              		.loc 2 135 49 view .LVU565
 1568              	.LBE177:
 1569              	.LBE176:
 521:lvgl/lvgl/src/draw/lv_draw_rect.c ****     lv_coord_t h_half = shadow_area.y1 + lv_area_get_height(&shadow_area) / 2;
 1570              		.loc 1 521 40 view .LVU566
 1571 01c8 C3F3C030 		ubfx	r0, r3, #15, #1
 1572 01cc 00FA83F3 		sxtah	r3, r0, r3
 1573 01d0 02EB6303 		add	r3, r2, r3, asr #1
 521:lvgl/lvgl/src/draw/lv_draw_rect.c ****     lv_coord_t h_half = shadow_area.y1 + lv_area_get_height(&shadow_area) / 2;
 1574              		.loc 1 521 16 view .LVU567
 1575 01d4 1BB2     		sxth	r3, r3
 1576 01d6 0893     		str	r3, [sp, #32]
 1577              	.LVL152:
 522:lvgl/lvgl/src/draw/lv_draw_rect.c **** 
 1578              		.loc 1 522 5 is_stmt 1 view .LVU568
 522:lvgl/lvgl/src/draw/lv_draw_rect.c **** 
 1579              		.loc 1 522 36 is_stmt 0 view .LVU569
 1580 01d8 BDF98200 		ldrsh	r0, [sp, #130]
 1581 01dc 83B2     		uxth	r3, r0
 1582              	.LVL153:
 1583              	.LBB178:
 1584              	.LBI178:
 143:lvgl/lvgl/src/draw/../misc/lv_area.h **** {
 1585              		.loc 2 143 26 is_stmt 1 view .LVU570
 1586              	.LBB179:
 1587              		.loc 2 145 5 view .LVU571
 1588              		.loc 2 145 31 is_stmt 0 view .LVU572
 1589 01de BDF88620 		ldrh	r2, [sp, #134]
 1590              		.loc 2 145 36 view .LVU573
ARM GAS  C:\Users\gx\AppData\Local\Temp\ccP7i1j8.s 			page 63


 1591 01e2 D21A     		subs	r2, r2, r3
 1592 01e4 92B2     		uxth	r2, r2
 1593              		.loc 2 145 49 view .LVU574
 1594 01e6 0132     		adds	r2, r2, #1
 1595              	.LVL154:
 1596              		.loc 2 145 49 view .LVU575
 1597              	.LBE179:
 1598              	.LBE178:
 522:lvgl/lvgl/src/draw/lv_draw_rect.c **** 
 1599              		.loc 1 522 40 view .LVU576
 1600 01e8 C2F3C03B 		ubfx	fp, r2, #15, #1
 1601 01ec 0BFA82FB 		sxtah	fp, fp, r2
 1602 01f0 03EB6B0B 		add	fp, r3, fp, asr #1
 1603 01f4 1FFA8BF2 		uxth	r2, fp
 1604 01f8 0B92     		str	r2, [sp, #44]
 522:lvgl/lvgl/src/draw/lv_draw_rect.c **** 
 1605              		.loc 1 522 16 view .LVU577
 1606 01fa 0FFA8BFB 		sxth	fp, fp
 1607              	.LVL155:
 527:lvgl/lvgl/src/draw/lv_draw_rect.c ****     blend_area.x1 = shadow_area.x2 - corner_size + 1;
 1608              		.loc 1 527 5 is_stmt 1 view .LVU578
 527:lvgl/lvgl/src/draw/lv_draw_rect.c ****     blend_area.x1 = shadow_area.x2 - corner_size + 1;
 1609              		.loc 1 527 19 is_stmt 0 view .LVU579
 1610 01fe ADF85060 		strh	r6, [sp, #80]	@ movhi
 528:lvgl/lvgl/src/draw/lv_draw_rect.c ****     blend_area.y1 = shadow_area.y1;
 1611              		.loc 1 528 5 is_stmt 1 view .LVU580
 528:lvgl/lvgl/src/draw/lv_draw_rect.c ****     blend_area.y1 = shadow_area.y1;
 1612              		.loc 1 528 36 is_stmt 0 view .LVU581
 1613 0202 A6B2     		uxth	r6, r4
 1614 0204 8A1B     		subs	r2, r1, r6
 1615 0206 92B2     		uxth	r2, r2
 528:lvgl/lvgl/src/draw/lv_draw_rect.c ****     blend_area.y1 = shadow_area.y1;
 1616              		.loc 1 528 50 view .LVU582
 1617 0208 0132     		adds	r2, r2, #1
 1618 020a 12B2     		sxth	r2, r2
 529:lvgl/lvgl/src/draw/lv_draw_rect.c ****     blend_area.y2 = shadow_area.y1 + corner_size - 1;
 1619              		.loc 1 529 5 is_stmt 1 view .LVU583
 529:lvgl/lvgl/src/draw/lv_draw_rect.c ****     blend_area.y2 = shadow_area.y1 + corner_size - 1;
 1620              		.loc 1 529 19 is_stmt 0 view .LVU584
 1621 020c ADF84E00 		strh	r0, [sp, #78]	@ movhi
 530:lvgl/lvgl/src/draw/lv_draw_rect.c ****     /*Do not overdraw the top other corners*/
 1622              		.loc 1 530 5 is_stmt 1 view .LVU585
 530:lvgl/lvgl/src/draw/lv_draw_rect.c ****     /*Do not overdraw the top other corners*/
 1623              		.loc 1 530 36 is_stmt 0 view .LVU586
 1624 0210 3344     		add	r3, r3, r6
 1625 0212 9BB2     		uxth	r3, r3
 530:lvgl/lvgl/src/draw/lv_draw_rect.c ****     /*Do not overdraw the top other corners*/
 1626              		.loc 1 530 50 view .LVU587
 1627 0214 013B     		subs	r3, r3, #1
 1628 0216 1BB2     		sxth	r3, r3
 532:lvgl/lvgl/src/draw/lv_draw_rect.c ****     blend_area.y2 = LV_MIN(blend_area.y2, h_half);
 1629              		.loc 1 532 5 is_stmt 1 view .LVU588
 532:lvgl/lvgl/src/draw/lv_draw_rect.c ****     blend_area.y2 = LV_MIN(blend_area.y2, h_half);
 1630              		.loc 1 532 21 is_stmt 0 view .LVU589
 1631 0218 0899     		ldr	r1, [sp, #32]
 1632 021a 8A42     		cmp	r2, r1
 1633 021c B8BF     		it	lt
ARM GAS  C:\Users\gx\AppData\Local\Temp\ccP7i1j8.s 			page 64


 1634 021e 0A46     		movlt	r2, r1
 532:lvgl/lvgl/src/draw/lv_draw_rect.c ****     blend_area.y2 = LV_MIN(blend_area.y2, h_half);
 1635              		.loc 1 532 19 view .LVU590
 1636 0220 ADF84C20 		strh	r2, [sp, #76]	@ movhi
 533:lvgl/lvgl/src/draw/lv_draw_rect.c **** 
 1637              		.loc 1 533 5 is_stmt 1 view .LVU591
 533:lvgl/lvgl/src/draw/lv_draw_rect.c **** 
 1638              		.loc 1 533 21 is_stmt 0 view .LVU592
 1639 0224 5B45     		cmp	r3, fp
 1640 0226 A8BF     		it	ge
 1641 0228 5B46     		movge	r3, fp
 533:lvgl/lvgl/src/draw/lv_draw_rect.c **** 
 1642              		.loc 1 533 19 view .LVU593
 1643 022a ADF85230 		strh	r3, [sp, #82]	@ movhi
 535:lvgl/lvgl/src/draw/lv_draw_rect.c ****         lv_coord_t w = lv_area_get_width(&clip_area_sub);
 1644              		.loc 1 535 5 is_stmt 1 view .LVU594
 535:lvgl/lvgl/src/draw/lv_draw_rect.c ****         lv_coord_t w = lv_area_get_width(&clip_area_sub);
 1645              		.loc 1 535 8 is_stmt 0 view .LVU595
 1646 022e 4A46     		mov	r2, r9
 1647 0230 13A9     		add	r1, sp, #76
 1648 0232 11A8     		add	r0, sp, #68
 1649 0234 FFF7FEFF 		bl	_lv_area_intersect
 1650              	.LVL156:
 535:lvgl/lvgl/src/draw/lv_draw_rect.c ****         lv_coord_t w = lv_area_get_width(&clip_area_sub);
 1651              		.loc 1 535 7 view .LVU596
 1652 0238 0028     		cmp	r0, #0
 1653 023a 40F08F80 		bne	.L187
 1654              	.LVL157:
 1655              	.L91:
 564:lvgl/lvgl/src/draw/lv_draw_rect.c ****     blend_area.x1 = shadow_area.x2 - corner_size + 1;
 1656              		.loc 1 564 5 is_stmt 1 view .LVU597
 564:lvgl/lvgl/src/draw/lv_draw_rect.c ****     blend_area.x1 = shadow_area.x2 - corner_size + 1;
 1657              		.loc 1 564 32 is_stmt 0 view .LVU598
 1658 023e BDF98430 		ldrsh	r3, [sp, #132]
 564:lvgl/lvgl/src/draw/lv_draw_rect.c ****     blend_area.x1 = shadow_area.x2 - corner_size + 1;
 1659              		.loc 1 564 19 view .LVU599
 1660 0242 ADF85030 		strh	r3, [sp, #80]	@ movhi
 565:lvgl/lvgl/src/draw/lv_draw_rect.c ****     blend_area.y1 = shadow_area.y2 - corner_size + 1;
 1661              		.loc 1 565 5 is_stmt 1 view .LVU600
 565:lvgl/lvgl/src/draw/lv_draw_rect.c ****     blend_area.y1 = shadow_area.y2 - corner_size + 1;
 1662              		.loc 1 565 32 is_stmt 0 view .LVU601
 1663 0246 9BB2     		uxth	r3, r3
 565:lvgl/lvgl/src/draw/lv_draw_rect.c ****     blend_area.y1 = shadow_area.y2 - corner_size + 1;
 1664              		.loc 1 565 36 view .LVU602
 1665 0248 9B1B     		subs	r3, r3, r6
 1666 024a 9BB2     		uxth	r3, r3
 565:lvgl/lvgl/src/draw/lv_draw_rect.c ****     blend_area.y1 = shadow_area.y2 - corner_size + 1;
 1667              		.loc 1 565 50 view .LVU603
 1668 024c 0133     		adds	r3, r3, #1
 1669 024e 1BB2     		sxth	r3, r3
 566:lvgl/lvgl/src/draw/lv_draw_rect.c ****     blend_area.y2 = shadow_area.y2;
 1670              		.loc 1 566 5 is_stmt 1 view .LVU604
 566:lvgl/lvgl/src/draw/lv_draw_rect.c ****     blend_area.y2 = shadow_area.y2;
 1671              		.loc 1 566 32 is_stmt 0 view .LVU605
 1672 0250 BDF98610 		ldrsh	r1, [sp, #134]
 1673 0254 8AB2     		uxth	r2, r1
 566:lvgl/lvgl/src/draw/lv_draw_rect.c ****     blend_area.y2 = shadow_area.y2;
ARM GAS  C:\Users\gx\AppData\Local\Temp\ccP7i1j8.s 			page 65


 1674              		.loc 1 566 36 view .LVU606
 1675 0256 921B     		subs	r2, r2, r6
 1676 0258 92B2     		uxth	r2, r2
 566:lvgl/lvgl/src/draw/lv_draw_rect.c ****     blend_area.y2 = shadow_area.y2;
 1677              		.loc 1 566 50 view .LVU607
 1678 025a 0132     		adds	r2, r2, #1
 1679 025c 12B2     		sxth	r2, r2
 567:lvgl/lvgl/src/draw/lv_draw_rect.c ****     /*Do not overdraw the other corners*/
 1680              		.loc 1 567 5 is_stmt 1 view .LVU608
 567:lvgl/lvgl/src/draw/lv_draw_rect.c ****     /*Do not overdraw the other corners*/
 1681              		.loc 1 567 19 is_stmt 0 view .LVU609
 1682 025e ADF85210 		strh	r1, [sp, #82]	@ movhi
 569:lvgl/lvgl/src/draw/lv_draw_rect.c ****     blend_area.y1 = LV_MAX(blend_area.y1, h_half + 1);
 1683              		.loc 1 569 5 is_stmt 1 view .LVU610
 569:lvgl/lvgl/src/draw/lv_draw_rect.c ****     blend_area.y1 = LV_MAX(blend_area.y1, h_half + 1);
 1684              		.loc 1 569 21 is_stmt 0 view .LVU611
 1685 0262 0899     		ldr	r1, [sp, #32]
 1686 0264 8B42     		cmp	r3, r1
 1687 0266 B8BF     		it	lt
 1688 0268 0B46     		movlt	r3, r1
 569:lvgl/lvgl/src/draw/lv_draw_rect.c ****     blend_area.y1 = LV_MAX(blend_area.y1, h_half + 1);
 1689              		.loc 1 569 19 view .LVU612
 1690 026a ADF84C30 		strh	r3, [sp, #76]	@ movhi
 570:lvgl/lvgl/src/draw/lv_draw_rect.c **** 
 1691              		.loc 1 570 5 is_stmt 1 view .LVU613
 570:lvgl/lvgl/src/draw/lv_draw_rect.c **** 
 1692              		.loc 1 570 21 is_stmt 0 view .LVU614
 1693 026e 0BF10103 		add	r3, fp, #1
 1694 0272 0A93     		str	r3, [sp, #40]
 1695 0274 9342     		cmp	r3, r2
 1696 0276 B8BF     		it	lt
 1697 0278 1346     		movlt	r3, r2
 570:lvgl/lvgl/src/draw/lv_draw_rect.c **** 
 1698              		.loc 1 570 19 view .LVU615
 1699 027a ADF84E30 		strh	r3, [sp, #78]	@ movhi
 572:lvgl/lvgl/src/draw/lv_draw_rect.c ****         lv_coord_t w = lv_area_get_width(&clip_area_sub);
 1700              		.loc 1 572 5 is_stmt 1 view .LVU616
 572:lvgl/lvgl/src/draw/lv_draw_rect.c ****         lv_coord_t w = lv_area_get_width(&clip_area_sub);
 1701              		.loc 1 572 8 is_stmt 0 view .LVU617
 1702 027e 4A46     		mov	r2, r9
 1703 0280 13A9     		add	r1, sp, #76
 1704 0282 11A8     		add	r0, sp, #68
 1705 0284 FFF7FEFF 		bl	_lv_area_intersect
 1706              	.LVL158:
 572:lvgl/lvgl/src/draw/lv_draw_rect.c ****         lv_coord_t w = lv_area_get_width(&clip_area_sub);
 1707              		.loc 1 572 7 view .LVU618
 1708 0288 0028     		cmp	r0, #0
 1709 028a 40F0DF80 		bne	.L188
 1710              	.L97:
 600:lvgl/lvgl/src/draw/lv_draw_rect.c ****     blend_area.x2 = shadow_area.x2 - corner_size;
 1711              		.loc 1 600 5 is_stmt 1 view .LVU619
 600:lvgl/lvgl/src/draw/lv_draw_rect.c ****     blend_area.x2 = shadow_area.x2 - corner_size;
 1712              		.loc 1 600 32 is_stmt 0 view .LVU620
 1713 028e BDF88030 		ldrh	r3, [sp, #128]
 600:lvgl/lvgl/src/draw/lv_draw_rect.c ****     blend_area.x2 = shadow_area.x2 - corner_size;
 1714              		.loc 1 600 36 view .LVU621
 1715 0292 3344     		add	r3, r3, r6
ARM GAS  C:\Users\gx\AppData\Local\Temp\ccP7i1j8.s 			page 66


 600:lvgl/lvgl/src/draw/lv_draw_rect.c ****     blend_area.x2 = shadow_area.x2 - corner_size;
 1716              		.loc 1 600 19 view .LVU622
 1717 0294 ADF84C30 		strh	r3, [sp, #76]	@ movhi
 601:lvgl/lvgl/src/draw/lv_draw_rect.c ****     blend_area.y1 = shadow_area.y1;
 1718              		.loc 1 601 5 is_stmt 1 view .LVU623
 601:lvgl/lvgl/src/draw/lv_draw_rect.c ****     blend_area.y1 = shadow_area.y1;
 1719              		.loc 1 601 32 is_stmt 0 view .LVU624
 1720 0298 BDF88430 		ldrh	r3, [sp, #132]
 601:lvgl/lvgl/src/draw/lv_draw_rect.c ****     blend_area.y1 = shadow_area.y1;
 1721              		.loc 1 601 36 view .LVU625
 1722 029c 9B1B     		subs	r3, r3, r6
 601:lvgl/lvgl/src/draw/lv_draw_rect.c ****     blend_area.y1 = shadow_area.y1;
 1723              		.loc 1 601 19 view .LVU626
 1724 029e ADF85030 		strh	r3, [sp, #80]	@ movhi
 602:lvgl/lvgl/src/draw/lv_draw_rect.c ****     blend_area.y2 = shadow_area.y1 + corner_size - 1;
 1725              		.loc 1 602 5 is_stmt 1 view .LVU627
 602:lvgl/lvgl/src/draw/lv_draw_rect.c ****     blend_area.y2 = shadow_area.y1 + corner_size - 1;
 1726              		.loc 1 602 32 is_stmt 0 view .LVU628
 1727 02a2 BDF98230 		ldrsh	r3, [sp, #130]
 602:lvgl/lvgl/src/draw/lv_draw_rect.c ****     blend_area.y2 = shadow_area.y1 + corner_size - 1;
 1728              		.loc 1 602 19 view .LVU629
 1729 02a6 ADF84E30 		strh	r3, [sp, #78]	@ movhi
 603:lvgl/lvgl/src/draw/lv_draw_rect.c **** 
 1730              		.loc 1 603 5 is_stmt 1 view .LVU630
 603:lvgl/lvgl/src/draw/lv_draw_rect.c **** 
 1731              		.loc 1 603 36 is_stmt 0 view .LVU631
 1732 02aa 16FA83F3 		uxtah	r3, r6, r3
 1733 02ae 9BB2     		uxth	r3, r3
 603:lvgl/lvgl/src/draw/lv_draw_rect.c **** 
 1734              		.loc 1 603 50 view .LVU632
 1735 02b0 013B     		subs	r3, r3, #1
 603:lvgl/lvgl/src/draw/lv_draw_rect.c **** 
 1736              		.loc 1 603 19 view .LVU633
 1737 02b2 ADF85230 		strh	r3, [sp, #82]	@ movhi
 605:lvgl/lvgl/src/draw/lv_draw_rect.c ****         lv_coord_t w = lv_area_get_width(&clip_area_sub);
 1738              		.loc 1 605 5 is_stmt 1 view .LVU634
 605:lvgl/lvgl/src/draw/lv_draw_rect.c ****         lv_coord_t w = lv_area_get_width(&clip_area_sub);
 1739              		.loc 1 605 8 is_stmt 0 view .LVU635
 1740 02b6 4A46     		mov	r2, r9
 1741 02b8 13A9     		add	r1, sp, #76
 1742 02ba 11A8     		add	r0, sp, #68
 1743 02bc FFF7FEFF 		bl	_lv_area_intersect
 1744              	.LVL159:
 605:lvgl/lvgl/src/draw/lv_draw_rect.c ****         lv_coord_t w = lv_area_get_width(&clip_area_sub);
 1745              		.loc 1 605 7 view .LVU636
 1746 02c0 0028     		cmp	r0, #0
 1747 02c2 40F03B81 		bne	.L189
 1748              	.L103:
 635:lvgl/lvgl/src/draw/lv_draw_rect.c ****     blend_area.x2 = shadow_area.x2 - corner_size;
 1749              		.loc 1 635 5 is_stmt 1 view .LVU637
 635:lvgl/lvgl/src/draw/lv_draw_rect.c ****     blend_area.x2 = shadow_area.x2 - corner_size;
 1750              		.loc 1 635 32 is_stmt 0 view .LVU638
 1751 02c6 BDF88030 		ldrh	r3, [sp, #128]
 635:lvgl/lvgl/src/draw/lv_draw_rect.c ****     blend_area.x2 = shadow_area.x2 - corner_size;
 1752              		.loc 1 635 36 view .LVU639
 1753 02ca 3344     		add	r3, r3, r6
 635:lvgl/lvgl/src/draw/lv_draw_rect.c ****     blend_area.x2 = shadow_area.x2 - corner_size;
ARM GAS  C:\Users\gx\AppData\Local\Temp\ccP7i1j8.s 			page 67


 1754              		.loc 1 635 19 view .LVU640
 1755 02cc ADF84C30 		strh	r3, [sp, #76]	@ movhi
 636:lvgl/lvgl/src/draw/lv_draw_rect.c ****     blend_area.y1 = shadow_area.y2 - corner_size + 1;
 1756              		.loc 1 636 5 is_stmt 1 view .LVU641
 636:lvgl/lvgl/src/draw/lv_draw_rect.c ****     blend_area.y1 = shadow_area.y2 - corner_size + 1;
 1757              		.loc 1 636 32 is_stmt 0 view .LVU642
 1758 02d0 BDF88430 		ldrh	r3, [sp, #132]
 636:lvgl/lvgl/src/draw/lv_draw_rect.c ****     blend_area.y1 = shadow_area.y2 - corner_size + 1;
 1759              		.loc 1 636 36 view .LVU643
 1760 02d4 9B1B     		subs	r3, r3, r6
 636:lvgl/lvgl/src/draw/lv_draw_rect.c ****     blend_area.y1 = shadow_area.y2 - corner_size + 1;
 1761              		.loc 1 636 19 view .LVU644
 1762 02d6 ADF85030 		strh	r3, [sp, #80]	@ movhi
 637:lvgl/lvgl/src/draw/lv_draw_rect.c ****     blend_area.y2 = shadow_area.y2;
 1763              		.loc 1 637 5 is_stmt 1 view .LVU645
 637:lvgl/lvgl/src/draw/lv_draw_rect.c ****     blend_area.y2 = shadow_area.y2;
 1764              		.loc 1 637 32 is_stmt 0 view .LVU646
 1765 02da BDF98620 		ldrsh	r2, [sp, #134]
 1766 02de 93B2     		uxth	r3, r2
 637:lvgl/lvgl/src/draw/lv_draw_rect.c ****     blend_area.y2 = shadow_area.y2;
 1767              		.loc 1 637 36 view .LVU647
 1768 02e0 9B1B     		subs	r3, r3, r6
 1769 02e2 9BB2     		uxth	r3, r3
 637:lvgl/lvgl/src/draw/lv_draw_rect.c ****     blend_area.y2 = shadow_area.y2;
 1770              		.loc 1 637 50 view .LVU648
 1771 02e4 0133     		adds	r3, r3, #1
 637:lvgl/lvgl/src/draw/lv_draw_rect.c ****     blend_area.y2 = shadow_area.y2;
 1772              		.loc 1 637 19 view .LVU649
 1773 02e6 ADF84E30 		strh	r3, [sp, #78]	@ movhi
 638:lvgl/lvgl/src/draw/lv_draw_rect.c **** 
 1774              		.loc 1 638 5 is_stmt 1 view .LVU650
 638:lvgl/lvgl/src/draw/lv_draw_rect.c **** 
 1775              		.loc 1 638 19 is_stmt 0 view .LVU651
 1776 02ea ADF85220 		strh	r2, [sp, #82]	@ movhi
 640:lvgl/lvgl/src/draw/lv_draw_rect.c ****         lv_coord_t w = lv_area_get_width(&clip_area_sub);
 1777              		.loc 1 640 5 is_stmt 1 view .LVU652
 640:lvgl/lvgl/src/draw/lv_draw_rect.c ****         lv_coord_t w = lv_area_get_width(&clip_area_sub);
 1778              		.loc 1 640 8 is_stmt 0 view .LVU653
 1779 02ee 4A46     		mov	r2, r9
 1780 02f0 13A9     		add	r1, sp, #76
 1781 02f2 11A8     		add	r0, sp, #68
 1782 02f4 FFF7FEFF 		bl	_lv_area_intersect
 1783              	.LVL160:
 640:lvgl/lvgl/src/draw/lv_draw_rect.c ****         lv_coord_t w = lv_area_get_width(&clip_area_sub);
 1784              		.loc 1 640 7 view .LVU654
 1785 02f8 0028     		cmp	r0, #0
 1786 02fa 40F09C81 		bne	.L190
 1787              	.LVL161:
 1788              	.L112:
 670:lvgl/lvgl/src/draw/lv_draw_rect.c ****     blend_area.x2 = shadow_area.x2;
 1789              		.loc 1 670 5 is_stmt 1 view .LVU655
 670:lvgl/lvgl/src/draw/lv_draw_rect.c ****     blend_area.x2 = shadow_area.x2;
 1790              		.loc 1 670 32 is_stmt 0 view .LVU656
 1791 02fe BDF98420 		ldrsh	r2, [sp, #132]
 1792 0302 93B2     		uxth	r3, r2
 670:lvgl/lvgl/src/draw/lv_draw_rect.c ****     blend_area.x2 = shadow_area.x2;
 1793              		.loc 1 670 36 view .LVU657
ARM GAS  C:\Users\gx\AppData\Local\Temp\ccP7i1j8.s 			page 68


 1794 0304 9B1B     		subs	r3, r3, r6
 1795 0306 9BB2     		uxth	r3, r3
 670:lvgl/lvgl/src/draw/lv_draw_rect.c ****     blend_area.x2 = shadow_area.x2;
 1796              		.loc 1 670 50 view .LVU658
 1797 0308 0133     		adds	r3, r3, #1
 670:lvgl/lvgl/src/draw/lv_draw_rect.c ****     blend_area.x2 = shadow_area.x2;
 1798              		.loc 1 670 19 view .LVU659
 1799 030a ADF84C30 		strh	r3, [sp, #76]	@ movhi
 671:lvgl/lvgl/src/draw/lv_draw_rect.c ****     blend_area.y1 = shadow_area.y1 + corner_size;
 1800              		.loc 1 671 5 is_stmt 1 view .LVU660
 671:lvgl/lvgl/src/draw/lv_draw_rect.c ****     blend_area.y1 = shadow_area.y1 + corner_size;
 1801              		.loc 1 671 19 is_stmt 0 view .LVU661
 1802 030e ADF85020 		strh	r2, [sp, #80]	@ movhi
 672:lvgl/lvgl/src/draw/lv_draw_rect.c ****     blend_area.y2 = shadow_area.y2 - corner_size;
 1803              		.loc 1 672 5 is_stmt 1 view .LVU662
 672:lvgl/lvgl/src/draw/lv_draw_rect.c ****     blend_area.y2 = shadow_area.y2 - corner_size;
 1804              		.loc 1 672 32 is_stmt 0 view .LVU663
 1805 0312 BDF88230 		ldrh	r3, [sp, #130]
 672:lvgl/lvgl/src/draw/lv_draw_rect.c ****     blend_area.y2 = shadow_area.y2 - corner_size;
 1806              		.loc 1 672 36 view .LVU664
 1807 0316 3344     		add	r3, r3, r6
 1808 0318 1BB2     		sxth	r3, r3
 673:lvgl/lvgl/src/draw/lv_draw_rect.c ****     /*Do not overdraw the other corners*/
 1809              		.loc 1 673 5 is_stmt 1 view .LVU665
 673:lvgl/lvgl/src/draw/lv_draw_rect.c ****     /*Do not overdraw the other corners*/
 1810              		.loc 1 673 32 is_stmt 0 view .LVU666
 1811 031a BDF88620 		ldrh	r2, [sp, #134]
 673:lvgl/lvgl/src/draw/lv_draw_rect.c ****     /*Do not overdraw the other corners*/
 1812              		.loc 1 673 36 view .LVU667
 1813 031e 921B     		subs	r2, r2, r6
 1814 0320 12B2     		sxth	r2, r2
 675:lvgl/lvgl/src/draw/lv_draw_rect.c ****     blend_area.y2 = LV_MAX(blend_area.y2, h_half);
 1815              		.loc 1 675 5 is_stmt 1 view .LVU668
 675:lvgl/lvgl/src/draw/lv_draw_rect.c ****     blend_area.y2 = LV_MAX(blend_area.y2, h_half);
 1816              		.loc 1 675 19 is_stmt 0 view .LVU669
 1817 0322 5B45     		cmp	r3, fp
 1818 0324 02DD     		ble	.L121
 675:lvgl/lvgl/src/draw/lv_draw_rect.c ****     blend_area.y2 = LV_MAX(blend_area.y2, h_half);
 1819              		.loc 1 675 21 discriminator 2 view .LVU670
 1820 0326 0B9B     		ldr	r3, [sp, #44]
 1821 0328 0133     		adds	r3, r3, #1
 675:lvgl/lvgl/src/draw/lv_draw_rect.c ****     blend_area.y2 = LV_MAX(blend_area.y2, h_half);
 1822              		.loc 1 675 19 discriminator 2 view .LVU671
 1823 032a 1BB2     		sxth	r3, r3
 1824              	.L121:
 675:lvgl/lvgl/src/draw/lv_draw_rect.c ****     blend_area.y2 = LV_MAX(blend_area.y2, h_half);
 1825              		.loc 1 675 19 discriminator 4 view .LVU672
 1826 032c ADF84E30 		strh	r3, [sp, #78]	@ movhi
 676:lvgl/lvgl/src/draw/lv_draw_rect.c **** 
 1827              		.loc 1 676 5 is_stmt 1 discriminator 4 view .LVU673
 676:lvgl/lvgl/src/draw/lv_draw_rect.c **** 
 1828              		.loc 1 676 21 is_stmt 0 discriminator 4 view .LVU674
 1829 0330 1346     		mov	r3, r2
 1830 0332 5A45     		cmp	r2, fp
 1831 0334 B8BF     		it	lt
 1832 0336 5B46     		movlt	r3, fp
 676:lvgl/lvgl/src/draw/lv_draw_rect.c **** 
ARM GAS  C:\Users\gx\AppData\Local\Temp\ccP7i1j8.s 			page 69


 1833              		.loc 1 676 19 discriminator 4 view .LVU675
 1834 0338 ADF85230 		strh	r3, [sp, #82]	@ movhi
 678:lvgl/lvgl/src/draw/lv_draw_rect.c ****         lv_coord_t w = lv_area_get_width(&clip_area_sub);
 1835              		.loc 1 678 5 is_stmt 1 discriminator 4 view .LVU676
 678:lvgl/lvgl/src/draw/lv_draw_rect.c ****         lv_coord_t w = lv_area_get_width(&clip_area_sub);
 1836              		.loc 1 678 8 is_stmt 0 discriminator 4 view .LVU677
 1837 033c 4A46     		mov	r2, r9
 1838 033e 13A9     		add	r1, sp, #76
 1839 0340 11A8     		add	r0, sp, #68
 1840 0342 FFF7FEFF 		bl	_lv_area_intersect
 1841              	.LVL162:
 678:lvgl/lvgl/src/draw/lv_draw_rect.c ****         lv_coord_t w = lv_area_get_width(&clip_area_sub);
 1842              		.loc 1 678 7 discriminator 4 view .LVU678
 1843 0346 0028     		cmp	r0, #0
 1844 0348 40F0F681 		bne	.L191
 1845              	.LVL163:
 1846              	.L122:
 706:lvgl/lvgl/src/draw/lv_draw_rect.c ****     for(y = 0; y < corner_size; y++) {
 1847              		.loc 1 706 5 is_stmt 1 view .LVU679
 706:lvgl/lvgl/src/draw/lv_draw_rect.c ****     for(y = 0; y < corner_size; y++) {
 1848              		.loc 1 706 16 is_stmt 0 view .LVU680
 1849 034c 079B     		ldr	r3, [sp, #28]
 1850 034e 1093     		str	r3, [sp, #64]
 707:lvgl/lvgl/src/draw/lv_draw_rect.c ****         int32_t x;
 1851              		.loc 1 707 5 is_stmt 1 view .LVU681
 1852              	.LVL164:
 707:lvgl/lvgl/src/draw/lv_draw_rect.c ****         int32_t x;
 1853              		.loc 1 707 11 is_stmt 0 view .LVU682
 1854 0350 0027     		movs	r7, #0
 707:lvgl/lvgl/src/draw/lv_draw_rect.c ****         int32_t x;
 1855              		.loc 1 707 5 view .LVU683
 1856 0352 72E2     		b	.L128
 1857              	.LVL165:
 1858              	.L157:
 508:lvgl/lvgl/src/draw/lv_draw_rect.c ****     if(!simple) {
 1859              		.loc 1 508 13 view .LVU684
 1860 0354 4FF0FF33 		mov	r3, #-1
 1861 0358 0C93     		str	r3, [sp, #48]
 1862 035a 22E7     		b	.L90
 1863              	.LVL166:
 1864              	.L187:
 535:lvgl/lvgl/src/draw/lv_draw_rect.c ****         lv_coord_t w = lv_area_get_width(&clip_area_sub);
 1865              		.loc 1 535 66 discriminator 1 view .LVU685
 1866 035c BDF91880 		ldrsh	r8, [sp, #24]
 1867 0360 4246     		mov	r2, r8
 1868 0362 1CA9     		add	r1, sp, #112
 1869 0364 11A8     		add	r0, sp, #68
 1870 0366 FFF7FEFF 		bl	_lv_area_is_in
 1871              	.LVL167:
 535:lvgl/lvgl/src/draw/lv_draw_rect.c ****         lv_coord_t w = lv_area_get_width(&clip_area_sub);
 1872              		.loc 1 535 62 discriminator 1 view .LVU686
 1873 036a 0028     		cmp	r0, #0
 1874 036c 7FF467AF 		bne	.L91
 1875              	.LBB180:
 536:lvgl/lvgl/src/draw/lv_draw_rect.c ****         sh_buf_tmp = sh_buf;
 1876              		.loc 1 536 9 is_stmt 1 view .LVU687
 1877              	.LVL168:
ARM GAS  C:\Users\gx\AppData\Local\Temp\ccP7i1j8.s 			page 70


 1878              	.LBB181:
 1879              	.LBI181:
 133:lvgl/lvgl/src/draw/../misc/lv_area.h **** {
 1880              		.loc 2 133 26 view .LVU688
 1881              	.LBB182:
 135:lvgl/lvgl/src/draw/../misc/lv_area.h **** }
 1882              		.loc 2 135 5 view .LVU689
 135:lvgl/lvgl/src/draw/../misc/lv_area.h **** }
 1883              		.loc 2 135 31 is_stmt 0 view .LVU690
 1884 0370 BDF84830 		ldrh	r3, [sp, #72]
 135:lvgl/lvgl/src/draw/../misc/lv_area.h **** }
 1885              		.loc 2 135 44 view .LVU691
 1886 0374 BDF94420 		ldrsh	r2, [sp, #68]
 1887 0378 91B2     		uxth	r1, r2
 135:lvgl/lvgl/src/draw/../misc/lv_area.h **** }
 1888              		.loc 2 135 36 view .LVU692
 1889 037a 5B1A     		subs	r3, r3, r1
 1890 037c 9BB2     		uxth	r3, r3
 135:lvgl/lvgl/src/draw/../misc/lv_area.h **** }
 1891              		.loc 2 135 49 view .LVU693
 1892 037e 0133     		adds	r3, r3, #1
 135:lvgl/lvgl/src/draw/../misc/lv_area.h **** }
 1893              		.loc 2 135 12 view .LVU694
 1894 0380 1BB2     		sxth	r3, r3
 1895 0382 0A93     		str	r3, [sp, #40]
 1896              	.LVL169:
 135:lvgl/lvgl/src/draw/../misc/lv_area.h **** }
 1897              		.loc 2 135 12 view .LVU695
 1898              	.LBE182:
 1899              	.LBE181:
 537:lvgl/lvgl/src/draw/lv_draw_rect.c ****         sh_buf_tmp += (clip_area_sub.y1 - shadow_area.y1) * corner_size;
 1900              		.loc 1 537 9 is_stmt 1 view .LVU696
 538:lvgl/lvgl/src/draw/lv_draw_rect.c ****         sh_buf_tmp += clip_area_sub.x1 - (shadow_area.x2 - corner_size + 1);
 1901              		.loc 1 538 9 view .LVU697
 538:lvgl/lvgl/src/draw/lv_draw_rect.c ****         sh_buf_tmp += clip_area_sub.x1 - (shadow_area.x2 - corner_size + 1);
 1902              		.loc 1 538 37 is_stmt 0 view .LVU698
 1903 0384 BDF94630 		ldrsh	r3, [sp, #70]
 538:lvgl/lvgl/src/draw/lv_draw_rect.c ****         sh_buf_tmp += clip_area_sub.x1 - (shadow_area.x2 - corner_size + 1);
 1904              		.loc 1 538 54 view .LVU699
 1905 0388 BDF98210 		ldrsh	r1, [sp, #130]
 538:lvgl/lvgl/src/draw/lv_draw_rect.c ****         sh_buf_tmp += clip_area_sub.x1 - (shadow_area.x2 - corner_size + 1);
 1906              		.loc 1 538 41 view .LVU700
 1907 038c 5B1A     		subs	r3, r3, r1
 538:lvgl/lvgl/src/draw/lv_draw_rect.c ****         sh_buf_tmp += clip_area_sub.x1 - (shadow_area.x2 - corner_size + 1);
 1908              		.loc 1 538 20 view .LVU701
 1909 038e 0799     		ldr	r1, [sp, #28]
 1910 0390 04FB0313 		mla	r3, r4, r3, r1
 539:lvgl/lvgl/src/draw/lv_draw_rect.c **** 
 1911              		.loc 1 539 9 is_stmt 1 view .LVU702
 539:lvgl/lvgl/src/draw/lv_draw_rect.c **** 
 1912              		.loc 1 539 54 is_stmt 0 view .LVU703
 1913 0394 BDF98410 		ldrsh	r1, [sp, #132]
 539:lvgl/lvgl/src/draw/lv_draw_rect.c **** 
 1914              		.loc 1 539 58 view .LVU704
 1915 0398 091B     		subs	r1, r1, r4
 539:lvgl/lvgl/src/draw/lv_draw_rect.c **** 
 1916              		.loc 1 539 72 view .LVU705
ARM GAS  C:\Users\gx\AppData\Local\Temp\ccP7i1j8.s 			page 71


 1917 039a 0131     		adds	r1, r1, #1
 539:lvgl/lvgl/src/draw/lv_draw_rect.c **** 
 1918              		.loc 1 539 40 view .LVU706
 1919 039c 521A     		subs	r2, r2, r1
 539:lvgl/lvgl/src/draw/lv_draw_rect.c **** 
 1920              		.loc 1 539 20 view .LVU707
 1921 039e 1344     		add	r3, r3, r2
 1922 03a0 1093     		str	r3, [sp, #64]
 542:lvgl/lvgl/src/draw/lv_draw_rect.c ****         else simple_sub = simple;
 1923              		.loc 1 542 9 is_stmt 1 view .LVU708
 542:lvgl/lvgl/src/draw/lv_draw_rect.c ****         else simple_sub = simple;
 1924              		.loc 1 542 11 is_stmt 0 view .LVU709
 1925 03a2 099B     		ldr	r3, [sp, #36]
 1926 03a4 83B1     		cbz	r3, .L192
 1927              	.L92:
 543:lvgl/lvgl/src/draw/lv_draw_rect.c ****         mask_act = simple_sub ? &sh_buf_tmp : &mask_buf;
 1928              		.loc 1 543 14 is_stmt 1 view .LVU710
 1929              	.LVL170:
 544:lvgl/lvgl/src/draw/lv_draw_rect.c ****         if(w > 0) {
 1930              		.loc 1 544 9 view .LVU711
 544:lvgl/lvgl/src/draw/lv_draw_rect.c ****         if(w > 0) {
 1931              		.loc 1 544 45 is_stmt 0 view .LVU712
 1932 03a6 059B     		ldr	r3, [sp, #20]
 1933 03a8 CBB1     		cbz	r3, .L159
 1934 03aa 1A46     		mov	r2, r3
 1935 03ac 0DF1400A 		add	r10, sp, #64
 1936              	.LVL171:
 1937              	.L93:
 545:lvgl/lvgl/src/draw/lv_draw_rect.c ****             mask_res = LV_DRAW_MASK_RES_CHANGED;    /*In simple mode it won't be overwritten*/
 1938              		.loc 1 545 9 is_stmt 1 discriminator 4 view .LVU713
 545:lvgl/lvgl/src/draw/lv_draw_rect.c ****             mask_res = LV_DRAW_MASK_RES_CHANGED;    /*In simple mode it won't be overwritten*/
 1939              		.loc 1 545 11 is_stmt 0 discriminator 4 view .LVU714
 1940 03b0 0A9B     		ldr	r3, [sp, #40]
 1941 03b2 002B     		cmp	r3, #0
 1942 03b4 7FF743AF 		ble	.L91
 546:lvgl/lvgl/src/draw/lv_draw_rect.c ****             for(y = clip_area_sub.y1; y <= clip_area_sub.y2; y++) {
 1943              		.loc 1 546 13 is_stmt 1 view .LVU715
 1944              	.LVL172:
 547:lvgl/lvgl/src/draw/lv_draw_rect.c ****                 blend_area.y1 = y;
 1945              		.loc 1 547 13 view .LVU716
 547:lvgl/lvgl/src/draw/lv_draw_rect.c ****                 blend_area.y1 = y;
 1946              		.loc 1 547 19 is_stmt 0 view .LVU717
 1947 03b8 BDF94680 		ldrsh	r8, [sp, #70]
 1948              	.LVL173:
 546:lvgl/lvgl/src/draw/lv_draw_rect.c ****             for(y = clip_area_sub.y1; y <= clip_area_sub.y2; y++) {
 1949              		.loc 1 546 22 view .LVU718
 1950 03bc 0223     		movs	r3, #2
 1951 03be 0D97     		str	r7, [sp, #52]
 1952 03c0 0E96     		str	r6, [sp, #56]
 1953 03c2 1746     		mov	r7, r2
 1954              	.LVL174:
 546:lvgl/lvgl/src/draw/lv_draw_rect.c ****             for(y = clip_area_sub.y1; y <= clip_area_sub.y2; y++) {
 1955              		.loc 1 546 22 view .LVU719
 1956 03c4 1E46     		mov	r6, r3
 547:lvgl/lvgl/src/draw/lv_draw_rect.c ****                 blend_area.y1 = y;
 1957              		.loc 1 547 13 view .LVU720
 1958 03c6 23E0     		b	.L94
ARM GAS  C:\Users\gx\AppData\Local\Temp\ccP7i1j8.s 			page 72


 1959              	.LVL175:
 1960              	.L192:
 542:lvgl/lvgl/src/draw/lv_draw_rect.c ****         else simple_sub = simple;
 1961              		.loc 1 542 25 discriminator 1 view .LVU721
 1962 03c8 4246     		mov	r2, r8
 1963 03ca 1CA9     		add	r1, sp, #112
 1964 03cc 11A8     		add	r0, sp, #68
 1965 03ce FFF7FEFF 		bl	_lv_area_is_out
 1966              	.LVL176:
 542:lvgl/lvgl/src/draw/lv_draw_rect.c ****         else simple_sub = simple;
 1967              		.loc 1 542 22 discriminator 1 view .LVU722
 1968 03d2 0246     		mov	r2, r0
 1969 03d4 0028     		cmp	r0, #0
 1970 03d6 E6D0     		beq	.L92
 544:lvgl/lvgl/src/draw/lv_draw_rect.c ****         if(w > 0) {
 1971              		.loc 1 544 45 view .LVU723
 1972 03d8 0DF1400A 		add	r10, sp, #64
 1973 03dc E8E7     		b	.L93
 1974              	.LVL177:
 1975              	.L159:
 544:lvgl/lvgl/src/draw/lv_draw_rect.c ****         if(w > 0) {
 1976              		.loc 1 544 45 view .LVU724
 1977 03de 059B     		ldr	r3, [sp, #20]
 1978 03e0 1A46     		mov	r2, r3
 1979 03e2 0DF1540A 		add	r10, sp, #84
 1980 03e6 E3E7     		b	.L93
 1981              	.LVL178:
 1982              	.L95:
 556:lvgl/lvgl/src/draw/lv_draw_rect.c ****                 sh_buf_tmp += corner_size;
 1983              		.loc 1 556 17 is_stmt 1 discriminator 2 view .LVU725
 1984 03e8 AB78     		ldrb	r3, [r5, #2]	@ zero_extendqisi2
 1985 03ea 0293     		str	r3, [sp, #8]
 1986 03ec 95F83230 		ldrb	r3, [r5, #50]	@ zero_extendqisi2
 1987 03f0 0193     		str	r3, [sp, #4]
 1988 03f2 0096     		str	r6, [sp]
 1989 03f4 DAF80030 		ldr	r3, [r10]
 1990 03f8 2A8D     		ldrh	r2, [r5, #40]
 1991 03fa 13A9     		add	r1, sp, #76
 1992 03fc 11A8     		add	r0, sp, #68
 1993 03fe FFF7FEFF 		bl	_lv_blend_fill
 1994              	.LVL179:
 557:lvgl/lvgl/src/draw/lv_draw_rect.c ****             }
 1995              		.loc 1 557 17 discriminator 2 view .LVU726
 557:lvgl/lvgl/src/draw/lv_draw_rect.c ****             }
 1996              		.loc 1 557 28 is_stmt 0 discriminator 2 view .LVU727
 1997 0402 109B     		ldr	r3, [sp, #64]
 1998 0404 2344     		add	r3, r3, r4
 1999 0406 1093     		str	r3, [sp, #64]
 547:lvgl/lvgl/src/draw/lv_draw_rect.c ****                 blend_area.y1 = y;
 2000              		.loc 1 547 62 is_stmt 1 discriminator 2 view .LVU728
 547:lvgl/lvgl/src/draw/lv_draw_rect.c ****                 blend_area.y1 = y;
 2001              		.loc 1 547 63 is_stmt 0 discriminator 2 view .LVU729
 2002 0408 08F10108 		add	r8, r8, #1
 2003              	.LVL180:
 547:lvgl/lvgl/src/draw/lv_draw_rect.c ****                 blend_area.y1 = y;
 2004              		.loc 1 547 63 discriminator 2 view .LVU730
 2005 040c 0FFA88F8 		sxth	r8, r8
ARM GAS  C:\Users\gx\AppData\Local\Temp\ccP7i1j8.s 			page 73


 2006              	.LVL181:
 2007              	.L94:
 547:lvgl/lvgl/src/draw/lv_draw_rect.c ****                 blend_area.y1 = y;
 2008              		.loc 1 547 39 is_stmt 1 discriminator 1 view .LVU731
 547:lvgl/lvgl/src/draw/lv_draw_rect.c ****                 blend_area.y1 = y;
 2009              		.loc 1 547 57 is_stmt 0 discriminator 1 view .LVU732
 2010 0410 BDF94A30 		ldrsh	r3, [sp, #74]
 547:lvgl/lvgl/src/draw/lv_draw_rect.c ****                 blend_area.y1 = y;
 2011              		.loc 1 547 13 discriminator 1 view .LVU733
 2012 0414 4345     		cmp	r3, r8
 2013 0416 16DB     		blt	.L193
 548:lvgl/lvgl/src/draw/lv_draw_rect.c ****                 blend_area.y2 = y;
 2014              		.loc 1 548 17 is_stmt 1 view .LVU734
 548:lvgl/lvgl/src/draw/lv_draw_rect.c ****                 blend_area.y2 = y;
 2015              		.loc 1 548 31 is_stmt 0 view .LVU735
 2016 0418 ADF84E80 		strh	r8, [sp, #78]	@ movhi
 549:lvgl/lvgl/src/draw/lv_draw_rect.c **** 
 2017              		.loc 1 549 17 is_stmt 1 view .LVU736
 549:lvgl/lvgl/src/draw/lv_draw_rect.c **** 
 2018              		.loc 1 549 31 is_stmt 0 view .LVU737
 2019 041c ADF85280 		strh	r8, [sp, #82]	@ movhi
 551:lvgl/lvgl/src/draw/lv_draw_rect.c ****                     lv_memcpy(mask_buf, sh_buf_tmp, corner_size);
 2020              		.loc 1 551 17 is_stmt 1 view .LVU738
 551:lvgl/lvgl/src/draw/lv_draw_rect.c ****                     lv_memcpy(mask_buf, sh_buf_tmp, corner_size);
 2021              		.loc 1 551 19 is_stmt 0 view .LVU739
 2022 0420 002F     		cmp	r7, #0
 2023 0422 E1D1     		bne	.L95
 552:lvgl/lvgl/src/draw/lv_draw_rect.c ****                     mask_res = lv_draw_mask_apply(mask_buf, clip_area_sub.x1, y, w);
 2024              		.loc 1 552 21 is_stmt 1 view .LVU740
 2025 0424 2246     		mov	r2, r4
 2026 0426 1099     		ldr	r1, [sp, #64]
 2027 0428 1598     		ldr	r0, [sp, #84]
 2028 042a FFF7FEFF 		bl	lv_memcpy
 2029              	.LVL182:
 553:lvgl/lvgl/src/draw/lv_draw_rect.c ****                     if(mask_res == LV_DRAW_MASK_RES_FULL_COVER) mask_res = LV_DRAW_MASK_RES_CHANGED
 2030              		.loc 1 553 21 view .LVU741
 553:lvgl/lvgl/src/draw/lv_draw_rect.c ****                     if(mask_res == LV_DRAW_MASK_RES_FULL_COVER) mask_res = LV_DRAW_MASK_RES_CHANGED
 2031              		.loc 1 553 32 is_stmt 0 view .LVU742
 2032 042e 0A9B     		ldr	r3, [sp, #40]
 2033 0430 4246     		mov	r2, r8
 2034 0432 BDF94410 		ldrsh	r1, [sp, #68]
 2035 0436 1598     		ldr	r0, [sp, #84]
 2036 0438 FFF7FEFF 		bl	lv_draw_mask_apply
 2037              	.LVL183:
 2038 043c 0646     		mov	r6, r0
 2039              	.LVL184:
 554:lvgl/lvgl/src/draw/lv_draw_rect.c ****                 }
 2040              		.loc 1 554 21 is_stmt 1 view .LVU743
 554:lvgl/lvgl/src/draw/lv_draw_rect.c ****                 }
 2041              		.loc 1 554 23 is_stmt 0 view .LVU744
 2042 043e 0128     		cmp	r0, #1
 2043 0440 D2D1     		bne	.L95
 554:lvgl/lvgl/src/draw/lv_draw_rect.c ****                 }
 2044              		.loc 1 554 74 view .LVU745
 2045 0442 0226     		movs	r6, #2
 2046 0444 D0E7     		b	.L95
 2047              	.LVL185:
ARM GAS  C:\Users\gx\AppData\Local\Temp\ccP7i1j8.s 			page 74


 2048              	.L193:
 554:lvgl/lvgl/src/draw/lv_draw_rect.c ****                 }
 2049              		.loc 1 554 74 view .LVU746
 2050 0446 0D9F     		ldr	r7, [sp, #52]
 2051 0448 0E9E     		ldr	r6, [sp, #56]
 2052              	.LVL186:
 554:lvgl/lvgl/src/draw/lv_draw_rect.c ****                 }
 2053              		.loc 1 554 74 view .LVU747
 2054 044a F8E6     		b	.L91
 2055              	.LVL187:
 2056              	.L188:
 554:lvgl/lvgl/src/draw/lv_draw_rect.c ****                 }
 2057              		.loc 1 554 74 view .LVU748
 2058              	.LBE180:
 572:lvgl/lvgl/src/draw/lv_draw_rect.c ****         lv_coord_t w = lv_area_get_width(&clip_area_sub);
 2059              		.loc 1 572 66 discriminator 1 view .LVU749
 2060 044c BDF91880 		ldrsh	r8, [sp, #24]
 2061 0450 4246     		mov	r2, r8
 2062 0452 1CA9     		add	r1, sp, #112
 2063 0454 11A8     		add	r0, sp, #68
 2064 0456 FFF7FEFF 		bl	_lv_area_is_in
 2065              	.LVL188:
 572:lvgl/lvgl/src/draw/lv_draw_rect.c ****         lv_coord_t w = lv_area_get_width(&clip_area_sub);
 2066              		.loc 1 572 62 discriminator 1 view .LVU750
 2067 045a 0028     		cmp	r0, #0
 2068 045c 7FF417AF 		bne	.L97
 2069              	.LBB183:
 573:lvgl/lvgl/src/draw/lv_draw_rect.c ****         sh_buf_tmp = sh_buf;
 2070              		.loc 1 573 9 is_stmt 1 view .LVU751
 2071              	.LVL189:
 2072              	.LBB184:
 2073              	.LBI184:
 133:lvgl/lvgl/src/draw/../misc/lv_area.h **** {
 2074              		.loc 2 133 26 view .LVU752
 2075              	.LBB185:
 135:lvgl/lvgl/src/draw/../misc/lv_area.h **** }
 2076              		.loc 2 135 5 view .LVU753
 135:lvgl/lvgl/src/draw/../misc/lv_area.h **** }
 2077              		.loc 2 135 31 is_stmt 0 view .LVU754
 2078 0460 BDF84830 		ldrh	r3, [sp, #72]
 135:lvgl/lvgl/src/draw/../misc/lv_area.h **** }
 2079              		.loc 2 135 44 view .LVU755
 2080 0464 BDF94420 		ldrsh	r2, [sp, #68]
 2081 0468 91B2     		uxth	r1, r2
 135:lvgl/lvgl/src/draw/../misc/lv_area.h **** }
 2082              		.loc 2 135 36 view .LVU756
 2083 046a 5B1A     		subs	r3, r3, r1
 2084 046c 9BB2     		uxth	r3, r3
 135:lvgl/lvgl/src/draw/../misc/lv_area.h **** }
 2085              		.loc 2 135 49 view .LVU757
 2086 046e 0133     		adds	r3, r3, #1
 135:lvgl/lvgl/src/draw/../misc/lv_area.h **** }
 2087              		.loc 2 135 12 view .LVU758
 2088 0470 1BB2     		sxth	r3, r3
 2089 0472 0D93     		str	r3, [sp, #52]
 2090              	.LVL190:
 135:lvgl/lvgl/src/draw/../misc/lv_area.h **** }
ARM GAS  C:\Users\gx\AppData\Local\Temp\ccP7i1j8.s 			page 75


 2091              		.loc 2 135 12 view .LVU759
 2092              	.LBE185:
 2093              	.LBE184:
 574:lvgl/lvgl/src/draw/lv_draw_rect.c ****         sh_buf_tmp += (blend_area.y2 - clip_area_sub.y2) * corner_size;
 2094              		.loc 1 574 9 is_stmt 1 view .LVU760
 575:lvgl/lvgl/src/draw/lv_draw_rect.c ****         sh_buf_tmp += clip_area_sub.x1 - (shadow_area.x2 - corner_size + 1);
 2095              		.loc 1 575 9 view .LVU761
 575:lvgl/lvgl/src/draw/lv_draw_rect.c ****         sh_buf_tmp += clip_area_sub.x1 - (shadow_area.x2 - corner_size + 1);
 2096              		.loc 1 575 34 is_stmt 0 view .LVU762
 2097 0474 BDF95230 		ldrsh	r3, [sp, #82]
 575:lvgl/lvgl/src/draw/lv_draw_rect.c ****         sh_buf_tmp += clip_area_sub.x1 - (shadow_area.x2 - corner_size + 1);
 2098              		.loc 1 575 53 view .LVU763
 2099 0478 BDF94A10 		ldrsh	r1, [sp, #74]
 575:lvgl/lvgl/src/draw/lv_draw_rect.c ****         sh_buf_tmp += clip_area_sub.x1 - (shadow_area.x2 - corner_size + 1);
 2100              		.loc 1 575 38 view .LVU764
 2101 047c 5B1A     		subs	r3, r3, r1
 575:lvgl/lvgl/src/draw/lv_draw_rect.c ****         sh_buf_tmp += clip_area_sub.x1 - (shadow_area.x2 - corner_size + 1);
 2102              		.loc 1 575 20 view .LVU765
 2103 047e 0799     		ldr	r1, [sp, #28]
 2104 0480 04FB0313 		mla	r3, r4, r3, r1
 576:lvgl/lvgl/src/draw/lv_draw_rect.c ****         /*Do not mask if out of the bg*/
 2105              		.loc 1 576 9 is_stmt 1 view .LVU766
 576:lvgl/lvgl/src/draw/lv_draw_rect.c ****         /*Do not mask if out of the bg*/
 2106              		.loc 1 576 54 is_stmt 0 view .LVU767
 2107 0484 BDF98410 		ldrsh	r1, [sp, #132]
 576:lvgl/lvgl/src/draw/lv_draw_rect.c ****         /*Do not mask if out of the bg*/
 2108              		.loc 1 576 58 view .LVU768
 2109 0488 091B     		subs	r1, r1, r4
 576:lvgl/lvgl/src/draw/lv_draw_rect.c ****         /*Do not mask if out of the bg*/
 2110              		.loc 1 576 72 view .LVU769
 2111 048a 0131     		adds	r1, r1, #1
 576:lvgl/lvgl/src/draw/lv_draw_rect.c ****         /*Do not mask if out of the bg*/
 2112              		.loc 1 576 40 view .LVU770
 2113 048c 521A     		subs	r2, r2, r1
 576:lvgl/lvgl/src/draw/lv_draw_rect.c ****         /*Do not mask if out of the bg*/
 2114              		.loc 1 576 20 view .LVU771
 2115 048e 1344     		add	r3, r3, r2
 2116 0490 1093     		str	r3, [sp, #64]
 578:lvgl/lvgl/src/draw/lv_draw_rect.c ****         else simple_sub = simple;
 2117              		.loc 1 578 9 is_stmt 1 view .LVU772
 578:lvgl/lvgl/src/draw/lv_draw_rect.c ****         else simple_sub = simple;
 2118              		.loc 1 578 11 is_stmt 0 view .LVU773
 2119 0492 099B     		ldr	r3, [sp, #36]
 2120 0494 83B1     		cbz	r3, .L194
 2121              	.L98:
 579:lvgl/lvgl/src/draw/lv_draw_rect.c ****         mask_act = simple_sub ? &sh_buf_tmp : &mask_buf;
 2122              		.loc 1 579 14 is_stmt 1 view .LVU774
 2123              	.LVL191:
 580:lvgl/lvgl/src/draw/lv_draw_rect.c **** 
 2124              		.loc 1 580 9 view .LVU775
 580:lvgl/lvgl/src/draw/lv_draw_rect.c **** 
 2125              		.loc 1 580 45 is_stmt 0 view .LVU776
 2126 0496 059B     		ldr	r3, [sp, #20]
 2127 0498 CBB1     		cbz	r3, .L162
 2128 049a 1A46     		mov	r2, r3
 2129 049c 0DF1400A 		add	r10, sp, #64
 2130              	.LVL192:
ARM GAS  C:\Users\gx\AppData\Local\Temp\ccP7i1j8.s 			page 76


 2131              	.L99:
 582:lvgl/lvgl/src/draw/lv_draw_rect.c ****             mask_res = LV_DRAW_MASK_RES_CHANGED;    /*In simple mode it won't be overwritten*/
 2132              		.loc 1 582 9 is_stmt 1 discriminator 4 view .LVU777
 582:lvgl/lvgl/src/draw/lv_draw_rect.c ****             mask_res = LV_DRAW_MASK_RES_CHANGED;    /*In simple mode it won't be overwritten*/
 2133              		.loc 1 582 11 is_stmt 0 discriminator 4 view .LVU778
 2134 04a0 0D9B     		ldr	r3, [sp, #52]
 2135 04a2 002B     		cmp	r3, #0
 2136 04a4 7FF7F3AE 		ble	.L97
 583:lvgl/lvgl/src/draw/lv_draw_rect.c ****             for(y = clip_area_sub.y2; y >= clip_area_sub.y1; y--) {
 2137              		.loc 1 583 13 is_stmt 1 view .LVU779
 2138              	.LVL193:
 584:lvgl/lvgl/src/draw/lv_draw_rect.c ****                 blend_area.y1 = y;
 2139              		.loc 1 584 13 view .LVU780
 584:lvgl/lvgl/src/draw/lv_draw_rect.c ****                 blend_area.y1 = y;
 2140              		.loc 1 584 19 is_stmt 0 view .LVU781
 2141 04a8 BDF94A80 		ldrsh	r8, [sp, #74]
 2142              	.LVL194:
 583:lvgl/lvgl/src/draw/lv_draw_rect.c ****             for(y = clip_area_sub.y2; y >= clip_area_sub.y1; y--) {
 2143              		.loc 1 583 22 view .LVU782
 2144 04ac 0223     		movs	r3, #2
 2145 04ae 0E97     		str	r7, [sp, #56]
 2146 04b0 0F96     		str	r6, [sp, #60]
 2147 04b2 1746     		mov	r7, r2
 2148 04b4 1E46     		mov	r6, r3
 584:lvgl/lvgl/src/draw/lv_draw_rect.c ****                 blend_area.y1 = y;
 2149              		.loc 1 584 13 view .LVU783
 2150 04b6 23E0     		b	.L100
 2151              	.LVL195:
 2152              	.L194:
 578:lvgl/lvgl/src/draw/lv_draw_rect.c ****         else simple_sub = simple;
 2153              		.loc 1 578 25 discriminator 1 view .LVU784
 2154 04b8 4246     		mov	r2, r8
 2155 04ba 1CA9     		add	r1, sp, #112
 2156 04bc 11A8     		add	r0, sp, #68
 2157 04be FFF7FEFF 		bl	_lv_area_is_out
 2158              	.LVL196:
 578:lvgl/lvgl/src/draw/lv_draw_rect.c ****         else simple_sub = simple;
 2159              		.loc 1 578 22 discriminator 1 view .LVU785
 2160 04c2 0246     		mov	r2, r0
 2161 04c4 0028     		cmp	r0, #0
 2162 04c6 E6D0     		beq	.L98
 580:lvgl/lvgl/src/draw/lv_draw_rect.c **** 
 2163              		.loc 1 580 45 view .LVU786
 2164 04c8 0DF1400A 		add	r10, sp, #64
 2165 04cc E8E7     		b	.L99
 2166              	.LVL197:
 2167              	.L162:
 580:lvgl/lvgl/src/draw/lv_draw_rect.c **** 
 2168              		.loc 1 580 45 view .LVU787
 2169 04ce 059B     		ldr	r3, [sp, #20]
 2170 04d0 1A46     		mov	r2, r3
 2171 04d2 0DF1540A 		add	r10, sp, #84
 2172 04d6 E3E7     		b	.L99
 2173              	.LVL198:
 2174              	.L101:
 593:lvgl/lvgl/src/draw/lv_draw_rect.c ****                 sh_buf_tmp += corner_size;
 2175              		.loc 1 593 17 is_stmt 1 discriminator 2 view .LVU788
ARM GAS  C:\Users\gx\AppData\Local\Temp\ccP7i1j8.s 			page 77


 2176 04d8 AB78     		ldrb	r3, [r5, #2]	@ zero_extendqisi2
 2177 04da 0293     		str	r3, [sp, #8]
 2178 04dc 95F83230 		ldrb	r3, [r5, #50]	@ zero_extendqisi2
 2179 04e0 0193     		str	r3, [sp, #4]
 2180 04e2 0096     		str	r6, [sp]
 2181 04e4 DAF80030 		ldr	r3, [r10]
 2182 04e8 2A8D     		ldrh	r2, [r5, #40]
 2183 04ea 13A9     		add	r1, sp, #76
 2184 04ec 11A8     		add	r0, sp, #68
 2185 04ee FFF7FEFF 		bl	_lv_blend_fill
 2186              	.LVL199:
 594:lvgl/lvgl/src/draw/lv_draw_rect.c ****             }
 2187              		.loc 1 594 17 discriminator 2 view .LVU789
 594:lvgl/lvgl/src/draw/lv_draw_rect.c ****             }
 2188              		.loc 1 594 28 is_stmt 0 discriminator 2 view .LVU790
 2189 04f2 109B     		ldr	r3, [sp, #64]
 2190 04f4 2344     		add	r3, r3, r4
 2191 04f6 1093     		str	r3, [sp, #64]
 584:lvgl/lvgl/src/draw/lv_draw_rect.c ****                 blend_area.y1 = y;
 2192              		.loc 1 584 62 is_stmt 1 discriminator 2 view .LVU791
 584:lvgl/lvgl/src/draw/lv_draw_rect.c ****                 blend_area.y1 = y;
 2193              		.loc 1 584 63 is_stmt 0 discriminator 2 view .LVU792
 2194 04f8 08F1FF38 		add	r8, r8, #-1
 2195              	.LVL200:
 584:lvgl/lvgl/src/draw/lv_draw_rect.c ****                 blend_area.y1 = y;
 2196              		.loc 1 584 63 discriminator 2 view .LVU793
 2197 04fc 0FFA88F8 		sxth	r8, r8
 2198              	.LVL201:
 2199              	.L100:
 584:lvgl/lvgl/src/draw/lv_draw_rect.c ****                 blend_area.y1 = y;
 2200              		.loc 1 584 39 is_stmt 1 discriminator 1 view .LVU794
 584:lvgl/lvgl/src/draw/lv_draw_rect.c ****                 blend_area.y1 = y;
 2201              		.loc 1 584 57 is_stmt 0 discriminator 1 view .LVU795
 2202 0500 BDF94630 		ldrsh	r3, [sp, #70]
 584:lvgl/lvgl/src/draw/lv_draw_rect.c ****                 blend_area.y1 = y;
 2203              		.loc 1 584 13 discriminator 1 view .LVU796
 2204 0504 4345     		cmp	r3, r8
 2205 0506 16DC     		bgt	.L195
 585:lvgl/lvgl/src/draw/lv_draw_rect.c ****                 blend_area.y2 = y;
 2206              		.loc 1 585 17 is_stmt 1 view .LVU797
 585:lvgl/lvgl/src/draw/lv_draw_rect.c ****                 blend_area.y2 = y;
 2207              		.loc 1 585 31 is_stmt 0 view .LVU798
 2208 0508 ADF84E80 		strh	r8, [sp, #78]	@ movhi
 586:lvgl/lvgl/src/draw/lv_draw_rect.c **** 
 2209              		.loc 1 586 17 is_stmt 1 view .LVU799
 586:lvgl/lvgl/src/draw/lv_draw_rect.c **** 
 2210              		.loc 1 586 31 is_stmt 0 view .LVU800
 2211 050c ADF85280 		strh	r8, [sp, #82]	@ movhi
 588:lvgl/lvgl/src/draw/lv_draw_rect.c ****                     lv_memcpy(mask_buf, sh_buf_tmp, corner_size);
 2212              		.loc 1 588 17 is_stmt 1 view .LVU801
 588:lvgl/lvgl/src/draw/lv_draw_rect.c ****                     lv_memcpy(mask_buf, sh_buf_tmp, corner_size);
 2213              		.loc 1 588 19 is_stmt 0 view .LVU802
 2214 0510 002F     		cmp	r7, #0
 2215 0512 E1D1     		bne	.L101
 589:lvgl/lvgl/src/draw/lv_draw_rect.c ****                     mask_res = lv_draw_mask_apply(mask_buf, clip_area_sub.x1, y, w);
 2216              		.loc 1 589 21 is_stmt 1 view .LVU803
 2217 0514 2246     		mov	r2, r4
ARM GAS  C:\Users\gx\AppData\Local\Temp\ccP7i1j8.s 			page 78


 2218 0516 1099     		ldr	r1, [sp, #64]
 2219 0518 1598     		ldr	r0, [sp, #84]
 2220 051a FFF7FEFF 		bl	lv_memcpy
 2221              	.LVL202:
 590:lvgl/lvgl/src/draw/lv_draw_rect.c ****                     if(mask_res == LV_DRAW_MASK_RES_FULL_COVER) mask_res = LV_DRAW_MASK_RES_CHANGED
 2222              		.loc 1 590 21 view .LVU804
 590:lvgl/lvgl/src/draw/lv_draw_rect.c ****                     if(mask_res == LV_DRAW_MASK_RES_FULL_COVER) mask_res = LV_DRAW_MASK_RES_CHANGED
 2223              		.loc 1 590 32 is_stmt 0 view .LVU805
 2224 051e 0D9B     		ldr	r3, [sp, #52]
 2225 0520 4246     		mov	r2, r8
 2226 0522 BDF94410 		ldrsh	r1, [sp, #68]
 2227 0526 1598     		ldr	r0, [sp, #84]
 2228 0528 FFF7FEFF 		bl	lv_draw_mask_apply
 2229              	.LVL203:
 2230 052c 0646     		mov	r6, r0
 2231              	.LVL204:
 591:lvgl/lvgl/src/draw/lv_draw_rect.c ****                 }
 2232              		.loc 1 591 21 is_stmt 1 view .LVU806
 591:lvgl/lvgl/src/draw/lv_draw_rect.c ****                 }
 2233              		.loc 1 591 23 is_stmt 0 view .LVU807
 2234 052e 0128     		cmp	r0, #1
 2235 0530 D2D1     		bne	.L101
 591:lvgl/lvgl/src/draw/lv_draw_rect.c ****                 }
 2236              		.loc 1 591 74 view .LVU808
 2237 0532 0226     		movs	r6, #2
 2238 0534 D0E7     		b	.L101
 2239              	.LVL205:
 2240              	.L195:
 591:lvgl/lvgl/src/draw/lv_draw_rect.c ****                 }
 2241              		.loc 1 591 74 view .LVU809
 2242 0536 0E9F     		ldr	r7, [sp, #56]
 2243 0538 0F9E     		ldr	r6, [sp, #60]
 2244              	.LVL206:
 591:lvgl/lvgl/src/draw/lv_draw_rect.c ****                 }
 2245              		.loc 1 591 74 view .LVU810
 2246 053a A8E6     		b	.L97
 2247              	.LVL207:
 2248              	.L189:
 591:lvgl/lvgl/src/draw/lv_draw_rect.c ****                 }
 2249              		.loc 1 591 74 view .LVU811
 2250              	.LBE183:
 605:lvgl/lvgl/src/draw/lv_draw_rect.c ****         lv_coord_t w = lv_area_get_width(&clip_area_sub);
 2251              		.loc 1 605 66 discriminator 1 view .LVU812
 2252 053c BDF91880 		ldrsh	r8, [sp, #24]
 2253 0540 4246     		mov	r2, r8
 2254 0542 1CA9     		add	r1, sp, #112
 2255 0544 11A8     		add	r0, sp, #68
 2256 0546 FFF7FEFF 		bl	_lv_area_is_in
 2257              	.LVL208:
 605:lvgl/lvgl/src/draw/lv_draw_rect.c ****         lv_coord_t w = lv_area_get_width(&clip_area_sub);
 2258              		.loc 1 605 62 discriminator 1 view .LVU813
 2259 054a 0028     		cmp	r0, #0
 2260 054c 7FF4BBAE 		bne	.L103
 2261              	.LBB186:
 606:lvgl/lvgl/src/draw/lv_draw_rect.c ****         sh_buf_tmp = sh_buf;
 2262              		.loc 1 606 9 is_stmt 1 view .LVU814
 2263              	.LVL209:
ARM GAS  C:\Users\gx\AppData\Local\Temp\ccP7i1j8.s 			page 79


 2264              	.LBB187:
 2265              	.LBI187:
 133:lvgl/lvgl/src/draw/../misc/lv_area.h **** {
 2266              		.loc 2 133 26 view .LVU815
 2267              	.LBB188:
 135:lvgl/lvgl/src/draw/../misc/lv_area.h **** }
 2268              		.loc 2 135 5 view .LVU816
 135:lvgl/lvgl/src/draw/../misc/lv_area.h **** }
 2269              		.loc 2 135 31 is_stmt 0 view .LVU817
 2270 0550 BDF848A0 		ldrh	r10, [sp, #72]
 135:lvgl/lvgl/src/draw/../misc/lv_area.h **** }
 2271              		.loc 2 135 44 view .LVU818
 2272 0554 BDF84430 		ldrh	r3, [sp, #68]
 135:lvgl/lvgl/src/draw/../misc/lv_area.h **** }
 2273              		.loc 2 135 36 view .LVU819
 2274 0558 AAEB030A 		sub	r10, r10, r3
 2275 055c 1FFA8AFA 		uxth	r10, r10
 135:lvgl/lvgl/src/draw/../misc/lv_area.h **** }
 2276              		.loc 2 135 49 view .LVU820
 2277 0560 0AF1010A 		add	r10, r10, #1
 135:lvgl/lvgl/src/draw/../misc/lv_area.h **** }
 2278              		.loc 2 135 12 view .LVU821
 2279 0564 0FFA8AFA 		sxth	r10, r10
 2280              	.LVL210:
 135:lvgl/lvgl/src/draw/../misc/lv_area.h **** }
 2281              		.loc 2 135 12 view .LVU822
 2282              	.LBE188:
 2283              	.LBE187:
 607:lvgl/lvgl/src/draw/lv_draw_rect.c ****         sh_buf_tmp += (clip_area_sub.y1 - blend_area.y1) * corner_size;
 2284              		.loc 1 607 9 is_stmt 1 view .LVU823
 608:lvgl/lvgl/src/draw/lv_draw_rect.c **** 
 2285              		.loc 1 608 9 view .LVU824
 608:lvgl/lvgl/src/draw/lv_draw_rect.c **** 
 2286              		.loc 1 608 37 is_stmt 0 view .LVU825
 2287 0568 BDF94630 		ldrsh	r3, [sp, #70]
 608:lvgl/lvgl/src/draw/lv_draw_rect.c **** 
 2288              		.loc 1 608 53 view .LVU826
 2289 056c BDF94E20 		ldrsh	r2, [sp, #78]
 608:lvgl/lvgl/src/draw/lv_draw_rect.c **** 
 2290              		.loc 1 608 41 view .LVU827
 2291 0570 9B1A     		subs	r3, r3, r2
 608:lvgl/lvgl/src/draw/lv_draw_rect.c **** 
 2292              		.loc 1 608 20 view .LVU828
 2293 0572 079A     		ldr	r2, [sp, #28]
 2294 0574 04FB0323 		mla	r3, r4, r3, r2
 2295 0578 1093     		str	r3, [sp, #64]
 611:lvgl/lvgl/src/draw/lv_draw_rect.c ****         else simple_sub = simple;
 2296              		.loc 1 611 9 is_stmt 1 view .LVU829
 611:lvgl/lvgl/src/draw/lv_draw_rect.c ****         else simple_sub = simple;
 2297              		.loc 1 611 11 is_stmt 0 view .LVU830
 2298 057a 099B     		ldr	r3, [sp, #36]
 2299 057c 4BB1     		cbz	r3, .L196
 2300 057e 059B     		ldr	r3, [sp, #20]
 2301              	.L104:
 2302              	.LVL211:
 614:lvgl/lvgl/src/draw/lv_draw_rect.c ****             mask_res = LV_DRAW_MASK_RES_CHANGED;    /*In simple mode it won't be overwritten*/
 2303              		.loc 1 614 9 is_stmt 1 view .LVU831
ARM GAS  C:\Users\gx\AppData\Local\Temp\ccP7i1j8.s 			page 80


 614:lvgl/lvgl/src/draw/lv_draw_rect.c ****             mask_res = LV_DRAW_MASK_RES_CHANGED;    /*In simple mode it won't be overwritten*/
 2304              		.loc 1 614 11 is_stmt 0 view .LVU832
 2305 0580 BAF1000F 		cmp	r10, #0
 2306 0584 7FF79FAE 		ble	.L103
 615:lvgl/lvgl/src/draw/lv_draw_rect.c ****             for(y = clip_area_sub.y1; y <= clip_area_sub.y2; y++) {
 2307              		.loc 1 615 13 is_stmt 1 view .LVU833
 2308              	.LVL212:
 616:lvgl/lvgl/src/draw/lv_draw_rect.c ****                 blend_area.y1 = y;
 2309              		.loc 1 616 13 view .LVU834
 616:lvgl/lvgl/src/draw/lv_draw_rect.c ****                 blend_area.y1 = y;
 2310              		.loc 1 616 19 is_stmt 0 view .LVU835
 2311 0588 BDF94680 		ldrsh	r8, [sp, #70]
 2312              	.LVL213:
 616:lvgl/lvgl/src/draw/lv_draw_rect.c ****                 blend_area.y1 = y;
 2313              		.loc 1 616 19 view .LVU836
 2314 058c 0D96     		str	r6, [sp, #52]
 2315 058e 1E46     		mov	r6, r3
 616:lvgl/lvgl/src/draw/lv_draw_rect.c ****                 blend_area.y1 = y;
 2316              		.loc 1 616 13 view .LVU837
 2317 0590 3BE0     		b	.L105
 2318              	.LVL214:
 2319              	.L196:
 611:lvgl/lvgl/src/draw/lv_draw_rect.c ****         else simple_sub = simple;
 2320              		.loc 1 611 25 discriminator 1 view .LVU838
 2321 0592 4246     		mov	r2, r8
 2322 0594 1CA9     		add	r1, sp, #112
 2323 0596 11A8     		add	r0, sp, #68
 2324 0598 FFF7FEFF 		bl	_lv_area_is_out
 2325              	.LVL215:
 611:lvgl/lvgl/src/draw/lv_draw_rect.c ****         else simple_sub = simple;
 2326              		.loc 1 611 22 discriminator 1 view .LVU839
 2327 059c 0346     		mov	r3, r0
 2328 059e 0028     		cmp	r0, #0
 2329 05a0 EED1     		bne	.L104
 2330 05a2 059B     		ldr	r3, [sp, #20]
 2331 05a4 ECE7     		b	.L104
 2332              	.LVL216:
 2333              	.L199:
 621:lvgl/lvgl/src/draw/lv_draw_rect.c ****                     mask_res = lv_draw_mask_apply(mask_buf, clip_area_sub.x1, y, w);
 2334              		.loc 1 621 21 is_stmt 1 view .LVU840
 2335 05a6 5246     		mov	r2, r10
 2336 05a8 109B     		ldr	r3, [sp, #64]
 2337 05aa 1978     		ldrb	r1, [r3]	@ zero_extendqisi2
 2338 05ac 1598     		ldr	r0, [sp, #84]
 2339 05ae FFF7FEFF 		bl	lv_memset
 2340              	.LVL217:
 622:lvgl/lvgl/src/draw/lv_draw_rect.c ****                     if(mask_res == LV_DRAW_MASK_RES_FULL_COVER) mask_res = LV_DRAW_MASK_RES_CHANGED
 2341              		.loc 1 622 21 view .LVU841
 622:lvgl/lvgl/src/draw/lv_draw_rect.c ****                     if(mask_res == LV_DRAW_MASK_RES_FULL_COVER) mask_res = LV_DRAW_MASK_RES_CHANGED
 2342              		.loc 1 622 32 is_stmt 0 view .LVU842
 2343 05b2 5346     		mov	r3, r10
 2344 05b4 4246     		mov	r2, r8
 2345 05b6 BDF94410 		ldrsh	r1, [sp, #68]
 2346 05ba 1598     		ldr	r0, [sp, #84]
 2347 05bc FFF7FEFF 		bl	lv_draw_mask_apply
 2348              	.LVL218:
 623:lvgl/lvgl/src/draw/lv_draw_rect.c ****                     _lv_blend_fill(&clip_area_sub, &blend_area, dsc->shadow_color, mask_buf, mask_r
ARM GAS  C:\Users\gx\AppData\Local\Temp\ccP7i1j8.s 			page 81


 2349              		.loc 1 623 21 is_stmt 1 view .LVU843
 623:lvgl/lvgl/src/draw/lv_draw_rect.c ****                     _lv_blend_fill(&clip_area_sub, &blend_area, dsc->shadow_color, mask_buf, mask_r
 2350              		.loc 1 623 23 is_stmt 0 view .LVU844
 2351 05c0 0128     		cmp	r0, #1
 2352 05c2 0CD0     		beq	.L197
 2353              	.LVL219:
 2354              	.L107:
 624:lvgl/lvgl/src/draw/lv_draw_rect.c ****                 } else {
 2355              		.loc 1 624 21 is_stmt 1 view .LVU845
 2356 05c4 AB78     		ldrb	r3, [r5, #2]	@ zero_extendqisi2
 2357 05c6 0293     		str	r3, [sp, #8]
 2358 05c8 95F83230 		ldrb	r3, [r5, #50]	@ zero_extendqisi2
 2359 05cc 0193     		str	r3, [sp, #4]
 2360 05ce 0090     		str	r0, [sp]
 2361 05d0 159B     		ldr	r3, [sp, #84]
 2362 05d2 2A8D     		ldrh	r2, [r5, #40]
 2363 05d4 13A9     		add	r1, sp, #76
 2364 05d6 11A8     		add	r0, sp, #68
 2365              	.LVL220:
 624:lvgl/lvgl/src/draw/lv_draw_rect.c ****                 } else {
 2366              		.loc 1 624 21 is_stmt 0 view .LVU846
 2367 05d8 FFF7FEFF 		bl	_lv_blend_fill
 2368              	.LVL221:
 2369 05dc 0EE0     		b	.L108
 2370              	.LVL222:
 2371              	.L197:
 623:lvgl/lvgl/src/draw/lv_draw_rect.c ****                     _lv_blend_fill(&clip_area_sub, &blend_area, dsc->shadow_color, mask_buf, mask_r
 2372              		.loc 1 623 74 view .LVU847
 2373 05de 0220     		movs	r0, #2
 2374              	.LVL223:
 623:lvgl/lvgl/src/draw/lv_draw_rect.c ****                     _lv_blend_fill(&clip_area_sub, &blend_area, dsc->shadow_color, mask_buf, mask_r
 2375              		.loc 1 623 74 view .LVU848
 2376 05e0 F0E7     		b	.L107
 2377              	.L200:
 2378              	.LBB189:
 626:lvgl/lvgl/src/draw/lv_draw_rect.c ****                     _lv_blend_fill(&clip_area_sub, &blend_area, dsc->shadow_color, NULL, LV_DRAW_MA
 2379              		.loc 1 626 73 discriminator 1 view .LVU849
 2380 05e2 109B     		ldr	r3, [sp, #64]
 626:lvgl/lvgl/src/draw/lv_draw_rect.c ****                     _lv_blend_fill(&clip_area_sub, &blend_area, dsc->shadow_color, NULL, LV_DRAW_MA
 2381              		.loc 1 626 30 discriminator 1 view .LVU850
 2382 05e4 1B78     		ldrb	r3, [r3]	@ zero_extendqisi2
 2383              	.L110:
 2384              	.LVL224:
 627:lvgl/lvgl/src/draw/lv_draw_rect.c ****                 }
 2385              		.loc 1 627 21 is_stmt 1 discriminator 4 view .LVU851
 2386 05e6 AA78     		ldrb	r2, [r5, #2]	@ zero_extendqisi2
 2387 05e8 0292     		str	r2, [sp, #8]
 2388 05ea 0193     		str	r3, [sp, #4]
 2389 05ec 0123     		movs	r3, #1
 2390              	.LVL225:
 627:lvgl/lvgl/src/draw/lv_draw_rect.c ****                 }
 2391              		.loc 1 627 21 is_stmt 0 discriminator 4 view .LVU852
 2392 05ee 0093     		str	r3, [sp]
 2393 05f0 0023     		movs	r3, #0
 2394 05f2 2A8D     		ldrh	r2, [r5, #40]
 2395 05f4 13A9     		add	r1, sp, #76
 2396 05f6 11A8     		add	r0, sp, #68
ARM GAS  C:\Users\gx\AppData\Local\Temp\ccP7i1j8.s 			page 82


 2397 05f8 FFF7FEFF 		bl	_lv_blend_fill
 2398              	.LVL226:
 2399              	.L108:
 627:lvgl/lvgl/src/draw/lv_draw_rect.c ****                 }
 2400              		.loc 1 627 21 discriminator 4 view .LVU853
 2401              	.LBE189:
 629:lvgl/lvgl/src/draw/lv_draw_rect.c ****             }
 2402              		.loc 1 629 17 is_stmt 1 discriminator 2 view .LVU854
 629:lvgl/lvgl/src/draw/lv_draw_rect.c ****             }
 2403              		.loc 1 629 28 is_stmt 0 discriminator 2 view .LVU855
 2404 05fc 109B     		ldr	r3, [sp, #64]
 2405 05fe 2344     		add	r3, r3, r4
 2406 0600 1093     		str	r3, [sp, #64]
 616:lvgl/lvgl/src/draw/lv_draw_rect.c ****                 blend_area.y1 = y;
 2407              		.loc 1 616 62 is_stmt 1 discriminator 2 view .LVU856
 616:lvgl/lvgl/src/draw/lv_draw_rect.c ****                 blend_area.y1 = y;
 2408              		.loc 1 616 63 is_stmt 0 discriminator 2 view .LVU857
 2409 0602 08F10108 		add	r8, r8, #1
 2410              	.LVL227:
 616:lvgl/lvgl/src/draw/lv_draw_rect.c ****                 blend_area.y1 = y;
 2411              		.loc 1 616 63 discriminator 2 view .LVU858
 2412 0606 0FFA88F8 		sxth	r8, r8
 2413              	.LVL228:
 2414              	.L105:
 616:lvgl/lvgl/src/draw/lv_draw_rect.c ****                 blend_area.y1 = y;
 2415              		.loc 1 616 39 is_stmt 1 discriminator 1 view .LVU859
 616:lvgl/lvgl/src/draw/lv_draw_rect.c ****                 blend_area.y1 = y;
 2416              		.loc 1 616 57 is_stmt 0 discriminator 1 view .LVU860
 2417 060a BDF94A30 		ldrsh	r3, [sp, #74]
 616:lvgl/lvgl/src/draw/lv_draw_rect.c ****                 blend_area.y1 = y;
 2418              		.loc 1 616 13 discriminator 1 view .LVU861
 2419 060e 4345     		cmp	r3, r8
 2420 0610 0FDB     		blt	.L198
 617:lvgl/lvgl/src/draw/lv_draw_rect.c ****                 blend_area.y2 = y;
 2421              		.loc 1 617 17 is_stmt 1 view .LVU862
 617:lvgl/lvgl/src/draw/lv_draw_rect.c ****                 blend_area.y2 = y;
 2422              		.loc 1 617 31 is_stmt 0 view .LVU863
 2423 0612 ADF84E80 		strh	r8, [sp, #78]	@ movhi
 618:lvgl/lvgl/src/draw/lv_draw_rect.c **** 
 2424              		.loc 1 618 17 is_stmt 1 view .LVU864
 618:lvgl/lvgl/src/draw/lv_draw_rect.c **** 
 2425              		.loc 1 618 31 is_stmt 0 view .LVU865
 2426 0616 ADF85280 		strh	r8, [sp, #82]	@ movhi
 620:lvgl/lvgl/src/draw/lv_draw_rect.c ****                     lv_memset(mask_buf, sh_buf_tmp[0], w);
 2427              		.loc 1 620 17 is_stmt 1 view .LVU866
 620:lvgl/lvgl/src/draw/lv_draw_rect.c ****                     lv_memset(mask_buf, sh_buf_tmp[0], w);
 2428              		.loc 1 620 19 is_stmt 0 view .LVU867
 2429 061a 002E     		cmp	r6, #0
 2430 061c C3D0     		beq	.L199
 2431              	.LBB190:
 626:lvgl/lvgl/src/draw/lv_draw_rect.c ****                     _lv_blend_fill(&clip_area_sub, &blend_area, dsc->shadow_color, NULL, LV_DRAW_MA
 2432              		.loc 1 626 21 is_stmt 1 view .LVU868
 626:lvgl/lvgl/src/draw/lv_draw_rect.c ****                     _lv_blend_fill(&clip_area_sub, &blend_area, dsc->shadow_color, NULL, LV_DRAW_MA
 2433              		.loc 1 626 30 is_stmt 0 view .LVU869
 2434 061e FF2F     		cmp	r7, #255
 2435 0620 DFD0     		beq	.L200
 626:lvgl/lvgl/src/draw/lv_draw_rect.c ****                     _lv_blend_fill(&clip_area_sub, &blend_area, dsc->shadow_color, NULL, LV_DRAW_MA
ARM GAS  C:\Users\gx\AppData\Local\Temp\ccP7i1j8.s 			page 83


 2436              		.loc 1 626 90 discriminator 2 view .LVU870
 2437 0622 109B     		ldr	r3, [sp, #64]
 2438 0624 1A78     		ldrb	r2, [r3]	@ zero_extendqisi2
 626:lvgl/lvgl/src/draw/lv_draw_rect.c ****                     _lv_blend_fill(&clip_area_sub, &blend_area, dsc->shadow_color, NULL, LV_DRAW_MA
 2439              		.loc 1 626 99 discriminator 2 view .LVU871
 2440 0626 95F83230 		ldrb	r3, [r5, #50]	@ zero_extendqisi2
 626:lvgl/lvgl/src/draw/lv_draw_rect.c ****                     _lv_blend_fill(&clip_area_sub, &blend_area, dsc->shadow_color, NULL, LV_DRAW_MA
 2441              		.loc 1 626 94 discriminator 2 view .LVU872
 2442 062a 03FB02F3 		mul	r3, r3, r2
 626:lvgl/lvgl/src/draw/lv_draw_rect.c ****                     _lv_blend_fill(&clip_area_sub, &blend_area, dsc->shadow_color, NULL, LV_DRAW_MA
 2443              		.loc 1 626 30 discriminator 2 view .LVU873
 2444 062e 1B0A     		lsrs	r3, r3, #8
 2445 0630 D9E7     		b	.L110
 2446              	.L198:
 626:lvgl/lvgl/src/draw/lv_draw_rect.c ****                     _lv_blend_fill(&clip_area_sub, &blend_area, dsc->shadow_color, NULL, LV_DRAW_MA
 2447              		.loc 1 626 30 discriminator 2 view .LVU874
 2448 0632 0D9E     		ldr	r6, [sp, #52]
 2449 0634 47E6     		b	.L103
 2450              	.LVL229:
 2451              	.L190:
 626:lvgl/lvgl/src/draw/lv_draw_rect.c ****                     _lv_blend_fill(&clip_area_sub, &blend_area, dsc->shadow_color, NULL, LV_DRAW_MA
 2452              		.loc 1 626 30 discriminator 2 view .LVU875
 2453              	.LBE190:
 2454              	.LBE186:
 640:lvgl/lvgl/src/draw/lv_draw_rect.c ****         lv_coord_t w = lv_area_get_width(&clip_area_sub);
 2455              		.loc 1 640 66 discriminator 1 view .LVU876
 2456 0636 BDF91830 		ldrsh	r3, [sp, #24]
 2457 063a 0D93     		str	r3, [sp, #52]
 2458 063c 1A46     		mov	r2, r3
 2459 063e 1CA9     		add	r1, sp, #112
 2460 0640 11A8     		add	r0, sp, #68
 2461 0642 FFF7FEFF 		bl	_lv_area_is_in
 2462              	.LVL230:
 640:lvgl/lvgl/src/draw/lv_draw_rect.c ****         lv_coord_t w = lv_area_get_width(&clip_area_sub);
 2463              		.loc 1 640 62 discriminator 1 view .LVU877
 2464 0646 0028     		cmp	r0, #0
 2465 0648 7FF459AE 		bne	.L112
 2466              	.LBB191:
 641:lvgl/lvgl/src/draw/lv_draw_rect.c ****         sh_buf_tmp = sh_buf;
 2467              		.loc 1 641 9 is_stmt 1 view .LVU878
 2468              	.LVL231:
 2469              	.LBB192:
 2470              	.LBI192:
 133:lvgl/lvgl/src/draw/../misc/lv_area.h **** {
 2471              		.loc 2 133 26 view .LVU879
 2472              	.LBB193:
 135:lvgl/lvgl/src/draw/../misc/lv_area.h **** }
 2473              		.loc 2 135 5 view .LVU880
 135:lvgl/lvgl/src/draw/../misc/lv_area.h **** }
 2474              		.loc 2 135 31 is_stmt 0 view .LVU881
 2475 064c BDF848A0 		ldrh	r10, [sp, #72]
 135:lvgl/lvgl/src/draw/../misc/lv_area.h **** }
 2476              		.loc 2 135 44 view .LVU882
 2477 0650 BDF84430 		ldrh	r3, [sp, #68]
 135:lvgl/lvgl/src/draw/../misc/lv_area.h **** }
 2478              		.loc 2 135 36 view .LVU883
 2479 0654 AAEB030A 		sub	r10, r10, r3
ARM GAS  C:\Users\gx\AppData\Local\Temp\ccP7i1j8.s 			page 84


 2480 0658 1FFA8AFA 		uxth	r10, r10
 135:lvgl/lvgl/src/draw/../misc/lv_area.h **** }
 2481              		.loc 2 135 49 view .LVU884
 2482 065c 0AF1010A 		add	r10, r10, #1
 135:lvgl/lvgl/src/draw/../misc/lv_area.h **** }
 2483              		.loc 2 135 12 view .LVU885
 2484 0660 0FFA8AFA 		sxth	r10, r10
 2485              	.LVL232:
 135:lvgl/lvgl/src/draw/../misc/lv_area.h **** }
 2486              		.loc 2 135 12 view .LVU886
 2487              	.LBE193:
 2488              	.LBE192:
 642:lvgl/lvgl/src/draw/lv_draw_rect.c ****         sh_buf_tmp += (blend_area.y2 - clip_area_sub.y2) * corner_size;
 2489              		.loc 1 642 9 is_stmt 1 view .LVU887
 643:lvgl/lvgl/src/draw/lv_draw_rect.c ****         if(w > 0) {
 2490              		.loc 1 643 9 view .LVU888
 643:lvgl/lvgl/src/draw/lv_draw_rect.c ****         if(w > 0) {
 2491              		.loc 1 643 34 is_stmt 0 view .LVU889
 2492 0664 BDF95230 		ldrsh	r3, [sp, #82]
 643:lvgl/lvgl/src/draw/lv_draw_rect.c ****         if(w > 0) {
 2493              		.loc 1 643 53 view .LVU890
 2494 0668 BDF94A80 		ldrsh	r8, [sp, #74]
 643:lvgl/lvgl/src/draw/lv_draw_rect.c ****         if(w > 0) {
 2495              		.loc 1 643 38 view .LVU891
 2496 066c A3EB0803 		sub	r3, r3, r8
 643:lvgl/lvgl/src/draw/lv_draw_rect.c ****         if(w > 0) {
 2497              		.loc 1 643 20 view .LVU892
 2498 0670 079A     		ldr	r2, [sp, #28]
 2499 0672 04FB0323 		mla	r3, r4, r3, r2
 2500 0676 1093     		str	r3, [sp, #64]
 644:lvgl/lvgl/src/draw/lv_draw_rect.c ****             mask_res = LV_DRAW_MASK_RES_CHANGED;    /*In simple mode it won't be overwritten*/
 2501              		.loc 1 644 9 is_stmt 1 view .LVU893
 644:lvgl/lvgl/src/draw/lv_draw_rect.c ****             mask_res = LV_DRAW_MASK_RES_CHANGED;    /*In simple mode it won't be overwritten*/
 2502              		.loc 1 644 11 is_stmt 0 view .LVU894
 2503 0678 BAF1000F 		cmp	r10, #0
 2504 067c 7FF73FAE 		ble	.L112
 2505 0680 0E96     		str	r6, [sp, #56]
 2506 0682 099E     		ldr	r6, [sp, #36]
 2507 0684 CDF83C90 		str	r9, [sp, #60]
 2508 0688 DDF81490 		ldr	r9, [sp, #20]
 2509              	.LVL233:
 644:lvgl/lvgl/src/draw/lv_draw_rect.c ****             mask_res = LV_DRAW_MASK_RES_CHANGED;    /*In simple mode it won't be overwritten*/
 2510              		.loc 1 644 11 view .LVU895
 2511 068c 39E0     		b	.L113
 2512              	.LVL234:
 2513              	.L203:
 651:lvgl/lvgl/src/draw/lv_draw_rect.c ****                 else simple_sub = simple;
 2514              		.loc 1 651 33 discriminator 1 view .LVU896
 2515 068e 0D9A     		ldr	r2, [sp, #52]
 2516 0690 1CA9     		add	r1, sp, #112
 2517 0692 11A8     		add	r0, sp, #68
 2518 0694 FFF7FEFF 		bl	_lv_area_is_out
 2519              	.LVL235:
 651:lvgl/lvgl/src/draw/lv_draw_rect.c ****                 else simple_sub = simple;
 2520              		.loc 1 651 30 discriminator 1 view .LVU897
 2521 0698 0028     		cmp	r0, #0
 2522 069a 3FD1     		bne	.L115
ARM GAS  C:\Users\gx\AppData\Local\Temp\ccP7i1j8.s 			page 85


 2523 069c 3BE0     		b	.L114
 2524              	.LVL236:
 2525              	.L204:
 655:lvgl/lvgl/src/draw/lv_draw_rect.c ****                     mask_res = lv_draw_mask_apply(mask_buf, clip_area_sub.x1, y, w);
 2526              		.loc 1 655 21 is_stmt 1 view .LVU898
 2527 069e 5246     		mov	r2, r10
 2528 06a0 109B     		ldr	r3, [sp, #64]
 2529 06a2 1978     		ldrb	r1, [r3]	@ zero_extendqisi2
 2530 06a4 1598     		ldr	r0, [sp, #84]
 2531 06a6 FFF7FEFF 		bl	lv_memset
 2532              	.LVL237:
 656:lvgl/lvgl/src/draw/lv_draw_rect.c ****                     if(mask_res == LV_DRAW_MASK_RES_FULL_COVER) mask_res = LV_DRAW_MASK_RES_CHANGED
 2533              		.loc 1 656 21 view .LVU899
 656:lvgl/lvgl/src/draw/lv_draw_rect.c ****                     if(mask_res == LV_DRAW_MASK_RES_FULL_COVER) mask_res = LV_DRAW_MASK_RES_CHANGED
 2534              		.loc 1 656 32 is_stmt 0 view .LVU900
 2535 06aa 5346     		mov	r3, r10
 2536 06ac 4246     		mov	r2, r8
 2537 06ae BDF94410 		ldrsh	r1, [sp, #68]
 2538 06b2 1598     		ldr	r0, [sp, #84]
 2539 06b4 FFF7FEFF 		bl	lv_draw_mask_apply
 2540              	.LVL238:
 657:lvgl/lvgl/src/draw/lv_draw_rect.c ****                     _lv_blend_fill(&clip_area_sub, &blend_area, dsc->shadow_color, mask_buf, mask_r
 2541              		.loc 1 657 21 is_stmt 1 view .LVU901
 657:lvgl/lvgl/src/draw/lv_draw_rect.c ****                     _lv_blend_fill(&clip_area_sub, &blend_area, dsc->shadow_color, mask_buf, mask_r
 2542              		.loc 1 657 23 is_stmt 0 view .LVU902
 2543 06b8 0128     		cmp	r0, #1
 2544 06ba 0CD0     		beq	.L201
 2545              	.LVL239:
 2546              	.L116:
 658:lvgl/lvgl/src/draw/lv_draw_rect.c ****                 } else {
 2547              		.loc 1 658 21 is_stmt 1 view .LVU903
 2548 06bc AB78     		ldrb	r3, [r5, #2]	@ zero_extendqisi2
 2549 06be 0293     		str	r3, [sp, #8]
 2550 06c0 95F83230 		ldrb	r3, [r5, #50]	@ zero_extendqisi2
 2551 06c4 0193     		str	r3, [sp, #4]
 2552 06c6 0090     		str	r0, [sp]
 2553 06c8 159B     		ldr	r3, [sp, #84]
 2554 06ca 2A8D     		ldrh	r2, [r5, #40]
 2555 06cc 13A9     		add	r1, sp, #76
 2556 06ce 11A8     		add	r0, sp, #68
 2557              	.LVL240:
 658:lvgl/lvgl/src/draw/lv_draw_rect.c ****                 } else {
 2558              		.loc 1 658 21 is_stmt 0 view .LVU904
 2559 06d0 FFF7FEFF 		bl	_lv_blend_fill
 2560              	.LVL241:
 2561 06d4 0EE0     		b	.L117
 2562              	.LVL242:
 2563              	.L201:
 657:lvgl/lvgl/src/draw/lv_draw_rect.c ****                     _lv_blend_fill(&clip_area_sub, &blend_area, dsc->shadow_color, mask_buf, mask_r
 2564              		.loc 1 657 74 view .LVU905
 2565 06d6 0220     		movs	r0, #2
 2566              	.LVL243:
 657:lvgl/lvgl/src/draw/lv_draw_rect.c ****                     _lv_blend_fill(&clip_area_sub, &blend_area, dsc->shadow_color, mask_buf, mask_r
 2567              		.loc 1 657 74 view .LVU906
 2568 06d8 F0E7     		b	.L116
 2569              	.LVL244:
 2570              	.L205:
ARM GAS  C:\Users\gx\AppData\Local\Temp\ccP7i1j8.s 			page 86


 2571              	.LBB194:
 660:lvgl/lvgl/src/draw/lv_draw_rect.c ****                     _lv_blend_fill(&clip_area_sub, &blend_area, dsc->shadow_color, NULL, LV_DRAW_MA
 2572              		.loc 1 660 73 discriminator 1 view .LVU907
 2573 06da 109B     		ldr	r3, [sp, #64]
 660:lvgl/lvgl/src/draw/lv_draw_rect.c ****                     _lv_blend_fill(&clip_area_sub, &blend_area, dsc->shadow_color, NULL, LV_DRAW_MA
 2574              		.loc 1 660 30 discriminator 1 view .LVU908
 2575 06dc 1B78     		ldrb	r3, [r3]	@ zero_extendqisi2
 2576              	.L119:
 2577              	.LVL245:
 661:lvgl/lvgl/src/draw/lv_draw_rect.c **** 
 2578              		.loc 1 661 21 is_stmt 1 discriminator 4 view .LVU909
 2579 06de AA78     		ldrb	r2, [r5, #2]	@ zero_extendqisi2
 2580 06e0 0292     		str	r2, [sp, #8]
 2581 06e2 0193     		str	r3, [sp, #4]
 2582 06e4 0123     		movs	r3, #1
 2583              	.LVL246:
 661:lvgl/lvgl/src/draw/lv_draw_rect.c **** 
 2584              		.loc 1 661 21 is_stmt 0 discriminator 4 view .LVU910
 2585 06e6 0093     		str	r3, [sp]
 2586 06e8 0023     		movs	r3, #0
 2587 06ea 2A8D     		ldrh	r2, [r5, #40]
 2588 06ec 13A9     		add	r1, sp, #76
 2589 06ee 11A8     		add	r0, sp, #68
 2590 06f0 FFF7FEFF 		bl	_lv_blend_fill
 2591              	.LVL247:
 2592              	.L117:
 661:lvgl/lvgl/src/draw/lv_draw_rect.c **** 
 2593              		.loc 1 661 21 discriminator 4 view .LVU911
 2594              	.LBE194:
 664:lvgl/lvgl/src/draw/lv_draw_rect.c ****             }
 2595              		.loc 1 664 17 is_stmt 1 discriminator 2 view .LVU912
 664:lvgl/lvgl/src/draw/lv_draw_rect.c ****             }
 2596              		.loc 1 664 28 is_stmt 0 discriminator 2 view .LVU913
 2597 06f4 109B     		ldr	r3, [sp, #64]
 2598 06f6 2344     		add	r3, r3, r4
 2599 06f8 1093     		str	r3, [sp, #64]
 646:lvgl/lvgl/src/draw/lv_draw_rect.c ****                 blend_area.y1 = y;
 2600              		.loc 1 646 62 is_stmt 1 discriminator 2 view .LVU914
 646:lvgl/lvgl/src/draw/lv_draw_rect.c ****                 blend_area.y1 = y;
 2601              		.loc 1 646 63 is_stmt 0 discriminator 2 view .LVU915
 2602 06fa 08F1FF38 		add	r8, r8, #-1
 2603              	.LVL248:
 646:lvgl/lvgl/src/draw/lv_draw_rect.c ****                 blend_area.y1 = y;
 2604              		.loc 1 646 63 discriminator 2 view .LVU916
 2605 06fe 0FFA88F8 		sxth	r8, r8
 2606              	.LVL249:
 2607              	.L113:
 646:lvgl/lvgl/src/draw/lv_draw_rect.c ****                 blend_area.y1 = y;
 2608              		.loc 1 646 39 is_stmt 1 discriminator 1 view .LVU917
 646:lvgl/lvgl/src/draw/lv_draw_rect.c ****                 blend_area.y1 = y;
 2609              		.loc 1 646 57 is_stmt 0 discriminator 1 view .LVU918
 2610 0702 BDF94630 		ldrsh	r3, [sp, #70]
 646:lvgl/lvgl/src/draw/lv_draw_rect.c ****                 blend_area.y1 = y;
 2611              		.loc 1 646 13 discriminator 1 view .LVU919
 2612 0706 4345     		cmp	r3, r8
 2613 0708 12DC     		bgt	.L202
 647:lvgl/lvgl/src/draw/lv_draw_rect.c ****                 blend_area.y2 = y;
ARM GAS  C:\Users\gx\AppData\Local\Temp\ccP7i1j8.s 			page 87


 2614              		.loc 1 647 17 is_stmt 1 view .LVU920
 647:lvgl/lvgl/src/draw/lv_draw_rect.c ****                 blend_area.y2 = y;
 2615              		.loc 1 647 31 is_stmt 0 view .LVU921
 2616 070a ADF84E80 		strh	r8, [sp, #78]	@ movhi
 648:lvgl/lvgl/src/draw/lv_draw_rect.c **** 
 2617              		.loc 1 648 17 is_stmt 1 view .LVU922
 648:lvgl/lvgl/src/draw/lv_draw_rect.c **** 
 2618              		.loc 1 648 31 is_stmt 0 view .LVU923
 2619 070e ADF85280 		strh	r8, [sp, #82]	@ movhi
 651:lvgl/lvgl/src/draw/lv_draw_rect.c ****                 else simple_sub = simple;
 2620              		.loc 1 651 17 is_stmt 1 view .LVU924
 651:lvgl/lvgl/src/draw/lv_draw_rect.c ****                 else simple_sub = simple;
 2621              		.loc 1 651 19 is_stmt 0 view .LVU925
 2622 0712 002E     		cmp	r6, #0
 2623 0714 BBD0     		beq	.L203
 2624              	.L114:
 652:lvgl/lvgl/src/draw/lv_draw_rect.c **** 
 2625              		.loc 1 652 22 is_stmt 1 view .LVU926
 2626              	.LVL250:
 654:lvgl/lvgl/src/draw/lv_draw_rect.c ****                     lv_memset(mask_buf, sh_buf_tmp[0], w);
 2627              		.loc 1 654 17 view .LVU927
 654:lvgl/lvgl/src/draw/lv_draw_rect.c ****                     lv_memset(mask_buf, sh_buf_tmp[0], w);
 2628              		.loc 1 654 19 is_stmt 0 view .LVU928
 2629 0716 B9F1000F 		cmp	r9, #0
 2630 071a C0D0     		beq	.L204
 2631              	.LVL251:
 2632              	.L115:
 2633              	.LBB195:
 660:lvgl/lvgl/src/draw/lv_draw_rect.c ****                     _lv_blend_fill(&clip_area_sub, &blend_area, dsc->shadow_color, NULL, LV_DRAW_MA
 2634              		.loc 1 660 21 is_stmt 1 view .LVU929
 660:lvgl/lvgl/src/draw/lv_draw_rect.c ****                     _lv_blend_fill(&clip_area_sub, &blend_area, dsc->shadow_color, NULL, LV_DRAW_MA
 2635              		.loc 1 660 30 is_stmt 0 view .LVU930
 2636 071c FF2F     		cmp	r7, #255
 2637 071e DCD0     		beq	.L205
 660:lvgl/lvgl/src/draw/lv_draw_rect.c ****                     _lv_blend_fill(&clip_area_sub, &blend_area, dsc->shadow_color, NULL, LV_DRAW_MA
 2638              		.loc 1 660 90 discriminator 2 view .LVU931
 2639 0720 109B     		ldr	r3, [sp, #64]
 2640 0722 1A78     		ldrb	r2, [r3]	@ zero_extendqisi2
 660:lvgl/lvgl/src/draw/lv_draw_rect.c ****                     _lv_blend_fill(&clip_area_sub, &blend_area, dsc->shadow_color, NULL, LV_DRAW_MA
 2641              		.loc 1 660 99 discriminator 2 view .LVU932
 2642 0724 95F83230 		ldrb	r3, [r5, #50]	@ zero_extendqisi2
 660:lvgl/lvgl/src/draw/lv_draw_rect.c ****                     _lv_blend_fill(&clip_area_sub, &blend_area, dsc->shadow_color, NULL, LV_DRAW_MA
 2643              		.loc 1 660 94 discriminator 2 view .LVU933
 2644 0728 03FB02F3 		mul	r3, r3, r2
 660:lvgl/lvgl/src/draw/lv_draw_rect.c ****                     _lv_blend_fill(&clip_area_sub, &blend_area, dsc->shadow_color, NULL, LV_DRAW_MA
 2645              		.loc 1 660 30 discriminator 2 view .LVU934
 2646 072c 1B0A     		lsrs	r3, r3, #8
 2647 072e D6E7     		b	.L119
 2648              	.L202:
 660:lvgl/lvgl/src/draw/lv_draw_rect.c ****                     _lv_blend_fill(&clip_area_sub, &blend_area, dsc->shadow_color, NULL, LV_DRAW_MA
 2649              		.loc 1 660 30 discriminator 2 view .LVU935
 2650 0730 0E9E     		ldr	r6, [sp, #56]
 2651 0732 DDF83C90 		ldr	r9, [sp, #60]
 2652 0736 E2E5     		b	.L112
 2653              	.LVL252:
 2654              	.L191:
 660:lvgl/lvgl/src/draw/lv_draw_rect.c ****                     _lv_blend_fill(&clip_area_sub, &blend_area, dsc->shadow_color, NULL, LV_DRAW_MA
ARM GAS  C:\Users\gx\AppData\Local\Temp\ccP7i1j8.s 			page 88


 2655              		.loc 1 660 30 discriminator 2 view .LVU936
 2656              	.LBE195:
 2657              	.LBE191:
 678:lvgl/lvgl/src/draw/lv_draw_rect.c ****         lv_coord_t w = lv_area_get_width(&clip_area_sub);
 2658              		.loc 1 678 66 discriminator 1 view .LVU937
 2659 0738 BDF91870 		ldrsh	r7, [sp, #24]
 2660 073c 3A46     		mov	r2, r7
 2661 073e 1CA9     		add	r1, sp, #112
 2662 0740 11A8     		add	r0, sp, #68
 2663 0742 FFF7FEFF 		bl	_lv_area_is_in
 2664              	.LVL253:
 678:lvgl/lvgl/src/draw/lv_draw_rect.c ****         lv_coord_t w = lv_area_get_width(&clip_area_sub);
 2665              		.loc 1 678 62 discriminator 1 view .LVU938
 2666 0746 0028     		cmp	r0, #0
 2667 0748 7FF400AE 		bne	.L122
 2668              	.LBB196:
 679:lvgl/lvgl/src/draw/lv_draw_rect.c ****         sh_buf_tmp = sh_buf;
 2669              		.loc 1 679 9 is_stmt 1 view .LVU939
 2670              	.LVL254:
 2671              	.LBB197:
 2672              	.LBI197:
 133:lvgl/lvgl/src/draw/../misc/lv_area.h **** {
 2673              		.loc 2 133 26 view .LVU940
 2674              	.LBB198:
 135:lvgl/lvgl/src/draw/../misc/lv_area.h **** }
 2675              		.loc 2 135 5 view .LVU941
 135:lvgl/lvgl/src/draw/../misc/lv_area.h **** }
 2676              		.loc 2 135 31 is_stmt 0 view .LVU942
 2677 074c BDF84830 		ldrh	r3, [sp, #72]
 135:lvgl/lvgl/src/draw/../misc/lv_area.h **** }
 2678              		.loc 2 135 44 view .LVU943
 2679 0750 BDF94420 		ldrsh	r2, [sp, #68]
 2680 0754 91B2     		uxth	r1, r2
 135:lvgl/lvgl/src/draw/../misc/lv_area.h **** }
 2681              		.loc 2 135 36 view .LVU944
 2682 0756 5B1A     		subs	r3, r3, r1
 2683 0758 9BB2     		uxth	r3, r3
 135:lvgl/lvgl/src/draw/../misc/lv_area.h **** }
 2684              		.loc 2 135 49 view .LVU945
 2685 075a 0133     		adds	r3, r3, #1
 135:lvgl/lvgl/src/draw/../misc/lv_area.h **** }
 2686              		.loc 2 135 12 view .LVU946
 2687 075c 1BB2     		sxth	r3, r3
 2688 075e 9846     		mov	r8, r3
 2689              	.LVL255:
 135:lvgl/lvgl/src/draw/../misc/lv_area.h **** }
 2690              		.loc 2 135 12 view .LVU947
 2691              	.LBE198:
 2692              	.LBE197:
 680:lvgl/lvgl/src/draw/lv_draw_rect.c ****         sh_buf_tmp += (corner_size - 1) * corner_size;
 2693              		.loc 1 680 9 is_stmt 1 view .LVU948
 681:lvgl/lvgl/src/draw/lv_draw_rect.c ****         sh_buf_tmp += clip_area_sub.x1 - blend_area.x1;
 2694              		.loc 1 681 9 view .LVU949
 681:lvgl/lvgl/src/draw/lv_draw_rect.c ****         sh_buf_tmp += clip_area_sub.x1 - blend_area.x1;
 2695              		.loc 1 681 36 is_stmt 0 view .LVU950
 2696 0760 631E     		subs	r3, r4, #1
 681:lvgl/lvgl/src/draw/lv_draw_rect.c ****         sh_buf_tmp += clip_area_sub.x1 - blend_area.x1;
ARM GAS  C:\Users\gx\AppData\Local\Temp\ccP7i1j8.s 			page 89


 2697              		.loc 1 681 20 view .LVU951
 2698 0762 0799     		ldr	r1, [sp, #28]
 2699 0764 04FB0313 		mla	r3, r4, r3, r1
 682:lvgl/lvgl/src/draw/lv_draw_rect.c **** 
 2700              		.loc 1 682 9 is_stmt 1 view .LVU952
 682:lvgl/lvgl/src/draw/lv_draw_rect.c **** 
 2701              		.loc 1 682 52 is_stmt 0 view .LVU953
 2702 0768 BDF94C10 		ldrsh	r1, [sp, #76]
 682:lvgl/lvgl/src/draw/lv_draw_rect.c **** 
 2703              		.loc 1 682 40 view .LVU954
 2704 076c 521A     		subs	r2, r2, r1
 682:lvgl/lvgl/src/draw/lv_draw_rect.c **** 
 2705              		.loc 1 682 20 view .LVU955
 2706 076e 1344     		add	r3, r3, r2
 2707 0770 1093     		str	r3, [sp, #64]
 685:lvgl/lvgl/src/draw/lv_draw_rect.c ****         else simple_sub = simple;
 2708              		.loc 1 685 9 is_stmt 1 view .LVU956
 685:lvgl/lvgl/src/draw/lv_draw_rect.c ****         else simple_sub = simple;
 2709              		.loc 1 685 11 is_stmt 0 view .LVU957
 2710 0772 099B     		ldr	r3, [sp, #36]
 2711 0774 93B1     		cbz	r3, .L206
 2712              	.L123:
 686:lvgl/lvgl/src/draw/lv_draw_rect.c ****         mask_act = simple_sub ? &sh_buf_tmp : &mask_buf;
 2713              		.loc 1 686 14 is_stmt 1 view .LVU958
 2714              	.LVL256:
 687:lvgl/lvgl/src/draw/lv_draw_rect.c **** 
 2715              		.loc 1 687 9 view .LVU959
 687:lvgl/lvgl/src/draw/lv_draw_rect.c **** 
 2716              		.loc 1 687 45 is_stmt 0 view .LVU960
 2717 0776 059B     		ldr	r3, [sp, #20]
 2718 0778 DBB1     		cbz	r3, .L169
 2719 077a 1A46     		mov	r2, r3
 2720 077c 0DF1400A 		add	r10, sp, #64
 2721              	.LVL257:
 2722              	.L124:
 689:lvgl/lvgl/src/draw/lv_draw_rect.c ****             mask_res = LV_DRAW_MASK_RES_CHANGED;    /*In simple mode it won't be overwritten*/
 2723              		.loc 1 689 9 is_stmt 1 discriminator 4 view .LVU961
 689:lvgl/lvgl/src/draw/lv_draw_rect.c ****             mask_res = LV_DRAW_MASK_RES_CHANGED;    /*In simple mode it won't be overwritten*/
 2724              		.loc 1 689 11 is_stmt 0 discriminator 4 view .LVU962
 2725 0780 4346     		mov	r3, r8
 2726 0782 002B     		cmp	r3, #0
 2727 0784 7FF7E2AD 		ble	.L122
 690:lvgl/lvgl/src/draw/lv_draw_rect.c ****             for(y = clip_area_sub.y1; y <= clip_area_sub.y2; y++) {
 2728              		.loc 1 690 13 is_stmt 1 view .LVU963
 2729              	.LVL258:
 691:lvgl/lvgl/src/draw/lv_draw_rect.c ****                 blend_area.y1 = y;
 2730              		.loc 1 691 13 view .LVU964
 691:lvgl/lvgl/src/draw/lv_draw_rect.c ****                 blend_area.y1 = y;
 2731              		.loc 1 691 19 is_stmt 0 view .LVU965
 2732 0788 BDF94670 		ldrsh	r7, [sp, #70]
 2733              	.LVL259:
 690:lvgl/lvgl/src/draw/lv_draw_rect.c ****             for(y = clip_area_sub.y1; y <= clip_area_sub.y2; y++) {
 2734              		.loc 1 690 22 view .LVU966
 2735 078c 4FF00208 		mov	r8, #2
 2736              	.LVL260:
 690:lvgl/lvgl/src/draw/lv_draw_rect.c ****             for(y = clip_area_sub.y1; y <= clip_area_sub.y2; y++) {
 2737              		.loc 1 690 22 view .LVU967
ARM GAS  C:\Users\gx\AppData\Local\Temp\ccP7i1j8.s 			page 90


 2738 0790 0D96     		str	r6, [sp, #52]
 2739 0792 4646     		mov	r6, r8
 2740 0794 0E94     		str	r4, [sp, #56]
 2741 0796 1446     		mov	r4, r2
 2742              	.LVL261:
 690:lvgl/lvgl/src/draw/lv_draw_rect.c ****             for(y = clip_area_sub.y1; y <= clip_area_sub.y2; y++) {
 2743              		.loc 1 690 22 view .LVU968
 2744 0798 9846     		mov	r8, r3
 691:lvgl/lvgl/src/draw/lv_draw_rect.c ****                 blend_area.y1 = y;
 2745              		.loc 1 691 13 view .LVU969
 2746 079a 1EE0     		b	.L125
 2747              	.LVL262:
 2748              	.L206:
 685:lvgl/lvgl/src/draw/lv_draw_rect.c ****         else simple_sub = simple;
 2749              		.loc 1 685 25 discriminator 1 view .LVU970
 2750 079c 3A46     		mov	r2, r7
 2751 079e 1CA9     		add	r1, sp, #112
 2752 07a0 11A8     		add	r0, sp, #68
 2753 07a2 FFF7FEFF 		bl	_lv_area_is_out
 2754              	.LVL263:
 685:lvgl/lvgl/src/draw/lv_draw_rect.c ****         else simple_sub = simple;
 2755              		.loc 1 685 22 discriminator 1 view .LVU971
 2756 07a6 0246     		mov	r2, r0
 2757 07a8 0028     		cmp	r0, #0
 2758 07aa E4D0     		beq	.L123
 687:lvgl/lvgl/src/draw/lv_draw_rect.c **** 
 2759              		.loc 1 687 45 view .LVU972
 2760 07ac 0DF1400A 		add	r10, sp, #64
 2761 07b0 E6E7     		b	.L124
 2762              	.LVL264:
 2763              	.L169:
 687:lvgl/lvgl/src/draw/lv_draw_rect.c **** 
 2764              		.loc 1 687 45 view .LVU973
 2765 07b2 059B     		ldr	r3, [sp, #20]
 2766 07b4 1A46     		mov	r2, r3
 2767 07b6 0DF1540A 		add	r10, sp, #84
 2768 07ba E1E7     		b	.L124
 2769              	.LVL265:
 2770              	.L126:
 700:lvgl/lvgl/src/draw/lv_draw_rect.c ****             }
 2771              		.loc 1 700 17 is_stmt 1 discriminator 2 view .LVU974
 2772 07bc AB78     		ldrb	r3, [r5, #2]	@ zero_extendqisi2
 2773 07be 0293     		str	r3, [sp, #8]
 2774 07c0 95F83230 		ldrb	r3, [r5, #50]	@ zero_extendqisi2
 2775 07c4 0193     		str	r3, [sp, #4]
 2776 07c6 0096     		str	r6, [sp]
 2777 07c8 DAF80030 		ldr	r3, [r10]
 2778 07cc 2A8D     		ldrh	r2, [r5, #40]
 2779 07ce 13A9     		add	r1, sp, #76
 2780 07d0 11A8     		add	r0, sp, #68
 2781 07d2 FFF7FEFF 		bl	_lv_blend_fill
 2782              	.LVL266:
 691:lvgl/lvgl/src/draw/lv_draw_rect.c ****                 blend_area.y1 = y;
 2783              		.loc 1 691 62 discriminator 2 view .LVU975
 691:lvgl/lvgl/src/draw/lv_draw_rect.c ****                 blend_area.y1 = y;
 2784              		.loc 1 691 63 is_stmt 0 discriminator 2 view .LVU976
 2785 07d6 0137     		adds	r7, r7, #1
ARM GAS  C:\Users\gx\AppData\Local\Temp\ccP7i1j8.s 			page 91


 2786              	.LVL267:
 691:lvgl/lvgl/src/draw/lv_draw_rect.c ****                 blend_area.y1 = y;
 2787              		.loc 1 691 63 discriminator 2 view .LVU977
 2788 07d8 3FB2     		sxth	r7, r7
 2789              	.LVL268:
 2790              	.L125:
 691:lvgl/lvgl/src/draw/lv_draw_rect.c ****                 blend_area.y1 = y;
 2791              		.loc 1 691 39 is_stmt 1 discriminator 1 view .LVU978
 691:lvgl/lvgl/src/draw/lv_draw_rect.c ****                 blend_area.y1 = y;
 2792              		.loc 1 691 57 is_stmt 0 discriminator 1 view .LVU979
 2793 07da BDF94A30 		ldrsh	r3, [sp, #74]
 691:lvgl/lvgl/src/draw/lv_draw_rect.c ****                 blend_area.y1 = y;
 2794              		.loc 1 691 13 discriminator 1 view .LVU980
 2795 07de BB42     		cmp	r3, r7
 2796 07e0 16DB     		blt	.L207
 692:lvgl/lvgl/src/draw/lv_draw_rect.c ****                 blend_area.y2 = y;
 2797              		.loc 1 692 17 is_stmt 1 view .LVU981
 692:lvgl/lvgl/src/draw/lv_draw_rect.c ****                 blend_area.y2 = y;
 2798              		.loc 1 692 31 is_stmt 0 view .LVU982
 2799 07e2 ADF84E70 		strh	r7, [sp, #78]	@ movhi
 693:lvgl/lvgl/src/draw/lv_draw_rect.c **** 
 2800              		.loc 1 693 17 is_stmt 1 view .LVU983
 693:lvgl/lvgl/src/draw/lv_draw_rect.c **** 
 2801              		.loc 1 693 31 is_stmt 0 view .LVU984
 2802 07e6 ADF85270 		strh	r7, [sp, #82]	@ movhi
 695:lvgl/lvgl/src/draw/lv_draw_rect.c ****                     lv_memcpy(mask_buf, sh_buf_tmp, w);
 2803              		.loc 1 695 17 is_stmt 1 view .LVU985
 695:lvgl/lvgl/src/draw/lv_draw_rect.c ****                     lv_memcpy(mask_buf, sh_buf_tmp, w);
 2804              		.loc 1 695 19 is_stmt 0 view .LVU986
 2805 07ea 002C     		cmp	r4, #0
 2806 07ec E6D1     		bne	.L126
 696:lvgl/lvgl/src/draw/lv_draw_rect.c ****                     mask_res = lv_draw_mask_apply(mask_buf, clip_area_sub.x1, y, w);
 2807              		.loc 1 696 21 is_stmt 1 view .LVU987
 2808 07ee 4246     		mov	r2, r8
 2809 07f0 1099     		ldr	r1, [sp, #64]
 2810 07f2 1598     		ldr	r0, [sp, #84]
 2811 07f4 FFF7FEFF 		bl	lv_memcpy
 2812              	.LVL269:
 697:lvgl/lvgl/src/draw/lv_draw_rect.c ****                     if(mask_res == LV_DRAW_MASK_RES_FULL_COVER) mask_res = LV_DRAW_MASK_RES_CHANGED
 2813              		.loc 1 697 21 view .LVU988
 697:lvgl/lvgl/src/draw/lv_draw_rect.c ****                     if(mask_res == LV_DRAW_MASK_RES_FULL_COVER) mask_res = LV_DRAW_MASK_RES_CHANGED
 2814              		.loc 1 697 32 is_stmt 0 view .LVU989
 2815 07f8 4346     		mov	r3, r8
 2816 07fa 3A46     		mov	r2, r7
 2817 07fc BDF94410 		ldrsh	r1, [sp, #68]
 2818 0800 1598     		ldr	r0, [sp, #84]
 2819 0802 FFF7FEFF 		bl	lv_draw_mask_apply
 2820              	.LVL270:
 2821 0806 0646     		mov	r6, r0
 2822              	.LVL271:
 698:lvgl/lvgl/src/draw/lv_draw_rect.c ****                 }
 2823              		.loc 1 698 21 is_stmt 1 view .LVU990
 698:lvgl/lvgl/src/draw/lv_draw_rect.c ****                 }
 2824              		.loc 1 698 23 is_stmt 0 view .LVU991
 2825 0808 0128     		cmp	r0, #1
 2826 080a D7D1     		bne	.L126
 698:lvgl/lvgl/src/draw/lv_draw_rect.c ****                 }
ARM GAS  C:\Users\gx\AppData\Local\Temp\ccP7i1j8.s 			page 92


 2827              		.loc 1 698 74 view .LVU992
 2828 080c 0226     		movs	r6, #2
 2829 080e D5E7     		b	.L126
 2830              	.LVL272:
 2831              	.L207:
 698:lvgl/lvgl/src/draw/lv_draw_rect.c ****                 }
 2832              		.loc 1 698 74 view .LVU993
 2833 0810 0D9E     		ldr	r6, [sp, #52]
 2834              	.LVL273:
 698:lvgl/lvgl/src/draw/lv_draw_rect.c ****                 }
 2835              		.loc 1 698 74 view .LVU994
 2836 0812 0E9C     		ldr	r4, [sp, #56]
 2837 0814 9AE5     		b	.L122
 2838              	.LVL274:
 2839              	.L130:
 698:lvgl/lvgl/src/draw/lv_draw_rect.c ****                 }
 2840              		.loc 1 698 74 view .LVU995
 2841              	.LBE196:
 2842              	.LBB199:
 2843              	.LBB200:
 712:lvgl/lvgl/src/draw/lv_draw_rect.c ****             *start = *end;
 2844              		.loc 1 712 13 is_stmt 1 discriminator 3 view .LVU996
 712:lvgl/lvgl/src/draw/lv_draw_rect.c ****             *start = *end;
 2845              		.loc 1 712 22 is_stmt 0 discriminator 3 view .LVU997
 2846 0816 0878     		ldrb	r0, [r1]	@ zero_extendqisi2
 2847              	.LVL275:
 713:lvgl/lvgl/src/draw/lv_draw_rect.c ****             *end = tmp;
 2848              		.loc 1 713 13 is_stmt 1 discriminator 3 view .LVU998
 713:lvgl/lvgl/src/draw/lv_draw_rect.c ****             *end = tmp;
 2849              		.loc 1 713 22 is_stmt 0 discriminator 3 view .LVU999
 2850 0818 93F800C0 		ldrb	ip, [r3]	@ zero_extendqisi2
 713:lvgl/lvgl/src/draw/lv_draw_rect.c ****             *end = tmp;
 2851              		.loc 1 713 20 discriminator 3 view .LVU1000
 2852 081c 01F801CB 		strb	ip, [r1], #1
 2853              	.LVL276:
 714:lvgl/lvgl/src/draw/lv_draw_rect.c **** 
 2854              		.loc 1 714 13 is_stmt 1 discriminator 3 view .LVU1001
 714:lvgl/lvgl/src/draw/lv_draw_rect.c **** 
 2855              		.loc 1 714 18 is_stmt 0 discriminator 3 view .LVU1002
 2856 0820 03F80109 		strb	r0, [r3], #-1
 2857              	.LVL277:
 716:lvgl/lvgl/src/draw/lv_draw_rect.c ****             end--;
 2858              		.loc 1 716 13 is_stmt 1 discriminator 3 view .LVU1003
 717:lvgl/lvgl/src/draw/lv_draw_rect.c ****         }
 2859              		.loc 1 717 13 discriminator 3 view .LVU1004
 717:lvgl/lvgl/src/draw/lv_draw_rect.c ****         }
 2860              		.loc 1 717 13 is_stmt 0 discriminator 3 view .LVU1005
 2861              	.LBE200:
 711:lvgl/lvgl/src/draw/lv_draw_rect.c ****             lv_opa_t tmp = *start;
 2862              		.loc 1 711 41 is_stmt 1 discriminator 3 view .LVU1006
 711:lvgl/lvgl/src/draw/lv_draw_rect.c ****             lv_opa_t tmp = *start;
 2863              		.loc 1 711 42 is_stmt 0 discriminator 3 view .LVU1007
 2864 0824 0132     		adds	r2, r2, #1
 2865              	.LVL278:
 2866              	.L129:
 711:lvgl/lvgl/src/draw/lv_draw_rect.c ****             lv_opa_t tmp = *start;
 2867              		.loc 1 711 20 is_stmt 1 discriminator 1 view .LVU1008
ARM GAS  C:\Users\gx\AppData\Local\Temp\ccP7i1j8.s 			page 93


 711:lvgl/lvgl/src/draw/lv_draw_rect.c ****             lv_opa_t tmp = *start;
 2868              		.loc 1 711 36 is_stmt 0 discriminator 1 view .LVU1009
 2869 0826 04EBD470 		add	r0, r4, r4, lsr #31
 711:lvgl/lvgl/src/draw/lv_draw_rect.c ****             lv_opa_t tmp = *start;
 2870              		.loc 1 711 9 discriminator 1 view .LVU1010
 2871 082a B2EB600F 		cmp	r2, r0, asr #1
 2872 082e F2DB     		blt	.L130
 719:lvgl/lvgl/src/draw/lv_draw_rect.c ****     }
 2873              		.loc 1 719 9 is_stmt 1 discriminator 2 view .LVU1011
 719:lvgl/lvgl/src/draw/lv_draw_rect.c ****     }
 2874              		.loc 1 719 20 is_stmt 0 discriminator 2 view .LVU1012
 2875 0830 109B     		ldr	r3, [sp, #64]
 2876              	.LVL279:
 719:lvgl/lvgl/src/draw/lv_draw_rect.c ****     }
 2877              		.loc 1 719 20 discriminator 2 view .LVU1013
 2878 0832 2344     		add	r3, r3, r4
 2879 0834 1093     		str	r3, [sp, #64]
 2880              	.LBE199:
 707:lvgl/lvgl/src/draw/lv_draw_rect.c ****         int32_t x;
 2881              		.loc 1 707 33 is_stmt 1 discriminator 2 view .LVU1014
 707:lvgl/lvgl/src/draw/lv_draw_rect.c ****         int32_t x;
 2882              		.loc 1 707 34 is_stmt 0 discriminator 2 view .LVU1015
 2883 0836 0137     		adds	r7, r7, #1
 2884              	.LVL280:
 707:lvgl/lvgl/src/draw/lv_draw_rect.c ****         int32_t x;
 2885              		.loc 1 707 34 discriminator 2 view .LVU1016
 2886 0838 3FB2     		sxth	r7, r7
 2887              	.LVL281:
 2888              	.L128:
 707:lvgl/lvgl/src/draw/lv_draw_rect.c ****         int32_t x;
 2889              		.loc 1 707 16 is_stmt 1 discriminator 1 view .LVU1017
 707:lvgl/lvgl/src/draw/lv_draw_rect.c ****         int32_t x;
 2890              		.loc 1 707 5 is_stmt 0 discriminator 1 view .LVU1018
 2891 083a A742     		cmp	r7, r4
 2892 083c 04DA     		bge	.L208
 2893              	.LBB201:
 708:lvgl/lvgl/src/draw/lv_draw_rect.c ****         lv_opa_t * start = sh_buf_tmp;
 2894              		.loc 1 708 9 is_stmt 1 view .LVU1019
 709:lvgl/lvgl/src/draw/lv_draw_rect.c ****         lv_opa_t * end = sh_buf_tmp + corner_size - 1;
 2895              		.loc 1 709 9 view .LVU1020
 709:lvgl/lvgl/src/draw/lv_draw_rect.c ****         lv_opa_t * end = sh_buf_tmp + corner_size - 1;
 2896              		.loc 1 709 20 is_stmt 0 view .LVU1021
 2897 083e 1099     		ldr	r1, [sp, #64]
 2898              	.LVL282:
 710:lvgl/lvgl/src/draw/lv_draw_rect.c ****         for(x = 0; x < corner_size / 2; x++) {
 2899              		.loc 1 710 9 is_stmt 1 view .LVU1022
 710:lvgl/lvgl/src/draw/lv_draw_rect.c ****         for(x = 0; x < corner_size / 2; x++) {
 2900              		.loc 1 710 51 is_stmt 0 view .LVU1023
 2901 0840 631E     		subs	r3, r4, #1
 710:lvgl/lvgl/src/draw/lv_draw_rect.c ****         for(x = 0; x < corner_size / 2; x++) {
 2902              		.loc 1 710 20 view .LVU1024
 2903 0842 0B44     		add	r3, r3, r1
 2904              	.LVL283:
 711:lvgl/lvgl/src/draw/lv_draw_rect.c ****             lv_opa_t tmp = *start;
 2905              		.loc 1 711 9 is_stmt 1 view .LVU1025
 711:lvgl/lvgl/src/draw/lv_draw_rect.c ****             lv_opa_t tmp = *start;
 2906              		.loc 1 711 15 is_stmt 0 view .LVU1026
ARM GAS  C:\Users\gx\AppData\Local\Temp\ccP7i1j8.s 			page 94


 2907 0844 0022     		movs	r2, #0
 711:lvgl/lvgl/src/draw/lv_draw_rect.c ****             lv_opa_t tmp = *start;
 2908              		.loc 1 711 9 view .LVU1027
 2909 0846 EEE7     		b	.L129
 2910              	.LVL284:
 2911              	.L208:
 711:lvgl/lvgl/src/draw/lv_draw_rect.c ****             lv_opa_t tmp = *start;
 2912              		.loc 1 711 9 view .LVU1028
 2913              	.LBE201:
 724:lvgl/lvgl/src/draw/lv_draw_rect.c ****     blend_area.x2 = shadow_area.x1 + corner_size - 1;
 2914              		.loc 1 724 5 is_stmt 1 view .LVU1029
 724:lvgl/lvgl/src/draw/lv_draw_rect.c ****     blend_area.x2 = shadow_area.x1 + corner_size - 1;
 2915              		.loc 1 724 32 is_stmt 0 view .LVU1030
 2916 0848 BDF98030 		ldrsh	r3, [sp, #128]
 724:lvgl/lvgl/src/draw/lv_draw_rect.c ****     blend_area.x2 = shadow_area.x1 + corner_size - 1;
 2917              		.loc 1 724 19 view .LVU1031
 2918 084c ADF84C30 		strh	r3, [sp, #76]	@ movhi
 725:lvgl/lvgl/src/draw/lv_draw_rect.c ****     blend_area.y1 = shadow_area.y1 + corner_size;
 2919              		.loc 1 725 5 is_stmt 1 view .LVU1032
 725:lvgl/lvgl/src/draw/lv_draw_rect.c ****     blend_area.y1 = shadow_area.y1 + corner_size;
 2920              		.loc 1 725 36 is_stmt 0 view .LVU1033
 2921 0850 16FA83F3 		uxtah	r3, r6, r3
 2922 0854 9BB2     		uxth	r3, r3
 725:lvgl/lvgl/src/draw/lv_draw_rect.c ****     blend_area.y1 = shadow_area.y1 + corner_size;
 2923              		.loc 1 725 50 view .LVU1034
 2924 0856 013B     		subs	r3, r3, #1
 725:lvgl/lvgl/src/draw/lv_draw_rect.c ****     blend_area.y1 = shadow_area.y1 + corner_size;
 2925              		.loc 1 725 19 view .LVU1035
 2926 0858 ADF85030 		strh	r3, [sp, #80]	@ movhi
 726:lvgl/lvgl/src/draw/lv_draw_rect.c ****     blend_area.y2 = shadow_area.y2 - corner_size;
 2927              		.loc 1 726 5 is_stmt 1 view .LVU1036
 726:lvgl/lvgl/src/draw/lv_draw_rect.c ****     blend_area.y2 = shadow_area.y2 - corner_size;
 2928              		.loc 1 726 32 is_stmt 0 view .LVU1037
 2929 085c BDF88220 		ldrh	r2, [sp, #130]
 726:lvgl/lvgl/src/draw/lv_draw_rect.c ****     blend_area.y2 = shadow_area.y2 - corner_size;
 2930              		.loc 1 726 36 view .LVU1038
 2931 0860 3244     		add	r2, r2, r6
 2932 0862 12B2     		sxth	r2, r2
 727:lvgl/lvgl/src/draw/lv_draw_rect.c ****     /*Do not overdraw the other corners*/
 2933              		.loc 1 727 5 is_stmt 1 view .LVU1039
 727:lvgl/lvgl/src/draw/lv_draw_rect.c ****     /*Do not overdraw the other corners*/
 2934              		.loc 1 727 32 is_stmt 0 view .LVU1040
 2935 0864 BDF88630 		ldrh	r3, [sp, #134]
 727:lvgl/lvgl/src/draw/lv_draw_rect.c ****     /*Do not overdraw the other corners*/
 2936              		.loc 1 727 36 view .LVU1041
 2937 0868 9B1B     		subs	r3, r3, r6
 2938 086a 1BB2     		sxth	r3, r3
 729:lvgl/lvgl/src/draw/lv_draw_rect.c ****     blend_area.y2 = LV_MAX(blend_area.y2, h_half);
 2939              		.loc 1 729 5 is_stmt 1 view .LVU1042
 729:lvgl/lvgl/src/draw/lv_draw_rect.c ****     blend_area.y2 = LV_MAX(blend_area.y2, h_half);
 2940              		.loc 1 729 19 is_stmt 0 view .LVU1043
 2941 086c 5A45     		cmp	r2, fp
 2942 086e 02DD     		ble	.L132
 729:lvgl/lvgl/src/draw/lv_draw_rect.c ****     blend_area.y2 = LV_MAX(blend_area.y2, h_half);
 2943              		.loc 1 729 21 discriminator 2 view .LVU1044
 2944 0870 0B9A     		ldr	r2, [sp, #44]
 2945 0872 0132     		adds	r2, r2, #1
ARM GAS  C:\Users\gx\AppData\Local\Temp\ccP7i1j8.s 			page 95


 729:lvgl/lvgl/src/draw/lv_draw_rect.c ****     blend_area.y2 = LV_MAX(blend_area.y2, h_half);
 2946              		.loc 1 729 19 discriminator 2 view .LVU1045
 2947 0874 12B2     		sxth	r2, r2
 2948              	.L132:
 729:lvgl/lvgl/src/draw/lv_draw_rect.c ****     blend_area.y2 = LV_MAX(blend_area.y2, h_half);
 2949              		.loc 1 729 19 discriminator 4 view .LVU1046
 2950 0876 ADF84E20 		strh	r2, [sp, #78]	@ movhi
 730:lvgl/lvgl/src/draw/lv_draw_rect.c **** 
 2951              		.loc 1 730 5 is_stmt 1 discriminator 4 view .LVU1047
 730:lvgl/lvgl/src/draw/lv_draw_rect.c **** 
 2952              		.loc 1 730 21 is_stmt 0 discriminator 4 view .LVU1048
 2953 087a 5B45     		cmp	r3, fp
 2954 087c B8BF     		it	lt
 2955 087e 5B46     		movlt	r3, fp
 730:lvgl/lvgl/src/draw/lv_draw_rect.c **** 
 2956              		.loc 1 730 19 discriminator 4 view .LVU1049
 2957 0880 ADF85230 		strh	r3, [sp, #82]	@ movhi
 732:lvgl/lvgl/src/draw/lv_draw_rect.c ****         lv_coord_t w = lv_area_get_width(&clip_area_sub);
 2958              		.loc 1 732 5 is_stmt 1 discriminator 4 view .LVU1050
 732:lvgl/lvgl/src/draw/lv_draw_rect.c ****         lv_coord_t w = lv_area_get_width(&clip_area_sub);
 2959              		.loc 1 732 8 is_stmt 0 discriminator 4 view .LVU1051
 2960 0884 4A46     		mov	r2, r9
 2961 0886 13A9     		add	r1, sp, #76
 2962 0888 11A8     		add	r0, sp, #68
 2963 088a FFF7FEFF 		bl	_lv_area_intersect
 2964              	.LVL285:
 732:lvgl/lvgl/src/draw/lv_draw_rect.c ****         lv_coord_t w = lv_area_get_width(&clip_area_sub);
 2965              		.loc 1 732 7 discriminator 4 view .LVU1052
 2966 088e 0028     		cmp	r0, #0
 2967 0890 72D1     		bne	.L209
 2968              	.LVL286:
 2969              	.L133:
 759:lvgl/lvgl/src/draw/lv_draw_rect.c ****     blend_area.x2 = shadow_area.x1 + corner_size - 1;
 2970              		.loc 1 759 5 is_stmt 1 view .LVU1053
 759:lvgl/lvgl/src/draw/lv_draw_rect.c ****     blend_area.x2 = shadow_area.x1 + corner_size - 1;
 2971              		.loc 1 759 32 is_stmt 0 view .LVU1054
 2972 0892 BDF98030 		ldrsh	r3, [sp, #128]
 759:lvgl/lvgl/src/draw/lv_draw_rect.c ****     blend_area.x2 = shadow_area.x1 + corner_size - 1;
 2973              		.loc 1 759 19 view .LVU1055
 2974 0896 ADF84C30 		strh	r3, [sp, #76]	@ movhi
 760:lvgl/lvgl/src/draw/lv_draw_rect.c ****     blend_area.y1 = shadow_area.y1;
 2975              		.loc 1 760 5 is_stmt 1 view .LVU1056
 760:lvgl/lvgl/src/draw/lv_draw_rect.c ****     blend_area.y1 = shadow_area.y1;
 2976              		.loc 1 760 36 is_stmt 0 view .LVU1057
 2977 089a 16FA83F2 		uxtah	r2, r6, r3
 2978 089e 92B2     		uxth	r2, r2
 760:lvgl/lvgl/src/draw/lv_draw_rect.c ****     blend_area.y1 = shadow_area.y1;
 2979              		.loc 1 760 50 view .LVU1058
 2980 08a0 013A     		subs	r2, r2, #1
 2981 08a2 12B2     		sxth	r2, r2
 761:lvgl/lvgl/src/draw/lv_draw_rect.c ****     blend_area.y2 = shadow_area.y1 + corner_size - 1;
 2982              		.loc 1 761 5 is_stmt 1 view .LVU1059
 761:lvgl/lvgl/src/draw/lv_draw_rect.c ****     blend_area.y2 = shadow_area.y1 + corner_size - 1;
 2983              		.loc 1 761 32 is_stmt 0 view .LVU1060
 2984 08a4 BDF98230 		ldrsh	r3, [sp, #130]
 761:lvgl/lvgl/src/draw/lv_draw_rect.c ****     blend_area.y2 = shadow_area.y1 + corner_size - 1;
 2985              		.loc 1 761 19 view .LVU1061
ARM GAS  C:\Users\gx\AppData\Local\Temp\ccP7i1j8.s 			page 96


 2986 08a8 ADF84E30 		strh	r3, [sp, #78]	@ movhi
 762:lvgl/lvgl/src/draw/lv_draw_rect.c ****     /*Do not overdraw the other corners*/
 2987              		.loc 1 762 5 is_stmt 1 view .LVU1062
 762:lvgl/lvgl/src/draw/lv_draw_rect.c ****     /*Do not overdraw the other corners*/
 2988              		.loc 1 762 36 is_stmt 0 view .LVU1063
 2989 08ac 16FA83F3 		uxtah	r3, r6, r3
 2990 08b0 9BB2     		uxth	r3, r3
 762:lvgl/lvgl/src/draw/lv_draw_rect.c ****     /*Do not overdraw the other corners*/
 2991              		.loc 1 762 50 view .LVU1064
 2992 08b2 013B     		subs	r3, r3, #1
 2993 08b4 1BB2     		sxth	r3, r3
 764:lvgl/lvgl/src/draw/lv_draw_rect.c ****     blend_area.y2 = LV_MIN(blend_area.y2, h_half);
 2994              		.loc 1 764 5 is_stmt 1 view .LVU1065
 764:lvgl/lvgl/src/draw/lv_draw_rect.c ****     blend_area.y2 = LV_MIN(blend_area.y2, h_half);
 2995              		.loc 1 764 21 is_stmt 0 view .LVU1066
 2996 08b6 0899     		ldr	r1, [sp, #32]
 2997 08b8 4F1E     		subs	r7, r1, #1
 2998 08ba BA42     		cmp	r2, r7
 2999 08bc A8BF     		it	ge
 3000 08be 3A46     		movge	r2, r7
 764:lvgl/lvgl/src/draw/lv_draw_rect.c ****     blend_area.y2 = LV_MIN(blend_area.y2, h_half);
 3001              		.loc 1 764 19 view .LVU1067
 3002 08c0 ADF85020 		strh	r2, [sp, #80]	@ movhi
 765:lvgl/lvgl/src/draw/lv_draw_rect.c **** 
 3003              		.loc 1 765 5 is_stmt 1 view .LVU1068
 765:lvgl/lvgl/src/draw/lv_draw_rect.c **** 
 3004              		.loc 1 765 21 is_stmt 0 view .LVU1069
 3005 08c4 9B45     		cmp	fp, r3
 3006 08c6 A8BF     		it	ge
 3007 08c8 9B46     		movge	fp, r3
 3008              	.LVL287:
 765:lvgl/lvgl/src/draw/lv_draw_rect.c **** 
 3009              		.loc 1 765 19 view .LVU1070
 3010 08ca ADF852B0 		strh	fp, [sp, #82]	@ movhi
 767:lvgl/lvgl/src/draw/lv_draw_rect.c ****         lv_coord_t w = lv_area_get_width(&clip_area_sub);
 3011              		.loc 1 767 5 is_stmt 1 view .LVU1071
 767:lvgl/lvgl/src/draw/lv_draw_rect.c ****         lv_coord_t w = lv_area_get_width(&clip_area_sub);
 3012              		.loc 1 767 8 is_stmt 0 view .LVU1072
 3013 08ce 4A46     		mov	r2, r9
 3014 08d0 13A9     		add	r1, sp, #76
 3015 08d2 11A8     		add	r0, sp, #68
 3016 08d4 FFF7FEFF 		bl	_lv_area_intersect
 3017              	.LVL288:
 767:lvgl/lvgl/src/draw/lv_draw_rect.c ****         lv_coord_t w = lv_area_get_width(&clip_area_sub);
 3018              		.loc 1 767 7 view .LVU1073
 3019 08d8 0028     		cmp	r0, #0
 3020 08da 40F0BB80 		bne	.L210
 3021              	.LVL289:
 3022              	.L139:
 797:lvgl/lvgl/src/draw/lv_draw_rect.c ****     blend_area.x2 = shadow_area.x1 + corner_size - 1;
 3023              		.loc 1 797 5 is_stmt 1 view .LVU1074
 797:lvgl/lvgl/src/draw/lv_draw_rect.c ****     blend_area.x2 = shadow_area.x1 + corner_size - 1;
 3024              		.loc 1 797 32 is_stmt 0 view .LVU1075
 3025 08de BDF98030 		ldrsh	r3, [sp, #128]
 797:lvgl/lvgl/src/draw/lv_draw_rect.c ****     blend_area.x2 = shadow_area.x1 + corner_size - 1;
 3026              		.loc 1 797 19 view .LVU1076
 3027 08e2 ADF84C30 		strh	r3, [sp, #76]	@ movhi
ARM GAS  C:\Users\gx\AppData\Local\Temp\ccP7i1j8.s 			page 97


 798:lvgl/lvgl/src/draw/lv_draw_rect.c ****     blend_area.y1 = shadow_area.y2 - corner_size + 1;
 3028              		.loc 1 798 5 is_stmt 1 view .LVU1077
 798:lvgl/lvgl/src/draw/lv_draw_rect.c ****     blend_area.y1 = shadow_area.y2 - corner_size + 1;
 3029              		.loc 1 798 36 is_stmt 0 view .LVU1078
 3030 08e6 16FA83F3 		uxtah	r3, r6, r3
 3031 08ea 9BB2     		uxth	r3, r3
 798:lvgl/lvgl/src/draw/lv_draw_rect.c ****     blend_area.y1 = shadow_area.y2 - corner_size + 1;
 3032              		.loc 1 798 50 view .LVU1079
 3033 08ec 013B     		subs	r3, r3, #1
 3034 08ee 1BB2     		sxth	r3, r3
 799:lvgl/lvgl/src/draw/lv_draw_rect.c ****     blend_area.y2 = shadow_area.y2;
 3035              		.loc 1 799 5 is_stmt 1 view .LVU1080
 799:lvgl/lvgl/src/draw/lv_draw_rect.c ****     blend_area.y2 = shadow_area.y2;
 3036              		.loc 1 799 32 is_stmt 0 view .LVU1081
 3037 08f0 BDF98610 		ldrsh	r1, [sp, #134]
 3038 08f4 8AB2     		uxth	r2, r1
 799:lvgl/lvgl/src/draw/lv_draw_rect.c ****     blend_area.y2 = shadow_area.y2;
 3039              		.loc 1 799 36 view .LVU1082
 3040 08f6 921B     		subs	r2, r2, r6
 3041 08f8 92B2     		uxth	r2, r2
 799:lvgl/lvgl/src/draw/lv_draw_rect.c ****     blend_area.y2 = shadow_area.y2;
 3042              		.loc 1 799 50 view .LVU1083
 3043 08fa 0132     		adds	r2, r2, #1
 3044 08fc 12B2     		sxth	r2, r2
 800:lvgl/lvgl/src/draw/lv_draw_rect.c ****     /*Do not overdraw the other corners*/
 3045              		.loc 1 800 5 is_stmt 1 view .LVU1084
 800:lvgl/lvgl/src/draw/lv_draw_rect.c ****     /*Do not overdraw the other corners*/
 3046              		.loc 1 800 19 is_stmt 0 view .LVU1085
 3047 08fe ADF85210 		strh	r1, [sp, #82]	@ movhi
 802:lvgl/lvgl/src/draw/lv_draw_rect.c ****     blend_area.x2 = LV_MIN(blend_area.x2, w_half - 1);
 3048              		.loc 1 802 5 is_stmt 1 view .LVU1086
 802:lvgl/lvgl/src/draw/lv_draw_rect.c ****     blend_area.x2 = LV_MIN(blend_area.x2, w_half - 1);
 3049              		.loc 1 802 21 is_stmt 0 view .LVU1087
 3050 0902 0A99     		ldr	r1, [sp, #40]
 3051 0904 9142     		cmp	r1, r2
 3052 0906 B8BF     		it	lt
 3053 0908 1146     		movlt	r1, r2
 802:lvgl/lvgl/src/draw/lv_draw_rect.c ****     blend_area.x2 = LV_MIN(blend_area.x2, w_half - 1);
 3054              		.loc 1 802 19 view .LVU1088
 3055 090a ADF84E10 		strh	r1, [sp, #78]	@ movhi
 803:lvgl/lvgl/src/draw/lv_draw_rect.c **** 
 3056              		.loc 1 803 5 is_stmt 1 view .LVU1089
 803:lvgl/lvgl/src/draw/lv_draw_rect.c **** 
 3057              		.loc 1 803 21 is_stmt 0 view .LVU1090
 3058 090e 9F42     		cmp	r7, r3
 3059 0910 A8BF     		it	ge
 3060 0912 1F46     		movge	r7, r3
 803:lvgl/lvgl/src/draw/lv_draw_rect.c **** 
 3061              		.loc 1 803 19 view .LVU1091
 3062 0914 ADF85070 		strh	r7, [sp, #80]	@ movhi
 805:lvgl/lvgl/src/draw/lv_draw_rect.c ****         lv_coord_t w = lv_area_get_width(&clip_area_sub);
 3063              		.loc 1 805 5 is_stmt 1 view .LVU1092
 805:lvgl/lvgl/src/draw/lv_draw_rect.c ****         lv_coord_t w = lv_area_get_width(&clip_area_sub);
 3064              		.loc 1 805 8 is_stmt 0 view .LVU1093
 3065 0918 4A46     		mov	r2, r9
 3066 091a 13A9     		add	r1, sp, #76
 3067 091c 11A8     		add	r0, sp, #68
ARM GAS  C:\Users\gx\AppData\Local\Temp\ccP7i1j8.s 			page 98


 3068 091e FFF7FEFF 		bl	_lv_area_intersect
 3069              	.LVL290:
 805:lvgl/lvgl/src/draw/lv_draw_rect.c ****         lv_coord_t w = lv_area_get_width(&clip_area_sub);
 3070              		.loc 1 805 7 view .LVU1094
 3071 0922 0028     		cmp	r0, #0
 3072 0924 40F00D81 		bne	.L211
 3073              	.L145:
 833:lvgl/lvgl/src/draw/lv_draw_rect.c ****     blend_area.x2 = shadow_area.x2 - corner_size;
 3074              		.loc 1 833 5 is_stmt 1 view .LVU1095
 833:lvgl/lvgl/src/draw/lv_draw_rect.c ****     blend_area.x2 = shadow_area.x2 - corner_size;
 3075              		.loc 1 833 32 is_stmt 0 view .LVU1096
 3076 0928 BDF88030 		ldrh	r3, [sp, #128]
 833:lvgl/lvgl/src/draw/lv_draw_rect.c ****     blend_area.x2 = shadow_area.x2 - corner_size;
 3077              		.loc 1 833 36 view .LVU1097
 3078 092c 3344     		add	r3, r3, r6
 833:lvgl/lvgl/src/draw/lv_draw_rect.c ****     blend_area.x2 = shadow_area.x2 - corner_size;
 3079              		.loc 1 833 19 view .LVU1098
 3080 092e ADF84C30 		strh	r3, [sp, #76]	@ movhi
 834:lvgl/lvgl/src/draw/lv_draw_rect.c ****     blend_area.y1 = shadow_area.y1 + corner_size;
 3081              		.loc 1 834 5 is_stmt 1 view .LVU1099
 834:lvgl/lvgl/src/draw/lv_draw_rect.c ****     blend_area.y1 = shadow_area.y1 + corner_size;
 3082              		.loc 1 834 32 is_stmt 0 view .LVU1100
 3083 0932 BDF88430 		ldrh	r3, [sp, #132]
 834:lvgl/lvgl/src/draw/lv_draw_rect.c ****     blend_area.y1 = shadow_area.y1 + corner_size;
 3084              		.loc 1 834 36 view .LVU1101
 3085 0936 9B1B     		subs	r3, r3, r6
 834:lvgl/lvgl/src/draw/lv_draw_rect.c ****     blend_area.y1 = shadow_area.y1 + corner_size;
 3086              		.loc 1 834 19 view .LVU1102
 3087 0938 ADF85030 		strh	r3, [sp, #80]	@ movhi
 835:lvgl/lvgl/src/draw/lv_draw_rect.c ****     blend_area.y2 = shadow_area.y2 - corner_size;
 3088              		.loc 1 835 5 is_stmt 1 view .LVU1103
 835:lvgl/lvgl/src/draw/lv_draw_rect.c ****     blend_area.y2 = shadow_area.y2 - corner_size;
 3089              		.loc 1 835 32 is_stmt 0 view .LVU1104
 3090 093c BDF88230 		ldrh	r3, [sp, #130]
 835:lvgl/lvgl/src/draw/lv_draw_rect.c ****     blend_area.y2 = shadow_area.y2 - corner_size;
 3091              		.loc 1 835 36 view .LVU1105
 3092 0940 3344     		add	r3, r3, r6
 835:lvgl/lvgl/src/draw/lv_draw_rect.c ****     blend_area.y2 = shadow_area.y2 - corner_size;
 3093              		.loc 1 835 19 view .LVU1106
 3094 0942 ADF84E30 		strh	r3, [sp, #78]	@ movhi
 836:lvgl/lvgl/src/draw/lv_draw_rect.c **** 
 3095              		.loc 1 836 5 is_stmt 1 view .LVU1107
 836:lvgl/lvgl/src/draw/lv_draw_rect.c **** 
 3096              		.loc 1 836 32 is_stmt 0 view .LVU1108
 3097 0946 BDF88630 		ldrh	r3, [sp, #134]
 836:lvgl/lvgl/src/draw/lv_draw_rect.c **** 
 3098              		.loc 1 836 36 view .LVU1109
 3099 094a 9E1B     		subs	r6, r3, r6
 836:lvgl/lvgl/src/draw/lv_draw_rect.c **** 
 3100              		.loc 1 836 19 view .LVU1110
 3101 094c ADF85260 		strh	r6, [sp, #82]	@ movhi
 838:lvgl/lvgl/src/draw/lv_draw_rect.c ****         lv_coord_t w = lv_area_get_width(&clip_area_sub);
 3102              		.loc 1 838 5 is_stmt 1 view .LVU1111
 838:lvgl/lvgl/src/draw/lv_draw_rect.c ****         lv_coord_t w = lv_area_get_width(&clip_area_sub);
 3103              		.loc 1 838 8 is_stmt 0 view .LVU1112
 3104 0950 4A46     		mov	r2, r9
 3105 0952 13A9     		add	r1, sp, #76
ARM GAS  C:\Users\gx\AppData\Local\Temp\ccP7i1j8.s 			page 99


 3106 0954 11A8     		add	r0, sp, #68
 3107 0956 FFF7FEFF 		bl	_lv_area_intersect
 3108              	.LVL291:
 838:lvgl/lvgl/src/draw/lv_draw_rect.c ****         lv_coord_t w = lv_area_get_width(&clip_area_sub);
 3109              		.loc 1 838 7 view .LVU1113
 3110 095a 0028     		cmp	r0, #0
 3111 095c 40F06781 		bne	.L212
 3112              	.L151:
 852:lvgl/lvgl/src/draw/lv_draw_rect.c ****         lv_draw_mask_free_param(&mask_rout_param);
 3113              		.loc 1 852 5 is_stmt 1 view .LVU1114
 852:lvgl/lvgl/src/draw/lv_draw_rect.c ****         lv_draw_mask_free_param(&mask_rout_param);
 3114              		.loc 1 852 7 is_stmt 0 view .LVU1115
 3115 0960 059B     		ldr	r3, [sp, #20]
 3116 0962 002B     		cmp	r3, #0
 3117 0964 00F09B81 		beq	.L213
 3118              	.L154:
 856:lvgl/lvgl/src/draw/lv_draw_rect.c ****     lv_mem_buf_release(mask_buf);
 3119              		.loc 1 856 5 is_stmt 1 view .LVU1116
 3120 0968 0798     		ldr	r0, [sp, #28]
 3121 096a FFF7FEFF 		bl	lv_mem_buf_release
 3122              	.LVL292:
 857:lvgl/lvgl/src/draw/lv_draw_rect.c **** }
 3123              		.loc 1 857 5 view .LVU1117
 3124 096e 1598     		ldr	r0, [sp, #84]
 3125 0970 FFF7FEFF 		bl	lv_mem_buf_release
 3126              	.LVL293:
 3127 0974 FFF79BBB 		b	.L81
 3128              	.LVL294:
 3129              	.L209:
 732:lvgl/lvgl/src/draw/lv_draw_rect.c ****         lv_coord_t w = lv_area_get_width(&clip_area_sub);
 3130              		.loc 1 732 66 is_stmt 0 discriminator 1 view .LVU1118
 3131 0978 BDF91870 		ldrsh	r7, [sp, #24]
 3132              	.LVL295:
 732:lvgl/lvgl/src/draw/lv_draw_rect.c ****         lv_coord_t w = lv_area_get_width(&clip_area_sub);
 3133              		.loc 1 732 66 discriminator 1 view .LVU1119
 3134 097c 3A46     		mov	r2, r7
 3135 097e 1CA9     		add	r1, sp, #112
 3136 0980 11A8     		add	r0, sp, #68
 3137 0982 FFF7FEFF 		bl	_lv_area_is_in
 3138              	.LVL296:
 732:lvgl/lvgl/src/draw/lv_draw_rect.c ****         lv_coord_t w = lv_area_get_width(&clip_area_sub);
 3139              		.loc 1 732 62 discriminator 1 view .LVU1120
 3140 0986 0028     		cmp	r0, #0
 3141 0988 83D1     		bne	.L133
 3142              	.LBB202:
 733:lvgl/lvgl/src/draw/lv_draw_rect.c ****         sh_buf_tmp = sh_buf;
 3143              		.loc 1 733 9 is_stmt 1 view .LVU1121
 3144              	.LVL297:
 3145              	.LBB203:
 3146              	.LBI203:
 133:lvgl/lvgl/src/draw/../misc/lv_area.h **** {
 3147              		.loc 2 133 26 view .LVU1122
 3148              	.LBB204:
 135:lvgl/lvgl/src/draw/../misc/lv_area.h **** }
 3149              		.loc 2 135 5 view .LVU1123
 135:lvgl/lvgl/src/draw/../misc/lv_area.h **** }
 3150              		.loc 2 135 31 is_stmt 0 view .LVU1124
ARM GAS  C:\Users\gx\AppData\Local\Temp\ccP7i1j8.s 			page 100


 3151 098a BDF84830 		ldrh	r3, [sp, #72]
 135:lvgl/lvgl/src/draw/../misc/lv_area.h **** }
 3152              		.loc 2 135 44 view .LVU1125
 3153 098e BDF94420 		ldrsh	r2, [sp, #68]
 3154 0992 91B2     		uxth	r1, r2
 135:lvgl/lvgl/src/draw/../misc/lv_area.h **** }
 3155              		.loc 2 135 36 view .LVU1126
 3156 0994 5B1A     		subs	r3, r3, r1
 3157 0996 9BB2     		uxth	r3, r3
 135:lvgl/lvgl/src/draw/../misc/lv_area.h **** }
 3158              		.loc 2 135 49 view .LVU1127
 3159 0998 0133     		adds	r3, r3, #1
 135:lvgl/lvgl/src/draw/../misc/lv_area.h **** }
 3160              		.loc 2 135 12 view .LVU1128
 3161 099a 1BB2     		sxth	r3, r3
 3162 099c 9846     		mov	r8, r3
 3163              	.LVL298:
 135:lvgl/lvgl/src/draw/../misc/lv_area.h **** }
 3164              		.loc 2 135 12 view .LVU1129
 3165              	.LBE204:
 3166              	.LBE203:
 734:lvgl/lvgl/src/draw/lv_draw_rect.c ****         sh_buf_tmp += (corner_size - 1) * corner_size;
 3167              		.loc 1 734 9 is_stmt 1 view .LVU1130
 735:lvgl/lvgl/src/draw/lv_draw_rect.c ****         sh_buf_tmp += clip_area_sub.x1 - blend_area.x1;
 3168              		.loc 1 735 9 view .LVU1131
 735:lvgl/lvgl/src/draw/lv_draw_rect.c ****         sh_buf_tmp += clip_area_sub.x1 - blend_area.x1;
 3169              		.loc 1 735 36 is_stmt 0 view .LVU1132
 3170 099e 631E     		subs	r3, r4, #1
 735:lvgl/lvgl/src/draw/lv_draw_rect.c ****         sh_buf_tmp += clip_area_sub.x1 - blend_area.x1;
 3171              		.loc 1 735 20 view .LVU1133
 3172 09a0 0799     		ldr	r1, [sp, #28]
 3173 09a2 04FB0313 		mla	r3, r4, r3, r1
 736:lvgl/lvgl/src/draw/lv_draw_rect.c **** 
 3174              		.loc 1 736 9 is_stmt 1 view .LVU1134
 736:lvgl/lvgl/src/draw/lv_draw_rect.c **** 
 3175              		.loc 1 736 52 is_stmt 0 view .LVU1135
 3176 09a6 BDF94C10 		ldrsh	r1, [sp, #76]
 736:lvgl/lvgl/src/draw/lv_draw_rect.c **** 
 3177              		.loc 1 736 40 view .LVU1136
 3178 09aa 521A     		subs	r2, r2, r1
 736:lvgl/lvgl/src/draw/lv_draw_rect.c **** 
 3179              		.loc 1 736 20 view .LVU1137
 3180 09ac 1344     		add	r3, r3, r2
 3181 09ae 1093     		str	r3, [sp, #64]
 739:lvgl/lvgl/src/draw/lv_draw_rect.c ****         else simple_sub = simple;
 3182              		.loc 1 739 9 is_stmt 1 view .LVU1138
 739:lvgl/lvgl/src/draw/lv_draw_rect.c ****         else simple_sub = simple;
 3183              		.loc 1 739 11 is_stmt 0 view .LVU1139
 3184 09b0 099B     		ldr	r3, [sp, #36]
 3185 09b2 93B1     		cbz	r3, .L214
 3186              	.L134:
 740:lvgl/lvgl/src/draw/lv_draw_rect.c ****         mask_act = simple_sub ? &sh_buf_tmp : &mask_buf;
 3187              		.loc 1 740 14 is_stmt 1 view .LVU1140
 3188              	.LVL299:
 741:lvgl/lvgl/src/draw/lv_draw_rect.c ****         if(w > 0) {
 3189              		.loc 1 741 9 view .LVU1141
 741:lvgl/lvgl/src/draw/lv_draw_rect.c ****         if(w > 0) {
ARM GAS  C:\Users\gx\AppData\Local\Temp\ccP7i1j8.s 			page 101


 3190              		.loc 1 741 45 is_stmt 0 view .LVU1142
 3191 09b4 059B     		ldr	r3, [sp, #20]
 3192 09b6 DBB1     		cbz	r3, .L172
 3193 09b8 1A46     		mov	r2, r3
 3194 09ba 0DF1400A 		add	r10, sp, #64
 3195              	.LVL300:
 3196              	.L135:
 742:lvgl/lvgl/src/draw/lv_draw_rect.c ****             mask_res = LV_DRAW_MASK_RES_CHANGED;    /*In simple mode it won't be overwritten*/
 3197              		.loc 1 742 9 is_stmt 1 discriminator 4 view .LVU1143
 742:lvgl/lvgl/src/draw/lv_draw_rect.c ****             mask_res = LV_DRAW_MASK_RES_CHANGED;    /*In simple mode it won't be overwritten*/
 3198              		.loc 1 742 11 is_stmt 0 discriminator 4 view .LVU1144
 3199 09be 4346     		mov	r3, r8
 3200 09c0 002B     		cmp	r3, #0
 3201 09c2 7FF766AF 		ble	.L133
 743:lvgl/lvgl/src/draw/lv_draw_rect.c ****             for(y = clip_area_sub.y1; y <= clip_area_sub.y2; y++) {
 3202              		.loc 1 743 13 is_stmt 1 view .LVU1145
 3203              	.LVL301:
 744:lvgl/lvgl/src/draw/lv_draw_rect.c ****                 blend_area.y1 = y;
 3204              		.loc 1 744 13 view .LVU1146
 744:lvgl/lvgl/src/draw/lv_draw_rect.c ****                 blend_area.y1 = y;
 3205              		.loc 1 744 19 is_stmt 0 view .LVU1147
 3206 09c6 BDF94670 		ldrsh	r7, [sp, #70]
 3207              	.LVL302:
 743:lvgl/lvgl/src/draw/lv_draw_rect.c ****             for(y = clip_area_sub.y1; y <= clip_area_sub.y2; y++) {
 3208              		.loc 1 743 22 view .LVU1148
 3209 09ca 4FF00208 		mov	r8, #2
 3210              	.LVL303:
 743:lvgl/lvgl/src/draw/lv_draw_rect.c ****             for(y = clip_area_sub.y1; y <= clip_area_sub.y2; y++) {
 3211              		.loc 1 743 22 view .LVU1149
 3212 09ce 0B96     		str	r6, [sp, #44]
 3213 09d0 4646     		mov	r6, r8
 3214 09d2 0D94     		str	r4, [sp, #52]
 3215 09d4 1446     		mov	r4, r2
 3216 09d6 9846     		mov	r8, r3
 744:lvgl/lvgl/src/draw/lv_draw_rect.c ****                 blend_area.y1 = y;
 3217              		.loc 1 744 13 view .LVU1150
 3218 09d8 1EE0     		b	.L136
 3219              	.LVL304:
 3220              	.L214:
 739:lvgl/lvgl/src/draw/lv_draw_rect.c ****         else simple_sub = simple;
 3221              		.loc 1 739 25 discriminator 1 view .LVU1151
 3222 09da 3A46     		mov	r2, r7
 3223 09dc 1CA9     		add	r1, sp, #112
 3224 09de 11A8     		add	r0, sp, #68
 3225 09e0 FFF7FEFF 		bl	_lv_area_is_out
 3226              	.LVL305:
 739:lvgl/lvgl/src/draw/lv_draw_rect.c ****         else simple_sub = simple;
 3227              		.loc 1 739 22 discriminator 1 view .LVU1152
 3228 09e4 0246     		mov	r2, r0
 3229 09e6 0028     		cmp	r0, #0
 3230 09e8 E4D0     		beq	.L134
 741:lvgl/lvgl/src/draw/lv_draw_rect.c ****         if(w > 0) {
 3231              		.loc 1 741 45 view .LVU1153
 3232 09ea 0DF1400A 		add	r10, sp, #64
 3233 09ee E6E7     		b	.L135
 3234              	.LVL306:
 3235              	.L172:
ARM GAS  C:\Users\gx\AppData\Local\Temp\ccP7i1j8.s 			page 102


 741:lvgl/lvgl/src/draw/lv_draw_rect.c ****         if(w > 0) {
 3236              		.loc 1 741 45 view .LVU1154
 3237 09f0 059B     		ldr	r3, [sp, #20]
 3238 09f2 1A46     		mov	r2, r3
 3239 09f4 0DF1540A 		add	r10, sp, #84
 3240 09f8 E1E7     		b	.L135
 3241              	.LVL307:
 3242              	.L137:
 753:lvgl/lvgl/src/draw/lv_draw_rect.c ****             }
 3243              		.loc 1 753 17 is_stmt 1 discriminator 2 view .LVU1155
 3244 09fa AB78     		ldrb	r3, [r5, #2]	@ zero_extendqisi2
 3245 09fc 0293     		str	r3, [sp, #8]
 3246 09fe 95F83230 		ldrb	r3, [r5, #50]	@ zero_extendqisi2
 3247 0a02 0193     		str	r3, [sp, #4]
 3248 0a04 0096     		str	r6, [sp]
 3249 0a06 DAF80030 		ldr	r3, [r10]
 3250 0a0a 2A8D     		ldrh	r2, [r5, #40]
 3251 0a0c 13A9     		add	r1, sp, #76
 3252 0a0e 11A8     		add	r0, sp, #68
 3253 0a10 FFF7FEFF 		bl	_lv_blend_fill
 3254              	.LVL308:
 744:lvgl/lvgl/src/draw/lv_draw_rect.c ****                 blend_area.y1 = y;
 3255              		.loc 1 744 62 discriminator 2 view .LVU1156
 744:lvgl/lvgl/src/draw/lv_draw_rect.c ****                 blend_area.y1 = y;
 3256              		.loc 1 744 63 is_stmt 0 discriminator 2 view .LVU1157
 3257 0a14 0137     		adds	r7, r7, #1
 3258              	.LVL309:
 744:lvgl/lvgl/src/draw/lv_draw_rect.c ****                 blend_area.y1 = y;
 3259              		.loc 1 744 63 discriminator 2 view .LVU1158
 3260 0a16 3FB2     		sxth	r7, r7
 3261              	.LVL310:
 3262              	.L136:
 744:lvgl/lvgl/src/draw/lv_draw_rect.c ****                 blend_area.y1 = y;
 3263              		.loc 1 744 39 is_stmt 1 discriminator 1 view .LVU1159
 744:lvgl/lvgl/src/draw/lv_draw_rect.c ****                 blend_area.y1 = y;
 3264              		.loc 1 744 57 is_stmt 0 discriminator 1 view .LVU1160
 3265 0a18 BDF94A30 		ldrsh	r3, [sp, #74]
 744:lvgl/lvgl/src/draw/lv_draw_rect.c ****                 blend_area.y1 = y;
 3266              		.loc 1 744 13 discriminator 1 view .LVU1161
 3267 0a1c BB42     		cmp	r3, r7
 3268 0a1e 16DB     		blt	.L215
 745:lvgl/lvgl/src/draw/lv_draw_rect.c ****                 blend_area.y2 = y;
 3269              		.loc 1 745 17 is_stmt 1 view .LVU1162
 745:lvgl/lvgl/src/draw/lv_draw_rect.c ****                 blend_area.y2 = y;
 3270              		.loc 1 745 31 is_stmt 0 view .LVU1163
 3271 0a20 ADF84E70 		strh	r7, [sp, #78]	@ movhi
 746:lvgl/lvgl/src/draw/lv_draw_rect.c **** 
 3272              		.loc 1 746 17 is_stmt 1 view .LVU1164
 746:lvgl/lvgl/src/draw/lv_draw_rect.c **** 
 3273              		.loc 1 746 31 is_stmt 0 view .LVU1165
 3274 0a24 ADF85270 		strh	r7, [sp, #82]	@ movhi
 748:lvgl/lvgl/src/draw/lv_draw_rect.c ****                     lv_memcpy(mask_buf, sh_buf_tmp, w);
 3275              		.loc 1 748 17 is_stmt 1 view .LVU1166
 748:lvgl/lvgl/src/draw/lv_draw_rect.c ****                     lv_memcpy(mask_buf, sh_buf_tmp, w);
 3276              		.loc 1 748 19 is_stmt 0 view .LVU1167
 3277 0a28 002C     		cmp	r4, #0
 3278 0a2a E6D1     		bne	.L137
ARM GAS  C:\Users\gx\AppData\Local\Temp\ccP7i1j8.s 			page 103


 749:lvgl/lvgl/src/draw/lv_draw_rect.c ****                     mask_res = lv_draw_mask_apply(mask_buf, clip_area_sub.x1, y, w);
 3279              		.loc 1 749 21 is_stmt 1 view .LVU1168
 3280 0a2c 4246     		mov	r2, r8
 3281 0a2e 1099     		ldr	r1, [sp, #64]
 3282 0a30 1598     		ldr	r0, [sp, #84]
 3283 0a32 FFF7FEFF 		bl	lv_memcpy
 3284              	.LVL311:
 750:lvgl/lvgl/src/draw/lv_draw_rect.c ****                     if(mask_res == LV_DRAW_MASK_RES_FULL_COVER) mask_res = LV_DRAW_MASK_RES_CHANGED
 3285              		.loc 1 750 21 view .LVU1169
 750:lvgl/lvgl/src/draw/lv_draw_rect.c ****                     if(mask_res == LV_DRAW_MASK_RES_FULL_COVER) mask_res = LV_DRAW_MASK_RES_CHANGED
 3286              		.loc 1 750 32 is_stmt 0 view .LVU1170
 3287 0a36 4346     		mov	r3, r8
 3288 0a38 3A46     		mov	r2, r7
 3289 0a3a BDF94410 		ldrsh	r1, [sp, #68]
 3290 0a3e 1598     		ldr	r0, [sp, #84]
 3291 0a40 FFF7FEFF 		bl	lv_draw_mask_apply
 3292              	.LVL312:
 3293 0a44 0646     		mov	r6, r0
 3294              	.LVL313:
 751:lvgl/lvgl/src/draw/lv_draw_rect.c ****                 }
 3295              		.loc 1 751 21 is_stmt 1 view .LVU1171
 751:lvgl/lvgl/src/draw/lv_draw_rect.c ****                 }
 3296              		.loc 1 751 23 is_stmt 0 view .LVU1172
 3297 0a46 0128     		cmp	r0, #1
 3298 0a48 D7D1     		bne	.L137
 751:lvgl/lvgl/src/draw/lv_draw_rect.c ****                 }
 3299              		.loc 1 751 74 view .LVU1173
 3300 0a4a 0226     		movs	r6, #2
 3301 0a4c D5E7     		b	.L137
 3302              	.LVL314:
 3303              	.L215:
 751:lvgl/lvgl/src/draw/lv_draw_rect.c ****                 }
 3304              		.loc 1 751 74 view .LVU1174
 3305 0a4e 0B9E     		ldr	r6, [sp, #44]
 3306              	.LVL315:
 751:lvgl/lvgl/src/draw/lv_draw_rect.c ****                 }
 3307              		.loc 1 751 74 view .LVU1175
 3308 0a50 0D9C     		ldr	r4, [sp, #52]
 3309 0a52 1EE7     		b	.L133
 3310              	.LVL316:
 3311              	.L210:
 751:lvgl/lvgl/src/draw/lv_draw_rect.c ****                 }
 3312              		.loc 1 751 74 view .LVU1176
 3313              	.LBE202:
 767:lvgl/lvgl/src/draw/lv_draw_rect.c ****         lv_coord_t w = lv_area_get_width(&clip_area_sub);
 3314              		.loc 1 767 66 discriminator 1 view .LVU1177
 3315 0a54 BDF91880 		ldrsh	r8, [sp, #24]
 3316 0a58 4246     		mov	r2, r8
 3317 0a5a 1CA9     		add	r1, sp, #112
 3318 0a5c 11A8     		add	r0, sp, #68
 3319 0a5e FFF7FEFF 		bl	_lv_area_is_in
 3320              	.LVL317:
 767:lvgl/lvgl/src/draw/lv_draw_rect.c ****         lv_coord_t w = lv_area_get_width(&clip_area_sub);
 3321              		.loc 1 767 62 discriminator 1 view .LVU1178
 3322 0a62 0028     		cmp	r0, #0
 3323 0a64 7FF43BAF 		bne	.L139
 3324              	.LBB205:
ARM GAS  C:\Users\gx\AppData\Local\Temp\ccP7i1j8.s 			page 104


 768:lvgl/lvgl/src/draw/lv_draw_rect.c ****         sh_buf_tmp = sh_buf;
 3325              		.loc 1 768 9 is_stmt 1 view .LVU1179
 3326              	.LVL318:
 3327              	.LBB206:
 3328              	.LBI206:
 133:lvgl/lvgl/src/draw/../misc/lv_area.h **** {
 3329              		.loc 2 133 26 view .LVU1180
 3330              	.LBB207:
 135:lvgl/lvgl/src/draw/../misc/lv_area.h **** }
 3331              		.loc 2 135 5 view .LVU1181
 135:lvgl/lvgl/src/draw/../misc/lv_area.h **** }
 3332              		.loc 2 135 31 is_stmt 0 view .LVU1182
 3333 0a68 BDF84830 		ldrh	r3, [sp, #72]
 135:lvgl/lvgl/src/draw/../misc/lv_area.h **** }
 3334              		.loc 2 135 44 view .LVU1183
 3335 0a6c BDF94420 		ldrsh	r2, [sp, #68]
 3336 0a70 91B2     		uxth	r1, r2
 135:lvgl/lvgl/src/draw/../misc/lv_area.h **** }
 3337              		.loc 2 135 36 view .LVU1184
 3338 0a72 5B1A     		subs	r3, r3, r1
 3339 0a74 9BB2     		uxth	r3, r3
 135:lvgl/lvgl/src/draw/../misc/lv_area.h **** }
 3340              		.loc 2 135 49 view .LVU1185
 3341 0a76 0133     		adds	r3, r3, #1
 135:lvgl/lvgl/src/draw/../misc/lv_area.h **** }
 3342              		.loc 2 135 12 view .LVU1186
 3343 0a78 1BB2     		sxth	r3, r3
 3344 0a7a 0893     		str	r3, [sp, #32]
 3345              	.LVL319:
 135:lvgl/lvgl/src/draw/../misc/lv_area.h **** }
 3346              		.loc 2 135 12 view .LVU1187
 3347              	.LBE207:
 3348              	.LBE206:
 769:lvgl/lvgl/src/draw/lv_draw_rect.c ****         sh_buf_tmp += (clip_area_sub.y1 - blend_area.y1) * corner_size;
 3349              		.loc 1 769 9 is_stmt 1 view .LVU1188
 770:lvgl/lvgl/src/draw/lv_draw_rect.c ****         sh_buf_tmp += clip_area_sub.x1 - blend_area.x1;
 3350              		.loc 1 770 9 view .LVU1189
 770:lvgl/lvgl/src/draw/lv_draw_rect.c ****         sh_buf_tmp += clip_area_sub.x1 - blend_area.x1;
 3351              		.loc 1 770 37 is_stmt 0 view .LVU1190
 3352 0a7c BDF94630 		ldrsh	r3, [sp, #70]
 770:lvgl/lvgl/src/draw/lv_draw_rect.c ****         sh_buf_tmp += clip_area_sub.x1 - blend_area.x1;
 3353              		.loc 1 770 53 view .LVU1191
 3354 0a80 BDF94E10 		ldrsh	r1, [sp, #78]
 770:lvgl/lvgl/src/draw/lv_draw_rect.c ****         sh_buf_tmp += clip_area_sub.x1 - blend_area.x1;
 3355              		.loc 1 770 41 view .LVU1192
 3356 0a84 5B1A     		subs	r3, r3, r1
 770:lvgl/lvgl/src/draw/lv_draw_rect.c ****         sh_buf_tmp += clip_area_sub.x1 - blend_area.x1;
 3357              		.loc 1 770 20 view .LVU1193
 3358 0a86 0799     		ldr	r1, [sp, #28]
 3359 0a88 04FB0313 		mla	r3, r4, r3, r1
 771:lvgl/lvgl/src/draw/lv_draw_rect.c **** 
 3360              		.loc 1 771 9 is_stmt 1 view .LVU1194
 771:lvgl/lvgl/src/draw/lv_draw_rect.c **** 
 3361              		.loc 1 771 52 is_stmt 0 view .LVU1195
 3362 0a8c BDF94C10 		ldrsh	r1, [sp, #76]
 771:lvgl/lvgl/src/draw/lv_draw_rect.c **** 
 3363              		.loc 1 771 40 view .LVU1196
ARM GAS  C:\Users\gx\AppData\Local\Temp\ccP7i1j8.s 			page 105


 3364 0a90 521A     		subs	r2, r2, r1
 771:lvgl/lvgl/src/draw/lv_draw_rect.c **** 
 3365              		.loc 1 771 20 view .LVU1197
 3366 0a92 1344     		add	r3, r3, r2
 3367 0a94 1093     		str	r3, [sp, #64]
 774:lvgl/lvgl/src/draw/lv_draw_rect.c ****         else simple_sub = simple;
 3368              		.loc 1 774 9 is_stmt 1 view .LVU1198
 774:lvgl/lvgl/src/draw/lv_draw_rect.c ****         else simple_sub = simple;
 3369              		.loc 1 774 11 is_stmt 0 view .LVU1199
 3370 0a96 099B     		ldr	r3, [sp, #36]
 3371 0a98 8BB1     		cbz	r3, .L216
 3372              	.L140:
 775:lvgl/lvgl/src/draw/lv_draw_rect.c ****         mask_act = simple_sub ? &sh_buf_tmp : &mask_buf;
 3373              		.loc 1 775 14 is_stmt 1 view .LVU1200
 3374              	.LVL320:
 776:lvgl/lvgl/src/draw/lv_draw_rect.c **** 
 3375              		.loc 1 776 9 view .LVU1201
 776:lvgl/lvgl/src/draw/lv_draw_rect.c **** 
 3376              		.loc 1 776 45 is_stmt 0 view .LVU1202
 3377 0a9a 059B     		ldr	r3, [sp, #20]
 3378 0a9c D3B1     		cbz	r3, .L175
 3379 0a9e 1A46     		mov	r2, r3
 3380 0aa0 0DF1400A 		add	r10, sp, #64
 3381              	.LVL321:
 3382              	.L141:
 778:lvgl/lvgl/src/draw/lv_draw_rect.c ****             mask_res = LV_DRAW_MASK_RES_CHANGED;    /*In simple mode it won't be overwritten*/
 3383              		.loc 1 778 9 is_stmt 1 discriminator 4 view .LVU1203
 778:lvgl/lvgl/src/draw/lv_draw_rect.c ****             mask_res = LV_DRAW_MASK_RES_CHANGED;    /*In simple mode it won't be overwritten*/
 3384              		.loc 1 778 11 is_stmt 0 discriminator 4 view .LVU1204
 3385 0aa4 089B     		ldr	r3, [sp, #32]
 3386 0aa6 002B     		cmp	r3, #0
 3387 0aa8 7FF719AF 		ble	.L139
 779:lvgl/lvgl/src/draw/lv_draw_rect.c ****             for(y = clip_area_sub.y1; y <= clip_area_sub.y2; y++) {
 3388              		.loc 1 779 13 is_stmt 1 view .LVU1205
 3389              	.LVL322:
 780:lvgl/lvgl/src/draw/lv_draw_rect.c ****                 blend_area.y1 = y;
 3390              		.loc 1 780 13 view .LVU1206
 780:lvgl/lvgl/src/draw/lv_draw_rect.c ****                 blend_area.y1 = y;
 3391              		.loc 1 780 19 is_stmt 0 view .LVU1207
 3392 0aac BDF94680 		ldrsh	r8, [sp, #70]
 3393              	.LVL323:
 779:lvgl/lvgl/src/draw/lv_draw_rect.c ****             for(y = clip_area_sub.y1; y <= clip_area_sub.y2; y++) {
 3394              		.loc 1 779 22 view .LVU1208
 3395 0ab0 4FF0020B 		mov	fp, #2
 3396 0ab4 0B96     		str	r6, [sp, #44]
 3397 0ab6 5E46     		mov	r6, fp
 3398 0ab8 BB46     		mov	fp, r7
 3399 0aba 1746     		mov	r7, r2
 780:lvgl/lvgl/src/draw/lv_draw_rect.c ****                 blend_area.y1 = y;
 3400              		.loc 1 780 13 view .LVU1209
 3401 0abc 23E0     		b	.L142
 3402              	.LVL324:
 3403              	.L216:
 774:lvgl/lvgl/src/draw/lv_draw_rect.c ****         else simple_sub = simple;
 3404              		.loc 1 774 25 discriminator 1 view .LVU1210
 3405 0abe 4246     		mov	r2, r8
 3406 0ac0 1CA9     		add	r1, sp, #112
ARM GAS  C:\Users\gx\AppData\Local\Temp\ccP7i1j8.s 			page 106


 3407 0ac2 11A8     		add	r0, sp, #68
 3408 0ac4 FFF7FEFF 		bl	_lv_area_is_out
 3409              	.LVL325:
 774:lvgl/lvgl/src/draw/lv_draw_rect.c ****         else simple_sub = simple;
 3410              		.loc 1 774 22 discriminator 1 view .LVU1211
 3411 0ac8 0246     		mov	r2, r0
 3412 0aca 0028     		cmp	r0, #0
 3413 0acc E5D0     		beq	.L140
 776:lvgl/lvgl/src/draw/lv_draw_rect.c **** 
 3414              		.loc 1 776 45 view .LVU1212
 3415 0ace 0DF1400A 		add	r10, sp, #64
 3416 0ad2 E7E7     		b	.L141
 3417              	.LVL326:
 3418              	.L175:
 776:lvgl/lvgl/src/draw/lv_draw_rect.c **** 
 3419              		.loc 1 776 45 view .LVU1213
 3420 0ad4 059B     		ldr	r3, [sp, #20]
 3421 0ad6 1A46     		mov	r2, r3
 3422 0ad8 0DF1540A 		add	r10, sp, #84
 3423 0adc E2E7     		b	.L141
 3424              	.LVL327:
 3425              	.L143:
 789:lvgl/lvgl/src/draw/lv_draw_rect.c ****                 sh_buf_tmp += corner_size;
 3426              		.loc 1 789 17 is_stmt 1 discriminator 2 view .LVU1214
 3427 0ade AB78     		ldrb	r3, [r5, #2]	@ zero_extendqisi2
 3428 0ae0 0293     		str	r3, [sp, #8]
 3429 0ae2 95F83230 		ldrb	r3, [r5, #50]	@ zero_extendqisi2
 3430 0ae6 0193     		str	r3, [sp, #4]
 3431 0ae8 0096     		str	r6, [sp]
 3432 0aea DAF80030 		ldr	r3, [r10]
 3433 0aee 2A8D     		ldrh	r2, [r5, #40]
 3434 0af0 13A9     		add	r1, sp, #76
 3435 0af2 11A8     		add	r0, sp, #68
 3436 0af4 FFF7FEFF 		bl	_lv_blend_fill
 3437              	.LVL328:
 790:lvgl/lvgl/src/draw/lv_draw_rect.c ****             }
 3438              		.loc 1 790 17 discriminator 2 view .LVU1215
 790:lvgl/lvgl/src/draw/lv_draw_rect.c ****             }
 3439              		.loc 1 790 28 is_stmt 0 discriminator 2 view .LVU1216
 3440 0af8 109B     		ldr	r3, [sp, #64]
 3441 0afa 2344     		add	r3, r3, r4
 3442 0afc 1093     		str	r3, [sp, #64]
 780:lvgl/lvgl/src/draw/lv_draw_rect.c ****                 blend_area.y1 = y;
 3443              		.loc 1 780 62 is_stmt 1 discriminator 2 view .LVU1217
 780:lvgl/lvgl/src/draw/lv_draw_rect.c ****                 blend_area.y1 = y;
 3444              		.loc 1 780 63 is_stmt 0 discriminator 2 view .LVU1218
 3445 0afe 08F10108 		add	r8, r8, #1
 3446              	.LVL329:
 780:lvgl/lvgl/src/draw/lv_draw_rect.c ****                 blend_area.y1 = y;
 3447              		.loc 1 780 63 discriminator 2 view .LVU1219
 3448 0b02 0FFA88F8 		sxth	r8, r8
 3449              	.LVL330:
 3450              	.L142:
 780:lvgl/lvgl/src/draw/lv_draw_rect.c ****                 blend_area.y1 = y;
 3451              		.loc 1 780 39 is_stmt 1 discriminator 1 view .LVU1220
 780:lvgl/lvgl/src/draw/lv_draw_rect.c ****                 blend_area.y1 = y;
 3452              		.loc 1 780 57 is_stmt 0 discriminator 1 view .LVU1221
ARM GAS  C:\Users\gx\AppData\Local\Temp\ccP7i1j8.s 			page 107


 3453 0b06 BDF94A30 		ldrsh	r3, [sp, #74]
 780:lvgl/lvgl/src/draw/lv_draw_rect.c ****                 blend_area.y1 = y;
 3454              		.loc 1 780 13 discriminator 1 view .LVU1222
 3455 0b0a 4345     		cmp	r3, r8
 3456 0b0c 16DB     		blt	.L217
 781:lvgl/lvgl/src/draw/lv_draw_rect.c ****                 blend_area.y2 = y;
 3457              		.loc 1 781 17 is_stmt 1 view .LVU1223
 781:lvgl/lvgl/src/draw/lv_draw_rect.c ****                 blend_area.y2 = y;
 3458              		.loc 1 781 31 is_stmt 0 view .LVU1224
 3459 0b0e ADF84E80 		strh	r8, [sp, #78]	@ movhi
 782:lvgl/lvgl/src/draw/lv_draw_rect.c **** 
 3460              		.loc 1 782 17 is_stmt 1 view .LVU1225
 782:lvgl/lvgl/src/draw/lv_draw_rect.c **** 
 3461              		.loc 1 782 31 is_stmt 0 view .LVU1226
 3462 0b12 ADF85280 		strh	r8, [sp, #82]	@ movhi
 784:lvgl/lvgl/src/draw/lv_draw_rect.c ****                     lv_memcpy(mask_buf, sh_buf_tmp, corner_size);
 3463              		.loc 1 784 17 is_stmt 1 view .LVU1227
 784:lvgl/lvgl/src/draw/lv_draw_rect.c ****                     lv_memcpy(mask_buf, sh_buf_tmp, corner_size);
 3464              		.loc 1 784 19 is_stmt 0 view .LVU1228
 3465 0b16 002F     		cmp	r7, #0
 3466 0b18 E1D1     		bne	.L143
 785:lvgl/lvgl/src/draw/lv_draw_rect.c ****                     mask_res = lv_draw_mask_apply(mask_buf, clip_area_sub.x1, y, w);
 3467              		.loc 1 785 21 is_stmt 1 view .LVU1229
 3468 0b1a 2246     		mov	r2, r4
 3469 0b1c 1099     		ldr	r1, [sp, #64]
 3470 0b1e 1598     		ldr	r0, [sp, #84]
 3471 0b20 FFF7FEFF 		bl	lv_memcpy
 3472              	.LVL331:
 786:lvgl/lvgl/src/draw/lv_draw_rect.c ****                     if(mask_res == LV_DRAW_MASK_RES_FULL_COVER) mask_res = LV_DRAW_MASK_RES_CHANGED
 3473              		.loc 1 786 21 view .LVU1230
 786:lvgl/lvgl/src/draw/lv_draw_rect.c ****                     if(mask_res == LV_DRAW_MASK_RES_FULL_COVER) mask_res = LV_DRAW_MASK_RES_CHANGED
 3474              		.loc 1 786 32 is_stmt 0 view .LVU1231
 3475 0b24 089B     		ldr	r3, [sp, #32]
 3476 0b26 4246     		mov	r2, r8
 3477 0b28 BDF94410 		ldrsh	r1, [sp, #68]
 3478 0b2c 1598     		ldr	r0, [sp, #84]
 3479 0b2e FFF7FEFF 		bl	lv_draw_mask_apply
 3480              	.LVL332:
 3481 0b32 0646     		mov	r6, r0
 3482              	.LVL333:
 787:lvgl/lvgl/src/draw/lv_draw_rect.c ****                 }
 3483              		.loc 1 787 21 is_stmt 1 view .LVU1232
 787:lvgl/lvgl/src/draw/lv_draw_rect.c ****                 }
 3484              		.loc 1 787 23 is_stmt 0 view .LVU1233
 3485 0b34 0128     		cmp	r0, #1
 3486 0b36 D2D1     		bne	.L143
 787:lvgl/lvgl/src/draw/lv_draw_rect.c ****                 }
 3487              		.loc 1 787 74 view .LVU1234
 3488 0b38 0226     		movs	r6, #2
 3489 0b3a D0E7     		b	.L143
 3490              	.LVL334:
 3491              	.L217:
 787:lvgl/lvgl/src/draw/lv_draw_rect.c ****                 }
 3492              		.loc 1 787 74 view .LVU1235
 3493 0b3c 0B9E     		ldr	r6, [sp, #44]
 3494              	.LVL335:
 787:lvgl/lvgl/src/draw/lv_draw_rect.c ****                 }
ARM GAS  C:\Users\gx\AppData\Local\Temp\ccP7i1j8.s 			page 108


 3495              		.loc 1 787 74 view .LVU1236
 3496 0b3e 5F46     		mov	r7, fp
 3497 0b40 CDE6     		b	.L139
 3498              	.LVL336:
 3499              	.L211:
 787:lvgl/lvgl/src/draw/lv_draw_rect.c ****                 }
 3500              		.loc 1 787 74 view .LVU1237
 3501              	.LBE205:
 805:lvgl/lvgl/src/draw/lv_draw_rect.c ****         lv_coord_t w = lv_area_get_width(&clip_area_sub);
 3502              		.loc 1 805 66 discriminator 1 view .LVU1238
 3503 0b42 BDF91870 		ldrsh	r7, [sp, #24]
 3504 0b46 3A46     		mov	r2, r7
 3505 0b48 1CA9     		add	r1, sp, #112
 3506 0b4a 11A8     		add	r0, sp, #68
 3507 0b4c FFF7FEFF 		bl	_lv_area_is_in
 3508              	.LVL337:
 805:lvgl/lvgl/src/draw/lv_draw_rect.c ****         lv_coord_t w = lv_area_get_width(&clip_area_sub);
 3509              		.loc 1 805 62 discriminator 1 view .LVU1239
 3510 0b50 0028     		cmp	r0, #0
 3511 0b52 7FF4E9AE 		bne	.L145
 3512              	.LBB208:
 806:lvgl/lvgl/src/draw/lv_draw_rect.c ****         sh_buf_tmp = sh_buf;
 3513              		.loc 1 806 9 is_stmt 1 view .LVU1240
 3514              	.LVL338:
 3515              	.LBB209:
 3516              	.LBI209:
 133:lvgl/lvgl/src/draw/../misc/lv_area.h **** {
 3517              		.loc 2 133 26 view .LVU1241
 3518              	.LBB210:
 135:lvgl/lvgl/src/draw/../misc/lv_area.h **** }
 3519              		.loc 2 135 5 view .LVU1242
 135:lvgl/lvgl/src/draw/../misc/lv_area.h **** }
 3520              		.loc 2 135 31 is_stmt 0 view .LVU1243
 3521 0b56 BDF84810 		ldrh	r1, [sp, #72]
 135:lvgl/lvgl/src/draw/../misc/lv_area.h **** }
 3522              		.loc 2 135 44 view .LVU1244
 3523 0b5a BDF94420 		ldrsh	r2, [sp, #68]
 3524 0b5e 93B2     		uxth	r3, r2
 135:lvgl/lvgl/src/draw/../misc/lv_area.h **** }
 3525              		.loc 2 135 36 view .LVU1245
 3526 0b60 CB1A     		subs	r3, r1, r3
 3527 0b62 9BB2     		uxth	r3, r3
 135:lvgl/lvgl/src/draw/../misc/lv_area.h **** }
 3528              		.loc 2 135 49 view .LVU1246
 3529 0b64 0133     		adds	r3, r3, #1
 135:lvgl/lvgl/src/draw/../misc/lv_area.h **** }
 3530              		.loc 2 135 12 view .LVU1247
 3531 0b66 1BB2     		sxth	r3, r3
 3532 0b68 0893     		str	r3, [sp, #32]
 3533              	.LVL339:
 135:lvgl/lvgl/src/draw/../misc/lv_area.h **** }
 3534              		.loc 2 135 12 view .LVU1248
 3535              	.LBE210:
 3536              	.LBE209:
 807:lvgl/lvgl/src/draw/lv_draw_rect.c ****         sh_buf_tmp += (blend_area.y2 - clip_area_sub.y2) * corner_size;
 3537              		.loc 1 807 9 is_stmt 1 view .LVU1249
 808:lvgl/lvgl/src/draw/lv_draw_rect.c ****         sh_buf_tmp += clip_area_sub.x1 - blend_area.x1;
ARM GAS  C:\Users\gx\AppData\Local\Temp\ccP7i1j8.s 			page 109


 3538              		.loc 1 808 9 view .LVU1250
 808:lvgl/lvgl/src/draw/lv_draw_rect.c ****         sh_buf_tmp += clip_area_sub.x1 - blend_area.x1;
 3539              		.loc 1 808 34 is_stmt 0 view .LVU1251
 3540 0b6a BDF95230 		ldrsh	r3, [sp, #82]
 808:lvgl/lvgl/src/draw/lv_draw_rect.c ****         sh_buf_tmp += clip_area_sub.x1 - blend_area.x1;
 3541              		.loc 1 808 53 view .LVU1252
 3542 0b6e BDF94A10 		ldrsh	r1, [sp, #74]
 808:lvgl/lvgl/src/draw/lv_draw_rect.c ****         sh_buf_tmp += clip_area_sub.x1 - blend_area.x1;
 3543              		.loc 1 808 38 view .LVU1253
 3544 0b72 5B1A     		subs	r3, r3, r1
 808:lvgl/lvgl/src/draw/lv_draw_rect.c ****         sh_buf_tmp += clip_area_sub.x1 - blend_area.x1;
 3545              		.loc 1 808 20 view .LVU1254
 3546 0b74 0799     		ldr	r1, [sp, #28]
 3547 0b76 04FB0313 		mla	r3, r4, r3, r1
 809:lvgl/lvgl/src/draw/lv_draw_rect.c **** 
 3548              		.loc 1 809 9 is_stmt 1 view .LVU1255
 809:lvgl/lvgl/src/draw/lv_draw_rect.c **** 
 3549              		.loc 1 809 52 is_stmt 0 view .LVU1256
 3550 0b7a BDF94C10 		ldrsh	r1, [sp, #76]
 809:lvgl/lvgl/src/draw/lv_draw_rect.c **** 
 3551              		.loc 1 809 40 view .LVU1257
 3552 0b7e 521A     		subs	r2, r2, r1
 809:lvgl/lvgl/src/draw/lv_draw_rect.c **** 
 3553              		.loc 1 809 20 view .LVU1258
 3554 0b80 1344     		add	r3, r3, r2
 3555 0b82 1093     		str	r3, [sp, #64]
 812:lvgl/lvgl/src/draw/lv_draw_rect.c ****         else simple_sub = simple;
 3556              		.loc 1 812 9 is_stmt 1 view .LVU1259
 812:lvgl/lvgl/src/draw/lv_draw_rect.c ****         else simple_sub = simple;
 3557              		.loc 1 812 11 is_stmt 0 view .LVU1260
 3558 0b84 099B     		ldr	r3, [sp, #36]
 3559 0b86 9BB1     		cbz	r3, .L218
 3560              	.L146:
 813:lvgl/lvgl/src/draw/lv_draw_rect.c ****         mask_act = simple_sub ? &sh_buf_tmp : &mask_buf;
 3561              		.loc 1 813 14 is_stmt 1 view .LVU1261
 3562              	.LVL340:
 814:lvgl/lvgl/src/draw/lv_draw_rect.c ****         if(w > 0) {
 3563              		.loc 1 814 9 view .LVU1262
 814:lvgl/lvgl/src/draw/lv_draw_rect.c ****         if(w > 0) {
 3564              		.loc 1 814 45 is_stmt 0 view .LVU1263
 3565 0b88 059B     		ldr	r3, [sp, #20]
 3566 0b8a E3B1     		cbz	r3, .L178
 3567 0b8c 9A46     		mov	r10, r3
 3568 0b8e 0DF1400B 		add	fp, sp, #64
 3569              	.LVL341:
 3570              	.L147:
 815:lvgl/lvgl/src/draw/lv_draw_rect.c ****             mask_res = LV_DRAW_MASK_RES_CHANGED;    /*In simple mode it won't be overwritten*/
 3571              		.loc 1 815 9 is_stmt 1 discriminator 4 view .LVU1264
 815:lvgl/lvgl/src/draw/lv_draw_rect.c ****             mask_res = LV_DRAW_MASK_RES_CHANGED;    /*In simple mode it won't be overwritten*/
 3572              		.loc 1 815 11 is_stmt 0 discriminator 4 view .LVU1265
 3573 0b92 089B     		ldr	r3, [sp, #32]
 3574 0b94 002B     		cmp	r3, #0
 3575 0b96 7FF7C7AE 		ble	.L145
 816:lvgl/lvgl/src/draw/lv_draw_rect.c ****             for(y = clip_area_sub.y2; y >= clip_area_sub.y1; y--) {
 3576              		.loc 1 816 13 is_stmt 1 view .LVU1266
 3577              	.LVL342:
 817:lvgl/lvgl/src/draw/lv_draw_rect.c ****                 blend_area.y1 = y;
ARM GAS  C:\Users\gx\AppData\Local\Temp\ccP7i1j8.s 			page 110


 3578              		.loc 1 817 13 view .LVU1267
 817:lvgl/lvgl/src/draw/lv_draw_rect.c ****                 blend_area.y1 = y;
 3579              		.loc 1 817 19 is_stmt 0 view .LVU1268
 3580 0b9a BDF94A70 		ldrsh	r7, [sp, #74]
 3581              	.LVL343:
 816:lvgl/lvgl/src/draw/lv_draw_rect.c ****             for(y = clip_area_sub.y2; y >= clip_area_sub.y1; y--) {
 3582              		.loc 1 816 22 view .LVU1269
 3583 0b9e 4FF00208 		mov	r8, #2
 3584 0ba2 5246     		mov	r2, r10
 3585 0ba4 B246     		mov	r10, r6
 3586 0ba6 2346     		mov	r3, r4
 3587 0ba8 4446     		mov	r4, r8
 3588 0baa 9846     		mov	r8, r3
 3589 0bac 1646     		mov	r6, r2
 817:lvgl/lvgl/src/draw/lv_draw_rect.c ****                 blend_area.y1 = y;
 3590              		.loc 1 817 13 view .LVU1270
 3591 0bae 21E0     		b	.L148
 3592              	.LVL344:
 3593              	.L218:
 812:lvgl/lvgl/src/draw/lv_draw_rect.c ****         else simple_sub = simple;
 3594              		.loc 1 812 25 discriminator 1 view .LVU1271
 3595 0bb0 3A46     		mov	r2, r7
 3596 0bb2 1CA9     		add	r1, sp, #112
 3597 0bb4 11A8     		add	r0, sp, #68
 3598 0bb6 FFF7FEFF 		bl	_lv_area_is_out
 3599              	.LVL345:
 812:lvgl/lvgl/src/draw/lv_draw_rect.c ****         else simple_sub = simple;
 3600              		.loc 1 812 22 discriminator 1 view .LVU1272
 3601 0bba 8246     		mov	r10, r0
 3602 0bbc 0028     		cmp	r0, #0
 3603 0bbe E3D0     		beq	.L146
 814:lvgl/lvgl/src/draw/lv_draw_rect.c ****         if(w > 0) {
 3604              		.loc 1 814 45 view .LVU1273
 3605 0bc0 0DF1400B 		add	fp, sp, #64
 3606 0bc4 E5E7     		b	.L147
 3607              	.LVL346:
 3608              	.L178:
 814:lvgl/lvgl/src/draw/lv_draw_rect.c ****         if(w > 0) {
 3609              		.loc 1 814 45 view .LVU1274
 3610 0bc6 DDF814A0 		ldr	r10, [sp, #20]
 3611 0bca 0DF1540B 		add	fp, sp, #84
 3612 0bce E0E7     		b	.L147
 3613              	.LVL347:
 3614              	.L149:
 826:lvgl/lvgl/src/draw/lv_draw_rect.c ****                 sh_buf_tmp += corner_size;
 3615              		.loc 1 826 17 is_stmt 1 discriminator 2 view .LVU1275
 3616 0bd0 AB78     		ldrb	r3, [r5, #2]	@ zero_extendqisi2
 3617 0bd2 0293     		str	r3, [sp, #8]
 3618 0bd4 95F83230 		ldrb	r3, [r5, #50]	@ zero_extendqisi2
 3619 0bd8 0193     		str	r3, [sp, #4]
 3620 0bda 0094     		str	r4, [sp]
 3621 0bdc DBF80030 		ldr	r3, [fp]
 3622 0be0 2A8D     		ldrh	r2, [r5, #40]
 3623 0be2 13A9     		add	r1, sp, #76
 3624 0be4 11A8     		add	r0, sp, #68
 3625 0be6 FFF7FEFF 		bl	_lv_blend_fill
 3626              	.LVL348:
ARM GAS  C:\Users\gx\AppData\Local\Temp\ccP7i1j8.s 			page 111


 827:lvgl/lvgl/src/draw/lv_draw_rect.c ****             }
 3627              		.loc 1 827 17 discriminator 2 view .LVU1276
 827:lvgl/lvgl/src/draw/lv_draw_rect.c ****             }
 3628              		.loc 1 827 28 is_stmt 0 discriminator 2 view .LVU1277
 3629 0bea 109B     		ldr	r3, [sp, #64]
 3630 0bec 4344     		add	r3, r3, r8
 3631 0bee 1093     		str	r3, [sp, #64]
 817:lvgl/lvgl/src/draw/lv_draw_rect.c ****                 blend_area.y1 = y;
 3632              		.loc 1 817 62 is_stmt 1 discriminator 2 view .LVU1278
 817:lvgl/lvgl/src/draw/lv_draw_rect.c ****                 blend_area.y1 = y;
 3633              		.loc 1 817 63 is_stmt 0 discriminator 2 view .LVU1279
 3634 0bf0 013F     		subs	r7, r7, #1
 3635              	.LVL349:
 817:lvgl/lvgl/src/draw/lv_draw_rect.c ****                 blend_area.y1 = y;
 3636              		.loc 1 817 63 discriminator 2 view .LVU1280
 3637 0bf2 3FB2     		sxth	r7, r7
 3638              	.LVL350:
 3639              	.L148:
 817:lvgl/lvgl/src/draw/lv_draw_rect.c ****                 blend_area.y1 = y;
 3640              		.loc 1 817 39 is_stmt 1 discriminator 1 view .LVU1281
 817:lvgl/lvgl/src/draw/lv_draw_rect.c ****                 blend_area.y1 = y;
 3641              		.loc 1 817 57 is_stmt 0 discriminator 1 view .LVU1282
 3642 0bf4 BDF94630 		ldrsh	r3, [sp, #70]
 817:lvgl/lvgl/src/draw/lv_draw_rect.c ****                 blend_area.y1 = y;
 3643              		.loc 1 817 13 discriminator 1 view .LVU1283
 3644 0bf8 BB42     		cmp	r3, r7
 3645 0bfa 16DC     		bgt	.L219
 818:lvgl/lvgl/src/draw/lv_draw_rect.c ****                 blend_area.y2 = y;
 3646              		.loc 1 818 17 is_stmt 1 view .LVU1284
 818:lvgl/lvgl/src/draw/lv_draw_rect.c ****                 blend_area.y2 = y;
 3647              		.loc 1 818 31 is_stmt 0 view .LVU1285
 3648 0bfc ADF84E70 		strh	r7, [sp, #78]	@ movhi
 819:lvgl/lvgl/src/draw/lv_draw_rect.c **** 
 3649              		.loc 1 819 17 is_stmt 1 view .LVU1286
 819:lvgl/lvgl/src/draw/lv_draw_rect.c **** 
 3650              		.loc 1 819 31 is_stmt 0 view .LVU1287
 3651 0c00 ADF85270 		strh	r7, [sp, #82]	@ movhi
 821:lvgl/lvgl/src/draw/lv_draw_rect.c ****                     lv_memcpy(mask_buf, sh_buf_tmp, corner_size);
 3652              		.loc 1 821 17 is_stmt 1 view .LVU1288
 821:lvgl/lvgl/src/draw/lv_draw_rect.c ****                     lv_memcpy(mask_buf, sh_buf_tmp, corner_size);
 3653              		.loc 1 821 19 is_stmt 0 view .LVU1289
 3654 0c04 002E     		cmp	r6, #0
 3655 0c06 E3D1     		bne	.L149
 822:lvgl/lvgl/src/draw/lv_draw_rect.c ****                     mask_res = lv_draw_mask_apply(mask_buf, clip_area_sub.x1, y, w);
 3656              		.loc 1 822 21 is_stmt 1 view .LVU1290
 3657 0c08 4246     		mov	r2, r8
 3658 0c0a 1099     		ldr	r1, [sp, #64]
 3659 0c0c 1598     		ldr	r0, [sp, #84]
 3660 0c0e FFF7FEFF 		bl	lv_memcpy
 3661              	.LVL351:
 823:lvgl/lvgl/src/draw/lv_draw_rect.c ****                     if(mask_res == LV_DRAW_MASK_RES_FULL_COVER) mask_res = LV_DRAW_MASK_RES_CHANGED
 3662              		.loc 1 823 21 view .LVU1291
 823:lvgl/lvgl/src/draw/lv_draw_rect.c ****                     if(mask_res == LV_DRAW_MASK_RES_FULL_COVER) mask_res = LV_DRAW_MASK_RES_CHANGED
 3663              		.loc 1 823 32 is_stmt 0 view .LVU1292
 3664 0c12 089B     		ldr	r3, [sp, #32]
 3665 0c14 3A46     		mov	r2, r7
 3666 0c16 BDF94410 		ldrsh	r1, [sp, #68]
ARM GAS  C:\Users\gx\AppData\Local\Temp\ccP7i1j8.s 			page 112


 3667 0c1a 1598     		ldr	r0, [sp, #84]
 3668 0c1c FFF7FEFF 		bl	lv_draw_mask_apply
 3669              	.LVL352:
 3670 0c20 0446     		mov	r4, r0
 3671              	.LVL353:
 824:lvgl/lvgl/src/draw/lv_draw_rect.c ****                 }
 3672              		.loc 1 824 21 is_stmt 1 view .LVU1293
 824:lvgl/lvgl/src/draw/lv_draw_rect.c ****                 }
 3673              		.loc 1 824 23 is_stmt 0 view .LVU1294
 3674 0c22 0128     		cmp	r0, #1
 3675 0c24 D4D1     		bne	.L149
 824:lvgl/lvgl/src/draw/lv_draw_rect.c ****                 }
 3676              		.loc 1 824 74 view .LVU1295
 3677 0c26 0224     		movs	r4, #2
 3678 0c28 D2E7     		b	.L149
 3679              	.LVL354:
 3680              	.L219:
 824:lvgl/lvgl/src/draw/lv_draw_rect.c ****                 }
 3681              		.loc 1 824 74 view .LVU1296
 3682 0c2a 5646     		mov	r6, r10
 3683 0c2c 7CE6     		b	.L145
 3684              	.LVL355:
 3685              	.L212:
 824:lvgl/lvgl/src/draw/lv_draw_rect.c ****                 }
 3686              		.loc 1 824 74 view .LVU1297
 3687              	.LBE208:
 838:lvgl/lvgl/src/draw/lv_draw_rect.c ****         lv_coord_t w = lv_area_get_width(&clip_area_sub);
 3688              		.loc 1 838 66 discriminator 1 view .LVU1298
 3689 0c2e 069A     		ldr	r2, [sp, #24]
 3690 0c30 1CA9     		add	r1, sp, #112
 3691 0c32 11A8     		add	r0, sp, #68
 3692 0c34 FFF7FEFF 		bl	_lv_area_is_in
 3693              	.LVL356:
 838:lvgl/lvgl/src/draw/lv_draw_rect.c ****         lv_coord_t w = lv_area_get_width(&clip_area_sub);
 3694              		.loc 1 838 62 discriminator 1 view .LVU1299
 3695 0c38 0028     		cmp	r0, #0
 3696 0c3a 7FF491AE 		bne	.L151
 3697              	.LBB211:
 839:lvgl/lvgl/src/draw/lv_draw_rect.c ****         if(w > 0) {
 3698              		.loc 1 839 9 is_stmt 1 view .LVU1300
 3699              	.LVL357:
 3700              	.LBB212:
 3701              	.LBI212:
 133:lvgl/lvgl/src/draw/../misc/lv_area.h **** {
 3702              		.loc 2 133 26 view .LVU1301
 3703              	.LBB213:
 135:lvgl/lvgl/src/draw/../misc/lv_area.h **** }
 3704              		.loc 2 135 5 view .LVU1302
 135:lvgl/lvgl/src/draw/../misc/lv_area.h **** }
 3705              		.loc 2 135 31 is_stmt 0 view .LVU1303
 3706 0c3e BDF84860 		ldrh	r6, [sp, #72]
 135:lvgl/lvgl/src/draw/../misc/lv_area.h **** }
 3707              		.loc 2 135 44 view .LVU1304
 3708 0c42 BDF84430 		ldrh	r3, [sp, #68]
 135:lvgl/lvgl/src/draw/../misc/lv_area.h **** }
 3709              		.loc 2 135 36 view .LVU1305
 3710 0c46 F61A     		subs	r6, r6, r3
ARM GAS  C:\Users\gx\AppData\Local\Temp\ccP7i1j8.s 			page 113


 3711 0c48 B6B2     		uxth	r6, r6
 135:lvgl/lvgl/src/draw/../misc/lv_area.h **** }
 3712              		.loc 2 135 49 view .LVU1306
 3713 0c4a 0136     		adds	r6, r6, #1
 135:lvgl/lvgl/src/draw/../misc/lv_area.h **** }
 3714              		.loc 2 135 12 view .LVU1307
 3715 0c4c 36B2     		sxth	r6, r6
 3716              	.LVL358:
 135:lvgl/lvgl/src/draw/../misc/lv_area.h **** }
 3717              		.loc 2 135 12 view .LVU1308
 3718              	.LBE213:
 3719              	.LBE212:
 840:lvgl/lvgl/src/draw/lv_draw_rect.c ****             for(y = clip_area_sub.y1; y <= clip_area_sub.y2; y++) {
 3720              		.loc 1 840 9 is_stmt 1 view .LVU1309
 840:lvgl/lvgl/src/draw/lv_draw_rect.c ****             for(y = clip_area_sub.y1; y <= clip_area_sub.y2; y++) {
 3721              		.loc 1 840 11 is_stmt 0 view .LVU1310
 3722 0c4e 002E     		cmp	r6, #0
 3723 0c50 7FF786AE 		ble	.L151
 841:lvgl/lvgl/src/draw/lv_draw_rect.c ****                 blend_area.y1 = y;
 3724              		.loc 1 841 13 is_stmt 1 view .LVU1311
 841:lvgl/lvgl/src/draw/lv_draw_rect.c ****                 blend_area.y1 = y;
 3725              		.loc 1 841 19 is_stmt 0 view .LVU1312
 3726 0c54 BDF94640 		ldrsh	r4, [sp, #70]
 3727              	.LVL359:
 3728              	.L152:
 841:lvgl/lvgl/src/draw/lv_draw_rect.c ****                 blend_area.y1 = y;
 3729              		.loc 1 841 39 is_stmt 1 discriminator 1 view .LVU1313
 841:lvgl/lvgl/src/draw/lv_draw_rect.c ****                 blend_area.y1 = y;
 3730              		.loc 1 841 57 is_stmt 0 discriminator 1 view .LVU1314
 3731 0c58 BDF94A30 		ldrsh	r3, [sp, #74]
 841:lvgl/lvgl/src/draw/lv_draw_rect.c ****                 blend_area.y1 = y;
 3732              		.loc 1 841 13 discriminator 1 view .LVU1315
 3733 0c5c A342     		cmp	r3, r4
 3734 0c5e FFF67FAE 		blt	.L151
 842:lvgl/lvgl/src/draw/lv_draw_rect.c ****                 blend_area.y2 = y;
 3735              		.loc 1 842 17 is_stmt 1 discriminator 3 view .LVU1316
 842:lvgl/lvgl/src/draw/lv_draw_rect.c ****                 blend_area.y2 = y;
 3736              		.loc 1 842 31 is_stmt 0 discriminator 3 view .LVU1317
 3737 0c62 ADF84E40 		strh	r4, [sp, #78]	@ movhi
 843:lvgl/lvgl/src/draw/lv_draw_rect.c **** 
 3738              		.loc 1 843 17 is_stmt 1 discriminator 3 view .LVU1318
 843:lvgl/lvgl/src/draw/lv_draw_rect.c **** 
 3739              		.loc 1 843 31 is_stmt 0 discriminator 3 view .LVU1319
 3740 0c66 ADF85240 		strh	r4, [sp, #82]	@ movhi
 845:lvgl/lvgl/src/draw/lv_draw_rect.c ****                 mask_res = lv_draw_mask_apply(mask_buf, clip_area_sub.x1, y, w);
 3741              		.loc 1 845 17 is_stmt 1 discriminator 3 view .LVU1320
 3742 0c6a 3146     		mov	r1, r6
 3743 0c6c 1598     		ldr	r0, [sp, #84]
 3744 0c6e FFF7FEFF 		bl	lv_memset_ff
 3745              	.LVL360:
 846:lvgl/lvgl/src/draw/lv_draw_rect.c ****                 _lv_blend_fill(&clip_area_sub, &blend_area, dsc->shadow_color, mask_buf, mask_res, 
 3746              		.loc 1 846 17 discriminator 3 view .LVU1321
 846:lvgl/lvgl/src/draw/lv_draw_rect.c ****                 _lv_blend_fill(&clip_area_sub, &blend_area, dsc->shadow_color, mask_buf, mask_res, 
 3747              		.loc 1 846 28 is_stmt 0 discriminator 3 view .LVU1322
 3748 0c72 3346     		mov	r3, r6
 3749 0c74 2246     		mov	r2, r4
 3750 0c76 BDF94410 		ldrsh	r1, [sp, #68]
ARM GAS  C:\Users\gx\AppData\Local\Temp\ccP7i1j8.s 			page 114


 3751 0c7a 1598     		ldr	r0, [sp, #84]
 3752 0c7c FFF7FEFF 		bl	lv_draw_mask_apply
 3753              	.LVL361:
 847:lvgl/lvgl/src/draw/lv_draw_rect.c ****             }
 3754              		.loc 1 847 17 is_stmt 1 discriminator 3 view .LVU1323
 3755 0c80 AB78     		ldrb	r3, [r5, #2]	@ zero_extendqisi2
 3756 0c82 0293     		str	r3, [sp, #8]
 3757 0c84 95F83230 		ldrb	r3, [r5, #50]	@ zero_extendqisi2
 3758 0c88 0193     		str	r3, [sp, #4]
 3759 0c8a 0090     		str	r0, [sp]
 3760 0c8c 159B     		ldr	r3, [sp, #84]
 3761 0c8e 2A8D     		ldrh	r2, [r5, #40]
 3762 0c90 13A9     		add	r1, sp, #76
 3763 0c92 11A8     		add	r0, sp, #68
 3764              	.LVL362:
 847:lvgl/lvgl/src/draw/lv_draw_rect.c ****             }
 3765              		.loc 1 847 17 is_stmt 0 discriminator 3 view .LVU1324
 3766 0c94 FFF7FEFF 		bl	_lv_blend_fill
 3767              	.LVL363:
 841:lvgl/lvgl/src/draw/lv_draw_rect.c ****                 blend_area.y1 = y;
 3768              		.loc 1 841 62 is_stmt 1 discriminator 3 view .LVU1325
 841:lvgl/lvgl/src/draw/lv_draw_rect.c ****                 blend_area.y1 = y;
 3769              		.loc 1 841 63 is_stmt 0 discriminator 3 view .LVU1326
 3770 0c98 0134     		adds	r4, r4, #1
 3771              	.LVL364:
 841:lvgl/lvgl/src/draw/lv_draw_rect.c ****                 blend_area.y1 = y;
 3772              		.loc 1 841 63 discriminator 3 view .LVU1327
 3773 0c9a 24B2     		sxth	r4, r4
 3774              	.LVL365:
 841:lvgl/lvgl/src/draw/lv_draw_rect.c ****                 blend_area.y1 = y;
 3775              		.loc 1 841 63 discriminator 3 view .LVU1328
 3776 0c9c DCE7     		b	.L152
 3777              	.LVL366:
 3778              	.L213:
 841:lvgl/lvgl/src/draw/lv_draw_rect.c ****                 blend_area.y1 = y;
 3779              		.loc 1 841 63 discriminator 3 view .LVU1329
 3780              	.LBE211:
 853:lvgl/lvgl/src/draw/lv_draw_rect.c ****         lv_draw_mask_remove_id(mask_rout_id);
 3781              		.loc 1 853 9 is_stmt 1 view .LVU1330
 3782 0c9e 16A8     		add	r0, sp, #88
 3783 0ca0 FFF7FEFF 		bl	lv_draw_mask_free_param
 3784              	.LVL367:
 854:lvgl/lvgl/src/draw/lv_draw_rect.c ****     }
 3785              		.loc 1 854 9 view .LVU1331
 3786 0ca4 0C98     		ldr	r0, [sp, #48]
 3787 0ca6 FFF7FEFF 		bl	lv_draw_mask_remove_id
 3788              	.LVL368:
 3789 0caa 5DE6     		b	.L154
 3790              	.LVL369:
 3791              	.L182:
 3792              	.LCFI14:
 3793              		.cfi_def_cfa_offset 0
 3794              		.cfi_restore 4
 3795              		.cfi_restore 5
 3796              		.cfi_restore 6
 3797              		.cfi_restore 7
 3798              		.cfi_restore 8
ARM GAS  C:\Users\gx\AppData\Local\Temp\ccP7i1j8.s 			page 115


 3799              		.cfi_restore 9
 3800              		.cfi_restore 10
 3801              		.cfi_restore 11
 3802              		.cfi_restore 14
 854:lvgl/lvgl/src/draw/lv_draw_rect.c ****     }
 3803              		.loc 1 854 9 is_stmt 0 view .LVU1332
 3804 0cac 7047     		bx	lr
 3805              		.cfi_endproc
 3806              	.LFE158:
 3808              		.section	.rodata.draw_bg_img.str1.4,"aMS",%progbits,1
 3809              		.align	2
 3810              	.LC0:
 3811 0000 6C76676C 		.ascii	"lvgl/lvgl/src/draw/lv_draw_rect.c\000"
 3811      2F6C7667 
 3811      6C2F7372 
 3811      632F6472 
 3811      61772F6C 
 3812 0022 0000     		.align	2
 3813              	.LC1:
 3814 0024 436F7564 		.ascii	"Coudn't read the background image\000"
 3814      6E277420 
 3814      72656164 
 3814      20746865 
 3814      20626163 
 3815              		.section	.text.draw_bg_img,"ax",%progbits
 3816              		.align	1
 3817              		.syntax unified
 3818              		.thumb
 3819              		.thumb_func
 3820              		.fpu fpv4-sp-d16
 3822              	draw_bg_img:
 3823              	.LVL370:
 3824              	.LFB155:
 312:lvgl/lvgl/src/draw/lv_draw_rect.c ****     if(dsc->bg_img_src == NULL) return;
 3825              		.loc 1 312 1 is_stmt 1 view -0
 3826              		.cfi_startproc
 3827              		@ args = 0, pretend = 0, frame = 48
 3828              		@ frame_needed = 0, uses_anonymous_args = 0
 312:lvgl/lvgl/src/draw/lv_draw_rect.c ****     if(dsc->bg_img_src == NULL) return;
 3829              		.loc 1 312 1 is_stmt 0 view .LVU1334
 3830 0000 F0B5     		push	{r4, r5, r6, r7, lr}
 3831              	.LCFI15:
 3832              		.cfi_def_cfa_offset 20
 3833              		.cfi_offset 4, -20
 3834              		.cfi_offset 5, -16
 3835              		.cfi_offset 6, -12
 3836              		.cfi_offset 7, -8
 3837              		.cfi_offset 14, -4
 3838 0002 91B0     		sub	sp, sp, #68
 3839              	.LCFI16:
 3840              		.cfi_def_cfa_offset 88
 3841 0004 0646     		mov	r6, r0
 313:lvgl/lvgl/src/draw/lv_draw_rect.c ****     if(dsc->bg_img_opa <= LV_OPA_MIN) return;
 3842              		.loc 1 313 5 is_stmt 1 view .LVU1335
 313:lvgl/lvgl/src/draw/lv_draw_rect.c ****     if(dsc->bg_img_opa <= LV_OPA_MIN) return;
 3843              		.loc 1 313 11 is_stmt 0 view .LVU1336
 3844 0006 D068     		ldr	r0, [r2, #12]
ARM GAS  C:\Users\gx\AppData\Local\Temp\ccP7i1j8.s 			page 116


 3845              	.LVL371:
 313:lvgl/lvgl/src/draw/lv_draw_rect.c ****     if(dsc->bg_img_opa <= LV_OPA_MIN) return;
 3846              		.loc 1 313 7 view .LVU1337
 3847 0008 20B1     		cbz	r0, .L220
 3848 000a 0F46     		mov	r7, r1
 3849 000c 1546     		mov	r5, r2
 314:lvgl/lvgl/src/draw/lv_draw_rect.c **** 
 3850              		.loc 1 314 5 is_stmt 1 view .LVU1338
 314:lvgl/lvgl/src/draw/lv_draw_rect.c **** 
 3851              		.loc 1 314 11 is_stmt 0 view .LVU1339
 3852 000e 937D     		ldrb	r3, [r2, #22]	@ zero_extendqisi2
 314:lvgl/lvgl/src/draw/lv_draw_rect.c **** 
 3853              		.loc 1 314 7 view .LVU1340
 3854 0010 022B     		cmp	r3, #2
 3855 0012 01D8     		bhi	.L231
 3856              	.LVL372:
 3857              	.L220:
 372:lvgl/lvgl/src/draw/lv_draw_rect.c **** 
 3858              		.loc 1 372 1 view .LVU1341
 3859 0014 11B0     		add	sp, sp, #68
 3860              	.LCFI17:
 3861              		.cfi_remember_state
 3862              		.cfi_def_cfa_offset 20
 3863              		@ sp needed
 3864 0016 F0BD     		pop	{r4, r5, r6, r7, pc}
 3865              	.LVL373:
 3866              	.L231:
 3867              	.LCFI18:
 3868              		.cfi_restore_state
 316:lvgl/lvgl/src/draw/lv_draw_rect.c ****     if(src_type == LV_IMG_SRC_SYMBOL) {
 3869              		.loc 1 316 5 is_stmt 1 view .LVU1342
 316:lvgl/lvgl/src/draw/lv_draw_rect.c ****     if(src_type == LV_IMG_SRC_SYMBOL) {
 3870              		.loc 1 316 29 is_stmt 0 view .LVU1343
 3871 0018 FFF7FEFF 		bl	lv_img_src_get_type
 3872              	.LVL374:
 317:lvgl/lvgl/src/draw/lv_draw_rect.c ****         lv_point_t size;
 3873              		.loc 1 317 5 is_stmt 1 view .LVU1344
 317:lvgl/lvgl/src/draw/lv_draw_rect.c ****         lv_point_t size;
 3874              		.loc 1 317 7 is_stmt 0 view .LVU1345
 3875 001c 0228     		cmp	r0, #2
 3876 001e 0FD0     		beq	.L232
 3877              	.LBB214:
 334:lvgl/lvgl/src/draw/lv_draw_rect.c ****         lv_res_t res = lv_img_decoder_get_info(dsc->bg_img_src, &header);
 3878              		.loc 1 334 9 is_stmt 1 view .LVU1346
 335:lvgl/lvgl/src/draw/lv_draw_rect.c ****         if(res != LV_RES_OK) {
 3879              		.loc 1 335 9 view .LVU1347
 335:lvgl/lvgl/src/draw/lv_draw_rect.c ****         if(res != LV_RES_OK) {
 3880              		.loc 1 335 24 is_stmt 0 view .LVU1348
 3881 0020 05A9     		add	r1, sp, #20
 3882 0022 E868     		ldr	r0, [r5, #12]
 3883              	.LVL375:
 335:lvgl/lvgl/src/draw/lv_draw_rect.c ****         if(res != LV_RES_OK) {
 3884              		.loc 1 335 24 view .LVU1349
 3885 0024 FFF7FEFF 		bl	lv_img_decoder_get_info
 3886              	.LVL376:
 336:lvgl/lvgl/src/draw/lv_draw_rect.c ****             LV_LOG_WARN("Coudn't read the background image");
 3887              		.loc 1 336 9 is_stmt 1 view .LVU1350
ARM GAS  C:\Users\gx\AppData\Local\Temp\ccP7i1j8.s 			page 117


 336:lvgl/lvgl/src/draw/lv_draw_rect.c ****             LV_LOG_WARN("Coudn't read the background image");
 3888              		.loc 1 336 11 is_stmt 0 view .LVU1351
 3889 0028 0128     		cmp	r0, #1
 3890 002a 5ED0     		beq	.L223
 337:lvgl/lvgl/src/draw/lv_draw_rect.c ****             return;
 3891              		.loc 1 337 13 is_stmt 1 view .LVU1352
 3892 002c 7E4B     		ldr	r3, .L234
 3893 002e 0093     		str	r3, [sp]
 3894 0030 7E4B     		ldr	r3, .L234+4
 3895 0032 40F25112 		movw	r2, #337
 3896 0036 7E49     		ldr	r1, .L234+8
 3897 0038 0220     		movs	r0, #2
 3898              	.LVL377:
 337:lvgl/lvgl/src/draw/lv_draw_rect.c ****             return;
 3899              		.loc 1 337 13 is_stmt 0 view .LVU1353
 3900 003a FFF7FEFF 		bl	_lv_log_add
 3901              	.LVL378:
 337:lvgl/lvgl/src/draw/lv_draw_rect.c ****             return;
 3902              		.loc 1 337 61 is_stmt 1 view .LVU1354
 338:lvgl/lvgl/src/draw/lv_draw_rect.c ****         }
 3903              		.loc 1 338 13 view .LVU1355
 3904 003e E9E7     		b	.L220
 3905              	.LVL379:
 3906              	.L232:
 338:lvgl/lvgl/src/draw/lv_draw_rect.c ****         }
 3907              		.loc 1 338 13 is_stmt 0 view .LVU1356
 3908              	.LBE214:
 3909              	.LBB222:
 318:lvgl/lvgl/src/draw/lv_draw_rect.c ****         lv_txt_get_size(&size, dsc->bg_img_src, dsc->bg_img_symbol_font, 0, 0, LV_COORD_MAX, LV_TEX
 3910              		.loc 1 318 9 is_stmt 1 view .LVU1357
 319:lvgl/lvgl/src/draw/lv_draw_rect.c ****         lv_area_t a;
 3911              		.loc 1 319 9 view .LVU1358
 3912 0040 0024     		movs	r4, #0
 3913 0042 0294     		str	r4, [sp, #8]
 3914 0044 4FF4C043 		mov	r3, #24576
 3915 0048 0193     		str	r3, [sp, #4]
 3916 004a 0094     		str	r4, [sp]
 3917 004c 2346     		mov	r3, r4
 3918 004e 2A69     		ldr	r2, [r5, #16]
 3919 0050 E968     		ldr	r1, [r5, #12]
 3920 0052 05A8     		add	r0, sp, #20
 3921              	.LVL380:
 319:lvgl/lvgl/src/draw/lv_draw_rect.c ****         lv_area_t a;
 3922              		.loc 1 319 9 is_stmt 0 view .LVU1359
 3923 0054 FFF7FEFF 		bl	lv_txt_get_size
 3924              	.LVL381:
 320:lvgl/lvgl/src/draw/lv_draw_rect.c ****         a.x1 = coords->x1 + lv_area_get_width(coords) / 2 - size.x / 2;
 3925              		.loc 1 320 9 is_stmt 1 view .LVU1360
 321:lvgl/lvgl/src/draw/lv_draw_rect.c ****         a.x2 = a.x1 + size.x - 1;
 3926              		.loc 1 321 9 view .LVU1361
 321:lvgl/lvgl/src/draw/lv_draw_rect.c ****         a.x2 = a.x1 + size.x - 1;
 3927              		.loc 1 321 22 is_stmt 0 view .LVU1362
 3928 0058 3388     		ldrh	r3, [r6]
 3929              	.LVL382:
 3930              	.LBB223:
 3931              	.LBI223:
 133:lvgl/lvgl/src/draw/../misc/lv_area.h **** {
ARM GAS  C:\Users\gx\AppData\Local\Temp\ccP7i1j8.s 			page 118


 3932              		.loc 2 133 26 is_stmt 1 view .LVU1363
 3933              	.LBB224:
 135:lvgl/lvgl/src/draw/../misc/lv_area.h **** }
 3934              		.loc 2 135 5 view .LVU1364
 135:lvgl/lvgl/src/draw/../misc/lv_area.h **** }
 3935              		.loc 2 135 31 is_stmt 0 view .LVU1365
 3936 005a B288     		ldrh	r2, [r6, #4]
 135:lvgl/lvgl/src/draw/../misc/lv_area.h **** }
 3937              		.loc 2 135 36 view .LVU1366
 3938 005c D21A     		subs	r2, r2, r3
 3939 005e 92B2     		uxth	r2, r2
 135:lvgl/lvgl/src/draw/../misc/lv_area.h **** }
 3940              		.loc 2 135 49 view .LVU1367
 3941 0060 0132     		adds	r2, r2, #1
 3942              	.LVL383:
 135:lvgl/lvgl/src/draw/../misc/lv_area.h **** }
 3943              		.loc 2 135 49 view .LVU1368
 3944              	.LBE224:
 3945              	.LBE223:
 321:lvgl/lvgl/src/draw/lv_draw_rect.c ****         a.x2 = a.x1 + size.x - 1;
 3946              		.loc 1 321 27 view .LVU1369
 3947 0062 C2F3C031 		ubfx	r1, r2, #15, #1
 3948 0066 01FA82F2 		sxtah	r2, r1, r2
 3949 006a 03EB6203 		add	r3, r3, r2, asr #1
 3950 006e 9BB2     		uxth	r3, r3
 321:lvgl/lvgl/src/draw/lv_draw_rect.c ****         a.x2 = a.x1 + size.x - 1;
 3951              		.loc 1 321 65 view .LVU1370
 3952 0070 BDF91420 		ldrsh	r2, [sp, #20]
 321:lvgl/lvgl/src/draw/lv_draw_rect.c ****         a.x2 = a.x1 + size.x - 1;
 3953              		.loc 1 321 59 view .LVU1371
 3954 0074 02EBD271 		add	r1, r2, r2, lsr #31
 3955 0078 A3EB6103 		sub	r3, r3, r1, asr #1
 321:lvgl/lvgl/src/draw/lv_draw_rect.c ****         a.x2 = a.x1 + size.x - 1;
 3956              		.loc 1 321 14 view .LVU1372
 3957 007c ADF81830 		strh	r3, [sp, #24]	@ movhi
 322:lvgl/lvgl/src/draw/lv_draw_rect.c ****         a.y1 = coords->y1 + lv_area_get_height(coords) / 2 - size.y / 2;
 3958              		.loc 1 322 9 is_stmt 1 view .LVU1373
 322:lvgl/lvgl/src/draw/lv_draw_rect.c ****         a.y1 = coords->y1 + lv_area_get_height(coords) / 2 - size.y / 2;
 3959              		.loc 1 322 27 is_stmt 0 view .LVU1374
 3960 0080 92B2     		uxth	r2, r2
 322:lvgl/lvgl/src/draw/lv_draw_rect.c ****         a.y1 = coords->y1 + lv_area_get_height(coords) / 2 - size.y / 2;
 3961              		.loc 1 322 21 view .LVU1375
 3962 0082 12FA83F3 		uxtah	r3, r2, r3
 3963 0086 9BB2     		uxth	r3, r3
 322:lvgl/lvgl/src/draw/lv_draw_rect.c ****         a.y1 = coords->y1 + lv_area_get_height(coords) / 2 - size.y / 2;
 3964              		.loc 1 322 30 view .LVU1376
 3965 0088 013B     		subs	r3, r3, #1
 322:lvgl/lvgl/src/draw/lv_draw_rect.c ****         a.y1 = coords->y1 + lv_area_get_height(coords) / 2 - size.y / 2;
 3966              		.loc 1 322 14 view .LVU1377
 3967 008a ADF81C30 		strh	r3, [sp, #28]	@ movhi
 323:lvgl/lvgl/src/draw/lv_draw_rect.c ****         a.y2 = a.y1 + size.y - 1;
 3968              		.loc 1 323 9 is_stmt 1 view .LVU1378
 323:lvgl/lvgl/src/draw/lv_draw_rect.c ****         a.y2 = a.y1 + size.y - 1;
 3969              		.loc 1 323 22 is_stmt 0 view .LVU1379
 3970 008e 7388     		ldrh	r3, [r6, #2]
 3971              	.LVL384:
 3972              	.LBB225:
ARM GAS  C:\Users\gx\AppData\Local\Temp\ccP7i1j8.s 			page 119


 3973              	.LBI225:
 143:lvgl/lvgl/src/draw/../misc/lv_area.h **** {
 3974              		.loc 2 143 26 is_stmt 1 view .LVU1380
 3975              	.LBB226:
 3976              		.loc 2 145 5 view .LVU1381
 3977              		.loc 2 145 31 is_stmt 0 view .LVU1382
 3978 0090 F288     		ldrh	r2, [r6, #6]
 3979              		.loc 2 145 36 view .LVU1383
 3980 0092 D21A     		subs	r2, r2, r3
 3981 0094 92B2     		uxth	r2, r2
 3982              		.loc 2 145 49 view .LVU1384
 3983 0096 0132     		adds	r2, r2, #1
 3984              	.LVL385:
 3985              		.loc 2 145 49 view .LVU1385
 3986              	.LBE226:
 3987              	.LBE225:
 323:lvgl/lvgl/src/draw/lv_draw_rect.c ****         a.y2 = a.y1 + size.y - 1;
 3988              		.loc 1 323 27 view .LVU1386
 3989 0098 C2F3C031 		ubfx	r1, r2, #15, #1
 3990 009c 01FA82F2 		sxtah	r2, r1, r2
 3991 00a0 03EB6203 		add	r3, r3, r2, asr #1
 3992 00a4 9BB2     		uxth	r3, r3
 323:lvgl/lvgl/src/draw/lv_draw_rect.c ****         a.y2 = a.y1 + size.y - 1;
 3993              		.loc 1 323 66 view .LVU1387
 3994 00a6 BDF91620 		ldrsh	r2, [sp, #22]
 323:lvgl/lvgl/src/draw/lv_draw_rect.c ****         a.y2 = a.y1 + size.y - 1;
 3995              		.loc 1 323 60 view .LVU1388
 3996 00aa 02EBD271 		add	r1, r2, r2, lsr #31
 3997 00ae A3EB6103 		sub	r3, r3, r1, asr #1
 323:lvgl/lvgl/src/draw/lv_draw_rect.c ****         a.y2 = a.y1 + size.y - 1;
 3998              		.loc 1 323 14 view .LVU1389
 3999 00b2 ADF81A30 		strh	r3, [sp, #26]	@ movhi
 324:lvgl/lvgl/src/draw/lv_draw_rect.c **** 
 4000              		.loc 1 324 9 is_stmt 1 view .LVU1390
 324:lvgl/lvgl/src/draw/lv_draw_rect.c **** 
 4001              		.loc 1 324 27 is_stmt 0 view .LVU1391
 4002 00b6 92B2     		uxth	r2, r2
 324:lvgl/lvgl/src/draw/lv_draw_rect.c **** 
 4003              		.loc 1 324 21 view .LVU1392
 4004 00b8 12FA83F3 		uxtah	r3, r2, r3
 4005 00bc 9BB2     		uxth	r3, r3
 324:lvgl/lvgl/src/draw/lv_draw_rect.c **** 
 4006              		.loc 1 324 30 view .LVU1393
 4007 00be 013B     		subs	r3, r3, #1
 324:lvgl/lvgl/src/draw/lv_draw_rect.c **** 
 4008              		.loc 1 324 14 view .LVU1394
 4009 00c0 ADF81E30 		strh	r3, [sp, #30]	@ movhi
 326:lvgl/lvgl/src/draw/lv_draw_rect.c ****         lv_draw_label_dsc_init(&label_draw_dsc);
 4010              		.loc 1 326 9 is_stmt 1 view .LVU1395
 327:lvgl/lvgl/src/draw/lv_draw_rect.c ****         label_draw_dsc.font = dsc->bg_img_symbol_font;
 4011              		.loc 1 327 9 view .LVU1396
 4012 00c4 08A8     		add	r0, sp, #32
 4013 00c6 FFF7FEFF 		bl	lv_draw_label_dsc_init
 4014              	.LVL386:
 328:lvgl/lvgl/src/draw/lv_draw_rect.c ****         label_draw_dsc.color = dsc->bg_img_recolor;
 4015              		.loc 1 328 9 view .LVU1397
 328:lvgl/lvgl/src/draw/lv_draw_rect.c ****         label_draw_dsc.color = dsc->bg_img_recolor;
ARM GAS  C:\Users\gx\AppData\Local\Temp\ccP7i1j8.s 			page 120


 4016              		.loc 1 328 34 is_stmt 0 view .LVU1398
 4017 00ca 2B69     		ldr	r3, [r5, #16]
 328:lvgl/lvgl/src/draw/lv_draw_rect.c ****         label_draw_dsc.color = dsc->bg_img_recolor;
 4018              		.loc 1 328 29 view .LVU1399
 4019 00cc 0893     		str	r3, [sp, #32]
 329:lvgl/lvgl/src/draw/lv_draw_rect.c ****         label_draw_dsc.opa = dsc->bg_img_opa;
 4020              		.loc 1 329 9 is_stmt 1 view .LVU1400
 329:lvgl/lvgl/src/draw/lv_draw_rect.c ****         label_draw_dsc.opa = dsc->bg_img_opa;
 4021              		.loc 1 329 30 is_stmt 0 view .LVU1401
 4022 00ce AB8A     		ldrh	r3, [r5, #20]
 4023 00d0 ADF82C30 		strh	r3, [sp, #44]	@ movhi
 330:lvgl/lvgl/src/draw/lv_draw_rect.c ****         lv_draw_label(&a, clip, &label_draw_dsc, dsc->bg_img_src, NULL);
 4024              		.loc 1 330 9 is_stmt 1 view .LVU1402
 330:lvgl/lvgl/src/draw/lv_draw_rect.c ****         lv_draw_label(&a, clip, &label_draw_dsc, dsc->bg_img_src, NULL);
 4025              		.loc 1 330 33 is_stmt 0 view .LVU1403
 4026 00d4 AB7D     		ldrb	r3, [r5, #22]	@ zero_extendqisi2
 330:lvgl/lvgl/src/draw/lv_draw_rect.c ****         lv_draw_label(&a, clip, &label_draw_dsc, dsc->bg_img_src, NULL);
 4027              		.loc 1 330 28 view .LVU1404
 4028 00d6 8DF83A30 		strb	r3, [sp, #58]
 331:lvgl/lvgl/src/draw/lv_draw_rect.c ****     }
 4029              		.loc 1 331 9 is_stmt 1 view .LVU1405
 4030 00da 0094     		str	r4, [sp]
 4031 00dc EB68     		ldr	r3, [r5, #12]
 4032 00de 08AA     		add	r2, sp, #32
 4033 00e0 3946     		mov	r1, r7
 4034 00e2 06A8     		add	r0, sp, #24
 4035 00e4 FFF7FEFF 		bl	lv_draw_label
 4036              	.LVL387:
 4037              	.LBE222:
 4038 00e8 94E7     		b	.L220
 4039              	.LVL388:
 4040              	.L223:
 4041              	.LBB227:
 341:lvgl/lvgl/src/draw/lv_draw_rect.c ****         lv_draw_img_dsc_init(&img_dsc);
 4042              		.loc 1 341 9 view .LVU1406
 342:lvgl/lvgl/src/draw/lv_draw_rect.c ****         img_dsc.blend_mode = dsc->blend_mode;
 4043              		.loc 1 342 9 view .LVU1407
 4044 00ea 08A8     		add	r0, sp, #32
 4045              	.LVL389:
 342:lvgl/lvgl/src/draw/lv_draw_rect.c ****         img_dsc.blend_mode = dsc->blend_mode;
 4046              		.loc 1 342 9 is_stmt 0 view .LVU1408
 4047 00ec FFF7FEFF 		bl	lv_draw_img_dsc_init
 4048              	.LVL390:
 343:lvgl/lvgl/src/draw/lv_draw_rect.c ****         img_dsc.recolor = dsc->bg_img_recolor;
 4049              		.loc 1 343 9 is_stmt 1 view .LVU1409
 343:lvgl/lvgl/src/draw/lv_draw_rect.c ****         img_dsc.recolor = dsc->bg_img_recolor;
 4050              		.loc 1 343 33 is_stmt 0 view .LVU1410
 4051 00f0 AA78     		ldrb	r2, [r5, #2]	@ zero_extendqisi2
 343:lvgl/lvgl/src/draw/lv_draw_rect.c ****         img_dsc.recolor = dsc->bg_img_recolor;
 4052              		.loc 1 343 28 view .LVU1411
 4053 00f2 9DF82C30 		ldrb	r3, [sp, #44]	@ zero_extendqisi2
 4054 00f6 62F30303 		bfi	r3, r2, #0, #4
 4055 00fa 8DF82C30 		strb	r3, [sp, #44]
 344:lvgl/lvgl/src/draw/lv_draw_rect.c ****         img_dsc.recolor_opa = dsc->bg_img_recolor_opa;
 4056              		.loc 1 344 9 is_stmt 1 view .LVU1412
 344:lvgl/lvgl/src/draw/lv_draw_rect.c ****         img_dsc.recolor_opa = dsc->bg_img_recolor_opa;
 4057              		.loc 1 344 25 is_stmt 0 view .LVU1413
ARM GAS  C:\Users\gx\AppData\Local\Temp\ccP7i1j8.s 			page 121


 4058 00fe AB8A     		ldrh	r3, [r5, #20]
 4059 0100 ADF82830 		strh	r3, [sp, #40]	@ movhi
 345:lvgl/lvgl/src/draw/lv_draw_rect.c ****         img_dsc.opa = dsc->bg_img_opa;
 4060              		.loc 1 345 9 is_stmt 1 view .LVU1414
 345:lvgl/lvgl/src/draw/lv_draw_rect.c ****         img_dsc.opa = dsc->bg_img_opa;
 4061              		.loc 1 345 34 is_stmt 0 view .LVU1415
 4062 0104 EB7D     		ldrb	r3, [r5, #23]	@ zero_extendqisi2
 345:lvgl/lvgl/src/draw/lv_draw_rect.c ****         img_dsc.opa = dsc->bg_img_opa;
 4063              		.loc 1 345 29 view .LVU1416
 4064 0106 8DF82A30 		strb	r3, [sp, #42]
 346:lvgl/lvgl/src/draw/lv_draw_rect.c **** 
 4065              		.loc 1 346 9 is_stmt 1 view .LVU1417
 346:lvgl/lvgl/src/draw/lv_draw_rect.c **** 
 4066              		.loc 1 346 26 is_stmt 0 view .LVU1418
 4067 010a AB7D     		ldrb	r3, [r5, #22]	@ zero_extendqisi2
 346:lvgl/lvgl/src/draw/lv_draw_rect.c **** 
 4068              		.loc 1 346 21 view .LVU1419
 4069 010c 8DF82B30 		strb	r3, [sp, #43]
 349:lvgl/lvgl/src/draw/lv_draw_rect.c ****             lv_area_t area;
 4070              		.loc 1 349 9 is_stmt 1 view .LVU1420
 349:lvgl/lvgl/src/draw/lv_draw_rect.c ****             lv_area_t area;
 4071              		.loc 1 349 15 is_stmt 0 view .LVU1421
 4072 0110 2B7E     		ldrb	r3, [r5, #24]	@ zero_extendqisi2
 349:lvgl/lvgl/src/draw/lv_draw_rect.c ****             lv_area_t area;
 4073              		.loc 1 349 11 view .LVU1422
 4074 0112 73B1     		cbz	r3, .L233
 4075              	.LBB215:
 358:lvgl/lvgl/src/draw/lv_draw_rect.c ****             area.y1 = coords->y1;
 4076              		.loc 1 358 13 is_stmt 1 view .LVU1423
 359:lvgl/lvgl/src/draw/lv_draw_rect.c ****             area.y2 = area.y1 + header.h - 1;
 4077              		.loc 1 359 13 view .LVU1424
 359:lvgl/lvgl/src/draw/lv_draw_rect.c ****             area.y2 = area.y1 + header.h - 1;
 4078              		.loc 1 359 29 is_stmt 0 view .LVU1425
 4079 0114 B6F90230 		ldrsh	r3, [r6, #2]
 359:lvgl/lvgl/src/draw/lv_draw_rect.c ****             area.y2 = area.y1 + header.h - 1;
 4080              		.loc 1 359 21 view .LVU1426
 4081 0118 ADF81A30 		strh	r3, [sp, #26]	@ movhi
 360:lvgl/lvgl/src/draw/lv_draw_rect.c **** 
 4082              		.loc 1 360 13 is_stmt 1 view .LVU1427
 360:lvgl/lvgl/src/draw/lv_draw_rect.c **** 
 4083              		.loc 1 360 39 is_stmt 0 view .LVU1428
 4084 011c BDF81620 		ldrh	r2, [sp, #22]
 4085 0120 C2F34A12 		ubfx	r2, r2, #5, #11
 360:lvgl/lvgl/src/draw/lv_draw_rect.c **** 
 4086              		.loc 1 360 31 view .LVU1429
 4087 0124 12FA83F3 		uxtah	r3, r2, r3
 4088 0128 9BB2     		uxth	r3, r3
 360:lvgl/lvgl/src/draw/lv_draw_rect.c **** 
 4089              		.loc 1 360 42 view .LVU1430
 4090 012a 013B     		subs	r3, r3, #1
 360:lvgl/lvgl/src/draw/lv_draw_rect.c **** 
 4091              		.loc 1 360 21 view .LVU1431
 4092 012c ADF81E30 		strh	r3, [sp, #30]	@ movhi
 362:lvgl/lvgl/src/draw/lv_draw_rect.c **** 
 4093              		.loc 1 362 13 is_stmt 1 view .LVU1432
 4094 0130 64E0     		b	.L226
 4095              	.L233:
ARM GAS  C:\Users\gx\AppData\Local\Temp\ccP7i1j8.s 			page 122


 362:lvgl/lvgl/src/draw/lv_draw_rect.c **** 
 4096              		.loc 1 362 13 is_stmt 0 view .LVU1433
 4097              	.LBE215:
 4098              	.LBB216:
 350:lvgl/lvgl/src/draw/lv_draw_rect.c ****             area.x1 = coords->x1 + lv_area_get_width(coords) / 2 - header.w / 2;
 4099              		.loc 1 350 13 is_stmt 1 view .LVU1434
 351:lvgl/lvgl/src/draw/lv_draw_rect.c ****             area.y1 = coords->y1 + lv_area_get_height(coords) / 2 - header.h / 2;
 4100              		.loc 1 351 13 view .LVU1435
 351:lvgl/lvgl/src/draw/lv_draw_rect.c ****             area.y1 = coords->y1 + lv_area_get_height(coords) / 2 - header.h / 2;
 4101              		.loc 1 351 29 is_stmt 0 view .LVU1436
 4102 0132 3288     		ldrh	r2, [r6]
 4103              	.LVL391:
 4104              	.LBB217:
 4105              	.LBI217:
 133:lvgl/lvgl/src/draw/../misc/lv_area.h **** {
 4106              		.loc 2 133 26 is_stmt 1 view .LVU1437
 4107              	.LBB218:
 135:lvgl/lvgl/src/draw/../misc/lv_area.h **** }
 4108              		.loc 2 135 5 view .LVU1438
 135:lvgl/lvgl/src/draw/../misc/lv_area.h **** }
 4109              		.loc 2 135 31 is_stmt 0 view .LVU1439
 4110 0134 B388     		ldrh	r3, [r6, #4]
 135:lvgl/lvgl/src/draw/../misc/lv_area.h **** }
 4111              		.loc 2 135 36 view .LVU1440
 4112 0136 9B1A     		subs	r3, r3, r2
 4113 0138 9BB2     		uxth	r3, r3
 135:lvgl/lvgl/src/draw/../misc/lv_area.h **** }
 4114              		.loc 2 135 49 view .LVU1441
 4115 013a 0133     		adds	r3, r3, #1
 4116              	.LVL392:
 135:lvgl/lvgl/src/draw/../misc/lv_area.h **** }
 4117              		.loc 2 135 49 view .LVU1442
 4118              	.LBE218:
 4119              	.LBE217:
 351:lvgl/lvgl/src/draw/lv_draw_rect.c ****             area.y1 = coords->y1 + lv_area_get_height(coords) / 2 - header.h / 2;
 4120              		.loc 1 351 34 view .LVU1443
 4121 013c C3F3C031 		ubfx	r1, r3, #15, #1
 4122 0140 01FA83F3 		sxtah	r3, r1, r3
 4123 0144 02EB6302 		add	r2, r2, r3, asr #1
 351:lvgl/lvgl/src/draw/lv_draw_rect.c ****             area.y1 = coords->y1 + lv_area_get_height(coords) / 2 - header.h / 2;
 4124              		.loc 1 351 74 view .LVU1444
 4125 0148 059B     		ldr	r3, [sp, #20]
 4126 014a C3F38A20 		ubfx	r0, r3, #10, #11
 351:lvgl/lvgl/src/draw/lv_draw_rect.c ****             area.y1 = coords->y1 + lv_area_get_height(coords) / 2 - header.h / 2;
 4127              		.loc 1 351 77 view .LVU1445
 4128 014e C3F3C923 		ubfx	r3, r3, #11, #10
 4129 0152 5B42     		rsbs	r3, r3, #0
 351:lvgl/lvgl/src/draw/lv_draw_rect.c ****             area.y1 = coords->y1 + lv_area_get_height(coords) / 2 - header.h / 2;
 4130              		.loc 1 351 66 view .LVU1446
 4131 0154 13FA82F2 		uxtah	r2, r3, r2
 351:lvgl/lvgl/src/draw/lv_draw_rect.c ****             area.y1 = coords->y1 + lv_area_get_height(coords) / 2 - header.h / 2;
 4132              		.loc 1 351 21 view .LVU1447
 4133 0158 ADF81820 		strh	r2, [sp, #24]	@ movhi
 352:lvgl/lvgl/src/draw/lv_draw_rect.c ****             area.x2 = area.x1 + header.w - 1;
 4134              		.loc 1 352 13 is_stmt 1 view .LVU1448
 352:lvgl/lvgl/src/draw/lv_draw_rect.c ****             area.x2 = area.x1 + header.w - 1;
 4135              		.loc 1 352 29 is_stmt 0 view .LVU1449
ARM GAS  C:\Users\gx\AppData\Local\Temp\ccP7i1j8.s 			page 123


 4136 015c 7388     		ldrh	r3, [r6, #2]
 4137              	.LVL393:
 4138              	.LBB219:
 4139              	.LBI219:
 143:lvgl/lvgl/src/draw/../misc/lv_area.h **** {
 4140              		.loc 2 143 26 is_stmt 1 view .LVU1450
 4141              	.LBB220:
 4142              		.loc 2 145 5 view .LVU1451
 4143              		.loc 2 145 31 is_stmt 0 view .LVU1452
 4144 015e F188     		ldrh	r1, [r6, #6]
 4145              		.loc 2 145 36 view .LVU1453
 4146 0160 C91A     		subs	r1, r1, r3
 4147 0162 89B2     		uxth	r1, r1
 4148              		.loc 2 145 49 view .LVU1454
 4149 0164 0131     		adds	r1, r1, #1
 4150              	.LVL394:
 4151              		.loc 2 145 49 view .LVU1455
 4152              	.LBE220:
 4153              	.LBE219:
 352:lvgl/lvgl/src/draw/lv_draw_rect.c ****             area.x2 = area.x1 + header.w - 1;
 4154              		.loc 1 352 34 view .LVU1456
 4155 0166 C1F3C034 		ubfx	r4, r1, #15, #1
 4156 016a 04FA81F1 		sxtah	r1, r4, r1
 4157 016e 03EB6103 		add	r3, r3, r1, asr #1
 352:lvgl/lvgl/src/draw/lv_draw_rect.c ****             area.x2 = area.x1 + header.w - 1;
 4158              		.loc 1 352 75 view .LVU1457
 4159 0172 BDF81610 		ldrh	r1, [sp, #22]
 4160 0176 C1F34A14 		ubfx	r4, r1, #5, #11
 352:lvgl/lvgl/src/draw/lv_draw_rect.c ****             area.x2 = area.x1 + header.w - 1;
 4161              		.loc 1 352 78 view .LVU1458
 4162 017a C1F38911 		ubfx	r1, r1, #6, #10
 4163 017e 4942     		rsbs	r1, r1, #0
 352:lvgl/lvgl/src/draw/lv_draw_rect.c ****             area.x2 = area.x1 + header.w - 1;
 4164              		.loc 1 352 67 view .LVU1459
 4165 0180 11FA83F3 		uxtah	r3, r1, r3
 352:lvgl/lvgl/src/draw/lv_draw_rect.c ****             area.x2 = area.x1 + header.w - 1;
 4166              		.loc 1 352 21 view .LVU1460
 4167 0184 ADF81A30 		strh	r3, [sp, #26]	@ movhi
 353:lvgl/lvgl/src/draw/lv_draw_rect.c ****             area.y2 = area.y1 + header.h - 1;
 4168              		.loc 1 353 13 is_stmt 1 view .LVU1461
 353:lvgl/lvgl/src/draw/lv_draw_rect.c ****             area.y2 = area.y1 + header.h - 1;
 4169              		.loc 1 353 31 is_stmt 0 view .LVU1462
 4170 0188 10FA82F2 		uxtah	r2, r0, r2
 4171 018c 92B2     		uxth	r2, r2
 353:lvgl/lvgl/src/draw/lv_draw_rect.c ****             area.y2 = area.y1 + header.h - 1;
 4172              		.loc 1 353 42 view .LVU1463
 4173 018e 013A     		subs	r2, r2, #1
 353:lvgl/lvgl/src/draw/lv_draw_rect.c ****             area.y2 = area.y1 + header.h - 1;
 4174              		.loc 1 353 21 view .LVU1464
 4175 0190 ADF81C20 		strh	r2, [sp, #28]	@ movhi
 354:lvgl/lvgl/src/draw/lv_draw_rect.c **** 
 4176              		.loc 1 354 13 is_stmt 1 view .LVU1465
 354:lvgl/lvgl/src/draw/lv_draw_rect.c **** 
 4177              		.loc 1 354 31 is_stmt 0 view .LVU1466
 4178 0194 14FA83F3 		uxtah	r3, r4, r3
 4179 0198 9BB2     		uxth	r3, r3
 354:lvgl/lvgl/src/draw/lv_draw_rect.c **** 
ARM GAS  C:\Users\gx\AppData\Local\Temp\ccP7i1j8.s 			page 124


 4180              		.loc 1 354 42 view .LVU1467
 4181 019a 013B     		subs	r3, r3, #1
 354:lvgl/lvgl/src/draw/lv_draw_rect.c **** 
 4182              		.loc 1 354 21 view .LVU1468
 4183 019c ADF81E30 		strh	r3, [sp, #30]	@ movhi
 356:lvgl/lvgl/src/draw/lv_draw_rect.c ****         } else {
 4184              		.loc 1 356 13 is_stmt 1 view .LVU1469
 4185 01a0 08AB     		add	r3, sp, #32
 4186 01a2 EA68     		ldr	r2, [r5, #12]
 4187 01a4 3946     		mov	r1, r7
 4188 01a6 06A8     		add	r0, sp, #24
 4189 01a8 FFF7FEFF 		bl	lv_draw_img
 4190              	.LVL395:
 4191              	.LBE216:
 4192 01ac 32E7     		b	.L220
 4193              	.L228:
 4194              	.LBB221:
 367:lvgl/lvgl/src/draw/lv_draw_rect.c ****                 }
 4195              		.loc 1 367 21 discriminator 2 view .LVU1470
 4196 01ae 08AB     		add	r3, sp, #32
 4197 01b0 EA68     		ldr	r2, [r5, #12]
 4198 01b2 3946     		mov	r1, r7
 4199 01b4 06A8     		add	r0, sp, #24
 4200 01b6 FFF7FEFF 		bl	lv_draw_img
 4201              	.LVL396:
 366:lvgl/lvgl/src/draw/lv_draw_rect.c ****                     lv_draw_img(&area, clip, dsc->bg_img_src, &img_dsc);
 4202              		.loc 1 366 46 discriminator 2 view .LVU1471
 366:lvgl/lvgl/src/draw/lv_draw_rect.c ****                     lv_draw_img(&area, clip, dsc->bg_img_src, &img_dsc);
 4203              		.loc 1 366 63 is_stmt 0 discriminator 2 view .LVU1472
 4204 01ba 059B     		ldr	r3, [sp, #20]
 4205 01bc C3F38A23 		ubfx	r3, r3, #10, #11
 366:lvgl/lvgl/src/draw/lv_draw_rect.c ****                     lv_draw_img(&area, clip, dsc->bg_img_src, &img_dsc);
 4206              		.loc 1 366 54 discriminator 2 view .LVU1473
 4207 01c0 BDF81840 		ldrh	r4, [sp, #24]
 4208 01c4 1C44     		add	r4, r4, r3
 4209 01c6 ADF81840 		strh	r4, [sp, #24]	@ movhi
 366:lvgl/lvgl/src/draw/lv_draw_rect.c ****                     lv_draw_img(&area, clip, dsc->bg_img_src, &img_dsc);
 4210              		.loc 1 366 75 discriminator 2 view .LVU1474
 4211 01ca BDF81C20 		ldrh	r2, [sp, #28]
 4212 01ce 1344     		add	r3, r3, r2
 4213 01d0 ADF81C30 		strh	r3, [sp, #28]	@ movhi
 4214              	.L227:
 366:lvgl/lvgl/src/draw/lv_draw_rect.c ****                     lv_draw_img(&area, clip, dsc->bg_img_src, &img_dsc);
 4215              		.loc 1 366 23 is_stmt 1 discriminator 1 view .LVU1475
 366:lvgl/lvgl/src/draw/lv_draw_rect.c ****                     lv_draw_img(&area, clip, dsc->bg_img_src, &img_dsc);
 4216              		.loc 1 366 27 is_stmt 0 discriminator 1 view .LVU1476
 4217 01d4 BDF91820 		ldrsh	r2, [sp, #24]
 366:lvgl/lvgl/src/draw/lv_draw_rect.c ****                     lv_draw_img(&area, clip, dsc->bg_img_src, &img_dsc);
 4218              		.loc 1 366 40 discriminator 1 view .LVU1477
 4219 01d8 B6F90430 		ldrsh	r3, [r6, #4]
 366:lvgl/lvgl/src/draw/lv_draw_rect.c ****                     lv_draw_img(&area, clip, dsc->bg_img_src, &img_dsc);
 4220              		.loc 1 366 17 discriminator 1 view .LVU1478
 4221 01dc 9A42     		cmp	r2, r3
 4222 01de E6DD     		ble	.L228
 362:lvgl/lvgl/src/draw/lv_draw_rect.c **** 
 4223              		.loc 1 362 42 is_stmt 1 view .LVU1479
 362:lvgl/lvgl/src/draw/lv_draw_rect.c **** 
ARM GAS  C:\Users\gx\AppData\Local\Temp\ccP7i1j8.s 			page 125


 4224              		.loc 1 362 59 is_stmt 0 view .LVU1480
 4225 01e0 BDF81630 		ldrh	r3, [sp, #22]
 4226 01e4 C3F34A13 		ubfx	r3, r3, #5, #11
 362:lvgl/lvgl/src/draw/lv_draw_rect.c **** 
 4227              		.loc 1 362 50 view .LVU1481
 4228 01e8 BDF81A20 		ldrh	r2, [sp, #26]
 4229 01ec 1A44     		add	r2, r2, r3
 4230 01ee ADF81A20 		strh	r2, [sp, #26]	@ movhi
 362:lvgl/lvgl/src/draw/lv_draw_rect.c **** 
 4231              		.loc 1 362 71 view .LVU1482
 4232 01f2 BDF81E20 		ldrh	r2, [sp, #30]
 4233 01f6 1344     		add	r3, r3, r2
 4234 01f8 ADF81E30 		strh	r3, [sp, #30]	@ movhi
 4235              	.L226:
 362:lvgl/lvgl/src/draw/lv_draw_rect.c **** 
 4236              		.loc 1 362 19 is_stmt 1 discriminator 1 view .LVU1483
 362:lvgl/lvgl/src/draw/lv_draw_rect.c **** 
 4237              		.loc 1 362 23 is_stmt 0 discriminator 1 view .LVU1484
 4238 01fc BDF91A20 		ldrsh	r2, [sp, #26]
 362:lvgl/lvgl/src/draw/lv_draw_rect.c **** 
 4239              		.loc 1 362 36 discriminator 1 view .LVU1485
 4240 0200 B6F90630 		ldrsh	r3, [r6, #6]
 362:lvgl/lvgl/src/draw/lv_draw_rect.c **** 
 4241              		.loc 1 362 13 discriminator 1 view .LVU1486
 4242 0204 9A42     		cmp	r2, r3
 4243 0206 3FF705AF 		bgt	.L220
 364:lvgl/lvgl/src/draw/lv_draw_rect.c ****                 area.x2 = area.x1 + header.w - 1;
 4244              		.loc 1 364 17 is_stmt 1 view .LVU1487
 364:lvgl/lvgl/src/draw/lv_draw_rect.c ****                 area.x2 = area.x1 + header.w - 1;
 4245              		.loc 1 364 33 is_stmt 0 view .LVU1488
 4246 020a B6F90030 		ldrsh	r3, [r6]
 364:lvgl/lvgl/src/draw/lv_draw_rect.c ****                 area.x2 = area.x1 + header.w - 1;
 4247              		.loc 1 364 25 view .LVU1489
 4248 020e ADF81830 		strh	r3, [sp, #24]	@ movhi
 365:lvgl/lvgl/src/draw/lv_draw_rect.c ****                 for(; area.x1 <= coords->x2; area.x1 += header.w, area.x2 += header.w) {
 4249              		.loc 1 365 17 is_stmt 1 view .LVU1490
 365:lvgl/lvgl/src/draw/lv_draw_rect.c ****                 for(; area.x1 <= coords->x2; area.x1 += header.w, area.x2 += header.w) {
 4250              		.loc 1 365 43 is_stmt 0 view .LVU1491
 4251 0212 059A     		ldr	r2, [sp, #20]
 4252 0214 C2F38A22 		ubfx	r2, r2, #10, #11
 365:lvgl/lvgl/src/draw/lv_draw_rect.c ****                 for(; area.x1 <= coords->x2; area.x1 += header.w, area.x2 += header.w) {
 4253              		.loc 1 365 35 view .LVU1492
 4254 0218 12FA83F3 		uxtah	r3, r2, r3
 4255 021c 9BB2     		uxth	r3, r3
 365:lvgl/lvgl/src/draw/lv_draw_rect.c ****                 for(; area.x1 <= coords->x2; area.x1 += header.w, area.x2 += header.w) {
 4256              		.loc 1 365 46 view .LVU1493
 4257 021e 013B     		subs	r3, r3, #1
 365:lvgl/lvgl/src/draw/lv_draw_rect.c ****                 for(; area.x1 <= coords->x2; area.x1 += header.w, area.x2 += header.w) {
 4258              		.loc 1 365 25 view .LVU1494
 4259 0220 ADF81C30 		strh	r3, [sp, #28]	@ movhi
 366:lvgl/lvgl/src/draw/lv_draw_rect.c ****                     lv_draw_img(&area, clip, dsc->bg_img_src, &img_dsc);
 4260              		.loc 1 366 17 is_stmt 1 view .LVU1495
 4261 0224 D6E7     		b	.L227
 4262              	.L235:
 4263 0226 00BF     		.align	2
 4264              	.L234:
 4265 0228 24000000 		.word	.LC1
ARM GAS  C:\Users\gx\AppData\Local\Temp\ccP7i1j8.s 			page 126


 4266 022c 00000000 		.word	.LANCHOR0
 4267 0230 00000000 		.word	.LC0
 4268              	.LBE221:
 4269              	.LBE227:
 4270              		.cfi_endproc
 4271              	.LFE155:
 4273              		.section	.text.draw_bg,"ax",%progbits
 4274              		.align	1
 4275              		.syntax unified
 4276              		.thumb
 4277              		.thumb_func
 4278              		.fpu fpv4-sp-d16
 4280              	draw_bg:
 4281              	.LVL397:
 4282              	.LFB154:
 121:lvgl/lvgl/src/draw/lv_draw_rect.c ****     if(dsc->bg_opa <= LV_OPA_MIN) return;
 4283              		.loc 1 121 1 view -0
 4284              		.cfi_startproc
 4285              		@ args = 0, pretend = 0, frame = 80
 4286              		@ frame_needed = 0, uses_anonymous_args = 0
 121:lvgl/lvgl/src/draw/lv_draw_rect.c ****     if(dsc->bg_opa <= LV_OPA_MIN) return;
 4287              		.loc 1 121 1 is_stmt 0 view .LVU1497
 4288 0000 2DE9F04F 		push	{r4, r5, r6, r7, r8, r9, r10, fp, lr}
 4289              	.LCFI19:
 4290              		.cfi_def_cfa_offset 36
 4291              		.cfi_offset 4, -36
 4292              		.cfi_offset 5, -32
 4293              		.cfi_offset 6, -28
 4294              		.cfi_offset 7, -24
 4295              		.cfi_offset 8, -20
 4296              		.cfi_offset 9, -16
 4297              		.cfi_offset 10, -12
 4298              		.cfi_offset 11, -8
 4299              		.cfi_offset 14, -4
 4300 0004 99B0     		sub	sp, sp, #100
 4301              	.LCFI20:
 4302              		.cfi_def_cfa_offset 136
 4303 0006 0591     		str	r1, [sp, #20]
 122:lvgl/lvgl/src/draw/lv_draw_rect.c **** 
 4304              		.loc 1 122 5 is_stmt 1 view .LVU1498
 122:lvgl/lvgl/src/draw/lv_draw_rect.c **** 
 4305              		.loc 1 122 11 is_stmt 0 view .LVU1499
 4306 0008 92F80AB0 		ldrb	fp, [r2, #10]	@ zero_extendqisi2
 122:lvgl/lvgl/src/draw/lv_draw_rect.c **** 
 4307              		.loc 1 122 7 view .LVU1500
 4308 000c BBF1020F 		cmp	fp, #2
 4309 0010 40F2B382 		bls	.L236
 4310 0014 1646     		mov	r6, r2
 124:lvgl/lvgl/src/draw/lv_draw_rect.c ****     lv_area_copy(&coords_bg, coords);
 4311              		.loc 1 124 5 is_stmt 1 view .LVU1501
 125:lvgl/lvgl/src/draw/lv_draw_rect.c **** 
 4312              		.loc 1 125 5 view .LVU1502
 4313              	.LVL398:
 4314              	.LBB263:
 4315              	.LBI263:
 120:lvgl/lvgl/src/draw/../misc/lv_area.h **** {
 4316              		.loc 2 120 20 view .LVU1503
ARM GAS  C:\Users\gx\AppData\Local\Temp\ccP7i1j8.s 			page 127


 4317              	.LBB264:
 122:lvgl/lvgl/src/draw/../misc/lv_area.h ****     dest->y1 = src->y1;
 4318              		.loc 2 122 5 view .LVU1504
 122:lvgl/lvgl/src/draw/../misc/lv_area.h ****     dest->y1 = src->y1;
 4319              		.loc 2 122 19 is_stmt 0 view .LVU1505
 4320 0016 B0F90040 		ldrsh	r4, [r0]
 122:lvgl/lvgl/src/draw/../misc/lv_area.h ****     dest->y1 = src->y1;
 4321              		.loc 2 122 14 view .LVU1506
 4322 001a ADF85840 		strh	r4, [sp, #88]	@ movhi
 123:lvgl/lvgl/src/draw/../misc/lv_area.h ****     dest->x2 = src->x2;
 4323              		.loc 2 123 5 is_stmt 1 view .LVU1507
 123:lvgl/lvgl/src/draw/../misc/lv_area.h ****     dest->x2 = src->x2;
 4324              		.loc 2 123 19 is_stmt 0 view .LVU1508
 4325 001e B0F90210 		ldrsh	r1, [r0, #2]
 4326              	.LVL399:
 123:lvgl/lvgl/src/draw/../misc/lv_area.h ****     dest->x2 = src->x2;
 4327              		.loc 2 123 14 view .LVU1509
 4328 0022 ADF85A10 		strh	r1, [sp, #90]	@ movhi
 124:lvgl/lvgl/src/draw/../misc/lv_area.h ****     dest->y2 = src->y2;
 4329              		.loc 2 124 5 is_stmt 1 view .LVU1510
 124:lvgl/lvgl/src/draw/../misc/lv_area.h ****     dest->y2 = src->y2;
 4330              		.loc 2 124 19 is_stmt 0 view .LVU1511
 4331 0026 B0F90420 		ldrsh	r2, [r0, #4]
 4332              	.LVL400:
 124:lvgl/lvgl/src/draw/../misc/lv_area.h ****     dest->y2 = src->y2;
 4333              		.loc 2 124 14 view .LVU1512
 4334 002a ADF85C20 		strh	r2, [sp, #92]	@ movhi
 125:lvgl/lvgl/src/draw/../misc/lv_area.h **** }
 4335              		.loc 2 125 5 is_stmt 1 view .LVU1513
 125:lvgl/lvgl/src/draw/../misc/lv_area.h **** }
 4336              		.loc 2 125 19 is_stmt 0 view .LVU1514
 4337 002e B0F90630 		ldrsh	r3, [r0, #6]
 125:lvgl/lvgl/src/draw/../misc/lv_area.h **** }
 4338              		.loc 2 125 14 view .LVU1515
 4339 0032 ADF85E30 		strh	r3, [sp, #94]	@ movhi
 4340              	.LVL401:
 125:lvgl/lvgl/src/draw/../misc/lv_area.h **** }
 4341              		.loc 2 125 14 view .LVU1516
 4342              	.LBE264:
 4343              	.LBE263:
 128:lvgl/lvgl/src/draw/lv_draw_rect.c ****         coords_bg.x1 += (dsc->border_side & LV_BORDER_SIDE_LEFT) ? 1 : 0;
 4344              		.loc 1 128 5 is_stmt 1 view .LVU1517
 128:lvgl/lvgl/src/draw/lv_draw_rect.c ****         coords_bg.x1 += (dsc->border_side & LV_BORDER_SIDE_LEFT) ? 1 : 0;
 4345              		.loc 1 128 11 is_stmt 0 view .LVU1518
 4346 0036 B6F91C00 		ldrsh	r0, [r6, #28]
 4347              	.LVL402:
 128:lvgl/lvgl/src/draw/lv_draw_rect.c ****         coords_bg.x1 += (dsc->border_side & LV_BORDER_SIDE_LEFT) ? 1 : 0;
 4348              		.loc 1 128 7 view .LVU1519
 4349 003a 0128     		cmp	r0, #1
 4350 003c 1ADD     		ble	.L238
 128:lvgl/lvgl/src/draw/lv_draw_rect.c ****         coords_bg.x1 += (dsc->border_side & LV_BORDER_SIDE_LEFT) ? 1 : 0;
 4351              		.loc 1 128 36 discriminator 1 view .LVU1520
 4352 003e B07F     		ldrb	r0, [r6, #30]	@ zero_extendqisi2
 128:lvgl/lvgl/src/draw/lv_draw_rect.c ****         coords_bg.x1 += (dsc->border_side & LV_BORDER_SIDE_LEFT) ? 1 : 0;
 4353              		.loc 1 128 30 discriminator 1 view .LVU1521
 4354 0040 FC28     		cmp	r0, #252
 4355 0042 17D9     		bls	.L238
ARM GAS  C:\Users\gx\AppData\Local\Temp\ccP7i1j8.s 			page 128


 128:lvgl/lvgl/src/draw/lv_draw_rect.c ****         coords_bg.x1 += (dsc->border_side & LV_BORDER_SIDE_LEFT) ? 1 : 0;
 4356              		.loc 1 128 69 discriminator 2 view .LVU1522
 4357 0044 B6F90000 		ldrsh	r0, [r6]
 128:lvgl/lvgl/src/draw/lv_draw_rect.c ****         coords_bg.x1 += (dsc->border_side & LV_BORDER_SIDE_LEFT) ? 1 : 0;
 4358              		.loc 1 128 63 discriminator 2 view .LVU1523
 4359 0048 A0B1     		cbz	r0, .L238
 129:lvgl/lvgl/src/draw/lv_draw_rect.c ****         coords_bg.y1 += (dsc->border_side & LV_BORDER_SIDE_TOP) ? 1 : 0;
 4360              		.loc 1 129 9 is_stmt 1 view .LVU1524
 129:lvgl/lvgl/src/draw/lv_draw_rect.c ****         coords_bg.y1 += (dsc->border_side & LV_BORDER_SIDE_TOP) ? 1 : 0;
 4361              		.loc 1 129 29 is_stmt 0 view .LVU1525
 4362 004a F07F     		ldrb	r0, [r6, #31]	@ zero_extendqisi2
 129:lvgl/lvgl/src/draw/lv_draw_rect.c ****         coords_bg.y1 += (dsc->border_side & LV_BORDER_SIDE_TOP) ? 1 : 0;
 4363              		.loc 1 129 70 view .LVU1526
 4364 004c C0F3C005 		ubfx	r5, r0, #3, #1
 129:lvgl/lvgl/src/draw/lv_draw_rect.c ****         coords_bg.y1 += (dsc->border_side & LV_BORDER_SIDE_TOP) ? 1 : 0;
 4365              		.loc 1 129 22 view .LVU1527
 4366 0050 2C44     		add	r4, r4, r5
 4367 0052 ADF85840 		strh	r4, [sp, #88]	@ movhi
 130:lvgl/lvgl/src/draw/lv_draw_rect.c ****         coords_bg.x2 -= (dsc->border_side & LV_BORDER_SIDE_RIGHT) ? 1 : 0;
 4368              		.loc 1 130 9 is_stmt 1 view .LVU1528
 130:lvgl/lvgl/src/draw/lv_draw_rect.c ****         coords_bg.x2 -= (dsc->border_side & LV_BORDER_SIDE_RIGHT) ? 1 : 0;
 4369              		.loc 1 130 69 is_stmt 0 view .LVU1529
 4370 0056 C0F38004 		ubfx	r4, r0, #2, #1
 130:lvgl/lvgl/src/draw/lv_draw_rect.c ****         coords_bg.x2 -= (dsc->border_side & LV_BORDER_SIDE_RIGHT) ? 1 : 0;
 4371              		.loc 1 130 22 view .LVU1530
 4372 005a 2144     		add	r1, r1, r4
 4373 005c ADF85A10 		strh	r1, [sp, #90]	@ movhi
 131:lvgl/lvgl/src/draw/lv_draw_rect.c ****         coords_bg.y2 -= (dsc->border_side & LV_BORDER_SIDE_BOTTOM) ? 1 : 0;
 4374              		.loc 1 131 9 is_stmt 1 view .LVU1531
 131:lvgl/lvgl/src/draw/lv_draw_rect.c ****         coords_bg.y2 -= (dsc->border_side & LV_BORDER_SIDE_BOTTOM) ? 1 : 0;
 4375              		.loc 1 131 71 is_stmt 0 view .LVU1532
 4376 0060 C0F30011 		ubfx	r1, r0, #4, #1
 131:lvgl/lvgl/src/draw/lv_draw_rect.c ****         coords_bg.y2 -= (dsc->border_side & LV_BORDER_SIDE_BOTTOM) ? 1 : 0;
 4377              		.loc 1 131 22 view .LVU1533
 4378 0064 521A     		subs	r2, r2, r1
 4379 0066 ADF85C20 		strh	r2, [sp, #92]	@ movhi
 132:lvgl/lvgl/src/draw/lv_draw_rect.c ****     }
 4380              		.loc 1 132 9 is_stmt 1 view .LVU1534
 132:lvgl/lvgl/src/draw/lv_draw_rect.c ****     }
 4381              		.loc 1 132 72 is_stmt 0 view .LVU1535
 4382 006a C0F34000 		ubfx	r0, r0, #1, #1
 132:lvgl/lvgl/src/draw/lv_draw_rect.c ****     }
 4383              		.loc 1 132 22 view .LVU1536
 4384 006e 1B1A     		subs	r3, r3, r0
 4385 0070 ADF85E30 		strh	r3, [sp, #94]	@ movhi
 4386              	.L238:
 135:lvgl/lvgl/src/draw/lv_draw_rect.c ****     lv_grad_dir_t grad_dir = dsc->bg_grad_dir;
 4387              		.loc 1 135 5 is_stmt 1 view .LVU1537
 135:lvgl/lvgl/src/draw/lv_draw_rect.c ****     lv_grad_dir_t grad_dir = dsc->bg_grad_dir;
 4388              		.loc 1 135 14 is_stmt 0 view .LVU1538
 4389 0074 BBF1FC0F 		cmp	fp, #252
 4390 0078 01D9     		bls	.L239
 4391 007a 4FF0FF0B 		mov	fp, #255
 4392              	.L239:
 4393              	.LVL403:
 136:lvgl/lvgl/src/draw/lv_draw_rect.c ****     if(dsc->bg_color.full == dsc->bg_grad_color.full) grad_dir = LV_GRAD_DIR_NONE;
 4394              		.loc 1 136 5 is_stmt 1 discriminator 4 view .LVU1539
ARM GAS  C:\Users\gx\AppData\Local\Temp\ccP7i1j8.s 			page 129


 136:lvgl/lvgl/src/draw/lv_draw_rect.c ****     if(dsc->bg_color.full == dsc->bg_grad_color.full) grad_dir = LV_GRAD_DIR_NONE;
 4395              		.loc 1 136 33 is_stmt 0 discriminator 4 view .LVU1540
 4396 007e F77A     		ldrb	r7, [r6, #11]	@ zero_extendqisi2
 4397 0080 07F00707 		and	r7, r7, #7
 4398              	.LVL404:
 137:lvgl/lvgl/src/draw/lv_draw_rect.c **** 
 4399              		.loc 1 137 5 is_stmt 1 discriminator 4 view .LVU1541
 137:lvgl/lvgl/src/draw/lv_draw_rect.c **** 
 4400              		.loc 1 137 21 is_stmt 0 discriminator 4 view .LVU1542
 4401 0084 B288     		ldrh	r2, [r6, #4]
 137:lvgl/lvgl/src/draw/lv_draw_rect.c **** 
 4402              		.loc 1 137 48 discriminator 4 view .LVU1543
 4403 0086 F388     		ldrh	r3, [r6, #6]
 137:lvgl/lvgl/src/draw/lv_draw_rect.c **** 
 4404              		.loc 1 137 7 discriminator 4 view .LVU1544
 4405 0088 9A42     		cmp	r2, r3
 4406 008a 5ED0     		beq	.L292
 4407              	.L240:
 4408              	.LVL405:
 139:lvgl/lvgl/src/draw/lv_draw_rect.c **** 
 4409              		.loc 1 139 5 is_stmt 1 view .LVU1545
 139:lvgl/lvgl/src/draw/lv_draw_rect.c **** 
 4410              		.loc 1 139 21 is_stmt 0 view .LVU1546
 4411 008c 16A8     		add	r0, sp, #88
 4412 008e FFF7FEFF 		bl	lv_draw_mask_is_any
 4413              	.LVL406:
 142:lvgl/lvgl/src/draw/lv_draw_rect.c ****         _lv_blend_fill(clip_area, &coords_bg, dsc->bg_color, NULL,
 4414              		.loc 1 142 5 is_stmt 1 view .LVU1547
 142:lvgl/lvgl/src/draw/lv_draw_rect.c ****         _lv_blend_fill(clip_area, &coords_bg, dsc->bg_color, NULL,
 4415              		.loc 1 142 7 is_stmt 0 view .LVU1548
 4416 0092 8046     		mov	r8, r0
 4417 0094 20B9     		cbnz	r0, .L241
 142:lvgl/lvgl/src/draw/lv_draw_rect.c ****         _lv_blend_fill(clip_area, &coords_bg, dsc->bg_color, NULL,
 4418              		.loc 1 142 24 discriminator 1 view .LVU1549
 4419 0096 B6F90030 		ldrsh	r3, [r6]
 142:lvgl/lvgl/src/draw/lv_draw_rect.c ****         _lv_blend_fill(clip_area, &coords_bg, dsc->bg_color, NULL,
 4420              		.loc 1 142 18 discriminator 1 view .LVU1550
 4421 009a 0BB9     		cbnz	r3, .L241
 142:lvgl/lvgl/src/draw/lv_draw_rect.c ****         _lv_blend_fill(clip_area, &coords_bg, dsc->bg_color, NULL,
 4422              		.loc 1 142 38 discriminator 2 view .LVU1551
 4423 009c 002F     		cmp	r7, #0
 4424 009e 56D0     		beq	.L293
 4425              	.L241:
 154:lvgl/lvgl/src/draw/lv_draw_rect.c ****     if(!_lv_area_intersect(&draw_area, &coords_bg, clip_area)) return;
 4426              		.loc 1 154 5 is_stmt 1 view .LVU1552
 155:lvgl/lvgl/src/draw/lv_draw_rect.c **** 
 4427              		.loc 1 155 5 view .LVU1553
 155:lvgl/lvgl/src/draw/lv_draw_rect.c **** 
 4428              		.loc 1 155 9 is_stmt 0 view .LVU1554
 4429 00a0 059A     		ldr	r2, [sp, #20]
 4430 00a2 16A9     		add	r1, sp, #88
 4431 00a4 14A8     		add	r0, sp, #80
 4432              	.LVL407:
 155:lvgl/lvgl/src/draw/lv_draw_rect.c **** 
 4433              		.loc 1 155 9 view .LVU1555
 4434 00a6 FFF7FEFF 		bl	_lv_area_intersect
 4435              	.LVL408:
ARM GAS  C:\Users\gx\AppData\Local\Temp\ccP7i1j8.s 			page 130


 155:lvgl/lvgl/src/draw/lv_draw_rect.c **** 
 4436              		.loc 1 155 7 view .LVU1556
 4437 00aa 0028     		cmp	r0, #0
 4438 00ac 00F06582 		beq	.L236
 158:lvgl/lvgl/src/draw/lv_draw_rect.c ****     lv_coord_t coords_h = lv_area_get_height(&coords_bg);
 4439              		.loc 1 158 5 is_stmt 1 view .LVU1557
 4440              	.LVL409:
 4441              	.LBB265:
 4442              	.LBI265:
 133:lvgl/lvgl/src/draw/../misc/lv_area.h **** {
 4443              		.loc 2 133 26 view .LVU1558
 4444              	.LBB266:
 135:lvgl/lvgl/src/draw/../misc/lv_area.h **** }
 4445              		.loc 2 135 5 view .LVU1559
 135:lvgl/lvgl/src/draw/../misc/lv_area.h **** }
 4446              		.loc 2 135 31 is_stmt 0 view .LVU1560
 4447 00b0 BDF85C40 		ldrh	r4, [sp, #92]
 135:lvgl/lvgl/src/draw/../misc/lv_area.h **** }
 4448              		.loc 2 135 44 view .LVU1561
 4449 00b4 BDF85830 		ldrh	r3, [sp, #88]
 135:lvgl/lvgl/src/draw/../misc/lv_area.h **** }
 4450              		.loc 2 135 36 view .LVU1562
 4451 00b8 E41A     		subs	r4, r4, r3
 4452 00ba A4B2     		uxth	r4, r4
 135:lvgl/lvgl/src/draw/../misc/lv_area.h **** }
 4453              		.loc 2 135 49 view .LVU1563
 4454 00bc 0134     		adds	r4, r4, #1
 135:lvgl/lvgl/src/draw/../misc/lv_area.h **** }
 4455              		.loc 2 135 12 view .LVU1564
 4456 00be 24B2     		sxth	r4, r4
 4457              	.LVL410:
 135:lvgl/lvgl/src/draw/../misc/lv_area.h **** }
 4458              		.loc 2 135 12 view .LVU1565
 4459              	.LBE266:
 4460              	.LBE265:
 159:lvgl/lvgl/src/draw/lv_draw_rect.c ****     int32_t short_side = LV_MIN(coords_w, coords_h);
 4461              		.loc 1 159 5 is_stmt 1 view .LVU1566
 4462              	.LBB267:
 4463              	.LBI267:
 143:lvgl/lvgl/src/draw/../misc/lv_area.h **** {
 4464              		.loc 2 143 26 view .LVU1567
 4465              	.LBB268:
 4466              		.loc 2 145 5 view .LVU1568
 4467              		.loc 2 145 31 is_stmt 0 view .LVU1569
 4468 00c0 BDF85E30 		ldrh	r3, [sp, #94]
 4469              		.loc 2 145 44 view .LVU1570
 4470 00c4 BDF85A20 		ldrh	r2, [sp, #90]
 4471              		.loc 2 145 36 view .LVU1571
 4472 00c8 9B1A     		subs	r3, r3, r2
 4473 00ca 9BB2     		uxth	r3, r3
 4474              		.loc 2 145 49 view .LVU1572
 4475 00cc 0133     		adds	r3, r3, #1
 4476              		.loc 2 145 12 view .LVU1573
 4477 00ce 1BB2     		sxth	r3, r3
 4478 00d0 0A93     		str	r3, [sp, #40]
 4479              	.LVL411:
 4480              		.loc 2 145 12 view .LVU1574
ARM GAS  C:\Users\gx\AppData\Local\Temp\ccP7i1j8.s 			page 131


 4481              	.LBE268:
 4482              	.LBE267:
 160:lvgl/lvgl/src/draw/lv_draw_rect.c ****     int32_t rout = LV_MIN(dsc->radius, short_side >> 1);
 4483              		.loc 1 160 5 is_stmt 1 view .LVU1575
 160:lvgl/lvgl/src/draw/lv_draw_rect.c ****     int32_t rout = LV_MIN(dsc->radius, short_side >> 1);
 4484              		.loc 1 160 26 is_stmt 0 view .LVU1576
 4485 00d2 A342     		cmp	r3, r4
 4486 00d4 A8BF     		it	ge
 4487 00d6 2346     		movge	r3, r4
 4488              	.LVL412:
 161:lvgl/lvgl/src/draw/lv_draw_rect.c **** 
 4489              		.loc 1 161 5 is_stmt 1 view .LVU1577
 161:lvgl/lvgl/src/draw/lv_draw_rect.c **** 
 4490              		.loc 1 161 20 is_stmt 0 view .LVU1578
 4491 00d8 5B10     		asrs	r3, r3, #1
 4492              	.LVL413:
 161:lvgl/lvgl/src/draw/lv_draw_rect.c **** 
 4493              		.loc 1 161 20 view .LVU1579
 4494 00da B6F90020 		ldrsh	r2, [r6]
 161:lvgl/lvgl/src/draw/lv_draw_rect.c **** 
 4495              		.loc 1 161 13 view .LVU1580
 4496 00de 1946     		mov	r1, r3
 4497 00e0 9342     		cmp	r3, r2
 4498              	.LVL414:
 161:lvgl/lvgl/src/draw/lv_draw_rect.c **** 
 4499              		.loc 1 161 13 view .LVU1581
 4500 00e2 A8BF     		it	ge
 4501 00e4 1146     		movge	r1, r2
 4502 00e6 0491     		str	r1, [sp, #16]
 4503              	.LVL415:
 164:lvgl/lvgl/src/draw/lv_draw_rect.c ****     int16_t mask_rout_id = LV_MASK_ID_INV;
 4504              		.loc 1 164 5 is_stmt 1 view .LVU1582
 4505              	.LBB269:
 4506              	.LBI269:
 133:lvgl/lvgl/src/draw/../misc/lv_area.h **** {
 4507              		.loc 2 133 26 view .LVU1583
 4508              	.LBB270:
 135:lvgl/lvgl/src/draw/../misc/lv_area.h **** }
 4509              		.loc 2 135 5 view .LVU1584
 135:lvgl/lvgl/src/draw/../misc/lv_area.h **** }
 4510              		.loc 2 135 31 is_stmt 0 view .LVU1585
 4511 00e8 BDF85430 		ldrh	r3, [sp, #84]
 135:lvgl/lvgl/src/draw/../misc/lv_area.h **** }
 4512              		.loc 2 135 44 view .LVU1586
 4513 00ec BDF85020 		ldrh	r2, [sp, #80]
 135:lvgl/lvgl/src/draw/../misc/lv_area.h **** }
 4514              		.loc 2 135 36 view .LVU1587
 4515 00f0 9B1A     		subs	r3, r3, r2
 4516 00f2 9BB2     		uxth	r3, r3
 135:lvgl/lvgl/src/draw/../misc/lv_area.h **** }
 4517              		.loc 2 135 49 view .LVU1588
 4518 00f4 0133     		adds	r3, r3, #1
 135:lvgl/lvgl/src/draw/../misc/lv_area.h **** }
 4519              		.loc 2 135 12 view .LVU1589
 4520 00f6 0FFA83FA 		sxth	r10, r3
 4521              	.LVL416:
 135:lvgl/lvgl/src/draw/../misc/lv_area.h **** }
ARM GAS  C:\Users\gx\AppData\Local\Temp\ccP7i1j8.s 			page 132


 4522              		.loc 2 135 12 view .LVU1590
 4523              	.LBE270:
 4524              	.LBE269:
 165:lvgl/lvgl/src/draw/lv_draw_rect.c ****     lv_opa_t * mask_buf = NULL;
 4525              		.loc 1 165 5 is_stmt 1 view .LVU1591
 166:lvgl/lvgl/src/draw/lv_draw_rect.c ****     lv_draw_mask_radius_param_t mask_rout_param;
 4526              		.loc 1 166 5 view .LVU1592
 167:lvgl/lvgl/src/draw/lv_draw_rect.c ****     if(rout > 0 || mask_any) {
 4527              		.loc 1 167 5 view .LVU1593
 168:lvgl/lvgl/src/draw/lv_draw_rect.c ****         mask_buf = lv_mem_buf_get(draw_area_w);
 4528              		.loc 1 168 5 view .LVU1594
 168:lvgl/lvgl/src/draw/lv_draw_rect.c ****         mask_buf = lv_mem_buf_get(draw_area_w);
 4529              		.loc 1 168 7 is_stmt 0 view .LVU1595
 4530 00fa 0029     		cmp	r1, #0
 4531 00fc 02DC     		bgt	.L242
 168:lvgl/lvgl/src/draw/lv_draw_rect.c ****         mask_buf = lv_mem_buf_get(draw_area_w);
 4532              		.loc 1 168 17 discriminator 1 view .LVU1596
 4533 00fe B8F1000F 		cmp	r8, #0
 4534 0102 31D0     		beq	.L288
 4535              	.L242:
 169:lvgl/lvgl/src/draw/lv_draw_rect.c ****         lv_draw_mask_radius_init(&mask_rout_param, &coords_bg, rout, false);
 4536              		.loc 1 169 9 is_stmt 1 view .LVU1597
 169:lvgl/lvgl/src/draw/lv_draw_rect.c ****         lv_draw_mask_radius_init(&mask_rout_param, &coords_bg, rout, false);
 4537              		.loc 1 169 20 is_stmt 0 view .LVU1598
 4538 0104 5046     		mov	r0, r10
 4539 0106 FFF7FEFF 		bl	lv_mem_buf_get
 4540              	.LVL417:
 169:lvgl/lvgl/src/draw/lv_draw_rect.c ****         lv_draw_mask_radius_init(&mask_rout_param, &coords_bg, rout, false);
 4541              		.loc 1 169 20 view .LVU1599
 4542 010a 8146     		mov	r9, r0
 4543              	.LVL418:
 170:lvgl/lvgl/src/draw/lv_draw_rect.c ****         mask_rout_id = lv_draw_mask_add(&mask_rout_param, NULL);
 4544              		.loc 1 170 9 is_stmt 1 view .LVU1600
 4545 010c 0023     		movs	r3, #0
 4546 010e 049A     		ldr	r2, [sp, #16]
 4547 0110 16A9     		add	r1, sp, #88
 4548 0112 0EA8     		add	r0, sp, #56
 4549              	.LVL419:
 170:lvgl/lvgl/src/draw/lv_draw_rect.c ****         mask_rout_id = lv_draw_mask_add(&mask_rout_param, NULL);
 4550              		.loc 1 170 9 is_stmt 0 view .LVU1601
 4551 0114 FFF7FEFF 		bl	lv_draw_mask_radius_init
 4552              	.LVL420:
 171:lvgl/lvgl/src/draw/lv_draw_rect.c ****     }
 4553              		.loc 1 171 9 is_stmt 1 view .LVU1602
 171:lvgl/lvgl/src/draw/lv_draw_rect.c ****     }
 4554              		.loc 1 171 24 is_stmt 0 view .LVU1603
 4555 0118 0021     		movs	r1, #0
 4556 011a 0EA8     		add	r0, sp, #56
 4557 011c FFF7FEFF 		bl	lv_draw_mask_add
 4558              	.LVL421:
 4559 0120 0B90     		str	r0, [sp, #44]
 4560              	.LVL422:
 4561              	.L243:
 175:lvgl/lvgl/src/draw/lv_draw_rect.c ****     if(grad_dir == LV_GRAD_DIR_HOR) {
 4562              		.loc 1 175 5 is_stmt 1 view .LVU1604
 176:lvgl/lvgl/src/draw/lv_draw_rect.c ****         grad_map = lv_mem_buf_get(coords_w * sizeof(lv_color_t));
 4563              		.loc 1 176 5 view .LVU1605
ARM GAS  C:\Users\gx\AppData\Local\Temp\ccP7i1j8.s 			page 133


 176:lvgl/lvgl/src/draw/lv_draw_rect.c ****         grad_map = lv_mem_buf_get(coords_w * sizeof(lv_color_t));
 4564              		.loc 1 176 7 is_stmt 0 view .LVU1606
 4565 0122 022F     		cmp	r7, #2
 4566 0124 26D0     		beq	.L294
 175:lvgl/lvgl/src/draw/lv_draw_rect.c ****     if(grad_dir == LV_GRAD_DIR_HOR) {
 4567              		.loc 1 175 18 view .LVU1607
 4568 0126 0023     		movs	r3, #0
 4569 0128 0993     		str	r3, [sp, #36]
 4570              	.LVL423:
 4571              	.L244:
 184:lvgl/lvgl/src/draw/lv_draw_rect.c ****     lv_draw_mask_res_t mask_res;
 4572              		.loc 1 184 5 is_stmt 1 view .LVU1608
 185:lvgl/lvgl/src/draw/lv_draw_rect.c ****     lv_area_t blend_area;
 4573              		.loc 1 185 5 view .LVU1609
 186:lvgl/lvgl/src/draw/lv_draw_rect.c ****     blend_area.x1 = draw_area.x1;
 4574              		.loc 1 186 5 view .LVU1610
 187:lvgl/lvgl/src/draw/lv_draw_rect.c ****     blend_area.x2 = draw_area.x2;
 4575              		.loc 1 187 5 view .LVU1611
 187:lvgl/lvgl/src/draw/lv_draw_rect.c ****     blend_area.x2 = draw_area.x2;
 4576              		.loc 1 187 30 is_stmt 0 view .LVU1612
 4577 012a BDF95030 		ldrsh	r3, [sp, #80]
 187:lvgl/lvgl/src/draw/lv_draw_rect.c ****     blend_area.x2 = draw_area.x2;
 4578              		.loc 1 187 19 view .LVU1613
 4579 012e ADF83030 		strh	r3, [sp, #48]	@ movhi
 188:lvgl/lvgl/src/draw/lv_draw_rect.c **** 
 4580              		.loc 1 188 5 is_stmt 1 view .LVU1614
 188:lvgl/lvgl/src/draw/lv_draw_rect.c **** 
 4581              		.loc 1 188 30 is_stmt 0 view .LVU1615
 4582 0132 BDF95430 		ldrsh	r3, [sp, #84]
 188:lvgl/lvgl/src/draw/lv_draw_rect.c **** 
 4583              		.loc 1 188 19 view .LVU1616
 4584 0136 ADF83430 		strh	r3, [sp, #52]	@ movhi
 192:lvgl/lvgl/src/draw/lv_draw_rect.c ****         for(h = draw_area.y1; h <= draw_area.y2; h++) {
 4585              		.loc 1 192 5 is_stmt 1 view .LVU1617
 192:lvgl/lvgl/src/draw/lv_draw_rect.c ****         for(h = draw_area.y1; h <= draw_area.y2; h++) {
 4586              		.loc 1 192 7 is_stmt 0 view .LVU1618
 4587 013a B8F1000F 		cmp	r8, #0
 4588 013e 60D1     		bne	.L295
 221:lvgl/lvgl/src/draw/lv_draw_rect.c ****         lv_coord_t top_y = coords_bg.y1 + h;
 4589              		.loc 1 221 11 view .LVU1619
 4590 0140 4FF00008 		mov	r8, #0
 4591 0144 CDF820B0 		str	fp, [sp, #32]
 4592 0148 4AE1     		b	.L250
 4593              	.LVL424:
 4594              	.L292:
 137:lvgl/lvgl/src/draw/lv_draw_rect.c **** 
 4595              		.loc 1 137 64 view .LVU1620
 4596 014a 0027     		movs	r7, #0
 4597 014c 9EE7     		b	.L240
 4598              	.LVL425:
 4599              	.L293:
 143:lvgl/lvgl/src/draw/lv_draw_rect.c ****                        LV_DRAW_MASK_RES_FULL_COVER, opa, dsc->blend_mode);
 4600              		.loc 1 143 9 is_stmt 1 view .LVU1621
 4601 014e B378     		ldrb	r3, [r6, #2]	@ zero_extendqisi2
 4602 0150 0293     		str	r3, [sp, #8]
 4603 0152 CDF804B0 		str	fp, [sp, #4]
 4604 0156 0123     		movs	r3, #1
ARM GAS  C:\Users\gx\AppData\Local\Temp\ccP7i1j8.s 			page 134


 4605 0158 0093     		str	r3, [sp]
 4606 015a 0023     		movs	r3, #0
 4607 015c B288     		ldrh	r2, [r6, #4]
 4608 015e 16A9     		add	r1, sp, #88
 4609 0160 0598     		ldr	r0, [sp, #20]
 4610              	.LVL426:
 143:lvgl/lvgl/src/draw/lv_draw_rect.c ****                        LV_DRAW_MASK_RES_FULL_COVER, opa, dsc->blend_mode);
 4611              		.loc 1 143 9 is_stmt 0 view .LVU1622
 4612 0162 FFF7FEFF 		bl	_lv_blend_fill
 4613              	.LVL427:
 145:lvgl/lvgl/src/draw/lv_draw_rect.c ****     }
 4614              		.loc 1 145 9 is_stmt 1 view .LVU1623
 4615 0166 08E2     		b	.L236
 4616              	.LVL428:
 4617              	.L288:
 166:lvgl/lvgl/src/draw/lv_draw_rect.c ****     lv_draw_mask_radius_param_t mask_rout_param;
 4618              		.loc 1 166 16 is_stmt 0 view .LVU1624
 4619 0168 4FF00009 		mov	r9, #0
 165:lvgl/lvgl/src/draw/lv_draw_rect.c ****     lv_opa_t * mask_buf = NULL;
 4620              		.loc 1 165 13 view .LVU1625
 4621 016c 4FF0FF33 		mov	r3, #-1
 4622 0170 0B93     		str	r3, [sp, #44]
 4623 0172 D6E7     		b	.L243
 4624              	.LVL429:
 4625              	.L294:
 4626              	.LBB271:
 177:lvgl/lvgl/src/draw/lv_draw_rect.c ****         int32_t i;
 4627              		.loc 1 177 9 is_stmt 1 view .LVU1626
 177:lvgl/lvgl/src/draw/lv_draw_rect.c ****         int32_t i;
 4628              		.loc 1 177 20 is_stmt 0 view .LVU1627
 4629 0174 6000     		lsls	r0, r4, #1
 4630 0176 FFF7FEFF 		bl	lv_mem_buf_get
 4631              	.LVL430:
 4632 017a 0990     		str	r0, [sp, #36]
 4633              	.LVL431:
 178:lvgl/lvgl/src/draw/lv_draw_rect.c ****         for(i = 0; i < coords_w; i++) {
 4634              		.loc 1 178 9 is_stmt 1 view .LVU1628
 179:lvgl/lvgl/src/draw/lv_draw_rect.c ****             grad_map[i] = grad_get(dsc, coords_w, i);
 4635              		.loc 1 179 9 view .LVU1629
 179:lvgl/lvgl/src/draw/lv_draw_rect.c ****             grad_map[i] = grad_get(dsc, coords_w, i);
 4636              		.loc 1 179 15 is_stmt 0 view .LVU1630
 4637 017c 0022     		movs	r2, #0
 4638 017e CDF818B0 		str	fp, [sp, #24]
 4639 0182 8346     		mov	fp, r0
 4640              	.LVL432:
 179:lvgl/lvgl/src/draw/lv_draw_rect.c ****             grad_map[i] = grad_get(dsc, coords_w, i);
 4641              		.loc 1 179 9 view .LVU1631
 4642 0184 25E0     		b	.L245
 4643              	.LVL433:
 4644              	.L297:
 4645              	.LBB272:
 4646              	.LBB273:
 408:lvgl/lvgl/src/draw/lv_draw_rect.c **** 
 4647              		.loc 1 408 18 is_stmt 1 view .LVU1632
 408:lvgl/lvgl/src/draw/lv_draw_rect.c **** 
 4648              		.loc 1 408 28 is_stmt 0 view .LVU1633
 4649 0186 B388     		ldrh	r3, [r6, #4]
ARM GAS  C:\Users\gx\AppData\Local\Temp\ccP7i1j8.s 			page 135


 4650              	.LVL434:
 408:lvgl/lvgl/src/draw/lv_draw_rect.c **** 
 4651              		.loc 1 408 28 view .LVU1634
 4652 0188 21E0     		b	.L247
 4653              	.LVL435:
 4654              	.L248:
 413:lvgl/lvgl/src/draw/lv_draw_rect.c ****     d = (s * d) >> 8;
 4655              		.loc 1 413 5 is_stmt 1 view .LVU1635
 413:lvgl/lvgl/src/draw/lv_draw_rect.c ****     d = (s * d) >> 8;
 4656              		.loc 1 413 13 is_stmt 0 view .LVU1636
 4657 018a 091A     		subs	r1, r1, r0
 4658              	.LVL436:
 414:lvgl/lvgl/src/draw/lv_draw_rect.c ****     i -= min;
 4659              		.loc 1 414 5 is_stmt 1 view .LVU1637
 414:lvgl/lvgl/src/draw/lv_draw_rect.c ****     i -= min;
 4660              		.loc 1 414 12 is_stmt 0 view .LVU1638
 4661 018c 01FB04F1 		mul	r1, r1, r4
 4662              	.LVL437:
 414:lvgl/lvgl/src/draw/lv_draw_rect.c ****     i -= min;
 4663              		.loc 1 414 7 view .LVU1639
 4664 0190 0912     		asrs	r1, r1, #8
 4665              	.LVL438:
 415:lvgl/lvgl/src/draw/lv_draw_rect.c ****     lv_opa_t mix = (i * 255) / d;
 4666              		.loc 1 415 5 is_stmt 1 view .LVU1640
 415:lvgl/lvgl/src/draw/lv_draw_rect.c ****     lv_opa_t mix = (i * 255) / d;
 4667              		.loc 1 415 7 is_stmt 0 view .LVU1641
 4668 0192 A3EB0C03 		sub	r3, r3, ip
 4669              	.LVL439:
 415:lvgl/lvgl/src/draw/lv_draw_rect.c ****     lv_opa_t mix = (i * 255) / d;
 4670              		.loc 1 415 7 view .LVU1642
 4671 0196 1BB2     		sxth	r3, r3
 4672              	.LVL440:
 416:lvgl/lvgl/src/draw/lv_draw_rect.c ****     return lv_color_mix(dsc->bg_grad_color, dsc->bg_color, mix);
 4673              		.loc 1 416 5 is_stmt 1 view .LVU1643
 416:lvgl/lvgl/src/draw/lv_draw_rect.c ****     return lv_color_mix(dsc->bg_grad_color, dsc->bg_color, mix);
 4674              		.loc 1 416 23 is_stmt 0 view .LVU1644
 4675 0198 C3EB0323 		rsb	r3, r3, r3, lsl #8
 4676              	.LVL441:
 416:lvgl/lvgl/src/draw/lv_draw_rect.c ****     return lv_color_mix(dsc->bg_grad_color, dsc->bg_color, mix);
 4677              		.loc 1 416 30 view .LVU1645
 4678 019c 93FBF1F3 		sdiv	r3, r3, r1
 4679              	.LVL442:
 417:lvgl/lvgl/src/draw/lv_draw_rect.c **** }
 4680              		.loc 1 417 5 is_stmt 1 view .LVU1646
 4681              	.LBB274:
 4682              	.LBI274:
 4683              		.file 3 "lvgl/lvgl/src/draw/../misc/lv_color.h"
   1:lvgl/lvgl/src/draw/../misc/lv_color.h **** /**
   2:lvgl/lvgl/src/draw/../misc/lv_color.h ****  * @file lv_color.h
   3:lvgl/lvgl/src/draw/../misc/lv_color.h ****  *
   4:lvgl/lvgl/src/draw/../misc/lv_color.h ****  */
   5:lvgl/lvgl/src/draw/../misc/lv_color.h **** 
   6:lvgl/lvgl/src/draw/../misc/lv_color.h **** #ifndef LV_COLOR_H
   7:lvgl/lvgl/src/draw/../misc/lv_color.h **** #define LV_COLOR_H
   8:lvgl/lvgl/src/draw/../misc/lv_color.h **** 
   9:lvgl/lvgl/src/draw/../misc/lv_color.h **** #ifdef __cplusplus
  10:lvgl/lvgl/src/draw/../misc/lv_color.h **** extern "C" {
ARM GAS  C:\Users\gx\AppData\Local\Temp\ccP7i1j8.s 			page 136


  11:lvgl/lvgl/src/draw/../misc/lv_color.h **** #endif
  12:lvgl/lvgl/src/draw/../misc/lv_color.h **** 
  13:lvgl/lvgl/src/draw/../misc/lv_color.h **** /*********************
  14:lvgl/lvgl/src/draw/../misc/lv_color.h ****  *      INCLUDES
  15:lvgl/lvgl/src/draw/../misc/lv_color.h ****  *********************/
  16:lvgl/lvgl/src/draw/../misc/lv_color.h **** #include "../lv_conf_internal.h"
  17:lvgl/lvgl/src/draw/../misc/lv_color.h **** #include "lv_math.h"
  18:lvgl/lvgl/src/draw/../misc/lv_color.h **** #include "lv_types.h"
  19:lvgl/lvgl/src/draw/../misc/lv_color.h **** 
  20:lvgl/lvgl/src/draw/../misc/lv_color.h **** /*Error checking*/
  21:lvgl/lvgl/src/draw/../misc/lv_color.h **** #if LV_COLOR_DEPTH == 24
  22:lvgl/lvgl/src/draw/../misc/lv_color.h **** #error "LV_COLOR_DEPTH 24 is deprecated. Use LV_COLOR_DEPTH 32 instead (lv_conf.h)"
  23:lvgl/lvgl/src/draw/../misc/lv_color.h **** #endif
  24:lvgl/lvgl/src/draw/../misc/lv_color.h **** 
  25:lvgl/lvgl/src/draw/../misc/lv_color.h **** #if LV_COLOR_DEPTH != 32 && LV_COLOR_SCREEN_TRANSP != 0
  26:lvgl/lvgl/src/draw/../misc/lv_color.h **** #error "LV_COLOR_SCREEN_TRANSP requires LV_COLOR_DEPTH == 32. Set it in lv_conf.h"
  27:lvgl/lvgl/src/draw/../misc/lv_color.h **** #endif
  28:lvgl/lvgl/src/draw/../misc/lv_color.h **** 
  29:lvgl/lvgl/src/draw/../misc/lv_color.h **** #if LV_COLOR_DEPTH != 16 && LV_COLOR_16_SWAP != 0
  30:lvgl/lvgl/src/draw/../misc/lv_color.h **** #error "LV_COLOR_16_SWAP requires LV_COLOR_DEPTH == 16. Set it in lv_conf.h"
  31:lvgl/lvgl/src/draw/../misc/lv_color.h **** #endif
  32:lvgl/lvgl/src/draw/../misc/lv_color.h **** 
  33:lvgl/lvgl/src/draw/../misc/lv_color.h **** #include <stdint.h>
  34:lvgl/lvgl/src/draw/../misc/lv_color.h **** 
  35:lvgl/lvgl/src/draw/../misc/lv_color.h **** /*********************
  36:lvgl/lvgl/src/draw/../misc/lv_color.h ****  *      DEFINES
  37:lvgl/lvgl/src/draw/../misc/lv_color.h ****  *********************/
  38:lvgl/lvgl/src/draw/../misc/lv_color.h **** 
  39:lvgl/lvgl/src/draw/../misc/lv_color.h **** /**
  40:lvgl/lvgl/src/draw/../misc/lv_color.h ****  * Opacity percentages.
  41:lvgl/lvgl/src/draw/../misc/lv_color.h ****  */
  42:lvgl/lvgl/src/draw/../misc/lv_color.h **** enum {
  43:lvgl/lvgl/src/draw/../misc/lv_color.h ****     LV_OPA_TRANSP = 0,
  44:lvgl/lvgl/src/draw/../misc/lv_color.h ****     LV_OPA_0      = 0,
  45:lvgl/lvgl/src/draw/../misc/lv_color.h ****     LV_OPA_10     = 25,
  46:lvgl/lvgl/src/draw/../misc/lv_color.h ****     LV_OPA_20     = 51,
  47:lvgl/lvgl/src/draw/../misc/lv_color.h ****     LV_OPA_30     = 76,
  48:lvgl/lvgl/src/draw/../misc/lv_color.h ****     LV_OPA_40     = 102,
  49:lvgl/lvgl/src/draw/../misc/lv_color.h ****     LV_OPA_50     = 127,
  50:lvgl/lvgl/src/draw/../misc/lv_color.h ****     LV_OPA_60     = 153,
  51:lvgl/lvgl/src/draw/../misc/lv_color.h ****     LV_OPA_70     = 178,
  52:lvgl/lvgl/src/draw/../misc/lv_color.h ****     LV_OPA_80     = 204,
  53:lvgl/lvgl/src/draw/../misc/lv_color.h ****     LV_OPA_90     = 229,
  54:lvgl/lvgl/src/draw/../misc/lv_color.h ****     LV_OPA_100    = 255,
  55:lvgl/lvgl/src/draw/../misc/lv_color.h ****     LV_OPA_COVER  = 255,
  56:lvgl/lvgl/src/draw/../misc/lv_color.h **** };
  57:lvgl/lvgl/src/draw/../misc/lv_color.h **** 
  58:lvgl/lvgl/src/draw/../misc/lv_color.h **** #define LV_OPA_MIN 2    /*Opacities below this will be transparent*/
  59:lvgl/lvgl/src/draw/../misc/lv_color.h **** #define LV_OPA_MAX 253  /*Opacities above this will fully cover*/
  60:lvgl/lvgl/src/draw/../misc/lv_color.h **** 
  61:lvgl/lvgl/src/draw/../misc/lv_color.h **** #if LV_COLOR_DEPTH == 1
  62:lvgl/lvgl/src/draw/../misc/lv_color.h **** #define LV_COLOR_SIZE 8
  63:lvgl/lvgl/src/draw/../misc/lv_color.h **** #elif LV_COLOR_DEPTH == 8
  64:lvgl/lvgl/src/draw/../misc/lv_color.h **** #define LV_COLOR_SIZE 8
  65:lvgl/lvgl/src/draw/../misc/lv_color.h **** #elif LV_COLOR_DEPTH == 16
  66:lvgl/lvgl/src/draw/../misc/lv_color.h **** #define LV_COLOR_SIZE 16
  67:lvgl/lvgl/src/draw/../misc/lv_color.h **** #elif LV_COLOR_DEPTH == 32
ARM GAS  C:\Users\gx\AppData\Local\Temp\ccP7i1j8.s 			page 137


  68:lvgl/lvgl/src/draw/../misc/lv_color.h **** #define LV_COLOR_SIZE 32
  69:lvgl/lvgl/src/draw/../misc/lv_color.h **** #else
  70:lvgl/lvgl/src/draw/../misc/lv_color.h **** #error "Invalid LV_COLOR_DEPTH in lv_conf.h! Set it to 1, 8, 16 or 32!"
  71:lvgl/lvgl/src/draw/../misc/lv_color.h **** #endif
  72:lvgl/lvgl/src/draw/../misc/lv_color.h **** 
  73:lvgl/lvgl/src/draw/../misc/lv_color.h **** /**
  74:lvgl/lvgl/src/draw/../misc/lv_color.h ****  * Adjust color mix functions rounding.
  75:lvgl/lvgl/src/draw/../misc/lv_color.h ****  * GPUs might calculate color mix (blending) differently.
  76:lvgl/lvgl/src/draw/../misc/lv_color.h ****  * Should be in range of 0..254
  77:lvgl/lvgl/src/draw/../misc/lv_color.h ****  * 0: no adjustment, get the integer part of the result (round down)
  78:lvgl/lvgl/src/draw/../misc/lv_color.h ****  * 64: round up from x.75
  79:lvgl/lvgl/src/draw/../misc/lv_color.h ****  * 128: round up from half
  80:lvgl/lvgl/src/draw/../misc/lv_color.h ****  * 192: round up from x.25
  81:lvgl/lvgl/src/draw/../misc/lv_color.h ****  * 254: round up*/
  82:lvgl/lvgl/src/draw/../misc/lv_color.h **** #ifndef LV_COLOR_MIX_ROUND_OFS
  83:lvgl/lvgl/src/draw/../misc/lv_color.h **** #if LV_COLOR_DEPTH == 32
  84:lvgl/lvgl/src/draw/../misc/lv_color.h **** #define LV_COLOR_MIX_ROUND_OFS 0
  85:lvgl/lvgl/src/draw/../misc/lv_color.h **** #else
  86:lvgl/lvgl/src/draw/../misc/lv_color.h **** #define LV_COLOR_MIX_ROUND_OFS 128
  87:lvgl/lvgl/src/draw/../misc/lv_color.h **** #endif
  88:lvgl/lvgl/src/draw/../misc/lv_color.h **** #endif
  89:lvgl/lvgl/src/draw/../misc/lv_color.h **** 
  90:lvgl/lvgl/src/draw/../misc/lv_color.h **** #if defined(__cplusplus) && !defined(_LV_COLOR_HAS_MODERN_CPP)
  91:lvgl/lvgl/src/draw/../misc/lv_color.h **** /**
  92:lvgl/lvgl/src/draw/../misc/lv_color.h **** * MSVC compiler's definition of the __cplusplus indicating 199711L regardless to C++ standard versi
  93:lvgl/lvgl/src/draw/../misc/lv_color.h **** * see https://devblogs.microsoft.com/cppblog/msvc-now-correctly-reports-cplusplus
  94:lvgl/lvgl/src/draw/../misc/lv_color.h **** * so we use _MSC_VER macro instead of __cplusplus
  95:lvgl/lvgl/src/draw/../misc/lv_color.h **** */
  96:lvgl/lvgl/src/draw/../misc/lv_color.h **** #ifdef _MSC_VER
  97:lvgl/lvgl/src/draw/../misc/lv_color.h **** #if _MSC_VER >= 1900 /*Visual Studio 2015*/
  98:lvgl/lvgl/src/draw/../misc/lv_color.h **** #define _LV_COLOR_HAS_MODERN_CPP 1
  99:lvgl/lvgl/src/draw/../misc/lv_color.h **** #endif
 100:lvgl/lvgl/src/draw/../misc/lv_color.h **** #else
 101:lvgl/lvgl/src/draw/../misc/lv_color.h **** #if __cplusplus >= 201103L
 102:lvgl/lvgl/src/draw/../misc/lv_color.h **** #define _LV_COLOR_HAS_MODERN_CPP 1
 103:lvgl/lvgl/src/draw/../misc/lv_color.h **** #endif
 104:lvgl/lvgl/src/draw/../misc/lv_color.h **** #endif
 105:lvgl/lvgl/src/draw/../misc/lv_color.h **** #endif /*__cplusplus*/
 106:lvgl/lvgl/src/draw/../misc/lv_color.h **** 
 107:lvgl/lvgl/src/draw/../misc/lv_color.h **** #ifndef _LV_COLOR_HAS_MODERN_CPP
 108:lvgl/lvgl/src/draw/../misc/lv_color.h **** #define _LV_COLOR_HAS_MODERN_CPP 0
 109:lvgl/lvgl/src/draw/../misc/lv_color.h **** #endif
 110:lvgl/lvgl/src/draw/../misc/lv_color.h **** 
 111:lvgl/lvgl/src/draw/../misc/lv_color.h **** #if _LV_COLOR_HAS_MODERN_CPP
 112:lvgl/lvgl/src/draw/../misc/lv_color.h **** /*Fix msvc compiler error C4576 inside C++ code*/
 113:lvgl/lvgl/src/draw/../misc/lv_color.h **** #define _LV_COLOR_MAKE_TYPE_HELPER lv_color_t
 114:lvgl/lvgl/src/draw/../misc/lv_color.h **** #else
 115:lvgl/lvgl/src/draw/../misc/lv_color.h **** #define _LV_COLOR_MAKE_TYPE_HELPER (lv_color_t)
 116:lvgl/lvgl/src/draw/../misc/lv_color.h **** #endif
 117:lvgl/lvgl/src/draw/../misc/lv_color.h **** 
 118:lvgl/lvgl/src/draw/../misc/lv_color.h **** /*---------------------------------------
 119:lvgl/lvgl/src/draw/../misc/lv_color.h ****  * Macros for all existing color depths
 120:lvgl/lvgl/src/draw/../misc/lv_color.h ****  * to set/get values of the color channels
 121:lvgl/lvgl/src/draw/../misc/lv_color.h ****  *------------------------------------------*/
 122:lvgl/lvgl/src/draw/../misc/lv_color.h **** # define LV_COLOR_SET_R1(c, v) (c).ch.red = (uint8_t)((v) & 0x1)
 123:lvgl/lvgl/src/draw/../misc/lv_color.h **** # define LV_COLOR_SET_G1(c, v) (c).ch.green = (uint8_t)((v) & 0x1)
 124:lvgl/lvgl/src/draw/../misc/lv_color.h **** # define LV_COLOR_SET_B1(c, v) (c).ch.blue = (uint8_t)((v) & 0x1)
ARM GAS  C:\Users\gx\AppData\Local\Temp\ccP7i1j8.s 			page 138


 125:lvgl/lvgl/src/draw/../misc/lv_color.h **** # define LV_COLOR_SET_A1(c, v) do {} while(0)
 126:lvgl/lvgl/src/draw/../misc/lv_color.h **** 
 127:lvgl/lvgl/src/draw/../misc/lv_color.h **** # define LV_COLOR_GET_R1(c) (c).ch.red
 128:lvgl/lvgl/src/draw/../misc/lv_color.h **** # define LV_COLOR_GET_G1(c) (c).ch.green
 129:lvgl/lvgl/src/draw/../misc/lv_color.h **** # define LV_COLOR_GET_B1(c) (c).ch.blue
 130:lvgl/lvgl/src/draw/../misc/lv_color.h **** # define LV_COLOR_GET_A1(c) 0xFF
 131:lvgl/lvgl/src/draw/../misc/lv_color.h **** 
 132:lvgl/lvgl/src/draw/../misc/lv_color.h **** # define _LV_COLOR_ZERO_INITIALIZER1 {0x00}
 133:lvgl/lvgl/src/draw/../misc/lv_color.h **** # define LV_COLOR_MAKE1(r8, g8, b8)  {(uint8_t)((b8 >> 7) | (g8 >> 7) | (r8 >> 7))}
 134:lvgl/lvgl/src/draw/../misc/lv_color.h **** 
 135:lvgl/lvgl/src/draw/../misc/lv_color.h **** # define LV_COLOR_SET_R8(c, v) (c).ch.red = (uint8_t)((v) & 0x7U)
 136:lvgl/lvgl/src/draw/../misc/lv_color.h **** # define LV_COLOR_SET_G8(c, v) (c).ch.green = (uint8_t)((v) & 0x7U)
 137:lvgl/lvgl/src/draw/../misc/lv_color.h **** # define LV_COLOR_SET_B8(c, v) (c).ch.blue = (uint8_t)((v) & 0x3U)
 138:lvgl/lvgl/src/draw/../misc/lv_color.h **** # define LV_COLOR_SET_A8(c, v) do {} while(0)
 139:lvgl/lvgl/src/draw/../misc/lv_color.h **** 
 140:lvgl/lvgl/src/draw/../misc/lv_color.h **** # define LV_COLOR_GET_R8(c) (c).ch.red
 141:lvgl/lvgl/src/draw/../misc/lv_color.h **** # define LV_COLOR_GET_G8(c) (c).ch.green
 142:lvgl/lvgl/src/draw/../misc/lv_color.h **** # define LV_COLOR_GET_B8(c) (c).ch.blue
 143:lvgl/lvgl/src/draw/../misc/lv_color.h **** # define LV_COLOR_GET_A8(c) 0xFF
 144:lvgl/lvgl/src/draw/../misc/lv_color.h **** 
 145:lvgl/lvgl/src/draw/../misc/lv_color.h **** # define _LV_COLOR_ZERO_INITIALIZER8 {{0x00, 0x00, 0x00}}
 146:lvgl/lvgl/src/draw/../misc/lv_color.h **** # define LV_COLOR_MAKE8(r8, g8, b8) {{(uint8_t)((b8 >> 6) & 0x3U), (uint8_t)((g8 >> 5) & 0x7U), (ui
 147:lvgl/lvgl/src/draw/../misc/lv_color.h **** 
 148:lvgl/lvgl/src/draw/../misc/lv_color.h **** # define LV_COLOR_SET_R16(c, v) (c).ch.red = (uint8_t)((v) & 0x1FU)
 149:lvgl/lvgl/src/draw/../misc/lv_color.h **** #if LV_COLOR_16_SWAP == 0
 150:lvgl/lvgl/src/draw/../misc/lv_color.h **** # define LV_COLOR_SET_G16(c, v) (c).ch.green = (uint8_t)((v) & 0x3FU)
 151:lvgl/lvgl/src/draw/../misc/lv_color.h **** #else
 152:lvgl/lvgl/src/draw/../misc/lv_color.h **** # define LV_COLOR_SET_G16(c, v) {(c).ch.green_h = (uint8_t)(((v) >> 3) & 0x7); (c).ch.green_l = (ui
 153:lvgl/lvgl/src/draw/../misc/lv_color.h **** #endif
 154:lvgl/lvgl/src/draw/../misc/lv_color.h **** # define LV_COLOR_SET_B16(c, v) (c).ch.blue = (uint8_t)((v) & 0x1FU)
 155:lvgl/lvgl/src/draw/../misc/lv_color.h **** # define LV_COLOR_SET_A16(c, v) do {} while(0)
 156:lvgl/lvgl/src/draw/../misc/lv_color.h **** 
 157:lvgl/lvgl/src/draw/../misc/lv_color.h **** # define LV_COLOR_GET_R16(c) (c).ch.red
 158:lvgl/lvgl/src/draw/../misc/lv_color.h **** #if LV_COLOR_16_SWAP == 0
 159:lvgl/lvgl/src/draw/../misc/lv_color.h **** # define LV_COLOR_GET_G16(c) (c).ch.green
 160:lvgl/lvgl/src/draw/../misc/lv_color.h **** #else
 161:lvgl/lvgl/src/draw/../misc/lv_color.h **** # define LV_COLOR_GET_G16(c) (((c).ch.green_h << 3) + (c).ch.green_l)
 162:lvgl/lvgl/src/draw/../misc/lv_color.h **** #endif
 163:lvgl/lvgl/src/draw/../misc/lv_color.h **** # define LV_COLOR_GET_B16(c) (c).ch.blue
 164:lvgl/lvgl/src/draw/../misc/lv_color.h **** # define LV_COLOR_GET_A16(c) 0xFF
 165:lvgl/lvgl/src/draw/../misc/lv_color.h **** 
 166:lvgl/lvgl/src/draw/../misc/lv_color.h **** #if LV_COLOR_16_SWAP == 0
 167:lvgl/lvgl/src/draw/../misc/lv_color.h **** # define _LV_COLOR_ZERO_INITIALIZER16  {{0x00, 0x00, 0x00}}
 168:lvgl/lvgl/src/draw/../misc/lv_color.h **** # define LV_COLOR_MAKE16(r8, g8, b8) {{(uint8_t)((b8 >> 3) & 0x1FU), (uint8_t)((g8 >> 2) & 0x3FU), 
 169:lvgl/lvgl/src/draw/../misc/lv_color.h **** #else
 170:lvgl/lvgl/src/draw/../misc/lv_color.h **** # define _LV_COLOR_ZERO_INITIALIZER16 {{0x00, 0x00, 0x00, 0x00}}
 171:lvgl/lvgl/src/draw/../misc/lv_color.h **** # define LV_COLOR_MAKE16(r8, g8, b8) {{(uint8_t)((g8 >> 5) & 0x7U), (uint8_t)((r8 >> 3) & 0x1FU), (
 172:lvgl/lvgl/src/draw/../misc/lv_color.h **** #endif
 173:lvgl/lvgl/src/draw/../misc/lv_color.h **** 
 174:lvgl/lvgl/src/draw/../misc/lv_color.h **** # define LV_COLOR_SET_R32(c, v) (c).ch.red = (uint8_t)((v) & 0xFF)
 175:lvgl/lvgl/src/draw/../misc/lv_color.h **** # define LV_COLOR_SET_G32(c, v) (c).ch.green = (uint8_t)((v) & 0xFF)
 176:lvgl/lvgl/src/draw/../misc/lv_color.h **** # define LV_COLOR_SET_B32(c, v) (c).ch.blue = (uint8_t)((v) & 0xFF)
 177:lvgl/lvgl/src/draw/../misc/lv_color.h **** # define LV_COLOR_SET_A32(c, v) (c).ch.alpha = (uint8_t)((v) & 0xFF)
 178:lvgl/lvgl/src/draw/../misc/lv_color.h **** 
 179:lvgl/lvgl/src/draw/../misc/lv_color.h **** # define LV_COLOR_GET_R32(c) (c).ch.red
 180:lvgl/lvgl/src/draw/../misc/lv_color.h **** # define LV_COLOR_GET_G32(c) (c).ch.green
 181:lvgl/lvgl/src/draw/../misc/lv_color.h **** # define LV_COLOR_GET_B32(c) (c).ch.blue
ARM GAS  C:\Users\gx\AppData\Local\Temp\ccP7i1j8.s 			page 139


 182:lvgl/lvgl/src/draw/../misc/lv_color.h **** # define LV_COLOR_GET_A32(c) (c).ch.alpha
 183:lvgl/lvgl/src/draw/../misc/lv_color.h **** 
 184:lvgl/lvgl/src/draw/../misc/lv_color.h **** # define _LV_COLOR_ZERO_INITIALIZER32  {{0x00, 0x00, 0x00, 0x00}}
 185:lvgl/lvgl/src/draw/../misc/lv_color.h **** # define LV_COLOR_MAKE32(r8, g8, b8) {{b8, g8, r8, 0xff}} /*Fix 0xff alpha*/
 186:lvgl/lvgl/src/draw/../misc/lv_color.h **** 
 187:lvgl/lvgl/src/draw/../misc/lv_color.h **** /*---------------------------------------
 188:lvgl/lvgl/src/draw/../misc/lv_color.h ****  * Macros for the current color depth
 189:lvgl/lvgl/src/draw/../misc/lv_color.h ****  * to set/get values of the color channels
 190:lvgl/lvgl/src/draw/../misc/lv_color.h ****  *------------------------------------------*/
 191:lvgl/lvgl/src/draw/../misc/lv_color.h **** #define LV_COLOR_SET_R(c, v) LV_CONCAT(LV_COLOR_SET_R, LV_COLOR_DEPTH)(c, v)
 192:lvgl/lvgl/src/draw/../misc/lv_color.h **** #define LV_COLOR_SET_G(c, v) LV_CONCAT(LV_COLOR_SET_G, LV_COLOR_DEPTH)(c, v)
 193:lvgl/lvgl/src/draw/../misc/lv_color.h **** #define LV_COLOR_SET_B(c, v) LV_CONCAT(LV_COLOR_SET_B, LV_COLOR_DEPTH)(c, v)
 194:lvgl/lvgl/src/draw/../misc/lv_color.h **** #define LV_COLOR_SET_A(c, v) LV_CONCAT(LV_COLOR_SET_A, LV_COLOR_DEPTH)(c, v)
 195:lvgl/lvgl/src/draw/../misc/lv_color.h **** 
 196:lvgl/lvgl/src/draw/../misc/lv_color.h **** #define LV_COLOR_GET_R(c) LV_CONCAT(LV_COLOR_GET_R, LV_COLOR_DEPTH)(c)
 197:lvgl/lvgl/src/draw/../misc/lv_color.h **** #define LV_COLOR_GET_G(c) LV_CONCAT(LV_COLOR_GET_G, LV_COLOR_DEPTH)(c)
 198:lvgl/lvgl/src/draw/../misc/lv_color.h **** #define LV_COLOR_GET_B(c) LV_CONCAT(LV_COLOR_GET_B, LV_COLOR_DEPTH)(c)
 199:lvgl/lvgl/src/draw/../misc/lv_color.h **** #define LV_COLOR_GET_A(c) LV_CONCAT(LV_COLOR_GET_A, LV_COLOR_DEPTH)(c)
 200:lvgl/lvgl/src/draw/../misc/lv_color.h **** 
 201:lvgl/lvgl/src/draw/../misc/lv_color.h **** #define _LV_COLOR_ZERO_INITIALIZER LV_CONCAT(_LV_COLOR_ZERO_INITIALIZER, LV_COLOR_DEPTH)
 202:lvgl/lvgl/src/draw/../misc/lv_color.h **** #define LV_COLOR_MAKE(r8, g8, b8) LV_CONCAT(LV_COLOR_MAKE, LV_COLOR_DEPTH)(r8, g8, b8)
 203:lvgl/lvgl/src/draw/../misc/lv_color.h **** 
 204:lvgl/lvgl/src/draw/../misc/lv_color.h **** #define LV_UDIV255(x) ((uint32_t)((uint32_t) (x) * 0x8081) >> 0x17)
 205:lvgl/lvgl/src/draw/../misc/lv_color.h **** 
 206:lvgl/lvgl/src/draw/../misc/lv_color.h **** /**********************
 207:lvgl/lvgl/src/draw/../misc/lv_color.h ****  *      TYPEDEFS
 208:lvgl/lvgl/src/draw/../misc/lv_color.h ****  **********************/
 209:lvgl/lvgl/src/draw/../misc/lv_color.h **** 
 210:lvgl/lvgl/src/draw/../misc/lv_color.h **** typedef union {
 211:lvgl/lvgl/src/draw/../misc/lv_color.h ****     uint8_t full; /*must be declared first to set all bits of byte via initializer list*/
 212:lvgl/lvgl/src/draw/../misc/lv_color.h ****     union {
 213:lvgl/lvgl/src/draw/../misc/lv_color.h ****         uint8_t blue : 1;
 214:lvgl/lvgl/src/draw/../misc/lv_color.h ****         uint8_t green : 1;
 215:lvgl/lvgl/src/draw/../misc/lv_color.h ****         uint8_t red : 1;
 216:lvgl/lvgl/src/draw/../misc/lv_color.h ****     } ch;
 217:lvgl/lvgl/src/draw/../misc/lv_color.h **** } lv_color1_t;
 218:lvgl/lvgl/src/draw/../misc/lv_color.h **** 
 219:lvgl/lvgl/src/draw/../misc/lv_color.h **** typedef union {
 220:lvgl/lvgl/src/draw/../misc/lv_color.h ****     struct {
 221:lvgl/lvgl/src/draw/../misc/lv_color.h ****         uint8_t blue : 2;
 222:lvgl/lvgl/src/draw/../misc/lv_color.h ****         uint8_t green : 3;
 223:lvgl/lvgl/src/draw/../misc/lv_color.h ****         uint8_t red : 3;
 224:lvgl/lvgl/src/draw/../misc/lv_color.h ****     } ch;
 225:lvgl/lvgl/src/draw/../misc/lv_color.h ****     uint8_t full;
 226:lvgl/lvgl/src/draw/../misc/lv_color.h **** } lv_color8_t;
 227:lvgl/lvgl/src/draw/../misc/lv_color.h **** 
 228:lvgl/lvgl/src/draw/../misc/lv_color.h **** typedef union {
 229:lvgl/lvgl/src/draw/../misc/lv_color.h ****     struct {
 230:lvgl/lvgl/src/draw/../misc/lv_color.h **** #if LV_COLOR_16_SWAP == 0
 231:lvgl/lvgl/src/draw/../misc/lv_color.h ****         uint16_t blue : 5;
 232:lvgl/lvgl/src/draw/../misc/lv_color.h ****         uint16_t green : 6;
 233:lvgl/lvgl/src/draw/../misc/lv_color.h ****         uint16_t red : 5;
 234:lvgl/lvgl/src/draw/../misc/lv_color.h **** #else
 235:lvgl/lvgl/src/draw/../misc/lv_color.h ****         uint16_t green_h : 3;
 236:lvgl/lvgl/src/draw/../misc/lv_color.h ****         uint16_t red : 5;
 237:lvgl/lvgl/src/draw/../misc/lv_color.h ****         uint16_t blue : 5;
 238:lvgl/lvgl/src/draw/../misc/lv_color.h ****         uint16_t green_l : 3;
ARM GAS  C:\Users\gx\AppData\Local\Temp\ccP7i1j8.s 			page 140


 239:lvgl/lvgl/src/draw/../misc/lv_color.h **** #endif
 240:lvgl/lvgl/src/draw/../misc/lv_color.h ****     } ch;
 241:lvgl/lvgl/src/draw/../misc/lv_color.h ****     uint16_t full;
 242:lvgl/lvgl/src/draw/../misc/lv_color.h **** } lv_color16_t;
 243:lvgl/lvgl/src/draw/../misc/lv_color.h **** 
 244:lvgl/lvgl/src/draw/../misc/lv_color.h **** typedef union {
 245:lvgl/lvgl/src/draw/../misc/lv_color.h ****     struct {
 246:lvgl/lvgl/src/draw/../misc/lv_color.h ****         uint8_t blue;
 247:lvgl/lvgl/src/draw/../misc/lv_color.h ****         uint8_t green;
 248:lvgl/lvgl/src/draw/../misc/lv_color.h ****         uint8_t red;
 249:lvgl/lvgl/src/draw/../misc/lv_color.h ****         uint8_t alpha;
 250:lvgl/lvgl/src/draw/../misc/lv_color.h ****     } ch;
 251:lvgl/lvgl/src/draw/../misc/lv_color.h ****     uint32_t full;
 252:lvgl/lvgl/src/draw/../misc/lv_color.h **** } lv_color32_t;
 253:lvgl/lvgl/src/draw/../misc/lv_color.h **** 
 254:lvgl/lvgl/src/draw/../misc/lv_color.h **** typedef LV_CONCAT3(uint, LV_COLOR_SIZE, _t) lv_color_int_t;
 255:lvgl/lvgl/src/draw/../misc/lv_color.h **** typedef LV_CONCAT3(lv_color, LV_COLOR_DEPTH, _t) lv_color_t;
 256:lvgl/lvgl/src/draw/../misc/lv_color.h **** 
 257:lvgl/lvgl/src/draw/../misc/lv_color.h **** typedef struct {
 258:lvgl/lvgl/src/draw/../misc/lv_color.h ****     uint16_t h;
 259:lvgl/lvgl/src/draw/../misc/lv_color.h ****     uint8_t s;
 260:lvgl/lvgl/src/draw/../misc/lv_color.h ****     uint8_t v;
 261:lvgl/lvgl/src/draw/../misc/lv_color.h **** } lv_color_hsv_t;
 262:lvgl/lvgl/src/draw/../misc/lv_color.h **** 
 263:lvgl/lvgl/src/draw/../misc/lv_color.h **** //! @cond Doxygen_Suppress
 264:lvgl/lvgl/src/draw/../misc/lv_color.h **** /*No idea where the guard is required but else throws warnings in the docs*/
 265:lvgl/lvgl/src/draw/../misc/lv_color.h **** typedef uint8_t lv_opa_t;
 266:lvgl/lvgl/src/draw/../misc/lv_color.h **** //! @endcond
 267:lvgl/lvgl/src/draw/../misc/lv_color.h **** 
 268:lvgl/lvgl/src/draw/../misc/lv_color.h **** struct _lv_color_filter_dsc_t;
 269:lvgl/lvgl/src/draw/../misc/lv_color.h **** 
 270:lvgl/lvgl/src/draw/../misc/lv_color.h **** typedef lv_color_t (*lv_color_filter_cb_t)(const struct _lv_color_filter_dsc_t *, lv_color_t, lv_op
 271:lvgl/lvgl/src/draw/../misc/lv_color.h **** 
 272:lvgl/lvgl/src/draw/../misc/lv_color.h **** typedef struct _lv_color_filter_dsc_t {
 273:lvgl/lvgl/src/draw/../misc/lv_color.h ****     lv_color_filter_cb_t filter_cb;
 274:lvgl/lvgl/src/draw/../misc/lv_color.h ****     void * user_data;
 275:lvgl/lvgl/src/draw/../misc/lv_color.h **** }lv_color_filter_dsc_t;
 276:lvgl/lvgl/src/draw/../misc/lv_color.h **** 
 277:lvgl/lvgl/src/draw/../misc/lv_color.h **** 
 278:lvgl/lvgl/src/draw/../misc/lv_color.h **** typedef enum {
 279:lvgl/lvgl/src/draw/../misc/lv_color.h ****     LV_PALETTE_RED,
 280:lvgl/lvgl/src/draw/../misc/lv_color.h ****     LV_PALETTE_PINK,
 281:lvgl/lvgl/src/draw/../misc/lv_color.h ****     LV_PALETTE_PURPLE,
 282:lvgl/lvgl/src/draw/../misc/lv_color.h ****     LV_PALETTE_DEEP_PURPLE,
 283:lvgl/lvgl/src/draw/../misc/lv_color.h ****     LV_PALETTE_INDIGO,
 284:lvgl/lvgl/src/draw/../misc/lv_color.h ****     LV_PALETTE_BLUE,
 285:lvgl/lvgl/src/draw/../misc/lv_color.h ****     LV_PALETTE_LIGHT_BLUE,
 286:lvgl/lvgl/src/draw/../misc/lv_color.h ****     LV_PALETTE_CYAN,
 287:lvgl/lvgl/src/draw/../misc/lv_color.h ****     LV_PALETTE_TEAL,
 288:lvgl/lvgl/src/draw/../misc/lv_color.h ****     LV_PALETTE_GREEN,
 289:lvgl/lvgl/src/draw/../misc/lv_color.h ****     LV_PALETTE_LIGHT_GREEN,
 290:lvgl/lvgl/src/draw/../misc/lv_color.h ****     LV_PALETTE_LIME,
 291:lvgl/lvgl/src/draw/../misc/lv_color.h ****     LV_PALETTE_YELLOW,
 292:lvgl/lvgl/src/draw/../misc/lv_color.h ****     LV_PALETTE_AMBER,
 293:lvgl/lvgl/src/draw/../misc/lv_color.h ****     LV_PALETTE_ORANGE,
 294:lvgl/lvgl/src/draw/../misc/lv_color.h ****     LV_PALETTE_DEEP_ORANGE,
 295:lvgl/lvgl/src/draw/../misc/lv_color.h ****     LV_PALETTE_BROWN,
ARM GAS  C:\Users\gx\AppData\Local\Temp\ccP7i1j8.s 			page 141


 296:lvgl/lvgl/src/draw/../misc/lv_color.h ****     LV_PALETTE_BLUE_GREY,
 297:lvgl/lvgl/src/draw/../misc/lv_color.h ****     LV_PALETTE_GREY,
 298:lvgl/lvgl/src/draw/../misc/lv_color.h ****     _LV_PALETTE_LAST,
 299:lvgl/lvgl/src/draw/../misc/lv_color.h ****     LV_PALETTE_NONE = 0xff,
 300:lvgl/lvgl/src/draw/../misc/lv_color.h **** }lv_palette_t;
 301:lvgl/lvgl/src/draw/../misc/lv_color.h **** 
 302:lvgl/lvgl/src/draw/../misc/lv_color.h **** /**********************
 303:lvgl/lvgl/src/draw/../misc/lv_color.h ****  * GLOBAL PROTOTYPES
 304:lvgl/lvgl/src/draw/../misc/lv_color.h ****  **********************/
 305:lvgl/lvgl/src/draw/../misc/lv_color.h **** 
 306:lvgl/lvgl/src/draw/../misc/lv_color.h **** /*In color conversations:
 307:lvgl/lvgl/src/draw/../misc/lv_color.h ****  * - When converting to bigger color type the LSB weight of 1 LSB is calculated
 308:lvgl/lvgl/src/draw/../misc/lv_color.h ****  *   E.g. 16 bit Red has 5 bits
 309:lvgl/lvgl/src/draw/../misc/lv_color.h ****  *         8 bit Red has 3 bits
 310:lvgl/lvgl/src/draw/../misc/lv_color.h ****  *        ----------------------
 311:lvgl/lvgl/src/draw/../misc/lv_color.h ****  *        8 bit red LSB = (2^5 - 1) / (2^3 - 1) = 31 / 7 = 4
 312:lvgl/lvgl/src/draw/../misc/lv_color.h ****  *
 313:lvgl/lvgl/src/draw/../misc/lv_color.h ****  * - When calculating to smaller color type simply shift out the LSBs
 314:lvgl/lvgl/src/draw/../misc/lv_color.h ****  *   E.g.  8 bit Red has 3 bits
 315:lvgl/lvgl/src/draw/../misc/lv_color.h ****  *        16 bit Red has 5 bits
 316:lvgl/lvgl/src/draw/../misc/lv_color.h ****  *        ----------------------
 317:lvgl/lvgl/src/draw/../misc/lv_color.h ****  *         Shift right with 5 - 3 = 2
 318:lvgl/lvgl/src/draw/../misc/lv_color.h ****  */
 319:lvgl/lvgl/src/draw/../misc/lv_color.h **** static inline uint8_t lv_color_to1(lv_color_t color)
 320:lvgl/lvgl/src/draw/../misc/lv_color.h **** {
 321:lvgl/lvgl/src/draw/../misc/lv_color.h **** #if LV_COLOR_DEPTH == 1
 322:lvgl/lvgl/src/draw/../misc/lv_color.h ****     return color.full;
 323:lvgl/lvgl/src/draw/../misc/lv_color.h **** #elif LV_COLOR_DEPTH == 8
 324:lvgl/lvgl/src/draw/../misc/lv_color.h ****     if((LV_COLOR_GET_R(color) & 0x4) || (LV_COLOR_GET_G(color) & 0x4) || (LV_COLOR_GET_B(color) & 0
 325:lvgl/lvgl/src/draw/../misc/lv_color.h ****         return 1;
 326:lvgl/lvgl/src/draw/../misc/lv_color.h ****     }
 327:lvgl/lvgl/src/draw/../misc/lv_color.h ****     else {
 328:lvgl/lvgl/src/draw/../misc/lv_color.h ****         return 0;
 329:lvgl/lvgl/src/draw/../misc/lv_color.h ****     }
 330:lvgl/lvgl/src/draw/../misc/lv_color.h **** #elif LV_COLOR_DEPTH == 16
 331:lvgl/lvgl/src/draw/../misc/lv_color.h ****     if((LV_COLOR_GET_R(color) & 0x10) || (LV_COLOR_GET_G(color) & 0x20) || (LV_COLOR_GET_B(color) &
 332:lvgl/lvgl/src/draw/../misc/lv_color.h ****         return 1;
 333:lvgl/lvgl/src/draw/../misc/lv_color.h ****     }
 334:lvgl/lvgl/src/draw/../misc/lv_color.h ****     else {
 335:lvgl/lvgl/src/draw/../misc/lv_color.h ****         return 0;
 336:lvgl/lvgl/src/draw/../misc/lv_color.h ****     }
 337:lvgl/lvgl/src/draw/../misc/lv_color.h **** #elif LV_COLOR_DEPTH == 32
 338:lvgl/lvgl/src/draw/../misc/lv_color.h ****     if((LV_COLOR_GET_R(color) & 0x80) || (LV_COLOR_GET_G(color) & 0x80) || (LV_COLOR_GET_B(color) &
 339:lvgl/lvgl/src/draw/../misc/lv_color.h ****         return 1;
 340:lvgl/lvgl/src/draw/../misc/lv_color.h ****     }
 341:lvgl/lvgl/src/draw/../misc/lv_color.h ****     else {
 342:lvgl/lvgl/src/draw/../misc/lv_color.h ****         return 0;
 343:lvgl/lvgl/src/draw/../misc/lv_color.h ****     }
 344:lvgl/lvgl/src/draw/../misc/lv_color.h **** #endif
 345:lvgl/lvgl/src/draw/../misc/lv_color.h **** }
 346:lvgl/lvgl/src/draw/../misc/lv_color.h **** 
 347:lvgl/lvgl/src/draw/../misc/lv_color.h **** static inline uint8_t lv_color_to8(lv_color_t color)
 348:lvgl/lvgl/src/draw/../misc/lv_color.h **** {
 349:lvgl/lvgl/src/draw/../misc/lv_color.h **** #if LV_COLOR_DEPTH == 1
 350:lvgl/lvgl/src/draw/../misc/lv_color.h ****     if(color.full == 0)
 351:lvgl/lvgl/src/draw/../misc/lv_color.h ****         return 0;
 352:lvgl/lvgl/src/draw/../misc/lv_color.h ****     else
ARM GAS  C:\Users\gx\AppData\Local\Temp\ccP7i1j8.s 			page 142


 353:lvgl/lvgl/src/draw/../misc/lv_color.h ****         return 0xFF;
 354:lvgl/lvgl/src/draw/../misc/lv_color.h **** #elif LV_COLOR_DEPTH == 8
 355:lvgl/lvgl/src/draw/../misc/lv_color.h ****     return color.full;
 356:lvgl/lvgl/src/draw/../misc/lv_color.h **** #elif LV_COLOR_DEPTH == 16
 357:lvgl/lvgl/src/draw/../misc/lv_color.h ****     lv_color8_t ret;
 358:lvgl/lvgl/src/draw/../misc/lv_color.h ****     LV_COLOR_SET_R8(ret, LV_COLOR_GET_R(color) >> 2); /*5 - 3  = 2*/
 359:lvgl/lvgl/src/draw/../misc/lv_color.h ****     LV_COLOR_SET_G8(ret, LV_COLOR_GET_G(color) >> 3); /*6 - 3  = 3*/
 360:lvgl/lvgl/src/draw/../misc/lv_color.h ****     LV_COLOR_SET_B8(ret, LV_COLOR_GET_B(color) >> 3); /*5 - 2  = 3*/
 361:lvgl/lvgl/src/draw/../misc/lv_color.h ****     return ret.full;
 362:lvgl/lvgl/src/draw/../misc/lv_color.h **** #elif LV_COLOR_DEPTH == 32
 363:lvgl/lvgl/src/draw/../misc/lv_color.h ****     lv_color8_t ret;
 364:lvgl/lvgl/src/draw/../misc/lv_color.h ****     LV_COLOR_SET_R8(ret, LV_COLOR_GET_R(color) >> 5); /*8 - 3  = 5*/
 365:lvgl/lvgl/src/draw/../misc/lv_color.h ****     LV_COLOR_SET_G8(ret, LV_COLOR_GET_G(color) >> 5); /*8 - 3  = 5*/
 366:lvgl/lvgl/src/draw/../misc/lv_color.h ****     LV_COLOR_SET_B8(ret, LV_COLOR_GET_B(color) >> 6); /*8 - 2  = 6*/
 367:lvgl/lvgl/src/draw/../misc/lv_color.h ****     return ret.full;
 368:lvgl/lvgl/src/draw/../misc/lv_color.h **** #endif
 369:lvgl/lvgl/src/draw/../misc/lv_color.h **** }
 370:lvgl/lvgl/src/draw/../misc/lv_color.h **** 
 371:lvgl/lvgl/src/draw/../misc/lv_color.h **** static inline uint16_t lv_color_to16(lv_color_t color)
 372:lvgl/lvgl/src/draw/../misc/lv_color.h **** {
 373:lvgl/lvgl/src/draw/../misc/lv_color.h **** #if LV_COLOR_DEPTH == 1
 374:lvgl/lvgl/src/draw/../misc/lv_color.h ****     if(color.full == 0)
 375:lvgl/lvgl/src/draw/../misc/lv_color.h ****         return 0;
 376:lvgl/lvgl/src/draw/../misc/lv_color.h ****     else
 377:lvgl/lvgl/src/draw/../misc/lv_color.h ****         return 0xFFFF;
 378:lvgl/lvgl/src/draw/../misc/lv_color.h **** #elif LV_COLOR_DEPTH == 8
 379:lvgl/lvgl/src/draw/../misc/lv_color.h ****     lv_color16_t ret;
 380:lvgl/lvgl/src/draw/../misc/lv_color.h ****     LV_COLOR_SET_R16(ret, LV_COLOR_GET_R(color) * 4);  /*(2^5 - 1)/(2^3 - 1) = 31/7 = 4*/
 381:lvgl/lvgl/src/draw/../misc/lv_color.h ****     LV_COLOR_SET_G16(ret, LV_COLOR_GET_G(color) * 9);  /*(2^6 - 1)/(2^3 - 1) = 63/7 = 9*/
 382:lvgl/lvgl/src/draw/../misc/lv_color.h ****     LV_COLOR_SET_B16(ret, LV_COLOR_GET_B(color) * 10); /*(2^5 - 1)/(2^2 - 1) = 31/3 = 10*/
 383:lvgl/lvgl/src/draw/../misc/lv_color.h ****     return ret.full;
 384:lvgl/lvgl/src/draw/../misc/lv_color.h **** #elif LV_COLOR_DEPTH == 16
 385:lvgl/lvgl/src/draw/../misc/lv_color.h ****     return color.full;
 386:lvgl/lvgl/src/draw/../misc/lv_color.h **** #elif LV_COLOR_DEPTH == 32
 387:lvgl/lvgl/src/draw/../misc/lv_color.h ****     lv_color16_t ret;
 388:lvgl/lvgl/src/draw/../misc/lv_color.h ****     LV_COLOR_SET_R16(ret, LV_COLOR_GET_R(color) >> 3); /*8 - 5  = 3*/
 389:lvgl/lvgl/src/draw/../misc/lv_color.h ****     LV_COLOR_SET_G16(ret, LV_COLOR_GET_G(color) >> 2); /*8 - 6  = 2*/
 390:lvgl/lvgl/src/draw/../misc/lv_color.h ****     LV_COLOR_SET_B16(ret, LV_COLOR_GET_B(color) >> 3); /*8 - 5  = 3*/
 391:lvgl/lvgl/src/draw/../misc/lv_color.h ****     return ret.full;
 392:lvgl/lvgl/src/draw/../misc/lv_color.h **** #endif
 393:lvgl/lvgl/src/draw/../misc/lv_color.h **** }
 394:lvgl/lvgl/src/draw/../misc/lv_color.h **** 
 395:lvgl/lvgl/src/draw/../misc/lv_color.h **** static inline uint32_t lv_color_to32(lv_color_t color)
 396:lvgl/lvgl/src/draw/../misc/lv_color.h **** {
 397:lvgl/lvgl/src/draw/../misc/lv_color.h **** #if LV_COLOR_DEPTH == 1
 398:lvgl/lvgl/src/draw/../misc/lv_color.h ****     if(color.full == 0)
 399:lvgl/lvgl/src/draw/../misc/lv_color.h ****         return 0xFF000000;
 400:lvgl/lvgl/src/draw/../misc/lv_color.h ****     else
 401:lvgl/lvgl/src/draw/../misc/lv_color.h ****         return 0xFFFFFFFF;
 402:lvgl/lvgl/src/draw/../misc/lv_color.h **** #elif LV_COLOR_DEPTH == 8
 403:lvgl/lvgl/src/draw/../misc/lv_color.h ****     lv_color32_t ret;
 404:lvgl/lvgl/src/draw/../misc/lv_color.h ****     LV_COLOR_SET_R32(ret, LV_COLOR_GET_R(color) * 36); /*(2^8 - 1)/(2^3 - 1) = 255/7 = 36*/
 405:lvgl/lvgl/src/draw/../misc/lv_color.h ****     LV_COLOR_SET_G32(ret, LV_COLOR_GET_G(color) * 36); /*(2^8 - 1)/(2^3 - 1) = 255/7 = 36*/
 406:lvgl/lvgl/src/draw/../misc/lv_color.h ****     LV_COLOR_SET_B32(ret, LV_COLOR_GET_B(color) * 85); /*(2^8 - 1)/(2^2 - 1) = 255/3 = 85*/
 407:lvgl/lvgl/src/draw/../misc/lv_color.h ****     LV_COLOR_SET_A32(ret, 0xFF);
 408:lvgl/lvgl/src/draw/../misc/lv_color.h ****     return ret.full;
 409:lvgl/lvgl/src/draw/../misc/lv_color.h **** #elif LV_COLOR_DEPTH == 16
ARM GAS  C:\Users\gx\AppData\Local\Temp\ccP7i1j8.s 			page 143


 410:lvgl/lvgl/src/draw/../misc/lv_color.h ****     /**
 411:lvgl/lvgl/src/draw/../misc/lv_color.h ****      * The floating point math for conversion is:
 412:lvgl/lvgl/src/draw/../misc/lv_color.h ****      *  valueto = valuefrom * ( (2^bitsto - 1) / (float)(2^bitsfrom - 1) )
 413:lvgl/lvgl/src/draw/../misc/lv_color.h ****      * The faster integer math for conversion is:
 414:lvgl/lvgl/src/draw/../misc/lv_color.h ****      *  valueto = ( valuefrom * multiplier + adder ) >> divisor
 415:lvgl/lvgl/src/draw/../misc/lv_color.h ****      *   multiplier = FLOOR( ( (2^bitsto - 1) << divisor ) / (float)(2^bitsfrom - 1) )
 416:lvgl/lvgl/src/draw/../misc/lv_color.h ****      *
 417:lvgl/lvgl/src/draw/../misc/lv_color.h ****      * Find the first divisor where ( adder >> divisor ) <= 0
 418:lvgl/lvgl/src/draw/../misc/lv_color.h ****      *
 419:lvgl/lvgl/src/draw/../misc/lv_color.h ****      * 5-bit to 8-bit: ( 31 * multiplier + adder ) >> divisor = 255
 420:lvgl/lvgl/src/draw/../misc/lv_color.h ****      * divisor  multiplier  adder  min (0)  max (31)
 421:lvgl/lvgl/src/draw/../misc/lv_color.h ****      *       0           8      7        7       255
 422:lvgl/lvgl/src/draw/../misc/lv_color.h ****      *       1          16     14        7       255
 423:lvgl/lvgl/src/draw/../misc/lv_color.h ****      *       2          32     28        7       255
 424:lvgl/lvgl/src/draw/../misc/lv_color.h ****      *       3          65     25        3       255
 425:lvgl/lvgl/src/draw/../misc/lv_color.h ****      *       4         131     19        1       255
 426:lvgl/lvgl/src/draw/../misc/lv_color.h ****      *       5         263      7        0       255
 427:lvgl/lvgl/src/draw/../misc/lv_color.h ****      *
 428:lvgl/lvgl/src/draw/../misc/lv_color.h ****      * 6-bit to 8-bit: 255 = ( 63 * multiplier + adder ) >> divisor
 429:lvgl/lvgl/src/draw/../misc/lv_color.h ****      * divisor  multiplier  adder  min (0)  max (63)
 430:lvgl/lvgl/src/draw/../misc/lv_color.h ****      *       0           4      3        3       255
 431:lvgl/lvgl/src/draw/../misc/lv_color.h ****      *       1           8      6        3       255
 432:lvgl/lvgl/src/draw/../misc/lv_color.h ****      *       2          16     12        3       255
 433:lvgl/lvgl/src/draw/../misc/lv_color.h ****      *       3          32     24        3       255
 434:lvgl/lvgl/src/draw/../misc/lv_color.h ****      *       4          64     48        3       255
 435:lvgl/lvgl/src/draw/../misc/lv_color.h ****      *       5         129     33        1       255
 436:lvgl/lvgl/src/draw/../misc/lv_color.h ****      *       6         259      3        0       255
 437:lvgl/lvgl/src/draw/../misc/lv_color.h ****      */
 438:lvgl/lvgl/src/draw/../misc/lv_color.h **** 
 439:lvgl/lvgl/src/draw/../misc/lv_color.h ****     lv_color32_t ret;
 440:lvgl/lvgl/src/draw/../misc/lv_color.h ****     LV_COLOR_SET_R32(ret, (LV_COLOR_GET_R(color) * 263 + 7) >> 5);
 441:lvgl/lvgl/src/draw/../misc/lv_color.h ****     LV_COLOR_SET_G32(ret, (LV_COLOR_GET_G(color) * 259 + 3) >> 6);
 442:lvgl/lvgl/src/draw/../misc/lv_color.h ****     LV_COLOR_SET_B32(ret, (LV_COLOR_GET_B(color) * 263 + 7) >> 5);
 443:lvgl/lvgl/src/draw/../misc/lv_color.h ****     LV_COLOR_SET_A32(ret, 0xFF);
 444:lvgl/lvgl/src/draw/../misc/lv_color.h ****     return ret.full;
 445:lvgl/lvgl/src/draw/../misc/lv_color.h **** #elif LV_COLOR_DEPTH == 32
 446:lvgl/lvgl/src/draw/../misc/lv_color.h ****     return color.full;
 447:lvgl/lvgl/src/draw/../misc/lv_color.h **** #endif
 448:lvgl/lvgl/src/draw/../misc/lv_color.h **** }
 449:lvgl/lvgl/src/draw/../misc/lv_color.h **** 
 450:lvgl/lvgl/src/draw/../misc/lv_color.h **** //! @cond Doxygen_Suppress
 451:lvgl/lvgl/src/draw/../misc/lv_color.h **** 
 452:lvgl/lvgl/src/draw/../misc/lv_color.h **** /**
 453:lvgl/lvgl/src/draw/../misc/lv_color.h ****  * Mix two colors with a given ratio.
 454:lvgl/lvgl/src/draw/../misc/lv_color.h ****  * @param c1 the first color to mix (usually the foreground)
 455:lvgl/lvgl/src/draw/../misc/lv_color.h ****  * @param c2 the second color to mix (usually the background)
 456:lvgl/lvgl/src/draw/../misc/lv_color.h ****  * @param mix The ratio of the colors. 0: full `c2`, 255: full `c1`, 127: half `c1` and half`c2`
 457:lvgl/lvgl/src/draw/../misc/lv_color.h ****  * @return the mixed color
 458:lvgl/lvgl/src/draw/../misc/lv_color.h ****  */
 459:lvgl/lvgl/src/draw/../misc/lv_color.h **** LV_ATTRIBUTE_FAST_MEM static inline lv_color_t lv_color_mix(lv_color_t c1, lv_color_t c2, uint8_t m
 4684              		.loc 3 459 48 view .LVU1647
 4685              	.LBB275:
 460:lvgl/lvgl/src/draw/../misc/lv_color.h **** {
 461:lvgl/lvgl/src/draw/../misc/lv_color.h ****     lv_color_t ret;
 4686              		.loc 3 461 5 view .LVU1648
 462:lvgl/lvgl/src/draw/../misc/lv_color.h **** 
 463:lvgl/lvgl/src/draw/../misc/lv_color.h **** #if LV_COLOR_DEPTH == 16 && LV_COLOR_16_SWAP == 0
ARM GAS  C:\Users\gx\AppData\Local\Temp\ccP7i1j8.s 			page 144


 464:lvgl/lvgl/src/draw/../misc/lv_color.h ****     /*Source: https://stackoverflow.com/a/50012418/1999969*/
 465:lvgl/lvgl/src/draw/../misc/lv_color.h ****     mix = ( mix + 4 ) >> 3;
 4687              		.loc 3 465 5 view .LVU1649
 4688              		.loc 3 465 17 is_stmt 0 view .LVU1650
 4689 01a0 DBB2     		uxtb	r3, r3
 4690              		.loc 3 465 17 view .LVU1651
 4691 01a2 0433     		adds	r3, r3, #4
 4692              	.LVL443:
 466:lvgl/lvgl/src/draw/../misc/lv_color.h ****     uint32_t bg = (uint32_t)((uint32_t)c2.full | ((uint32_t)c2.full << 16)) & 0x7E0F81F; /*0b000001
 4693              		.loc 3 466 5 is_stmt 1 view .LVU1652
 4694              		.loc 3 466 42 is_stmt 0 view .LVU1653
 4695 01a4 B188     		ldrh	r1, [r6, #4]
 4696              	.LVL444:
 4697              		.loc 3 466 19 view .LVU1654
 4698 01a6 41EA0141 		orr	r1, r1, r1, lsl #16
 4699              		.loc 3 466 14 view .LVU1655
 4700 01aa 8548     		ldr	r0, .L318
 4701              	.LVL445:
 4702              		.loc 3 466 14 view .LVU1656
 4703 01ac 0140     		ands	r1, r1, r0
 4704              	.LVL446:
 467:lvgl/lvgl/src/draw/../misc/lv_color.h ****     uint32_t fg = (uint32_t)((uint32_t)c1.full | (uint32_t)(c1.full << 16)) & 0x7E0F81F;
 4705              		.loc 3 467 5 is_stmt 1 view .LVU1657
 4706              		.loc 3 467 42 is_stmt 0 view .LVU1658
 4707 01ae B6F806C0 		ldrh	ip, [r6, #6]
 4708              	.LVL447:
 4709              		.loc 3 467 19 view .LVU1659
 4710 01b2 4CEA0C4C 		orr	ip, ip, ip, lsl #16
 4711              		.loc 3 467 14 view .LVU1660
 4712 01b6 0CEA000C 		and	ip, ip, r0
 4713              	.LVL448:
 468:lvgl/lvgl/src/draw/../misc/lv_color.h ****     uint32_t result = ((((fg - bg) * mix) >> 5) + bg) & 0x7E0F81F;
 4714              		.loc 3 468 5 is_stmt 1 view .LVU1661
 4715              		.loc 3 468 30 is_stmt 0 view .LVU1662
 4716 01ba ACEB010C 		sub	ip, ip, r1
 4717              	.LVL449:
 4718              		.loc 3 468 36 view .LVU1663
 4719 01be DB08     		lsrs	r3, r3, #3
 4720              	.LVL450:
 4721              		.loc 3 468 36 view .LVU1664
 4722 01c0 0CFB03F3 		mul	r3, ip, r3
 4723              		.loc 3 468 49 view .LVU1665
 4724 01c4 01EB5313 		add	r3, r1, r3, lsr #5
 4725              		.loc 3 468 14 view .LVU1666
 4726 01c8 0340     		ands	r3, r3, r0
 4727              	.LVL451:
 469:lvgl/lvgl/src/draw/../misc/lv_color.h ****     ret.full = (uint16_t)((result >> 16) | result);
 4728              		.loc 3 469 5 is_stmt 1 view .LVU1667
 470:lvgl/lvgl/src/draw/../misc/lv_color.h **** #elif LV_COLOR_DEPTH != 1
 471:lvgl/lvgl/src/draw/../misc/lv_color.h ****     /*LV_COLOR_DEPTH == 8, 16 or 32*/
 472:lvgl/lvgl/src/draw/../misc/lv_color.h ****     LV_COLOR_SET_R(ret, LV_UDIV255((uint16_t) LV_COLOR_GET_R(c1) * mix + LV_COLOR_GET_R(c2) *
 473:lvgl/lvgl/src/draw/../misc/lv_color.h ****                                         (255 - mix) + LV_COLOR_MIX_ROUND_OFS));
 474:lvgl/lvgl/src/draw/../misc/lv_color.h ****     LV_COLOR_SET_G(ret, LV_UDIV255((uint16_t) LV_COLOR_GET_G(c1) * mix + LV_COLOR_GET_G(c2) *
 475:lvgl/lvgl/src/draw/../misc/lv_color.h ****                                         (255 - mix) + LV_COLOR_MIX_ROUND_OFS));
 476:lvgl/lvgl/src/draw/../misc/lv_color.h ****     LV_COLOR_SET_B(ret, LV_UDIV255((uint16_t) LV_COLOR_GET_B(c1) * mix + LV_COLOR_GET_B(c2) *
 477:lvgl/lvgl/src/draw/../misc/lv_color.h ****                                         (255 - mix) + LV_COLOR_MIX_ROUND_OFS));
 478:lvgl/lvgl/src/draw/../misc/lv_color.h ****     LV_COLOR_SET_A(ret, 0xFF);
ARM GAS  C:\Users\gx\AppData\Local\Temp\ccP7i1j8.s 			page 145


 479:lvgl/lvgl/src/draw/../misc/lv_color.h **** #else
 480:lvgl/lvgl/src/draw/../misc/lv_color.h ****     /*LV_COLOR_DEPTH == 1*/
 481:lvgl/lvgl/src/draw/../misc/lv_color.h ****     ret.full = mix > LV_OPA_50 ? c1.full : c2.full;
 482:lvgl/lvgl/src/draw/../misc/lv_color.h **** #endif
 483:lvgl/lvgl/src/draw/../misc/lv_color.h **** 
 484:lvgl/lvgl/src/draw/../misc/lv_color.h ****     return ret;
 4729              		.loc 3 484 5 view .LVU1668
 4730 01ca 43EA1343 		orr	r3, r3, r3, lsr #16
 4731              	.LVL452:
 4732              	.L247:
 4733              		.loc 3 484 5 is_stmt 0 view .LVU1669
 4734              	.LBE275:
 4735              	.LBE274:
 4736              	.LBE273:
 4737              	.LBE272:
 180:lvgl/lvgl/src/draw/lv_draw_rect.c ****         }
 4738              		.loc 1 180 27 view .LVU1670
 4739 01ce 2B80     		strh	r3, [r5]	@ movhi
 179:lvgl/lvgl/src/draw/lv_draw_rect.c ****             grad_map[i] = grad_get(dsc, coords_w, i);
 4740              		.loc 1 179 34 is_stmt 1 view .LVU1671
 179:lvgl/lvgl/src/draw/lv_draw_rect.c ****             grad_map[i] = grad_get(dsc, coords_w, i);
 4741              		.loc 1 179 35 is_stmt 0 view .LVU1672
 4742 01d0 0132     		adds	r2, r2, #1
 4743              	.LVL453:
 4744              	.L245:
 179:lvgl/lvgl/src/draw/lv_draw_rect.c ****             grad_map[i] = grad_get(dsc, coords_w, i);
 4745              		.loc 1 179 20 is_stmt 1 discriminator 1 view .LVU1673
 179:lvgl/lvgl/src/draw/lv_draw_rect.c ****             grad_map[i] = grad_get(dsc, coords_w, i);
 4746              		.loc 1 179 9 is_stmt 0 discriminator 1 view .LVU1674
 4747 01d2 9442     		cmp	r4, r2
 4748 01d4 12DD     		ble	.L296
 180:lvgl/lvgl/src/draw/lv_draw_rect.c ****         }
 4749              		.loc 1 180 13 is_stmt 1 discriminator 3 view .LVU1675
 180:lvgl/lvgl/src/draw/lv_draw_rect.c ****         }
 4750              		.loc 1 180 27 is_stmt 0 discriminator 3 view .LVU1676
 4751 01d6 13B2     		sxth	r3, r2
 180:lvgl/lvgl/src/draw/lv_draw_rect.c ****         }
 4752              		.loc 1 180 21 discriminator 3 view .LVU1677
 4753 01d8 0BEB4205 		add	r5, fp, r2, lsl #1
 4754              	.LVL454:
 4755              	.LBB277:
 4756              	.LBI272:
 405:lvgl/lvgl/src/draw/lv_draw_rect.c **** {
 4757              		.loc 1 405 48 is_stmt 1 discriminator 3 view .LVU1678
 4758              	.LBB276:
 407:lvgl/lvgl/src/draw/lv_draw_rect.c ****     if(i <= min) return dsc->bg_color;
 4759              		.loc 1 407 5 discriminator 3 view .LVU1679
 407:lvgl/lvgl/src/draw/lv_draw_rect.c ****     if(i <= min) return dsc->bg_color;
 4760              		.loc 1 407 23 is_stmt 0 discriminator 3 view .LVU1680
 4761 01dc 307A     		ldrb	r0, [r6, #8]	@ zero_extendqisi2
 407:lvgl/lvgl/src/draw/lv_draw_rect.c ****     if(i <= min) return dsc->bg_color;
 4762              		.loc 1 407 44 discriminator 3 view .LVU1681
 4763 01de 04FB00F1 		mul	r1, r4, r0
 407:lvgl/lvgl/src/draw/lv_draw_rect.c ****     if(i <= min) return dsc->bg_color;
 4764              		.loc 1 407 13 discriminator 3 view .LVU1682
 4765 01e2 4FEA212C 		asr	ip, r1, #8
 4766              	.LVL455:
ARM GAS  C:\Users\gx\AppData\Local\Temp\ccP7i1j8.s 			page 146


 408:lvgl/lvgl/src/draw/lv_draw_rect.c **** 
 4767              		.loc 1 408 5 is_stmt 1 discriminator 3 view .LVU1683
 408:lvgl/lvgl/src/draw/lv_draw_rect.c **** 
 4768              		.loc 1 408 7 is_stmt 0 discriminator 3 view .LVU1684
 4769 01e6 B3EB212F 		cmp	r3, r1, asr #8
 4770 01ea CCDD     		ble	.L297
 410:lvgl/lvgl/src/draw/lv_draw_rect.c ****     if(i >= max) return dsc->bg_grad_color;
 4771              		.loc 1 410 5 is_stmt 1 view .LVU1685
 410:lvgl/lvgl/src/draw/lv_draw_rect.c ****     if(i >= max) return dsc->bg_grad_color;
 4772              		.loc 1 410 23 is_stmt 0 view .LVU1686
 4773 01ec 717A     		ldrb	r1, [r6, #9]	@ zero_extendqisi2
 410:lvgl/lvgl/src/draw/lv_draw_rect.c ****     if(i >= max) return dsc->bg_grad_color;
 4774              		.loc 1 410 44 view .LVU1687
 4775 01ee 01FB04FE 		mul	lr, r1, r4
 4776              	.LVL456:
 411:lvgl/lvgl/src/draw/lv_draw_rect.c **** 
 4777              		.loc 1 411 5 is_stmt 1 view .LVU1688
 411:lvgl/lvgl/src/draw/lv_draw_rect.c **** 
 4778              		.loc 1 411 7 is_stmt 0 view .LVU1689
 4779 01f2 B3EB2E2F 		cmp	r3, lr, asr #8
 4780 01f6 C8DB     		blt	.L248
 411:lvgl/lvgl/src/draw/lv_draw_rect.c **** 
 4781              		.loc 1 411 18 is_stmt 1 view .LVU1690
 411:lvgl/lvgl/src/draw/lv_draw_rect.c **** 
 4782              		.loc 1 411 28 is_stmt 0 view .LVU1691
 4783 01f8 F388     		ldrh	r3, [r6, #6]
 4784              	.LVL457:
 411:lvgl/lvgl/src/draw/lv_draw_rect.c **** 
 4785              		.loc 1 411 28 view .LVU1692
 4786 01fa E8E7     		b	.L247
 4787              	.LVL458:
 4788              	.L296:
 411:lvgl/lvgl/src/draw/lv_draw_rect.c **** 
 4789              		.loc 1 411 28 view .LVU1693
 4790 01fc DDF818B0 		ldr	fp, [sp, #24]
 4791              	.LVL459:
 411:lvgl/lvgl/src/draw/lv_draw_rect.c **** 
 4792              		.loc 1 411 28 view .LVU1694
 4793 0200 93E7     		b	.L244
 4794              	.LVL460:
 4795              	.L295:
 411:lvgl/lvgl/src/draw/lv_draw_rect.c **** 
 4796              		.loc 1 411 28 view .LVU1695
 4797              	.LBE276:
 4798              	.LBE277:
 4799              	.LBE271:
 193:lvgl/lvgl/src/draw/lv_draw_rect.c ****             blend_area.y1 = h;
 4800              		.loc 1 193 9 is_stmt 1 view .LVU1696
 193:lvgl/lvgl/src/draw/lv_draw_rect.c ****             blend_area.y1 = h;
 4801              		.loc 1 193 26 is_stmt 0 view .LVU1697
 4802 0202 BDF95240 		ldrsh	r4, [sp, #82]
 4803              	.LVL461:
 193:lvgl/lvgl/src/draw/lv_draw_rect.c ****             blend_area.y1 = h;
 4804              		.loc 1 193 26 view .LVU1698
 4805 0206 DDF81480 		ldr	r8, [sp, #20]
 193:lvgl/lvgl/src/draw/lv_draw_rect.c ****             blend_area.y1 = h;
 4806              		.loc 1 193 9 view .LVU1699
ARM GAS  C:\Users\gx\AppData\Local\Temp\ccP7i1j8.s 			page 147


 4807 020a 0BE0     		b	.L251
 4808              	.LVL462:
 4809              	.L298:
 203:lvgl/lvgl/src/draw/lv_draw_rect.c ****             }
 4810              		.loc 1 203 17 is_stmt 1 view .LVU1700
 4811 020c B378     		ldrb	r3, [r6, #2]	@ zero_extendqisi2
 4812 020e 0293     		str	r3, [sp, #8]
 4813 0210 FF23     		movs	r3, #255
 4814 0212 0193     		str	r3, [sp, #4]
 4815 0214 0090     		str	r0, [sp]
 4816 0216 4B46     		mov	r3, r9
 4817 0218 B288     		ldrh	r2, [r6, #4]
 4818 021a 0CA9     		add	r1, sp, #48
 4819 021c 4046     		mov	r0, r8
 4820              	.LVL463:
 203:lvgl/lvgl/src/draw/lv_draw_rect.c ****             }
 4821              		.loc 1 203 17 is_stmt 0 view .LVU1701
 4822 021e FFF7FEFF 		bl	_lv_blend_fill
 4823              	.LVL464:
 4824              	.L253:
 193:lvgl/lvgl/src/draw/lv_draw_rect.c ****             blend_area.y1 = h;
 4825              		.loc 1 193 50 is_stmt 1 discriminator 2 view .LVU1702
 193:lvgl/lvgl/src/draw/lv_draw_rect.c ****             blend_area.y1 = h;
 4826              		.loc 1 193 51 is_stmt 0 discriminator 2 view .LVU1703
 4827 0222 0134     		adds	r4, r4, #1
 4828              	.LVL465:
 4829              	.L251:
 193:lvgl/lvgl/src/draw/lv_draw_rect.c ****             blend_area.y1 = h;
 4830              		.loc 1 193 31 is_stmt 1 discriminator 1 view .LVU1704
 193:lvgl/lvgl/src/draw/lv_draw_rect.c ****             blend_area.y1 = h;
 4831              		.loc 1 193 45 is_stmt 0 discriminator 1 view .LVU1705
 4832 0224 BDF95630 		ldrsh	r3, [sp, #86]
 193:lvgl/lvgl/src/draw/lv_draw_rect.c ****             blend_area.y1 = h;
 4833              		.loc 1 193 9 discriminator 1 view .LVU1706
 4834 0228 A342     		cmp	r3, r4
 4835 022a C0F29781 		blt	.L259
 194:lvgl/lvgl/src/draw/lv_draw_rect.c ****             blend_area.y2 = h;
 4836              		.loc 1 194 13 is_stmt 1 view .LVU1707
 194:lvgl/lvgl/src/draw/lv_draw_rect.c ****             blend_area.y2 = h;
 4837              		.loc 1 194 27 is_stmt 0 view .LVU1708
 4838 022e 25B2     		sxth	r5, r4
 4839 0230 ADF83250 		strh	r5, [sp, #50]	@ movhi
 195:lvgl/lvgl/src/draw/lv_draw_rect.c **** 
 4840              		.loc 1 195 13 is_stmt 1 view .LVU1709
 195:lvgl/lvgl/src/draw/lv_draw_rect.c **** 
 4841              		.loc 1 195 27 is_stmt 0 view .LVU1710
 4842 0234 ADF83650 		strh	r5, [sp, #54]	@ movhi
 199:lvgl/lvgl/src/draw/lv_draw_rect.c ****             mask_res = lv_draw_mask_apply(mask_buf, draw_area.x1, h, draw_area_w);
 4843              		.loc 1 199 13 is_stmt 1 view .LVU1711
 4844 0238 5246     		mov	r2, r10
 4845 023a 5946     		mov	r1, fp
 4846 023c 4846     		mov	r0, r9
 4847 023e FFF7FEFF 		bl	lv_memset
 4848              	.LVL466:
 200:lvgl/lvgl/src/draw/lv_draw_rect.c **** 
 4849              		.loc 1 200 13 view .LVU1712
 200:lvgl/lvgl/src/draw/lv_draw_rect.c **** 
ARM GAS  C:\Users\gx\AppData\Local\Temp\ccP7i1j8.s 			page 148


 4850              		.loc 1 200 24 is_stmt 0 view .LVU1713
 4851 0242 5346     		mov	r3, r10
 4852 0244 2A46     		mov	r2, r5
 4853 0246 BDF95010 		ldrsh	r1, [sp, #80]
 4854 024a 4846     		mov	r0, r9
 4855 024c FFF7FEFF 		bl	lv_draw_mask_apply
 4856              	.LVL467:
 202:lvgl/lvgl/src/draw/lv_draw_rect.c ****                 _lv_blend_fill(clip_area, &blend_area, dsc->bg_color, mask_buf, mask_res, LV_OPA_CO
 4857              		.loc 1 202 13 is_stmt 1 view .LVU1714
 202:lvgl/lvgl/src/draw/lv_draw_rect.c ****                 _lv_blend_fill(clip_area, &blend_area, dsc->bg_color, mask_buf, mask_res, LV_OPA_CO
 4858              		.loc 1 202 15 is_stmt 0 view .LVU1715
 4859 0250 002F     		cmp	r7, #0
 4860 0252 DBD0     		beq	.L298
 205:lvgl/lvgl/src/draw/lv_draw_rect.c ****                 _lv_blend_map(clip_area, &blend_area, grad_map, mask_buf, mask_res, LV_OPA_COVER, d
 4861              		.loc 1 205 18 is_stmt 1 view .LVU1716
 205:lvgl/lvgl/src/draw/lv_draw_rect.c ****                 _lv_blend_map(clip_area, &blend_area, grad_map, mask_buf, mask_res, LV_OPA_COVER, d
 4862              		.loc 1 205 20 is_stmt 0 view .LVU1717
 4863 0254 022F     		cmp	r7, #2
 4864 0256 43D0     		beq	.L299
 208:lvgl/lvgl/src/draw/lv_draw_rect.c ****                 lv_color_t c = grad_get(dsc, coords_h, h - coords_bg.y1);
 4865              		.loc 1 208 18 is_stmt 1 view .LVU1718
 208:lvgl/lvgl/src/draw/lv_draw_rect.c ****                 lv_color_t c = grad_get(dsc, coords_h, h - coords_bg.y1);
 4866              		.loc 1 208 20 is_stmt 0 view .LVU1719
 4867 0258 012F     		cmp	r7, #1
 4868 025a E2D1     		bne	.L253
 4869              	.LBB278:
 209:lvgl/lvgl/src/draw/lv_draw_rect.c ****                 _lv_blend_fill(clip_area, &blend_area, c, mask_buf, mask_res, LV_OPA_COVER, dsc->bl
 4870              		.loc 1 209 17 is_stmt 1 view .LVU1720
 209:lvgl/lvgl/src/draw/lv_draw_rect.c ****                 _lv_blend_fill(clip_area, &blend_area, c, mask_buf, mask_res, LV_OPA_COVER, dsc->bl
 4871              		.loc 1 209 69 is_stmt 0 view .LVU1721
 4872 025c BDF85A20 		ldrh	r2, [sp, #90]
 209:lvgl/lvgl/src/draw/lv_draw_rect.c ****                 _lv_blend_fill(clip_area, &blend_area, c, mask_buf, mask_res, LV_OPA_COVER, dsc->bl
 4873              		.loc 1 209 58 view .LVU1722
 4874 0260 A21A     		subs	r2, r4, r2
 4875 0262 93B2     		uxth	r3, r2
 4876 0264 0493     		str	r3, [sp, #16]
 209:lvgl/lvgl/src/draw/lv_draw_rect.c ****                 _lv_blend_fill(clip_area, &blend_area, c, mask_buf, mask_res, LV_OPA_COVER, dsc->bl
 4877              		.loc 1 209 32 view .LVU1723
 4878 0266 12B2     		sxth	r2, r2
 4879              	.LVL468:
 4880              	.LBB279:
 4881              	.LBI279:
 405:lvgl/lvgl/src/draw/lv_draw_rect.c **** {
 4882              		.loc 1 405 48 is_stmt 1 view .LVU1724
 4883              	.LBB280:
 407:lvgl/lvgl/src/draw/lv_draw_rect.c ****     if(i <= min) return dsc->bg_color;
 4884              		.loc 1 407 5 view .LVU1725
 407:lvgl/lvgl/src/draw/lv_draw_rect.c ****     if(i <= min) return dsc->bg_color;
 4885              		.loc 1 407 23 is_stmt 0 view .LVU1726
 4886 0268 357A     		ldrb	r5, [r6, #8]	@ zero_extendqisi2
 407:lvgl/lvgl/src/draw/lv_draw_rect.c ****     if(i <= min) return dsc->bg_color;
 4887              		.loc 1 407 44 view .LVU1727
 4888 026a 0A99     		ldr	r1, [sp, #40]
 4889 026c 01FB05F1 		mul	r1, r1, r5
 407:lvgl/lvgl/src/draw/lv_draw_rect.c ****     if(i <= min) return dsc->bg_color;
 4890              		.loc 1 407 13 view .LVU1728
 4891 0270 4FEA212C 		asr	ip, r1, #8
ARM GAS  C:\Users\gx\AppData\Local\Temp\ccP7i1j8.s 			page 149


 4892              	.LVL469:
 408:lvgl/lvgl/src/draw/lv_draw_rect.c **** 
 4893              		.loc 1 408 5 is_stmt 1 view .LVU1729
 408:lvgl/lvgl/src/draw/lv_draw_rect.c **** 
 4894              		.loc 1 408 7 is_stmt 0 view .LVU1730
 4895 0274 B2EB212F 		cmp	r2, r1, asr #8
 4896 0278 3EDD     		ble	.L300
 410:lvgl/lvgl/src/draw/lv_draw_rect.c ****     if(i >= max) return dsc->bg_grad_color;
 4897              		.loc 1 410 5 is_stmt 1 view .LVU1731
 410:lvgl/lvgl/src/draw/lv_draw_rect.c ****     if(i >= max) return dsc->bg_grad_color;
 4898              		.loc 1 410 23 is_stmt 0 view .LVU1732
 4899 027a 717A     		ldrb	r1, [r6, #9]	@ zero_extendqisi2
 410:lvgl/lvgl/src/draw/lv_draw_rect.c ****     if(i >= max) return dsc->bg_grad_color;
 4900              		.loc 1 410 44 view .LVU1733
 4901 027c 0A9B     		ldr	r3, [sp, #40]
 4902 027e 01FB03FE 		mul	lr, r1, r3
 4903              	.LVL470:
 411:lvgl/lvgl/src/draw/lv_draw_rect.c **** 
 4904              		.loc 1 411 5 is_stmt 1 view .LVU1734
 411:lvgl/lvgl/src/draw/lv_draw_rect.c **** 
 4905              		.loc 1 411 7 is_stmt 0 view .LVU1735
 4906 0282 B2EB2E2F 		cmp	r2, lr, asr #8
 4907 0286 39DA     		bge	.L301
 413:lvgl/lvgl/src/draw/lv_draw_rect.c ****     d = (s * d) >> 8;
 4908              		.loc 1 413 5 is_stmt 1 view .LVU1736
 413:lvgl/lvgl/src/draw/lv_draw_rect.c ****     d = (s * d) >> 8;
 4909              		.loc 1 413 13 is_stmt 0 view .LVU1737
 4910 0288 4A1B     		subs	r2, r1, r5
 4911              	.LVL471:
 414:lvgl/lvgl/src/draw/lv_draw_rect.c ****     i -= min;
 4912              		.loc 1 414 5 is_stmt 1 view .LVU1738
 414:lvgl/lvgl/src/draw/lv_draw_rect.c ****     i -= min;
 4913              		.loc 1 414 12 is_stmt 0 view .LVU1739
 4914 028a 0A9B     		ldr	r3, [sp, #40]
 4915 028c 02FB03F2 		mul	r2, r2, r3
 4916              	.LVL472:
 414:lvgl/lvgl/src/draw/lv_draw_rect.c ****     i -= min;
 4917              		.loc 1 414 7 view .LVU1740
 4918 0290 1212     		asrs	r2, r2, #8
 4919              	.LVL473:
 415:lvgl/lvgl/src/draw/lv_draw_rect.c ****     lv_opa_t mix = (i * 255) / d;
 4920              		.loc 1 415 5 is_stmt 1 view .LVU1741
 415:lvgl/lvgl/src/draw/lv_draw_rect.c ****     lv_opa_t mix = (i * 255) / d;
 4921              		.loc 1 415 7 is_stmt 0 view .LVU1742
 4922 0292 049B     		ldr	r3, [sp, #16]
 4923 0294 A3EB0C03 		sub	r3, r3, ip
 4924 0298 1BB2     		sxth	r3, r3
 4925              	.LVL474:
 416:lvgl/lvgl/src/draw/lv_draw_rect.c ****     return lv_color_mix(dsc->bg_grad_color, dsc->bg_color, mix);
 4926              		.loc 1 416 5 is_stmt 1 view .LVU1743
 416:lvgl/lvgl/src/draw/lv_draw_rect.c ****     return lv_color_mix(dsc->bg_grad_color, dsc->bg_color, mix);
 4927              		.loc 1 416 23 is_stmt 0 view .LVU1744
 4928 029a C3EB0323 		rsb	r3, r3, r3, lsl #8
 4929              	.LVL475:
 416:lvgl/lvgl/src/draw/lv_draw_rect.c ****     return lv_color_mix(dsc->bg_grad_color, dsc->bg_color, mix);
 4930              		.loc 1 416 30 view .LVU1745
 4931 029e 93FBF2F3 		sdiv	r3, r3, r2
ARM GAS  C:\Users\gx\AppData\Local\Temp\ccP7i1j8.s 			page 150


 4932              	.LVL476:
 417:lvgl/lvgl/src/draw/lv_draw_rect.c **** }
 4933              		.loc 1 417 5 is_stmt 1 view .LVU1746
 4934              	.LBB281:
 4935              	.LBI281:
 459:lvgl/lvgl/src/draw/../misc/lv_color.h **** {
 4936              		.loc 3 459 48 view .LVU1747
 4937              	.LBB282:
 461:lvgl/lvgl/src/draw/../misc/lv_color.h **** 
 4938              		.loc 3 461 5 view .LVU1748
 465:lvgl/lvgl/src/draw/../misc/lv_color.h ****     uint32_t bg = (uint32_t)((uint32_t)c2.full | ((uint32_t)c2.full << 16)) & 0x7E0F81F; /*0b000001
 4939              		.loc 3 465 5 view .LVU1749
 465:lvgl/lvgl/src/draw/../misc/lv_color.h ****     uint32_t bg = (uint32_t)((uint32_t)c2.full | ((uint32_t)c2.full << 16)) & 0x7E0F81F; /*0b000001
 4940              		.loc 3 465 17 is_stmt 0 view .LVU1750
 4941 02a2 DBB2     		uxtb	r3, r3
 465:lvgl/lvgl/src/draw/../misc/lv_color.h ****     uint32_t bg = (uint32_t)((uint32_t)c2.full | ((uint32_t)c2.full << 16)) & 0x7E0F81F; /*0b000001
 4942              		.loc 3 465 17 view .LVU1751
 4943 02a4 0433     		adds	r3, r3, #4
 4944              	.LVL477:
 466:lvgl/lvgl/src/draw/../misc/lv_color.h ****     uint32_t fg = (uint32_t)((uint32_t)c1.full | (uint32_t)(c1.full << 16)) & 0x7E0F81F;
 4945              		.loc 3 466 5 is_stmt 1 view .LVU1752
 466:lvgl/lvgl/src/draw/../misc/lv_color.h ****     uint32_t fg = (uint32_t)((uint32_t)c1.full | (uint32_t)(c1.full << 16)) & 0x7E0F81F;
 4946              		.loc 3 466 42 is_stmt 0 view .LVU1753
 4947 02a6 B288     		ldrh	r2, [r6, #4]
 4948              	.LVL478:
 466:lvgl/lvgl/src/draw/../misc/lv_color.h ****     uint32_t fg = (uint32_t)((uint32_t)c1.full | (uint32_t)(c1.full << 16)) & 0x7E0F81F;
 4949              		.loc 3 466 19 view .LVU1754
 4950 02a8 42EA0242 		orr	r2, r2, r2, lsl #16
 466:lvgl/lvgl/src/draw/../misc/lv_color.h ****     uint32_t fg = (uint32_t)((uint32_t)c1.full | (uint32_t)(c1.full << 16)) & 0x7E0F81F;
 4951              		.loc 3 466 14 view .LVU1755
 4952 02ac 444D     		ldr	r5, .L318
 4953              	.LVL479:
 466:lvgl/lvgl/src/draw/../misc/lv_color.h ****     uint32_t fg = (uint32_t)((uint32_t)c1.full | (uint32_t)(c1.full << 16)) & 0x7E0F81F;
 4954              		.loc 3 466 14 view .LVU1756
 4955 02ae 2A40     		ands	r2, r2, r5
 4956              	.LVL480:
 467:lvgl/lvgl/src/draw/../misc/lv_color.h ****     uint32_t result = ((((fg - bg) * mix) >> 5) + bg) & 0x7E0F81F;
 4957              		.loc 3 467 5 is_stmt 1 view .LVU1757
 467:lvgl/lvgl/src/draw/../misc/lv_color.h ****     uint32_t result = ((((fg - bg) * mix) >> 5) + bg) & 0x7E0F81F;
 4958              		.loc 3 467 42 is_stmt 0 view .LVU1758
 4959 02b0 F188     		ldrh	r1, [r6, #6]
 4960              	.LVL481:
 467:lvgl/lvgl/src/draw/../misc/lv_color.h ****     uint32_t result = ((((fg - bg) * mix) >> 5) + bg) & 0x7E0F81F;
 4961              		.loc 3 467 19 view .LVU1759
 4962 02b2 41EA0141 		orr	r1, r1, r1, lsl #16
 467:lvgl/lvgl/src/draw/../misc/lv_color.h ****     uint32_t result = ((((fg - bg) * mix) >> 5) + bg) & 0x7E0F81F;
 4963              		.loc 3 467 14 view .LVU1760
 4964 02b6 2940     		ands	r1, r1, r5
 4965              	.LVL482:
 468:lvgl/lvgl/src/draw/../misc/lv_color.h ****     ret.full = (uint16_t)((result >> 16) | result);
 4966              		.loc 3 468 5 is_stmt 1 view .LVU1761
 468:lvgl/lvgl/src/draw/../misc/lv_color.h ****     ret.full = (uint16_t)((result >> 16) | result);
 4967              		.loc 3 468 30 is_stmt 0 view .LVU1762
 4968 02b8 891A     		subs	r1, r1, r2
 4969              	.LVL483:
 468:lvgl/lvgl/src/draw/../misc/lv_color.h ****     ret.full = (uint16_t)((result >> 16) | result);
 4970              		.loc 3 468 36 view .LVU1763
ARM GAS  C:\Users\gx\AppData\Local\Temp\ccP7i1j8.s 			page 151


 4971 02ba DB08     		lsrs	r3, r3, #3
 4972              	.LVL484:
 468:lvgl/lvgl/src/draw/../misc/lv_color.h ****     ret.full = (uint16_t)((result >> 16) | result);
 4973              		.loc 3 468 36 view .LVU1764
 4974 02bc 01FB03F3 		mul	r3, r1, r3
 468:lvgl/lvgl/src/draw/../misc/lv_color.h ****     ret.full = (uint16_t)((result >> 16) | result);
 4975              		.loc 3 468 49 view .LVU1765
 4976 02c0 02EB5312 		add	r2, r2, r3, lsr #5
 4977              	.LVL485:
 468:lvgl/lvgl/src/draw/../misc/lv_color.h ****     ret.full = (uint16_t)((result >> 16) | result);
 4978              		.loc 3 468 14 view .LVU1766
 4979 02c4 2A40     		ands	r2, r2, r5
 4980              	.LVL486:
 469:lvgl/lvgl/src/draw/../misc/lv_color.h **** #elif LV_COLOR_DEPTH != 1
 4981              		.loc 3 469 5 is_stmt 1 view .LVU1767
 4982              		.loc 3 484 5 view .LVU1768
 4983 02c6 42EA1242 		orr	r2, r2, r2, lsr #16
 4984              	.LVL487:
 4985              	.L256:
 4986              		.loc 3 484 5 is_stmt 0 view .LVU1769
 4987              	.LBE282:
 4988              	.LBE281:
 4989              	.LBE280:
 4990              	.LBE279:
 210:lvgl/lvgl/src/draw/lv_draw_rect.c ****             }
 4991              		.loc 1 210 17 is_stmt 1 view .LVU1770
 4992 02ca B378     		ldrb	r3, [r6, #2]	@ zero_extendqisi2
 4993 02cc 0293     		str	r3, [sp, #8]
 4994 02ce FF23     		movs	r3, #255
 4995 02d0 0193     		str	r3, [sp, #4]
 4996 02d2 0090     		str	r0, [sp]
 4997 02d4 4B46     		mov	r3, r9
 4998 02d6 0CA9     		add	r1, sp, #48
 4999 02d8 4046     		mov	r0, r8
 5000              	.LVL488:
 210:lvgl/lvgl/src/draw/lv_draw_rect.c ****             }
 5001              		.loc 1 210 17 is_stmt 0 view .LVU1771
 5002 02da FFF7FEFF 		bl	_lv_blend_fill
 5003              	.LVL489:
 5004 02de A0E7     		b	.L253
 5005              	.LVL490:
 5006              	.L299:
 210:lvgl/lvgl/src/draw/lv_draw_rect.c ****             }
 5007              		.loc 1 210 17 view .LVU1772
 5008              	.LBE278:
 206:lvgl/lvgl/src/draw/lv_draw_rect.c ****             }
 5009              		.loc 1 206 17 is_stmt 1 view .LVU1773
 5010 02e0 B378     		ldrb	r3, [r6, #2]	@ zero_extendqisi2
 5011 02e2 0293     		str	r3, [sp, #8]
 5012 02e4 FF23     		movs	r3, #255
 5013 02e6 0193     		str	r3, [sp, #4]
 5014 02e8 0090     		str	r0, [sp]
 5015 02ea 4B46     		mov	r3, r9
 5016 02ec 099A     		ldr	r2, [sp, #36]
 5017 02ee 0CA9     		add	r1, sp, #48
 5018 02f0 4046     		mov	r0, r8
 5019              	.LVL491:
ARM GAS  C:\Users\gx\AppData\Local\Temp\ccP7i1j8.s 			page 152


 206:lvgl/lvgl/src/draw/lv_draw_rect.c ****             }
 5020              		.loc 1 206 17 is_stmt 0 view .LVU1774
 5021 02f2 FFF7FEFF 		bl	_lv_blend_map
 5022              	.LVL492:
 5023 02f6 94E7     		b	.L253
 5024              	.LVL493:
 5025              	.L300:
 5026              	.LBB285:
 5027              	.LBB284:
 5028              	.LBB283:
 408:lvgl/lvgl/src/draw/lv_draw_rect.c **** 
 5029              		.loc 1 408 18 is_stmt 1 view .LVU1775
 408:lvgl/lvgl/src/draw/lv_draw_rect.c **** 
 5030              		.loc 1 408 28 is_stmt 0 view .LVU1776
 5031 02f8 B288     		ldrh	r2, [r6, #4]
 5032              	.LVL494:
 408:lvgl/lvgl/src/draw/lv_draw_rect.c **** 
 5033              		.loc 1 408 28 view .LVU1777
 5034 02fa E6E7     		b	.L256
 5035              	.LVL495:
 5036              	.L301:
 411:lvgl/lvgl/src/draw/lv_draw_rect.c **** 
 5037              		.loc 1 411 18 is_stmt 1 view .LVU1778
 411:lvgl/lvgl/src/draw/lv_draw_rect.c **** 
 5038              		.loc 1 411 28 is_stmt 0 view .LVU1779
 5039 02fc F288     		ldrh	r2, [r6, #6]
 5040              	.LVL496:
 411:lvgl/lvgl/src/draw/lv_draw_rect.c **** 
 5041              		.loc 1 411 28 view .LVU1780
 5042 02fe E4E7     		b	.L256
 5043              	.LVL497:
 5044              	.L305:
 411:lvgl/lvgl/src/draw/lv_draw_rect.c **** 
 5045              		.loc 1 411 28 view .LVU1781
 5046              	.LBE283:
 5047              	.LBE284:
 5048              	.LBE285:
 5049              	.LBB286:
 236:lvgl/lvgl/src/draw/lv_draw_rect.c ****             }
 5050              		.loc 1 236 17 is_stmt 1 view .LVU1782
 5051 0300 B378     		ldrb	r3, [r6, #2]	@ zero_extendqisi2
 5052 0302 0293     		str	r3, [sp, #8]
 5053 0304 FF23     		movs	r3, #255
 5054 0306 0193     		str	r3, [sp, #4]
 5055 0308 0090     		str	r0, [sp]
 5056 030a 4B46     		mov	r3, r9
 5057 030c B288     		ldrh	r2, [r6, #4]
 5058 030e 0CA9     		add	r1, sp, #48
 5059 0310 0598     		ldr	r0, [sp, #20]
 5060 0312 FFF7FEFF 		bl	_lv_blend_fill
 5061              	.LVL498:
 5062 0316 9BE0     		b	.L262
 5063              	.L306:
 239:lvgl/lvgl/src/draw/lv_draw_rect.c ****             }
 5064              		.loc 1 239 17 view .LVU1783
 5065 0318 B378     		ldrb	r3, [r6, #2]	@ zero_extendqisi2
 5066 031a 0293     		str	r3, [sp, #8]
ARM GAS  C:\Users\gx\AppData\Local\Temp\ccP7i1j8.s 			page 153


 5067 031c FF23     		movs	r3, #255
 5068 031e 0193     		str	r3, [sp, #4]
 5069 0320 069B     		ldr	r3, [sp, #24]
 5070 0322 0093     		str	r3, [sp]
 5071 0324 4B46     		mov	r3, r9
 5072 0326 099A     		ldr	r2, [sp, #36]
 5073 0328 0CA9     		add	r1, sp, #48
 5074 032a 0598     		ldr	r0, [sp, #20]
 5075 032c FFF7FEFF 		bl	_lv_blend_map
 5076              	.LVL499:
 5077 0330 8EE0     		b	.L262
 5078              	.L307:
 5079              	.LBB287:
 242:lvgl/lvgl/src/draw/lv_draw_rect.c ****                 _lv_blend_fill(clip_area, &blend_area, c, mask_buf, mask_res, LV_OPA_COVER, dsc->bl
 5080              		.loc 1 242 17 view .LVU1784
 242:lvgl/lvgl/src/draw/lv_draw_rect.c ****                 _lv_blend_fill(clip_area, &blend_area, c, mask_buf, mask_res, LV_OPA_COVER, dsc->bl
 5081              		.loc 1 242 73 is_stmt 0 view .LVU1785
 5082 0332 BDF85A30 		ldrh	r3, [sp, #90]
 242:lvgl/lvgl/src/draw/lv_draw_rect.c ****                 _lv_blend_fill(clip_area, &blend_area, c, mask_buf, mask_res, LV_OPA_COVER, dsc->bl
 5083              		.loc 1 242 62 view .LVU1786
 5084 0336 ABEB030B 		sub	fp, fp, r3
 5085 033a 1FFA8BF3 		uxth	r3, fp
 242:lvgl/lvgl/src/draw/lv_draw_rect.c ****                 _lv_blend_fill(clip_area, &blend_area, c, mask_buf, mask_res, LV_OPA_COVER, dsc->bl
 5086              		.loc 1 242 32 view .LVU1787
 5087 033e 0FFA8BFB 		sxth	fp, fp
 5088              	.LVL500:
 5089              	.LBB288:
 5090              	.LBI288:
 405:lvgl/lvgl/src/draw/lv_draw_rect.c **** {
 5091              		.loc 1 405 48 is_stmt 1 view .LVU1788
 5092              	.LBB289:
 407:lvgl/lvgl/src/draw/lv_draw_rect.c ****     if(i <= min) return dsc->bg_color;
 5093              		.loc 1 407 5 view .LVU1789
 407:lvgl/lvgl/src/draw/lv_draw_rect.c ****     if(i <= min) return dsc->bg_color;
 5094              		.loc 1 407 23 is_stmt 0 view .LVU1790
 5095 0342 347A     		ldrb	r4, [r6, #8]	@ zero_extendqisi2
 5096              	.LVL501:
 407:lvgl/lvgl/src/draw/lv_draw_rect.c ****     if(i <= min) return dsc->bg_color;
 5097              		.loc 1 407 44 view .LVU1791
 5098 0344 0A9A     		ldr	r2, [sp, #40]
 5099 0346 02FB04F0 		mul	r0, r2, r4
 407:lvgl/lvgl/src/draw/lv_draw_rect.c ****     if(i <= min) return dsc->bg_color;
 5100              		.loc 1 407 13 view .LVU1792
 5101 034a 0112     		asrs	r1, r0, #8
 5102              	.LVL502:
 408:lvgl/lvgl/src/draw/lv_draw_rect.c **** 
 5103              		.loc 1 408 5 is_stmt 1 view .LVU1793
 408:lvgl/lvgl/src/draw/lv_draw_rect.c **** 
 5104              		.loc 1 408 7 is_stmt 0 view .LVU1794
 5105 034c BBEB202F 		cmp	fp, r0, asr #8
 5106 0350 31DD     		ble	.L302
 410:lvgl/lvgl/src/draw/lv_draw_rect.c ****     if(i >= max) return dsc->bg_grad_color;
 5107              		.loc 1 410 5 is_stmt 1 view .LVU1795
 410:lvgl/lvgl/src/draw/lv_draw_rect.c ****     if(i >= max) return dsc->bg_grad_color;
 5108              		.loc 1 410 23 is_stmt 0 view .LVU1796
 5109 0352 727A     		ldrb	r2, [r6, #9]	@ zero_extendqisi2
 410:lvgl/lvgl/src/draw/lv_draw_rect.c ****     if(i >= max) return dsc->bg_grad_color;
ARM GAS  C:\Users\gx\AppData\Local\Temp\ccP7i1j8.s 			page 154


 5110              		.loc 1 410 44 view .LVU1797
 5111 0354 0A98     		ldr	r0, [sp, #40]
 5112 0356 02FB00F0 		mul	r0, r2, r0
 5113              	.LVL503:
 411:lvgl/lvgl/src/draw/lv_draw_rect.c **** 
 5114              		.loc 1 411 5 is_stmt 1 view .LVU1798
 411:lvgl/lvgl/src/draw/lv_draw_rect.c **** 
 5115              		.loc 1 411 7 is_stmt 0 view .LVU1799
 5116 035a BBEB202F 		cmp	fp, r0, asr #8
 5117 035e 2CDA     		bge	.L303
 413:lvgl/lvgl/src/draw/lv_draw_rect.c ****     d = (s * d) >> 8;
 5118              		.loc 1 413 5 is_stmt 1 view .LVU1800
 413:lvgl/lvgl/src/draw/lv_draw_rect.c ****     d = (s * d) >> 8;
 5119              		.loc 1 413 13 is_stmt 0 view .LVU1801
 5120 0360 121B     		subs	r2, r2, r4
 5121              	.LVL504:
 414:lvgl/lvgl/src/draw/lv_draw_rect.c ****     i -= min;
 5122              		.loc 1 414 5 is_stmt 1 view .LVU1802
 414:lvgl/lvgl/src/draw/lv_draw_rect.c ****     i -= min;
 5123              		.loc 1 414 12 is_stmt 0 view .LVU1803
 5124 0362 0A98     		ldr	r0, [sp, #40]
 5125              	.LVL505:
 414:lvgl/lvgl/src/draw/lv_draw_rect.c ****     i -= min;
 5126              		.loc 1 414 12 view .LVU1804
 5127 0364 02FB00F2 		mul	r2, r2, r0
 5128              	.LVL506:
 414:lvgl/lvgl/src/draw/lv_draw_rect.c ****     i -= min;
 5129              		.loc 1 414 7 view .LVU1805
 5130 0368 1212     		asrs	r2, r2, #8
 5131              	.LVL507:
 415:lvgl/lvgl/src/draw/lv_draw_rect.c ****     lv_opa_t mix = (i * 255) / d;
 5132              		.loc 1 415 5 is_stmt 1 view .LVU1806
 415:lvgl/lvgl/src/draw/lv_draw_rect.c ****     lv_opa_t mix = (i * 255) / d;
 5133              		.loc 1 415 7 is_stmt 0 view .LVU1807
 5134 036a 5B1A     		subs	r3, r3, r1
 5135 036c 1BB2     		sxth	r3, r3
 5136              	.LVL508:
 416:lvgl/lvgl/src/draw/lv_draw_rect.c ****     return lv_color_mix(dsc->bg_grad_color, dsc->bg_color, mix);
 5137              		.loc 1 416 5 is_stmt 1 view .LVU1808
 416:lvgl/lvgl/src/draw/lv_draw_rect.c ****     return lv_color_mix(dsc->bg_grad_color, dsc->bg_color, mix);
 5138              		.loc 1 416 23 is_stmt 0 view .LVU1809
 5139 036e C3EB0323 		rsb	r3, r3, r3, lsl #8
 5140              	.LVL509:
 416:lvgl/lvgl/src/draw/lv_draw_rect.c ****     return lv_color_mix(dsc->bg_grad_color, dsc->bg_color, mix);
 5141              		.loc 1 416 30 view .LVU1810
 5142 0372 93FBF2F3 		sdiv	r3, r3, r2
 5143              	.LVL510:
 417:lvgl/lvgl/src/draw/lv_draw_rect.c **** }
 5144              		.loc 1 417 5 is_stmt 1 view .LVU1811
 5145              	.LBB290:
 5146              	.LBI290:
 459:lvgl/lvgl/src/draw/../misc/lv_color.h **** {
 5147              		.loc 3 459 48 view .LVU1812
 5148              	.LBB291:
 461:lvgl/lvgl/src/draw/../misc/lv_color.h **** 
 5149              		.loc 3 461 5 view .LVU1813
 465:lvgl/lvgl/src/draw/../misc/lv_color.h ****     uint32_t bg = (uint32_t)((uint32_t)c2.full | ((uint32_t)c2.full << 16)) & 0x7E0F81F; /*0b000001
ARM GAS  C:\Users\gx\AppData\Local\Temp\ccP7i1j8.s 			page 155


 5150              		.loc 3 465 5 view .LVU1814
 465:lvgl/lvgl/src/draw/../misc/lv_color.h ****     uint32_t bg = (uint32_t)((uint32_t)c2.full | ((uint32_t)c2.full << 16)) & 0x7E0F81F; /*0b000001
 5151              		.loc 3 465 17 is_stmt 0 view .LVU1815
 5152 0376 DBB2     		uxtb	r3, r3
 465:lvgl/lvgl/src/draw/../misc/lv_color.h ****     uint32_t bg = (uint32_t)((uint32_t)c2.full | ((uint32_t)c2.full << 16)) & 0x7E0F81F; /*0b000001
 5153              		.loc 3 465 17 view .LVU1816
 5154 0378 0433     		adds	r3, r3, #4
 5155              	.LVL511:
 466:lvgl/lvgl/src/draw/../misc/lv_color.h ****     uint32_t fg = (uint32_t)((uint32_t)c1.full | (uint32_t)(c1.full << 16)) & 0x7E0F81F;
 5156              		.loc 3 466 5 is_stmt 1 view .LVU1817
 466:lvgl/lvgl/src/draw/../misc/lv_color.h ****     uint32_t fg = (uint32_t)((uint32_t)c1.full | (uint32_t)(c1.full << 16)) & 0x7E0F81F;
 5157              		.loc 3 466 42 is_stmt 0 view .LVU1818
 5158 037a B288     		ldrh	r2, [r6, #4]
 5159              	.LVL512:
 466:lvgl/lvgl/src/draw/../misc/lv_color.h ****     uint32_t fg = (uint32_t)((uint32_t)c1.full | (uint32_t)(c1.full << 16)) & 0x7E0F81F;
 5160              		.loc 3 466 19 view .LVU1819
 5161 037c 42EA0242 		orr	r2, r2, r2, lsl #16
 466:lvgl/lvgl/src/draw/../misc/lv_color.h ****     uint32_t fg = (uint32_t)((uint32_t)c1.full | (uint32_t)(c1.full << 16)) & 0x7E0F81F;
 5162              		.loc 3 466 14 view .LVU1820
 5163 0380 0F48     		ldr	r0, .L318
 5164              	.LVL513:
 466:lvgl/lvgl/src/draw/../misc/lv_color.h ****     uint32_t fg = (uint32_t)((uint32_t)c1.full | (uint32_t)(c1.full << 16)) & 0x7E0F81F;
 5165              		.loc 3 466 14 view .LVU1821
 5166 0382 0240     		ands	r2, r2, r0
 5167              	.LVL514:
 467:lvgl/lvgl/src/draw/../misc/lv_color.h ****     uint32_t result = ((((fg - bg) * mix) >> 5) + bg) & 0x7E0F81F;
 5168              		.loc 3 467 5 is_stmt 1 view .LVU1822
 467:lvgl/lvgl/src/draw/../misc/lv_color.h ****     uint32_t result = ((((fg - bg) * mix) >> 5) + bg) & 0x7E0F81F;
 5169              		.loc 3 467 42 is_stmt 0 view .LVU1823
 5170 0384 F188     		ldrh	r1, [r6, #6]
 5171              	.LVL515:
 467:lvgl/lvgl/src/draw/../misc/lv_color.h ****     uint32_t result = ((((fg - bg) * mix) >> 5) + bg) & 0x7E0F81F;
 5172              		.loc 3 467 19 view .LVU1824
 5173 0386 41EA0141 		orr	r1, r1, r1, lsl #16
 467:lvgl/lvgl/src/draw/../misc/lv_color.h ****     uint32_t result = ((((fg - bg) * mix) >> 5) + bg) & 0x7E0F81F;
 5174              		.loc 3 467 14 view .LVU1825
 5175 038a 0140     		ands	r1, r1, r0
 5176              	.LVL516:
 468:lvgl/lvgl/src/draw/../misc/lv_color.h ****     ret.full = (uint16_t)((result >> 16) | result);
 5177              		.loc 3 468 5 is_stmt 1 view .LVU1826
 468:lvgl/lvgl/src/draw/../misc/lv_color.h ****     ret.full = (uint16_t)((result >> 16) | result);
 5178              		.loc 3 468 30 is_stmt 0 view .LVU1827
 5179 038c 891A     		subs	r1, r1, r2
 5180              	.LVL517:
 468:lvgl/lvgl/src/draw/../misc/lv_color.h ****     ret.full = (uint16_t)((result >> 16) | result);
 5181              		.loc 3 468 36 view .LVU1828
 5182 038e DB08     		lsrs	r3, r3, #3
 5183              	.LVL518:
 468:lvgl/lvgl/src/draw/../misc/lv_color.h ****     ret.full = (uint16_t)((result >> 16) | result);
 5184              		.loc 3 468 36 view .LVU1829
 5185 0390 01FB03F3 		mul	r3, r1, r3
 468:lvgl/lvgl/src/draw/../misc/lv_color.h ****     ret.full = (uint16_t)((result >> 16) | result);
 5186              		.loc 3 468 49 view .LVU1830
 5187 0394 02EB5312 		add	r2, r2, r3, lsr #5
 5188              	.LVL519:
 468:lvgl/lvgl/src/draw/../misc/lv_color.h ****     ret.full = (uint16_t)((result >> 16) | result);
 5189              		.loc 3 468 14 view .LVU1831
ARM GAS  C:\Users\gx\AppData\Local\Temp\ccP7i1j8.s 			page 156


 5190 0398 0240     		ands	r2, r2, r0
 5191              	.LVL520:
 469:lvgl/lvgl/src/draw/../misc/lv_color.h **** #elif LV_COLOR_DEPTH != 1
 5192              		.loc 3 469 5 is_stmt 1 view .LVU1832
 5193              		.loc 3 484 5 view .LVU1833
 5194 039a 42EA1242 		orr	r2, r2, r2, lsr #16
 5195              	.LVL521:
 5196              	.L266:
 5197              		.loc 3 484 5 is_stmt 0 view .LVU1834
 5198              	.LBE291:
 5199              	.LBE290:
 5200              	.LBE289:
 5201              	.LBE288:
 243:lvgl/lvgl/src/draw/lv_draw_rect.c ****             }
 5202              		.loc 1 243 17 is_stmt 1 view .LVU1835
 5203 039e B378     		ldrb	r3, [r6, #2]	@ zero_extendqisi2
 5204 03a0 0293     		str	r3, [sp, #8]
 5205 03a2 FF23     		movs	r3, #255
 5206 03a4 0193     		str	r3, [sp, #4]
 5207 03a6 069B     		ldr	r3, [sp, #24]
 5208 03a8 0093     		str	r3, [sp]
 5209 03aa 4B46     		mov	r3, r9
 5210 03ac 0CA9     		add	r1, sp, #48
 5211 03ae 0598     		ldr	r0, [sp, #20]
 5212 03b0 FFF7FEFF 		bl	_lv_blend_fill
 5213              	.LVL522:
 243:lvgl/lvgl/src/draw/lv_draw_rect.c ****             }
 5214              		.loc 1 243 17 is_stmt 0 view .LVU1836
 5215 03b4 4CE0     		b	.L262
 5216              	.LVL523:
 5217              	.L302:
 5218              	.LBB293:
 5219              	.LBB292:
 408:lvgl/lvgl/src/draw/lv_draw_rect.c **** 
 5220              		.loc 1 408 18 is_stmt 1 view .LVU1837
 408:lvgl/lvgl/src/draw/lv_draw_rect.c **** 
 5221              		.loc 1 408 28 is_stmt 0 view .LVU1838
 5222 03b6 B288     		ldrh	r2, [r6, #4]
 5223 03b8 F1E7     		b	.L266
 5224              	.LVL524:
 5225              	.L303:
 411:lvgl/lvgl/src/draw/lv_draw_rect.c **** 
 5226              		.loc 1 411 18 is_stmt 1 view .LVU1839
 411:lvgl/lvgl/src/draw/lv_draw_rect.c **** 
 5227              		.loc 1 411 28 is_stmt 0 view .LVU1840
 5228 03ba F288     		ldrh	r2, [r6, #6]
 5229 03bc EFE7     		b	.L266
 5230              	.L319:
 5231 03be 00BF     		.align	2
 5232              	.L318:
 5233 03c0 1FF8E007 		.word	132184095
 5234              	.LVL525:
 5235              	.L308:
 411:lvgl/lvgl/src/draw/lv_draw_rect.c **** 
 5236              		.loc 1 411 28 view .LVU1841
 5237              	.LBE292:
 5238              	.LBE293:
ARM GAS  C:\Users\gx\AppData\Local\Temp\ccP7i1j8.s 			page 157


 5239              	.LBE287:
 252:lvgl/lvgl/src/draw/lv_draw_rect.c ****             }
 5240              		.loc 1 252 17 is_stmt 1 view .LVU1842
 5241 03c4 B378     		ldrb	r3, [r6, #2]	@ zero_extendqisi2
 5242 03c6 0293     		str	r3, [sp, #8]
 5243 03c8 FF23     		movs	r3, #255
 5244 03ca 0193     		str	r3, [sp, #4]
 5245 03cc 069B     		ldr	r3, [sp, #24]
 5246 03ce 0093     		str	r3, [sp]
 5247 03d0 4B46     		mov	r3, r9
 5248 03d2 B288     		ldrh	r2, [r6, #4]
 5249 03d4 0CA9     		add	r1, sp, #48
 5250 03d6 0598     		ldr	r0, [sp, #20]
 5251 03d8 FFF7FEFF 		bl	_lv_blend_fill
 5252              	.LVL526:
 5253              	.L261:
 252:lvgl/lvgl/src/draw/lv_draw_rect.c ****             }
 5254              		.loc 1 252 17 is_stmt 0 view .LVU1843
 5255              	.LBE286:
 221:lvgl/lvgl/src/draw/lv_draw_rect.c ****         lv_coord_t top_y = coords_bg.y1 + h;
 5256              		.loc 1 221 26 is_stmt 1 discriminator 2 view .LVU1844
 221:lvgl/lvgl/src/draw/lv_draw_rect.c ****         lv_coord_t top_y = coords_bg.y1 + h;
 5257              		.loc 1 221 27 is_stmt 0 discriminator 2 view .LVU1845
 5258 03dc 08F10108 		add	r8, r8, #1
 5259              	.LVL527:
 5260              	.L250:
 221:lvgl/lvgl/src/draw/lv_draw_rect.c ****         lv_coord_t top_y = coords_bg.y1 + h;
 5261              		.loc 1 221 16 is_stmt 1 discriminator 1 view .LVU1846
 221:lvgl/lvgl/src/draw/lv_draw_rect.c ****         lv_coord_t top_y = coords_bg.y1 + h;
 5262              		.loc 1 221 5 is_stmt 0 discriminator 1 view .LVU1847
 5263 03e0 049B     		ldr	r3, [sp, #16]
 5264 03e2 9845     		cmp	r8, r3
 5265 03e4 80F29380 		bge	.L304
 5266              	.LBB302:
 222:lvgl/lvgl/src/draw/lv_draw_rect.c ****         lv_coord_t bottom_y = coords_bg.y2 - h;
 5267              		.loc 1 222 9 is_stmt 1 view .LVU1848
 222:lvgl/lvgl/src/draw/lv_draw_rect.c ****         lv_coord_t bottom_y = coords_bg.y2 - h;
 5268              		.loc 1 222 37 is_stmt 0 view .LVU1849
 5269 03e8 BDF85A40 		ldrh	r4, [sp, #90]
 222:lvgl/lvgl/src/draw/lv_draw_rect.c ****         lv_coord_t bottom_y = coords_bg.y2 - h;
 5270              		.loc 1 222 41 view .LVU1850
 5271 03ec 1FFA88F3 		uxth	r3, r8
 5272 03f0 1C44     		add	r4, r4, r3
 5273 03f2 1FFA84FB 		uxth	fp, r4
 222:lvgl/lvgl/src/draw/lv_draw_rect.c ****         lv_coord_t bottom_y = coords_bg.y2 - h;
 5274              		.loc 1 222 20 view .LVU1851
 5275 03f6 24B2     		sxth	r4, r4
 5276              	.LVL528:
 223:lvgl/lvgl/src/draw/lv_draw_rect.c ****         if(top_y < draw_area.y1 && bottom_y > draw_area.y2) continue;   /*This line is clipped now*
 5277              		.loc 1 223 9 is_stmt 1 view .LVU1852
 223:lvgl/lvgl/src/draw/lv_draw_rect.c ****         if(top_y < draw_area.y1 && bottom_y > draw_area.y2) continue;   /*This line is clipped now*
 5278              		.loc 1 223 40 is_stmt 0 view .LVU1853
 5279 03f8 BDF85E50 		ldrh	r5, [sp, #94]
 223:lvgl/lvgl/src/draw/lv_draw_rect.c ****         if(top_y < draw_area.y1 && bottom_y > draw_area.y2) continue;   /*This line is clipped now*
 5280              		.loc 1 223 44 view .LVU1854
 5281 03fc ED1A     		subs	r5, r5, r3
 5282 03fe ABB2     		uxth	r3, r5
ARM GAS  C:\Users\gx\AppData\Local\Temp\ccP7i1j8.s 			page 158


 5283 0400 0793     		str	r3, [sp, #28]
 223:lvgl/lvgl/src/draw/lv_draw_rect.c ****         if(top_y < draw_area.y1 && bottom_y > draw_area.y2) continue;   /*This line is clipped now*
 5284              		.loc 1 223 20 view .LVU1855
 5285 0402 2DB2     		sxth	r5, r5
 5286              	.LVL529:
 224:lvgl/lvgl/src/draw/lv_draw_rect.c **** 
 5287              		.loc 1 224 9 is_stmt 1 view .LVU1856
 224:lvgl/lvgl/src/draw/lv_draw_rect.c **** 
 5288              		.loc 1 224 29 is_stmt 0 view .LVU1857
 5289 0404 BDF95230 		ldrsh	r3, [sp, #82]
 224:lvgl/lvgl/src/draw/lv_draw_rect.c **** 
 5290              		.loc 1 224 11 view .LVU1858
 5291 0408 A342     		cmp	r3, r4
 5292 040a 03DD     		ble	.L260
 224:lvgl/lvgl/src/draw/lv_draw_rect.c **** 
 5293              		.loc 1 224 56 discriminator 1 view .LVU1859
 5294 040c BDF95630 		ldrsh	r3, [sp, #86]
 224:lvgl/lvgl/src/draw/lv_draw_rect.c **** 
 5295              		.loc 1 224 33 discriminator 1 view .LVU1860
 5296 0410 AB42     		cmp	r3, r5
 5297 0412 E3DB     		blt	.L261
 5298              	.L260:
 228:lvgl/lvgl/src/draw/lv_draw_rect.c ****         mask_res = lv_draw_mask_apply(mask_buf, blend_area.x1, top_y, draw_area_w);
 5299              		.loc 1 228 9 is_stmt 1 view .LVU1861
 5300 0414 5246     		mov	r2, r10
 5301 0416 0899     		ldr	r1, [sp, #32]
 5302 0418 4846     		mov	r0, r9
 5303 041a FFF7FEFF 		bl	lv_memset
 5304              	.LVL530:
 229:lvgl/lvgl/src/draw/lv_draw_rect.c **** 
 5305              		.loc 1 229 9 view .LVU1862
 229:lvgl/lvgl/src/draw/lv_draw_rect.c **** 
 5306              		.loc 1 229 20 is_stmt 0 view .LVU1863
 5307 041e 5346     		mov	r3, r10
 5308 0420 2246     		mov	r2, r4
 5309 0422 BDF93010 		ldrsh	r1, [sp, #48]
 5310 0426 4846     		mov	r0, r9
 5311 0428 FFF7FEFF 		bl	lv_draw_mask_apply
 5312              	.LVL531:
 5313 042c 0690     		str	r0, [sp, #24]
 5314              	.LVL532:
 231:lvgl/lvgl/src/draw/lv_draw_rect.c ****             blend_area.y1 = top_y;
 5315              		.loc 1 231 9 is_stmt 1 view .LVU1864
 231:lvgl/lvgl/src/draw/lv_draw_rect.c ****             blend_area.y1 = top_y;
 5316              		.loc 1 231 30 is_stmt 0 view .LVU1865
 5317 042e BDF95230 		ldrsh	r3, [sp, #82]
 231:lvgl/lvgl/src/draw/lv_draw_rect.c ****             blend_area.y1 = top_y;
 5318              		.loc 1 231 11 view .LVU1866
 5319 0432 A342     		cmp	r3, r4
 5320 0434 0CDC     		bgt	.L262
 232:lvgl/lvgl/src/draw/lv_draw_rect.c ****             blend_area.y2 = top_y;
 5321              		.loc 1 232 13 is_stmt 1 view .LVU1867
 232:lvgl/lvgl/src/draw/lv_draw_rect.c ****             blend_area.y2 = top_y;
 5322              		.loc 1 232 27 is_stmt 0 view .LVU1868
 5323 0436 ADF83240 		strh	r4, [sp, #50]	@ movhi
 233:lvgl/lvgl/src/draw/lv_draw_rect.c **** 
 5324              		.loc 1 233 13 is_stmt 1 view .LVU1869
ARM GAS  C:\Users\gx\AppData\Local\Temp\ccP7i1j8.s 			page 159


 233:lvgl/lvgl/src/draw/lv_draw_rect.c **** 
 5325              		.loc 1 233 27 is_stmt 0 view .LVU1870
 5326 043a ADF83640 		strh	r4, [sp, #54]	@ movhi
 235:lvgl/lvgl/src/draw/lv_draw_rect.c ****                 _lv_blend_fill(clip_area, &blend_area, dsc->bg_color, mask_buf, mask_res, LV_OPA_CO
 5327              		.loc 1 235 13 is_stmt 1 view .LVU1871
 235:lvgl/lvgl/src/draw/lv_draw_rect.c ****                 _lv_blend_fill(clip_area, &blend_area, dsc->bg_color, mask_buf, mask_res, LV_OPA_CO
 5328              		.loc 1 235 15 is_stmt 0 view .LVU1872
 5329 043e 002F     		cmp	r7, #0
 5330 0440 3FF45EAF 		beq	.L305
 238:lvgl/lvgl/src/draw/lv_draw_rect.c ****                 _lv_blend_map(clip_area, &blend_area, grad_map, mask_buf, mask_res, LV_OPA_COVER, d
 5331              		.loc 1 238 18 is_stmt 1 view .LVU1873
 238:lvgl/lvgl/src/draw/lv_draw_rect.c ****                 _lv_blend_map(clip_area, &blend_area, grad_map, mask_buf, mask_res, LV_OPA_COVER, d
 5332              		.loc 1 238 20 is_stmt 0 view .LVU1874
 5333 0444 022F     		cmp	r7, #2
 5334 0446 3FF467AF 		beq	.L306
 241:lvgl/lvgl/src/draw/lv_draw_rect.c ****                 lv_color_t c = grad_get(dsc, coords_h, top_y - coords_bg.y1);
 5335              		.loc 1 241 18 is_stmt 1 view .LVU1875
 241:lvgl/lvgl/src/draw/lv_draw_rect.c ****                 lv_color_t c = grad_get(dsc, coords_h, top_y - coords_bg.y1);
 5336              		.loc 1 241 20 is_stmt 0 view .LVU1876
 5337 044a 012F     		cmp	r7, #1
 5338 044c 3FF471AF 		beq	.L307
 5339              	.LVL533:
 5340              	.L262:
 247:lvgl/lvgl/src/draw/lv_draw_rect.c ****             blend_area.y1 = bottom_y;
 5341              		.loc 1 247 9 is_stmt 1 view .LVU1877
 247:lvgl/lvgl/src/draw/lv_draw_rect.c ****             blend_area.y1 = bottom_y;
 5342              		.loc 1 247 33 is_stmt 0 view .LVU1878
 5343 0450 BDF95630 		ldrsh	r3, [sp, #86]
 247:lvgl/lvgl/src/draw/lv_draw_rect.c ****             blend_area.y1 = bottom_y;
 5344              		.loc 1 247 11 view .LVU1879
 5345 0454 AB42     		cmp	r3, r5
 5346 0456 C1DB     		blt	.L261
 248:lvgl/lvgl/src/draw/lv_draw_rect.c ****             blend_area.y2 = bottom_y;
 5347              		.loc 1 248 13 is_stmt 1 view .LVU1880
 248:lvgl/lvgl/src/draw/lv_draw_rect.c ****             blend_area.y2 = bottom_y;
 5348              		.loc 1 248 27 is_stmt 0 view .LVU1881
 5349 0458 ADF83250 		strh	r5, [sp, #50]	@ movhi
 249:lvgl/lvgl/src/draw/lv_draw_rect.c **** 
 5350              		.loc 1 249 13 is_stmt 1 view .LVU1882
 249:lvgl/lvgl/src/draw/lv_draw_rect.c **** 
 5351              		.loc 1 249 27 is_stmt 0 view .LVU1883
 5352 045c ADF83650 		strh	r5, [sp, #54]	@ movhi
 251:lvgl/lvgl/src/draw/lv_draw_rect.c ****                 _lv_blend_fill(clip_area, &blend_area, dsc->bg_color, mask_buf, mask_res, LV_OPA_CO
 5353              		.loc 1 251 13 is_stmt 1 view .LVU1884
 251:lvgl/lvgl/src/draw/lv_draw_rect.c ****                 _lv_blend_fill(clip_area, &blend_area, dsc->bg_color, mask_buf, mask_res, LV_OPA_CO
 5354              		.loc 1 251 15 is_stmt 0 view .LVU1885
 5355 0460 002F     		cmp	r7, #0
 5356 0462 AFD0     		beq	.L308
 254:lvgl/lvgl/src/draw/lv_draw_rect.c ****                 _lv_blend_map(clip_area, &blend_area, grad_map, mask_buf, mask_res, LV_OPA_COVER, d
 5357              		.loc 1 254 18 is_stmt 1 view .LVU1886
 254:lvgl/lvgl/src/draw/lv_draw_rect.c ****                 _lv_blend_map(clip_area, &blend_area, grad_map, mask_buf, mask_res, LV_OPA_COVER, d
 5358              		.loc 1 254 20 is_stmt 0 view .LVU1887
 5359 0464 022F     		cmp	r7, #2
 5360 0466 41D0     		beq	.L309
 257:lvgl/lvgl/src/draw/lv_draw_rect.c ****                 lv_color_t c = grad_get(dsc, coords_h, bottom_y - coords_bg.y1);
 5361              		.loc 1 257 18 is_stmt 1 view .LVU1888
 257:lvgl/lvgl/src/draw/lv_draw_rect.c ****                 lv_color_t c = grad_get(dsc, coords_h, bottom_y - coords_bg.y1);
ARM GAS  C:\Users\gx\AppData\Local\Temp\ccP7i1j8.s 			page 160


 5362              		.loc 1 257 20 is_stmt 0 view .LVU1889
 5363 0468 012F     		cmp	r7, #1
 5364 046a B7D1     		bne	.L261
 5365              	.LBB294:
 258:lvgl/lvgl/src/draw/lv_draw_rect.c ****                 _lv_blend_fill(clip_area, &blend_area, c, mask_buf, mask_res, LV_OPA_COVER, dsc->bl
 5366              		.loc 1 258 17 is_stmt 1 view .LVU1890
 258:lvgl/lvgl/src/draw/lv_draw_rect.c ****                 _lv_blend_fill(clip_area, &blend_area, c, mask_buf, mask_res, LV_OPA_COVER, dsc->bl
 5367              		.loc 1 258 76 is_stmt 0 view .LVU1891
 5368 046c BDF85A30 		ldrh	r3, [sp, #90]
 258:lvgl/lvgl/src/draw/lv_draw_rect.c ****                 _lv_blend_fill(clip_area, &blend_area, c, mask_buf, mask_res, LV_OPA_COVER, dsc->bl
 5369              		.loc 1 258 65 view .LVU1892
 5370 0470 079A     		ldr	r2, [sp, #28]
 5371 0472 D31A     		subs	r3, r2, r3
 5372 0474 9AB2     		uxth	r2, r3
 258:lvgl/lvgl/src/draw/lv_draw_rect.c ****                 _lv_blend_fill(clip_area, &blend_area, c, mask_buf, mask_res, LV_OPA_COVER, dsc->bl
 5373              		.loc 1 258 32 view .LVU1893
 5374 0476 1BB2     		sxth	r3, r3
 5375              	.LVL534:
 5376              	.LBB295:
 5377              	.LBI295:
 405:lvgl/lvgl/src/draw/lv_draw_rect.c **** {
 5378              		.loc 1 405 48 is_stmt 1 view .LVU1894
 5379              	.LBB296:
 407:lvgl/lvgl/src/draw/lv_draw_rect.c ****     if(i <= min) return dsc->bg_color;
 5380              		.loc 1 407 5 view .LVU1895
 407:lvgl/lvgl/src/draw/lv_draw_rect.c ****     if(i <= min) return dsc->bg_color;
 5381              		.loc 1 407 23 is_stmt 0 view .LVU1896
 5382 0478 357A     		ldrb	r5, [r6, #8]	@ zero_extendqisi2
 5383              	.LVL535:
 407:lvgl/lvgl/src/draw/lv_draw_rect.c ****     if(i <= min) return dsc->bg_color;
 5384              		.loc 1 407 44 view .LVU1897
 5385 047a 0A99     		ldr	r1, [sp, #40]
 5386 047c 01FB05F4 		mul	r4, r1, r5
 407:lvgl/lvgl/src/draw/lv_draw_rect.c ****     if(i <= min) return dsc->bg_color;
 5387              		.loc 1 407 13 view .LVU1898
 5388 0480 2012     		asrs	r0, r4, #8
 5389              	.LVL536:
 408:lvgl/lvgl/src/draw/lv_draw_rect.c **** 
 5390              		.loc 1 408 5 is_stmt 1 view .LVU1899
 408:lvgl/lvgl/src/draw/lv_draw_rect.c **** 
 5391              		.loc 1 408 7 is_stmt 0 view .LVU1900
 5392 0482 B3EB242F 		cmp	r3, r4, asr #8
 5393 0486 3EDD     		ble	.L310
 410:lvgl/lvgl/src/draw/lv_draw_rect.c ****     if(i >= max) return dsc->bg_grad_color;
 5394              		.loc 1 410 5 is_stmt 1 view .LVU1901
 410:lvgl/lvgl/src/draw/lv_draw_rect.c ****     if(i >= max) return dsc->bg_grad_color;
 5395              		.loc 1 410 23 is_stmt 0 view .LVU1902
 5396 0488 717A     		ldrb	r1, [r6, #9]	@ zero_extendqisi2
 410:lvgl/lvgl/src/draw/lv_draw_rect.c ****     if(i >= max) return dsc->bg_grad_color;
 5397              		.loc 1 410 44 view .LVU1903
 5398 048a 0A9C     		ldr	r4, [sp, #40]
 5399 048c 01FB04F4 		mul	r4, r1, r4
 5400              	.LVL537:
 411:lvgl/lvgl/src/draw/lv_draw_rect.c **** 
 5401              		.loc 1 411 5 is_stmt 1 view .LVU1904
 411:lvgl/lvgl/src/draw/lv_draw_rect.c **** 
 5402              		.loc 1 411 7 is_stmt 0 view .LVU1905
ARM GAS  C:\Users\gx\AppData\Local\Temp\ccP7i1j8.s 			page 161


 5403 0490 B3EB242F 		cmp	r3, r4, asr #8
 5404 0494 39DA     		bge	.L311
 413:lvgl/lvgl/src/draw/lv_draw_rect.c ****     d = (s * d) >> 8;
 5405              		.loc 1 413 5 is_stmt 1 view .LVU1906
 413:lvgl/lvgl/src/draw/lv_draw_rect.c ****     d = (s * d) >> 8;
 5406              		.loc 1 413 13 is_stmt 0 view .LVU1907
 5407 0496 4B1B     		subs	r3, r1, r5
 5408              	.LVL538:
 414:lvgl/lvgl/src/draw/lv_draw_rect.c ****     i -= min;
 5409              		.loc 1 414 5 is_stmt 1 view .LVU1908
 414:lvgl/lvgl/src/draw/lv_draw_rect.c ****     i -= min;
 5410              		.loc 1 414 12 is_stmt 0 view .LVU1909
 5411 0498 0A99     		ldr	r1, [sp, #40]
 5412 049a 03FB01F3 		mul	r3, r3, r1
 5413              	.LVL539:
 414:lvgl/lvgl/src/draw/lv_draw_rect.c ****     i -= min;
 5414              		.loc 1 414 7 view .LVU1910
 5415 049e 1B12     		asrs	r3, r3, #8
 5416              	.LVL540:
 415:lvgl/lvgl/src/draw/lv_draw_rect.c ****     lv_opa_t mix = (i * 255) / d;
 5417              		.loc 1 415 5 is_stmt 1 view .LVU1911
 415:lvgl/lvgl/src/draw/lv_draw_rect.c ****     lv_opa_t mix = (i * 255) / d;
 5418              		.loc 1 415 7 is_stmt 0 view .LVU1912
 5419 04a0 121A     		subs	r2, r2, r0
 5420              	.LVL541:
 415:lvgl/lvgl/src/draw/lv_draw_rect.c ****     lv_opa_t mix = (i * 255) / d;
 5421              		.loc 1 415 7 view .LVU1913
 5422 04a2 12B2     		sxth	r2, r2
 5423              	.LVL542:
 416:lvgl/lvgl/src/draw/lv_draw_rect.c ****     return lv_color_mix(dsc->bg_grad_color, dsc->bg_color, mix);
 5424              		.loc 1 416 5 is_stmt 1 view .LVU1914
 416:lvgl/lvgl/src/draw/lv_draw_rect.c ****     return lv_color_mix(dsc->bg_grad_color, dsc->bg_color, mix);
 5425              		.loc 1 416 23 is_stmt 0 view .LVU1915
 5426 04a4 C2EB0222 		rsb	r2, r2, r2, lsl #8
 5427              	.LVL543:
 416:lvgl/lvgl/src/draw/lv_draw_rect.c ****     return lv_color_mix(dsc->bg_grad_color, dsc->bg_color, mix);
 5428              		.loc 1 416 30 view .LVU1916
 5429 04a8 92FBF3F3 		sdiv	r3, r2, r3
 5430              	.LVL544:
 417:lvgl/lvgl/src/draw/lv_draw_rect.c **** }
 5431              		.loc 1 417 5 is_stmt 1 view .LVU1917
 5432              	.LBB297:
 5433              	.LBI297:
 459:lvgl/lvgl/src/draw/../misc/lv_color.h **** {
 5434              		.loc 3 459 48 view .LVU1918
 5435              	.LBB298:
 461:lvgl/lvgl/src/draw/../misc/lv_color.h **** 
 5436              		.loc 3 461 5 view .LVU1919
 465:lvgl/lvgl/src/draw/../misc/lv_color.h ****     uint32_t bg = (uint32_t)((uint32_t)c2.full | ((uint32_t)c2.full << 16)) & 0x7E0F81F; /*0b000001
 5437              		.loc 3 465 5 view .LVU1920
 465:lvgl/lvgl/src/draw/../misc/lv_color.h ****     uint32_t bg = (uint32_t)((uint32_t)c2.full | ((uint32_t)c2.full << 16)) & 0x7E0F81F; /*0b000001
 5438              		.loc 3 465 17 is_stmt 0 view .LVU1921
 5439 04ac DBB2     		uxtb	r3, r3
 465:lvgl/lvgl/src/draw/../misc/lv_color.h ****     uint32_t bg = (uint32_t)((uint32_t)c2.full | ((uint32_t)c2.full << 16)) & 0x7E0F81F; /*0b000001
 5440              		.loc 3 465 17 view .LVU1922
 5441 04ae 0433     		adds	r3, r3, #4
 5442              	.LVL545:
ARM GAS  C:\Users\gx\AppData\Local\Temp\ccP7i1j8.s 			page 162


 466:lvgl/lvgl/src/draw/../misc/lv_color.h ****     uint32_t fg = (uint32_t)((uint32_t)c1.full | (uint32_t)(c1.full << 16)) & 0x7E0F81F;
 5443              		.loc 3 466 5 is_stmt 1 view .LVU1923
 466:lvgl/lvgl/src/draw/../misc/lv_color.h ****     uint32_t fg = (uint32_t)((uint32_t)c1.full | (uint32_t)(c1.full << 16)) & 0x7E0F81F;
 5444              		.loc 3 466 42 is_stmt 0 view .LVU1924
 5445 04b0 B288     		ldrh	r2, [r6, #4]
 466:lvgl/lvgl/src/draw/../misc/lv_color.h ****     uint32_t fg = (uint32_t)((uint32_t)c1.full | (uint32_t)(c1.full << 16)) & 0x7E0F81F;
 5446              		.loc 3 466 19 view .LVU1925
 5447 04b2 42EA0242 		orr	r2, r2, r2, lsl #16
 466:lvgl/lvgl/src/draw/../misc/lv_color.h ****     uint32_t fg = (uint32_t)((uint32_t)c1.full | (uint32_t)(c1.full << 16)) & 0x7E0F81F;
 5448              		.loc 3 466 14 view .LVU1926
 5449 04b6 6A48     		ldr	r0, .L320
 5450              	.LVL546:
 466:lvgl/lvgl/src/draw/../misc/lv_color.h ****     uint32_t fg = (uint32_t)((uint32_t)c1.full | (uint32_t)(c1.full << 16)) & 0x7E0F81F;
 5451              		.loc 3 466 14 view .LVU1927
 5452 04b8 0240     		ands	r2, r2, r0
 5453              	.LVL547:
 467:lvgl/lvgl/src/draw/../misc/lv_color.h ****     uint32_t result = ((((fg - bg) * mix) >> 5) + bg) & 0x7E0F81F;
 5454              		.loc 3 467 5 is_stmt 1 view .LVU1928
 467:lvgl/lvgl/src/draw/../misc/lv_color.h ****     uint32_t result = ((((fg - bg) * mix) >> 5) + bg) & 0x7E0F81F;
 5455              		.loc 3 467 42 is_stmt 0 view .LVU1929
 5456 04ba F188     		ldrh	r1, [r6, #6]
 5457              	.LVL548:
 467:lvgl/lvgl/src/draw/../misc/lv_color.h ****     uint32_t result = ((((fg - bg) * mix) >> 5) + bg) & 0x7E0F81F;
 5458              		.loc 3 467 19 view .LVU1930
 5459 04bc 41EA0141 		orr	r1, r1, r1, lsl #16
 467:lvgl/lvgl/src/draw/../misc/lv_color.h ****     uint32_t result = ((((fg - bg) * mix) >> 5) + bg) & 0x7E0F81F;
 5460              		.loc 3 467 14 view .LVU1931
 5461 04c0 0140     		ands	r1, r1, r0
 5462              	.LVL549:
 468:lvgl/lvgl/src/draw/../misc/lv_color.h ****     ret.full = (uint16_t)((result >> 16) | result);
 5463              		.loc 3 468 5 is_stmt 1 view .LVU1932
 468:lvgl/lvgl/src/draw/../misc/lv_color.h ****     ret.full = (uint16_t)((result >> 16) | result);
 5464              		.loc 3 468 30 is_stmt 0 view .LVU1933
 5465 04c2 891A     		subs	r1, r1, r2
 5466              	.LVL550:
 468:lvgl/lvgl/src/draw/../misc/lv_color.h ****     ret.full = (uint16_t)((result >> 16) | result);
 5467              		.loc 3 468 36 view .LVU1934
 5468 04c4 DB08     		lsrs	r3, r3, #3
 5469              	.LVL551:
 468:lvgl/lvgl/src/draw/../misc/lv_color.h ****     ret.full = (uint16_t)((result >> 16) | result);
 5470              		.loc 3 468 36 view .LVU1935
 5471 04c6 01FB03F3 		mul	r3, r1, r3
 468:lvgl/lvgl/src/draw/../misc/lv_color.h ****     ret.full = (uint16_t)((result >> 16) | result);
 5472              		.loc 3 468 49 view .LVU1936
 5473 04ca 02EB5312 		add	r2, r2, r3, lsr #5
 5474              	.LVL552:
 468:lvgl/lvgl/src/draw/../misc/lv_color.h ****     ret.full = (uint16_t)((result >> 16) | result);
 5475              		.loc 3 468 14 view .LVU1937
 5476 04ce 0240     		ands	r2, r2, r0
 5477              	.LVL553:
 469:lvgl/lvgl/src/draw/../misc/lv_color.h **** #elif LV_COLOR_DEPTH != 1
 5478              		.loc 3 469 5 is_stmt 1 view .LVU1938
 5479              		.loc 3 484 5 view .LVU1939
 5480 04d0 42EA1242 		orr	r2, r2, r2, lsr #16
 5481              	.LVL554:
 5482              	.L271:
 5483              		.loc 3 484 5 is_stmt 0 view .LVU1940
ARM GAS  C:\Users\gx\AppData\Local\Temp\ccP7i1j8.s 			page 163


 5484              	.LBE298:
 5485              	.LBE297:
 5486              	.LBE296:
 5487              	.LBE295:
 259:lvgl/lvgl/src/draw/lv_draw_rect.c ****             }
 5488              		.loc 1 259 17 is_stmt 1 view .LVU1941
 5489 04d4 B378     		ldrb	r3, [r6, #2]	@ zero_extendqisi2
 5490 04d6 0293     		str	r3, [sp, #8]
 5491 04d8 FF23     		movs	r3, #255
 5492 04da 0193     		str	r3, [sp, #4]
 5493 04dc 069B     		ldr	r3, [sp, #24]
 5494 04de 0093     		str	r3, [sp]
 5495 04e0 4B46     		mov	r3, r9
 5496 04e2 0CA9     		add	r1, sp, #48
 5497 04e4 0598     		ldr	r0, [sp, #20]
 5498 04e6 FFF7FEFF 		bl	_lv_blend_fill
 5499              	.LVL555:
 259:lvgl/lvgl/src/draw/lv_draw_rect.c ****             }
 5500              		.loc 1 259 17 is_stmt 0 view .LVU1942
 5501 04ea 77E7     		b	.L261
 5502              	.LVL556:
 5503              	.L309:
 259:lvgl/lvgl/src/draw/lv_draw_rect.c ****             }
 5504              		.loc 1 259 17 view .LVU1943
 5505              	.LBE294:
 255:lvgl/lvgl/src/draw/lv_draw_rect.c ****             }
 5506              		.loc 1 255 17 is_stmt 1 view .LVU1944
 5507 04ec B378     		ldrb	r3, [r6, #2]	@ zero_extendqisi2
 5508 04ee 0293     		str	r3, [sp, #8]
 5509 04f0 FF23     		movs	r3, #255
 5510 04f2 0193     		str	r3, [sp, #4]
 5511 04f4 069B     		ldr	r3, [sp, #24]
 5512 04f6 0093     		str	r3, [sp]
 5513 04f8 4B46     		mov	r3, r9
 5514 04fa 099A     		ldr	r2, [sp, #36]
 5515 04fc 0CA9     		add	r1, sp, #48
 5516 04fe 0598     		ldr	r0, [sp, #20]
 5517 0500 FFF7FEFF 		bl	_lv_blend_map
 5518              	.LVL557:
 5519 0504 6AE7     		b	.L261
 5520              	.LVL558:
 5521              	.L310:
 5522              	.LBB301:
 5523              	.LBB300:
 5524              	.LBB299:
 408:lvgl/lvgl/src/draw/lv_draw_rect.c **** 
 5525              		.loc 1 408 18 view .LVU1945
 408:lvgl/lvgl/src/draw/lv_draw_rect.c **** 
 5526              		.loc 1 408 28 is_stmt 0 view .LVU1946
 5527 0506 B288     		ldrh	r2, [r6, #4]
 5528 0508 E4E7     		b	.L271
 5529              	.LVL559:
 5530              	.L311:
 411:lvgl/lvgl/src/draw/lv_draw_rect.c **** 
 5531              		.loc 1 411 18 is_stmt 1 view .LVU1947
 411:lvgl/lvgl/src/draw/lv_draw_rect.c **** 
 5532              		.loc 1 411 28 is_stmt 0 view .LVU1948
ARM GAS  C:\Users\gx\AppData\Local\Temp\ccP7i1j8.s 			page 164


 5533 050a F288     		ldrh	r2, [r6, #6]
 5534 050c E2E7     		b	.L271
 5535              	.LVL560:
 5536              	.L304:
 411:lvgl/lvgl/src/draw/lv_draw_rect.c **** 
 5537              		.loc 1 411 28 view .LVU1949
 5538 050e DDF820B0 		ldr	fp, [sp, #32]
 5539              	.LBE299:
 5540              	.LBE300:
 5541              	.LBE301:
 5542              	.LBE302:
 267:lvgl/lvgl/src/draw/lv_draw_rect.c ****         blend_area.y1 = coords_bg.y1 + rout;
 5543              		.loc 1 267 5 is_stmt 1 discriminator 1 view .LVU1950
 267:lvgl/lvgl/src/draw/lv_draw_rect.c ****         blend_area.y1 = coords_bg.y1 + rout;
 5544              		.loc 1 267 18 is_stmt 0 discriminator 1 view .LVU1951
 5545 0512 5FB1     		cbz	r7, .L312
 5546              	.LBB303:
 274:lvgl/lvgl/src/draw/lv_draw_rect.c ****         int32_t h_end = coords_bg.y2 - rout;
 5547              		.loc 1 274 9 is_stmt 1 view .LVU1952
 5548              	.LVL561:
 275:lvgl/lvgl/src/draw/lv_draw_rect.c ****         for(h = coords_bg.y1 + rout; h <= h_end; h++) {
 5549              		.loc 1 275 9 view .LVU1953
 275:lvgl/lvgl/src/draw/lv_draw_rect.c ****         for(h = coords_bg.y1 + rout; h <= h_end; h++) {
 5550              		.loc 1 275 34 is_stmt 0 view .LVU1954
 5551 0514 BDF95E40 		ldrsh	r4, [sp, #94]
 275:lvgl/lvgl/src/draw/lv_draw_rect.c ****         for(h = coords_bg.y1 + rout; h <= h_end; h++) {
 5552              		.loc 1 275 17 view .LVU1955
 5553 0518 049B     		ldr	r3, [sp, #16]
 5554 051a E41A     		subs	r4, r4, r3
 5555              	.LVL562:
 276:lvgl/lvgl/src/draw/lv_draw_rect.c ****             /*If there is no other mask do not apply mask as in the center there is no radius to ma
 5556              		.loc 1 276 9 is_stmt 1 view .LVU1956
 276:lvgl/lvgl/src/draw/lv_draw_rect.c ****             /*If there is no other mask do not apply mask as in the center there is no radius to ma
 5557              		.loc 1 276 26 is_stmt 0 view .LVU1957
 5558 051c BDF95A50 		ldrsh	r5, [sp, #90]
 276:lvgl/lvgl/src/draw/lv_draw_rect.c ****             /*If there is no other mask do not apply mask as in the center there is no radius to ma
 5559              		.loc 1 276 15 view .LVU1958
 5560 0520 1D44     		add	r5, r5, r3
 5561              	.LVL563:
 276:lvgl/lvgl/src/draw/lv_draw_rect.c ****             /*If there is no other mask do not apply mask as in the center there is no radius to ma
 5562              		.loc 1 276 15 view .LVU1959
 5563 0522 DDF828A0 		ldr	r10, [sp, #40]
 5564              	.LVL564:
 276:lvgl/lvgl/src/draw/lv_draw_rect.c ****             /*If there is no other mask do not apply mask as in the center there is no radius to ma
 5565              		.loc 1 276 15 view .LVU1960
 5566 0526 DDF81480 		ldr	r8, [sp, #20]
 276:lvgl/lvgl/src/draw/lv_draw_rect.c ****             /*If there is no other mask do not apply mask as in the center there is no radius to ma
 5567              		.loc 1 276 9 view .LVU1961
 5568 052a 36E0     		b	.L275
 5569              	.LVL565:
 5570              	.L312:
 276:lvgl/lvgl/src/draw/lv_draw_rect.c ****             /*If there is no other mask do not apply mask as in the center there is no radius to ma
 5571              		.loc 1 276 9 view .LVU1962
 5572              	.LBE303:
 268:lvgl/lvgl/src/draw/lv_draw_rect.c ****         blend_area.y2 = coords_bg.y2 - rout;
 5573              		.loc 1 268 9 is_stmt 1 view .LVU1963
 268:lvgl/lvgl/src/draw/lv_draw_rect.c ****         blend_area.y2 = coords_bg.y2 - rout;
ARM GAS  C:\Users\gx\AppData\Local\Temp\ccP7i1j8.s 			page 165


 5574              		.loc 1 268 34 is_stmt 0 view .LVU1964
 5575 052c BDF85A20 		ldrh	r2, [sp, #90]
 268:lvgl/lvgl/src/draw/lv_draw_rect.c ****         blend_area.y2 = coords_bg.y2 - rout;
 5576              		.loc 1 268 38 view .LVU1965
 5577 0530 BDF81010 		ldrh	r1, [sp, #16]
 5578 0534 0A44     		add	r2, r2, r1
 268:lvgl/lvgl/src/draw/lv_draw_rect.c ****         blend_area.y2 = coords_bg.y2 - rout;
 5579              		.loc 1 268 23 view .LVU1966
 5580 0536 ADF83220 		strh	r2, [sp, #50]	@ movhi
 269:lvgl/lvgl/src/draw/lv_draw_rect.c ****         _lv_blend_fill(clip_area, &blend_area, dsc->bg_color, mask_buf, LV_DRAW_MASK_RES_FULL_COVER
 5581              		.loc 1 269 9 is_stmt 1 view .LVU1967
 269:lvgl/lvgl/src/draw/lv_draw_rect.c ****         _lv_blend_fill(clip_area, &blend_area, dsc->bg_color, mask_buf, LV_DRAW_MASK_RES_FULL_COVER
 5582              		.loc 1 269 34 is_stmt 0 view .LVU1968
 5583 053a BDF85E30 		ldrh	r3, [sp, #94]
 269:lvgl/lvgl/src/draw/lv_draw_rect.c ****         _lv_blend_fill(clip_area, &blend_area, dsc->bg_color, mask_buf, LV_DRAW_MASK_RES_FULL_COVER
 5584              		.loc 1 269 38 view .LVU1969
 5585 053e 5B1A     		subs	r3, r3, r1
 269:lvgl/lvgl/src/draw/lv_draw_rect.c ****         _lv_blend_fill(clip_area, &blend_area, dsc->bg_color, mask_buf, LV_DRAW_MASK_RES_FULL_COVER
 5586              		.loc 1 269 23 view .LVU1970
 5587 0540 ADF83630 		strh	r3, [sp, #54]	@ movhi
 270:lvgl/lvgl/src/draw/lv_draw_rect.c ****     }
 5588              		.loc 1 270 9 is_stmt 1 view .LVU1971
 5589 0544 B378     		ldrb	r3, [r6, #2]	@ zero_extendqisi2
 5590 0546 0293     		str	r3, [sp, #8]
 5591 0548 CDF804B0 		str	fp, [sp, #4]
 5592 054c 0123     		movs	r3, #1
 5593 054e 0093     		str	r3, [sp]
 5594 0550 4B46     		mov	r3, r9
 5595 0552 B288     		ldrh	r2, [r6, #4]
 5596 0554 0CA9     		add	r1, sp, #48
 5597 0556 0598     		ldr	r0, [sp, #20]
 5598 0558 FFF7FEFF 		bl	_lv_blend_fill
 5599              	.LVL566:
 5600              	.L259:
 300:lvgl/lvgl/src/draw/lv_draw_rect.c ****     if(mask_buf) lv_mem_buf_release(mask_buf);
 5601              		.loc 1 300 5 view .LVU1972
 300:lvgl/lvgl/src/draw/lv_draw_rect.c ****     if(mask_buf) lv_mem_buf_release(mask_buf);
 5602              		.loc 1 300 7 is_stmt 0 view .LVU1973
 5603 055c 099B     		ldr	r3, [sp, #36]
 5604 055e 13B1     		cbz	r3, .L283
 300:lvgl/lvgl/src/draw/lv_draw_rect.c ****     if(mask_buf) lv_mem_buf_release(mask_buf);
 5605              		.loc 1 300 18 is_stmt 1 discriminator 1 view .LVU1974
 5606 0560 1846     		mov	r0, r3
 5607 0562 FFF7FEFF 		bl	lv_mem_buf_release
 5608              	.LVL567:
 5609              	.L283:
 301:lvgl/lvgl/src/draw/lv_draw_rect.c ****     if(mask_rout_id != LV_MASK_ID_INV) {
 5610              		.loc 1 301 5 view .LVU1975
 301:lvgl/lvgl/src/draw/lv_draw_rect.c ****     if(mask_rout_id != LV_MASK_ID_INV) {
 5611              		.loc 1 301 7 is_stmt 0 view .LVU1976
 5612 0566 B9F1000F 		cmp	r9, #0
 5613 056a 02D0     		beq	.L284
 301:lvgl/lvgl/src/draw/lv_draw_rect.c ****     if(mask_rout_id != LV_MASK_ID_INV) {
 5614              		.loc 1 301 18 is_stmt 1 discriminator 1 view .LVU1977
 5615 056c 4846     		mov	r0, r9
 5616 056e FFF7FEFF 		bl	lv_mem_buf_release
 5617              	.LVL568:
ARM GAS  C:\Users\gx\AppData\Local\Temp\ccP7i1j8.s 			page 166


 5618              	.L284:
 302:lvgl/lvgl/src/draw/lv_draw_rect.c ****         lv_draw_mask_remove_id(mask_rout_id);
 5619              		.loc 1 302 5 view .LVU1978
 302:lvgl/lvgl/src/draw/lv_draw_rect.c ****         lv_draw_mask_remove_id(mask_rout_id);
 5620              		.loc 1 302 7 is_stmt 0 view .LVU1979
 5621 0572 0B98     		ldr	r0, [sp, #44]
 5622 0574 B0F1FF3F 		cmp	r0, #-1
 5623 0578 6CD1     		bne	.L313
 5624              	.LVL569:
 5625              	.L236:
 308:lvgl/lvgl/src/draw/lv_draw_rect.c **** 
 5626              		.loc 1 308 1 view .LVU1980
 5627 057a 19B0     		add	sp, sp, #100
 5628              	.LCFI21:
 5629              		.cfi_remember_state
 5630              		.cfi_def_cfa_offset 36
 5631              		@ sp needed
 5632 057c BDE8F08F 		pop	{r4, r5, r6, r7, r8, r9, r10, fp, pc}
 5633              	.LVL570:
 5634              	.L314:
 5635              	.LCFI22:
 5636              		.cfi_restore_state
 5637              	.LBB312:
 286:lvgl/lvgl/src/draw/lv_draw_rect.c ****             }
 5638              		.loc 1 286 18 is_stmt 1 view .LVU1981
 5639 0580 B378     		ldrb	r3, [r6, #2]	@ zero_extendqisi2
 5640 0582 0293     		str	r3, [sp, #8]
 5641 0584 CDF804B0 		str	fp, [sp, #4]
 5642 0588 0123     		movs	r3, #1
 5643 058a 0093     		str	r3, [sp]
 5644 058c 4B46     		mov	r3, r9
 5645 058e B288     		ldrh	r2, [r6, #4]
 5646 0590 0CA9     		add	r1, sp, #48
 5647 0592 4046     		mov	r0, r8
 5648 0594 FFF7FEFF 		bl	_lv_blend_fill
 5649              	.LVL571:
 5650              	.L277:
 276:lvgl/lvgl/src/draw/lv_draw_rect.c ****             /*If there is no other mask do not apply mask as in the center there is no radius to ma
 5651              		.loc 1 276 50 discriminator 2 view .LVU1982
 276:lvgl/lvgl/src/draw/lv_draw_rect.c ****             /*If there is no other mask do not apply mask as in the center there is no radius to ma
 5652              		.loc 1 276 51 is_stmt 0 discriminator 2 view .LVU1983
 5653 0598 0135     		adds	r5, r5, #1
 5654              	.LVL572:
 5655              	.L275:
 276:lvgl/lvgl/src/draw/lv_draw_rect.c ****             /*If there is no other mask do not apply mask as in the center there is no radius to ma
 5656              		.loc 1 276 38 is_stmt 1 discriminator 1 view .LVU1984
 276:lvgl/lvgl/src/draw/lv_draw_rect.c ****             /*If there is no other mask do not apply mask as in the center there is no radius to ma
 5657              		.loc 1 276 9 is_stmt 0 discriminator 1 view .LVU1985
 5658 059a A542     		cmp	r5, r4
 5659 059c DEDC     		bgt	.L259
 278:lvgl/lvgl/src/draw/lv_draw_rect.c ****                 lv_memset_ff(mask_buf, draw_area_w);
 5660              		.loc 1 278 13 is_stmt 1 view .LVU1986
 283:lvgl/lvgl/src/draw/lv_draw_rect.c ****             blend_area.y2 = h;
 5661              		.loc 1 283 13 view .LVU1987
 283:lvgl/lvgl/src/draw/lv_draw_rect.c ****             blend_area.y2 = h;
 5662              		.loc 1 283 27 is_stmt 0 view .LVU1988
 5663 059e 2BB2     		sxth	r3, r5
ARM GAS  C:\Users\gx\AppData\Local\Temp\ccP7i1j8.s 			page 167


 5664 05a0 ADF83230 		strh	r3, [sp, #50]	@ movhi
 284:lvgl/lvgl/src/draw/lv_draw_rect.c ****             if(grad_dir == LV_GRAD_DIR_NONE) {
 5665              		.loc 1 284 13 is_stmt 1 view .LVU1989
 284:lvgl/lvgl/src/draw/lv_draw_rect.c ****             if(grad_dir == LV_GRAD_DIR_NONE) {
 5666              		.loc 1 284 27 is_stmt 0 view .LVU1990
 5667 05a4 ADF83630 		strh	r3, [sp, #54]	@ movhi
 285:lvgl/lvgl/src/draw/lv_draw_rect.c ****                  _lv_blend_fill(clip_area, &blend_area, dsc->bg_color, mask_buf, mask_res, opa, dsc
 5668              		.loc 1 285 13 is_stmt 1 view .LVU1991
 285:lvgl/lvgl/src/draw/lv_draw_rect.c ****                  _lv_blend_fill(clip_area, &blend_area, dsc->bg_color, mask_buf, mask_res, opa, dsc
 5669              		.loc 1 285 15 is_stmt 0 view .LVU1992
 5670 05a8 002F     		cmp	r7, #0
 5671 05aa E9D0     		beq	.L314
 288:lvgl/lvgl/src/draw/lv_draw_rect.c ****                 _lv_blend_map(clip_area, &blend_area, grad_map, mask_buf, mask_res, opa, dsc->blend
 5672              		.loc 1 288 18 is_stmt 1 view .LVU1993
 288:lvgl/lvgl/src/draw/lv_draw_rect.c ****                 _lv_blend_map(clip_area, &blend_area, grad_map, mask_buf, mask_res, opa, dsc->blend
 5673              		.loc 1 288 20 is_stmt 0 view .LVU1994
 5674 05ac 022F     		cmp	r7, #2
 5675 05ae 40D0     		beq	.L315
 291:lvgl/lvgl/src/draw/lv_draw_rect.c ****                 lv_color_t c = grad_get(dsc, coords_h, h - coords_bg.y1);
 5676              		.loc 1 291 18 is_stmt 1 view .LVU1995
 291:lvgl/lvgl/src/draw/lv_draw_rect.c ****                 lv_color_t c = grad_get(dsc, coords_h, h - coords_bg.y1);
 5677              		.loc 1 291 20 is_stmt 0 view .LVU1996
 5678 05b0 012F     		cmp	r7, #1
 5679 05b2 F1D1     		bne	.L277
 5680              	.LBB304:
 292:lvgl/lvgl/src/draw/lv_draw_rect.c ****                 _lv_blend_fill(clip_area, &blend_area, c, mask_buf, mask_res, opa, dsc->blend_mode)
 5681              		.loc 1 292 17 is_stmt 1 view .LVU1997
 292:lvgl/lvgl/src/draw/lv_draw_rect.c ****                 _lv_blend_fill(clip_area, &blend_area, c, mask_buf, mask_res, opa, dsc->blend_mode)
 5682              		.loc 1 292 69 is_stmt 0 view .LVU1998
 5683 05b4 BDF85A20 		ldrh	r2, [sp, #90]
 292:lvgl/lvgl/src/draw/lv_draw_rect.c ****                 _lv_blend_fill(clip_area, &blend_area, c, mask_buf, mask_res, opa, dsc->blend_mode)
 5684              		.loc 1 292 58 view .LVU1999
 5685 05b8 AA1A     		subs	r2, r5, r2
 5686 05ba 93B2     		uxth	r3, r2
 292:lvgl/lvgl/src/draw/lv_draw_rect.c ****                 _lv_blend_fill(clip_area, &blend_area, c, mask_buf, mask_res, opa, dsc->blend_mode)
 5687              		.loc 1 292 32 view .LVU2000
 5688 05bc 12B2     		sxth	r2, r2
 5689              	.LVL573:
 5690              	.LBB305:
 5691              	.LBI305:
 405:lvgl/lvgl/src/draw/lv_draw_rect.c **** {
 5692              		.loc 1 405 48 is_stmt 1 view .LVU2001
 5693              	.LBB306:
 407:lvgl/lvgl/src/draw/lv_draw_rect.c ****     if(i <= min) return dsc->bg_color;
 5694              		.loc 1 407 5 view .LVU2002
 407:lvgl/lvgl/src/draw/lv_draw_rect.c ****     if(i <= min) return dsc->bg_color;
 5695              		.loc 1 407 23 is_stmt 0 view .LVU2003
 5696 05be 96F808E0 		ldrb	lr, [r6, #8]	@ zero_extendqisi2
 407:lvgl/lvgl/src/draw/lv_draw_rect.c ****     if(i <= min) return dsc->bg_color;
 5697              		.loc 1 407 44 view .LVU2004
 5698 05c2 0AFB0EFC 		mul	ip, r10, lr
 407:lvgl/lvgl/src/draw/lv_draw_rect.c ****     if(i <= min) return dsc->bg_color;
 5699              		.loc 1 407 13 view .LVU2005
 5700 05c6 4FEA2C20 		asr	r0, ip, #8
 5701              	.LVL574:
 408:lvgl/lvgl/src/draw/lv_draw_rect.c **** 
 5702              		.loc 1 408 5 is_stmt 1 view .LVU2006
ARM GAS  C:\Users\gx\AppData\Local\Temp\ccP7i1j8.s 			page 168


 408:lvgl/lvgl/src/draw/lv_draw_rect.c **** 
 5703              		.loc 1 408 7 is_stmt 0 view .LVU2007
 5704 05ca B2EB2C2F 		cmp	r2, ip, asr #8
 5705 05ce 3DDD     		ble	.L316
 410:lvgl/lvgl/src/draw/lv_draw_rect.c ****     if(i >= max) return dsc->bg_grad_color;
 5706              		.loc 1 410 5 is_stmt 1 view .LVU2008
 410:lvgl/lvgl/src/draw/lv_draw_rect.c ****     if(i >= max) return dsc->bg_grad_color;
 5707              		.loc 1 410 23 is_stmt 0 view .LVU2009
 5708 05d0 717A     		ldrb	r1, [r6, #9]	@ zero_extendqisi2
 410:lvgl/lvgl/src/draw/lv_draw_rect.c ****     if(i >= max) return dsc->bg_grad_color;
 5709              		.loc 1 410 44 view .LVU2010
 5710 05d2 01FB0AFC 		mul	ip, r1, r10
 5711              	.LVL575:
 411:lvgl/lvgl/src/draw/lv_draw_rect.c **** 
 5712              		.loc 1 411 5 is_stmt 1 view .LVU2011
 411:lvgl/lvgl/src/draw/lv_draw_rect.c **** 
 5713              		.loc 1 411 7 is_stmt 0 view .LVU2012
 5714 05d6 B2EB2C2F 		cmp	r2, ip, asr #8
 5715 05da 39DA     		bge	.L317
 413:lvgl/lvgl/src/draw/lv_draw_rect.c ****     d = (s * d) >> 8;
 5716              		.loc 1 413 5 is_stmt 1 view .LVU2013
 413:lvgl/lvgl/src/draw/lv_draw_rect.c ****     d = (s * d) >> 8;
 5717              		.loc 1 413 13 is_stmt 0 view .LVU2014
 5718 05dc A1EB0E02 		sub	r2, r1, lr
 5719              	.LVL576:
 414:lvgl/lvgl/src/draw/lv_draw_rect.c ****     i -= min;
 5720              		.loc 1 414 5 is_stmt 1 view .LVU2015
 414:lvgl/lvgl/src/draw/lv_draw_rect.c ****     i -= min;
 5721              		.loc 1 414 12 is_stmt 0 view .LVU2016
 5722 05e0 02FB0AF2 		mul	r2, r2, r10
 5723              	.LVL577:
 414:lvgl/lvgl/src/draw/lv_draw_rect.c ****     i -= min;
 5724              		.loc 1 414 7 view .LVU2017
 5725 05e4 1212     		asrs	r2, r2, #8
 5726              	.LVL578:
 415:lvgl/lvgl/src/draw/lv_draw_rect.c ****     lv_opa_t mix = (i * 255) / d;
 5727              		.loc 1 415 5 is_stmt 1 view .LVU2018
 415:lvgl/lvgl/src/draw/lv_draw_rect.c ****     lv_opa_t mix = (i * 255) / d;
 5728              		.loc 1 415 7 is_stmt 0 view .LVU2019
 5729 05e6 1B1A     		subs	r3, r3, r0
 5730              	.LVL579:
 415:lvgl/lvgl/src/draw/lv_draw_rect.c ****     lv_opa_t mix = (i * 255) / d;
 5731              		.loc 1 415 7 view .LVU2020
 5732 05e8 1BB2     		sxth	r3, r3
 5733              	.LVL580:
 416:lvgl/lvgl/src/draw/lv_draw_rect.c ****     return lv_color_mix(dsc->bg_grad_color, dsc->bg_color, mix);
 5734              		.loc 1 416 5 is_stmt 1 view .LVU2021
 416:lvgl/lvgl/src/draw/lv_draw_rect.c ****     return lv_color_mix(dsc->bg_grad_color, dsc->bg_color, mix);
 5735              		.loc 1 416 23 is_stmt 0 view .LVU2022
 5736 05ea C3EB0323 		rsb	r3, r3, r3, lsl #8
 5737              	.LVL581:
 416:lvgl/lvgl/src/draw/lv_draw_rect.c ****     return lv_color_mix(dsc->bg_grad_color, dsc->bg_color, mix);
 5738              		.loc 1 416 30 view .LVU2023
 5739 05ee 93FBF2F3 		sdiv	r3, r3, r2
 5740              	.LVL582:
 417:lvgl/lvgl/src/draw/lv_draw_rect.c **** }
 5741              		.loc 1 417 5 is_stmt 1 view .LVU2024
ARM GAS  C:\Users\gx\AppData\Local\Temp\ccP7i1j8.s 			page 169


 5742              	.LBB307:
 5743              	.LBI307:
 459:lvgl/lvgl/src/draw/../misc/lv_color.h **** {
 5744              		.loc 3 459 48 view .LVU2025
 5745              	.LBB308:
 461:lvgl/lvgl/src/draw/../misc/lv_color.h **** 
 5746              		.loc 3 461 5 view .LVU2026
 465:lvgl/lvgl/src/draw/../misc/lv_color.h ****     uint32_t bg = (uint32_t)((uint32_t)c2.full | ((uint32_t)c2.full << 16)) & 0x7E0F81F; /*0b000001
 5747              		.loc 3 465 5 view .LVU2027
 465:lvgl/lvgl/src/draw/../misc/lv_color.h ****     uint32_t bg = (uint32_t)((uint32_t)c2.full | ((uint32_t)c2.full << 16)) & 0x7E0F81F; /*0b000001
 5748              		.loc 3 465 17 is_stmt 0 view .LVU2028
 5749 05f2 DBB2     		uxtb	r3, r3
 465:lvgl/lvgl/src/draw/../misc/lv_color.h ****     uint32_t bg = (uint32_t)((uint32_t)c2.full | ((uint32_t)c2.full << 16)) & 0x7E0F81F; /*0b000001
 5750              		.loc 3 465 17 view .LVU2029
 5751 05f4 0433     		adds	r3, r3, #4
 5752              	.LVL583:
 466:lvgl/lvgl/src/draw/../misc/lv_color.h ****     uint32_t fg = (uint32_t)((uint32_t)c1.full | (uint32_t)(c1.full << 16)) & 0x7E0F81F;
 5753              		.loc 3 466 5 is_stmt 1 view .LVU2030
 466:lvgl/lvgl/src/draw/../misc/lv_color.h ****     uint32_t fg = (uint32_t)((uint32_t)c1.full | (uint32_t)(c1.full << 16)) & 0x7E0F81F;
 5754              		.loc 3 466 42 is_stmt 0 view .LVU2031
 5755 05f6 B288     		ldrh	r2, [r6, #4]
 5756              	.LVL584:
 466:lvgl/lvgl/src/draw/../misc/lv_color.h ****     uint32_t fg = (uint32_t)((uint32_t)c1.full | (uint32_t)(c1.full << 16)) & 0x7E0F81F;
 5757              		.loc 3 466 19 view .LVU2032
 5758 05f8 42EA0242 		orr	r2, r2, r2, lsl #16
 466:lvgl/lvgl/src/draw/../misc/lv_color.h ****     uint32_t fg = (uint32_t)((uint32_t)c1.full | (uint32_t)(c1.full << 16)) & 0x7E0F81F;
 5759              		.loc 3 466 14 view .LVU2033
 5760 05fc 1848     		ldr	r0, .L320
 5761              	.LVL585:
 466:lvgl/lvgl/src/draw/../misc/lv_color.h ****     uint32_t fg = (uint32_t)((uint32_t)c1.full | (uint32_t)(c1.full << 16)) & 0x7E0F81F;
 5762              		.loc 3 466 14 view .LVU2034
 5763 05fe 0240     		ands	r2, r2, r0
 5764              	.LVL586:
 467:lvgl/lvgl/src/draw/../misc/lv_color.h ****     uint32_t result = ((((fg - bg) * mix) >> 5) + bg) & 0x7E0F81F;
 5765              		.loc 3 467 5 is_stmt 1 view .LVU2035
 467:lvgl/lvgl/src/draw/../misc/lv_color.h ****     uint32_t result = ((((fg - bg) * mix) >> 5) + bg) & 0x7E0F81F;
 5766              		.loc 3 467 42 is_stmt 0 view .LVU2036
 5767 0600 F188     		ldrh	r1, [r6, #6]
 5768              	.LVL587:
 467:lvgl/lvgl/src/draw/../misc/lv_color.h ****     uint32_t result = ((((fg - bg) * mix) >> 5) + bg) & 0x7E0F81F;
 5769              		.loc 3 467 19 view .LVU2037
 5770 0602 41EA0141 		orr	r1, r1, r1, lsl #16
 467:lvgl/lvgl/src/draw/../misc/lv_color.h ****     uint32_t result = ((((fg - bg) * mix) >> 5) + bg) & 0x7E0F81F;
 5771              		.loc 3 467 14 view .LVU2038
 5772 0606 0140     		ands	r1, r1, r0
 5773              	.LVL588:
 468:lvgl/lvgl/src/draw/../misc/lv_color.h ****     ret.full = (uint16_t)((result >> 16) | result);
 5774              		.loc 3 468 5 is_stmt 1 view .LVU2039
 468:lvgl/lvgl/src/draw/../misc/lv_color.h ****     ret.full = (uint16_t)((result >> 16) | result);
 5775              		.loc 3 468 30 is_stmt 0 view .LVU2040
 5776 0608 891A     		subs	r1, r1, r2
 5777              	.LVL589:
 468:lvgl/lvgl/src/draw/../misc/lv_color.h ****     ret.full = (uint16_t)((result >> 16) | result);
 5778              		.loc 3 468 36 view .LVU2041
 5779 060a DB08     		lsrs	r3, r3, #3
 5780              	.LVL590:
 468:lvgl/lvgl/src/draw/../misc/lv_color.h ****     ret.full = (uint16_t)((result >> 16) | result);
ARM GAS  C:\Users\gx\AppData\Local\Temp\ccP7i1j8.s 			page 170


 5781              		.loc 3 468 36 view .LVU2042
 5782 060c 01FB03F3 		mul	r3, r1, r3
 468:lvgl/lvgl/src/draw/../misc/lv_color.h ****     ret.full = (uint16_t)((result >> 16) | result);
 5783              		.loc 3 468 49 view .LVU2043
 5784 0610 02EB5312 		add	r2, r2, r3, lsr #5
 5785              	.LVL591:
 468:lvgl/lvgl/src/draw/../misc/lv_color.h ****     ret.full = (uint16_t)((result >> 16) | result);
 5786              		.loc 3 468 14 view .LVU2044
 5787 0614 0240     		ands	r2, r2, r0
 5788              	.LVL592:
 469:lvgl/lvgl/src/draw/../misc/lv_color.h **** #elif LV_COLOR_DEPTH != 1
 5789              		.loc 3 469 5 is_stmt 1 view .LVU2045
 5790              		.loc 3 484 5 view .LVU2046
 5791 0616 42EA1242 		orr	r2, r2, r2, lsr #16
 5792              	.LVL593:
 5793              	.L280:
 5794              		.loc 3 484 5 is_stmt 0 view .LVU2047
 5795              	.LBE308:
 5796              	.LBE307:
 5797              	.LBE306:
 5798              	.LBE305:
 293:lvgl/lvgl/src/draw/lv_draw_rect.c ****             }
 5799              		.loc 1 293 17 is_stmt 1 view .LVU2048
 5800 061a B378     		ldrb	r3, [r6, #2]	@ zero_extendqisi2
 5801 061c 0293     		str	r3, [sp, #8]
 5802 061e CDF804B0 		str	fp, [sp, #4]
 5803 0622 0123     		movs	r3, #1
 5804 0624 0093     		str	r3, [sp]
 5805 0626 4B46     		mov	r3, r9
 5806 0628 0CA9     		add	r1, sp, #48
 5807 062a 4046     		mov	r0, r8
 5808 062c FFF7FEFF 		bl	_lv_blend_fill
 5809              	.LVL594:
 5810 0630 B2E7     		b	.L277
 5811              	.L315:
 293:lvgl/lvgl/src/draw/lv_draw_rect.c ****             }
 5812              		.loc 1 293 17 is_stmt 0 view .LVU2049
 5813              	.LBE304:
 289:lvgl/lvgl/src/draw/lv_draw_rect.c ****             }
 5814              		.loc 1 289 17 is_stmt 1 view .LVU2050
 5815 0632 B378     		ldrb	r3, [r6, #2]	@ zero_extendqisi2
 5816 0634 0293     		str	r3, [sp, #8]
 5817 0636 CDF804B0 		str	fp, [sp, #4]
 5818 063a 0123     		movs	r3, #1
 5819 063c 0093     		str	r3, [sp]
 5820 063e 4B46     		mov	r3, r9
 5821 0640 099A     		ldr	r2, [sp, #36]
 5822 0642 0CA9     		add	r1, sp, #48
 5823 0644 4046     		mov	r0, r8
 5824 0646 FFF7FEFF 		bl	_lv_blend_map
 5825              	.LVL595:
 5826 064a A5E7     		b	.L277
 5827              	.LVL596:
 5828              	.L316:
 5829              	.LBB311:
 5830              	.LBB310:
 5831              	.LBB309:
ARM GAS  C:\Users\gx\AppData\Local\Temp\ccP7i1j8.s 			page 171


 408:lvgl/lvgl/src/draw/lv_draw_rect.c **** 
 5832              		.loc 1 408 18 view .LVU2051
 408:lvgl/lvgl/src/draw/lv_draw_rect.c **** 
 5833              		.loc 1 408 28 is_stmt 0 view .LVU2052
 5834 064c B288     		ldrh	r2, [r6, #4]
 5835              	.LVL597:
 408:lvgl/lvgl/src/draw/lv_draw_rect.c **** 
 5836              		.loc 1 408 28 view .LVU2053
 5837 064e E4E7     		b	.L280
 5838              	.LVL598:
 5839              	.L317:
 411:lvgl/lvgl/src/draw/lv_draw_rect.c **** 
 5840              		.loc 1 411 18 is_stmt 1 view .LVU2054
 411:lvgl/lvgl/src/draw/lv_draw_rect.c **** 
 5841              		.loc 1 411 28 is_stmt 0 view .LVU2055
 5842 0650 F288     		ldrh	r2, [r6, #6]
 5843              	.LVL599:
 411:lvgl/lvgl/src/draw/lv_draw_rect.c **** 
 5844              		.loc 1 411 28 view .LVU2056
 5845 0652 E2E7     		b	.L280
 5846              	.LVL600:
 5847              	.L313:
 411:lvgl/lvgl/src/draw/lv_draw_rect.c **** 
 5848              		.loc 1 411 28 view .LVU2057
 5849              	.LBE309:
 5850              	.LBE310:
 5851              	.LBE311:
 5852              	.LBE312:
 303:lvgl/lvgl/src/draw/lv_draw_rect.c ****         lv_draw_mask_free_param(&mask_rout_param);
 5853              		.loc 1 303 9 is_stmt 1 view .LVU2058
 5854 0654 FFF7FEFF 		bl	lv_draw_mask_remove_id
 5855              	.LVL601:
 304:lvgl/lvgl/src/draw/lv_draw_rect.c ****     }
 5856              		.loc 1 304 9 view .LVU2059
 5857 0658 0EA8     		add	r0, sp, #56
 5858 065a FFF7FEFF 		bl	lv_draw_mask_free_param
 5859              	.LVL602:
 5860 065e 8CE7     		b	.L236
 5861              	.L321:
 5862              		.align	2
 5863              	.L320:
 5864 0660 1FF8E007 		.word	132184095
 5865              		.cfi_endproc
 5866              	.LFE154:
 5868              		.section	.text.lv_draw_rect_dsc_init,"ax",%progbits
 5869              		.align	1
 5870              		.global	lv_draw_rect_dsc_init
 5871              		.syntax unified
 5872              		.thumb
 5873              		.thumb_func
 5874              		.fpu fpv4-sp-d16
 5876              	lv_draw_rect_dsc_init:
 5877              	.LVL603:
 5878              	.LFB152:
  76:lvgl/lvgl/src/draw/lv_draw_rect.c ****     lv_memset_00(dsc, sizeof(lv_draw_rect_dsc_t));
 5879              		.loc 1 76 1 view -0
 5880              		.cfi_startproc
ARM GAS  C:\Users\gx\AppData\Local\Temp\ccP7i1j8.s 			page 172


 5881              		@ args = 0, pretend = 0, frame = 0
 5882              		@ frame_needed = 0, uses_anonymous_args = 0
  76:lvgl/lvgl/src/draw/lv_draw_rect.c ****     lv_memset_00(dsc, sizeof(lv_draw_rect_dsc_t));
 5883              		.loc 1 76 1 is_stmt 0 view .LVU2061
 5884 0000 10B5     		push	{r4, lr}
 5885              	.LCFI23:
 5886              		.cfi_def_cfa_offset 8
 5887              		.cfi_offset 4, -8
 5888              		.cfi_offset 14, -4
 5889 0002 0446     		mov	r4, r0
  77:lvgl/lvgl/src/draw/lv_draw_rect.c ****     dsc->bg_color = lv_color_white();
 5890              		.loc 1 77 5 is_stmt 1 view .LVU2062
 5891 0004 3421     		movs	r1, #52
 5892 0006 FFF7FEFF 		bl	lv_memset_00
 5893              	.LVL604:
  78:lvgl/lvgl/src/draw/lv_draw_rect.c ****     dsc->bg_grad_color = lv_color_black();
 5894              		.loc 1 78 5 view .LVU2063
 5895              	.LBB313:
 5896              	.LBI313:
 485:lvgl/lvgl/src/draw/../misc/lv_color.h **** }
 486:lvgl/lvgl/src/draw/../misc/lv_color.h **** 
 487:lvgl/lvgl/src/draw/../misc/lv_color.h **** LV_ATTRIBUTE_FAST_MEM static inline void lv_color_premult(lv_color_t c, uint8_t mix, uint16_t * out
 488:lvgl/lvgl/src/draw/../misc/lv_color.h **** {
 489:lvgl/lvgl/src/draw/../misc/lv_color.h **** #if LV_COLOR_DEPTH != 1
 490:lvgl/lvgl/src/draw/../misc/lv_color.h ****     out[0] = (uint16_t) LV_COLOR_GET_R(c) * mix;
 491:lvgl/lvgl/src/draw/../misc/lv_color.h ****     out[1] = (uint16_t) LV_COLOR_GET_G(c) * mix;
 492:lvgl/lvgl/src/draw/../misc/lv_color.h ****     out[2] = (uint16_t) LV_COLOR_GET_B(c) * mix;
 493:lvgl/lvgl/src/draw/../misc/lv_color.h **** #else
 494:lvgl/lvgl/src/draw/../misc/lv_color.h ****     (void) mix;
 495:lvgl/lvgl/src/draw/../misc/lv_color.h ****     /*Pre-multiplication can't be used with 1 bpp*/
 496:lvgl/lvgl/src/draw/../misc/lv_color.h ****     out[0] = LV_COLOR_GET_R(c);
 497:lvgl/lvgl/src/draw/../misc/lv_color.h ****     out[1] = LV_COLOR_GET_G(c);
 498:lvgl/lvgl/src/draw/../misc/lv_color.h ****     out[2] = LV_COLOR_GET_B(c);
 499:lvgl/lvgl/src/draw/../misc/lv_color.h **** #endif
 500:lvgl/lvgl/src/draw/../misc/lv_color.h **** 
 501:lvgl/lvgl/src/draw/../misc/lv_color.h **** }
 502:lvgl/lvgl/src/draw/../misc/lv_color.h **** 
 503:lvgl/lvgl/src/draw/../misc/lv_color.h **** /**
 504:lvgl/lvgl/src/draw/../misc/lv_color.h ****  * Mix two colors with a given ratio. It runs faster then `lv_color_mix` but requires some pre comp
 505:lvgl/lvgl/src/draw/../misc/lv_color.h ****  * @param premult_c1 The first color. Should be preprocessed with `lv_color_premult(c1)`
 506:lvgl/lvgl/src/draw/../misc/lv_color.h ****  * @param c2 The second color. As it is no pre computation required on it
 507:lvgl/lvgl/src/draw/../misc/lv_color.h ****  * @param mix The ratio of the colors. 0: full `c1`, 255: full `c2`, 127: half `c1` and half `c2`.
 508:lvgl/lvgl/src/draw/../misc/lv_color.h ****  *            Should be modified like mix = `255 - mix`
 509:lvgl/lvgl/src/draw/../misc/lv_color.h ****  * @return the mixed color
 510:lvgl/lvgl/src/draw/../misc/lv_color.h ****  * @note 255 won't give clearly `c1`.
 511:lvgl/lvgl/src/draw/../misc/lv_color.h ****  */
 512:lvgl/lvgl/src/draw/../misc/lv_color.h **** LV_ATTRIBUTE_FAST_MEM static inline lv_color_t lv_color_mix_premult(uint16_t * premult_c1, lv_color
 513:lvgl/lvgl/src/draw/../misc/lv_color.h **** {
 514:lvgl/lvgl/src/draw/../misc/lv_color.h ****     lv_color_t ret;
 515:lvgl/lvgl/src/draw/../misc/lv_color.h **** #if LV_COLOR_DEPTH == 16 && LV_COLOR_16_SWAP == 0
 516:lvgl/lvgl/src/draw/../misc/lv_color.h ****     /*For compatibility with lv_color_mix on 16 bit color depth*/
 517:lvgl/lvgl/src/draw/../misc/lv_color.h ****     LV_COLOR_SET_R(ret, (premult_c1[0] + LV_COLOR_GET_R(c2) * mix) >> 8);
 518:lvgl/lvgl/src/draw/../misc/lv_color.h ****     LV_COLOR_SET_G(ret, (premult_c1[1] + LV_COLOR_GET_G(c2) * mix) >> 8);
 519:lvgl/lvgl/src/draw/../misc/lv_color.h ****     LV_COLOR_SET_B(ret, (premult_c1[2] + LV_COLOR_GET_B(c2) * mix) >> 8);
 520:lvgl/lvgl/src/draw/../misc/lv_color.h **** #elif LV_COLOR_DEPTH != 1
 521:lvgl/lvgl/src/draw/../misc/lv_color.h ****     /*LV_COLOR_DEPTH == 8 or 32*/
 522:lvgl/lvgl/src/draw/../misc/lv_color.h ****     LV_COLOR_SET_R(ret, LV_UDIV255(premult_c1[0] + LV_COLOR_GET_R(c2) * mix + LV_COLOR_MIX_ROUND_OF
ARM GAS  C:\Users\gx\AppData\Local\Temp\ccP7i1j8.s 			page 173


 523:lvgl/lvgl/src/draw/../misc/lv_color.h ****     LV_COLOR_SET_G(ret, LV_UDIV255(premult_c1[1] + LV_COLOR_GET_G(c2) * mix + LV_COLOR_MIX_ROUND_OF
 524:lvgl/lvgl/src/draw/../misc/lv_color.h ****     LV_COLOR_SET_B(ret, LV_UDIV255(premult_c1[2] + LV_COLOR_GET_B(c2) * mix + LV_COLOR_MIX_ROUND_OF
 525:lvgl/lvgl/src/draw/../misc/lv_color.h ****     LV_COLOR_SET_A(ret, 0xFF);
 526:lvgl/lvgl/src/draw/../misc/lv_color.h **** #else
 527:lvgl/lvgl/src/draw/../misc/lv_color.h ****     /*LV_COLOR_DEPTH == 1*/
 528:lvgl/lvgl/src/draw/../misc/lv_color.h ****     /*Restore color1*/
 529:lvgl/lvgl/src/draw/../misc/lv_color.h ****     lv_color_t c1;
 530:lvgl/lvgl/src/draw/../misc/lv_color.h ****     LV_COLOR_SET_R(c1, premult_c1[0]);
 531:lvgl/lvgl/src/draw/../misc/lv_color.h ****     LV_COLOR_SET_G(c1, premult_c1[1]);
 532:lvgl/lvgl/src/draw/../misc/lv_color.h ****     LV_COLOR_SET_B(c1, premult_c1[2]);
 533:lvgl/lvgl/src/draw/../misc/lv_color.h ****     ret.full = mix > LV_OPA_50 ? c2.full : c1.full;
 534:lvgl/lvgl/src/draw/../misc/lv_color.h **** #endif
 535:lvgl/lvgl/src/draw/../misc/lv_color.h **** 
 536:lvgl/lvgl/src/draw/../misc/lv_color.h ****     return ret;
 537:lvgl/lvgl/src/draw/../misc/lv_color.h **** }
 538:lvgl/lvgl/src/draw/../misc/lv_color.h **** 
 539:lvgl/lvgl/src/draw/../misc/lv_color.h **** /**
 540:lvgl/lvgl/src/draw/../misc/lv_color.h ****  * Mix two colors. Both color can have alpha value.
 541:lvgl/lvgl/src/draw/../misc/lv_color.h ****  * @param bg_color background color
 542:lvgl/lvgl/src/draw/../misc/lv_color.h ****  * @param bg_opa alpha of the background color
 543:lvgl/lvgl/src/draw/../misc/lv_color.h ****  * @param fg_color foreground color
 544:lvgl/lvgl/src/draw/../misc/lv_color.h ****  * @param fg_opa alpha of the foreground color
 545:lvgl/lvgl/src/draw/../misc/lv_color.h ****  * @param res_color the result color
 546:lvgl/lvgl/src/draw/../misc/lv_color.h ****  * @param res_opa the result opacity
 547:lvgl/lvgl/src/draw/../misc/lv_color.h ****  */
 548:lvgl/lvgl/src/draw/../misc/lv_color.h **** LV_ATTRIBUTE_FAST_MEM static inline void lv_color_mix_with_alpha(lv_color_t bg_color, lv_opa_t bg_o
 549:lvgl/lvgl/src/draw/../misc/lv_color.h ****                                                                  lv_color_t fg_color, lv_opa_t fg_o
 550:lvgl/lvgl/src/draw/../misc/lv_color.h ****                                                                  lv_color_t * res_color, lv_opa_t *
 551:lvgl/lvgl/src/draw/../misc/lv_color.h **** {
 552:lvgl/lvgl/src/draw/../misc/lv_color.h ****     /*Pick the foreground if it's fully opaque or the Background is fully transparent*/
 553:lvgl/lvgl/src/draw/../misc/lv_color.h ****     if(fg_opa >= LV_OPA_MAX || bg_opa <= LV_OPA_MIN) {
 554:lvgl/lvgl/src/draw/../misc/lv_color.h ****         res_color->full = fg_color.full;
 555:lvgl/lvgl/src/draw/../misc/lv_color.h ****         *res_opa = fg_opa;
 556:lvgl/lvgl/src/draw/../misc/lv_color.h ****     }
 557:lvgl/lvgl/src/draw/../misc/lv_color.h ****     /*Transparent foreground: use the Background*/
 558:lvgl/lvgl/src/draw/../misc/lv_color.h ****     else if(fg_opa <= LV_OPA_MIN) {
 559:lvgl/lvgl/src/draw/../misc/lv_color.h ****         res_color->full = bg_color.full;
 560:lvgl/lvgl/src/draw/../misc/lv_color.h ****         *res_opa = bg_opa;
 561:lvgl/lvgl/src/draw/../misc/lv_color.h ****     }
 562:lvgl/lvgl/src/draw/../misc/lv_color.h ****     /*Opaque background: use simple mix*/
 563:lvgl/lvgl/src/draw/../misc/lv_color.h ****     else if(bg_opa >= LV_OPA_MAX) {
 564:lvgl/lvgl/src/draw/../misc/lv_color.h ****         *res_color = lv_color_mix(fg_color, bg_color, fg_opa);
 565:lvgl/lvgl/src/draw/../misc/lv_color.h ****         *res_opa = LV_OPA_COVER;
 566:lvgl/lvgl/src/draw/../misc/lv_color.h ****     }
 567:lvgl/lvgl/src/draw/../misc/lv_color.h ****     /*Both colors have alpha. Expensive calculation need to be applied*/
 568:lvgl/lvgl/src/draw/../misc/lv_color.h ****     else {
 569:lvgl/lvgl/src/draw/../misc/lv_color.h ****         /*Save the parameters and the result. If they will be asked again don't compute again*/
 570:lvgl/lvgl/src/draw/../misc/lv_color.h ****         static lv_opa_t fg_opa_save     = 0;
 571:lvgl/lvgl/src/draw/../misc/lv_color.h ****         static lv_opa_t bg_opa_save     = 0;
 572:lvgl/lvgl/src/draw/../misc/lv_color.h ****         static lv_color_t fg_color_save = _LV_COLOR_ZERO_INITIALIZER;
 573:lvgl/lvgl/src/draw/../misc/lv_color.h ****         static lv_color_t bg_color_save = _LV_COLOR_ZERO_INITIALIZER;
 574:lvgl/lvgl/src/draw/../misc/lv_color.h ****         static lv_color_t res_color_saved = _LV_COLOR_ZERO_INITIALIZER;
 575:lvgl/lvgl/src/draw/../misc/lv_color.h ****         static lv_opa_t res_opa_saved = 0;
 576:lvgl/lvgl/src/draw/../misc/lv_color.h **** 
 577:lvgl/lvgl/src/draw/../misc/lv_color.h ****         if(fg_opa != fg_opa_save || bg_opa != bg_opa_save || fg_color.full != fg_color_save.full ||
 578:lvgl/lvgl/src/draw/../misc/lv_color.h ****            bg_color.full != bg_color_save.full) {
 579:lvgl/lvgl/src/draw/../misc/lv_color.h ****             fg_opa_save        = fg_opa;
ARM GAS  C:\Users\gx\AppData\Local\Temp\ccP7i1j8.s 			page 174


 580:lvgl/lvgl/src/draw/../misc/lv_color.h ****             bg_opa_save        = bg_opa;
 581:lvgl/lvgl/src/draw/../misc/lv_color.h ****             fg_color_save.full = fg_color.full;
 582:lvgl/lvgl/src/draw/../misc/lv_color.h ****             bg_color_save.full = bg_color.full;
 583:lvgl/lvgl/src/draw/../misc/lv_color.h ****             /*Info:
 584:lvgl/lvgl/src/draw/../misc/lv_color.h ****              * https://en.wikipedia.org/wiki/Alpha_compositing#Analytical_derivation_of_the_over_op
 585:lvgl/lvgl/src/draw/../misc/lv_color.h ****             res_opa_saved = 255 - ((uint16_t)((uint16_t)(255 - fg_opa) * (255 - bg_opa)) >> 8);
 586:lvgl/lvgl/src/draw/../misc/lv_color.h ****             if(res_opa_saved == 0) {
 587:lvgl/lvgl/src/draw/../misc/lv_color.h ****                 while(1)
 588:lvgl/lvgl/src/draw/../misc/lv_color.h ****                     ;
 589:lvgl/lvgl/src/draw/../misc/lv_color.h ****             }
 590:lvgl/lvgl/src/draw/../misc/lv_color.h ****             lv_opa_t ratio = (uint16_t)((uint16_t)fg_opa * 255) / res_opa_saved;
 591:lvgl/lvgl/src/draw/../misc/lv_color.h ****             res_color_saved = lv_color_mix(fg_color, bg_color, ratio);
 592:lvgl/lvgl/src/draw/../misc/lv_color.h **** 
 593:lvgl/lvgl/src/draw/../misc/lv_color.h ****         }
 594:lvgl/lvgl/src/draw/../misc/lv_color.h **** 
 595:lvgl/lvgl/src/draw/../misc/lv_color.h ****         res_color->full = res_color_saved.full;
 596:lvgl/lvgl/src/draw/../misc/lv_color.h ****         *res_opa = res_opa_saved;
 597:lvgl/lvgl/src/draw/../misc/lv_color.h ****     }
 598:lvgl/lvgl/src/draw/../misc/lv_color.h **** }
 599:lvgl/lvgl/src/draw/../misc/lv_color.h **** 
 600:lvgl/lvgl/src/draw/../misc/lv_color.h **** //! @endcond
 601:lvgl/lvgl/src/draw/../misc/lv_color.h **** 
 602:lvgl/lvgl/src/draw/../misc/lv_color.h **** /**
 603:lvgl/lvgl/src/draw/../misc/lv_color.h ****  * Get the brightness of a color
 604:lvgl/lvgl/src/draw/../misc/lv_color.h ****  * @param color a color
 605:lvgl/lvgl/src/draw/../misc/lv_color.h ****  * @return the brightness [0..255]
 606:lvgl/lvgl/src/draw/../misc/lv_color.h ****  */
 607:lvgl/lvgl/src/draw/../misc/lv_color.h **** static inline uint8_t lv_color_brightness(lv_color_t color)
 608:lvgl/lvgl/src/draw/../misc/lv_color.h **** {
 609:lvgl/lvgl/src/draw/../misc/lv_color.h ****     lv_color32_t c32;
 610:lvgl/lvgl/src/draw/../misc/lv_color.h ****     c32.full        = lv_color_to32(color);
 611:lvgl/lvgl/src/draw/../misc/lv_color.h ****     uint16_t bright = (uint16_t)(3u * LV_COLOR_GET_R32(c32) + LV_COLOR_GET_B32(c32) + 4u * LV_COLOR
 612:lvgl/lvgl/src/draw/../misc/lv_color.h ****     return (uint8_t)(bright >> 3);
 613:lvgl/lvgl/src/draw/../misc/lv_color.h **** }
 614:lvgl/lvgl/src/draw/../misc/lv_color.h **** 
 615:lvgl/lvgl/src/draw/../misc/lv_color.h **** static inline lv_color_t lv_color_make(uint8_t r, uint8_t g, uint8_t b)
 616:lvgl/lvgl/src/draw/../misc/lv_color.h **** {
 617:lvgl/lvgl/src/draw/../misc/lv_color.h ****     return _LV_COLOR_MAKE_TYPE_HELPER LV_COLOR_MAKE(r, g, b);
 618:lvgl/lvgl/src/draw/../misc/lv_color.h **** }
 619:lvgl/lvgl/src/draw/../misc/lv_color.h **** 
 620:lvgl/lvgl/src/draw/../misc/lv_color.h **** static inline lv_color_t lv_color_hex(uint32_t c)
 621:lvgl/lvgl/src/draw/../misc/lv_color.h **** {
 622:lvgl/lvgl/src/draw/../misc/lv_color.h ****     return lv_color_make((uint8_t)((c >> 16) & 0xFF), (uint8_t)((c >> 8) & 0xFF), (uint8_t)(c & 0xF
 623:lvgl/lvgl/src/draw/../misc/lv_color.h **** }
 624:lvgl/lvgl/src/draw/../misc/lv_color.h **** 
 625:lvgl/lvgl/src/draw/../misc/lv_color.h **** static inline lv_color_t lv_color_hex3(uint32_t c)
 626:lvgl/lvgl/src/draw/../misc/lv_color.h **** {
 627:lvgl/lvgl/src/draw/../misc/lv_color.h ****     return lv_color_make((uint8_t)(((c >> 4) & 0xF0) | ((c >> 8) & 0xF)), (uint8_t)((c & 0xF0) | ((
 628:lvgl/lvgl/src/draw/../misc/lv_color.h ****                          (uint8_t)((c & 0xF) | ((c & 0xF) << 4)));
 629:lvgl/lvgl/src/draw/../misc/lv_color.h **** }
 630:lvgl/lvgl/src/draw/../misc/lv_color.h **** 
 631:lvgl/lvgl/src/draw/../misc/lv_color.h **** static inline void lv_color_filter_dsc_init(lv_color_filter_dsc_t * dsc, lv_color_filter_cb_t cb)
 632:lvgl/lvgl/src/draw/../misc/lv_color.h **** {
 633:lvgl/lvgl/src/draw/../misc/lv_color.h ****     dsc->filter_cb = cb;
 634:lvgl/lvgl/src/draw/../misc/lv_color.h **** }
 635:lvgl/lvgl/src/draw/../misc/lv_color.h **** 
 636:lvgl/lvgl/src/draw/../misc/lv_color.h **** //! @cond Doxygen_Suppress
ARM GAS  C:\Users\gx\AppData\Local\Temp\ccP7i1j8.s 			page 175


 637:lvgl/lvgl/src/draw/../misc/lv_color.h **** //!
 638:lvgl/lvgl/src/draw/../misc/lv_color.h **** LV_ATTRIBUTE_FAST_MEM void lv_color_fill(lv_color_t * buf, lv_color_t color, uint32_t px_num);
 639:lvgl/lvgl/src/draw/../misc/lv_color.h **** 
 640:lvgl/lvgl/src/draw/../misc/lv_color.h **** //! @endcond
 641:lvgl/lvgl/src/draw/../misc/lv_color.h **** lv_color_t lv_color_lighten(lv_color_t c, lv_opa_t lvl);
 642:lvgl/lvgl/src/draw/../misc/lv_color.h **** 
 643:lvgl/lvgl/src/draw/../misc/lv_color.h **** lv_color_t lv_color_darken(lv_color_t c, lv_opa_t lvl);
 644:lvgl/lvgl/src/draw/../misc/lv_color.h **** 
 645:lvgl/lvgl/src/draw/../misc/lv_color.h **** lv_color_t lv_color_change_lightness(lv_color_t c, lv_opa_t lvl);
 646:lvgl/lvgl/src/draw/../misc/lv_color.h **** 
 647:lvgl/lvgl/src/draw/../misc/lv_color.h **** /**
 648:lvgl/lvgl/src/draw/../misc/lv_color.h ****  * Convert a HSV color to RGB
 649:lvgl/lvgl/src/draw/../misc/lv_color.h ****  * @param h hue [0..359]
 650:lvgl/lvgl/src/draw/../misc/lv_color.h ****  * @param s saturation [0..100]
 651:lvgl/lvgl/src/draw/../misc/lv_color.h ****  * @param v value [0..100]
 652:lvgl/lvgl/src/draw/../misc/lv_color.h ****  * @return the given RGB color in RGB (with LV_COLOR_DEPTH depth)
 653:lvgl/lvgl/src/draw/../misc/lv_color.h ****  */
 654:lvgl/lvgl/src/draw/../misc/lv_color.h **** lv_color_t lv_color_hsv_to_rgb(uint16_t h, uint8_t s, uint8_t v);
 655:lvgl/lvgl/src/draw/../misc/lv_color.h **** 
 656:lvgl/lvgl/src/draw/../misc/lv_color.h **** /**
 657:lvgl/lvgl/src/draw/../misc/lv_color.h ****  * Convert a 32-bit RGB color to HSV
 658:lvgl/lvgl/src/draw/../misc/lv_color.h ****  * @param r8 8-bit red
 659:lvgl/lvgl/src/draw/../misc/lv_color.h ****  * @param g8 8-bit green
 660:lvgl/lvgl/src/draw/../misc/lv_color.h ****  * @param b8 8-bit blue
 661:lvgl/lvgl/src/draw/../misc/lv_color.h ****  * @return the given RGB color in HSV
 662:lvgl/lvgl/src/draw/../misc/lv_color.h ****  */
 663:lvgl/lvgl/src/draw/../misc/lv_color.h **** lv_color_hsv_t lv_color_rgb_to_hsv(uint8_t r8, uint8_t g8, uint8_t b8);
 664:lvgl/lvgl/src/draw/../misc/lv_color.h **** 
 665:lvgl/lvgl/src/draw/../misc/lv_color.h **** /**
 666:lvgl/lvgl/src/draw/../misc/lv_color.h ****  * Convert a color to HSV
 667:lvgl/lvgl/src/draw/../misc/lv_color.h ****  * @param color color
 668:lvgl/lvgl/src/draw/../misc/lv_color.h ****  * @return the given color in HSV
 669:lvgl/lvgl/src/draw/../misc/lv_color.h ****  */
 670:lvgl/lvgl/src/draw/../misc/lv_color.h **** lv_color_hsv_t lv_color_to_hsv(lv_color_t color);
 671:lvgl/lvgl/src/draw/../misc/lv_color.h **** 
 672:lvgl/lvgl/src/draw/../misc/lv_color.h **** /**
 673:lvgl/lvgl/src/draw/../misc/lv_color.h ****  * Just a wrapper around LV_COLOR_CHROMA_KEY because it might be more convenient to use a function 
 674:lvgl/lvgl/src/draw/../misc/lv_color.h ****  * @return LV_COLOR_CHROMA_KEY
 675:lvgl/lvgl/src/draw/../misc/lv_color.h ****  */
 676:lvgl/lvgl/src/draw/../misc/lv_color.h **** static inline lv_color_t lv_color_chroma_key(void)
 677:lvgl/lvgl/src/draw/../misc/lv_color.h **** {
 678:lvgl/lvgl/src/draw/../misc/lv_color.h ****     return LV_COLOR_CHROMA_KEY;
 679:lvgl/lvgl/src/draw/../misc/lv_color.h **** }
 680:lvgl/lvgl/src/draw/../misc/lv_color.h **** 
 681:lvgl/lvgl/src/draw/../misc/lv_color.h **** /**********************
 682:lvgl/lvgl/src/draw/../misc/lv_color.h ****  *  PREDEFINED COLORS
 683:lvgl/lvgl/src/draw/../misc/lv_color.h ****  **********************/
 684:lvgl/lvgl/src/draw/../misc/lv_color.h **** /*Source: https://vuetifyjs.com/en/styles/colors/#material-colors*/
 685:lvgl/lvgl/src/draw/../misc/lv_color.h **** 
 686:lvgl/lvgl/src/draw/../misc/lv_color.h **** lv_color_t lv_palette_main(lv_palette_t p);
 687:lvgl/lvgl/src/draw/../misc/lv_color.h **** static inline lv_color_t lv_color_white(void) { return lv_color_make(0xff, 0xff, 0xff);}
 5897              		.loc 3 687 26 view .LVU2064
 5898              	.LBE313:
 5899              		.loc 3 687 49 view .LVU2065
 5900              	.LBB316:
 5901              	.LBB314:
 5902              	.LBI314:
ARM GAS  C:\Users\gx\AppData\Local\Temp\ccP7i1j8.s 			page 176


 615:lvgl/lvgl/src/draw/../misc/lv_color.h **** {
 5903              		.loc 3 615 26 view .LVU2066
 5904              	.LBB315:
 617:lvgl/lvgl/src/draw/../misc/lv_color.h **** }
 5905              		.loc 3 617 5 view .LVU2067
 617:lvgl/lvgl/src/draw/../misc/lv_color.h **** }
 5906              		.loc 3 617 12 is_stmt 0 view .LVU2068
 5907 000a 4FF6FF73 		movw	r3, #65535
 5908              	.LVL605:
 617:lvgl/lvgl/src/draw/../misc/lv_color.h **** }
 5909              		.loc 3 617 12 view .LVU2069
 5910              	.LBE315:
 5911              	.LBE314:
 5912              	.LBE316:
  78:lvgl/lvgl/src/draw/lv_draw_rect.c ****     dsc->bg_grad_color = lv_color_black();
 5913              		.loc 1 78 21 view .LVU2070
 5914 000e A380     		strh	r3, [r4, #4]	@ movhi
  79:lvgl/lvgl/src/draw/lv_draw_rect.c ****     dsc->border_color = lv_color_black();
 5915              		.loc 1 79 5 is_stmt 1 view .LVU2071
 5916              	.LBB317:
 5917              	.LBI317:
 688:lvgl/lvgl/src/draw/../misc/lv_color.h **** static inline lv_color_t lv_color_black(void) { return lv_color_make(0x00, 0x0, 0x00);}
 5918              		.loc 3 688 26 view .LVU2072
 5919              	.LBE317:
 5920              		.loc 3 688 49 view .LVU2073
 5921              	.LVL606:
 5922              	.LBB320:
 5923              	.LBB318:
 5924              	.LBI318:
 615:lvgl/lvgl/src/draw/../misc/lv_color.h **** {
 5925              		.loc 3 615 26 view .LVU2074
 5926              	.LBB319:
 617:lvgl/lvgl/src/draw/../misc/lv_color.h **** }
 5927              		.loc 3 617 5 view .LVU2075
 617:lvgl/lvgl/src/draw/../misc/lv_color.h **** }
 5928              		.loc 3 617 12 is_stmt 0 view .LVU2076
 5929 0010 4FF00003 		mov	r3, #0	@ movhi
 5930              	.LVL607:
 617:lvgl/lvgl/src/draw/../misc/lv_color.h **** }
 5931              		.loc 3 617 12 view .LVU2077
 5932              	.LBE319:
 5933              	.LBE318:
 5934              	.LBE320:
  79:lvgl/lvgl/src/draw/lv_draw_rect.c ****     dsc->border_color = lv_color_black();
 5935              		.loc 1 79 26 view .LVU2078
 5936 0014 E380     		strh	r3, [r4, #6]	@ movhi
  80:lvgl/lvgl/src/draw/lv_draw_rect.c ****     dsc->shadow_color = lv_color_black();
 5937              		.loc 1 80 5 is_stmt 1 view .LVU2079
 5938              	.LBB321:
 5939              	.LBI321:
 5940              		.loc 3 688 26 view .LVU2080
 5941              	.LBE321:
 5942              		.loc 3 688 49 view .LVU2081
 5943              	.LVL608:
 5944              	.LBB324:
 5945              	.LBB322:
 5946              	.LBI322:
ARM GAS  C:\Users\gx\AppData\Local\Temp\ccP7i1j8.s 			page 177


 615:lvgl/lvgl/src/draw/../misc/lv_color.h **** {
 5947              		.loc 3 615 26 view .LVU2082
 5948              	.LBB323:
 617:lvgl/lvgl/src/draw/../misc/lv_color.h **** }
 5949              		.loc 3 617 5 view .LVU2083
 617:lvgl/lvgl/src/draw/../misc/lv_color.h **** }
 5950              		.loc 3 617 5 is_stmt 0 view .LVU2084
 5951              	.LBE323:
 5952              	.LBE322:
 5953              	.LBE324:
  80:lvgl/lvgl/src/draw/lv_draw_rect.c ****     dsc->shadow_color = lv_color_black();
 5954              		.loc 1 80 25 view .LVU2085
 5955 0016 6383     		strh	r3, [r4, #26]	@ movhi
  81:lvgl/lvgl/src/draw/lv_draw_rect.c ****     dsc->bg_grad_color_stop = 0xFF;
 5956              		.loc 1 81 5 is_stmt 1 view .LVU2086
 5957              	.LBB325:
 5958              	.LBI325:
 5959              		.loc 3 688 26 view .LVU2087
 5960              	.LBE325:
 5961              		.loc 3 688 49 view .LVU2088
 5962              	.LVL609:
 5963              	.LBB328:
 5964              	.LBB326:
 5965              	.LBI326:
 615:lvgl/lvgl/src/draw/../misc/lv_color.h **** {
 5966              		.loc 3 615 26 view .LVU2089
 5967              	.LBB327:
 617:lvgl/lvgl/src/draw/../misc/lv_color.h **** }
 5968              		.loc 3 617 5 view .LVU2090
 617:lvgl/lvgl/src/draw/../misc/lv_color.h **** }
 5969              		.loc 3 617 5 is_stmt 0 view .LVU2091
 5970              	.LBE327:
 5971              	.LBE326:
 5972              	.LBE328:
  81:lvgl/lvgl/src/draw/lv_draw_rect.c ****     dsc->bg_grad_color_stop = 0xFF;
 5973              		.loc 1 81 25 view .LVU2092
 5974 0018 2385     		strh	r3, [r4, #40]	@ movhi
  82:lvgl/lvgl/src/draw/lv_draw_rect.c ****     dsc->bg_img_symbol_font = LV_FONT_DEFAULT;
 5975              		.loc 1 82 5 is_stmt 1 view .LVU2093
  82:lvgl/lvgl/src/draw/lv_draw_rect.c ****     dsc->bg_img_symbol_font = LV_FONT_DEFAULT;
 5976              		.loc 1 82 29 is_stmt 0 view .LVU2094
 5977 001a FF23     		movs	r3, #255
 5978 001c 6372     		strb	r3, [r4, #9]
  83:lvgl/lvgl/src/draw/lv_draw_rect.c ****     dsc->bg_opa = LV_OPA_COVER;
 5979              		.loc 1 83 5 is_stmt 1 view .LVU2095
  83:lvgl/lvgl/src/draw/lv_draw_rect.c ****     dsc->bg_opa = LV_OPA_COVER;
 5980              		.loc 1 83 29 is_stmt 0 view .LVU2096
 5981 001e 074A     		ldr	r2, .L324
 5982 0020 2261     		str	r2, [r4, #16]
  84:lvgl/lvgl/src/draw/lv_draw_rect.c ****     dsc->bg_img_opa = LV_OPA_COVER;
 5983              		.loc 1 84 5 is_stmt 1 view .LVU2097
  84:lvgl/lvgl/src/draw/lv_draw_rect.c ****     dsc->bg_img_opa = LV_OPA_COVER;
 5984              		.loc 1 84 17 is_stmt 0 view .LVU2098
 5985 0022 A372     		strb	r3, [r4, #10]
  85:lvgl/lvgl/src/draw/lv_draw_rect.c ****     dsc->outline_opa = LV_OPA_COVER;
 5986              		.loc 1 85 5 is_stmt 1 view .LVU2099
  85:lvgl/lvgl/src/draw/lv_draw_rect.c ****     dsc->outline_opa = LV_OPA_COVER;
ARM GAS  C:\Users\gx\AppData\Local\Temp\ccP7i1j8.s 			page 178


 5987              		.loc 1 85 21 is_stmt 0 view .LVU2100
 5988 0024 A375     		strb	r3, [r4, #22]
  86:lvgl/lvgl/src/draw/lv_draw_rect.c ****     dsc->border_opa = LV_OPA_COVER;
 5989              		.loc 1 86 5 is_stmt 1 view .LVU2101
  86:lvgl/lvgl/src/draw/lv_draw_rect.c ****     dsc->border_opa = LV_OPA_COVER;
 5990              		.loc 1 86 22 is_stmt 0 view .LVU2102
 5991 0026 84F82630 		strb	r3, [r4, #38]
  87:lvgl/lvgl/src/draw/lv_draw_rect.c ****     dsc->shadow_opa = LV_OPA_COVER;
 5992              		.loc 1 87 5 is_stmt 1 view .LVU2103
  87:lvgl/lvgl/src/draw/lv_draw_rect.c ****     dsc->shadow_opa = LV_OPA_COVER;
 5993              		.loc 1 87 21 is_stmt 0 view .LVU2104
 5994 002a A377     		strb	r3, [r4, #30]
  88:lvgl/lvgl/src/draw/lv_draw_rect.c ****     dsc->border_side = LV_BORDER_SIDE_FULL;
 5995              		.loc 1 88 5 is_stmt 1 view .LVU2105
  88:lvgl/lvgl/src/draw/lv_draw_rect.c ****     dsc->border_side = LV_BORDER_SIDE_FULL;
 5996              		.loc 1 88 21 is_stmt 0 view .LVU2106
 5997 002c 84F83230 		strb	r3, [r4, #50]
  89:lvgl/lvgl/src/draw/lv_draw_rect.c **** }
 5998              		.loc 1 89 5 is_stmt 1 view .LVU2107
  89:lvgl/lvgl/src/draw/lv_draw_rect.c **** }
 5999              		.loc 1 89 22 is_stmt 0 view .LVU2108
 6000 0030 E37F     		ldrb	r3, [r4, #31]	@ zero_extendqisi2
 6001 0032 0F22     		movs	r2, #15
 6002 0034 62F34503 		bfi	r3, r2, #1, #5
 6003 0038 E377     		strb	r3, [r4, #31]
  90:lvgl/lvgl/src/draw/lv_draw_rect.c **** 
 6004              		.loc 1 90 1 view .LVU2109
 6005 003a 10BD     		pop	{r4, pc}
 6006              	.LVL610:
 6007              	.L325:
  90:lvgl/lvgl/src/draw/lv_draw_rect.c **** 
 6008              		.loc 1 90 1 view .LVU2110
 6009              		.align	2
 6010              	.L324:
 6011 003c 00000000 		.word	lv_font_montserrat_14
 6012              		.cfi_endproc
 6013              	.LFE152:
 6015              		.section	.text.draw_border_generic,"ax",%progbits
 6016              		.align	1
 6017              		.global	draw_border_generic
 6018              		.syntax unified
 6019              		.thumb
 6020              		.thumb_func
 6021              		.fpu fpv4-sp-d16
 6023              	draw_border_generic:
 6024              	.LVL611:
 6025              	.LFB162:
1071:lvgl/lvgl/src/draw/lv_draw_rect.c ****     opa = opa >= LV_OPA_COVER ? LV_OPA_COVER : opa;
 6026              		.loc 1 1071 1 is_stmt 1 view -0
 6027              		.cfi_startproc
 6028              		@ args = 16, pretend = 0, frame = 136
 6029              		@ frame_needed = 0, uses_anonymous_args = 0
1071:lvgl/lvgl/src/draw/lv_draw_rect.c ****     opa = opa >= LV_OPA_COVER ? LV_OPA_COVER : opa;
 6030              		.loc 1 1071 1 is_stmt 0 view .LVU2112
 6031 0000 2DE9F04F 		push	{r4, r5, r6, r7, r8, r9, r10, fp, lr}
 6032              	.LCFI24:
 6033              		.cfi_def_cfa_offset 36
ARM GAS  C:\Users\gx\AppData\Local\Temp\ccP7i1j8.s 			page 179


 6034              		.cfi_offset 4, -36
 6035              		.cfi_offset 5, -32
 6036              		.cfi_offset 6, -28
 6037              		.cfi_offset 7, -24
 6038              		.cfi_offset 8, -20
 6039              		.cfi_offset 9, -16
 6040              		.cfi_offset 10, -12
 6041              		.cfi_offset 11, -8
 6042              		.cfi_offset 14, -4
 6043 0004 A7B0     		sub	sp, sp, #156
 6044              	.LCFI25:
 6045              		.cfi_def_cfa_offset 192
 6046 0006 0590     		str	r0, [sp, #20]
 6047 0008 0D46     		mov	r5, r1
 6048 000a 1646     		mov	r6, r2
 6049 000c BDF9C070 		ldrsh	r7, [sp, #192]
 6050 0010 9DF8C880 		ldrb	r8, [sp, #200]	@ zero_extendqisi2
 6051 0014 9DF8CCB0 		ldrb	fp, [sp, #204]	@ zero_extendqisi2
1072:lvgl/lvgl/src/draw/lv_draw_rect.c **** 
 6052              		.loc 1 1072 5 is_stmt 1 view .LVU2113
 6053              	.LVL612:
1074:lvgl/lvgl/src/draw/lv_draw_rect.c ****         draw_border_simple(clip_area, outer_area, inner_area, color, opa);
 6054              		.loc 1 1074 5 view .LVU2114
1074:lvgl/lvgl/src/draw/lv_draw_rect.c ****         draw_border_simple(clip_area, outer_area, inner_area, color, opa);
 6055              		.loc 1 1074 7 is_stmt 0 view .LVU2115
 6056 0018 0BB1     		cbz	r3, .L327
 6057 001a 9946     		mov	r9, r3
1074:lvgl/lvgl/src/draw/lv_draw_rect.c ****         draw_border_simple(clip_area, outer_area, inner_area, color, opa);
 6058              		.loc 1 1074 18 discriminator 1 view .LVU2116
 6059 001c 5FB9     		cbnz	r7, .L328
 6060              	.L327:
1075:lvgl/lvgl/src/draw/lv_draw_rect.c ****         return;
 6061              		.loc 1 1075 9 is_stmt 1 view .LVU2117
 6062 001e CDF80080 		str	r8, [sp]
 6063 0022 BDF8C430 		ldrh	r3, [sp, #196]
 6064              	.LVL613:
1075:lvgl/lvgl/src/draw/lv_draw_rect.c ****         return;
 6065              		.loc 1 1075 9 is_stmt 0 view .LVU2118
 6066 0026 3246     		mov	r2, r6
 6067              	.LVL614:
1075:lvgl/lvgl/src/draw/lv_draw_rect.c ****         return;
 6068              		.loc 1 1075 9 view .LVU2119
 6069 0028 2946     		mov	r1, r5
 6070              	.LVL615:
1075:lvgl/lvgl/src/draw/lv_draw_rect.c ****         return;
 6071              		.loc 1 1075 9 view .LVU2120
 6072 002a 0598     		ldr	r0, [sp, #20]
 6073              	.LVL616:
1075:lvgl/lvgl/src/draw/lv_draw_rect.c ****         return;
 6074              		.loc 1 1075 9 view .LVU2121
 6075 002c FFF7FEFF 		bl	draw_border_simple
 6076              	.LVL617:
1076:lvgl/lvgl/src/draw/lv_draw_rect.c ****     }
 6077              		.loc 1 1076 9 is_stmt 1 view .LVU2122
 6078              	.L326:
1284:lvgl/lvgl/src/draw/lv_draw_rect.c **** 
 6079              		.loc 1 1284 1 is_stmt 0 view .LVU2123
ARM GAS  C:\Users\gx\AppData\Local\Temp\ccP7i1j8.s 			page 180


 6080 0030 27B0     		add	sp, sp, #156
 6081              	.LCFI26:
 6082              		.cfi_remember_state
 6083              		.cfi_def_cfa_offset 36
 6084              		@ sp needed
 6085 0032 BDE8F08F 		pop	{r4, r5, r6, r7, r8, r9, r10, fp, pc}
 6086              	.LVL618:
 6087              	.L328:
 6088              	.LCFI27:
 6089              		.cfi_restore_state
1082:lvgl/lvgl/src/draw/lv_draw_rect.c ****     if(!_lv_area_intersect(&draw_area, outer_area, clip_area)) return;
 6090              		.loc 1 1082 5 is_stmt 1 view .LVU2124
1083:lvgl/lvgl/src/draw/lv_draw_rect.c ****     int32_t draw_area_w = lv_area_get_width(&draw_area);
 6091              		.loc 1 1083 5 view .LVU2125
1083:lvgl/lvgl/src/draw/lv_draw_rect.c ****     int32_t draw_area_w = lv_area_get_width(&draw_area);
 6092              		.loc 1 1083 9 is_stmt 0 view .LVU2126
 6093 0036 059A     		ldr	r2, [sp, #20]
 6094              	.LVL619:
1083:lvgl/lvgl/src/draw/lv_draw_rect.c ****     int32_t draw_area_w = lv_area_get_width(&draw_area);
 6095              		.loc 1 1083 9 view .LVU2127
 6096 0038 24A8     		add	r0, sp, #144
 6097              	.LVL620:
1083:lvgl/lvgl/src/draw/lv_draw_rect.c ****     int32_t draw_area_w = lv_area_get_width(&draw_area);
 6098              		.loc 1 1083 9 view .LVU2128
 6099 003a FFF7FEFF 		bl	_lv_area_intersect
 6100              	.LVL621:
1083:lvgl/lvgl/src/draw/lv_draw_rect.c ****     int32_t draw_area_w = lv_area_get_width(&draw_area);
 6101              		.loc 1 1083 7 view .LVU2129
 6102 003e 0A90     		str	r0, [sp, #40]
 6103 0040 0028     		cmp	r0, #0
 6104 0042 F5D0     		beq	.L326
1084:lvgl/lvgl/src/draw/lv_draw_rect.c **** 
 6105              		.loc 1 1084 5 is_stmt 1 view .LVU2130
 6106              	.LVL622:
 6107              	.LBB329:
 6108              	.LBI329:
 133:lvgl/lvgl/src/draw/../misc/lv_area.h **** {
 6109              		.loc 2 133 26 view .LVU2131
 6110              	.LBB330:
 135:lvgl/lvgl/src/draw/../misc/lv_area.h **** }
 6111              		.loc 2 135 5 view .LVU2132
 135:lvgl/lvgl/src/draw/../misc/lv_area.h **** }
 6112              		.loc 2 135 31 is_stmt 0 view .LVU2133
 6113 0044 BDF89430 		ldrh	r3, [sp, #148]
 135:lvgl/lvgl/src/draw/../misc/lv_area.h **** }
 6114              		.loc 2 135 44 view .LVU2134
 6115 0048 BDF89020 		ldrh	r2, [sp, #144]
 135:lvgl/lvgl/src/draw/../misc/lv_area.h **** }
 6116              		.loc 2 135 36 view .LVU2135
 6117 004c 9B1A     		subs	r3, r3, r2
 6118 004e 9BB2     		uxth	r3, r3
 135:lvgl/lvgl/src/draw/../misc/lv_area.h **** }
 6119              		.loc 2 135 49 view .LVU2136
 6120 0050 0133     		adds	r3, r3, #1
 135:lvgl/lvgl/src/draw/../misc/lv_area.h **** }
 6121              		.loc 2 135 12 view .LVU2137
 6122 0052 1CB2     		sxth	r4, r3
ARM GAS  C:\Users\gx\AppData\Local\Temp\ccP7i1j8.s 			page 181


 6123 0054 0794     		str	r4, [sp, #28]
 6124              	.LVL623:
 135:lvgl/lvgl/src/draw/../misc/lv_area.h **** }
 6125              		.loc 2 135 12 view .LVU2138
 6126              	.LBE330:
 6127              	.LBE329:
1086:lvgl/lvgl/src/draw/lv_draw_rect.c **** 
 6128              		.loc 1 1086 5 is_stmt 1 view .LVU2139
1086:lvgl/lvgl/src/draw/lv_draw_rect.c **** 
 6129              		.loc 1 1086 21 is_stmt 0 view .LVU2140
 6130 0056 2846     		mov	r0, r5
 6131 0058 FFF7FEFF 		bl	lv_draw_mask_is_any
 6132              	.LVL624:
 6133 005c 1190     		str	r0, [sp, #68]
 6134              	.LVL625:
1089:lvgl/lvgl/src/draw/lv_draw_rect.c **** 
 6135              		.loc 1 1089 5 is_stmt 1 view .LVU2141
1089:lvgl/lvgl/src/draw/lv_draw_rect.c **** 
 6136              		.loc 1 1089 27 is_stmt 0 view .LVU2142
 6137 005e 2046     		mov	r0, r4
 6138 0060 0694     		str	r4, [sp, #24]
 6139 0062 FFF7FEFF 		bl	lv_mem_buf_get
 6140              	.LVL626:
 6141 0066 0446     		mov	r4, r0
 6142              	.LVL627:
1092:lvgl/lvgl/src/draw/lv_draw_rect.c ****     lv_draw_mask_radius_param_t mask_rout_param;
 6143              		.loc 1 1092 5 is_stmt 1 view .LVU2143
1093:lvgl/lvgl/src/draw/lv_draw_rect.c ****     if(rout > 0) {
 6144              		.loc 1 1093 5 view .LVU2144
1094:lvgl/lvgl/src/draw/lv_draw_rect.c ****         lv_draw_mask_radius_init(&mask_rout_param, outer_area, rout, false);
 6145              		.loc 1 1094 5 view .LVU2145
1094:lvgl/lvgl/src/draw/lv_draw_rect.c ****         lv_draw_mask_radius_init(&mask_rout_param, outer_area, rout, false);
 6146              		.loc 1 1094 7 is_stmt 0 view .LVU2146
 6147 0068 B9F1000F 		cmp	r9, #0
 6148 006c 00F38E80 		bgt	.L369
1092:lvgl/lvgl/src/draw/lv_draw_rect.c ****     lv_draw_mask_radius_param_t mask_rout_param;
 6149              		.loc 1 1092 13 view .LVU2147
 6150 0070 4FF0FF33 		mov	r3, #-1
 6151 0074 1293     		str	r3, [sp, #72]
 6152              	.LVL628:
 6153              	.L330:
1100:lvgl/lvgl/src/draw/lv_draw_rect.c ****     lv_draw_mask_radius_init(&mask_rin_param, inner_area, rin, true);
 6154              		.loc 1 1100 5 is_stmt 1 view .LVU2148
1101:lvgl/lvgl/src/draw/lv_draw_rect.c ****     int16_t mask_rin_id = lv_draw_mask_add(&mask_rin_param, NULL);
 6155              		.loc 1 1101 5 view .LVU2149
 6156 0076 0123     		movs	r3, #1
 6157 0078 3A46     		mov	r2, r7
 6158 007a 3146     		mov	r1, r6
 6159 007c 18A8     		add	r0, sp, #96
 6160 007e FFF7FEFF 		bl	lv_draw_mask_radius_init
 6161              	.LVL629:
1102:lvgl/lvgl/src/draw/lv_draw_rect.c **** 
 6162              		.loc 1 1102 5 view .LVU2150
1102:lvgl/lvgl/src/draw/lv_draw_rect.c **** 
 6163              		.loc 1 1102 27 is_stmt 0 view .LVU2151
 6164 0082 0021     		movs	r1, #0
 6165 0084 18A8     		add	r0, sp, #96
ARM GAS  C:\Users\gx\AppData\Local\Temp\ccP7i1j8.s 			page 182


 6166 0086 FFF7FEFF 		bl	lv_draw_mask_add
 6167              	.LVL630:
 6168 008a 1390     		str	r0, [sp, #76]
 6169              	.LVL631:
1104:lvgl/lvgl/src/draw/lv_draw_rect.c ****     lv_draw_mask_res_t mask_res;
 6170              		.loc 1 1104 5 is_stmt 1 view .LVU2152
1105:lvgl/lvgl/src/draw/lv_draw_rect.c ****     lv_area_t blend_area;
 6171              		.loc 1 1105 5 view .LVU2153
1106:lvgl/lvgl/src/draw/lv_draw_rect.c **** 
 6172              		.loc 1 1106 5 view .LVU2154
1109:lvgl/lvgl/src/draw/lv_draw_rect.c ****     core_area.x1 = LV_MAX(outer_area->x1 + rout, inner_area->x1);
 6173              		.loc 1 1109 5 view .LVU2155
1110:lvgl/lvgl/src/draw/lv_draw_rect.c ****     core_area.x2 = LV_MIN(outer_area->x2 - rout, inner_area->x2);
 6174              		.loc 1 1110 5 view .LVU2156
1110:lvgl/lvgl/src/draw/lv_draw_rect.c ****     core_area.x2 = LV_MIN(outer_area->x2 - rout, inner_area->x2);
 6175              		.loc 1 1110 20 is_stmt 0 view .LVU2157
 6176 008c B6F90030 		ldrsh	r3, [r6]
 6177 0090 0B93     		str	r3, [sp, #44]
 6178 0092 B5F90020 		ldrsh	r2, [r5]
 6179 0096 0C92     		str	r2, [sp, #48]
 6180 0098 4A44     		add	r2, r2, r9
 6181 009a 9A42     		cmp	r2, r3
 6182 009c B8BF     		it	lt
 6183 009e 1A46     		movlt	r2, r3
1110:lvgl/lvgl/src/draw/lv_draw_rect.c ****     core_area.x2 = LV_MIN(outer_area->x2 - rout, inner_area->x2);
 6184              		.loc 1 1110 18 view .LVU2158
 6185 00a0 13B2     		sxth	r3, r2
 6186 00a2 1493     		str	r3, [sp, #80]
1111:lvgl/lvgl/src/draw/lv_draw_rect.c ****     core_area.y1 = LV_MAX(outer_area->y1 + rout, inner_area->y1);
 6187              		.loc 1 1111 5 is_stmt 1 view .LVU2159
1111:lvgl/lvgl/src/draw/lv_draw_rect.c ****     core_area.y1 = LV_MAX(outer_area->y1 + rout, inner_area->y1);
 6188              		.loc 1 1111 20 is_stmt 0 view .LVU2160
 6189 00a4 B6F90410 		ldrsh	r1, [r6, #4]
 6190 00a8 0D91     		str	r1, [sp, #52]
 6191 00aa B5F90430 		ldrsh	r3, [r5, #4]
 6192 00ae 0E93     		str	r3, [sp, #56]
 6193 00b0 A3EB0903 		sub	r3, r3, r9
 6194 00b4 8B42     		cmp	r3, r1
 6195 00b6 A8BF     		it	ge
 6196 00b8 0B46     		movge	r3, r1
1111:lvgl/lvgl/src/draw/lv_draw_rect.c ****     core_area.y1 = LV_MAX(outer_area->y1 + rout, inner_area->y1);
 6197              		.loc 1 1111 18 view .LVU2161
 6198 00ba 19B2     		sxth	r1, r3
 6199 00bc 1591     		str	r1, [sp, #84]
1112:lvgl/lvgl/src/draw/lv_draw_rect.c ****     core_area.y2 = LV_MIN(outer_area->y2 - rout, inner_area->y2);
 6200              		.loc 1 1112 5 is_stmt 1 view .LVU2162
1112:lvgl/lvgl/src/draw/lv_draw_rect.c ****     core_area.y2 = LV_MIN(outer_area->y2 - rout, inner_area->y2);
 6201              		.loc 1 1112 20 is_stmt 0 view .LVU2163
 6202 00be B6F90270 		ldrsh	r7, [r6, #2]
 6203 00c2 B5F902A0 		ldrsh	r10, [r5, #2]
 6204 00c6 09EB0A01 		add	r1, r9, r10
 6205 00ca B942     		cmp	r1, r7
 6206 00cc B8BF     		it	lt
 6207 00ce 3946     		movlt	r1, r7
1112:lvgl/lvgl/src/draw/lv_draw_rect.c ****     core_area.y2 = LV_MIN(outer_area->y2 - rout, inner_area->y2);
 6208              		.loc 1 1112 18 view .LVU2164
 6209 00d0 09B2     		sxth	r1, r1
ARM GAS  C:\Users\gx\AppData\Local\Temp\ccP7i1j8.s 			page 183


 6210 00d2 0991     		str	r1, [sp, #36]
1113:lvgl/lvgl/src/draw/lv_draw_rect.c ****     lv_coord_t core_w = lv_area_get_width(&core_area);
 6211              		.loc 1 1113 5 is_stmt 1 view .LVU2165
1113:lvgl/lvgl/src/draw/lv_draw_rect.c ****     lv_coord_t core_w = lv_area_get_width(&core_area);
 6212              		.loc 1 1113 20 is_stmt 0 view .LVU2166
 6213 00d4 B6F90600 		ldrsh	r0, [r6, #6]
 6214 00d8 0F90     		str	r0, [sp, #60]
 6215 00da B5F90610 		ldrsh	r1, [r5, #6]
 6216 00de 1091     		str	r1, [sp, #64]
 6217 00e0 A1EB0901 		sub	r1, r1, r9
 6218 00e4 8142     		cmp	r1, r0
 6219 00e6 A8BF     		it	ge
 6220 00e8 0146     		movge	r1, r0
1113:lvgl/lvgl/src/draw/lv_draw_rect.c ****     lv_coord_t core_w = lv_area_get_width(&core_area);
 6221              		.loc 1 1113 18 view .LVU2167
 6222 00ea 09B2     		sxth	r1, r1
 6223 00ec 0891     		str	r1, [sp, #32]
1114:lvgl/lvgl/src/draw/lv_draw_rect.c **** 
 6224              		.loc 1 1114 5 is_stmt 1 view .LVU2168
 6225              	.LVL632:
 6226              	.LBB331:
 6227              	.LBI331:
 133:lvgl/lvgl/src/draw/../misc/lv_area.h **** {
 6228              		.loc 2 133 26 view .LVU2169
 6229              	.LBB332:
 135:lvgl/lvgl/src/draw/../misc/lv_area.h **** }
 6230              		.loc 2 135 5 view .LVU2170
 135:lvgl/lvgl/src/draw/../misc/lv_area.h **** }
 6231              		.loc 2 135 31 is_stmt 0 view .LVU2171
 6232 00ee 9BB2     		uxth	r3, r3
 135:lvgl/lvgl/src/draw/../misc/lv_area.h **** }
 6233              		.loc 2 135 44 view .LVU2172
 6234 00f0 92B2     		uxth	r2, r2
 135:lvgl/lvgl/src/draw/../misc/lv_area.h **** }
 6235              		.loc 2 135 36 view .LVU2173
 6236 00f2 9B1A     		subs	r3, r3, r2
 6237 00f4 9BB2     		uxth	r3, r3
 135:lvgl/lvgl/src/draw/../misc/lv_area.h **** }
 6238              		.loc 2 135 49 view .LVU2174
 6239 00f6 0133     		adds	r3, r3, #1
 135:lvgl/lvgl/src/draw/../misc/lv_area.h **** }
 6240              		.loc 2 135 12 view .LVU2175
 6241 00f8 1BB2     		sxth	r3, r3
 6242              	.LVL633:
 135:lvgl/lvgl/src/draw/../misc/lv_area.h **** }
 6243              		.loc 2 135 12 view .LVU2176
 6244              	.LBE332:
 6245              	.LBE331:
1116:lvgl/lvgl/src/draw/lv_draw_rect.c ****     bool bottom_side = outer_area->y2 >= inner_area->y2 ? true : false;
 6246              		.loc 1 1116 5 is_stmt 1 view .LVU2177
1117:lvgl/lvgl/src/draw/lv_draw_rect.c **** 
 6247              		.loc 1 1117 5 view .LVU2178
1120:lvgl/lvgl/src/draw/lv_draw_rect.c ****         blend_area.x1 = draw_area.x1;
 6248              		.loc 1 1120 5 view .LVU2179
1120:lvgl/lvgl/src/draw/lv_draw_rect.c ****         blend_area.x1 = draw_area.x1;
 6249              		.loc 1 1120 7 is_stmt 0 view .LVU2180
 6250 00fa 119A     		ldr	r2, [sp, #68]
ARM GAS  C:\Users\gx\AppData\Local\Temp\ccP7i1j8.s 			page 184


 6251 00fc 002A     		cmp	r2, #0
 6252 00fe 51D1     		bne	.L370
1144:lvgl/lvgl/src/draw/lv_draw_rect.c ****     bool right_side = outer_area->x2 >= inner_area->x2 ? true : false;
 6253              		.loc 1 1144 5 is_stmt 1 view .LVU2181
 6254              	.LVL634:
1145:lvgl/lvgl/src/draw/lv_draw_rect.c **** 
 6255              		.loc 1 1145 5 view .LVU2182
1147:lvgl/lvgl/src/draw/lv_draw_rect.c ****     if(left_side && right_side && top_side && bottom_side &&
 6256              		.loc 1 1147 5 view .LVU2183
1148:lvgl/lvgl/src/draw/lv_draw_rect.c ****        core_w < SPLIT_LIMIT)
 6257              		.loc 1 1148 5 view .LVU2184
1148:lvgl/lvgl/src/draw/lv_draw_rect.c ****        core_w < SPLIT_LIMIT)
 6258              		.loc 1 1148 7 is_stmt 0 view .LVU2185
 6259 0100 0B9A     		ldr	r2, [sp, #44]
 6260 0102 0C99     		ldr	r1, [sp, #48]
 6261 0104 8A42     		cmp	r2, r1
 6262 0106 0DDB     		blt	.L338
1148:lvgl/lvgl/src/draw/lv_draw_rect.c ****        core_w < SPLIT_LIMIT)
 6263              		.loc 1 1148 18 discriminator 1 view .LVU2186
 6264 0108 0D9A     		ldr	r2, [sp, #52]
 6265 010a 0E99     		ldr	r1, [sp, #56]
 6266 010c 8A42     		cmp	r2, r1
 6267 010e 09DC     		bgt	.L338
1148:lvgl/lvgl/src/draw/lv_draw_rect.c ****        core_w < SPLIT_LIMIT)
 6268              		.loc 1 1148 32 discriminator 2 view .LVU2187
 6269 0110 5745     		cmp	r7, r10
 6270 0112 07DB     		blt	.L338
1148:lvgl/lvgl/src/draw/lv_draw_rect.c ****        core_w < SPLIT_LIMIT)
 6271              		.loc 1 1148 44 discriminator 3 view .LVU2188
 6272 0114 0F9A     		ldr	r2, [sp, #60]
 6273 0116 1099     		ldr	r1, [sp, #64]
 6274 0118 8A42     		cmp	r2, r1
 6275 011a 03DC     		bgt	.L338
1148:lvgl/lvgl/src/draw/lv_draw_rect.c ****        core_w < SPLIT_LIMIT)
 6276              		.loc 1 1148 59 discriminator 4 view .LVU2189
 6277 011c 312B     		cmp	r3, #49
 6278 011e 01DC     		bgt	.L338
1151:lvgl/lvgl/src/draw/lv_draw_rect.c ****     }
 6279              		.loc 1 1151 19 view .LVU2190
 6280 0120 119B     		ldr	r3, [sp, #68]
 6281              	.LVL635:
1151:lvgl/lvgl/src/draw/lv_draw_rect.c ****     }
 6282              		.loc 1 1151 19 view .LVU2191
 6283 0122 0A93     		str	r3, [sp, #40]
 6284              	.L338:
 6285              	.LVL636:
1155:lvgl/lvgl/src/draw/lv_draw_rect.c ****         blend_area.x1 = core_area.x1;
 6286              		.loc 1 1155 5 is_stmt 1 view .LVU2192
1155:lvgl/lvgl/src/draw/lv_draw_rect.c ****         blend_area.x1 = core_area.x1;
 6287              		.loc 1 1155 7 is_stmt 0 view .LVU2193
 6288 0124 5745     		cmp	r7, r10
 6289 0126 03DB     		blt	.L339
1155:lvgl/lvgl/src/draw/lv_draw_rect.c ****         blend_area.x1 = core_area.x1;
 6290              		.loc 1 1155 17 discriminator 1 view .LVU2194
 6291 0128 0A9B     		ldr	r3, [sp, #40]
 6292 012a 002B     		cmp	r3, #0
 6293 012c 40F08680 		bne	.L371
ARM GAS  C:\Users\gx\AppData\Local\Temp\ccP7i1j8.s 			page 185


 6294              	.L339:
1163:lvgl/lvgl/src/draw/lv_draw_rect.c ****         blend_area.x1 = core_area.x1;
 6295              		.loc 1 1163 5 is_stmt 1 view .LVU2195
1163:lvgl/lvgl/src/draw/lv_draw_rect.c ****         blend_area.x1 = core_area.x1;
 6296              		.loc 1 1163 7 is_stmt 0 view .LVU2196
 6297 0130 0F9B     		ldr	r3, [sp, #60]
 6298 0132 109A     		ldr	r2, [sp, #64]
 6299 0134 9342     		cmp	r3, r2
 6300 0136 03DC     		bgt	.L340
1163:lvgl/lvgl/src/draw/lv_draw_rect.c ****         blend_area.x1 = core_area.x1;
 6301              		.loc 1 1163 20 discriminator 1 view .LVU2197
 6302 0138 0A9B     		ldr	r3, [sp, #40]
 6303 013a 002B     		cmp	r3, #0
 6304 013c 40F09A80 		bne	.L372
 6305              	.L340:
1171:lvgl/lvgl/src/draw/lv_draw_rect.c ****         blend_area.x1 = outer_area->x1;
 6306              		.loc 1 1171 5 is_stmt 1 view .LVU2198
1171:lvgl/lvgl/src/draw/lv_draw_rect.c ****         blend_area.x1 = outer_area->x1;
 6307              		.loc 1 1171 7 is_stmt 0 view .LVU2199
 6308 0140 0B9B     		ldr	r3, [sp, #44]
 6309 0142 0C9A     		ldr	r2, [sp, #48]
 6310 0144 9342     		cmp	r3, r2
 6311 0146 80F2B180 		bge	.L373
 6312              	.L341:
1179:lvgl/lvgl/src/draw/lv_draw_rect.c ****         blend_area.x1 = inner_area->x2 + 1;
 6313              		.loc 1 1179 5 is_stmt 1 view .LVU2200
1179:lvgl/lvgl/src/draw/lv_draw_rect.c ****         blend_area.x1 = inner_area->x2 + 1;
 6314              		.loc 1 1179 7 is_stmt 0 view .LVU2201
 6315 014a 0D9B     		ldr	r3, [sp, #52]
 6316 014c 0E9A     		ldr	r2, [sp, #56]
 6317 014e 9342     		cmp	r3, r2
 6318 0150 40F3C880 		ble	.L374
 6319              	.L342:
1188:lvgl/lvgl/src/draw/lv_draw_rect.c **** 
 6320              		.loc 1 1188 5 is_stmt 1 view .LVU2202
1191:lvgl/lvgl/src/draw/lv_draw_rect.c ****         /*Calculate the top corner and mirror it to the bottom*/
 6321              		.loc 1 1191 5 view .LVU2203
1191:lvgl/lvgl/src/draw/lv_draw_rect.c ****         /*Calculate the top corner and mirror it to the bottom*/
 6322              		.loc 1 1191 7 is_stmt 0 view .LVU2204
 6323 0154 0A9B     		ldr	r3, [sp, #40]
 6324 0156 002B     		cmp	r3, #0
 6325 0158 40F02D81 		bne	.L343
 6326              	.LBB333:
1193:lvgl/lvgl/src/draw/lv_draw_rect.c ****         blend_area.x2 = draw_area.x2;
 6327              		.loc 1 1193 9 is_stmt 1 view .LVU2205
1193:lvgl/lvgl/src/draw/lv_draw_rect.c ****         blend_area.x2 = draw_area.x2;
 6328              		.loc 1 1193 34 is_stmt 0 view .LVU2206
 6329 015c BDF99030 		ldrsh	r3, [sp, #144]
1193:lvgl/lvgl/src/draw/lv_draw_rect.c ****         blend_area.x2 = draw_area.x2;
 6330              		.loc 1 1193 23 view .LVU2207
 6331 0160 ADF85830 		strh	r3, [sp, #88]	@ movhi
1194:lvgl/lvgl/src/draw/lv_draw_rect.c ****         lv_coord_t max_h = LV_MAX(rout, outer_area->y1 - inner_area->y1);
 6332              		.loc 1 1194 9 is_stmt 1 view .LVU2208
1194:lvgl/lvgl/src/draw/lv_draw_rect.c ****         lv_coord_t max_h = LV_MAX(rout, outer_area->y1 - inner_area->y1);
 6333              		.loc 1 1194 34 is_stmt 0 view .LVU2209
 6334 0164 BDF99430 		ldrsh	r3, [sp, #148]
1194:lvgl/lvgl/src/draw/lv_draw_rect.c ****         lv_coord_t max_h = LV_MAX(rout, outer_area->y1 - inner_area->y1);
ARM GAS  C:\Users\gx\AppData\Local\Temp\ccP7i1j8.s 			page 186


 6335              		.loc 1 1194 23 view .LVU2210
 6336 0168 ADF85C30 		strh	r3, [sp, #92]	@ movhi
1195:lvgl/lvgl/src/draw/lv_draw_rect.c ****         for(h = 0; h < max_h; h++) {
 6337              		.loc 1 1195 9 is_stmt 1 view .LVU2211
1195:lvgl/lvgl/src/draw/lv_draw_rect.c ****         for(h = 0; h < max_h; h++) {
 6338              		.loc 1 1195 28 is_stmt 0 view .LVU2212
 6339 016c B5F90230 		ldrsh	r3, [r5, #2]
 6340 0170 B6F90220 		ldrsh	r2, [r6, #2]
 6341 0174 9B1A     		subs	r3, r3, r2
 6342 0176 9945     		cmp	r9, r3
 6343 0178 B8BF     		it	lt
 6344 017a 9946     		movlt	r9, r3
1195:lvgl/lvgl/src/draw/lv_draw_rect.c ****         for(h = 0; h < max_h; h++) {
 6345              		.loc 1 1195 20 view .LVU2213
 6346 017c 0FFA89F9 		sxth	r9, r9
 6347              	.LVL637:
1196:lvgl/lvgl/src/draw/lv_draw_rect.c ****             lv_coord_t top_y = outer_area->y1 + h;
 6348              		.loc 1 1196 9 is_stmt 1 view .LVU2214
1196:lvgl/lvgl/src/draw/lv_draw_rect.c ****             lv_coord_t top_y = outer_area->y1 + h;
 6349              		.loc 1 1196 15 is_stmt 0 view .LVU2215
 6350 0180 4FF0000A 		mov	r10, #0
 6351              	.LVL638:
1196:lvgl/lvgl/src/draw/lv_draw_rect.c ****             lv_coord_t top_y = outer_area->y1 + h;
 6352              		.loc 1 1196 15 view .LVU2216
 6353 0184 4346     		mov	r3, r8
 6354 0186 A846     		mov	r8, r5
 6355              	.LVL639:
1196:lvgl/lvgl/src/draw/lv_draw_rect.c ****             lv_coord_t top_y = outer_area->y1 + h;
 6356              		.loc 1 1196 15 view .LVU2217
 6357 0188 1D46     		mov	r5, r3
 6358              	.LVL640:
1196:lvgl/lvgl/src/draw/lv_draw_rect.c ****             lv_coord_t top_y = outer_area->y1 + h;
 6359              		.loc 1 1196 9 view .LVU2218
 6360 018a DDE0     		b	.L344
 6361              	.LVL641:
 6362              	.L369:
1196:lvgl/lvgl/src/draw/lv_draw_rect.c ****             lv_coord_t top_y = outer_area->y1 + h;
 6363              		.loc 1 1196 9 view .LVU2219
 6364              	.LBE333:
1095:lvgl/lvgl/src/draw/lv_draw_rect.c ****         mask_rout_id = lv_draw_mask_add(&mask_rout_param, NULL);
 6365              		.loc 1 1095 9 is_stmt 1 view .LVU2220
 6366 018c 0023     		movs	r3, #0
 6367 018e 4A46     		mov	r2, r9
 6368 0190 2946     		mov	r1, r5
 6369 0192 1EA8     		add	r0, sp, #120
 6370              	.LVL642:
1095:lvgl/lvgl/src/draw/lv_draw_rect.c ****         mask_rout_id = lv_draw_mask_add(&mask_rout_param, NULL);
 6371              		.loc 1 1095 9 is_stmt 0 view .LVU2221
 6372 0194 FFF7FEFF 		bl	lv_draw_mask_radius_init
 6373              	.LVL643:
1096:lvgl/lvgl/src/draw/lv_draw_rect.c ****     }
 6374              		.loc 1 1096 9 is_stmt 1 view .LVU2222
1096:lvgl/lvgl/src/draw/lv_draw_rect.c ****     }
 6375              		.loc 1 1096 24 is_stmt 0 view .LVU2223
 6376 0198 0021     		movs	r1, #0
 6377 019a 1EA8     		add	r0, sp, #120
 6378 019c FFF7FEFF 		bl	lv_draw_mask_add
ARM GAS  C:\Users\gx\AppData\Local\Temp\ccP7i1j8.s 			page 187


 6379              	.LVL644:
 6380 01a0 1290     		str	r0, [sp, #72]
 6381              	.LVL645:
1096:lvgl/lvgl/src/draw/lv_draw_rect.c ****     }
 6382              		.loc 1 1096 24 view .LVU2224
 6383 01a2 68E7     		b	.L330
 6384              	.LVL646:
 6385              	.L370:
1121:lvgl/lvgl/src/draw/lv_draw_rect.c ****         blend_area.x2 = draw_area.x2;
 6386              		.loc 1 1121 9 is_stmt 1 view .LVU2225
1121:lvgl/lvgl/src/draw/lv_draw_rect.c ****         blend_area.x2 = draw_area.x2;
 6387              		.loc 1 1121 34 is_stmt 0 view .LVU2226
 6388 01a4 BDF99030 		ldrsh	r3, [sp, #144]
 6389              	.LVL647:
1121:lvgl/lvgl/src/draw/lv_draw_rect.c ****         blend_area.x2 = draw_area.x2;
 6390              		.loc 1 1121 23 view .LVU2227
 6391 01a8 ADF85830 		strh	r3, [sp, #88]	@ movhi
1122:lvgl/lvgl/src/draw/lv_draw_rect.c ****         for(h = draw_area.y1; h < draw_area.y2; h++) {
 6392              		.loc 1 1122 9 is_stmt 1 view .LVU2228
1122:lvgl/lvgl/src/draw/lv_draw_rect.c ****         for(h = draw_area.y1; h < draw_area.y2; h++) {
 6393              		.loc 1 1122 34 is_stmt 0 view .LVU2229
 6394 01ac BDF99430 		ldrsh	r3, [sp, #148]
1122:lvgl/lvgl/src/draw/lv_draw_rect.c ****         for(h = draw_area.y1; h < draw_area.y2; h++) {
 6395              		.loc 1 1122 23 view .LVU2230
 6396 01b0 ADF85C30 		strh	r3, [sp, #92]	@ movhi
1123:lvgl/lvgl/src/draw/lv_draw_rect.c ****             if(!top_side && h < core_area.y1) continue;
 6397              		.loc 1 1123 9 is_stmt 1 view .LVU2231
1123:lvgl/lvgl/src/draw/lv_draw_rect.c ****             if(!top_side && h < core_area.y1) continue;
 6398              		.loc 1 1123 26 is_stmt 0 view .LVU2232
 6399 01b4 BDF99250 		ldrsh	r5, [sp, #146]
 6400              	.LVL648:
1123:lvgl/lvgl/src/draw/lv_draw_rect.c ****             if(!top_side && h < core_area.y1) continue;
 6401              		.loc 1 1123 26 view .LVU2233
 6402 01b8 DDF84090 		ldr	r9, [sp, #64]
 6403 01bc CDF82880 		str	r8, [sp, #40]
 6404 01c0 8046     		mov	r8, r0
 6405              	.LVL649:
1123:lvgl/lvgl/src/draw/lv_draw_rect.c ****             if(!top_side && h < core_area.y1) continue;
 6406              		.loc 1 1123 9 view .LVU2234
 6407 01c2 21E0     		b	.L332
 6408              	.LVL650:
 6409              	.L333:
1125:lvgl/lvgl/src/draw/lv_draw_rect.c **** 
 6410              		.loc 1 1125 13 is_stmt 1 view .LVU2235
1125:lvgl/lvgl/src/draw/lv_draw_rect.c **** 
 6411              		.loc 1 1125 15 is_stmt 0 view .LVU2236
 6412 01c4 C845     		cmp	r8, r9
 6413 01c6 02DD     		ble	.L335
1125:lvgl/lvgl/src/draw/lv_draw_rect.c **** 
 6414              		.loc 1 1125 29 discriminator 1 view .LVU2237
 6415 01c8 089B     		ldr	r3, [sp, #32]
 6416 01ca AB42     		cmp	r3, r5
 6417 01cc 26DB     		blt	.L336
 6418              	.L335:
1127:lvgl/lvgl/src/draw/lv_draw_rect.c ****             blend_area.y2 = h;
 6419              		.loc 1 1127 13 is_stmt 1 view .LVU2238
1127:lvgl/lvgl/src/draw/lv_draw_rect.c ****             blend_area.y2 = h;
ARM GAS  C:\Users\gx\AppData\Local\Temp\ccP7i1j8.s 			page 188


 6420              		.loc 1 1127 27 is_stmt 0 view .LVU2239
 6421 01ce 2EB2     		sxth	r6, r5
 6422 01d0 ADF85A60 		strh	r6, [sp, #90]	@ movhi
1128:lvgl/lvgl/src/draw/lv_draw_rect.c **** 
 6423              		.loc 1 1128 13 is_stmt 1 view .LVU2240
1128:lvgl/lvgl/src/draw/lv_draw_rect.c **** 
 6424              		.loc 1 1128 27 is_stmt 0 view .LVU2241
 6425 01d4 ADF85E60 		strh	r6, [sp, #94]	@ movhi
1130:lvgl/lvgl/src/draw/lv_draw_rect.c ****             mask_res = lv_draw_mask_apply(mask_buf, draw_area.x1, h, draw_area_w);
 6426              		.loc 1 1130 13 is_stmt 1 view .LVU2242
 6427 01d8 0699     		ldr	r1, [sp, #24]
 6428 01da 2046     		mov	r0, r4
 6429 01dc FFF7FEFF 		bl	lv_memset_ff
 6430              	.LVL651:
1131:lvgl/lvgl/src/draw/lv_draw_rect.c ****             _lv_blend_fill(clip_area, &blend_area, color, mask_buf, mask_res, opa, blend_mode);
 6431              		.loc 1 1131 13 view .LVU2243
1131:lvgl/lvgl/src/draw/lv_draw_rect.c ****             _lv_blend_fill(clip_area, &blend_area, color, mask_buf, mask_res, opa, blend_mode);
 6432              		.loc 1 1131 24 is_stmt 0 view .LVU2244
 6433 01e0 079B     		ldr	r3, [sp, #28]
 6434 01e2 3246     		mov	r2, r6
 6435 01e4 BDF99010 		ldrsh	r1, [sp, #144]
 6436 01e8 2046     		mov	r0, r4
 6437 01ea FFF7FEFF 		bl	lv_draw_mask_apply
 6438              	.LVL652:
1132:lvgl/lvgl/src/draw/lv_draw_rect.c ****         }
 6439              		.loc 1 1132 13 is_stmt 1 view .LVU2245
 6440 01ee CDF808B0 		str	fp, [sp, #8]
 6441 01f2 0A9B     		ldr	r3, [sp, #40]
 6442 01f4 0193     		str	r3, [sp, #4]
 6443 01f6 0090     		str	r0, [sp]
 6444 01f8 2346     		mov	r3, r4
 6445 01fa BDF8C420 		ldrh	r2, [sp, #196]
 6446 01fe 16A9     		add	r1, sp, #88
 6447 0200 0598     		ldr	r0, [sp, #20]
 6448              	.LVL653:
1132:lvgl/lvgl/src/draw/lv_draw_rect.c ****         }
 6449              		.loc 1 1132 13 is_stmt 0 view .LVU2246
 6450 0202 FFF7FEFF 		bl	_lv_blend_fill
 6451              	.LVL654:
 6452              	.L334:
1123:lvgl/lvgl/src/draw/lv_draw_rect.c ****             if(!top_side && h < core_area.y1) continue;
 6453              		.loc 1 1123 49 is_stmt 1 discriminator 2 view .LVU2247
1123:lvgl/lvgl/src/draw/lv_draw_rect.c ****             if(!top_side && h < core_area.y1) continue;
 6454              		.loc 1 1123 50 is_stmt 0 discriminator 2 view .LVU2248
 6455 0206 0135     		adds	r5, r5, #1
 6456              	.LVL655:
 6457              	.L332:
1123:lvgl/lvgl/src/draw/lv_draw_rect.c ****             if(!top_side && h < core_area.y1) continue;
 6458              		.loc 1 1123 31 is_stmt 1 discriminator 1 view .LVU2249
1123:lvgl/lvgl/src/draw/lv_draw_rect.c ****             if(!top_side && h < core_area.y1) continue;
 6459              		.loc 1 1123 44 is_stmt 0 discriminator 1 view .LVU2250
 6460 0208 BDF99630 		ldrsh	r3, [sp, #150]
1123:lvgl/lvgl/src/draw/lv_draw_rect.c ****             if(!top_side && h < core_area.y1) continue;
 6461              		.loc 1 1123 9 discriminator 1 view .LVU2251
 6462 020c AB42     		cmp	r3, r5
 6463 020e 05DD     		ble	.L336
1124:lvgl/lvgl/src/draw/lv_draw_rect.c ****             if(!bottom_side && h > core_area.y2) break;
ARM GAS  C:\Users\gx\AppData\Local\Temp\ccP7i1j8.s 			page 189


 6464              		.loc 1 1124 13 is_stmt 1 view .LVU2252
1124:lvgl/lvgl/src/draw/lv_draw_rect.c ****             if(!bottom_side && h > core_area.y2) break;
 6465              		.loc 1 1124 15 is_stmt 0 view .LVU2253
 6466 0210 5745     		cmp	r7, r10
 6467 0212 D7DA     		bge	.L333
1124:lvgl/lvgl/src/draw/lv_draw_rect.c ****             if(!bottom_side && h > core_area.y2) break;
 6468              		.loc 1 1124 26 discriminator 1 view .LVU2254
 6469 0214 099B     		ldr	r3, [sp, #36]
 6470 0216 AB42     		cmp	r3, r5
 6471 0218 D4DD     		ble	.L333
 6472 021a F4E7     		b	.L334
 6473              	.L336:
1135:lvgl/lvgl/src/draw/lv_draw_rect.c ****         lv_draw_mask_remove_id(mask_rin_id);
 6474              		.loc 1 1135 9 is_stmt 1 view .LVU2255
 6475 021c 18A8     		add	r0, sp, #96
 6476 021e FFF7FEFF 		bl	lv_draw_mask_free_param
 6477              	.LVL656:
1136:lvgl/lvgl/src/draw/lv_draw_rect.c ****         lv_draw_mask_free_param(&mask_rout_param);
 6478              		.loc 1 1136 9 view .LVU2256
 6479 0222 1398     		ldr	r0, [sp, #76]
 6480 0224 FFF7FEFF 		bl	lv_draw_mask_remove_id
 6481              	.LVL657:
1137:lvgl/lvgl/src/draw/lv_draw_rect.c ****         lv_draw_mask_remove_id(mask_rout_id);
 6482              		.loc 1 1137 9 view .LVU2257
 6483 0228 1EA8     		add	r0, sp, #120
 6484 022a FFF7FEFF 		bl	lv_draw_mask_free_param
 6485              	.LVL658:
1138:lvgl/lvgl/src/draw/lv_draw_rect.c ****         lv_mem_buf_release(mask_buf);
 6486              		.loc 1 1138 9 view .LVU2258
 6487 022e 1298     		ldr	r0, [sp, #72]
 6488 0230 FFF7FEFF 		bl	lv_draw_mask_remove_id
 6489              	.LVL659:
1139:lvgl/lvgl/src/draw/lv_draw_rect.c ****         return;
 6490              		.loc 1 1139 9 view .LVU2259
 6491 0234 2046     		mov	r0, r4
 6492 0236 FFF7FEFF 		bl	lv_mem_buf_release
 6493              	.LVL660:
1140:lvgl/lvgl/src/draw/lv_draw_rect.c ****     }
 6494              		.loc 1 1140 9 view .LVU2260
 6495 023a F9E6     		b	.L326
 6496              	.LVL661:
 6497              	.L371:
1156:lvgl/lvgl/src/draw/lv_draw_rect.c ****         blend_area.x2 = core_area.x2;
 6498              		.loc 1 1156 9 view .LVU2261
1156:lvgl/lvgl/src/draw/lv_draw_rect.c ****         blend_area.x2 = core_area.x2;
 6499              		.loc 1 1156 23 is_stmt 0 view .LVU2262
 6500 023c 149B     		ldr	r3, [sp, #80]
 6501 023e ADF85830 		strh	r3, [sp, #88]	@ movhi
1157:lvgl/lvgl/src/draw/lv_draw_rect.c ****         blend_area.y1 = outer_area->y1;
 6502              		.loc 1 1157 9 is_stmt 1 view .LVU2263
1157:lvgl/lvgl/src/draw/lv_draw_rect.c ****         blend_area.y1 = outer_area->y1;
 6503              		.loc 1 1157 23 is_stmt 0 view .LVU2264
 6504 0242 159B     		ldr	r3, [sp, #84]
 6505 0244 ADF85C30 		strh	r3, [sp, #92]	@ movhi
1158:lvgl/lvgl/src/draw/lv_draw_rect.c ****         blend_area.y2 = inner_area->y1 - 1;
 6506              		.loc 1 1158 9 is_stmt 1 view .LVU2265
1158:lvgl/lvgl/src/draw/lv_draw_rect.c ****         blend_area.y2 = inner_area->y1 - 1;
ARM GAS  C:\Users\gx\AppData\Local\Temp\ccP7i1j8.s 			page 190


 6507              		.loc 1 1158 35 is_stmt 0 view .LVU2266
 6508 0248 B5F90230 		ldrsh	r3, [r5, #2]
1158:lvgl/lvgl/src/draw/lv_draw_rect.c ****         blend_area.y2 = inner_area->y1 - 1;
 6509              		.loc 1 1158 23 view .LVU2267
 6510 024c ADF85A30 		strh	r3, [sp, #90]	@ movhi
1159:lvgl/lvgl/src/draw/lv_draw_rect.c ****         _lv_blend_fill(clip_area, &blend_area, color, NULL, LV_DRAW_MASK_RES_FULL_COVER, opa, blend
 6511              		.loc 1 1159 9 is_stmt 1 view .LVU2268
1159:lvgl/lvgl/src/draw/lv_draw_rect.c ****         _lv_blend_fill(clip_area, &blend_area, color, NULL, LV_DRAW_MASK_RES_FULL_COVER, opa, blend
 6512              		.loc 1 1159 35 is_stmt 0 view .LVU2269
 6513 0250 7388     		ldrh	r3, [r6, #2]
1159:lvgl/lvgl/src/draw/lv_draw_rect.c ****         _lv_blend_fill(clip_area, &blend_area, color, NULL, LV_DRAW_MASK_RES_FULL_COVER, opa, blend
 6514              		.loc 1 1159 40 view .LVU2270
 6515 0252 013B     		subs	r3, r3, #1
1159:lvgl/lvgl/src/draw/lv_draw_rect.c ****         _lv_blend_fill(clip_area, &blend_area, color, NULL, LV_DRAW_MASK_RES_FULL_COVER, opa, blend
 6516              		.loc 1 1159 23 view .LVU2271
 6517 0254 ADF85E30 		strh	r3, [sp, #94]	@ movhi
1160:lvgl/lvgl/src/draw/lv_draw_rect.c ****     }
 6518              		.loc 1 1160 9 is_stmt 1 view .LVU2272
 6519 0258 CDF808B0 		str	fp, [sp, #8]
 6520 025c CDF80480 		str	r8, [sp, #4]
 6521 0260 0123     		movs	r3, #1
 6522 0262 0093     		str	r3, [sp]
 6523 0264 0023     		movs	r3, #0
 6524 0266 BDF8C420 		ldrh	r2, [sp, #196]
 6525 026a 16A9     		add	r1, sp, #88
 6526 026c 0598     		ldr	r0, [sp, #20]
 6527 026e FFF7FEFF 		bl	_lv_blend_fill
 6528              	.LVL662:
 6529 0272 5DE7     		b	.L339
 6530              	.L372:
1164:lvgl/lvgl/src/draw/lv_draw_rect.c ****         blend_area.x2 = core_area.x2;
 6531              		.loc 1 1164 9 view .LVU2273
1164:lvgl/lvgl/src/draw/lv_draw_rect.c ****         blend_area.x2 = core_area.x2;
 6532              		.loc 1 1164 23 is_stmt 0 view .LVU2274
 6533 0274 149B     		ldr	r3, [sp, #80]
 6534 0276 ADF85830 		strh	r3, [sp, #88]	@ movhi
1165:lvgl/lvgl/src/draw/lv_draw_rect.c ****         blend_area.y1 = inner_area->y2 + 1;
 6535              		.loc 1 1165 9 is_stmt 1 view .LVU2275
1165:lvgl/lvgl/src/draw/lv_draw_rect.c ****         blend_area.y1 = inner_area->y2 + 1;
 6536              		.loc 1 1165 23 is_stmt 0 view .LVU2276
 6537 027a 159B     		ldr	r3, [sp, #84]
 6538 027c ADF85C30 		strh	r3, [sp, #92]	@ movhi
1166:lvgl/lvgl/src/draw/lv_draw_rect.c ****         blend_area.y2 = outer_area->y2;
 6539              		.loc 1 1166 9 is_stmt 1 view .LVU2277
1166:lvgl/lvgl/src/draw/lv_draw_rect.c ****         blend_area.y2 = outer_area->y2;
 6540              		.loc 1 1166 35 is_stmt 0 view .LVU2278
 6541 0280 F388     		ldrh	r3, [r6, #6]
1166:lvgl/lvgl/src/draw/lv_draw_rect.c ****         blend_area.y2 = outer_area->y2;
 6542              		.loc 1 1166 40 view .LVU2279
 6543 0282 0133     		adds	r3, r3, #1
1166:lvgl/lvgl/src/draw/lv_draw_rect.c ****         blend_area.y2 = outer_area->y2;
 6544              		.loc 1 1166 23 view .LVU2280
 6545 0284 ADF85A30 		strh	r3, [sp, #90]	@ movhi
1167:lvgl/lvgl/src/draw/lv_draw_rect.c ****         _lv_blend_fill(clip_area, &blend_area, color, NULL, LV_DRAW_MASK_RES_FULL_COVER, opa, blend
 6546              		.loc 1 1167 9 is_stmt 1 view .LVU2281
1167:lvgl/lvgl/src/draw/lv_draw_rect.c ****         _lv_blend_fill(clip_area, &blend_area, color, NULL, LV_DRAW_MASK_RES_FULL_COVER, opa, blend
 6547              		.loc 1 1167 35 is_stmt 0 view .LVU2282
ARM GAS  C:\Users\gx\AppData\Local\Temp\ccP7i1j8.s 			page 191


 6548 0288 B5F90630 		ldrsh	r3, [r5, #6]
1167:lvgl/lvgl/src/draw/lv_draw_rect.c ****         _lv_blend_fill(clip_area, &blend_area, color, NULL, LV_DRAW_MASK_RES_FULL_COVER, opa, blend
 6549              		.loc 1 1167 23 view .LVU2283
 6550 028c ADF85E30 		strh	r3, [sp, #94]	@ movhi
1168:lvgl/lvgl/src/draw/lv_draw_rect.c ****     }
 6551              		.loc 1 1168 9 is_stmt 1 view .LVU2284
 6552 0290 CDF808B0 		str	fp, [sp, #8]
 6553 0294 CDF80480 		str	r8, [sp, #4]
 6554 0298 0123     		movs	r3, #1
 6555 029a 0093     		str	r3, [sp]
 6556 029c 0023     		movs	r3, #0
 6557 029e BDF8C420 		ldrh	r2, [sp, #196]
 6558 02a2 16A9     		add	r1, sp, #88
 6559 02a4 0598     		ldr	r0, [sp, #20]
 6560 02a6 FFF7FEFF 		bl	_lv_blend_fill
 6561              	.LVL663:
 6562 02aa 49E7     		b	.L340
 6563              	.L373:
1172:lvgl/lvgl/src/draw/lv_draw_rect.c ****         blend_area.x2 = inner_area->x1 - 1;
 6564              		.loc 1 1172 9 view .LVU2285
1172:lvgl/lvgl/src/draw/lv_draw_rect.c ****         blend_area.x2 = inner_area->x1 - 1;
 6565              		.loc 1 1172 35 is_stmt 0 view .LVU2286
 6566 02ac B5F90030 		ldrsh	r3, [r5]
1172:lvgl/lvgl/src/draw/lv_draw_rect.c ****         blend_area.x2 = inner_area->x1 - 1;
 6567              		.loc 1 1172 23 view .LVU2287
 6568 02b0 ADF85830 		strh	r3, [sp, #88]	@ movhi
1173:lvgl/lvgl/src/draw/lv_draw_rect.c ****         blend_area.y1 = core_area.y1;
 6569              		.loc 1 1173 9 is_stmt 1 view .LVU2288
1173:lvgl/lvgl/src/draw/lv_draw_rect.c ****         blend_area.y1 = core_area.y1;
 6570              		.loc 1 1173 35 is_stmt 0 view .LVU2289
 6571 02b4 3388     		ldrh	r3, [r6]
1173:lvgl/lvgl/src/draw/lv_draw_rect.c ****         blend_area.y1 = core_area.y1;
 6572              		.loc 1 1173 40 view .LVU2290
 6573 02b6 013B     		subs	r3, r3, #1
1173:lvgl/lvgl/src/draw/lv_draw_rect.c ****         blend_area.y1 = core_area.y1;
 6574              		.loc 1 1173 23 view .LVU2291
 6575 02b8 ADF85C30 		strh	r3, [sp, #92]	@ movhi
1174:lvgl/lvgl/src/draw/lv_draw_rect.c ****         blend_area.y2 = core_area.y2;
 6576              		.loc 1 1174 9 is_stmt 1 view .LVU2292
1174:lvgl/lvgl/src/draw/lv_draw_rect.c ****         blend_area.y2 = core_area.y2;
 6577              		.loc 1 1174 23 is_stmt 0 view .LVU2293
 6578 02bc 099B     		ldr	r3, [sp, #36]
 6579 02be ADF85A30 		strh	r3, [sp, #90]	@ movhi
1175:lvgl/lvgl/src/draw/lv_draw_rect.c ****         _lv_blend_fill(clip_area, &blend_area, color, NULL, LV_DRAW_MASK_RES_FULL_COVER, opa, blend
 6580              		.loc 1 1175 9 is_stmt 1 view .LVU2294
1175:lvgl/lvgl/src/draw/lv_draw_rect.c ****         _lv_blend_fill(clip_area, &blend_area, color, NULL, LV_DRAW_MASK_RES_FULL_COVER, opa, blend
 6581              		.loc 1 1175 23 is_stmt 0 view .LVU2295
 6582 02c2 089B     		ldr	r3, [sp, #32]
 6583 02c4 ADF85E30 		strh	r3, [sp, #94]	@ movhi
1176:lvgl/lvgl/src/draw/lv_draw_rect.c ****     }
 6584              		.loc 1 1176 9 is_stmt 1 view .LVU2296
 6585 02c8 CDF808B0 		str	fp, [sp, #8]
 6586 02cc CDF80480 		str	r8, [sp, #4]
 6587 02d0 0123     		movs	r3, #1
 6588 02d2 0093     		str	r3, [sp]
 6589 02d4 0023     		movs	r3, #0
 6590 02d6 BDF8C420 		ldrh	r2, [sp, #196]
ARM GAS  C:\Users\gx\AppData\Local\Temp\ccP7i1j8.s 			page 192


 6591 02da 16A9     		add	r1, sp, #88
 6592 02dc 0598     		ldr	r0, [sp, #20]
 6593 02de FFF7FEFF 		bl	_lv_blend_fill
 6594              	.LVL664:
 6595 02e2 32E7     		b	.L341
 6596              	.L374:
1180:lvgl/lvgl/src/draw/lv_draw_rect.c ****         blend_area.x2 = outer_area->x2;
 6597              		.loc 1 1180 9 view .LVU2297
1180:lvgl/lvgl/src/draw/lv_draw_rect.c ****         blend_area.x2 = outer_area->x2;
 6598              		.loc 1 1180 35 is_stmt 0 view .LVU2298
 6599 02e4 B388     		ldrh	r3, [r6, #4]
1180:lvgl/lvgl/src/draw/lv_draw_rect.c ****         blend_area.x2 = outer_area->x2;
 6600              		.loc 1 1180 40 view .LVU2299
 6601 02e6 0133     		adds	r3, r3, #1
1180:lvgl/lvgl/src/draw/lv_draw_rect.c ****         blend_area.x2 = outer_area->x2;
 6602              		.loc 1 1180 23 view .LVU2300
 6603 02e8 ADF85830 		strh	r3, [sp, #88]	@ movhi
1181:lvgl/lvgl/src/draw/lv_draw_rect.c ****         blend_area.y1 = core_area.y1;
 6604              		.loc 1 1181 9 is_stmt 1 view .LVU2301
1181:lvgl/lvgl/src/draw/lv_draw_rect.c ****         blend_area.y1 = core_area.y1;
 6605              		.loc 1 1181 35 is_stmt 0 view .LVU2302
 6606 02ec B5F90430 		ldrsh	r3, [r5, #4]
1181:lvgl/lvgl/src/draw/lv_draw_rect.c ****         blend_area.y1 = core_area.y1;
 6607              		.loc 1 1181 23 view .LVU2303
 6608 02f0 ADF85C30 		strh	r3, [sp, #92]	@ movhi
1182:lvgl/lvgl/src/draw/lv_draw_rect.c ****         blend_area.y2 = core_area.y2;
 6609              		.loc 1 1182 9 is_stmt 1 view .LVU2304
1182:lvgl/lvgl/src/draw/lv_draw_rect.c ****         blend_area.y2 = core_area.y2;
 6610              		.loc 1 1182 23 is_stmt 0 view .LVU2305
 6611 02f4 099B     		ldr	r3, [sp, #36]
 6612 02f6 ADF85A30 		strh	r3, [sp, #90]	@ movhi
1183:lvgl/lvgl/src/draw/lv_draw_rect.c ****         _lv_blend_fill(clip_area, &blend_area, color, NULL, LV_DRAW_MASK_RES_FULL_COVER, opa, blend
 6613              		.loc 1 1183 9 is_stmt 1 view .LVU2306
1183:lvgl/lvgl/src/draw/lv_draw_rect.c ****         _lv_blend_fill(clip_area, &blend_area, color, NULL, LV_DRAW_MASK_RES_FULL_COVER, opa, blend
 6614              		.loc 1 1183 23 is_stmt 0 view .LVU2307
 6615 02fa 089B     		ldr	r3, [sp, #32]
 6616 02fc ADF85E30 		strh	r3, [sp, #94]	@ movhi
1184:lvgl/lvgl/src/draw/lv_draw_rect.c ****     }
 6617              		.loc 1 1184 9 is_stmt 1 view .LVU2308
 6618 0300 CDF808B0 		str	fp, [sp, #8]
 6619 0304 CDF80480 		str	r8, [sp, #4]
 6620 0308 0123     		movs	r3, #1
 6621 030a 0093     		str	r3, [sp]
 6622 030c 0023     		movs	r3, #0
 6623 030e BDF8C420 		ldrh	r2, [sp, #196]
 6624 0312 16A9     		add	r1, sp, #88
 6625 0314 0598     		ldr	r0, [sp, #20]
 6626 0316 FFF7FEFF 		bl	_lv_blend_fill
 6627              	.LVL665:
 6628 031a 1BE7     		b	.L342
 6629              	.LVL666:
 6630              	.L345:
 6631              	.LBB336:
 6632              	.LBB334:
1201:lvgl/lvgl/src/draw/lv_draw_rect.c ****             mask_res = lv_draw_mask_apply(mask_buf, blend_area.x1, top_y, draw_area_w);
 6633              		.loc 1 1201 13 view .LVU2309
 6634 031c 0699     		ldr	r1, [sp, #24]
ARM GAS  C:\Users\gx\AppData\Local\Temp\ccP7i1j8.s 			page 193


 6635 031e 2046     		mov	r0, r4
 6636 0320 FFF7FEFF 		bl	lv_memset_ff
 6637              	.LVL667:
1202:lvgl/lvgl/src/draw/lv_draw_rect.c **** 
 6638              		.loc 1 1202 13 view .LVU2310
1202:lvgl/lvgl/src/draw/lv_draw_rect.c **** 
 6639              		.loc 1 1202 24 is_stmt 0 view .LVU2311
 6640 0324 079B     		ldr	r3, [sp, #28]
 6641 0326 3246     		mov	r2, r6
 6642 0328 BDF95810 		ldrsh	r1, [sp, #88]
 6643 032c 2046     		mov	r0, r4
 6644 032e FFF7FEFF 		bl	lv_draw_mask_apply
 6645              	.LVL668:
 6646 0332 0890     		str	r0, [sp, #32]
 6647              	.LVL669:
1204:lvgl/lvgl/src/draw/lv_draw_rect.c ****                 blend_area.y1 = top_y;
 6648              		.loc 1 1204 13 is_stmt 1 view .LVU2312
1204:lvgl/lvgl/src/draw/lv_draw_rect.c ****                 blend_area.y1 = top_y;
 6649              		.loc 1 1204 34 is_stmt 0 view .LVU2313
 6650 0334 BDF99230 		ldrsh	r3, [sp, #146]
1204:lvgl/lvgl/src/draw/lv_draw_rect.c ****                 blend_area.y1 = top_y;
 6651              		.loc 1 1204 15 view .LVU2314
 6652 0338 B342     		cmp	r3, r6
 6653 033a 1BDD     		ble	.L375
 6654              	.L347:
1210:lvgl/lvgl/src/draw/lv_draw_rect.c ****                 blend_area.y1 = bottom_y;
 6655              		.loc 1 1210 13 is_stmt 1 view .LVU2315
1210:lvgl/lvgl/src/draw/lv_draw_rect.c ****                 blend_area.y1 = bottom_y;
 6656              		.loc 1 1210 37 is_stmt 0 view .LVU2316
 6657 033c BDF99630 		ldrsh	r3, [sp, #150]
1210:lvgl/lvgl/src/draw/lv_draw_rect.c ****                 blend_area.y1 = bottom_y;
 6658              		.loc 1 1210 15 view .LVU2317
 6659 0340 BB42     		cmp	r3, r7
 6660 0342 27DA     		bge	.L376
 6661              	.LVL670:
 6662              	.L346:
1210:lvgl/lvgl/src/draw/lv_draw_rect.c ****                 blend_area.y1 = bottom_y;
 6663              		.loc 1 1210 15 view .LVU2318
 6664              	.LBE334:
1196:lvgl/lvgl/src/draw/lv_draw_rect.c ****             lv_coord_t top_y = outer_area->y1 + h;
 6665              		.loc 1 1196 31 is_stmt 1 discriminator 2 view .LVU2319
1196:lvgl/lvgl/src/draw/lv_draw_rect.c ****             lv_coord_t top_y = outer_area->y1 + h;
 6666              		.loc 1 1196 32 is_stmt 0 discriminator 2 view .LVU2320
 6667 0344 0AF1010A 		add	r10, r10, #1
 6668              	.LVL671:
 6669              	.L344:
1196:lvgl/lvgl/src/draw/lv_draw_rect.c ****             lv_coord_t top_y = outer_area->y1 + h;
 6670              		.loc 1 1196 20 is_stmt 1 discriminator 1 view .LVU2321
1196:lvgl/lvgl/src/draw/lv_draw_rect.c ****             lv_coord_t top_y = outer_area->y1 + h;
 6671              		.loc 1 1196 9 is_stmt 0 discriminator 1 view .LVU2322
 6672 0348 D145     		cmp	r9, r10
 6673 034a 40F32381 		ble	.L349
 6674              	.LBB335:
1197:lvgl/lvgl/src/draw/lv_draw_rect.c ****             lv_coord_t bottom_y = outer_area->y2 - h;
 6675              		.loc 1 1197 13 is_stmt 1 view .LVU2323
1197:lvgl/lvgl/src/draw/lv_draw_rect.c ****             lv_coord_t bottom_y = outer_area->y2 - h;
 6676              		.loc 1 1197 42 is_stmt 0 view .LVU2324
ARM GAS  C:\Users\gx\AppData\Local\Temp\ccP7i1j8.s 			page 194


 6677 034e B8F80260 		ldrh	r6, [r8, #2]
1197:lvgl/lvgl/src/draw/lv_draw_rect.c ****             lv_coord_t bottom_y = outer_area->y2 - h;
 6678              		.loc 1 1197 47 view .LVU2325
 6679 0352 1FFA8AF3 		uxth	r3, r10
 6680 0356 1E44     		add	r6, r6, r3
1197:lvgl/lvgl/src/draw/lv_draw_rect.c ****             lv_coord_t bottom_y = outer_area->y2 - h;
 6681              		.loc 1 1197 24 view .LVU2326
 6682 0358 36B2     		sxth	r6, r6
 6683              	.LVL672:
1198:lvgl/lvgl/src/draw/lv_draw_rect.c ****             if(top_y < draw_area.y1 && bottom_y > draw_area.y2) continue;   /*This line is clipped 
 6684              		.loc 1 1198 13 is_stmt 1 view .LVU2327
1198:lvgl/lvgl/src/draw/lv_draw_rect.c ****             if(top_y < draw_area.y1 && bottom_y > draw_area.y2) continue;   /*This line is clipped 
 6685              		.loc 1 1198 45 is_stmt 0 view .LVU2328
 6686 035a B8F80670 		ldrh	r7, [r8, #6]
1198:lvgl/lvgl/src/draw/lv_draw_rect.c ****             if(top_y < draw_area.y1 && bottom_y > draw_area.y2) continue;   /*This line is clipped 
 6687              		.loc 1 1198 50 view .LVU2329
 6688 035e FF1A     		subs	r7, r7, r3
1198:lvgl/lvgl/src/draw/lv_draw_rect.c ****             if(top_y < draw_area.y1 && bottom_y > draw_area.y2) continue;   /*This line is clipped 
 6689              		.loc 1 1198 24 view .LVU2330
 6690 0360 3FB2     		sxth	r7, r7
 6691              	.LVL673:
1199:lvgl/lvgl/src/draw/lv_draw_rect.c **** 
 6692              		.loc 1 1199 13 is_stmt 1 view .LVU2331
1199:lvgl/lvgl/src/draw/lv_draw_rect.c **** 
 6693              		.loc 1 1199 33 is_stmt 0 view .LVU2332
 6694 0362 BDF99230 		ldrsh	r3, [sp, #146]
1199:lvgl/lvgl/src/draw/lv_draw_rect.c **** 
 6695              		.loc 1 1199 15 view .LVU2333
 6696 0366 B342     		cmp	r3, r6
 6697 0368 D8DD     		ble	.L345
1199:lvgl/lvgl/src/draw/lv_draw_rect.c **** 
 6698              		.loc 1 1199 60 discriminator 1 view .LVU2334
 6699 036a BDF99630 		ldrsh	r3, [sp, #150]
1199:lvgl/lvgl/src/draw/lv_draw_rect.c **** 
 6700              		.loc 1 1199 37 discriminator 1 view .LVU2335
 6701 036e BB42     		cmp	r3, r7
 6702 0370 D4DA     		bge	.L345
 6703 0372 E7E7     		b	.L346
 6704              	.LVL674:
 6705              	.L375:
1205:lvgl/lvgl/src/draw/lv_draw_rect.c ****                 blend_area.y2 = top_y;
 6706              		.loc 1 1205 17 is_stmt 1 view .LVU2336
1205:lvgl/lvgl/src/draw/lv_draw_rect.c ****                 blend_area.y2 = top_y;
 6707              		.loc 1 1205 31 is_stmt 0 view .LVU2337
 6708 0374 ADF85A60 		strh	r6, [sp, #90]	@ movhi
1206:lvgl/lvgl/src/draw/lv_draw_rect.c ****                 _lv_blend_fill(clip_area, &blend_area, color, mask_buf, mask_res, opa, blend_mode);
 6709              		.loc 1 1206 17 is_stmt 1 view .LVU2338
1206:lvgl/lvgl/src/draw/lv_draw_rect.c ****                 _lv_blend_fill(clip_area, &blend_area, color, mask_buf, mask_res, opa, blend_mode);
 6710              		.loc 1 1206 31 is_stmt 0 view .LVU2339
 6711 0378 ADF85E60 		strh	r6, [sp, #94]	@ movhi
1207:lvgl/lvgl/src/draw/lv_draw_rect.c ****             }
 6712              		.loc 1 1207 17 is_stmt 1 view .LVU2340
 6713 037c CDF808B0 		str	fp, [sp, #8]
 6714 0380 0195     		str	r5, [sp, #4]
 6715 0382 0090     		str	r0, [sp]
 6716 0384 2346     		mov	r3, r4
 6717 0386 BDF8C420 		ldrh	r2, [sp, #196]
ARM GAS  C:\Users\gx\AppData\Local\Temp\ccP7i1j8.s 			page 195


 6718 038a 16A9     		add	r1, sp, #88
 6719 038c 0598     		ldr	r0, [sp, #20]
 6720 038e FFF7FEFF 		bl	_lv_blend_fill
 6721              	.LVL675:
 6722 0392 D3E7     		b	.L347
 6723              	.L376:
1211:lvgl/lvgl/src/draw/lv_draw_rect.c ****                 blend_area.y2 = bottom_y;
 6724              		.loc 1 1211 17 view .LVU2341
1211:lvgl/lvgl/src/draw/lv_draw_rect.c ****                 blend_area.y2 = bottom_y;
 6725              		.loc 1 1211 31 is_stmt 0 view .LVU2342
 6726 0394 ADF85A70 		strh	r7, [sp, #90]	@ movhi
1212:lvgl/lvgl/src/draw/lv_draw_rect.c ****                 _lv_blend_fill(clip_area, &blend_area, color, mask_buf, mask_res, opa, blend_mode);
 6727              		.loc 1 1212 17 is_stmt 1 view .LVU2343
1212:lvgl/lvgl/src/draw/lv_draw_rect.c ****                 _lv_blend_fill(clip_area, &blend_area, color, mask_buf, mask_res, opa, blend_mode);
 6728              		.loc 1 1212 31 is_stmt 0 view .LVU2344
 6729 0398 ADF85E70 		strh	r7, [sp, #94]	@ movhi
1213:lvgl/lvgl/src/draw/lv_draw_rect.c ****             }
 6730              		.loc 1 1213 17 is_stmt 1 view .LVU2345
 6731 039c CDF808B0 		str	fp, [sp, #8]
 6732 03a0 0195     		str	r5, [sp, #4]
 6733 03a2 089B     		ldr	r3, [sp, #32]
 6734 03a4 0093     		str	r3, [sp]
 6735 03a6 2346     		mov	r3, r4
 6736 03a8 BDF8C420 		ldrh	r2, [sp, #196]
 6737 03ac 16A9     		add	r1, sp, #88
 6738 03ae 0598     		ldr	r0, [sp, #20]
 6739 03b0 FFF7FEFF 		bl	_lv_blend_fill
 6740              	.LVL676:
 6741 03b4 C6E7     		b	.L346
 6742              	.LVL677:
 6743              	.L343:
1213:lvgl/lvgl/src/draw/lv_draw_rect.c ****             }
 6744              		.loc 1 1213 17 is_stmt 0 view .LVU2346
 6745              	.LBE335:
 6746              	.LBE336:
1218:lvgl/lvgl/src/draw/lv_draw_rect.c ****         blend_area.x2 = LV_MIN(draw_area.x2, core_area.x1 - 1);
 6747              		.loc 1 1218 9 is_stmt 1 view .LVU2347
1218:lvgl/lvgl/src/draw/lv_draw_rect.c ****         blend_area.x2 = LV_MIN(draw_area.x2, core_area.x1 - 1);
 6748              		.loc 1 1218 34 is_stmt 0 view .LVU2348
 6749 03b6 BDF99020 		ldrsh	r2, [sp, #144]
1218:lvgl/lvgl/src/draw/lv_draw_rect.c ****         blend_area.x2 = LV_MIN(draw_area.x2, core_area.x1 - 1);
 6750              		.loc 1 1218 23 view .LVU2349
 6751 03ba ADF85820 		strh	r2, [sp, #88]	@ movhi
1219:lvgl/lvgl/src/draw/lv_draw_rect.c ****         blend_w = lv_area_get_width(&blend_area);
 6752              		.loc 1 1219 9 is_stmt 1 view .LVU2350
1219:lvgl/lvgl/src/draw/lv_draw_rect.c ****         blend_w = lv_area_get_width(&blend_area);
 6753              		.loc 1 1219 25 is_stmt 0 view .LVU2351
 6754 03be 149B     		ldr	r3, [sp, #80]
 6755 03c0 013B     		subs	r3, r3, #1
 6756 03c2 BDF99410 		ldrsh	r1, [sp, #148]
 6757 03c6 8B42     		cmp	r3, r1
 6758 03c8 A8BF     		it	ge
 6759 03ca 0B46     		movge	r3, r1
1219:lvgl/lvgl/src/draw/lv_draw_rect.c ****         blend_w = lv_area_get_width(&blend_area);
 6760              		.loc 1 1219 23 view .LVU2352
 6761 03cc 1BB2     		sxth	r3, r3
 6762 03ce ADF85C30 		strh	r3, [sp, #92]	@ movhi
ARM GAS  C:\Users\gx\AppData\Local\Temp\ccP7i1j8.s 			page 196


1220:lvgl/lvgl/src/draw/lv_draw_rect.c ****         if(blend_w > 0) {
 6763              		.loc 1 1220 9 is_stmt 1 view .LVU2353
 6764              	.LVL678:
 6765              	.LBB337:
 6766              	.LBI337:
 133:lvgl/lvgl/src/draw/../misc/lv_area.h **** {
 6767              		.loc 2 133 26 view .LVU2354
 6768              	.LBB338:
 135:lvgl/lvgl/src/draw/../misc/lv_area.h **** }
 6769              		.loc 2 135 5 view .LVU2355
 135:lvgl/lvgl/src/draw/../misc/lv_area.h **** }
 6770              		.loc 2 135 31 is_stmt 0 view .LVU2356
 6771 03d2 9DB2     		uxth	r5, r3
 6772              	.LVL679:
 135:lvgl/lvgl/src/draw/../misc/lv_area.h **** }
 6773              		.loc 2 135 44 view .LVU2357
 6774 03d4 92B2     		uxth	r2, r2
 135:lvgl/lvgl/src/draw/../misc/lv_area.h **** }
 6775              		.loc 2 135 36 view .LVU2358
 6776 03d6 AD1A     		subs	r5, r5, r2
 6777 03d8 ADB2     		uxth	r5, r5
 135:lvgl/lvgl/src/draw/../misc/lv_area.h **** }
 6778              		.loc 2 135 49 view .LVU2359
 6779 03da 0135     		adds	r5, r5, #1
 135:lvgl/lvgl/src/draw/../misc/lv_area.h **** }
 6780              		.loc 2 135 12 view .LVU2360
 6781 03dc 2DB2     		sxth	r5, r5
 6782              	.LVL680:
 135:lvgl/lvgl/src/draw/../misc/lv_area.h **** }
 6783              		.loc 2 135 12 view .LVU2361
 6784              	.LBE338:
 6785              	.LBE337:
1221:lvgl/lvgl/src/draw/lv_draw_rect.c ****             if(left_side || top_side) {
 6786              		.loc 1 1221 9 is_stmt 1 view .LVU2362
1221:lvgl/lvgl/src/draw/lv_draw_rect.c ****             if(left_side || top_side) {
 6787              		.loc 1 1221 11 is_stmt 0 view .LVU2363
 6788 03de 002D     		cmp	r5, #0
 6789 03e0 68DD     		ble	.L350
1222:lvgl/lvgl/src/draw/lv_draw_rect.c ****                 for(h = draw_area.y1; h < core_area.y1; h++) {
 6790              		.loc 1 1222 13 is_stmt 1 view .LVU2364
1222:lvgl/lvgl/src/draw/lv_draw_rect.c ****                 for(h = draw_area.y1; h < core_area.y1; h++) {
 6791              		.loc 1 1222 15 is_stmt 0 view .LVU2365
 6792 03e2 0B9B     		ldr	r3, [sp, #44]
 6793 03e4 0C9A     		ldr	r2, [sp, #48]
 6794 03e6 9342     		cmp	r3, r2
 6795 03e8 01DA     		bge	.L351
1222:lvgl/lvgl/src/draw/lv_draw_rect.c ****                 for(h = draw_area.y1; h < core_area.y1; h++) {
 6796              		.loc 1 1222 26 discriminator 1 view .LVU2366
 6797 03ea 5745     		cmp	r7, r10
 6798 03ec 2BDB     		blt	.L352
 6799              	.L351:
1223:lvgl/lvgl/src/draw/lv_draw_rect.c ****                     blend_area.y1 = h;
 6800              		.loc 1 1223 17 is_stmt 1 view .LVU2367
1223:lvgl/lvgl/src/draw/lv_draw_rect.c ****                     blend_area.y1 = h;
 6801              		.loc 1 1223 34 is_stmt 0 view .LVU2368
 6802 03ee BDF99260 		ldrsh	r6, [sp, #146]
 6803              	.LVL681:
ARM GAS  C:\Users\gx\AppData\Local\Temp\ccP7i1j8.s 			page 197


1223:lvgl/lvgl/src/draw/lv_draw_rect.c ****                     blend_area.y1 = h;
 6804              		.loc 1 1223 34 view .LVU2369
 6805 03f2 0697     		str	r7, [sp, #24]
 6806 03f4 CDF81CA0 		str	r10, [sp, #28]
 6807              	.LVL682:
1223:lvgl/lvgl/src/draw/lv_draw_rect.c ****                     blend_area.y1 = h;
 6808              		.loc 1 1223 34 view .LVU2370
 6809 03f8 DDF82490 		ldr	r9, [sp, #36]
 6810 03fc DDF814A0 		ldr	r10, [sp, #20]
 6811              	.LVL683:
 6812              	.L353:
1223:lvgl/lvgl/src/draw/lv_draw_rect.c ****                     blend_area.y1 = h;
 6813              		.loc 1 1223 39 is_stmt 1 discriminator 1 view .LVU2371
1223:lvgl/lvgl/src/draw/lv_draw_rect.c ****                     blend_area.y1 = h;
 6814              		.loc 1 1223 17 is_stmt 0 discriminator 1 view .LVU2372
 6815 0400 B145     		cmp	r9, r6
 6816 0402 1DDD     		ble	.L377
1224:lvgl/lvgl/src/draw/lv_draw_rect.c ****                     blend_area.y2 = h;
 6817              		.loc 1 1224 21 is_stmt 1 discriminator 3 view .LVU2373
1224:lvgl/lvgl/src/draw/lv_draw_rect.c ****                     blend_area.y2 = h;
 6818              		.loc 1 1224 35 is_stmt 0 discriminator 3 view .LVU2374
 6819 0404 37B2     		sxth	r7, r6
 6820 0406 ADF85A70 		strh	r7, [sp, #90]	@ movhi
1225:lvgl/lvgl/src/draw/lv_draw_rect.c **** 
 6821              		.loc 1 1225 21 is_stmt 1 discriminator 3 view .LVU2375
1225:lvgl/lvgl/src/draw/lv_draw_rect.c **** 
 6822              		.loc 1 1225 35 is_stmt 0 discriminator 3 view .LVU2376
 6823 040a ADF85E70 		strh	r7, [sp, #94]	@ movhi
1227:lvgl/lvgl/src/draw/lv_draw_rect.c ****                     mask_res = lv_draw_mask_apply(mask_buf, blend_area.x1, h, blend_w);
 6824              		.loc 1 1227 21 is_stmt 1 discriminator 3 view .LVU2377
 6825 040e 2946     		mov	r1, r5
 6826 0410 2046     		mov	r0, r4
 6827 0412 FFF7FEFF 		bl	lv_memset_ff
 6828              	.LVL684:
1228:lvgl/lvgl/src/draw/lv_draw_rect.c ****                     _lv_blend_fill(clip_area, &blend_area, color, mask_buf, mask_res, opa, blend_mo
 6829              		.loc 1 1228 21 discriminator 3 view .LVU2378
1228:lvgl/lvgl/src/draw/lv_draw_rect.c ****                     _lv_blend_fill(clip_area, &blend_area, color, mask_buf, mask_res, opa, blend_mo
 6830              		.loc 1 1228 32 is_stmt 0 discriminator 3 view .LVU2379
 6831 0416 2B46     		mov	r3, r5
 6832 0418 3A46     		mov	r2, r7
 6833 041a BDF95810 		ldrsh	r1, [sp, #88]
 6834 041e 2046     		mov	r0, r4
 6835 0420 FFF7FEFF 		bl	lv_draw_mask_apply
 6836              	.LVL685:
1229:lvgl/lvgl/src/draw/lv_draw_rect.c ****                 }
 6837              		.loc 1 1229 21 is_stmt 1 discriminator 3 view .LVU2380
 6838 0424 CDF808B0 		str	fp, [sp, #8]
 6839 0428 CDF80480 		str	r8, [sp, #4]
 6840 042c 0090     		str	r0, [sp]
 6841 042e 2346     		mov	r3, r4
 6842 0430 BDF8C420 		ldrh	r2, [sp, #196]
 6843 0434 16A9     		add	r1, sp, #88
 6844 0436 5046     		mov	r0, r10
 6845              	.LVL686:
1229:lvgl/lvgl/src/draw/lv_draw_rect.c ****                 }
 6846              		.loc 1 1229 21 is_stmt 0 discriminator 3 view .LVU2381
 6847 0438 FFF7FEFF 		bl	_lv_blend_fill
ARM GAS  C:\Users\gx\AppData\Local\Temp\ccP7i1j8.s 			page 198


 6848              	.LVL687:
1223:lvgl/lvgl/src/draw/lv_draw_rect.c ****                     blend_area.y1 = h;
 6849              		.loc 1 1223 57 is_stmt 1 discriminator 3 view .LVU2382
1223:lvgl/lvgl/src/draw/lv_draw_rect.c ****                     blend_area.y1 = h;
 6850              		.loc 1 1223 58 is_stmt 0 discriminator 3 view .LVU2383
 6851 043c 0136     		adds	r6, r6, #1
 6852              	.LVL688:
1223:lvgl/lvgl/src/draw/lv_draw_rect.c ****                     blend_area.y1 = h;
 6853              		.loc 1 1223 58 discriminator 3 view .LVU2384
 6854 043e DFE7     		b	.L353
 6855              	.L377:
1223:lvgl/lvgl/src/draw/lv_draw_rect.c ****                     blend_area.y1 = h;
 6856              		.loc 1 1223 58 discriminator 3 view .LVU2385
 6857 0440 069F     		ldr	r7, [sp, #24]
 6858 0442 DDF81CA0 		ldr	r10, [sp, #28]
 6859              	.LVL689:
 6860              	.L352:
1233:lvgl/lvgl/src/draw/lv_draw_rect.c ****                 for(h = core_area.y2 + 1; h <= draw_area.y2; h++) {
 6861              		.loc 1 1233 13 is_stmt 1 view .LVU2386
1233:lvgl/lvgl/src/draw/lv_draw_rect.c ****                 for(h = core_area.y2 + 1; h <= draw_area.y2; h++) {
 6862              		.loc 1 1233 15 is_stmt 0 view .LVU2387
 6863 0446 0B9B     		ldr	r3, [sp, #44]
 6864 0448 0C9A     		ldr	r2, [sp, #48]
 6865 044a 9342     		cmp	r3, r2
 6866 044c 03DA     		bge	.L355
1233:lvgl/lvgl/src/draw/lv_draw_rect.c ****                 for(h = core_area.y2 + 1; h <= draw_area.y2; h++) {
 6867              		.loc 1 1233 26 discriminator 1 view .LVU2388
 6868 044e 0F9B     		ldr	r3, [sp, #60]
 6869 0450 109A     		ldr	r2, [sp, #64]
 6870 0452 9342     		cmp	r3, r2
 6871 0454 2EDC     		bgt	.L350
 6872              	.L355:
1234:lvgl/lvgl/src/draw/lv_draw_rect.c ****                     blend_area.y1 = h;
 6873              		.loc 1 1234 17 is_stmt 1 view .LVU2389
1234:lvgl/lvgl/src/draw/lv_draw_rect.c ****                     blend_area.y1 = h;
 6874              		.loc 1 1234 23 is_stmt 0 view .LVU2390
 6875 0456 089B     		ldr	r3, [sp, #32]
 6876 0458 5E1C     		adds	r6, r3, #1
 6877              	.LVL690:
1234:lvgl/lvgl/src/draw/lv_draw_rect.c ****                     blend_area.y1 = h;
 6878              		.loc 1 1234 23 view .LVU2391
 6879 045a 0697     		str	r7, [sp, #24]
 6880 045c CDF81CA0 		str	r10, [sp, #28]
 6881 0460 BDF8C4A0 		ldrh	r10, [sp, #196]
 6882 0464 4746     		mov	r7, r8
 6883 0466 DDF81480 		ldr	r8, [sp, #20]
 6884              	.LVL691:
1234:lvgl/lvgl/src/draw/lv_draw_rect.c ****                     blend_area.y1 = h;
 6885              		.loc 1 1234 17 view .LVU2392
 6886 046a 1BE0     		b	.L356
 6887              	.L357:
1235:lvgl/lvgl/src/draw/lv_draw_rect.c ****                     blend_area.y2 = h;
 6888              		.loc 1 1235 21 is_stmt 1 discriminator 3 view .LVU2393
1235:lvgl/lvgl/src/draw/lv_draw_rect.c ****                     blend_area.y2 = h;
 6889              		.loc 1 1235 35 is_stmt 0 discriminator 3 view .LVU2394
 6890 046c 0FFA86F9 		sxth	r9, r6
 6891 0470 ADF85A90 		strh	r9, [sp, #90]	@ movhi
ARM GAS  C:\Users\gx\AppData\Local\Temp\ccP7i1j8.s 			page 199


1236:lvgl/lvgl/src/draw/lv_draw_rect.c **** 
 6892              		.loc 1 1236 21 is_stmt 1 discriminator 3 view .LVU2395
1236:lvgl/lvgl/src/draw/lv_draw_rect.c **** 
 6893              		.loc 1 1236 35 is_stmt 0 discriminator 3 view .LVU2396
 6894 0474 ADF85E90 		strh	r9, [sp, #94]	@ movhi
1238:lvgl/lvgl/src/draw/lv_draw_rect.c ****                     mask_res = lv_draw_mask_apply(mask_buf, blend_area.x1, h, blend_w);
 6895              		.loc 1 1238 21 is_stmt 1 discriminator 3 view .LVU2397
 6896 0478 2946     		mov	r1, r5
 6897 047a 2046     		mov	r0, r4
 6898 047c FFF7FEFF 		bl	lv_memset_ff
 6899              	.LVL692:
1239:lvgl/lvgl/src/draw/lv_draw_rect.c ****                     _lv_blend_fill(clip_area, &blend_area, color, mask_buf, mask_res, opa, blend_mo
 6900              		.loc 1 1239 21 discriminator 3 view .LVU2398
1239:lvgl/lvgl/src/draw/lv_draw_rect.c ****                     _lv_blend_fill(clip_area, &blend_area, color, mask_buf, mask_res, opa, blend_mo
 6901              		.loc 1 1239 32 is_stmt 0 discriminator 3 view .LVU2399
 6902 0480 2B46     		mov	r3, r5
 6903 0482 4A46     		mov	r2, r9
 6904 0484 BDF95810 		ldrsh	r1, [sp, #88]
 6905 0488 2046     		mov	r0, r4
 6906 048a FFF7FEFF 		bl	lv_draw_mask_apply
 6907              	.LVL693:
1240:lvgl/lvgl/src/draw/lv_draw_rect.c ****                 }
 6908              		.loc 1 1240 21 is_stmt 1 discriminator 3 view .LVU2400
 6909 048e CDF808B0 		str	fp, [sp, #8]
 6910 0492 0197     		str	r7, [sp, #4]
 6911 0494 0090     		str	r0, [sp]
 6912 0496 2346     		mov	r3, r4
 6913 0498 5246     		mov	r2, r10	@ movhi
 6914 049a 16A9     		add	r1, sp, #88
 6915 049c 4046     		mov	r0, r8
 6916              	.LVL694:
1240:lvgl/lvgl/src/draw/lv_draw_rect.c ****                 }
 6917              		.loc 1 1240 21 is_stmt 0 discriminator 3 view .LVU2401
 6918 049e FFF7FEFF 		bl	_lv_blend_fill
 6919              	.LVL695:
1234:lvgl/lvgl/src/draw/lv_draw_rect.c ****                     blend_area.y1 = h;
 6920              		.loc 1 1234 62 is_stmt 1 discriminator 3 view .LVU2402
1234:lvgl/lvgl/src/draw/lv_draw_rect.c ****                     blend_area.y1 = h;
 6921              		.loc 1 1234 63 is_stmt 0 discriminator 3 view .LVU2403
 6922 04a2 0136     		adds	r6, r6, #1
 6923              	.LVL696:
 6924              	.L356:
1234:lvgl/lvgl/src/draw/lv_draw_rect.c ****                     blend_area.y1 = h;
 6925              		.loc 1 1234 43 is_stmt 1 discriminator 1 view .LVU2404
1234:lvgl/lvgl/src/draw/lv_draw_rect.c ****                     blend_area.y1 = h;
 6926              		.loc 1 1234 57 is_stmt 0 discriminator 1 view .LVU2405
 6927 04a4 BDF99630 		ldrsh	r3, [sp, #150]
1234:lvgl/lvgl/src/draw/lv_draw_rect.c ****                     blend_area.y1 = h;
 6928              		.loc 1 1234 17 discriminator 1 view .LVU2406
 6929 04a8 B342     		cmp	r3, r6
 6930 04aa DFDA     		bge	.L357
1234:lvgl/lvgl/src/draw/lv_draw_rect.c ****                     blend_area.y1 = h;
 6931              		.loc 1 1234 17 discriminator 1 view .LVU2407
 6932 04ac DDF81CA0 		ldr	r10, [sp, #28]
 6933 04b0 B846     		mov	r8, r7
 6934 04b2 069F     		ldr	r7, [sp, #24]
 6935              	.LVL697:
ARM GAS  C:\Users\gx\AppData\Local\Temp\ccP7i1j8.s 			page 200


 6936              	.L350:
1246:lvgl/lvgl/src/draw/lv_draw_rect.c ****         blend_area.x2 = draw_area.x2;
 6937              		.loc 1 1246 9 is_stmt 1 view .LVU2408
1246:lvgl/lvgl/src/draw/lv_draw_rect.c ****         blend_area.x2 = draw_area.x2;
 6938              		.loc 1 1246 25 is_stmt 0 view .LVU2409
 6939 04b4 159B     		ldr	r3, [sp, #84]
 6940 04b6 0133     		adds	r3, r3, #1
 6941 04b8 BDF99020 		ldrsh	r2, [sp, #144]
 6942 04bc 9342     		cmp	r3, r2
 6943 04be B8BF     		it	lt
 6944 04c0 1346     		movlt	r3, r2
1246:lvgl/lvgl/src/draw/lv_draw_rect.c ****         blend_area.x2 = draw_area.x2;
 6945              		.loc 1 1246 23 view .LVU2410
 6946 04c2 1BB2     		sxth	r3, r3
 6947 04c4 ADF85830 		strh	r3, [sp, #88]	@ movhi
1247:lvgl/lvgl/src/draw/lv_draw_rect.c ****         blend_w = lv_area_get_width(&blend_area);
 6948              		.loc 1 1247 9 is_stmt 1 view .LVU2411
1247:lvgl/lvgl/src/draw/lv_draw_rect.c ****         blend_w = lv_area_get_width(&blend_area);
 6949              		.loc 1 1247 34 is_stmt 0 view .LVU2412
 6950 04c8 BDF99420 		ldrsh	r2, [sp, #148]
1247:lvgl/lvgl/src/draw/lv_draw_rect.c ****         blend_w = lv_area_get_width(&blend_area);
 6951              		.loc 1 1247 23 view .LVU2413
 6952 04cc ADF85C20 		strh	r2, [sp, #92]	@ movhi
1248:lvgl/lvgl/src/draw/lv_draw_rect.c **** 
 6953              		.loc 1 1248 9 is_stmt 1 view .LVU2414
 6954              	.LVL698:
 6955              	.LBB339:
 6956              	.LBI339:
 133:lvgl/lvgl/src/draw/../misc/lv_area.h **** {
 6957              		.loc 2 133 26 view .LVU2415
 6958              	.LBB340:
 135:lvgl/lvgl/src/draw/../misc/lv_area.h **** }
 6959              		.loc 2 135 5 view .LVU2416
 135:lvgl/lvgl/src/draw/../misc/lv_area.h **** }
 6960              		.loc 2 135 31 is_stmt 0 view .LVU2417
 6961 04d0 95B2     		uxth	r5, r2
 6962              	.LVL699:
 135:lvgl/lvgl/src/draw/../misc/lv_area.h **** }
 6963              		.loc 2 135 44 view .LVU2418
 6964 04d2 9BB2     		uxth	r3, r3
 135:lvgl/lvgl/src/draw/../misc/lv_area.h **** }
 6965              		.loc 2 135 36 view .LVU2419
 6966 04d4 ED1A     		subs	r5, r5, r3
 6967 04d6 ADB2     		uxth	r5, r5
 135:lvgl/lvgl/src/draw/../misc/lv_area.h **** }
 6968              		.loc 2 135 49 view .LVU2420
 6969 04d8 0135     		adds	r5, r5, #1
 135:lvgl/lvgl/src/draw/../misc/lv_area.h **** }
 6970              		.loc 2 135 12 view .LVU2421
 6971 04da 2DB2     		sxth	r5, r5
 6972              	.LVL700:
 135:lvgl/lvgl/src/draw/../misc/lv_area.h **** }
 6973              		.loc 2 135 12 view .LVU2422
 6974              	.LBE340:
 6975              	.LBE339:
1250:lvgl/lvgl/src/draw/lv_draw_rect.c ****             if(right_side || top_side) {
 6976              		.loc 1 1250 9 is_stmt 1 view .LVU2423
ARM GAS  C:\Users\gx\AppData\Local\Temp\ccP7i1j8.s 			page 201


1250:lvgl/lvgl/src/draw/lv_draw_rect.c ****             if(right_side || top_side) {
 6977              		.loc 1 1250 11 is_stmt 0 view .LVU2424
 6978 04dc 002D     		cmp	r5, #0
 6979 04de 59DD     		ble	.L349
1251:lvgl/lvgl/src/draw/lv_draw_rect.c ****                 for(h = draw_area.y1; h < core_area.y1; h++) {
 6980              		.loc 1 1251 13 is_stmt 1 view .LVU2425
1251:lvgl/lvgl/src/draw/lv_draw_rect.c ****                 for(h = draw_area.y1; h < core_area.y1; h++) {
 6981              		.loc 1 1251 15 is_stmt 0 view .LVU2426
 6982 04e0 0D9B     		ldr	r3, [sp, #52]
 6983 04e2 0E9A     		ldr	r2, [sp, #56]
 6984 04e4 9342     		cmp	r3, r2
 6985 04e6 01DD     		ble	.L358
1251:lvgl/lvgl/src/draw/lv_draw_rect.c ****                 for(h = draw_area.y1; h < core_area.y1; h++) {
 6986              		.loc 1 1251 27 discriminator 1 view .LVU2427
 6987 04e8 5745     		cmp	r7, r10
 6988 04ea 24DB     		blt	.L359
 6989              	.L358:
1252:lvgl/lvgl/src/draw/lv_draw_rect.c ****                     blend_area.y1 = h;
 6990              		.loc 1 1252 17 is_stmt 1 view .LVU2428
1252:lvgl/lvgl/src/draw/lv_draw_rect.c ****                     blend_area.y1 = h;
 6991              		.loc 1 1252 34 is_stmt 0 view .LVU2429
 6992 04ec BDF99260 		ldrsh	r6, [sp, #146]
 6993              	.LVL701:
1252:lvgl/lvgl/src/draw/lv_draw_rect.c ****                     blend_area.y1 = h;
 6994              		.loc 1 1252 34 view .LVU2430
 6995 04f0 DDF82490 		ldr	r9, [sp, #36]
 6996 04f4 BDF8C4A0 		ldrh	r10, [sp, #196]
1252:lvgl/lvgl/src/draw/lv_draw_rect.c ****                     blend_area.y1 = h;
 6997              		.loc 1 1252 17 view .LVU2431
 6998 04f8 1BE0     		b	.L360
 6999              	.L361:
1253:lvgl/lvgl/src/draw/lv_draw_rect.c ****                     blend_area.y2 = h;
 7000              		.loc 1 1253 21 is_stmt 1 discriminator 3 view .LVU2432
1253:lvgl/lvgl/src/draw/lv_draw_rect.c ****                     blend_area.y2 = h;
 7001              		.loc 1 1253 35 is_stmt 0 discriminator 3 view .LVU2433
 7002 04fa 37B2     		sxth	r7, r6
 7003 04fc ADF85A70 		strh	r7, [sp, #90]	@ movhi
1254:lvgl/lvgl/src/draw/lv_draw_rect.c **** 
 7004              		.loc 1 1254 21 is_stmt 1 discriminator 3 view .LVU2434
1254:lvgl/lvgl/src/draw/lv_draw_rect.c **** 
 7005              		.loc 1 1254 35 is_stmt 0 discriminator 3 view .LVU2435
 7006 0500 ADF85E70 		strh	r7, [sp, #94]	@ movhi
1256:lvgl/lvgl/src/draw/lv_draw_rect.c ****                     mask_res = lv_draw_mask_apply(mask_buf, blend_area.x1, h, blend_w);
 7007              		.loc 1 1256 21 is_stmt 1 discriminator 3 view .LVU2436
 7008 0504 2946     		mov	r1, r5
 7009 0506 2046     		mov	r0, r4
 7010 0508 FFF7FEFF 		bl	lv_memset_ff
 7011              	.LVL702:
1257:lvgl/lvgl/src/draw/lv_draw_rect.c ****                     _lv_blend_fill(clip_area, &blend_area, color, mask_buf, mask_res, opa, blend_mo
 7012              		.loc 1 1257 21 discriminator 3 view .LVU2437
1257:lvgl/lvgl/src/draw/lv_draw_rect.c ****                     _lv_blend_fill(clip_area, &blend_area, color, mask_buf, mask_res, opa, blend_mo
 7013              		.loc 1 1257 32 is_stmt 0 discriminator 3 view .LVU2438
 7014 050c 2B46     		mov	r3, r5
 7015 050e 3A46     		mov	r2, r7
 7016 0510 BDF95810 		ldrsh	r1, [sp, #88]
 7017 0514 2046     		mov	r0, r4
 7018 0516 FFF7FEFF 		bl	lv_draw_mask_apply
ARM GAS  C:\Users\gx\AppData\Local\Temp\ccP7i1j8.s 			page 202


 7019              	.LVL703:
1258:lvgl/lvgl/src/draw/lv_draw_rect.c ****                 }
 7020              		.loc 1 1258 21 is_stmt 1 discriminator 3 view .LVU2439
 7021 051a CDF808B0 		str	fp, [sp, #8]
 7022 051e CDF80480 		str	r8, [sp, #4]
 7023 0522 0090     		str	r0, [sp]
 7024 0524 2346     		mov	r3, r4
 7025 0526 5246     		mov	r2, r10	@ movhi
 7026 0528 16A9     		add	r1, sp, #88
 7027 052a 0598     		ldr	r0, [sp, #20]
 7028              	.LVL704:
1258:lvgl/lvgl/src/draw/lv_draw_rect.c ****                 }
 7029              		.loc 1 1258 21 is_stmt 0 discriminator 3 view .LVU2440
 7030 052c FFF7FEFF 		bl	_lv_blend_fill
 7031              	.LVL705:
1252:lvgl/lvgl/src/draw/lv_draw_rect.c ****                     blend_area.y1 = h;
 7032              		.loc 1 1252 57 is_stmt 1 discriminator 3 view .LVU2441
1252:lvgl/lvgl/src/draw/lv_draw_rect.c ****                     blend_area.y1 = h;
 7033              		.loc 1 1252 58 is_stmt 0 discriminator 3 view .LVU2442
 7034 0530 0136     		adds	r6, r6, #1
 7035              	.LVL706:
 7036              	.L360:
1252:lvgl/lvgl/src/draw/lv_draw_rect.c ****                     blend_area.y1 = h;
 7037              		.loc 1 1252 39 is_stmt 1 discriminator 1 view .LVU2443
1252:lvgl/lvgl/src/draw/lv_draw_rect.c ****                     blend_area.y1 = h;
 7038              		.loc 1 1252 17 is_stmt 0 discriminator 1 view .LVU2444
 7039 0532 B145     		cmp	r9, r6
 7040 0534 E1DC     		bgt	.L361
 7041              	.LVL707:
 7042              	.L359:
1262:lvgl/lvgl/src/draw/lv_draw_rect.c ****                 for(h = core_area.y2 + 1; h <= draw_area.y2; h++) {
 7043              		.loc 1 1262 13 is_stmt 1 view .LVU2445
1262:lvgl/lvgl/src/draw/lv_draw_rect.c ****                 for(h = core_area.y2 + 1; h <= draw_area.y2; h++) {
 7044              		.loc 1 1262 15 is_stmt 0 view .LVU2446
 7045 0536 0D9B     		ldr	r3, [sp, #52]
 7046 0538 0E9A     		ldr	r2, [sp, #56]
 7047 053a 9342     		cmp	r3, r2
 7048 053c 03DD     		ble	.L362
1262:lvgl/lvgl/src/draw/lv_draw_rect.c ****                 for(h = core_area.y2 + 1; h <= draw_area.y2; h++) {
 7049              		.loc 1 1262 27 discriminator 1 view .LVU2447
 7050 053e 0F9B     		ldr	r3, [sp, #60]
 7051 0540 109A     		ldr	r2, [sp, #64]
 7052 0542 9342     		cmp	r3, r2
 7053 0544 26DC     		bgt	.L349
 7054              	.L362:
1263:lvgl/lvgl/src/draw/lv_draw_rect.c ****                     blend_area.y1 = h;
 7055              		.loc 1 1263 17 is_stmt 1 view .LVU2448
1263:lvgl/lvgl/src/draw/lv_draw_rect.c ****                     blend_area.y1 = h;
 7056              		.loc 1 1263 23 is_stmt 0 view .LVU2449
 7057 0546 089E     		ldr	r6, [sp, #32]
 7058 0548 0136     		adds	r6, r6, #1
 7059              	.LVL708:
1263:lvgl/lvgl/src/draw/lv_draw_rect.c ****                     blend_area.y1 = h;
 7060              		.loc 1 1263 23 view .LVU2450
 7061 054a DDF81490 		ldr	r9, [sp, #20]
 7062 054e BDF8C4A0 		ldrh	r10, [sp, #196]
 7063              	.L363:
ARM GAS  C:\Users\gx\AppData\Local\Temp\ccP7i1j8.s 			page 203


1263:lvgl/lvgl/src/draw/lv_draw_rect.c ****                     blend_area.y1 = h;
 7064              		.loc 1 1263 43 is_stmt 1 discriminator 1 view .LVU2451
1263:lvgl/lvgl/src/draw/lv_draw_rect.c ****                     blend_area.y1 = h;
 7065              		.loc 1 1263 57 is_stmt 0 discriminator 1 view .LVU2452
 7066 0552 BDF99630 		ldrsh	r3, [sp, #150]
1263:lvgl/lvgl/src/draw/lv_draw_rect.c ****                     blend_area.y1 = h;
 7067              		.loc 1 1263 17 discriminator 1 view .LVU2453
 7068 0556 B342     		cmp	r3, r6
 7069 0558 1CDB     		blt	.L349
1264:lvgl/lvgl/src/draw/lv_draw_rect.c ****                     blend_area.y2 = h;
 7070              		.loc 1 1264 21 is_stmt 1 discriminator 3 view .LVU2454
1264:lvgl/lvgl/src/draw/lv_draw_rect.c ****                     blend_area.y2 = h;
 7071              		.loc 1 1264 35 is_stmt 0 discriminator 3 view .LVU2455
 7072 055a 37B2     		sxth	r7, r6
 7073 055c ADF85A70 		strh	r7, [sp, #90]	@ movhi
1265:lvgl/lvgl/src/draw/lv_draw_rect.c **** 
 7074              		.loc 1 1265 21 is_stmt 1 discriminator 3 view .LVU2456
1265:lvgl/lvgl/src/draw/lv_draw_rect.c **** 
 7075              		.loc 1 1265 35 is_stmt 0 discriminator 3 view .LVU2457
 7076 0560 ADF85E70 		strh	r7, [sp, #94]	@ movhi
1267:lvgl/lvgl/src/draw/lv_draw_rect.c ****                     mask_res = lv_draw_mask_apply(mask_buf, blend_area.x1, h, blend_w);
 7077              		.loc 1 1267 21 is_stmt 1 discriminator 3 view .LVU2458
 7078 0564 2946     		mov	r1, r5
 7079 0566 2046     		mov	r0, r4
 7080 0568 FFF7FEFF 		bl	lv_memset_ff
 7081              	.LVL709:
1268:lvgl/lvgl/src/draw/lv_draw_rect.c ****                     _lv_blend_fill(clip_area, &blend_area, color, mask_buf, mask_res, opa, blend_mo
 7082              		.loc 1 1268 21 discriminator 3 view .LVU2459
1268:lvgl/lvgl/src/draw/lv_draw_rect.c ****                     _lv_blend_fill(clip_area, &blend_area, color, mask_buf, mask_res, opa, blend_mo
 7083              		.loc 1 1268 32 is_stmt 0 discriminator 3 view .LVU2460
 7084 056c 2B46     		mov	r3, r5
 7085 056e 3A46     		mov	r2, r7
 7086 0570 BDF95810 		ldrsh	r1, [sp, #88]
 7087 0574 2046     		mov	r0, r4
 7088 0576 FFF7FEFF 		bl	lv_draw_mask_apply
 7089              	.LVL710:
1269:lvgl/lvgl/src/draw/lv_draw_rect.c ****                 }
 7090              		.loc 1 1269 21 is_stmt 1 discriminator 3 view .LVU2461
 7091 057a CDF808B0 		str	fp, [sp, #8]
 7092 057e CDF80480 		str	r8, [sp, #4]
 7093 0582 0090     		str	r0, [sp]
 7094 0584 2346     		mov	r3, r4
 7095              	.LVL711:
1269:lvgl/lvgl/src/draw/lv_draw_rect.c ****                 }
 7096              		.loc 1 1269 21 is_stmt 0 discriminator 3 view .LVU2462
 7097 0586 5246     		mov	r2, r10	@ movhi
 7098 0588 16A9     		add	r1, sp, #88
 7099 058a 4846     		mov	r0, r9
 7100              	.LVL712:
1269:lvgl/lvgl/src/draw/lv_draw_rect.c ****                 }
 7101              		.loc 1 1269 21 discriminator 3 view .LVU2463
 7102 058c FFF7FEFF 		bl	_lv_blend_fill
 7103              	.LVL713:
1263:lvgl/lvgl/src/draw/lv_draw_rect.c ****                     blend_area.y1 = h;
 7104              		.loc 1 1263 62 is_stmt 1 discriminator 3 view .LVU2464
1263:lvgl/lvgl/src/draw/lv_draw_rect.c ****                     blend_area.y1 = h;
 7105              		.loc 1 1263 63 is_stmt 0 discriminator 3 view .LVU2465
ARM GAS  C:\Users\gx\AppData\Local\Temp\ccP7i1j8.s 			page 204


 7106 0590 0136     		adds	r6, r6, #1
 7107              	.LVL714:
1263:lvgl/lvgl/src/draw/lv_draw_rect.c ****                     blend_area.y1 = h;
 7108              		.loc 1 1263 63 discriminator 3 view .LVU2466
 7109 0592 DEE7     		b	.L363
 7110              	.LVL715:
 7111              	.L349:
1275:lvgl/lvgl/src/draw/lv_draw_rect.c ****     lv_draw_mask_remove_id(mask_rin_id);
 7112              		.loc 1 1275 5 is_stmt 1 discriminator 1 view .LVU2467
 7113 0594 18A8     		add	r0, sp, #96
 7114 0596 FFF7FEFF 		bl	lv_draw_mask_free_param
 7115              	.LVL716:
1276:lvgl/lvgl/src/draw/lv_draw_rect.c ****     lv_draw_mask_free_param(&mask_rout_param);
 7116              		.loc 1 1276 5 discriminator 1 view .LVU2468
 7117 059a 1398     		ldr	r0, [sp, #76]
 7118 059c FFF7FEFF 		bl	lv_draw_mask_remove_id
 7119              	.LVL717:
1277:lvgl/lvgl/src/draw/lv_draw_rect.c ****     lv_draw_mask_remove_id(mask_rout_id);
 7120              		.loc 1 1277 5 discriminator 1 view .LVU2469
 7121 05a0 1EA8     		add	r0, sp, #120
 7122 05a2 FFF7FEFF 		bl	lv_draw_mask_free_param
 7123              	.LVL718:
1278:lvgl/lvgl/src/draw/lv_draw_rect.c ****     lv_mem_buf_release(mask_buf);
 7124              		.loc 1 1278 5 discriminator 1 view .LVU2470
 7125 05a6 1298     		ldr	r0, [sp, #72]
 7126 05a8 FFF7FEFF 		bl	lv_draw_mask_remove_id
 7127              	.LVL719:
1279:lvgl/lvgl/src/draw/lv_draw_rect.c **** 
 7128              		.loc 1 1279 5 discriminator 1 view .LVU2471
 7129 05ac 2046     		mov	r0, r4
 7130 05ae FFF7FEFF 		bl	lv_mem_buf_release
 7131              	.LVL720:
 7132 05b2 3DE5     		b	.L326
 7133              		.cfi_endproc
 7134              	.LFE162:
 7136              		.section	.text.draw_border,"ax",%progbits
 7137              		.align	1
 7138              		.syntax unified
 7139              		.thumb
 7140              		.thumb_func
 7141              		.fpu fpv4-sp-d16
 7143              	draw_border:
 7144              	.LVL721:
 7145              	.LFB156:
 376:lvgl/lvgl/src/draw/lv_draw_rect.c ****     if(dsc->border_opa <= LV_OPA_MIN) return;
 7146              		.loc 1 376 1 view -0
 7147              		.cfi_startproc
 7148              		@ args = 0, pretend = 0, frame = 8
 7149              		@ frame_needed = 0, uses_anonymous_args = 0
 376:lvgl/lvgl/src/draw/lv_draw_rect.c ****     if(dsc->border_opa <= LV_OPA_MIN) return;
 7150              		.loc 1 376 1 is_stmt 0 view .LVU2473
 7151 0000 2DE9F047 		push	{r4, r5, r6, r7, r8, r9, r10, lr}
 7152              	.LCFI28:
 7153              		.cfi_def_cfa_offset 32
 7154              		.cfi_offset 4, -32
 7155              		.cfi_offset 5, -28
 7156              		.cfi_offset 6, -24
ARM GAS  C:\Users\gx\AppData\Local\Temp\ccP7i1j8.s 			page 205


 7157              		.cfi_offset 7, -20
 7158              		.cfi_offset 8, -16
 7159              		.cfi_offset 9, -12
 7160              		.cfi_offset 10, -8
 7161              		.cfi_offset 14, -4
 7162 0004 86B0     		sub	sp, sp, #24
 7163              	.LCFI29:
 7164              		.cfi_def_cfa_offset 56
 377:lvgl/lvgl/src/draw/lv_draw_rect.c ****     if(dsc->border_width == 0) return;
 7165              		.loc 1 377 5 is_stmt 1 view .LVU2474
 377:lvgl/lvgl/src/draw/lv_draw_rect.c ****     if(dsc->border_width == 0) return;
 7166              		.loc 1 377 11 is_stmt 0 view .LVU2475
 7167 0006 957F     		ldrb	r5, [r2, #30]	@ zero_extendqisi2
 377:lvgl/lvgl/src/draw/lv_draw_rect.c ****     if(dsc->border_width == 0) return;
 7168              		.loc 1 377 7 view .LVU2476
 7169 0008 022D     		cmp	r5, #2
 7170 000a 59D9     		bls	.L378
 7171 000c 0646     		mov	r6, r0
 7172 000e 0846     		mov	r0, r1
 7173              	.LVL722:
 378:lvgl/lvgl/src/draw/lv_draw_rect.c ****     if(dsc->border_side == LV_BORDER_SIDE_NONE) return;
 7174              		.loc 1 378 5 is_stmt 1 view .LVU2477
 378:lvgl/lvgl/src/draw/lv_draw_rect.c ****     if(dsc->border_side == LV_BORDER_SIDE_NONE) return;
 7175              		.loc 1 378 11 is_stmt 0 view .LVU2478
 7176 0010 B2F91C40 		ldrsh	r4, [r2, #28]
 378:lvgl/lvgl/src/draw/lv_draw_rect.c ****     if(dsc->border_side == LV_BORDER_SIDE_NONE) return;
 7177              		.loc 1 378 7 view .LVU2479
 7178 0014 002C     		cmp	r4, #0
 7179 0016 53D0     		beq	.L378
 379:lvgl/lvgl/src/draw/lv_draw_rect.c ****     if(dsc->border_post) return;
 7180              		.loc 1 379 5 is_stmt 1 view .LVU2480
 379:lvgl/lvgl/src/draw/lv_draw_rect.c ****     if(dsc->border_post) return;
 7181              		.loc 1 379 25 is_stmt 0 view .LVU2481
 7182 0018 D37F     		ldrb	r3, [r2, #31]	@ zero_extendqisi2
 379:lvgl/lvgl/src/draw/lv_draw_rect.c ****     if(dsc->border_post) return;
 7183              		.loc 1 379 7 view .LVU2482
 7184 001a 13F03E0F 		tst	r3, #62
 7185 001e 4FD0     		beq	.L378
 380:lvgl/lvgl/src/draw/lv_draw_rect.c **** 
 7186              		.loc 1 380 5 is_stmt 1 view .LVU2483
 380:lvgl/lvgl/src/draw/lv_draw_rect.c **** 
 7187              		.loc 1 380 7 is_stmt 0 view .LVU2484
 7188 0020 13F0010F 		tst	r3, #1
 7189 0024 4CD1     		bne	.L378
 382:lvgl/lvgl/src/draw/lv_draw_rect.c ****     int32_t coords_h = lv_area_get_height(coords);
 7190              		.loc 1 382 5 is_stmt 1 view .LVU2485
 7191              	.LVL723:
 7192              	.LBB341:
 7193              	.LBI341:
 133:lvgl/lvgl/src/draw/../misc/lv_area.h **** {
 7194              		.loc 2 133 26 view .LVU2486
 7195              	.LBB342:
 135:lvgl/lvgl/src/draw/../misc/lv_area.h **** }
 7196              		.loc 2 135 5 view .LVU2487
 135:lvgl/lvgl/src/draw/../misc/lv_area.h **** }
 7197              		.loc 2 135 31 is_stmt 0 view .LVU2488
 7198 0026 B6F804E0 		ldrh	lr, [r6, #4]
ARM GAS  C:\Users\gx\AppData\Local\Temp\ccP7i1j8.s 			page 206


 135:lvgl/lvgl/src/draw/../misc/lv_area.h **** }
 7199              		.loc 2 135 44 view .LVU2489
 7200 002a B6F80080 		ldrh	r8, [r6]
 135:lvgl/lvgl/src/draw/../misc/lv_area.h **** }
 7201              		.loc 2 135 36 view .LVU2490
 7202 002e AEEB0803 		sub	r3, lr, r8
 7203 0032 9BB2     		uxth	r3, r3
 135:lvgl/lvgl/src/draw/../misc/lv_area.h **** }
 7204              		.loc 2 135 49 view .LVU2491
 7205 0034 0133     		adds	r3, r3, #1
 135:lvgl/lvgl/src/draw/../misc/lv_area.h **** }
 7206              		.loc 2 135 12 view .LVU2492
 7207 0036 0FFA83F9 		sxth	r9, r3
 7208              	.LVL724:
 135:lvgl/lvgl/src/draw/../misc/lv_area.h **** }
 7209              		.loc 2 135 12 view .LVU2493
 7210              	.LBE342:
 7211              	.LBE341:
 383:lvgl/lvgl/src/draw/lv_draw_rect.c ****     int32_t rout = dsc->radius;
 7212              		.loc 1 383 5 is_stmt 1 view .LVU2494
 7213              	.LBB343:
 7214              	.LBI343:
 143:lvgl/lvgl/src/draw/../misc/lv_area.h **** {
 7215              		.loc 2 143 26 view .LVU2495
 7216              	.LBB344:
 7217              		.loc 2 145 5 view .LVU2496
 7218              		.loc 2 145 31 is_stmt 0 view .LVU2497
 7219 003a F788     		ldrh	r7, [r6, #6]
 7220              		.loc 2 145 44 view .LVU2498
 7221 003c B6F802C0 		ldrh	ip, [r6, #2]
 7222              		.loc 2 145 36 view .LVU2499
 7223 0040 A7EB0C01 		sub	r1, r7, ip
 7224              	.LVL725:
 7225              		.loc 2 145 36 view .LVU2500
 7226 0044 89B2     		uxth	r1, r1
 7227              		.loc 2 145 49 view .LVU2501
 7228 0046 0131     		adds	r1, r1, #1
 7229              		.loc 2 145 12 view .LVU2502
 7230 0048 0BB2     		sxth	r3, r1
 7231              	.LVL726:
 7232              		.loc 2 145 12 view .LVU2503
 7233              	.LBE344:
 7234              	.LBE343:
 384:lvgl/lvgl/src/draw/lv_draw_rect.c ****     int32_t short_side = LV_MIN(coords_w, coords_h);
 7235              		.loc 1 384 5 is_stmt 1 view .LVU2504
 384:lvgl/lvgl/src/draw/lv_draw_rect.c ****     int32_t short_side = LV_MIN(coords_w, coords_h);
 7236              		.loc 1 384 23 is_stmt 0 view .LVU2505
 7237 004a B2F900A0 		ldrsh	r10, [r2]
 7238              	.LVL727:
 385:lvgl/lvgl/src/draw/lv_draw_rect.c ****     if(rout > short_side >> 1) rout = short_side >> 1;
 7239              		.loc 1 385 5 is_stmt 1 view .LVU2506
 385:lvgl/lvgl/src/draw/lv_draw_rect.c ****     if(rout > short_side >> 1) rout = short_side >> 1;
 7240              		.loc 1 385 13 is_stmt 0 view .LVU2507
 7241 004e 4946     		mov	r1, r9
 7242 0050 9945     		cmp	r9, r3
 7243 0052 A8BF     		it	ge
 7244 0054 1946     		movge	r1, r3
ARM GAS  C:\Users\gx\AppData\Local\Temp\ccP7i1j8.s 			page 207


 7245              	.LVL728:
 386:lvgl/lvgl/src/draw/lv_draw_rect.c **** 
 7246              		.loc 1 386 5 is_stmt 1 view .LVU2508
 386:lvgl/lvgl/src/draw/lv_draw_rect.c **** 
 7247              		.loc 1 386 26 is_stmt 0 view .LVU2509
 7248 0056 4B10     		asrs	r3, r1, #1
 7249              	.LVL729:
 386:lvgl/lvgl/src/draw/lv_draw_rect.c **** 
 7250              		.loc 1 386 7 view .LVU2510
 7251 0058 BAEB610F 		cmp	r10, r1, asr #1
 7252 005c 00DC     		bgt	.L380
 384:lvgl/lvgl/src/draw/lv_draw_rect.c ****     int32_t short_side = LV_MIN(coords_w, coords_h);
 7253              		.loc 1 384 13 view .LVU2511
 7254 005e 5346     		mov	r3, r10
 7255              	.L380:
 7256              	.LVL730:
 389:lvgl/lvgl/src/draw/lv_draw_rect.c ****     lv_area_copy(&area_inner, coords);
 7257              		.loc 1 389 5 is_stmt 1 view .LVU2512
 390:lvgl/lvgl/src/draw/lv_draw_rect.c ****     area_inner.x1 += ((dsc->border_side & LV_BORDER_SIDE_LEFT) ? dsc->border_width : - (dsc->border
 7258              		.loc 1 390 5 view .LVU2513
 122:lvgl/lvgl/src/draw/../misc/lv_area.h ****     dest->y1 = src->y1;
 7259              		.loc 2 122 5 view .LVU2514
 123:lvgl/lvgl/src/draw/../misc/lv_area.h ****     dest->x2 = src->x2;
 7260              		.loc 2 123 5 view .LVU2515
 124:lvgl/lvgl/src/draw/../misc/lv_area.h ****     dest->y2 = src->y2;
 7261              		.loc 2 124 5 view .LVU2516
 125:lvgl/lvgl/src/draw/../misc/lv_area.h **** }
 7262              		.loc 2 125 5 view .LVU2517
 391:lvgl/lvgl/src/draw/lv_draw_rect.c ****     area_inner.x2 -= ((dsc->border_side & LV_BORDER_SIDE_RIGHT) ? dsc->border_width : - (dsc->borde
 7263              		.loc 1 391 5 view .LVU2518
 391:lvgl/lvgl/src/draw/lv_draw_rect.c ****     area_inner.x2 -= ((dsc->border_side & LV_BORDER_SIDE_RIGHT) ? dsc->border_width : - (dsc->borde
 7264              		.loc 1 391 27 is_stmt 0 view .LVU2519
 7265 0060 D17F     		ldrb	r1, [r2, #31]	@ zero_extendqisi2
 7266              	.LVL731:
 391:lvgl/lvgl/src/draw/lv_draw_rect.c ****     area_inner.x2 -= ((dsc->border_side & LV_BORDER_SIDE_RIGHT) ? dsc->border_width : - (dsc->borde
 7267              		.loc 1 391 27 view .LVU2520
 7268 0062 C1F34409 		ubfx	r9, r1, #1, #5
 7269              	.LVL732:
 391:lvgl/lvgl/src/draw/lv_draw_rect.c ****     area_inner.x2 -= ((dsc->border_side & LV_BORDER_SIDE_RIGHT) ? dsc->border_width : - (dsc->borde
 7270              		.loc 1 391 19 view .LVU2521
 7271 0066 11F0080F 		tst	r1, #8
 7272 006a 2CD0     		beq	.L381
 391:lvgl/lvgl/src/draw/lv_draw_rect.c ****     area_inner.x2 -= ((dsc->border_side & LV_BORDER_SIDE_RIGHT) ? dsc->border_width : - (dsc->borde
 7273              		.loc 1 391 19 discriminator 1 view .LVU2522
 7274 006c A1B2     		uxth	r1, r4
 7275              	.L382:
 391:lvgl/lvgl/src/draw/lv_draw_rect.c ****     area_inner.x2 -= ((dsc->border_side & LV_BORDER_SIDE_RIGHT) ? dsc->border_width : - (dsc->borde
 7276              		.loc 1 391 19 discriminator 4 view .LVU2523
 7277 006e 8844     		add	r8, r8, r1
 7278              	.LVL733:
 391:lvgl/lvgl/src/draw/lv_draw_rect.c ****     area_inner.x2 -= ((dsc->border_side & LV_BORDER_SIDE_RIGHT) ? dsc->border_width : - (dsc->borde
 7279              		.loc 1 391 19 discriminator 4 view .LVU2524
 7280 0070 ADF81080 		strh	r8, [sp, #16]	@ movhi
 7281              	.LVL734:
 392:lvgl/lvgl/src/draw/lv_draw_rect.c ****     area_inner.y1 += ((dsc->border_side & LV_BORDER_SIDE_TOP) ? dsc->border_width : - (dsc->border_
 7282              		.loc 1 392 5 is_stmt 1 discriminator 4 view .LVU2525
 392:lvgl/lvgl/src/draw/lv_draw_rect.c ****     area_inner.y1 += ((dsc->border_side & LV_BORDER_SIDE_TOP) ? dsc->border_width : - (dsc->border_
ARM GAS  C:\Users\gx\AppData\Local\Temp\ccP7i1j8.s 			page 208


 7283              		.loc 1 392 19 is_stmt 0 discriminator 4 view .LVU2526
 7284 0074 19F0080F 		tst	r9, #8
 7285 0078 2BD0     		beq	.L383
 392:lvgl/lvgl/src/draw/lv_draw_rect.c ****     area_inner.y1 += ((dsc->border_side & LV_BORDER_SIDE_TOP) ? dsc->border_width : - (dsc->border_
 7286              		.loc 1 392 19 discriminator 1 view .LVU2527
 7287 007a A1B2     		uxth	r1, r4
 7288              	.L384:
 392:lvgl/lvgl/src/draw/lv_draw_rect.c ****     area_inner.y1 += ((dsc->border_side & LV_BORDER_SIDE_TOP) ? dsc->border_width : - (dsc->border_
 7289              		.loc 1 392 19 discriminator 4 view .LVU2528
 7290 007c AEEB010E 		sub	lr, lr, r1
 392:lvgl/lvgl/src/draw/lv_draw_rect.c ****     area_inner.y1 += ((dsc->border_side & LV_BORDER_SIDE_TOP) ? dsc->border_width : - (dsc->border_
 7291              		.loc 1 392 19 discriminator 4 view .LVU2529
 7292 0080 ADF814E0 		strh	lr, [sp, #20]	@ movhi
 393:lvgl/lvgl/src/draw/lv_draw_rect.c ****     area_inner.y2 -= ((dsc->border_side & LV_BORDER_SIDE_BOTTOM) ? dsc->border_width : - (dsc->bord
 7293              		.loc 1 393 5 is_stmt 1 discriminator 4 view .LVU2530
 393:lvgl/lvgl/src/draw/lv_draw_rect.c ****     area_inner.y2 -= ((dsc->border_side & LV_BORDER_SIDE_BOTTOM) ? dsc->border_width : - (dsc->bord
 7294              		.loc 1 393 19 is_stmt 0 discriminator 4 view .LVU2531
 7295 0084 19F0020F 		tst	r9, #2
 7296 0088 29D0     		beq	.L385
 393:lvgl/lvgl/src/draw/lv_draw_rect.c ****     area_inner.y2 -= ((dsc->border_side & LV_BORDER_SIDE_BOTTOM) ? dsc->border_width : - (dsc->bord
 7297              		.loc 1 393 19 discriminator 1 view .LVU2532
 7298 008a A1B2     		uxth	r1, r4
 7299              	.L386:
 393:lvgl/lvgl/src/draw/lv_draw_rect.c ****     area_inner.y2 -= ((dsc->border_side & LV_BORDER_SIDE_BOTTOM) ? dsc->border_width : - (dsc->bord
 7300              		.loc 1 393 19 discriminator 4 view .LVU2533
 7301 008c 6144     		add	r1, r1, ip
 7302 008e ADF81210 		strh	r1, [sp, #18]	@ movhi
 394:lvgl/lvgl/src/draw/lv_draw_rect.c **** 
 7303              		.loc 1 394 5 is_stmt 1 discriminator 4 view .LVU2534
 394:lvgl/lvgl/src/draw/lv_draw_rect.c **** 
 7304              		.loc 1 394 19 is_stmt 0 discriminator 4 view .LVU2535
 7305 0092 19F0010F 		tst	r9, #1
 7306 0096 28D0     		beq	.L387
 394:lvgl/lvgl/src/draw/lv_draw_rect.c **** 
 7307              		.loc 1 394 19 discriminator 1 view .LVU2536
 7308 0098 A1B2     		uxth	r1, r4
 7309              	.L388:
 394:lvgl/lvgl/src/draw/lv_draw_rect.c **** 
 7310              		.loc 1 394 19 discriminator 4 view .LVU2537
 7311 009a 7F1A     		subs	r7, r7, r1
 7312              	.LVL735:
 394:lvgl/lvgl/src/draw/lv_draw_rect.c **** 
 7313              		.loc 1 394 19 discriminator 4 view .LVU2538
 7314 009c ADF81670 		strh	r7, [sp, #22]	@ movhi
 7315              	.LVL736:
 396:lvgl/lvgl/src/draw/lv_draw_rect.c ****     if(rin < 0) rin = 0;
 7316              		.loc 1 396 5 is_stmt 1 discriminator 4 view .LVU2539
 396:lvgl/lvgl/src/draw/lv_draw_rect.c ****     if(rin < 0) rin = 0;
 7317              		.loc 1 396 32 is_stmt 0 discriminator 4 view .LVU2540
 7318 00a0 A4B2     		uxth	r4, r4
 396:lvgl/lvgl/src/draw/lv_draw_rect.c ****     if(rin < 0) rin = 0;
 7319              		.loc 1 396 27 discriminator 4 view .LVU2541
 7320 00a2 1C1B     		subs	r4, r3, r4
 396:lvgl/lvgl/src/draw/lv_draw_rect.c ****     if(rin < 0) rin = 0;
 7321              		.loc 1 396 16 discriminator 4 view .LVU2542
 7322 00a4 24B2     		sxth	r4, r4
 7323              	.LVL737:
ARM GAS  C:\Users\gx\AppData\Local\Temp\ccP7i1j8.s 			page 209


 397:lvgl/lvgl/src/draw/lv_draw_rect.c **** 
 7324              		.loc 1 397 5 is_stmt 1 discriminator 4 view .LVU2543
 397:lvgl/lvgl/src/draw/lv_draw_rect.c **** 
 7325              		.loc 1 397 7 is_stmt 0 discriminator 4 view .LVU2544
 7326 00a6 002C     		cmp	r4, #0
 7327 00a8 25DB     		blt	.L393
 7328              	.LVL738:
 7329              	.L389:
 399:lvgl/lvgl/src/draw/lv_draw_rect.c **** 
 7330              		.loc 1 399 5 is_stmt 1 view .LVU2545
 7331 00aa 9178     		ldrb	r1, [r2, #2]	@ zero_extendqisi2
 7332 00ac 0391     		str	r1, [sp, #12]
 7333 00ae 0295     		str	r5, [sp, #8]
 7334 00b0 528B     		ldrh	r2, [r2, #26]
 7335              	.LVL739:
 399:lvgl/lvgl/src/draw/lv_draw_rect.c **** 
 7336              		.loc 1 399 5 is_stmt 0 view .LVU2546
 7337 00b2 ADF80420 		strh	r2, [sp, #4]	@ movhi
 7338 00b6 0094     		str	r4, [sp]
 7339 00b8 04AA     		add	r2, sp, #16
 7340 00ba 3146     		mov	r1, r6
 7341 00bc FFF7FEFF 		bl	draw_border_generic
 7342              	.LVL740:
 7343              	.L378:
 401:lvgl/lvgl/src/draw/lv_draw_rect.c **** 
 7344              		.loc 1 401 1 view .LVU2547
 7345 00c0 06B0     		add	sp, sp, #24
 7346              	.LCFI30:
 7347              		.cfi_remember_state
 7348              		.cfi_def_cfa_offset 32
 7349              		@ sp needed
 7350 00c2 BDE8F087 		pop	{r4, r5, r6, r7, r8, r9, r10, pc}
 7351              	.LVL741:
 7352              	.L381:
 7353              	.LCFI31:
 7354              		.cfi_restore_state
 391:lvgl/lvgl/src/draw/lv_draw_rect.c ****     area_inner.x2 -= ((dsc->border_side & LV_BORDER_SIDE_RIGHT) ? dsc->border_width : - (dsc->borde
 7355              		.loc 1 391 107 discriminator 2 view .LVU2548
 7356 00c6 13FA84F1 		uxtah	r1, r3, r4
 7357 00ca 89B2     		uxth	r1, r1
 391:lvgl/lvgl/src/draw/lv_draw_rect.c ****     area_inner.x2 -= ((dsc->border_side & LV_BORDER_SIDE_RIGHT) ? dsc->border_width : - (dsc->borde
 7358              		.loc 1 391 19 discriminator 2 view .LVU2549
 7359 00cc 4942     		rsbs	r1, r1, #0
 7360 00ce 89B2     		uxth	r1, r1
 7361 00d0 CDE7     		b	.L382
 7362              	.LVL742:
 7363              	.L383:
 392:lvgl/lvgl/src/draw/lv_draw_rect.c ****     area_inner.y1 += ((dsc->border_side & LV_BORDER_SIDE_TOP) ? dsc->border_width : - (dsc->border_
 7364              		.loc 1 392 108 discriminator 2 view .LVU2550
 7365 00d2 13FA84F1 		uxtah	r1, r3, r4
 7366 00d6 89B2     		uxth	r1, r1
 392:lvgl/lvgl/src/draw/lv_draw_rect.c ****     area_inner.y1 += ((dsc->border_side & LV_BORDER_SIDE_TOP) ? dsc->border_width : - (dsc->border_
 7367              		.loc 1 392 19 discriminator 2 view .LVU2551
 7368 00d8 4942     		rsbs	r1, r1, #0
 7369 00da 89B2     		uxth	r1, r1
 7370 00dc CEE7     		b	.L384
 7371              	.L385:
ARM GAS  C:\Users\gx\AppData\Local\Temp\ccP7i1j8.s 			page 210


 393:lvgl/lvgl/src/draw/lv_draw_rect.c ****     area_inner.y2 -= ((dsc->border_side & LV_BORDER_SIDE_BOTTOM) ? dsc->border_width : - (dsc->bord
 7372              		.loc 1 393 106 discriminator 2 view .LVU2552
 7373 00de 13FA84F1 		uxtah	r1, r3, r4
 7374 00e2 89B2     		uxth	r1, r1
 393:lvgl/lvgl/src/draw/lv_draw_rect.c ****     area_inner.y2 -= ((dsc->border_side & LV_BORDER_SIDE_BOTTOM) ? dsc->border_width : - (dsc->bord
 7375              		.loc 1 393 19 discriminator 2 view .LVU2553
 7376 00e4 4942     		rsbs	r1, r1, #0
 7377 00e6 89B2     		uxth	r1, r1
 7378 00e8 D0E7     		b	.L386
 7379              	.L387:
 394:lvgl/lvgl/src/draw/lv_draw_rect.c **** 
 7380              		.loc 1 394 109 discriminator 2 view .LVU2554
 7381 00ea 13FA84F1 		uxtah	r1, r3, r4
 7382 00ee 89B2     		uxth	r1, r1
 394:lvgl/lvgl/src/draw/lv_draw_rect.c **** 
 7383              		.loc 1 394 19 discriminator 2 view .LVU2555
 7384 00f0 4942     		rsbs	r1, r1, #0
 7385 00f2 89B2     		uxth	r1, r1
 7386 00f4 D1E7     		b	.L388
 7387              	.LVL743:
 7388              	.L393:
 397:lvgl/lvgl/src/draw/lv_draw_rect.c **** 
 7389              		.loc 1 397 21 view .LVU2556
 7390 00f6 0024     		movs	r4, #0
 7391              	.LVL744:
 397:lvgl/lvgl/src/draw/lv_draw_rect.c **** 
 7392              		.loc 1 397 21 view .LVU2557
 7393 00f8 D7E7     		b	.L389
 7394              		.cfi_endproc
 7395              	.LFE156:
 7397              		.section	.text.draw_outline,"ax",%progbits
 7398              		.align	1
 7399              		.syntax unified
 7400              		.thumb
 7401              		.thumb_func
 7402              		.fpu fpv4-sp-d16
 7404              	draw_outline:
 7405              	.LVL745:
 7406              	.LFB161:
1030:lvgl/lvgl/src/draw/lv_draw_rect.c ****     if(dsc->outline_opa <= LV_OPA_MIN) return;
 7407              		.loc 1 1030 1 is_stmt 1 view -0
 7408              		.cfi_startproc
 7409              		@ args = 0, pretend = 0, frame = 16
 7410              		@ frame_needed = 0, uses_anonymous_args = 0
1030:lvgl/lvgl/src/draw/lv_draw_rect.c ****     if(dsc->outline_opa <= LV_OPA_MIN) return;
 7411              		.loc 1 1030 1 is_stmt 0 view .LVU2559
 7412 0000 2DE9F041 		push	{r4, r5, r6, r7, r8, lr}
 7413              	.LCFI32:
 7414              		.cfi_def_cfa_offset 24
 7415              		.cfi_offset 4, -24
 7416              		.cfi_offset 5, -20
 7417              		.cfi_offset 6, -16
 7418              		.cfi_offset 7, -12
 7419              		.cfi_offset 8, -8
 7420              		.cfi_offset 14, -4
 7421 0004 88B0     		sub	sp, sp, #32
 7422              	.LCFI33:
ARM GAS  C:\Users\gx\AppData\Local\Temp\ccP7i1j8.s 			page 211


 7423              		.cfi_def_cfa_offset 56
 7424 0006 0646     		mov	r6, r0
 7425 0008 0846     		mov	r0, r1
 7426              	.LVL746:
1031:lvgl/lvgl/src/draw/lv_draw_rect.c ****     if(dsc->outline_width == 0) return;
 7427              		.loc 1 1031 5 is_stmt 1 view .LVU2560
1031:lvgl/lvgl/src/draw/lv_draw_rect.c ****     if(dsc->outline_width == 0) return;
 7428              		.loc 1 1031 11 is_stmt 0 view .LVU2561
 7429 000a 92F82610 		ldrb	r1, [r2, #38]	@ zero_extendqisi2
 7430              	.LVL747:
1031:lvgl/lvgl/src/draw/lv_draw_rect.c ****     if(dsc->outline_width == 0) return;
 7431              		.loc 1 1031 7 view .LVU2562
 7432 000e 0229     		cmp	r1, #2
 7433 0010 52D9     		bls	.L394
1032:lvgl/lvgl/src/draw/lv_draw_rect.c **** 
 7434              		.loc 1 1032 5 is_stmt 1 view .LVU2563
1032:lvgl/lvgl/src/draw/lv_draw_rect.c **** 
 7435              		.loc 1 1032 11 is_stmt 0 view .LVU2564
 7436 0012 B2F92230 		ldrsh	r3, [r2, #34]
1032:lvgl/lvgl/src/draw/lv_draw_rect.c **** 
 7437              		.loc 1 1032 7 view .LVU2565
 7438 0016 002B     		cmp	r3, #0
 7439 0018 4ED0     		beq	.L394
1034:lvgl/lvgl/src/draw/lv_draw_rect.c **** 
 7440              		.loc 1 1034 5 is_stmt 1 view .LVU2566
 7441              	.LVL748:
1036:lvgl/lvgl/src/draw/lv_draw_rect.c **** 
 7442              		.loc 1 1036 5 view .LVU2567
1039:lvgl/lvgl/src/draw/lv_draw_rect.c ****     lv_area_copy(&area_inner, coords);
 7443              		.loc 1 1039 5 view .LVU2568
1040:lvgl/lvgl/src/draw/lv_draw_rect.c **** 
 7444              		.loc 1 1040 5 view .LVU2569
 7445              	.LBB345:
 7446              	.LBI345:
 120:lvgl/lvgl/src/draw/../misc/lv_area.h **** {
 7447              		.loc 2 120 20 view .LVU2570
 7448              	.LBB346:
 122:lvgl/lvgl/src/draw/../misc/lv_area.h ****     dest->y1 = src->y1;
 7449              		.loc 2 122 5 view .LVU2571
 122:lvgl/lvgl/src/draw/../misc/lv_area.h ****     dest->y1 = src->y1;
 7450              		.loc 2 122 19 is_stmt 0 view .LVU2572
 7451 001a B6F90050 		ldrsh	r5, [r6]
 123:lvgl/lvgl/src/draw/../misc/lv_area.h ****     dest->x2 = src->x2;
 7452              		.loc 2 123 5 is_stmt 1 view .LVU2573
 123:lvgl/lvgl/src/draw/../misc/lv_area.h ****     dest->x2 = src->x2;
 7453              		.loc 2 123 19 is_stmt 0 view .LVU2574
 7454 001e B6F90270 		ldrsh	r7, [r6, #2]
 124:lvgl/lvgl/src/draw/../misc/lv_area.h ****     dest->y2 = src->y2;
 7455              		.loc 2 124 5 is_stmt 1 view .LVU2575
 124:lvgl/lvgl/src/draw/../misc/lv_area.h ****     dest->y2 = src->y2;
 7456              		.loc 2 124 19 is_stmt 0 view .LVU2576
 7457 0022 B6F904C0 		ldrsh	ip, [r6, #4]
 125:lvgl/lvgl/src/draw/../misc/lv_area.h **** }
 7458              		.loc 2 125 5 is_stmt 1 view .LVU2577
 125:lvgl/lvgl/src/draw/../misc/lv_area.h **** }
 7459              		.loc 2 125 19 is_stmt 0 view .LVU2578
 7460 0026 B6F90680 		ldrsh	r8, [r6, #6]
ARM GAS  C:\Users\gx\AppData\Local\Temp\ccP7i1j8.s 			page 212


 7461              	.LVL749:
 125:lvgl/lvgl/src/draw/../misc/lv_area.h **** }
 7462              		.loc 2 125 19 view .LVU2579
 7463              	.LBE346:
 7464              	.LBE345:
1043:lvgl/lvgl/src/draw/lv_draw_rect.c ****     area_inner.x1 -= pad;
 7465              		.loc 1 1043 5 is_stmt 1 view .LVU2580
1043:lvgl/lvgl/src/draw/lv_draw_rect.c ****     area_inner.x1 -= pad;
 7466              		.loc 1 1043 26 is_stmt 0 view .LVU2581
 7467 002a B2F92440 		ldrsh	r4, [r2, #36]
1043:lvgl/lvgl/src/draw/lv_draw_rect.c ****     area_inner.x1 -= pad;
 7468              		.loc 1 1043 16 view .LVU2582
 7469 002e 14B9     		cbnz	r4, .L396
1043:lvgl/lvgl/src/draw/lv_draw_rect.c ****     area_inner.x1 -= pad;
 7470              		.loc 1 1043 51 discriminator 1 view .LVU2583
 7471 0030 A4B2     		uxth	r4, r4
1043:lvgl/lvgl/src/draw/lv_draw_rect.c ****     area_inner.x1 -= pad;
 7472              		.loc 1 1043 65 discriminator 1 view .LVU2584
 7473 0032 013C     		subs	r4, r4, #1
1043:lvgl/lvgl/src/draw/lv_draw_rect.c ****     area_inner.x1 -= pad;
 7474              		.loc 1 1043 16 discriminator 1 view .LVU2585
 7475 0034 24B2     		sxth	r4, r4
 7476              	.L396:
 7477              	.LVL750:
1044:lvgl/lvgl/src/draw/lv_draw_rect.c ****     area_inner.y1 -= pad;
 7478              		.loc 1 1044 5 is_stmt 1 discriminator 4 view .LVU2586
1044:lvgl/lvgl/src/draw/lv_draw_rect.c ****     area_inner.y1 -= pad;
 7479              		.loc 1 1044 19 is_stmt 0 discriminator 4 view .LVU2587
 7480 0036 A4B2     		uxth	r4, r4
1044:lvgl/lvgl/src/draw/lv_draw_rect.c ****     area_inner.y1 -= pad;
 7481              		.loc 1 1044 19 discriminator 4 view .LVU2588
 7482 0038 2D1B     		subs	r5, r5, r4
 7483 003a 1FFA85FE 		uxth	lr, r5
 7484 003e ADF818E0 		strh	lr, [sp, #24]	@ movhi
1045:lvgl/lvgl/src/draw/lv_draw_rect.c ****     area_inner.x2 += pad;
 7485              		.loc 1 1045 5 is_stmt 1 discriminator 4 view .LVU2589
1045:lvgl/lvgl/src/draw/lv_draw_rect.c ****     area_inner.x2 += pad;
 7486              		.loc 1 1045 19 is_stmt 0 discriminator 4 view .LVU2590
 7487 0042 3F1B     		subs	r7, r7, r4
 7488 0044 BFB2     		uxth	r7, r7
 7489 0046 ADF81A70 		strh	r7, [sp, #26]	@ movhi
1046:lvgl/lvgl/src/draw/lv_draw_rect.c ****     area_inner.y2 += pad;
 7490              		.loc 1 1046 5 is_stmt 1 discriminator 4 view .LVU2591
1046:lvgl/lvgl/src/draw/lv_draw_rect.c ****     area_inner.y2 += pad;
 7491              		.loc 1 1046 19 is_stmt 0 discriminator 4 view .LVU2592
 7492 004a 04EB0C06 		add	r6, r4, ip
 7493              	.LVL751:
1046:lvgl/lvgl/src/draw/lv_draw_rect.c ****     area_inner.y2 += pad;
 7494              		.loc 1 1046 19 discriminator 4 view .LVU2593
 7495 004e B5B2     		uxth	r5, r6
 7496 0050 ADF81C50 		strh	r5, [sp, #28]	@ movhi
1047:lvgl/lvgl/src/draw/lv_draw_rect.c **** 
 7497              		.loc 1 1047 5 is_stmt 1 discriminator 4 view .LVU2594
1047:lvgl/lvgl/src/draw/lv_draw_rect.c **** 
 7498              		.loc 1 1047 19 is_stmt 0 discriminator 4 view .LVU2595
 7499 0054 4444     		add	r4, r4, r8
 7500              	.LVL752:
ARM GAS  C:\Users\gx\AppData\Local\Temp\ccP7i1j8.s 			page 213


1047:lvgl/lvgl/src/draw/lv_draw_rect.c **** 
 7501              		.loc 1 1047 19 discriminator 4 view .LVU2596
 7502 0056 A4B2     		uxth	r4, r4
 7503 0058 ADF81E40 		strh	r4, [sp, #30]	@ movhi
1049:lvgl/lvgl/src/draw/lv_draw_rect.c ****     lv_area_copy(&area_outer, &area_inner);
 7504              		.loc 1 1049 5 is_stmt 1 discriminator 4 view .LVU2597
1050:lvgl/lvgl/src/draw/lv_draw_rect.c **** 
 7505              		.loc 1 1050 5 discriminator 4 view .LVU2598
 7506              	.LVL753:
 122:lvgl/lvgl/src/draw/../misc/lv_area.h ****     dest->y1 = src->y1;
 7507              		.loc 2 122 5 discriminator 4 view .LVU2599
 123:lvgl/lvgl/src/draw/../misc/lv_area.h ****     dest->x2 = src->x2;
 7508              		.loc 2 123 5 discriminator 4 view .LVU2600
 124:lvgl/lvgl/src/draw/../misc/lv_area.h ****     dest->y2 = src->y2;
 7509              		.loc 2 124 5 discriminator 4 view .LVU2601
 125:lvgl/lvgl/src/draw/../misc/lv_area.h **** }
 7510              		.loc 2 125 5 discriminator 4 view .LVU2602
1052:lvgl/lvgl/src/draw/lv_draw_rect.c ****     area_outer.x2 += dsc->outline_width;
 7511              		.loc 1 1052 5 discriminator 4 view .LVU2603
1052:lvgl/lvgl/src/draw/lv_draw_rect.c ****     area_outer.x2 += dsc->outline_width;
 7512              		.loc 1 1052 25 is_stmt 0 discriminator 4 view .LVU2604
 7513 005c 9BB2     		uxth	r3, r3
1052:lvgl/lvgl/src/draw/lv_draw_rect.c ****     area_outer.x2 += dsc->outline_width;
 7514              		.loc 1 1052 19 discriminator 4 view .LVU2605
 7515 005e AEEB0306 		sub	r6, lr, r3
 7516 0062 ADF81060 		strh	r6, [sp, #16]	@ movhi
1053:lvgl/lvgl/src/draw/lv_draw_rect.c ****     area_outer.y1 -= dsc->outline_width;
 7517              		.loc 1 1053 5 is_stmt 1 discriminator 4 view .LVU2606
1053:lvgl/lvgl/src/draw/lv_draw_rect.c ****     area_outer.y1 -= dsc->outline_width;
 7518              		.loc 1 1053 19 is_stmt 0 discriminator 4 view .LVU2607
 7519 0066 EE18     		adds	r6, r5, r3
 7520 0068 ADF81460 		strh	r6, [sp, #20]	@ movhi
1054:lvgl/lvgl/src/draw/lv_draw_rect.c ****     area_outer.y2 += dsc->outline_width;
 7521              		.loc 1 1054 5 is_stmt 1 discriminator 4 view .LVU2608
1054:lvgl/lvgl/src/draw/lv_draw_rect.c ****     area_outer.y2 += dsc->outline_width;
 7522              		.loc 1 1054 19 is_stmt 0 discriminator 4 view .LVU2609
 7523 006c FE1A     		subs	r6, r7, r3
 7524 006e ADF81260 		strh	r6, [sp, #18]	@ movhi
1055:lvgl/lvgl/src/draw/lv_draw_rect.c **** 
 7525              		.loc 1 1055 5 is_stmt 1 discriminator 4 view .LVU2610
1055:lvgl/lvgl/src/draw/lv_draw_rect.c **** 
 7526              		.loc 1 1055 19 is_stmt 0 discriminator 4 view .LVU2611
 7527 0072 E618     		adds	r6, r4, r3
 7528 0074 ADF81660 		strh	r6, [sp, #22]	@ movhi
1058:lvgl/lvgl/src/draw/lv_draw_rect.c ****     int32_t inner_h = lv_area_get_height(&area_inner);
 7529              		.loc 1 1058 5 is_stmt 1 discriminator 4 view .LVU2612
 7530              	.LVL754:
 7531              	.LBB347:
 7532              	.LBI347:
 133:lvgl/lvgl/src/draw/../misc/lv_area.h **** {
 7533              		.loc 2 133 26 discriminator 4 view .LVU2613
 7534              	.LBB348:
 135:lvgl/lvgl/src/draw/../misc/lv_area.h **** }
 7535              		.loc 2 135 5 discriminator 4 view .LVU2614
 135:lvgl/lvgl/src/draw/../misc/lv_area.h **** }
 7536              		.loc 2 135 36 is_stmt 0 discriminator 4 view .LVU2615
 7537 0078 A5EB0E05 		sub	r5, r5, lr
ARM GAS  C:\Users\gx\AppData\Local\Temp\ccP7i1j8.s 			page 214


 7538 007c ADB2     		uxth	r5, r5
 135:lvgl/lvgl/src/draw/../misc/lv_area.h **** }
 7539              		.loc 2 135 49 discriminator 4 view .LVU2616
 7540 007e 0135     		adds	r5, r5, #1
 135:lvgl/lvgl/src/draw/../misc/lv_area.h **** }
 7541              		.loc 2 135 12 discriminator 4 view .LVU2617
 7542 0080 2DB2     		sxth	r5, r5
 7543              	.LVL755:
 135:lvgl/lvgl/src/draw/../misc/lv_area.h **** }
 7544              		.loc 2 135 12 discriminator 4 view .LVU2618
 7545              	.LBE348:
 7546              	.LBE347:
1059:lvgl/lvgl/src/draw/lv_draw_rect.c ****     int32_t rin = dsc->radius;
 7547              		.loc 1 1059 5 is_stmt 1 discriminator 4 view .LVU2619
 7548              	.LBB349:
 7549              	.LBI349:
 143:lvgl/lvgl/src/draw/../misc/lv_area.h **** {
 7550              		.loc 2 143 26 discriminator 4 view .LVU2620
 7551              	.LBB350:
 7552              		.loc 2 145 5 discriminator 4 view .LVU2621
 7553              		.loc 2 145 36 is_stmt 0 discriminator 4 view .LVU2622
 7554 0082 E41B     		subs	r4, r4, r7
 7555 0084 A4B2     		uxth	r4, r4
 7556              		.loc 2 145 49 discriminator 4 view .LVU2623
 7557 0086 0134     		adds	r4, r4, #1
 7558              		.loc 2 145 12 discriminator 4 view .LVU2624
 7559 0088 24B2     		sxth	r4, r4
 7560              	.LVL756:
 7561              		.loc 2 145 12 discriminator 4 view .LVU2625
 7562              	.LBE350:
 7563              	.LBE349:
1060:lvgl/lvgl/src/draw/lv_draw_rect.c ****     int32_t short_side = LV_MIN(inner_w, inner_h);
 7564              		.loc 1 1060 5 is_stmt 1 discriminator 4 view .LVU2626
1060:lvgl/lvgl/src/draw/lv_draw_rect.c ****     int32_t short_side = LV_MIN(inner_w, inner_h);
 7565              		.loc 1 1060 22 is_stmt 0 discriminator 4 view .LVU2627
 7566 008a B2F90060 		ldrsh	r6, [r2]
 7567              	.LVL757:
1061:lvgl/lvgl/src/draw/lv_draw_rect.c ****     if(rin > short_side >> 1) rin = short_side >> 1;
 7568              		.loc 1 1061 5 is_stmt 1 discriminator 4 view .LVU2628
1061:lvgl/lvgl/src/draw/lv_draw_rect.c ****     if(rin > short_side >> 1) rin = short_side >> 1;
 7569              		.loc 1 1061 13 is_stmt 0 discriminator 4 view .LVU2629
 7570 008e A542     		cmp	r5, r4
 7571 0090 A8BF     		it	ge
 7572 0092 2546     		movge	r5, r4
 7573              	.LVL758:
1062:lvgl/lvgl/src/draw/lv_draw_rect.c **** 
 7574              		.loc 1 1062 5 is_stmt 1 discriminator 4 view .LVU2630
1062:lvgl/lvgl/src/draw/lv_draw_rect.c **** 
 7575              		.loc 1 1062 25 is_stmt 0 discriminator 4 view .LVU2631
 7576 0094 6C10     		asrs	r4, r5, #1
 7577              	.LVL759:
1062:lvgl/lvgl/src/draw/lv_draw_rect.c **** 
 7578              		.loc 1 1062 7 discriminator 4 view .LVU2632
 7579 0096 B6EB650F 		cmp	r6, r5, asr #1
 7580 009a 00DC     		bgt	.L397
1060:lvgl/lvgl/src/draw/lv_draw_rect.c ****     int32_t short_side = LV_MIN(inner_w, inner_h);
 7581              		.loc 1 1060 13 view .LVU2633
ARM GAS  C:\Users\gx\AppData\Local\Temp\ccP7i1j8.s 			page 215


 7582 009c 3446     		mov	r4, r6
 7583              	.L397:
 7584              	.LVL760:
1064:lvgl/lvgl/src/draw/lv_draw_rect.c **** 
 7585              		.loc 1 1064 5 is_stmt 1 view .LVU2634
1064:lvgl/lvgl/src/draw/lv_draw_rect.c **** 
 7586              		.loc 1 1064 27 is_stmt 0 view .LVU2635
 7587 009e 2344     		add	r3, r3, r4
 7588              	.LVL761:
1066:lvgl/lvgl/src/draw/lv_draw_rect.c **** }
 7589              		.loc 1 1066 5 is_stmt 1 view .LVU2636
 7590 00a0 9578     		ldrb	r5, [r2, #2]	@ zero_extendqisi2
 7591              	.LVL762:
1066:lvgl/lvgl/src/draw/lv_draw_rect.c **** }
 7592              		.loc 1 1066 5 is_stmt 0 view .LVU2637
 7593 00a2 0395     		str	r5, [sp, #12]
 7594 00a4 0291     		str	r1, [sp, #8]
 7595 00a6 128C     		ldrh	r2, [r2, #32]
 7596              	.LVL763:
1066:lvgl/lvgl/src/draw/lv_draw_rect.c **** }
 7597              		.loc 1 1066 5 view .LVU2638
 7598 00a8 ADF80420 		strh	r2, [sp, #4]	@ movhi
 7599 00ac 0094     		str	r4, [sp]
 7600 00ae 1BB2     		sxth	r3, r3
1066:lvgl/lvgl/src/draw/lv_draw_rect.c **** }
 7601              		.loc 1 1066 5 view .LVU2639
 7602 00b0 06AA     		add	r2, sp, #24
 7603 00b2 04A9     		add	r1, sp, #16
 7604 00b4 FFF7FEFF 		bl	draw_border_generic
 7605              	.LVL764:
 7606              	.L394:
1067:lvgl/lvgl/src/draw/lv_draw_rect.c **** 
 7607              		.loc 1 1067 1 view .LVU2640
 7608 00b8 08B0     		add	sp, sp, #32
 7609              	.LCFI34:
 7610              		.cfi_def_cfa_offset 24
 7611              		@ sp needed
 7612 00ba BDE8F081 		pop	{r4, r5, r6, r7, r8, pc}
 7613              		.cfi_endproc
 7614              	.LFE161:
 7616              		.section	.text.lv_draw_rect,"ax",%progbits
 7617              		.align	1
 7618              		.global	lv_draw_rect
 7619              		.syntax unified
 7620              		.thumb
 7621              		.thumb_func
 7622              		.fpu fpv4-sp-d16
 7624              	lv_draw_rect:
 7625              	.LVL765:
 7626              	.LFB153:
  99:lvgl/lvgl/src/draw/lv_draw_rect.c ****     if(lv_area_get_height(coords) < 1 || lv_area_get_width(coords) < 1) return;
 7627              		.loc 1 99 1 is_stmt 1 view -0
 7628              		.cfi_startproc
 7629              		@ args = 0, pretend = 0, frame = 0
 7630              		@ frame_needed = 0, uses_anonymous_args = 0
  99:lvgl/lvgl/src/draw/lv_draw_rect.c ****     if(lv_area_get_height(coords) < 1 || lv_area_get_width(coords) < 1) return;
 7631              		.loc 1 99 1 is_stmt 0 view .LVU2642
ARM GAS  C:\Users\gx\AppData\Local\Temp\ccP7i1j8.s 			page 216


 7632 0000 70B5     		push	{r4, r5, r6, lr}
 7633              	.LCFI35:
 7634              		.cfi_def_cfa_offset 16
 7635              		.cfi_offset 4, -16
 7636              		.cfi_offset 5, -12
 7637              		.cfi_offset 6, -8
 7638              		.cfi_offset 14, -4
 7639 0002 1646     		mov	r6, r2
 100:lvgl/lvgl/src/draw/lv_draw_rect.c **** #if LV_DRAW_COMPLEX
 7640              		.loc 1 100 5 is_stmt 1 view .LVU2643
 7641              	.LVL766:
 7642              	.LBB351:
 7643              	.LBI351:
 143:lvgl/lvgl/src/draw/../misc/lv_area.h **** {
 7644              		.loc 2 143 26 view .LVU2644
 7645              	.LBB352:
 7646              		.loc 2 145 5 view .LVU2645
 7647              		.loc 2 145 31 is_stmt 0 view .LVU2646
 7648 0004 C388     		ldrh	r3, [r0, #6]
 7649              		.loc 2 145 44 view .LVU2647
 7650 0006 4288     		ldrh	r2, [r0, #2]
 7651              	.LVL767:
 7652              		.loc 2 145 36 view .LVU2648
 7653 0008 9B1A     		subs	r3, r3, r2
 7654 000a 9BB2     		uxth	r3, r3
 7655              		.loc 2 145 49 view .LVU2649
 7656 000c 0133     		adds	r3, r3, #1
 7657              		.loc 2 145 12 view .LVU2650
 7658 000e 1BB2     		sxth	r3, r3
 7659              	.LVL768:
 7660              		.loc 2 145 12 view .LVU2651
 7661              	.LBE352:
 7662              	.LBE351:
 100:lvgl/lvgl/src/draw/lv_draw_rect.c **** #if LV_DRAW_COMPLEX
 7663              		.loc 1 100 7 view .LVU2652
 7664 0010 002B     		cmp	r3, #0
 7665 0012 20DD     		ble	.L400
 7666 0014 0446     		mov	r4, r0
 7667 0016 0D46     		mov	r5, r1
 7668              	.LVL769:
 7669              	.LBB353:
 7670              	.LBI353:
 133:lvgl/lvgl/src/draw/../misc/lv_area.h **** {
 7671              		.loc 2 133 26 is_stmt 1 view .LVU2653
 7672              	.LBB354:
 135:lvgl/lvgl/src/draw/../misc/lv_area.h **** }
 7673              		.loc 2 135 5 view .LVU2654
 135:lvgl/lvgl/src/draw/../misc/lv_area.h **** }
 7674              		.loc 2 135 31 is_stmt 0 view .LVU2655
 7675 0018 8388     		ldrh	r3, [r0, #4]
 135:lvgl/lvgl/src/draw/../misc/lv_area.h **** }
 7676              		.loc 2 135 44 view .LVU2656
 7677 001a 0288     		ldrh	r2, [r0]
 135:lvgl/lvgl/src/draw/../misc/lv_area.h **** }
 7678              		.loc 2 135 36 view .LVU2657
 7679 001c 9B1A     		subs	r3, r3, r2
 7680 001e 9BB2     		uxth	r3, r3
ARM GAS  C:\Users\gx\AppData\Local\Temp\ccP7i1j8.s 			page 217


 135:lvgl/lvgl/src/draw/../misc/lv_area.h **** }
 7681              		.loc 2 135 49 view .LVU2658
 7682 0020 0133     		adds	r3, r3, #1
 135:lvgl/lvgl/src/draw/../misc/lv_area.h **** }
 7683              		.loc 2 135 12 view .LVU2659
 7684 0022 1BB2     		sxth	r3, r3
 7685              	.LVL770:
 135:lvgl/lvgl/src/draw/../misc/lv_area.h **** }
 7686              		.loc 2 135 12 view .LVU2660
 7687              	.LBE354:
 7688              	.LBE353:
 100:lvgl/lvgl/src/draw/lv_draw_rect.c **** #if LV_DRAW_COMPLEX
 7689              		.loc 1 100 39 view .LVU2661
 7690 0024 002B     		cmp	r3, #0
 7691 0026 16DD     		ble	.L400
 102:lvgl/lvgl/src/draw/lv_draw_rect.c **** #endif
 7692              		.loc 1 102 5 is_stmt 1 view .LVU2662
 7693 0028 3246     		mov	r2, r6
 7694 002a FFF7FEFF 		bl	draw_shadow
 7695              	.LVL771:
 105:lvgl/lvgl/src/draw/lv_draw_rect.c ****     draw_bg_img(coords, clip, dsc);
 7696              		.loc 1 105 5 view .LVU2663
 7697 002e 3246     		mov	r2, r6
 7698 0030 2946     		mov	r1, r5
 7699 0032 2046     		mov	r0, r4
 7700 0034 FFF7FEFF 		bl	draw_bg
 7701              	.LVL772:
 106:lvgl/lvgl/src/draw/lv_draw_rect.c **** 
 7702              		.loc 1 106 5 view .LVU2664
 7703 0038 3246     		mov	r2, r6
 7704 003a 2946     		mov	r1, r5
 7705 003c 2046     		mov	r0, r4
 7706 003e FFF7FEFF 		bl	draw_bg_img
 7707              	.LVL773:
 108:lvgl/lvgl/src/draw/lv_draw_rect.c **** 
 7708              		.loc 1 108 5 view .LVU2665
 7709 0042 3246     		mov	r2, r6
 7710 0044 2946     		mov	r1, r5
 7711 0046 2046     		mov	r0, r4
 7712 0048 FFF7FEFF 		bl	draw_border
 7713              	.LVL774:
 110:lvgl/lvgl/src/draw/lv_draw_rect.c **** 
 7714              		.loc 1 110 5 view .LVU2666
 7715 004c 3246     		mov	r2, r6
 7716 004e 2946     		mov	r1, r5
 7717 0050 2046     		mov	r0, r4
 7718 0052 FFF7FEFF 		bl	draw_outline
 7719              	.LVL775:
 112:lvgl/lvgl/src/draw/lv_draw_rect.c **** }
 7720              		.loc 1 112 30 view .LVU2667
 7721              	.L400:
 113:lvgl/lvgl/src/draw/lv_draw_rect.c **** 
 7722              		.loc 1 113 1 is_stmt 0 view .LVU2668
 7723 0056 70BD     		pop	{r4, r5, r6, pc}
 113:lvgl/lvgl/src/draw/lv_draw_rect.c **** 
 7724              		.loc 1 113 1 view .LVU2669
 7725              		.cfi_endproc
ARM GAS  C:\Users\gx\AppData\Local\Temp\ccP7i1j8.s 			page 218


 7726              	.LFE153:
 7728              		.section	.rodata.__func__.10006,"a"
 7729              		.align	2
 7730              		.set	.LANCHOR0,. + 0
 7733              	__func__.10006:
 7734 0000 64726177 		.ascii	"draw_bg_img\000"
 7734      5F62675F 
 7734      696D6700 
 7735              		.text
 7736              	.Letext0:
 7737              		.file 4 "c:\\program files (x86)\\gnu arm embedded toolchain\\9 2020-q2-update\\arm-none-eabi\\inc
 7738              		.file 5 "c:\\program files (x86)\\gnu arm embedded toolchain\\9 2020-q2-update\\arm-none-eabi\\inc
 7739              		.file 6 "lvgl/lvgl/src/draw/../misc/lv_types.h"
 7740              		.file 7 "c:\\program files (x86)\\gnu arm embedded toolchain\\9 2020-q2-update\\lib\\gcc\\arm-none
 7741              		.file 8 "c:\\program files (x86)\\gnu arm embedded toolchain\\9 2020-q2-update\\arm-none-eabi\\inc
 7742              		.file 9 "c:\\program files (x86)\\gnu arm embedded toolchain\\9 2020-q2-update\\arm-none-eabi\\inc
 7743              		.file 10 "c:\\program files (x86)\\gnu arm embedded toolchain\\9 2020-q2-update\\arm-none-eabi\\in
 7744              		.file 11 "lvgl/lvgl/src/draw/../misc/../font/lv_font.h"
 7745              		.file 12 "lvgl/lvgl/src/draw/../misc/lv_txt.h"
 7746              		.file 13 "lvgl/lvgl/src/draw/../misc/lv_bidi.h"
 7747              		.file 14 "lvgl/lvgl/src/draw/../misc/lv_style.h"
 7748              		.file 15 "lvgl/lvgl/src/draw/lv_draw_mask.h"
 7749              		.file 16 "lvgl/lvgl/src/draw/lv_draw_rect.h"
 7750              		.file 17 "lvgl/lvgl/src/draw/../misc/../draw/lv_img_buf.h"
 7751              		.file 18 "lvgl/lvgl/src/draw/../misc/../draw/lv_img_decoder.h"
 7752              		.file 19 "lvgl/lvgl/src/draw/../misc/../draw/lv_draw_label.h"
 7753              		.file 20 "lvgl/lvgl/src/draw/../misc/../draw/lv_draw_img.h"
 7754              		.file 21 "d:\\practise\\f407_disc\\lvgl\\lvgl\\src\\misc\\lv_ll.h"
 7755              		.file 22 "lvgl/lvgl/src/draw/../core/lv_obj.h"
 7756              		.file 23 "lvgl/lvgl/src/draw/../core/lv_group.h"
 7757              		.file 24 "lvgl/lvgl/src/draw/../core/lv_obj_scroll.h"
 7758              		.file 25 "lvgl/lvgl/src/draw/../core/lv_obj_style.h"
 7759              		.file 26 "lvgl/lvgl/src/draw/../core/lv_obj_class.h"
 7760              		.file 27 "lvgl/lvgl/src/draw/../core/lv_event.h"
 7761              		.file 28 "lvgl/lvgl/src/draw/lv_draw_blend.h"
 7762              		.file 29 "d:\\practise\\f407_disc\\lvgl\\lvgl\\src\\misc\\lv_mem.h"
 7763              		.file 30 "d:\\practise\\f407_disc\\lvgl\\lvgl\\src\\misc\\lv_log.h"
ARM GAS  C:\Users\gx\AppData\Local\Temp\ccP7i1j8.s 			page 219


DEFINED SYMBOLS
                            *ABS*:00000000 lv_draw_rect.c
C:\Users\gx\AppData\Local\Temp\ccP7i1j8.s:18     .text.draw_border_simple:00000000 $t
C:\Users\gx\AppData\Local\Temp\ccP7i1j8.s:25     .text.draw_border_simple:00000000 draw_border_simple
C:\Users\gx\AppData\Local\Temp\ccP7i1j8.s:250    .text.shadow_blur_corner:00000000 $t
C:\Users\gx\AppData\Local\Temp\ccP7i1j8.s:256    .text.shadow_blur_corner:00000000 shadow_blur_corner
C:\Users\gx\AppData\Local\Temp\ccP7i1j8.s:667    .text.shadow_draw_corner_buf:00000000 $t
C:\Users\gx\AppData\Local\Temp\ccP7i1j8.s:673    .text.shadow_draw_corner_buf:00000000 shadow_draw_corner_buf
C:\Users\gx\AppData\Local\Temp\ccP7i1j8.s:1105   .text.draw_shadow:00000000 $t
C:\Users\gx\AppData\Local\Temp\ccP7i1j8.s:1111   .text.draw_shadow:00000000 draw_shadow
C:\Users\gx\AppData\Local\Temp\ccP7i1j8.s:3809   .rodata.draw_bg_img.str1.4:00000000 $d
C:\Users\gx\AppData\Local\Temp\ccP7i1j8.s:3816   .text.draw_bg_img:00000000 $t
C:\Users\gx\AppData\Local\Temp\ccP7i1j8.s:3822   .text.draw_bg_img:00000000 draw_bg_img
C:\Users\gx\AppData\Local\Temp\ccP7i1j8.s:4265   .text.draw_bg_img:00000228 $d
C:\Users\gx\AppData\Local\Temp\ccP7i1j8.s:4274   .text.draw_bg:00000000 $t
C:\Users\gx\AppData\Local\Temp\ccP7i1j8.s:4280   .text.draw_bg:00000000 draw_bg
C:\Users\gx\AppData\Local\Temp\ccP7i1j8.s:5233   .text.draw_bg:000003c0 $d
C:\Users\gx\AppData\Local\Temp\ccP7i1j8.s:5241   .text.draw_bg:000003c4 $t
C:\Users\gx\AppData\Local\Temp\ccP7i1j8.s:5864   .text.draw_bg:00000660 $d
C:\Users\gx\AppData\Local\Temp\ccP7i1j8.s:5869   .text.lv_draw_rect_dsc_init:00000000 $t
C:\Users\gx\AppData\Local\Temp\ccP7i1j8.s:5876   .text.lv_draw_rect_dsc_init:00000000 lv_draw_rect_dsc_init
C:\Users\gx\AppData\Local\Temp\ccP7i1j8.s:6011   .text.lv_draw_rect_dsc_init:0000003c $d
C:\Users\gx\AppData\Local\Temp\ccP7i1j8.s:6016   .text.draw_border_generic:00000000 $t
C:\Users\gx\AppData\Local\Temp\ccP7i1j8.s:6023   .text.draw_border_generic:00000000 draw_border_generic
C:\Users\gx\AppData\Local\Temp\ccP7i1j8.s:7137   .text.draw_border:00000000 $t
C:\Users\gx\AppData\Local\Temp\ccP7i1j8.s:7143   .text.draw_border:00000000 draw_border
C:\Users\gx\AppData\Local\Temp\ccP7i1j8.s:7398   .text.draw_outline:00000000 $t
C:\Users\gx\AppData\Local\Temp\ccP7i1j8.s:7404   .text.draw_outline:00000000 draw_outline
C:\Users\gx\AppData\Local\Temp\ccP7i1j8.s:7617   .text.lv_draw_rect:00000000 $t
C:\Users\gx\AppData\Local\Temp\ccP7i1j8.s:7624   .text.lv_draw_rect:00000000 lv_draw_rect
C:\Users\gx\AppData\Local\Temp\ccP7i1j8.s:7729   .rodata.__func__.10006:00000000 $d
C:\Users\gx\AppData\Local\Temp\ccP7i1j8.s:7733   .rodata.__func__.10006:00000000 __func__.10006

UNDEFINED SYMBOLS
_lv_blend_fill
lv_mem_buf_get
lv_memcpy
lv_mem_buf_release
lv_draw_mask_radius_init
lv_memset_00
lv_memset_ff
lv_draw_mask_free_param
_lv_area_intersect
lv_area_increase
lv_draw_mask_is_any
lv_draw_mask_add
_lv_area_is_in
_lv_area_is_out
lv_draw_mask_apply
lv_memset
lv_draw_mask_remove_id
lv_img_src_get_type
lv_img_decoder_get_info
_lv_log_add
lv_txt_get_size
lv_draw_label_dsc_init
lv_draw_label
ARM GAS  C:\Users\gx\AppData\Local\Temp\ccP7i1j8.s 			page 220


lv_draw_img_dsc_init
lv_draw_img
_lv_blend_map
lv_font_montserrat_14
