ARM GAS  C:\Users\gx\AppData\Local\Temp\ccaPw1qV.s 			page 1


   1              		.cpu cortex-m4
   2              		.eabi_attribute 27, 1
   3              		.eabi_attribute 28, 1
   4              		.eabi_attribute 20, 1
   5              		.eabi_attribute 21, 1
   6              		.eabi_attribute 23, 3
   7              		.eabi_attribute 24, 1
   8              		.eabi_attribute 25, 1
   9              		.eabi_attribute 26, 1
  10              		.eabi_attribute 30, 1
  11              		.eabi_attribute 34, 1
  12              		.eabi_attribute 18, 4
  13              		.file	"lv_example_dropdown_2.c"
  14              		.text
  15              	.Ltext0:
  16              		.cfi_sections	.debug_frame
  17              		.section	.rodata.lv_example_dropdown_2.str1.4,"aMS",%progbits,1
  18              		.align	2
  19              	.LC0:
  20 0000 4170706C 		.ascii	"Apple\012Banana\012Orange\012Melon\000"
  20      650A4261 
  20      6E616E61 
  20      0A4F7261 
  20      6E67650A 
  21 001a 0000     		.align	2
  22              	.LC1:
  23 001c EF81B700 		.ascii	"\357\201\267\000"
  24              		.align	2
  25              	.LC2:
  26 0020 EF819400 		.ascii	"\357\201\224\000"
  27              		.align	2
  28              	.LC3:
  29 0024 EF819300 		.ascii	"\357\201\223\000"
  30              		.section	.text.lv_example_dropdown_2,"ax",%progbits
  31              		.align	1
  32              		.global	lv_example_dropdown_2
  33              		.arch armv7e-m
  34              		.syntax unified
  35              		.thumb
  36              		.thumb_func
  37              		.fpu fpv4-sp-d16
  39              	lv_example_dropdown_2:
  40              	.LFB189:
  41              		.file 1 "lvgl/lvgl/examples/widgets/dropdown/lv_example_dropdown_2.c"
   1:lvgl/lvgl/examples/widgets/dropdown/lv_example_dropdown_2.c **** #include "../../lv_examples.h"
   2:lvgl/lvgl/examples/widgets/dropdown/lv_example_dropdown_2.c **** #if LV_USE_DROPDOWN && LV_BUILD_EXAMPLES
   3:lvgl/lvgl/examples/widgets/dropdown/lv_example_dropdown_2.c **** 
   4:lvgl/lvgl/examples/widgets/dropdown/lv_example_dropdown_2.c **** 
   5:lvgl/lvgl/examples/widgets/dropdown/lv_example_dropdown_2.c **** /**
   6:lvgl/lvgl/examples/widgets/dropdown/lv_example_dropdown_2.c ****  * Create a drop down, up, left and right menus
   7:lvgl/lvgl/examples/widgets/dropdown/lv_example_dropdown_2.c ****  */
   8:lvgl/lvgl/examples/widgets/dropdown/lv_example_dropdown_2.c **** void lv_example_dropdown_2(void)
   9:lvgl/lvgl/examples/widgets/dropdown/lv_example_dropdown_2.c **** {
  42              		.loc 1 9 1 view -0
  43              		.cfi_startproc
  44              		@ args = 0, pretend = 0, frame = 0
  45              		@ frame_needed = 0, uses_anonymous_args = 0
ARM GAS  C:\Users\gx\AppData\Local\Temp\ccaPw1qV.s 			page 2


  46 0000 38B5     		push	{r3, r4, r5, lr}
  47              	.LCFI0:
  48              		.cfi_def_cfa_offset 16
  49              		.cfi_offset 3, -16
  50              		.cfi_offset 4, -12
  51              		.cfi_offset 5, -8
  52              		.cfi_offset 14, -4
  10:lvgl/lvgl/examples/widgets/dropdown/lv_example_dropdown_2.c ****     static const char * opts = "Apple\n"
  53              		.loc 1 10 5 view .LVU1
  11:lvgl/lvgl/examples/widgets/dropdown/lv_example_dropdown_2.c ****                                "Banana\n"
  12:lvgl/lvgl/examples/widgets/dropdown/lv_example_dropdown_2.c ****                                "Orange\n"
  13:lvgl/lvgl/examples/widgets/dropdown/lv_example_dropdown_2.c ****                                "Melon";
  14:lvgl/lvgl/examples/widgets/dropdown/lv_example_dropdown_2.c **** 
  15:lvgl/lvgl/examples/widgets/dropdown/lv_example_dropdown_2.c ****     lv_obj_t * dd;
  54              		.loc 1 15 5 view .LVU2
  16:lvgl/lvgl/examples/widgets/dropdown/lv_example_dropdown_2.c ****     dd = lv_dropdown_create(lv_scr_act());
  55              		.loc 1 16 5 view .LVU3
  56              	.LBB10:
  57              	.LBI10:
  58              		.file 2 "d:\\practise\\f407_disc\\lvgl\\lvgl\\src/core/lv_disp.h"
   1:d:\practise\f407_disc\lvgl\lvgl\src/core\lv_disp.h **** /**
   2:d:\practise\f407_disc\lvgl\lvgl\src/core\lv_disp.h ****  * @file lv_disp.h
   3:d:\practise\f407_disc\lvgl\lvgl\src/core\lv_disp.h ****  *
   4:d:\practise\f407_disc\lvgl\lvgl\src/core\lv_disp.h ****  */
   5:d:\practise\f407_disc\lvgl\lvgl\src/core\lv_disp.h **** 
   6:d:\practise\f407_disc\lvgl\lvgl\src/core\lv_disp.h **** #ifndef LV_DISP_H
   7:d:\practise\f407_disc\lvgl\lvgl\src/core\lv_disp.h **** #define LV_DISP_H
   8:d:\practise\f407_disc\lvgl\lvgl\src/core\lv_disp.h **** 
   9:d:\practise\f407_disc\lvgl\lvgl\src/core\lv_disp.h **** #ifdef __cplusplus
  10:d:\practise\f407_disc\lvgl\lvgl\src/core\lv_disp.h **** extern "C" {
  11:d:\practise\f407_disc\lvgl\lvgl\src/core\lv_disp.h **** #endif
  12:d:\practise\f407_disc\lvgl\lvgl\src/core\lv_disp.h **** 
  13:d:\practise\f407_disc\lvgl\lvgl\src/core\lv_disp.h **** /*********************
  14:d:\practise\f407_disc\lvgl\lvgl\src/core\lv_disp.h ****  *      INCLUDES
  15:d:\practise\f407_disc\lvgl\lvgl\src/core\lv_disp.h ****  *********************/
  16:d:\practise\f407_disc\lvgl\lvgl\src/core\lv_disp.h **** #include "../hal/lv_hal.h"
  17:d:\practise\f407_disc\lvgl\lvgl\src/core\lv_disp.h **** #include "lv_obj.h"
  18:d:\practise\f407_disc\lvgl\lvgl\src/core\lv_disp.h **** #include "lv_theme.h"
  19:d:\practise\f407_disc\lvgl\lvgl\src/core\lv_disp.h **** 
  20:d:\practise\f407_disc\lvgl\lvgl\src/core\lv_disp.h **** /*********************
  21:d:\practise\f407_disc\lvgl\lvgl\src/core\lv_disp.h ****  *      DEFINES
  22:d:\practise\f407_disc\lvgl\lvgl\src/core\lv_disp.h ****  *********************/
  23:d:\practise\f407_disc\lvgl\lvgl\src/core\lv_disp.h **** 
  24:d:\practise\f407_disc\lvgl\lvgl\src/core\lv_disp.h **** /**********************
  25:d:\practise\f407_disc\lvgl\lvgl\src/core\lv_disp.h ****  *      TYPEDEFS
  26:d:\practise\f407_disc\lvgl\lvgl\src/core\lv_disp.h ****  **********************/
  27:d:\practise\f407_disc\lvgl\lvgl\src/core\lv_disp.h **** 
  28:d:\practise\f407_disc\lvgl\lvgl\src/core\lv_disp.h **** typedef enum {
  29:d:\practise\f407_disc\lvgl\lvgl\src/core\lv_disp.h ****     LV_SCR_LOAD_ANIM_NONE,
  30:d:\practise\f407_disc\lvgl\lvgl\src/core\lv_disp.h ****     LV_SCR_LOAD_ANIM_OVER_LEFT,
  31:d:\practise\f407_disc\lvgl\lvgl\src/core\lv_disp.h ****     LV_SCR_LOAD_ANIM_OVER_RIGHT,
  32:d:\practise\f407_disc\lvgl\lvgl\src/core\lv_disp.h ****     LV_SCR_LOAD_ANIM_OVER_TOP,
  33:d:\practise\f407_disc\lvgl\lvgl\src/core\lv_disp.h ****     LV_SCR_LOAD_ANIM_OVER_BOTTOM,
  34:d:\practise\f407_disc\lvgl\lvgl\src/core\lv_disp.h ****     LV_SCR_LOAD_ANIM_MOVE_LEFT,
  35:d:\practise\f407_disc\lvgl\lvgl\src/core\lv_disp.h ****     LV_SCR_LOAD_ANIM_MOVE_RIGHT,
  36:d:\practise\f407_disc\lvgl\lvgl\src/core\lv_disp.h ****     LV_SCR_LOAD_ANIM_MOVE_TOP,
  37:d:\practise\f407_disc\lvgl\lvgl\src/core\lv_disp.h ****     LV_SCR_LOAD_ANIM_MOVE_BOTTOM,
ARM GAS  C:\Users\gx\AppData\Local\Temp\ccaPw1qV.s 			page 3


  38:d:\practise\f407_disc\lvgl\lvgl\src/core\lv_disp.h ****     LV_SCR_LOAD_ANIM_FADE_ON,
  39:d:\practise\f407_disc\lvgl\lvgl\src/core\lv_disp.h **** } lv_scr_load_anim_t;
  40:d:\practise\f407_disc\lvgl\lvgl\src/core\lv_disp.h **** 
  41:d:\practise\f407_disc\lvgl\lvgl\src/core\lv_disp.h **** /**********************
  42:d:\practise\f407_disc\lvgl\lvgl\src/core\lv_disp.h ****  * GLOBAL PROTOTYPES
  43:d:\practise\f407_disc\lvgl\lvgl\src/core\lv_disp.h ****  **********************/
  44:d:\practise\f407_disc\lvgl\lvgl\src/core\lv_disp.h **** 
  45:d:\practise\f407_disc\lvgl\lvgl\src/core\lv_disp.h **** /**
  46:d:\practise\f407_disc\lvgl\lvgl\src/core\lv_disp.h ****  * Return with a pointer to the active screen
  47:d:\practise\f407_disc\lvgl\lvgl\src/core\lv_disp.h ****  * @param disp pointer to display which active screen should be get. (NULL to use the default
  48:d:\practise\f407_disc\lvgl\lvgl\src/core\lv_disp.h ****  * screen)
  49:d:\practise\f407_disc\lvgl\lvgl\src/core\lv_disp.h ****  * @return pointer to the active screen object (loaded by 'lv_scr_load()')
  50:d:\practise\f407_disc\lvgl\lvgl\src/core\lv_disp.h ****  */
  51:d:\practise\f407_disc\lvgl\lvgl\src/core\lv_disp.h **** lv_obj_t * lv_disp_get_scr_act(lv_disp_t * disp);
  52:d:\practise\f407_disc\lvgl\lvgl\src/core\lv_disp.h **** 
  53:d:\practise\f407_disc\lvgl\lvgl\src/core\lv_disp.h **** /**
  54:d:\practise\f407_disc\lvgl\lvgl\src/core\lv_disp.h ****  * Return with a pointer to the previous screen. Only used during screen transitions.
  55:d:\practise\f407_disc\lvgl\lvgl\src/core\lv_disp.h ****  * @param disp pointer to display which previous screen should be get. (NULL to use the default
  56:d:\practise\f407_disc\lvgl\lvgl\src/core\lv_disp.h ****  * screen)
  57:d:\practise\f407_disc\lvgl\lvgl\src/core\lv_disp.h ****  * @return pointer to the previous screen object or NULL if not used now
  58:d:\practise\f407_disc\lvgl\lvgl\src/core\lv_disp.h ****  */
  59:d:\practise\f407_disc\lvgl\lvgl\src/core\lv_disp.h **** lv_obj_t * lv_disp_get_scr_prev(lv_disp_t * disp);
  60:d:\practise\f407_disc\lvgl\lvgl\src/core\lv_disp.h **** 
  61:d:\practise\f407_disc\lvgl\lvgl\src/core\lv_disp.h **** /**
  62:d:\practise\f407_disc\lvgl\lvgl\src/core\lv_disp.h ****  * Make a screen active
  63:d:\practise\f407_disc\lvgl\lvgl\src/core\lv_disp.h ****  * @param scr pointer to a screen
  64:d:\practise\f407_disc\lvgl\lvgl\src/core\lv_disp.h ****  */
  65:d:\practise\f407_disc\lvgl\lvgl\src/core\lv_disp.h **** void lv_disp_load_scr(lv_obj_t * scr);
  66:d:\practise\f407_disc\lvgl\lvgl\src/core\lv_disp.h **** 
  67:d:\practise\f407_disc\lvgl\lvgl\src/core\lv_disp.h **** /**
  68:d:\practise\f407_disc\lvgl\lvgl\src/core\lv_disp.h ****  * Return with the top layer. (Same on every screen and it is above the normal screen layer)
  69:d:\practise\f407_disc\lvgl\lvgl\src/core\lv_disp.h ****  * @param disp pointer to display which top layer should be get. (NULL to use the default screen)
  70:d:\practise\f407_disc\lvgl\lvgl\src/core\lv_disp.h ****  * @return pointer to the top layer object  (transparent screen sized lv_obj)
  71:d:\practise\f407_disc\lvgl\lvgl\src/core\lv_disp.h ****  */
  72:d:\practise\f407_disc\lvgl\lvgl\src/core\lv_disp.h **** lv_obj_t * lv_disp_get_layer_top(lv_disp_t * disp);
  73:d:\practise\f407_disc\lvgl\lvgl\src/core\lv_disp.h **** 
  74:d:\practise\f407_disc\lvgl\lvgl\src/core\lv_disp.h **** /**
  75:d:\practise\f407_disc\lvgl\lvgl\src/core\lv_disp.h ****  * Return with the sys. layer. (Same on every screen and it is above the normal screen and the top
  76:d:\practise\f407_disc\lvgl\lvgl\src/core\lv_disp.h ****  * layer)
  77:d:\practise\f407_disc\lvgl\lvgl\src/core\lv_disp.h ****  * @param disp pointer to display which sys. layer  should be get. (NULL to use the default screen)
  78:d:\practise\f407_disc\lvgl\lvgl\src/core\lv_disp.h ****  * @return pointer to the sys layer object  (transparent screen sized lv_obj)
  79:d:\practise\f407_disc\lvgl\lvgl\src/core\lv_disp.h ****  */
  80:d:\practise\f407_disc\lvgl\lvgl\src/core\lv_disp.h **** lv_obj_t * lv_disp_get_layer_sys(lv_disp_t * disp);
  81:d:\practise\f407_disc\lvgl\lvgl\src/core\lv_disp.h **** 
  82:d:\practise\f407_disc\lvgl\lvgl\src/core\lv_disp.h **** /**
  83:d:\practise\f407_disc\lvgl\lvgl\src/core\lv_disp.h ****  * Get the theme of a display
  84:d:\practise\f407_disc\lvgl\lvgl\src/core\lv_disp.h ****  * @param disp pointer to a display
  85:d:\practise\f407_disc\lvgl\lvgl\src/core\lv_disp.h ****  * @return the display's theme (can be NULL)
  86:d:\practise\f407_disc\lvgl\lvgl\src/core\lv_disp.h ****  */
  87:d:\practise\f407_disc\lvgl\lvgl\src/core\lv_disp.h **** void lv_disp_set_theme(lv_disp_t * disp, lv_theme_t * th);
  88:d:\practise\f407_disc\lvgl\lvgl\src/core\lv_disp.h **** 
  89:d:\practise\f407_disc\lvgl\lvgl\src/core\lv_disp.h **** /**
  90:d:\practise\f407_disc\lvgl\lvgl\src/core\lv_disp.h ****  * Get the theme of a display
  91:d:\practise\f407_disc\lvgl\lvgl\src/core\lv_disp.h ****  * @param disp pointer to a display
  92:d:\practise\f407_disc\lvgl\lvgl\src/core\lv_disp.h ****  * @return the display's theme (can be NULL)
  93:d:\practise\f407_disc\lvgl\lvgl\src/core\lv_disp.h ****  */
  94:d:\practise\f407_disc\lvgl\lvgl\src/core\lv_disp.h **** lv_theme_t * lv_disp_get_theme(lv_disp_t * disp);
ARM GAS  C:\Users\gx\AppData\Local\Temp\ccaPw1qV.s 			page 4


  95:d:\practise\f407_disc\lvgl\lvgl\src/core\lv_disp.h **** 
  96:d:\practise\f407_disc\lvgl\lvgl\src/core\lv_disp.h **** /**
  97:d:\practise\f407_disc\lvgl\lvgl\src/core\lv_disp.h ****  * Set the background color of a display
  98:d:\practise\f407_disc\lvgl\lvgl\src/core\lv_disp.h ****  * @param disp pointer to a display
  99:d:\practise\f407_disc\lvgl\lvgl\src/core\lv_disp.h ****  * @param color color of the background
 100:d:\practise\f407_disc\lvgl\lvgl\src/core\lv_disp.h ****  */
 101:d:\practise\f407_disc\lvgl\lvgl\src/core\lv_disp.h **** void lv_disp_set_bg_color(lv_disp_t * disp, lv_color_t color);
 102:d:\practise\f407_disc\lvgl\lvgl\src/core\lv_disp.h **** 
 103:d:\practise\f407_disc\lvgl\lvgl\src/core\lv_disp.h **** /**
 104:d:\practise\f407_disc\lvgl\lvgl\src/core\lv_disp.h ****  * Set the background image of a display
 105:d:\practise\f407_disc\lvgl\lvgl\src/core\lv_disp.h ****  * @param disp pointer to a display
 106:d:\practise\f407_disc\lvgl\lvgl\src/core\lv_disp.h ****  * @param img_src path to file or pointer to an `lv_img_dsc_t` variable
 107:d:\practise\f407_disc\lvgl\lvgl\src/core\lv_disp.h ****  */
 108:d:\practise\f407_disc\lvgl\lvgl\src/core\lv_disp.h **** void lv_disp_set_bg_image(lv_disp_t * disp, const void  * img_src);
 109:d:\practise\f407_disc\lvgl\lvgl\src/core\lv_disp.h **** 
 110:d:\practise\f407_disc\lvgl\lvgl\src/core\lv_disp.h **** /**
 111:d:\practise\f407_disc\lvgl\lvgl\src/core\lv_disp.h ****  * Opacity of the background
 112:d:\practise\f407_disc\lvgl\lvgl\src/core\lv_disp.h ****  * @param disp pointer to a display
 113:d:\practise\f407_disc\lvgl\lvgl\src/core\lv_disp.h ****  * @param opa opacity (0..255)
 114:d:\practise\f407_disc\lvgl\lvgl\src/core\lv_disp.h ****  */
 115:d:\practise\f407_disc\lvgl\lvgl\src/core\lv_disp.h **** void lv_disp_set_bg_opa(lv_disp_t * disp, lv_opa_t opa);
 116:d:\practise\f407_disc\lvgl\lvgl\src/core\lv_disp.h **** 
 117:d:\practise\f407_disc\lvgl\lvgl\src/core\lv_disp.h **** /**
 118:d:\practise\f407_disc\lvgl\lvgl\src/core\lv_disp.h ****  * Switch screen with animation
 119:d:\practise\f407_disc\lvgl\lvgl\src/core\lv_disp.h ****  * @param scr pointer to the new screen to load
 120:d:\practise\f407_disc\lvgl\lvgl\src/core\lv_disp.h ****  * @param anim_type type of the animation from `lv_scr_load_anim_t`. E.g.  `LV_SCR_LOAD_ANIM_MOVE_L
 121:d:\practise\f407_disc\lvgl\lvgl\src/core\lv_disp.h ****  * @param time time of the animation
 122:d:\practise\f407_disc\lvgl\lvgl\src/core\lv_disp.h ****  * @param delay delay before the transition
 123:d:\practise\f407_disc\lvgl\lvgl\src/core\lv_disp.h ****  * @param auto_del true: automatically delete the old screen
 124:d:\practise\f407_disc\lvgl\lvgl\src/core\lv_disp.h ****  */
 125:d:\practise\f407_disc\lvgl\lvgl\src/core\lv_disp.h **** void lv_scr_load_anim(lv_obj_t * scr, lv_scr_load_anim_t anim_type, uint32_t time, uint32_t delay, 
 126:d:\practise\f407_disc\lvgl\lvgl\src/core\lv_disp.h **** 
 127:d:\practise\f407_disc\lvgl\lvgl\src/core\lv_disp.h **** /**
 128:d:\practise\f407_disc\lvgl\lvgl\src/core\lv_disp.h ****  * Get elapsed time since last user activity on a display (e.g. click)
 129:d:\practise\f407_disc\lvgl\lvgl\src/core\lv_disp.h ****  * @param disp pointer to an display (NULL to get the overall smallest inactivity)
 130:d:\practise\f407_disc\lvgl\lvgl\src/core\lv_disp.h ****  * @return elapsed ticks (milliseconds) since the last activity
 131:d:\practise\f407_disc\lvgl\lvgl\src/core\lv_disp.h ****  */
 132:d:\practise\f407_disc\lvgl\lvgl\src/core\lv_disp.h **** uint32_t lv_disp_get_inactive_time(const lv_disp_t * disp);
 133:d:\practise\f407_disc\lvgl\lvgl\src/core\lv_disp.h **** 
 134:d:\practise\f407_disc\lvgl\lvgl\src/core\lv_disp.h **** /**
 135:d:\practise\f407_disc\lvgl\lvgl\src/core\lv_disp.h ****  * Manually trigger an activity on a display
 136:d:\practise\f407_disc\lvgl\lvgl\src/core\lv_disp.h ****  * @param disp pointer to an display (NULL to use the default display)
 137:d:\practise\f407_disc\lvgl\lvgl\src/core\lv_disp.h ****  */
 138:d:\practise\f407_disc\lvgl\lvgl\src/core\lv_disp.h **** void lv_disp_trig_activity(lv_disp_t * disp);
 139:d:\practise\f407_disc\lvgl\lvgl\src/core\lv_disp.h **** 
 140:d:\practise\f407_disc\lvgl\lvgl\src/core\lv_disp.h **** /**
 141:d:\practise\f407_disc\lvgl\lvgl\src/core\lv_disp.h ****  * Clean any CPU cache that is related to the display.
 142:d:\practise\f407_disc\lvgl\lvgl\src/core\lv_disp.h ****  * @param disp pointer to an display (NULL to use the default display)
 143:d:\practise\f407_disc\lvgl\lvgl\src/core\lv_disp.h ****  */
 144:d:\practise\f407_disc\lvgl\lvgl\src/core\lv_disp.h **** void lv_disp_clean_dcache(lv_disp_t * disp);
 145:d:\practise\f407_disc\lvgl\lvgl\src/core\lv_disp.h **** 
 146:d:\practise\f407_disc\lvgl\lvgl\src/core\lv_disp.h **** /**
 147:d:\practise\f407_disc\lvgl\lvgl\src/core\lv_disp.h ****  * Get a pointer to the screen refresher timer to
 148:d:\practise\f407_disc\lvgl\lvgl\src/core\lv_disp.h ****  * modify its parameters with `lv_timer_...` functions.
 149:d:\practise\f407_disc\lvgl\lvgl\src/core\lv_disp.h ****  * @param disp pointer to a display
 150:d:\practise\f407_disc\lvgl\lvgl\src/core\lv_disp.h ****  * @return pointer to the display refresher timer. (NULL on error)
 151:d:\practise\f407_disc\lvgl\lvgl\src/core\lv_disp.h ****  */
ARM GAS  C:\Users\gx\AppData\Local\Temp\ccaPw1qV.s 			page 5


 152:d:\practise\f407_disc\lvgl\lvgl\src/core\lv_disp.h **** lv_timer_t * _lv_disp_get_refr_timer(lv_disp_t * disp);
 153:d:\practise\f407_disc\lvgl\lvgl\src/core\lv_disp.h **** 
 154:d:\practise\f407_disc\lvgl\lvgl\src/core\lv_disp.h **** /*------------------------------------------------
 155:d:\practise\f407_disc\lvgl\lvgl\src/core\lv_disp.h ****  * To improve backward compatibility
 156:d:\practise\f407_disc\lvgl\lvgl\src/core\lv_disp.h ****  * Recommended only if you have one display
 157:d:\practise\f407_disc\lvgl\lvgl\src/core\lv_disp.h ****  *------------------------------------------------*/
 158:d:\practise\f407_disc\lvgl\lvgl\src/core\lv_disp.h **** 
 159:d:\practise\f407_disc\lvgl\lvgl\src/core\lv_disp.h **** /**
 160:d:\practise\f407_disc\lvgl\lvgl\src/core\lv_disp.h ****  * Get the active screen of the default display
 161:d:\practise\f407_disc\lvgl\lvgl\src/core\lv_disp.h ****  * @return pointer to the active screen
 162:d:\practise\f407_disc\lvgl\lvgl\src/core\lv_disp.h ****  */
 163:d:\practise\f407_disc\lvgl\lvgl\src/core\lv_disp.h **** static inline lv_obj_t * lv_scr_act(void)
  59              		.loc 2 163 26 view .LVU4
  60              	.LBB11:
 164:d:\practise\f407_disc\lvgl\lvgl\src/core\lv_disp.h **** {
 165:d:\practise\f407_disc\lvgl\lvgl\src/core\lv_disp.h ****     return lv_disp_get_scr_act(lv_disp_get_default());
  61              		.loc 2 165 5 view .LVU5
  62              		.loc 2 165 12 is_stmt 0 view .LVU6
  63 0002 FFF7FEFF 		bl	lv_disp_get_default
  64              	.LVL0:
  65 0006 FFF7FEFF 		bl	lv_disp_get_scr_act
  66              	.LVL1:
  67              	.LBE11:
  68              	.LBE10:
  69              		.loc 1 16 10 view .LVU7
  70 000a FFF7FEFF 		bl	lv_dropdown_create
  71              	.LVL2:
  72 000e 0446     		mov	r4, r0
  73              	.LVL3:
  17:lvgl/lvgl/examples/widgets/dropdown/lv_example_dropdown_2.c ****     lv_dropdown_set_options_static(dd, opts);
  74              		.loc 1 17 5 is_stmt 1 view .LVU8
  75 0010 2A4D     		ldr	r5, .L3
  76 0012 2946     		mov	r1, r5
  77 0014 FFF7FEFF 		bl	lv_dropdown_set_options_static
  78              	.LVL4:
  18:lvgl/lvgl/examples/widgets/dropdown/lv_example_dropdown_2.c ****     lv_obj_align(dd, LV_ALIGN_TOP_MID, 0, 10);
  79              		.loc 1 18 5 view .LVU9
  80 0018 0A23     		movs	r3, #10
  81 001a 0022     		movs	r2, #0
  82 001c 0221     		movs	r1, #2
  83 001e 2046     		mov	r0, r4
  84 0020 FFF7FEFF 		bl	lv_obj_align
  85              	.LVL5:
  19:lvgl/lvgl/examples/widgets/dropdown/lv_example_dropdown_2.c **** 
  20:lvgl/lvgl/examples/widgets/dropdown/lv_example_dropdown_2.c ****     dd = lv_dropdown_create(lv_scr_act());
  86              		.loc 1 20 5 view .LVU10
  87              	.LBB12:
  88              	.LBI12:
 163:d:\practise\f407_disc\lvgl\lvgl\src/core\lv_disp.h **** {
  89              		.loc 2 163 26 view .LVU11
  90              	.LBB13:
  91              		.loc 2 165 5 view .LVU12
  92              		.loc 2 165 12 is_stmt 0 view .LVU13
  93 0024 FFF7FEFF 		bl	lv_disp_get_default
  94              	.LVL6:
  95 0028 FFF7FEFF 		bl	lv_disp_get_scr_act
  96              	.LVL7:
ARM GAS  C:\Users\gx\AppData\Local\Temp\ccaPw1qV.s 			page 6


  97              	.LBE13:
  98              	.LBE12:
  99              		.loc 1 20 10 view .LVU14
 100 002c FFF7FEFF 		bl	lv_dropdown_create
 101              	.LVL8:
 102 0030 0446     		mov	r4, r0
 103              	.LVL9:
  21:lvgl/lvgl/examples/widgets/dropdown/lv_example_dropdown_2.c ****     lv_dropdown_set_options_static(dd, opts);
 104              		.loc 1 21 5 is_stmt 1 view .LVU15
 105 0032 2946     		mov	r1, r5
 106 0034 FFF7FEFF 		bl	lv_dropdown_set_options_static
 107              	.LVL10:
  22:lvgl/lvgl/examples/widgets/dropdown/lv_example_dropdown_2.c ****     lv_dropdown_set_dir(dd, LV_DIR_BOTTOM);
 108              		.loc 1 22 5 view .LVU16
 109 0038 0821     		movs	r1, #8
 110 003a 2046     		mov	r0, r4
 111 003c FFF7FEFF 		bl	lv_dropdown_set_dir
 112              	.LVL11:
  23:lvgl/lvgl/examples/widgets/dropdown/lv_example_dropdown_2.c ****     lv_dropdown_set_symbol(dd, LV_SYMBOL_UP);
 113              		.loc 1 23 5 view .LVU17
 114 0040 1F49     		ldr	r1, .L3+4
 115 0042 2046     		mov	r0, r4
 116 0044 FFF7FEFF 		bl	lv_dropdown_set_symbol
 117              	.LVL12:
  24:lvgl/lvgl/examples/widgets/dropdown/lv_example_dropdown_2.c ****     lv_obj_align(dd, LV_ALIGN_BOTTOM_MID, 0, -10);
 118              		.loc 1 24 5 view .LVU18
 119 0048 6FF00903 		mvn	r3, #9
 120 004c 0022     		movs	r2, #0
 121 004e 0521     		movs	r1, #5
 122 0050 2046     		mov	r0, r4
 123 0052 FFF7FEFF 		bl	lv_obj_align
 124              	.LVL13:
  25:lvgl/lvgl/examples/widgets/dropdown/lv_example_dropdown_2.c **** 
  26:lvgl/lvgl/examples/widgets/dropdown/lv_example_dropdown_2.c ****     dd = lv_dropdown_create(lv_scr_act());
 125              		.loc 1 26 5 view .LVU19
 126              	.LBB14:
 127              	.LBI14:
 163:d:\practise\f407_disc\lvgl\lvgl\src/core\lv_disp.h **** {
 128              		.loc 2 163 26 view .LVU20
 129              	.LBB15:
 130              		.loc 2 165 5 view .LVU21
 131              		.loc 2 165 12 is_stmt 0 view .LVU22
 132 0056 FFF7FEFF 		bl	lv_disp_get_default
 133              	.LVL14:
 134 005a FFF7FEFF 		bl	lv_disp_get_scr_act
 135              	.LVL15:
 136              	.LBE15:
 137              	.LBE14:
 138              		.loc 1 26 10 view .LVU23
 139 005e FFF7FEFF 		bl	lv_dropdown_create
 140              	.LVL16:
 141 0062 0446     		mov	r4, r0
 142              	.LVL17:
  27:lvgl/lvgl/examples/widgets/dropdown/lv_example_dropdown_2.c ****     lv_dropdown_set_options_static(dd, opts);
 143              		.loc 1 27 5 is_stmt 1 view .LVU24
 144 0064 2946     		mov	r1, r5
 145 0066 FFF7FEFF 		bl	lv_dropdown_set_options_static
ARM GAS  C:\Users\gx\AppData\Local\Temp\ccaPw1qV.s 			page 7


 146              	.LVL18:
  28:lvgl/lvgl/examples/widgets/dropdown/lv_example_dropdown_2.c ****     lv_dropdown_set_dir(dd, LV_DIR_RIGHT);
 147              		.loc 1 28 5 view .LVU25
 148 006a 0221     		movs	r1, #2
 149 006c 2046     		mov	r0, r4
 150 006e FFF7FEFF 		bl	lv_dropdown_set_dir
 151              	.LVL19:
  29:lvgl/lvgl/examples/widgets/dropdown/lv_example_dropdown_2.c ****     lv_dropdown_set_symbol(dd, LV_SYMBOL_RIGHT);
 152              		.loc 1 29 5 view .LVU26
 153 0072 1449     		ldr	r1, .L3+8
 154 0074 2046     		mov	r0, r4
 155 0076 FFF7FEFF 		bl	lv_dropdown_set_symbol
 156              	.LVL20:
  30:lvgl/lvgl/examples/widgets/dropdown/lv_example_dropdown_2.c ****     lv_obj_align(dd, LV_ALIGN_LEFT_MID, 10, 0);
 157              		.loc 1 30 5 view .LVU27
 158 007a 0023     		movs	r3, #0
 159 007c 0A22     		movs	r2, #10
 160 007e 0721     		movs	r1, #7
 161 0080 2046     		mov	r0, r4
 162 0082 FFF7FEFF 		bl	lv_obj_align
 163              	.LVL21:
  31:lvgl/lvgl/examples/widgets/dropdown/lv_example_dropdown_2.c **** 
  32:lvgl/lvgl/examples/widgets/dropdown/lv_example_dropdown_2.c ****     dd = lv_dropdown_create(lv_scr_act());
 164              		.loc 1 32 5 view .LVU28
 165              	.LBB16:
 166              	.LBI16:
 163:d:\practise\f407_disc\lvgl\lvgl\src/core\lv_disp.h **** {
 167              		.loc 2 163 26 view .LVU29
 168              	.LBB17:
 169              		.loc 2 165 5 view .LVU30
 170              		.loc 2 165 12 is_stmt 0 view .LVU31
 171 0086 FFF7FEFF 		bl	lv_disp_get_default
 172              	.LVL22:
 173 008a FFF7FEFF 		bl	lv_disp_get_scr_act
 174              	.LVL23:
 175              	.LBE17:
 176              	.LBE16:
 177              		.loc 1 32 10 view .LVU32
 178 008e FFF7FEFF 		bl	lv_dropdown_create
 179              	.LVL24:
 180 0092 0446     		mov	r4, r0
 181              	.LVL25:
  33:lvgl/lvgl/examples/widgets/dropdown/lv_example_dropdown_2.c ****     lv_dropdown_set_options_static(dd, opts);
 182              		.loc 1 33 5 is_stmt 1 view .LVU33
 183 0094 2946     		mov	r1, r5
 184 0096 FFF7FEFF 		bl	lv_dropdown_set_options_static
 185              	.LVL26:
  34:lvgl/lvgl/examples/widgets/dropdown/lv_example_dropdown_2.c ****     lv_dropdown_set_dir(dd, LV_DIR_LEFT);
 186              		.loc 1 34 5 view .LVU34
 187 009a 0121     		movs	r1, #1
 188 009c 2046     		mov	r0, r4
 189 009e FFF7FEFF 		bl	lv_dropdown_set_dir
 190              	.LVL27:
  35:lvgl/lvgl/examples/widgets/dropdown/lv_example_dropdown_2.c ****     lv_dropdown_set_symbol(dd, LV_SYMBOL_LEFT);
 191              		.loc 1 35 5 view .LVU35
 192 00a2 0949     		ldr	r1, .L3+12
 193 00a4 2046     		mov	r0, r4
ARM GAS  C:\Users\gx\AppData\Local\Temp\ccaPw1qV.s 			page 8


 194 00a6 FFF7FEFF 		bl	lv_dropdown_set_symbol
 195              	.LVL28:
  36:lvgl/lvgl/examples/widgets/dropdown/lv_example_dropdown_2.c ****     lv_obj_align(dd, LV_ALIGN_RIGHT_MID, -10, 0);
 196              		.loc 1 36 5 view .LVU36
 197 00aa 0023     		movs	r3, #0
 198 00ac 6FF00902 		mvn	r2, #9
 199 00b0 0821     		movs	r1, #8
 200 00b2 2046     		mov	r0, r4
 201 00b4 FFF7FEFF 		bl	lv_obj_align
 202              	.LVL29:
  37:lvgl/lvgl/examples/widgets/dropdown/lv_example_dropdown_2.c **** }
 203              		.loc 1 37 1 is_stmt 0 view .LVU37
 204 00b8 38BD     		pop	{r3, r4, r5, pc}
 205              	.LVL30:
 206              	.L4:
 207              		.loc 1 37 1 view .LVU38
 208 00ba 00BF     		.align	2
 209              	.L3:
 210 00bc 00000000 		.word	.LC0
 211 00c0 1C000000 		.word	.LC1
 212 00c4 20000000 		.word	.LC2
 213 00c8 24000000 		.word	.LC3
 214              		.cfi_endproc
 215              	.LFE189:
 217              		.text
 218              	.Letext0:
 219              		.file 3 "c:\\program files (x86)\\gnu arm embedded toolchain\\9 2020-q2-update\\arm-none-eabi\\inc
 220              		.file 4 "c:\\program files (x86)\\gnu arm embedded toolchain\\9 2020-q2-update\\arm-none-eabi\\inc
 221              		.file 5 "d:\\practise\\f407_disc\\lvgl\\lvgl\\src/misc/lv_ll.h"
 222              		.file 6 "c:\\program files (x86)\\gnu arm embedded toolchain\\9 2020-q2-update\\lib\\gcc\\arm-none
 223              		.file 7 "c:\\program files (x86)\\gnu arm embedded toolchain\\9 2020-q2-update\\arm-none-eabi\\inc
 224              		.file 8 "c:\\program files (x86)\\gnu arm embedded toolchain\\9 2020-q2-update\\arm-none-eabi\\inc
 225              		.file 9 "c:\\program files (x86)\\gnu arm embedded toolchain\\9 2020-q2-update\\arm-none-eabi\\inc
 226              		.file 10 "d:\\practise\\f407_disc\\lvgl\\lvgl\\src\\misc\\lv_color.h"
 227              		.file 11 "d:\\practise\\f407_disc\\lvgl\\lvgl\\src\\misc\\lv_area.h"
 228              		.file 12 "d:\\practise\\f407_disc\\lvgl\\lvgl\\src/core/lv_obj.h"
 229              		.file 13 "d:\\practise\\f407_disc\\lvgl\\lvgl\\src/core/lv_group.h"
 230              		.file 14 "d:\\practise\\f407_disc\\lvgl\\lvgl\\src\\font\\lv_font.h"
 231              		.file 15 "d:\\practise\\f407_disc\\lvgl\\lvgl\\src\\misc\\lv_txt.h"
 232              		.file 16 "d:\\practise\\f407_disc\\lvgl\\lvgl\\src\\misc\\lv_style.h"
 233              		.file 17 "d:\\practise\\f407_disc\\lvgl\\lvgl\\src/core/lv_obj_scroll.h"
 234              		.file 18 "d:\\practise\\f407_disc\\lvgl\\lvgl\\src/core/lv_obj_style.h"
 235              		.file 19 "d:\\practise\\f407_disc\\lvgl\\lvgl\\src\\draw\\lv_draw_label.h"
 236              		.file 20 "d:\\practise\\f407_disc\\lvgl\\lvgl\\src/core/lv_obj_class.h"
 237              		.file 21 "d:\\practise\\f407_disc\\lvgl\\lvgl\\src/core/lv_event.h"
 238              		.file 22 "d:\\practise\\f407_disc\\lvgl\\lvgl\\src/widgets/lv_arc.h"
 239              		.file 23 "d:\\practise\\f407_disc\\lvgl\\lvgl\\src/widgets/lv_btn.h"
 240              		.file 24 "d:\\practise\\f407_disc\\lvgl\\lvgl\\src/widgets/lv_img.h"
 241              		.file 25 "d:\\practise\\f407_disc\\lvgl\\lvgl\\src/widgets/lv_label.h"
 242              		.file 26 "d:\\practise\\f407_disc\\lvgl\\lvgl\\src/widgets/lv_line.h"
 243              		.file 27 "d:\\practise\\f407_disc\\lvgl\\lvgl\\src/widgets/lv_table.h"
 244              		.file 28 "d:\\practise\\f407_disc\\lvgl\\lvgl\\src/widgets/lv_checkbox.h"
 245              		.file 29 "d:\\practise\\f407_disc\\lvgl\\lvgl\\src/widgets/lv_bar.h"
 246              		.file 30 "d:\\practise\\f407_disc\\lvgl\\lvgl\\src/widgets/lv_slider.h"
 247              		.file 31 "d:\\practise\\f407_disc\\lvgl\\lvgl\\src/widgets/lv_btnmatrix.h"
 248              		.file 32 "d:\\practise\\f407_disc\\lvgl\\lvgl\\src/widgets/lv_dropdown.h"
 249              		.file 33 "d:\\practise\\f407_disc\\lvgl\\lvgl\\src/widgets/lv_roller.h"
ARM GAS  C:\Users\gx\AppData\Local\Temp\ccaPw1qV.s 			page 9


 250              		.file 34 "d:\\practise\\f407_disc\\lvgl\\lvgl\\src/widgets/lv_textarea.h"
 251              		.file 35 "d:\\practise\\f407_disc\\lvgl\\lvgl\\src/widgets/lv_canvas.h"
 252              		.file 36 "d:\\practise\\f407_disc\\lvgl\\lvgl\\src/widgets/lv_switch.h"
 253              		.file 37 "d:\\practise\\f407_disc\\lvgl\\lvgl\\src/extra/widgets/animimg/lv_animimg.h"
 254              		.file 38 "d:\\practise\\f407_disc\\lvgl\\lvgl\\src/extra/widgets/calendar/lv_calendar.h"
 255              		.file 39 "d:\\practise\\f407_disc\\lvgl\\lvgl\\src/extra/widgets/calendar/lv_calendar_header_arrow
 256              		.file 40 "d:\\practise\\f407_disc\\lvgl\\lvgl\\src/extra/widgets/calendar/lv_calendar_header_dropd
 257              		.file 41 "d:\\practise\\f407_disc\\lvgl\\lvgl\\src/extra/widgets/chart/lv_chart.h"
 258              		.file 42 "d:\\practise\\f407_disc\\lvgl\\lvgl\\src/extra/widgets/keyboard/lv_keyboard.h"
 259              		.file 43 "d:\\practise\\f407_disc\\lvgl\\lvgl\\src\\extra\\layouts\\flex\\lv_flex.h"
 260              		.file 44 "d:\\practise\\f407_disc\\lvgl\\lvgl\\src/extra/widgets/list/lv_list.h"
 261              		.file 45 "d:\\practise\\f407_disc\\lvgl\\lvgl\\src/extra/widgets/msgbox/lv_msgbox.h"
 262              		.file 46 "d:\\practise\\f407_disc\\lvgl\\lvgl\\src/extra/widgets/meter/lv_meter.h"
 263              		.file 47 "d:\\practise\\f407_disc\\lvgl\\lvgl\\src/extra/widgets/spinbox/lv_spinbox.h"
 264              		.file 48 "d:\\practise\\f407_disc\\lvgl\\lvgl\\src/extra/widgets/spinner/lv_spinner.h"
 265              		.file 49 "d:\\practise\\f407_disc\\lvgl\\lvgl\\src/extra/widgets/tabview/lv_tabview.h"
 266              		.file 50 "d:\\practise\\f407_disc\\lvgl\\lvgl\\src/extra/widgets/tileview/lv_tileview.h"
 267              		.file 51 "d:\\practise\\f407_disc\\lvgl\\lvgl\\src/extra/widgets/win/lv_win.h"
 268              		.file 52 "d:\\practise\\f407_disc\\lvgl\\lvgl\\src/extra/widgets/colorwheel/lv_colorwheel.h"
 269              		.file 53 "d:\\practise\\f407_disc\\lvgl\\lvgl\\src/extra/widgets/led/lv_led.h"
 270              		.file 54 "d:\\practise\\f407_disc\\lvgl\\lvgl\\src/extra/widgets/imgbtn/lv_imgbtn.h"
 271              		.file 55 "d:\\practise\\f407_disc\\lvgl\\lvgl\\src/extra/widgets/span/lv_span.h"
 272              		.file 56 "d:\\practise\\f407_disc\\lvgl\\lvgl\\src/extra/layouts/grid/lv_grid.h"
 273              		.file 57 "d:\\practise\\f407_disc\\lvgl\\lvgl\\src/hal/lv_hal_disp.h"
 274              		.file 58 "d:\\practise\\f407_disc\\lvgl\\lvgl\\src/core/lv_obj_pos.h"
ARM GAS  C:\Users\gx\AppData\Local\Temp\ccaPw1qV.s 			page 10

