ARM GAS  C:\Users\gx\AppData\Local\Temp\cczuAAU1.s 			page 1


   1              		.cpu cortex-m4
   2              		.eabi_attribute 27, 1
   3              		.eabi_attribute 28, 1
   4              		.eabi_attribute 20, 1
   5              		.eabi_attribute 21, 1
   6              		.eabi_attribute 23, 3
   7              		.eabi_attribute 24, 1
   8              		.eabi_attribute 25, 1
   9              		.eabi_attribute 26, 1
  10              		.eabi_attribute 30, 1
  11              		.eabi_attribute 34, 1
  12              		.eabi_attribute 18, 4
  13              		.file	"lv_example_event_3.c"
  14              		.text
  15              	.Ltext0:
  16              		.cfi_sections	.debug_frame
  17              		.section	.text.event_cb,"ax",%progbits
  18              		.align	1
  19              		.arch armv7e-m
  20              		.syntax unified
  21              		.thumb
  22              		.thumb_func
  23              		.fpu fpv4-sp-d16
  25              	event_cb:
  26              	.LVL0:
  27              	.LFB189:
  28              		.file 1 "lvgl/lvgl/examples/event/lv_example_event_3.c"
   1:lvgl/lvgl/examples/event/lv_example_event_3.c **** #include "../lv_examples.h"
   2:lvgl/lvgl/examples/event/lv_example_event_3.c **** #if LV_BUILD_EXAMPLES && LV_USE_FLEX
   3:lvgl/lvgl/examples/event/lv_example_event_3.c **** 
   4:lvgl/lvgl/examples/event/lv_example_event_3.c **** static void event_cb(lv_event_t * e)
   5:lvgl/lvgl/examples/event/lv_example_event_3.c **** {
  29              		.loc 1 5 1 view -0
  30              		.cfi_startproc
  31              		@ args = 0, pretend = 0, frame = 0
  32              		@ frame_needed = 0, uses_anonymous_args = 0
  33              		.loc 1 5 1 is_stmt 0 view .LVU1
  34 0000 38B5     		push	{r3, r4, r5, lr}
  35              	.LCFI0:
  36              		.cfi_def_cfa_offset 16
  37              		.cfi_offset 3, -16
  38              		.cfi_offset 4, -12
  39              		.cfi_offset 5, -8
  40              		.cfi_offset 14, -4
  41 0002 0546     		mov	r5, r0
   6:lvgl/lvgl/examples/event/lv_example_event_3.c ****     /*The original target of the event. Can be the buttons or the container*/
   7:lvgl/lvgl/examples/event/lv_example_event_3.c ****     lv_obj_t * target = lv_event_get_target(e);
  42              		.loc 1 7 5 is_stmt 1 view .LVU2
  43              		.loc 1 7 25 is_stmt 0 view .LVU3
  44 0004 FFF7FEFF 		bl	lv_event_get_target
  45              	.LVL1:
  46              		.loc 1 7 25 view .LVU4
  47 0008 0446     		mov	r4, r0
  48              	.LVL2:
   8:lvgl/lvgl/examples/event/lv_example_event_3.c **** 
   9:lvgl/lvgl/examples/event/lv_example_event_3.c ****     /*The current target is always the container as the event is added to it*/
  10:lvgl/lvgl/examples/event/lv_example_event_3.c ****     lv_obj_t * cont = lv_event_get_current_target(e);
ARM GAS  C:\Users\gx\AppData\Local\Temp\cczuAAU1.s 			page 2


  49              		.loc 1 10 5 is_stmt 1 view .LVU5
  50              		.loc 1 10 23 is_stmt 0 view .LVU6
  51 000a 2846     		mov	r0, r5
  52              	.LVL3:
  53              		.loc 1 10 23 view .LVU7
  54 000c FFF7FEFF 		bl	lv_event_get_current_target
  55              	.LVL4:
  11:lvgl/lvgl/examples/event/lv_example_event_3.c **** 
  12:lvgl/lvgl/examples/event/lv_example_event_3.c ****     /*If container was clicked do nothing*/
  13:lvgl/lvgl/examples/event/lv_example_event_3.c ****     if(target == cont) return;
  56              		.loc 1 13 5 is_stmt 1 view .LVU8
  57              		.loc 1 13 7 is_stmt 0 view .LVU9
  58 0010 8442     		cmp	r4, r0
  59 0012 07D0     		beq	.L1
  14:lvgl/lvgl/examples/event/lv_example_event_3.c **** 
  15:lvgl/lvgl/examples/event/lv_example_event_3.c ****     /*Make the clicked buttons red*/
  16:lvgl/lvgl/examples/event/lv_example_event_3.c ****     lv_obj_set_style_bg_color(target, lv_palette_main(LV_PALETTE_RED), 0);
  60              		.loc 1 16 5 is_stmt 1 view .LVU10
  61 0014 0020     		movs	r0, #0
  62              	.LVL5:
  63              		.loc 1 16 5 is_stmt 0 view .LVU11
  64 0016 FFF7FEFF 		bl	lv_palette_main
  65              	.LVL6:
  66 001a 0146     		mov	r1, r0	@ movhi
  67 001c 0022     		movs	r2, #0
  68 001e 2046     		mov	r0, r4
  69 0020 FFF7FEFF 		bl	lv_obj_set_style_bg_color
  70              	.LVL7:
  71              	.L1:
  17:lvgl/lvgl/examples/event/lv_example_event_3.c **** }
  72              		.loc 1 17 1 view .LVU12
  73 0024 38BD     		pop	{r3, r4, r5, pc}
  74              		.loc 1 17 1 view .LVU13
  75              		.cfi_endproc
  76              	.LFE189:
  78              		.section	.rodata.lv_example_event_3.str1.4,"aMS",%progbits,1
  79              		.align	2
  80              	.LC0:
  81 0000 256400   		.ascii	"%d\000"
  82              		.section	.text.lv_example_event_3,"ax",%progbits
  83              		.align	1
  84              		.global	lv_example_event_3
  85              		.syntax unified
  86              		.thumb
  87              		.thumb_func
  88              		.fpu fpv4-sp-d16
  90              	lv_example_event_3:
  91              	.LFB190:
  18:lvgl/lvgl/examples/event/lv_example_event_3.c **** 
  19:lvgl/lvgl/examples/event/lv_example_event_3.c **** /**
  20:lvgl/lvgl/examples/event/lv_example_event_3.c ****  * Demonstrate event bubbling
  21:lvgl/lvgl/examples/event/lv_example_event_3.c ****  */
  22:lvgl/lvgl/examples/event/lv_example_event_3.c **** void lv_example_event_3(void)
  23:lvgl/lvgl/examples/event/lv_example_event_3.c **** {
  92              		.loc 1 23 1 is_stmt 1 view -0
  93              		.cfi_startproc
  94              		@ args = 0, pretend = 0, frame = 0
ARM GAS  C:\Users\gx\AppData\Local\Temp\cczuAAU1.s 			page 3


  95              		@ frame_needed = 0, uses_anonymous_args = 0
  96 0000 70B5     		push	{r4, r5, r6, lr}
  97              	.LCFI1:
  98              		.cfi_def_cfa_offset 16
  99              		.cfi_offset 4, -16
 100              		.cfi_offset 5, -12
 101              		.cfi_offset 6, -8
 102              		.cfi_offset 14, -4
  24:lvgl/lvgl/examples/event/lv_example_event_3.c **** 
  25:lvgl/lvgl/examples/event/lv_example_event_3.c ****     lv_obj_t * cont = lv_obj_create(lv_scr_act());
 103              		.loc 1 25 5 view .LVU15
 104              	.LBB9:
 105              	.LBI9:
 106              		.file 2 "lvgl/lvgl/examples/event/../../src/core/lv_disp.h"
   1:lvgl/lvgl/examples/event/../../src/core/lv_disp.h **** /**
   2:lvgl/lvgl/examples/event/../../src/core/lv_disp.h ****  * @file lv_disp.h
   3:lvgl/lvgl/examples/event/../../src/core/lv_disp.h ****  *
   4:lvgl/lvgl/examples/event/../../src/core/lv_disp.h ****  */
   5:lvgl/lvgl/examples/event/../../src/core/lv_disp.h **** 
   6:lvgl/lvgl/examples/event/../../src/core/lv_disp.h **** #ifndef LV_DISP_H
   7:lvgl/lvgl/examples/event/../../src/core/lv_disp.h **** #define LV_DISP_H
   8:lvgl/lvgl/examples/event/../../src/core/lv_disp.h **** 
   9:lvgl/lvgl/examples/event/../../src/core/lv_disp.h **** #ifdef __cplusplus
  10:lvgl/lvgl/examples/event/../../src/core/lv_disp.h **** extern "C" {
  11:lvgl/lvgl/examples/event/../../src/core/lv_disp.h **** #endif
  12:lvgl/lvgl/examples/event/../../src/core/lv_disp.h **** 
  13:lvgl/lvgl/examples/event/../../src/core/lv_disp.h **** /*********************
  14:lvgl/lvgl/examples/event/../../src/core/lv_disp.h ****  *      INCLUDES
  15:lvgl/lvgl/examples/event/../../src/core/lv_disp.h ****  *********************/
  16:lvgl/lvgl/examples/event/../../src/core/lv_disp.h **** #include "../hal/lv_hal.h"
  17:lvgl/lvgl/examples/event/../../src/core/lv_disp.h **** #include "lv_obj.h"
  18:lvgl/lvgl/examples/event/../../src/core/lv_disp.h **** #include "lv_theme.h"
  19:lvgl/lvgl/examples/event/../../src/core/lv_disp.h **** 
  20:lvgl/lvgl/examples/event/../../src/core/lv_disp.h **** /*********************
  21:lvgl/lvgl/examples/event/../../src/core/lv_disp.h ****  *      DEFINES
  22:lvgl/lvgl/examples/event/../../src/core/lv_disp.h ****  *********************/
  23:lvgl/lvgl/examples/event/../../src/core/lv_disp.h **** 
  24:lvgl/lvgl/examples/event/../../src/core/lv_disp.h **** /**********************
  25:lvgl/lvgl/examples/event/../../src/core/lv_disp.h ****  *      TYPEDEFS
  26:lvgl/lvgl/examples/event/../../src/core/lv_disp.h ****  **********************/
  27:lvgl/lvgl/examples/event/../../src/core/lv_disp.h **** 
  28:lvgl/lvgl/examples/event/../../src/core/lv_disp.h **** typedef enum {
  29:lvgl/lvgl/examples/event/../../src/core/lv_disp.h ****     LV_SCR_LOAD_ANIM_NONE,
  30:lvgl/lvgl/examples/event/../../src/core/lv_disp.h ****     LV_SCR_LOAD_ANIM_OVER_LEFT,
  31:lvgl/lvgl/examples/event/../../src/core/lv_disp.h ****     LV_SCR_LOAD_ANIM_OVER_RIGHT,
  32:lvgl/lvgl/examples/event/../../src/core/lv_disp.h ****     LV_SCR_LOAD_ANIM_OVER_TOP,
  33:lvgl/lvgl/examples/event/../../src/core/lv_disp.h ****     LV_SCR_LOAD_ANIM_OVER_BOTTOM,
  34:lvgl/lvgl/examples/event/../../src/core/lv_disp.h ****     LV_SCR_LOAD_ANIM_MOVE_LEFT,
  35:lvgl/lvgl/examples/event/../../src/core/lv_disp.h ****     LV_SCR_LOAD_ANIM_MOVE_RIGHT,
  36:lvgl/lvgl/examples/event/../../src/core/lv_disp.h ****     LV_SCR_LOAD_ANIM_MOVE_TOP,
  37:lvgl/lvgl/examples/event/../../src/core/lv_disp.h ****     LV_SCR_LOAD_ANIM_MOVE_BOTTOM,
  38:lvgl/lvgl/examples/event/../../src/core/lv_disp.h ****     LV_SCR_LOAD_ANIM_FADE_ON,
  39:lvgl/lvgl/examples/event/../../src/core/lv_disp.h **** } lv_scr_load_anim_t;
  40:lvgl/lvgl/examples/event/../../src/core/lv_disp.h **** 
  41:lvgl/lvgl/examples/event/../../src/core/lv_disp.h **** /**********************
  42:lvgl/lvgl/examples/event/../../src/core/lv_disp.h ****  * GLOBAL PROTOTYPES
  43:lvgl/lvgl/examples/event/../../src/core/lv_disp.h ****  **********************/
ARM GAS  C:\Users\gx\AppData\Local\Temp\cczuAAU1.s 			page 4


  44:lvgl/lvgl/examples/event/../../src/core/lv_disp.h **** 
  45:lvgl/lvgl/examples/event/../../src/core/lv_disp.h **** /**
  46:lvgl/lvgl/examples/event/../../src/core/lv_disp.h ****  * Return with a pointer to the active screen
  47:lvgl/lvgl/examples/event/../../src/core/lv_disp.h ****  * @param disp pointer to display which active screen should be get. (NULL to use the default
  48:lvgl/lvgl/examples/event/../../src/core/lv_disp.h ****  * screen)
  49:lvgl/lvgl/examples/event/../../src/core/lv_disp.h ****  * @return pointer to the active screen object (loaded by 'lv_scr_load()')
  50:lvgl/lvgl/examples/event/../../src/core/lv_disp.h ****  */
  51:lvgl/lvgl/examples/event/../../src/core/lv_disp.h **** lv_obj_t * lv_disp_get_scr_act(lv_disp_t * disp);
  52:lvgl/lvgl/examples/event/../../src/core/lv_disp.h **** 
  53:lvgl/lvgl/examples/event/../../src/core/lv_disp.h **** /**
  54:lvgl/lvgl/examples/event/../../src/core/lv_disp.h ****  * Return with a pointer to the previous screen. Only used during screen transitions.
  55:lvgl/lvgl/examples/event/../../src/core/lv_disp.h ****  * @param disp pointer to display which previous screen should be get. (NULL to use the default
  56:lvgl/lvgl/examples/event/../../src/core/lv_disp.h ****  * screen)
  57:lvgl/lvgl/examples/event/../../src/core/lv_disp.h ****  * @return pointer to the previous screen object or NULL if not used now
  58:lvgl/lvgl/examples/event/../../src/core/lv_disp.h ****  */
  59:lvgl/lvgl/examples/event/../../src/core/lv_disp.h **** lv_obj_t * lv_disp_get_scr_prev(lv_disp_t * disp);
  60:lvgl/lvgl/examples/event/../../src/core/lv_disp.h **** 
  61:lvgl/lvgl/examples/event/../../src/core/lv_disp.h **** /**
  62:lvgl/lvgl/examples/event/../../src/core/lv_disp.h ****  * Make a screen active
  63:lvgl/lvgl/examples/event/../../src/core/lv_disp.h ****  * @param scr pointer to a screen
  64:lvgl/lvgl/examples/event/../../src/core/lv_disp.h ****  */
  65:lvgl/lvgl/examples/event/../../src/core/lv_disp.h **** void lv_disp_load_scr(lv_obj_t * scr);
  66:lvgl/lvgl/examples/event/../../src/core/lv_disp.h **** 
  67:lvgl/lvgl/examples/event/../../src/core/lv_disp.h **** /**
  68:lvgl/lvgl/examples/event/../../src/core/lv_disp.h ****  * Return with the top layer. (Same on every screen and it is above the normal screen layer)
  69:lvgl/lvgl/examples/event/../../src/core/lv_disp.h ****  * @param disp pointer to display which top layer should be get. (NULL to use the default screen)
  70:lvgl/lvgl/examples/event/../../src/core/lv_disp.h ****  * @return pointer to the top layer object  (transparent screen sized lv_obj)
  71:lvgl/lvgl/examples/event/../../src/core/lv_disp.h ****  */
  72:lvgl/lvgl/examples/event/../../src/core/lv_disp.h **** lv_obj_t * lv_disp_get_layer_top(lv_disp_t * disp);
  73:lvgl/lvgl/examples/event/../../src/core/lv_disp.h **** 
  74:lvgl/lvgl/examples/event/../../src/core/lv_disp.h **** /**
  75:lvgl/lvgl/examples/event/../../src/core/lv_disp.h ****  * Return with the sys. layer. (Same on every screen and it is above the normal screen and the top
  76:lvgl/lvgl/examples/event/../../src/core/lv_disp.h ****  * layer)
  77:lvgl/lvgl/examples/event/../../src/core/lv_disp.h ****  * @param disp pointer to display which sys. layer  should be get. (NULL to use the default screen)
  78:lvgl/lvgl/examples/event/../../src/core/lv_disp.h ****  * @return pointer to the sys layer object  (transparent screen sized lv_obj)
  79:lvgl/lvgl/examples/event/../../src/core/lv_disp.h ****  */
  80:lvgl/lvgl/examples/event/../../src/core/lv_disp.h **** lv_obj_t * lv_disp_get_layer_sys(lv_disp_t * disp);
  81:lvgl/lvgl/examples/event/../../src/core/lv_disp.h **** 
  82:lvgl/lvgl/examples/event/../../src/core/lv_disp.h **** /**
  83:lvgl/lvgl/examples/event/../../src/core/lv_disp.h ****  * Get the theme of a display
  84:lvgl/lvgl/examples/event/../../src/core/lv_disp.h ****  * @param disp pointer to a display
  85:lvgl/lvgl/examples/event/../../src/core/lv_disp.h ****  * @return the display's theme (can be NULL)
  86:lvgl/lvgl/examples/event/../../src/core/lv_disp.h ****  */
  87:lvgl/lvgl/examples/event/../../src/core/lv_disp.h **** void lv_disp_set_theme(lv_disp_t * disp, lv_theme_t * th);
  88:lvgl/lvgl/examples/event/../../src/core/lv_disp.h **** 
  89:lvgl/lvgl/examples/event/../../src/core/lv_disp.h **** /**
  90:lvgl/lvgl/examples/event/../../src/core/lv_disp.h ****  * Get the theme of a display
  91:lvgl/lvgl/examples/event/../../src/core/lv_disp.h ****  * @param disp pointer to a display
  92:lvgl/lvgl/examples/event/../../src/core/lv_disp.h ****  * @return the display's theme (can be NULL)
  93:lvgl/lvgl/examples/event/../../src/core/lv_disp.h ****  */
  94:lvgl/lvgl/examples/event/../../src/core/lv_disp.h **** lv_theme_t * lv_disp_get_theme(lv_disp_t * disp);
  95:lvgl/lvgl/examples/event/../../src/core/lv_disp.h **** 
  96:lvgl/lvgl/examples/event/../../src/core/lv_disp.h **** /**
  97:lvgl/lvgl/examples/event/../../src/core/lv_disp.h ****  * Set the background color of a display
  98:lvgl/lvgl/examples/event/../../src/core/lv_disp.h ****  * @param disp pointer to a display
  99:lvgl/lvgl/examples/event/../../src/core/lv_disp.h ****  * @param color color of the background
 100:lvgl/lvgl/examples/event/../../src/core/lv_disp.h ****  */
ARM GAS  C:\Users\gx\AppData\Local\Temp\cczuAAU1.s 			page 5


 101:lvgl/lvgl/examples/event/../../src/core/lv_disp.h **** void lv_disp_set_bg_color(lv_disp_t * disp, lv_color_t color);
 102:lvgl/lvgl/examples/event/../../src/core/lv_disp.h **** 
 103:lvgl/lvgl/examples/event/../../src/core/lv_disp.h **** /**
 104:lvgl/lvgl/examples/event/../../src/core/lv_disp.h ****  * Set the background image of a display
 105:lvgl/lvgl/examples/event/../../src/core/lv_disp.h ****  * @param disp pointer to a display
 106:lvgl/lvgl/examples/event/../../src/core/lv_disp.h ****  * @param img_src path to file or pointer to an `lv_img_dsc_t` variable
 107:lvgl/lvgl/examples/event/../../src/core/lv_disp.h ****  */
 108:lvgl/lvgl/examples/event/../../src/core/lv_disp.h **** void lv_disp_set_bg_image(lv_disp_t * disp, const void  * img_src);
 109:lvgl/lvgl/examples/event/../../src/core/lv_disp.h **** 
 110:lvgl/lvgl/examples/event/../../src/core/lv_disp.h **** /**
 111:lvgl/lvgl/examples/event/../../src/core/lv_disp.h ****  * Opacity of the background
 112:lvgl/lvgl/examples/event/../../src/core/lv_disp.h ****  * @param disp pointer to a display
 113:lvgl/lvgl/examples/event/../../src/core/lv_disp.h ****  * @param opa opacity (0..255)
 114:lvgl/lvgl/examples/event/../../src/core/lv_disp.h ****  */
 115:lvgl/lvgl/examples/event/../../src/core/lv_disp.h **** void lv_disp_set_bg_opa(lv_disp_t * disp, lv_opa_t opa);
 116:lvgl/lvgl/examples/event/../../src/core/lv_disp.h **** 
 117:lvgl/lvgl/examples/event/../../src/core/lv_disp.h **** /**
 118:lvgl/lvgl/examples/event/../../src/core/lv_disp.h ****  * Switch screen with animation
 119:lvgl/lvgl/examples/event/../../src/core/lv_disp.h ****  * @param scr pointer to the new screen to load
 120:lvgl/lvgl/examples/event/../../src/core/lv_disp.h ****  * @param anim_type type of the animation from `lv_scr_load_anim_t`. E.g.  `LV_SCR_LOAD_ANIM_MOVE_L
 121:lvgl/lvgl/examples/event/../../src/core/lv_disp.h ****  * @param time time of the animation
 122:lvgl/lvgl/examples/event/../../src/core/lv_disp.h ****  * @param delay delay before the transition
 123:lvgl/lvgl/examples/event/../../src/core/lv_disp.h ****  * @param auto_del true: automatically delete the old screen
 124:lvgl/lvgl/examples/event/../../src/core/lv_disp.h ****  */
 125:lvgl/lvgl/examples/event/../../src/core/lv_disp.h **** void lv_scr_load_anim(lv_obj_t * scr, lv_scr_load_anim_t anim_type, uint32_t time, uint32_t delay, 
 126:lvgl/lvgl/examples/event/../../src/core/lv_disp.h **** 
 127:lvgl/lvgl/examples/event/../../src/core/lv_disp.h **** /**
 128:lvgl/lvgl/examples/event/../../src/core/lv_disp.h ****  * Get elapsed time since last user activity on a display (e.g. click)
 129:lvgl/lvgl/examples/event/../../src/core/lv_disp.h ****  * @param disp pointer to an display (NULL to get the overall smallest inactivity)
 130:lvgl/lvgl/examples/event/../../src/core/lv_disp.h ****  * @return elapsed ticks (milliseconds) since the last activity
 131:lvgl/lvgl/examples/event/../../src/core/lv_disp.h ****  */
 132:lvgl/lvgl/examples/event/../../src/core/lv_disp.h **** uint32_t lv_disp_get_inactive_time(const lv_disp_t * disp);
 133:lvgl/lvgl/examples/event/../../src/core/lv_disp.h **** 
 134:lvgl/lvgl/examples/event/../../src/core/lv_disp.h **** /**
 135:lvgl/lvgl/examples/event/../../src/core/lv_disp.h ****  * Manually trigger an activity on a display
 136:lvgl/lvgl/examples/event/../../src/core/lv_disp.h ****  * @param disp pointer to an display (NULL to use the default display)
 137:lvgl/lvgl/examples/event/../../src/core/lv_disp.h ****  */
 138:lvgl/lvgl/examples/event/../../src/core/lv_disp.h **** void lv_disp_trig_activity(lv_disp_t * disp);
 139:lvgl/lvgl/examples/event/../../src/core/lv_disp.h **** 
 140:lvgl/lvgl/examples/event/../../src/core/lv_disp.h **** /**
 141:lvgl/lvgl/examples/event/../../src/core/lv_disp.h ****  * Clean any CPU cache that is related to the display.
 142:lvgl/lvgl/examples/event/../../src/core/lv_disp.h ****  * @param disp pointer to an display (NULL to use the default display)
 143:lvgl/lvgl/examples/event/../../src/core/lv_disp.h ****  */
 144:lvgl/lvgl/examples/event/../../src/core/lv_disp.h **** void lv_disp_clean_dcache(lv_disp_t * disp);
 145:lvgl/lvgl/examples/event/../../src/core/lv_disp.h **** 
 146:lvgl/lvgl/examples/event/../../src/core/lv_disp.h **** /**
 147:lvgl/lvgl/examples/event/../../src/core/lv_disp.h ****  * Get a pointer to the screen refresher timer to
 148:lvgl/lvgl/examples/event/../../src/core/lv_disp.h ****  * modify its parameters with `lv_timer_...` functions.
 149:lvgl/lvgl/examples/event/../../src/core/lv_disp.h ****  * @param disp pointer to a display
 150:lvgl/lvgl/examples/event/../../src/core/lv_disp.h ****  * @return pointer to the display refresher timer. (NULL on error)
 151:lvgl/lvgl/examples/event/../../src/core/lv_disp.h ****  */
 152:lvgl/lvgl/examples/event/../../src/core/lv_disp.h **** lv_timer_t * _lv_disp_get_refr_timer(lv_disp_t * disp);
 153:lvgl/lvgl/examples/event/../../src/core/lv_disp.h **** 
 154:lvgl/lvgl/examples/event/../../src/core/lv_disp.h **** /*------------------------------------------------
 155:lvgl/lvgl/examples/event/../../src/core/lv_disp.h ****  * To improve backward compatibility
 156:lvgl/lvgl/examples/event/../../src/core/lv_disp.h ****  * Recommended only if you have one display
 157:lvgl/lvgl/examples/event/../../src/core/lv_disp.h ****  *------------------------------------------------*/
ARM GAS  C:\Users\gx\AppData\Local\Temp\cczuAAU1.s 			page 6


 158:lvgl/lvgl/examples/event/../../src/core/lv_disp.h **** 
 159:lvgl/lvgl/examples/event/../../src/core/lv_disp.h **** /**
 160:lvgl/lvgl/examples/event/../../src/core/lv_disp.h ****  * Get the active screen of the default display
 161:lvgl/lvgl/examples/event/../../src/core/lv_disp.h ****  * @return pointer to the active screen
 162:lvgl/lvgl/examples/event/../../src/core/lv_disp.h ****  */
 163:lvgl/lvgl/examples/event/../../src/core/lv_disp.h **** static inline lv_obj_t * lv_scr_act(void)
 107              		.loc 2 163 26 view .LVU16
 108              	.LBB10:
 164:lvgl/lvgl/examples/event/../../src/core/lv_disp.h **** {
 165:lvgl/lvgl/examples/event/../../src/core/lv_disp.h ****     return lv_disp_get_scr_act(lv_disp_get_default());
 109              		.loc 2 165 5 view .LVU17
 110              		.loc 2 165 12 is_stmt 0 view .LVU18
 111 0002 FFF7FEFF 		bl	lv_disp_get_default
 112              	.LVL8:
 113 0006 FFF7FEFF 		bl	lv_disp_get_scr_act
 114              	.LVL9:
 115              	.LBE10:
 116              	.LBE9:
 117              		.loc 1 25 23 view .LVU19
 118 000a FFF7FEFF 		bl	lv_obj_create
 119              	.LVL10:
 120 000e 0646     		mov	r6, r0
 121              	.LVL11:
  26:lvgl/lvgl/examples/event/lv_example_event_3.c ****     lv_obj_set_size(cont, 290, 200);
 122              		.loc 1 26 5 is_stmt 1 view .LVU20
 123 0010 C822     		movs	r2, #200
 124 0012 4FF49171 		mov	r1, #290
 125 0016 FFF7FEFF 		bl	lv_obj_set_size
 126              	.LVL12:
  27:lvgl/lvgl/examples/event/lv_example_event_3.c ****     lv_obj_center(cont);
 127              		.loc 1 27 5 view .LVU21
 128              	.LBB11:
 129              	.LBI11:
 130              		.file 3 "lvgl/lvgl/examples/event/../../src/core/lv_obj_pos.h"
   1:lvgl/lvgl/examples/event/../../src/core/lv_obj_pos.h **** /**
   2:lvgl/lvgl/examples/event/../../src/core/lv_obj_pos.h ****  * @file lv_obj_pos.h
   3:lvgl/lvgl/examples/event/../../src/core/lv_obj_pos.h ****  *
   4:lvgl/lvgl/examples/event/../../src/core/lv_obj_pos.h ****  */
   5:lvgl/lvgl/examples/event/../../src/core/lv_obj_pos.h **** 
   6:lvgl/lvgl/examples/event/../../src/core/lv_obj_pos.h **** #ifndef LV_OBJ_POS_H
   7:lvgl/lvgl/examples/event/../../src/core/lv_obj_pos.h **** #define LV_OBJ_POS_H
   8:lvgl/lvgl/examples/event/../../src/core/lv_obj_pos.h **** 
   9:lvgl/lvgl/examples/event/../../src/core/lv_obj_pos.h **** #ifdef __cplusplus
  10:lvgl/lvgl/examples/event/../../src/core/lv_obj_pos.h **** extern "C" {
  11:lvgl/lvgl/examples/event/../../src/core/lv_obj_pos.h **** #endif
  12:lvgl/lvgl/examples/event/../../src/core/lv_obj_pos.h **** 
  13:lvgl/lvgl/examples/event/../../src/core/lv_obj_pos.h **** /*********************
  14:lvgl/lvgl/examples/event/../../src/core/lv_obj_pos.h ****  *      INCLUDES
  15:lvgl/lvgl/examples/event/../../src/core/lv_obj_pos.h ****  *********************/
  16:lvgl/lvgl/examples/event/../../src/core/lv_obj_pos.h **** #include "../misc/lv_area.h"
  17:lvgl/lvgl/examples/event/../../src/core/lv_obj_pos.h **** 
  18:lvgl/lvgl/examples/event/../../src/core/lv_obj_pos.h **** /*********************
  19:lvgl/lvgl/examples/event/../../src/core/lv_obj_pos.h ****  *      DEFINES
  20:lvgl/lvgl/examples/event/../../src/core/lv_obj_pos.h ****  *********************/
  21:lvgl/lvgl/examples/event/../../src/core/lv_obj_pos.h **** 
  22:lvgl/lvgl/examples/event/../../src/core/lv_obj_pos.h **** /**********************
  23:lvgl/lvgl/examples/event/../../src/core/lv_obj_pos.h ****  *      TYPEDEFS
ARM GAS  C:\Users\gx\AppData\Local\Temp\cczuAAU1.s 			page 7


  24:lvgl/lvgl/examples/event/../../src/core/lv_obj_pos.h ****  **********************/
  25:lvgl/lvgl/examples/event/../../src/core/lv_obj_pos.h **** struct _lv_obj_t;
  26:lvgl/lvgl/examples/event/../../src/core/lv_obj_pos.h **** 
  27:lvgl/lvgl/examples/event/../../src/core/lv_obj_pos.h **** typedef void (*lv_layout_update_cb_t)(struct _lv_obj_t *, void * user_data);
  28:lvgl/lvgl/examples/event/../../src/core/lv_obj_pos.h **** typedef struct {
  29:lvgl/lvgl/examples/event/../../src/core/lv_obj_pos.h ****     lv_layout_update_cb_t cb;
  30:lvgl/lvgl/examples/event/../../src/core/lv_obj_pos.h ****     void * user_data;
  31:lvgl/lvgl/examples/event/../../src/core/lv_obj_pos.h **** }lv_layout_dsc_t;
  32:lvgl/lvgl/examples/event/../../src/core/lv_obj_pos.h **** 
  33:lvgl/lvgl/examples/event/../../src/core/lv_obj_pos.h **** /**********************
  34:lvgl/lvgl/examples/event/../../src/core/lv_obj_pos.h ****  * GLOBAL PROTOTYPES
  35:lvgl/lvgl/examples/event/../../src/core/lv_obj_pos.h ****  **********************/
  36:lvgl/lvgl/examples/event/../../src/core/lv_obj_pos.h **** 
  37:lvgl/lvgl/examples/event/../../src/core/lv_obj_pos.h **** /**
  38:lvgl/lvgl/examples/event/../../src/core/lv_obj_pos.h ****  * Set the relative the position of an object (relative to the parent's top left corner)
  39:lvgl/lvgl/examples/event/../../src/core/lv_obj_pos.h ****  * @param obj       pointer to an object
  40:lvgl/lvgl/examples/event/../../src/core/lv_obj_pos.h ****  * @param x         new distance from the left side of the parent plus the parent's left padding
  41:lvgl/lvgl/examples/event/../../src/core/lv_obj_pos.h ****  * @param y         new distance from the top side of the parent  plus the parent's right padding
  42:lvgl/lvgl/examples/event/../../src/core/lv_obj_pos.h ****  */
  43:lvgl/lvgl/examples/event/../../src/core/lv_obj_pos.h **** void lv_obj_set_pos(struct _lv_obj_t * obj, lv_coord_t x, lv_coord_t y);
  44:lvgl/lvgl/examples/event/../../src/core/lv_obj_pos.h **** 
  45:lvgl/lvgl/examples/event/../../src/core/lv_obj_pos.h **** /**
  46:lvgl/lvgl/examples/event/../../src/core/lv_obj_pos.h ****  * Set the x coordinate of a object
  47:lvgl/lvgl/examples/event/../../src/core/lv_obj_pos.h ****  * @param obj       pointer to an object
  48:lvgl/lvgl/examples/event/../../src/core/lv_obj_pos.h ****  * @param x         new distance from the left side from the parent plus the parent's left padding
  49:lvgl/lvgl/examples/event/../../src/core/lv_obj_pos.h ****  */
  50:lvgl/lvgl/examples/event/../../src/core/lv_obj_pos.h **** void lv_obj_set_x(struct _lv_obj_t * obj, lv_coord_t x);
  51:lvgl/lvgl/examples/event/../../src/core/lv_obj_pos.h **** 
  52:lvgl/lvgl/examples/event/../../src/core/lv_obj_pos.h **** /**
  53:lvgl/lvgl/examples/event/../../src/core/lv_obj_pos.h ****  * Set the y coordinate of a object
  54:lvgl/lvgl/examples/event/../../src/core/lv_obj_pos.h ****  * @param obj       pointer to an object
  55:lvgl/lvgl/examples/event/../../src/core/lv_obj_pos.h ****  * @param y         new distance from the top of the parent  plus the parent's top padding
  56:lvgl/lvgl/examples/event/../../src/core/lv_obj_pos.h ****  */
  57:lvgl/lvgl/examples/event/../../src/core/lv_obj_pos.h **** void lv_obj_set_y(struct _lv_obj_t * obj, lv_coord_t y);
  58:lvgl/lvgl/examples/event/../../src/core/lv_obj_pos.h **** 
  59:lvgl/lvgl/examples/event/../../src/core/lv_obj_pos.h **** /**
  60:lvgl/lvgl/examples/event/../../src/core/lv_obj_pos.h ****  * Set the size of an object.
  61:lvgl/lvgl/examples/event/../../src/core/lv_obj_pos.h ****  * @param obj       pointer to an object
  62:lvgl/lvgl/examples/event/../../src/core/lv_obj_pos.h ****  * @param w         the new width
  63:lvgl/lvgl/examples/event/../../src/core/lv_obj_pos.h ****  * @param h         the new height
  64:lvgl/lvgl/examples/event/../../src/core/lv_obj_pos.h ****  * @note            possible values are:
  65:lvgl/lvgl/examples/event/../../src/core/lv_obj_pos.h ****  *                  pixel               simple set the size accordingly
  66:lvgl/lvgl/examples/event/../../src/core/lv_obj_pos.h ****  *                  LV_SIZE_CONTENT     set the size to involve all children in the given direction
  67:lvgl/lvgl/examples/event/../../src/core/lv_obj_pos.h ****  *                  LV_SIZE_PCT(x)     to set size in percentage of the parent's content area size 
  68:lvgl/lvgl/examples/event/../../src/core/lv_obj_pos.h ****  *                                      x should be in [0..1000]% range
  69:lvgl/lvgl/examples/event/../../src/core/lv_obj_pos.h ****  */
  70:lvgl/lvgl/examples/event/../../src/core/lv_obj_pos.h **** void lv_obj_set_size(struct _lv_obj_t * obj, lv_coord_t w, lv_coord_t h);
  71:lvgl/lvgl/examples/event/../../src/core/lv_obj_pos.h **** 
  72:lvgl/lvgl/examples/event/../../src/core/lv_obj_pos.h **** /**
  73:lvgl/lvgl/examples/event/../../src/core/lv_obj_pos.h ****  * Recalculate the size of the object
  74:lvgl/lvgl/examples/event/../../src/core/lv_obj_pos.h ****  * @param obj       pointer to an object
  75:lvgl/lvgl/examples/event/../../src/core/lv_obj_pos.h ****  * @return          true: the size has been changed
  76:lvgl/lvgl/examples/event/../../src/core/lv_obj_pos.h ****  */
  77:lvgl/lvgl/examples/event/../../src/core/lv_obj_pos.h **** bool lv_obj_refr_size(struct _lv_obj_t * obj);
  78:lvgl/lvgl/examples/event/../../src/core/lv_obj_pos.h **** 
  79:lvgl/lvgl/examples/event/../../src/core/lv_obj_pos.h **** /**
  80:lvgl/lvgl/examples/event/../../src/core/lv_obj_pos.h ****  * Set the width of an object
ARM GAS  C:\Users\gx\AppData\Local\Temp\cczuAAU1.s 			page 8


  81:lvgl/lvgl/examples/event/../../src/core/lv_obj_pos.h ****  * @param obj       pointer to an object
  82:lvgl/lvgl/examples/event/../../src/core/lv_obj_pos.h ****  * @param w         the new width
  83:lvgl/lvgl/examples/event/../../src/core/lv_obj_pos.h ****  * @note            possible values are:
  84:lvgl/lvgl/examples/event/../../src/core/lv_obj_pos.h ****  *                  pixel               simple set the size accordingly
  85:lvgl/lvgl/examples/event/../../src/core/lv_obj_pos.h ****  *                  LV_SIZE_CONTENT     set the size to involve all children in the given direction
  86:lvgl/lvgl/examples/event/../../src/core/lv_obj_pos.h ****  *                  lv_pct(x)           to set size in percentage of the parent's content area size
  87:lvgl/lvgl/examples/event/../../src/core/lv_obj_pos.h ****  *                                      x should be in [0..1000]% range
  88:lvgl/lvgl/examples/event/../../src/core/lv_obj_pos.h ****  */
  89:lvgl/lvgl/examples/event/../../src/core/lv_obj_pos.h **** void lv_obj_set_width(struct _lv_obj_t * obj, lv_coord_t w);
  90:lvgl/lvgl/examples/event/../../src/core/lv_obj_pos.h **** 
  91:lvgl/lvgl/examples/event/../../src/core/lv_obj_pos.h **** /**
  92:lvgl/lvgl/examples/event/../../src/core/lv_obj_pos.h ****  * Set the height of an object
  93:lvgl/lvgl/examples/event/../../src/core/lv_obj_pos.h ****  * @param obj       pointer to an object
  94:lvgl/lvgl/examples/event/../../src/core/lv_obj_pos.h ****  * @param h         the new height
  95:lvgl/lvgl/examples/event/../../src/core/lv_obj_pos.h ****  * @note            possible values are:
  96:lvgl/lvgl/examples/event/../../src/core/lv_obj_pos.h ****  *                  pixel               simple set the size accordingly
  97:lvgl/lvgl/examples/event/../../src/core/lv_obj_pos.h ****  *                  LV_SIZE_CONTENT     set the size to involve all children in the given direction
  98:lvgl/lvgl/examples/event/../../src/core/lv_obj_pos.h ****  *                  lv_pct(x)           to set size in percentage of the parent's content area size
  99:lvgl/lvgl/examples/event/../../src/core/lv_obj_pos.h ****  *                                      x should be in [0..1000]% range
 100:lvgl/lvgl/examples/event/../../src/core/lv_obj_pos.h ****  */
 101:lvgl/lvgl/examples/event/../../src/core/lv_obj_pos.h **** void lv_obj_set_height(struct _lv_obj_t * obj, lv_coord_t h);
 102:lvgl/lvgl/examples/event/../../src/core/lv_obj_pos.h **** 
 103:lvgl/lvgl/examples/event/../../src/core/lv_obj_pos.h **** /**
 104:lvgl/lvgl/examples/event/../../src/core/lv_obj_pos.h ****  * Set the width reduced by the left and right padding and the border width.
 105:lvgl/lvgl/examples/event/../../src/core/lv_obj_pos.h ****  * @param obj       pointer to an object
 106:lvgl/lvgl/examples/event/../../src/core/lv_obj_pos.h ****  * @param w         the width without paddings in pixels
 107:lvgl/lvgl/examples/event/../../src/core/lv_obj_pos.h ****  */
 108:lvgl/lvgl/examples/event/../../src/core/lv_obj_pos.h **** void lv_obj_set_content_width(struct _lv_obj_t * obj, lv_coord_t w);
 109:lvgl/lvgl/examples/event/../../src/core/lv_obj_pos.h **** 
 110:lvgl/lvgl/examples/event/../../src/core/lv_obj_pos.h **** /**
 111:lvgl/lvgl/examples/event/../../src/core/lv_obj_pos.h ****  * Set the height reduced by the top and bottom padding and the border width.
 112:lvgl/lvgl/examples/event/../../src/core/lv_obj_pos.h ****  * @param obj       pointer to an object
 113:lvgl/lvgl/examples/event/../../src/core/lv_obj_pos.h ****  * @param h         the height without paddings in pixels
 114:lvgl/lvgl/examples/event/../../src/core/lv_obj_pos.h ****  */
 115:lvgl/lvgl/examples/event/../../src/core/lv_obj_pos.h **** void lv_obj_set_content_height(struct _lv_obj_t * obj, lv_coord_t h);
 116:lvgl/lvgl/examples/event/../../src/core/lv_obj_pos.h **** 
 117:lvgl/lvgl/examples/event/../../src/core/lv_obj_pos.h **** /**
 118:lvgl/lvgl/examples/event/../../src/core/lv_obj_pos.h ****  * Set a layout for an object
 119:lvgl/lvgl/examples/event/../../src/core/lv_obj_pos.h ****  * @param obj       pointer to an object
 120:lvgl/lvgl/examples/event/../../src/core/lv_obj_pos.h ****  * @param layout    pointer to a layout descriptor to set
 121:lvgl/lvgl/examples/event/../../src/core/lv_obj_pos.h ****  */
 122:lvgl/lvgl/examples/event/../../src/core/lv_obj_pos.h **** void lv_obj_set_layout(struct _lv_obj_t * obj, uint32_t layout);
 123:lvgl/lvgl/examples/event/../../src/core/lv_obj_pos.h **** 
 124:lvgl/lvgl/examples/event/../../src/core/lv_obj_pos.h **** /**
 125:lvgl/lvgl/examples/event/../../src/core/lv_obj_pos.h ****  * Test whether the and object is positioned by a layout or not
 126:lvgl/lvgl/examples/event/../../src/core/lv_obj_pos.h ****  * @param obj       pointer to an object to test
 127:lvgl/lvgl/examples/event/../../src/core/lv_obj_pos.h ****  * @return true:    positioned by a layout; false: not positioned by a layout
 128:lvgl/lvgl/examples/event/../../src/core/lv_obj_pos.h ****  */
 129:lvgl/lvgl/examples/event/../../src/core/lv_obj_pos.h **** bool lv_obj_is_layout_positioned(const struct _lv_obj_t * obj);
 130:lvgl/lvgl/examples/event/../../src/core/lv_obj_pos.h **** 
 131:lvgl/lvgl/examples/event/../../src/core/lv_obj_pos.h **** /**
 132:lvgl/lvgl/examples/event/../../src/core/lv_obj_pos.h ****  * Mark the object for layout update.
 133:lvgl/lvgl/examples/event/../../src/core/lv_obj_pos.h ****  * @param obj      pointer to an object whose children needs to be updated
 134:lvgl/lvgl/examples/event/../../src/core/lv_obj_pos.h ****  */
 135:lvgl/lvgl/examples/event/../../src/core/lv_obj_pos.h **** void lv_obj_mark_layout_as_dirty(struct _lv_obj_t * obj);
 136:lvgl/lvgl/examples/event/../../src/core/lv_obj_pos.h **** 
 137:lvgl/lvgl/examples/event/../../src/core/lv_obj_pos.h **** /**
ARM GAS  C:\Users\gx\AppData\Local\Temp\cczuAAU1.s 			page 9


 138:lvgl/lvgl/examples/event/../../src/core/lv_obj_pos.h ****  * Update the layout of an object.
 139:lvgl/lvgl/examples/event/../../src/core/lv_obj_pos.h ****  * @param obj      pointer to an object whose children needs to be updated
 140:lvgl/lvgl/examples/event/../../src/core/lv_obj_pos.h ****  */
 141:lvgl/lvgl/examples/event/../../src/core/lv_obj_pos.h **** void lv_obj_update_layout(const struct _lv_obj_t * obj);
 142:lvgl/lvgl/examples/event/../../src/core/lv_obj_pos.h **** 
 143:lvgl/lvgl/examples/event/../../src/core/lv_obj_pos.h **** /**
 144:lvgl/lvgl/examples/event/../../src/core/lv_obj_pos.h ****  * Regsiter a new layout
 145:lvgl/lvgl/examples/event/../../src/core/lv_obj_pos.h ****  * @param cb        the layout update callback
 146:lvgl/lvgl/examples/event/../../src/core/lv_obj_pos.h ****  * @param user_data custom data that will be passed to `cb`
 147:lvgl/lvgl/examples/event/../../src/core/lv_obj_pos.h ****  * @return          the ID of the new layout
 148:lvgl/lvgl/examples/event/../../src/core/lv_obj_pos.h ****  */
 149:lvgl/lvgl/examples/event/../../src/core/lv_obj_pos.h **** uint32_t lv_layout_register(lv_layout_update_cb_t cb, void * user_data);
 150:lvgl/lvgl/examples/event/../../src/core/lv_obj_pos.h **** 
 151:lvgl/lvgl/examples/event/../../src/core/lv_obj_pos.h **** /**
 152:lvgl/lvgl/examples/event/../../src/core/lv_obj_pos.h ****  * Change the alignment of an object.
 153:lvgl/lvgl/examples/event/../../src/core/lv_obj_pos.h ****  * @param obj       pointer to an object to align
 154:lvgl/lvgl/examples/event/../../src/core/lv_obj_pos.h ****  * @param align     type of alignment (see 'lv_align_t' enum) `LV_ALIGN_OUT_...` can't be used.
 155:lvgl/lvgl/examples/event/../../src/core/lv_obj_pos.h ****  */
 156:lvgl/lvgl/examples/event/../../src/core/lv_obj_pos.h **** void lv_obj_set_align(struct _lv_obj_t * obj, lv_align_t align);
 157:lvgl/lvgl/examples/event/../../src/core/lv_obj_pos.h **** 
 158:lvgl/lvgl/examples/event/../../src/core/lv_obj_pos.h **** /**
 159:lvgl/lvgl/examples/event/../../src/core/lv_obj_pos.h ****  * Change the alignment of an object and set new coordinates.
 160:lvgl/lvgl/examples/event/../../src/core/lv_obj_pos.h ****  * Equivalent to:
 161:lvgl/lvgl/examples/event/../../src/core/lv_obj_pos.h ****  * lv_obj_set_align(obj, align);
 162:lvgl/lvgl/examples/event/../../src/core/lv_obj_pos.h ****  * lv_obj_set_pos(obj, x_ofs, y_ofs);
 163:lvgl/lvgl/examples/event/../../src/core/lv_obj_pos.h ****  * @param obj       pointer to an object to align
 164:lvgl/lvgl/examples/event/../../src/core/lv_obj_pos.h ****  * @param align     type of alignment (see 'lv_align_t' enum) `LV_ALIGN_OUT_...` can't be used.
 165:lvgl/lvgl/examples/event/../../src/core/lv_obj_pos.h ****  * @param x_ofs     x coordinate offset after alignment
 166:lvgl/lvgl/examples/event/../../src/core/lv_obj_pos.h ****  * @param y_ofs     y coordinate offset after alignment
 167:lvgl/lvgl/examples/event/../../src/core/lv_obj_pos.h ****  */
 168:lvgl/lvgl/examples/event/../../src/core/lv_obj_pos.h **** void lv_obj_align(struct _lv_obj_t * obj, lv_align_t align, lv_coord_t x_ofs, lv_coord_t y_ofs);
 169:lvgl/lvgl/examples/event/../../src/core/lv_obj_pos.h **** 
 170:lvgl/lvgl/examples/event/../../src/core/lv_obj_pos.h **** /**
 171:lvgl/lvgl/examples/event/../../src/core/lv_obj_pos.h ****  * Align an object to an other object.
 172:lvgl/lvgl/examples/event/../../src/core/lv_obj_pos.h ****  * @param obj       pointer to an object to align
 173:lvgl/lvgl/examples/event/../../src/core/lv_obj_pos.h ****  * @param base      pointer to an other object (if NULL `obj`s parent is used). 'obj' will be align
 174:lvgl/lvgl/examples/event/../../src/core/lv_obj_pos.h ****  * @param align     type of alignment (see 'lv_align_t' enum)
 175:lvgl/lvgl/examples/event/../../src/core/lv_obj_pos.h ****  * @param x_ofs     x coordinate offset after alignment
 176:lvgl/lvgl/examples/event/../../src/core/lv_obj_pos.h ****  * @param y_ofs     y coordinate offset after alignment
 177:lvgl/lvgl/examples/event/../../src/core/lv_obj_pos.h ****  * @note            if the position or size of `base` changes `obj` needs to be aligned manually ag
 178:lvgl/lvgl/examples/event/../../src/core/lv_obj_pos.h ****  */
 179:lvgl/lvgl/examples/event/../../src/core/lv_obj_pos.h **** void lv_obj_align_to(struct _lv_obj_t * obj, const struct _lv_obj_t * base, lv_align_t align, lv_co
 180:lvgl/lvgl/examples/event/../../src/core/lv_obj_pos.h **** 
 181:lvgl/lvgl/examples/event/../../src/core/lv_obj_pos.h **** /**
 182:lvgl/lvgl/examples/event/../../src/core/lv_obj_pos.h ****  * Align an object to the center on its parent.
 183:lvgl/lvgl/examples/event/../../src/core/lv_obj_pos.h ****  * @param obj       pointer to an object to align
 184:lvgl/lvgl/examples/event/../../src/core/lv_obj_pos.h ****  * @note            if the parent size changes `obj` needs to be aligned manually again
 185:lvgl/lvgl/examples/event/../../src/core/lv_obj_pos.h ****  */
 186:lvgl/lvgl/examples/event/../../src/core/lv_obj_pos.h **** static inline void lv_obj_center(struct _lv_obj_t * obj)
 131              		.loc 3 186 20 view .LVU22
 132              	.LBB12:
 187:lvgl/lvgl/examples/event/../../src/core/lv_obj_pos.h **** {
 188:lvgl/lvgl/examples/event/../../src/core/lv_obj_pos.h ****     lv_obj_align(obj, LV_ALIGN_CENTER, 0, 0);
 133              		.loc 3 188 5 view .LVU23
 134 001a 0023     		movs	r3, #0
 135 001c 1A46     		mov	r2, r3
 136 001e 0921     		movs	r1, #9
ARM GAS  C:\Users\gx\AppData\Local\Temp\cczuAAU1.s 			page 10


 137 0020 3046     		mov	r0, r6
 138 0022 FFF7FEFF 		bl	lv_obj_align
 139              	.LVL13:
 140              		.loc 3 188 5 is_stmt 0 view .LVU24
 141              	.LBE12:
 142              	.LBE11:
  28:lvgl/lvgl/examples/event/lv_example_event_3.c ****     lv_obj_set_flex_flow(cont, LV_FLEX_FLOW_ROW_WRAP);
 143              		.loc 1 28 5 is_stmt 1 view .LVU25
 144 0026 0421     		movs	r1, #4
 145 0028 3046     		mov	r0, r6
 146 002a FFF7FEFF 		bl	lv_obj_set_flex_flow
 147              	.LVL14:
  29:lvgl/lvgl/examples/event/lv_example_event_3.c **** 
  30:lvgl/lvgl/examples/event/lv_example_event_3.c ****     uint32_t i;
 148              		.loc 1 30 5 view .LVU26
  31:lvgl/lvgl/examples/event/lv_example_event_3.c ****     for(i = 0; i < 30; i++) {
 149              		.loc 1 31 5 view .LVU27
 150              		.loc 1 31 11 is_stmt 0 view .LVU28
 151 002e 0025     		movs	r5, #0
 152              		.loc 1 31 5 view .LVU29
 153 0030 1BE0     		b	.L5
 154              	.LVL15:
 155              	.L6:
 156              	.LBB13:
  32:lvgl/lvgl/examples/event/lv_example_event_3.c ****         lv_obj_t * btn = lv_btn_create(cont);
 157              		.loc 1 32 9 is_stmt 1 discriminator 3 view .LVU30
 158              		.loc 1 32 26 is_stmt 0 discriminator 3 view .LVU31
 159 0032 3046     		mov	r0, r6
 160 0034 FFF7FEFF 		bl	lv_btn_create
 161              	.LVL16:
 162 0038 0446     		mov	r4, r0
 163              	.LVL17:
  33:lvgl/lvgl/examples/event/lv_example_event_3.c ****         lv_obj_set_size(btn, 80, 50);
 164              		.loc 1 33 9 is_stmt 1 discriminator 3 view .LVU32
 165 003a 3222     		movs	r2, #50
 166 003c 5021     		movs	r1, #80
 167 003e FFF7FEFF 		bl	lv_obj_set_size
 168              	.LVL18:
  34:lvgl/lvgl/examples/event/lv_example_event_3.c ****         lv_obj_add_flag(btn, LV_OBJ_FLAG_EVENT_BUBBLE);
 169              		.loc 1 34 9 discriminator 3 view .LVU33
 170 0042 4FF48051 		mov	r1, #4096
 171 0046 2046     		mov	r0, r4
 172 0048 FFF7FEFF 		bl	lv_obj_add_flag
 173              	.LVL19:
  35:lvgl/lvgl/examples/event/lv_example_event_3.c **** 
  36:lvgl/lvgl/examples/event/lv_example_event_3.c ****         lv_obj_t * label = lv_label_create(btn);
 174              		.loc 1 36 9 discriminator 3 view .LVU34
 175              		.loc 1 36 28 is_stmt 0 discriminator 3 view .LVU35
 176 004c 2046     		mov	r0, r4
 177 004e FFF7FEFF 		bl	lv_label_create
 178              	.LVL20:
 179 0052 0446     		mov	r4, r0
 180              	.LVL21:
  37:lvgl/lvgl/examples/event/lv_example_event_3.c ****         lv_label_set_text_fmt(label, "%d", i);
 181              		.loc 1 37 9 is_stmt 1 discriminator 3 view .LVU36
 182 0054 2A46     		mov	r2, r5
 183 0056 0949     		ldr	r1, .L8
ARM GAS  C:\Users\gx\AppData\Local\Temp\cczuAAU1.s 			page 11


 184 0058 FFF7FEFF 		bl	lv_label_set_text_fmt
 185              	.LVL22:
  38:lvgl/lvgl/examples/event/lv_example_event_3.c ****         lv_obj_center(label);
 186              		.loc 1 38 9 discriminator 3 view .LVU37
 187              	.LBB14:
 188              	.LBI14:
 186:lvgl/lvgl/examples/event/../../src/core/lv_obj_pos.h **** {
 189              		.loc 3 186 20 discriminator 3 view .LVU38
 190              	.LBB15:
 191              		.loc 3 188 5 discriminator 3 view .LVU39
 192 005c 0023     		movs	r3, #0
 193 005e 1A46     		mov	r2, r3
 194 0060 0921     		movs	r1, #9
 195 0062 2046     		mov	r0, r4
 196 0064 FFF7FEFF 		bl	lv_obj_align
 197              	.LVL23:
 198              		.loc 3 188 5 is_stmt 0 discriminator 3 view .LVU40
 199              	.LBE15:
 200              	.LBE14:
 201              	.LBE13:
  31:lvgl/lvgl/examples/event/lv_example_event_3.c ****         lv_obj_t * btn = lv_btn_create(cont);
 202              		.loc 1 31 24 is_stmt 1 discriminator 3 view .LVU41
  31:lvgl/lvgl/examples/event/lv_example_event_3.c ****         lv_obj_t * btn = lv_btn_create(cont);
 203              		.loc 1 31 25 is_stmt 0 discriminator 3 view .LVU42
 204 0068 0135     		adds	r5, r5, #1
 205              	.LVL24:
 206              	.L5:
  31:lvgl/lvgl/examples/event/lv_example_event_3.c ****         lv_obj_t * btn = lv_btn_create(cont);
 207              		.loc 1 31 16 is_stmt 1 discriminator 1 view .LVU43
  31:lvgl/lvgl/examples/event/lv_example_event_3.c ****         lv_obj_t * btn = lv_btn_create(cont);
 208              		.loc 1 31 5 is_stmt 0 discriminator 1 view .LVU44
 209 006a 1D2D     		cmp	r5, #29
 210 006c E1D9     		bls	.L6
  39:lvgl/lvgl/examples/event/lv_example_event_3.c ****     }
  40:lvgl/lvgl/examples/event/lv_example_event_3.c **** 
  41:lvgl/lvgl/examples/event/lv_example_event_3.c ****     lv_obj_add_event_cb(cont, event_cb, LV_EVENT_CLICKED, NULL);
 211              		.loc 1 41 5 is_stmt 1 view .LVU45
 212 006e 0023     		movs	r3, #0
 213 0070 0722     		movs	r2, #7
 214 0072 0349     		ldr	r1, .L8+4
 215 0074 3046     		mov	r0, r6
 216 0076 FFF7FEFF 		bl	lv_obj_add_event_cb
 217              	.LVL25:
  42:lvgl/lvgl/examples/event/lv_example_event_3.c **** }
 218              		.loc 1 42 1 is_stmt 0 view .LVU46
 219 007a 70BD     		pop	{r4, r5, r6, pc}
 220              	.LVL26:
 221              	.L9:
 222              		.loc 1 42 1 view .LVU47
 223              		.align	2
 224              	.L8:
 225 007c 00000000 		.word	.LC0
 226 0080 00000000 		.word	event_cb
 227              		.cfi_endproc
 228              	.LFE190:
 230              		.text
 231              	.Letext0:
ARM GAS  C:\Users\gx\AppData\Local\Temp\cczuAAU1.s 			page 12


 232              		.file 4 "c:\\program files (x86)\\gnu arm embedded toolchain\\9 2020-q2-update\\arm-none-eabi\\inc
 233              		.file 5 "c:\\program files (x86)\\gnu arm embedded toolchain\\9 2020-q2-update\\arm-none-eabi\\inc
 234              		.file 6 "lvgl/lvgl/examples/event/../../src/misc/lv_ll.h"
 235              		.file 7 "c:\\program files (x86)\\gnu arm embedded toolchain\\9 2020-q2-update\\lib\\gcc\\arm-none
 236              		.file 8 "c:\\program files (x86)\\gnu arm embedded toolchain\\9 2020-q2-update\\arm-none-eabi\\inc
 237              		.file 9 "c:\\program files (x86)\\gnu arm embedded toolchain\\9 2020-q2-update\\arm-none-eabi\\inc
 238              		.file 10 "c:\\program files (x86)\\gnu arm embedded toolchain\\9 2020-q2-update\\arm-none-eabi\\in
 239              		.file 11 "d:\\practise\\f407_disc\\lvgl\\lvgl\\src\\misc\\lv_color.h"
 240              		.file 12 "d:\\practise\\f407_disc\\lvgl\\lvgl\\src\\misc\\lv_area.h"
 241              		.file 13 "lvgl/lvgl/examples/event/../../src/core/lv_obj.h"
 242              		.file 14 "lvgl/lvgl/examples/event/../../src/core/lv_group.h"
 243              		.file 15 "d:\\practise\\f407_disc\\lvgl\\lvgl\\src\\font\\lv_font.h"
 244              		.file 16 "d:\\practise\\f407_disc\\lvgl\\lvgl\\src\\misc\\lv_txt.h"
 245              		.file 17 "d:\\practise\\f407_disc\\lvgl\\lvgl\\src\\misc\\lv_style.h"
 246              		.file 18 "lvgl/lvgl/examples/event/../../src/core/lv_obj_scroll.h"
 247              		.file 19 "lvgl/lvgl/examples/event/../../src/core/lv_obj_style.h"
 248              		.file 20 "d:\\practise\\f407_disc\\lvgl\\lvgl\\src\\draw\\lv_draw_label.h"
 249              		.file 21 "lvgl/lvgl/examples/event/../../src/core/lv_obj_class.h"
 250              		.file 22 "lvgl/lvgl/examples/event/../../src/core/lv_event.h"
 251              		.file 23 "lvgl/lvgl/examples/event/../../src/widgets/lv_arc.h"
 252              		.file 24 "lvgl/lvgl/examples/event/../../src/widgets/lv_btn.h"
 253              		.file 25 "lvgl/lvgl/examples/event/../../src/widgets/lv_img.h"
 254              		.file 26 "lvgl/lvgl/examples/event/../../src/widgets/lv_label.h"
 255              		.file 27 "lvgl/lvgl/examples/event/../../src/widgets/lv_line.h"
 256              		.file 28 "lvgl/lvgl/examples/event/../../src/widgets/lv_table.h"
 257              		.file 29 "lvgl/lvgl/examples/event/../../src/widgets/lv_checkbox.h"
 258              		.file 30 "lvgl/lvgl/examples/event/../../src/widgets/lv_bar.h"
 259              		.file 31 "lvgl/lvgl/examples/event/../../src/widgets/lv_slider.h"
 260              		.file 32 "lvgl/lvgl/examples/event/../../src/widgets/lv_btnmatrix.h"
 261              		.file 33 "lvgl/lvgl/examples/event/../../src/widgets/lv_dropdown.h"
 262              		.file 34 "lvgl/lvgl/examples/event/../../src/widgets/lv_roller.h"
 263              		.file 35 "lvgl/lvgl/examples/event/../../src/widgets/lv_textarea.h"
 264              		.file 36 "lvgl/lvgl/examples/event/../../src/widgets/lv_canvas.h"
 265              		.file 37 "lvgl/lvgl/examples/event/../../src/widgets/lv_switch.h"
 266              		.file 38 "lvgl/lvgl/examples/event/../../src/extra/widgets/animimg/lv_animimg.h"
 267              		.file 39 "lvgl/lvgl/examples/event/../../src/extra/widgets/calendar/lv_calendar.h"
 268              		.file 40 "lvgl/lvgl/examples/event/../../src/extra/widgets/calendar/lv_calendar_header_arrow.h"
 269              		.file 41 "lvgl/lvgl/examples/event/../../src/extra/widgets/calendar/lv_calendar_header_dropdown.h"
 270              		.file 42 "lvgl/lvgl/examples/event/../../src/extra/widgets/chart/lv_chart.h"
 271              		.file 43 "lvgl/lvgl/examples/event/../../src/extra/widgets/keyboard/lv_keyboard.h"
 272              		.file 44 "d:\\practise\\f407_disc\\lvgl\\lvgl\\src\\extra\\layouts\\flex\\lv_flex.h"
 273              		.file 45 "lvgl/lvgl/examples/event/../../src/extra/widgets/list/lv_list.h"
 274              		.file 46 "lvgl/lvgl/examples/event/../../src/extra/widgets/msgbox/lv_msgbox.h"
 275              		.file 47 "lvgl/lvgl/examples/event/../../src/extra/widgets/meter/lv_meter.h"
 276              		.file 48 "lvgl/lvgl/examples/event/../../src/extra/widgets/spinbox/lv_spinbox.h"
 277              		.file 49 "lvgl/lvgl/examples/event/../../src/extra/widgets/spinner/lv_spinner.h"
 278              		.file 50 "lvgl/lvgl/examples/event/../../src/extra/widgets/tabview/lv_tabview.h"
 279              		.file 51 "lvgl/lvgl/examples/event/../../src/extra/widgets/tileview/lv_tileview.h"
 280              		.file 52 "lvgl/lvgl/examples/event/../../src/extra/widgets/win/lv_win.h"
 281              		.file 53 "lvgl/lvgl/examples/event/../../src/extra/widgets/colorwheel/lv_colorwheel.h"
 282              		.file 54 "lvgl/lvgl/examples/event/../../src/extra/widgets/led/lv_led.h"
 283              		.file 55 "lvgl/lvgl/examples/event/../../src/extra/widgets/imgbtn/lv_imgbtn.h"
 284              		.file 56 "lvgl/lvgl/examples/event/../../src/extra/widgets/span/lv_span.h"
 285              		.file 57 "lvgl/lvgl/examples/event/../../src/extra/layouts/grid/lv_grid.h"
 286              		.file 58 "lvgl/lvgl/examples/event/../../src/hal/lv_hal_disp.h"
 287              		.file 59 "lvgl/lvgl/examples/event/../../src/core/lv_obj_style_gen.h"
ARM GAS  C:\Users\gx\AppData\Local\Temp\cczuAAU1.s 			page 13

