ARM GAS  C:\Users\gx\AppData\Local\Temp\ccj41fgG.s 			page 1


   1              		.cpu cortex-m4
   2              		.eabi_attribute 27, 1
   3              		.eabi_attribute 28, 1
   4              		.eabi_attribute 20, 1
   5              		.eabi_attribute 21, 1
   6              		.eabi_attribute 23, 3
   7              		.eabi_attribute 24, 1
   8              		.eabi_attribute 25, 1
   9              		.eabi_attribute 26, 1
  10              		.eabi_attribute 30, 1
  11              		.eabi_attribute 34, 1
  12              		.eabi_attribute 18, 4
  13              		.file	"lv_example_scroll_3.c"
  14              		.text
  15              	.Ltext0:
  16              		.cfi_sections	.debug_frame
  17              		.section	.rodata.float_btn_event_cb.str1.4,"aMS",%progbits,1
  18              		.align	2
  19              	.LC0:
  20 0000 54726163 		.ascii	"Track %d\000"
  20      6B202564 
  20      00
  21 0009 000000   		.align	2
  22              	.LC1:
  23 000c EF808100 		.ascii	"\357\200\201\000"
  24              		.section	.text.float_btn_event_cb,"ax",%progbits
  25              		.align	1
  26              		.arch armv7e-m
  27              		.syntax unified
  28              		.thumb
  29              		.thumb_func
  30              		.fpu fpv4-sp-d16
  32              	float_btn_event_cb:
  33              	.LVL0:
  34              	.LFB189:
  35              		.file 1 "lvgl/lvgl/examples/scroll/lv_example_scroll_3.c"
   1:lvgl/lvgl/examples/scroll/lv_example_scroll_3.c **** #include "../lv_examples.h"
   2:lvgl/lvgl/examples/scroll/lv_example_scroll_3.c **** #if LV_BUILD_EXAMPLES && LV_USE_LIST
   3:lvgl/lvgl/examples/scroll/lv_example_scroll_3.c **** 
   4:lvgl/lvgl/examples/scroll/lv_example_scroll_3.c **** static uint32_t btn_cnt = 1;
   5:lvgl/lvgl/examples/scroll/lv_example_scroll_3.c **** 
   6:lvgl/lvgl/examples/scroll/lv_example_scroll_3.c **** static void float_btn_event_cb(lv_event_t * e)
   7:lvgl/lvgl/examples/scroll/lv_example_scroll_3.c **** {
  36              		.loc 1 7 1 view -0
  37              		.cfi_startproc
  38              		@ args = 0, pretend = 0, frame = 32
  39              		@ frame_needed = 0, uses_anonymous_args = 0
  40              		.loc 1 7 1 is_stmt 0 view .LVU1
  41 0000 70B5     		push	{r4, r5, r6, lr}
  42              	.LCFI0:
  43              		.cfi_def_cfa_offset 16
  44              		.cfi_offset 4, -16
  45              		.cfi_offset 5, -12
  46              		.cfi_offset 6, -8
  47              		.cfi_offset 14, -4
  48 0002 88B0     		sub	sp, sp, #32
  49              	.LCFI1:
ARM GAS  C:\Users\gx\AppData\Local\Temp\ccj41fgG.s 			page 2


  50              		.cfi_def_cfa_offset 48
  51 0004 0446     		mov	r4, r0
   8:lvgl/lvgl/examples/scroll/lv_example_scroll_3.c ****     lv_event_code_t code = lv_event_get_code(e);
  52              		.loc 1 8 5 is_stmt 1 view .LVU2
  53              		.loc 1 8 28 is_stmt 0 view .LVU3
  54 0006 FFF7FEFF 		bl	lv_event_get_code
  55              	.LVL1:
  56              		.loc 1 8 28 view .LVU4
  57 000a 0546     		mov	r5, r0
  58              	.LVL2:
   9:lvgl/lvgl/examples/scroll/lv_example_scroll_3.c ****     lv_obj_t * float_btn = lv_event_get_target(e);
  59              		.loc 1 9 5 is_stmt 1 view .LVU5
  60              		.loc 1 9 28 is_stmt 0 view .LVU6
  61 000c 2046     		mov	r0, r4
  62 000e FFF7FEFF 		bl	lv_event_get_target
  63              	.LVL3:
  10:lvgl/lvgl/examples/scroll/lv_example_scroll_3.c **** 
  11:lvgl/lvgl/examples/scroll/lv_example_scroll_3.c ****     if(code == LV_EVENT_CLICKED) {
  64              		.loc 1 11 5 is_stmt 1 view .LVU7
  65              		.loc 1 11 7 is_stmt 0 view .LVU8
  66 0012 072D     		cmp	r5, #7
  67 0014 01D0     		beq	.L4
  68              	.LVL4:
  69              	.L1:
  12:lvgl/lvgl/examples/scroll/lv_example_scroll_3.c ****         lv_obj_t * list = lv_event_get_user_data(e);
  13:lvgl/lvgl/examples/scroll/lv_example_scroll_3.c ****         char buf[32];
  14:lvgl/lvgl/examples/scroll/lv_example_scroll_3.c ****         lv_snprintf(buf, sizeof(buf), "Track %d", btn_cnt);
  15:lvgl/lvgl/examples/scroll/lv_example_scroll_3.c ****         lv_obj_t * list_btn = lv_list_add_btn(list, LV_SYMBOL_AUDIO, buf);
  16:lvgl/lvgl/examples/scroll/lv_example_scroll_3.c ****         btn_cnt++;
  17:lvgl/lvgl/examples/scroll/lv_example_scroll_3.c **** 
  18:lvgl/lvgl/examples/scroll/lv_example_scroll_3.c ****         lv_obj_move_foreground(float_btn);
  19:lvgl/lvgl/examples/scroll/lv_example_scroll_3.c **** 
  20:lvgl/lvgl/examples/scroll/lv_example_scroll_3.c ****         lv_obj_scroll_to_view(list_btn, LV_ANIM_ON);
  21:lvgl/lvgl/examples/scroll/lv_example_scroll_3.c ****     }
  22:lvgl/lvgl/examples/scroll/lv_example_scroll_3.c **** }
  70              		.loc 1 22 1 view .LVU9
  71 0016 08B0     		add	sp, sp, #32
  72              	.LCFI2:
  73              		.cfi_remember_state
  74              		.cfi_def_cfa_offset 16
  75              		@ sp needed
  76 0018 70BD     		pop	{r4, r5, r6, pc}
  77              	.LVL5:
  78              	.L4:
  79              	.LCFI3:
  80              		.cfi_restore_state
  81              		.loc 1 22 1 view .LVU10
  82 001a 0646     		mov	r6, r0
  83              	.LBB9:
  12:lvgl/lvgl/examples/scroll/lv_example_scroll_3.c ****         lv_obj_t * list = lv_event_get_user_data(e);
  84              		.loc 1 12 9 is_stmt 1 view .LVU11
  12:lvgl/lvgl/examples/scroll/lv_example_scroll_3.c ****         lv_obj_t * list = lv_event_get_user_data(e);
  85              		.loc 1 12 27 is_stmt 0 view .LVU12
  86 001c 2046     		mov	r0, r4
  87              	.LVL6:
  12:lvgl/lvgl/examples/scroll/lv_example_scroll_3.c ****         lv_obj_t * list = lv_event_get_user_data(e);
  88              		.loc 1 12 27 view .LVU13
ARM GAS  C:\Users\gx\AppData\Local\Temp\ccj41fgG.s 			page 3


  89 001e FFF7FEFF 		bl	lv_event_get_user_data
  90              	.LVL7:
  91 0022 0446     		mov	r4, r0
  92              	.LVL8:
  13:lvgl/lvgl/examples/scroll/lv_example_scroll_3.c ****         lv_snprintf(buf, sizeof(buf), "Track %d", btn_cnt);
  93              		.loc 1 13 9 is_stmt 1 view .LVU14
  14:lvgl/lvgl/examples/scroll/lv_example_scroll_3.c ****         lv_obj_t * list_btn = lv_list_add_btn(list, LV_SYMBOL_AUDIO, buf);
  94              		.loc 1 14 9 view .LVU15
  95 0024 0B4D     		ldr	r5, .L5
  96              	.LVL9:
  14:lvgl/lvgl/examples/scroll/lv_example_scroll_3.c ****         lv_obj_t * list_btn = lv_list_add_btn(list, LV_SYMBOL_AUDIO, buf);
  97              		.loc 1 14 9 is_stmt 0 view .LVU16
  98 0026 2B68     		ldr	r3, [r5]
  99 0028 0B4A     		ldr	r2, .L5+4
 100 002a 2021     		movs	r1, #32
 101 002c 6846     		mov	r0, sp
 102              	.LVL10:
  14:lvgl/lvgl/examples/scroll/lv_example_scroll_3.c ****         lv_obj_t * list_btn = lv_list_add_btn(list, LV_SYMBOL_AUDIO, buf);
 103              		.loc 1 14 9 view .LVU17
 104 002e FFF7FEFF 		bl	lv_snprintf
 105              	.LVL11:
  15:lvgl/lvgl/examples/scroll/lv_example_scroll_3.c ****         btn_cnt++;
 106              		.loc 1 15 9 is_stmt 1 view .LVU18
  15:lvgl/lvgl/examples/scroll/lv_example_scroll_3.c ****         btn_cnt++;
 107              		.loc 1 15 31 is_stmt 0 view .LVU19
 108 0032 6A46     		mov	r2, sp
 109 0034 0949     		ldr	r1, .L5+8
 110 0036 2046     		mov	r0, r4
 111 0038 FFF7FEFF 		bl	lv_list_add_btn
 112              	.LVL12:
 113 003c 0446     		mov	r4, r0
 114              	.LVL13:
  16:lvgl/lvgl/examples/scroll/lv_example_scroll_3.c **** 
 115              		.loc 1 16 9 is_stmt 1 view .LVU20
  16:lvgl/lvgl/examples/scroll/lv_example_scroll_3.c **** 
 116              		.loc 1 16 16 is_stmt 0 view .LVU21
 117 003e 2B68     		ldr	r3, [r5]
 118 0040 0133     		adds	r3, r3, #1
 119 0042 2B60     		str	r3, [r5]
  18:lvgl/lvgl/examples/scroll/lv_example_scroll_3.c **** 
 120              		.loc 1 18 9 is_stmt 1 view .LVU22
 121 0044 3046     		mov	r0, r6
 122              	.LVL14:
  18:lvgl/lvgl/examples/scroll/lv_example_scroll_3.c **** 
 123              		.loc 1 18 9 is_stmt 0 view .LVU23
 124 0046 FFF7FEFF 		bl	lv_obj_move_foreground
 125              	.LVL15:
  20:lvgl/lvgl/examples/scroll/lv_example_scroll_3.c ****     }
 126              		.loc 1 20 9 is_stmt 1 view .LVU24
 127 004a 0121     		movs	r1, #1
 128 004c 2046     		mov	r0, r4
 129 004e FFF7FEFF 		bl	lv_obj_scroll_to_view
 130              	.LVL16:
 131              	.LBE9:
 132              		.loc 1 22 1 is_stmt 0 view .LVU25
 133 0052 E0E7     		b	.L1
 134              	.L6:
ARM GAS  C:\Users\gx\AppData\Local\Temp\ccj41fgG.s 			page 4


 135              		.align	2
 136              	.L5:
 137 0054 00000000 		.word	.LANCHOR0
 138 0058 00000000 		.word	.LC0
 139 005c 0C000000 		.word	.LC1
 140              		.cfi_endproc
 141              	.LFE189:
 143              		.section	.rodata.lv_example_scroll_3.str1.4,"aMS",%progbits,1
 144              		.align	2
 145              	.LC2:
 146 0000 EF81A700 		.ascii	"\357\201\247\000"
 147              		.section	.text.lv_example_scroll_3,"ax",%progbits
 148              		.align	1
 149              		.global	lv_example_scroll_3
 150              		.syntax unified
 151              		.thumb
 152              		.thumb_func
 153              		.fpu fpv4-sp-d16
 155              	lv_example_scroll_3:
 156              	.LFB190:
  23:lvgl/lvgl/examples/scroll/lv_example_scroll_3.c **** 
  24:lvgl/lvgl/examples/scroll/lv_example_scroll_3.c **** /**
  25:lvgl/lvgl/examples/scroll/lv_example_scroll_3.c ****  * Create a list a with a floating button
  26:lvgl/lvgl/examples/scroll/lv_example_scroll_3.c ****  */
  27:lvgl/lvgl/examples/scroll/lv_example_scroll_3.c **** void lv_example_scroll_3(void)
  28:lvgl/lvgl/examples/scroll/lv_example_scroll_3.c **** {
 157              		.loc 1 28 1 is_stmt 1 view -0
 158              		.cfi_startproc
 159              		@ args = 0, pretend = 0, frame = 32
 160              		@ frame_needed = 0, uses_anonymous_args = 0
 161 0000 30B5     		push	{r4, r5, lr}
 162              	.LCFI4:
 163              		.cfi_def_cfa_offset 12
 164              		.cfi_offset 4, -12
 165              		.cfi_offset 5, -8
 166              		.cfi_offset 14, -4
 167 0002 89B0     		sub	sp, sp, #36
 168              	.LCFI5:
 169              		.cfi_def_cfa_offset 48
  29:lvgl/lvgl/examples/scroll/lv_example_scroll_3.c ****     lv_obj_t * list = lv_list_create(lv_scr_act());
 170              		.loc 1 29 5 view .LVU27
 171              	.LBB10:
 172              	.LBI10:
 173              		.file 2 "lvgl/lvgl/examples/scroll/../../src/core/lv_disp.h"
   1:lvgl/lvgl/examples/scroll/../../src/core/lv_disp.h **** /**
   2:lvgl/lvgl/examples/scroll/../../src/core/lv_disp.h ****  * @file lv_disp.h
   3:lvgl/lvgl/examples/scroll/../../src/core/lv_disp.h ****  *
   4:lvgl/lvgl/examples/scroll/../../src/core/lv_disp.h ****  */
   5:lvgl/lvgl/examples/scroll/../../src/core/lv_disp.h **** 
   6:lvgl/lvgl/examples/scroll/../../src/core/lv_disp.h **** #ifndef LV_DISP_H
   7:lvgl/lvgl/examples/scroll/../../src/core/lv_disp.h **** #define LV_DISP_H
   8:lvgl/lvgl/examples/scroll/../../src/core/lv_disp.h **** 
   9:lvgl/lvgl/examples/scroll/../../src/core/lv_disp.h **** #ifdef __cplusplus
  10:lvgl/lvgl/examples/scroll/../../src/core/lv_disp.h **** extern "C" {
  11:lvgl/lvgl/examples/scroll/../../src/core/lv_disp.h **** #endif
  12:lvgl/lvgl/examples/scroll/../../src/core/lv_disp.h **** 
  13:lvgl/lvgl/examples/scroll/../../src/core/lv_disp.h **** /*********************
ARM GAS  C:\Users\gx\AppData\Local\Temp\ccj41fgG.s 			page 5


  14:lvgl/lvgl/examples/scroll/../../src/core/lv_disp.h ****  *      INCLUDES
  15:lvgl/lvgl/examples/scroll/../../src/core/lv_disp.h ****  *********************/
  16:lvgl/lvgl/examples/scroll/../../src/core/lv_disp.h **** #include "../hal/lv_hal.h"
  17:lvgl/lvgl/examples/scroll/../../src/core/lv_disp.h **** #include "lv_obj.h"
  18:lvgl/lvgl/examples/scroll/../../src/core/lv_disp.h **** #include "lv_theme.h"
  19:lvgl/lvgl/examples/scroll/../../src/core/lv_disp.h **** 
  20:lvgl/lvgl/examples/scroll/../../src/core/lv_disp.h **** /*********************
  21:lvgl/lvgl/examples/scroll/../../src/core/lv_disp.h ****  *      DEFINES
  22:lvgl/lvgl/examples/scroll/../../src/core/lv_disp.h ****  *********************/
  23:lvgl/lvgl/examples/scroll/../../src/core/lv_disp.h **** 
  24:lvgl/lvgl/examples/scroll/../../src/core/lv_disp.h **** /**********************
  25:lvgl/lvgl/examples/scroll/../../src/core/lv_disp.h ****  *      TYPEDEFS
  26:lvgl/lvgl/examples/scroll/../../src/core/lv_disp.h ****  **********************/
  27:lvgl/lvgl/examples/scroll/../../src/core/lv_disp.h **** 
  28:lvgl/lvgl/examples/scroll/../../src/core/lv_disp.h **** typedef enum {
  29:lvgl/lvgl/examples/scroll/../../src/core/lv_disp.h ****     LV_SCR_LOAD_ANIM_NONE,
  30:lvgl/lvgl/examples/scroll/../../src/core/lv_disp.h ****     LV_SCR_LOAD_ANIM_OVER_LEFT,
  31:lvgl/lvgl/examples/scroll/../../src/core/lv_disp.h ****     LV_SCR_LOAD_ANIM_OVER_RIGHT,
  32:lvgl/lvgl/examples/scroll/../../src/core/lv_disp.h ****     LV_SCR_LOAD_ANIM_OVER_TOP,
  33:lvgl/lvgl/examples/scroll/../../src/core/lv_disp.h ****     LV_SCR_LOAD_ANIM_OVER_BOTTOM,
  34:lvgl/lvgl/examples/scroll/../../src/core/lv_disp.h ****     LV_SCR_LOAD_ANIM_MOVE_LEFT,
  35:lvgl/lvgl/examples/scroll/../../src/core/lv_disp.h ****     LV_SCR_LOAD_ANIM_MOVE_RIGHT,
  36:lvgl/lvgl/examples/scroll/../../src/core/lv_disp.h ****     LV_SCR_LOAD_ANIM_MOVE_TOP,
  37:lvgl/lvgl/examples/scroll/../../src/core/lv_disp.h ****     LV_SCR_LOAD_ANIM_MOVE_BOTTOM,
  38:lvgl/lvgl/examples/scroll/../../src/core/lv_disp.h ****     LV_SCR_LOAD_ANIM_FADE_ON,
  39:lvgl/lvgl/examples/scroll/../../src/core/lv_disp.h **** } lv_scr_load_anim_t;
  40:lvgl/lvgl/examples/scroll/../../src/core/lv_disp.h **** 
  41:lvgl/lvgl/examples/scroll/../../src/core/lv_disp.h **** /**********************
  42:lvgl/lvgl/examples/scroll/../../src/core/lv_disp.h ****  * GLOBAL PROTOTYPES
  43:lvgl/lvgl/examples/scroll/../../src/core/lv_disp.h ****  **********************/
  44:lvgl/lvgl/examples/scroll/../../src/core/lv_disp.h **** 
  45:lvgl/lvgl/examples/scroll/../../src/core/lv_disp.h **** /**
  46:lvgl/lvgl/examples/scroll/../../src/core/lv_disp.h ****  * Return with a pointer to the active screen
  47:lvgl/lvgl/examples/scroll/../../src/core/lv_disp.h ****  * @param disp pointer to display which active screen should be get. (NULL to use the default
  48:lvgl/lvgl/examples/scroll/../../src/core/lv_disp.h ****  * screen)
  49:lvgl/lvgl/examples/scroll/../../src/core/lv_disp.h ****  * @return pointer to the active screen object (loaded by 'lv_scr_load()')
  50:lvgl/lvgl/examples/scroll/../../src/core/lv_disp.h ****  */
  51:lvgl/lvgl/examples/scroll/../../src/core/lv_disp.h **** lv_obj_t * lv_disp_get_scr_act(lv_disp_t * disp);
  52:lvgl/lvgl/examples/scroll/../../src/core/lv_disp.h **** 
  53:lvgl/lvgl/examples/scroll/../../src/core/lv_disp.h **** /**
  54:lvgl/lvgl/examples/scroll/../../src/core/lv_disp.h ****  * Return with a pointer to the previous screen. Only used during screen transitions.
  55:lvgl/lvgl/examples/scroll/../../src/core/lv_disp.h ****  * @param disp pointer to display which previous screen should be get. (NULL to use the default
  56:lvgl/lvgl/examples/scroll/../../src/core/lv_disp.h ****  * screen)
  57:lvgl/lvgl/examples/scroll/../../src/core/lv_disp.h ****  * @return pointer to the previous screen object or NULL if not used now
  58:lvgl/lvgl/examples/scroll/../../src/core/lv_disp.h ****  */
  59:lvgl/lvgl/examples/scroll/../../src/core/lv_disp.h **** lv_obj_t * lv_disp_get_scr_prev(lv_disp_t * disp);
  60:lvgl/lvgl/examples/scroll/../../src/core/lv_disp.h **** 
  61:lvgl/lvgl/examples/scroll/../../src/core/lv_disp.h **** /**
  62:lvgl/lvgl/examples/scroll/../../src/core/lv_disp.h ****  * Make a screen active
  63:lvgl/lvgl/examples/scroll/../../src/core/lv_disp.h ****  * @param scr pointer to a screen
  64:lvgl/lvgl/examples/scroll/../../src/core/lv_disp.h ****  */
  65:lvgl/lvgl/examples/scroll/../../src/core/lv_disp.h **** void lv_disp_load_scr(lv_obj_t * scr);
  66:lvgl/lvgl/examples/scroll/../../src/core/lv_disp.h **** 
  67:lvgl/lvgl/examples/scroll/../../src/core/lv_disp.h **** /**
  68:lvgl/lvgl/examples/scroll/../../src/core/lv_disp.h ****  * Return with the top layer. (Same on every screen and it is above the normal screen layer)
  69:lvgl/lvgl/examples/scroll/../../src/core/lv_disp.h ****  * @param disp pointer to display which top layer should be get. (NULL to use the default screen)
  70:lvgl/lvgl/examples/scroll/../../src/core/lv_disp.h ****  * @return pointer to the top layer object  (transparent screen sized lv_obj)
ARM GAS  C:\Users\gx\AppData\Local\Temp\ccj41fgG.s 			page 6


  71:lvgl/lvgl/examples/scroll/../../src/core/lv_disp.h ****  */
  72:lvgl/lvgl/examples/scroll/../../src/core/lv_disp.h **** lv_obj_t * lv_disp_get_layer_top(lv_disp_t * disp);
  73:lvgl/lvgl/examples/scroll/../../src/core/lv_disp.h **** 
  74:lvgl/lvgl/examples/scroll/../../src/core/lv_disp.h **** /**
  75:lvgl/lvgl/examples/scroll/../../src/core/lv_disp.h ****  * Return with the sys. layer. (Same on every screen and it is above the normal screen and the top
  76:lvgl/lvgl/examples/scroll/../../src/core/lv_disp.h ****  * layer)
  77:lvgl/lvgl/examples/scroll/../../src/core/lv_disp.h ****  * @param disp pointer to display which sys. layer  should be get. (NULL to use the default screen)
  78:lvgl/lvgl/examples/scroll/../../src/core/lv_disp.h ****  * @return pointer to the sys layer object  (transparent screen sized lv_obj)
  79:lvgl/lvgl/examples/scroll/../../src/core/lv_disp.h ****  */
  80:lvgl/lvgl/examples/scroll/../../src/core/lv_disp.h **** lv_obj_t * lv_disp_get_layer_sys(lv_disp_t * disp);
  81:lvgl/lvgl/examples/scroll/../../src/core/lv_disp.h **** 
  82:lvgl/lvgl/examples/scroll/../../src/core/lv_disp.h **** /**
  83:lvgl/lvgl/examples/scroll/../../src/core/lv_disp.h ****  * Get the theme of a display
  84:lvgl/lvgl/examples/scroll/../../src/core/lv_disp.h ****  * @param disp pointer to a display
  85:lvgl/lvgl/examples/scroll/../../src/core/lv_disp.h ****  * @return the display's theme (can be NULL)
  86:lvgl/lvgl/examples/scroll/../../src/core/lv_disp.h ****  */
  87:lvgl/lvgl/examples/scroll/../../src/core/lv_disp.h **** void lv_disp_set_theme(lv_disp_t * disp, lv_theme_t * th);
  88:lvgl/lvgl/examples/scroll/../../src/core/lv_disp.h **** 
  89:lvgl/lvgl/examples/scroll/../../src/core/lv_disp.h **** /**
  90:lvgl/lvgl/examples/scroll/../../src/core/lv_disp.h ****  * Get the theme of a display
  91:lvgl/lvgl/examples/scroll/../../src/core/lv_disp.h ****  * @param disp pointer to a display
  92:lvgl/lvgl/examples/scroll/../../src/core/lv_disp.h ****  * @return the display's theme (can be NULL)
  93:lvgl/lvgl/examples/scroll/../../src/core/lv_disp.h ****  */
  94:lvgl/lvgl/examples/scroll/../../src/core/lv_disp.h **** lv_theme_t * lv_disp_get_theme(lv_disp_t * disp);
  95:lvgl/lvgl/examples/scroll/../../src/core/lv_disp.h **** 
  96:lvgl/lvgl/examples/scroll/../../src/core/lv_disp.h **** /**
  97:lvgl/lvgl/examples/scroll/../../src/core/lv_disp.h ****  * Set the background color of a display
  98:lvgl/lvgl/examples/scroll/../../src/core/lv_disp.h ****  * @param disp pointer to a display
  99:lvgl/lvgl/examples/scroll/../../src/core/lv_disp.h ****  * @param color color of the background
 100:lvgl/lvgl/examples/scroll/../../src/core/lv_disp.h ****  */
 101:lvgl/lvgl/examples/scroll/../../src/core/lv_disp.h **** void lv_disp_set_bg_color(lv_disp_t * disp, lv_color_t color);
 102:lvgl/lvgl/examples/scroll/../../src/core/lv_disp.h **** 
 103:lvgl/lvgl/examples/scroll/../../src/core/lv_disp.h **** /**
 104:lvgl/lvgl/examples/scroll/../../src/core/lv_disp.h ****  * Set the background image of a display
 105:lvgl/lvgl/examples/scroll/../../src/core/lv_disp.h ****  * @param disp pointer to a display
 106:lvgl/lvgl/examples/scroll/../../src/core/lv_disp.h ****  * @param img_src path to file or pointer to an `lv_img_dsc_t` variable
 107:lvgl/lvgl/examples/scroll/../../src/core/lv_disp.h ****  */
 108:lvgl/lvgl/examples/scroll/../../src/core/lv_disp.h **** void lv_disp_set_bg_image(lv_disp_t * disp, const void  * img_src);
 109:lvgl/lvgl/examples/scroll/../../src/core/lv_disp.h **** 
 110:lvgl/lvgl/examples/scroll/../../src/core/lv_disp.h **** /**
 111:lvgl/lvgl/examples/scroll/../../src/core/lv_disp.h ****  * Opacity of the background
 112:lvgl/lvgl/examples/scroll/../../src/core/lv_disp.h ****  * @param disp pointer to a display
 113:lvgl/lvgl/examples/scroll/../../src/core/lv_disp.h ****  * @param opa opacity (0..255)
 114:lvgl/lvgl/examples/scroll/../../src/core/lv_disp.h ****  */
 115:lvgl/lvgl/examples/scroll/../../src/core/lv_disp.h **** void lv_disp_set_bg_opa(lv_disp_t * disp, lv_opa_t opa);
 116:lvgl/lvgl/examples/scroll/../../src/core/lv_disp.h **** 
 117:lvgl/lvgl/examples/scroll/../../src/core/lv_disp.h **** /**
 118:lvgl/lvgl/examples/scroll/../../src/core/lv_disp.h ****  * Switch screen with animation
 119:lvgl/lvgl/examples/scroll/../../src/core/lv_disp.h ****  * @param scr pointer to the new screen to load
 120:lvgl/lvgl/examples/scroll/../../src/core/lv_disp.h ****  * @param anim_type type of the animation from `lv_scr_load_anim_t`. E.g.  `LV_SCR_LOAD_ANIM_MOVE_L
 121:lvgl/lvgl/examples/scroll/../../src/core/lv_disp.h ****  * @param time time of the animation
 122:lvgl/lvgl/examples/scroll/../../src/core/lv_disp.h ****  * @param delay delay before the transition
 123:lvgl/lvgl/examples/scroll/../../src/core/lv_disp.h ****  * @param auto_del true: automatically delete the old screen
 124:lvgl/lvgl/examples/scroll/../../src/core/lv_disp.h ****  */
 125:lvgl/lvgl/examples/scroll/../../src/core/lv_disp.h **** void lv_scr_load_anim(lv_obj_t * scr, lv_scr_load_anim_t anim_type, uint32_t time, uint32_t delay, 
 126:lvgl/lvgl/examples/scroll/../../src/core/lv_disp.h **** 
 127:lvgl/lvgl/examples/scroll/../../src/core/lv_disp.h **** /**
ARM GAS  C:\Users\gx\AppData\Local\Temp\ccj41fgG.s 			page 7


 128:lvgl/lvgl/examples/scroll/../../src/core/lv_disp.h ****  * Get elapsed time since last user activity on a display (e.g. click)
 129:lvgl/lvgl/examples/scroll/../../src/core/lv_disp.h ****  * @param disp pointer to an display (NULL to get the overall smallest inactivity)
 130:lvgl/lvgl/examples/scroll/../../src/core/lv_disp.h ****  * @return elapsed ticks (milliseconds) since the last activity
 131:lvgl/lvgl/examples/scroll/../../src/core/lv_disp.h ****  */
 132:lvgl/lvgl/examples/scroll/../../src/core/lv_disp.h **** uint32_t lv_disp_get_inactive_time(const lv_disp_t * disp);
 133:lvgl/lvgl/examples/scroll/../../src/core/lv_disp.h **** 
 134:lvgl/lvgl/examples/scroll/../../src/core/lv_disp.h **** /**
 135:lvgl/lvgl/examples/scroll/../../src/core/lv_disp.h ****  * Manually trigger an activity on a display
 136:lvgl/lvgl/examples/scroll/../../src/core/lv_disp.h ****  * @param disp pointer to an display (NULL to use the default display)
 137:lvgl/lvgl/examples/scroll/../../src/core/lv_disp.h ****  */
 138:lvgl/lvgl/examples/scroll/../../src/core/lv_disp.h **** void lv_disp_trig_activity(lv_disp_t * disp);
 139:lvgl/lvgl/examples/scroll/../../src/core/lv_disp.h **** 
 140:lvgl/lvgl/examples/scroll/../../src/core/lv_disp.h **** /**
 141:lvgl/lvgl/examples/scroll/../../src/core/lv_disp.h ****  * Clean any CPU cache that is related to the display.
 142:lvgl/lvgl/examples/scroll/../../src/core/lv_disp.h ****  * @param disp pointer to an display (NULL to use the default display)
 143:lvgl/lvgl/examples/scroll/../../src/core/lv_disp.h ****  */
 144:lvgl/lvgl/examples/scroll/../../src/core/lv_disp.h **** void lv_disp_clean_dcache(lv_disp_t * disp);
 145:lvgl/lvgl/examples/scroll/../../src/core/lv_disp.h **** 
 146:lvgl/lvgl/examples/scroll/../../src/core/lv_disp.h **** /**
 147:lvgl/lvgl/examples/scroll/../../src/core/lv_disp.h ****  * Get a pointer to the screen refresher timer to
 148:lvgl/lvgl/examples/scroll/../../src/core/lv_disp.h ****  * modify its parameters with `lv_timer_...` functions.
 149:lvgl/lvgl/examples/scroll/../../src/core/lv_disp.h ****  * @param disp pointer to a display
 150:lvgl/lvgl/examples/scroll/../../src/core/lv_disp.h ****  * @return pointer to the display refresher timer. (NULL on error)
 151:lvgl/lvgl/examples/scroll/../../src/core/lv_disp.h ****  */
 152:lvgl/lvgl/examples/scroll/../../src/core/lv_disp.h **** lv_timer_t * _lv_disp_get_refr_timer(lv_disp_t * disp);
 153:lvgl/lvgl/examples/scroll/../../src/core/lv_disp.h **** 
 154:lvgl/lvgl/examples/scroll/../../src/core/lv_disp.h **** /*------------------------------------------------
 155:lvgl/lvgl/examples/scroll/../../src/core/lv_disp.h ****  * To improve backward compatibility
 156:lvgl/lvgl/examples/scroll/../../src/core/lv_disp.h ****  * Recommended only if you have one display
 157:lvgl/lvgl/examples/scroll/../../src/core/lv_disp.h ****  *------------------------------------------------*/
 158:lvgl/lvgl/examples/scroll/../../src/core/lv_disp.h **** 
 159:lvgl/lvgl/examples/scroll/../../src/core/lv_disp.h **** /**
 160:lvgl/lvgl/examples/scroll/../../src/core/lv_disp.h ****  * Get the active screen of the default display
 161:lvgl/lvgl/examples/scroll/../../src/core/lv_disp.h ****  * @return pointer to the active screen
 162:lvgl/lvgl/examples/scroll/../../src/core/lv_disp.h ****  */
 163:lvgl/lvgl/examples/scroll/../../src/core/lv_disp.h **** static inline lv_obj_t * lv_scr_act(void)
 174              		.loc 2 163 26 view .LVU28
 175              	.LBB11:
 164:lvgl/lvgl/examples/scroll/../../src/core/lv_disp.h **** {
 165:lvgl/lvgl/examples/scroll/../../src/core/lv_disp.h ****     return lv_disp_get_scr_act(lv_disp_get_default());
 176              		.loc 2 165 5 view .LVU29
 177              		.loc 2 165 12 is_stmt 0 view .LVU30
 178 0004 FFF7FEFF 		bl	lv_disp_get_default
 179              	.LVL17:
 180 0008 FFF7FEFF 		bl	lv_disp_get_scr_act
 181              	.LVL18:
 182              	.LBE11:
 183              	.LBE10:
 184              		.loc 1 29 23 view .LVU31
 185 000c FFF7FEFF 		bl	lv_list_create
 186              	.LVL19:
 187 0010 0446     		mov	r4, r0
 188              	.LVL20:
  30:lvgl/lvgl/examples/scroll/lv_example_scroll_3.c ****     lv_obj_set_size(list, 280, 220);
 189              		.loc 1 30 5 is_stmt 1 view .LVU32
 190 0012 DC22     		movs	r2, #220
 191 0014 4FF48C71 		mov	r1, #280
ARM GAS  C:\Users\gx\AppData\Local\Temp\ccj41fgG.s 			page 8


 192 0018 FFF7FEFF 		bl	lv_obj_set_size
 193              	.LVL21:
  31:lvgl/lvgl/examples/scroll/lv_example_scroll_3.c ****     lv_obj_center(list);
 194              		.loc 1 31 5 view .LVU33
 195              	.LBB12:
 196              	.LBI12:
 197              		.file 3 "lvgl/lvgl/examples/scroll/../../src/core/lv_obj_pos.h"
   1:lvgl/lvgl/examples/scroll/../../src/core/lv_obj_pos.h **** /**
   2:lvgl/lvgl/examples/scroll/../../src/core/lv_obj_pos.h ****  * @file lv_obj_pos.h
   3:lvgl/lvgl/examples/scroll/../../src/core/lv_obj_pos.h ****  *
   4:lvgl/lvgl/examples/scroll/../../src/core/lv_obj_pos.h ****  */
   5:lvgl/lvgl/examples/scroll/../../src/core/lv_obj_pos.h **** 
   6:lvgl/lvgl/examples/scroll/../../src/core/lv_obj_pos.h **** #ifndef LV_OBJ_POS_H
   7:lvgl/lvgl/examples/scroll/../../src/core/lv_obj_pos.h **** #define LV_OBJ_POS_H
   8:lvgl/lvgl/examples/scroll/../../src/core/lv_obj_pos.h **** 
   9:lvgl/lvgl/examples/scroll/../../src/core/lv_obj_pos.h **** #ifdef __cplusplus
  10:lvgl/lvgl/examples/scroll/../../src/core/lv_obj_pos.h **** extern "C" {
  11:lvgl/lvgl/examples/scroll/../../src/core/lv_obj_pos.h **** #endif
  12:lvgl/lvgl/examples/scroll/../../src/core/lv_obj_pos.h **** 
  13:lvgl/lvgl/examples/scroll/../../src/core/lv_obj_pos.h **** /*********************
  14:lvgl/lvgl/examples/scroll/../../src/core/lv_obj_pos.h ****  *      INCLUDES
  15:lvgl/lvgl/examples/scroll/../../src/core/lv_obj_pos.h ****  *********************/
  16:lvgl/lvgl/examples/scroll/../../src/core/lv_obj_pos.h **** #include "../misc/lv_area.h"
  17:lvgl/lvgl/examples/scroll/../../src/core/lv_obj_pos.h **** 
  18:lvgl/lvgl/examples/scroll/../../src/core/lv_obj_pos.h **** /*********************
  19:lvgl/lvgl/examples/scroll/../../src/core/lv_obj_pos.h ****  *      DEFINES
  20:lvgl/lvgl/examples/scroll/../../src/core/lv_obj_pos.h ****  *********************/
  21:lvgl/lvgl/examples/scroll/../../src/core/lv_obj_pos.h **** 
  22:lvgl/lvgl/examples/scroll/../../src/core/lv_obj_pos.h **** /**********************
  23:lvgl/lvgl/examples/scroll/../../src/core/lv_obj_pos.h ****  *      TYPEDEFS
  24:lvgl/lvgl/examples/scroll/../../src/core/lv_obj_pos.h ****  **********************/
  25:lvgl/lvgl/examples/scroll/../../src/core/lv_obj_pos.h **** struct _lv_obj_t;
  26:lvgl/lvgl/examples/scroll/../../src/core/lv_obj_pos.h **** 
  27:lvgl/lvgl/examples/scroll/../../src/core/lv_obj_pos.h **** typedef void (*lv_layout_update_cb_t)(struct _lv_obj_t *, void * user_data);
  28:lvgl/lvgl/examples/scroll/../../src/core/lv_obj_pos.h **** typedef struct {
  29:lvgl/lvgl/examples/scroll/../../src/core/lv_obj_pos.h ****     lv_layout_update_cb_t cb;
  30:lvgl/lvgl/examples/scroll/../../src/core/lv_obj_pos.h ****     void * user_data;
  31:lvgl/lvgl/examples/scroll/../../src/core/lv_obj_pos.h **** }lv_layout_dsc_t;
  32:lvgl/lvgl/examples/scroll/../../src/core/lv_obj_pos.h **** 
  33:lvgl/lvgl/examples/scroll/../../src/core/lv_obj_pos.h **** /**********************
  34:lvgl/lvgl/examples/scroll/../../src/core/lv_obj_pos.h ****  * GLOBAL PROTOTYPES
  35:lvgl/lvgl/examples/scroll/../../src/core/lv_obj_pos.h ****  **********************/
  36:lvgl/lvgl/examples/scroll/../../src/core/lv_obj_pos.h **** 
  37:lvgl/lvgl/examples/scroll/../../src/core/lv_obj_pos.h **** /**
  38:lvgl/lvgl/examples/scroll/../../src/core/lv_obj_pos.h ****  * Set the relative the position of an object (relative to the parent's top left corner)
  39:lvgl/lvgl/examples/scroll/../../src/core/lv_obj_pos.h ****  * @param obj       pointer to an object
  40:lvgl/lvgl/examples/scroll/../../src/core/lv_obj_pos.h ****  * @param x         new distance from the left side of the parent plus the parent's left padding
  41:lvgl/lvgl/examples/scroll/../../src/core/lv_obj_pos.h ****  * @param y         new distance from the top side of the parent  plus the parent's right padding
  42:lvgl/lvgl/examples/scroll/../../src/core/lv_obj_pos.h ****  */
  43:lvgl/lvgl/examples/scroll/../../src/core/lv_obj_pos.h **** void lv_obj_set_pos(struct _lv_obj_t * obj, lv_coord_t x, lv_coord_t y);
  44:lvgl/lvgl/examples/scroll/../../src/core/lv_obj_pos.h **** 
  45:lvgl/lvgl/examples/scroll/../../src/core/lv_obj_pos.h **** /**
  46:lvgl/lvgl/examples/scroll/../../src/core/lv_obj_pos.h ****  * Set the x coordinate of a object
  47:lvgl/lvgl/examples/scroll/../../src/core/lv_obj_pos.h ****  * @param obj       pointer to an object
  48:lvgl/lvgl/examples/scroll/../../src/core/lv_obj_pos.h ****  * @param x         new distance from the left side from the parent plus the parent's left padding
  49:lvgl/lvgl/examples/scroll/../../src/core/lv_obj_pos.h ****  */
  50:lvgl/lvgl/examples/scroll/../../src/core/lv_obj_pos.h **** void lv_obj_set_x(struct _lv_obj_t * obj, lv_coord_t x);
ARM GAS  C:\Users\gx\AppData\Local\Temp\ccj41fgG.s 			page 9


  51:lvgl/lvgl/examples/scroll/../../src/core/lv_obj_pos.h **** 
  52:lvgl/lvgl/examples/scroll/../../src/core/lv_obj_pos.h **** /**
  53:lvgl/lvgl/examples/scroll/../../src/core/lv_obj_pos.h ****  * Set the y coordinate of a object
  54:lvgl/lvgl/examples/scroll/../../src/core/lv_obj_pos.h ****  * @param obj       pointer to an object
  55:lvgl/lvgl/examples/scroll/../../src/core/lv_obj_pos.h ****  * @param y         new distance from the top of the parent  plus the parent's top padding
  56:lvgl/lvgl/examples/scroll/../../src/core/lv_obj_pos.h ****  */
  57:lvgl/lvgl/examples/scroll/../../src/core/lv_obj_pos.h **** void lv_obj_set_y(struct _lv_obj_t * obj, lv_coord_t y);
  58:lvgl/lvgl/examples/scroll/../../src/core/lv_obj_pos.h **** 
  59:lvgl/lvgl/examples/scroll/../../src/core/lv_obj_pos.h **** /**
  60:lvgl/lvgl/examples/scroll/../../src/core/lv_obj_pos.h ****  * Set the size of an object.
  61:lvgl/lvgl/examples/scroll/../../src/core/lv_obj_pos.h ****  * @param obj       pointer to an object
  62:lvgl/lvgl/examples/scroll/../../src/core/lv_obj_pos.h ****  * @param w         the new width
  63:lvgl/lvgl/examples/scroll/../../src/core/lv_obj_pos.h ****  * @param h         the new height
  64:lvgl/lvgl/examples/scroll/../../src/core/lv_obj_pos.h ****  * @note            possible values are:
  65:lvgl/lvgl/examples/scroll/../../src/core/lv_obj_pos.h ****  *                  pixel               simple set the size accordingly
  66:lvgl/lvgl/examples/scroll/../../src/core/lv_obj_pos.h ****  *                  LV_SIZE_CONTENT     set the size to involve all children in the given direction
  67:lvgl/lvgl/examples/scroll/../../src/core/lv_obj_pos.h ****  *                  LV_SIZE_PCT(x)     to set size in percentage of the parent's content area size 
  68:lvgl/lvgl/examples/scroll/../../src/core/lv_obj_pos.h ****  *                                      x should be in [0..1000]% range
  69:lvgl/lvgl/examples/scroll/../../src/core/lv_obj_pos.h ****  */
  70:lvgl/lvgl/examples/scroll/../../src/core/lv_obj_pos.h **** void lv_obj_set_size(struct _lv_obj_t * obj, lv_coord_t w, lv_coord_t h);
  71:lvgl/lvgl/examples/scroll/../../src/core/lv_obj_pos.h **** 
  72:lvgl/lvgl/examples/scroll/../../src/core/lv_obj_pos.h **** /**
  73:lvgl/lvgl/examples/scroll/../../src/core/lv_obj_pos.h ****  * Recalculate the size of the object
  74:lvgl/lvgl/examples/scroll/../../src/core/lv_obj_pos.h ****  * @param obj       pointer to an object
  75:lvgl/lvgl/examples/scroll/../../src/core/lv_obj_pos.h ****  * @return          true: the size has been changed
  76:lvgl/lvgl/examples/scroll/../../src/core/lv_obj_pos.h ****  */
  77:lvgl/lvgl/examples/scroll/../../src/core/lv_obj_pos.h **** bool lv_obj_refr_size(struct _lv_obj_t * obj);
  78:lvgl/lvgl/examples/scroll/../../src/core/lv_obj_pos.h **** 
  79:lvgl/lvgl/examples/scroll/../../src/core/lv_obj_pos.h **** /**
  80:lvgl/lvgl/examples/scroll/../../src/core/lv_obj_pos.h ****  * Set the width of an object
  81:lvgl/lvgl/examples/scroll/../../src/core/lv_obj_pos.h ****  * @param obj       pointer to an object
  82:lvgl/lvgl/examples/scroll/../../src/core/lv_obj_pos.h ****  * @param w         the new width
  83:lvgl/lvgl/examples/scroll/../../src/core/lv_obj_pos.h ****  * @note            possible values are:
  84:lvgl/lvgl/examples/scroll/../../src/core/lv_obj_pos.h ****  *                  pixel               simple set the size accordingly
  85:lvgl/lvgl/examples/scroll/../../src/core/lv_obj_pos.h ****  *                  LV_SIZE_CONTENT     set the size to involve all children in the given direction
  86:lvgl/lvgl/examples/scroll/../../src/core/lv_obj_pos.h ****  *                  lv_pct(x)           to set size in percentage of the parent's content area size
  87:lvgl/lvgl/examples/scroll/../../src/core/lv_obj_pos.h ****  *                                      x should be in [0..1000]% range
  88:lvgl/lvgl/examples/scroll/../../src/core/lv_obj_pos.h ****  */
  89:lvgl/lvgl/examples/scroll/../../src/core/lv_obj_pos.h **** void lv_obj_set_width(struct _lv_obj_t * obj, lv_coord_t w);
  90:lvgl/lvgl/examples/scroll/../../src/core/lv_obj_pos.h **** 
  91:lvgl/lvgl/examples/scroll/../../src/core/lv_obj_pos.h **** /**
  92:lvgl/lvgl/examples/scroll/../../src/core/lv_obj_pos.h ****  * Set the height of an object
  93:lvgl/lvgl/examples/scroll/../../src/core/lv_obj_pos.h ****  * @param obj       pointer to an object
  94:lvgl/lvgl/examples/scroll/../../src/core/lv_obj_pos.h ****  * @param h         the new height
  95:lvgl/lvgl/examples/scroll/../../src/core/lv_obj_pos.h ****  * @note            possible values are:
  96:lvgl/lvgl/examples/scroll/../../src/core/lv_obj_pos.h ****  *                  pixel               simple set the size accordingly
  97:lvgl/lvgl/examples/scroll/../../src/core/lv_obj_pos.h ****  *                  LV_SIZE_CONTENT     set the size to involve all children in the given direction
  98:lvgl/lvgl/examples/scroll/../../src/core/lv_obj_pos.h ****  *                  lv_pct(x)           to set size in percentage of the parent's content area size
  99:lvgl/lvgl/examples/scroll/../../src/core/lv_obj_pos.h ****  *                                      x should be in [0..1000]% range
 100:lvgl/lvgl/examples/scroll/../../src/core/lv_obj_pos.h ****  */
 101:lvgl/lvgl/examples/scroll/../../src/core/lv_obj_pos.h **** void lv_obj_set_height(struct _lv_obj_t * obj, lv_coord_t h);
 102:lvgl/lvgl/examples/scroll/../../src/core/lv_obj_pos.h **** 
 103:lvgl/lvgl/examples/scroll/../../src/core/lv_obj_pos.h **** /**
 104:lvgl/lvgl/examples/scroll/../../src/core/lv_obj_pos.h ****  * Set the width reduced by the left and right padding and the border width.
 105:lvgl/lvgl/examples/scroll/../../src/core/lv_obj_pos.h ****  * @param obj       pointer to an object
 106:lvgl/lvgl/examples/scroll/../../src/core/lv_obj_pos.h ****  * @param w         the width without paddings in pixels
 107:lvgl/lvgl/examples/scroll/../../src/core/lv_obj_pos.h ****  */
ARM GAS  C:\Users\gx\AppData\Local\Temp\ccj41fgG.s 			page 10


 108:lvgl/lvgl/examples/scroll/../../src/core/lv_obj_pos.h **** void lv_obj_set_content_width(struct _lv_obj_t * obj, lv_coord_t w);
 109:lvgl/lvgl/examples/scroll/../../src/core/lv_obj_pos.h **** 
 110:lvgl/lvgl/examples/scroll/../../src/core/lv_obj_pos.h **** /**
 111:lvgl/lvgl/examples/scroll/../../src/core/lv_obj_pos.h ****  * Set the height reduced by the top and bottom padding and the border width.
 112:lvgl/lvgl/examples/scroll/../../src/core/lv_obj_pos.h ****  * @param obj       pointer to an object
 113:lvgl/lvgl/examples/scroll/../../src/core/lv_obj_pos.h ****  * @param h         the height without paddings in pixels
 114:lvgl/lvgl/examples/scroll/../../src/core/lv_obj_pos.h ****  */
 115:lvgl/lvgl/examples/scroll/../../src/core/lv_obj_pos.h **** void lv_obj_set_content_height(struct _lv_obj_t * obj, lv_coord_t h);
 116:lvgl/lvgl/examples/scroll/../../src/core/lv_obj_pos.h **** 
 117:lvgl/lvgl/examples/scroll/../../src/core/lv_obj_pos.h **** /**
 118:lvgl/lvgl/examples/scroll/../../src/core/lv_obj_pos.h ****  * Set a layout for an object
 119:lvgl/lvgl/examples/scroll/../../src/core/lv_obj_pos.h ****  * @param obj       pointer to an object
 120:lvgl/lvgl/examples/scroll/../../src/core/lv_obj_pos.h ****  * @param layout    pointer to a layout descriptor to set
 121:lvgl/lvgl/examples/scroll/../../src/core/lv_obj_pos.h ****  */
 122:lvgl/lvgl/examples/scroll/../../src/core/lv_obj_pos.h **** void lv_obj_set_layout(struct _lv_obj_t * obj, uint32_t layout);
 123:lvgl/lvgl/examples/scroll/../../src/core/lv_obj_pos.h **** 
 124:lvgl/lvgl/examples/scroll/../../src/core/lv_obj_pos.h **** /**
 125:lvgl/lvgl/examples/scroll/../../src/core/lv_obj_pos.h ****  * Test whether the and object is positioned by a layout or not
 126:lvgl/lvgl/examples/scroll/../../src/core/lv_obj_pos.h ****  * @param obj       pointer to an object to test
 127:lvgl/lvgl/examples/scroll/../../src/core/lv_obj_pos.h ****  * @return true:    positioned by a layout; false: not positioned by a layout
 128:lvgl/lvgl/examples/scroll/../../src/core/lv_obj_pos.h ****  */
 129:lvgl/lvgl/examples/scroll/../../src/core/lv_obj_pos.h **** bool lv_obj_is_layout_positioned(const struct _lv_obj_t * obj);
 130:lvgl/lvgl/examples/scroll/../../src/core/lv_obj_pos.h **** 
 131:lvgl/lvgl/examples/scroll/../../src/core/lv_obj_pos.h **** /**
 132:lvgl/lvgl/examples/scroll/../../src/core/lv_obj_pos.h ****  * Mark the object for layout update.
 133:lvgl/lvgl/examples/scroll/../../src/core/lv_obj_pos.h ****  * @param obj      pointer to an object whose children needs to be updated
 134:lvgl/lvgl/examples/scroll/../../src/core/lv_obj_pos.h ****  */
 135:lvgl/lvgl/examples/scroll/../../src/core/lv_obj_pos.h **** void lv_obj_mark_layout_as_dirty(struct _lv_obj_t * obj);
 136:lvgl/lvgl/examples/scroll/../../src/core/lv_obj_pos.h **** 
 137:lvgl/lvgl/examples/scroll/../../src/core/lv_obj_pos.h **** /**
 138:lvgl/lvgl/examples/scroll/../../src/core/lv_obj_pos.h ****  * Update the layout of an object.
 139:lvgl/lvgl/examples/scroll/../../src/core/lv_obj_pos.h ****  * @param obj      pointer to an object whose children needs to be updated
 140:lvgl/lvgl/examples/scroll/../../src/core/lv_obj_pos.h ****  */
 141:lvgl/lvgl/examples/scroll/../../src/core/lv_obj_pos.h **** void lv_obj_update_layout(const struct _lv_obj_t * obj);
 142:lvgl/lvgl/examples/scroll/../../src/core/lv_obj_pos.h **** 
 143:lvgl/lvgl/examples/scroll/../../src/core/lv_obj_pos.h **** /**
 144:lvgl/lvgl/examples/scroll/../../src/core/lv_obj_pos.h ****  * Regsiter a new layout
 145:lvgl/lvgl/examples/scroll/../../src/core/lv_obj_pos.h ****  * @param cb        the layout update callback
 146:lvgl/lvgl/examples/scroll/../../src/core/lv_obj_pos.h ****  * @param user_data custom data that will be passed to `cb`
 147:lvgl/lvgl/examples/scroll/../../src/core/lv_obj_pos.h ****  * @return          the ID of the new layout
 148:lvgl/lvgl/examples/scroll/../../src/core/lv_obj_pos.h ****  */
 149:lvgl/lvgl/examples/scroll/../../src/core/lv_obj_pos.h **** uint32_t lv_layout_register(lv_layout_update_cb_t cb, void * user_data);
 150:lvgl/lvgl/examples/scroll/../../src/core/lv_obj_pos.h **** 
 151:lvgl/lvgl/examples/scroll/../../src/core/lv_obj_pos.h **** /**
 152:lvgl/lvgl/examples/scroll/../../src/core/lv_obj_pos.h ****  * Change the alignment of an object.
 153:lvgl/lvgl/examples/scroll/../../src/core/lv_obj_pos.h ****  * @param obj       pointer to an object to align
 154:lvgl/lvgl/examples/scroll/../../src/core/lv_obj_pos.h ****  * @param align     type of alignment (see 'lv_align_t' enum) `LV_ALIGN_OUT_...` can't be used.
 155:lvgl/lvgl/examples/scroll/../../src/core/lv_obj_pos.h ****  */
 156:lvgl/lvgl/examples/scroll/../../src/core/lv_obj_pos.h **** void lv_obj_set_align(struct _lv_obj_t * obj, lv_align_t align);
 157:lvgl/lvgl/examples/scroll/../../src/core/lv_obj_pos.h **** 
 158:lvgl/lvgl/examples/scroll/../../src/core/lv_obj_pos.h **** /**
 159:lvgl/lvgl/examples/scroll/../../src/core/lv_obj_pos.h ****  * Change the alignment of an object and set new coordinates.
 160:lvgl/lvgl/examples/scroll/../../src/core/lv_obj_pos.h ****  * Equivalent to:
 161:lvgl/lvgl/examples/scroll/../../src/core/lv_obj_pos.h ****  * lv_obj_set_align(obj, align);
 162:lvgl/lvgl/examples/scroll/../../src/core/lv_obj_pos.h ****  * lv_obj_set_pos(obj, x_ofs, y_ofs);
 163:lvgl/lvgl/examples/scroll/../../src/core/lv_obj_pos.h ****  * @param obj       pointer to an object to align
 164:lvgl/lvgl/examples/scroll/../../src/core/lv_obj_pos.h ****  * @param align     type of alignment (see 'lv_align_t' enum) `LV_ALIGN_OUT_...` can't be used.
ARM GAS  C:\Users\gx\AppData\Local\Temp\ccj41fgG.s 			page 11


 165:lvgl/lvgl/examples/scroll/../../src/core/lv_obj_pos.h ****  * @param x_ofs     x coordinate offset after alignment
 166:lvgl/lvgl/examples/scroll/../../src/core/lv_obj_pos.h ****  * @param y_ofs     y coordinate offset after alignment
 167:lvgl/lvgl/examples/scroll/../../src/core/lv_obj_pos.h ****  */
 168:lvgl/lvgl/examples/scroll/../../src/core/lv_obj_pos.h **** void lv_obj_align(struct _lv_obj_t * obj, lv_align_t align, lv_coord_t x_ofs, lv_coord_t y_ofs);
 169:lvgl/lvgl/examples/scroll/../../src/core/lv_obj_pos.h **** 
 170:lvgl/lvgl/examples/scroll/../../src/core/lv_obj_pos.h **** /**
 171:lvgl/lvgl/examples/scroll/../../src/core/lv_obj_pos.h ****  * Align an object to an other object.
 172:lvgl/lvgl/examples/scroll/../../src/core/lv_obj_pos.h ****  * @param obj       pointer to an object to align
 173:lvgl/lvgl/examples/scroll/../../src/core/lv_obj_pos.h ****  * @param base      pointer to an other object (if NULL `obj`s parent is used). 'obj' will be align
 174:lvgl/lvgl/examples/scroll/../../src/core/lv_obj_pos.h ****  * @param align     type of alignment (see 'lv_align_t' enum)
 175:lvgl/lvgl/examples/scroll/../../src/core/lv_obj_pos.h ****  * @param x_ofs     x coordinate offset after alignment
 176:lvgl/lvgl/examples/scroll/../../src/core/lv_obj_pos.h ****  * @param y_ofs     y coordinate offset after alignment
 177:lvgl/lvgl/examples/scroll/../../src/core/lv_obj_pos.h ****  * @note            if the position or size of `base` changes `obj` needs to be aligned manually ag
 178:lvgl/lvgl/examples/scroll/../../src/core/lv_obj_pos.h ****  */
 179:lvgl/lvgl/examples/scroll/../../src/core/lv_obj_pos.h **** void lv_obj_align_to(struct _lv_obj_t * obj, const struct _lv_obj_t * base, lv_align_t align, lv_co
 180:lvgl/lvgl/examples/scroll/../../src/core/lv_obj_pos.h **** 
 181:lvgl/lvgl/examples/scroll/../../src/core/lv_obj_pos.h **** /**
 182:lvgl/lvgl/examples/scroll/../../src/core/lv_obj_pos.h ****  * Align an object to the center on its parent.
 183:lvgl/lvgl/examples/scroll/../../src/core/lv_obj_pos.h ****  * @param obj       pointer to an object to align
 184:lvgl/lvgl/examples/scroll/../../src/core/lv_obj_pos.h ****  * @note            if the parent size changes `obj` needs to be aligned manually again
 185:lvgl/lvgl/examples/scroll/../../src/core/lv_obj_pos.h ****  */
 186:lvgl/lvgl/examples/scroll/../../src/core/lv_obj_pos.h **** static inline void lv_obj_center(struct _lv_obj_t * obj)
 198              		.loc 3 186 20 view .LVU34
 199              	.LBB13:
 187:lvgl/lvgl/examples/scroll/../../src/core/lv_obj_pos.h **** {
 188:lvgl/lvgl/examples/scroll/../../src/core/lv_obj_pos.h ****     lv_obj_align(obj, LV_ALIGN_CENTER, 0, 0);
 200              		.loc 3 188 5 view .LVU35
 201 001c 0023     		movs	r3, #0
 202 001e 1A46     		mov	r2, r3
 203 0020 0921     		movs	r1, #9
 204 0022 2046     		mov	r0, r4
 205 0024 FFF7FEFF 		bl	lv_obj_align
 206              	.LVL22:
 207              		.loc 3 188 5 is_stmt 0 view .LVU36
 208              	.LBE13:
 209              	.LBE12:
  32:lvgl/lvgl/examples/scroll/lv_example_scroll_3.c **** 
  33:lvgl/lvgl/examples/scroll/lv_example_scroll_3.c ****     for(btn_cnt = 1; btn_cnt <= 2; btn_cnt++) {
 210              		.loc 1 33 5 is_stmt 1 view .LVU37
 211              		.loc 1 33 17 is_stmt 0 view .LVU38
 212 0028 254B     		ldr	r3, .L12
 213 002a 0122     		movs	r2, #1
 214 002c 1A60     		str	r2, [r3]
 215              	.L8:
 216              		.loc 1 33 22 is_stmt 1 discriminator 1 view .LVU39
 217              		.loc 1 33 30 is_stmt 0 discriminator 1 view .LVU40
 218 002e 244B     		ldr	r3, .L12
 219 0030 1B68     		ldr	r3, [r3]
 220              		.loc 1 33 5 discriminator 1 view .LVU41
 221 0032 022B     		cmp	r3, #2
 222 0034 0ED8     		bhi	.L11
 223              	.LBB14:
  34:lvgl/lvgl/examples/scroll/lv_example_scroll_3.c ****         char buf[32];
 224              		.loc 1 34 9 is_stmt 1 discriminator 3 view .LVU42
  35:lvgl/lvgl/examples/scroll/lv_example_scroll_3.c ****         lv_snprintf(buf, sizeof(buf), "Track %d", btn_cnt);
 225              		.loc 1 35 9 discriminator 3 view .LVU43
 226 0036 234A     		ldr	r2, .L12+4
ARM GAS  C:\Users\gx\AppData\Local\Temp\ccj41fgG.s 			page 12


 227 0038 2021     		movs	r1, #32
 228 003a 6846     		mov	r0, sp
 229 003c FFF7FEFF 		bl	lv_snprintf
 230              	.LVL23:
  36:lvgl/lvgl/examples/scroll/lv_example_scroll_3.c ****         lv_list_add_btn(list, LV_SYMBOL_AUDIO, buf);
 231              		.loc 1 36 9 discriminator 3 view .LVU44
 232 0040 6A46     		mov	r2, sp
 233 0042 2149     		ldr	r1, .L12+8
 234 0044 2046     		mov	r0, r4
 235 0046 FFF7FEFF 		bl	lv_list_add_btn
 236              	.LVL24:
 237              	.LBE14:
  33:lvgl/lvgl/examples/scroll/lv_example_scroll_3.c ****         char buf[32];
 238              		.loc 1 33 36 discriminator 3 view .LVU45
  33:lvgl/lvgl/examples/scroll/lv_example_scroll_3.c ****         char buf[32];
 239              		.loc 1 33 43 is_stmt 0 discriminator 3 view .LVU46
 240 004a 1D4A     		ldr	r2, .L12
 241 004c 1368     		ldr	r3, [r2]
 242 004e 0133     		adds	r3, r3, #1
 243 0050 1360     		str	r3, [r2]
 244 0052 ECE7     		b	.L8
 245              	.L11:
  37:lvgl/lvgl/examples/scroll/lv_example_scroll_3.c ****     }
  38:lvgl/lvgl/examples/scroll/lv_example_scroll_3.c **** 
  39:lvgl/lvgl/examples/scroll/lv_example_scroll_3.c ****     lv_obj_t * float_btn = lv_btn_create(list);
 246              		.loc 1 39 5 is_stmt 1 view .LVU47
 247              		.loc 1 39 28 is_stmt 0 view .LVU48
 248 0054 2046     		mov	r0, r4
 249 0056 FFF7FEFF 		bl	lv_btn_create
 250              	.LVL25:
 251 005a 0546     		mov	r5, r0
 252              	.LVL26:
  40:lvgl/lvgl/examples/scroll/lv_example_scroll_3.c ****     lv_obj_set_size(float_btn, 50, 50);
 253              		.loc 1 40 5 is_stmt 1 view .LVU49
 254 005c 3222     		movs	r2, #50
 255 005e 1146     		mov	r1, r2
 256 0060 FFF7FEFF 		bl	lv_obj_set_size
 257              	.LVL27:
  41:lvgl/lvgl/examples/scroll/lv_example_scroll_3.c ****     lv_obj_add_flag(float_btn, LV_OBJ_FLAG_FLOATING);
 258              		.loc 1 41 5 view .LVU50
 259 0064 4FF48031 		mov	r1, #65536
 260 0068 2846     		mov	r0, r5
 261 006a FFF7FEFF 		bl	lv_obj_add_flag
 262              	.LVL28:
  42:lvgl/lvgl/examples/scroll/lv_example_scroll_3.c ****     lv_obj_align(float_btn, LV_ALIGN_BOTTOM_RIGHT, 0, -lv_obj_get_style_pad_right(list, LV_PART_MAI
 263              		.loc 1 42 5 view .LVU51
 264              	.LBB15:
 265              	.LBI15:
 266              		.file 4 "lvgl/lvgl/examples/scroll/../../src/core/lv_obj_style_gen.h"
   1:lvgl/lvgl/examples/scroll/../../src/core/lv_obj_style_gen.h **** static inline lv_coord_t lv_obj_get_style_width(const struct _lv_obj_t * obj, uint32_t part)
   2:lvgl/lvgl/examples/scroll/../../src/core/lv_obj_style_gen.h **** {
   3:lvgl/lvgl/examples/scroll/../../src/core/lv_obj_style_gen.h ****     lv_style_value_t v = lv_obj_get_style_prop(obj, part, LV_STYLE_WIDTH);
   4:lvgl/lvgl/examples/scroll/../../src/core/lv_obj_style_gen.h ****     return (lv_coord_t)v.num;
   5:lvgl/lvgl/examples/scroll/../../src/core/lv_obj_style_gen.h **** }
   6:lvgl/lvgl/examples/scroll/../../src/core/lv_obj_style_gen.h **** 
   7:lvgl/lvgl/examples/scroll/../../src/core/lv_obj_style_gen.h **** static inline lv_coord_t lv_obj_get_style_min_width(const struct _lv_obj_t * obj, uint32_t part)
   8:lvgl/lvgl/examples/scroll/../../src/core/lv_obj_style_gen.h **** {
ARM GAS  C:\Users\gx\AppData\Local\Temp\ccj41fgG.s 			page 13


   9:lvgl/lvgl/examples/scroll/../../src/core/lv_obj_style_gen.h ****     lv_style_value_t v = lv_obj_get_style_prop(obj, part, LV_STYLE_MIN_WIDTH);
  10:lvgl/lvgl/examples/scroll/../../src/core/lv_obj_style_gen.h ****     return (lv_coord_t)v.num;
  11:lvgl/lvgl/examples/scroll/../../src/core/lv_obj_style_gen.h **** }
  12:lvgl/lvgl/examples/scroll/../../src/core/lv_obj_style_gen.h **** 
  13:lvgl/lvgl/examples/scroll/../../src/core/lv_obj_style_gen.h **** static inline lv_coord_t lv_obj_get_style_max_width(const struct _lv_obj_t * obj, uint32_t part)
  14:lvgl/lvgl/examples/scroll/../../src/core/lv_obj_style_gen.h **** {
  15:lvgl/lvgl/examples/scroll/../../src/core/lv_obj_style_gen.h ****     lv_style_value_t v = lv_obj_get_style_prop(obj, part, LV_STYLE_MAX_WIDTH);
  16:lvgl/lvgl/examples/scroll/../../src/core/lv_obj_style_gen.h ****     return (lv_coord_t)v.num;
  17:lvgl/lvgl/examples/scroll/../../src/core/lv_obj_style_gen.h **** }
  18:lvgl/lvgl/examples/scroll/../../src/core/lv_obj_style_gen.h **** 
  19:lvgl/lvgl/examples/scroll/../../src/core/lv_obj_style_gen.h **** static inline lv_coord_t lv_obj_get_style_height(const struct _lv_obj_t * obj, uint32_t part)
  20:lvgl/lvgl/examples/scroll/../../src/core/lv_obj_style_gen.h **** {
  21:lvgl/lvgl/examples/scroll/../../src/core/lv_obj_style_gen.h ****     lv_style_value_t v = lv_obj_get_style_prop(obj, part, LV_STYLE_HEIGHT);
  22:lvgl/lvgl/examples/scroll/../../src/core/lv_obj_style_gen.h ****     return (lv_coord_t)v.num;
  23:lvgl/lvgl/examples/scroll/../../src/core/lv_obj_style_gen.h **** }
  24:lvgl/lvgl/examples/scroll/../../src/core/lv_obj_style_gen.h **** 
  25:lvgl/lvgl/examples/scroll/../../src/core/lv_obj_style_gen.h **** static inline lv_coord_t lv_obj_get_style_min_height(const struct _lv_obj_t * obj, uint32_t part)
  26:lvgl/lvgl/examples/scroll/../../src/core/lv_obj_style_gen.h **** {
  27:lvgl/lvgl/examples/scroll/../../src/core/lv_obj_style_gen.h ****     lv_style_value_t v = lv_obj_get_style_prop(obj, part, LV_STYLE_MIN_HEIGHT);
  28:lvgl/lvgl/examples/scroll/../../src/core/lv_obj_style_gen.h ****     return (lv_coord_t)v.num;
  29:lvgl/lvgl/examples/scroll/../../src/core/lv_obj_style_gen.h **** }
  30:lvgl/lvgl/examples/scroll/../../src/core/lv_obj_style_gen.h **** 
  31:lvgl/lvgl/examples/scroll/../../src/core/lv_obj_style_gen.h **** static inline lv_coord_t lv_obj_get_style_max_height(const struct _lv_obj_t * obj, uint32_t part)
  32:lvgl/lvgl/examples/scroll/../../src/core/lv_obj_style_gen.h **** {
  33:lvgl/lvgl/examples/scroll/../../src/core/lv_obj_style_gen.h ****     lv_style_value_t v = lv_obj_get_style_prop(obj, part, LV_STYLE_MAX_HEIGHT);
  34:lvgl/lvgl/examples/scroll/../../src/core/lv_obj_style_gen.h ****     return (lv_coord_t)v.num;
  35:lvgl/lvgl/examples/scroll/../../src/core/lv_obj_style_gen.h **** }
  36:lvgl/lvgl/examples/scroll/../../src/core/lv_obj_style_gen.h **** 
  37:lvgl/lvgl/examples/scroll/../../src/core/lv_obj_style_gen.h **** static inline lv_coord_t lv_obj_get_style_x(const struct _lv_obj_t * obj, uint32_t part)
  38:lvgl/lvgl/examples/scroll/../../src/core/lv_obj_style_gen.h **** {
  39:lvgl/lvgl/examples/scroll/../../src/core/lv_obj_style_gen.h ****     lv_style_value_t v = lv_obj_get_style_prop(obj, part, LV_STYLE_X);
  40:lvgl/lvgl/examples/scroll/../../src/core/lv_obj_style_gen.h ****     return (lv_coord_t)v.num;
  41:lvgl/lvgl/examples/scroll/../../src/core/lv_obj_style_gen.h **** }
  42:lvgl/lvgl/examples/scroll/../../src/core/lv_obj_style_gen.h **** 
  43:lvgl/lvgl/examples/scroll/../../src/core/lv_obj_style_gen.h **** static inline lv_coord_t lv_obj_get_style_y(const struct _lv_obj_t * obj, uint32_t part)
  44:lvgl/lvgl/examples/scroll/../../src/core/lv_obj_style_gen.h **** {
  45:lvgl/lvgl/examples/scroll/../../src/core/lv_obj_style_gen.h ****     lv_style_value_t v = lv_obj_get_style_prop(obj, part, LV_STYLE_Y);
  46:lvgl/lvgl/examples/scroll/../../src/core/lv_obj_style_gen.h ****     return (lv_coord_t)v.num;
  47:lvgl/lvgl/examples/scroll/../../src/core/lv_obj_style_gen.h **** }
  48:lvgl/lvgl/examples/scroll/../../src/core/lv_obj_style_gen.h **** 
  49:lvgl/lvgl/examples/scroll/../../src/core/lv_obj_style_gen.h **** static inline lv_align_t lv_obj_get_style_align(const struct _lv_obj_t * obj, uint32_t part)
  50:lvgl/lvgl/examples/scroll/../../src/core/lv_obj_style_gen.h **** {
  51:lvgl/lvgl/examples/scroll/../../src/core/lv_obj_style_gen.h ****     lv_style_value_t v = lv_obj_get_style_prop(obj, part, LV_STYLE_ALIGN);
  52:lvgl/lvgl/examples/scroll/../../src/core/lv_obj_style_gen.h ****     return (lv_align_t)v.num;
  53:lvgl/lvgl/examples/scroll/../../src/core/lv_obj_style_gen.h **** }
  54:lvgl/lvgl/examples/scroll/../../src/core/lv_obj_style_gen.h **** 
  55:lvgl/lvgl/examples/scroll/../../src/core/lv_obj_style_gen.h **** static inline lv_coord_t lv_obj_get_style_transform_width(const struct _lv_obj_t * obj, uint32_t pa
  56:lvgl/lvgl/examples/scroll/../../src/core/lv_obj_style_gen.h **** {
  57:lvgl/lvgl/examples/scroll/../../src/core/lv_obj_style_gen.h ****     lv_style_value_t v = lv_obj_get_style_prop(obj, part, LV_STYLE_TRANSFORM_WIDTH);
  58:lvgl/lvgl/examples/scroll/../../src/core/lv_obj_style_gen.h ****     return (lv_coord_t)v.num;
  59:lvgl/lvgl/examples/scroll/../../src/core/lv_obj_style_gen.h **** }
  60:lvgl/lvgl/examples/scroll/../../src/core/lv_obj_style_gen.h **** 
  61:lvgl/lvgl/examples/scroll/../../src/core/lv_obj_style_gen.h **** static inline lv_coord_t lv_obj_get_style_transform_height(const struct _lv_obj_t * obj, uint32_t p
  62:lvgl/lvgl/examples/scroll/../../src/core/lv_obj_style_gen.h **** {
  63:lvgl/lvgl/examples/scroll/../../src/core/lv_obj_style_gen.h ****     lv_style_value_t v = lv_obj_get_style_prop(obj, part, LV_STYLE_TRANSFORM_HEIGHT);
  64:lvgl/lvgl/examples/scroll/../../src/core/lv_obj_style_gen.h ****     return (lv_coord_t)v.num;
  65:lvgl/lvgl/examples/scroll/../../src/core/lv_obj_style_gen.h **** }
ARM GAS  C:\Users\gx\AppData\Local\Temp\ccj41fgG.s 			page 14


  66:lvgl/lvgl/examples/scroll/../../src/core/lv_obj_style_gen.h **** 
  67:lvgl/lvgl/examples/scroll/../../src/core/lv_obj_style_gen.h **** static inline lv_coord_t lv_obj_get_style_translate_x(const struct _lv_obj_t * obj, uint32_t part)
  68:lvgl/lvgl/examples/scroll/../../src/core/lv_obj_style_gen.h **** {
  69:lvgl/lvgl/examples/scroll/../../src/core/lv_obj_style_gen.h ****     lv_style_value_t v = lv_obj_get_style_prop(obj, part, LV_STYLE_TRANSLATE_X);
  70:lvgl/lvgl/examples/scroll/../../src/core/lv_obj_style_gen.h ****     return (lv_coord_t)v.num;
  71:lvgl/lvgl/examples/scroll/../../src/core/lv_obj_style_gen.h **** }
  72:lvgl/lvgl/examples/scroll/../../src/core/lv_obj_style_gen.h **** 
  73:lvgl/lvgl/examples/scroll/../../src/core/lv_obj_style_gen.h **** static inline lv_coord_t lv_obj_get_style_translate_y(const struct _lv_obj_t * obj, uint32_t part)
  74:lvgl/lvgl/examples/scroll/../../src/core/lv_obj_style_gen.h **** {
  75:lvgl/lvgl/examples/scroll/../../src/core/lv_obj_style_gen.h ****     lv_style_value_t v = lv_obj_get_style_prop(obj, part, LV_STYLE_TRANSLATE_Y);
  76:lvgl/lvgl/examples/scroll/../../src/core/lv_obj_style_gen.h ****     return (lv_coord_t)v.num;
  77:lvgl/lvgl/examples/scroll/../../src/core/lv_obj_style_gen.h **** }
  78:lvgl/lvgl/examples/scroll/../../src/core/lv_obj_style_gen.h **** 
  79:lvgl/lvgl/examples/scroll/../../src/core/lv_obj_style_gen.h **** static inline lv_coord_t lv_obj_get_style_transform_zoom(const struct _lv_obj_t * obj, uint32_t par
  80:lvgl/lvgl/examples/scroll/../../src/core/lv_obj_style_gen.h **** {
  81:lvgl/lvgl/examples/scroll/../../src/core/lv_obj_style_gen.h ****     lv_style_value_t v = lv_obj_get_style_prop(obj, part, LV_STYLE_TRANSFORM_ZOOM);
  82:lvgl/lvgl/examples/scroll/../../src/core/lv_obj_style_gen.h ****     return (lv_coord_t)v.num;
  83:lvgl/lvgl/examples/scroll/../../src/core/lv_obj_style_gen.h **** }
  84:lvgl/lvgl/examples/scroll/../../src/core/lv_obj_style_gen.h **** 
  85:lvgl/lvgl/examples/scroll/../../src/core/lv_obj_style_gen.h **** static inline lv_coord_t lv_obj_get_style_transform_angle(const struct _lv_obj_t * obj, uint32_t pa
  86:lvgl/lvgl/examples/scroll/../../src/core/lv_obj_style_gen.h **** {
  87:lvgl/lvgl/examples/scroll/../../src/core/lv_obj_style_gen.h ****     lv_style_value_t v = lv_obj_get_style_prop(obj, part, LV_STYLE_TRANSFORM_ANGLE);
  88:lvgl/lvgl/examples/scroll/../../src/core/lv_obj_style_gen.h ****     return (lv_coord_t)v.num;
  89:lvgl/lvgl/examples/scroll/../../src/core/lv_obj_style_gen.h **** }
  90:lvgl/lvgl/examples/scroll/../../src/core/lv_obj_style_gen.h **** 
  91:lvgl/lvgl/examples/scroll/../../src/core/lv_obj_style_gen.h **** static inline lv_coord_t lv_obj_get_style_pad_top(const struct _lv_obj_t * obj, uint32_t part)
  92:lvgl/lvgl/examples/scroll/../../src/core/lv_obj_style_gen.h **** {
  93:lvgl/lvgl/examples/scroll/../../src/core/lv_obj_style_gen.h ****     lv_style_value_t v = lv_obj_get_style_prop(obj, part, LV_STYLE_PAD_TOP);
  94:lvgl/lvgl/examples/scroll/../../src/core/lv_obj_style_gen.h ****     return (lv_coord_t)v.num;
  95:lvgl/lvgl/examples/scroll/../../src/core/lv_obj_style_gen.h **** }
  96:lvgl/lvgl/examples/scroll/../../src/core/lv_obj_style_gen.h **** 
  97:lvgl/lvgl/examples/scroll/../../src/core/lv_obj_style_gen.h **** static inline lv_coord_t lv_obj_get_style_pad_bottom(const struct _lv_obj_t * obj, uint32_t part)
  98:lvgl/lvgl/examples/scroll/../../src/core/lv_obj_style_gen.h **** {
  99:lvgl/lvgl/examples/scroll/../../src/core/lv_obj_style_gen.h ****     lv_style_value_t v = lv_obj_get_style_prop(obj, part, LV_STYLE_PAD_BOTTOM);
 100:lvgl/lvgl/examples/scroll/../../src/core/lv_obj_style_gen.h ****     return (lv_coord_t)v.num;
 101:lvgl/lvgl/examples/scroll/../../src/core/lv_obj_style_gen.h **** }
 102:lvgl/lvgl/examples/scroll/../../src/core/lv_obj_style_gen.h **** 
 103:lvgl/lvgl/examples/scroll/../../src/core/lv_obj_style_gen.h **** static inline lv_coord_t lv_obj_get_style_pad_left(const struct _lv_obj_t * obj, uint32_t part)
 104:lvgl/lvgl/examples/scroll/../../src/core/lv_obj_style_gen.h **** {
 105:lvgl/lvgl/examples/scroll/../../src/core/lv_obj_style_gen.h ****     lv_style_value_t v = lv_obj_get_style_prop(obj, part, LV_STYLE_PAD_LEFT);
 106:lvgl/lvgl/examples/scroll/../../src/core/lv_obj_style_gen.h ****     return (lv_coord_t)v.num;
 107:lvgl/lvgl/examples/scroll/../../src/core/lv_obj_style_gen.h **** }
 108:lvgl/lvgl/examples/scroll/../../src/core/lv_obj_style_gen.h **** 
 109:lvgl/lvgl/examples/scroll/../../src/core/lv_obj_style_gen.h **** static inline lv_coord_t lv_obj_get_style_pad_right(const struct _lv_obj_t * obj, uint32_t part)
 267              		.loc 4 109 26 view .LVU52
 268              	.LBB16:
 110:lvgl/lvgl/examples/scroll/../../src/core/lv_obj_style_gen.h **** {
 111:lvgl/lvgl/examples/scroll/../../src/core/lv_obj_style_gen.h ****     lv_style_value_t v = lv_obj_get_style_prop(obj, part, LV_STYLE_PAD_RIGHT);
 269              		.loc 4 111 5 view .LVU53
 270              		.loc 4 111 26 is_stmt 0 view .LVU54
 271 006e 41F21302 		movw	r2, #4115
 272 0072 0021     		movs	r1, #0
 273 0074 2046     		mov	r0, r4
 274 0076 FFF7FEFF 		bl	lv_obj_get_style_prop
 275              	.LVL29:
 112:lvgl/lvgl/examples/scroll/../../src/core/lv_obj_style_gen.h ****     return (lv_coord_t)v.num;
 276              		.loc 4 112 5 is_stmt 1 view .LVU55
ARM GAS  C:\Users\gx\AppData\Local\Temp\ccj41fgG.s 			page 15


 277              		.loc 4 112 5 is_stmt 0 view .LVU56
 278              	.LBE16:
 279              	.LBE15:
 280              		.loc 1 42 56 view .LVU57
 281 007a 83B2     		uxth	r3, r0
 282              		.loc 1 42 5 view .LVU58
 283 007c 5B42     		rsbs	r3, r3, #0
 284 007e 1BB2     		sxth	r3, r3
 285 0080 0022     		movs	r2, #0
 286 0082 0621     		movs	r1, #6
 287 0084 2846     		mov	r0, r5
 288 0086 FFF7FEFF 		bl	lv_obj_align
 289              	.LVL30:
  43:lvgl/lvgl/examples/scroll/lv_example_scroll_3.c ****     lv_obj_add_event_cb(float_btn, float_btn_event_cb, LV_EVENT_ALL, list);
 290              		.loc 1 43 5 is_stmt 1 view .LVU59
 291 008a 2346     		mov	r3, r4
 292 008c 0022     		movs	r2, #0
 293 008e 0F49     		ldr	r1, .L12+12
 294 0090 2846     		mov	r0, r5
 295 0092 FFF7FEFF 		bl	lv_obj_add_event_cb
 296              	.LVL31:
  44:lvgl/lvgl/examples/scroll/lv_example_scroll_3.c ****     lv_obj_set_style_radius(float_btn, LV_RADIUS_CIRCLE, 0);
 297              		.loc 1 44 5 view .LVU60
 298 0096 0022     		movs	r2, #0
 299 0098 47F6FF71 		movw	r1, #32767
 300 009c 2846     		mov	r0, r5
 301 009e FFF7FEFF 		bl	lv_obj_set_style_radius
 302              	.LVL32:
  45:lvgl/lvgl/examples/scroll/lv_example_scroll_3.c ****     lv_obj_set_style_bg_img_src(float_btn, LV_SYMBOL_PLUS, 0);
 303              		.loc 1 45 5 view .LVU61
 304 00a2 0022     		movs	r2, #0
 305 00a4 0A49     		ldr	r1, .L12+16
 306 00a6 2846     		mov	r0, r5
 307 00a8 FFF7FEFF 		bl	lv_obj_set_style_bg_img_src
 308              	.LVL33:
  46:lvgl/lvgl/examples/scroll/lv_example_scroll_3.c ****     lv_obj_set_style_text_font(float_btn, lv_theme_get_font_large(float_btn), 0);
 309              		.loc 1 46 5 view .LVU62
 310 00ac 2846     		mov	r0, r5
 311 00ae FFF7FEFF 		bl	lv_theme_get_font_large
 312              	.LVL34:
 313 00b2 0146     		mov	r1, r0
 314 00b4 0022     		movs	r2, #0
 315 00b6 2846     		mov	r0, r5
 316 00b8 FFF7FEFF 		bl	lv_obj_set_style_text_font
 317              	.LVL35:
  47:lvgl/lvgl/examples/scroll/lv_example_scroll_3.c **** }
 318              		.loc 1 47 1 is_stmt 0 view .LVU63
 319 00bc 09B0     		add	sp, sp, #36
 320              	.LCFI6:
 321              		.cfi_def_cfa_offset 12
 322              		@ sp needed
 323 00be 30BD     		pop	{r4, r5, pc}
 324              	.LVL36:
 325              	.L13:
 326              		.loc 1 47 1 view .LVU64
 327              		.align	2
 328              	.L12:
ARM GAS  C:\Users\gx\AppData\Local\Temp\ccj41fgG.s 			page 16


 329 00c0 00000000 		.word	.LANCHOR0
 330 00c4 00000000 		.word	.LC0
 331 00c8 0C000000 		.word	.LC1
 332 00cc 00000000 		.word	float_btn_event_cb
 333 00d0 00000000 		.word	.LC2
 334              		.cfi_endproc
 335              	.LFE190:
 337              		.section	.data.btn_cnt,"aw"
 338              		.align	2
 339              		.set	.LANCHOR0,. + 0
 342              	btn_cnt:
 343 0000 01000000 		.word	1
 344              		.text
 345              	.Letext0:
 346              		.file 5 "c:\\program files (x86)\\gnu arm embedded toolchain\\9 2020-q2-update\\arm-none-eabi\\inc
 347              		.file 6 "c:\\program files (x86)\\gnu arm embedded toolchain\\9 2020-q2-update\\arm-none-eabi\\inc
 348              		.file 7 "lvgl/lvgl/examples/scroll/../../src/misc/lv_ll.h"
 349              		.file 8 "c:\\program files (x86)\\gnu arm embedded toolchain\\9 2020-q2-update\\lib\\gcc\\arm-none
 350              		.file 9 "c:\\program files (x86)\\gnu arm embedded toolchain\\9 2020-q2-update\\arm-none-eabi\\inc
 351              		.file 10 "c:\\program files (x86)\\gnu arm embedded toolchain\\9 2020-q2-update\\arm-none-eabi\\in
 352              		.file 11 "c:\\program files (x86)\\gnu arm embedded toolchain\\9 2020-q2-update\\arm-none-eabi\\in
 353              		.file 12 "d:\\practise\\f407_disc\\lvgl\\lvgl\\src\\misc\\lv_color.h"
 354              		.file 13 "d:\\practise\\f407_disc\\lvgl\\lvgl\\src\\misc\\lv_area.h"
 355              		.file 14 "lvgl/lvgl/examples/scroll/../../src/misc/lv_anim.h"
 356              		.file 15 "lvgl/lvgl/examples/scroll/../../src/core/lv_obj.h"
 357              		.file 16 "lvgl/lvgl/examples/scroll/../../src/core/lv_group.h"
 358              		.file 17 "d:\\practise\\f407_disc\\lvgl\\lvgl\\src\\font\\lv_font.h"
 359              		.file 18 "d:\\practise\\f407_disc\\lvgl\\lvgl\\src\\misc\\lv_txt.h"
 360              		.file 19 "d:\\practise\\f407_disc\\lvgl\\lvgl\\src\\misc\\lv_style.h"
 361              		.file 20 "lvgl/lvgl/examples/scroll/../../src/core/lv_obj_scroll.h"
 362              		.file 21 "lvgl/lvgl/examples/scroll/../../src/core/lv_obj_style.h"
 363              		.file 22 "d:\\practise\\f407_disc\\lvgl\\lvgl\\src\\draw\\lv_draw_label.h"
 364              		.file 23 "lvgl/lvgl/examples/scroll/../../src/core/lv_obj_class.h"
 365              		.file 24 "lvgl/lvgl/examples/scroll/../../src/core/lv_event.h"
 366              		.file 25 "lvgl/lvgl/examples/scroll/../../src/widgets/lv_arc.h"
 367              		.file 26 "lvgl/lvgl/examples/scroll/../../src/widgets/lv_btn.h"
 368              		.file 27 "lvgl/lvgl/examples/scroll/../../src/widgets/lv_img.h"
 369              		.file 28 "lvgl/lvgl/examples/scroll/../../src/widgets/lv_label.h"
 370              		.file 29 "lvgl/lvgl/examples/scroll/../../src/widgets/lv_line.h"
 371              		.file 30 "lvgl/lvgl/examples/scroll/../../src/widgets/lv_table.h"
 372              		.file 31 "lvgl/lvgl/examples/scroll/../../src/widgets/lv_checkbox.h"
 373              		.file 32 "lvgl/lvgl/examples/scroll/../../src/widgets/lv_bar.h"
 374              		.file 33 "lvgl/lvgl/examples/scroll/../../src/widgets/lv_slider.h"
 375              		.file 34 "lvgl/lvgl/examples/scroll/../../src/widgets/lv_btnmatrix.h"
 376              		.file 35 "lvgl/lvgl/examples/scroll/../../src/widgets/lv_dropdown.h"
 377              		.file 36 "lvgl/lvgl/examples/scroll/../../src/widgets/lv_roller.h"
 378              		.file 37 "lvgl/lvgl/examples/scroll/../../src/widgets/lv_textarea.h"
 379              		.file 38 "lvgl/lvgl/examples/scroll/../../src/widgets/lv_canvas.h"
 380              		.file 39 "lvgl/lvgl/examples/scroll/../../src/widgets/lv_switch.h"
 381              		.file 40 "lvgl/lvgl/examples/scroll/../../src/extra/widgets/animimg/lv_animimg.h"
 382              		.file 41 "lvgl/lvgl/examples/scroll/../../src/extra/widgets/calendar/lv_calendar.h"
 383              		.file 42 "lvgl/lvgl/examples/scroll/../../src/extra/widgets/calendar/lv_calendar_header_arrow.h"
 384              		.file 43 "lvgl/lvgl/examples/scroll/../../src/extra/widgets/calendar/lv_calendar_header_dropdown.h
 385              		.file 44 "lvgl/lvgl/examples/scroll/../../src/extra/widgets/chart/lv_chart.h"
 386              		.file 45 "lvgl/lvgl/examples/scroll/../../src/extra/widgets/keyboard/lv_keyboard.h"
 387              		.file 46 "d:\\practise\\f407_disc\\lvgl\\lvgl\\src\\extra\\layouts\\flex\\lv_flex.h"
 388              		.file 47 "lvgl/lvgl/examples/scroll/../../src/extra/widgets/list/lv_list.h"
ARM GAS  C:\Users\gx\AppData\Local\Temp\ccj41fgG.s 			page 17


 389              		.file 48 "lvgl/lvgl/examples/scroll/../../src/extra/widgets/msgbox/lv_msgbox.h"
 390              		.file 49 "lvgl/lvgl/examples/scroll/../../src/extra/widgets/meter/lv_meter.h"
 391              		.file 50 "lvgl/lvgl/examples/scroll/../../src/extra/widgets/spinbox/lv_spinbox.h"
 392              		.file 51 "lvgl/lvgl/examples/scroll/../../src/extra/widgets/spinner/lv_spinner.h"
 393              		.file 52 "lvgl/lvgl/examples/scroll/../../src/extra/widgets/tabview/lv_tabview.h"
 394              		.file 53 "lvgl/lvgl/examples/scroll/../../src/extra/widgets/tileview/lv_tileview.h"
 395              		.file 54 "lvgl/lvgl/examples/scroll/../../src/extra/widgets/win/lv_win.h"
 396              		.file 55 "lvgl/lvgl/examples/scroll/../../src/extra/widgets/colorwheel/lv_colorwheel.h"
 397              		.file 56 "lvgl/lvgl/examples/scroll/../../src/extra/widgets/led/lv_led.h"
 398              		.file 57 "lvgl/lvgl/examples/scroll/../../src/extra/widgets/imgbtn/lv_imgbtn.h"
 399              		.file 58 "lvgl/lvgl/examples/scroll/../../src/extra/widgets/span/lv_span.h"
 400              		.file 59 "lvgl/lvgl/examples/scroll/../../src/extra/layouts/grid/lv_grid.h"
 401              		.file 60 "d:\\practise\\f407_disc\\lvgl\\lvgl\\src\\misc\\lv_printf.h"
 402              		.file 61 "lvgl/lvgl/examples/scroll/../../src/hal/lv_hal_disp.h"
 403              		.file 62 "lvgl/lvgl/examples/scroll/../../src/core/lv_theme.h"
 404              		.file 63 "lvgl/lvgl/examples/scroll/../../src/core/lv_obj_tree.h"
ARM GAS  C:\Users\gx\AppData\Local\Temp\ccj41fgG.s 			page 18

