ARM GAS  C:\Users\gx\AppData\Local\Temp\cckdT0ZS.s 			page 1


   1              		.cpu cortex-m4
   2              		.eabi_attribute 27, 1
   3              		.eabi_attribute 28, 1
   4              		.eabi_attribute 20, 1
   5              		.eabi_attribute 21, 1
   6              		.eabi_attribute 23, 3
   7              		.eabi_attribute 24, 1
   8              		.eabi_attribute 25, 1
   9              		.eabi_attribute 26, 1
  10              		.eabi_attribute 30, 1
  11              		.eabi_attribute 34, 1
  12              		.eabi_attribute 18, 4
  13              		.file	"lv_example_anim_1.c"
  14              		.text
  15              	.Ltext0:
  16              		.cfi_sections	.debug_frame
  17              		.section	.text.sw_event_cb,"ax",%progbits
  18              		.align	1
  19              		.arch armv7e-m
  20              		.syntax unified
  21              		.thumb
  22              		.thumb_func
  23              		.fpu fpv4-sp-d16
  25              	sw_event_cb:
  26              	.LVL0:
  27              	.LFB190:
  28              		.file 1 "lvgl/lvgl/examples/anim/lv_example_anim_1.c"
   1:lvgl/lvgl/examples/anim/lv_example_anim_1.c **** #include "../lv_examples.h"
   2:lvgl/lvgl/examples/anim/lv_example_anim_1.c **** #if LV_BUILD_EXAMPLES && LV_USE_SWITCH
   3:lvgl/lvgl/examples/anim/lv_example_anim_1.c **** 
   4:lvgl/lvgl/examples/anim/lv_example_anim_1.c **** static void anim_x_cb(void * var, int32_t v)
   5:lvgl/lvgl/examples/anim/lv_example_anim_1.c **** {
   6:lvgl/lvgl/examples/anim/lv_example_anim_1.c ****     lv_obj_set_x(var, v);
   7:lvgl/lvgl/examples/anim/lv_example_anim_1.c **** }
   8:lvgl/lvgl/examples/anim/lv_example_anim_1.c **** 
   9:lvgl/lvgl/examples/anim/lv_example_anim_1.c **** static void sw_event_cb(lv_event_t * e)
  10:lvgl/lvgl/examples/anim/lv_example_anim_1.c **** {
  29              		.loc 1 10 1 view -0
  30              		.cfi_startproc
  31              		@ args = 0, pretend = 0, frame = 72
  32              		@ frame_needed = 0, uses_anonymous_args = 0
  33              		.loc 1 10 1 is_stmt 0 view .LVU1
  34 0000 30B5     		push	{r4, r5, lr}
  35              	.LCFI0:
  36              		.cfi_def_cfa_offset 12
  37              		.cfi_offset 4, -12
  38              		.cfi_offset 5, -8
  39              		.cfi_offset 14, -4
  40 0002 93B0     		sub	sp, sp, #76
  41              	.LCFI1:
  42              		.cfi_def_cfa_offset 88
  43 0004 0446     		mov	r4, r0
  11:lvgl/lvgl/examples/anim/lv_example_anim_1.c ****     lv_obj_t * sw = lv_event_get_target(e);
  44              		.loc 1 11 5 is_stmt 1 view .LVU2
  45              		.loc 1 11 21 is_stmt 0 view .LVU3
  46 0006 FFF7FEFF 		bl	lv_event_get_target
  47              	.LVL1:
ARM GAS  C:\Users\gx\AppData\Local\Temp\cckdT0ZS.s 			page 2


  48              		.loc 1 11 21 view .LVU4
  49 000a 0546     		mov	r5, r0
  50              	.LVL2:
  12:lvgl/lvgl/examples/anim/lv_example_anim_1.c ****     lv_obj_t * label = lv_event_get_user_data(e);
  51              		.loc 1 12 5 is_stmt 1 view .LVU5
  52              		.loc 1 12 24 is_stmt 0 view .LVU6
  53 000c 2046     		mov	r0, r4
  54              	.LVL3:
  55              		.loc 1 12 24 view .LVU7
  56 000e FFF7FEFF 		bl	lv_event_get_user_data
  57              	.LVL4:
  58 0012 0446     		mov	r4, r0
  59              	.LVL5:
  13:lvgl/lvgl/examples/anim/lv_example_anim_1.c **** 
  14:lvgl/lvgl/examples/anim/lv_example_anim_1.c ****     if(lv_obj_has_state(sw, LV_STATE_CHECKED)) {
  60              		.loc 1 14 5 is_stmt 1 view .LVU8
  61              		.loc 1 14 8 is_stmt 0 view .LVU9
  62 0014 0121     		movs	r1, #1
  63 0016 2846     		mov	r0, r5
  64              	.LVL6:
  65              		.loc 1 14 8 view .LVU10
  66 0018 FFF7FEFF 		bl	lv_obj_has_state
  67              	.LVL7:
  68              		.loc 1 14 7 view .LVU11
  69 001c B0B1     		cbz	r0, .L2
  70              	.LBB30:
  15:lvgl/lvgl/examples/anim/lv_example_anim_1.c ****         lv_anim_t a;
  71              		.loc 1 15 9 is_stmt 1 view .LVU12
  16:lvgl/lvgl/examples/anim/lv_example_anim_1.c ****         lv_anim_init(&a);
  72              		.loc 1 16 9 view .LVU13
  73 001e 01A8     		add	r0, sp, #4
  74 0020 FFF7FEFF 		bl	lv_anim_init
  75              	.LVL8:
  17:lvgl/lvgl/examples/anim/lv_example_anim_1.c ****         lv_anim_set_var(&a, label);
  76              		.loc 1 17 9 view .LVU14
  77              	.LBB31:
  78              	.LBI31:
  79              		.file 2 "lvgl/lvgl/examples/anim/../../src/misc/lv_anim.h"
   1:lvgl/lvgl/examples/anim/../../src/misc/lv_anim.h **** /**
   2:lvgl/lvgl/examples/anim/../../src/misc/lv_anim.h ****  * @file lv_anim.h
   3:lvgl/lvgl/examples/anim/../../src/misc/lv_anim.h ****  *
   4:lvgl/lvgl/examples/anim/../../src/misc/lv_anim.h ****  */
   5:lvgl/lvgl/examples/anim/../../src/misc/lv_anim.h **** 
   6:lvgl/lvgl/examples/anim/../../src/misc/lv_anim.h **** #ifndef LV_ANIM_H
   7:lvgl/lvgl/examples/anim/../../src/misc/lv_anim.h **** #define LV_ANIM_H
   8:lvgl/lvgl/examples/anim/../../src/misc/lv_anim.h **** 
   9:lvgl/lvgl/examples/anim/../../src/misc/lv_anim.h **** #ifdef __cplusplus
  10:lvgl/lvgl/examples/anim/../../src/misc/lv_anim.h **** extern "C" {
  11:lvgl/lvgl/examples/anim/../../src/misc/lv_anim.h **** #endif
  12:lvgl/lvgl/examples/anim/../../src/misc/lv_anim.h **** 
  13:lvgl/lvgl/examples/anim/../../src/misc/lv_anim.h **** /*********************
  14:lvgl/lvgl/examples/anim/../../src/misc/lv_anim.h ****  *      INCLUDES
  15:lvgl/lvgl/examples/anim/../../src/misc/lv_anim.h ****  *********************/
  16:lvgl/lvgl/examples/anim/../../src/misc/lv_anim.h **** #include "../lv_conf_internal.h"
  17:lvgl/lvgl/examples/anim/../../src/misc/lv_anim.h **** 
  18:lvgl/lvgl/examples/anim/../../src/misc/lv_anim.h **** #include <stdint.h>
  19:lvgl/lvgl/examples/anim/../../src/misc/lv_anim.h **** #include <stdbool.h>
ARM GAS  C:\Users\gx\AppData\Local\Temp\cckdT0ZS.s 			page 3


  20:lvgl/lvgl/examples/anim/../../src/misc/lv_anim.h **** #include <string.h>
  21:lvgl/lvgl/examples/anim/../../src/misc/lv_anim.h **** 
  22:lvgl/lvgl/examples/anim/../../src/misc/lv_anim.h **** /*********************
  23:lvgl/lvgl/examples/anim/../../src/misc/lv_anim.h ****  *      DEFINES
  24:lvgl/lvgl/examples/anim/../../src/misc/lv_anim.h ****  *********************/
  25:lvgl/lvgl/examples/anim/../../src/misc/lv_anim.h **** 
  26:lvgl/lvgl/examples/anim/../../src/misc/lv_anim.h **** /**********************
  27:lvgl/lvgl/examples/anim/../../src/misc/lv_anim.h ****  *      TYPEDEFS
  28:lvgl/lvgl/examples/anim/../../src/misc/lv_anim.h ****  **********************/
  29:lvgl/lvgl/examples/anim/../../src/misc/lv_anim.h **** 
  30:lvgl/lvgl/examples/anim/../../src/misc/lv_anim.h **** /** Can be used to indicate if animations are enabled or disabled in a case*/
  31:lvgl/lvgl/examples/anim/../../src/misc/lv_anim.h **** typedef enum {
  32:lvgl/lvgl/examples/anim/../../src/misc/lv_anim.h ****     LV_ANIM_OFF,
  33:lvgl/lvgl/examples/anim/../../src/misc/lv_anim.h ****     LV_ANIM_ON,
  34:lvgl/lvgl/examples/anim/../../src/misc/lv_anim.h **** }lv_anim_enable_t;
  35:lvgl/lvgl/examples/anim/../../src/misc/lv_anim.h **** 
  36:lvgl/lvgl/examples/anim/../../src/misc/lv_anim.h **** #define LV_ANIM_REPEAT_INFINITE      0xFFFF
  37:lvgl/lvgl/examples/anim/../../src/misc/lv_anim.h **** LV_EXPORT_CONST_INT(LV_ANIM_REPEAT_INFINITE);
  38:lvgl/lvgl/examples/anim/../../src/misc/lv_anim.h **** 
  39:lvgl/lvgl/examples/anim/../../src/misc/lv_anim.h **** struct _lv_anim_t;
  40:lvgl/lvgl/examples/anim/../../src/misc/lv_anim.h **** 
  41:lvgl/lvgl/examples/anim/../../src/misc/lv_anim.h **** /** Get the current value during an animation*/
  42:lvgl/lvgl/examples/anim/../../src/misc/lv_anim.h **** typedef int32_t (*lv_anim_path_cb_t)(const struct _lv_anim_t *);
  43:lvgl/lvgl/examples/anim/../../src/misc/lv_anim.h **** 
  44:lvgl/lvgl/examples/anim/../../src/misc/lv_anim.h **** /** Generic prototype of "animator" functions.
  45:lvgl/lvgl/examples/anim/../../src/misc/lv_anim.h ****  * First parameter is the variable to animate.
  46:lvgl/lvgl/examples/anim/../../src/misc/lv_anim.h ****  * Second parameter is the value to set.
  47:lvgl/lvgl/examples/anim/../../src/misc/lv_anim.h ****  * Compatible with `lv_xxx_set_yyy(obj, value)` functions
  48:lvgl/lvgl/examples/anim/../../src/misc/lv_anim.h ****  * The `x` in `_xcb_t` means its not a fully generic prototype because
  49:lvgl/lvgl/examples/anim/../../src/misc/lv_anim.h ****  * it doesn't receive `lv_anim_t *` as its first argument*/
  50:lvgl/lvgl/examples/anim/../../src/misc/lv_anim.h **** typedef void (*lv_anim_exec_xcb_t)(void *, int32_t);
  51:lvgl/lvgl/examples/anim/../../src/misc/lv_anim.h **** 
  52:lvgl/lvgl/examples/anim/../../src/misc/lv_anim.h **** /** Same as `lv_anim_exec_xcb_t` but receives `lv_anim_t *` as the first parameter.
  53:lvgl/lvgl/examples/anim/../../src/misc/lv_anim.h ****  * It's more consistent but less convenient. Might be used by binding generator functions.*/
  54:lvgl/lvgl/examples/anim/../../src/misc/lv_anim.h **** typedef void (*lv_anim_custom_exec_cb_t)(struct _lv_anim_t *, int32_t);
  55:lvgl/lvgl/examples/anim/../../src/misc/lv_anim.h **** 
  56:lvgl/lvgl/examples/anim/../../src/misc/lv_anim.h **** /** Callback to call when the animation is ready*/
  57:lvgl/lvgl/examples/anim/../../src/misc/lv_anim.h **** typedef void (*lv_anim_ready_cb_t)(struct _lv_anim_t *);
  58:lvgl/lvgl/examples/anim/../../src/misc/lv_anim.h **** 
  59:lvgl/lvgl/examples/anim/../../src/misc/lv_anim.h **** /** Callback to call when the animation really stars (considering `delay`)*/
  60:lvgl/lvgl/examples/anim/../../src/misc/lv_anim.h **** typedef void (*lv_anim_start_cb_t)(struct _lv_anim_t *);
  61:lvgl/lvgl/examples/anim/../../src/misc/lv_anim.h **** 
  62:lvgl/lvgl/examples/anim/../../src/misc/lv_anim.h **** /** Callback used when the animation values are relative to get the current value*/
  63:lvgl/lvgl/examples/anim/../../src/misc/lv_anim.h **** typedef int32_t (*lv_anim_get_value_cb_t)(struct _lv_anim_t *);
  64:lvgl/lvgl/examples/anim/../../src/misc/lv_anim.h **** 
  65:lvgl/lvgl/examples/anim/../../src/misc/lv_anim.h **** /** Describes an animation*/
  66:lvgl/lvgl/examples/anim/../../src/misc/lv_anim.h **** typedef struct _lv_anim_t {
  67:lvgl/lvgl/examples/anim/../../src/misc/lv_anim.h ****     void * var;                          /**<Variable to animate*/
  68:lvgl/lvgl/examples/anim/../../src/misc/lv_anim.h ****     lv_anim_exec_xcb_t exec_cb;          /**< Function to execute to animate*/
  69:lvgl/lvgl/examples/anim/../../src/misc/lv_anim.h ****     lv_anim_start_cb_t start_cb;         /**< Call it when the animation is starts (considering `de
  70:lvgl/lvgl/examples/anim/../../src/misc/lv_anim.h ****     lv_anim_ready_cb_t ready_cb;         /**< Call it when the animation is ready*/
  71:lvgl/lvgl/examples/anim/../../src/misc/lv_anim.h ****     lv_anim_get_value_cb_t get_value_cb; /**< Get the current value in relative mode*/
  72:lvgl/lvgl/examples/anim/../../src/misc/lv_anim.h **** #if LV_USE_USER_DATA
  73:lvgl/lvgl/examples/anim/../../src/misc/lv_anim.h ****     void * user_data; /**< Custom user data*/
  74:lvgl/lvgl/examples/anim/../../src/misc/lv_anim.h **** #endif
  75:lvgl/lvgl/examples/anim/../../src/misc/lv_anim.h ****     lv_anim_path_cb_t path_cb;         /**< Describe the path (curve) of animations*/
  76:lvgl/lvgl/examples/anim/../../src/misc/lv_anim.h ****     int32_t start_value;               /**< Start value*/
ARM GAS  C:\Users\gx\AppData\Local\Temp\cckdT0ZS.s 			page 4


  77:lvgl/lvgl/examples/anim/../../src/misc/lv_anim.h ****     int32_t current_value;             /**< Current value*/
  78:lvgl/lvgl/examples/anim/../../src/misc/lv_anim.h ****     int32_t end_value;                 /**< End value*/
  79:lvgl/lvgl/examples/anim/../../src/misc/lv_anim.h ****     int32_t time;                /**< Animation time in ms*/
  80:lvgl/lvgl/examples/anim/../../src/misc/lv_anim.h ****     int32_t act_time;            /**< Current time in animation. Set to negative to make delay.*/
  81:lvgl/lvgl/examples/anim/../../src/misc/lv_anim.h ****     uint32_t playback_delay;     /**< Wait before play back*/
  82:lvgl/lvgl/examples/anim/../../src/misc/lv_anim.h ****     uint32_t playback_time;      /**< Duration of playback animation*/
  83:lvgl/lvgl/examples/anim/../../src/misc/lv_anim.h ****     uint32_t repeat_delay;       /**< Wait before repeat*/
  84:lvgl/lvgl/examples/anim/../../src/misc/lv_anim.h ****     uint16_t repeat_cnt;         /**< Repeat count for the animation*/
  85:lvgl/lvgl/examples/anim/../../src/misc/lv_anim.h ****     uint8_t early_apply  : 1;    /**< 1: Apply start value immediately even is there is `delay`*/
  86:lvgl/lvgl/examples/anim/../../src/misc/lv_anim.h **** 
  87:lvgl/lvgl/examples/anim/../../src/misc/lv_anim.h ****     /*Animation system use these - user shouldn't set*/
  88:lvgl/lvgl/examples/anim/../../src/misc/lv_anim.h ****     uint8_t playback_now : 1; /**< Play back is in progress*/
  89:lvgl/lvgl/examples/anim/../../src/misc/lv_anim.h ****     uint8_t run_round : 1;    /**< Indicates the animation has run in this round*/
  90:lvgl/lvgl/examples/anim/../../src/misc/lv_anim.h ****     uint8_t start_cb_called : 1;    /**< Indicates that the `start_cb` was already called*/
  91:lvgl/lvgl/examples/anim/../../src/misc/lv_anim.h ****     uint32_t time_orig;
  92:lvgl/lvgl/examples/anim/../../src/misc/lv_anim.h **** } lv_anim_t;
  93:lvgl/lvgl/examples/anim/../../src/misc/lv_anim.h **** 
  94:lvgl/lvgl/examples/anim/../../src/misc/lv_anim.h **** /**********************
  95:lvgl/lvgl/examples/anim/../../src/misc/lv_anim.h ****  * GLOBAL PROTOTYPES
  96:lvgl/lvgl/examples/anim/../../src/misc/lv_anim.h ****  **********************/
  97:lvgl/lvgl/examples/anim/../../src/misc/lv_anim.h **** 
  98:lvgl/lvgl/examples/anim/../../src/misc/lv_anim.h **** /**
  99:lvgl/lvgl/examples/anim/../../src/misc/lv_anim.h ****  * Init. the animation module
 100:lvgl/lvgl/examples/anim/../../src/misc/lv_anim.h ****  */
 101:lvgl/lvgl/examples/anim/../../src/misc/lv_anim.h **** void _lv_anim_core_init(void);
 102:lvgl/lvgl/examples/anim/../../src/misc/lv_anim.h **** 
 103:lvgl/lvgl/examples/anim/../../src/misc/lv_anim.h **** /**
 104:lvgl/lvgl/examples/anim/../../src/misc/lv_anim.h ****  * Initialize an animation variable.
 105:lvgl/lvgl/examples/anim/../../src/misc/lv_anim.h ****  * E.g.:
 106:lvgl/lvgl/examples/anim/../../src/misc/lv_anim.h ****  * lv_anim_t a;
 107:lvgl/lvgl/examples/anim/../../src/misc/lv_anim.h ****  * lv_anim_init(&a);
 108:lvgl/lvgl/examples/anim/../../src/misc/lv_anim.h ****  * lv_anim_set_...(&a);
 109:lvgl/lvgl/examples/anim/../../src/misc/lv_anim.h ****  * lv_anim_start(&a);
 110:lvgl/lvgl/examples/anim/../../src/misc/lv_anim.h ****  * @param a     pointer to an `lv_anim_t` variable to initialize
 111:lvgl/lvgl/examples/anim/../../src/misc/lv_anim.h ****  */
 112:lvgl/lvgl/examples/anim/../../src/misc/lv_anim.h **** void lv_anim_init(lv_anim_t * a);
 113:lvgl/lvgl/examples/anim/../../src/misc/lv_anim.h **** 
 114:lvgl/lvgl/examples/anim/../../src/misc/lv_anim.h **** /**
 115:lvgl/lvgl/examples/anim/../../src/misc/lv_anim.h ****  * Set a variable to animate
 116:lvgl/lvgl/examples/anim/../../src/misc/lv_anim.h ****  * @param a     pointer to an initialized `lv_anim_t` variable
 117:lvgl/lvgl/examples/anim/../../src/misc/lv_anim.h ****  * @param var   pointer to a variable to animate
 118:lvgl/lvgl/examples/anim/../../src/misc/lv_anim.h ****  */
 119:lvgl/lvgl/examples/anim/../../src/misc/lv_anim.h **** static inline void lv_anim_set_var(lv_anim_t * a, void * var)
  80              		.loc 2 119 20 view .LVU15
  81              	.LBB32:
 120:lvgl/lvgl/examples/anim/../../src/misc/lv_anim.h **** {
 121:lvgl/lvgl/examples/anim/../../src/misc/lv_anim.h ****     a->var = var;
  82              		.loc 2 121 5 view .LVU16
  83              		.loc 2 121 12 is_stmt 0 view .LVU17
  84 0024 0194     		str	r4, [sp, #4]
  85              	.LVL9:
  86              		.loc 2 121 12 view .LVU18
  87              	.LBE32:
  88              	.LBE31:
  18:lvgl/lvgl/examples/anim/lv_example_anim_1.c ****         lv_anim_set_values(&a, lv_obj_get_x(label), 100);
  89              		.loc 1 18 9 is_stmt 1 view .LVU19
  90              		.loc 1 18 32 is_stmt 0 view .LVU20
ARM GAS  C:\Users\gx\AppData\Local\Temp\cckdT0ZS.s 			page 5


  91 0026 2046     		mov	r0, r4
  92 0028 FFF7FEFF 		bl	lv_obj_get_x
  93              	.LVL10:
  94              	.LBB33:
  95              	.LBI33:
 122:lvgl/lvgl/examples/anim/../../src/misc/lv_anim.h **** }
 123:lvgl/lvgl/examples/anim/../../src/misc/lv_anim.h **** 
 124:lvgl/lvgl/examples/anim/../../src/misc/lv_anim.h **** /**
 125:lvgl/lvgl/examples/anim/../../src/misc/lv_anim.h ****  * Set a function to animate `var`
 126:lvgl/lvgl/examples/anim/../../src/misc/lv_anim.h ****  * @param a         pointer to an initialized `lv_anim_t` variable
 127:lvgl/lvgl/examples/anim/../../src/misc/lv_anim.h ****  * @param exec_cb   a function to execute during animation
 128:lvgl/lvgl/examples/anim/../../src/misc/lv_anim.h ****  *                  LVGL's built-in functions can be used.
 129:lvgl/lvgl/examples/anim/../../src/misc/lv_anim.h ****  *                  E.g. lv_obj_set_x
 130:lvgl/lvgl/examples/anim/../../src/misc/lv_anim.h ****  */
 131:lvgl/lvgl/examples/anim/../../src/misc/lv_anim.h **** static inline void lv_anim_set_exec_cb(lv_anim_t * a, lv_anim_exec_xcb_t exec_cb)
 132:lvgl/lvgl/examples/anim/../../src/misc/lv_anim.h **** {
 133:lvgl/lvgl/examples/anim/../../src/misc/lv_anim.h ****     a->exec_cb = exec_cb;
 134:lvgl/lvgl/examples/anim/../../src/misc/lv_anim.h **** }
 135:lvgl/lvgl/examples/anim/../../src/misc/lv_anim.h **** 
 136:lvgl/lvgl/examples/anim/../../src/misc/lv_anim.h **** /**
 137:lvgl/lvgl/examples/anim/../../src/misc/lv_anim.h ****  * Set the duration of an animation
 138:lvgl/lvgl/examples/anim/../../src/misc/lv_anim.h ****  * @param a         pointer to an initialized `lv_anim_t` variable
 139:lvgl/lvgl/examples/anim/../../src/misc/lv_anim.h ****  * @param duration  duration of the animation in milliseconds
 140:lvgl/lvgl/examples/anim/../../src/misc/lv_anim.h ****  */
 141:lvgl/lvgl/examples/anim/../../src/misc/lv_anim.h **** static inline void lv_anim_set_time(lv_anim_t * a, uint32_t duration)
 142:lvgl/lvgl/examples/anim/../../src/misc/lv_anim.h **** {
 143:lvgl/lvgl/examples/anim/../../src/misc/lv_anim.h ****     a->time = duration;
 144:lvgl/lvgl/examples/anim/../../src/misc/lv_anim.h **** }
 145:lvgl/lvgl/examples/anim/../../src/misc/lv_anim.h **** 
 146:lvgl/lvgl/examples/anim/../../src/misc/lv_anim.h **** /**
 147:lvgl/lvgl/examples/anim/../../src/misc/lv_anim.h ****  * Set a delay before starting the animation
 148:lvgl/lvgl/examples/anim/../../src/misc/lv_anim.h ****  * @param a         pointer to an initialized `lv_anim_t` variable
 149:lvgl/lvgl/examples/anim/../../src/misc/lv_anim.h ****  * @param delay     delay before the animation in milliseconds
 150:lvgl/lvgl/examples/anim/../../src/misc/lv_anim.h ****  */
 151:lvgl/lvgl/examples/anim/../../src/misc/lv_anim.h **** static inline void lv_anim_set_delay(lv_anim_t * a, uint32_t delay)
 152:lvgl/lvgl/examples/anim/../../src/misc/lv_anim.h **** {
 153:lvgl/lvgl/examples/anim/../../src/misc/lv_anim.h ****     a->act_time = -(int32_t)(delay);
 154:lvgl/lvgl/examples/anim/../../src/misc/lv_anim.h **** }
 155:lvgl/lvgl/examples/anim/../../src/misc/lv_anim.h **** 
 156:lvgl/lvgl/examples/anim/../../src/misc/lv_anim.h **** /**
 157:lvgl/lvgl/examples/anim/../../src/misc/lv_anim.h ****  * Set the start and end values of an animation
 158:lvgl/lvgl/examples/anim/../../src/misc/lv_anim.h ****  * @param a         pointer to an initialized `lv_anim_t` variable
 159:lvgl/lvgl/examples/anim/../../src/misc/lv_anim.h ****  * @param start     the start value
 160:lvgl/lvgl/examples/anim/../../src/misc/lv_anim.h ****  * @param end       the end value
 161:lvgl/lvgl/examples/anim/../../src/misc/lv_anim.h ****  */
 162:lvgl/lvgl/examples/anim/../../src/misc/lv_anim.h **** static inline void lv_anim_set_values(lv_anim_t * a, int32_t start, int32_t end)
  96              		.loc 2 162 20 is_stmt 1 view .LVU21
  97              	.LBB34:
 163:lvgl/lvgl/examples/anim/../../src/misc/lv_anim.h **** {
 164:lvgl/lvgl/examples/anim/../../src/misc/lv_anim.h ****     a->start_value = start;
  98              		.loc 2 164 5 view .LVU22
  99              		.loc 2 164 20 is_stmt 0 view .LVU23
 100 002c 0890     		str	r0, [sp, #32]
 165:lvgl/lvgl/examples/anim/../../src/misc/lv_anim.h ****     a->current_value = start;
 101              		.loc 2 165 5 is_stmt 1 view .LVU24
 102              		.loc 2 165 22 is_stmt 0 view .LVU25
 103 002e 0990     		str	r0, [sp, #36]
ARM GAS  C:\Users\gx\AppData\Local\Temp\cckdT0ZS.s 			page 6


 166:lvgl/lvgl/examples/anim/../../src/misc/lv_anim.h ****     a->end_value = end;
 104              		.loc 2 166 5 is_stmt 1 view .LVU26
 105              		.loc 2 166 18 is_stmt 0 view .LVU27
 106 0030 6423     		movs	r3, #100
 107 0032 0A93     		str	r3, [sp, #40]
 108              	.LVL11:
 109              		.loc 2 166 18 view .LVU28
 110              	.LBE34:
 111              	.LBE33:
  19:lvgl/lvgl/examples/anim/lv_example_anim_1.c ****         lv_anim_set_time(&a, 500);
 112              		.loc 1 19 9 is_stmt 1 view .LVU29
 113              	.LBB35:
 114              	.LBI35:
 141:lvgl/lvgl/examples/anim/../../src/misc/lv_anim.h **** {
 115              		.loc 2 141 20 view .LVU30
 116              	.LBB36:
 143:lvgl/lvgl/examples/anim/../../src/misc/lv_anim.h **** }
 117              		.loc 2 143 5 view .LVU31
 143:lvgl/lvgl/examples/anim/../../src/misc/lv_anim.h **** }
 118              		.loc 2 143 13 is_stmt 0 view .LVU32
 119 0034 4FF4FA73 		mov	r3, #500
 120 0038 0B93     		str	r3, [sp, #44]
 121              	.LVL12:
 143:lvgl/lvgl/examples/anim/../../src/misc/lv_anim.h **** }
 122              		.loc 2 143 13 view .LVU33
 123              	.LBE36:
 124              	.LBE35:
  20:lvgl/lvgl/examples/anim/lv_example_anim_1.c ****         lv_anim_set_exec_cb(&a, anim_x_cb);
 125              		.loc 1 20 9 is_stmt 1 view .LVU34
 126              	.LBB37:
 127              	.LBI37:
 131:lvgl/lvgl/examples/anim/../../src/misc/lv_anim.h **** {
 128              		.loc 2 131 20 view .LVU35
 129              	.LBB38:
 133:lvgl/lvgl/examples/anim/../../src/misc/lv_anim.h **** }
 130              		.loc 2 133 5 view .LVU36
 133:lvgl/lvgl/examples/anim/../../src/misc/lv_anim.h **** }
 131              		.loc 2 133 16 is_stmt 0 view .LVU37
 132 003a 114B     		ldr	r3, .L5
 133 003c 0293     		str	r3, [sp, #8]
 134              	.LVL13:
 133:lvgl/lvgl/examples/anim/../../src/misc/lv_anim.h **** }
 135              		.loc 2 133 16 view .LVU38
 136              	.LBE38:
 137              	.LBE37:
  21:lvgl/lvgl/examples/anim/lv_example_anim_1.c ****         lv_anim_set_path_cb(&a, lv_anim_path_overshoot);
 138              		.loc 1 21 9 is_stmt 1 view .LVU39
 139              	.LBB39:
 140              	.LBI39:
 167:lvgl/lvgl/examples/anim/../../src/misc/lv_anim.h **** }
 168:lvgl/lvgl/examples/anim/../../src/misc/lv_anim.h **** 
 169:lvgl/lvgl/examples/anim/../../src/misc/lv_anim.h **** /**
 170:lvgl/lvgl/examples/anim/../../src/misc/lv_anim.h ****  * Similar to `lv_anim_set_exec_cb` but `lv_anim_custom_exec_cb_t` receives
 171:lvgl/lvgl/examples/anim/../../src/misc/lv_anim.h ****  * `lv_anim_t * ` as its first parameter instead of `void *`.
 172:lvgl/lvgl/examples/anim/../../src/misc/lv_anim.h ****  * This function might be used when LVGL is binded to other languages because
 173:lvgl/lvgl/examples/anim/../../src/misc/lv_anim.h ****  * it's more consistent to have `lv_anim_t *` as first parameter.
 174:lvgl/lvgl/examples/anim/../../src/misc/lv_anim.h ****  * The variable to animate can be stored in the animation's `user_sata`
ARM GAS  C:\Users\gx\AppData\Local\Temp\cckdT0ZS.s 			page 7


 175:lvgl/lvgl/examples/anim/../../src/misc/lv_anim.h ****  * @param a         pointer to an initialized `lv_anim_t` variable
 176:lvgl/lvgl/examples/anim/../../src/misc/lv_anim.h ****  * @param exec_cb   a function to execute.
 177:lvgl/lvgl/examples/anim/../../src/misc/lv_anim.h ****  */
 178:lvgl/lvgl/examples/anim/../../src/misc/lv_anim.h **** static inline void lv_anim_set_custom_exec_cb(lv_anim_t * a, lv_anim_custom_exec_cb_t exec_cb)
 179:lvgl/lvgl/examples/anim/../../src/misc/lv_anim.h **** {
 180:lvgl/lvgl/examples/anim/../../src/misc/lv_anim.h ****     a->var     = a;
 181:lvgl/lvgl/examples/anim/../../src/misc/lv_anim.h ****     a->exec_cb = (lv_anim_exec_xcb_t)exec_cb;
 182:lvgl/lvgl/examples/anim/../../src/misc/lv_anim.h **** }
 183:lvgl/lvgl/examples/anim/../../src/misc/lv_anim.h **** 
 184:lvgl/lvgl/examples/anim/../../src/misc/lv_anim.h **** /**
 185:lvgl/lvgl/examples/anim/../../src/misc/lv_anim.h ****  * Set the path (curve) of the animation.
 186:lvgl/lvgl/examples/anim/../../src/misc/lv_anim.h ****  * @param a         pointer to an initialized `lv_anim_t` variable
 187:lvgl/lvgl/examples/anim/../../src/misc/lv_anim.h ****  * @param path_cb a function the get the current value of the animation.
 188:lvgl/lvgl/examples/anim/../../src/misc/lv_anim.h ****  */
 189:lvgl/lvgl/examples/anim/../../src/misc/lv_anim.h **** static inline void lv_anim_set_path_cb(lv_anim_t * a, lv_anim_path_cb_t path_cb)
 141              		.loc 2 189 20 view .LVU40
 142              	.LBB40:
 190:lvgl/lvgl/examples/anim/../../src/misc/lv_anim.h **** {
 191:lvgl/lvgl/examples/anim/../../src/misc/lv_anim.h ****     a->path_cb = path_cb;
 143              		.loc 2 191 5 view .LVU41
 144              		.loc 2 191 16 is_stmt 0 view .LVU42
 145 003e 114B     		ldr	r3, .L5+4
 146 0040 0793     		str	r3, [sp, #28]
 147              	.LVL14:
 148              		.loc 2 191 16 view .LVU43
 149              	.LBE40:
 150              	.LBE39:
  22:lvgl/lvgl/examples/anim/lv_example_anim_1.c ****         lv_anim_start(&a);
 151              		.loc 1 22 9 is_stmt 1 view .LVU44
 152 0042 01A8     		add	r0, sp, #4
 153 0044 FFF7FEFF 		bl	lv_anim_start
 154              	.LVL15:
 155              	.L1:
 156              		.loc 1 22 9 is_stmt 0 view .LVU45
 157              	.LBE30:
  23:lvgl/lvgl/examples/anim/lv_example_anim_1.c ****     } else {
  24:lvgl/lvgl/examples/anim/lv_example_anim_1.c ****         lv_anim_t a;
  25:lvgl/lvgl/examples/anim/lv_example_anim_1.c ****         lv_anim_init(&a);
  26:lvgl/lvgl/examples/anim/lv_example_anim_1.c ****         lv_anim_set_var(&a, label);
  27:lvgl/lvgl/examples/anim/lv_example_anim_1.c ****         lv_anim_set_values(&a, lv_obj_get_x(label), -lv_obj_get_width(label));
  28:lvgl/lvgl/examples/anim/lv_example_anim_1.c ****         lv_anim_set_time(&a, 500);
  29:lvgl/lvgl/examples/anim/lv_example_anim_1.c ****         lv_anim_set_exec_cb(&a, anim_x_cb);
  30:lvgl/lvgl/examples/anim/lv_example_anim_1.c ****         lv_anim_set_path_cb(&a, lv_anim_path_ease_in);
  31:lvgl/lvgl/examples/anim/lv_example_anim_1.c ****         lv_anim_start(&a);
  32:lvgl/lvgl/examples/anim/lv_example_anim_1.c ****     }
  33:lvgl/lvgl/examples/anim/lv_example_anim_1.c **** 
  34:lvgl/lvgl/examples/anim/lv_example_anim_1.c **** }
 158              		.loc 1 34 1 view .LVU46
 159 0048 13B0     		add	sp, sp, #76
 160              	.LCFI2:
 161              		.cfi_remember_state
 162              		.cfi_def_cfa_offset 12
 163              		@ sp needed
 164 004a 30BD     		pop	{r4, r5, pc}
 165              	.LVL16:
 166              	.L2:
 167              	.LCFI3:
ARM GAS  C:\Users\gx\AppData\Local\Temp\cckdT0ZS.s 			page 8


 168              		.cfi_restore_state
 169              	.LBB41:
  24:lvgl/lvgl/examples/anim/lv_example_anim_1.c ****         lv_anim_init(&a);
 170              		.loc 1 24 9 is_stmt 1 view .LVU47
  25:lvgl/lvgl/examples/anim/lv_example_anim_1.c ****         lv_anim_set_var(&a, label);
 171              		.loc 1 25 9 view .LVU48
 172 004c 01A8     		add	r0, sp, #4
 173 004e FFF7FEFF 		bl	lv_anim_init
 174              	.LVL17:
  26:lvgl/lvgl/examples/anim/lv_example_anim_1.c ****         lv_anim_set_values(&a, lv_obj_get_x(label), -lv_obj_get_width(label));
 175              		.loc 1 26 9 view .LVU49
 176              	.LBB42:
 177              	.LBI42:
 119:lvgl/lvgl/examples/anim/../../src/misc/lv_anim.h **** {
 178              		.loc 2 119 20 view .LVU50
 179              	.LBB43:
 121:lvgl/lvgl/examples/anim/../../src/misc/lv_anim.h **** }
 180              		.loc 2 121 5 view .LVU51
 121:lvgl/lvgl/examples/anim/../../src/misc/lv_anim.h **** }
 181              		.loc 2 121 12 is_stmt 0 view .LVU52
 182 0052 0194     		str	r4, [sp, #4]
 183              	.LVL18:
 121:lvgl/lvgl/examples/anim/../../src/misc/lv_anim.h **** }
 184              		.loc 2 121 12 view .LVU53
 185              	.LBE43:
 186              	.LBE42:
  27:lvgl/lvgl/examples/anim/lv_example_anim_1.c ****         lv_anim_set_time(&a, 500);
 187              		.loc 1 27 9 is_stmt 1 view .LVU54
  27:lvgl/lvgl/examples/anim/lv_example_anim_1.c ****         lv_anim_set_time(&a, 500);
 188              		.loc 1 27 32 is_stmt 0 view .LVU55
 189 0054 2046     		mov	r0, r4
 190 0056 FFF7FEFF 		bl	lv_obj_get_x
 191              	.LVL19:
 192 005a 0546     		mov	r5, r0
 193              	.LVL20:
  27:lvgl/lvgl/examples/anim/lv_example_anim_1.c ****         lv_anim_set_time(&a, 500);
 194              		.loc 1 27 54 view .LVU56
 195 005c 2046     		mov	r0, r4
 196 005e FFF7FEFF 		bl	lv_obj_get_width
 197              	.LVL21:
  27:lvgl/lvgl/examples/anim/lv_example_anim_1.c ****         lv_anim_set_time(&a, 500);
 198              		.loc 1 27 53 view .LVU57
 199 0062 4042     		rsbs	r0, r0, #0
 200              	.LVL22:
 201              	.LBB44:
 202              	.LBI44:
 162:lvgl/lvgl/examples/anim/../../src/misc/lv_anim.h **** {
 203              		.loc 2 162 20 is_stmt 1 view .LVU58
 204              	.LBB45:
 164:lvgl/lvgl/examples/anim/../../src/misc/lv_anim.h ****     a->current_value = start;
 205              		.loc 2 164 5 view .LVU59
 164:lvgl/lvgl/examples/anim/../../src/misc/lv_anim.h ****     a->current_value = start;
 206              		.loc 2 164 20 is_stmt 0 view .LVU60
 207 0064 0895     		str	r5, [sp, #32]
 165:lvgl/lvgl/examples/anim/../../src/misc/lv_anim.h ****     a->end_value = end;
 208              		.loc 2 165 5 is_stmt 1 view .LVU61
 165:lvgl/lvgl/examples/anim/../../src/misc/lv_anim.h ****     a->end_value = end;
ARM GAS  C:\Users\gx\AppData\Local\Temp\cckdT0ZS.s 			page 9


 209              		.loc 2 165 22 is_stmt 0 view .LVU62
 210 0066 0995     		str	r5, [sp, #36]
 166:lvgl/lvgl/examples/anim/../../src/misc/lv_anim.h **** }
 211              		.loc 2 166 5 is_stmt 1 view .LVU63
 166:lvgl/lvgl/examples/anim/../../src/misc/lv_anim.h **** }
 212              		.loc 2 166 18 is_stmt 0 view .LVU64
 213 0068 0A90     		str	r0, [sp, #40]
 214              	.LVL23:
 166:lvgl/lvgl/examples/anim/../../src/misc/lv_anim.h **** }
 215              		.loc 2 166 18 view .LVU65
 216              	.LBE45:
 217              	.LBE44:
  28:lvgl/lvgl/examples/anim/lv_example_anim_1.c ****         lv_anim_set_exec_cb(&a, anim_x_cb);
 218              		.loc 1 28 9 is_stmt 1 view .LVU66
 219              	.LBB46:
 220              	.LBI46:
 141:lvgl/lvgl/examples/anim/../../src/misc/lv_anim.h **** {
 221              		.loc 2 141 20 view .LVU67
 222              	.LBB47:
 143:lvgl/lvgl/examples/anim/../../src/misc/lv_anim.h **** }
 223              		.loc 2 143 5 view .LVU68
 143:lvgl/lvgl/examples/anim/../../src/misc/lv_anim.h **** }
 224              		.loc 2 143 13 is_stmt 0 view .LVU69
 225 006a 4FF4FA73 		mov	r3, #500
 226 006e 0B93     		str	r3, [sp, #44]
 227              	.LVL24:
 143:lvgl/lvgl/examples/anim/../../src/misc/lv_anim.h **** }
 228              		.loc 2 143 13 view .LVU70
 229              	.LBE47:
 230              	.LBE46:
  29:lvgl/lvgl/examples/anim/lv_example_anim_1.c ****         lv_anim_set_path_cb(&a, lv_anim_path_ease_in);
 231              		.loc 1 29 9 is_stmt 1 view .LVU71
 232              	.LBB48:
 233              	.LBI48:
 131:lvgl/lvgl/examples/anim/../../src/misc/lv_anim.h **** {
 234              		.loc 2 131 20 view .LVU72
 235              	.LBB49:
 133:lvgl/lvgl/examples/anim/../../src/misc/lv_anim.h **** }
 236              		.loc 2 133 5 view .LVU73
 133:lvgl/lvgl/examples/anim/../../src/misc/lv_anim.h **** }
 237              		.loc 2 133 16 is_stmt 0 view .LVU74
 238 0070 034B     		ldr	r3, .L5
 239 0072 0293     		str	r3, [sp, #8]
 240              	.LVL25:
 133:lvgl/lvgl/examples/anim/../../src/misc/lv_anim.h **** }
 241              		.loc 2 133 16 view .LVU75
 242              	.LBE49:
 243              	.LBE48:
  30:lvgl/lvgl/examples/anim/lv_example_anim_1.c ****         lv_anim_start(&a);
 244              		.loc 1 30 9 is_stmt 1 view .LVU76
 245              	.LBB50:
 246              	.LBI50:
 189:lvgl/lvgl/examples/anim/../../src/misc/lv_anim.h **** {
 247              		.loc 2 189 20 view .LVU77
 248              	.LBB51:
 249              		.loc 2 191 5 view .LVU78
 250              		.loc 2 191 16 is_stmt 0 view .LVU79
ARM GAS  C:\Users\gx\AppData\Local\Temp\cckdT0ZS.s 			page 10


 251 0074 044B     		ldr	r3, .L5+8
 252 0076 0793     		str	r3, [sp, #28]
 253              	.LVL26:
 254              		.loc 2 191 16 view .LVU80
 255              	.LBE51:
 256              	.LBE50:
  31:lvgl/lvgl/examples/anim/lv_example_anim_1.c ****     }
 257              		.loc 1 31 9 is_stmt 1 view .LVU81
 258 0078 01A8     		add	r0, sp, #4
 259 007a FFF7FEFF 		bl	lv_anim_start
 260              	.LVL27:
 261              	.LBE41:
 262              		.loc 1 34 1 is_stmt 0 view .LVU82
 263 007e E3E7     		b	.L1
 264              	.L6:
 265              		.align	2
 266              	.L5:
 267 0080 00000000 		.word	anim_x_cb
 268 0084 00000000 		.word	lv_anim_path_overshoot
 269 0088 00000000 		.word	lv_anim_path_ease_in
 270              		.cfi_endproc
 271              	.LFE190:
 273              		.section	.text.anim_x_cb,"ax",%progbits
 274              		.align	1
 275              		.syntax unified
 276              		.thumb
 277              		.thumb_func
 278              		.fpu fpv4-sp-d16
 280              	anim_x_cb:
 281              	.LVL28:
 282              	.LFB189:
   5:lvgl/lvgl/examples/anim/lv_example_anim_1.c ****     lv_obj_set_x(var, v);
 283              		.loc 1 5 1 is_stmt 1 view -0
 284              		.cfi_startproc
 285              		@ args = 0, pretend = 0, frame = 0
 286              		@ frame_needed = 0, uses_anonymous_args = 0
   5:lvgl/lvgl/examples/anim/lv_example_anim_1.c ****     lv_obj_set_x(var, v);
 287              		.loc 1 5 1 is_stmt 0 view .LVU84
 288 0000 08B5     		push	{r3, lr}
 289              	.LCFI4:
 290              		.cfi_def_cfa_offset 8
 291              		.cfi_offset 3, -8
 292              		.cfi_offset 14, -4
   6:lvgl/lvgl/examples/anim/lv_example_anim_1.c **** }
 293              		.loc 1 6 5 is_stmt 1 view .LVU85
 294 0002 09B2     		sxth	r1, r1
 295              	.LVL29:
   6:lvgl/lvgl/examples/anim/lv_example_anim_1.c **** }
 296              		.loc 1 6 5 is_stmt 0 view .LVU86
 297 0004 FFF7FEFF 		bl	lv_obj_set_x
 298              	.LVL30:
   7:lvgl/lvgl/examples/anim/lv_example_anim_1.c **** 
 299              		.loc 1 7 1 view .LVU87
 300 0008 08BD     		pop	{r3, pc}
 301              		.cfi_endproc
 302              	.LFE189:
 304              		.section	.rodata.lv_example_anim_1.str1.4,"aMS",%progbits,1
ARM GAS  C:\Users\gx\AppData\Local\Temp\cckdT0ZS.s 			page 11


 305              		.align	2
 306              	.LC0:
 307 0000 48656C6C 		.ascii	"Hello animations!\000"
 307      6F20616E 
 307      696D6174 
 307      696F6E73 
 307      2100
 308              		.section	.text.lv_example_anim_1,"ax",%progbits
 309              		.align	1
 310              		.global	lv_example_anim_1
 311              		.syntax unified
 312              		.thumb
 313              		.thumb_func
 314              		.fpu fpv4-sp-d16
 316              	lv_example_anim_1:
 317              	.LFB191:
  35:lvgl/lvgl/examples/anim/lv_example_anim_1.c **** 
  36:lvgl/lvgl/examples/anim/lv_example_anim_1.c **** /**
  37:lvgl/lvgl/examples/anim/lv_example_anim_1.c ****  * Start animation on an event
  38:lvgl/lvgl/examples/anim/lv_example_anim_1.c ****  */
  39:lvgl/lvgl/examples/anim/lv_example_anim_1.c **** void lv_example_anim_1(void)
  40:lvgl/lvgl/examples/anim/lv_example_anim_1.c **** {
 318              		.loc 1 40 1 is_stmt 1 view -0
 319              		.cfi_startproc
 320              		@ args = 0, pretend = 0, frame = 0
 321              		@ frame_needed = 0, uses_anonymous_args = 0
 322 0000 38B5     		push	{r3, r4, r5, lr}
 323              	.LCFI5:
 324              		.cfi_def_cfa_offset 16
 325              		.cfi_offset 3, -16
 326              		.cfi_offset 4, -12
 327              		.cfi_offset 5, -8
 328              		.cfi_offset 14, -4
  41:lvgl/lvgl/examples/anim/lv_example_anim_1.c ****     lv_obj_t * label = lv_label_create(lv_scr_act());
 329              		.loc 1 41 5 view .LVU89
 330              	.LBB52:
 331              	.LBI52:
 332              		.file 3 "lvgl/lvgl/examples/anim/../../src/core/lv_disp.h"
   1:lvgl/lvgl/examples/anim/../../src/core/lv_disp.h **** /**
   2:lvgl/lvgl/examples/anim/../../src/core/lv_disp.h ****  * @file lv_disp.h
   3:lvgl/lvgl/examples/anim/../../src/core/lv_disp.h ****  *
   4:lvgl/lvgl/examples/anim/../../src/core/lv_disp.h ****  */
   5:lvgl/lvgl/examples/anim/../../src/core/lv_disp.h **** 
   6:lvgl/lvgl/examples/anim/../../src/core/lv_disp.h **** #ifndef LV_DISP_H
   7:lvgl/lvgl/examples/anim/../../src/core/lv_disp.h **** #define LV_DISP_H
   8:lvgl/lvgl/examples/anim/../../src/core/lv_disp.h **** 
   9:lvgl/lvgl/examples/anim/../../src/core/lv_disp.h **** #ifdef __cplusplus
  10:lvgl/lvgl/examples/anim/../../src/core/lv_disp.h **** extern "C" {
  11:lvgl/lvgl/examples/anim/../../src/core/lv_disp.h **** #endif
  12:lvgl/lvgl/examples/anim/../../src/core/lv_disp.h **** 
  13:lvgl/lvgl/examples/anim/../../src/core/lv_disp.h **** /*********************
  14:lvgl/lvgl/examples/anim/../../src/core/lv_disp.h ****  *      INCLUDES
  15:lvgl/lvgl/examples/anim/../../src/core/lv_disp.h ****  *********************/
  16:lvgl/lvgl/examples/anim/../../src/core/lv_disp.h **** #include "../hal/lv_hal.h"
  17:lvgl/lvgl/examples/anim/../../src/core/lv_disp.h **** #include "lv_obj.h"
  18:lvgl/lvgl/examples/anim/../../src/core/lv_disp.h **** #include "lv_theme.h"
  19:lvgl/lvgl/examples/anim/../../src/core/lv_disp.h **** 
ARM GAS  C:\Users\gx\AppData\Local\Temp\cckdT0ZS.s 			page 12


  20:lvgl/lvgl/examples/anim/../../src/core/lv_disp.h **** /*********************
  21:lvgl/lvgl/examples/anim/../../src/core/lv_disp.h ****  *      DEFINES
  22:lvgl/lvgl/examples/anim/../../src/core/lv_disp.h ****  *********************/
  23:lvgl/lvgl/examples/anim/../../src/core/lv_disp.h **** 
  24:lvgl/lvgl/examples/anim/../../src/core/lv_disp.h **** /**********************
  25:lvgl/lvgl/examples/anim/../../src/core/lv_disp.h ****  *      TYPEDEFS
  26:lvgl/lvgl/examples/anim/../../src/core/lv_disp.h ****  **********************/
  27:lvgl/lvgl/examples/anim/../../src/core/lv_disp.h **** 
  28:lvgl/lvgl/examples/anim/../../src/core/lv_disp.h **** typedef enum {
  29:lvgl/lvgl/examples/anim/../../src/core/lv_disp.h ****     LV_SCR_LOAD_ANIM_NONE,
  30:lvgl/lvgl/examples/anim/../../src/core/lv_disp.h ****     LV_SCR_LOAD_ANIM_OVER_LEFT,
  31:lvgl/lvgl/examples/anim/../../src/core/lv_disp.h ****     LV_SCR_LOAD_ANIM_OVER_RIGHT,
  32:lvgl/lvgl/examples/anim/../../src/core/lv_disp.h ****     LV_SCR_LOAD_ANIM_OVER_TOP,
  33:lvgl/lvgl/examples/anim/../../src/core/lv_disp.h ****     LV_SCR_LOAD_ANIM_OVER_BOTTOM,
  34:lvgl/lvgl/examples/anim/../../src/core/lv_disp.h ****     LV_SCR_LOAD_ANIM_MOVE_LEFT,
  35:lvgl/lvgl/examples/anim/../../src/core/lv_disp.h ****     LV_SCR_LOAD_ANIM_MOVE_RIGHT,
  36:lvgl/lvgl/examples/anim/../../src/core/lv_disp.h ****     LV_SCR_LOAD_ANIM_MOVE_TOP,
  37:lvgl/lvgl/examples/anim/../../src/core/lv_disp.h ****     LV_SCR_LOAD_ANIM_MOVE_BOTTOM,
  38:lvgl/lvgl/examples/anim/../../src/core/lv_disp.h ****     LV_SCR_LOAD_ANIM_FADE_ON,
  39:lvgl/lvgl/examples/anim/../../src/core/lv_disp.h **** } lv_scr_load_anim_t;
  40:lvgl/lvgl/examples/anim/../../src/core/lv_disp.h **** 
  41:lvgl/lvgl/examples/anim/../../src/core/lv_disp.h **** /**********************
  42:lvgl/lvgl/examples/anim/../../src/core/lv_disp.h ****  * GLOBAL PROTOTYPES
  43:lvgl/lvgl/examples/anim/../../src/core/lv_disp.h ****  **********************/
  44:lvgl/lvgl/examples/anim/../../src/core/lv_disp.h **** 
  45:lvgl/lvgl/examples/anim/../../src/core/lv_disp.h **** /**
  46:lvgl/lvgl/examples/anim/../../src/core/lv_disp.h ****  * Return with a pointer to the active screen
  47:lvgl/lvgl/examples/anim/../../src/core/lv_disp.h ****  * @param disp pointer to display which active screen should be get. (NULL to use the default
  48:lvgl/lvgl/examples/anim/../../src/core/lv_disp.h ****  * screen)
  49:lvgl/lvgl/examples/anim/../../src/core/lv_disp.h ****  * @return pointer to the active screen object (loaded by 'lv_scr_load()')
  50:lvgl/lvgl/examples/anim/../../src/core/lv_disp.h ****  */
  51:lvgl/lvgl/examples/anim/../../src/core/lv_disp.h **** lv_obj_t * lv_disp_get_scr_act(lv_disp_t * disp);
  52:lvgl/lvgl/examples/anim/../../src/core/lv_disp.h **** 
  53:lvgl/lvgl/examples/anim/../../src/core/lv_disp.h **** /**
  54:lvgl/lvgl/examples/anim/../../src/core/lv_disp.h ****  * Return with a pointer to the previous screen. Only used during screen transitions.
  55:lvgl/lvgl/examples/anim/../../src/core/lv_disp.h ****  * @param disp pointer to display which previous screen should be get. (NULL to use the default
  56:lvgl/lvgl/examples/anim/../../src/core/lv_disp.h ****  * screen)
  57:lvgl/lvgl/examples/anim/../../src/core/lv_disp.h ****  * @return pointer to the previous screen object or NULL if not used now
  58:lvgl/lvgl/examples/anim/../../src/core/lv_disp.h ****  */
  59:lvgl/lvgl/examples/anim/../../src/core/lv_disp.h **** lv_obj_t * lv_disp_get_scr_prev(lv_disp_t * disp);
  60:lvgl/lvgl/examples/anim/../../src/core/lv_disp.h **** 
  61:lvgl/lvgl/examples/anim/../../src/core/lv_disp.h **** /**
  62:lvgl/lvgl/examples/anim/../../src/core/lv_disp.h ****  * Make a screen active
  63:lvgl/lvgl/examples/anim/../../src/core/lv_disp.h ****  * @param scr pointer to a screen
  64:lvgl/lvgl/examples/anim/../../src/core/lv_disp.h ****  */
  65:lvgl/lvgl/examples/anim/../../src/core/lv_disp.h **** void lv_disp_load_scr(lv_obj_t * scr);
  66:lvgl/lvgl/examples/anim/../../src/core/lv_disp.h **** 
  67:lvgl/lvgl/examples/anim/../../src/core/lv_disp.h **** /**
  68:lvgl/lvgl/examples/anim/../../src/core/lv_disp.h ****  * Return with the top layer. (Same on every screen and it is above the normal screen layer)
  69:lvgl/lvgl/examples/anim/../../src/core/lv_disp.h ****  * @param disp pointer to display which top layer should be get. (NULL to use the default screen)
  70:lvgl/lvgl/examples/anim/../../src/core/lv_disp.h ****  * @return pointer to the top layer object  (transparent screen sized lv_obj)
  71:lvgl/lvgl/examples/anim/../../src/core/lv_disp.h ****  */
  72:lvgl/lvgl/examples/anim/../../src/core/lv_disp.h **** lv_obj_t * lv_disp_get_layer_top(lv_disp_t * disp);
  73:lvgl/lvgl/examples/anim/../../src/core/lv_disp.h **** 
  74:lvgl/lvgl/examples/anim/../../src/core/lv_disp.h **** /**
  75:lvgl/lvgl/examples/anim/../../src/core/lv_disp.h ****  * Return with the sys. layer. (Same on every screen and it is above the normal screen and the top
  76:lvgl/lvgl/examples/anim/../../src/core/lv_disp.h ****  * layer)
ARM GAS  C:\Users\gx\AppData\Local\Temp\cckdT0ZS.s 			page 13


  77:lvgl/lvgl/examples/anim/../../src/core/lv_disp.h ****  * @param disp pointer to display which sys. layer  should be get. (NULL to use the default screen)
  78:lvgl/lvgl/examples/anim/../../src/core/lv_disp.h ****  * @return pointer to the sys layer object  (transparent screen sized lv_obj)
  79:lvgl/lvgl/examples/anim/../../src/core/lv_disp.h ****  */
  80:lvgl/lvgl/examples/anim/../../src/core/lv_disp.h **** lv_obj_t * lv_disp_get_layer_sys(lv_disp_t * disp);
  81:lvgl/lvgl/examples/anim/../../src/core/lv_disp.h **** 
  82:lvgl/lvgl/examples/anim/../../src/core/lv_disp.h **** /**
  83:lvgl/lvgl/examples/anim/../../src/core/lv_disp.h ****  * Get the theme of a display
  84:lvgl/lvgl/examples/anim/../../src/core/lv_disp.h ****  * @param disp pointer to a display
  85:lvgl/lvgl/examples/anim/../../src/core/lv_disp.h ****  * @return the display's theme (can be NULL)
  86:lvgl/lvgl/examples/anim/../../src/core/lv_disp.h ****  */
  87:lvgl/lvgl/examples/anim/../../src/core/lv_disp.h **** void lv_disp_set_theme(lv_disp_t * disp, lv_theme_t * th);
  88:lvgl/lvgl/examples/anim/../../src/core/lv_disp.h **** 
  89:lvgl/lvgl/examples/anim/../../src/core/lv_disp.h **** /**
  90:lvgl/lvgl/examples/anim/../../src/core/lv_disp.h ****  * Get the theme of a display
  91:lvgl/lvgl/examples/anim/../../src/core/lv_disp.h ****  * @param disp pointer to a display
  92:lvgl/lvgl/examples/anim/../../src/core/lv_disp.h ****  * @return the display's theme (can be NULL)
  93:lvgl/lvgl/examples/anim/../../src/core/lv_disp.h ****  */
  94:lvgl/lvgl/examples/anim/../../src/core/lv_disp.h **** lv_theme_t * lv_disp_get_theme(lv_disp_t * disp);
  95:lvgl/lvgl/examples/anim/../../src/core/lv_disp.h **** 
  96:lvgl/lvgl/examples/anim/../../src/core/lv_disp.h **** /**
  97:lvgl/lvgl/examples/anim/../../src/core/lv_disp.h ****  * Set the background color of a display
  98:lvgl/lvgl/examples/anim/../../src/core/lv_disp.h ****  * @param disp pointer to a display
  99:lvgl/lvgl/examples/anim/../../src/core/lv_disp.h ****  * @param color color of the background
 100:lvgl/lvgl/examples/anim/../../src/core/lv_disp.h ****  */
 101:lvgl/lvgl/examples/anim/../../src/core/lv_disp.h **** void lv_disp_set_bg_color(lv_disp_t * disp, lv_color_t color);
 102:lvgl/lvgl/examples/anim/../../src/core/lv_disp.h **** 
 103:lvgl/lvgl/examples/anim/../../src/core/lv_disp.h **** /**
 104:lvgl/lvgl/examples/anim/../../src/core/lv_disp.h ****  * Set the background image of a display
 105:lvgl/lvgl/examples/anim/../../src/core/lv_disp.h ****  * @param disp pointer to a display
 106:lvgl/lvgl/examples/anim/../../src/core/lv_disp.h ****  * @param img_src path to file or pointer to an `lv_img_dsc_t` variable
 107:lvgl/lvgl/examples/anim/../../src/core/lv_disp.h ****  */
 108:lvgl/lvgl/examples/anim/../../src/core/lv_disp.h **** void lv_disp_set_bg_image(lv_disp_t * disp, const void  * img_src);
 109:lvgl/lvgl/examples/anim/../../src/core/lv_disp.h **** 
 110:lvgl/lvgl/examples/anim/../../src/core/lv_disp.h **** /**
 111:lvgl/lvgl/examples/anim/../../src/core/lv_disp.h ****  * Opacity of the background
 112:lvgl/lvgl/examples/anim/../../src/core/lv_disp.h ****  * @param disp pointer to a display
 113:lvgl/lvgl/examples/anim/../../src/core/lv_disp.h ****  * @param opa opacity (0..255)
 114:lvgl/lvgl/examples/anim/../../src/core/lv_disp.h ****  */
 115:lvgl/lvgl/examples/anim/../../src/core/lv_disp.h **** void lv_disp_set_bg_opa(lv_disp_t * disp, lv_opa_t opa);
 116:lvgl/lvgl/examples/anim/../../src/core/lv_disp.h **** 
 117:lvgl/lvgl/examples/anim/../../src/core/lv_disp.h **** /**
 118:lvgl/lvgl/examples/anim/../../src/core/lv_disp.h ****  * Switch screen with animation
 119:lvgl/lvgl/examples/anim/../../src/core/lv_disp.h ****  * @param scr pointer to the new screen to load
 120:lvgl/lvgl/examples/anim/../../src/core/lv_disp.h ****  * @param anim_type type of the animation from `lv_scr_load_anim_t`. E.g.  `LV_SCR_LOAD_ANIM_MOVE_L
 121:lvgl/lvgl/examples/anim/../../src/core/lv_disp.h ****  * @param time time of the animation
 122:lvgl/lvgl/examples/anim/../../src/core/lv_disp.h ****  * @param delay delay before the transition
 123:lvgl/lvgl/examples/anim/../../src/core/lv_disp.h ****  * @param auto_del true: automatically delete the old screen
 124:lvgl/lvgl/examples/anim/../../src/core/lv_disp.h ****  */
 125:lvgl/lvgl/examples/anim/../../src/core/lv_disp.h **** void lv_scr_load_anim(lv_obj_t * scr, lv_scr_load_anim_t anim_type, uint32_t time, uint32_t delay, 
 126:lvgl/lvgl/examples/anim/../../src/core/lv_disp.h **** 
 127:lvgl/lvgl/examples/anim/../../src/core/lv_disp.h **** /**
 128:lvgl/lvgl/examples/anim/../../src/core/lv_disp.h ****  * Get elapsed time since last user activity on a display (e.g. click)
 129:lvgl/lvgl/examples/anim/../../src/core/lv_disp.h ****  * @param disp pointer to an display (NULL to get the overall smallest inactivity)
 130:lvgl/lvgl/examples/anim/../../src/core/lv_disp.h ****  * @return elapsed ticks (milliseconds) since the last activity
 131:lvgl/lvgl/examples/anim/../../src/core/lv_disp.h ****  */
 132:lvgl/lvgl/examples/anim/../../src/core/lv_disp.h **** uint32_t lv_disp_get_inactive_time(const lv_disp_t * disp);
 133:lvgl/lvgl/examples/anim/../../src/core/lv_disp.h **** 
ARM GAS  C:\Users\gx\AppData\Local\Temp\cckdT0ZS.s 			page 14


 134:lvgl/lvgl/examples/anim/../../src/core/lv_disp.h **** /**
 135:lvgl/lvgl/examples/anim/../../src/core/lv_disp.h ****  * Manually trigger an activity on a display
 136:lvgl/lvgl/examples/anim/../../src/core/lv_disp.h ****  * @param disp pointer to an display (NULL to use the default display)
 137:lvgl/lvgl/examples/anim/../../src/core/lv_disp.h ****  */
 138:lvgl/lvgl/examples/anim/../../src/core/lv_disp.h **** void lv_disp_trig_activity(lv_disp_t * disp);
 139:lvgl/lvgl/examples/anim/../../src/core/lv_disp.h **** 
 140:lvgl/lvgl/examples/anim/../../src/core/lv_disp.h **** /**
 141:lvgl/lvgl/examples/anim/../../src/core/lv_disp.h ****  * Clean any CPU cache that is related to the display.
 142:lvgl/lvgl/examples/anim/../../src/core/lv_disp.h ****  * @param disp pointer to an display (NULL to use the default display)
 143:lvgl/lvgl/examples/anim/../../src/core/lv_disp.h ****  */
 144:lvgl/lvgl/examples/anim/../../src/core/lv_disp.h **** void lv_disp_clean_dcache(lv_disp_t * disp);
 145:lvgl/lvgl/examples/anim/../../src/core/lv_disp.h **** 
 146:lvgl/lvgl/examples/anim/../../src/core/lv_disp.h **** /**
 147:lvgl/lvgl/examples/anim/../../src/core/lv_disp.h ****  * Get a pointer to the screen refresher timer to
 148:lvgl/lvgl/examples/anim/../../src/core/lv_disp.h ****  * modify its parameters with `lv_timer_...` functions.
 149:lvgl/lvgl/examples/anim/../../src/core/lv_disp.h ****  * @param disp pointer to a display
 150:lvgl/lvgl/examples/anim/../../src/core/lv_disp.h ****  * @return pointer to the display refresher timer. (NULL on error)
 151:lvgl/lvgl/examples/anim/../../src/core/lv_disp.h ****  */
 152:lvgl/lvgl/examples/anim/../../src/core/lv_disp.h **** lv_timer_t * _lv_disp_get_refr_timer(lv_disp_t * disp);
 153:lvgl/lvgl/examples/anim/../../src/core/lv_disp.h **** 
 154:lvgl/lvgl/examples/anim/../../src/core/lv_disp.h **** /*------------------------------------------------
 155:lvgl/lvgl/examples/anim/../../src/core/lv_disp.h ****  * To improve backward compatibility
 156:lvgl/lvgl/examples/anim/../../src/core/lv_disp.h ****  * Recommended only if you have one display
 157:lvgl/lvgl/examples/anim/../../src/core/lv_disp.h ****  *------------------------------------------------*/
 158:lvgl/lvgl/examples/anim/../../src/core/lv_disp.h **** 
 159:lvgl/lvgl/examples/anim/../../src/core/lv_disp.h **** /**
 160:lvgl/lvgl/examples/anim/../../src/core/lv_disp.h ****  * Get the active screen of the default display
 161:lvgl/lvgl/examples/anim/../../src/core/lv_disp.h ****  * @return pointer to the active screen
 162:lvgl/lvgl/examples/anim/../../src/core/lv_disp.h ****  */
 163:lvgl/lvgl/examples/anim/../../src/core/lv_disp.h **** static inline lv_obj_t * lv_scr_act(void)
 333              		.loc 3 163 26 view .LVU90
 334              	.LBB53:
 164:lvgl/lvgl/examples/anim/../../src/core/lv_disp.h **** {
 165:lvgl/lvgl/examples/anim/../../src/core/lv_disp.h ****     return lv_disp_get_scr_act(lv_disp_get_default());
 335              		.loc 3 165 5 view .LVU91
 336              		.loc 3 165 12 is_stmt 0 view .LVU92
 337 0002 FFF7FEFF 		bl	lv_disp_get_default
 338              	.LVL31:
 339 0006 FFF7FEFF 		bl	lv_disp_get_scr_act
 340              	.LVL32:
 341              	.LBE53:
 342              	.LBE52:
 343              		.loc 1 41 24 view .LVU93
 344 000a FFF7FEFF 		bl	lv_label_create
 345              	.LVL33:
 346 000e 0546     		mov	r5, r0
 347              	.LVL34:
  42:lvgl/lvgl/examples/anim/lv_example_anim_1.c ****     lv_label_set_text(label, "Hello animations!");
 348              		.loc 1 42 5 is_stmt 1 view .LVU94
 349 0010 0F49     		ldr	r1, .L11
 350 0012 FFF7FEFF 		bl	lv_label_set_text
 351              	.LVL35:
  43:lvgl/lvgl/examples/anim/lv_example_anim_1.c ****     lv_obj_set_pos(label, 100, 10);
 352              		.loc 1 43 5 view .LVU95
 353 0016 0A22     		movs	r2, #10
 354 0018 6421     		movs	r1, #100
 355 001a 2846     		mov	r0, r5
ARM GAS  C:\Users\gx\AppData\Local\Temp\cckdT0ZS.s 			page 15


 356 001c FFF7FEFF 		bl	lv_obj_set_pos
 357              	.LVL36:
  44:lvgl/lvgl/examples/anim/lv_example_anim_1.c **** 
  45:lvgl/lvgl/examples/anim/lv_example_anim_1.c **** 
  46:lvgl/lvgl/examples/anim/lv_example_anim_1.c ****     lv_obj_t * sw = lv_switch_create(lv_scr_act());
 358              		.loc 1 46 5 view .LVU96
 359              	.LBB54:
 360              	.LBI54:
 163:lvgl/lvgl/examples/anim/../../src/core/lv_disp.h **** {
 361              		.loc 3 163 26 view .LVU97
 362              	.LBB55:
 363              		.loc 3 165 5 view .LVU98
 364              		.loc 3 165 12 is_stmt 0 view .LVU99
 365 0020 FFF7FEFF 		bl	lv_disp_get_default
 366              	.LVL37:
 367 0024 FFF7FEFF 		bl	lv_disp_get_scr_act
 368              	.LVL38:
 369              	.LBE55:
 370              	.LBE54:
 371              		.loc 1 46 21 view .LVU100
 372 0028 FFF7FEFF 		bl	lv_switch_create
 373              	.LVL39:
 374 002c 0446     		mov	r4, r0
 375              	.LVL40:
  47:lvgl/lvgl/examples/anim/lv_example_anim_1.c ****     lv_obj_center(sw);
 376              		.loc 1 47 5 is_stmt 1 view .LVU101
 377              	.LBB56:
 378              	.LBI56:
 379              		.file 4 "lvgl/lvgl/examples/anim/../../src/core/lv_obj_pos.h"
   1:lvgl/lvgl/examples/anim/../../src/core/lv_obj_pos.h **** /**
   2:lvgl/lvgl/examples/anim/../../src/core/lv_obj_pos.h ****  * @file lv_obj_pos.h
   3:lvgl/lvgl/examples/anim/../../src/core/lv_obj_pos.h ****  *
   4:lvgl/lvgl/examples/anim/../../src/core/lv_obj_pos.h ****  */
   5:lvgl/lvgl/examples/anim/../../src/core/lv_obj_pos.h **** 
   6:lvgl/lvgl/examples/anim/../../src/core/lv_obj_pos.h **** #ifndef LV_OBJ_POS_H
   7:lvgl/lvgl/examples/anim/../../src/core/lv_obj_pos.h **** #define LV_OBJ_POS_H
   8:lvgl/lvgl/examples/anim/../../src/core/lv_obj_pos.h **** 
   9:lvgl/lvgl/examples/anim/../../src/core/lv_obj_pos.h **** #ifdef __cplusplus
  10:lvgl/lvgl/examples/anim/../../src/core/lv_obj_pos.h **** extern "C" {
  11:lvgl/lvgl/examples/anim/../../src/core/lv_obj_pos.h **** #endif
  12:lvgl/lvgl/examples/anim/../../src/core/lv_obj_pos.h **** 
  13:lvgl/lvgl/examples/anim/../../src/core/lv_obj_pos.h **** /*********************
  14:lvgl/lvgl/examples/anim/../../src/core/lv_obj_pos.h ****  *      INCLUDES
  15:lvgl/lvgl/examples/anim/../../src/core/lv_obj_pos.h ****  *********************/
  16:lvgl/lvgl/examples/anim/../../src/core/lv_obj_pos.h **** #include "../misc/lv_area.h"
  17:lvgl/lvgl/examples/anim/../../src/core/lv_obj_pos.h **** 
  18:lvgl/lvgl/examples/anim/../../src/core/lv_obj_pos.h **** /*********************
  19:lvgl/lvgl/examples/anim/../../src/core/lv_obj_pos.h ****  *      DEFINES
  20:lvgl/lvgl/examples/anim/../../src/core/lv_obj_pos.h ****  *********************/
  21:lvgl/lvgl/examples/anim/../../src/core/lv_obj_pos.h **** 
  22:lvgl/lvgl/examples/anim/../../src/core/lv_obj_pos.h **** /**********************
  23:lvgl/lvgl/examples/anim/../../src/core/lv_obj_pos.h ****  *      TYPEDEFS
  24:lvgl/lvgl/examples/anim/../../src/core/lv_obj_pos.h ****  **********************/
  25:lvgl/lvgl/examples/anim/../../src/core/lv_obj_pos.h **** struct _lv_obj_t;
  26:lvgl/lvgl/examples/anim/../../src/core/lv_obj_pos.h **** 
  27:lvgl/lvgl/examples/anim/../../src/core/lv_obj_pos.h **** typedef void (*lv_layout_update_cb_t)(struct _lv_obj_t *, void * user_data);
  28:lvgl/lvgl/examples/anim/../../src/core/lv_obj_pos.h **** typedef struct {
ARM GAS  C:\Users\gx\AppData\Local\Temp\cckdT0ZS.s 			page 16


  29:lvgl/lvgl/examples/anim/../../src/core/lv_obj_pos.h ****     lv_layout_update_cb_t cb;
  30:lvgl/lvgl/examples/anim/../../src/core/lv_obj_pos.h ****     void * user_data;
  31:lvgl/lvgl/examples/anim/../../src/core/lv_obj_pos.h **** }lv_layout_dsc_t;
  32:lvgl/lvgl/examples/anim/../../src/core/lv_obj_pos.h **** 
  33:lvgl/lvgl/examples/anim/../../src/core/lv_obj_pos.h **** /**********************
  34:lvgl/lvgl/examples/anim/../../src/core/lv_obj_pos.h ****  * GLOBAL PROTOTYPES
  35:lvgl/lvgl/examples/anim/../../src/core/lv_obj_pos.h ****  **********************/
  36:lvgl/lvgl/examples/anim/../../src/core/lv_obj_pos.h **** 
  37:lvgl/lvgl/examples/anim/../../src/core/lv_obj_pos.h **** /**
  38:lvgl/lvgl/examples/anim/../../src/core/lv_obj_pos.h ****  * Set the relative the position of an object (relative to the parent's top left corner)
  39:lvgl/lvgl/examples/anim/../../src/core/lv_obj_pos.h ****  * @param obj       pointer to an object
  40:lvgl/lvgl/examples/anim/../../src/core/lv_obj_pos.h ****  * @param x         new distance from the left side of the parent plus the parent's left padding
  41:lvgl/lvgl/examples/anim/../../src/core/lv_obj_pos.h ****  * @param y         new distance from the top side of the parent  plus the parent's right padding
  42:lvgl/lvgl/examples/anim/../../src/core/lv_obj_pos.h ****  */
  43:lvgl/lvgl/examples/anim/../../src/core/lv_obj_pos.h **** void lv_obj_set_pos(struct _lv_obj_t * obj, lv_coord_t x, lv_coord_t y);
  44:lvgl/lvgl/examples/anim/../../src/core/lv_obj_pos.h **** 
  45:lvgl/lvgl/examples/anim/../../src/core/lv_obj_pos.h **** /**
  46:lvgl/lvgl/examples/anim/../../src/core/lv_obj_pos.h ****  * Set the x coordinate of a object
  47:lvgl/lvgl/examples/anim/../../src/core/lv_obj_pos.h ****  * @param obj       pointer to an object
  48:lvgl/lvgl/examples/anim/../../src/core/lv_obj_pos.h ****  * @param x         new distance from the left side from the parent plus the parent's left padding
  49:lvgl/lvgl/examples/anim/../../src/core/lv_obj_pos.h ****  */
  50:lvgl/lvgl/examples/anim/../../src/core/lv_obj_pos.h **** void lv_obj_set_x(struct _lv_obj_t * obj, lv_coord_t x);
  51:lvgl/lvgl/examples/anim/../../src/core/lv_obj_pos.h **** 
  52:lvgl/lvgl/examples/anim/../../src/core/lv_obj_pos.h **** /**
  53:lvgl/lvgl/examples/anim/../../src/core/lv_obj_pos.h ****  * Set the y coordinate of a object
  54:lvgl/lvgl/examples/anim/../../src/core/lv_obj_pos.h ****  * @param obj       pointer to an object
  55:lvgl/lvgl/examples/anim/../../src/core/lv_obj_pos.h ****  * @param y         new distance from the top of the parent  plus the parent's top padding
  56:lvgl/lvgl/examples/anim/../../src/core/lv_obj_pos.h ****  */
  57:lvgl/lvgl/examples/anim/../../src/core/lv_obj_pos.h **** void lv_obj_set_y(struct _lv_obj_t * obj, lv_coord_t y);
  58:lvgl/lvgl/examples/anim/../../src/core/lv_obj_pos.h **** 
  59:lvgl/lvgl/examples/anim/../../src/core/lv_obj_pos.h **** /**
  60:lvgl/lvgl/examples/anim/../../src/core/lv_obj_pos.h ****  * Set the size of an object.
  61:lvgl/lvgl/examples/anim/../../src/core/lv_obj_pos.h ****  * @param obj       pointer to an object
  62:lvgl/lvgl/examples/anim/../../src/core/lv_obj_pos.h ****  * @param w         the new width
  63:lvgl/lvgl/examples/anim/../../src/core/lv_obj_pos.h ****  * @param h         the new height
  64:lvgl/lvgl/examples/anim/../../src/core/lv_obj_pos.h ****  * @note            possible values are:
  65:lvgl/lvgl/examples/anim/../../src/core/lv_obj_pos.h ****  *                  pixel               simple set the size accordingly
  66:lvgl/lvgl/examples/anim/../../src/core/lv_obj_pos.h ****  *                  LV_SIZE_CONTENT     set the size to involve all children in the given direction
  67:lvgl/lvgl/examples/anim/../../src/core/lv_obj_pos.h ****  *                  LV_SIZE_PCT(x)     to set size in percentage of the parent's content area size 
  68:lvgl/lvgl/examples/anim/../../src/core/lv_obj_pos.h ****  *                                      x should be in [0..1000]% range
  69:lvgl/lvgl/examples/anim/../../src/core/lv_obj_pos.h ****  */
  70:lvgl/lvgl/examples/anim/../../src/core/lv_obj_pos.h **** void lv_obj_set_size(struct _lv_obj_t * obj, lv_coord_t w, lv_coord_t h);
  71:lvgl/lvgl/examples/anim/../../src/core/lv_obj_pos.h **** 
  72:lvgl/lvgl/examples/anim/../../src/core/lv_obj_pos.h **** /**
  73:lvgl/lvgl/examples/anim/../../src/core/lv_obj_pos.h ****  * Recalculate the size of the object
  74:lvgl/lvgl/examples/anim/../../src/core/lv_obj_pos.h ****  * @param obj       pointer to an object
  75:lvgl/lvgl/examples/anim/../../src/core/lv_obj_pos.h ****  * @return          true: the size has been changed
  76:lvgl/lvgl/examples/anim/../../src/core/lv_obj_pos.h ****  */
  77:lvgl/lvgl/examples/anim/../../src/core/lv_obj_pos.h **** bool lv_obj_refr_size(struct _lv_obj_t * obj);
  78:lvgl/lvgl/examples/anim/../../src/core/lv_obj_pos.h **** 
  79:lvgl/lvgl/examples/anim/../../src/core/lv_obj_pos.h **** /**
  80:lvgl/lvgl/examples/anim/../../src/core/lv_obj_pos.h ****  * Set the width of an object
  81:lvgl/lvgl/examples/anim/../../src/core/lv_obj_pos.h ****  * @param obj       pointer to an object
  82:lvgl/lvgl/examples/anim/../../src/core/lv_obj_pos.h ****  * @param w         the new width
  83:lvgl/lvgl/examples/anim/../../src/core/lv_obj_pos.h ****  * @note            possible values are:
  84:lvgl/lvgl/examples/anim/../../src/core/lv_obj_pos.h ****  *                  pixel               simple set the size accordingly
  85:lvgl/lvgl/examples/anim/../../src/core/lv_obj_pos.h ****  *                  LV_SIZE_CONTENT     set the size to involve all children in the given direction
ARM GAS  C:\Users\gx\AppData\Local\Temp\cckdT0ZS.s 			page 17


  86:lvgl/lvgl/examples/anim/../../src/core/lv_obj_pos.h ****  *                  lv_pct(x)           to set size in percentage of the parent's content area size
  87:lvgl/lvgl/examples/anim/../../src/core/lv_obj_pos.h ****  *                                      x should be in [0..1000]% range
  88:lvgl/lvgl/examples/anim/../../src/core/lv_obj_pos.h ****  */
  89:lvgl/lvgl/examples/anim/../../src/core/lv_obj_pos.h **** void lv_obj_set_width(struct _lv_obj_t * obj, lv_coord_t w);
  90:lvgl/lvgl/examples/anim/../../src/core/lv_obj_pos.h **** 
  91:lvgl/lvgl/examples/anim/../../src/core/lv_obj_pos.h **** /**
  92:lvgl/lvgl/examples/anim/../../src/core/lv_obj_pos.h ****  * Set the height of an object
  93:lvgl/lvgl/examples/anim/../../src/core/lv_obj_pos.h ****  * @param obj       pointer to an object
  94:lvgl/lvgl/examples/anim/../../src/core/lv_obj_pos.h ****  * @param h         the new height
  95:lvgl/lvgl/examples/anim/../../src/core/lv_obj_pos.h ****  * @note            possible values are:
  96:lvgl/lvgl/examples/anim/../../src/core/lv_obj_pos.h ****  *                  pixel               simple set the size accordingly
  97:lvgl/lvgl/examples/anim/../../src/core/lv_obj_pos.h ****  *                  LV_SIZE_CONTENT     set the size to involve all children in the given direction
  98:lvgl/lvgl/examples/anim/../../src/core/lv_obj_pos.h ****  *                  lv_pct(x)           to set size in percentage of the parent's content area size
  99:lvgl/lvgl/examples/anim/../../src/core/lv_obj_pos.h ****  *                                      x should be in [0..1000]% range
 100:lvgl/lvgl/examples/anim/../../src/core/lv_obj_pos.h ****  */
 101:lvgl/lvgl/examples/anim/../../src/core/lv_obj_pos.h **** void lv_obj_set_height(struct _lv_obj_t * obj, lv_coord_t h);
 102:lvgl/lvgl/examples/anim/../../src/core/lv_obj_pos.h **** 
 103:lvgl/lvgl/examples/anim/../../src/core/lv_obj_pos.h **** /**
 104:lvgl/lvgl/examples/anim/../../src/core/lv_obj_pos.h ****  * Set the width reduced by the left and right padding and the border width.
 105:lvgl/lvgl/examples/anim/../../src/core/lv_obj_pos.h ****  * @param obj       pointer to an object
 106:lvgl/lvgl/examples/anim/../../src/core/lv_obj_pos.h ****  * @param w         the width without paddings in pixels
 107:lvgl/lvgl/examples/anim/../../src/core/lv_obj_pos.h ****  */
 108:lvgl/lvgl/examples/anim/../../src/core/lv_obj_pos.h **** void lv_obj_set_content_width(struct _lv_obj_t * obj, lv_coord_t w);
 109:lvgl/lvgl/examples/anim/../../src/core/lv_obj_pos.h **** 
 110:lvgl/lvgl/examples/anim/../../src/core/lv_obj_pos.h **** /**
 111:lvgl/lvgl/examples/anim/../../src/core/lv_obj_pos.h ****  * Set the height reduced by the top and bottom padding and the border width.
 112:lvgl/lvgl/examples/anim/../../src/core/lv_obj_pos.h ****  * @param obj       pointer to an object
 113:lvgl/lvgl/examples/anim/../../src/core/lv_obj_pos.h ****  * @param h         the height without paddings in pixels
 114:lvgl/lvgl/examples/anim/../../src/core/lv_obj_pos.h ****  */
 115:lvgl/lvgl/examples/anim/../../src/core/lv_obj_pos.h **** void lv_obj_set_content_height(struct _lv_obj_t * obj, lv_coord_t h);
 116:lvgl/lvgl/examples/anim/../../src/core/lv_obj_pos.h **** 
 117:lvgl/lvgl/examples/anim/../../src/core/lv_obj_pos.h **** /**
 118:lvgl/lvgl/examples/anim/../../src/core/lv_obj_pos.h ****  * Set a layout for an object
 119:lvgl/lvgl/examples/anim/../../src/core/lv_obj_pos.h ****  * @param obj       pointer to an object
 120:lvgl/lvgl/examples/anim/../../src/core/lv_obj_pos.h ****  * @param layout    pointer to a layout descriptor to set
 121:lvgl/lvgl/examples/anim/../../src/core/lv_obj_pos.h ****  */
 122:lvgl/lvgl/examples/anim/../../src/core/lv_obj_pos.h **** void lv_obj_set_layout(struct _lv_obj_t * obj, uint32_t layout);
 123:lvgl/lvgl/examples/anim/../../src/core/lv_obj_pos.h **** 
 124:lvgl/lvgl/examples/anim/../../src/core/lv_obj_pos.h **** /**
 125:lvgl/lvgl/examples/anim/../../src/core/lv_obj_pos.h ****  * Test whether the and object is positioned by a layout or not
 126:lvgl/lvgl/examples/anim/../../src/core/lv_obj_pos.h ****  * @param obj       pointer to an object to test
 127:lvgl/lvgl/examples/anim/../../src/core/lv_obj_pos.h ****  * @return true:    positioned by a layout; false: not positioned by a layout
 128:lvgl/lvgl/examples/anim/../../src/core/lv_obj_pos.h ****  */
 129:lvgl/lvgl/examples/anim/../../src/core/lv_obj_pos.h **** bool lv_obj_is_layout_positioned(const struct _lv_obj_t * obj);
 130:lvgl/lvgl/examples/anim/../../src/core/lv_obj_pos.h **** 
 131:lvgl/lvgl/examples/anim/../../src/core/lv_obj_pos.h **** /**
 132:lvgl/lvgl/examples/anim/../../src/core/lv_obj_pos.h ****  * Mark the object for layout update.
 133:lvgl/lvgl/examples/anim/../../src/core/lv_obj_pos.h ****  * @param obj      pointer to an object whose children needs to be updated
 134:lvgl/lvgl/examples/anim/../../src/core/lv_obj_pos.h ****  */
 135:lvgl/lvgl/examples/anim/../../src/core/lv_obj_pos.h **** void lv_obj_mark_layout_as_dirty(struct _lv_obj_t * obj);
 136:lvgl/lvgl/examples/anim/../../src/core/lv_obj_pos.h **** 
 137:lvgl/lvgl/examples/anim/../../src/core/lv_obj_pos.h **** /**
 138:lvgl/lvgl/examples/anim/../../src/core/lv_obj_pos.h ****  * Update the layout of an object.
 139:lvgl/lvgl/examples/anim/../../src/core/lv_obj_pos.h ****  * @param obj      pointer to an object whose children needs to be updated
 140:lvgl/lvgl/examples/anim/../../src/core/lv_obj_pos.h ****  */
 141:lvgl/lvgl/examples/anim/../../src/core/lv_obj_pos.h **** void lv_obj_update_layout(const struct _lv_obj_t * obj);
 142:lvgl/lvgl/examples/anim/../../src/core/lv_obj_pos.h **** 
ARM GAS  C:\Users\gx\AppData\Local\Temp\cckdT0ZS.s 			page 18


 143:lvgl/lvgl/examples/anim/../../src/core/lv_obj_pos.h **** /**
 144:lvgl/lvgl/examples/anim/../../src/core/lv_obj_pos.h ****  * Regsiter a new layout
 145:lvgl/lvgl/examples/anim/../../src/core/lv_obj_pos.h ****  * @param cb        the layout update callback
 146:lvgl/lvgl/examples/anim/../../src/core/lv_obj_pos.h ****  * @param user_data custom data that will be passed to `cb`
 147:lvgl/lvgl/examples/anim/../../src/core/lv_obj_pos.h ****  * @return          the ID of the new layout
 148:lvgl/lvgl/examples/anim/../../src/core/lv_obj_pos.h ****  */
 149:lvgl/lvgl/examples/anim/../../src/core/lv_obj_pos.h **** uint32_t lv_layout_register(lv_layout_update_cb_t cb, void * user_data);
 150:lvgl/lvgl/examples/anim/../../src/core/lv_obj_pos.h **** 
 151:lvgl/lvgl/examples/anim/../../src/core/lv_obj_pos.h **** /**
 152:lvgl/lvgl/examples/anim/../../src/core/lv_obj_pos.h ****  * Change the alignment of an object.
 153:lvgl/lvgl/examples/anim/../../src/core/lv_obj_pos.h ****  * @param obj       pointer to an object to align
 154:lvgl/lvgl/examples/anim/../../src/core/lv_obj_pos.h ****  * @param align     type of alignment (see 'lv_align_t' enum) `LV_ALIGN_OUT_...` can't be used.
 155:lvgl/lvgl/examples/anim/../../src/core/lv_obj_pos.h ****  */
 156:lvgl/lvgl/examples/anim/../../src/core/lv_obj_pos.h **** void lv_obj_set_align(struct _lv_obj_t * obj, lv_align_t align);
 157:lvgl/lvgl/examples/anim/../../src/core/lv_obj_pos.h **** 
 158:lvgl/lvgl/examples/anim/../../src/core/lv_obj_pos.h **** /**
 159:lvgl/lvgl/examples/anim/../../src/core/lv_obj_pos.h ****  * Change the alignment of an object and set new coordinates.
 160:lvgl/lvgl/examples/anim/../../src/core/lv_obj_pos.h ****  * Equivalent to:
 161:lvgl/lvgl/examples/anim/../../src/core/lv_obj_pos.h ****  * lv_obj_set_align(obj, align);
 162:lvgl/lvgl/examples/anim/../../src/core/lv_obj_pos.h ****  * lv_obj_set_pos(obj, x_ofs, y_ofs);
 163:lvgl/lvgl/examples/anim/../../src/core/lv_obj_pos.h ****  * @param obj       pointer to an object to align
 164:lvgl/lvgl/examples/anim/../../src/core/lv_obj_pos.h ****  * @param align     type of alignment (see 'lv_align_t' enum) `LV_ALIGN_OUT_...` can't be used.
 165:lvgl/lvgl/examples/anim/../../src/core/lv_obj_pos.h ****  * @param x_ofs     x coordinate offset after alignment
 166:lvgl/lvgl/examples/anim/../../src/core/lv_obj_pos.h ****  * @param y_ofs     y coordinate offset after alignment
 167:lvgl/lvgl/examples/anim/../../src/core/lv_obj_pos.h ****  */
 168:lvgl/lvgl/examples/anim/../../src/core/lv_obj_pos.h **** void lv_obj_align(struct _lv_obj_t * obj, lv_align_t align, lv_coord_t x_ofs, lv_coord_t y_ofs);
 169:lvgl/lvgl/examples/anim/../../src/core/lv_obj_pos.h **** 
 170:lvgl/lvgl/examples/anim/../../src/core/lv_obj_pos.h **** /**
 171:lvgl/lvgl/examples/anim/../../src/core/lv_obj_pos.h ****  * Align an object to an other object.
 172:lvgl/lvgl/examples/anim/../../src/core/lv_obj_pos.h ****  * @param obj       pointer to an object to align
 173:lvgl/lvgl/examples/anim/../../src/core/lv_obj_pos.h ****  * @param base      pointer to an other object (if NULL `obj`s parent is used). 'obj' will be align
 174:lvgl/lvgl/examples/anim/../../src/core/lv_obj_pos.h ****  * @param align     type of alignment (see 'lv_align_t' enum)
 175:lvgl/lvgl/examples/anim/../../src/core/lv_obj_pos.h ****  * @param x_ofs     x coordinate offset after alignment
 176:lvgl/lvgl/examples/anim/../../src/core/lv_obj_pos.h ****  * @param y_ofs     y coordinate offset after alignment
 177:lvgl/lvgl/examples/anim/../../src/core/lv_obj_pos.h ****  * @note            if the position or size of `base` changes `obj` needs to be aligned manually ag
 178:lvgl/lvgl/examples/anim/../../src/core/lv_obj_pos.h ****  */
 179:lvgl/lvgl/examples/anim/../../src/core/lv_obj_pos.h **** void lv_obj_align_to(struct _lv_obj_t * obj, const struct _lv_obj_t * base, lv_align_t align, lv_co
 180:lvgl/lvgl/examples/anim/../../src/core/lv_obj_pos.h **** 
 181:lvgl/lvgl/examples/anim/../../src/core/lv_obj_pos.h **** /**
 182:lvgl/lvgl/examples/anim/../../src/core/lv_obj_pos.h ****  * Align an object to the center on its parent.
 183:lvgl/lvgl/examples/anim/../../src/core/lv_obj_pos.h ****  * @param obj       pointer to an object to align
 184:lvgl/lvgl/examples/anim/../../src/core/lv_obj_pos.h ****  * @note            if the parent size changes `obj` needs to be aligned manually again
 185:lvgl/lvgl/examples/anim/../../src/core/lv_obj_pos.h ****  */
 186:lvgl/lvgl/examples/anim/../../src/core/lv_obj_pos.h **** static inline void lv_obj_center(struct _lv_obj_t * obj)
 380              		.loc 4 186 20 view .LVU102
 381              	.LBB57:
 187:lvgl/lvgl/examples/anim/../../src/core/lv_obj_pos.h **** {
 188:lvgl/lvgl/examples/anim/../../src/core/lv_obj_pos.h ****     lv_obj_align(obj, LV_ALIGN_CENTER, 0, 0);
 382              		.loc 4 188 5 view .LVU103
 383 002e 0023     		movs	r3, #0
 384 0030 1A46     		mov	r2, r3
 385 0032 0921     		movs	r1, #9
 386 0034 FFF7FEFF 		bl	lv_obj_align
 387              	.LVL41:
 388              		.loc 4 188 5 is_stmt 0 view .LVU104
 389              	.LBE57:
 390              	.LBE56:
ARM GAS  C:\Users\gx\AppData\Local\Temp\cckdT0ZS.s 			page 19


  48:lvgl/lvgl/examples/anim/lv_example_anim_1.c ****     lv_obj_add_state(sw, LV_STATE_CHECKED);
 391              		.loc 1 48 5 is_stmt 1 view .LVU105
 392 0038 0121     		movs	r1, #1
 393 003a 2046     		mov	r0, r4
 394 003c FFF7FEFF 		bl	lv_obj_add_state
 395              	.LVL42:
  49:lvgl/lvgl/examples/anim/lv_example_anim_1.c ****     lv_obj_add_event_cb(sw, sw_event_cb, LV_EVENT_VALUE_CHANGED, label);
 396              		.loc 1 49 5 view .LVU106
 397 0040 2B46     		mov	r3, r5
 398 0042 1C22     		movs	r2, #28
 399 0044 0349     		ldr	r1, .L11+4
 400 0046 2046     		mov	r0, r4
 401 0048 FFF7FEFF 		bl	lv_obj_add_event_cb
 402              	.LVL43:
  50:lvgl/lvgl/examples/anim/lv_example_anim_1.c **** }
 403              		.loc 1 50 1 is_stmt 0 view .LVU107
 404 004c 38BD     		pop	{r3, r4, r5, pc}
 405              	.LVL44:
 406              	.L12:
 407              		.loc 1 50 1 view .LVU108
 408 004e 00BF     		.align	2
 409              	.L11:
 410 0050 00000000 		.word	.LC0
 411 0054 00000000 		.word	sw_event_cb
 412              		.cfi_endproc
 413              	.LFE191:
 415              		.text
 416              	.Letext0:
 417              		.file 5 "c:\\program files (x86)\\gnu arm embedded toolchain\\9 2020-q2-update\\arm-none-eabi\\inc
 418              		.file 6 "c:\\program files (x86)\\gnu arm embedded toolchain\\9 2020-q2-update\\arm-none-eabi\\inc
 419              		.file 7 "lvgl/lvgl/examples/anim/../../src/misc/lv_ll.h"
 420              		.file 8 "c:\\program files (x86)\\gnu arm embedded toolchain\\9 2020-q2-update\\lib\\gcc\\arm-none
 421              		.file 9 "c:\\program files (x86)\\gnu arm embedded toolchain\\9 2020-q2-update\\arm-none-eabi\\inc
 422              		.file 10 "c:\\program files (x86)\\gnu arm embedded toolchain\\9 2020-q2-update\\arm-none-eabi\\in
 423              		.file 11 "c:\\program files (x86)\\gnu arm embedded toolchain\\9 2020-q2-update\\arm-none-eabi\\in
 424              		.file 12 "d:\\practise\\f407_disc\\lvgl\\lvgl\\src\\misc\\lv_color.h"
 425              		.file 13 "d:\\practise\\f407_disc\\lvgl\\lvgl\\src\\misc\\lv_area.h"
 426              		.file 14 "lvgl/lvgl/examples/anim/../../src/core/lv_obj.h"
 427              		.file 15 "lvgl/lvgl/examples/anim/../../src/core/lv_group.h"
 428              		.file 16 "d:\\practise\\f407_disc\\lvgl\\lvgl\\src\\font\\lv_font.h"
 429              		.file 17 "d:\\practise\\f407_disc\\lvgl\\lvgl\\src\\misc\\lv_txt.h"
 430              		.file 18 "d:\\practise\\f407_disc\\lvgl\\lvgl\\src\\misc\\lv_style.h"
 431              		.file 19 "lvgl/lvgl/examples/anim/../../src/core/lv_obj_scroll.h"
 432              		.file 20 "lvgl/lvgl/examples/anim/../../src/core/lv_obj_style.h"
 433              		.file 21 "d:\\practise\\f407_disc\\lvgl\\lvgl\\src\\draw\\lv_draw_label.h"
 434              		.file 22 "lvgl/lvgl/examples/anim/../../src/core/lv_obj_class.h"
 435              		.file 23 "lvgl/lvgl/examples/anim/../../src/core/lv_event.h"
 436              		.file 24 "lvgl/lvgl/examples/anim/../../src/widgets/lv_arc.h"
 437              		.file 25 "lvgl/lvgl/examples/anim/../../src/widgets/lv_btn.h"
 438              		.file 26 "lvgl/lvgl/examples/anim/../../src/widgets/lv_img.h"
 439              		.file 27 "lvgl/lvgl/examples/anim/../../src/widgets/lv_label.h"
 440              		.file 28 "lvgl/lvgl/examples/anim/../../src/widgets/lv_line.h"
 441              		.file 29 "lvgl/lvgl/examples/anim/../../src/widgets/lv_table.h"
 442              		.file 30 "lvgl/lvgl/examples/anim/../../src/widgets/lv_checkbox.h"
 443              		.file 31 "lvgl/lvgl/examples/anim/../../src/widgets/lv_bar.h"
 444              		.file 32 "lvgl/lvgl/examples/anim/../../src/widgets/lv_slider.h"
 445              		.file 33 "lvgl/lvgl/examples/anim/../../src/widgets/lv_btnmatrix.h"
ARM GAS  C:\Users\gx\AppData\Local\Temp\cckdT0ZS.s 			page 20


 446              		.file 34 "lvgl/lvgl/examples/anim/../../src/widgets/lv_dropdown.h"
 447              		.file 35 "lvgl/lvgl/examples/anim/../../src/widgets/lv_roller.h"
 448              		.file 36 "lvgl/lvgl/examples/anim/../../src/widgets/lv_textarea.h"
 449              		.file 37 "lvgl/lvgl/examples/anim/../../src/widgets/lv_canvas.h"
 450              		.file 38 "lvgl/lvgl/examples/anim/../../src/widgets/lv_switch.h"
 451              		.file 39 "lvgl/lvgl/examples/anim/../../src/extra/widgets/animimg/lv_animimg.h"
 452              		.file 40 "lvgl/lvgl/examples/anim/../../src/extra/widgets/calendar/lv_calendar.h"
 453              		.file 41 "lvgl/lvgl/examples/anim/../../src/extra/widgets/calendar/lv_calendar_header_arrow.h"
 454              		.file 42 "lvgl/lvgl/examples/anim/../../src/extra/widgets/calendar/lv_calendar_header_dropdown.h"
 455              		.file 43 "lvgl/lvgl/examples/anim/../../src/extra/widgets/chart/lv_chart.h"
 456              		.file 44 "lvgl/lvgl/examples/anim/../../src/extra/widgets/keyboard/lv_keyboard.h"
 457              		.file 45 "d:\\practise\\f407_disc\\lvgl\\lvgl\\src\\extra\\layouts\\flex\\lv_flex.h"
 458              		.file 46 "lvgl/lvgl/examples/anim/../../src/extra/widgets/list/lv_list.h"
 459              		.file 47 "lvgl/lvgl/examples/anim/../../src/extra/widgets/msgbox/lv_msgbox.h"
 460              		.file 48 "lvgl/lvgl/examples/anim/../../src/extra/widgets/meter/lv_meter.h"
 461              		.file 49 "lvgl/lvgl/examples/anim/../../src/extra/widgets/spinbox/lv_spinbox.h"
 462              		.file 50 "lvgl/lvgl/examples/anim/../../src/extra/widgets/spinner/lv_spinner.h"
 463              		.file 51 "lvgl/lvgl/examples/anim/../../src/extra/widgets/tabview/lv_tabview.h"
 464              		.file 52 "lvgl/lvgl/examples/anim/../../src/extra/widgets/tileview/lv_tileview.h"
 465              		.file 53 "lvgl/lvgl/examples/anim/../../src/extra/widgets/win/lv_win.h"
 466              		.file 54 "lvgl/lvgl/examples/anim/../../src/extra/widgets/colorwheel/lv_colorwheel.h"
 467              		.file 55 "lvgl/lvgl/examples/anim/../../src/extra/widgets/led/lv_led.h"
 468              		.file 56 "lvgl/lvgl/examples/anim/../../src/extra/widgets/imgbtn/lv_imgbtn.h"
 469              		.file 57 "lvgl/lvgl/examples/anim/../../src/extra/widgets/span/lv_span.h"
 470              		.file 58 "lvgl/lvgl/examples/anim/../../src/extra/layouts/grid/lv_grid.h"
 471              		.file 59 "lvgl/lvgl/examples/anim/../../src/hal/lv_hal_disp.h"
ARM GAS  C:\Users\gx\AppData\Local\Temp\cckdT0ZS.s 			page 21

