ARM GAS  C:\Users\gx\AppData\Local\Temp\ccqPXoVr.s 			page 1


   1              		.cpu cortex-m4
   2              		.eabi_attribute 27, 1
   3              		.eabi_attribute 28, 1
   4              		.eabi_attribute 20, 1
   5              		.eabi_attribute 21, 1
   6              		.eabi_attribute 23, 3
   7              		.eabi_attribute 24, 1
   8              		.eabi_attribute 25, 1
   9              		.eabi_attribute 26, 1
  10              		.eabi_attribute 30, 1
  11              		.eabi_attribute 34, 1
  12              		.eabi_attribute 18, 4
  13              		.file	"lv_example_scroll_4.c"
  14              		.text
  15              	.Ltext0:
  16              		.cfi_sections	.debug_frame
  17              		.section	.rodata.lv_example_scroll_4.str1.4,"aMS",%progbits,1
  18              		.align	2
  19              	.LC0:
  20 0000 4C6F7265 		.ascii	"Lorem ipsum dolor sit amet, consectetur adipiscing "
  20      6D206970 
  20      73756D20 
  20      646F6C6F 
  20      72207369 
  21 0033 656C6974 		.ascii	"elit.\012Etiam dictum, tortor vestibulum lacinia la"
  21      2E0A4574 
  21      69616D20 
  21      64696374 
  21      756D2C20 
  22 0063 6F726565 		.ascii	"oreet, mi neque consectetur neque, vel mattis odio "
  22      742C206D 
  22      69206E65 
  22      71756520 
  22      636F6E73 
  23 0096 646F6C6F 		.ascii	"dolor egestas ligula. \012Sed vestibulum sapien nul"
  23      72206567 
  23      65737461 
  23      73206C69 
  23      67756C61 
  24 00c6 6C612C20 		.ascii	"la, id convallis ex porttitor nec. \012Duis et mass"
  24      69642063 
  24      6F6E7661 
  24      6C6C6973 
  24      20657820 
  25 00f6 61206575 		.ascii	"a eu libero accumsan faucibus a in arcu. \012Ut pul"
  25      206C6962 
  25      65726F20 
  25      61636375 
  25      6D73616E 
  26 0126 76696E61 		.ascii	"vinar odio lorem, vel tempus turpis condimentum qui"
  26      72206F64 
  26      696F206C 
  26      6F72656D 
  26      2C207665 
  27 0159 732E204E 		.ascii	"s. Nam consectetur condimentum sem in auctor. \012S"
  27      616D2063 
  27      6F6E7365 
ARM GAS  C:\Users\gx\AppData\Local\Temp\ccqPXoVr.s 			page 2


  27      63746574 
  27      75722063 
  28 0189 6564206E 		.ascii	"ed nisl augue, venenatis in blandit et, gravida ac "
  28      69736C20 
  28      61756775 
  28      652C2076 
  28      656E656E 
  29 01bc 746F7274 		.ascii	"tortor. \012Etiam dapibus elementum suscipit. \012P"
  29      6F722E20 
  29      0A457469 
  29      616D2064 
  29      61706962 
  30 01e9 726F696E 		.ascii	"roin mollis sollicitudin convallis. \012Integer dap"
  30      206D6F6C 
  30      6C697320 
  30      736F6C6C 
  30      69636974 
  31 0219 69627573 		.ascii	"ibus tempus arcu nec viverra. \012Donec molestie nu"
  31      2074656D 
  31      70757320 
  31      61726375 
  31      206E6563 
  32 0249 6C6C6120 		.ascii	"lla enim, eu interdum velit placerat quis. \012Done"
  32      656E696D 
  32      2C206575 
  32      20696E74 
  32      65726475 
  33 0279 63206964 		.ascii	"c id efficitur risus, at molestie turpis. \012Suspe"
  33      20656666 
  33      69636974 
  33      75722072 
  33      69737573 
  34 02a9 6E646973 		.ascii	"ndisse vestibulum consectetur nunc ut commodo. \012"
  34      73652076 
  34      65737469 
  34      62756C75 
  34      6D20636F 
  35 02d9 46757363 		.ascii	"Fusce molestie rhoncus nisi sit amet tincidunt. \012"
  35      65206D6F 
  35      6C657374 
  35      69652072 
  35      686F6E63 
  36 030a 53757370 		.ascii	"Suspendisse a nunc ut magna ornare volutpat.\000"
  36      656E6469 
  36      73736520 
  36      61206E75 
  36      6E632075 
  37              		.section	.text.lv_example_scroll_4,"ax",%progbits
  38              		.align	1
  39              		.global	lv_example_scroll_4
  40              		.arch armv7e-m
  41              		.syntax unified
  42              		.thumb
  43              		.thumb_func
  44              		.fpu fpv4-sp-d16
  46              	lv_example_scroll_4:
  47              	.LFB189:
ARM GAS  C:\Users\gx\AppData\Local\Temp\ccqPXoVr.s 			page 3


  48              		.file 1 "lvgl/lvgl/examples/scroll/lv_example_scroll_4.c"
   1:lvgl/lvgl/examples/scroll/lv_example_scroll_4.c **** #include "../lv_examples.h"
   2:lvgl/lvgl/examples/scroll/lv_example_scroll_4.c **** #if LV_BUILD_EXAMPLES && LV_USE_LIST
   3:lvgl/lvgl/examples/scroll/lv_example_scroll_4.c **** 
   4:lvgl/lvgl/examples/scroll/lv_example_scroll_4.c **** 
   5:lvgl/lvgl/examples/scroll/lv_example_scroll_4.c **** /**
   6:lvgl/lvgl/examples/scroll/lv_example_scroll_4.c ****  * Styling the scrollbars
   7:lvgl/lvgl/examples/scroll/lv_example_scroll_4.c ****  */
   8:lvgl/lvgl/examples/scroll/lv_example_scroll_4.c **** void lv_example_scroll_4(void)
   9:lvgl/lvgl/examples/scroll/lv_example_scroll_4.c **** {
  49              		.loc 1 9 1 view -0
  50              		.cfi_startproc
  51              		@ args = 0, pretend = 0, frame = 0
  52              		@ frame_needed = 0, uses_anonymous_args = 0
  53 0000 70B5     		push	{r4, r5, r6, lr}
  54              	.LCFI0:
  55              		.cfi_def_cfa_offset 16
  56              		.cfi_offset 4, -16
  57              		.cfi_offset 5, -12
  58              		.cfi_offset 6, -8
  59              		.cfi_offset 14, -4
  60 0002 82B0     		sub	sp, sp, #8
  61              	.LCFI1:
  62              		.cfi_def_cfa_offset 24
  10:lvgl/lvgl/examples/scroll/lv_example_scroll_4.c ****     lv_obj_t * obj = lv_obj_create(lv_scr_act());
  63              		.loc 1 10 5 view .LVU1
  64              	.LBB6:
  65              	.LBI6:
  66              		.file 2 "lvgl/lvgl/examples/scroll/../../src/core/lv_disp.h"
   1:lvgl/lvgl/examples/scroll/../../src/core/lv_disp.h **** /**
   2:lvgl/lvgl/examples/scroll/../../src/core/lv_disp.h ****  * @file lv_disp.h
   3:lvgl/lvgl/examples/scroll/../../src/core/lv_disp.h ****  *
   4:lvgl/lvgl/examples/scroll/../../src/core/lv_disp.h ****  */
   5:lvgl/lvgl/examples/scroll/../../src/core/lv_disp.h **** 
   6:lvgl/lvgl/examples/scroll/../../src/core/lv_disp.h **** #ifndef LV_DISP_H
   7:lvgl/lvgl/examples/scroll/../../src/core/lv_disp.h **** #define LV_DISP_H
   8:lvgl/lvgl/examples/scroll/../../src/core/lv_disp.h **** 
   9:lvgl/lvgl/examples/scroll/../../src/core/lv_disp.h **** #ifdef __cplusplus
  10:lvgl/lvgl/examples/scroll/../../src/core/lv_disp.h **** extern "C" {
  11:lvgl/lvgl/examples/scroll/../../src/core/lv_disp.h **** #endif
  12:lvgl/lvgl/examples/scroll/../../src/core/lv_disp.h **** 
  13:lvgl/lvgl/examples/scroll/../../src/core/lv_disp.h **** /*********************
  14:lvgl/lvgl/examples/scroll/../../src/core/lv_disp.h ****  *      INCLUDES
  15:lvgl/lvgl/examples/scroll/../../src/core/lv_disp.h ****  *********************/
  16:lvgl/lvgl/examples/scroll/../../src/core/lv_disp.h **** #include "../hal/lv_hal.h"
  17:lvgl/lvgl/examples/scroll/../../src/core/lv_disp.h **** #include "lv_obj.h"
  18:lvgl/lvgl/examples/scroll/../../src/core/lv_disp.h **** #include "lv_theme.h"
  19:lvgl/lvgl/examples/scroll/../../src/core/lv_disp.h **** 
  20:lvgl/lvgl/examples/scroll/../../src/core/lv_disp.h **** /*********************
  21:lvgl/lvgl/examples/scroll/../../src/core/lv_disp.h ****  *      DEFINES
  22:lvgl/lvgl/examples/scroll/../../src/core/lv_disp.h ****  *********************/
  23:lvgl/lvgl/examples/scroll/../../src/core/lv_disp.h **** 
  24:lvgl/lvgl/examples/scroll/../../src/core/lv_disp.h **** /**********************
  25:lvgl/lvgl/examples/scroll/../../src/core/lv_disp.h ****  *      TYPEDEFS
  26:lvgl/lvgl/examples/scroll/../../src/core/lv_disp.h ****  **********************/
  27:lvgl/lvgl/examples/scroll/../../src/core/lv_disp.h **** 
  28:lvgl/lvgl/examples/scroll/../../src/core/lv_disp.h **** typedef enum {
ARM GAS  C:\Users\gx\AppData\Local\Temp\ccqPXoVr.s 			page 4


  29:lvgl/lvgl/examples/scroll/../../src/core/lv_disp.h ****     LV_SCR_LOAD_ANIM_NONE,
  30:lvgl/lvgl/examples/scroll/../../src/core/lv_disp.h ****     LV_SCR_LOAD_ANIM_OVER_LEFT,
  31:lvgl/lvgl/examples/scroll/../../src/core/lv_disp.h ****     LV_SCR_LOAD_ANIM_OVER_RIGHT,
  32:lvgl/lvgl/examples/scroll/../../src/core/lv_disp.h ****     LV_SCR_LOAD_ANIM_OVER_TOP,
  33:lvgl/lvgl/examples/scroll/../../src/core/lv_disp.h ****     LV_SCR_LOAD_ANIM_OVER_BOTTOM,
  34:lvgl/lvgl/examples/scroll/../../src/core/lv_disp.h ****     LV_SCR_LOAD_ANIM_MOVE_LEFT,
  35:lvgl/lvgl/examples/scroll/../../src/core/lv_disp.h ****     LV_SCR_LOAD_ANIM_MOVE_RIGHT,
  36:lvgl/lvgl/examples/scroll/../../src/core/lv_disp.h ****     LV_SCR_LOAD_ANIM_MOVE_TOP,
  37:lvgl/lvgl/examples/scroll/../../src/core/lv_disp.h ****     LV_SCR_LOAD_ANIM_MOVE_BOTTOM,
  38:lvgl/lvgl/examples/scroll/../../src/core/lv_disp.h ****     LV_SCR_LOAD_ANIM_FADE_ON,
  39:lvgl/lvgl/examples/scroll/../../src/core/lv_disp.h **** } lv_scr_load_anim_t;
  40:lvgl/lvgl/examples/scroll/../../src/core/lv_disp.h **** 
  41:lvgl/lvgl/examples/scroll/../../src/core/lv_disp.h **** /**********************
  42:lvgl/lvgl/examples/scroll/../../src/core/lv_disp.h ****  * GLOBAL PROTOTYPES
  43:lvgl/lvgl/examples/scroll/../../src/core/lv_disp.h ****  **********************/
  44:lvgl/lvgl/examples/scroll/../../src/core/lv_disp.h **** 
  45:lvgl/lvgl/examples/scroll/../../src/core/lv_disp.h **** /**
  46:lvgl/lvgl/examples/scroll/../../src/core/lv_disp.h ****  * Return with a pointer to the active screen
  47:lvgl/lvgl/examples/scroll/../../src/core/lv_disp.h ****  * @param disp pointer to display which active screen should be get. (NULL to use the default
  48:lvgl/lvgl/examples/scroll/../../src/core/lv_disp.h ****  * screen)
  49:lvgl/lvgl/examples/scroll/../../src/core/lv_disp.h ****  * @return pointer to the active screen object (loaded by 'lv_scr_load()')
  50:lvgl/lvgl/examples/scroll/../../src/core/lv_disp.h ****  */
  51:lvgl/lvgl/examples/scroll/../../src/core/lv_disp.h **** lv_obj_t * lv_disp_get_scr_act(lv_disp_t * disp);
  52:lvgl/lvgl/examples/scroll/../../src/core/lv_disp.h **** 
  53:lvgl/lvgl/examples/scroll/../../src/core/lv_disp.h **** /**
  54:lvgl/lvgl/examples/scroll/../../src/core/lv_disp.h ****  * Return with a pointer to the previous screen. Only used during screen transitions.
  55:lvgl/lvgl/examples/scroll/../../src/core/lv_disp.h ****  * @param disp pointer to display which previous screen should be get. (NULL to use the default
  56:lvgl/lvgl/examples/scroll/../../src/core/lv_disp.h ****  * screen)
  57:lvgl/lvgl/examples/scroll/../../src/core/lv_disp.h ****  * @return pointer to the previous screen object or NULL if not used now
  58:lvgl/lvgl/examples/scroll/../../src/core/lv_disp.h ****  */
  59:lvgl/lvgl/examples/scroll/../../src/core/lv_disp.h **** lv_obj_t * lv_disp_get_scr_prev(lv_disp_t * disp);
  60:lvgl/lvgl/examples/scroll/../../src/core/lv_disp.h **** 
  61:lvgl/lvgl/examples/scroll/../../src/core/lv_disp.h **** /**
  62:lvgl/lvgl/examples/scroll/../../src/core/lv_disp.h ****  * Make a screen active
  63:lvgl/lvgl/examples/scroll/../../src/core/lv_disp.h ****  * @param scr pointer to a screen
  64:lvgl/lvgl/examples/scroll/../../src/core/lv_disp.h ****  */
  65:lvgl/lvgl/examples/scroll/../../src/core/lv_disp.h **** void lv_disp_load_scr(lv_obj_t * scr);
  66:lvgl/lvgl/examples/scroll/../../src/core/lv_disp.h **** 
  67:lvgl/lvgl/examples/scroll/../../src/core/lv_disp.h **** /**
  68:lvgl/lvgl/examples/scroll/../../src/core/lv_disp.h ****  * Return with the top layer. (Same on every screen and it is above the normal screen layer)
  69:lvgl/lvgl/examples/scroll/../../src/core/lv_disp.h ****  * @param disp pointer to display which top layer should be get. (NULL to use the default screen)
  70:lvgl/lvgl/examples/scroll/../../src/core/lv_disp.h ****  * @return pointer to the top layer object  (transparent screen sized lv_obj)
  71:lvgl/lvgl/examples/scroll/../../src/core/lv_disp.h ****  */
  72:lvgl/lvgl/examples/scroll/../../src/core/lv_disp.h **** lv_obj_t * lv_disp_get_layer_top(lv_disp_t * disp);
  73:lvgl/lvgl/examples/scroll/../../src/core/lv_disp.h **** 
  74:lvgl/lvgl/examples/scroll/../../src/core/lv_disp.h **** /**
  75:lvgl/lvgl/examples/scroll/../../src/core/lv_disp.h ****  * Return with the sys. layer. (Same on every screen and it is above the normal screen and the top
  76:lvgl/lvgl/examples/scroll/../../src/core/lv_disp.h ****  * layer)
  77:lvgl/lvgl/examples/scroll/../../src/core/lv_disp.h ****  * @param disp pointer to display which sys. layer  should be get. (NULL to use the default screen)
  78:lvgl/lvgl/examples/scroll/../../src/core/lv_disp.h ****  * @return pointer to the sys layer object  (transparent screen sized lv_obj)
  79:lvgl/lvgl/examples/scroll/../../src/core/lv_disp.h ****  */
  80:lvgl/lvgl/examples/scroll/../../src/core/lv_disp.h **** lv_obj_t * lv_disp_get_layer_sys(lv_disp_t * disp);
  81:lvgl/lvgl/examples/scroll/../../src/core/lv_disp.h **** 
  82:lvgl/lvgl/examples/scroll/../../src/core/lv_disp.h **** /**
  83:lvgl/lvgl/examples/scroll/../../src/core/lv_disp.h ****  * Get the theme of a display
  84:lvgl/lvgl/examples/scroll/../../src/core/lv_disp.h ****  * @param disp pointer to a display
  85:lvgl/lvgl/examples/scroll/../../src/core/lv_disp.h ****  * @return the display's theme (can be NULL)
ARM GAS  C:\Users\gx\AppData\Local\Temp\ccqPXoVr.s 			page 5


  86:lvgl/lvgl/examples/scroll/../../src/core/lv_disp.h ****  */
  87:lvgl/lvgl/examples/scroll/../../src/core/lv_disp.h **** void lv_disp_set_theme(lv_disp_t * disp, lv_theme_t * th);
  88:lvgl/lvgl/examples/scroll/../../src/core/lv_disp.h **** 
  89:lvgl/lvgl/examples/scroll/../../src/core/lv_disp.h **** /**
  90:lvgl/lvgl/examples/scroll/../../src/core/lv_disp.h ****  * Get the theme of a display
  91:lvgl/lvgl/examples/scroll/../../src/core/lv_disp.h ****  * @param disp pointer to a display
  92:lvgl/lvgl/examples/scroll/../../src/core/lv_disp.h ****  * @return the display's theme (can be NULL)
  93:lvgl/lvgl/examples/scroll/../../src/core/lv_disp.h ****  */
  94:lvgl/lvgl/examples/scroll/../../src/core/lv_disp.h **** lv_theme_t * lv_disp_get_theme(lv_disp_t * disp);
  95:lvgl/lvgl/examples/scroll/../../src/core/lv_disp.h **** 
  96:lvgl/lvgl/examples/scroll/../../src/core/lv_disp.h **** /**
  97:lvgl/lvgl/examples/scroll/../../src/core/lv_disp.h ****  * Set the background color of a display
  98:lvgl/lvgl/examples/scroll/../../src/core/lv_disp.h ****  * @param disp pointer to a display
  99:lvgl/lvgl/examples/scroll/../../src/core/lv_disp.h ****  * @param color color of the background
 100:lvgl/lvgl/examples/scroll/../../src/core/lv_disp.h ****  */
 101:lvgl/lvgl/examples/scroll/../../src/core/lv_disp.h **** void lv_disp_set_bg_color(lv_disp_t * disp, lv_color_t color);
 102:lvgl/lvgl/examples/scroll/../../src/core/lv_disp.h **** 
 103:lvgl/lvgl/examples/scroll/../../src/core/lv_disp.h **** /**
 104:lvgl/lvgl/examples/scroll/../../src/core/lv_disp.h ****  * Set the background image of a display
 105:lvgl/lvgl/examples/scroll/../../src/core/lv_disp.h ****  * @param disp pointer to a display
 106:lvgl/lvgl/examples/scroll/../../src/core/lv_disp.h ****  * @param img_src path to file or pointer to an `lv_img_dsc_t` variable
 107:lvgl/lvgl/examples/scroll/../../src/core/lv_disp.h ****  */
 108:lvgl/lvgl/examples/scroll/../../src/core/lv_disp.h **** void lv_disp_set_bg_image(lv_disp_t * disp, const void  * img_src);
 109:lvgl/lvgl/examples/scroll/../../src/core/lv_disp.h **** 
 110:lvgl/lvgl/examples/scroll/../../src/core/lv_disp.h **** /**
 111:lvgl/lvgl/examples/scroll/../../src/core/lv_disp.h ****  * Opacity of the background
 112:lvgl/lvgl/examples/scroll/../../src/core/lv_disp.h ****  * @param disp pointer to a display
 113:lvgl/lvgl/examples/scroll/../../src/core/lv_disp.h ****  * @param opa opacity (0..255)
 114:lvgl/lvgl/examples/scroll/../../src/core/lv_disp.h ****  */
 115:lvgl/lvgl/examples/scroll/../../src/core/lv_disp.h **** void lv_disp_set_bg_opa(lv_disp_t * disp, lv_opa_t opa);
 116:lvgl/lvgl/examples/scroll/../../src/core/lv_disp.h **** 
 117:lvgl/lvgl/examples/scroll/../../src/core/lv_disp.h **** /**
 118:lvgl/lvgl/examples/scroll/../../src/core/lv_disp.h ****  * Switch screen with animation
 119:lvgl/lvgl/examples/scroll/../../src/core/lv_disp.h ****  * @param scr pointer to the new screen to load
 120:lvgl/lvgl/examples/scroll/../../src/core/lv_disp.h ****  * @param anim_type type of the animation from `lv_scr_load_anim_t`. E.g.  `LV_SCR_LOAD_ANIM_MOVE_L
 121:lvgl/lvgl/examples/scroll/../../src/core/lv_disp.h ****  * @param time time of the animation
 122:lvgl/lvgl/examples/scroll/../../src/core/lv_disp.h ****  * @param delay delay before the transition
 123:lvgl/lvgl/examples/scroll/../../src/core/lv_disp.h ****  * @param auto_del true: automatically delete the old screen
 124:lvgl/lvgl/examples/scroll/../../src/core/lv_disp.h ****  */
 125:lvgl/lvgl/examples/scroll/../../src/core/lv_disp.h **** void lv_scr_load_anim(lv_obj_t * scr, lv_scr_load_anim_t anim_type, uint32_t time, uint32_t delay, 
 126:lvgl/lvgl/examples/scroll/../../src/core/lv_disp.h **** 
 127:lvgl/lvgl/examples/scroll/../../src/core/lv_disp.h **** /**
 128:lvgl/lvgl/examples/scroll/../../src/core/lv_disp.h ****  * Get elapsed time since last user activity on a display (e.g. click)
 129:lvgl/lvgl/examples/scroll/../../src/core/lv_disp.h ****  * @param disp pointer to an display (NULL to get the overall smallest inactivity)
 130:lvgl/lvgl/examples/scroll/../../src/core/lv_disp.h ****  * @return elapsed ticks (milliseconds) since the last activity
 131:lvgl/lvgl/examples/scroll/../../src/core/lv_disp.h ****  */
 132:lvgl/lvgl/examples/scroll/../../src/core/lv_disp.h **** uint32_t lv_disp_get_inactive_time(const lv_disp_t * disp);
 133:lvgl/lvgl/examples/scroll/../../src/core/lv_disp.h **** 
 134:lvgl/lvgl/examples/scroll/../../src/core/lv_disp.h **** /**
 135:lvgl/lvgl/examples/scroll/../../src/core/lv_disp.h ****  * Manually trigger an activity on a display
 136:lvgl/lvgl/examples/scroll/../../src/core/lv_disp.h ****  * @param disp pointer to an display (NULL to use the default display)
 137:lvgl/lvgl/examples/scroll/../../src/core/lv_disp.h ****  */
 138:lvgl/lvgl/examples/scroll/../../src/core/lv_disp.h **** void lv_disp_trig_activity(lv_disp_t * disp);
 139:lvgl/lvgl/examples/scroll/../../src/core/lv_disp.h **** 
 140:lvgl/lvgl/examples/scroll/../../src/core/lv_disp.h **** /**
 141:lvgl/lvgl/examples/scroll/../../src/core/lv_disp.h ****  * Clean any CPU cache that is related to the display.
 142:lvgl/lvgl/examples/scroll/../../src/core/lv_disp.h ****  * @param disp pointer to an display (NULL to use the default display)
ARM GAS  C:\Users\gx\AppData\Local\Temp\ccqPXoVr.s 			page 6


 143:lvgl/lvgl/examples/scroll/../../src/core/lv_disp.h ****  */
 144:lvgl/lvgl/examples/scroll/../../src/core/lv_disp.h **** void lv_disp_clean_dcache(lv_disp_t * disp);
 145:lvgl/lvgl/examples/scroll/../../src/core/lv_disp.h **** 
 146:lvgl/lvgl/examples/scroll/../../src/core/lv_disp.h **** /**
 147:lvgl/lvgl/examples/scroll/../../src/core/lv_disp.h ****  * Get a pointer to the screen refresher timer to
 148:lvgl/lvgl/examples/scroll/../../src/core/lv_disp.h ****  * modify its parameters with `lv_timer_...` functions.
 149:lvgl/lvgl/examples/scroll/../../src/core/lv_disp.h ****  * @param disp pointer to a display
 150:lvgl/lvgl/examples/scroll/../../src/core/lv_disp.h ****  * @return pointer to the display refresher timer. (NULL on error)
 151:lvgl/lvgl/examples/scroll/../../src/core/lv_disp.h ****  */
 152:lvgl/lvgl/examples/scroll/../../src/core/lv_disp.h **** lv_timer_t * _lv_disp_get_refr_timer(lv_disp_t * disp);
 153:lvgl/lvgl/examples/scroll/../../src/core/lv_disp.h **** 
 154:lvgl/lvgl/examples/scroll/../../src/core/lv_disp.h **** /*------------------------------------------------
 155:lvgl/lvgl/examples/scroll/../../src/core/lv_disp.h ****  * To improve backward compatibility
 156:lvgl/lvgl/examples/scroll/../../src/core/lv_disp.h ****  * Recommended only if you have one display
 157:lvgl/lvgl/examples/scroll/../../src/core/lv_disp.h ****  *------------------------------------------------*/
 158:lvgl/lvgl/examples/scroll/../../src/core/lv_disp.h **** 
 159:lvgl/lvgl/examples/scroll/../../src/core/lv_disp.h **** /**
 160:lvgl/lvgl/examples/scroll/../../src/core/lv_disp.h ****  * Get the active screen of the default display
 161:lvgl/lvgl/examples/scroll/../../src/core/lv_disp.h ****  * @return pointer to the active screen
 162:lvgl/lvgl/examples/scroll/../../src/core/lv_disp.h ****  */
 163:lvgl/lvgl/examples/scroll/../../src/core/lv_disp.h **** static inline lv_obj_t * lv_scr_act(void)
  67              		.loc 2 163 26 view .LVU2
  68              	.LBB7:
 164:lvgl/lvgl/examples/scroll/../../src/core/lv_disp.h **** {
 165:lvgl/lvgl/examples/scroll/../../src/core/lv_disp.h ****     return lv_disp_get_scr_act(lv_disp_get_default());
  69              		.loc 2 165 5 view .LVU3
  70              		.loc 2 165 12 is_stmt 0 view .LVU4
  71 0004 FFF7FEFF 		bl	lv_disp_get_default
  72              	.LVL0:
  73 0008 FFF7FEFF 		bl	lv_disp_get_scr_act
  74              	.LVL1:
  75              	.LBE7:
  76              	.LBE6:
  77              		.loc 1 10 22 view .LVU5
  78 000c FFF7FEFF 		bl	lv_obj_create
  79              	.LVL2:
  80 0010 0546     		mov	r5, r0
  81              	.LVL3:
  11:lvgl/lvgl/examples/scroll/lv_example_scroll_4.c ****     lv_obj_set_size(obj, 200, 100);
  82              		.loc 1 11 5 is_stmt 1 view .LVU6
  83 0012 6422     		movs	r2, #100
  84 0014 C821     		movs	r1, #200
  85 0016 FFF7FEFF 		bl	lv_obj_set_size
  86              	.LVL4:
  12:lvgl/lvgl/examples/scroll/lv_example_scroll_4.c ****     lv_obj_center(obj);
  87              		.loc 1 12 5 view .LVU7
  88              	.LBB8:
  89              	.LBI8:
  90              		.file 3 "lvgl/lvgl/examples/scroll/../../src/core/lv_obj_pos.h"
   1:lvgl/lvgl/examples/scroll/../../src/core/lv_obj_pos.h **** /**
   2:lvgl/lvgl/examples/scroll/../../src/core/lv_obj_pos.h ****  * @file lv_obj_pos.h
   3:lvgl/lvgl/examples/scroll/../../src/core/lv_obj_pos.h ****  *
   4:lvgl/lvgl/examples/scroll/../../src/core/lv_obj_pos.h ****  */
   5:lvgl/lvgl/examples/scroll/../../src/core/lv_obj_pos.h **** 
   6:lvgl/lvgl/examples/scroll/../../src/core/lv_obj_pos.h **** #ifndef LV_OBJ_POS_H
   7:lvgl/lvgl/examples/scroll/../../src/core/lv_obj_pos.h **** #define LV_OBJ_POS_H
   8:lvgl/lvgl/examples/scroll/../../src/core/lv_obj_pos.h **** 
ARM GAS  C:\Users\gx\AppData\Local\Temp\ccqPXoVr.s 			page 7


   9:lvgl/lvgl/examples/scroll/../../src/core/lv_obj_pos.h **** #ifdef __cplusplus
  10:lvgl/lvgl/examples/scroll/../../src/core/lv_obj_pos.h **** extern "C" {
  11:lvgl/lvgl/examples/scroll/../../src/core/lv_obj_pos.h **** #endif
  12:lvgl/lvgl/examples/scroll/../../src/core/lv_obj_pos.h **** 
  13:lvgl/lvgl/examples/scroll/../../src/core/lv_obj_pos.h **** /*********************
  14:lvgl/lvgl/examples/scroll/../../src/core/lv_obj_pos.h ****  *      INCLUDES
  15:lvgl/lvgl/examples/scroll/../../src/core/lv_obj_pos.h ****  *********************/
  16:lvgl/lvgl/examples/scroll/../../src/core/lv_obj_pos.h **** #include "../misc/lv_area.h"
  17:lvgl/lvgl/examples/scroll/../../src/core/lv_obj_pos.h **** 
  18:lvgl/lvgl/examples/scroll/../../src/core/lv_obj_pos.h **** /*********************
  19:lvgl/lvgl/examples/scroll/../../src/core/lv_obj_pos.h ****  *      DEFINES
  20:lvgl/lvgl/examples/scroll/../../src/core/lv_obj_pos.h ****  *********************/
  21:lvgl/lvgl/examples/scroll/../../src/core/lv_obj_pos.h **** 
  22:lvgl/lvgl/examples/scroll/../../src/core/lv_obj_pos.h **** /**********************
  23:lvgl/lvgl/examples/scroll/../../src/core/lv_obj_pos.h ****  *      TYPEDEFS
  24:lvgl/lvgl/examples/scroll/../../src/core/lv_obj_pos.h ****  **********************/
  25:lvgl/lvgl/examples/scroll/../../src/core/lv_obj_pos.h **** struct _lv_obj_t;
  26:lvgl/lvgl/examples/scroll/../../src/core/lv_obj_pos.h **** 
  27:lvgl/lvgl/examples/scroll/../../src/core/lv_obj_pos.h **** typedef void (*lv_layout_update_cb_t)(struct _lv_obj_t *, void * user_data);
  28:lvgl/lvgl/examples/scroll/../../src/core/lv_obj_pos.h **** typedef struct {
  29:lvgl/lvgl/examples/scroll/../../src/core/lv_obj_pos.h ****     lv_layout_update_cb_t cb;
  30:lvgl/lvgl/examples/scroll/../../src/core/lv_obj_pos.h ****     void * user_data;
  31:lvgl/lvgl/examples/scroll/../../src/core/lv_obj_pos.h **** }lv_layout_dsc_t;
  32:lvgl/lvgl/examples/scroll/../../src/core/lv_obj_pos.h **** 
  33:lvgl/lvgl/examples/scroll/../../src/core/lv_obj_pos.h **** /**********************
  34:lvgl/lvgl/examples/scroll/../../src/core/lv_obj_pos.h ****  * GLOBAL PROTOTYPES
  35:lvgl/lvgl/examples/scroll/../../src/core/lv_obj_pos.h ****  **********************/
  36:lvgl/lvgl/examples/scroll/../../src/core/lv_obj_pos.h **** 
  37:lvgl/lvgl/examples/scroll/../../src/core/lv_obj_pos.h **** /**
  38:lvgl/lvgl/examples/scroll/../../src/core/lv_obj_pos.h ****  * Set the relative the position of an object (relative to the parent's top left corner)
  39:lvgl/lvgl/examples/scroll/../../src/core/lv_obj_pos.h ****  * @param obj       pointer to an object
  40:lvgl/lvgl/examples/scroll/../../src/core/lv_obj_pos.h ****  * @param x         new distance from the left side of the parent plus the parent's left padding
  41:lvgl/lvgl/examples/scroll/../../src/core/lv_obj_pos.h ****  * @param y         new distance from the top side of the parent  plus the parent's right padding
  42:lvgl/lvgl/examples/scroll/../../src/core/lv_obj_pos.h ****  */
  43:lvgl/lvgl/examples/scroll/../../src/core/lv_obj_pos.h **** void lv_obj_set_pos(struct _lv_obj_t * obj, lv_coord_t x, lv_coord_t y);
  44:lvgl/lvgl/examples/scroll/../../src/core/lv_obj_pos.h **** 
  45:lvgl/lvgl/examples/scroll/../../src/core/lv_obj_pos.h **** /**
  46:lvgl/lvgl/examples/scroll/../../src/core/lv_obj_pos.h ****  * Set the x coordinate of a object
  47:lvgl/lvgl/examples/scroll/../../src/core/lv_obj_pos.h ****  * @param obj       pointer to an object
  48:lvgl/lvgl/examples/scroll/../../src/core/lv_obj_pos.h ****  * @param x         new distance from the left side from the parent plus the parent's left padding
  49:lvgl/lvgl/examples/scroll/../../src/core/lv_obj_pos.h ****  */
  50:lvgl/lvgl/examples/scroll/../../src/core/lv_obj_pos.h **** void lv_obj_set_x(struct _lv_obj_t * obj, lv_coord_t x);
  51:lvgl/lvgl/examples/scroll/../../src/core/lv_obj_pos.h **** 
  52:lvgl/lvgl/examples/scroll/../../src/core/lv_obj_pos.h **** /**
  53:lvgl/lvgl/examples/scroll/../../src/core/lv_obj_pos.h ****  * Set the y coordinate of a object
  54:lvgl/lvgl/examples/scroll/../../src/core/lv_obj_pos.h ****  * @param obj       pointer to an object
  55:lvgl/lvgl/examples/scroll/../../src/core/lv_obj_pos.h ****  * @param y         new distance from the top of the parent  plus the parent's top padding
  56:lvgl/lvgl/examples/scroll/../../src/core/lv_obj_pos.h ****  */
  57:lvgl/lvgl/examples/scroll/../../src/core/lv_obj_pos.h **** void lv_obj_set_y(struct _lv_obj_t * obj, lv_coord_t y);
  58:lvgl/lvgl/examples/scroll/../../src/core/lv_obj_pos.h **** 
  59:lvgl/lvgl/examples/scroll/../../src/core/lv_obj_pos.h **** /**
  60:lvgl/lvgl/examples/scroll/../../src/core/lv_obj_pos.h ****  * Set the size of an object.
  61:lvgl/lvgl/examples/scroll/../../src/core/lv_obj_pos.h ****  * @param obj       pointer to an object
  62:lvgl/lvgl/examples/scroll/../../src/core/lv_obj_pos.h ****  * @param w         the new width
  63:lvgl/lvgl/examples/scroll/../../src/core/lv_obj_pos.h ****  * @param h         the new height
  64:lvgl/lvgl/examples/scroll/../../src/core/lv_obj_pos.h ****  * @note            possible values are:
  65:lvgl/lvgl/examples/scroll/../../src/core/lv_obj_pos.h ****  *                  pixel               simple set the size accordingly
ARM GAS  C:\Users\gx\AppData\Local\Temp\ccqPXoVr.s 			page 8


  66:lvgl/lvgl/examples/scroll/../../src/core/lv_obj_pos.h ****  *                  LV_SIZE_CONTENT     set the size to involve all children in the given direction
  67:lvgl/lvgl/examples/scroll/../../src/core/lv_obj_pos.h ****  *                  LV_SIZE_PCT(x)     to set size in percentage of the parent's content area size 
  68:lvgl/lvgl/examples/scroll/../../src/core/lv_obj_pos.h ****  *                                      x should be in [0..1000]% range
  69:lvgl/lvgl/examples/scroll/../../src/core/lv_obj_pos.h ****  */
  70:lvgl/lvgl/examples/scroll/../../src/core/lv_obj_pos.h **** void lv_obj_set_size(struct _lv_obj_t * obj, lv_coord_t w, lv_coord_t h);
  71:lvgl/lvgl/examples/scroll/../../src/core/lv_obj_pos.h **** 
  72:lvgl/lvgl/examples/scroll/../../src/core/lv_obj_pos.h **** /**
  73:lvgl/lvgl/examples/scroll/../../src/core/lv_obj_pos.h ****  * Recalculate the size of the object
  74:lvgl/lvgl/examples/scroll/../../src/core/lv_obj_pos.h ****  * @param obj       pointer to an object
  75:lvgl/lvgl/examples/scroll/../../src/core/lv_obj_pos.h ****  * @return          true: the size has been changed
  76:lvgl/lvgl/examples/scroll/../../src/core/lv_obj_pos.h ****  */
  77:lvgl/lvgl/examples/scroll/../../src/core/lv_obj_pos.h **** bool lv_obj_refr_size(struct _lv_obj_t * obj);
  78:lvgl/lvgl/examples/scroll/../../src/core/lv_obj_pos.h **** 
  79:lvgl/lvgl/examples/scroll/../../src/core/lv_obj_pos.h **** /**
  80:lvgl/lvgl/examples/scroll/../../src/core/lv_obj_pos.h ****  * Set the width of an object
  81:lvgl/lvgl/examples/scroll/../../src/core/lv_obj_pos.h ****  * @param obj       pointer to an object
  82:lvgl/lvgl/examples/scroll/../../src/core/lv_obj_pos.h ****  * @param w         the new width
  83:lvgl/lvgl/examples/scroll/../../src/core/lv_obj_pos.h ****  * @note            possible values are:
  84:lvgl/lvgl/examples/scroll/../../src/core/lv_obj_pos.h ****  *                  pixel               simple set the size accordingly
  85:lvgl/lvgl/examples/scroll/../../src/core/lv_obj_pos.h ****  *                  LV_SIZE_CONTENT     set the size to involve all children in the given direction
  86:lvgl/lvgl/examples/scroll/../../src/core/lv_obj_pos.h ****  *                  lv_pct(x)           to set size in percentage of the parent's content area size
  87:lvgl/lvgl/examples/scroll/../../src/core/lv_obj_pos.h ****  *                                      x should be in [0..1000]% range
  88:lvgl/lvgl/examples/scroll/../../src/core/lv_obj_pos.h ****  */
  89:lvgl/lvgl/examples/scroll/../../src/core/lv_obj_pos.h **** void lv_obj_set_width(struct _lv_obj_t * obj, lv_coord_t w);
  90:lvgl/lvgl/examples/scroll/../../src/core/lv_obj_pos.h **** 
  91:lvgl/lvgl/examples/scroll/../../src/core/lv_obj_pos.h **** /**
  92:lvgl/lvgl/examples/scroll/../../src/core/lv_obj_pos.h ****  * Set the height of an object
  93:lvgl/lvgl/examples/scroll/../../src/core/lv_obj_pos.h ****  * @param obj       pointer to an object
  94:lvgl/lvgl/examples/scroll/../../src/core/lv_obj_pos.h ****  * @param h         the new height
  95:lvgl/lvgl/examples/scroll/../../src/core/lv_obj_pos.h ****  * @note            possible values are:
  96:lvgl/lvgl/examples/scroll/../../src/core/lv_obj_pos.h ****  *                  pixel               simple set the size accordingly
  97:lvgl/lvgl/examples/scroll/../../src/core/lv_obj_pos.h ****  *                  LV_SIZE_CONTENT     set the size to involve all children in the given direction
  98:lvgl/lvgl/examples/scroll/../../src/core/lv_obj_pos.h ****  *                  lv_pct(x)           to set size in percentage of the parent's content area size
  99:lvgl/lvgl/examples/scroll/../../src/core/lv_obj_pos.h ****  *                                      x should be in [0..1000]% range
 100:lvgl/lvgl/examples/scroll/../../src/core/lv_obj_pos.h ****  */
 101:lvgl/lvgl/examples/scroll/../../src/core/lv_obj_pos.h **** void lv_obj_set_height(struct _lv_obj_t * obj, lv_coord_t h);
 102:lvgl/lvgl/examples/scroll/../../src/core/lv_obj_pos.h **** 
 103:lvgl/lvgl/examples/scroll/../../src/core/lv_obj_pos.h **** /**
 104:lvgl/lvgl/examples/scroll/../../src/core/lv_obj_pos.h ****  * Set the width reduced by the left and right padding and the border width.
 105:lvgl/lvgl/examples/scroll/../../src/core/lv_obj_pos.h ****  * @param obj       pointer to an object
 106:lvgl/lvgl/examples/scroll/../../src/core/lv_obj_pos.h ****  * @param w         the width without paddings in pixels
 107:lvgl/lvgl/examples/scroll/../../src/core/lv_obj_pos.h ****  */
 108:lvgl/lvgl/examples/scroll/../../src/core/lv_obj_pos.h **** void lv_obj_set_content_width(struct _lv_obj_t * obj, lv_coord_t w);
 109:lvgl/lvgl/examples/scroll/../../src/core/lv_obj_pos.h **** 
 110:lvgl/lvgl/examples/scroll/../../src/core/lv_obj_pos.h **** /**
 111:lvgl/lvgl/examples/scroll/../../src/core/lv_obj_pos.h ****  * Set the height reduced by the top and bottom padding and the border width.
 112:lvgl/lvgl/examples/scroll/../../src/core/lv_obj_pos.h ****  * @param obj       pointer to an object
 113:lvgl/lvgl/examples/scroll/../../src/core/lv_obj_pos.h ****  * @param h         the height without paddings in pixels
 114:lvgl/lvgl/examples/scroll/../../src/core/lv_obj_pos.h ****  */
 115:lvgl/lvgl/examples/scroll/../../src/core/lv_obj_pos.h **** void lv_obj_set_content_height(struct _lv_obj_t * obj, lv_coord_t h);
 116:lvgl/lvgl/examples/scroll/../../src/core/lv_obj_pos.h **** 
 117:lvgl/lvgl/examples/scroll/../../src/core/lv_obj_pos.h **** /**
 118:lvgl/lvgl/examples/scroll/../../src/core/lv_obj_pos.h ****  * Set a layout for an object
 119:lvgl/lvgl/examples/scroll/../../src/core/lv_obj_pos.h ****  * @param obj       pointer to an object
 120:lvgl/lvgl/examples/scroll/../../src/core/lv_obj_pos.h ****  * @param layout    pointer to a layout descriptor to set
 121:lvgl/lvgl/examples/scroll/../../src/core/lv_obj_pos.h ****  */
 122:lvgl/lvgl/examples/scroll/../../src/core/lv_obj_pos.h **** void lv_obj_set_layout(struct _lv_obj_t * obj, uint32_t layout);
ARM GAS  C:\Users\gx\AppData\Local\Temp\ccqPXoVr.s 			page 9


 123:lvgl/lvgl/examples/scroll/../../src/core/lv_obj_pos.h **** 
 124:lvgl/lvgl/examples/scroll/../../src/core/lv_obj_pos.h **** /**
 125:lvgl/lvgl/examples/scroll/../../src/core/lv_obj_pos.h ****  * Test whether the and object is positioned by a layout or not
 126:lvgl/lvgl/examples/scroll/../../src/core/lv_obj_pos.h ****  * @param obj       pointer to an object to test
 127:lvgl/lvgl/examples/scroll/../../src/core/lv_obj_pos.h ****  * @return true:    positioned by a layout; false: not positioned by a layout
 128:lvgl/lvgl/examples/scroll/../../src/core/lv_obj_pos.h ****  */
 129:lvgl/lvgl/examples/scroll/../../src/core/lv_obj_pos.h **** bool lv_obj_is_layout_positioned(const struct _lv_obj_t * obj);
 130:lvgl/lvgl/examples/scroll/../../src/core/lv_obj_pos.h **** 
 131:lvgl/lvgl/examples/scroll/../../src/core/lv_obj_pos.h **** /**
 132:lvgl/lvgl/examples/scroll/../../src/core/lv_obj_pos.h ****  * Mark the object for layout update.
 133:lvgl/lvgl/examples/scroll/../../src/core/lv_obj_pos.h ****  * @param obj      pointer to an object whose children needs to be updated
 134:lvgl/lvgl/examples/scroll/../../src/core/lv_obj_pos.h ****  */
 135:lvgl/lvgl/examples/scroll/../../src/core/lv_obj_pos.h **** void lv_obj_mark_layout_as_dirty(struct _lv_obj_t * obj);
 136:lvgl/lvgl/examples/scroll/../../src/core/lv_obj_pos.h **** 
 137:lvgl/lvgl/examples/scroll/../../src/core/lv_obj_pos.h **** /**
 138:lvgl/lvgl/examples/scroll/../../src/core/lv_obj_pos.h ****  * Update the layout of an object.
 139:lvgl/lvgl/examples/scroll/../../src/core/lv_obj_pos.h ****  * @param obj      pointer to an object whose children needs to be updated
 140:lvgl/lvgl/examples/scroll/../../src/core/lv_obj_pos.h ****  */
 141:lvgl/lvgl/examples/scroll/../../src/core/lv_obj_pos.h **** void lv_obj_update_layout(const struct _lv_obj_t * obj);
 142:lvgl/lvgl/examples/scroll/../../src/core/lv_obj_pos.h **** 
 143:lvgl/lvgl/examples/scroll/../../src/core/lv_obj_pos.h **** /**
 144:lvgl/lvgl/examples/scroll/../../src/core/lv_obj_pos.h ****  * Regsiter a new layout
 145:lvgl/lvgl/examples/scroll/../../src/core/lv_obj_pos.h ****  * @param cb        the layout update callback
 146:lvgl/lvgl/examples/scroll/../../src/core/lv_obj_pos.h ****  * @param user_data custom data that will be passed to `cb`
 147:lvgl/lvgl/examples/scroll/../../src/core/lv_obj_pos.h ****  * @return          the ID of the new layout
 148:lvgl/lvgl/examples/scroll/../../src/core/lv_obj_pos.h ****  */
 149:lvgl/lvgl/examples/scroll/../../src/core/lv_obj_pos.h **** uint32_t lv_layout_register(lv_layout_update_cb_t cb, void * user_data);
 150:lvgl/lvgl/examples/scroll/../../src/core/lv_obj_pos.h **** 
 151:lvgl/lvgl/examples/scroll/../../src/core/lv_obj_pos.h **** /**
 152:lvgl/lvgl/examples/scroll/../../src/core/lv_obj_pos.h ****  * Change the alignment of an object.
 153:lvgl/lvgl/examples/scroll/../../src/core/lv_obj_pos.h ****  * @param obj       pointer to an object to align
 154:lvgl/lvgl/examples/scroll/../../src/core/lv_obj_pos.h ****  * @param align     type of alignment (see 'lv_align_t' enum) `LV_ALIGN_OUT_...` can't be used.
 155:lvgl/lvgl/examples/scroll/../../src/core/lv_obj_pos.h ****  */
 156:lvgl/lvgl/examples/scroll/../../src/core/lv_obj_pos.h **** void lv_obj_set_align(struct _lv_obj_t * obj, lv_align_t align);
 157:lvgl/lvgl/examples/scroll/../../src/core/lv_obj_pos.h **** 
 158:lvgl/lvgl/examples/scroll/../../src/core/lv_obj_pos.h **** /**
 159:lvgl/lvgl/examples/scroll/../../src/core/lv_obj_pos.h ****  * Change the alignment of an object and set new coordinates.
 160:lvgl/lvgl/examples/scroll/../../src/core/lv_obj_pos.h ****  * Equivalent to:
 161:lvgl/lvgl/examples/scroll/../../src/core/lv_obj_pos.h ****  * lv_obj_set_align(obj, align);
 162:lvgl/lvgl/examples/scroll/../../src/core/lv_obj_pos.h ****  * lv_obj_set_pos(obj, x_ofs, y_ofs);
 163:lvgl/lvgl/examples/scroll/../../src/core/lv_obj_pos.h ****  * @param obj       pointer to an object to align
 164:lvgl/lvgl/examples/scroll/../../src/core/lv_obj_pos.h ****  * @param align     type of alignment (see 'lv_align_t' enum) `LV_ALIGN_OUT_...` can't be used.
 165:lvgl/lvgl/examples/scroll/../../src/core/lv_obj_pos.h ****  * @param x_ofs     x coordinate offset after alignment
 166:lvgl/lvgl/examples/scroll/../../src/core/lv_obj_pos.h ****  * @param y_ofs     y coordinate offset after alignment
 167:lvgl/lvgl/examples/scroll/../../src/core/lv_obj_pos.h ****  */
 168:lvgl/lvgl/examples/scroll/../../src/core/lv_obj_pos.h **** void lv_obj_align(struct _lv_obj_t * obj, lv_align_t align, lv_coord_t x_ofs, lv_coord_t y_ofs);
 169:lvgl/lvgl/examples/scroll/../../src/core/lv_obj_pos.h **** 
 170:lvgl/lvgl/examples/scroll/../../src/core/lv_obj_pos.h **** /**
 171:lvgl/lvgl/examples/scroll/../../src/core/lv_obj_pos.h ****  * Align an object to an other object.
 172:lvgl/lvgl/examples/scroll/../../src/core/lv_obj_pos.h ****  * @param obj       pointer to an object to align
 173:lvgl/lvgl/examples/scroll/../../src/core/lv_obj_pos.h ****  * @param base      pointer to an other object (if NULL `obj`s parent is used). 'obj' will be align
 174:lvgl/lvgl/examples/scroll/../../src/core/lv_obj_pos.h ****  * @param align     type of alignment (see 'lv_align_t' enum)
 175:lvgl/lvgl/examples/scroll/../../src/core/lv_obj_pos.h ****  * @param x_ofs     x coordinate offset after alignment
 176:lvgl/lvgl/examples/scroll/../../src/core/lv_obj_pos.h ****  * @param y_ofs     y coordinate offset after alignment
 177:lvgl/lvgl/examples/scroll/../../src/core/lv_obj_pos.h ****  * @note            if the position or size of `base` changes `obj` needs to be aligned manually ag
 178:lvgl/lvgl/examples/scroll/../../src/core/lv_obj_pos.h ****  */
 179:lvgl/lvgl/examples/scroll/../../src/core/lv_obj_pos.h **** void lv_obj_align_to(struct _lv_obj_t * obj, const struct _lv_obj_t * base, lv_align_t align, lv_co
ARM GAS  C:\Users\gx\AppData\Local\Temp\ccqPXoVr.s 			page 10


 180:lvgl/lvgl/examples/scroll/../../src/core/lv_obj_pos.h **** 
 181:lvgl/lvgl/examples/scroll/../../src/core/lv_obj_pos.h **** /**
 182:lvgl/lvgl/examples/scroll/../../src/core/lv_obj_pos.h ****  * Align an object to the center on its parent.
 183:lvgl/lvgl/examples/scroll/../../src/core/lv_obj_pos.h ****  * @param obj       pointer to an object to align
 184:lvgl/lvgl/examples/scroll/../../src/core/lv_obj_pos.h ****  * @note            if the parent size changes `obj` needs to be aligned manually again
 185:lvgl/lvgl/examples/scroll/../../src/core/lv_obj_pos.h ****  */
 186:lvgl/lvgl/examples/scroll/../../src/core/lv_obj_pos.h **** static inline void lv_obj_center(struct _lv_obj_t * obj)
  91              		.loc 3 186 20 view .LVU8
  92              	.LBB9:
 187:lvgl/lvgl/examples/scroll/../../src/core/lv_obj_pos.h **** {
 188:lvgl/lvgl/examples/scroll/../../src/core/lv_obj_pos.h ****     lv_obj_align(obj, LV_ALIGN_CENTER, 0, 0);
  93              		.loc 3 188 5 view .LVU9
  94 001a 0023     		movs	r3, #0
  95 001c 1A46     		mov	r2, r3
  96 001e 0921     		movs	r1, #9
  97 0020 2846     		mov	r0, r5
  98 0022 FFF7FEFF 		bl	lv_obj_align
  99              	.LVL5:
 100              		.loc 3 188 5 is_stmt 0 view .LVU10
 101              	.LBE9:
 102              	.LBE8:
  13:lvgl/lvgl/examples/scroll/lv_example_scroll_4.c **** 
  14:lvgl/lvgl/examples/scroll/lv_example_scroll_4.c ****     lv_obj_t * label = lv_label_create(obj);
 103              		.loc 1 14 5 is_stmt 1 view .LVU11
 104              		.loc 1 14 24 is_stmt 0 view .LVU12
 105 0026 2846     		mov	r0, r5
 106 0028 FFF7FEFF 		bl	lv_label_create
 107              	.LVL6:
  15:lvgl/lvgl/examples/scroll/lv_example_scroll_4.c ****     lv_label_set_text(label,
 108              		.loc 1 15 5 is_stmt 1 view .LVU13
 109 002c 3449     		ldr	r1, .L3
 110 002e FFF7FEFF 		bl	lv_label_set_text
 111              	.LVL7:
  16:lvgl/lvgl/examples/scroll/lv_example_scroll_4.c ****             "Lorem ipsum dolor sit amet, consectetur adipiscing elit.\n"
  17:lvgl/lvgl/examples/scroll/lv_example_scroll_4.c ****             "Etiam dictum, tortor vestibulum lacinia laoreet, mi neque consectetur neque, vel matti
  18:lvgl/lvgl/examples/scroll/lv_example_scroll_4.c ****             "Sed vestibulum sapien nulla, id convallis ex porttitor nec. \n"
  19:lvgl/lvgl/examples/scroll/lv_example_scroll_4.c ****             "Duis et massa eu libero accumsan faucibus a in arcu. \n"
  20:lvgl/lvgl/examples/scroll/lv_example_scroll_4.c ****             "Ut pulvinar odio lorem, vel tempus turpis condimentum quis. Nam consectetur condimentu
  21:lvgl/lvgl/examples/scroll/lv_example_scroll_4.c ****             "Sed nisl augue, venenatis in blandit et, gravida ac tortor. \n"
  22:lvgl/lvgl/examples/scroll/lv_example_scroll_4.c ****             "Etiam dapibus elementum suscipit. \n"
  23:lvgl/lvgl/examples/scroll/lv_example_scroll_4.c ****             "Proin mollis sollicitudin convallis. \n"
  24:lvgl/lvgl/examples/scroll/lv_example_scroll_4.c ****             "Integer dapibus tempus arcu nec viverra. \n"
  25:lvgl/lvgl/examples/scroll/lv_example_scroll_4.c ****             "Donec molestie nulla enim, eu interdum velit placerat quis. \n"
  26:lvgl/lvgl/examples/scroll/lv_example_scroll_4.c ****             "Donec id efficitur risus, at molestie turpis. \n"
  27:lvgl/lvgl/examples/scroll/lv_example_scroll_4.c ****             "Suspendisse vestibulum consectetur nunc ut commodo. \n"
  28:lvgl/lvgl/examples/scroll/lv_example_scroll_4.c ****             "Fusce molestie rhoncus nisi sit amet tincidunt. \n"
  29:lvgl/lvgl/examples/scroll/lv_example_scroll_4.c ****             "Suspendisse a nunc ut magna ornare volutpat.");
  30:lvgl/lvgl/examples/scroll/lv_example_scroll_4.c **** 
  31:lvgl/lvgl/examples/scroll/lv_example_scroll_4.c **** 
  32:lvgl/lvgl/examples/scroll/lv_example_scroll_4.c ****     /*Remove the style of scrollbar to have clean start*/
  33:lvgl/lvgl/examples/scroll/lv_example_scroll_4.c ****     lv_obj_remove_style(obj, NULL, LV_PART_SCROLLBAR | LV_STATE_ANY);
 112              		.loc 1 33 5 view .LVU14
 113 0032 344A     		ldr	r2, .L3+4
 114 0034 0021     		movs	r1, #0
 115 0036 2846     		mov	r0, r5
 116 0038 FFF7FEFF 		bl	lv_obj_remove_style
 117              	.LVL8:
ARM GAS  C:\Users\gx\AppData\Local\Temp\ccqPXoVr.s 			page 11


  34:lvgl/lvgl/examples/scroll/lv_example_scroll_4.c **** 
  35:lvgl/lvgl/examples/scroll/lv_example_scroll_4.c ****     /*Create a transition the animate the some properties on state change*/
  36:lvgl/lvgl/examples/scroll/lv_example_scroll_4.c ****     static const lv_style_prop_t props[] = {LV_STYLE_BG_OPA, LV_STYLE_WIDTH, 0};
 118              		.loc 1 36 5 view .LVU15
  37:lvgl/lvgl/examples/scroll/lv_example_scroll_4.c ****     static lv_style_transition_dsc_t trans;
 119              		.loc 1 37 5 view .LVU16
  38:lvgl/lvgl/examples/scroll/lv_example_scroll_4.c ****     lv_style_transition_dsc_init(&trans, props, lv_anim_path_linear, 200, 0, NULL);
 120              		.loc 1 38 5 view .LVU17
 121 003c 324E     		ldr	r6, .L3+8
 122 003e 0023     		movs	r3, #0
 123 0040 0193     		str	r3, [sp, #4]
 124 0042 0093     		str	r3, [sp]
 125 0044 C823     		movs	r3, #200
 126 0046 314A     		ldr	r2, .L3+12
 127 0048 3149     		ldr	r1, .L3+16
 128 004a 3046     		mov	r0, r6
 129 004c FFF7FEFF 		bl	lv_style_transition_dsc_init
 130              	.LVL9:
  39:lvgl/lvgl/examples/scroll/lv_example_scroll_4.c **** 
  40:lvgl/lvgl/examples/scroll/lv_example_scroll_4.c ****     /*Create a style for the scrollbars*/
  41:lvgl/lvgl/examples/scroll/lv_example_scroll_4.c ****     static lv_style_t style;
 131              		.loc 1 41 5 view .LVU18
  42:lvgl/lvgl/examples/scroll/lv_example_scroll_4.c ****     lv_style_init(&style);
 132              		.loc 1 42 5 view .LVU19
 133 0050 304C     		ldr	r4, .L3+20
 134 0052 2046     		mov	r0, r4
 135 0054 FFF7FEFF 		bl	lv_style_init
 136              	.LVL10:
  43:lvgl/lvgl/examples/scroll/lv_example_scroll_4.c ****     lv_style_set_width(&style, 4);      /*Width of the scrollbar*/
 137              		.loc 1 43 5 view .LVU20
 138 0058 0421     		movs	r1, #4
 139 005a 2046     		mov	r0, r4
 140 005c FFF7FEFF 		bl	lv_style_set_width
 141              	.LVL11:
  44:lvgl/lvgl/examples/scroll/lv_example_scroll_4.c ****     lv_style_set_pad_right(&style, 5);  /*Space from the parallel side*/
 142              		.loc 1 44 5 view .LVU21
 143 0060 0521     		movs	r1, #5
 144 0062 2046     		mov	r0, r4
 145 0064 FFF7FEFF 		bl	lv_style_set_pad_right
 146              	.LVL12:
  45:lvgl/lvgl/examples/scroll/lv_example_scroll_4.c ****     lv_style_set_pad_top(&style, 5);    /*Space from the perpendicular side*/
 147              		.loc 1 45 5 view .LVU22
 148 0068 0521     		movs	r1, #5
 149 006a 2046     		mov	r0, r4
 150 006c FFF7FEFF 		bl	lv_style_set_pad_top
 151              	.LVL13:
  46:lvgl/lvgl/examples/scroll/lv_example_scroll_4.c **** 
  47:lvgl/lvgl/examples/scroll/lv_example_scroll_4.c ****     lv_style_set_radius(&style, 2);
 152              		.loc 1 47 5 view .LVU23
 153 0070 0221     		movs	r1, #2
 154 0072 2046     		mov	r0, r4
 155 0074 FFF7FEFF 		bl	lv_style_set_radius
 156              	.LVL14:
  48:lvgl/lvgl/examples/scroll/lv_example_scroll_4.c ****     lv_style_set_bg_opa(&style, LV_OPA_70);
 157              		.loc 1 48 5 view .LVU24
 158 0078 B221     		movs	r1, #178
 159 007a 2046     		mov	r0, r4
ARM GAS  C:\Users\gx\AppData\Local\Temp\ccqPXoVr.s 			page 12


 160 007c FFF7FEFF 		bl	lv_style_set_bg_opa
 161              	.LVL15:
  49:lvgl/lvgl/examples/scroll/lv_example_scroll_4.c ****     lv_style_set_bg_color(&style, lv_palette_main(LV_PALETTE_BLUE));
 162              		.loc 1 49 5 view .LVU25
 163 0080 0520     		movs	r0, #5
 164 0082 FFF7FEFF 		bl	lv_palette_main
 165              	.LVL16:
 166 0086 0146     		mov	r1, r0	@ movhi
 167 0088 2046     		mov	r0, r4
 168 008a FFF7FEFF 		bl	lv_style_set_bg_color
 169              	.LVL17:
  50:lvgl/lvgl/examples/scroll/lv_example_scroll_4.c ****     lv_style_set_border_color(&style, lv_palette_darken(LV_PALETTE_BLUE, 3));
 170              		.loc 1 50 5 view .LVU26
 171 008e 0321     		movs	r1, #3
 172 0090 0520     		movs	r0, #5
 173 0092 FFF7FEFF 		bl	lv_palette_darken
 174              	.LVL18:
 175 0096 0146     		mov	r1, r0	@ movhi
 176 0098 2046     		mov	r0, r4
 177 009a FFF7FEFF 		bl	lv_style_set_border_color
 178              	.LVL19:
  51:lvgl/lvgl/examples/scroll/lv_example_scroll_4.c ****     lv_style_set_border_width(&style, 2);
 179              		.loc 1 51 5 view .LVU27
 180 009e 0221     		movs	r1, #2
 181 00a0 2046     		mov	r0, r4
 182 00a2 FFF7FEFF 		bl	lv_style_set_border_width
 183              	.LVL20:
  52:lvgl/lvgl/examples/scroll/lv_example_scroll_4.c ****     lv_style_set_shadow_width(&style, 8);
 184              		.loc 1 52 5 view .LVU28
 185 00a6 0821     		movs	r1, #8
 186 00a8 2046     		mov	r0, r4
 187 00aa FFF7FEFF 		bl	lv_style_set_shadow_width
 188              	.LVL21:
  53:lvgl/lvgl/examples/scroll/lv_example_scroll_4.c ****     lv_style_set_shadow_spread(&style, 2);
 189              		.loc 1 53 5 view .LVU29
 190 00ae 0221     		movs	r1, #2
 191 00b0 2046     		mov	r0, r4
 192 00b2 FFF7FEFF 		bl	lv_style_set_shadow_spread
 193              	.LVL22:
  54:lvgl/lvgl/examples/scroll/lv_example_scroll_4.c ****     lv_style_set_shadow_color(&style, lv_palette_darken(LV_PALETTE_BLUE, 1));
 194              		.loc 1 54 5 view .LVU30
 195 00b6 0121     		movs	r1, #1
 196 00b8 0520     		movs	r0, #5
 197 00ba FFF7FEFF 		bl	lv_palette_darken
 198              	.LVL23:
 199 00be 0146     		mov	r1, r0	@ movhi
 200 00c0 2046     		mov	r0, r4
 201 00c2 FFF7FEFF 		bl	lv_style_set_shadow_color
 202              	.LVL24:
  55:lvgl/lvgl/examples/scroll/lv_example_scroll_4.c **** 
  56:lvgl/lvgl/examples/scroll/lv_example_scroll_4.c ****     lv_style_set_transition(&style, &trans);
 203              		.loc 1 56 5 view .LVU31
 204 00c6 3146     		mov	r1, r6
 205 00c8 2046     		mov	r0, r4
 206 00ca FFF7FEFF 		bl	lv_style_set_transition
 207              	.LVL25:
  57:lvgl/lvgl/examples/scroll/lv_example_scroll_4.c **** 
ARM GAS  C:\Users\gx\AppData\Local\Temp\ccqPXoVr.s 			page 13


  58:lvgl/lvgl/examples/scroll/lv_example_scroll_4.c ****     /*Make the scrollbars wider and use 100% opacity when scrolled*/
  59:lvgl/lvgl/examples/scroll/lv_example_scroll_4.c ****     static lv_style_t style_scrolled;
 208              		.loc 1 59 5 view .LVU32
  60:lvgl/lvgl/examples/scroll/lv_example_scroll_4.c ****     lv_style_init(&style_scrolled);
 209              		.loc 1 60 5 view .LVU33
 210 00ce 124E     		ldr	r6, .L3+24
 211 00d0 3046     		mov	r0, r6
 212 00d2 FFF7FEFF 		bl	lv_style_init
 213              	.LVL26:
  61:lvgl/lvgl/examples/scroll/lv_example_scroll_4.c ****     lv_style_set_width(&style_scrolled, 8);
 214              		.loc 1 61 5 view .LVU34
 215 00d6 0821     		movs	r1, #8
 216 00d8 3046     		mov	r0, r6
 217 00da FFF7FEFF 		bl	lv_style_set_width
 218              	.LVL27:
  62:lvgl/lvgl/examples/scroll/lv_example_scroll_4.c ****     lv_style_set_bg_opa(&style_scrolled, LV_OPA_COVER);
 219              		.loc 1 62 5 view .LVU35
 220 00de FF21     		movs	r1, #255
 221 00e0 3046     		mov	r0, r6
 222 00e2 FFF7FEFF 		bl	lv_style_set_bg_opa
 223              	.LVL28:
  63:lvgl/lvgl/examples/scroll/lv_example_scroll_4.c **** 
  64:lvgl/lvgl/examples/scroll/lv_example_scroll_4.c ****     lv_obj_add_style(obj, &style, LV_PART_SCROLLBAR);
 224              		.loc 1 64 5 view .LVU36
 225 00e6 4FF48032 		mov	r2, #65536
 226 00ea 2146     		mov	r1, r4
 227 00ec 2846     		mov	r0, r5
 228 00ee FFF7FEFF 		bl	lv_obj_add_style
 229              	.LVL29:
  65:lvgl/lvgl/examples/scroll/lv_example_scroll_4.c ****     lv_obj_add_style(obj, &style_scrolled, LV_PART_SCROLLBAR | LV_STATE_SCROLLED);
 230              		.loc 1 65 5 view .LVU37
 231 00f2 0A4A     		ldr	r2, .L3+28
 232 00f4 3146     		mov	r1, r6
 233 00f6 2846     		mov	r0, r5
 234 00f8 FFF7FEFF 		bl	lv_obj_add_style
 235              	.LVL30:
  66:lvgl/lvgl/examples/scroll/lv_example_scroll_4.c **** }
 236              		.loc 1 66 1 is_stmt 0 view .LVU38
 237 00fc 02B0     		add	sp, sp, #8
 238              	.LCFI2:
 239              		.cfi_def_cfa_offset 16
 240              		@ sp needed
 241 00fe 70BD     		pop	{r4, r5, r6, pc}
 242              	.LVL31:
 243              	.L4:
 244              		.loc 1 66 1 view .LVU39
 245              		.align	2
 246              	.L3:
 247 0100 00000000 		.word	.LC0
 248 0104 FFFF0100 		.word	131071
 249 0108 00000000 		.word	.LANCHOR1
 250 010c 00000000 		.word	lv_anim_path_linear
 251 0110 00000000 		.word	.LANCHOR0
 252 0114 00000000 		.word	.LANCHOR2
 253 0118 00000000 		.word	.LANCHOR3
 254 011c 40000100 		.word	65600
 255              		.cfi_endproc
ARM GAS  C:\Users\gx\AppData\Local\Temp\ccqPXoVr.s 			page 14


 256              	.LFE189:
 258              		.section	.bss.style.12317,"aw",%nobits
 259              		.align	2
 260              		.set	.LANCHOR2,. + 0
 263              	style.12317:
 264 0000 00000000 		.space	8
 264      00000000 
 265              		.section	.bss.style_scrolled.12318,"aw",%nobits
 266              		.align	2
 267              		.set	.LANCHOR3,. + 0
 270              	style_scrolled.12318:
 271 0000 00000000 		.space	8
 271      00000000 
 272              		.section	.bss.trans.12316,"aw",%nobits
 273              		.align	2
 274              		.set	.LANCHOR1,. + 0
 277              	trans.12316:
 278 0000 00000000 		.space	20
 278      00000000 
 278      00000000 
 278      00000000 
 278      00000000 
 279              		.section	.rodata.props.12315,"a"
 280              		.align	2
 281              		.set	.LANCHOR0,. + 0
 284              	props.12315:
 285 0000 2100     		.short	33
 286 0002 0110     		.short	4097
 287 0004 0000     		.short	0
 288              		.text
 289              	.Letext0:
 290              		.file 4 "c:\\program files (x86)\\gnu arm embedded toolchain\\9 2020-q2-update\\arm-none-eabi\\inc
 291              		.file 5 "c:\\program files (x86)\\gnu arm embedded toolchain\\9 2020-q2-update\\arm-none-eabi\\inc
 292              		.file 6 "lvgl/lvgl/examples/scroll/../../src/misc/lv_ll.h"
 293              		.file 7 "c:\\program files (x86)\\gnu arm embedded toolchain\\9 2020-q2-update\\lib\\gcc\\arm-none
 294              		.file 8 "c:\\program files (x86)\\gnu arm embedded toolchain\\9 2020-q2-update\\arm-none-eabi\\inc
 295              		.file 9 "c:\\program files (x86)\\gnu arm embedded toolchain\\9 2020-q2-update\\arm-none-eabi\\inc
 296              		.file 10 "c:\\program files (x86)\\gnu arm embedded toolchain\\9 2020-q2-update\\arm-none-eabi\\in
 297              		.file 11 "lvgl/lvgl/examples/scroll/../../src/misc/lv_anim.h"
 298              		.file 12 "d:\\practise\\f407_disc\\lvgl\\lvgl\\src\\misc\\lv_color.h"
 299              		.file 13 "d:\\practise\\f407_disc\\lvgl\\lvgl\\src\\misc\\lv_area.h"
 300              		.file 14 "lvgl/lvgl/examples/scroll/../../src/core/lv_obj.h"
 301              		.file 15 "lvgl/lvgl/examples/scroll/../../src/core/lv_group.h"
 302              		.file 16 "d:\\practise\\f407_disc\\lvgl\\lvgl\\src\\font\\lv_font.h"
 303              		.file 17 "d:\\practise\\f407_disc\\lvgl\\lvgl\\src\\misc\\lv_txt.h"
 304              		.file 18 "d:\\practise\\f407_disc\\lvgl\\lvgl\\src\\misc\\lv_style.h"
 305              		.file 19 "lvgl/lvgl/examples/scroll/../../src/core/lv_obj_scroll.h"
 306              		.file 20 "lvgl/lvgl/examples/scroll/../../src/core/lv_obj_style.h"
 307              		.file 21 "d:\\practise\\f407_disc\\lvgl\\lvgl\\src\\draw\\lv_draw_label.h"
 308              		.file 22 "lvgl/lvgl/examples/scroll/../../src/core/lv_obj_class.h"
 309              		.file 23 "lvgl/lvgl/examples/scroll/../../src/core/lv_event.h"
 310              		.file 24 "lvgl/lvgl/examples/scroll/../../src/widgets/lv_arc.h"
 311              		.file 25 "lvgl/lvgl/examples/scroll/../../src/widgets/lv_btn.h"
 312              		.file 26 "lvgl/lvgl/examples/scroll/../../src/widgets/lv_img.h"
 313              		.file 27 "lvgl/lvgl/examples/scroll/../../src/widgets/lv_label.h"
 314              		.file 28 "lvgl/lvgl/examples/scroll/../../src/widgets/lv_line.h"
 315              		.file 29 "lvgl/lvgl/examples/scroll/../../src/widgets/lv_table.h"
ARM GAS  C:\Users\gx\AppData\Local\Temp\ccqPXoVr.s 			page 15


 316              		.file 30 "lvgl/lvgl/examples/scroll/../../src/widgets/lv_checkbox.h"
 317              		.file 31 "lvgl/lvgl/examples/scroll/../../src/widgets/lv_bar.h"
 318              		.file 32 "lvgl/lvgl/examples/scroll/../../src/widgets/lv_slider.h"
 319              		.file 33 "lvgl/lvgl/examples/scroll/../../src/widgets/lv_btnmatrix.h"
 320              		.file 34 "lvgl/lvgl/examples/scroll/../../src/widgets/lv_dropdown.h"
 321              		.file 35 "lvgl/lvgl/examples/scroll/../../src/widgets/lv_roller.h"
 322              		.file 36 "lvgl/lvgl/examples/scroll/../../src/widgets/lv_textarea.h"
 323              		.file 37 "lvgl/lvgl/examples/scroll/../../src/widgets/lv_canvas.h"
 324              		.file 38 "lvgl/lvgl/examples/scroll/../../src/widgets/lv_switch.h"
 325              		.file 39 "lvgl/lvgl/examples/scroll/../../src/extra/widgets/animimg/lv_animimg.h"
 326              		.file 40 "lvgl/lvgl/examples/scroll/../../src/extra/widgets/calendar/lv_calendar.h"
 327              		.file 41 "lvgl/lvgl/examples/scroll/../../src/extra/widgets/calendar/lv_calendar_header_arrow.h"
 328              		.file 42 "lvgl/lvgl/examples/scroll/../../src/extra/widgets/calendar/lv_calendar_header_dropdown.h
 329              		.file 43 "lvgl/lvgl/examples/scroll/../../src/extra/widgets/chart/lv_chart.h"
 330              		.file 44 "lvgl/lvgl/examples/scroll/../../src/extra/widgets/keyboard/lv_keyboard.h"
 331              		.file 45 "d:\\practise\\f407_disc\\lvgl\\lvgl\\src\\extra\\layouts\\flex\\lv_flex.h"
 332              		.file 46 "lvgl/lvgl/examples/scroll/../../src/extra/widgets/list/lv_list.h"
 333              		.file 47 "lvgl/lvgl/examples/scroll/../../src/extra/widgets/msgbox/lv_msgbox.h"
 334              		.file 48 "lvgl/lvgl/examples/scroll/../../src/extra/widgets/meter/lv_meter.h"
 335              		.file 49 "lvgl/lvgl/examples/scroll/../../src/extra/widgets/spinbox/lv_spinbox.h"
 336              		.file 50 "lvgl/lvgl/examples/scroll/../../src/extra/widgets/spinner/lv_spinner.h"
 337              		.file 51 "lvgl/lvgl/examples/scroll/../../src/extra/widgets/tabview/lv_tabview.h"
 338              		.file 52 "lvgl/lvgl/examples/scroll/../../src/extra/widgets/tileview/lv_tileview.h"
 339              		.file 53 "lvgl/lvgl/examples/scroll/../../src/extra/widgets/win/lv_win.h"
 340              		.file 54 "lvgl/lvgl/examples/scroll/../../src/extra/widgets/colorwheel/lv_colorwheel.h"
 341              		.file 55 "lvgl/lvgl/examples/scroll/../../src/extra/widgets/led/lv_led.h"
 342              		.file 56 "lvgl/lvgl/examples/scroll/../../src/extra/widgets/imgbtn/lv_imgbtn.h"
 343              		.file 57 "lvgl/lvgl/examples/scroll/../../src/extra/widgets/span/lv_span.h"
 344              		.file 58 "lvgl/lvgl/examples/scroll/../../src/extra/layouts/grid/lv_grid.h"
 345              		.file 59 "lvgl/lvgl/examples/scroll/../../src/hal/lv_hal_disp.h"
 346              		.file 60 "d:\\practise\\f407_disc\\lvgl\\lvgl\\src\\misc\\lv_style_gen.h"
ARM GAS  C:\Users\gx\AppData\Local\Temp\ccqPXoVr.s 			page 16

