ARM GAS  C:\Users\gx\AppData\Local\Temp\ccSjx1f4.s 			page 1


   1              		.cpu cortex-m4
   2              		.eabi_attribute 27, 1
   3              		.eabi_attribute 28, 1
   4              		.eabi_attribute 20, 1
   5              		.eabi_attribute 21, 1
   6              		.eabi_attribute 23, 3
   7              		.eabi_attribute 24, 1
   8              		.eabi_attribute 25, 1
   9              		.eabi_attribute 26, 1
  10              		.eabi_attribute 30, 1
  11              		.eabi_attribute 34, 1
  12              		.eabi_attribute 18, 4
  13              		.file	"lv_example_tabview_1.c"
  14              		.text
  15              	.Ltext0:
  16              		.cfi_sections	.debug_frame
  17              		.section	.rodata.lv_example_tabview_1.str1.4,"aMS",%progbits,1
  18              		.align	2
  19              	.LC0:
  20 0000 54616220 		.ascii	"Tab 1\000"
  20      3100
  21 0006 0000     		.align	2
  22              	.LC1:
  23 0008 54616220 		.ascii	"Tab 2\000"
  23      3200
  24 000e 0000     		.align	2
  25              	.LC2:
  26 0010 54616220 		.ascii	"Tab 3\000"
  26      3300
  27 0016 0000     		.align	2
  28              	.LC3:
  29 0018 54686973 		.ascii	"This the first tab\012\012If the content\012of a ta"
  29      20746865 
  29      20666972 
  29      73742074 
  29      61620A0A 
  30 0042 620A6265 		.ascii	"b\012becomes too\012longer\012than the\012container"
  30      636F6D65 
  30      7320746F 
  30      6F0A6C6F 
  30      6E676572 
  31 0069 0A746865 		.ascii	"\012then it\012automatically\012becomes\012scrollab"
  31      6E206974 
  31      0A617574 
  31      6F6D6174 
  31      6963616C 
  32 0090 6C652E0A 		.ascii	"le.\012\012\012\012Can you see it?\000"
  32      0A0A0A43 
  32      616E2079 
  32      6F752073 
  32      65652069 
  33 00a7 00       		.align	2
  34              	.LC4:
  35 00a8 5365636F 		.ascii	"Second tab\000"
  35      6E642074 
  35      616200
  36 00b3 00       		.align	2
ARM GAS  C:\Users\gx\AppData\Local\Temp\ccSjx1f4.s 			page 2


  37              	.LC5:
  38 00b4 54686972 		.ascii	"Third tab\000"
  38      64207461 
  38      6200
  39              		.section	.text.lv_example_tabview_1,"ax",%progbits
  40              		.align	1
  41              		.global	lv_example_tabview_1
  42              		.arch armv7e-m
  43              		.syntax unified
  44              		.thumb
  45              		.thumb_func
  46              		.fpu fpv4-sp-d16
  48              	lv_example_tabview_1:
  49              	.LFB189:
  50              		.file 1 "lvgl/lvgl/examples/widgets/tabview/lv_example_tabview_1.c"
   1:lvgl/lvgl/examples/widgets/tabview/lv_example_tabview_1.c **** #include "../../lv_examples.h"
   2:lvgl/lvgl/examples/widgets/tabview/lv_example_tabview_1.c **** #if LV_USE_TABVIEW && LV_BUILD_EXAMPLES
   3:lvgl/lvgl/examples/widgets/tabview/lv_example_tabview_1.c **** 
   4:lvgl/lvgl/examples/widgets/tabview/lv_example_tabview_1.c **** void lv_example_tabview_1(void)
   5:lvgl/lvgl/examples/widgets/tabview/lv_example_tabview_1.c **** {
  51              		.loc 1 5 1 view -0
  52              		.cfi_startproc
  53              		@ args = 0, pretend = 0, frame = 0
  54              		@ frame_needed = 0, uses_anonymous_args = 0
  55 0000 70B5     		push	{r4, r5, r6, lr}
  56              	.LCFI0:
  57              		.cfi_def_cfa_offset 16
  58              		.cfi_offset 4, -16
  59              		.cfi_offset 5, -12
  60              		.cfi_offset 6, -8
  61              		.cfi_offset 14, -4
   6:lvgl/lvgl/examples/widgets/tabview/lv_example_tabview_1.c ****     /*Create a Tab view object*/
   7:lvgl/lvgl/examples/widgets/tabview/lv_example_tabview_1.c ****     lv_obj_t *tabview;
  62              		.loc 1 7 5 view .LVU1
   8:lvgl/lvgl/examples/widgets/tabview/lv_example_tabview_1.c ****     tabview = lv_tabview_create(lv_scr_act(), LV_DIR_TOP, 50);
  63              		.loc 1 8 5 view .LVU2
  64              	.LBB4:
  65              	.LBI4:
  66              		.file 2 "d:\\practise\\f407_disc\\lvgl\\lvgl\\src/core/lv_disp.h"
   1:d:\practise\f407_disc\lvgl\lvgl\src/core\lv_disp.h **** /**
   2:d:\practise\f407_disc\lvgl\lvgl\src/core\lv_disp.h ****  * @file lv_disp.h
   3:d:\practise\f407_disc\lvgl\lvgl\src/core\lv_disp.h ****  *
   4:d:\practise\f407_disc\lvgl\lvgl\src/core\lv_disp.h ****  */
   5:d:\practise\f407_disc\lvgl\lvgl\src/core\lv_disp.h **** 
   6:d:\practise\f407_disc\lvgl\lvgl\src/core\lv_disp.h **** #ifndef LV_DISP_H
   7:d:\practise\f407_disc\lvgl\lvgl\src/core\lv_disp.h **** #define LV_DISP_H
   8:d:\practise\f407_disc\lvgl\lvgl\src/core\lv_disp.h **** 
   9:d:\practise\f407_disc\lvgl\lvgl\src/core\lv_disp.h **** #ifdef __cplusplus
  10:d:\practise\f407_disc\lvgl\lvgl\src/core\lv_disp.h **** extern "C" {
  11:d:\practise\f407_disc\lvgl\lvgl\src/core\lv_disp.h **** #endif
  12:d:\practise\f407_disc\lvgl\lvgl\src/core\lv_disp.h **** 
  13:d:\practise\f407_disc\lvgl\lvgl\src/core\lv_disp.h **** /*********************
  14:d:\practise\f407_disc\lvgl\lvgl\src/core\lv_disp.h ****  *      INCLUDES
  15:d:\practise\f407_disc\lvgl\lvgl\src/core\lv_disp.h ****  *********************/
  16:d:\practise\f407_disc\lvgl\lvgl\src/core\lv_disp.h **** #include "../hal/lv_hal.h"
  17:d:\practise\f407_disc\lvgl\lvgl\src/core\lv_disp.h **** #include "lv_obj.h"
  18:d:\practise\f407_disc\lvgl\lvgl\src/core\lv_disp.h **** #include "lv_theme.h"
ARM GAS  C:\Users\gx\AppData\Local\Temp\ccSjx1f4.s 			page 3


  19:d:\practise\f407_disc\lvgl\lvgl\src/core\lv_disp.h **** 
  20:d:\practise\f407_disc\lvgl\lvgl\src/core\lv_disp.h **** /*********************
  21:d:\practise\f407_disc\lvgl\lvgl\src/core\lv_disp.h ****  *      DEFINES
  22:d:\practise\f407_disc\lvgl\lvgl\src/core\lv_disp.h ****  *********************/
  23:d:\practise\f407_disc\lvgl\lvgl\src/core\lv_disp.h **** 
  24:d:\practise\f407_disc\lvgl\lvgl\src/core\lv_disp.h **** /**********************
  25:d:\practise\f407_disc\lvgl\lvgl\src/core\lv_disp.h ****  *      TYPEDEFS
  26:d:\practise\f407_disc\lvgl\lvgl\src/core\lv_disp.h ****  **********************/
  27:d:\practise\f407_disc\lvgl\lvgl\src/core\lv_disp.h **** 
  28:d:\practise\f407_disc\lvgl\lvgl\src/core\lv_disp.h **** typedef enum {
  29:d:\practise\f407_disc\lvgl\lvgl\src/core\lv_disp.h ****     LV_SCR_LOAD_ANIM_NONE,
  30:d:\practise\f407_disc\lvgl\lvgl\src/core\lv_disp.h ****     LV_SCR_LOAD_ANIM_OVER_LEFT,
  31:d:\practise\f407_disc\lvgl\lvgl\src/core\lv_disp.h ****     LV_SCR_LOAD_ANIM_OVER_RIGHT,
  32:d:\practise\f407_disc\lvgl\lvgl\src/core\lv_disp.h ****     LV_SCR_LOAD_ANIM_OVER_TOP,
  33:d:\practise\f407_disc\lvgl\lvgl\src/core\lv_disp.h ****     LV_SCR_LOAD_ANIM_OVER_BOTTOM,
  34:d:\practise\f407_disc\lvgl\lvgl\src/core\lv_disp.h ****     LV_SCR_LOAD_ANIM_MOVE_LEFT,
  35:d:\practise\f407_disc\lvgl\lvgl\src/core\lv_disp.h ****     LV_SCR_LOAD_ANIM_MOVE_RIGHT,
  36:d:\practise\f407_disc\lvgl\lvgl\src/core\lv_disp.h ****     LV_SCR_LOAD_ANIM_MOVE_TOP,
  37:d:\practise\f407_disc\lvgl\lvgl\src/core\lv_disp.h ****     LV_SCR_LOAD_ANIM_MOVE_BOTTOM,
  38:d:\practise\f407_disc\lvgl\lvgl\src/core\lv_disp.h ****     LV_SCR_LOAD_ANIM_FADE_ON,
  39:d:\practise\f407_disc\lvgl\lvgl\src/core\lv_disp.h **** } lv_scr_load_anim_t;
  40:d:\practise\f407_disc\lvgl\lvgl\src/core\lv_disp.h **** 
  41:d:\practise\f407_disc\lvgl\lvgl\src/core\lv_disp.h **** /**********************
  42:d:\practise\f407_disc\lvgl\lvgl\src/core\lv_disp.h ****  * GLOBAL PROTOTYPES
  43:d:\practise\f407_disc\lvgl\lvgl\src/core\lv_disp.h ****  **********************/
  44:d:\practise\f407_disc\lvgl\lvgl\src/core\lv_disp.h **** 
  45:d:\practise\f407_disc\lvgl\lvgl\src/core\lv_disp.h **** /**
  46:d:\practise\f407_disc\lvgl\lvgl\src/core\lv_disp.h ****  * Return with a pointer to the active screen
  47:d:\practise\f407_disc\lvgl\lvgl\src/core\lv_disp.h ****  * @param disp pointer to display which active screen should be get. (NULL to use the default
  48:d:\practise\f407_disc\lvgl\lvgl\src/core\lv_disp.h ****  * screen)
  49:d:\practise\f407_disc\lvgl\lvgl\src/core\lv_disp.h ****  * @return pointer to the active screen object (loaded by 'lv_scr_load()')
  50:d:\practise\f407_disc\lvgl\lvgl\src/core\lv_disp.h ****  */
  51:d:\practise\f407_disc\lvgl\lvgl\src/core\lv_disp.h **** lv_obj_t * lv_disp_get_scr_act(lv_disp_t * disp);
  52:d:\practise\f407_disc\lvgl\lvgl\src/core\lv_disp.h **** 
  53:d:\practise\f407_disc\lvgl\lvgl\src/core\lv_disp.h **** /**
  54:d:\practise\f407_disc\lvgl\lvgl\src/core\lv_disp.h ****  * Return with a pointer to the previous screen. Only used during screen transitions.
  55:d:\practise\f407_disc\lvgl\lvgl\src/core\lv_disp.h ****  * @param disp pointer to display which previous screen should be get. (NULL to use the default
  56:d:\practise\f407_disc\lvgl\lvgl\src/core\lv_disp.h ****  * screen)
  57:d:\practise\f407_disc\lvgl\lvgl\src/core\lv_disp.h ****  * @return pointer to the previous screen object or NULL if not used now
  58:d:\practise\f407_disc\lvgl\lvgl\src/core\lv_disp.h ****  */
  59:d:\practise\f407_disc\lvgl\lvgl\src/core\lv_disp.h **** lv_obj_t * lv_disp_get_scr_prev(lv_disp_t * disp);
  60:d:\practise\f407_disc\lvgl\lvgl\src/core\lv_disp.h **** 
  61:d:\practise\f407_disc\lvgl\lvgl\src/core\lv_disp.h **** /**
  62:d:\practise\f407_disc\lvgl\lvgl\src/core\lv_disp.h ****  * Make a screen active
  63:d:\practise\f407_disc\lvgl\lvgl\src/core\lv_disp.h ****  * @param scr pointer to a screen
  64:d:\practise\f407_disc\lvgl\lvgl\src/core\lv_disp.h ****  */
  65:d:\practise\f407_disc\lvgl\lvgl\src/core\lv_disp.h **** void lv_disp_load_scr(lv_obj_t * scr);
  66:d:\practise\f407_disc\lvgl\lvgl\src/core\lv_disp.h **** 
  67:d:\practise\f407_disc\lvgl\lvgl\src/core\lv_disp.h **** /**
  68:d:\practise\f407_disc\lvgl\lvgl\src/core\lv_disp.h ****  * Return with the top layer. (Same on every screen and it is above the normal screen layer)
  69:d:\practise\f407_disc\lvgl\lvgl\src/core\lv_disp.h ****  * @param disp pointer to display which top layer should be get. (NULL to use the default screen)
  70:d:\practise\f407_disc\lvgl\lvgl\src/core\lv_disp.h ****  * @return pointer to the top layer object  (transparent screen sized lv_obj)
  71:d:\practise\f407_disc\lvgl\lvgl\src/core\lv_disp.h ****  */
  72:d:\practise\f407_disc\lvgl\lvgl\src/core\lv_disp.h **** lv_obj_t * lv_disp_get_layer_top(lv_disp_t * disp);
  73:d:\practise\f407_disc\lvgl\lvgl\src/core\lv_disp.h **** 
  74:d:\practise\f407_disc\lvgl\lvgl\src/core\lv_disp.h **** /**
  75:d:\practise\f407_disc\lvgl\lvgl\src/core\lv_disp.h ****  * Return with the sys. layer. (Same on every screen and it is above the normal screen and the top
ARM GAS  C:\Users\gx\AppData\Local\Temp\ccSjx1f4.s 			page 4


  76:d:\practise\f407_disc\lvgl\lvgl\src/core\lv_disp.h ****  * layer)
  77:d:\practise\f407_disc\lvgl\lvgl\src/core\lv_disp.h ****  * @param disp pointer to display which sys. layer  should be get. (NULL to use the default screen)
  78:d:\practise\f407_disc\lvgl\lvgl\src/core\lv_disp.h ****  * @return pointer to the sys layer object  (transparent screen sized lv_obj)
  79:d:\practise\f407_disc\lvgl\lvgl\src/core\lv_disp.h ****  */
  80:d:\practise\f407_disc\lvgl\lvgl\src/core\lv_disp.h **** lv_obj_t * lv_disp_get_layer_sys(lv_disp_t * disp);
  81:d:\practise\f407_disc\lvgl\lvgl\src/core\lv_disp.h **** 
  82:d:\practise\f407_disc\lvgl\lvgl\src/core\lv_disp.h **** /**
  83:d:\practise\f407_disc\lvgl\lvgl\src/core\lv_disp.h ****  * Get the theme of a display
  84:d:\practise\f407_disc\lvgl\lvgl\src/core\lv_disp.h ****  * @param disp pointer to a display
  85:d:\practise\f407_disc\lvgl\lvgl\src/core\lv_disp.h ****  * @return the display's theme (can be NULL)
  86:d:\practise\f407_disc\lvgl\lvgl\src/core\lv_disp.h ****  */
  87:d:\practise\f407_disc\lvgl\lvgl\src/core\lv_disp.h **** void lv_disp_set_theme(lv_disp_t * disp, lv_theme_t * th);
  88:d:\practise\f407_disc\lvgl\lvgl\src/core\lv_disp.h **** 
  89:d:\practise\f407_disc\lvgl\lvgl\src/core\lv_disp.h **** /**
  90:d:\practise\f407_disc\lvgl\lvgl\src/core\lv_disp.h ****  * Get the theme of a display
  91:d:\practise\f407_disc\lvgl\lvgl\src/core\lv_disp.h ****  * @param disp pointer to a display
  92:d:\practise\f407_disc\lvgl\lvgl\src/core\lv_disp.h ****  * @return the display's theme (can be NULL)
  93:d:\practise\f407_disc\lvgl\lvgl\src/core\lv_disp.h ****  */
  94:d:\practise\f407_disc\lvgl\lvgl\src/core\lv_disp.h **** lv_theme_t * lv_disp_get_theme(lv_disp_t * disp);
  95:d:\practise\f407_disc\lvgl\lvgl\src/core\lv_disp.h **** 
  96:d:\practise\f407_disc\lvgl\lvgl\src/core\lv_disp.h **** /**
  97:d:\practise\f407_disc\lvgl\lvgl\src/core\lv_disp.h ****  * Set the background color of a display
  98:d:\practise\f407_disc\lvgl\lvgl\src/core\lv_disp.h ****  * @param disp pointer to a display
  99:d:\practise\f407_disc\lvgl\lvgl\src/core\lv_disp.h ****  * @param color color of the background
 100:d:\practise\f407_disc\lvgl\lvgl\src/core\lv_disp.h ****  */
 101:d:\practise\f407_disc\lvgl\lvgl\src/core\lv_disp.h **** void lv_disp_set_bg_color(lv_disp_t * disp, lv_color_t color);
 102:d:\practise\f407_disc\lvgl\lvgl\src/core\lv_disp.h **** 
 103:d:\practise\f407_disc\lvgl\lvgl\src/core\lv_disp.h **** /**
 104:d:\practise\f407_disc\lvgl\lvgl\src/core\lv_disp.h ****  * Set the background image of a display
 105:d:\practise\f407_disc\lvgl\lvgl\src/core\lv_disp.h ****  * @param disp pointer to a display
 106:d:\practise\f407_disc\lvgl\lvgl\src/core\lv_disp.h ****  * @param img_src path to file or pointer to an `lv_img_dsc_t` variable
 107:d:\practise\f407_disc\lvgl\lvgl\src/core\lv_disp.h ****  */
 108:d:\practise\f407_disc\lvgl\lvgl\src/core\lv_disp.h **** void lv_disp_set_bg_image(lv_disp_t * disp, const void  * img_src);
 109:d:\practise\f407_disc\lvgl\lvgl\src/core\lv_disp.h **** 
 110:d:\practise\f407_disc\lvgl\lvgl\src/core\lv_disp.h **** /**
 111:d:\practise\f407_disc\lvgl\lvgl\src/core\lv_disp.h ****  * Opacity of the background
 112:d:\practise\f407_disc\lvgl\lvgl\src/core\lv_disp.h ****  * @param disp pointer to a display
 113:d:\practise\f407_disc\lvgl\lvgl\src/core\lv_disp.h ****  * @param opa opacity (0..255)
 114:d:\practise\f407_disc\lvgl\lvgl\src/core\lv_disp.h ****  */
 115:d:\practise\f407_disc\lvgl\lvgl\src/core\lv_disp.h **** void lv_disp_set_bg_opa(lv_disp_t * disp, lv_opa_t opa);
 116:d:\practise\f407_disc\lvgl\lvgl\src/core\lv_disp.h **** 
 117:d:\practise\f407_disc\lvgl\lvgl\src/core\lv_disp.h **** /**
 118:d:\practise\f407_disc\lvgl\lvgl\src/core\lv_disp.h ****  * Switch screen with animation
 119:d:\practise\f407_disc\lvgl\lvgl\src/core\lv_disp.h ****  * @param scr pointer to the new screen to load
 120:d:\practise\f407_disc\lvgl\lvgl\src/core\lv_disp.h ****  * @param anim_type type of the animation from `lv_scr_load_anim_t`. E.g.  `LV_SCR_LOAD_ANIM_MOVE_L
 121:d:\practise\f407_disc\lvgl\lvgl\src/core\lv_disp.h ****  * @param time time of the animation
 122:d:\practise\f407_disc\lvgl\lvgl\src/core\lv_disp.h ****  * @param delay delay before the transition
 123:d:\practise\f407_disc\lvgl\lvgl\src/core\lv_disp.h ****  * @param auto_del true: automatically delete the old screen
 124:d:\practise\f407_disc\lvgl\lvgl\src/core\lv_disp.h ****  */
 125:d:\practise\f407_disc\lvgl\lvgl\src/core\lv_disp.h **** void lv_scr_load_anim(lv_obj_t * scr, lv_scr_load_anim_t anim_type, uint32_t time, uint32_t delay, 
 126:d:\practise\f407_disc\lvgl\lvgl\src/core\lv_disp.h **** 
 127:d:\practise\f407_disc\lvgl\lvgl\src/core\lv_disp.h **** /**
 128:d:\practise\f407_disc\lvgl\lvgl\src/core\lv_disp.h ****  * Get elapsed time since last user activity on a display (e.g. click)
 129:d:\practise\f407_disc\lvgl\lvgl\src/core\lv_disp.h ****  * @param disp pointer to an display (NULL to get the overall smallest inactivity)
 130:d:\practise\f407_disc\lvgl\lvgl\src/core\lv_disp.h ****  * @return elapsed ticks (milliseconds) since the last activity
 131:d:\practise\f407_disc\lvgl\lvgl\src/core\lv_disp.h ****  */
 132:d:\practise\f407_disc\lvgl\lvgl\src/core\lv_disp.h **** uint32_t lv_disp_get_inactive_time(const lv_disp_t * disp);
ARM GAS  C:\Users\gx\AppData\Local\Temp\ccSjx1f4.s 			page 5


 133:d:\practise\f407_disc\lvgl\lvgl\src/core\lv_disp.h **** 
 134:d:\practise\f407_disc\lvgl\lvgl\src/core\lv_disp.h **** /**
 135:d:\practise\f407_disc\lvgl\lvgl\src/core\lv_disp.h ****  * Manually trigger an activity on a display
 136:d:\practise\f407_disc\lvgl\lvgl\src/core\lv_disp.h ****  * @param disp pointer to an display (NULL to use the default display)
 137:d:\practise\f407_disc\lvgl\lvgl\src/core\lv_disp.h ****  */
 138:d:\practise\f407_disc\lvgl\lvgl\src/core\lv_disp.h **** void lv_disp_trig_activity(lv_disp_t * disp);
 139:d:\practise\f407_disc\lvgl\lvgl\src/core\lv_disp.h **** 
 140:d:\practise\f407_disc\lvgl\lvgl\src/core\lv_disp.h **** /**
 141:d:\practise\f407_disc\lvgl\lvgl\src/core\lv_disp.h ****  * Clean any CPU cache that is related to the display.
 142:d:\practise\f407_disc\lvgl\lvgl\src/core\lv_disp.h ****  * @param disp pointer to an display (NULL to use the default display)
 143:d:\practise\f407_disc\lvgl\lvgl\src/core\lv_disp.h ****  */
 144:d:\practise\f407_disc\lvgl\lvgl\src/core\lv_disp.h **** void lv_disp_clean_dcache(lv_disp_t * disp);
 145:d:\practise\f407_disc\lvgl\lvgl\src/core\lv_disp.h **** 
 146:d:\practise\f407_disc\lvgl\lvgl\src/core\lv_disp.h **** /**
 147:d:\practise\f407_disc\lvgl\lvgl\src/core\lv_disp.h ****  * Get a pointer to the screen refresher timer to
 148:d:\practise\f407_disc\lvgl\lvgl\src/core\lv_disp.h ****  * modify its parameters with `lv_timer_...` functions.
 149:d:\practise\f407_disc\lvgl\lvgl\src/core\lv_disp.h ****  * @param disp pointer to a display
 150:d:\practise\f407_disc\lvgl\lvgl\src/core\lv_disp.h ****  * @return pointer to the display refresher timer. (NULL on error)
 151:d:\practise\f407_disc\lvgl\lvgl\src/core\lv_disp.h ****  */
 152:d:\practise\f407_disc\lvgl\lvgl\src/core\lv_disp.h **** lv_timer_t * _lv_disp_get_refr_timer(lv_disp_t * disp);
 153:d:\practise\f407_disc\lvgl\lvgl\src/core\lv_disp.h **** 
 154:d:\practise\f407_disc\lvgl\lvgl\src/core\lv_disp.h **** /*------------------------------------------------
 155:d:\practise\f407_disc\lvgl\lvgl\src/core\lv_disp.h ****  * To improve backward compatibility
 156:d:\practise\f407_disc\lvgl\lvgl\src/core\lv_disp.h ****  * Recommended only if you have one display
 157:d:\practise\f407_disc\lvgl\lvgl\src/core\lv_disp.h ****  *------------------------------------------------*/
 158:d:\practise\f407_disc\lvgl\lvgl\src/core\lv_disp.h **** 
 159:d:\practise\f407_disc\lvgl\lvgl\src/core\lv_disp.h **** /**
 160:d:\practise\f407_disc\lvgl\lvgl\src/core\lv_disp.h ****  * Get the active screen of the default display
 161:d:\practise\f407_disc\lvgl\lvgl\src/core\lv_disp.h ****  * @return pointer to the active screen
 162:d:\practise\f407_disc\lvgl\lvgl\src/core\lv_disp.h ****  */
 163:d:\practise\f407_disc\lvgl\lvgl\src/core\lv_disp.h **** static inline lv_obj_t * lv_scr_act(void)
  67              		.loc 2 163 26 view .LVU3
  68              	.LBB5:
 164:d:\practise\f407_disc\lvgl\lvgl\src/core\lv_disp.h **** {
 165:d:\practise\f407_disc\lvgl\lvgl\src/core\lv_disp.h ****     return lv_disp_get_scr_act(lv_disp_get_default());
  69              		.loc 2 165 5 view .LVU4
  70              		.loc 2 165 12 is_stmt 0 view .LVU5
  71 0002 FFF7FEFF 		bl	lv_disp_get_default
  72              	.LVL0:
  73 0006 FFF7FEFF 		bl	lv_disp_get_scr_act
  74              	.LVL1:
  75              	.LBE5:
  76              	.LBE4:
  77              		.loc 1 8 15 view .LVU6
  78 000a 3222     		movs	r2, #50
  79 000c 0421     		movs	r1, #4
  80 000e FFF7FEFF 		bl	lv_tabview_create
  81              	.LVL2:
  82 0012 0446     		mov	r4, r0
  83              	.LVL3:
   9:lvgl/lvgl/examples/widgets/tabview/lv_example_tabview_1.c **** 
  10:lvgl/lvgl/examples/widgets/tabview/lv_example_tabview_1.c ****     /*Add 3 tabs (the tabs are page (lv_page) and can be scrolled*/
  11:lvgl/lvgl/examples/widgets/tabview/lv_example_tabview_1.c ****     lv_obj_t *tab1 = lv_tabview_add_tab(tabview, "Tab 1");
  84              		.loc 1 11 5 is_stmt 1 view .LVU7
  85              		.loc 1 11 22 is_stmt 0 view .LVU8
  86 0014 1249     		ldr	r1, .L3
  87 0016 FFF7FEFF 		bl	lv_tabview_add_tab
ARM GAS  C:\Users\gx\AppData\Local\Temp\ccSjx1f4.s 			page 6


  88              	.LVL4:
  89              		.loc 1 11 22 view .LVU9
  90 001a 0646     		mov	r6, r0
  91              	.LVL5:
  12:lvgl/lvgl/examples/widgets/tabview/lv_example_tabview_1.c ****     lv_obj_t *tab2 = lv_tabview_add_tab(tabview, "Tab 2");
  92              		.loc 1 12 5 is_stmt 1 view .LVU10
  93              		.loc 1 12 22 is_stmt 0 view .LVU11
  94 001c 1149     		ldr	r1, .L3+4
  95 001e 2046     		mov	r0, r4
  96              	.LVL6:
  97              		.loc 1 12 22 view .LVU12
  98 0020 FFF7FEFF 		bl	lv_tabview_add_tab
  99              	.LVL7:
 100 0024 0546     		mov	r5, r0
 101              	.LVL8:
  13:lvgl/lvgl/examples/widgets/tabview/lv_example_tabview_1.c ****     lv_obj_t *tab3 = lv_tabview_add_tab(tabview, "Tab 3");
 102              		.loc 1 13 5 is_stmt 1 view .LVU13
 103              		.loc 1 13 22 is_stmt 0 view .LVU14
 104 0026 1049     		ldr	r1, .L3+8
 105 0028 2046     		mov	r0, r4
 106              	.LVL9:
 107              		.loc 1 13 22 view .LVU15
 108 002a FFF7FEFF 		bl	lv_tabview_add_tab
 109              	.LVL10:
 110 002e 0446     		mov	r4, r0
 111              	.LVL11:
  14:lvgl/lvgl/examples/widgets/tabview/lv_example_tabview_1.c **** 
  15:lvgl/lvgl/examples/widgets/tabview/lv_example_tabview_1.c ****     /*Add content to the tabs*/
  16:lvgl/lvgl/examples/widgets/tabview/lv_example_tabview_1.c ****     lv_obj_t * label = lv_label_create(tab1);
 112              		.loc 1 16 5 is_stmt 1 view .LVU16
 113              		.loc 1 16 24 is_stmt 0 view .LVU17
 114 0030 3046     		mov	r0, r6
 115              	.LVL12:
 116              		.loc 1 16 24 view .LVU18
 117 0032 FFF7FEFF 		bl	lv_label_create
 118              	.LVL13:
  17:lvgl/lvgl/examples/widgets/tabview/lv_example_tabview_1.c ****     lv_label_set_text(label, "This the first tab\n\n"
 119              		.loc 1 17 5 is_stmt 1 view .LVU19
 120 0036 0D49     		ldr	r1, .L3+12
 121 0038 FFF7FEFF 		bl	lv_label_set_text
 122              	.LVL14:
  18:lvgl/lvgl/examples/widgets/tabview/lv_example_tabview_1.c ****                              "If the content\n"
  19:lvgl/lvgl/examples/widgets/tabview/lv_example_tabview_1.c ****                              "of a tab\n"
  20:lvgl/lvgl/examples/widgets/tabview/lv_example_tabview_1.c ****                              "becomes too\n"
  21:lvgl/lvgl/examples/widgets/tabview/lv_example_tabview_1.c ****                              "longer\n"
  22:lvgl/lvgl/examples/widgets/tabview/lv_example_tabview_1.c ****                              "than the\n"
  23:lvgl/lvgl/examples/widgets/tabview/lv_example_tabview_1.c ****                              "container\n"
  24:lvgl/lvgl/examples/widgets/tabview/lv_example_tabview_1.c ****                              "then it\n"
  25:lvgl/lvgl/examples/widgets/tabview/lv_example_tabview_1.c ****                              "automatically\n"
  26:lvgl/lvgl/examples/widgets/tabview/lv_example_tabview_1.c ****                              "becomes\n"
  27:lvgl/lvgl/examples/widgets/tabview/lv_example_tabview_1.c ****                              "scrollable.\n"
  28:lvgl/lvgl/examples/widgets/tabview/lv_example_tabview_1.c ****                              "\n"
  29:lvgl/lvgl/examples/widgets/tabview/lv_example_tabview_1.c ****                              "\n"
  30:lvgl/lvgl/examples/widgets/tabview/lv_example_tabview_1.c ****                              "\n"
  31:lvgl/lvgl/examples/widgets/tabview/lv_example_tabview_1.c ****                              "Can you see it?");
  32:lvgl/lvgl/examples/widgets/tabview/lv_example_tabview_1.c **** 
  33:lvgl/lvgl/examples/widgets/tabview/lv_example_tabview_1.c ****     label = lv_label_create(tab2);
ARM GAS  C:\Users\gx\AppData\Local\Temp\ccSjx1f4.s 			page 7


 123              		.loc 1 33 5 view .LVU20
 124              		.loc 1 33 13 is_stmt 0 view .LVU21
 125 003c 2846     		mov	r0, r5
 126 003e FFF7FEFF 		bl	lv_label_create
 127              	.LVL15:
  34:lvgl/lvgl/examples/widgets/tabview/lv_example_tabview_1.c ****     lv_label_set_text(label, "Second tab");
 128              		.loc 1 34 5 is_stmt 1 view .LVU22
 129 0042 0B49     		ldr	r1, .L3+16
 130 0044 FFF7FEFF 		bl	lv_label_set_text
 131              	.LVL16:
  35:lvgl/lvgl/examples/widgets/tabview/lv_example_tabview_1.c **** 
  36:lvgl/lvgl/examples/widgets/tabview/lv_example_tabview_1.c ****     label = lv_label_create(tab3);
 132              		.loc 1 36 5 view .LVU23
 133              		.loc 1 36 13 is_stmt 0 view .LVU24
 134 0048 2046     		mov	r0, r4
 135 004a FFF7FEFF 		bl	lv_label_create
 136              	.LVL17:
 137 004e 0446     		mov	r4, r0
 138              	.LVL18:
  37:lvgl/lvgl/examples/widgets/tabview/lv_example_tabview_1.c ****     lv_label_set_text(label, "Third tab");
 139              		.loc 1 37 5 is_stmt 1 view .LVU25
 140 0050 0849     		ldr	r1, .L3+20
 141 0052 FFF7FEFF 		bl	lv_label_set_text
 142              	.LVL19:
  38:lvgl/lvgl/examples/widgets/tabview/lv_example_tabview_1.c **** 
  39:lvgl/lvgl/examples/widgets/tabview/lv_example_tabview_1.c ****     lv_obj_scroll_to_view_recursive(label, LV_ANIM_ON);
 143              		.loc 1 39 5 view .LVU26
 144 0056 0121     		movs	r1, #1
 145 0058 2046     		mov	r0, r4
 146 005a FFF7FEFF 		bl	lv_obj_scroll_to_view_recursive
 147              	.LVL20:
  40:lvgl/lvgl/examples/widgets/tabview/lv_example_tabview_1.c **** 
  41:lvgl/lvgl/examples/widgets/tabview/lv_example_tabview_1.c **** }
 148              		.loc 1 41 1 is_stmt 0 view .LVU27
 149 005e 70BD     		pop	{r4, r5, r6, pc}
 150              	.LVL21:
 151              	.L4:
 152              		.loc 1 41 1 view .LVU28
 153              		.align	2
 154              	.L3:
 155 0060 00000000 		.word	.LC0
 156 0064 08000000 		.word	.LC1
 157 0068 10000000 		.word	.LC2
 158 006c 18000000 		.word	.LC3
 159 0070 A8000000 		.word	.LC4
 160 0074 B4000000 		.word	.LC5
 161              		.cfi_endproc
 162              	.LFE189:
 164              		.text
 165              	.Letext0:
 166              		.file 3 "c:\\program files (x86)\\gnu arm embedded toolchain\\9 2020-q2-update\\arm-none-eabi\\inc
 167              		.file 4 "c:\\program files (x86)\\gnu arm embedded toolchain\\9 2020-q2-update\\arm-none-eabi\\inc
 168              		.file 5 "d:\\practise\\f407_disc\\lvgl\\lvgl\\src/misc/lv_ll.h"
 169              		.file 6 "c:\\program files (x86)\\gnu arm embedded toolchain\\9 2020-q2-update\\lib\\gcc\\arm-none
 170              		.file 7 "c:\\program files (x86)\\gnu arm embedded toolchain\\9 2020-q2-update\\arm-none-eabi\\inc
 171              		.file 8 "c:\\program files (x86)\\gnu arm embedded toolchain\\9 2020-q2-update\\arm-none-eabi\\inc
 172              		.file 9 "c:\\program files (x86)\\gnu arm embedded toolchain\\9 2020-q2-update\\arm-none-eabi\\inc
ARM GAS  C:\Users\gx\AppData\Local\Temp\ccSjx1f4.s 			page 8


 173              		.file 10 "d:\\practise\\f407_disc\\lvgl\\lvgl\\src\\misc\\lv_color.h"
 174              		.file 11 "d:\\practise\\f407_disc\\lvgl\\lvgl\\src\\misc\\lv_area.h"
 175              		.file 12 "d:\\practise\\f407_disc\\lvgl\\lvgl\\src/misc/lv_anim.h"
 176              		.file 13 "d:\\practise\\f407_disc\\lvgl\\lvgl\\src/core/lv_obj.h"
 177              		.file 14 "d:\\practise\\f407_disc\\lvgl\\lvgl\\src/core/lv_group.h"
 178              		.file 15 "d:\\practise\\f407_disc\\lvgl\\lvgl\\src\\font\\lv_font.h"
 179              		.file 16 "d:\\practise\\f407_disc\\lvgl\\lvgl\\src\\misc\\lv_txt.h"
 180              		.file 17 "d:\\practise\\f407_disc\\lvgl\\lvgl\\src\\misc\\lv_style.h"
 181              		.file 18 "d:\\practise\\f407_disc\\lvgl\\lvgl\\src/core/lv_obj_scroll.h"
 182              		.file 19 "d:\\practise\\f407_disc\\lvgl\\lvgl\\src/core/lv_obj_style.h"
 183              		.file 20 "d:\\practise\\f407_disc\\lvgl\\lvgl\\src\\draw\\lv_draw_label.h"
 184              		.file 21 "d:\\practise\\f407_disc\\lvgl\\lvgl\\src/core/lv_obj_class.h"
 185              		.file 22 "d:\\practise\\f407_disc\\lvgl\\lvgl\\src/core/lv_event.h"
 186              		.file 23 "d:\\practise\\f407_disc\\lvgl\\lvgl\\src/widgets/lv_arc.h"
 187              		.file 24 "d:\\practise\\f407_disc\\lvgl\\lvgl\\src/widgets/lv_btn.h"
 188              		.file 25 "d:\\practise\\f407_disc\\lvgl\\lvgl\\src/widgets/lv_img.h"
 189              		.file 26 "d:\\practise\\f407_disc\\lvgl\\lvgl\\src/widgets/lv_label.h"
 190              		.file 27 "d:\\practise\\f407_disc\\lvgl\\lvgl\\src/widgets/lv_line.h"
 191              		.file 28 "d:\\practise\\f407_disc\\lvgl\\lvgl\\src/widgets/lv_table.h"
 192              		.file 29 "d:\\practise\\f407_disc\\lvgl\\lvgl\\src/widgets/lv_checkbox.h"
 193              		.file 30 "d:\\practise\\f407_disc\\lvgl\\lvgl\\src/widgets/lv_bar.h"
 194              		.file 31 "d:\\practise\\f407_disc\\lvgl\\lvgl\\src/widgets/lv_slider.h"
 195              		.file 32 "d:\\practise\\f407_disc\\lvgl\\lvgl\\src/widgets/lv_btnmatrix.h"
 196              		.file 33 "d:\\practise\\f407_disc\\lvgl\\lvgl\\src/widgets/lv_dropdown.h"
 197              		.file 34 "d:\\practise\\f407_disc\\lvgl\\lvgl\\src/widgets/lv_roller.h"
 198              		.file 35 "d:\\practise\\f407_disc\\lvgl\\lvgl\\src/widgets/lv_textarea.h"
 199              		.file 36 "d:\\practise\\f407_disc\\lvgl\\lvgl\\src/widgets/lv_canvas.h"
 200              		.file 37 "d:\\practise\\f407_disc\\lvgl\\lvgl\\src/widgets/lv_switch.h"
 201              		.file 38 "d:\\practise\\f407_disc\\lvgl\\lvgl\\src/extra/widgets/animimg/lv_animimg.h"
 202              		.file 39 "d:\\practise\\f407_disc\\lvgl\\lvgl\\src/extra/widgets/calendar/lv_calendar.h"
 203              		.file 40 "d:\\practise\\f407_disc\\lvgl\\lvgl\\src/extra/widgets/calendar/lv_calendar_header_arrow
 204              		.file 41 "d:\\practise\\f407_disc\\lvgl\\lvgl\\src/extra/widgets/calendar/lv_calendar_header_dropd
 205              		.file 42 "d:\\practise\\f407_disc\\lvgl\\lvgl\\src/extra/widgets/chart/lv_chart.h"
 206              		.file 43 "d:\\practise\\f407_disc\\lvgl\\lvgl\\src/extra/widgets/keyboard/lv_keyboard.h"
 207              		.file 44 "d:\\practise\\f407_disc\\lvgl\\lvgl\\src\\extra\\layouts\\flex\\lv_flex.h"
 208              		.file 45 "d:\\practise\\f407_disc\\lvgl\\lvgl\\src/extra/widgets/list/lv_list.h"
 209              		.file 46 "d:\\practise\\f407_disc\\lvgl\\lvgl\\src/extra/widgets/msgbox/lv_msgbox.h"
 210              		.file 47 "d:\\practise\\f407_disc\\lvgl\\lvgl\\src/extra/widgets/meter/lv_meter.h"
 211              		.file 48 "d:\\practise\\f407_disc\\lvgl\\lvgl\\src/extra/widgets/spinbox/lv_spinbox.h"
 212              		.file 49 "d:\\practise\\f407_disc\\lvgl\\lvgl\\src/extra/widgets/spinner/lv_spinner.h"
 213              		.file 50 "d:\\practise\\f407_disc\\lvgl\\lvgl\\src/extra/widgets/tabview/lv_tabview.h"
 214              		.file 51 "d:\\practise\\f407_disc\\lvgl\\lvgl\\src/extra/widgets/tileview/lv_tileview.h"
 215              		.file 52 "d:\\practise\\f407_disc\\lvgl\\lvgl\\src/extra/widgets/win/lv_win.h"
 216              		.file 53 "d:\\practise\\f407_disc\\lvgl\\lvgl\\src/extra/widgets/colorwheel/lv_colorwheel.h"
 217              		.file 54 "d:\\practise\\f407_disc\\lvgl\\lvgl\\src/extra/widgets/led/lv_led.h"
 218              		.file 55 "d:\\practise\\f407_disc\\lvgl\\lvgl\\src/extra/widgets/imgbtn/lv_imgbtn.h"
 219              		.file 56 "d:\\practise\\f407_disc\\lvgl\\lvgl\\src/extra/widgets/span/lv_span.h"
 220              		.file 57 "d:\\practise\\f407_disc\\lvgl\\lvgl\\src/extra/layouts/grid/lv_grid.h"
 221              		.file 58 "d:\\practise\\f407_disc\\lvgl\\lvgl\\src/hal/lv_hal_disp.h"
ARM GAS  C:\Users\gx\AppData\Local\Temp\ccSjx1f4.s 			page 9

