ARM GAS  C:\Users\gx\AppData\Local\Temp\ccBUFnHD.s 			page 1


   1              		.cpu cortex-m4
   2              		.eabi_attribute 27, 1
   3              		.eabi_attribute 28, 1
   4              		.eabi_attribute 20, 1
   5              		.eabi_attribute 21, 1
   6              		.eabi_attribute 23, 3
   7              		.eabi_attribute 24, 1
   8              		.eabi_attribute 25, 1
   9              		.eabi_attribute 26, 1
  10              		.eabi_attribute 30, 1
  11              		.eabi_attribute 34, 1
  12              		.eabi_attribute 18, 4
  13              		.file	"lv_example_style_10.c"
  14              		.text
  15              	.Ltext0:
  16              		.cfi_sections	.debug_frame
  17              		.section	.text.lv_example_style_10,"ax",%progbits
  18              		.align	1
  19              		.global	lv_example_style_10
  20              		.arch armv7e-m
  21              		.syntax unified
  22              		.thumb
  23              		.thumb_func
  24              		.fpu fpv4-sp-d16
  26              	lv_example_style_10:
  27              	.LFB189:
  28              		.file 1 "lvgl/lvgl/examples/styles/lv_example_style_10.c"
   1:lvgl/lvgl/examples/styles/lv_example_style_10.c **** #include "../lv_examples.h"
   2:lvgl/lvgl/examples/styles/lv_example_style_10.c **** #if LV_BUILD_EXAMPLES && LV_USE_IMG
   3:lvgl/lvgl/examples/styles/lv_example_style_10.c **** 
   4:lvgl/lvgl/examples/styles/lv_example_style_10.c **** /**
   5:lvgl/lvgl/examples/styles/lv_example_style_10.c ****  * Creating a transition
   6:lvgl/lvgl/examples/styles/lv_example_style_10.c ****  */
   7:lvgl/lvgl/examples/styles/lv_example_style_10.c **** void lv_example_style_10(void)
   8:lvgl/lvgl/examples/styles/lv_example_style_10.c **** {
  29              		.loc 1 8 1 view -0
  30              		.cfi_startproc
  31              		@ args = 0, pretend = 0, frame = 0
  32              		@ frame_needed = 0, uses_anonymous_args = 0
  33 0000 2DE9F041 		push	{r4, r5, r6, r7, r8, lr}
  34              	.LCFI0:
  35              		.cfi_def_cfa_offset 24
  36              		.cfi_offset 4, -24
  37              		.cfi_offset 5, -20
  38              		.cfi_offset 6, -16
  39              		.cfi_offset 7, -12
  40              		.cfi_offset 8, -8
  41              		.cfi_offset 14, -4
  42 0004 82B0     		sub	sp, sp, #8
  43              	.LCFI1:
  44              		.cfi_def_cfa_offset 32
   9:lvgl/lvgl/examples/styles/lv_example_style_10.c ****     static const lv_style_prop_t props[] = {LV_STYLE_BG_COLOR, LV_STYLE_BORDER_COLOR, LV_STYLE_BORD
  45              		.loc 1 9 5 view .LVU1
  10:lvgl/lvgl/examples/styles/lv_example_style_10.c **** 
  11:lvgl/lvgl/examples/styles/lv_example_style_10.c ****     /* A default transition
  12:lvgl/lvgl/examples/styles/lv_example_style_10.c ****      * Make it fast (100ms) and start with some delay (200 ms)*/
  13:lvgl/lvgl/examples/styles/lv_example_style_10.c ****     static lv_style_transition_dsc_t trans_def;
ARM GAS  C:\Users\gx\AppData\Local\Temp\ccBUFnHD.s 			page 2


  46              		.loc 1 13 5 view .LVU2
  14:lvgl/lvgl/examples/styles/lv_example_style_10.c ****     lv_style_transition_dsc_init(&trans_def, props, lv_anim_path_linear, 100, 200, NULL);
  47              		.loc 1 14 5 view .LVU3
  48 0006 DFF8BC80 		ldr	r8, .L3+20
  49 000a 294F     		ldr	r7, .L3
  50 000c 294D     		ldr	r5, .L3+4
  51 000e 0024     		movs	r4, #0
  52 0010 0194     		str	r4, [sp, #4]
  53 0012 C823     		movs	r3, #200
  54 0014 0093     		str	r3, [sp]
  55 0016 6423     		movs	r3, #100
  56 0018 4246     		mov	r2, r8
  57 001a 3946     		mov	r1, r7
  58 001c 2846     		mov	r0, r5
  59 001e FFF7FEFF 		bl	lv_style_transition_dsc_init
  60              	.LVL0:
  15:lvgl/lvgl/examples/styles/lv_example_style_10.c **** 
  16:lvgl/lvgl/examples/styles/lv_example_style_10.c ****     /* A special transition when going to pressed state
  17:lvgl/lvgl/examples/styles/lv_example_style_10.c ****      * Make it slow (500 ms) but start  without delay*/
  18:lvgl/lvgl/examples/styles/lv_example_style_10.c ****     static lv_style_transition_dsc_t trans_pr;
  61              		.loc 1 18 5 view .LVU4
  19:lvgl/lvgl/examples/styles/lv_example_style_10.c ****     lv_style_transition_dsc_init(&trans_pr, props, lv_anim_path_linear, 500, 0, NULL);
  62              		.loc 1 19 5 view .LVU5
  63 0022 254E     		ldr	r6, .L3+8
  64 0024 0194     		str	r4, [sp, #4]
  65 0026 0094     		str	r4, [sp]
  66 0028 4FF4FA73 		mov	r3, #500
  67 002c 4246     		mov	r2, r8
  68 002e 3946     		mov	r1, r7
  69 0030 3046     		mov	r0, r6
  70 0032 FFF7FEFF 		bl	lv_style_transition_dsc_init
  71              	.LVL1:
  20:lvgl/lvgl/examples/styles/lv_example_style_10.c **** 
  21:lvgl/lvgl/examples/styles/lv_example_style_10.c ****     static lv_style_t style_def;
  72              		.loc 1 21 5 view .LVU6
  22:lvgl/lvgl/examples/styles/lv_example_style_10.c ****     lv_style_init(&style_def);
  73              		.loc 1 22 5 view .LVU7
  74 0036 214F     		ldr	r7, .L3+12
  75 0038 3846     		mov	r0, r7
  76 003a FFF7FEFF 		bl	lv_style_init
  77              	.LVL2:
  23:lvgl/lvgl/examples/styles/lv_example_style_10.c ****     lv_style_set_transition(&style_def, &trans_def);
  78              		.loc 1 23 5 view .LVU8
  79 003e 2946     		mov	r1, r5
  80 0040 3846     		mov	r0, r7
  81 0042 FFF7FEFF 		bl	lv_style_set_transition
  82              	.LVL3:
  24:lvgl/lvgl/examples/styles/lv_example_style_10.c **** 
  25:lvgl/lvgl/examples/styles/lv_example_style_10.c ****     static lv_style_t style_pr;
  83              		.loc 1 25 5 view .LVU9
  26:lvgl/lvgl/examples/styles/lv_example_style_10.c ****     lv_style_init(&style_pr);
  84              		.loc 1 26 5 view .LVU10
  85 0046 1E4D     		ldr	r5, .L3+16
  86 0048 2846     		mov	r0, r5
  87 004a FFF7FEFF 		bl	lv_style_init
  88              	.LVL4:
  27:lvgl/lvgl/examples/styles/lv_example_style_10.c ****     lv_style_set_bg_color(&style_pr, lv_palette_main(LV_PALETTE_RED));
ARM GAS  C:\Users\gx\AppData\Local\Temp\ccBUFnHD.s 			page 3


  89              		.loc 1 27 5 view .LVU11
  90 004e 2046     		mov	r0, r4
  91 0050 FFF7FEFF 		bl	lv_palette_main
  92              	.LVL5:
  93 0054 0146     		mov	r1, r0	@ movhi
  94 0056 2846     		mov	r0, r5
  95 0058 FFF7FEFF 		bl	lv_style_set_bg_color
  96              	.LVL6:
  28:lvgl/lvgl/examples/styles/lv_example_style_10.c ****     lv_style_set_border_width(&style_pr, 6);
  97              		.loc 1 28 5 view .LVU12
  98 005c 0621     		movs	r1, #6
  99 005e 2846     		mov	r0, r5
 100 0060 FFF7FEFF 		bl	lv_style_set_border_width
 101              	.LVL7:
  29:lvgl/lvgl/examples/styles/lv_example_style_10.c ****     lv_style_set_border_color(&style_pr, lv_palette_darken(LV_PALETTE_RED, 3));
 102              		.loc 1 29 5 view .LVU13
 103 0064 0321     		movs	r1, #3
 104 0066 2046     		mov	r0, r4
 105 0068 FFF7FEFF 		bl	lv_palette_darken
 106              	.LVL8:
 107 006c 0146     		mov	r1, r0	@ movhi
 108 006e 2846     		mov	r0, r5
 109 0070 FFF7FEFF 		bl	lv_style_set_border_color
 110              	.LVL9:
  30:lvgl/lvgl/examples/styles/lv_example_style_10.c ****     lv_style_set_transition(&style_pr, &trans_pr);
 111              		.loc 1 30 5 view .LVU14
 112 0074 3146     		mov	r1, r6
 113 0076 2846     		mov	r0, r5
 114 0078 FFF7FEFF 		bl	lv_style_set_transition
 115              	.LVL10:
  31:lvgl/lvgl/examples/styles/lv_example_style_10.c **** 
  32:lvgl/lvgl/examples/styles/lv_example_style_10.c ****     /*Create an object with the new style_pr*/
  33:lvgl/lvgl/examples/styles/lv_example_style_10.c ****     lv_obj_t * obj = lv_obj_create(lv_scr_act());
 116              		.loc 1 33 5 view .LVU15
 117              	.LBB6:
 118              	.LBI6:
 119              		.file 2 "lvgl/lvgl/examples/styles/../../src/core/lv_disp.h"
   1:lvgl/lvgl/examples/styles/../../src/core/lv_disp.h **** /**
   2:lvgl/lvgl/examples/styles/../../src/core/lv_disp.h ****  * @file lv_disp.h
   3:lvgl/lvgl/examples/styles/../../src/core/lv_disp.h ****  *
   4:lvgl/lvgl/examples/styles/../../src/core/lv_disp.h ****  */
   5:lvgl/lvgl/examples/styles/../../src/core/lv_disp.h **** 
   6:lvgl/lvgl/examples/styles/../../src/core/lv_disp.h **** #ifndef LV_DISP_H
   7:lvgl/lvgl/examples/styles/../../src/core/lv_disp.h **** #define LV_DISP_H
   8:lvgl/lvgl/examples/styles/../../src/core/lv_disp.h **** 
   9:lvgl/lvgl/examples/styles/../../src/core/lv_disp.h **** #ifdef __cplusplus
  10:lvgl/lvgl/examples/styles/../../src/core/lv_disp.h **** extern "C" {
  11:lvgl/lvgl/examples/styles/../../src/core/lv_disp.h **** #endif
  12:lvgl/lvgl/examples/styles/../../src/core/lv_disp.h **** 
  13:lvgl/lvgl/examples/styles/../../src/core/lv_disp.h **** /*********************
  14:lvgl/lvgl/examples/styles/../../src/core/lv_disp.h ****  *      INCLUDES
  15:lvgl/lvgl/examples/styles/../../src/core/lv_disp.h ****  *********************/
  16:lvgl/lvgl/examples/styles/../../src/core/lv_disp.h **** #include "../hal/lv_hal.h"
  17:lvgl/lvgl/examples/styles/../../src/core/lv_disp.h **** #include "lv_obj.h"
  18:lvgl/lvgl/examples/styles/../../src/core/lv_disp.h **** #include "lv_theme.h"
  19:lvgl/lvgl/examples/styles/../../src/core/lv_disp.h **** 
  20:lvgl/lvgl/examples/styles/../../src/core/lv_disp.h **** /*********************
ARM GAS  C:\Users\gx\AppData\Local\Temp\ccBUFnHD.s 			page 4


  21:lvgl/lvgl/examples/styles/../../src/core/lv_disp.h ****  *      DEFINES
  22:lvgl/lvgl/examples/styles/../../src/core/lv_disp.h ****  *********************/
  23:lvgl/lvgl/examples/styles/../../src/core/lv_disp.h **** 
  24:lvgl/lvgl/examples/styles/../../src/core/lv_disp.h **** /**********************
  25:lvgl/lvgl/examples/styles/../../src/core/lv_disp.h ****  *      TYPEDEFS
  26:lvgl/lvgl/examples/styles/../../src/core/lv_disp.h ****  **********************/
  27:lvgl/lvgl/examples/styles/../../src/core/lv_disp.h **** 
  28:lvgl/lvgl/examples/styles/../../src/core/lv_disp.h **** typedef enum {
  29:lvgl/lvgl/examples/styles/../../src/core/lv_disp.h ****     LV_SCR_LOAD_ANIM_NONE,
  30:lvgl/lvgl/examples/styles/../../src/core/lv_disp.h ****     LV_SCR_LOAD_ANIM_OVER_LEFT,
  31:lvgl/lvgl/examples/styles/../../src/core/lv_disp.h ****     LV_SCR_LOAD_ANIM_OVER_RIGHT,
  32:lvgl/lvgl/examples/styles/../../src/core/lv_disp.h ****     LV_SCR_LOAD_ANIM_OVER_TOP,
  33:lvgl/lvgl/examples/styles/../../src/core/lv_disp.h ****     LV_SCR_LOAD_ANIM_OVER_BOTTOM,
  34:lvgl/lvgl/examples/styles/../../src/core/lv_disp.h ****     LV_SCR_LOAD_ANIM_MOVE_LEFT,
  35:lvgl/lvgl/examples/styles/../../src/core/lv_disp.h ****     LV_SCR_LOAD_ANIM_MOVE_RIGHT,
  36:lvgl/lvgl/examples/styles/../../src/core/lv_disp.h ****     LV_SCR_LOAD_ANIM_MOVE_TOP,
  37:lvgl/lvgl/examples/styles/../../src/core/lv_disp.h ****     LV_SCR_LOAD_ANIM_MOVE_BOTTOM,
  38:lvgl/lvgl/examples/styles/../../src/core/lv_disp.h ****     LV_SCR_LOAD_ANIM_FADE_ON,
  39:lvgl/lvgl/examples/styles/../../src/core/lv_disp.h **** } lv_scr_load_anim_t;
  40:lvgl/lvgl/examples/styles/../../src/core/lv_disp.h **** 
  41:lvgl/lvgl/examples/styles/../../src/core/lv_disp.h **** /**********************
  42:lvgl/lvgl/examples/styles/../../src/core/lv_disp.h ****  * GLOBAL PROTOTYPES
  43:lvgl/lvgl/examples/styles/../../src/core/lv_disp.h ****  **********************/
  44:lvgl/lvgl/examples/styles/../../src/core/lv_disp.h **** 
  45:lvgl/lvgl/examples/styles/../../src/core/lv_disp.h **** /**
  46:lvgl/lvgl/examples/styles/../../src/core/lv_disp.h ****  * Return with a pointer to the active screen
  47:lvgl/lvgl/examples/styles/../../src/core/lv_disp.h ****  * @param disp pointer to display which active screen should be get. (NULL to use the default
  48:lvgl/lvgl/examples/styles/../../src/core/lv_disp.h ****  * screen)
  49:lvgl/lvgl/examples/styles/../../src/core/lv_disp.h ****  * @return pointer to the active screen object (loaded by 'lv_scr_load()')
  50:lvgl/lvgl/examples/styles/../../src/core/lv_disp.h ****  */
  51:lvgl/lvgl/examples/styles/../../src/core/lv_disp.h **** lv_obj_t * lv_disp_get_scr_act(lv_disp_t * disp);
  52:lvgl/lvgl/examples/styles/../../src/core/lv_disp.h **** 
  53:lvgl/lvgl/examples/styles/../../src/core/lv_disp.h **** /**
  54:lvgl/lvgl/examples/styles/../../src/core/lv_disp.h ****  * Return with a pointer to the previous screen. Only used during screen transitions.
  55:lvgl/lvgl/examples/styles/../../src/core/lv_disp.h ****  * @param disp pointer to display which previous screen should be get. (NULL to use the default
  56:lvgl/lvgl/examples/styles/../../src/core/lv_disp.h ****  * screen)
  57:lvgl/lvgl/examples/styles/../../src/core/lv_disp.h ****  * @return pointer to the previous screen object or NULL if not used now
  58:lvgl/lvgl/examples/styles/../../src/core/lv_disp.h ****  */
  59:lvgl/lvgl/examples/styles/../../src/core/lv_disp.h **** lv_obj_t * lv_disp_get_scr_prev(lv_disp_t * disp);
  60:lvgl/lvgl/examples/styles/../../src/core/lv_disp.h **** 
  61:lvgl/lvgl/examples/styles/../../src/core/lv_disp.h **** /**
  62:lvgl/lvgl/examples/styles/../../src/core/lv_disp.h ****  * Make a screen active
  63:lvgl/lvgl/examples/styles/../../src/core/lv_disp.h ****  * @param scr pointer to a screen
  64:lvgl/lvgl/examples/styles/../../src/core/lv_disp.h ****  */
  65:lvgl/lvgl/examples/styles/../../src/core/lv_disp.h **** void lv_disp_load_scr(lv_obj_t * scr);
  66:lvgl/lvgl/examples/styles/../../src/core/lv_disp.h **** 
  67:lvgl/lvgl/examples/styles/../../src/core/lv_disp.h **** /**
  68:lvgl/lvgl/examples/styles/../../src/core/lv_disp.h ****  * Return with the top layer. (Same on every screen and it is above the normal screen layer)
  69:lvgl/lvgl/examples/styles/../../src/core/lv_disp.h ****  * @param disp pointer to display which top layer should be get. (NULL to use the default screen)
  70:lvgl/lvgl/examples/styles/../../src/core/lv_disp.h ****  * @return pointer to the top layer object  (transparent screen sized lv_obj)
  71:lvgl/lvgl/examples/styles/../../src/core/lv_disp.h ****  */
  72:lvgl/lvgl/examples/styles/../../src/core/lv_disp.h **** lv_obj_t * lv_disp_get_layer_top(lv_disp_t * disp);
  73:lvgl/lvgl/examples/styles/../../src/core/lv_disp.h **** 
  74:lvgl/lvgl/examples/styles/../../src/core/lv_disp.h **** /**
  75:lvgl/lvgl/examples/styles/../../src/core/lv_disp.h ****  * Return with the sys. layer. (Same on every screen and it is above the normal screen and the top
  76:lvgl/lvgl/examples/styles/../../src/core/lv_disp.h ****  * layer)
  77:lvgl/lvgl/examples/styles/../../src/core/lv_disp.h ****  * @param disp pointer to display which sys. layer  should be get. (NULL to use the default screen)
ARM GAS  C:\Users\gx\AppData\Local\Temp\ccBUFnHD.s 			page 5


  78:lvgl/lvgl/examples/styles/../../src/core/lv_disp.h ****  * @return pointer to the sys layer object  (transparent screen sized lv_obj)
  79:lvgl/lvgl/examples/styles/../../src/core/lv_disp.h ****  */
  80:lvgl/lvgl/examples/styles/../../src/core/lv_disp.h **** lv_obj_t * lv_disp_get_layer_sys(lv_disp_t * disp);
  81:lvgl/lvgl/examples/styles/../../src/core/lv_disp.h **** 
  82:lvgl/lvgl/examples/styles/../../src/core/lv_disp.h **** /**
  83:lvgl/lvgl/examples/styles/../../src/core/lv_disp.h ****  * Get the theme of a display
  84:lvgl/lvgl/examples/styles/../../src/core/lv_disp.h ****  * @param disp pointer to a display
  85:lvgl/lvgl/examples/styles/../../src/core/lv_disp.h ****  * @return the display's theme (can be NULL)
  86:lvgl/lvgl/examples/styles/../../src/core/lv_disp.h ****  */
  87:lvgl/lvgl/examples/styles/../../src/core/lv_disp.h **** void lv_disp_set_theme(lv_disp_t * disp, lv_theme_t * th);
  88:lvgl/lvgl/examples/styles/../../src/core/lv_disp.h **** 
  89:lvgl/lvgl/examples/styles/../../src/core/lv_disp.h **** /**
  90:lvgl/lvgl/examples/styles/../../src/core/lv_disp.h ****  * Get the theme of a display
  91:lvgl/lvgl/examples/styles/../../src/core/lv_disp.h ****  * @param disp pointer to a display
  92:lvgl/lvgl/examples/styles/../../src/core/lv_disp.h ****  * @return the display's theme (can be NULL)
  93:lvgl/lvgl/examples/styles/../../src/core/lv_disp.h ****  */
  94:lvgl/lvgl/examples/styles/../../src/core/lv_disp.h **** lv_theme_t * lv_disp_get_theme(lv_disp_t * disp);
  95:lvgl/lvgl/examples/styles/../../src/core/lv_disp.h **** 
  96:lvgl/lvgl/examples/styles/../../src/core/lv_disp.h **** /**
  97:lvgl/lvgl/examples/styles/../../src/core/lv_disp.h ****  * Set the background color of a display
  98:lvgl/lvgl/examples/styles/../../src/core/lv_disp.h ****  * @param disp pointer to a display
  99:lvgl/lvgl/examples/styles/../../src/core/lv_disp.h ****  * @param color color of the background
 100:lvgl/lvgl/examples/styles/../../src/core/lv_disp.h ****  */
 101:lvgl/lvgl/examples/styles/../../src/core/lv_disp.h **** void lv_disp_set_bg_color(lv_disp_t * disp, lv_color_t color);
 102:lvgl/lvgl/examples/styles/../../src/core/lv_disp.h **** 
 103:lvgl/lvgl/examples/styles/../../src/core/lv_disp.h **** /**
 104:lvgl/lvgl/examples/styles/../../src/core/lv_disp.h ****  * Set the background image of a display
 105:lvgl/lvgl/examples/styles/../../src/core/lv_disp.h ****  * @param disp pointer to a display
 106:lvgl/lvgl/examples/styles/../../src/core/lv_disp.h ****  * @param img_src path to file or pointer to an `lv_img_dsc_t` variable
 107:lvgl/lvgl/examples/styles/../../src/core/lv_disp.h ****  */
 108:lvgl/lvgl/examples/styles/../../src/core/lv_disp.h **** void lv_disp_set_bg_image(lv_disp_t * disp, const void  * img_src);
 109:lvgl/lvgl/examples/styles/../../src/core/lv_disp.h **** 
 110:lvgl/lvgl/examples/styles/../../src/core/lv_disp.h **** /**
 111:lvgl/lvgl/examples/styles/../../src/core/lv_disp.h ****  * Opacity of the background
 112:lvgl/lvgl/examples/styles/../../src/core/lv_disp.h ****  * @param disp pointer to a display
 113:lvgl/lvgl/examples/styles/../../src/core/lv_disp.h ****  * @param opa opacity (0..255)
 114:lvgl/lvgl/examples/styles/../../src/core/lv_disp.h ****  */
 115:lvgl/lvgl/examples/styles/../../src/core/lv_disp.h **** void lv_disp_set_bg_opa(lv_disp_t * disp, lv_opa_t opa);
 116:lvgl/lvgl/examples/styles/../../src/core/lv_disp.h **** 
 117:lvgl/lvgl/examples/styles/../../src/core/lv_disp.h **** /**
 118:lvgl/lvgl/examples/styles/../../src/core/lv_disp.h ****  * Switch screen with animation
 119:lvgl/lvgl/examples/styles/../../src/core/lv_disp.h ****  * @param scr pointer to the new screen to load
 120:lvgl/lvgl/examples/styles/../../src/core/lv_disp.h ****  * @param anim_type type of the animation from `lv_scr_load_anim_t`. E.g.  `LV_SCR_LOAD_ANIM_MOVE_L
 121:lvgl/lvgl/examples/styles/../../src/core/lv_disp.h ****  * @param time time of the animation
 122:lvgl/lvgl/examples/styles/../../src/core/lv_disp.h ****  * @param delay delay before the transition
 123:lvgl/lvgl/examples/styles/../../src/core/lv_disp.h ****  * @param auto_del true: automatically delete the old screen
 124:lvgl/lvgl/examples/styles/../../src/core/lv_disp.h ****  */
 125:lvgl/lvgl/examples/styles/../../src/core/lv_disp.h **** void lv_scr_load_anim(lv_obj_t * scr, lv_scr_load_anim_t anim_type, uint32_t time, uint32_t delay, 
 126:lvgl/lvgl/examples/styles/../../src/core/lv_disp.h **** 
 127:lvgl/lvgl/examples/styles/../../src/core/lv_disp.h **** /**
 128:lvgl/lvgl/examples/styles/../../src/core/lv_disp.h ****  * Get elapsed time since last user activity on a display (e.g. click)
 129:lvgl/lvgl/examples/styles/../../src/core/lv_disp.h ****  * @param disp pointer to an display (NULL to get the overall smallest inactivity)
 130:lvgl/lvgl/examples/styles/../../src/core/lv_disp.h ****  * @return elapsed ticks (milliseconds) since the last activity
 131:lvgl/lvgl/examples/styles/../../src/core/lv_disp.h ****  */
 132:lvgl/lvgl/examples/styles/../../src/core/lv_disp.h **** uint32_t lv_disp_get_inactive_time(const lv_disp_t * disp);
 133:lvgl/lvgl/examples/styles/../../src/core/lv_disp.h **** 
 134:lvgl/lvgl/examples/styles/../../src/core/lv_disp.h **** /**
ARM GAS  C:\Users\gx\AppData\Local\Temp\ccBUFnHD.s 			page 6


 135:lvgl/lvgl/examples/styles/../../src/core/lv_disp.h ****  * Manually trigger an activity on a display
 136:lvgl/lvgl/examples/styles/../../src/core/lv_disp.h ****  * @param disp pointer to an display (NULL to use the default display)
 137:lvgl/lvgl/examples/styles/../../src/core/lv_disp.h ****  */
 138:lvgl/lvgl/examples/styles/../../src/core/lv_disp.h **** void lv_disp_trig_activity(lv_disp_t * disp);
 139:lvgl/lvgl/examples/styles/../../src/core/lv_disp.h **** 
 140:lvgl/lvgl/examples/styles/../../src/core/lv_disp.h **** /**
 141:lvgl/lvgl/examples/styles/../../src/core/lv_disp.h ****  * Clean any CPU cache that is related to the display.
 142:lvgl/lvgl/examples/styles/../../src/core/lv_disp.h ****  * @param disp pointer to an display (NULL to use the default display)
 143:lvgl/lvgl/examples/styles/../../src/core/lv_disp.h ****  */
 144:lvgl/lvgl/examples/styles/../../src/core/lv_disp.h **** void lv_disp_clean_dcache(lv_disp_t * disp);
 145:lvgl/lvgl/examples/styles/../../src/core/lv_disp.h **** 
 146:lvgl/lvgl/examples/styles/../../src/core/lv_disp.h **** /**
 147:lvgl/lvgl/examples/styles/../../src/core/lv_disp.h ****  * Get a pointer to the screen refresher timer to
 148:lvgl/lvgl/examples/styles/../../src/core/lv_disp.h ****  * modify its parameters with `lv_timer_...` functions.
 149:lvgl/lvgl/examples/styles/../../src/core/lv_disp.h ****  * @param disp pointer to a display
 150:lvgl/lvgl/examples/styles/../../src/core/lv_disp.h ****  * @return pointer to the display refresher timer. (NULL on error)
 151:lvgl/lvgl/examples/styles/../../src/core/lv_disp.h ****  */
 152:lvgl/lvgl/examples/styles/../../src/core/lv_disp.h **** lv_timer_t * _lv_disp_get_refr_timer(lv_disp_t * disp);
 153:lvgl/lvgl/examples/styles/../../src/core/lv_disp.h **** 
 154:lvgl/lvgl/examples/styles/../../src/core/lv_disp.h **** /*------------------------------------------------
 155:lvgl/lvgl/examples/styles/../../src/core/lv_disp.h ****  * To improve backward compatibility
 156:lvgl/lvgl/examples/styles/../../src/core/lv_disp.h ****  * Recommended only if you have one display
 157:lvgl/lvgl/examples/styles/../../src/core/lv_disp.h ****  *------------------------------------------------*/
 158:lvgl/lvgl/examples/styles/../../src/core/lv_disp.h **** 
 159:lvgl/lvgl/examples/styles/../../src/core/lv_disp.h **** /**
 160:lvgl/lvgl/examples/styles/../../src/core/lv_disp.h ****  * Get the active screen of the default display
 161:lvgl/lvgl/examples/styles/../../src/core/lv_disp.h ****  * @return pointer to the active screen
 162:lvgl/lvgl/examples/styles/../../src/core/lv_disp.h ****  */
 163:lvgl/lvgl/examples/styles/../../src/core/lv_disp.h **** static inline lv_obj_t * lv_scr_act(void)
 120              		.loc 2 163 26 view .LVU16
 121              	.LBB7:
 164:lvgl/lvgl/examples/styles/../../src/core/lv_disp.h **** {
 165:lvgl/lvgl/examples/styles/../../src/core/lv_disp.h ****     return lv_disp_get_scr_act(lv_disp_get_default());
 122              		.loc 2 165 5 view .LVU17
 123              		.loc 2 165 12 is_stmt 0 view .LVU18
 124 007c FFF7FEFF 		bl	lv_disp_get_default
 125              	.LVL11:
 126 0080 FFF7FEFF 		bl	lv_disp_get_scr_act
 127              	.LVL12:
 128              	.LBE7:
 129              	.LBE6:
 130              		.loc 1 33 22 view .LVU19
 131 0084 FFF7FEFF 		bl	lv_obj_create
 132              	.LVL13:
 133 0088 0646     		mov	r6, r0
 134              	.LVL14:
  34:lvgl/lvgl/examples/styles/lv_example_style_10.c ****     lv_obj_add_style(obj, &style_def, 0);
 135              		.loc 1 34 5 is_stmt 1 view .LVU20
 136 008a 2246     		mov	r2, r4
 137 008c 3946     		mov	r1, r7
 138 008e FFF7FEFF 		bl	lv_obj_add_style
 139              	.LVL15:
  35:lvgl/lvgl/examples/styles/lv_example_style_10.c ****     lv_obj_add_style(obj, &style_pr, LV_STATE_PRESSED);
 140              		.loc 1 35 5 view .LVU21
 141 0092 2022     		movs	r2, #32
 142 0094 2946     		mov	r1, r5
 143 0096 3046     		mov	r0, r6
ARM GAS  C:\Users\gx\AppData\Local\Temp\ccBUFnHD.s 			page 7


 144 0098 FFF7FEFF 		bl	lv_obj_add_style
 145              	.LVL16:
  36:lvgl/lvgl/examples/styles/lv_example_style_10.c **** 
  37:lvgl/lvgl/examples/styles/lv_example_style_10.c ****     lv_obj_center(obj);
 146              		.loc 1 37 5 view .LVU22
 147              	.LBB8:
 148              	.LBI8:
 149              		.file 3 "lvgl/lvgl/examples/styles/../../src/core/lv_obj_pos.h"
   1:lvgl/lvgl/examples/styles/../../src/core/lv_obj_pos.h **** /**
   2:lvgl/lvgl/examples/styles/../../src/core/lv_obj_pos.h ****  * @file lv_obj_pos.h
   3:lvgl/lvgl/examples/styles/../../src/core/lv_obj_pos.h ****  *
   4:lvgl/lvgl/examples/styles/../../src/core/lv_obj_pos.h ****  */
   5:lvgl/lvgl/examples/styles/../../src/core/lv_obj_pos.h **** 
   6:lvgl/lvgl/examples/styles/../../src/core/lv_obj_pos.h **** #ifndef LV_OBJ_POS_H
   7:lvgl/lvgl/examples/styles/../../src/core/lv_obj_pos.h **** #define LV_OBJ_POS_H
   8:lvgl/lvgl/examples/styles/../../src/core/lv_obj_pos.h **** 
   9:lvgl/lvgl/examples/styles/../../src/core/lv_obj_pos.h **** #ifdef __cplusplus
  10:lvgl/lvgl/examples/styles/../../src/core/lv_obj_pos.h **** extern "C" {
  11:lvgl/lvgl/examples/styles/../../src/core/lv_obj_pos.h **** #endif
  12:lvgl/lvgl/examples/styles/../../src/core/lv_obj_pos.h **** 
  13:lvgl/lvgl/examples/styles/../../src/core/lv_obj_pos.h **** /*********************
  14:lvgl/lvgl/examples/styles/../../src/core/lv_obj_pos.h ****  *      INCLUDES
  15:lvgl/lvgl/examples/styles/../../src/core/lv_obj_pos.h ****  *********************/
  16:lvgl/lvgl/examples/styles/../../src/core/lv_obj_pos.h **** #include "../misc/lv_area.h"
  17:lvgl/lvgl/examples/styles/../../src/core/lv_obj_pos.h **** 
  18:lvgl/lvgl/examples/styles/../../src/core/lv_obj_pos.h **** /*********************
  19:lvgl/lvgl/examples/styles/../../src/core/lv_obj_pos.h ****  *      DEFINES
  20:lvgl/lvgl/examples/styles/../../src/core/lv_obj_pos.h ****  *********************/
  21:lvgl/lvgl/examples/styles/../../src/core/lv_obj_pos.h **** 
  22:lvgl/lvgl/examples/styles/../../src/core/lv_obj_pos.h **** /**********************
  23:lvgl/lvgl/examples/styles/../../src/core/lv_obj_pos.h ****  *      TYPEDEFS
  24:lvgl/lvgl/examples/styles/../../src/core/lv_obj_pos.h ****  **********************/
  25:lvgl/lvgl/examples/styles/../../src/core/lv_obj_pos.h **** struct _lv_obj_t;
  26:lvgl/lvgl/examples/styles/../../src/core/lv_obj_pos.h **** 
  27:lvgl/lvgl/examples/styles/../../src/core/lv_obj_pos.h **** typedef void (*lv_layout_update_cb_t)(struct _lv_obj_t *, void * user_data);
  28:lvgl/lvgl/examples/styles/../../src/core/lv_obj_pos.h **** typedef struct {
  29:lvgl/lvgl/examples/styles/../../src/core/lv_obj_pos.h ****     lv_layout_update_cb_t cb;
  30:lvgl/lvgl/examples/styles/../../src/core/lv_obj_pos.h ****     void * user_data;
  31:lvgl/lvgl/examples/styles/../../src/core/lv_obj_pos.h **** }lv_layout_dsc_t;
  32:lvgl/lvgl/examples/styles/../../src/core/lv_obj_pos.h **** 
  33:lvgl/lvgl/examples/styles/../../src/core/lv_obj_pos.h **** /**********************
  34:lvgl/lvgl/examples/styles/../../src/core/lv_obj_pos.h ****  * GLOBAL PROTOTYPES
  35:lvgl/lvgl/examples/styles/../../src/core/lv_obj_pos.h ****  **********************/
  36:lvgl/lvgl/examples/styles/../../src/core/lv_obj_pos.h **** 
  37:lvgl/lvgl/examples/styles/../../src/core/lv_obj_pos.h **** /**
  38:lvgl/lvgl/examples/styles/../../src/core/lv_obj_pos.h ****  * Set the relative the position of an object (relative to the parent's top left corner)
  39:lvgl/lvgl/examples/styles/../../src/core/lv_obj_pos.h ****  * @param obj       pointer to an object
  40:lvgl/lvgl/examples/styles/../../src/core/lv_obj_pos.h ****  * @param x         new distance from the left side of the parent plus the parent's left padding
  41:lvgl/lvgl/examples/styles/../../src/core/lv_obj_pos.h ****  * @param y         new distance from the top side of the parent  plus the parent's right padding
  42:lvgl/lvgl/examples/styles/../../src/core/lv_obj_pos.h ****  */
  43:lvgl/lvgl/examples/styles/../../src/core/lv_obj_pos.h **** void lv_obj_set_pos(struct _lv_obj_t * obj, lv_coord_t x, lv_coord_t y);
  44:lvgl/lvgl/examples/styles/../../src/core/lv_obj_pos.h **** 
  45:lvgl/lvgl/examples/styles/../../src/core/lv_obj_pos.h **** /**
  46:lvgl/lvgl/examples/styles/../../src/core/lv_obj_pos.h ****  * Set the x coordinate of a object
  47:lvgl/lvgl/examples/styles/../../src/core/lv_obj_pos.h ****  * @param obj       pointer to an object
  48:lvgl/lvgl/examples/styles/../../src/core/lv_obj_pos.h ****  * @param x         new distance from the left side from the parent plus the parent's left padding
  49:lvgl/lvgl/examples/styles/../../src/core/lv_obj_pos.h ****  */
ARM GAS  C:\Users\gx\AppData\Local\Temp\ccBUFnHD.s 			page 8


  50:lvgl/lvgl/examples/styles/../../src/core/lv_obj_pos.h **** void lv_obj_set_x(struct _lv_obj_t * obj, lv_coord_t x);
  51:lvgl/lvgl/examples/styles/../../src/core/lv_obj_pos.h **** 
  52:lvgl/lvgl/examples/styles/../../src/core/lv_obj_pos.h **** /**
  53:lvgl/lvgl/examples/styles/../../src/core/lv_obj_pos.h ****  * Set the y coordinate of a object
  54:lvgl/lvgl/examples/styles/../../src/core/lv_obj_pos.h ****  * @param obj       pointer to an object
  55:lvgl/lvgl/examples/styles/../../src/core/lv_obj_pos.h ****  * @param y         new distance from the top of the parent  plus the parent's top padding
  56:lvgl/lvgl/examples/styles/../../src/core/lv_obj_pos.h ****  */
  57:lvgl/lvgl/examples/styles/../../src/core/lv_obj_pos.h **** void lv_obj_set_y(struct _lv_obj_t * obj, lv_coord_t y);
  58:lvgl/lvgl/examples/styles/../../src/core/lv_obj_pos.h **** 
  59:lvgl/lvgl/examples/styles/../../src/core/lv_obj_pos.h **** /**
  60:lvgl/lvgl/examples/styles/../../src/core/lv_obj_pos.h ****  * Set the size of an object.
  61:lvgl/lvgl/examples/styles/../../src/core/lv_obj_pos.h ****  * @param obj       pointer to an object
  62:lvgl/lvgl/examples/styles/../../src/core/lv_obj_pos.h ****  * @param w         the new width
  63:lvgl/lvgl/examples/styles/../../src/core/lv_obj_pos.h ****  * @param h         the new height
  64:lvgl/lvgl/examples/styles/../../src/core/lv_obj_pos.h ****  * @note            possible values are:
  65:lvgl/lvgl/examples/styles/../../src/core/lv_obj_pos.h ****  *                  pixel               simple set the size accordingly
  66:lvgl/lvgl/examples/styles/../../src/core/lv_obj_pos.h ****  *                  LV_SIZE_CONTENT     set the size to involve all children in the given direction
  67:lvgl/lvgl/examples/styles/../../src/core/lv_obj_pos.h ****  *                  LV_SIZE_PCT(x)     to set size in percentage of the parent's content area size 
  68:lvgl/lvgl/examples/styles/../../src/core/lv_obj_pos.h ****  *                                      x should be in [0..1000]% range
  69:lvgl/lvgl/examples/styles/../../src/core/lv_obj_pos.h ****  */
  70:lvgl/lvgl/examples/styles/../../src/core/lv_obj_pos.h **** void lv_obj_set_size(struct _lv_obj_t * obj, lv_coord_t w, lv_coord_t h);
  71:lvgl/lvgl/examples/styles/../../src/core/lv_obj_pos.h **** 
  72:lvgl/lvgl/examples/styles/../../src/core/lv_obj_pos.h **** /**
  73:lvgl/lvgl/examples/styles/../../src/core/lv_obj_pos.h ****  * Recalculate the size of the object
  74:lvgl/lvgl/examples/styles/../../src/core/lv_obj_pos.h ****  * @param obj       pointer to an object
  75:lvgl/lvgl/examples/styles/../../src/core/lv_obj_pos.h ****  * @return          true: the size has been changed
  76:lvgl/lvgl/examples/styles/../../src/core/lv_obj_pos.h ****  */
  77:lvgl/lvgl/examples/styles/../../src/core/lv_obj_pos.h **** bool lv_obj_refr_size(struct _lv_obj_t * obj);
  78:lvgl/lvgl/examples/styles/../../src/core/lv_obj_pos.h **** 
  79:lvgl/lvgl/examples/styles/../../src/core/lv_obj_pos.h **** /**
  80:lvgl/lvgl/examples/styles/../../src/core/lv_obj_pos.h ****  * Set the width of an object
  81:lvgl/lvgl/examples/styles/../../src/core/lv_obj_pos.h ****  * @param obj       pointer to an object
  82:lvgl/lvgl/examples/styles/../../src/core/lv_obj_pos.h ****  * @param w         the new width
  83:lvgl/lvgl/examples/styles/../../src/core/lv_obj_pos.h ****  * @note            possible values are:
  84:lvgl/lvgl/examples/styles/../../src/core/lv_obj_pos.h ****  *                  pixel               simple set the size accordingly
  85:lvgl/lvgl/examples/styles/../../src/core/lv_obj_pos.h ****  *                  LV_SIZE_CONTENT     set the size to involve all children in the given direction
  86:lvgl/lvgl/examples/styles/../../src/core/lv_obj_pos.h ****  *                  lv_pct(x)           to set size in percentage of the parent's content area size
  87:lvgl/lvgl/examples/styles/../../src/core/lv_obj_pos.h ****  *                                      x should be in [0..1000]% range
  88:lvgl/lvgl/examples/styles/../../src/core/lv_obj_pos.h ****  */
  89:lvgl/lvgl/examples/styles/../../src/core/lv_obj_pos.h **** void lv_obj_set_width(struct _lv_obj_t * obj, lv_coord_t w);
  90:lvgl/lvgl/examples/styles/../../src/core/lv_obj_pos.h **** 
  91:lvgl/lvgl/examples/styles/../../src/core/lv_obj_pos.h **** /**
  92:lvgl/lvgl/examples/styles/../../src/core/lv_obj_pos.h ****  * Set the height of an object
  93:lvgl/lvgl/examples/styles/../../src/core/lv_obj_pos.h ****  * @param obj       pointer to an object
  94:lvgl/lvgl/examples/styles/../../src/core/lv_obj_pos.h ****  * @param h         the new height
  95:lvgl/lvgl/examples/styles/../../src/core/lv_obj_pos.h ****  * @note            possible values are:
  96:lvgl/lvgl/examples/styles/../../src/core/lv_obj_pos.h ****  *                  pixel               simple set the size accordingly
  97:lvgl/lvgl/examples/styles/../../src/core/lv_obj_pos.h ****  *                  LV_SIZE_CONTENT     set the size to involve all children in the given direction
  98:lvgl/lvgl/examples/styles/../../src/core/lv_obj_pos.h ****  *                  lv_pct(x)           to set size in percentage of the parent's content area size
  99:lvgl/lvgl/examples/styles/../../src/core/lv_obj_pos.h ****  *                                      x should be in [0..1000]% range
 100:lvgl/lvgl/examples/styles/../../src/core/lv_obj_pos.h ****  */
 101:lvgl/lvgl/examples/styles/../../src/core/lv_obj_pos.h **** void lv_obj_set_height(struct _lv_obj_t * obj, lv_coord_t h);
 102:lvgl/lvgl/examples/styles/../../src/core/lv_obj_pos.h **** 
 103:lvgl/lvgl/examples/styles/../../src/core/lv_obj_pos.h **** /**
 104:lvgl/lvgl/examples/styles/../../src/core/lv_obj_pos.h ****  * Set the width reduced by the left and right padding and the border width.
 105:lvgl/lvgl/examples/styles/../../src/core/lv_obj_pos.h ****  * @param obj       pointer to an object
 106:lvgl/lvgl/examples/styles/../../src/core/lv_obj_pos.h ****  * @param w         the width without paddings in pixels
ARM GAS  C:\Users\gx\AppData\Local\Temp\ccBUFnHD.s 			page 9


 107:lvgl/lvgl/examples/styles/../../src/core/lv_obj_pos.h ****  */
 108:lvgl/lvgl/examples/styles/../../src/core/lv_obj_pos.h **** void lv_obj_set_content_width(struct _lv_obj_t * obj, lv_coord_t w);
 109:lvgl/lvgl/examples/styles/../../src/core/lv_obj_pos.h **** 
 110:lvgl/lvgl/examples/styles/../../src/core/lv_obj_pos.h **** /**
 111:lvgl/lvgl/examples/styles/../../src/core/lv_obj_pos.h ****  * Set the height reduced by the top and bottom padding and the border width.
 112:lvgl/lvgl/examples/styles/../../src/core/lv_obj_pos.h ****  * @param obj       pointer to an object
 113:lvgl/lvgl/examples/styles/../../src/core/lv_obj_pos.h ****  * @param h         the height without paddings in pixels
 114:lvgl/lvgl/examples/styles/../../src/core/lv_obj_pos.h ****  */
 115:lvgl/lvgl/examples/styles/../../src/core/lv_obj_pos.h **** void lv_obj_set_content_height(struct _lv_obj_t * obj, lv_coord_t h);
 116:lvgl/lvgl/examples/styles/../../src/core/lv_obj_pos.h **** 
 117:lvgl/lvgl/examples/styles/../../src/core/lv_obj_pos.h **** /**
 118:lvgl/lvgl/examples/styles/../../src/core/lv_obj_pos.h ****  * Set a layout for an object
 119:lvgl/lvgl/examples/styles/../../src/core/lv_obj_pos.h ****  * @param obj       pointer to an object
 120:lvgl/lvgl/examples/styles/../../src/core/lv_obj_pos.h ****  * @param layout    pointer to a layout descriptor to set
 121:lvgl/lvgl/examples/styles/../../src/core/lv_obj_pos.h ****  */
 122:lvgl/lvgl/examples/styles/../../src/core/lv_obj_pos.h **** void lv_obj_set_layout(struct _lv_obj_t * obj, uint32_t layout);
 123:lvgl/lvgl/examples/styles/../../src/core/lv_obj_pos.h **** 
 124:lvgl/lvgl/examples/styles/../../src/core/lv_obj_pos.h **** /**
 125:lvgl/lvgl/examples/styles/../../src/core/lv_obj_pos.h ****  * Test whether the and object is positioned by a layout or not
 126:lvgl/lvgl/examples/styles/../../src/core/lv_obj_pos.h ****  * @param obj       pointer to an object to test
 127:lvgl/lvgl/examples/styles/../../src/core/lv_obj_pos.h ****  * @return true:    positioned by a layout; false: not positioned by a layout
 128:lvgl/lvgl/examples/styles/../../src/core/lv_obj_pos.h ****  */
 129:lvgl/lvgl/examples/styles/../../src/core/lv_obj_pos.h **** bool lv_obj_is_layout_positioned(const struct _lv_obj_t * obj);
 130:lvgl/lvgl/examples/styles/../../src/core/lv_obj_pos.h **** 
 131:lvgl/lvgl/examples/styles/../../src/core/lv_obj_pos.h **** /**
 132:lvgl/lvgl/examples/styles/../../src/core/lv_obj_pos.h ****  * Mark the object for layout update.
 133:lvgl/lvgl/examples/styles/../../src/core/lv_obj_pos.h ****  * @param obj      pointer to an object whose children needs to be updated
 134:lvgl/lvgl/examples/styles/../../src/core/lv_obj_pos.h ****  */
 135:lvgl/lvgl/examples/styles/../../src/core/lv_obj_pos.h **** void lv_obj_mark_layout_as_dirty(struct _lv_obj_t * obj);
 136:lvgl/lvgl/examples/styles/../../src/core/lv_obj_pos.h **** 
 137:lvgl/lvgl/examples/styles/../../src/core/lv_obj_pos.h **** /**
 138:lvgl/lvgl/examples/styles/../../src/core/lv_obj_pos.h ****  * Update the layout of an object.
 139:lvgl/lvgl/examples/styles/../../src/core/lv_obj_pos.h ****  * @param obj      pointer to an object whose children needs to be updated
 140:lvgl/lvgl/examples/styles/../../src/core/lv_obj_pos.h ****  */
 141:lvgl/lvgl/examples/styles/../../src/core/lv_obj_pos.h **** void lv_obj_update_layout(const struct _lv_obj_t * obj);
 142:lvgl/lvgl/examples/styles/../../src/core/lv_obj_pos.h **** 
 143:lvgl/lvgl/examples/styles/../../src/core/lv_obj_pos.h **** /**
 144:lvgl/lvgl/examples/styles/../../src/core/lv_obj_pos.h ****  * Regsiter a new layout
 145:lvgl/lvgl/examples/styles/../../src/core/lv_obj_pos.h ****  * @param cb        the layout update callback
 146:lvgl/lvgl/examples/styles/../../src/core/lv_obj_pos.h ****  * @param user_data custom data that will be passed to `cb`
 147:lvgl/lvgl/examples/styles/../../src/core/lv_obj_pos.h ****  * @return          the ID of the new layout
 148:lvgl/lvgl/examples/styles/../../src/core/lv_obj_pos.h ****  */
 149:lvgl/lvgl/examples/styles/../../src/core/lv_obj_pos.h **** uint32_t lv_layout_register(lv_layout_update_cb_t cb, void * user_data);
 150:lvgl/lvgl/examples/styles/../../src/core/lv_obj_pos.h **** 
 151:lvgl/lvgl/examples/styles/../../src/core/lv_obj_pos.h **** /**
 152:lvgl/lvgl/examples/styles/../../src/core/lv_obj_pos.h ****  * Change the alignment of an object.
 153:lvgl/lvgl/examples/styles/../../src/core/lv_obj_pos.h ****  * @param obj       pointer to an object to align
 154:lvgl/lvgl/examples/styles/../../src/core/lv_obj_pos.h ****  * @param align     type of alignment (see 'lv_align_t' enum) `LV_ALIGN_OUT_...` can't be used.
 155:lvgl/lvgl/examples/styles/../../src/core/lv_obj_pos.h ****  */
 156:lvgl/lvgl/examples/styles/../../src/core/lv_obj_pos.h **** void lv_obj_set_align(struct _lv_obj_t * obj, lv_align_t align);
 157:lvgl/lvgl/examples/styles/../../src/core/lv_obj_pos.h **** 
 158:lvgl/lvgl/examples/styles/../../src/core/lv_obj_pos.h **** /**
 159:lvgl/lvgl/examples/styles/../../src/core/lv_obj_pos.h ****  * Change the alignment of an object and set new coordinates.
 160:lvgl/lvgl/examples/styles/../../src/core/lv_obj_pos.h ****  * Equivalent to:
 161:lvgl/lvgl/examples/styles/../../src/core/lv_obj_pos.h ****  * lv_obj_set_align(obj, align);
 162:lvgl/lvgl/examples/styles/../../src/core/lv_obj_pos.h ****  * lv_obj_set_pos(obj, x_ofs, y_ofs);
 163:lvgl/lvgl/examples/styles/../../src/core/lv_obj_pos.h ****  * @param obj       pointer to an object to align
ARM GAS  C:\Users\gx\AppData\Local\Temp\ccBUFnHD.s 			page 10


 164:lvgl/lvgl/examples/styles/../../src/core/lv_obj_pos.h ****  * @param align     type of alignment (see 'lv_align_t' enum) `LV_ALIGN_OUT_...` can't be used.
 165:lvgl/lvgl/examples/styles/../../src/core/lv_obj_pos.h ****  * @param x_ofs     x coordinate offset after alignment
 166:lvgl/lvgl/examples/styles/../../src/core/lv_obj_pos.h ****  * @param y_ofs     y coordinate offset after alignment
 167:lvgl/lvgl/examples/styles/../../src/core/lv_obj_pos.h ****  */
 168:lvgl/lvgl/examples/styles/../../src/core/lv_obj_pos.h **** void lv_obj_align(struct _lv_obj_t * obj, lv_align_t align, lv_coord_t x_ofs, lv_coord_t y_ofs);
 169:lvgl/lvgl/examples/styles/../../src/core/lv_obj_pos.h **** 
 170:lvgl/lvgl/examples/styles/../../src/core/lv_obj_pos.h **** /**
 171:lvgl/lvgl/examples/styles/../../src/core/lv_obj_pos.h ****  * Align an object to an other object.
 172:lvgl/lvgl/examples/styles/../../src/core/lv_obj_pos.h ****  * @param obj       pointer to an object to align
 173:lvgl/lvgl/examples/styles/../../src/core/lv_obj_pos.h ****  * @param base      pointer to an other object (if NULL `obj`s parent is used). 'obj' will be align
 174:lvgl/lvgl/examples/styles/../../src/core/lv_obj_pos.h ****  * @param align     type of alignment (see 'lv_align_t' enum)
 175:lvgl/lvgl/examples/styles/../../src/core/lv_obj_pos.h ****  * @param x_ofs     x coordinate offset after alignment
 176:lvgl/lvgl/examples/styles/../../src/core/lv_obj_pos.h ****  * @param y_ofs     y coordinate offset after alignment
 177:lvgl/lvgl/examples/styles/../../src/core/lv_obj_pos.h ****  * @note            if the position or size of `base` changes `obj` needs to be aligned manually ag
 178:lvgl/lvgl/examples/styles/../../src/core/lv_obj_pos.h ****  */
 179:lvgl/lvgl/examples/styles/../../src/core/lv_obj_pos.h **** void lv_obj_align_to(struct _lv_obj_t * obj, const struct _lv_obj_t * base, lv_align_t align, lv_co
 180:lvgl/lvgl/examples/styles/../../src/core/lv_obj_pos.h **** 
 181:lvgl/lvgl/examples/styles/../../src/core/lv_obj_pos.h **** /**
 182:lvgl/lvgl/examples/styles/../../src/core/lv_obj_pos.h ****  * Align an object to the center on its parent.
 183:lvgl/lvgl/examples/styles/../../src/core/lv_obj_pos.h ****  * @param obj       pointer to an object to align
 184:lvgl/lvgl/examples/styles/../../src/core/lv_obj_pos.h ****  * @note            if the parent size changes `obj` needs to be aligned manually again
 185:lvgl/lvgl/examples/styles/../../src/core/lv_obj_pos.h ****  */
 186:lvgl/lvgl/examples/styles/../../src/core/lv_obj_pos.h **** static inline void lv_obj_center(struct _lv_obj_t * obj)
 150              		.loc 3 186 20 view .LVU23
 151              	.LBB9:
 187:lvgl/lvgl/examples/styles/../../src/core/lv_obj_pos.h **** {
 188:lvgl/lvgl/examples/styles/../../src/core/lv_obj_pos.h ****     lv_obj_align(obj, LV_ALIGN_CENTER, 0, 0);
 152              		.loc 3 188 5 view .LVU24
 153 009c 2346     		mov	r3, r4
 154 009e 2246     		mov	r2, r4
 155 00a0 0921     		movs	r1, #9
 156 00a2 3046     		mov	r0, r6
 157 00a4 FFF7FEFF 		bl	lv_obj_align
 158              	.LVL17:
 159              		.loc 3 188 5 is_stmt 0 view .LVU25
 160              	.LBE9:
 161              	.LBE8:
  38:lvgl/lvgl/examples/styles/lv_example_style_10.c **** }
 162              		.loc 1 38 1 view .LVU26
 163 00a8 02B0     		add	sp, sp, #8
 164              	.LCFI2:
 165              		.cfi_def_cfa_offset 24
 166              		@ sp needed
 167 00aa BDE8F081 		pop	{r4, r5, r6, r7, r8, pc}
 168              	.LVL18:
 169              	.L4:
 170              		.loc 1 38 1 view .LVU27
 171 00ae 00BF     		.align	2
 172              	.L3:
 173 00b0 00000000 		.word	.LANCHOR0
 174 00b4 00000000 		.word	.LANCHOR1
 175 00b8 00000000 		.word	.LANCHOR2
 176 00bc 00000000 		.word	.LANCHOR3
 177 00c0 00000000 		.word	.LANCHOR4
 178 00c4 00000000 		.word	lv_anim_path_linear
 179              		.cfi_endproc
 180              	.LFE189:
ARM GAS  C:\Users\gx\AppData\Local\Temp\ccBUFnHD.s 			page 11


 182              		.section	.bss.style_def.12316,"aw",%nobits
 183              		.align	2
 184              		.set	.LANCHOR3,. + 0
 187              	style_def.12316:
 188 0000 00000000 		.space	8
 188      00000000 
 189              		.section	.bss.style_pr.12317,"aw",%nobits
 190              		.align	2
 191              		.set	.LANCHOR4,. + 0
 194              	style_pr.12317:
 195 0000 00000000 		.space	8
 195      00000000 
 196              		.section	.bss.trans_def.12314,"aw",%nobits
 197              		.align	2
 198              		.set	.LANCHOR1,. + 0
 201              	trans_def.12314:
 202 0000 00000000 		.space	20
 202      00000000 
 202      00000000 
 202      00000000 
 202      00000000 
 203              		.section	.bss.trans_pr.12315,"aw",%nobits
 204              		.align	2
 205              		.set	.LANCHOR2,. + 0
 208              	trans_pr.12315:
 209 0000 00000000 		.space	20
 209      00000000 
 209      00000000 
 209      00000000 
 209      00000000 
 210              		.section	.rodata.props.12313,"a"
 211              		.align	2
 212              		.set	.LANCHOR0,. + 0
 215              	props.12313:
 216 0000 2000     		.short	32
 217 0002 3000     		.short	48
 218 0004 3210     		.short	4146
 219 0006 0000     		.short	0
 220              		.text
 221              	.Letext0:
 222              		.file 4 "c:\\program files (x86)\\gnu arm embedded toolchain\\9 2020-q2-update\\arm-none-eabi\\inc
 223              		.file 5 "c:\\program files (x86)\\gnu arm embedded toolchain\\9 2020-q2-update\\arm-none-eabi\\inc
 224              		.file 6 "lvgl/lvgl/examples/styles/../../src/misc/lv_ll.h"
 225              		.file 7 "c:\\program files (x86)\\gnu arm embedded toolchain\\9 2020-q2-update\\lib\\gcc\\arm-none
 226              		.file 8 "c:\\program files (x86)\\gnu arm embedded toolchain\\9 2020-q2-update\\arm-none-eabi\\inc
 227              		.file 9 "c:\\program files (x86)\\gnu arm embedded toolchain\\9 2020-q2-update\\arm-none-eabi\\inc
 228              		.file 10 "c:\\program files (x86)\\gnu arm embedded toolchain\\9 2020-q2-update\\arm-none-eabi\\in
 229              		.file 11 "lvgl/lvgl/examples/styles/../../src/misc/lv_anim.h"
 230              		.file 12 "d:\\practise\\f407_disc\\lvgl\\lvgl\\src\\misc\\lv_color.h"
 231              		.file 13 "d:\\practise\\f407_disc\\lvgl\\lvgl\\src\\misc\\lv_area.h"
 232              		.file 14 "lvgl/lvgl/examples/styles/../../src/core/lv_obj.h"
 233              		.file 15 "lvgl/lvgl/examples/styles/../../src/core/lv_group.h"
 234              		.file 16 "d:\\practise\\f407_disc\\lvgl\\lvgl\\src\\font\\lv_font.h"
 235              		.file 17 "d:\\practise\\f407_disc\\lvgl\\lvgl\\src\\misc\\lv_txt.h"
 236              		.file 18 "d:\\practise\\f407_disc\\lvgl\\lvgl\\src\\misc\\lv_style.h"
 237              		.file 19 "lvgl/lvgl/examples/styles/../../src/core/lv_obj_scroll.h"
 238              		.file 20 "lvgl/lvgl/examples/styles/../../src/core/lv_obj_style.h"
ARM GAS  C:\Users\gx\AppData\Local\Temp\ccBUFnHD.s 			page 12


 239              		.file 21 "d:\\practise\\f407_disc\\lvgl\\lvgl\\src\\draw\\lv_draw_label.h"
 240              		.file 22 "lvgl/lvgl/examples/styles/../../src/core/lv_obj_class.h"
 241              		.file 23 "lvgl/lvgl/examples/styles/../../src/core/lv_event.h"
 242              		.file 24 "lvgl/lvgl/examples/styles/../../src/widgets/lv_arc.h"
 243              		.file 25 "lvgl/lvgl/examples/styles/../../src/widgets/lv_btn.h"
 244              		.file 26 "lvgl/lvgl/examples/styles/../../src/widgets/lv_img.h"
 245              		.file 27 "lvgl/lvgl/examples/styles/../../src/widgets/lv_label.h"
 246              		.file 28 "lvgl/lvgl/examples/styles/../../src/widgets/lv_line.h"
 247              		.file 29 "lvgl/lvgl/examples/styles/../../src/widgets/lv_table.h"
 248              		.file 30 "lvgl/lvgl/examples/styles/../../src/widgets/lv_checkbox.h"
 249              		.file 31 "lvgl/lvgl/examples/styles/../../src/widgets/lv_bar.h"
 250              		.file 32 "lvgl/lvgl/examples/styles/../../src/widgets/lv_slider.h"
 251              		.file 33 "lvgl/lvgl/examples/styles/../../src/widgets/lv_btnmatrix.h"
 252              		.file 34 "lvgl/lvgl/examples/styles/../../src/widgets/lv_dropdown.h"
 253              		.file 35 "lvgl/lvgl/examples/styles/../../src/widgets/lv_roller.h"
 254              		.file 36 "lvgl/lvgl/examples/styles/../../src/widgets/lv_textarea.h"
 255              		.file 37 "lvgl/lvgl/examples/styles/../../src/widgets/lv_canvas.h"
 256              		.file 38 "lvgl/lvgl/examples/styles/../../src/widgets/lv_switch.h"
 257              		.file 39 "lvgl/lvgl/examples/styles/../../src/extra/widgets/animimg/lv_animimg.h"
 258              		.file 40 "lvgl/lvgl/examples/styles/../../src/extra/widgets/calendar/lv_calendar.h"
 259              		.file 41 "lvgl/lvgl/examples/styles/../../src/extra/widgets/calendar/lv_calendar_header_arrow.h"
 260              		.file 42 "lvgl/lvgl/examples/styles/../../src/extra/widgets/calendar/lv_calendar_header_dropdown.h
 261              		.file 43 "lvgl/lvgl/examples/styles/../../src/extra/widgets/chart/lv_chart.h"
 262              		.file 44 "lvgl/lvgl/examples/styles/../../src/extra/widgets/keyboard/lv_keyboard.h"
 263              		.file 45 "d:\\practise\\f407_disc\\lvgl\\lvgl\\src\\extra\\layouts\\flex\\lv_flex.h"
 264              		.file 46 "lvgl/lvgl/examples/styles/../../src/extra/widgets/list/lv_list.h"
 265              		.file 47 "lvgl/lvgl/examples/styles/../../src/extra/widgets/msgbox/lv_msgbox.h"
 266              		.file 48 "lvgl/lvgl/examples/styles/../../src/extra/widgets/meter/lv_meter.h"
 267              		.file 49 "lvgl/lvgl/examples/styles/../../src/extra/widgets/spinbox/lv_spinbox.h"
 268              		.file 50 "lvgl/lvgl/examples/styles/../../src/extra/widgets/spinner/lv_spinner.h"
 269              		.file 51 "lvgl/lvgl/examples/styles/../../src/extra/widgets/tabview/lv_tabview.h"
 270              		.file 52 "lvgl/lvgl/examples/styles/../../src/extra/widgets/tileview/lv_tileview.h"
 271              		.file 53 "lvgl/lvgl/examples/styles/../../src/extra/widgets/win/lv_win.h"
 272              		.file 54 "lvgl/lvgl/examples/styles/../../src/extra/widgets/colorwheel/lv_colorwheel.h"
 273              		.file 55 "lvgl/lvgl/examples/styles/../../src/extra/widgets/led/lv_led.h"
 274              		.file 56 "lvgl/lvgl/examples/styles/../../src/extra/widgets/imgbtn/lv_imgbtn.h"
 275              		.file 57 "lvgl/lvgl/examples/styles/../../src/extra/widgets/span/lv_span.h"
 276              		.file 58 "lvgl/lvgl/examples/styles/../../src/extra/layouts/grid/lv_grid.h"
 277              		.file 59 "lvgl/lvgl/examples/styles/../../src/hal/lv_hal_disp.h"
 278              		.file 60 "d:\\practise\\f407_disc\\lvgl\\lvgl\\src\\misc\\lv_style_gen.h"
ARM GAS  C:\Users\gx\AppData\Local\Temp\ccBUFnHD.s 			page 13

