ARM GAS  C:\Users\gx\AppData\Local\Temp\ccLT5lDV.s 			page 1


   1              		.cpu cortex-m4
   2              		.eabi_attribute 27, 1
   3              		.eabi_attribute 28, 1
   4              		.eabi_attribute 20, 1
   5              		.eabi_attribute 21, 1
   6              		.eabi_attribute 23, 3
   7              		.eabi_attribute 24, 1
   8              		.eabi_attribute 25, 1
   9              		.eabi_attribute 26, 1
  10              		.eabi_attribute 30, 1
  11              		.eabi_attribute 34, 1
  12              		.eabi_attribute 18, 4
  13              		.file	"lv_example_textarea_3.c"
  14              		.text
  15              	.Ltext0:
  16              		.cfi_sections	.debug_frame
  17              		.section	.text.ta_event_cb,"ax",%progbits
  18              		.align	1
  19              		.arch armv7e-m
  20              		.syntax unified
  21              		.thumb
  22              		.thumb_func
  23              		.fpu fpv4-sp-d16
  25              	ta_event_cb:
  26              	.LVL0:
  27              	.LFB190:
  28              		.file 1 "lvgl/lvgl/examples/widgets/textarea/lv_example_textarea_3.c"
   1:lvgl/lvgl/examples/widgets/textarea/lv_example_textarea_3.c **** #include "../../lv_examples.h"
   2:lvgl/lvgl/examples/widgets/textarea/lv_example_textarea_3.c **** #if LV_USE_TEXTAREA && LV_USE_KEYBOARD && LV_BUILD_EXAMPLES
   3:lvgl/lvgl/examples/widgets/textarea/lv_example_textarea_3.c **** 
   4:lvgl/lvgl/examples/widgets/textarea/lv_example_textarea_3.c **** static void ta_event_cb(lv_event_t * e);
   5:lvgl/lvgl/examples/widgets/textarea/lv_example_textarea_3.c **** 
   6:lvgl/lvgl/examples/widgets/textarea/lv_example_textarea_3.c **** static lv_obj_t * kb;
   7:lvgl/lvgl/examples/widgets/textarea/lv_example_textarea_3.c **** 
   8:lvgl/lvgl/examples/widgets/textarea/lv_example_textarea_3.c **** /**
   9:lvgl/lvgl/examples/widgets/textarea/lv_example_textarea_3.c ****  * Automatically format text like a clock. E.g. "12:34"
  10:lvgl/lvgl/examples/widgets/textarea/lv_example_textarea_3.c ****  * Add the ':' automatically.
  11:lvgl/lvgl/examples/widgets/textarea/lv_example_textarea_3.c ****  */
  12:lvgl/lvgl/examples/widgets/textarea/lv_example_textarea_3.c **** void lv_example_textarea_3(void)
  13:lvgl/lvgl/examples/widgets/textarea/lv_example_textarea_3.c **** {
  14:lvgl/lvgl/examples/widgets/textarea/lv_example_textarea_3.c ****     /*Create the text area*/
  15:lvgl/lvgl/examples/widgets/textarea/lv_example_textarea_3.c ****     lv_obj_t * ta = lv_textarea_create(lv_scr_act());
  16:lvgl/lvgl/examples/widgets/textarea/lv_example_textarea_3.c ****     lv_obj_add_event_cb(ta, ta_event_cb, LV_EVENT_VALUE_CHANGED, NULL);
  17:lvgl/lvgl/examples/widgets/textarea/lv_example_textarea_3.c ****     lv_textarea_set_accepted_chars(ta, "0123456789:");
  18:lvgl/lvgl/examples/widgets/textarea/lv_example_textarea_3.c ****     lv_textarea_set_max_length(ta, 5);
  19:lvgl/lvgl/examples/widgets/textarea/lv_example_textarea_3.c ****     lv_textarea_set_one_line(ta, true);
  20:lvgl/lvgl/examples/widgets/textarea/lv_example_textarea_3.c ****     lv_textarea_set_text(ta, "");
  21:lvgl/lvgl/examples/widgets/textarea/lv_example_textarea_3.c **** 
  22:lvgl/lvgl/examples/widgets/textarea/lv_example_textarea_3.c ****     /*Create a keyboard*/
  23:lvgl/lvgl/examples/widgets/textarea/lv_example_textarea_3.c ****     kb = lv_keyboard_create(lv_scr_act());
  24:lvgl/lvgl/examples/widgets/textarea/lv_example_textarea_3.c ****     lv_obj_set_size(kb,  LV_HOR_RES, LV_VER_RES / 2);
  25:lvgl/lvgl/examples/widgets/textarea/lv_example_textarea_3.c ****     lv_keyboard_set_mode(kb, LV_KEYBOARD_MODE_NUMBER);
  26:lvgl/lvgl/examples/widgets/textarea/lv_example_textarea_3.c ****     lv_keyboard_set_textarea(kb, ta);
  27:lvgl/lvgl/examples/widgets/textarea/lv_example_textarea_3.c **** }
  28:lvgl/lvgl/examples/widgets/textarea/lv_example_textarea_3.c **** 
  29:lvgl/lvgl/examples/widgets/textarea/lv_example_textarea_3.c **** static void ta_event_cb(lv_event_t * e)
  30:lvgl/lvgl/examples/widgets/textarea/lv_example_textarea_3.c **** {
ARM GAS  C:\Users\gx\AppData\Local\Temp\ccLT5lDV.s 			page 2


  29              		.loc 1 30 1 view -0
  30              		.cfi_startproc
  31              		@ args = 0, pretend = 0, frame = 0
  32              		@ frame_needed = 0, uses_anonymous_args = 0
  33              		.loc 1 30 1 is_stmt 0 view .LVU1
  34 0000 10B5     		push	{r4, lr}
  35              	.LCFI0:
  36              		.cfi_def_cfa_offset 8
  37              		.cfi_offset 4, -8
  38              		.cfi_offset 14, -4
  31:lvgl/lvgl/examples/widgets/textarea/lv_example_textarea_3.c ****     lv_obj_t * ta = lv_event_get_target(e);
  39              		.loc 1 31 5 is_stmt 1 view .LVU2
  40              		.loc 1 31 21 is_stmt 0 view .LVU3
  41 0002 FFF7FEFF 		bl	lv_event_get_target
  42              	.LVL1:
  43              		.loc 1 31 21 view .LVU4
  44 0006 0446     		mov	r4, r0
  45              	.LVL2:
  32:lvgl/lvgl/examples/widgets/textarea/lv_example_textarea_3.c ****     const char * txt = lv_textarea_get_text(ta);
  46              		.loc 1 32 5 is_stmt 1 view .LVU5
  47              		.loc 1 32 24 is_stmt 0 view .LVU6
  48 0008 FFF7FEFF 		bl	lv_textarea_get_text
  49              	.LVL3:
  33:lvgl/lvgl/examples/widgets/textarea/lv_example_textarea_3.c ****     if(txt[0] >= '0' && txt[0] <= '9' &&
  50              		.loc 1 33 5 is_stmt 1 view .LVU7
  51              		.loc 1 33 11 is_stmt 0 view .LVU8
  52 000c 0378     		ldrb	r3, [r0]	@ zero_extendqisi2
  53              		.loc 1 33 22 view .LVU9
  54 000e 303B     		subs	r3, r3, #48
  55 0010 DBB2     		uxtb	r3, r3
  56              		.loc 1 33 7 view .LVU10
  57 0012 092B     		cmp	r3, #9
  58 0014 07D8     		bhi	.L1
  34:lvgl/lvgl/examples/widgets/textarea/lv_example_textarea_3.c ****         txt[1] >= '0' && txt[1] <= '9' &&
  59              		.loc 1 34 12 discriminator 1 view .LVU11
  60 0016 4378     		ldrb	r3, [r0, #1]	@ zero_extendqisi2
  33:lvgl/lvgl/examples/widgets/textarea/lv_example_textarea_3.c ****     if(txt[0] >= '0' && txt[0] <= '9' &&
  61              		.loc 1 33 39 discriminator 1 view .LVU12
  62 0018 2F2B     		cmp	r3, #47
  63 001a 04D9     		bls	.L1
  64              		.loc 1 34 23 view .LVU13
  65 001c 392B     		cmp	r3, #57
  66 001e 02D8     		bhi	.L1
  35:lvgl/lvgl/examples/widgets/textarea/lv_example_textarea_3.c ****         txt[2] != ':')
  67              		.loc 1 35 12 discriminator 1 view .LVU14
  68 0020 8378     		ldrb	r3, [r0, #2]	@ zero_extendqisi2
  34:lvgl/lvgl/examples/widgets/textarea/lv_example_textarea_3.c ****         txt[1] >= '0' && txt[1] <= '9' &&
  69              		.loc 1 34 40 discriminator 1 view .LVU15
  70 0022 3A2B     		cmp	r3, #58
  71 0024 00D1     		bne	.L4
  72              	.LVL4:
  73              	.L1:
  36:lvgl/lvgl/examples/widgets/textarea/lv_example_textarea_3.c ****     {
  37:lvgl/lvgl/examples/widgets/textarea/lv_example_textarea_3.c ****         lv_textarea_set_cursor_pos(ta, 2);
  38:lvgl/lvgl/examples/widgets/textarea/lv_example_textarea_3.c ****         lv_textarea_add_char(ta, ':');
  39:lvgl/lvgl/examples/widgets/textarea/lv_example_textarea_3.c ****     }
  40:lvgl/lvgl/examples/widgets/textarea/lv_example_textarea_3.c **** }
ARM GAS  C:\Users\gx\AppData\Local\Temp\ccLT5lDV.s 			page 3


  74              		.loc 1 40 1 view .LVU16
  75 0026 10BD     		pop	{r4, pc}
  76              	.LVL5:
  77              	.L4:
  37:lvgl/lvgl/examples/widgets/textarea/lv_example_textarea_3.c ****         lv_textarea_add_char(ta, ':');
  78              		.loc 1 37 9 is_stmt 1 view .LVU17
  79 0028 0221     		movs	r1, #2
  80 002a 2046     		mov	r0, r4
  81              	.LVL6:
  37:lvgl/lvgl/examples/widgets/textarea/lv_example_textarea_3.c ****         lv_textarea_add_char(ta, ':');
  82              		.loc 1 37 9 is_stmt 0 view .LVU18
  83 002c FFF7FEFF 		bl	lv_textarea_set_cursor_pos
  84              	.LVL7:
  38:lvgl/lvgl/examples/widgets/textarea/lv_example_textarea_3.c ****     }
  85              		.loc 1 38 9 is_stmt 1 view .LVU19
  86 0030 3A21     		movs	r1, #58
  87 0032 2046     		mov	r0, r4
  88 0034 FFF7FEFF 		bl	lv_textarea_add_char
  89              	.LVL8:
  90              		.loc 1 40 1 is_stmt 0 view .LVU20
  91 0038 F5E7     		b	.L1
  92              		.cfi_endproc
  93              	.LFE190:
  95              		.section	.rodata.lv_example_textarea_3.str1.4,"aMS",%progbits,1
  96              		.align	2
  97              	.LC0:
  98 0000 30313233 		.ascii	"0123456789:\000"
  98      34353637 
  98      38393A00 
  99              		.align	2
 100              	.LC1:
 101 000c 00       		.ascii	"\000"
 102              		.section	.text.lv_example_textarea_3,"ax",%progbits
 103              		.align	1
 104              		.global	lv_example_textarea_3
 105              		.syntax unified
 106              		.thumb
 107              		.thumb_func
 108              		.fpu fpv4-sp-d16
 110              	lv_example_textarea_3:
 111              	.LFB189:
  13:lvgl/lvgl/examples/widgets/textarea/lv_example_textarea_3.c ****     /*Create the text area*/
 112              		.loc 1 13 1 is_stmt 1 view -0
 113              		.cfi_startproc
 114              		@ args = 0, pretend = 0, frame = 0
 115              		@ frame_needed = 0, uses_anonymous_args = 0
 116 0000 F8B5     		push	{r3, r4, r5, r6, r7, lr}
 117              	.LCFI1:
 118              		.cfi_def_cfa_offset 24
 119              		.cfi_offset 3, -24
 120              		.cfi_offset 4, -20
 121              		.cfi_offset 5, -16
 122              		.cfi_offset 6, -12
 123              		.cfi_offset 7, -8
 124              		.cfi_offset 14, -4
  15:lvgl/lvgl/examples/widgets/textarea/lv_example_textarea_3.c ****     lv_obj_add_event_cb(ta, ta_event_cb, LV_EVENT_VALUE_CHANGED, NULL);
 125              		.loc 1 15 5 view .LVU22
ARM GAS  C:\Users\gx\AppData\Local\Temp\ccLT5lDV.s 			page 4


 126              	.LBB6:
 127              	.LBI6:
 128              		.file 2 "d:\\practise\\f407_disc\\lvgl\\lvgl\\src/core/lv_disp.h"
   1:d:\practise\f407_disc\lvgl\lvgl\src/core\lv_disp.h **** /**
   2:d:\practise\f407_disc\lvgl\lvgl\src/core\lv_disp.h ****  * @file lv_disp.h
   3:d:\practise\f407_disc\lvgl\lvgl\src/core\lv_disp.h ****  *
   4:d:\practise\f407_disc\lvgl\lvgl\src/core\lv_disp.h ****  */
   5:d:\practise\f407_disc\lvgl\lvgl\src/core\lv_disp.h **** 
   6:d:\practise\f407_disc\lvgl\lvgl\src/core\lv_disp.h **** #ifndef LV_DISP_H
   7:d:\practise\f407_disc\lvgl\lvgl\src/core\lv_disp.h **** #define LV_DISP_H
   8:d:\practise\f407_disc\lvgl\lvgl\src/core\lv_disp.h **** 
   9:d:\practise\f407_disc\lvgl\lvgl\src/core\lv_disp.h **** #ifdef __cplusplus
  10:d:\practise\f407_disc\lvgl\lvgl\src/core\lv_disp.h **** extern "C" {
  11:d:\practise\f407_disc\lvgl\lvgl\src/core\lv_disp.h **** #endif
  12:d:\practise\f407_disc\lvgl\lvgl\src/core\lv_disp.h **** 
  13:d:\practise\f407_disc\lvgl\lvgl\src/core\lv_disp.h **** /*********************
  14:d:\practise\f407_disc\lvgl\lvgl\src/core\lv_disp.h ****  *      INCLUDES
  15:d:\practise\f407_disc\lvgl\lvgl\src/core\lv_disp.h ****  *********************/
  16:d:\practise\f407_disc\lvgl\lvgl\src/core\lv_disp.h **** #include "../hal/lv_hal.h"
  17:d:\practise\f407_disc\lvgl\lvgl\src/core\lv_disp.h **** #include "lv_obj.h"
  18:d:\practise\f407_disc\lvgl\lvgl\src/core\lv_disp.h **** #include "lv_theme.h"
  19:d:\practise\f407_disc\lvgl\lvgl\src/core\lv_disp.h **** 
  20:d:\practise\f407_disc\lvgl\lvgl\src/core\lv_disp.h **** /*********************
  21:d:\practise\f407_disc\lvgl\lvgl\src/core\lv_disp.h ****  *      DEFINES
  22:d:\practise\f407_disc\lvgl\lvgl\src/core\lv_disp.h ****  *********************/
  23:d:\practise\f407_disc\lvgl\lvgl\src/core\lv_disp.h **** 
  24:d:\practise\f407_disc\lvgl\lvgl\src/core\lv_disp.h **** /**********************
  25:d:\practise\f407_disc\lvgl\lvgl\src/core\lv_disp.h ****  *      TYPEDEFS
  26:d:\practise\f407_disc\lvgl\lvgl\src/core\lv_disp.h ****  **********************/
  27:d:\practise\f407_disc\lvgl\lvgl\src/core\lv_disp.h **** 
  28:d:\practise\f407_disc\lvgl\lvgl\src/core\lv_disp.h **** typedef enum {
  29:d:\practise\f407_disc\lvgl\lvgl\src/core\lv_disp.h ****     LV_SCR_LOAD_ANIM_NONE,
  30:d:\practise\f407_disc\lvgl\lvgl\src/core\lv_disp.h ****     LV_SCR_LOAD_ANIM_OVER_LEFT,
  31:d:\practise\f407_disc\lvgl\lvgl\src/core\lv_disp.h ****     LV_SCR_LOAD_ANIM_OVER_RIGHT,
  32:d:\practise\f407_disc\lvgl\lvgl\src/core\lv_disp.h ****     LV_SCR_LOAD_ANIM_OVER_TOP,
  33:d:\practise\f407_disc\lvgl\lvgl\src/core\lv_disp.h ****     LV_SCR_LOAD_ANIM_OVER_BOTTOM,
  34:d:\practise\f407_disc\lvgl\lvgl\src/core\lv_disp.h ****     LV_SCR_LOAD_ANIM_MOVE_LEFT,
  35:d:\practise\f407_disc\lvgl\lvgl\src/core\lv_disp.h ****     LV_SCR_LOAD_ANIM_MOVE_RIGHT,
  36:d:\practise\f407_disc\lvgl\lvgl\src/core\lv_disp.h ****     LV_SCR_LOAD_ANIM_MOVE_TOP,
  37:d:\practise\f407_disc\lvgl\lvgl\src/core\lv_disp.h ****     LV_SCR_LOAD_ANIM_MOVE_BOTTOM,
  38:d:\practise\f407_disc\lvgl\lvgl\src/core\lv_disp.h ****     LV_SCR_LOAD_ANIM_FADE_ON,
  39:d:\practise\f407_disc\lvgl\lvgl\src/core\lv_disp.h **** } lv_scr_load_anim_t;
  40:d:\practise\f407_disc\lvgl\lvgl\src/core\lv_disp.h **** 
  41:d:\practise\f407_disc\lvgl\lvgl\src/core\lv_disp.h **** /**********************
  42:d:\practise\f407_disc\lvgl\lvgl\src/core\lv_disp.h ****  * GLOBAL PROTOTYPES
  43:d:\practise\f407_disc\lvgl\lvgl\src/core\lv_disp.h ****  **********************/
  44:d:\practise\f407_disc\lvgl\lvgl\src/core\lv_disp.h **** 
  45:d:\practise\f407_disc\lvgl\lvgl\src/core\lv_disp.h **** /**
  46:d:\practise\f407_disc\lvgl\lvgl\src/core\lv_disp.h ****  * Return with a pointer to the active screen
  47:d:\practise\f407_disc\lvgl\lvgl\src/core\lv_disp.h ****  * @param disp pointer to display which active screen should be get. (NULL to use the default
  48:d:\practise\f407_disc\lvgl\lvgl\src/core\lv_disp.h ****  * screen)
  49:d:\practise\f407_disc\lvgl\lvgl\src/core\lv_disp.h ****  * @return pointer to the active screen object (loaded by 'lv_scr_load()')
  50:d:\practise\f407_disc\lvgl\lvgl\src/core\lv_disp.h ****  */
  51:d:\practise\f407_disc\lvgl\lvgl\src/core\lv_disp.h **** lv_obj_t * lv_disp_get_scr_act(lv_disp_t * disp);
  52:d:\practise\f407_disc\lvgl\lvgl\src/core\lv_disp.h **** 
  53:d:\practise\f407_disc\lvgl\lvgl\src/core\lv_disp.h **** /**
  54:d:\practise\f407_disc\lvgl\lvgl\src/core\lv_disp.h ****  * Return with a pointer to the previous screen. Only used during screen transitions.
ARM GAS  C:\Users\gx\AppData\Local\Temp\ccLT5lDV.s 			page 5


  55:d:\practise\f407_disc\lvgl\lvgl\src/core\lv_disp.h ****  * @param disp pointer to display which previous screen should be get. (NULL to use the default
  56:d:\practise\f407_disc\lvgl\lvgl\src/core\lv_disp.h ****  * screen)
  57:d:\practise\f407_disc\lvgl\lvgl\src/core\lv_disp.h ****  * @return pointer to the previous screen object or NULL if not used now
  58:d:\practise\f407_disc\lvgl\lvgl\src/core\lv_disp.h ****  */
  59:d:\practise\f407_disc\lvgl\lvgl\src/core\lv_disp.h **** lv_obj_t * lv_disp_get_scr_prev(lv_disp_t * disp);
  60:d:\practise\f407_disc\lvgl\lvgl\src/core\lv_disp.h **** 
  61:d:\practise\f407_disc\lvgl\lvgl\src/core\lv_disp.h **** /**
  62:d:\practise\f407_disc\lvgl\lvgl\src/core\lv_disp.h ****  * Make a screen active
  63:d:\practise\f407_disc\lvgl\lvgl\src/core\lv_disp.h ****  * @param scr pointer to a screen
  64:d:\practise\f407_disc\lvgl\lvgl\src/core\lv_disp.h ****  */
  65:d:\practise\f407_disc\lvgl\lvgl\src/core\lv_disp.h **** void lv_disp_load_scr(lv_obj_t * scr);
  66:d:\practise\f407_disc\lvgl\lvgl\src/core\lv_disp.h **** 
  67:d:\practise\f407_disc\lvgl\lvgl\src/core\lv_disp.h **** /**
  68:d:\practise\f407_disc\lvgl\lvgl\src/core\lv_disp.h ****  * Return with the top layer. (Same on every screen and it is above the normal screen layer)
  69:d:\practise\f407_disc\lvgl\lvgl\src/core\lv_disp.h ****  * @param disp pointer to display which top layer should be get. (NULL to use the default screen)
  70:d:\practise\f407_disc\lvgl\lvgl\src/core\lv_disp.h ****  * @return pointer to the top layer object  (transparent screen sized lv_obj)
  71:d:\practise\f407_disc\lvgl\lvgl\src/core\lv_disp.h ****  */
  72:d:\practise\f407_disc\lvgl\lvgl\src/core\lv_disp.h **** lv_obj_t * lv_disp_get_layer_top(lv_disp_t * disp);
  73:d:\practise\f407_disc\lvgl\lvgl\src/core\lv_disp.h **** 
  74:d:\practise\f407_disc\lvgl\lvgl\src/core\lv_disp.h **** /**
  75:d:\practise\f407_disc\lvgl\lvgl\src/core\lv_disp.h ****  * Return with the sys. layer. (Same on every screen and it is above the normal screen and the top
  76:d:\practise\f407_disc\lvgl\lvgl\src/core\lv_disp.h ****  * layer)
  77:d:\practise\f407_disc\lvgl\lvgl\src/core\lv_disp.h ****  * @param disp pointer to display which sys. layer  should be get. (NULL to use the default screen)
  78:d:\practise\f407_disc\lvgl\lvgl\src/core\lv_disp.h ****  * @return pointer to the sys layer object  (transparent screen sized lv_obj)
  79:d:\practise\f407_disc\lvgl\lvgl\src/core\lv_disp.h ****  */
  80:d:\practise\f407_disc\lvgl\lvgl\src/core\lv_disp.h **** lv_obj_t * lv_disp_get_layer_sys(lv_disp_t * disp);
  81:d:\practise\f407_disc\lvgl\lvgl\src/core\lv_disp.h **** 
  82:d:\practise\f407_disc\lvgl\lvgl\src/core\lv_disp.h **** /**
  83:d:\practise\f407_disc\lvgl\lvgl\src/core\lv_disp.h ****  * Get the theme of a display
  84:d:\practise\f407_disc\lvgl\lvgl\src/core\lv_disp.h ****  * @param disp pointer to a display
  85:d:\practise\f407_disc\lvgl\lvgl\src/core\lv_disp.h ****  * @return the display's theme (can be NULL)
  86:d:\practise\f407_disc\lvgl\lvgl\src/core\lv_disp.h ****  */
  87:d:\practise\f407_disc\lvgl\lvgl\src/core\lv_disp.h **** void lv_disp_set_theme(lv_disp_t * disp, lv_theme_t * th);
  88:d:\practise\f407_disc\lvgl\lvgl\src/core\lv_disp.h **** 
  89:d:\practise\f407_disc\lvgl\lvgl\src/core\lv_disp.h **** /**
  90:d:\practise\f407_disc\lvgl\lvgl\src/core\lv_disp.h ****  * Get the theme of a display
  91:d:\practise\f407_disc\lvgl\lvgl\src/core\lv_disp.h ****  * @param disp pointer to a display
  92:d:\practise\f407_disc\lvgl\lvgl\src/core\lv_disp.h ****  * @return the display's theme (can be NULL)
  93:d:\practise\f407_disc\lvgl\lvgl\src/core\lv_disp.h ****  */
  94:d:\practise\f407_disc\lvgl\lvgl\src/core\lv_disp.h **** lv_theme_t * lv_disp_get_theme(lv_disp_t * disp);
  95:d:\practise\f407_disc\lvgl\lvgl\src/core\lv_disp.h **** 
  96:d:\practise\f407_disc\lvgl\lvgl\src/core\lv_disp.h **** /**
  97:d:\practise\f407_disc\lvgl\lvgl\src/core\lv_disp.h ****  * Set the background color of a display
  98:d:\practise\f407_disc\lvgl\lvgl\src/core\lv_disp.h ****  * @param disp pointer to a display
  99:d:\practise\f407_disc\lvgl\lvgl\src/core\lv_disp.h ****  * @param color color of the background
 100:d:\practise\f407_disc\lvgl\lvgl\src/core\lv_disp.h ****  */
 101:d:\practise\f407_disc\lvgl\lvgl\src/core\lv_disp.h **** void lv_disp_set_bg_color(lv_disp_t * disp, lv_color_t color);
 102:d:\practise\f407_disc\lvgl\lvgl\src/core\lv_disp.h **** 
 103:d:\practise\f407_disc\lvgl\lvgl\src/core\lv_disp.h **** /**
 104:d:\practise\f407_disc\lvgl\lvgl\src/core\lv_disp.h ****  * Set the background image of a display
 105:d:\practise\f407_disc\lvgl\lvgl\src/core\lv_disp.h ****  * @param disp pointer to a display
 106:d:\practise\f407_disc\lvgl\lvgl\src/core\lv_disp.h ****  * @param img_src path to file or pointer to an `lv_img_dsc_t` variable
 107:d:\practise\f407_disc\lvgl\lvgl\src/core\lv_disp.h ****  */
 108:d:\practise\f407_disc\lvgl\lvgl\src/core\lv_disp.h **** void lv_disp_set_bg_image(lv_disp_t * disp, const void  * img_src);
 109:d:\practise\f407_disc\lvgl\lvgl\src/core\lv_disp.h **** 
 110:d:\practise\f407_disc\lvgl\lvgl\src/core\lv_disp.h **** /**
 111:d:\practise\f407_disc\lvgl\lvgl\src/core\lv_disp.h ****  * Opacity of the background
ARM GAS  C:\Users\gx\AppData\Local\Temp\ccLT5lDV.s 			page 6


 112:d:\practise\f407_disc\lvgl\lvgl\src/core\lv_disp.h ****  * @param disp pointer to a display
 113:d:\practise\f407_disc\lvgl\lvgl\src/core\lv_disp.h ****  * @param opa opacity (0..255)
 114:d:\practise\f407_disc\lvgl\lvgl\src/core\lv_disp.h ****  */
 115:d:\practise\f407_disc\lvgl\lvgl\src/core\lv_disp.h **** void lv_disp_set_bg_opa(lv_disp_t * disp, lv_opa_t opa);
 116:d:\practise\f407_disc\lvgl\lvgl\src/core\lv_disp.h **** 
 117:d:\practise\f407_disc\lvgl\lvgl\src/core\lv_disp.h **** /**
 118:d:\practise\f407_disc\lvgl\lvgl\src/core\lv_disp.h ****  * Switch screen with animation
 119:d:\practise\f407_disc\lvgl\lvgl\src/core\lv_disp.h ****  * @param scr pointer to the new screen to load
 120:d:\practise\f407_disc\lvgl\lvgl\src/core\lv_disp.h ****  * @param anim_type type of the animation from `lv_scr_load_anim_t`. E.g.  `LV_SCR_LOAD_ANIM_MOVE_L
 121:d:\practise\f407_disc\lvgl\lvgl\src/core\lv_disp.h ****  * @param time time of the animation
 122:d:\practise\f407_disc\lvgl\lvgl\src/core\lv_disp.h ****  * @param delay delay before the transition
 123:d:\practise\f407_disc\lvgl\lvgl\src/core\lv_disp.h ****  * @param auto_del true: automatically delete the old screen
 124:d:\practise\f407_disc\lvgl\lvgl\src/core\lv_disp.h ****  */
 125:d:\practise\f407_disc\lvgl\lvgl\src/core\lv_disp.h **** void lv_scr_load_anim(lv_obj_t * scr, lv_scr_load_anim_t anim_type, uint32_t time, uint32_t delay, 
 126:d:\practise\f407_disc\lvgl\lvgl\src/core\lv_disp.h **** 
 127:d:\practise\f407_disc\lvgl\lvgl\src/core\lv_disp.h **** /**
 128:d:\practise\f407_disc\lvgl\lvgl\src/core\lv_disp.h ****  * Get elapsed time since last user activity on a display (e.g. click)
 129:d:\practise\f407_disc\lvgl\lvgl\src/core\lv_disp.h ****  * @param disp pointer to an display (NULL to get the overall smallest inactivity)
 130:d:\practise\f407_disc\lvgl\lvgl\src/core\lv_disp.h ****  * @return elapsed ticks (milliseconds) since the last activity
 131:d:\practise\f407_disc\lvgl\lvgl\src/core\lv_disp.h ****  */
 132:d:\practise\f407_disc\lvgl\lvgl\src/core\lv_disp.h **** uint32_t lv_disp_get_inactive_time(const lv_disp_t * disp);
 133:d:\practise\f407_disc\lvgl\lvgl\src/core\lv_disp.h **** 
 134:d:\practise\f407_disc\lvgl\lvgl\src/core\lv_disp.h **** /**
 135:d:\practise\f407_disc\lvgl\lvgl\src/core\lv_disp.h ****  * Manually trigger an activity on a display
 136:d:\practise\f407_disc\lvgl\lvgl\src/core\lv_disp.h ****  * @param disp pointer to an display (NULL to use the default display)
 137:d:\practise\f407_disc\lvgl\lvgl\src/core\lv_disp.h ****  */
 138:d:\practise\f407_disc\lvgl\lvgl\src/core\lv_disp.h **** void lv_disp_trig_activity(lv_disp_t * disp);
 139:d:\practise\f407_disc\lvgl\lvgl\src/core\lv_disp.h **** 
 140:d:\practise\f407_disc\lvgl\lvgl\src/core\lv_disp.h **** /**
 141:d:\practise\f407_disc\lvgl\lvgl\src/core\lv_disp.h ****  * Clean any CPU cache that is related to the display.
 142:d:\practise\f407_disc\lvgl\lvgl\src/core\lv_disp.h ****  * @param disp pointer to an display (NULL to use the default display)
 143:d:\practise\f407_disc\lvgl\lvgl\src/core\lv_disp.h ****  */
 144:d:\practise\f407_disc\lvgl\lvgl\src/core\lv_disp.h **** void lv_disp_clean_dcache(lv_disp_t * disp);
 145:d:\practise\f407_disc\lvgl\lvgl\src/core\lv_disp.h **** 
 146:d:\practise\f407_disc\lvgl\lvgl\src/core\lv_disp.h **** /**
 147:d:\practise\f407_disc\lvgl\lvgl\src/core\lv_disp.h ****  * Get a pointer to the screen refresher timer to
 148:d:\practise\f407_disc\lvgl\lvgl\src/core\lv_disp.h ****  * modify its parameters with `lv_timer_...` functions.
 149:d:\practise\f407_disc\lvgl\lvgl\src/core\lv_disp.h ****  * @param disp pointer to a display
 150:d:\practise\f407_disc\lvgl\lvgl\src/core\lv_disp.h ****  * @return pointer to the display refresher timer. (NULL on error)
 151:d:\practise\f407_disc\lvgl\lvgl\src/core\lv_disp.h ****  */
 152:d:\practise\f407_disc\lvgl\lvgl\src/core\lv_disp.h **** lv_timer_t * _lv_disp_get_refr_timer(lv_disp_t * disp);
 153:d:\practise\f407_disc\lvgl\lvgl\src/core\lv_disp.h **** 
 154:d:\practise\f407_disc\lvgl\lvgl\src/core\lv_disp.h **** /*------------------------------------------------
 155:d:\practise\f407_disc\lvgl\lvgl\src/core\lv_disp.h ****  * To improve backward compatibility
 156:d:\practise\f407_disc\lvgl\lvgl\src/core\lv_disp.h ****  * Recommended only if you have one display
 157:d:\practise\f407_disc\lvgl\lvgl\src/core\lv_disp.h ****  *------------------------------------------------*/
 158:d:\practise\f407_disc\lvgl\lvgl\src/core\lv_disp.h **** 
 159:d:\practise\f407_disc\lvgl\lvgl\src/core\lv_disp.h **** /**
 160:d:\practise\f407_disc\lvgl\lvgl\src/core\lv_disp.h ****  * Get the active screen of the default display
 161:d:\practise\f407_disc\lvgl\lvgl\src/core\lv_disp.h ****  * @return pointer to the active screen
 162:d:\practise\f407_disc\lvgl\lvgl\src/core\lv_disp.h ****  */
 163:d:\practise\f407_disc\lvgl\lvgl\src/core\lv_disp.h **** static inline lv_obj_t * lv_scr_act(void)
 129              		.loc 2 163 26 view .LVU23
 130              	.LBB7:
 164:d:\practise\f407_disc\lvgl\lvgl\src/core\lv_disp.h **** {
 165:d:\practise\f407_disc\lvgl\lvgl\src/core\lv_disp.h ****     return lv_disp_get_scr_act(lv_disp_get_default());
 131              		.loc 2 165 5 view .LVU24
ARM GAS  C:\Users\gx\AppData\Local\Temp\ccLT5lDV.s 			page 7


 132              		.loc 2 165 12 is_stmt 0 view .LVU25
 133 0002 FFF7FEFF 		bl	lv_disp_get_default
 134              	.LVL9:
 135 0006 FFF7FEFF 		bl	lv_disp_get_scr_act
 136              	.LVL10:
 137              	.LBE7:
 138              	.LBE6:
  15:lvgl/lvgl/examples/widgets/textarea/lv_example_textarea_3.c ****     lv_obj_add_event_cb(ta, ta_event_cb, LV_EVENT_VALUE_CHANGED, NULL);
 139              		.loc 1 15 21 view .LVU26
 140 000a FFF7FEFF 		bl	lv_textarea_create
 141              	.LVL11:
 142 000e 0446     		mov	r4, r0
 143              	.LVL12:
  16:lvgl/lvgl/examples/widgets/textarea/lv_example_textarea_3.c ****     lv_textarea_set_accepted_chars(ta, "0123456789:");
 144              		.loc 1 16 5 is_stmt 1 view .LVU27
 145 0010 0023     		movs	r3, #0
 146 0012 1C22     		movs	r2, #28
 147 0014 1A49     		ldr	r1, .L7
 148 0016 FFF7FEFF 		bl	lv_obj_add_event_cb
 149              	.LVL13:
  17:lvgl/lvgl/examples/widgets/textarea/lv_example_textarea_3.c ****     lv_textarea_set_max_length(ta, 5);
 150              		.loc 1 17 5 view .LVU28
 151 001a 1A49     		ldr	r1, .L7+4
 152 001c 2046     		mov	r0, r4
 153 001e FFF7FEFF 		bl	lv_textarea_set_accepted_chars
 154              	.LVL14:
  18:lvgl/lvgl/examples/widgets/textarea/lv_example_textarea_3.c ****     lv_textarea_set_one_line(ta, true);
 155              		.loc 1 18 5 view .LVU29
 156 0022 0521     		movs	r1, #5
 157 0024 2046     		mov	r0, r4
 158 0026 FFF7FEFF 		bl	lv_textarea_set_max_length
 159              	.LVL15:
  19:lvgl/lvgl/examples/widgets/textarea/lv_example_textarea_3.c ****     lv_textarea_set_text(ta, "");
 160              		.loc 1 19 5 view .LVU30
 161 002a 0121     		movs	r1, #1
 162 002c 2046     		mov	r0, r4
 163 002e FFF7FEFF 		bl	lv_textarea_set_one_line
 164              	.LVL16:
  20:lvgl/lvgl/examples/widgets/textarea/lv_example_textarea_3.c **** 
 165              		.loc 1 20 5 view .LVU31
 166 0032 1549     		ldr	r1, .L7+8
 167 0034 2046     		mov	r0, r4
 168 0036 FFF7FEFF 		bl	lv_textarea_set_text
 169              	.LVL17:
  23:lvgl/lvgl/examples/widgets/textarea/lv_example_textarea_3.c ****     lv_obj_set_size(kb,  LV_HOR_RES, LV_VER_RES / 2);
 170              		.loc 1 23 5 view .LVU32
 171              	.LBB8:
 172              	.LBI8:
 163:d:\practise\f407_disc\lvgl\lvgl\src/core\lv_disp.h **** {
 173              		.loc 2 163 26 view .LVU33
 174              	.LBB9:
 175              		.loc 2 165 5 view .LVU34
 176              		.loc 2 165 12 is_stmt 0 view .LVU35
 177 003a FFF7FEFF 		bl	lv_disp_get_default
 178              	.LVL18:
 179 003e FFF7FEFF 		bl	lv_disp_get_scr_act
 180              	.LVL19:
ARM GAS  C:\Users\gx\AppData\Local\Temp\ccLT5lDV.s 			page 8


 181              	.LBE9:
 182              	.LBE8:
  23:lvgl/lvgl/examples/widgets/textarea/lv_example_textarea_3.c ****     lv_obj_set_size(kb,  LV_HOR_RES, LV_VER_RES / 2);
 183              		.loc 1 23 10 view .LVU36
 184 0042 FFF7FEFF 		bl	lv_keyboard_create
 185              	.LVL20:
 186 0046 0546     		mov	r5, r0
  23:lvgl/lvgl/examples/widgets/textarea/lv_example_textarea_3.c ****     lv_obj_set_size(kb,  LV_HOR_RES, LV_VER_RES / 2);
 187              		.loc 1 23 8 view .LVU37
 188 0048 104E     		ldr	r6, .L7+12
 189 004a 3060     		str	r0, [r6]
  24:lvgl/lvgl/examples/widgets/textarea/lv_example_textarea_3.c ****     lv_keyboard_set_mode(kb, LV_KEYBOARD_MODE_NUMBER);
 190              		.loc 1 24 5 is_stmt 1 view .LVU38
 191 004c FFF7FEFF 		bl	lv_disp_get_default
 192              	.LVL21:
 193 0050 FFF7FEFF 		bl	lv_disp_get_hor_res
 194              	.LVL22:
 195 0054 0746     		mov	r7, r0
  24:lvgl/lvgl/examples/widgets/textarea/lv_example_textarea_3.c ****     lv_keyboard_set_mode(kb, LV_KEYBOARD_MODE_NUMBER);
 196              		.loc 1 24 38 is_stmt 0 view .LVU39
 197 0056 FFF7FEFF 		bl	lv_disp_get_default
 198              	.LVL23:
 199 005a FFF7FEFF 		bl	lv_disp_get_ver_res
 200              	.LVL24:
  24:lvgl/lvgl/examples/widgets/textarea/lv_example_textarea_3.c ****     lv_keyboard_set_mode(kb, LV_KEYBOARD_MODE_NUMBER);
 201              		.loc 1 24 5 view .LVU40
 202 005e 00EBD070 		add	r0, r0, r0, lsr #31
 203 0062 40F34F02 		sbfx	r2, r0, #1, #16
 204 0066 3946     		mov	r1, r7
 205 0068 2846     		mov	r0, r5
 206 006a FFF7FEFF 		bl	lv_obj_set_size
 207              	.LVL25:
  25:lvgl/lvgl/examples/widgets/textarea/lv_example_textarea_3.c ****     lv_keyboard_set_textarea(kb, ta);
 208              		.loc 1 25 5 is_stmt 1 view .LVU41
 209 006e 0321     		movs	r1, #3
 210 0070 3068     		ldr	r0, [r6]
 211 0072 FFF7FEFF 		bl	lv_keyboard_set_mode
 212              	.LVL26:
  26:lvgl/lvgl/examples/widgets/textarea/lv_example_textarea_3.c **** }
 213              		.loc 1 26 5 view .LVU42
 214 0076 2146     		mov	r1, r4
 215 0078 3068     		ldr	r0, [r6]
 216 007a FFF7FEFF 		bl	lv_keyboard_set_textarea
 217              	.LVL27:
  27:lvgl/lvgl/examples/widgets/textarea/lv_example_textarea_3.c **** 
 218              		.loc 1 27 1 is_stmt 0 view .LVU43
 219 007e F8BD     		pop	{r3, r4, r5, r6, r7, pc}
 220              	.LVL28:
 221              	.L8:
  27:lvgl/lvgl/examples/widgets/textarea/lv_example_textarea_3.c **** 
 222              		.loc 1 27 1 view .LVU44
 223              		.align	2
 224              	.L7:
 225 0080 00000000 		.word	ta_event_cb
 226 0084 00000000 		.word	.LC0
 227 0088 0C000000 		.word	.LC1
 228 008c 00000000 		.word	.LANCHOR0
ARM GAS  C:\Users\gx\AppData\Local\Temp\ccLT5lDV.s 			page 9


 229              		.cfi_endproc
 230              	.LFE189:
 232              		.section	.bss.kb,"aw",%nobits
 233              		.align	2
 234              		.set	.LANCHOR0,. + 0
 237              	kb:
 238 0000 00000000 		.space	4
 239              		.text
 240              	.Letext0:
 241              		.file 3 "c:\\program files (x86)\\gnu arm embedded toolchain\\9 2020-q2-update\\arm-none-eabi\\inc
 242              		.file 4 "c:\\program files (x86)\\gnu arm embedded toolchain\\9 2020-q2-update\\arm-none-eabi\\inc
 243              		.file 5 "d:\\practise\\f407_disc\\lvgl\\lvgl\\src/misc/lv_ll.h"
 244              		.file 6 "c:\\program files (x86)\\gnu arm embedded toolchain\\9 2020-q2-update\\lib\\gcc\\arm-none
 245              		.file 7 "c:\\program files (x86)\\gnu arm embedded toolchain\\9 2020-q2-update\\arm-none-eabi\\inc
 246              		.file 8 "c:\\program files (x86)\\gnu arm embedded toolchain\\9 2020-q2-update\\arm-none-eabi\\inc
 247              		.file 9 "c:\\program files (x86)\\gnu arm embedded toolchain\\9 2020-q2-update\\arm-none-eabi\\inc
 248              		.file 10 "d:\\practise\\f407_disc\\lvgl\\lvgl\\src\\misc\\lv_color.h"
 249              		.file 11 "d:\\practise\\f407_disc\\lvgl\\lvgl\\src\\misc\\lv_area.h"
 250              		.file 12 "d:\\practise\\f407_disc\\lvgl\\lvgl\\src/core/lv_obj.h"
 251              		.file 13 "d:\\practise\\f407_disc\\lvgl\\lvgl\\src/core/lv_group.h"
 252              		.file 14 "d:\\practise\\f407_disc\\lvgl\\lvgl\\src\\font\\lv_font.h"
 253              		.file 15 "d:\\practise\\f407_disc\\lvgl\\lvgl\\src\\misc\\lv_txt.h"
 254              		.file 16 "d:\\practise\\f407_disc\\lvgl\\lvgl\\src\\misc\\lv_style.h"
 255              		.file 17 "d:\\practise\\f407_disc\\lvgl\\lvgl\\src/core/lv_obj_scroll.h"
 256              		.file 18 "d:\\practise\\f407_disc\\lvgl\\lvgl\\src/core/lv_obj_style.h"
 257              		.file 19 "d:\\practise\\f407_disc\\lvgl\\lvgl\\src\\draw\\lv_draw_label.h"
 258              		.file 20 "d:\\practise\\f407_disc\\lvgl\\lvgl\\src/core/lv_obj_class.h"
 259              		.file 21 "d:\\practise\\f407_disc\\lvgl\\lvgl\\src/core/lv_event.h"
 260              		.file 22 "d:\\practise\\f407_disc\\lvgl\\lvgl\\src/widgets/lv_arc.h"
 261              		.file 23 "d:\\practise\\f407_disc\\lvgl\\lvgl\\src/widgets/lv_btn.h"
 262              		.file 24 "d:\\practise\\f407_disc\\lvgl\\lvgl\\src/widgets/lv_img.h"
 263              		.file 25 "d:\\practise\\f407_disc\\lvgl\\lvgl\\src/widgets/lv_label.h"
 264              		.file 26 "d:\\practise\\f407_disc\\lvgl\\lvgl\\src/widgets/lv_line.h"
 265              		.file 27 "d:\\practise\\f407_disc\\lvgl\\lvgl\\src/widgets/lv_table.h"
 266              		.file 28 "d:\\practise\\f407_disc\\lvgl\\lvgl\\src/widgets/lv_checkbox.h"
 267              		.file 29 "d:\\practise\\f407_disc\\lvgl\\lvgl\\src/widgets/lv_bar.h"
 268              		.file 30 "d:\\practise\\f407_disc\\lvgl\\lvgl\\src/widgets/lv_slider.h"
 269              		.file 31 "d:\\practise\\f407_disc\\lvgl\\lvgl\\src/widgets/lv_btnmatrix.h"
 270              		.file 32 "d:\\practise\\f407_disc\\lvgl\\lvgl\\src/widgets/lv_dropdown.h"
 271              		.file 33 "d:\\practise\\f407_disc\\lvgl\\lvgl\\src/widgets/lv_roller.h"
 272              		.file 34 "d:\\practise\\f407_disc\\lvgl\\lvgl\\src/widgets/lv_textarea.h"
 273              		.file 35 "d:\\practise\\f407_disc\\lvgl\\lvgl\\src/widgets/lv_canvas.h"
 274              		.file 36 "d:\\practise\\f407_disc\\lvgl\\lvgl\\src/widgets/lv_switch.h"
 275              		.file 37 "d:\\practise\\f407_disc\\lvgl\\lvgl\\src/extra/widgets/animimg/lv_animimg.h"
 276              		.file 38 "d:\\practise\\f407_disc\\lvgl\\lvgl\\src/extra/widgets/calendar/lv_calendar.h"
 277              		.file 39 "d:\\practise\\f407_disc\\lvgl\\lvgl\\src/extra/widgets/calendar/lv_calendar_header_arrow
 278              		.file 40 "d:\\practise\\f407_disc\\lvgl\\lvgl\\src/extra/widgets/calendar/lv_calendar_header_dropd
 279              		.file 41 "d:\\practise\\f407_disc\\lvgl\\lvgl\\src/extra/widgets/chart/lv_chart.h"
 280              		.file 42 "d:\\practise\\f407_disc\\lvgl\\lvgl\\src/extra/widgets/keyboard/lv_keyboard.h"
 281              		.file 43 "d:\\practise\\f407_disc\\lvgl\\lvgl\\src\\extra\\layouts\\flex\\lv_flex.h"
 282              		.file 44 "d:\\practise\\f407_disc\\lvgl\\lvgl\\src/extra/widgets/list/lv_list.h"
 283              		.file 45 "d:\\practise\\f407_disc\\lvgl\\lvgl\\src/extra/widgets/msgbox/lv_msgbox.h"
 284              		.file 46 "d:\\practise\\f407_disc\\lvgl\\lvgl\\src/extra/widgets/meter/lv_meter.h"
 285              		.file 47 "d:\\practise\\f407_disc\\lvgl\\lvgl\\src/extra/widgets/spinbox/lv_spinbox.h"
 286              		.file 48 "d:\\practise\\f407_disc\\lvgl\\lvgl\\src/extra/widgets/spinner/lv_spinner.h"
 287              		.file 49 "d:\\practise\\f407_disc\\lvgl\\lvgl\\src/extra/widgets/tabview/lv_tabview.h"
 288              		.file 50 "d:\\practise\\f407_disc\\lvgl\\lvgl\\src/extra/widgets/tileview/lv_tileview.h"
ARM GAS  C:\Users\gx\AppData\Local\Temp\ccLT5lDV.s 			page 10


 289              		.file 51 "d:\\practise\\f407_disc\\lvgl\\lvgl\\src/extra/widgets/win/lv_win.h"
 290              		.file 52 "d:\\practise\\f407_disc\\lvgl\\lvgl\\src/extra/widgets/colorwheel/lv_colorwheel.h"
 291              		.file 53 "d:\\practise\\f407_disc\\lvgl\\lvgl\\src/extra/widgets/led/lv_led.h"
 292              		.file 54 "d:\\practise\\f407_disc\\lvgl\\lvgl\\src/extra/widgets/imgbtn/lv_imgbtn.h"
 293              		.file 55 "d:\\practise\\f407_disc\\lvgl\\lvgl\\src/extra/widgets/span/lv_span.h"
 294              		.file 56 "d:\\practise\\f407_disc\\lvgl\\lvgl\\src/extra/layouts/grid/lv_grid.h"
 295              		.file 57 "d:\\practise\\f407_disc\\lvgl\\lvgl\\src/hal/lv_hal_disp.h"
 296              		.file 58 "d:\\practise\\f407_disc\\lvgl\\lvgl\\src/core/lv_obj_pos.h"
ARM GAS  C:\Users\gx\AppData\Local\Temp\ccLT5lDV.s 			page 11

