ARM GAS  C:\Users\gx\AppData\Local\Temp\ccekqJtk.s 			page 1


   1              		.cpu cortex-m4
   2              		.eabi_attribute 27, 1
   3              		.eabi_attribute 28, 1
   4              		.eabi_attribute 20, 1
   5              		.eabi_attribute 21, 1
   6              		.eabi_attribute 23, 3
   7              		.eabi_attribute 24, 1
   8              		.eabi_attribute 25, 1
   9              		.eabi_attribute 26, 1
  10              		.eabi_attribute 30, 1
  11              		.eabi_attribute 34, 1
  12              		.eabi_attribute 18, 4
  13              		.file	"lv_example_btn_3.c"
  14              		.text
  15              	.Ltext0:
  16              		.cfi_sections	.debug_frame
  17              		.section	.rodata.lv_example_btn_3.str1.4,"aMS",%progbits,1
  18              		.align	2
  19              	.LC0:
  20 0000 47756D00 		.ascii	"Gum\000"
  21              		.section	.text.lv_example_btn_3,"ax",%progbits
  22              		.align	1
  23              		.global	lv_example_btn_3
  24              		.arch armv7e-m
  25              		.syntax unified
  26              		.thumb
  27              		.thumb_func
  28              		.fpu fpv4-sp-d16
  30              	lv_example_btn_3:
  31              	.LFB189:
  32              		.file 1 "lvgl/lvgl/examples/widgets/btn/lv_example_btn_3.c"
   1:lvgl/lvgl/examples/widgets/btn/lv_example_btn_3.c **** #include "../../lv_examples.h"
   2:lvgl/lvgl/examples/widgets/btn/lv_example_btn_3.c **** #if LV_BUILD_EXAMPLES && LV_USE_BTN
   3:lvgl/lvgl/examples/widgets/btn/lv_example_btn_3.c **** 
   4:lvgl/lvgl/examples/widgets/btn/lv_example_btn_3.c **** /**
   5:lvgl/lvgl/examples/widgets/btn/lv_example_btn_3.c ****  * Create a style transition on a button to act like a gum when clicked
   6:lvgl/lvgl/examples/widgets/btn/lv_example_btn_3.c ****  */
   7:lvgl/lvgl/examples/widgets/btn/lv_example_btn_3.c **** void lv_example_btn_3(void)
   8:lvgl/lvgl/examples/widgets/btn/lv_example_btn_3.c **** {
  33              		.loc 1 8 1 view -0
  34              		.cfi_startproc
  35              		@ args = 0, pretend = 0, frame = 0
  36              		@ frame_needed = 0, uses_anonymous_args = 0
  37 0000 F0B5     		push	{r4, r5, r6, r7, lr}
  38              	.LCFI0:
  39              		.cfi_def_cfa_offset 20
  40              		.cfi_offset 4, -20
  41              		.cfi_offset 5, -16
  42              		.cfi_offset 6, -12
  43              		.cfi_offset 7, -8
  44              		.cfi_offset 14, -4
  45 0002 83B0     		sub	sp, sp, #12
  46              	.LCFI1:
  47              		.cfi_def_cfa_offset 32
   9:lvgl/lvgl/examples/widgets/btn/lv_example_btn_3.c ****     /*Properties to transition*/
  10:lvgl/lvgl/examples/widgets/btn/lv_example_btn_3.c ****     static lv_style_prop_t props[] = {
  48              		.loc 1 10 5 view .LVU1
ARM GAS  C:\Users\gx\AppData\Local\Temp\ccekqJtk.s 			page 2


  11:lvgl/lvgl/examples/widgets/btn/lv_example_btn_3.c ****             LV_STYLE_TRANSFORM_WIDTH, LV_STYLE_TRANSFORM_HEIGHT, LV_STYLE_TEXT_LETTER_SPACE, 0
  12:lvgl/lvgl/examples/widgets/btn/lv_example_btn_3.c ****     };
  13:lvgl/lvgl/examples/widgets/btn/lv_example_btn_3.c **** 
  14:lvgl/lvgl/examples/widgets/btn/lv_example_btn_3.c ****     /*Transition descriptor when going back to the default state.
  15:lvgl/lvgl/examples/widgets/btn/lv_example_btn_3.c ****      *Add some delay to be sure the press transition is visible even if the press was very short*/
  16:lvgl/lvgl/examples/widgets/btn/lv_example_btn_3.c ****     static lv_style_transition_dsc_t transition_dsc_def;
  49              		.loc 1 16 5 view .LVU2
  17:lvgl/lvgl/examples/widgets/btn/lv_example_btn_3.c ****     lv_style_transition_dsc_init(&transition_dsc_def, props, lv_anim_path_overshoot, 250, 100, NULL
  50              		.loc 1 17 5 view .LVU3
  51 0004 284F     		ldr	r7, .L3
  52 0006 294C     		ldr	r4, .L3+4
  53 0008 0026     		movs	r6, #0
  54 000a 0196     		str	r6, [sp, #4]
  55 000c 6423     		movs	r3, #100
  56 000e 0093     		str	r3, [sp]
  57 0010 FA23     		movs	r3, #250
  58 0012 274A     		ldr	r2, .L3+8
  59 0014 3946     		mov	r1, r7
  60 0016 2046     		mov	r0, r4
  61 0018 FFF7FEFF 		bl	lv_style_transition_dsc_init
  62              	.LVL0:
  18:lvgl/lvgl/examples/widgets/btn/lv_example_btn_3.c **** 
  19:lvgl/lvgl/examples/widgets/btn/lv_example_btn_3.c ****     /*Transition descriptor when going to pressed state.
  20:lvgl/lvgl/examples/widgets/btn/lv_example_btn_3.c ****      *No delay, go to presses state immediately*/
  21:lvgl/lvgl/examples/widgets/btn/lv_example_btn_3.c ****     static lv_style_transition_dsc_t transition_dsc_pr;
  63              		.loc 1 21 5 view .LVU4
  22:lvgl/lvgl/examples/widgets/btn/lv_example_btn_3.c ****     lv_style_transition_dsc_init(&transition_dsc_pr, props, lv_anim_path_ease_in_out, 250, 0, NULL)
  64              		.loc 1 22 5 view .LVU5
  65 001c 254D     		ldr	r5, .L3+12
  66 001e 0196     		str	r6, [sp, #4]
  67 0020 0096     		str	r6, [sp]
  68 0022 FA23     		movs	r3, #250
  69 0024 244A     		ldr	r2, .L3+16
  70 0026 3946     		mov	r1, r7
  71 0028 2846     		mov	r0, r5
  72 002a FFF7FEFF 		bl	lv_style_transition_dsc_init
  73              	.LVL1:
  23:lvgl/lvgl/examples/widgets/btn/lv_example_btn_3.c **** 
  24:lvgl/lvgl/examples/widgets/btn/lv_example_btn_3.c ****     /*Add only the new transition to he default state*/
  25:lvgl/lvgl/examples/widgets/btn/lv_example_btn_3.c ****     static lv_style_t style_def;
  74              		.loc 1 25 5 view .LVU6
  26:lvgl/lvgl/examples/widgets/btn/lv_example_btn_3.c ****     lv_style_init(&style_def);
  75              		.loc 1 26 5 view .LVU7
  76 002e 234F     		ldr	r7, .L3+20
  77 0030 3846     		mov	r0, r7
  78 0032 FFF7FEFF 		bl	lv_style_init
  79              	.LVL2:
  27:lvgl/lvgl/examples/widgets/btn/lv_example_btn_3.c ****     lv_style_set_transition(&style_def, &transition_dsc_def);
  80              		.loc 1 27 5 view .LVU8
  81 0036 2146     		mov	r1, r4
  82 0038 3846     		mov	r0, r7
  83 003a FFF7FEFF 		bl	lv_style_set_transition
  84              	.LVL3:
  28:lvgl/lvgl/examples/widgets/btn/lv_example_btn_3.c **** 
  29:lvgl/lvgl/examples/widgets/btn/lv_example_btn_3.c ****     /*Add the transition and some transformation to the presses state.*/
  30:lvgl/lvgl/examples/widgets/btn/lv_example_btn_3.c ****     static lv_style_t style_pr;
  85              		.loc 1 30 5 view .LVU9
ARM GAS  C:\Users\gx\AppData\Local\Temp\ccekqJtk.s 			page 3


  31:lvgl/lvgl/examples/widgets/btn/lv_example_btn_3.c ****     lv_style_init(&style_pr);
  86              		.loc 1 31 5 view .LVU10
  87 003e 204C     		ldr	r4, .L3+24
  88 0040 2046     		mov	r0, r4
  89 0042 FFF7FEFF 		bl	lv_style_init
  90              	.LVL4:
  32:lvgl/lvgl/examples/widgets/btn/lv_example_btn_3.c ****     lv_style_set_transform_width(&style_pr, 10);
  91              		.loc 1 32 5 view .LVU11
  92 0046 0A21     		movs	r1, #10
  93 0048 2046     		mov	r0, r4
  94 004a FFF7FEFF 		bl	lv_style_set_transform_width
  95              	.LVL5:
  33:lvgl/lvgl/examples/widgets/btn/lv_example_btn_3.c ****     lv_style_set_transform_height(&style_pr, -10);
  96              		.loc 1 33 5 view .LVU12
  97 004e 6FF00901 		mvn	r1, #9
  98 0052 2046     		mov	r0, r4
  99 0054 FFF7FEFF 		bl	lv_style_set_transform_height
 100              	.LVL6:
  34:lvgl/lvgl/examples/widgets/btn/lv_example_btn_3.c ****     lv_style_set_text_letter_space(&style_pr, 10);
 101              		.loc 1 34 5 view .LVU13
 102 0058 0A21     		movs	r1, #10
 103 005a 2046     		mov	r0, r4
 104 005c FFF7FEFF 		bl	lv_style_set_text_letter_space
 105              	.LVL7:
  35:lvgl/lvgl/examples/widgets/btn/lv_example_btn_3.c ****     lv_style_set_transition(&style_pr, &transition_dsc_pr);
 106              		.loc 1 35 5 view .LVU14
 107 0060 2946     		mov	r1, r5
 108 0062 2046     		mov	r0, r4
 109 0064 FFF7FEFF 		bl	lv_style_set_transition
 110              	.LVL8:
  36:lvgl/lvgl/examples/widgets/btn/lv_example_btn_3.c **** 
  37:lvgl/lvgl/examples/widgets/btn/lv_example_btn_3.c ****     lv_obj_t * btn1 = lv_btn_create(lv_scr_act());
 111              		.loc 1 37 5 view .LVU15
 112              	.LBB4:
 113              	.LBI4:
 114              		.file 2 "d:\\practise\\f407_disc\\lvgl\\lvgl\\src/core/lv_disp.h"
   1:d:\practise\f407_disc\lvgl\lvgl\src/core\lv_disp.h **** /**
   2:d:\practise\f407_disc\lvgl\lvgl\src/core\lv_disp.h ****  * @file lv_disp.h
   3:d:\practise\f407_disc\lvgl\lvgl\src/core\lv_disp.h ****  *
   4:d:\practise\f407_disc\lvgl\lvgl\src/core\lv_disp.h ****  */
   5:d:\practise\f407_disc\lvgl\lvgl\src/core\lv_disp.h **** 
   6:d:\practise\f407_disc\lvgl\lvgl\src/core\lv_disp.h **** #ifndef LV_DISP_H
   7:d:\practise\f407_disc\lvgl\lvgl\src/core\lv_disp.h **** #define LV_DISP_H
   8:d:\practise\f407_disc\lvgl\lvgl\src/core\lv_disp.h **** 
   9:d:\practise\f407_disc\lvgl\lvgl\src/core\lv_disp.h **** #ifdef __cplusplus
  10:d:\practise\f407_disc\lvgl\lvgl\src/core\lv_disp.h **** extern "C" {
  11:d:\practise\f407_disc\lvgl\lvgl\src/core\lv_disp.h **** #endif
  12:d:\practise\f407_disc\lvgl\lvgl\src/core\lv_disp.h **** 
  13:d:\practise\f407_disc\lvgl\lvgl\src/core\lv_disp.h **** /*********************
  14:d:\practise\f407_disc\lvgl\lvgl\src/core\lv_disp.h ****  *      INCLUDES
  15:d:\practise\f407_disc\lvgl\lvgl\src/core\lv_disp.h ****  *********************/
  16:d:\practise\f407_disc\lvgl\lvgl\src/core\lv_disp.h **** #include "../hal/lv_hal.h"
  17:d:\practise\f407_disc\lvgl\lvgl\src/core\lv_disp.h **** #include "lv_obj.h"
  18:d:\practise\f407_disc\lvgl\lvgl\src/core\lv_disp.h **** #include "lv_theme.h"
  19:d:\practise\f407_disc\lvgl\lvgl\src/core\lv_disp.h **** 
  20:d:\practise\f407_disc\lvgl\lvgl\src/core\lv_disp.h **** /*********************
  21:d:\practise\f407_disc\lvgl\lvgl\src/core\lv_disp.h ****  *      DEFINES
ARM GAS  C:\Users\gx\AppData\Local\Temp\ccekqJtk.s 			page 4


  22:d:\practise\f407_disc\lvgl\lvgl\src/core\lv_disp.h ****  *********************/
  23:d:\practise\f407_disc\lvgl\lvgl\src/core\lv_disp.h **** 
  24:d:\practise\f407_disc\lvgl\lvgl\src/core\lv_disp.h **** /**********************
  25:d:\practise\f407_disc\lvgl\lvgl\src/core\lv_disp.h ****  *      TYPEDEFS
  26:d:\practise\f407_disc\lvgl\lvgl\src/core\lv_disp.h ****  **********************/
  27:d:\practise\f407_disc\lvgl\lvgl\src/core\lv_disp.h **** 
  28:d:\practise\f407_disc\lvgl\lvgl\src/core\lv_disp.h **** typedef enum {
  29:d:\practise\f407_disc\lvgl\lvgl\src/core\lv_disp.h ****     LV_SCR_LOAD_ANIM_NONE,
  30:d:\practise\f407_disc\lvgl\lvgl\src/core\lv_disp.h ****     LV_SCR_LOAD_ANIM_OVER_LEFT,
  31:d:\practise\f407_disc\lvgl\lvgl\src/core\lv_disp.h ****     LV_SCR_LOAD_ANIM_OVER_RIGHT,
  32:d:\practise\f407_disc\lvgl\lvgl\src/core\lv_disp.h ****     LV_SCR_LOAD_ANIM_OVER_TOP,
  33:d:\practise\f407_disc\lvgl\lvgl\src/core\lv_disp.h ****     LV_SCR_LOAD_ANIM_OVER_BOTTOM,
  34:d:\practise\f407_disc\lvgl\lvgl\src/core\lv_disp.h ****     LV_SCR_LOAD_ANIM_MOVE_LEFT,
  35:d:\practise\f407_disc\lvgl\lvgl\src/core\lv_disp.h ****     LV_SCR_LOAD_ANIM_MOVE_RIGHT,
  36:d:\practise\f407_disc\lvgl\lvgl\src/core\lv_disp.h ****     LV_SCR_LOAD_ANIM_MOVE_TOP,
  37:d:\practise\f407_disc\lvgl\lvgl\src/core\lv_disp.h ****     LV_SCR_LOAD_ANIM_MOVE_BOTTOM,
  38:d:\practise\f407_disc\lvgl\lvgl\src/core\lv_disp.h ****     LV_SCR_LOAD_ANIM_FADE_ON,
  39:d:\practise\f407_disc\lvgl\lvgl\src/core\lv_disp.h **** } lv_scr_load_anim_t;
  40:d:\practise\f407_disc\lvgl\lvgl\src/core\lv_disp.h **** 
  41:d:\practise\f407_disc\lvgl\lvgl\src/core\lv_disp.h **** /**********************
  42:d:\practise\f407_disc\lvgl\lvgl\src/core\lv_disp.h ****  * GLOBAL PROTOTYPES
  43:d:\practise\f407_disc\lvgl\lvgl\src/core\lv_disp.h ****  **********************/
  44:d:\practise\f407_disc\lvgl\lvgl\src/core\lv_disp.h **** 
  45:d:\practise\f407_disc\lvgl\lvgl\src/core\lv_disp.h **** /**
  46:d:\practise\f407_disc\lvgl\lvgl\src/core\lv_disp.h ****  * Return with a pointer to the active screen
  47:d:\practise\f407_disc\lvgl\lvgl\src/core\lv_disp.h ****  * @param disp pointer to display which active screen should be get. (NULL to use the default
  48:d:\practise\f407_disc\lvgl\lvgl\src/core\lv_disp.h ****  * screen)
  49:d:\practise\f407_disc\lvgl\lvgl\src/core\lv_disp.h ****  * @return pointer to the active screen object (loaded by 'lv_scr_load()')
  50:d:\practise\f407_disc\lvgl\lvgl\src/core\lv_disp.h ****  */
  51:d:\practise\f407_disc\lvgl\lvgl\src/core\lv_disp.h **** lv_obj_t * lv_disp_get_scr_act(lv_disp_t * disp);
  52:d:\practise\f407_disc\lvgl\lvgl\src/core\lv_disp.h **** 
  53:d:\practise\f407_disc\lvgl\lvgl\src/core\lv_disp.h **** /**
  54:d:\practise\f407_disc\lvgl\lvgl\src/core\lv_disp.h ****  * Return with a pointer to the previous screen. Only used during screen transitions.
  55:d:\practise\f407_disc\lvgl\lvgl\src/core\lv_disp.h ****  * @param disp pointer to display which previous screen should be get. (NULL to use the default
  56:d:\practise\f407_disc\lvgl\lvgl\src/core\lv_disp.h ****  * screen)
  57:d:\practise\f407_disc\lvgl\lvgl\src/core\lv_disp.h ****  * @return pointer to the previous screen object or NULL if not used now
  58:d:\practise\f407_disc\lvgl\lvgl\src/core\lv_disp.h ****  */
  59:d:\practise\f407_disc\lvgl\lvgl\src/core\lv_disp.h **** lv_obj_t * lv_disp_get_scr_prev(lv_disp_t * disp);
  60:d:\practise\f407_disc\lvgl\lvgl\src/core\lv_disp.h **** 
  61:d:\practise\f407_disc\lvgl\lvgl\src/core\lv_disp.h **** /**
  62:d:\practise\f407_disc\lvgl\lvgl\src/core\lv_disp.h ****  * Make a screen active
  63:d:\practise\f407_disc\lvgl\lvgl\src/core\lv_disp.h ****  * @param scr pointer to a screen
  64:d:\practise\f407_disc\lvgl\lvgl\src/core\lv_disp.h ****  */
  65:d:\practise\f407_disc\lvgl\lvgl\src/core\lv_disp.h **** void lv_disp_load_scr(lv_obj_t * scr);
  66:d:\practise\f407_disc\lvgl\lvgl\src/core\lv_disp.h **** 
  67:d:\practise\f407_disc\lvgl\lvgl\src/core\lv_disp.h **** /**
  68:d:\practise\f407_disc\lvgl\lvgl\src/core\lv_disp.h ****  * Return with the top layer. (Same on every screen and it is above the normal screen layer)
  69:d:\practise\f407_disc\lvgl\lvgl\src/core\lv_disp.h ****  * @param disp pointer to display which top layer should be get. (NULL to use the default screen)
  70:d:\practise\f407_disc\lvgl\lvgl\src/core\lv_disp.h ****  * @return pointer to the top layer object  (transparent screen sized lv_obj)
  71:d:\practise\f407_disc\lvgl\lvgl\src/core\lv_disp.h ****  */
  72:d:\practise\f407_disc\lvgl\lvgl\src/core\lv_disp.h **** lv_obj_t * lv_disp_get_layer_top(lv_disp_t * disp);
  73:d:\practise\f407_disc\lvgl\lvgl\src/core\lv_disp.h **** 
  74:d:\practise\f407_disc\lvgl\lvgl\src/core\lv_disp.h **** /**
  75:d:\practise\f407_disc\lvgl\lvgl\src/core\lv_disp.h ****  * Return with the sys. layer. (Same on every screen and it is above the normal screen and the top
  76:d:\practise\f407_disc\lvgl\lvgl\src/core\lv_disp.h ****  * layer)
  77:d:\practise\f407_disc\lvgl\lvgl\src/core\lv_disp.h ****  * @param disp pointer to display which sys. layer  should be get. (NULL to use the default screen)
  78:d:\practise\f407_disc\lvgl\lvgl\src/core\lv_disp.h ****  * @return pointer to the sys layer object  (transparent screen sized lv_obj)
ARM GAS  C:\Users\gx\AppData\Local\Temp\ccekqJtk.s 			page 5


  79:d:\practise\f407_disc\lvgl\lvgl\src/core\lv_disp.h ****  */
  80:d:\practise\f407_disc\lvgl\lvgl\src/core\lv_disp.h **** lv_obj_t * lv_disp_get_layer_sys(lv_disp_t * disp);
  81:d:\practise\f407_disc\lvgl\lvgl\src/core\lv_disp.h **** 
  82:d:\practise\f407_disc\lvgl\lvgl\src/core\lv_disp.h **** /**
  83:d:\practise\f407_disc\lvgl\lvgl\src/core\lv_disp.h ****  * Get the theme of a display
  84:d:\practise\f407_disc\lvgl\lvgl\src/core\lv_disp.h ****  * @param disp pointer to a display
  85:d:\practise\f407_disc\lvgl\lvgl\src/core\lv_disp.h ****  * @return the display's theme (can be NULL)
  86:d:\practise\f407_disc\lvgl\lvgl\src/core\lv_disp.h ****  */
  87:d:\practise\f407_disc\lvgl\lvgl\src/core\lv_disp.h **** void lv_disp_set_theme(lv_disp_t * disp, lv_theme_t * th);
  88:d:\practise\f407_disc\lvgl\lvgl\src/core\lv_disp.h **** 
  89:d:\practise\f407_disc\lvgl\lvgl\src/core\lv_disp.h **** /**
  90:d:\practise\f407_disc\lvgl\lvgl\src/core\lv_disp.h ****  * Get the theme of a display
  91:d:\practise\f407_disc\lvgl\lvgl\src/core\lv_disp.h ****  * @param disp pointer to a display
  92:d:\practise\f407_disc\lvgl\lvgl\src/core\lv_disp.h ****  * @return the display's theme (can be NULL)
  93:d:\practise\f407_disc\lvgl\lvgl\src/core\lv_disp.h ****  */
  94:d:\practise\f407_disc\lvgl\lvgl\src/core\lv_disp.h **** lv_theme_t * lv_disp_get_theme(lv_disp_t * disp);
  95:d:\practise\f407_disc\lvgl\lvgl\src/core\lv_disp.h **** 
  96:d:\practise\f407_disc\lvgl\lvgl\src/core\lv_disp.h **** /**
  97:d:\practise\f407_disc\lvgl\lvgl\src/core\lv_disp.h ****  * Set the background color of a display
  98:d:\practise\f407_disc\lvgl\lvgl\src/core\lv_disp.h ****  * @param disp pointer to a display
  99:d:\practise\f407_disc\lvgl\lvgl\src/core\lv_disp.h ****  * @param color color of the background
 100:d:\practise\f407_disc\lvgl\lvgl\src/core\lv_disp.h ****  */
 101:d:\practise\f407_disc\lvgl\lvgl\src/core\lv_disp.h **** void lv_disp_set_bg_color(lv_disp_t * disp, lv_color_t color);
 102:d:\practise\f407_disc\lvgl\lvgl\src/core\lv_disp.h **** 
 103:d:\practise\f407_disc\lvgl\lvgl\src/core\lv_disp.h **** /**
 104:d:\practise\f407_disc\lvgl\lvgl\src/core\lv_disp.h ****  * Set the background image of a display
 105:d:\practise\f407_disc\lvgl\lvgl\src/core\lv_disp.h ****  * @param disp pointer to a display
 106:d:\practise\f407_disc\lvgl\lvgl\src/core\lv_disp.h ****  * @param img_src path to file or pointer to an `lv_img_dsc_t` variable
 107:d:\practise\f407_disc\lvgl\lvgl\src/core\lv_disp.h ****  */
 108:d:\practise\f407_disc\lvgl\lvgl\src/core\lv_disp.h **** void lv_disp_set_bg_image(lv_disp_t * disp, const void  * img_src);
 109:d:\practise\f407_disc\lvgl\lvgl\src/core\lv_disp.h **** 
 110:d:\practise\f407_disc\lvgl\lvgl\src/core\lv_disp.h **** /**
 111:d:\practise\f407_disc\lvgl\lvgl\src/core\lv_disp.h ****  * Opacity of the background
 112:d:\practise\f407_disc\lvgl\lvgl\src/core\lv_disp.h ****  * @param disp pointer to a display
 113:d:\practise\f407_disc\lvgl\lvgl\src/core\lv_disp.h ****  * @param opa opacity (0..255)
 114:d:\practise\f407_disc\lvgl\lvgl\src/core\lv_disp.h ****  */
 115:d:\practise\f407_disc\lvgl\lvgl\src/core\lv_disp.h **** void lv_disp_set_bg_opa(lv_disp_t * disp, lv_opa_t opa);
 116:d:\practise\f407_disc\lvgl\lvgl\src/core\lv_disp.h **** 
 117:d:\practise\f407_disc\lvgl\lvgl\src/core\lv_disp.h **** /**
 118:d:\practise\f407_disc\lvgl\lvgl\src/core\lv_disp.h ****  * Switch screen with animation
 119:d:\practise\f407_disc\lvgl\lvgl\src/core\lv_disp.h ****  * @param scr pointer to the new screen to load
 120:d:\practise\f407_disc\lvgl\lvgl\src/core\lv_disp.h ****  * @param anim_type type of the animation from `lv_scr_load_anim_t`. E.g.  `LV_SCR_LOAD_ANIM_MOVE_L
 121:d:\practise\f407_disc\lvgl\lvgl\src/core\lv_disp.h ****  * @param time time of the animation
 122:d:\practise\f407_disc\lvgl\lvgl\src/core\lv_disp.h ****  * @param delay delay before the transition
 123:d:\practise\f407_disc\lvgl\lvgl\src/core\lv_disp.h ****  * @param auto_del true: automatically delete the old screen
 124:d:\practise\f407_disc\lvgl\lvgl\src/core\lv_disp.h ****  */
 125:d:\practise\f407_disc\lvgl\lvgl\src/core\lv_disp.h **** void lv_scr_load_anim(lv_obj_t * scr, lv_scr_load_anim_t anim_type, uint32_t time, uint32_t delay, 
 126:d:\practise\f407_disc\lvgl\lvgl\src/core\lv_disp.h **** 
 127:d:\practise\f407_disc\lvgl\lvgl\src/core\lv_disp.h **** /**
 128:d:\practise\f407_disc\lvgl\lvgl\src/core\lv_disp.h ****  * Get elapsed time since last user activity on a display (e.g. click)
 129:d:\practise\f407_disc\lvgl\lvgl\src/core\lv_disp.h ****  * @param disp pointer to an display (NULL to get the overall smallest inactivity)
 130:d:\practise\f407_disc\lvgl\lvgl\src/core\lv_disp.h ****  * @return elapsed ticks (milliseconds) since the last activity
 131:d:\practise\f407_disc\lvgl\lvgl\src/core\lv_disp.h ****  */
 132:d:\practise\f407_disc\lvgl\lvgl\src/core\lv_disp.h **** uint32_t lv_disp_get_inactive_time(const lv_disp_t * disp);
 133:d:\practise\f407_disc\lvgl\lvgl\src/core\lv_disp.h **** 
 134:d:\practise\f407_disc\lvgl\lvgl\src/core\lv_disp.h **** /**
 135:d:\practise\f407_disc\lvgl\lvgl\src/core\lv_disp.h ****  * Manually trigger an activity on a display
ARM GAS  C:\Users\gx\AppData\Local\Temp\ccekqJtk.s 			page 6


 136:d:\practise\f407_disc\lvgl\lvgl\src/core\lv_disp.h ****  * @param disp pointer to an display (NULL to use the default display)
 137:d:\practise\f407_disc\lvgl\lvgl\src/core\lv_disp.h ****  */
 138:d:\practise\f407_disc\lvgl\lvgl\src/core\lv_disp.h **** void lv_disp_trig_activity(lv_disp_t * disp);
 139:d:\practise\f407_disc\lvgl\lvgl\src/core\lv_disp.h **** 
 140:d:\practise\f407_disc\lvgl\lvgl\src/core\lv_disp.h **** /**
 141:d:\practise\f407_disc\lvgl\lvgl\src/core\lv_disp.h ****  * Clean any CPU cache that is related to the display.
 142:d:\practise\f407_disc\lvgl\lvgl\src/core\lv_disp.h ****  * @param disp pointer to an display (NULL to use the default display)
 143:d:\practise\f407_disc\lvgl\lvgl\src/core\lv_disp.h ****  */
 144:d:\practise\f407_disc\lvgl\lvgl\src/core\lv_disp.h **** void lv_disp_clean_dcache(lv_disp_t * disp);
 145:d:\practise\f407_disc\lvgl\lvgl\src/core\lv_disp.h **** 
 146:d:\practise\f407_disc\lvgl\lvgl\src/core\lv_disp.h **** /**
 147:d:\practise\f407_disc\lvgl\lvgl\src/core\lv_disp.h ****  * Get a pointer to the screen refresher timer to
 148:d:\practise\f407_disc\lvgl\lvgl\src/core\lv_disp.h ****  * modify its parameters with `lv_timer_...` functions.
 149:d:\practise\f407_disc\lvgl\lvgl\src/core\lv_disp.h ****  * @param disp pointer to a display
 150:d:\practise\f407_disc\lvgl\lvgl\src/core\lv_disp.h ****  * @return pointer to the display refresher timer. (NULL on error)
 151:d:\practise\f407_disc\lvgl\lvgl\src/core\lv_disp.h ****  */
 152:d:\practise\f407_disc\lvgl\lvgl\src/core\lv_disp.h **** lv_timer_t * _lv_disp_get_refr_timer(lv_disp_t * disp);
 153:d:\practise\f407_disc\lvgl\lvgl\src/core\lv_disp.h **** 
 154:d:\practise\f407_disc\lvgl\lvgl\src/core\lv_disp.h **** /*------------------------------------------------
 155:d:\practise\f407_disc\lvgl\lvgl\src/core\lv_disp.h ****  * To improve backward compatibility
 156:d:\practise\f407_disc\lvgl\lvgl\src/core\lv_disp.h ****  * Recommended only if you have one display
 157:d:\practise\f407_disc\lvgl\lvgl\src/core\lv_disp.h ****  *------------------------------------------------*/
 158:d:\practise\f407_disc\lvgl\lvgl\src/core\lv_disp.h **** 
 159:d:\practise\f407_disc\lvgl\lvgl\src/core\lv_disp.h **** /**
 160:d:\practise\f407_disc\lvgl\lvgl\src/core\lv_disp.h ****  * Get the active screen of the default display
 161:d:\practise\f407_disc\lvgl\lvgl\src/core\lv_disp.h ****  * @return pointer to the active screen
 162:d:\practise\f407_disc\lvgl\lvgl\src/core\lv_disp.h ****  */
 163:d:\practise\f407_disc\lvgl\lvgl\src/core\lv_disp.h **** static inline lv_obj_t * lv_scr_act(void)
 115              		.loc 2 163 26 view .LVU16
 116              	.LBB5:
 164:d:\practise\f407_disc\lvgl\lvgl\src/core\lv_disp.h **** {
 165:d:\practise\f407_disc\lvgl\lvgl\src/core\lv_disp.h ****     return lv_disp_get_scr_act(lv_disp_get_default());
 117              		.loc 2 165 5 view .LVU17
 118              		.loc 2 165 12 is_stmt 0 view .LVU18
 119 0068 FFF7FEFF 		bl	lv_disp_get_default
 120              	.LVL9:
 121 006c FFF7FEFF 		bl	lv_disp_get_scr_act
 122              	.LVL10:
 123              	.LBE5:
 124              	.LBE4:
 125              		.loc 1 37 23 view .LVU19
 126 0070 FFF7FEFF 		bl	lv_btn_create
 127              	.LVL11:
 128 0074 0546     		mov	r5, r0
 129              	.LVL12:
  38:lvgl/lvgl/examples/widgets/btn/lv_example_btn_3.c ****     lv_obj_align(btn1, LV_ALIGN_CENTER, 0, -80);
 130              		.loc 1 38 5 is_stmt 1 view .LVU20
 131 0076 6FF04F03 		mvn	r3, #79
 132 007a 3246     		mov	r2, r6
 133 007c 0921     		movs	r1, #9
 134 007e FFF7FEFF 		bl	lv_obj_align
 135              	.LVL13:
  39:lvgl/lvgl/examples/widgets/btn/lv_example_btn_3.c ****     lv_obj_add_style(btn1, &style_pr, LV_STATE_PRESSED);
 136              		.loc 1 39 5 view .LVU21
 137 0082 2022     		movs	r2, #32
 138 0084 2146     		mov	r1, r4
 139 0086 2846     		mov	r0, r5
ARM GAS  C:\Users\gx\AppData\Local\Temp\ccekqJtk.s 			page 7


 140 0088 FFF7FEFF 		bl	lv_obj_add_style
 141              	.LVL14:
  40:lvgl/lvgl/examples/widgets/btn/lv_example_btn_3.c ****     lv_obj_add_style(btn1, &style_def, 0);
 142              		.loc 1 40 5 view .LVU22
 143 008c 3246     		mov	r2, r6
 144 008e 3946     		mov	r1, r7
 145 0090 2846     		mov	r0, r5
 146 0092 FFF7FEFF 		bl	lv_obj_add_style
 147              	.LVL15:
  41:lvgl/lvgl/examples/widgets/btn/lv_example_btn_3.c **** 
  42:lvgl/lvgl/examples/widgets/btn/lv_example_btn_3.c ****     lv_obj_t * label = lv_label_create(btn1);
 148              		.loc 1 42 5 view .LVU23
 149              		.loc 1 42 24 is_stmt 0 view .LVU24
 150 0096 2846     		mov	r0, r5
 151 0098 FFF7FEFF 		bl	lv_label_create
 152              	.LVL16:
  43:lvgl/lvgl/examples/widgets/btn/lv_example_btn_3.c ****     lv_label_set_text(label, "Gum");
 153              		.loc 1 43 5 is_stmt 1 view .LVU25
 154 009c 0949     		ldr	r1, .L3+28
 155 009e FFF7FEFF 		bl	lv_label_set_text
 156              	.LVL17:
  44:lvgl/lvgl/examples/widgets/btn/lv_example_btn_3.c **** }
 157              		.loc 1 44 1 is_stmt 0 view .LVU26
 158 00a2 03B0     		add	sp, sp, #12
 159              	.LCFI2:
 160              		.cfi_def_cfa_offset 20
 161              		@ sp needed
 162 00a4 F0BD     		pop	{r4, r5, r6, r7, pc}
 163              	.LVL18:
 164              	.L4:
 165              		.loc 1 44 1 view .LVU27
 166 00a6 00BF     		.align	2
 167              	.L3:
 168 00a8 00000000 		.word	.LANCHOR0
 169 00ac 00000000 		.word	.LANCHOR1
 170 00b0 00000000 		.word	lv_anim_path_overshoot
 171 00b4 00000000 		.word	.LANCHOR2
 172 00b8 00000000 		.word	lv_anim_path_ease_in_out
 173 00bc 00000000 		.word	.LANCHOR3
 174 00c0 00000000 		.word	.LANCHOR4
 175 00c4 00000000 		.word	.LC0
 176              		.cfi_endproc
 177              	.LFE189:
 179              		.section	.bss.style_def.12316,"aw",%nobits
 180              		.align	2
 181              		.set	.LANCHOR3,. + 0
 184              	style_def.12316:
 185 0000 00000000 		.space	8
 185      00000000 
 186              		.section	.bss.style_pr.12317,"aw",%nobits
 187              		.align	2
 188              		.set	.LANCHOR4,. + 0
 191              	style_pr.12317:
 192 0000 00000000 		.space	8
 192      00000000 
 193              		.section	.bss.transition_dsc_def.12314,"aw",%nobits
 194              		.align	2
ARM GAS  C:\Users\gx\AppData\Local\Temp\ccekqJtk.s 			page 8


 195              		.set	.LANCHOR1,. + 0
 198              	transition_dsc_def.12314:
 199 0000 00000000 		.space	20
 199      00000000 
 199      00000000 
 199      00000000 
 199      00000000 
 200              		.section	.bss.transition_dsc_pr.12315,"aw",%nobits
 201              		.align	2
 202              		.set	.LANCHOR2,. + 0
 205              	transition_dsc_pr.12315:
 206 0000 00000000 		.space	20
 206      00000000 
 206      00000000 
 206      00000000 
 206      00000000 
 207              		.section	.data.props.12313,"aw"
 208              		.align	2
 209              		.set	.LANCHOR0,. + 0
 212              	props.12313:
 213 0000 0A08     		.short	2058
 214 0002 0B08     		.short	2059
 215 0004 5A14     		.short	5210
 216 0006 0000     		.short	0
 217              		.text
 218              	.Letext0:
 219              		.file 3 "c:\\program files (x86)\\gnu arm embedded toolchain\\9 2020-q2-update\\arm-none-eabi\\inc
 220              		.file 4 "c:\\program files (x86)\\gnu arm embedded toolchain\\9 2020-q2-update\\arm-none-eabi\\inc
 221              		.file 5 "d:\\practise\\f407_disc\\lvgl\\lvgl\\src/misc/lv_ll.h"
 222              		.file 6 "c:\\program files (x86)\\gnu arm embedded toolchain\\9 2020-q2-update\\lib\\gcc\\arm-none
 223              		.file 7 "c:\\program files (x86)\\gnu arm embedded toolchain\\9 2020-q2-update\\arm-none-eabi\\inc
 224              		.file 8 "c:\\program files (x86)\\gnu arm embedded toolchain\\9 2020-q2-update\\arm-none-eabi\\inc
 225              		.file 9 "c:\\program files (x86)\\gnu arm embedded toolchain\\9 2020-q2-update\\arm-none-eabi\\inc
 226              		.file 10 "d:\\practise\\f407_disc\\lvgl\\lvgl\\src/misc/lv_anim.h"
 227              		.file 11 "d:\\practise\\f407_disc\\lvgl\\lvgl\\src\\misc\\lv_color.h"
 228              		.file 12 "d:\\practise\\f407_disc\\lvgl\\lvgl\\src\\misc\\lv_area.h"
 229              		.file 13 "d:\\practise\\f407_disc\\lvgl\\lvgl\\src/core/lv_obj.h"
 230              		.file 14 "d:\\practise\\f407_disc\\lvgl\\lvgl\\src/core/lv_group.h"
 231              		.file 15 "d:\\practise\\f407_disc\\lvgl\\lvgl\\src\\font\\lv_font.h"
 232              		.file 16 "d:\\practise\\f407_disc\\lvgl\\lvgl\\src\\misc\\lv_txt.h"
 233              		.file 17 "d:\\practise\\f407_disc\\lvgl\\lvgl\\src\\misc\\lv_style.h"
 234              		.file 18 "d:\\practise\\f407_disc\\lvgl\\lvgl\\src/core/lv_obj_scroll.h"
 235              		.file 19 "d:\\practise\\f407_disc\\lvgl\\lvgl\\src/core/lv_obj_style.h"
 236              		.file 20 "d:\\practise\\f407_disc\\lvgl\\lvgl\\src\\draw\\lv_draw_label.h"
 237              		.file 21 "d:\\practise\\f407_disc\\lvgl\\lvgl\\src/core/lv_obj_class.h"
 238              		.file 22 "d:\\practise\\f407_disc\\lvgl\\lvgl\\src/core/lv_event.h"
 239              		.file 23 "d:\\practise\\f407_disc\\lvgl\\lvgl\\src/widgets/lv_arc.h"
 240              		.file 24 "d:\\practise\\f407_disc\\lvgl\\lvgl\\src/widgets/lv_btn.h"
 241              		.file 25 "d:\\practise\\f407_disc\\lvgl\\lvgl\\src/widgets/lv_img.h"
 242              		.file 26 "d:\\practise\\f407_disc\\lvgl\\lvgl\\src/widgets/lv_label.h"
 243              		.file 27 "d:\\practise\\f407_disc\\lvgl\\lvgl\\src/widgets/lv_line.h"
 244              		.file 28 "d:\\practise\\f407_disc\\lvgl\\lvgl\\src/widgets/lv_table.h"
 245              		.file 29 "d:\\practise\\f407_disc\\lvgl\\lvgl\\src/widgets/lv_checkbox.h"
 246              		.file 30 "d:\\practise\\f407_disc\\lvgl\\lvgl\\src/widgets/lv_bar.h"
 247              		.file 31 "d:\\practise\\f407_disc\\lvgl\\lvgl\\src/widgets/lv_slider.h"
 248              		.file 32 "d:\\practise\\f407_disc\\lvgl\\lvgl\\src/widgets/lv_btnmatrix.h"
 249              		.file 33 "d:\\practise\\f407_disc\\lvgl\\lvgl\\src/widgets/lv_dropdown.h"
ARM GAS  C:\Users\gx\AppData\Local\Temp\ccekqJtk.s 			page 9


 250              		.file 34 "d:\\practise\\f407_disc\\lvgl\\lvgl\\src/widgets/lv_roller.h"
 251              		.file 35 "d:\\practise\\f407_disc\\lvgl\\lvgl\\src/widgets/lv_textarea.h"
 252              		.file 36 "d:\\practise\\f407_disc\\lvgl\\lvgl\\src/widgets/lv_canvas.h"
 253              		.file 37 "d:\\practise\\f407_disc\\lvgl\\lvgl\\src/widgets/lv_switch.h"
 254              		.file 38 "d:\\practise\\f407_disc\\lvgl\\lvgl\\src/extra/widgets/animimg/lv_animimg.h"
 255              		.file 39 "d:\\practise\\f407_disc\\lvgl\\lvgl\\src/extra/widgets/calendar/lv_calendar.h"
 256              		.file 40 "d:\\practise\\f407_disc\\lvgl\\lvgl\\src/extra/widgets/calendar/lv_calendar_header_arrow
 257              		.file 41 "d:\\practise\\f407_disc\\lvgl\\lvgl\\src/extra/widgets/calendar/lv_calendar_header_dropd
 258              		.file 42 "d:\\practise\\f407_disc\\lvgl\\lvgl\\src/extra/widgets/chart/lv_chart.h"
 259              		.file 43 "d:\\practise\\f407_disc\\lvgl\\lvgl\\src/extra/widgets/keyboard/lv_keyboard.h"
 260              		.file 44 "d:\\practise\\f407_disc\\lvgl\\lvgl\\src\\extra\\layouts\\flex\\lv_flex.h"
 261              		.file 45 "d:\\practise\\f407_disc\\lvgl\\lvgl\\src/extra/widgets/list/lv_list.h"
 262              		.file 46 "d:\\practise\\f407_disc\\lvgl\\lvgl\\src/extra/widgets/msgbox/lv_msgbox.h"
 263              		.file 47 "d:\\practise\\f407_disc\\lvgl\\lvgl\\src/extra/widgets/meter/lv_meter.h"
 264              		.file 48 "d:\\practise\\f407_disc\\lvgl\\lvgl\\src/extra/widgets/spinbox/lv_spinbox.h"
 265              		.file 49 "d:\\practise\\f407_disc\\lvgl\\lvgl\\src/extra/widgets/spinner/lv_spinner.h"
 266              		.file 50 "d:\\practise\\f407_disc\\lvgl\\lvgl\\src/extra/widgets/tabview/lv_tabview.h"
 267              		.file 51 "d:\\practise\\f407_disc\\lvgl\\lvgl\\src/extra/widgets/tileview/lv_tileview.h"
 268              		.file 52 "d:\\practise\\f407_disc\\lvgl\\lvgl\\src/extra/widgets/win/lv_win.h"
 269              		.file 53 "d:\\practise\\f407_disc\\lvgl\\lvgl\\src/extra/widgets/colorwheel/lv_colorwheel.h"
 270              		.file 54 "d:\\practise\\f407_disc\\lvgl\\lvgl\\src/extra/widgets/led/lv_led.h"
 271              		.file 55 "d:\\practise\\f407_disc\\lvgl\\lvgl\\src/extra/widgets/imgbtn/lv_imgbtn.h"
 272              		.file 56 "d:\\practise\\f407_disc\\lvgl\\lvgl\\src/extra/widgets/span/lv_span.h"
 273              		.file 57 "d:\\practise\\f407_disc\\lvgl\\lvgl\\src/extra/layouts/grid/lv_grid.h"
 274              		.file 58 "d:\\practise\\f407_disc\\lvgl\\lvgl\\src/hal/lv_hal_disp.h"
 275              		.file 59 "d:\\practise\\f407_disc\\lvgl\\lvgl\\src\\misc\\lv_style_gen.h"
 276              		.file 60 "d:\\practise\\f407_disc\\lvgl\\lvgl\\src/core/lv_obj_pos.h"
ARM GAS  C:\Users\gx\AppData\Local\Temp\ccekqJtk.s 			page 10

