ARM GAS  C:\Users\gx\AppData\Local\Temp\ccnmuQT9.s 			page 1


   1              		.cpu cortex-m4
   2              		.eabi_attribute 27, 1
   3              		.eabi_attribute 28, 1
   4              		.eabi_attribute 20, 1
   5              		.eabi_attribute 21, 1
   6              		.eabi_attribute 23, 3
   7              		.eabi_attribute 24, 1
   8              		.eabi_attribute 25, 1
   9              		.eabi_attribute 26, 1
  10              		.eabi_attribute 30, 1
  11              		.eabi_attribute 34, 1
  12              		.eabi_attribute 18, 4
  13              		.file	"lv_example_style_7.c"
  14              		.text
  15              	.Ltext0:
  16              		.cfi_sections	.debug_frame
  17              		.section	.text.lv_example_style_7,"ax",%progbits
  18              		.align	1
  19              		.global	lv_example_style_7
  20              		.arch armv7e-m
  21              		.syntax unified
  22              		.thumb
  23              		.thumb_func
  24              		.fpu fpv4-sp-d16
  26              	lv_example_style_7:
  27              	.LFB189:
  28              		.file 1 "lvgl/lvgl/examples/styles/lv_example_style_7.c"
   1:lvgl/lvgl/examples/styles/lv_example_style_7.c **** #include "../lv_examples.h"
   2:lvgl/lvgl/examples/styles/lv_example_style_7.c **** #if LV_BUILD_EXAMPLES && LV_USE_ARC
   3:lvgl/lvgl/examples/styles/lv_example_style_7.c **** 
   4:lvgl/lvgl/examples/styles/lv_example_style_7.c **** /**
   5:lvgl/lvgl/examples/styles/lv_example_style_7.c ****  * Using the Arc style properties
   6:lvgl/lvgl/examples/styles/lv_example_style_7.c ****  */
   7:lvgl/lvgl/examples/styles/lv_example_style_7.c **** void lv_example_style_7(void)
   8:lvgl/lvgl/examples/styles/lv_example_style_7.c **** {
  29              		.loc 1 8 1 view -0
  30              		.cfi_startproc
  31              		@ args = 0, pretend = 0, frame = 0
  32              		@ frame_needed = 0, uses_anonymous_args = 0
  33 0000 38B5     		push	{r3, r4, r5, lr}
  34              	.LCFI0:
  35              		.cfi_def_cfa_offset 16
  36              		.cfi_offset 3, -16
  37              		.cfi_offset 4, -12
  38              		.cfi_offset 5, -8
  39              		.cfi_offset 14, -4
   9:lvgl/lvgl/examples/styles/lv_example_style_7.c ****     static lv_style_t style;
  40              		.loc 1 9 5 view .LVU1
  10:lvgl/lvgl/examples/styles/lv_example_style_7.c ****     lv_style_init(&style);
  41              		.loc 1 10 5 view .LVU2
  42 0002 104C     		ldr	r4, .L3
  43 0004 2046     		mov	r0, r4
  44 0006 FFF7FEFF 		bl	lv_style_init
  45              	.LVL0:
  11:lvgl/lvgl/examples/styles/lv_example_style_7.c **** 
  12:lvgl/lvgl/examples/styles/lv_example_style_7.c ****     lv_style_set_arc_color(&style, lv_palette_main(LV_PALETTE_RED));
  46              		.loc 1 12 5 view .LVU3
ARM GAS  C:\Users\gx\AppData\Local\Temp\ccnmuQT9.s 			page 2


  47 000a 0020     		movs	r0, #0
  48 000c FFF7FEFF 		bl	lv_palette_main
  49              	.LVL1:
  50 0010 0146     		mov	r1, r0	@ movhi
  51 0012 2046     		mov	r0, r4
  52 0014 FFF7FEFF 		bl	lv_style_set_arc_color
  53              	.LVL2:
  13:lvgl/lvgl/examples/styles/lv_example_style_7.c ****     lv_style_set_arc_width(&style, 4);
  54              		.loc 1 13 5 view .LVU4
  55 0018 0421     		movs	r1, #4
  56 001a 2046     		mov	r0, r4
  57 001c FFF7FEFF 		bl	lv_style_set_arc_width
  58              	.LVL3:
  14:lvgl/lvgl/examples/styles/lv_example_style_7.c **** 
  15:lvgl/lvgl/examples/styles/lv_example_style_7.c ****     /*Create an object with the new style*/
  16:lvgl/lvgl/examples/styles/lv_example_style_7.c ****     lv_obj_t * obj = lv_arc_create(lv_scr_act());
  59              		.loc 1 16 5 view .LVU5
  60              	.LBB6:
  61              	.LBI6:
  62              		.file 2 "lvgl/lvgl/examples/styles/../../src/core/lv_disp.h"
   1:lvgl/lvgl/examples/styles/../../src/core/lv_disp.h **** /**
   2:lvgl/lvgl/examples/styles/../../src/core/lv_disp.h ****  * @file lv_disp.h
   3:lvgl/lvgl/examples/styles/../../src/core/lv_disp.h ****  *
   4:lvgl/lvgl/examples/styles/../../src/core/lv_disp.h ****  */
   5:lvgl/lvgl/examples/styles/../../src/core/lv_disp.h **** 
   6:lvgl/lvgl/examples/styles/../../src/core/lv_disp.h **** #ifndef LV_DISP_H
   7:lvgl/lvgl/examples/styles/../../src/core/lv_disp.h **** #define LV_DISP_H
   8:lvgl/lvgl/examples/styles/../../src/core/lv_disp.h **** 
   9:lvgl/lvgl/examples/styles/../../src/core/lv_disp.h **** #ifdef __cplusplus
  10:lvgl/lvgl/examples/styles/../../src/core/lv_disp.h **** extern "C" {
  11:lvgl/lvgl/examples/styles/../../src/core/lv_disp.h **** #endif
  12:lvgl/lvgl/examples/styles/../../src/core/lv_disp.h **** 
  13:lvgl/lvgl/examples/styles/../../src/core/lv_disp.h **** /*********************
  14:lvgl/lvgl/examples/styles/../../src/core/lv_disp.h ****  *      INCLUDES
  15:lvgl/lvgl/examples/styles/../../src/core/lv_disp.h ****  *********************/
  16:lvgl/lvgl/examples/styles/../../src/core/lv_disp.h **** #include "../hal/lv_hal.h"
  17:lvgl/lvgl/examples/styles/../../src/core/lv_disp.h **** #include "lv_obj.h"
  18:lvgl/lvgl/examples/styles/../../src/core/lv_disp.h **** #include "lv_theme.h"
  19:lvgl/lvgl/examples/styles/../../src/core/lv_disp.h **** 
  20:lvgl/lvgl/examples/styles/../../src/core/lv_disp.h **** /*********************
  21:lvgl/lvgl/examples/styles/../../src/core/lv_disp.h ****  *      DEFINES
  22:lvgl/lvgl/examples/styles/../../src/core/lv_disp.h ****  *********************/
  23:lvgl/lvgl/examples/styles/../../src/core/lv_disp.h **** 
  24:lvgl/lvgl/examples/styles/../../src/core/lv_disp.h **** /**********************
  25:lvgl/lvgl/examples/styles/../../src/core/lv_disp.h ****  *      TYPEDEFS
  26:lvgl/lvgl/examples/styles/../../src/core/lv_disp.h ****  **********************/
  27:lvgl/lvgl/examples/styles/../../src/core/lv_disp.h **** 
  28:lvgl/lvgl/examples/styles/../../src/core/lv_disp.h **** typedef enum {
  29:lvgl/lvgl/examples/styles/../../src/core/lv_disp.h ****     LV_SCR_LOAD_ANIM_NONE,
  30:lvgl/lvgl/examples/styles/../../src/core/lv_disp.h ****     LV_SCR_LOAD_ANIM_OVER_LEFT,
  31:lvgl/lvgl/examples/styles/../../src/core/lv_disp.h ****     LV_SCR_LOAD_ANIM_OVER_RIGHT,
  32:lvgl/lvgl/examples/styles/../../src/core/lv_disp.h ****     LV_SCR_LOAD_ANIM_OVER_TOP,
  33:lvgl/lvgl/examples/styles/../../src/core/lv_disp.h ****     LV_SCR_LOAD_ANIM_OVER_BOTTOM,
  34:lvgl/lvgl/examples/styles/../../src/core/lv_disp.h ****     LV_SCR_LOAD_ANIM_MOVE_LEFT,
  35:lvgl/lvgl/examples/styles/../../src/core/lv_disp.h ****     LV_SCR_LOAD_ANIM_MOVE_RIGHT,
  36:lvgl/lvgl/examples/styles/../../src/core/lv_disp.h ****     LV_SCR_LOAD_ANIM_MOVE_TOP,
  37:lvgl/lvgl/examples/styles/../../src/core/lv_disp.h ****     LV_SCR_LOAD_ANIM_MOVE_BOTTOM,
ARM GAS  C:\Users\gx\AppData\Local\Temp\ccnmuQT9.s 			page 3


  38:lvgl/lvgl/examples/styles/../../src/core/lv_disp.h ****     LV_SCR_LOAD_ANIM_FADE_ON,
  39:lvgl/lvgl/examples/styles/../../src/core/lv_disp.h **** } lv_scr_load_anim_t;
  40:lvgl/lvgl/examples/styles/../../src/core/lv_disp.h **** 
  41:lvgl/lvgl/examples/styles/../../src/core/lv_disp.h **** /**********************
  42:lvgl/lvgl/examples/styles/../../src/core/lv_disp.h ****  * GLOBAL PROTOTYPES
  43:lvgl/lvgl/examples/styles/../../src/core/lv_disp.h ****  **********************/
  44:lvgl/lvgl/examples/styles/../../src/core/lv_disp.h **** 
  45:lvgl/lvgl/examples/styles/../../src/core/lv_disp.h **** /**
  46:lvgl/lvgl/examples/styles/../../src/core/lv_disp.h ****  * Return with a pointer to the active screen
  47:lvgl/lvgl/examples/styles/../../src/core/lv_disp.h ****  * @param disp pointer to display which active screen should be get. (NULL to use the default
  48:lvgl/lvgl/examples/styles/../../src/core/lv_disp.h ****  * screen)
  49:lvgl/lvgl/examples/styles/../../src/core/lv_disp.h ****  * @return pointer to the active screen object (loaded by 'lv_scr_load()')
  50:lvgl/lvgl/examples/styles/../../src/core/lv_disp.h ****  */
  51:lvgl/lvgl/examples/styles/../../src/core/lv_disp.h **** lv_obj_t * lv_disp_get_scr_act(lv_disp_t * disp);
  52:lvgl/lvgl/examples/styles/../../src/core/lv_disp.h **** 
  53:lvgl/lvgl/examples/styles/../../src/core/lv_disp.h **** /**
  54:lvgl/lvgl/examples/styles/../../src/core/lv_disp.h ****  * Return with a pointer to the previous screen. Only used during screen transitions.
  55:lvgl/lvgl/examples/styles/../../src/core/lv_disp.h ****  * @param disp pointer to display which previous screen should be get. (NULL to use the default
  56:lvgl/lvgl/examples/styles/../../src/core/lv_disp.h ****  * screen)
  57:lvgl/lvgl/examples/styles/../../src/core/lv_disp.h ****  * @return pointer to the previous screen object or NULL if not used now
  58:lvgl/lvgl/examples/styles/../../src/core/lv_disp.h ****  */
  59:lvgl/lvgl/examples/styles/../../src/core/lv_disp.h **** lv_obj_t * lv_disp_get_scr_prev(lv_disp_t * disp);
  60:lvgl/lvgl/examples/styles/../../src/core/lv_disp.h **** 
  61:lvgl/lvgl/examples/styles/../../src/core/lv_disp.h **** /**
  62:lvgl/lvgl/examples/styles/../../src/core/lv_disp.h ****  * Make a screen active
  63:lvgl/lvgl/examples/styles/../../src/core/lv_disp.h ****  * @param scr pointer to a screen
  64:lvgl/lvgl/examples/styles/../../src/core/lv_disp.h ****  */
  65:lvgl/lvgl/examples/styles/../../src/core/lv_disp.h **** void lv_disp_load_scr(lv_obj_t * scr);
  66:lvgl/lvgl/examples/styles/../../src/core/lv_disp.h **** 
  67:lvgl/lvgl/examples/styles/../../src/core/lv_disp.h **** /**
  68:lvgl/lvgl/examples/styles/../../src/core/lv_disp.h ****  * Return with the top layer. (Same on every screen and it is above the normal screen layer)
  69:lvgl/lvgl/examples/styles/../../src/core/lv_disp.h ****  * @param disp pointer to display which top layer should be get. (NULL to use the default screen)
  70:lvgl/lvgl/examples/styles/../../src/core/lv_disp.h ****  * @return pointer to the top layer object  (transparent screen sized lv_obj)
  71:lvgl/lvgl/examples/styles/../../src/core/lv_disp.h ****  */
  72:lvgl/lvgl/examples/styles/../../src/core/lv_disp.h **** lv_obj_t * lv_disp_get_layer_top(lv_disp_t * disp);
  73:lvgl/lvgl/examples/styles/../../src/core/lv_disp.h **** 
  74:lvgl/lvgl/examples/styles/../../src/core/lv_disp.h **** /**
  75:lvgl/lvgl/examples/styles/../../src/core/lv_disp.h ****  * Return with the sys. layer. (Same on every screen and it is above the normal screen and the top
  76:lvgl/lvgl/examples/styles/../../src/core/lv_disp.h ****  * layer)
  77:lvgl/lvgl/examples/styles/../../src/core/lv_disp.h ****  * @param disp pointer to display which sys. layer  should be get. (NULL to use the default screen)
  78:lvgl/lvgl/examples/styles/../../src/core/lv_disp.h ****  * @return pointer to the sys layer object  (transparent screen sized lv_obj)
  79:lvgl/lvgl/examples/styles/../../src/core/lv_disp.h ****  */
  80:lvgl/lvgl/examples/styles/../../src/core/lv_disp.h **** lv_obj_t * lv_disp_get_layer_sys(lv_disp_t * disp);
  81:lvgl/lvgl/examples/styles/../../src/core/lv_disp.h **** 
  82:lvgl/lvgl/examples/styles/../../src/core/lv_disp.h **** /**
  83:lvgl/lvgl/examples/styles/../../src/core/lv_disp.h ****  * Get the theme of a display
  84:lvgl/lvgl/examples/styles/../../src/core/lv_disp.h ****  * @param disp pointer to a display
  85:lvgl/lvgl/examples/styles/../../src/core/lv_disp.h ****  * @return the display's theme (can be NULL)
  86:lvgl/lvgl/examples/styles/../../src/core/lv_disp.h ****  */
  87:lvgl/lvgl/examples/styles/../../src/core/lv_disp.h **** void lv_disp_set_theme(lv_disp_t * disp, lv_theme_t * th);
  88:lvgl/lvgl/examples/styles/../../src/core/lv_disp.h **** 
  89:lvgl/lvgl/examples/styles/../../src/core/lv_disp.h **** /**
  90:lvgl/lvgl/examples/styles/../../src/core/lv_disp.h ****  * Get the theme of a display
  91:lvgl/lvgl/examples/styles/../../src/core/lv_disp.h ****  * @param disp pointer to a display
  92:lvgl/lvgl/examples/styles/../../src/core/lv_disp.h ****  * @return the display's theme (can be NULL)
  93:lvgl/lvgl/examples/styles/../../src/core/lv_disp.h ****  */
  94:lvgl/lvgl/examples/styles/../../src/core/lv_disp.h **** lv_theme_t * lv_disp_get_theme(lv_disp_t * disp);
ARM GAS  C:\Users\gx\AppData\Local\Temp\ccnmuQT9.s 			page 4


  95:lvgl/lvgl/examples/styles/../../src/core/lv_disp.h **** 
  96:lvgl/lvgl/examples/styles/../../src/core/lv_disp.h **** /**
  97:lvgl/lvgl/examples/styles/../../src/core/lv_disp.h ****  * Set the background color of a display
  98:lvgl/lvgl/examples/styles/../../src/core/lv_disp.h ****  * @param disp pointer to a display
  99:lvgl/lvgl/examples/styles/../../src/core/lv_disp.h ****  * @param color color of the background
 100:lvgl/lvgl/examples/styles/../../src/core/lv_disp.h ****  */
 101:lvgl/lvgl/examples/styles/../../src/core/lv_disp.h **** void lv_disp_set_bg_color(lv_disp_t * disp, lv_color_t color);
 102:lvgl/lvgl/examples/styles/../../src/core/lv_disp.h **** 
 103:lvgl/lvgl/examples/styles/../../src/core/lv_disp.h **** /**
 104:lvgl/lvgl/examples/styles/../../src/core/lv_disp.h ****  * Set the background image of a display
 105:lvgl/lvgl/examples/styles/../../src/core/lv_disp.h ****  * @param disp pointer to a display
 106:lvgl/lvgl/examples/styles/../../src/core/lv_disp.h ****  * @param img_src path to file or pointer to an `lv_img_dsc_t` variable
 107:lvgl/lvgl/examples/styles/../../src/core/lv_disp.h ****  */
 108:lvgl/lvgl/examples/styles/../../src/core/lv_disp.h **** void lv_disp_set_bg_image(lv_disp_t * disp, const void  * img_src);
 109:lvgl/lvgl/examples/styles/../../src/core/lv_disp.h **** 
 110:lvgl/lvgl/examples/styles/../../src/core/lv_disp.h **** /**
 111:lvgl/lvgl/examples/styles/../../src/core/lv_disp.h ****  * Opacity of the background
 112:lvgl/lvgl/examples/styles/../../src/core/lv_disp.h ****  * @param disp pointer to a display
 113:lvgl/lvgl/examples/styles/../../src/core/lv_disp.h ****  * @param opa opacity (0..255)
 114:lvgl/lvgl/examples/styles/../../src/core/lv_disp.h ****  */
 115:lvgl/lvgl/examples/styles/../../src/core/lv_disp.h **** void lv_disp_set_bg_opa(lv_disp_t * disp, lv_opa_t opa);
 116:lvgl/lvgl/examples/styles/../../src/core/lv_disp.h **** 
 117:lvgl/lvgl/examples/styles/../../src/core/lv_disp.h **** /**
 118:lvgl/lvgl/examples/styles/../../src/core/lv_disp.h ****  * Switch screen with animation
 119:lvgl/lvgl/examples/styles/../../src/core/lv_disp.h ****  * @param scr pointer to the new screen to load
 120:lvgl/lvgl/examples/styles/../../src/core/lv_disp.h ****  * @param anim_type type of the animation from `lv_scr_load_anim_t`. E.g.  `LV_SCR_LOAD_ANIM_MOVE_L
 121:lvgl/lvgl/examples/styles/../../src/core/lv_disp.h ****  * @param time time of the animation
 122:lvgl/lvgl/examples/styles/../../src/core/lv_disp.h ****  * @param delay delay before the transition
 123:lvgl/lvgl/examples/styles/../../src/core/lv_disp.h ****  * @param auto_del true: automatically delete the old screen
 124:lvgl/lvgl/examples/styles/../../src/core/lv_disp.h ****  */
 125:lvgl/lvgl/examples/styles/../../src/core/lv_disp.h **** void lv_scr_load_anim(lv_obj_t * scr, lv_scr_load_anim_t anim_type, uint32_t time, uint32_t delay, 
 126:lvgl/lvgl/examples/styles/../../src/core/lv_disp.h **** 
 127:lvgl/lvgl/examples/styles/../../src/core/lv_disp.h **** /**
 128:lvgl/lvgl/examples/styles/../../src/core/lv_disp.h ****  * Get elapsed time since last user activity on a display (e.g. click)
 129:lvgl/lvgl/examples/styles/../../src/core/lv_disp.h ****  * @param disp pointer to an display (NULL to get the overall smallest inactivity)
 130:lvgl/lvgl/examples/styles/../../src/core/lv_disp.h ****  * @return elapsed ticks (milliseconds) since the last activity
 131:lvgl/lvgl/examples/styles/../../src/core/lv_disp.h ****  */
 132:lvgl/lvgl/examples/styles/../../src/core/lv_disp.h **** uint32_t lv_disp_get_inactive_time(const lv_disp_t * disp);
 133:lvgl/lvgl/examples/styles/../../src/core/lv_disp.h **** 
 134:lvgl/lvgl/examples/styles/../../src/core/lv_disp.h **** /**
 135:lvgl/lvgl/examples/styles/../../src/core/lv_disp.h ****  * Manually trigger an activity on a display
 136:lvgl/lvgl/examples/styles/../../src/core/lv_disp.h ****  * @param disp pointer to an display (NULL to use the default display)
 137:lvgl/lvgl/examples/styles/../../src/core/lv_disp.h ****  */
 138:lvgl/lvgl/examples/styles/../../src/core/lv_disp.h **** void lv_disp_trig_activity(lv_disp_t * disp);
 139:lvgl/lvgl/examples/styles/../../src/core/lv_disp.h **** 
 140:lvgl/lvgl/examples/styles/../../src/core/lv_disp.h **** /**
 141:lvgl/lvgl/examples/styles/../../src/core/lv_disp.h ****  * Clean any CPU cache that is related to the display.
 142:lvgl/lvgl/examples/styles/../../src/core/lv_disp.h ****  * @param disp pointer to an display (NULL to use the default display)
 143:lvgl/lvgl/examples/styles/../../src/core/lv_disp.h ****  */
 144:lvgl/lvgl/examples/styles/../../src/core/lv_disp.h **** void lv_disp_clean_dcache(lv_disp_t * disp);
 145:lvgl/lvgl/examples/styles/../../src/core/lv_disp.h **** 
 146:lvgl/lvgl/examples/styles/../../src/core/lv_disp.h **** /**
 147:lvgl/lvgl/examples/styles/../../src/core/lv_disp.h ****  * Get a pointer to the screen refresher timer to
 148:lvgl/lvgl/examples/styles/../../src/core/lv_disp.h ****  * modify its parameters with `lv_timer_...` functions.
 149:lvgl/lvgl/examples/styles/../../src/core/lv_disp.h ****  * @param disp pointer to a display
 150:lvgl/lvgl/examples/styles/../../src/core/lv_disp.h ****  * @return pointer to the display refresher timer. (NULL on error)
 151:lvgl/lvgl/examples/styles/../../src/core/lv_disp.h ****  */
ARM GAS  C:\Users\gx\AppData\Local\Temp\ccnmuQT9.s 			page 5


 152:lvgl/lvgl/examples/styles/../../src/core/lv_disp.h **** lv_timer_t * _lv_disp_get_refr_timer(lv_disp_t * disp);
 153:lvgl/lvgl/examples/styles/../../src/core/lv_disp.h **** 
 154:lvgl/lvgl/examples/styles/../../src/core/lv_disp.h **** /*------------------------------------------------
 155:lvgl/lvgl/examples/styles/../../src/core/lv_disp.h ****  * To improve backward compatibility
 156:lvgl/lvgl/examples/styles/../../src/core/lv_disp.h ****  * Recommended only if you have one display
 157:lvgl/lvgl/examples/styles/../../src/core/lv_disp.h ****  *------------------------------------------------*/
 158:lvgl/lvgl/examples/styles/../../src/core/lv_disp.h **** 
 159:lvgl/lvgl/examples/styles/../../src/core/lv_disp.h **** /**
 160:lvgl/lvgl/examples/styles/../../src/core/lv_disp.h ****  * Get the active screen of the default display
 161:lvgl/lvgl/examples/styles/../../src/core/lv_disp.h ****  * @return pointer to the active screen
 162:lvgl/lvgl/examples/styles/../../src/core/lv_disp.h ****  */
 163:lvgl/lvgl/examples/styles/../../src/core/lv_disp.h **** static inline lv_obj_t * lv_scr_act(void)
  63              		.loc 2 163 26 view .LVU6
  64              	.LBB7:
 164:lvgl/lvgl/examples/styles/../../src/core/lv_disp.h **** {
 165:lvgl/lvgl/examples/styles/../../src/core/lv_disp.h ****     return lv_disp_get_scr_act(lv_disp_get_default());
  65              		.loc 2 165 5 view .LVU7
  66              		.loc 2 165 12 is_stmt 0 view .LVU8
  67 0020 FFF7FEFF 		bl	lv_disp_get_default
  68              	.LVL4:
  69 0024 FFF7FEFF 		bl	lv_disp_get_scr_act
  70              	.LVL5:
  71              	.LBE7:
  72              	.LBE6:
  73              		.loc 1 16 22 view .LVU9
  74 0028 FFF7FEFF 		bl	lv_arc_create
  75              	.LVL6:
  76 002c 0546     		mov	r5, r0
  77              	.LVL7:
  17:lvgl/lvgl/examples/styles/lv_example_style_7.c ****     lv_obj_add_style(obj, &style, 0);
  78              		.loc 1 17 5 is_stmt 1 view .LVU10
  79 002e 0022     		movs	r2, #0
  80 0030 2146     		mov	r1, r4
  81 0032 FFF7FEFF 		bl	lv_obj_add_style
  82              	.LVL8:
  18:lvgl/lvgl/examples/styles/lv_example_style_7.c ****     lv_obj_center(obj);
  83              		.loc 1 18 5 view .LVU11
  84              	.LBB8:
  85              	.LBI8:
  86              		.file 3 "lvgl/lvgl/examples/styles/../../src/core/lv_obj_pos.h"
   1:lvgl/lvgl/examples/styles/../../src/core/lv_obj_pos.h **** /**
   2:lvgl/lvgl/examples/styles/../../src/core/lv_obj_pos.h ****  * @file lv_obj_pos.h
   3:lvgl/lvgl/examples/styles/../../src/core/lv_obj_pos.h ****  *
   4:lvgl/lvgl/examples/styles/../../src/core/lv_obj_pos.h ****  */
   5:lvgl/lvgl/examples/styles/../../src/core/lv_obj_pos.h **** 
   6:lvgl/lvgl/examples/styles/../../src/core/lv_obj_pos.h **** #ifndef LV_OBJ_POS_H
   7:lvgl/lvgl/examples/styles/../../src/core/lv_obj_pos.h **** #define LV_OBJ_POS_H
   8:lvgl/lvgl/examples/styles/../../src/core/lv_obj_pos.h **** 
   9:lvgl/lvgl/examples/styles/../../src/core/lv_obj_pos.h **** #ifdef __cplusplus
  10:lvgl/lvgl/examples/styles/../../src/core/lv_obj_pos.h **** extern "C" {
  11:lvgl/lvgl/examples/styles/../../src/core/lv_obj_pos.h **** #endif
  12:lvgl/lvgl/examples/styles/../../src/core/lv_obj_pos.h **** 
  13:lvgl/lvgl/examples/styles/../../src/core/lv_obj_pos.h **** /*********************
  14:lvgl/lvgl/examples/styles/../../src/core/lv_obj_pos.h ****  *      INCLUDES
  15:lvgl/lvgl/examples/styles/../../src/core/lv_obj_pos.h ****  *********************/
  16:lvgl/lvgl/examples/styles/../../src/core/lv_obj_pos.h **** #include "../misc/lv_area.h"
  17:lvgl/lvgl/examples/styles/../../src/core/lv_obj_pos.h **** 
ARM GAS  C:\Users\gx\AppData\Local\Temp\ccnmuQT9.s 			page 6


  18:lvgl/lvgl/examples/styles/../../src/core/lv_obj_pos.h **** /*********************
  19:lvgl/lvgl/examples/styles/../../src/core/lv_obj_pos.h ****  *      DEFINES
  20:lvgl/lvgl/examples/styles/../../src/core/lv_obj_pos.h ****  *********************/
  21:lvgl/lvgl/examples/styles/../../src/core/lv_obj_pos.h **** 
  22:lvgl/lvgl/examples/styles/../../src/core/lv_obj_pos.h **** /**********************
  23:lvgl/lvgl/examples/styles/../../src/core/lv_obj_pos.h ****  *      TYPEDEFS
  24:lvgl/lvgl/examples/styles/../../src/core/lv_obj_pos.h ****  **********************/
  25:lvgl/lvgl/examples/styles/../../src/core/lv_obj_pos.h **** struct _lv_obj_t;
  26:lvgl/lvgl/examples/styles/../../src/core/lv_obj_pos.h **** 
  27:lvgl/lvgl/examples/styles/../../src/core/lv_obj_pos.h **** typedef void (*lv_layout_update_cb_t)(struct _lv_obj_t *, void * user_data);
  28:lvgl/lvgl/examples/styles/../../src/core/lv_obj_pos.h **** typedef struct {
  29:lvgl/lvgl/examples/styles/../../src/core/lv_obj_pos.h ****     lv_layout_update_cb_t cb;
  30:lvgl/lvgl/examples/styles/../../src/core/lv_obj_pos.h ****     void * user_data;
  31:lvgl/lvgl/examples/styles/../../src/core/lv_obj_pos.h **** }lv_layout_dsc_t;
  32:lvgl/lvgl/examples/styles/../../src/core/lv_obj_pos.h **** 
  33:lvgl/lvgl/examples/styles/../../src/core/lv_obj_pos.h **** /**********************
  34:lvgl/lvgl/examples/styles/../../src/core/lv_obj_pos.h ****  * GLOBAL PROTOTYPES
  35:lvgl/lvgl/examples/styles/../../src/core/lv_obj_pos.h ****  **********************/
  36:lvgl/lvgl/examples/styles/../../src/core/lv_obj_pos.h **** 
  37:lvgl/lvgl/examples/styles/../../src/core/lv_obj_pos.h **** /**
  38:lvgl/lvgl/examples/styles/../../src/core/lv_obj_pos.h ****  * Set the relative the position of an object (relative to the parent's top left corner)
  39:lvgl/lvgl/examples/styles/../../src/core/lv_obj_pos.h ****  * @param obj       pointer to an object
  40:lvgl/lvgl/examples/styles/../../src/core/lv_obj_pos.h ****  * @param x         new distance from the left side of the parent plus the parent's left padding
  41:lvgl/lvgl/examples/styles/../../src/core/lv_obj_pos.h ****  * @param y         new distance from the top side of the parent  plus the parent's right padding
  42:lvgl/lvgl/examples/styles/../../src/core/lv_obj_pos.h ****  */
  43:lvgl/lvgl/examples/styles/../../src/core/lv_obj_pos.h **** void lv_obj_set_pos(struct _lv_obj_t * obj, lv_coord_t x, lv_coord_t y);
  44:lvgl/lvgl/examples/styles/../../src/core/lv_obj_pos.h **** 
  45:lvgl/lvgl/examples/styles/../../src/core/lv_obj_pos.h **** /**
  46:lvgl/lvgl/examples/styles/../../src/core/lv_obj_pos.h ****  * Set the x coordinate of a object
  47:lvgl/lvgl/examples/styles/../../src/core/lv_obj_pos.h ****  * @param obj       pointer to an object
  48:lvgl/lvgl/examples/styles/../../src/core/lv_obj_pos.h ****  * @param x         new distance from the left side from the parent plus the parent's left padding
  49:lvgl/lvgl/examples/styles/../../src/core/lv_obj_pos.h ****  */
  50:lvgl/lvgl/examples/styles/../../src/core/lv_obj_pos.h **** void lv_obj_set_x(struct _lv_obj_t * obj, lv_coord_t x);
  51:lvgl/lvgl/examples/styles/../../src/core/lv_obj_pos.h **** 
  52:lvgl/lvgl/examples/styles/../../src/core/lv_obj_pos.h **** /**
  53:lvgl/lvgl/examples/styles/../../src/core/lv_obj_pos.h ****  * Set the y coordinate of a object
  54:lvgl/lvgl/examples/styles/../../src/core/lv_obj_pos.h ****  * @param obj       pointer to an object
  55:lvgl/lvgl/examples/styles/../../src/core/lv_obj_pos.h ****  * @param y         new distance from the top of the parent  plus the parent's top padding
  56:lvgl/lvgl/examples/styles/../../src/core/lv_obj_pos.h ****  */
  57:lvgl/lvgl/examples/styles/../../src/core/lv_obj_pos.h **** void lv_obj_set_y(struct _lv_obj_t * obj, lv_coord_t y);
  58:lvgl/lvgl/examples/styles/../../src/core/lv_obj_pos.h **** 
  59:lvgl/lvgl/examples/styles/../../src/core/lv_obj_pos.h **** /**
  60:lvgl/lvgl/examples/styles/../../src/core/lv_obj_pos.h ****  * Set the size of an object.
  61:lvgl/lvgl/examples/styles/../../src/core/lv_obj_pos.h ****  * @param obj       pointer to an object
  62:lvgl/lvgl/examples/styles/../../src/core/lv_obj_pos.h ****  * @param w         the new width
  63:lvgl/lvgl/examples/styles/../../src/core/lv_obj_pos.h ****  * @param h         the new height
  64:lvgl/lvgl/examples/styles/../../src/core/lv_obj_pos.h ****  * @note            possible values are:
  65:lvgl/lvgl/examples/styles/../../src/core/lv_obj_pos.h ****  *                  pixel               simple set the size accordingly
  66:lvgl/lvgl/examples/styles/../../src/core/lv_obj_pos.h ****  *                  LV_SIZE_CONTENT     set the size to involve all children in the given direction
  67:lvgl/lvgl/examples/styles/../../src/core/lv_obj_pos.h ****  *                  LV_SIZE_PCT(x)     to set size in percentage of the parent's content area size 
  68:lvgl/lvgl/examples/styles/../../src/core/lv_obj_pos.h ****  *                                      x should be in [0..1000]% range
  69:lvgl/lvgl/examples/styles/../../src/core/lv_obj_pos.h ****  */
  70:lvgl/lvgl/examples/styles/../../src/core/lv_obj_pos.h **** void lv_obj_set_size(struct _lv_obj_t * obj, lv_coord_t w, lv_coord_t h);
  71:lvgl/lvgl/examples/styles/../../src/core/lv_obj_pos.h **** 
  72:lvgl/lvgl/examples/styles/../../src/core/lv_obj_pos.h **** /**
  73:lvgl/lvgl/examples/styles/../../src/core/lv_obj_pos.h ****  * Recalculate the size of the object
  74:lvgl/lvgl/examples/styles/../../src/core/lv_obj_pos.h ****  * @param obj       pointer to an object
ARM GAS  C:\Users\gx\AppData\Local\Temp\ccnmuQT9.s 			page 7


  75:lvgl/lvgl/examples/styles/../../src/core/lv_obj_pos.h ****  * @return          true: the size has been changed
  76:lvgl/lvgl/examples/styles/../../src/core/lv_obj_pos.h ****  */
  77:lvgl/lvgl/examples/styles/../../src/core/lv_obj_pos.h **** bool lv_obj_refr_size(struct _lv_obj_t * obj);
  78:lvgl/lvgl/examples/styles/../../src/core/lv_obj_pos.h **** 
  79:lvgl/lvgl/examples/styles/../../src/core/lv_obj_pos.h **** /**
  80:lvgl/lvgl/examples/styles/../../src/core/lv_obj_pos.h ****  * Set the width of an object
  81:lvgl/lvgl/examples/styles/../../src/core/lv_obj_pos.h ****  * @param obj       pointer to an object
  82:lvgl/lvgl/examples/styles/../../src/core/lv_obj_pos.h ****  * @param w         the new width
  83:lvgl/lvgl/examples/styles/../../src/core/lv_obj_pos.h ****  * @note            possible values are:
  84:lvgl/lvgl/examples/styles/../../src/core/lv_obj_pos.h ****  *                  pixel               simple set the size accordingly
  85:lvgl/lvgl/examples/styles/../../src/core/lv_obj_pos.h ****  *                  LV_SIZE_CONTENT     set the size to involve all children in the given direction
  86:lvgl/lvgl/examples/styles/../../src/core/lv_obj_pos.h ****  *                  lv_pct(x)           to set size in percentage of the parent's content area size
  87:lvgl/lvgl/examples/styles/../../src/core/lv_obj_pos.h ****  *                                      x should be in [0..1000]% range
  88:lvgl/lvgl/examples/styles/../../src/core/lv_obj_pos.h ****  */
  89:lvgl/lvgl/examples/styles/../../src/core/lv_obj_pos.h **** void lv_obj_set_width(struct _lv_obj_t * obj, lv_coord_t w);
  90:lvgl/lvgl/examples/styles/../../src/core/lv_obj_pos.h **** 
  91:lvgl/lvgl/examples/styles/../../src/core/lv_obj_pos.h **** /**
  92:lvgl/lvgl/examples/styles/../../src/core/lv_obj_pos.h ****  * Set the height of an object
  93:lvgl/lvgl/examples/styles/../../src/core/lv_obj_pos.h ****  * @param obj       pointer to an object
  94:lvgl/lvgl/examples/styles/../../src/core/lv_obj_pos.h ****  * @param h         the new height
  95:lvgl/lvgl/examples/styles/../../src/core/lv_obj_pos.h ****  * @note            possible values are:
  96:lvgl/lvgl/examples/styles/../../src/core/lv_obj_pos.h ****  *                  pixel               simple set the size accordingly
  97:lvgl/lvgl/examples/styles/../../src/core/lv_obj_pos.h ****  *                  LV_SIZE_CONTENT     set the size to involve all children in the given direction
  98:lvgl/lvgl/examples/styles/../../src/core/lv_obj_pos.h ****  *                  lv_pct(x)           to set size in percentage of the parent's content area size
  99:lvgl/lvgl/examples/styles/../../src/core/lv_obj_pos.h ****  *                                      x should be in [0..1000]% range
 100:lvgl/lvgl/examples/styles/../../src/core/lv_obj_pos.h ****  */
 101:lvgl/lvgl/examples/styles/../../src/core/lv_obj_pos.h **** void lv_obj_set_height(struct _lv_obj_t * obj, lv_coord_t h);
 102:lvgl/lvgl/examples/styles/../../src/core/lv_obj_pos.h **** 
 103:lvgl/lvgl/examples/styles/../../src/core/lv_obj_pos.h **** /**
 104:lvgl/lvgl/examples/styles/../../src/core/lv_obj_pos.h ****  * Set the width reduced by the left and right padding and the border width.
 105:lvgl/lvgl/examples/styles/../../src/core/lv_obj_pos.h ****  * @param obj       pointer to an object
 106:lvgl/lvgl/examples/styles/../../src/core/lv_obj_pos.h ****  * @param w         the width without paddings in pixels
 107:lvgl/lvgl/examples/styles/../../src/core/lv_obj_pos.h ****  */
 108:lvgl/lvgl/examples/styles/../../src/core/lv_obj_pos.h **** void lv_obj_set_content_width(struct _lv_obj_t * obj, lv_coord_t w);
 109:lvgl/lvgl/examples/styles/../../src/core/lv_obj_pos.h **** 
 110:lvgl/lvgl/examples/styles/../../src/core/lv_obj_pos.h **** /**
 111:lvgl/lvgl/examples/styles/../../src/core/lv_obj_pos.h ****  * Set the height reduced by the top and bottom padding and the border width.
 112:lvgl/lvgl/examples/styles/../../src/core/lv_obj_pos.h ****  * @param obj       pointer to an object
 113:lvgl/lvgl/examples/styles/../../src/core/lv_obj_pos.h ****  * @param h         the height without paddings in pixels
 114:lvgl/lvgl/examples/styles/../../src/core/lv_obj_pos.h ****  */
 115:lvgl/lvgl/examples/styles/../../src/core/lv_obj_pos.h **** void lv_obj_set_content_height(struct _lv_obj_t * obj, lv_coord_t h);
 116:lvgl/lvgl/examples/styles/../../src/core/lv_obj_pos.h **** 
 117:lvgl/lvgl/examples/styles/../../src/core/lv_obj_pos.h **** /**
 118:lvgl/lvgl/examples/styles/../../src/core/lv_obj_pos.h ****  * Set a layout for an object
 119:lvgl/lvgl/examples/styles/../../src/core/lv_obj_pos.h ****  * @param obj       pointer to an object
 120:lvgl/lvgl/examples/styles/../../src/core/lv_obj_pos.h ****  * @param layout    pointer to a layout descriptor to set
 121:lvgl/lvgl/examples/styles/../../src/core/lv_obj_pos.h ****  */
 122:lvgl/lvgl/examples/styles/../../src/core/lv_obj_pos.h **** void lv_obj_set_layout(struct _lv_obj_t * obj, uint32_t layout);
 123:lvgl/lvgl/examples/styles/../../src/core/lv_obj_pos.h **** 
 124:lvgl/lvgl/examples/styles/../../src/core/lv_obj_pos.h **** /**
 125:lvgl/lvgl/examples/styles/../../src/core/lv_obj_pos.h ****  * Test whether the and object is positioned by a layout or not
 126:lvgl/lvgl/examples/styles/../../src/core/lv_obj_pos.h ****  * @param obj       pointer to an object to test
 127:lvgl/lvgl/examples/styles/../../src/core/lv_obj_pos.h ****  * @return true:    positioned by a layout; false: not positioned by a layout
 128:lvgl/lvgl/examples/styles/../../src/core/lv_obj_pos.h ****  */
 129:lvgl/lvgl/examples/styles/../../src/core/lv_obj_pos.h **** bool lv_obj_is_layout_positioned(const struct _lv_obj_t * obj);
 130:lvgl/lvgl/examples/styles/../../src/core/lv_obj_pos.h **** 
 131:lvgl/lvgl/examples/styles/../../src/core/lv_obj_pos.h **** /**
ARM GAS  C:\Users\gx\AppData\Local\Temp\ccnmuQT9.s 			page 8


 132:lvgl/lvgl/examples/styles/../../src/core/lv_obj_pos.h ****  * Mark the object for layout update.
 133:lvgl/lvgl/examples/styles/../../src/core/lv_obj_pos.h ****  * @param obj      pointer to an object whose children needs to be updated
 134:lvgl/lvgl/examples/styles/../../src/core/lv_obj_pos.h ****  */
 135:lvgl/lvgl/examples/styles/../../src/core/lv_obj_pos.h **** void lv_obj_mark_layout_as_dirty(struct _lv_obj_t * obj);
 136:lvgl/lvgl/examples/styles/../../src/core/lv_obj_pos.h **** 
 137:lvgl/lvgl/examples/styles/../../src/core/lv_obj_pos.h **** /**
 138:lvgl/lvgl/examples/styles/../../src/core/lv_obj_pos.h ****  * Update the layout of an object.
 139:lvgl/lvgl/examples/styles/../../src/core/lv_obj_pos.h ****  * @param obj      pointer to an object whose children needs to be updated
 140:lvgl/lvgl/examples/styles/../../src/core/lv_obj_pos.h ****  */
 141:lvgl/lvgl/examples/styles/../../src/core/lv_obj_pos.h **** void lv_obj_update_layout(const struct _lv_obj_t * obj);
 142:lvgl/lvgl/examples/styles/../../src/core/lv_obj_pos.h **** 
 143:lvgl/lvgl/examples/styles/../../src/core/lv_obj_pos.h **** /**
 144:lvgl/lvgl/examples/styles/../../src/core/lv_obj_pos.h ****  * Regsiter a new layout
 145:lvgl/lvgl/examples/styles/../../src/core/lv_obj_pos.h ****  * @param cb        the layout update callback
 146:lvgl/lvgl/examples/styles/../../src/core/lv_obj_pos.h ****  * @param user_data custom data that will be passed to `cb`
 147:lvgl/lvgl/examples/styles/../../src/core/lv_obj_pos.h ****  * @return          the ID of the new layout
 148:lvgl/lvgl/examples/styles/../../src/core/lv_obj_pos.h ****  */
 149:lvgl/lvgl/examples/styles/../../src/core/lv_obj_pos.h **** uint32_t lv_layout_register(lv_layout_update_cb_t cb, void * user_data);
 150:lvgl/lvgl/examples/styles/../../src/core/lv_obj_pos.h **** 
 151:lvgl/lvgl/examples/styles/../../src/core/lv_obj_pos.h **** /**
 152:lvgl/lvgl/examples/styles/../../src/core/lv_obj_pos.h ****  * Change the alignment of an object.
 153:lvgl/lvgl/examples/styles/../../src/core/lv_obj_pos.h ****  * @param obj       pointer to an object to align
 154:lvgl/lvgl/examples/styles/../../src/core/lv_obj_pos.h ****  * @param align     type of alignment (see 'lv_align_t' enum) `LV_ALIGN_OUT_...` can't be used.
 155:lvgl/lvgl/examples/styles/../../src/core/lv_obj_pos.h ****  */
 156:lvgl/lvgl/examples/styles/../../src/core/lv_obj_pos.h **** void lv_obj_set_align(struct _lv_obj_t * obj, lv_align_t align);
 157:lvgl/lvgl/examples/styles/../../src/core/lv_obj_pos.h **** 
 158:lvgl/lvgl/examples/styles/../../src/core/lv_obj_pos.h **** /**
 159:lvgl/lvgl/examples/styles/../../src/core/lv_obj_pos.h ****  * Change the alignment of an object and set new coordinates.
 160:lvgl/lvgl/examples/styles/../../src/core/lv_obj_pos.h ****  * Equivalent to:
 161:lvgl/lvgl/examples/styles/../../src/core/lv_obj_pos.h ****  * lv_obj_set_align(obj, align);
 162:lvgl/lvgl/examples/styles/../../src/core/lv_obj_pos.h ****  * lv_obj_set_pos(obj, x_ofs, y_ofs);
 163:lvgl/lvgl/examples/styles/../../src/core/lv_obj_pos.h ****  * @param obj       pointer to an object to align
 164:lvgl/lvgl/examples/styles/../../src/core/lv_obj_pos.h ****  * @param align     type of alignment (see 'lv_align_t' enum) `LV_ALIGN_OUT_...` can't be used.
 165:lvgl/lvgl/examples/styles/../../src/core/lv_obj_pos.h ****  * @param x_ofs     x coordinate offset after alignment
 166:lvgl/lvgl/examples/styles/../../src/core/lv_obj_pos.h ****  * @param y_ofs     y coordinate offset after alignment
 167:lvgl/lvgl/examples/styles/../../src/core/lv_obj_pos.h ****  */
 168:lvgl/lvgl/examples/styles/../../src/core/lv_obj_pos.h **** void lv_obj_align(struct _lv_obj_t * obj, lv_align_t align, lv_coord_t x_ofs, lv_coord_t y_ofs);
 169:lvgl/lvgl/examples/styles/../../src/core/lv_obj_pos.h **** 
 170:lvgl/lvgl/examples/styles/../../src/core/lv_obj_pos.h **** /**
 171:lvgl/lvgl/examples/styles/../../src/core/lv_obj_pos.h ****  * Align an object to an other object.
 172:lvgl/lvgl/examples/styles/../../src/core/lv_obj_pos.h ****  * @param obj       pointer to an object to align
 173:lvgl/lvgl/examples/styles/../../src/core/lv_obj_pos.h ****  * @param base      pointer to an other object (if NULL `obj`s parent is used). 'obj' will be align
 174:lvgl/lvgl/examples/styles/../../src/core/lv_obj_pos.h ****  * @param align     type of alignment (see 'lv_align_t' enum)
 175:lvgl/lvgl/examples/styles/../../src/core/lv_obj_pos.h ****  * @param x_ofs     x coordinate offset after alignment
 176:lvgl/lvgl/examples/styles/../../src/core/lv_obj_pos.h ****  * @param y_ofs     y coordinate offset after alignment
 177:lvgl/lvgl/examples/styles/../../src/core/lv_obj_pos.h ****  * @note            if the position or size of `base` changes `obj` needs to be aligned manually ag
 178:lvgl/lvgl/examples/styles/../../src/core/lv_obj_pos.h ****  */
 179:lvgl/lvgl/examples/styles/../../src/core/lv_obj_pos.h **** void lv_obj_align_to(struct _lv_obj_t * obj, const struct _lv_obj_t * base, lv_align_t align, lv_co
 180:lvgl/lvgl/examples/styles/../../src/core/lv_obj_pos.h **** 
 181:lvgl/lvgl/examples/styles/../../src/core/lv_obj_pos.h **** /**
 182:lvgl/lvgl/examples/styles/../../src/core/lv_obj_pos.h ****  * Align an object to the center on its parent.
 183:lvgl/lvgl/examples/styles/../../src/core/lv_obj_pos.h ****  * @param obj       pointer to an object to align
 184:lvgl/lvgl/examples/styles/../../src/core/lv_obj_pos.h ****  * @note            if the parent size changes `obj` needs to be aligned manually again
 185:lvgl/lvgl/examples/styles/../../src/core/lv_obj_pos.h ****  */
 186:lvgl/lvgl/examples/styles/../../src/core/lv_obj_pos.h **** static inline void lv_obj_center(struct _lv_obj_t * obj)
  87              		.loc 3 186 20 view .LVU12
  88              	.LBB9:
ARM GAS  C:\Users\gx\AppData\Local\Temp\ccnmuQT9.s 			page 9


 187:lvgl/lvgl/examples/styles/../../src/core/lv_obj_pos.h **** {
 188:lvgl/lvgl/examples/styles/../../src/core/lv_obj_pos.h ****     lv_obj_align(obj, LV_ALIGN_CENTER, 0, 0);
  89              		.loc 3 188 5 view .LVU13
  90 0036 0023     		movs	r3, #0
  91 0038 1A46     		mov	r2, r3
  92 003a 0921     		movs	r1, #9
  93 003c 2846     		mov	r0, r5
  94 003e FFF7FEFF 		bl	lv_obj_align
  95              	.LVL9:
  96              		.loc 3 188 5 is_stmt 0 view .LVU14
  97              	.LBE9:
  98              	.LBE8:
  19:lvgl/lvgl/examples/styles/lv_example_style_7.c **** }
  99              		.loc 1 19 1 view .LVU15
 100 0042 38BD     		pop	{r3, r4, r5, pc}
 101              	.LVL10:
 102              	.L4:
 103              		.loc 1 19 1 view .LVU16
 104              		.align	2
 105              	.L3:
 106 0044 00000000 		.word	.LANCHOR0
 107              		.cfi_endproc
 108              	.LFE189:
 110              		.section	.bss.style.12313,"aw",%nobits
 111              		.align	2
 112              		.set	.LANCHOR0,. + 0
 115              	style.12313:
 116 0000 00000000 		.space	8
 116      00000000 
 117              		.text
 118              	.Letext0:
 119              		.file 4 "c:\\program files (x86)\\gnu arm embedded toolchain\\9 2020-q2-update\\arm-none-eabi\\inc
 120              		.file 5 "c:\\program files (x86)\\gnu arm embedded toolchain\\9 2020-q2-update\\arm-none-eabi\\inc
 121              		.file 6 "lvgl/lvgl/examples/styles/../../src/misc/lv_ll.h"
 122              		.file 7 "c:\\program files (x86)\\gnu arm embedded toolchain\\9 2020-q2-update\\lib\\gcc\\arm-none
 123              		.file 8 "c:\\program files (x86)\\gnu arm embedded toolchain\\9 2020-q2-update\\arm-none-eabi\\inc
 124              		.file 9 "c:\\program files (x86)\\gnu arm embedded toolchain\\9 2020-q2-update\\arm-none-eabi\\inc
 125              		.file 10 "c:\\program files (x86)\\gnu arm embedded toolchain\\9 2020-q2-update\\arm-none-eabi\\in
 126              		.file 11 "d:\\practise\\f407_disc\\lvgl\\lvgl\\src\\misc\\lv_color.h"
 127              		.file 12 "d:\\practise\\f407_disc\\lvgl\\lvgl\\src\\misc\\lv_area.h"
 128              		.file 13 "lvgl/lvgl/examples/styles/../../src/core/lv_obj.h"
 129              		.file 14 "lvgl/lvgl/examples/styles/../../src/core/lv_group.h"
 130              		.file 15 "d:\\practise\\f407_disc\\lvgl\\lvgl\\src\\font\\lv_font.h"
 131              		.file 16 "d:\\practise\\f407_disc\\lvgl\\lvgl\\src\\misc\\lv_txt.h"
 132              		.file 17 "d:\\practise\\f407_disc\\lvgl\\lvgl\\src\\misc\\lv_style.h"
 133              		.file 18 "lvgl/lvgl/examples/styles/../../src/core/lv_obj_scroll.h"
 134              		.file 19 "lvgl/lvgl/examples/styles/../../src/core/lv_obj_style.h"
 135              		.file 20 "d:\\practise\\f407_disc\\lvgl\\lvgl\\src\\draw\\lv_draw_label.h"
 136              		.file 21 "lvgl/lvgl/examples/styles/../../src/core/lv_obj_class.h"
 137              		.file 22 "lvgl/lvgl/examples/styles/../../src/core/lv_event.h"
 138              		.file 23 "lvgl/lvgl/examples/styles/../../src/widgets/lv_arc.h"
 139              		.file 24 "lvgl/lvgl/examples/styles/../../src/widgets/lv_btn.h"
 140              		.file 25 "lvgl/lvgl/examples/styles/../../src/widgets/lv_img.h"
 141              		.file 26 "lvgl/lvgl/examples/styles/../../src/widgets/lv_label.h"
 142              		.file 27 "lvgl/lvgl/examples/styles/../../src/widgets/lv_line.h"
 143              		.file 28 "lvgl/lvgl/examples/styles/../../src/widgets/lv_table.h"
 144              		.file 29 "lvgl/lvgl/examples/styles/../../src/widgets/lv_checkbox.h"
ARM GAS  C:\Users\gx\AppData\Local\Temp\ccnmuQT9.s 			page 10


 145              		.file 30 "lvgl/lvgl/examples/styles/../../src/widgets/lv_bar.h"
 146              		.file 31 "lvgl/lvgl/examples/styles/../../src/widgets/lv_slider.h"
 147              		.file 32 "lvgl/lvgl/examples/styles/../../src/widgets/lv_btnmatrix.h"
 148              		.file 33 "lvgl/lvgl/examples/styles/../../src/widgets/lv_dropdown.h"
 149              		.file 34 "lvgl/lvgl/examples/styles/../../src/widgets/lv_roller.h"
 150              		.file 35 "lvgl/lvgl/examples/styles/../../src/widgets/lv_textarea.h"
 151              		.file 36 "lvgl/lvgl/examples/styles/../../src/widgets/lv_canvas.h"
 152              		.file 37 "lvgl/lvgl/examples/styles/../../src/widgets/lv_switch.h"
 153              		.file 38 "lvgl/lvgl/examples/styles/../../src/extra/widgets/animimg/lv_animimg.h"
 154              		.file 39 "lvgl/lvgl/examples/styles/../../src/extra/widgets/calendar/lv_calendar.h"
 155              		.file 40 "lvgl/lvgl/examples/styles/../../src/extra/widgets/calendar/lv_calendar_header_arrow.h"
 156              		.file 41 "lvgl/lvgl/examples/styles/../../src/extra/widgets/calendar/lv_calendar_header_dropdown.h
 157              		.file 42 "lvgl/lvgl/examples/styles/../../src/extra/widgets/chart/lv_chart.h"
 158              		.file 43 "lvgl/lvgl/examples/styles/../../src/extra/widgets/keyboard/lv_keyboard.h"
 159              		.file 44 "d:\\practise\\f407_disc\\lvgl\\lvgl\\src\\extra\\layouts\\flex\\lv_flex.h"
 160              		.file 45 "lvgl/lvgl/examples/styles/../../src/extra/widgets/list/lv_list.h"
 161              		.file 46 "lvgl/lvgl/examples/styles/../../src/extra/widgets/msgbox/lv_msgbox.h"
 162              		.file 47 "lvgl/lvgl/examples/styles/../../src/extra/widgets/meter/lv_meter.h"
 163              		.file 48 "lvgl/lvgl/examples/styles/../../src/extra/widgets/spinbox/lv_spinbox.h"
 164              		.file 49 "lvgl/lvgl/examples/styles/../../src/extra/widgets/spinner/lv_spinner.h"
 165              		.file 50 "lvgl/lvgl/examples/styles/../../src/extra/widgets/tabview/lv_tabview.h"
 166              		.file 51 "lvgl/lvgl/examples/styles/../../src/extra/widgets/tileview/lv_tileview.h"
 167              		.file 52 "lvgl/lvgl/examples/styles/../../src/extra/widgets/win/lv_win.h"
 168              		.file 53 "lvgl/lvgl/examples/styles/../../src/extra/widgets/colorwheel/lv_colorwheel.h"
 169              		.file 54 "lvgl/lvgl/examples/styles/../../src/extra/widgets/led/lv_led.h"
 170              		.file 55 "lvgl/lvgl/examples/styles/../../src/extra/widgets/imgbtn/lv_imgbtn.h"
 171              		.file 56 "lvgl/lvgl/examples/styles/../../src/extra/widgets/span/lv_span.h"
 172              		.file 57 "lvgl/lvgl/examples/styles/../../src/extra/layouts/grid/lv_grid.h"
 173              		.file 58 "lvgl/lvgl/examples/styles/../../src/hal/lv_hal_disp.h"
 174              		.file 59 "d:\\practise\\f407_disc\\lvgl\\lvgl\\src\\misc\\lv_style_gen.h"
ARM GAS  C:\Users\gx\AppData\Local\Temp\ccnmuQT9.s 			page 11

