ARM GAS  C:\Users\gx\AppData\Local\Temp\ccAfmFof.s 			page 1


   1              		.cpu cortex-m4
   2              		.eabi_attribute 27, 1
   3              		.eabi_attribute 28, 1
   4              		.eabi_attribute 20, 1
   5              		.eabi_attribute 21, 1
   6              		.eabi_attribute 23, 3
   7              		.eabi_attribute 24, 1
   8              		.eabi_attribute 25, 1
   9              		.eabi_attribute 26, 1
  10              		.eabi_attribute 30, 1
  11              		.eabi_attribute 34, 1
  12              		.eabi_attribute 18, 4
  13              		.file	"lv_example_chart_6.c"
  14              		.text
  15              	.Ltext0:
  16              		.cfi_sections	.debug_frame
  17              		.section	.rodata.event_cb.str1.4,"aMS",%progbits,1
  18              		.align	2
  19              	.LC0:
  20 0000 256400   		.ascii	"%d\000"
  21              		.section	.text.event_cb,"ax",%progbits
  22              		.align	1
  23              		.arch armv7e-m
  24              		.syntax unified
  25              		.thumb
  26              		.thumb_func
  27              		.fpu fpv4-sp-d16
  29              	event_cb:
  30              	.LVL0:
  31              	.LFB189:
  32              		.file 1 "lvgl/lvgl/examples/widgets/chart/lv_example_chart_6.c"
   1:lvgl/lvgl/examples/widgets/chart/lv_example_chart_6.c **** #include "../../lv_examples.h"
   2:lvgl/lvgl/examples/widgets/chart/lv_example_chart_6.c **** #if LV_USE_CHART && LV_BUILD_EXAMPLES
   3:lvgl/lvgl/examples/widgets/chart/lv_example_chart_6.c **** 
   4:lvgl/lvgl/examples/widgets/chart/lv_example_chart_6.c **** static lv_obj_t * chart;
   5:lvgl/lvgl/examples/widgets/chart/lv_example_chart_6.c **** static lv_chart_series_t * ser;
   6:lvgl/lvgl/examples/widgets/chart/lv_example_chart_6.c **** static lv_chart_cursor_t * cursor;
   7:lvgl/lvgl/examples/widgets/chart/lv_example_chart_6.c **** 
   8:lvgl/lvgl/examples/widgets/chart/lv_example_chart_6.c **** static void event_cb(lv_event_t * e)
   9:lvgl/lvgl/examples/widgets/chart/lv_example_chart_6.c **** {
  33              		.loc 1 9 1 view -0
  34              		.cfi_startproc
  35              		@ args = 0, pretend = 0, frame = 112
  36              		@ frame_needed = 0, uses_anonymous_args = 0
  37              		.loc 1 9 1 is_stmt 0 view .LVU1
  38 0000 70B5     		push	{r4, r5, r6, lr}
  39              	.LCFI0:
  40              		.cfi_def_cfa_offset 16
  41              		.cfi_offset 4, -16
  42              		.cfi_offset 5, -12
  43              		.cfi_offset 6, -8
  44              		.cfi_offset 14, -4
  45 0002 A0B0     		sub	sp, sp, #128
  46              	.LCFI1:
  47              		.cfi_def_cfa_offset 144
  48 0004 0546     		mov	r5, r0
  10:lvgl/lvgl/examples/widgets/chart/lv_example_chart_6.c ****     static int32_t last_id = -1;
ARM GAS  C:\Users\gx\AppData\Local\Temp\ccAfmFof.s 			page 2


  49              		.loc 1 10 5 is_stmt 1 view .LVU2
  11:lvgl/lvgl/examples/widgets/chart/lv_example_chart_6.c ****     lv_event_code_t code = lv_event_get_code(e);
  50              		.loc 1 11 5 view .LVU3
  51              		.loc 1 11 28 is_stmt 0 view .LVU4
  52 0006 FFF7FEFF 		bl	lv_event_get_code
  53              	.LVL1:
  54              		.loc 1 11 28 view .LVU5
  55 000a 0446     		mov	r4, r0
  56              	.LVL2:
  12:lvgl/lvgl/examples/widgets/chart/lv_example_chart_6.c ****     lv_obj_t * obj = lv_event_get_target(e);
  57              		.loc 1 12 5 is_stmt 1 view .LVU6
  58              		.loc 1 12 22 is_stmt 0 view .LVU7
  59 000c 2846     		mov	r0, r5
  60 000e FFF7FEFF 		bl	lv_event_get_target
  61              	.LVL3:
  13:lvgl/lvgl/examples/widgets/chart/lv_example_chart_6.c **** 
  14:lvgl/lvgl/examples/widgets/chart/lv_example_chart_6.c ****     if(code == LV_EVENT_VALUE_CHANGED) {
  62              		.loc 1 14 5 is_stmt 1 view .LVU8
  63              		.loc 1 14 7 is_stmt 0 view .LVU9
  64 0012 1C2C     		cmp	r4, #28
  65 0014 03D0     		beq	.L6
  15:lvgl/lvgl/examples/widgets/chart/lv_example_chart_6.c ****         last_id = lv_chart_get_pressed_point(obj);
  16:lvgl/lvgl/examples/widgets/chart/lv_example_chart_6.c ****         if(last_id != LV_CHART_POINT_NONE) {
  17:lvgl/lvgl/examples/widgets/chart/lv_example_chart_6.c ****             lv_chart_set_cursor_point(obj, cursor, NULL, last_id);
  18:lvgl/lvgl/examples/widgets/chart/lv_example_chart_6.c ****         }
  19:lvgl/lvgl/examples/widgets/chart/lv_example_chart_6.c ****     }
  20:lvgl/lvgl/examples/widgets/chart/lv_example_chart_6.c ****     else if(code == LV_EVENT_DRAW_PART_END) {
  66              		.loc 1 20 10 is_stmt 1 view .LVU10
  67              		.loc 1 20 12 is_stmt 0 view .LVU11
  68 0016 1B2C     		cmp	r4, #27
  69 0018 12D0     		beq	.L7
  70              	.LVL4:
  71              	.L1:
  21:lvgl/lvgl/examples/widgets/chart/lv_example_chart_6.c ****         lv_obj_draw_part_dsc_t * dsc = lv_event_get_draw_part_dsc(e);
  22:lvgl/lvgl/examples/widgets/chart/lv_example_chart_6.c ****         if(!lv_obj_draw_part_check_type(dsc, &lv_chart_class, LV_CHART_DRAW_PART_CURSOR)) return;
  23:lvgl/lvgl/examples/widgets/chart/lv_example_chart_6.c ****         if(dsc->p1 == NULL || dsc->p2 == NULL || dsc->p1->y != dsc->p2->y || last_id < 0) return;
  24:lvgl/lvgl/examples/widgets/chart/lv_example_chart_6.c **** 
  25:lvgl/lvgl/examples/widgets/chart/lv_example_chart_6.c ****         lv_coord_t * data_array = lv_chart_get_y_array(chart, ser);
  26:lvgl/lvgl/examples/widgets/chart/lv_example_chart_6.c ****         lv_coord_t v = data_array[last_id];
  27:lvgl/lvgl/examples/widgets/chart/lv_example_chart_6.c ****         char buf[16];
  28:lvgl/lvgl/examples/widgets/chart/lv_example_chart_6.c ****         lv_snprintf(buf, sizeof(buf), "%d", v);
  29:lvgl/lvgl/examples/widgets/chart/lv_example_chart_6.c **** 
  30:lvgl/lvgl/examples/widgets/chart/lv_example_chart_6.c ****         lv_point_t size;
  31:lvgl/lvgl/examples/widgets/chart/lv_example_chart_6.c ****         lv_txt_get_size(&size, buf, LV_FONT_DEFAULT, 0, 0, LV_COORD_MAX, LV_TEXT_FLAG_NONE);
  32:lvgl/lvgl/examples/widgets/chart/lv_example_chart_6.c **** 
  33:lvgl/lvgl/examples/widgets/chart/lv_example_chart_6.c ****         lv_area_t a;
  34:lvgl/lvgl/examples/widgets/chart/lv_example_chart_6.c ****         a.y2 = dsc->p1->y - 5;
  35:lvgl/lvgl/examples/widgets/chart/lv_example_chart_6.c ****         a.y1 = a.y2 - size.y - 10;
  36:lvgl/lvgl/examples/widgets/chart/lv_example_chart_6.c ****         a.x1 = dsc->p1->x + 10;
  37:lvgl/lvgl/examples/widgets/chart/lv_example_chart_6.c ****         a.x2 = a.x1 + size.x + 10;
  38:lvgl/lvgl/examples/widgets/chart/lv_example_chart_6.c **** 
  39:lvgl/lvgl/examples/widgets/chart/lv_example_chart_6.c ****         lv_draw_rect_dsc_t draw_rect_dsc;
  40:lvgl/lvgl/examples/widgets/chart/lv_example_chart_6.c ****         lv_draw_rect_dsc_init(&draw_rect_dsc);
  41:lvgl/lvgl/examples/widgets/chart/lv_example_chart_6.c ****         draw_rect_dsc.bg_color = lv_palette_main(LV_PALETTE_BLUE);
  42:lvgl/lvgl/examples/widgets/chart/lv_example_chart_6.c ****         draw_rect_dsc.radius = 3;
  43:lvgl/lvgl/examples/widgets/chart/lv_example_chart_6.c **** 
  44:lvgl/lvgl/examples/widgets/chart/lv_example_chart_6.c ****         lv_draw_rect(&a, dsc->clip_area, &draw_rect_dsc);
ARM GAS  C:\Users\gx\AppData\Local\Temp\ccAfmFof.s 			page 3


  45:lvgl/lvgl/examples/widgets/chart/lv_example_chart_6.c **** 
  46:lvgl/lvgl/examples/widgets/chart/lv_example_chart_6.c ****         lv_draw_label_dsc_t draw_label_dsc;
  47:lvgl/lvgl/examples/widgets/chart/lv_example_chart_6.c ****         lv_draw_label_dsc_init(&draw_label_dsc);
  48:lvgl/lvgl/examples/widgets/chart/lv_example_chart_6.c ****         draw_label_dsc.color = lv_color_white();
  49:lvgl/lvgl/examples/widgets/chart/lv_example_chart_6.c ****         a.x1 += 5;
  50:lvgl/lvgl/examples/widgets/chart/lv_example_chart_6.c ****         a.x2 -= 5;
  51:lvgl/lvgl/examples/widgets/chart/lv_example_chart_6.c ****         a.y1 += 5;
  52:lvgl/lvgl/examples/widgets/chart/lv_example_chart_6.c ****         a.y2 -= 5;
  53:lvgl/lvgl/examples/widgets/chart/lv_example_chart_6.c ****         lv_draw_label(&a, dsc->clip_area, &draw_label_dsc, buf, NULL);
  54:lvgl/lvgl/examples/widgets/chart/lv_example_chart_6.c ****     }
  55:lvgl/lvgl/examples/widgets/chart/lv_example_chart_6.c **** }
  72              		.loc 1 55 1 view .LVU12
  73 001a 20B0     		add	sp, sp, #128
  74              	.LCFI2:
  75              		.cfi_remember_state
  76              		.cfi_def_cfa_offset 16
  77              		@ sp needed
  78 001c 70BD     		pop	{r4, r5, r6, pc}
  79              	.LVL5:
  80              	.L6:
  81              	.LCFI3:
  82              		.cfi_restore_state
  83              		.loc 1 55 1 view .LVU13
  84 001e 0646     		mov	r6, r0
  15:lvgl/lvgl/examples/widgets/chart/lv_example_chart_6.c ****         last_id = lv_chart_get_pressed_point(obj);
  85              		.loc 1 15 9 is_stmt 1 view .LVU14
  15:lvgl/lvgl/examples/widgets/chart/lv_example_chart_6.c ****         last_id = lv_chart_get_pressed_point(obj);
  86              		.loc 1 15 19 is_stmt 0 view .LVU15
  87 0020 FFF7FEFF 		bl	lv_chart_get_pressed_point
  88              	.LVL6:
  15:lvgl/lvgl/examples/widgets/chart/lv_example_chart_6.c ****         last_id = lv_chart_get_pressed_point(obj);
  89              		.loc 1 15 17 view .LVU16
  90 0024 474B     		ldr	r3, .L8
  91 0026 1860     		str	r0, [r3]
  16:lvgl/lvgl/examples/widgets/chart/lv_example_chart_6.c ****             lv_chart_set_cursor_point(obj, cursor, NULL, last_id);
  92              		.loc 1 16 9 is_stmt 1 view .LVU17
  16:lvgl/lvgl/examples/widgets/chart/lv_example_chart_6.c ****             lv_chart_set_cursor_point(obj, cursor, NULL, last_id);
  93              		.loc 1 16 11 is_stmt 0 view .LVU18
  94 0028 47F6FF73 		movw	r3, #32767
  95 002c 9842     		cmp	r0, r3
  96 002e F4D0     		beq	.L1
  17:lvgl/lvgl/examples/widgets/chart/lv_example_chart_6.c ****         }
  97              		.loc 1 17 13 is_stmt 1 view .LVU19
  98 0030 83B2     		uxth	r3, r0
  99 0032 0022     		movs	r2, #0
 100 0034 4449     		ldr	r1, .L8+4
 101 0036 0968     		ldr	r1, [r1]
 102 0038 3046     		mov	r0, r6
 103 003a FFF7FEFF 		bl	lv_chart_set_cursor_point
 104              	.LVL7:
 105 003e ECE7     		b	.L1
 106              	.LVL8:
 107              	.L7:
 108              	.LBB13:
  21:lvgl/lvgl/examples/widgets/chart/lv_example_chart_6.c ****         lv_obj_draw_part_dsc_t * dsc = lv_event_get_draw_part_dsc(e);
 109              		.loc 1 21 9 view .LVU20
  21:lvgl/lvgl/examples/widgets/chart/lv_example_chart_6.c ****         lv_obj_draw_part_dsc_t * dsc = lv_event_get_draw_part_dsc(e);
ARM GAS  C:\Users\gx\AppData\Local\Temp\ccAfmFof.s 			page 4


 110              		.loc 1 21 40 is_stmt 0 view .LVU21
 111 0040 2846     		mov	r0, r5
 112              	.LVL9:
  21:lvgl/lvgl/examples/widgets/chart/lv_example_chart_6.c ****         lv_obj_draw_part_dsc_t * dsc = lv_event_get_draw_part_dsc(e);
 113              		.loc 1 21 40 view .LVU22
 114 0042 FFF7FEFF 		bl	lv_event_get_draw_part_dsc
 115              	.LVL10:
 116 0046 0446     		mov	r4, r0
 117              	.LVL11:
  22:lvgl/lvgl/examples/widgets/chart/lv_example_chart_6.c ****         if(dsc->p1 == NULL || dsc->p2 == NULL || dsc->p1->y != dsc->p2->y || last_id < 0) return;
 118              		.loc 1 22 9 is_stmt 1 view .LVU23
  22:lvgl/lvgl/examples/widgets/chart/lv_example_chart_6.c ****         if(dsc->p1 == NULL || dsc->p2 == NULL || dsc->p1->y != dsc->p2->y || last_id < 0) return;
 119              		.loc 1 22 13 is_stmt 0 view .LVU24
 120 0048 0522     		movs	r2, #5
 121 004a 4049     		ldr	r1, .L8+8
 122 004c FFF7FEFF 		bl	lv_obj_draw_part_check_type
 123              	.LVL12:
  22:lvgl/lvgl/examples/widgets/chart/lv_example_chart_6.c ****         if(dsc->p1 == NULL || dsc->p2 == NULL || dsc->p1->y != dsc->p2->y || last_id < 0) return;
 124              		.loc 1 22 11 view .LVU25
 125 0050 0028     		cmp	r0, #0
 126 0052 E2D0     		beq	.L1
  23:lvgl/lvgl/examples/widgets/chart/lv_example_chart_6.c **** 
 127              		.loc 1 23 9 is_stmt 1 view .LVU26
  23:lvgl/lvgl/examples/widgets/chart/lv_example_chart_6.c **** 
 128              		.loc 1 23 15 is_stmt 0 view .LVU27
 129 0054 636A     		ldr	r3, [r4, #36]
  23:lvgl/lvgl/examples/widgets/chart/lv_example_chart_6.c **** 
 130              		.loc 1 23 11 view .LVU28
 131 0056 002B     		cmp	r3, #0
 132 0058 DFD0     		beq	.L1
  23:lvgl/lvgl/examples/widgets/chart/lv_example_chart_6.c **** 
 133              		.loc 1 23 34 discriminator 2 view .LVU29
 134 005a A26A     		ldr	r2, [r4, #40]
  23:lvgl/lvgl/examples/widgets/chart/lv_example_chart_6.c **** 
 135              		.loc 1 23 28 discriminator 2 view .LVU30
 136 005c 002A     		cmp	r2, #0
 137 005e DCD0     		beq	.L1
  23:lvgl/lvgl/examples/widgets/chart/lv_example_chart_6.c **** 
 138              		.loc 1 23 57 discriminator 4 view .LVU31
 139 0060 B3F90210 		ldrsh	r1, [r3, #2]
  23:lvgl/lvgl/examples/widgets/chart/lv_example_chart_6.c **** 
 140              		.loc 1 23 71 discriminator 4 view .LVU32
 141 0064 B2F90230 		ldrsh	r3, [r2, #2]
  23:lvgl/lvgl/examples/widgets/chart/lv_example_chart_6.c **** 
 142              		.loc 1 23 47 discriminator 4 view .LVU33
 143 0068 9942     		cmp	r1, r3
 144 006a D6D1     		bne	.L1
  23:lvgl/lvgl/examples/widgets/chart/lv_example_chart_6.c **** 
 145              		.loc 1 23 86 discriminator 6 view .LVU34
 146 006c 354B     		ldr	r3, .L8
 147 006e 1B68     		ldr	r3, [r3]
  23:lvgl/lvgl/examples/widgets/chart/lv_example_chart_6.c **** 
 148              		.loc 1 23 75 discriminator 6 view .LVU35
 149 0070 002B     		cmp	r3, #0
 150 0072 D2DB     		blt	.L1
  25:lvgl/lvgl/examples/widgets/chart/lv_example_chart_6.c ****         lv_coord_t v = data_array[last_id];
 151              		.loc 1 25 9 is_stmt 1 discriminator 2 view .LVU36
ARM GAS  C:\Users\gx\AppData\Local\Temp\ccAfmFof.s 			page 5


  25:lvgl/lvgl/examples/widgets/chart/lv_example_chart_6.c ****         lv_coord_t v = data_array[last_id];
 152              		.loc 1 25 35 is_stmt 0 discriminator 2 view .LVU37
 153 0074 364B     		ldr	r3, .L8+12
 154 0076 1968     		ldr	r1, [r3]
 155 0078 364B     		ldr	r3, .L8+16
 156 007a 1868     		ldr	r0, [r3]
 157 007c FFF7FEFF 		bl	lv_chart_get_y_array
 158              	.LVL13:
  26:lvgl/lvgl/examples/widgets/chart/lv_example_chart_6.c ****         char buf[16];
 159              		.loc 1 26 9 is_stmt 1 discriminator 2 view .LVU38
  26:lvgl/lvgl/examples/widgets/chart/lv_example_chart_6.c ****         char buf[16];
 160              		.loc 1 26 34 is_stmt 0 discriminator 2 view .LVU39
 161 0080 304B     		ldr	r3, .L8
 162 0082 1B68     		ldr	r3, [r3]
 163              	.LVL14:
  27:lvgl/lvgl/examples/widgets/chart/lv_example_chart_6.c ****         lv_snprintf(buf, sizeof(buf), "%d", v);
 164              		.loc 1 27 9 is_stmt 1 discriminator 2 view .LVU40
  28:lvgl/lvgl/examples/widgets/chart/lv_example_chart_6.c **** 
 165              		.loc 1 28 9 discriminator 2 view .LVU41
 166 0084 30F91330 		ldrsh	r3, [r0, r3, lsl #1]
 167              	.LVL15:
  28:lvgl/lvgl/examples/widgets/chart/lv_example_chart_6.c **** 
 168              		.loc 1 28 9 is_stmt 0 discriminator 2 view .LVU42
 169 0088 334A     		ldr	r2, .L8+20
 170 008a 1021     		movs	r1, #16
 171 008c 07A8     		add	r0, sp, #28
 172              	.LVL16:
  28:lvgl/lvgl/examples/widgets/chart/lv_example_chart_6.c **** 
 173              		.loc 1 28 9 discriminator 2 view .LVU43
 174 008e FFF7FEFF 		bl	lv_snprintf
 175              	.LVL17:
  30:lvgl/lvgl/examples/widgets/chart/lv_example_chart_6.c ****         lv_txt_get_size(&size, buf, LV_FONT_DEFAULT, 0, 0, LV_COORD_MAX, LV_TEXT_FLAG_NONE);
 176              		.loc 1 30 9 is_stmt 1 discriminator 2 view .LVU44
  31:lvgl/lvgl/examples/widgets/chart/lv_example_chart_6.c **** 
 177              		.loc 1 31 9 discriminator 2 view .LVU45
 178 0092 0025     		movs	r5, #0
 179              	.LVL18:
  31:lvgl/lvgl/examples/widgets/chart/lv_example_chart_6.c **** 
 180              		.loc 1 31 9 is_stmt 0 discriminator 2 view .LVU46
 181 0094 0295     		str	r5, [sp, #8]
 182 0096 4FF4C043 		mov	r3, #24576
 183 009a 0193     		str	r3, [sp, #4]
 184 009c 0095     		str	r5, [sp]
 185 009e 2B46     		mov	r3, r5
 186 00a0 2E4A     		ldr	r2, .L8+24
 187 00a2 07A9     		add	r1, sp, #28
 188 00a4 04A8     		add	r0, sp, #16
 189 00a6 FFF7FEFF 		bl	lv_txt_get_size
 190              	.LVL19:
  33:lvgl/lvgl/examples/widgets/chart/lv_example_chart_6.c ****         a.y2 = dsc->p1->y - 5;
 191              		.loc 1 33 9 is_stmt 1 discriminator 2 view .LVU47
  34:lvgl/lvgl/examples/widgets/chart/lv_example_chart_6.c ****         a.y1 = a.y2 - size.y - 10;
 192              		.loc 1 34 9 discriminator 2 view .LVU48
  34:lvgl/lvgl/examples/widgets/chart/lv_example_chart_6.c ****         a.y1 = a.y2 - size.y - 10;
 193              		.loc 1 34 19 is_stmt 0 discriminator 2 view .LVU49
 194 00aa 616A     		ldr	r1, [r4, #36]
  34:lvgl/lvgl/examples/widgets/chart/lv_example_chart_6.c ****         a.y1 = a.y2 - size.y - 10;
ARM GAS  C:\Users\gx\AppData\Local\Temp\ccAfmFof.s 			page 6


 195              		.loc 1 34 23 discriminator 2 view .LVU50
 196 00ac 4A88     		ldrh	r2, [r1, #2]
  34:lvgl/lvgl/examples/widgets/chart/lv_example_chart_6.c ****         a.y1 = a.y2 - size.y - 10;
 197              		.loc 1 34 27 discriminator 2 view .LVU51
 198 00ae 053A     		subs	r2, r2, #5
 199 00b0 93B2     		uxth	r3, r2
  34:lvgl/lvgl/examples/widgets/chart/lv_example_chart_6.c ****         a.y1 = a.y2 - size.y - 10;
 200              		.loc 1 34 14 discriminator 2 view .LVU52
 201 00b2 ADF81A20 		strh	r2, [sp, #26]	@ movhi
  35:lvgl/lvgl/examples/widgets/chart/lv_example_chart_6.c ****         a.x1 = dsc->p1->x + 10;
 202              		.loc 1 35 9 is_stmt 1 discriminator 2 view .LVU53
  35:lvgl/lvgl/examples/widgets/chart/lv_example_chart_6.c ****         a.x1 = dsc->p1->x + 10;
 203              		.loc 1 35 27 is_stmt 0 discriminator 2 view .LVU54
 204 00b6 BDF81220 		ldrh	r2, [sp, #18]
  35:lvgl/lvgl/examples/widgets/chart/lv_example_chart_6.c ****         a.x1 = dsc->p1->x + 10;
 205              		.loc 1 35 21 discriminator 2 view .LVU55
 206 00ba 9B1A     		subs	r3, r3, r2
 207 00bc 9BB2     		uxth	r3, r3
  35:lvgl/lvgl/examples/widgets/chart/lv_example_chart_6.c ****         a.x1 = dsc->p1->x + 10;
 208              		.loc 1 35 30 discriminator 2 view .LVU56
 209 00be 0A3B     		subs	r3, r3, #10
  35:lvgl/lvgl/examples/widgets/chart/lv_example_chart_6.c ****         a.x1 = dsc->p1->x + 10;
 210              		.loc 1 35 14 discriminator 2 view .LVU57
 211 00c0 ADF81630 		strh	r3, [sp, #22]	@ movhi
  36:lvgl/lvgl/examples/widgets/chart/lv_example_chart_6.c ****         a.x2 = a.x1 + size.x + 10;
 212              		.loc 1 36 9 is_stmt 1 discriminator 2 view .LVU58
  36:lvgl/lvgl/examples/widgets/chart/lv_example_chart_6.c ****         a.x2 = a.x1 + size.x + 10;
 213              		.loc 1 36 23 is_stmt 0 discriminator 2 view .LVU59
 214 00c4 0B88     		ldrh	r3, [r1]
  36:lvgl/lvgl/examples/widgets/chart/lv_example_chart_6.c ****         a.x2 = a.x1 + size.x + 10;
 215              		.loc 1 36 27 discriminator 2 view .LVU60
 216 00c6 0A33     		adds	r3, r3, #10
  36:lvgl/lvgl/examples/widgets/chart/lv_example_chart_6.c ****         a.x2 = a.x1 + size.x + 10;
 217              		.loc 1 36 14 discriminator 2 view .LVU61
 218 00c8 ADF81430 		strh	r3, [sp, #20]	@ movhi
  37:lvgl/lvgl/examples/widgets/chart/lv_example_chart_6.c **** 
 219              		.loc 1 37 9 is_stmt 1 discriminator 2 view .LVU62
  37:lvgl/lvgl/examples/widgets/chart/lv_example_chart_6.c **** 
 220              		.loc 1 37 27 is_stmt 0 discriminator 2 view .LVU63
 221 00cc BDF81020 		ldrh	r2, [sp, #16]
  37:lvgl/lvgl/examples/widgets/chart/lv_example_chart_6.c **** 
 222              		.loc 1 37 21 discriminator 2 view .LVU64
 223 00d0 12FA83F3 		uxtah	r3, r2, r3
 224 00d4 9BB2     		uxth	r3, r3
  37:lvgl/lvgl/examples/widgets/chart/lv_example_chart_6.c **** 
 225              		.loc 1 37 30 discriminator 2 view .LVU65
 226 00d6 0A33     		adds	r3, r3, #10
  37:lvgl/lvgl/examples/widgets/chart/lv_example_chart_6.c **** 
 227              		.loc 1 37 14 discriminator 2 view .LVU66
 228 00d8 ADF81830 		strh	r3, [sp, #24]	@ movhi
  39:lvgl/lvgl/examples/widgets/chart/lv_example_chart_6.c ****         lv_draw_rect_dsc_init(&draw_rect_dsc);
 229              		.loc 1 39 9 is_stmt 1 discriminator 2 view .LVU67
  40:lvgl/lvgl/examples/widgets/chart/lv_example_chart_6.c ****         draw_rect_dsc.bg_color = lv_palette_main(LV_PALETTE_BLUE);
 230              		.loc 1 40 9 discriminator 2 view .LVU68
 231 00dc 13A8     		add	r0, sp, #76
 232 00de FFF7FEFF 		bl	lv_draw_rect_dsc_init
 233              	.LVL20:
ARM GAS  C:\Users\gx\AppData\Local\Temp\ccAfmFof.s 			page 7


  41:lvgl/lvgl/examples/widgets/chart/lv_example_chart_6.c ****         draw_rect_dsc.radius = 3;
 234              		.loc 1 41 9 discriminator 2 view .LVU69
  41:lvgl/lvgl/examples/widgets/chart/lv_example_chart_6.c ****         draw_rect_dsc.radius = 3;
 235              		.loc 1 41 34 is_stmt 0 discriminator 2 view .LVU70
 236 00e2 0520     		movs	r0, #5
 237 00e4 FFF7FEFF 		bl	lv_palette_main
 238              	.LVL21:
 239 00e8 ADF85000 		strh	r0, [sp, #80]	@ movhi
  42:lvgl/lvgl/examples/widgets/chart/lv_example_chart_6.c **** 
 240              		.loc 1 42 9 is_stmt 1 discriminator 2 view .LVU71
  42:lvgl/lvgl/examples/widgets/chart/lv_example_chart_6.c **** 
 241              		.loc 1 42 30 is_stmt 0 discriminator 2 view .LVU72
 242 00ec 0323     		movs	r3, #3
 243 00ee ADF84C30 		strh	r3, [sp, #76]	@ movhi
  44:lvgl/lvgl/examples/widgets/chart/lv_example_chart_6.c **** 
 244              		.loc 1 44 9 is_stmt 1 discriminator 2 view .LVU73
 245 00f2 13AA     		add	r2, sp, #76
 246 00f4 2168     		ldr	r1, [r4]
 247 00f6 05A8     		add	r0, sp, #20
 248 00f8 FFF7FEFF 		bl	lv_draw_rect
 249              	.LVL22:
  46:lvgl/lvgl/examples/widgets/chart/lv_example_chart_6.c ****         lv_draw_label_dsc_init(&draw_label_dsc);
 250              		.loc 1 46 9 discriminator 2 view .LVU74
  47:lvgl/lvgl/examples/widgets/chart/lv_example_chart_6.c ****         draw_label_dsc.color = lv_color_white();
 251              		.loc 1 47 9 discriminator 2 view .LVU75
 252 00fc 0BA8     		add	r0, sp, #44
 253 00fe FFF7FEFF 		bl	lv_draw_label_dsc_init
 254              	.LVL23:
  48:lvgl/lvgl/examples/widgets/chart/lv_example_chart_6.c ****         a.x1 += 5;
 255              		.loc 1 48 9 discriminator 2 view .LVU76
 256              	.LBB14:
 257              	.LBI14:
 258              		.file 2 "d:\\practise\\f407_disc\\lvgl\\lvgl\\src\\misc\\lv_color.h"
   1:d:\practise\f407_disc\lvgl\lvgl\src\misc\lv_color.h **** /**
   2:d:\practise\f407_disc\lvgl\lvgl\src\misc\lv_color.h ****  * @file lv_color.h
   3:d:\practise\f407_disc\lvgl\lvgl\src\misc\lv_color.h ****  *
   4:d:\practise\f407_disc\lvgl\lvgl\src\misc\lv_color.h ****  */
   5:d:\practise\f407_disc\lvgl\lvgl\src\misc\lv_color.h **** 
   6:d:\practise\f407_disc\lvgl\lvgl\src\misc\lv_color.h **** #ifndef LV_COLOR_H
   7:d:\practise\f407_disc\lvgl\lvgl\src\misc\lv_color.h **** #define LV_COLOR_H
   8:d:\practise\f407_disc\lvgl\lvgl\src\misc\lv_color.h **** 
   9:d:\practise\f407_disc\lvgl\lvgl\src\misc\lv_color.h **** #ifdef __cplusplus
  10:d:\practise\f407_disc\lvgl\lvgl\src\misc\lv_color.h **** extern "C" {
  11:d:\practise\f407_disc\lvgl\lvgl\src\misc\lv_color.h **** #endif
  12:d:\practise\f407_disc\lvgl\lvgl\src\misc\lv_color.h **** 
  13:d:\practise\f407_disc\lvgl\lvgl\src\misc\lv_color.h **** /*********************
  14:d:\practise\f407_disc\lvgl\lvgl\src\misc\lv_color.h ****  *      INCLUDES
  15:d:\practise\f407_disc\lvgl\lvgl\src\misc\lv_color.h ****  *********************/
  16:d:\practise\f407_disc\lvgl\lvgl\src\misc\lv_color.h **** #include "../lv_conf_internal.h"
  17:d:\practise\f407_disc\lvgl\lvgl\src\misc\lv_color.h **** #include "lv_math.h"
  18:d:\practise\f407_disc\lvgl\lvgl\src\misc\lv_color.h **** #include "lv_types.h"
  19:d:\practise\f407_disc\lvgl\lvgl\src\misc\lv_color.h **** 
  20:d:\practise\f407_disc\lvgl\lvgl\src\misc\lv_color.h **** /*Error checking*/
  21:d:\practise\f407_disc\lvgl\lvgl\src\misc\lv_color.h **** #if LV_COLOR_DEPTH == 24
  22:d:\practise\f407_disc\lvgl\lvgl\src\misc\lv_color.h **** #error "LV_COLOR_DEPTH 24 is deprecated. Use LV_COLOR_DEPTH 32 instead (lv_conf.h)"
  23:d:\practise\f407_disc\lvgl\lvgl\src\misc\lv_color.h **** #endif
  24:d:\practise\f407_disc\lvgl\lvgl\src\misc\lv_color.h **** 
ARM GAS  C:\Users\gx\AppData\Local\Temp\ccAfmFof.s 			page 8


  25:d:\practise\f407_disc\lvgl\lvgl\src\misc\lv_color.h **** #if LV_COLOR_DEPTH != 32 && LV_COLOR_SCREEN_TRANSP != 0
  26:d:\practise\f407_disc\lvgl\lvgl\src\misc\lv_color.h **** #error "LV_COLOR_SCREEN_TRANSP requires LV_COLOR_DEPTH == 32. Set it in lv_conf.h"
  27:d:\practise\f407_disc\lvgl\lvgl\src\misc\lv_color.h **** #endif
  28:d:\practise\f407_disc\lvgl\lvgl\src\misc\lv_color.h **** 
  29:d:\practise\f407_disc\lvgl\lvgl\src\misc\lv_color.h **** #if LV_COLOR_DEPTH != 16 && LV_COLOR_16_SWAP != 0
  30:d:\practise\f407_disc\lvgl\lvgl\src\misc\lv_color.h **** #error "LV_COLOR_16_SWAP requires LV_COLOR_DEPTH == 16. Set it in lv_conf.h"
  31:d:\practise\f407_disc\lvgl\lvgl\src\misc\lv_color.h **** #endif
  32:d:\practise\f407_disc\lvgl\lvgl\src\misc\lv_color.h **** 
  33:d:\practise\f407_disc\lvgl\lvgl\src\misc\lv_color.h **** #include <stdint.h>
  34:d:\practise\f407_disc\lvgl\lvgl\src\misc\lv_color.h **** 
  35:d:\practise\f407_disc\lvgl\lvgl\src\misc\lv_color.h **** /*********************
  36:d:\practise\f407_disc\lvgl\lvgl\src\misc\lv_color.h ****  *      DEFINES
  37:d:\practise\f407_disc\lvgl\lvgl\src\misc\lv_color.h ****  *********************/
  38:d:\practise\f407_disc\lvgl\lvgl\src\misc\lv_color.h **** 
  39:d:\practise\f407_disc\lvgl\lvgl\src\misc\lv_color.h **** /**
  40:d:\practise\f407_disc\lvgl\lvgl\src\misc\lv_color.h ****  * Opacity percentages.
  41:d:\practise\f407_disc\lvgl\lvgl\src\misc\lv_color.h ****  */
  42:d:\practise\f407_disc\lvgl\lvgl\src\misc\lv_color.h **** enum {
  43:d:\practise\f407_disc\lvgl\lvgl\src\misc\lv_color.h ****     LV_OPA_TRANSP = 0,
  44:d:\practise\f407_disc\lvgl\lvgl\src\misc\lv_color.h ****     LV_OPA_0      = 0,
  45:d:\practise\f407_disc\lvgl\lvgl\src\misc\lv_color.h ****     LV_OPA_10     = 25,
  46:d:\practise\f407_disc\lvgl\lvgl\src\misc\lv_color.h ****     LV_OPA_20     = 51,
  47:d:\practise\f407_disc\lvgl\lvgl\src\misc\lv_color.h ****     LV_OPA_30     = 76,
  48:d:\practise\f407_disc\lvgl\lvgl\src\misc\lv_color.h ****     LV_OPA_40     = 102,
  49:d:\practise\f407_disc\lvgl\lvgl\src\misc\lv_color.h ****     LV_OPA_50     = 127,
  50:d:\practise\f407_disc\lvgl\lvgl\src\misc\lv_color.h ****     LV_OPA_60     = 153,
  51:d:\practise\f407_disc\lvgl\lvgl\src\misc\lv_color.h ****     LV_OPA_70     = 178,
  52:d:\practise\f407_disc\lvgl\lvgl\src\misc\lv_color.h ****     LV_OPA_80     = 204,
  53:d:\practise\f407_disc\lvgl\lvgl\src\misc\lv_color.h ****     LV_OPA_90     = 229,
  54:d:\practise\f407_disc\lvgl\lvgl\src\misc\lv_color.h ****     LV_OPA_100    = 255,
  55:d:\practise\f407_disc\lvgl\lvgl\src\misc\lv_color.h ****     LV_OPA_COVER  = 255,
  56:d:\practise\f407_disc\lvgl\lvgl\src\misc\lv_color.h **** };
  57:d:\practise\f407_disc\lvgl\lvgl\src\misc\lv_color.h **** 
  58:d:\practise\f407_disc\lvgl\lvgl\src\misc\lv_color.h **** #define LV_OPA_MIN 2    /*Opacities below this will be transparent*/
  59:d:\practise\f407_disc\lvgl\lvgl\src\misc\lv_color.h **** #define LV_OPA_MAX 253  /*Opacities above this will fully cover*/
  60:d:\practise\f407_disc\lvgl\lvgl\src\misc\lv_color.h **** 
  61:d:\practise\f407_disc\lvgl\lvgl\src\misc\lv_color.h **** #if LV_COLOR_DEPTH == 1
  62:d:\practise\f407_disc\lvgl\lvgl\src\misc\lv_color.h **** #define LV_COLOR_SIZE 8
  63:d:\practise\f407_disc\lvgl\lvgl\src\misc\lv_color.h **** #elif LV_COLOR_DEPTH == 8
  64:d:\practise\f407_disc\lvgl\lvgl\src\misc\lv_color.h **** #define LV_COLOR_SIZE 8
  65:d:\practise\f407_disc\lvgl\lvgl\src\misc\lv_color.h **** #elif LV_COLOR_DEPTH == 16
  66:d:\practise\f407_disc\lvgl\lvgl\src\misc\lv_color.h **** #define LV_COLOR_SIZE 16
  67:d:\practise\f407_disc\lvgl\lvgl\src\misc\lv_color.h **** #elif LV_COLOR_DEPTH == 32
  68:d:\practise\f407_disc\lvgl\lvgl\src\misc\lv_color.h **** #define LV_COLOR_SIZE 32
  69:d:\practise\f407_disc\lvgl\lvgl\src\misc\lv_color.h **** #else
  70:d:\practise\f407_disc\lvgl\lvgl\src\misc\lv_color.h **** #error "Invalid LV_COLOR_DEPTH in lv_conf.h! Set it to 1, 8, 16 or 32!"
  71:d:\practise\f407_disc\lvgl\lvgl\src\misc\lv_color.h **** #endif
  72:d:\practise\f407_disc\lvgl\lvgl\src\misc\lv_color.h **** 
  73:d:\practise\f407_disc\lvgl\lvgl\src\misc\lv_color.h **** /**
  74:d:\practise\f407_disc\lvgl\lvgl\src\misc\lv_color.h ****  * Adjust color mix functions rounding.
  75:d:\practise\f407_disc\lvgl\lvgl\src\misc\lv_color.h ****  * GPUs might calculate color mix (blending) differently.
  76:d:\practise\f407_disc\lvgl\lvgl\src\misc\lv_color.h ****  * Should be in range of 0..254
  77:d:\practise\f407_disc\lvgl\lvgl\src\misc\lv_color.h ****  * 0: no adjustment, get the integer part of the result (round down)
  78:d:\practise\f407_disc\lvgl\lvgl\src\misc\lv_color.h ****  * 64: round up from x.75
  79:d:\practise\f407_disc\lvgl\lvgl\src\misc\lv_color.h ****  * 128: round up from half
  80:d:\practise\f407_disc\lvgl\lvgl\src\misc\lv_color.h ****  * 192: round up from x.25
  81:d:\practise\f407_disc\lvgl\lvgl\src\misc\lv_color.h ****  * 254: round up*/
ARM GAS  C:\Users\gx\AppData\Local\Temp\ccAfmFof.s 			page 9


  82:d:\practise\f407_disc\lvgl\lvgl\src\misc\lv_color.h **** #ifndef LV_COLOR_MIX_ROUND_OFS
  83:d:\practise\f407_disc\lvgl\lvgl\src\misc\lv_color.h **** #if LV_COLOR_DEPTH == 32
  84:d:\practise\f407_disc\lvgl\lvgl\src\misc\lv_color.h **** #define LV_COLOR_MIX_ROUND_OFS 0
  85:d:\practise\f407_disc\lvgl\lvgl\src\misc\lv_color.h **** #else
  86:d:\practise\f407_disc\lvgl\lvgl\src\misc\lv_color.h **** #define LV_COLOR_MIX_ROUND_OFS 128
  87:d:\practise\f407_disc\lvgl\lvgl\src\misc\lv_color.h **** #endif
  88:d:\practise\f407_disc\lvgl\lvgl\src\misc\lv_color.h **** #endif
  89:d:\practise\f407_disc\lvgl\lvgl\src\misc\lv_color.h **** 
  90:d:\practise\f407_disc\lvgl\lvgl\src\misc\lv_color.h **** #if defined(__cplusplus) && !defined(_LV_COLOR_HAS_MODERN_CPP)
  91:d:\practise\f407_disc\lvgl\lvgl\src\misc\lv_color.h **** /**
  92:d:\practise\f407_disc\lvgl\lvgl\src\misc\lv_color.h **** * MSVC compiler's definition of the __cplusplus indicating 199711L regardless to C++ standard versi
  93:d:\practise\f407_disc\lvgl\lvgl\src\misc\lv_color.h **** * see https://devblogs.microsoft.com/cppblog/msvc-now-correctly-reports-cplusplus
  94:d:\practise\f407_disc\lvgl\lvgl\src\misc\lv_color.h **** * so we use _MSC_VER macro instead of __cplusplus
  95:d:\practise\f407_disc\lvgl\lvgl\src\misc\lv_color.h **** */
  96:d:\practise\f407_disc\lvgl\lvgl\src\misc\lv_color.h **** #ifdef _MSC_VER
  97:d:\practise\f407_disc\lvgl\lvgl\src\misc\lv_color.h **** #if _MSC_VER >= 1900 /*Visual Studio 2015*/
  98:d:\practise\f407_disc\lvgl\lvgl\src\misc\lv_color.h **** #define _LV_COLOR_HAS_MODERN_CPP 1
  99:d:\practise\f407_disc\lvgl\lvgl\src\misc\lv_color.h **** #endif
 100:d:\practise\f407_disc\lvgl\lvgl\src\misc\lv_color.h **** #else
 101:d:\practise\f407_disc\lvgl\lvgl\src\misc\lv_color.h **** #if __cplusplus >= 201103L
 102:d:\practise\f407_disc\lvgl\lvgl\src\misc\lv_color.h **** #define _LV_COLOR_HAS_MODERN_CPP 1
 103:d:\practise\f407_disc\lvgl\lvgl\src\misc\lv_color.h **** #endif
 104:d:\practise\f407_disc\lvgl\lvgl\src\misc\lv_color.h **** #endif
 105:d:\practise\f407_disc\lvgl\lvgl\src\misc\lv_color.h **** #endif /*__cplusplus*/
 106:d:\practise\f407_disc\lvgl\lvgl\src\misc\lv_color.h **** 
 107:d:\practise\f407_disc\lvgl\lvgl\src\misc\lv_color.h **** #ifndef _LV_COLOR_HAS_MODERN_CPP
 108:d:\practise\f407_disc\lvgl\lvgl\src\misc\lv_color.h **** #define _LV_COLOR_HAS_MODERN_CPP 0
 109:d:\practise\f407_disc\lvgl\lvgl\src\misc\lv_color.h **** #endif
 110:d:\practise\f407_disc\lvgl\lvgl\src\misc\lv_color.h **** 
 111:d:\practise\f407_disc\lvgl\lvgl\src\misc\lv_color.h **** #if _LV_COLOR_HAS_MODERN_CPP
 112:d:\practise\f407_disc\lvgl\lvgl\src\misc\lv_color.h **** /*Fix msvc compiler error C4576 inside C++ code*/
 113:d:\practise\f407_disc\lvgl\lvgl\src\misc\lv_color.h **** #define _LV_COLOR_MAKE_TYPE_HELPER lv_color_t
 114:d:\practise\f407_disc\lvgl\lvgl\src\misc\lv_color.h **** #else
 115:d:\practise\f407_disc\lvgl\lvgl\src\misc\lv_color.h **** #define _LV_COLOR_MAKE_TYPE_HELPER (lv_color_t)
 116:d:\practise\f407_disc\lvgl\lvgl\src\misc\lv_color.h **** #endif
 117:d:\practise\f407_disc\lvgl\lvgl\src\misc\lv_color.h **** 
 118:d:\practise\f407_disc\lvgl\lvgl\src\misc\lv_color.h **** /*---------------------------------------
 119:d:\practise\f407_disc\lvgl\lvgl\src\misc\lv_color.h ****  * Macros for all existing color depths
 120:d:\practise\f407_disc\lvgl\lvgl\src\misc\lv_color.h ****  * to set/get values of the color channels
 121:d:\practise\f407_disc\lvgl\lvgl\src\misc\lv_color.h ****  *------------------------------------------*/
 122:d:\practise\f407_disc\lvgl\lvgl\src\misc\lv_color.h **** # define LV_COLOR_SET_R1(c, v) (c).ch.red = (uint8_t)((v) & 0x1)
 123:d:\practise\f407_disc\lvgl\lvgl\src\misc\lv_color.h **** # define LV_COLOR_SET_G1(c, v) (c).ch.green = (uint8_t)((v) & 0x1)
 124:d:\practise\f407_disc\lvgl\lvgl\src\misc\lv_color.h **** # define LV_COLOR_SET_B1(c, v) (c).ch.blue = (uint8_t)((v) & 0x1)
 125:d:\practise\f407_disc\lvgl\lvgl\src\misc\lv_color.h **** # define LV_COLOR_SET_A1(c, v) do {} while(0)
 126:d:\practise\f407_disc\lvgl\lvgl\src\misc\lv_color.h **** 
 127:d:\practise\f407_disc\lvgl\lvgl\src\misc\lv_color.h **** # define LV_COLOR_GET_R1(c) (c).ch.red
 128:d:\practise\f407_disc\lvgl\lvgl\src\misc\lv_color.h **** # define LV_COLOR_GET_G1(c) (c).ch.green
 129:d:\practise\f407_disc\lvgl\lvgl\src\misc\lv_color.h **** # define LV_COLOR_GET_B1(c) (c).ch.blue
 130:d:\practise\f407_disc\lvgl\lvgl\src\misc\lv_color.h **** # define LV_COLOR_GET_A1(c) 0xFF
 131:d:\practise\f407_disc\lvgl\lvgl\src\misc\lv_color.h **** 
 132:d:\practise\f407_disc\lvgl\lvgl\src\misc\lv_color.h **** # define _LV_COLOR_ZERO_INITIALIZER1 {0x00}
 133:d:\practise\f407_disc\lvgl\lvgl\src\misc\lv_color.h **** # define LV_COLOR_MAKE1(r8, g8, b8)  {(uint8_t)((b8 >> 7) | (g8 >> 7) | (r8 >> 7))}
 134:d:\practise\f407_disc\lvgl\lvgl\src\misc\lv_color.h **** 
 135:d:\practise\f407_disc\lvgl\lvgl\src\misc\lv_color.h **** # define LV_COLOR_SET_R8(c, v) (c).ch.red = (uint8_t)((v) & 0x7U)
 136:d:\practise\f407_disc\lvgl\lvgl\src\misc\lv_color.h **** # define LV_COLOR_SET_G8(c, v) (c).ch.green = (uint8_t)((v) & 0x7U)
 137:d:\practise\f407_disc\lvgl\lvgl\src\misc\lv_color.h **** # define LV_COLOR_SET_B8(c, v) (c).ch.blue = (uint8_t)((v) & 0x3U)
 138:d:\practise\f407_disc\lvgl\lvgl\src\misc\lv_color.h **** # define LV_COLOR_SET_A8(c, v) do {} while(0)
ARM GAS  C:\Users\gx\AppData\Local\Temp\ccAfmFof.s 			page 10


 139:d:\practise\f407_disc\lvgl\lvgl\src\misc\lv_color.h **** 
 140:d:\practise\f407_disc\lvgl\lvgl\src\misc\lv_color.h **** # define LV_COLOR_GET_R8(c) (c).ch.red
 141:d:\practise\f407_disc\lvgl\lvgl\src\misc\lv_color.h **** # define LV_COLOR_GET_G8(c) (c).ch.green
 142:d:\practise\f407_disc\lvgl\lvgl\src\misc\lv_color.h **** # define LV_COLOR_GET_B8(c) (c).ch.blue
 143:d:\practise\f407_disc\lvgl\lvgl\src\misc\lv_color.h **** # define LV_COLOR_GET_A8(c) 0xFF
 144:d:\practise\f407_disc\lvgl\lvgl\src\misc\lv_color.h **** 
 145:d:\practise\f407_disc\lvgl\lvgl\src\misc\lv_color.h **** # define _LV_COLOR_ZERO_INITIALIZER8 {{0x00, 0x00, 0x00}}
 146:d:\practise\f407_disc\lvgl\lvgl\src\misc\lv_color.h **** # define LV_COLOR_MAKE8(r8, g8, b8) {{(uint8_t)((b8 >> 6) & 0x3U), (uint8_t)((g8 >> 5) & 0x7U), (ui
 147:d:\practise\f407_disc\lvgl\lvgl\src\misc\lv_color.h **** 
 148:d:\practise\f407_disc\lvgl\lvgl\src\misc\lv_color.h **** # define LV_COLOR_SET_R16(c, v) (c).ch.red = (uint8_t)((v) & 0x1FU)
 149:d:\practise\f407_disc\lvgl\lvgl\src\misc\lv_color.h **** #if LV_COLOR_16_SWAP == 0
 150:d:\practise\f407_disc\lvgl\lvgl\src\misc\lv_color.h **** # define LV_COLOR_SET_G16(c, v) (c).ch.green = (uint8_t)((v) & 0x3FU)
 151:d:\practise\f407_disc\lvgl\lvgl\src\misc\lv_color.h **** #else
 152:d:\practise\f407_disc\lvgl\lvgl\src\misc\lv_color.h **** # define LV_COLOR_SET_G16(c, v) {(c).ch.green_h = (uint8_t)(((v) >> 3) & 0x7); (c).ch.green_l = (ui
 153:d:\practise\f407_disc\lvgl\lvgl\src\misc\lv_color.h **** #endif
 154:d:\practise\f407_disc\lvgl\lvgl\src\misc\lv_color.h **** # define LV_COLOR_SET_B16(c, v) (c).ch.blue = (uint8_t)((v) & 0x1FU)
 155:d:\practise\f407_disc\lvgl\lvgl\src\misc\lv_color.h **** # define LV_COLOR_SET_A16(c, v) do {} while(0)
 156:d:\practise\f407_disc\lvgl\lvgl\src\misc\lv_color.h **** 
 157:d:\practise\f407_disc\lvgl\lvgl\src\misc\lv_color.h **** # define LV_COLOR_GET_R16(c) (c).ch.red
 158:d:\practise\f407_disc\lvgl\lvgl\src\misc\lv_color.h **** #if LV_COLOR_16_SWAP == 0
 159:d:\practise\f407_disc\lvgl\lvgl\src\misc\lv_color.h **** # define LV_COLOR_GET_G16(c) (c).ch.green
 160:d:\practise\f407_disc\lvgl\lvgl\src\misc\lv_color.h **** #else
 161:d:\practise\f407_disc\lvgl\lvgl\src\misc\lv_color.h **** # define LV_COLOR_GET_G16(c) (((c).ch.green_h << 3) + (c).ch.green_l)
 162:d:\practise\f407_disc\lvgl\lvgl\src\misc\lv_color.h **** #endif
 163:d:\practise\f407_disc\lvgl\lvgl\src\misc\lv_color.h **** # define LV_COLOR_GET_B16(c) (c).ch.blue
 164:d:\practise\f407_disc\lvgl\lvgl\src\misc\lv_color.h **** # define LV_COLOR_GET_A16(c) 0xFF
 165:d:\practise\f407_disc\lvgl\lvgl\src\misc\lv_color.h **** 
 166:d:\practise\f407_disc\lvgl\lvgl\src\misc\lv_color.h **** #if LV_COLOR_16_SWAP == 0
 167:d:\practise\f407_disc\lvgl\lvgl\src\misc\lv_color.h **** # define _LV_COLOR_ZERO_INITIALIZER16  {{0x00, 0x00, 0x00}}
 168:d:\practise\f407_disc\lvgl\lvgl\src\misc\lv_color.h **** # define LV_COLOR_MAKE16(r8, g8, b8) {{(uint8_t)((b8 >> 3) & 0x1FU), (uint8_t)((g8 >> 2) & 0x3FU), 
 169:d:\practise\f407_disc\lvgl\lvgl\src\misc\lv_color.h **** #else
 170:d:\practise\f407_disc\lvgl\lvgl\src\misc\lv_color.h **** # define _LV_COLOR_ZERO_INITIALIZER16 {{0x00, 0x00, 0x00, 0x00}}
 171:d:\practise\f407_disc\lvgl\lvgl\src\misc\lv_color.h **** # define LV_COLOR_MAKE16(r8, g8, b8) {{(uint8_t)((g8 >> 5) & 0x7U), (uint8_t)((r8 >> 3) & 0x1FU), (
 172:d:\practise\f407_disc\lvgl\lvgl\src\misc\lv_color.h **** #endif
 173:d:\practise\f407_disc\lvgl\lvgl\src\misc\lv_color.h **** 
 174:d:\practise\f407_disc\lvgl\lvgl\src\misc\lv_color.h **** # define LV_COLOR_SET_R32(c, v) (c).ch.red = (uint8_t)((v) & 0xFF)
 175:d:\practise\f407_disc\lvgl\lvgl\src\misc\lv_color.h **** # define LV_COLOR_SET_G32(c, v) (c).ch.green = (uint8_t)((v) & 0xFF)
 176:d:\practise\f407_disc\lvgl\lvgl\src\misc\lv_color.h **** # define LV_COLOR_SET_B32(c, v) (c).ch.blue = (uint8_t)((v) & 0xFF)
 177:d:\practise\f407_disc\lvgl\lvgl\src\misc\lv_color.h **** # define LV_COLOR_SET_A32(c, v) (c).ch.alpha = (uint8_t)((v) & 0xFF)
 178:d:\practise\f407_disc\lvgl\lvgl\src\misc\lv_color.h **** 
 179:d:\practise\f407_disc\lvgl\lvgl\src\misc\lv_color.h **** # define LV_COLOR_GET_R32(c) (c).ch.red
 180:d:\practise\f407_disc\lvgl\lvgl\src\misc\lv_color.h **** # define LV_COLOR_GET_G32(c) (c).ch.green
 181:d:\practise\f407_disc\lvgl\lvgl\src\misc\lv_color.h **** # define LV_COLOR_GET_B32(c) (c).ch.blue
 182:d:\practise\f407_disc\lvgl\lvgl\src\misc\lv_color.h **** # define LV_COLOR_GET_A32(c) (c).ch.alpha
 183:d:\practise\f407_disc\lvgl\lvgl\src\misc\lv_color.h **** 
 184:d:\practise\f407_disc\lvgl\lvgl\src\misc\lv_color.h **** # define _LV_COLOR_ZERO_INITIALIZER32  {{0x00, 0x00, 0x00, 0x00}}
 185:d:\practise\f407_disc\lvgl\lvgl\src\misc\lv_color.h **** # define LV_COLOR_MAKE32(r8, g8, b8) {{b8, g8, r8, 0xff}} /*Fix 0xff alpha*/
 186:d:\practise\f407_disc\lvgl\lvgl\src\misc\lv_color.h **** 
 187:d:\practise\f407_disc\lvgl\lvgl\src\misc\lv_color.h **** /*---------------------------------------
 188:d:\practise\f407_disc\lvgl\lvgl\src\misc\lv_color.h ****  * Macros for the current color depth
 189:d:\practise\f407_disc\lvgl\lvgl\src\misc\lv_color.h ****  * to set/get values of the color channels
 190:d:\practise\f407_disc\lvgl\lvgl\src\misc\lv_color.h ****  *------------------------------------------*/
 191:d:\practise\f407_disc\lvgl\lvgl\src\misc\lv_color.h **** #define LV_COLOR_SET_R(c, v) LV_CONCAT(LV_COLOR_SET_R, LV_COLOR_DEPTH)(c, v)
 192:d:\practise\f407_disc\lvgl\lvgl\src\misc\lv_color.h **** #define LV_COLOR_SET_G(c, v) LV_CONCAT(LV_COLOR_SET_G, LV_COLOR_DEPTH)(c, v)
 193:d:\practise\f407_disc\lvgl\lvgl\src\misc\lv_color.h **** #define LV_COLOR_SET_B(c, v) LV_CONCAT(LV_COLOR_SET_B, LV_COLOR_DEPTH)(c, v)
 194:d:\practise\f407_disc\lvgl\lvgl\src\misc\lv_color.h **** #define LV_COLOR_SET_A(c, v) LV_CONCAT(LV_COLOR_SET_A, LV_COLOR_DEPTH)(c, v)
 195:d:\practise\f407_disc\lvgl\lvgl\src\misc\lv_color.h **** 
ARM GAS  C:\Users\gx\AppData\Local\Temp\ccAfmFof.s 			page 11


 196:d:\practise\f407_disc\lvgl\lvgl\src\misc\lv_color.h **** #define LV_COLOR_GET_R(c) LV_CONCAT(LV_COLOR_GET_R, LV_COLOR_DEPTH)(c)
 197:d:\practise\f407_disc\lvgl\lvgl\src\misc\lv_color.h **** #define LV_COLOR_GET_G(c) LV_CONCAT(LV_COLOR_GET_G, LV_COLOR_DEPTH)(c)
 198:d:\practise\f407_disc\lvgl\lvgl\src\misc\lv_color.h **** #define LV_COLOR_GET_B(c) LV_CONCAT(LV_COLOR_GET_B, LV_COLOR_DEPTH)(c)
 199:d:\practise\f407_disc\lvgl\lvgl\src\misc\lv_color.h **** #define LV_COLOR_GET_A(c) LV_CONCAT(LV_COLOR_GET_A, LV_COLOR_DEPTH)(c)
 200:d:\practise\f407_disc\lvgl\lvgl\src\misc\lv_color.h **** 
 201:d:\practise\f407_disc\lvgl\lvgl\src\misc\lv_color.h **** #define _LV_COLOR_ZERO_INITIALIZER LV_CONCAT(_LV_COLOR_ZERO_INITIALIZER, LV_COLOR_DEPTH)
 202:d:\practise\f407_disc\lvgl\lvgl\src\misc\lv_color.h **** #define LV_COLOR_MAKE(r8, g8, b8) LV_CONCAT(LV_COLOR_MAKE, LV_COLOR_DEPTH)(r8, g8, b8)
 203:d:\practise\f407_disc\lvgl\lvgl\src\misc\lv_color.h **** 
 204:d:\practise\f407_disc\lvgl\lvgl\src\misc\lv_color.h **** #define LV_UDIV255(x) ((uint32_t)((uint32_t) (x) * 0x8081) >> 0x17)
 205:d:\practise\f407_disc\lvgl\lvgl\src\misc\lv_color.h **** 
 206:d:\practise\f407_disc\lvgl\lvgl\src\misc\lv_color.h **** /**********************
 207:d:\practise\f407_disc\lvgl\lvgl\src\misc\lv_color.h ****  *      TYPEDEFS
 208:d:\practise\f407_disc\lvgl\lvgl\src\misc\lv_color.h ****  **********************/
 209:d:\practise\f407_disc\lvgl\lvgl\src\misc\lv_color.h **** 
 210:d:\practise\f407_disc\lvgl\lvgl\src\misc\lv_color.h **** typedef union {
 211:d:\practise\f407_disc\lvgl\lvgl\src\misc\lv_color.h ****     uint8_t full; /*must be declared first to set all bits of byte via initializer list*/
 212:d:\practise\f407_disc\lvgl\lvgl\src\misc\lv_color.h ****     union {
 213:d:\practise\f407_disc\lvgl\lvgl\src\misc\lv_color.h ****         uint8_t blue : 1;
 214:d:\practise\f407_disc\lvgl\lvgl\src\misc\lv_color.h ****         uint8_t green : 1;
 215:d:\practise\f407_disc\lvgl\lvgl\src\misc\lv_color.h ****         uint8_t red : 1;
 216:d:\practise\f407_disc\lvgl\lvgl\src\misc\lv_color.h ****     } ch;
 217:d:\practise\f407_disc\lvgl\lvgl\src\misc\lv_color.h **** } lv_color1_t;
 218:d:\practise\f407_disc\lvgl\lvgl\src\misc\lv_color.h **** 
 219:d:\practise\f407_disc\lvgl\lvgl\src\misc\lv_color.h **** typedef union {
 220:d:\practise\f407_disc\lvgl\lvgl\src\misc\lv_color.h ****     struct {
 221:d:\practise\f407_disc\lvgl\lvgl\src\misc\lv_color.h ****         uint8_t blue : 2;
 222:d:\practise\f407_disc\lvgl\lvgl\src\misc\lv_color.h ****         uint8_t green : 3;
 223:d:\practise\f407_disc\lvgl\lvgl\src\misc\lv_color.h ****         uint8_t red : 3;
 224:d:\practise\f407_disc\lvgl\lvgl\src\misc\lv_color.h ****     } ch;
 225:d:\practise\f407_disc\lvgl\lvgl\src\misc\lv_color.h ****     uint8_t full;
 226:d:\practise\f407_disc\lvgl\lvgl\src\misc\lv_color.h **** } lv_color8_t;
 227:d:\practise\f407_disc\lvgl\lvgl\src\misc\lv_color.h **** 
 228:d:\practise\f407_disc\lvgl\lvgl\src\misc\lv_color.h **** typedef union {
 229:d:\practise\f407_disc\lvgl\lvgl\src\misc\lv_color.h ****     struct {
 230:d:\practise\f407_disc\lvgl\lvgl\src\misc\lv_color.h **** #if LV_COLOR_16_SWAP == 0
 231:d:\practise\f407_disc\lvgl\lvgl\src\misc\lv_color.h ****         uint16_t blue : 5;
 232:d:\practise\f407_disc\lvgl\lvgl\src\misc\lv_color.h ****         uint16_t green : 6;
 233:d:\practise\f407_disc\lvgl\lvgl\src\misc\lv_color.h ****         uint16_t red : 5;
 234:d:\practise\f407_disc\lvgl\lvgl\src\misc\lv_color.h **** #else
 235:d:\practise\f407_disc\lvgl\lvgl\src\misc\lv_color.h ****         uint16_t green_h : 3;
 236:d:\practise\f407_disc\lvgl\lvgl\src\misc\lv_color.h ****         uint16_t red : 5;
 237:d:\practise\f407_disc\lvgl\lvgl\src\misc\lv_color.h ****         uint16_t blue : 5;
 238:d:\practise\f407_disc\lvgl\lvgl\src\misc\lv_color.h ****         uint16_t green_l : 3;
 239:d:\practise\f407_disc\lvgl\lvgl\src\misc\lv_color.h **** #endif
 240:d:\practise\f407_disc\lvgl\lvgl\src\misc\lv_color.h ****     } ch;
 241:d:\practise\f407_disc\lvgl\lvgl\src\misc\lv_color.h ****     uint16_t full;
 242:d:\practise\f407_disc\lvgl\lvgl\src\misc\lv_color.h **** } lv_color16_t;
 243:d:\practise\f407_disc\lvgl\lvgl\src\misc\lv_color.h **** 
 244:d:\practise\f407_disc\lvgl\lvgl\src\misc\lv_color.h **** typedef union {
 245:d:\practise\f407_disc\lvgl\lvgl\src\misc\lv_color.h ****     struct {
 246:d:\practise\f407_disc\lvgl\lvgl\src\misc\lv_color.h ****         uint8_t blue;
 247:d:\practise\f407_disc\lvgl\lvgl\src\misc\lv_color.h ****         uint8_t green;
 248:d:\practise\f407_disc\lvgl\lvgl\src\misc\lv_color.h ****         uint8_t red;
 249:d:\practise\f407_disc\lvgl\lvgl\src\misc\lv_color.h ****         uint8_t alpha;
 250:d:\practise\f407_disc\lvgl\lvgl\src\misc\lv_color.h ****     } ch;
 251:d:\practise\f407_disc\lvgl\lvgl\src\misc\lv_color.h ****     uint32_t full;
 252:d:\practise\f407_disc\lvgl\lvgl\src\misc\lv_color.h **** } lv_color32_t;
ARM GAS  C:\Users\gx\AppData\Local\Temp\ccAfmFof.s 			page 12


 253:d:\practise\f407_disc\lvgl\lvgl\src\misc\lv_color.h **** 
 254:d:\practise\f407_disc\lvgl\lvgl\src\misc\lv_color.h **** typedef LV_CONCAT3(uint, LV_COLOR_SIZE, _t) lv_color_int_t;
 255:d:\practise\f407_disc\lvgl\lvgl\src\misc\lv_color.h **** typedef LV_CONCAT3(lv_color, LV_COLOR_DEPTH, _t) lv_color_t;
 256:d:\practise\f407_disc\lvgl\lvgl\src\misc\lv_color.h **** 
 257:d:\practise\f407_disc\lvgl\lvgl\src\misc\lv_color.h **** typedef struct {
 258:d:\practise\f407_disc\lvgl\lvgl\src\misc\lv_color.h ****     uint16_t h;
 259:d:\practise\f407_disc\lvgl\lvgl\src\misc\lv_color.h ****     uint8_t s;
 260:d:\practise\f407_disc\lvgl\lvgl\src\misc\lv_color.h ****     uint8_t v;
 261:d:\practise\f407_disc\lvgl\lvgl\src\misc\lv_color.h **** } lv_color_hsv_t;
 262:d:\practise\f407_disc\lvgl\lvgl\src\misc\lv_color.h **** 
 263:d:\practise\f407_disc\lvgl\lvgl\src\misc\lv_color.h **** //! @cond Doxygen_Suppress
 264:d:\practise\f407_disc\lvgl\lvgl\src\misc\lv_color.h **** /*No idea where the guard is required but else throws warnings in the docs*/
 265:d:\practise\f407_disc\lvgl\lvgl\src\misc\lv_color.h **** typedef uint8_t lv_opa_t;
 266:d:\practise\f407_disc\lvgl\lvgl\src\misc\lv_color.h **** //! @endcond
 267:d:\practise\f407_disc\lvgl\lvgl\src\misc\lv_color.h **** 
 268:d:\practise\f407_disc\lvgl\lvgl\src\misc\lv_color.h **** struct _lv_color_filter_dsc_t;
 269:d:\practise\f407_disc\lvgl\lvgl\src\misc\lv_color.h **** 
 270:d:\practise\f407_disc\lvgl\lvgl\src\misc\lv_color.h **** typedef lv_color_t (*lv_color_filter_cb_t)(const struct _lv_color_filter_dsc_t *, lv_color_t, lv_op
 271:d:\practise\f407_disc\lvgl\lvgl\src\misc\lv_color.h **** 
 272:d:\practise\f407_disc\lvgl\lvgl\src\misc\lv_color.h **** typedef struct _lv_color_filter_dsc_t {
 273:d:\practise\f407_disc\lvgl\lvgl\src\misc\lv_color.h ****     lv_color_filter_cb_t filter_cb;
 274:d:\practise\f407_disc\lvgl\lvgl\src\misc\lv_color.h ****     void * user_data;
 275:d:\practise\f407_disc\lvgl\lvgl\src\misc\lv_color.h **** }lv_color_filter_dsc_t;
 276:d:\practise\f407_disc\lvgl\lvgl\src\misc\lv_color.h **** 
 277:d:\practise\f407_disc\lvgl\lvgl\src\misc\lv_color.h **** 
 278:d:\practise\f407_disc\lvgl\lvgl\src\misc\lv_color.h **** typedef enum {
 279:d:\practise\f407_disc\lvgl\lvgl\src\misc\lv_color.h ****     LV_PALETTE_RED,
 280:d:\practise\f407_disc\lvgl\lvgl\src\misc\lv_color.h ****     LV_PALETTE_PINK,
 281:d:\practise\f407_disc\lvgl\lvgl\src\misc\lv_color.h ****     LV_PALETTE_PURPLE,
 282:d:\practise\f407_disc\lvgl\lvgl\src\misc\lv_color.h ****     LV_PALETTE_DEEP_PURPLE,
 283:d:\practise\f407_disc\lvgl\lvgl\src\misc\lv_color.h ****     LV_PALETTE_INDIGO,
 284:d:\practise\f407_disc\lvgl\lvgl\src\misc\lv_color.h ****     LV_PALETTE_BLUE,
 285:d:\practise\f407_disc\lvgl\lvgl\src\misc\lv_color.h ****     LV_PALETTE_LIGHT_BLUE,
 286:d:\practise\f407_disc\lvgl\lvgl\src\misc\lv_color.h ****     LV_PALETTE_CYAN,
 287:d:\practise\f407_disc\lvgl\lvgl\src\misc\lv_color.h ****     LV_PALETTE_TEAL,
 288:d:\practise\f407_disc\lvgl\lvgl\src\misc\lv_color.h ****     LV_PALETTE_GREEN,
 289:d:\practise\f407_disc\lvgl\lvgl\src\misc\lv_color.h ****     LV_PALETTE_LIGHT_GREEN,
 290:d:\practise\f407_disc\lvgl\lvgl\src\misc\lv_color.h ****     LV_PALETTE_LIME,
 291:d:\practise\f407_disc\lvgl\lvgl\src\misc\lv_color.h ****     LV_PALETTE_YELLOW,
 292:d:\practise\f407_disc\lvgl\lvgl\src\misc\lv_color.h ****     LV_PALETTE_AMBER,
 293:d:\practise\f407_disc\lvgl\lvgl\src\misc\lv_color.h ****     LV_PALETTE_ORANGE,
 294:d:\practise\f407_disc\lvgl\lvgl\src\misc\lv_color.h ****     LV_PALETTE_DEEP_ORANGE,
 295:d:\practise\f407_disc\lvgl\lvgl\src\misc\lv_color.h ****     LV_PALETTE_BROWN,
 296:d:\practise\f407_disc\lvgl\lvgl\src\misc\lv_color.h ****     LV_PALETTE_BLUE_GREY,
 297:d:\practise\f407_disc\lvgl\lvgl\src\misc\lv_color.h ****     LV_PALETTE_GREY,
 298:d:\practise\f407_disc\lvgl\lvgl\src\misc\lv_color.h ****     _LV_PALETTE_LAST,
 299:d:\practise\f407_disc\lvgl\lvgl\src\misc\lv_color.h ****     LV_PALETTE_NONE = 0xff,
 300:d:\practise\f407_disc\lvgl\lvgl\src\misc\lv_color.h **** }lv_palette_t;
 301:d:\practise\f407_disc\lvgl\lvgl\src\misc\lv_color.h **** 
 302:d:\practise\f407_disc\lvgl\lvgl\src\misc\lv_color.h **** /**********************
 303:d:\practise\f407_disc\lvgl\lvgl\src\misc\lv_color.h ****  * GLOBAL PROTOTYPES
 304:d:\practise\f407_disc\lvgl\lvgl\src\misc\lv_color.h ****  **********************/
 305:d:\practise\f407_disc\lvgl\lvgl\src\misc\lv_color.h **** 
 306:d:\practise\f407_disc\lvgl\lvgl\src\misc\lv_color.h **** /*In color conversations:
 307:d:\practise\f407_disc\lvgl\lvgl\src\misc\lv_color.h ****  * - When converting to bigger color type the LSB weight of 1 LSB is calculated
 308:d:\practise\f407_disc\lvgl\lvgl\src\misc\lv_color.h ****  *   E.g. 16 bit Red has 5 bits
 309:d:\practise\f407_disc\lvgl\lvgl\src\misc\lv_color.h ****  *         8 bit Red has 3 bits
ARM GAS  C:\Users\gx\AppData\Local\Temp\ccAfmFof.s 			page 13


 310:d:\practise\f407_disc\lvgl\lvgl\src\misc\lv_color.h ****  *        ----------------------
 311:d:\practise\f407_disc\lvgl\lvgl\src\misc\lv_color.h ****  *        8 bit red LSB = (2^5 - 1) / (2^3 - 1) = 31 / 7 = 4
 312:d:\practise\f407_disc\lvgl\lvgl\src\misc\lv_color.h ****  *
 313:d:\practise\f407_disc\lvgl\lvgl\src\misc\lv_color.h ****  * - When calculating to smaller color type simply shift out the LSBs
 314:d:\practise\f407_disc\lvgl\lvgl\src\misc\lv_color.h ****  *   E.g.  8 bit Red has 3 bits
 315:d:\practise\f407_disc\lvgl\lvgl\src\misc\lv_color.h ****  *        16 bit Red has 5 bits
 316:d:\practise\f407_disc\lvgl\lvgl\src\misc\lv_color.h ****  *        ----------------------
 317:d:\practise\f407_disc\lvgl\lvgl\src\misc\lv_color.h ****  *         Shift right with 5 - 3 = 2
 318:d:\practise\f407_disc\lvgl\lvgl\src\misc\lv_color.h ****  */
 319:d:\practise\f407_disc\lvgl\lvgl\src\misc\lv_color.h **** static inline uint8_t lv_color_to1(lv_color_t color)
 320:d:\practise\f407_disc\lvgl\lvgl\src\misc\lv_color.h **** {
 321:d:\practise\f407_disc\lvgl\lvgl\src\misc\lv_color.h **** #if LV_COLOR_DEPTH == 1
 322:d:\practise\f407_disc\lvgl\lvgl\src\misc\lv_color.h ****     return color.full;
 323:d:\practise\f407_disc\lvgl\lvgl\src\misc\lv_color.h **** #elif LV_COLOR_DEPTH == 8
 324:d:\practise\f407_disc\lvgl\lvgl\src\misc\lv_color.h ****     if((LV_COLOR_GET_R(color) & 0x4) || (LV_COLOR_GET_G(color) & 0x4) || (LV_COLOR_GET_B(color) & 0
 325:d:\practise\f407_disc\lvgl\lvgl\src\misc\lv_color.h ****         return 1;
 326:d:\practise\f407_disc\lvgl\lvgl\src\misc\lv_color.h ****     }
 327:d:\practise\f407_disc\lvgl\lvgl\src\misc\lv_color.h ****     else {
 328:d:\practise\f407_disc\lvgl\lvgl\src\misc\lv_color.h ****         return 0;
 329:d:\practise\f407_disc\lvgl\lvgl\src\misc\lv_color.h ****     }
 330:d:\practise\f407_disc\lvgl\lvgl\src\misc\lv_color.h **** #elif LV_COLOR_DEPTH == 16
 331:d:\practise\f407_disc\lvgl\lvgl\src\misc\lv_color.h ****     if((LV_COLOR_GET_R(color) & 0x10) || (LV_COLOR_GET_G(color) & 0x20) || (LV_COLOR_GET_B(color) &
 332:d:\practise\f407_disc\lvgl\lvgl\src\misc\lv_color.h ****         return 1;
 333:d:\practise\f407_disc\lvgl\lvgl\src\misc\lv_color.h ****     }
 334:d:\practise\f407_disc\lvgl\lvgl\src\misc\lv_color.h ****     else {
 335:d:\practise\f407_disc\lvgl\lvgl\src\misc\lv_color.h ****         return 0;
 336:d:\practise\f407_disc\lvgl\lvgl\src\misc\lv_color.h ****     }
 337:d:\practise\f407_disc\lvgl\lvgl\src\misc\lv_color.h **** #elif LV_COLOR_DEPTH == 32
 338:d:\practise\f407_disc\lvgl\lvgl\src\misc\lv_color.h ****     if((LV_COLOR_GET_R(color) & 0x80) || (LV_COLOR_GET_G(color) & 0x80) || (LV_COLOR_GET_B(color) &
 339:d:\practise\f407_disc\lvgl\lvgl\src\misc\lv_color.h ****         return 1;
 340:d:\practise\f407_disc\lvgl\lvgl\src\misc\lv_color.h ****     }
 341:d:\practise\f407_disc\lvgl\lvgl\src\misc\lv_color.h ****     else {
 342:d:\practise\f407_disc\lvgl\lvgl\src\misc\lv_color.h ****         return 0;
 343:d:\practise\f407_disc\lvgl\lvgl\src\misc\lv_color.h ****     }
 344:d:\practise\f407_disc\lvgl\lvgl\src\misc\lv_color.h **** #endif
 345:d:\practise\f407_disc\lvgl\lvgl\src\misc\lv_color.h **** }
 346:d:\practise\f407_disc\lvgl\lvgl\src\misc\lv_color.h **** 
 347:d:\practise\f407_disc\lvgl\lvgl\src\misc\lv_color.h **** static inline uint8_t lv_color_to8(lv_color_t color)
 348:d:\practise\f407_disc\lvgl\lvgl\src\misc\lv_color.h **** {
 349:d:\practise\f407_disc\lvgl\lvgl\src\misc\lv_color.h **** #if LV_COLOR_DEPTH == 1
 350:d:\practise\f407_disc\lvgl\lvgl\src\misc\lv_color.h ****     if(color.full == 0)
 351:d:\practise\f407_disc\lvgl\lvgl\src\misc\lv_color.h ****         return 0;
 352:d:\practise\f407_disc\lvgl\lvgl\src\misc\lv_color.h ****     else
 353:d:\practise\f407_disc\lvgl\lvgl\src\misc\lv_color.h ****         return 0xFF;
 354:d:\practise\f407_disc\lvgl\lvgl\src\misc\lv_color.h **** #elif LV_COLOR_DEPTH == 8
 355:d:\practise\f407_disc\lvgl\lvgl\src\misc\lv_color.h ****     return color.full;
 356:d:\practise\f407_disc\lvgl\lvgl\src\misc\lv_color.h **** #elif LV_COLOR_DEPTH == 16
 357:d:\practise\f407_disc\lvgl\lvgl\src\misc\lv_color.h ****     lv_color8_t ret;
 358:d:\practise\f407_disc\lvgl\lvgl\src\misc\lv_color.h ****     LV_COLOR_SET_R8(ret, LV_COLOR_GET_R(color) >> 2); /*5 - 3  = 2*/
 359:d:\practise\f407_disc\lvgl\lvgl\src\misc\lv_color.h ****     LV_COLOR_SET_G8(ret, LV_COLOR_GET_G(color) >> 3); /*6 - 3  = 3*/
 360:d:\practise\f407_disc\lvgl\lvgl\src\misc\lv_color.h ****     LV_COLOR_SET_B8(ret, LV_COLOR_GET_B(color) >> 3); /*5 - 2  = 3*/
 361:d:\practise\f407_disc\lvgl\lvgl\src\misc\lv_color.h ****     return ret.full;
 362:d:\practise\f407_disc\lvgl\lvgl\src\misc\lv_color.h **** #elif LV_COLOR_DEPTH == 32
 363:d:\practise\f407_disc\lvgl\lvgl\src\misc\lv_color.h ****     lv_color8_t ret;
 364:d:\practise\f407_disc\lvgl\lvgl\src\misc\lv_color.h ****     LV_COLOR_SET_R8(ret, LV_COLOR_GET_R(color) >> 5); /*8 - 3  = 5*/
 365:d:\practise\f407_disc\lvgl\lvgl\src\misc\lv_color.h ****     LV_COLOR_SET_G8(ret, LV_COLOR_GET_G(color) >> 5); /*8 - 3  = 5*/
 366:d:\practise\f407_disc\lvgl\lvgl\src\misc\lv_color.h ****     LV_COLOR_SET_B8(ret, LV_COLOR_GET_B(color) >> 6); /*8 - 2  = 6*/
ARM GAS  C:\Users\gx\AppData\Local\Temp\ccAfmFof.s 			page 14


 367:d:\practise\f407_disc\lvgl\lvgl\src\misc\lv_color.h ****     return ret.full;
 368:d:\practise\f407_disc\lvgl\lvgl\src\misc\lv_color.h **** #endif
 369:d:\practise\f407_disc\lvgl\lvgl\src\misc\lv_color.h **** }
 370:d:\practise\f407_disc\lvgl\lvgl\src\misc\lv_color.h **** 
 371:d:\practise\f407_disc\lvgl\lvgl\src\misc\lv_color.h **** static inline uint16_t lv_color_to16(lv_color_t color)
 372:d:\practise\f407_disc\lvgl\lvgl\src\misc\lv_color.h **** {
 373:d:\practise\f407_disc\lvgl\lvgl\src\misc\lv_color.h **** #if LV_COLOR_DEPTH == 1
 374:d:\practise\f407_disc\lvgl\lvgl\src\misc\lv_color.h ****     if(color.full == 0)
 375:d:\practise\f407_disc\lvgl\lvgl\src\misc\lv_color.h ****         return 0;
 376:d:\practise\f407_disc\lvgl\lvgl\src\misc\lv_color.h ****     else
 377:d:\practise\f407_disc\lvgl\lvgl\src\misc\lv_color.h ****         return 0xFFFF;
 378:d:\practise\f407_disc\lvgl\lvgl\src\misc\lv_color.h **** #elif LV_COLOR_DEPTH == 8
 379:d:\practise\f407_disc\lvgl\lvgl\src\misc\lv_color.h ****     lv_color16_t ret;
 380:d:\practise\f407_disc\lvgl\lvgl\src\misc\lv_color.h ****     LV_COLOR_SET_R16(ret, LV_COLOR_GET_R(color) * 4);  /*(2^5 - 1)/(2^3 - 1) = 31/7 = 4*/
 381:d:\practise\f407_disc\lvgl\lvgl\src\misc\lv_color.h ****     LV_COLOR_SET_G16(ret, LV_COLOR_GET_G(color) * 9);  /*(2^6 - 1)/(2^3 - 1) = 63/7 = 9*/
 382:d:\practise\f407_disc\lvgl\lvgl\src\misc\lv_color.h ****     LV_COLOR_SET_B16(ret, LV_COLOR_GET_B(color) * 10); /*(2^5 - 1)/(2^2 - 1) = 31/3 = 10*/
 383:d:\practise\f407_disc\lvgl\lvgl\src\misc\lv_color.h ****     return ret.full;
 384:d:\practise\f407_disc\lvgl\lvgl\src\misc\lv_color.h **** #elif LV_COLOR_DEPTH == 16
 385:d:\practise\f407_disc\lvgl\lvgl\src\misc\lv_color.h ****     return color.full;
 386:d:\practise\f407_disc\lvgl\lvgl\src\misc\lv_color.h **** #elif LV_COLOR_DEPTH == 32
 387:d:\practise\f407_disc\lvgl\lvgl\src\misc\lv_color.h ****     lv_color16_t ret;
 388:d:\practise\f407_disc\lvgl\lvgl\src\misc\lv_color.h ****     LV_COLOR_SET_R16(ret, LV_COLOR_GET_R(color) >> 3); /*8 - 5  = 3*/
 389:d:\practise\f407_disc\lvgl\lvgl\src\misc\lv_color.h ****     LV_COLOR_SET_G16(ret, LV_COLOR_GET_G(color) >> 2); /*8 - 6  = 2*/
 390:d:\practise\f407_disc\lvgl\lvgl\src\misc\lv_color.h ****     LV_COLOR_SET_B16(ret, LV_COLOR_GET_B(color) >> 3); /*8 - 5  = 3*/
 391:d:\practise\f407_disc\lvgl\lvgl\src\misc\lv_color.h ****     return ret.full;
 392:d:\practise\f407_disc\lvgl\lvgl\src\misc\lv_color.h **** #endif
 393:d:\practise\f407_disc\lvgl\lvgl\src\misc\lv_color.h **** }
 394:d:\practise\f407_disc\lvgl\lvgl\src\misc\lv_color.h **** 
 395:d:\practise\f407_disc\lvgl\lvgl\src\misc\lv_color.h **** static inline uint32_t lv_color_to32(lv_color_t color)
 396:d:\practise\f407_disc\lvgl\lvgl\src\misc\lv_color.h **** {
 397:d:\practise\f407_disc\lvgl\lvgl\src\misc\lv_color.h **** #if LV_COLOR_DEPTH == 1
 398:d:\practise\f407_disc\lvgl\lvgl\src\misc\lv_color.h ****     if(color.full == 0)
 399:d:\practise\f407_disc\lvgl\lvgl\src\misc\lv_color.h ****         return 0xFF000000;
 400:d:\practise\f407_disc\lvgl\lvgl\src\misc\lv_color.h ****     else
 401:d:\practise\f407_disc\lvgl\lvgl\src\misc\lv_color.h ****         return 0xFFFFFFFF;
 402:d:\practise\f407_disc\lvgl\lvgl\src\misc\lv_color.h **** #elif LV_COLOR_DEPTH == 8
 403:d:\practise\f407_disc\lvgl\lvgl\src\misc\lv_color.h ****     lv_color32_t ret;
 404:d:\practise\f407_disc\lvgl\lvgl\src\misc\lv_color.h ****     LV_COLOR_SET_R32(ret, LV_COLOR_GET_R(color) * 36); /*(2^8 - 1)/(2^3 - 1) = 255/7 = 36*/
 405:d:\practise\f407_disc\lvgl\lvgl\src\misc\lv_color.h ****     LV_COLOR_SET_G32(ret, LV_COLOR_GET_G(color) * 36); /*(2^8 - 1)/(2^3 - 1) = 255/7 = 36*/
 406:d:\practise\f407_disc\lvgl\lvgl\src\misc\lv_color.h ****     LV_COLOR_SET_B32(ret, LV_COLOR_GET_B(color) * 85); /*(2^8 - 1)/(2^2 - 1) = 255/3 = 85*/
 407:d:\practise\f407_disc\lvgl\lvgl\src\misc\lv_color.h ****     LV_COLOR_SET_A32(ret, 0xFF);
 408:d:\practise\f407_disc\lvgl\lvgl\src\misc\lv_color.h ****     return ret.full;
 409:d:\practise\f407_disc\lvgl\lvgl\src\misc\lv_color.h **** #elif LV_COLOR_DEPTH == 16
 410:d:\practise\f407_disc\lvgl\lvgl\src\misc\lv_color.h ****     /**
 411:d:\practise\f407_disc\lvgl\lvgl\src\misc\lv_color.h ****      * The floating point math for conversion is:
 412:d:\practise\f407_disc\lvgl\lvgl\src\misc\lv_color.h ****      *  valueto = valuefrom * ( (2^bitsto - 1) / (float)(2^bitsfrom - 1) )
 413:d:\practise\f407_disc\lvgl\lvgl\src\misc\lv_color.h ****      * The faster integer math for conversion is:
 414:d:\practise\f407_disc\lvgl\lvgl\src\misc\lv_color.h ****      *  valueto = ( valuefrom * multiplier + adder ) >> divisor
 415:d:\practise\f407_disc\lvgl\lvgl\src\misc\lv_color.h ****      *   multiplier = FLOOR( ( (2^bitsto - 1) << divisor ) / (float)(2^bitsfrom - 1) )
 416:d:\practise\f407_disc\lvgl\lvgl\src\misc\lv_color.h ****      *
 417:d:\practise\f407_disc\lvgl\lvgl\src\misc\lv_color.h ****      * Find the first divisor where ( adder >> divisor ) <= 0
 418:d:\practise\f407_disc\lvgl\lvgl\src\misc\lv_color.h ****      *
 419:d:\practise\f407_disc\lvgl\lvgl\src\misc\lv_color.h ****      * 5-bit to 8-bit: ( 31 * multiplier + adder ) >> divisor = 255
 420:d:\practise\f407_disc\lvgl\lvgl\src\misc\lv_color.h ****      * divisor  multiplier  adder  min (0)  max (31)
 421:d:\practise\f407_disc\lvgl\lvgl\src\misc\lv_color.h ****      *       0           8      7        7       255
 422:d:\practise\f407_disc\lvgl\lvgl\src\misc\lv_color.h ****      *       1          16     14        7       255
 423:d:\practise\f407_disc\lvgl\lvgl\src\misc\lv_color.h ****      *       2          32     28        7       255
ARM GAS  C:\Users\gx\AppData\Local\Temp\ccAfmFof.s 			page 15


 424:d:\practise\f407_disc\lvgl\lvgl\src\misc\lv_color.h ****      *       3          65     25        3       255
 425:d:\practise\f407_disc\lvgl\lvgl\src\misc\lv_color.h ****      *       4         131     19        1       255
 426:d:\practise\f407_disc\lvgl\lvgl\src\misc\lv_color.h ****      *       5         263      7        0       255
 427:d:\practise\f407_disc\lvgl\lvgl\src\misc\lv_color.h ****      *
 428:d:\practise\f407_disc\lvgl\lvgl\src\misc\lv_color.h ****      * 6-bit to 8-bit: 255 = ( 63 * multiplier + adder ) >> divisor
 429:d:\practise\f407_disc\lvgl\lvgl\src\misc\lv_color.h ****      * divisor  multiplier  adder  min (0)  max (63)
 430:d:\practise\f407_disc\lvgl\lvgl\src\misc\lv_color.h ****      *       0           4      3        3       255
 431:d:\practise\f407_disc\lvgl\lvgl\src\misc\lv_color.h ****      *       1           8      6        3       255
 432:d:\practise\f407_disc\lvgl\lvgl\src\misc\lv_color.h ****      *       2          16     12        3       255
 433:d:\practise\f407_disc\lvgl\lvgl\src\misc\lv_color.h ****      *       3          32     24        3       255
 434:d:\practise\f407_disc\lvgl\lvgl\src\misc\lv_color.h ****      *       4          64     48        3       255
 435:d:\practise\f407_disc\lvgl\lvgl\src\misc\lv_color.h ****      *       5         129     33        1       255
 436:d:\practise\f407_disc\lvgl\lvgl\src\misc\lv_color.h ****      *       6         259      3        0       255
 437:d:\practise\f407_disc\lvgl\lvgl\src\misc\lv_color.h ****      */
 438:d:\practise\f407_disc\lvgl\lvgl\src\misc\lv_color.h **** 
 439:d:\practise\f407_disc\lvgl\lvgl\src\misc\lv_color.h ****     lv_color32_t ret;
 440:d:\practise\f407_disc\lvgl\lvgl\src\misc\lv_color.h ****     LV_COLOR_SET_R32(ret, (LV_COLOR_GET_R(color) * 263 + 7) >> 5);
 441:d:\practise\f407_disc\lvgl\lvgl\src\misc\lv_color.h ****     LV_COLOR_SET_G32(ret, (LV_COLOR_GET_G(color) * 259 + 3) >> 6);
 442:d:\practise\f407_disc\lvgl\lvgl\src\misc\lv_color.h ****     LV_COLOR_SET_B32(ret, (LV_COLOR_GET_B(color) * 263 + 7) >> 5);
 443:d:\practise\f407_disc\lvgl\lvgl\src\misc\lv_color.h ****     LV_COLOR_SET_A32(ret, 0xFF);
 444:d:\practise\f407_disc\lvgl\lvgl\src\misc\lv_color.h ****     return ret.full;
 445:d:\practise\f407_disc\lvgl\lvgl\src\misc\lv_color.h **** #elif LV_COLOR_DEPTH == 32
 446:d:\practise\f407_disc\lvgl\lvgl\src\misc\lv_color.h ****     return color.full;
 447:d:\practise\f407_disc\lvgl\lvgl\src\misc\lv_color.h **** #endif
 448:d:\practise\f407_disc\lvgl\lvgl\src\misc\lv_color.h **** }
 449:d:\practise\f407_disc\lvgl\lvgl\src\misc\lv_color.h **** 
 450:d:\practise\f407_disc\lvgl\lvgl\src\misc\lv_color.h **** //! @cond Doxygen_Suppress
 451:d:\practise\f407_disc\lvgl\lvgl\src\misc\lv_color.h **** 
 452:d:\practise\f407_disc\lvgl\lvgl\src\misc\lv_color.h **** /**
 453:d:\practise\f407_disc\lvgl\lvgl\src\misc\lv_color.h ****  * Mix two colors with a given ratio.
 454:d:\practise\f407_disc\lvgl\lvgl\src\misc\lv_color.h ****  * @param c1 the first color to mix (usually the foreground)
 455:d:\practise\f407_disc\lvgl\lvgl\src\misc\lv_color.h ****  * @param c2 the second color to mix (usually the background)
 456:d:\practise\f407_disc\lvgl\lvgl\src\misc\lv_color.h ****  * @param mix The ratio of the colors. 0: full `c2`, 255: full `c1`, 127: half `c1` and half`c2`
 457:d:\practise\f407_disc\lvgl\lvgl\src\misc\lv_color.h ****  * @return the mixed color
 458:d:\practise\f407_disc\lvgl\lvgl\src\misc\lv_color.h ****  */
 459:d:\practise\f407_disc\lvgl\lvgl\src\misc\lv_color.h **** LV_ATTRIBUTE_FAST_MEM static inline lv_color_t lv_color_mix(lv_color_t c1, lv_color_t c2, uint8_t m
 460:d:\practise\f407_disc\lvgl\lvgl\src\misc\lv_color.h **** {
 461:d:\practise\f407_disc\lvgl\lvgl\src\misc\lv_color.h ****     lv_color_t ret;
 462:d:\practise\f407_disc\lvgl\lvgl\src\misc\lv_color.h **** 
 463:d:\practise\f407_disc\lvgl\lvgl\src\misc\lv_color.h **** #if LV_COLOR_DEPTH == 16 && LV_COLOR_16_SWAP == 0
 464:d:\practise\f407_disc\lvgl\lvgl\src\misc\lv_color.h ****     /*Source: https://stackoverflow.com/a/50012418/1999969*/
 465:d:\practise\f407_disc\lvgl\lvgl\src\misc\lv_color.h ****     mix = ( mix + 4 ) >> 3;
 466:d:\practise\f407_disc\lvgl\lvgl\src\misc\lv_color.h ****     uint32_t bg = (uint32_t)((uint32_t)c2.full | ((uint32_t)c2.full << 16)) & 0x7E0F81F; /*0b000001
 467:d:\practise\f407_disc\lvgl\lvgl\src\misc\lv_color.h ****     uint32_t fg = (uint32_t)((uint32_t)c1.full | (uint32_t)(c1.full << 16)) & 0x7E0F81F;
 468:d:\practise\f407_disc\lvgl\lvgl\src\misc\lv_color.h ****     uint32_t result = ((((fg - bg) * mix) >> 5) + bg) & 0x7E0F81F;
 469:d:\practise\f407_disc\lvgl\lvgl\src\misc\lv_color.h ****     ret.full = (uint16_t)((result >> 16) | result);
 470:d:\practise\f407_disc\lvgl\lvgl\src\misc\lv_color.h **** #elif LV_COLOR_DEPTH != 1
 471:d:\practise\f407_disc\lvgl\lvgl\src\misc\lv_color.h ****     /*LV_COLOR_DEPTH == 8, 16 or 32*/
 472:d:\practise\f407_disc\lvgl\lvgl\src\misc\lv_color.h ****     LV_COLOR_SET_R(ret, LV_UDIV255((uint16_t) LV_COLOR_GET_R(c1) * mix + LV_COLOR_GET_R(c2) *
 473:d:\practise\f407_disc\lvgl\lvgl\src\misc\lv_color.h ****                                         (255 - mix) + LV_COLOR_MIX_ROUND_OFS));
 474:d:\practise\f407_disc\lvgl\lvgl\src\misc\lv_color.h ****     LV_COLOR_SET_G(ret, LV_UDIV255((uint16_t) LV_COLOR_GET_G(c1) * mix + LV_COLOR_GET_G(c2) *
 475:d:\practise\f407_disc\lvgl\lvgl\src\misc\lv_color.h ****                                         (255 - mix) + LV_COLOR_MIX_ROUND_OFS));
 476:d:\practise\f407_disc\lvgl\lvgl\src\misc\lv_color.h ****     LV_COLOR_SET_B(ret, LV_UDIV255((uint16_t) LV_COLOR_GET_B(c1) * mix + LV_COLOR_GET_B(c2) *
 477:d:\practise\f407_disc\lvgl\lvgl\src\misc\lv_color.h ****                                         (255 - mix) + LV_COLOR_MIX_ROUND_OFS));
 478:d:\practise\f407_disc\lvgl\lvgl\src\misc\lv_color.h ****     LV_COLOR_SET_A(ret, 0xFF);
 479:d:\practise\f407_disc\lvgl\lvgl\src\misc\lv_color.h **** #else
 480:d:\practise\f407_disc\lvgl\lvgl\src\misc\lv_color.h ****     /*LV_COLOR_DEPTH == 1*/
ARM GAS  C:\Users\gx\AppData\Local\Temp\ccAfmFof.s 			page 16


 481:d:\practise\f407_disc\lvgl\lvgl\src\misc\lv_color.h ****     ret.full = mix > LV_OPA_50 ? c1.full : c2.full;
 482:d:\practise\f407_disc\lvgl\lvgl\src\misc\lv_color.h **** #endif
 483:d:\practise\f407_disc\lvgl\lvgl\src\misc\lv_color.h **** 
 484:d:\practise\f407_disc\lvgl\lvgl\src\misc\lv_color.h ****     return ret;
 485:d:\practise\f407_disc\lvgl\lvgl\src\misc\lv_color.h **** }
 486:d:\practise\f407_disc\lvgl\lvgl\src\misc\lv_color.h **** 
 487:d:\practise\f407_disc\lvgl\lvgl\src\misc\lv_color.h **** LV_ATTRIBUTE_FAST_MEM static inline void lv_color_premult(lv_color_t c, uint8_t mix, uint16_t * out
 488:d:\practise\f407_disc\lvgl\lvgl\src\misc\lv_color.h **** {
 489:d:\practise\f407_disc\lvgl\lvgl\src\misc\lv_color.h **** #if LV_COLOR_DEPTH != 1
 490:d:\practise\f407_disc\lvgl\lvgl\src\misc\lv_color.h ****     out[0] = (uint16_t) LV_COLOR_GET_R(c) * mix;
 491:d:\practise\f407_disc\lvgl\lvgl\src\misc\lv_color.h ****     out[1] = (uint16_t) LV_COLOR_GET_G(c) * mix;
 492:d:\practise\f407_disc\lvgl\lvgl\src\misc\lv_color.h ****     out[2] = (uint16_t) LV_COLOR_GET_B(c) * mix;
 493:d:\practise\f407_disc\lvgl\lvgl\src\misc\lv_color.h **** #else
 494:d:\practise\f407_disc\lvgl\lvgl\src\misc\lv_color.h ****     (void) mix;
 495:d:\practise\f407_disc\lvgl\lvgl\src\misc\lv_color.h ****     /*Pre-multiplication can't be used with 1 bpp*/
 496:d:\practise\f407_disc\lvgl\lvgl\src\misc\lv_color.h ****     out[0] = LV_COLOR_GET_R(c);
 497:d:\practise\f407_disc\lvgl\lvgl\src\misc\lv_color.h ****     out[1] = LV_COLOR_GET_G(c);
 498:d:\practise\f407_disc\lvgl\lvgl\src\misc\lv_color.h ****     out[2] = LV_COLOR_GET_B(c);
 499:d:\practise\f407_disc\lvgl\lvgl\src\misc\lv_color.h **** #endif
 500:d:\practise\f407_disc\lvgl\lvgl\src\misc\lv_color.h **** 
 501:d:\practise\f407_disc\lvgl\lvgl\src\misc\lv_color.h **** }
 502:d:\practise\f407_disc\lvgl\lvgl\src\misc\lv_color.h **** 
 503:d:\practise\f407_disc\lvgl\lvgl\src\misc\lv_color.h **** /**
 504:d:\practise\f407_disc\lvgl\lvgl\src\misc\lv_color.h ****  * Mix two colors with a given ratio. It runs faster then `lv_color_mix` but requires some pre comp
 505:d:\practise\f407_disc\lvgl\lvgl\src\misc\lv_color.h ****  * @param premult_c1 The first color. Should be preprocessed with `lv_color_premult(c1)`
 506:d:\practise\f407_disc\lvgl\lvgl\src\misc\lv_color.h ****  * @param c2 The second color. As it is no pre computation required on it
 507:d:\practise\f407_disc\lvgl\lvgl\src\misc\lv_color.h ****  * @param mix The ratio of the colors. 0: full `c1`, 255: full `c2`, 127: half `c1` and half `c2`.
 508:d:\practise\f407_disc\lvgl\lvgl\src\misc\lv_color.h ****  *            Should be modified like mix = `255 - mix`
 509:d:\practise\f407_disc\lvgl\lvgl\src\misc\lv_color.h ****  * @return the mixed color
 510:d:\practise\f407_disc\lvgl\lvgl\src\misc\lv_color.h ****  * @note 255 won't give clearly `c1`.
 511:d:\practise\f407_disc\lvgl\lvgl\src\misc\lv_color.h ****  */
 512:d:\practise\f407_disc\lvgl\lvgl\src\misc\lv_color.h **** LV_ATTRIBUTE_FAST_MEM static inline lv_color_t lv_color_mix_premult(uint16_t * premult_c1, lv_color
 513:d:\practise\f407_disc\lvgl\lvgl\src\misc\lv_color.h **** {
 514:d:\practise\f407_disc\lvgl\lvgl\src\misc\lv_color.h ****     lv_color_t ret;
 515:d:\practise\f407_disc\lvgl\lvgl\src\misc\lv_color.h **** #if LV_COLOR_DEPTH == 16 && LV_COLOR_16_SWAP == 0
 516:d:\practise\f407_disc\lvgl\lvgl\src\misc\lv_color.h ****     /*For compatibility with lv_color_mix on 16 bit color depth*/
 517:d:\practise\f407_disc\lvgl\lvgl\src\misc\lv_color.h ****     LV_COLOR_SET_R(ret, (premult_c1[0] + LV_COLOR_GET_R(c2) * mix) >> 8);
 518:d:\practise\f407_disc\lvgl\lvgl\src\misc\lv_color.h ****     LV_COLOR_SET_G(ret, (premult_c1[1] + LV_COLOR_GET_G(c2) * mix) >> 8);
 519:d:\practise\f407_disc\lvgl\lvgl\src\misc\lv_color.h ****     LV_COLOR_SET_B(ret, (premult_c1[2] + LV_COLOR_GET_B(c2) * mix) >> 8);
 520:d:\practise\f407_disc\lvgl\lvgl\src\misc\lv_color.h **** #elif LV_COLOR_DEPTH != 1
 521:d:\practise\f407_disc\lvgl\lvgl\src\misc\lv_color.h ****     /*LV_COLOR_DEPTH == 8 or 32*/
 522:d:\practise\f407_disc\lvgl\lvgl\src\misc\lv_color.h ****     LV_COLOR_SET_R(ret, LV_UDIV255(premult_c1[0] + LV_COLOR_GET_R(c2) * mix + LV_COLOR_MIX_ROUND_OF
 523:d:\practise\f407_disc\lvgl\lvgl\src\misc\lv_color.h ****     LV_COLOR_SET_G(ret, LV_UDIV255(premult_c1[1] + LV_COLOR_GET_G(c2) * mix + LV_COLOR_MIX_ROUND_OF
 524:d:\practise\f407_disc\lvgl\lvgl\src\misc\lv_color.h ****     LV_COLOR_SET_B(ret, LV_UDIV255(premult_c1[2] + LV_COLOR_GET_B(c2) * mix + LV_COLOR_MIX_ROUND_OF
 525:d:\practise\f407_disc\lvgl\lvgl\src\misc\lv_color.h ****     LV_COLOR_SET_A(ret, 0xFF);
 526:d:\practise\f407_disc\lvgl\lvgl\src\misc\lv_color.h **** #else
 527:d:\practise\f407_disc\lvgl\lvgl\src\misc\lv_color.h ****     /*LV_COLOR_DEPTH == 1*/
 528:d:\practise\f407_disc\lvgl\lvgl\src\misc\lv_color.h ****     /*Restore color1*/
 529:d:\practise\f407_disc\lvgl\lvgl\src\misc\lv_color.h ****     lv_color_t c1;
 530:d:\practise\f407_disc\lvgl\lvgl\src\misc\lv_color.h ****     LV_COLOR_SET_R(c1, premult_c1[0]);
 531:d:\practise\f407_disc\lvgl\lvgl\src\misc\lv_color.h ****     LV_COLOR_SET_G(c1, premult_c1[1]);
 532:d:\practise\f407_disc\lvgl\lvgl\src\misc\lv_color.h ****     LV_COLOR_SET_B(c1, premult_c1[2]);
 533:d:\practise\f407_disc\lvgl\lvgl\src\misc\lv_color.h ****     ret.full = mix > LV_OPA_50 ? c2.full : c1.full;
 534:d:\practise\f407_disc\lvgl\lvgl\src\misc\lv_color.h **** #endif
 535:d:\practise\f407_disc\lvgl\lvgl\src\misc\lv_color.h **** 
 536:d:\practise\f407_disc\lvgl\lvgl\src\misc\lv_color.h ****     return ret;
 537:d:\practise\f407_disc\lvgl\lvgl\src\misc\lv_color.h **** }
ARM GAS  C:\Users\gx\AppData\Local\Temp\ccAfmFof.s 			page 17


 538:d:\practise\f407_disc\lvgl\lvgl\src\misc\lv_color.h **** 
 539:d:\practise\f407_disc\lvgl\lvgl\src\misc\lv_color.h **** /**
 540:d:\practise\f407_disc\lvgl\lvgl\src\misc\lv_color.h ****  * Mix two colors. Both color can have alpha value.
 541:d:\practise\f407_disc\lvgl\lvgl\src\misc\lv_color.h ****  * @param bg_color background color
 542:d:\practise\f407_disc\lvgl\lvgl\src\misc\lv_color.h ****  * @param bg_opa alpha of the background color
 543:d:\practise\f407_disc\lvgl\lvgl\src\misc\lv_color.h ****  * @param fg_color foreground color
 544:d:\practise\f407_disc\lvgl\lvgl\src\misc\lv_color.h ****  * @param fg_opa alpha of the foreground color
 545:d:\practise\f407_disc\lvgl\lvgl\src\misc\lv_color.h ****  * @param res_color the result color
 546:d:\practise\f407_disc\lvgl\lvgl\src\misc\lv_color.h ****  * @param res_opa the result opacity
 547:d:\practise\f407_disc\lvgl\lvgl\src\misc\lv_color.h ****  */
 548:d:\practise\f407_disc\lvgl\lvgl\src\misc\lv_color.h **** LV_ATTRIBUTE_FAST_MEM static inline void lv_color_mix_with_alpha(lv_color_t bg_color, lv_opa_t bg_o
 549:d:\practise\f407_disc\lvgl\lvgl\src\misc\lv_color.h ****                                                                  lv_color_t fg_color, lv_opa_t fg_o
 550:d:\practise\f407_disc\lvgl\lvgl\src\misc\lv_color.h ****                                                                  lv_color_t * res_color, lv_opa_t *
 551:d:\practise\f407_disc\lvgl\lvgl\src\misc\lv_color.h **** {
 552:d:\practise\f407_disc\lvgl\lvgl\src\misc\lv_color.h ****     /*Pick the foreground if it's fully opaque or the Background is fully transparent*/
 553:d:\practise\f407_disc\lvgl\lvgl\src\misc\lv_color.h ****     if(fg_opa >= LV_OPA_MAX || bg_opa <= LV_OPA_MIN) {
 554:d:\practise\f407_disc\lvgl\lvgl\src\misc\lv_color.h ****         res_color->full = fg_color.full;
 555:d:\practise\f407_disc\lvgl\lvgl\src\misc\lv_color.h ****         *res_opa = fg_opa;
 556:d:\practise\f407_disc\lvgl\lvgl\src\misc\lv_color.h ****     }
 557:d:\practise\f407_disc\lvgl\lvgl\src\misc\lv_color.h ****     /*Transparent foreground: use the Background*/
 558:d:\practise\f407_disc\lvgl\lvgl\src\misc\lv_color.h ****     else if(fg_opa <= LV_OPA_MIN) {
 559:d:\practise\f407_disc\lvgl\lvgl\src\misc\lv_color.h ****         res_color->full = bg_color.full;
 560:d:\practise\f407_disc\lvgl\lvgl\src\misc\lv_color.h ****         *res_opa = bg_opa;
 561:d:\practise\f407_disc\lvgl\lvgl\src\misc\lv_color.h ****     }
 562:d:\practise\f407_disc\lvgl\lvgl\src\misc\lv_color.h ****     /*Opaque background: use simple mix*/
 563:d:\practise\f407_disc\lvgl\lvgl\src\misc\lv_color.h ****     else if(bg_opa >= LV_OPA_MAX) {
 564:d:\practise\f407_disc\lvgl\lvgl\src\misc\lv_color.h ****         *res_color = lv_color_mix(fg_color, bg_color, fg_opa);
 565:d:\practise\f407_disc\lvgl\lvgl\src\misc\lv_color.h ****         *res_opa = LV_OPA_COVER;
 566:d:\practise\f407_disc\lvgl\lvgl\src\misc\lv_color.h ****     }
 567:d:\practise\f407_disc\lvgl\lvgl\src\misc\lv_color.h ****     /*Both colors have alpha. Expensive calculation need to be applied*/
 568:d:\practise\f407_disc\lvgl\lvgl\src\misc\lv_color.h ****     else {
 569:d:\practise\f407_disc\lvgl\lvgl\src\misc\lv_color.h ****         /*Save the parameters and the result. If they will be asked again don't compute again*/
 570:d:\practise\f407_disc\lvgl\lvgl\src\misc\lv_color.h ****         static lv_opa_t fg_opa_save     = 0;
 571:d:\practise\f407_disc\lvgl\lvgl\src\misc\lv_color.h ****         static lv_opa_t bg_opa_save     = 0;
 572:d:\practise\f407_disc\lvgl\lvgl\src\misc\lv_color.h ****         static lv_color_t fg_color_save = _LV_COLOR_ZERO_INITIALIZER;
 573:d:\practise\f407_disc\lvgl\lvgl\src\misc\lv_color.h ****         static lv_color_t bg_color_save = _LV_COLOR_ZERO_INITIALIZER;
 574:d:\practise\f407_disc\lvgl\lvgl\src\misc\lv_color.h ****         static lv_color_t res_color_saved = _LV_COLOR_ZERO_INITIALIZER;
 575:d:\practise\f407_disc\lvgl\lvgl\src\misc\lv_color.h ****         static lv_opa_t res_opa_saved = 0;
 576:d:\practise\f407_disc\lvgl\lvgl\src\misc\lv_color.h **** 
 577:d:\practise\f407_disc\lvgl\lvgl\src\misc\lv_color.h ****         if(fg_opa != fg_opa_save || bg_opa != bg_opa_save || fg_color.full != fg_color_save.full ||
 578:d:\practise\f407_disc\lvgl\lvgl\src\misc\lv_color.h ****            bg_color.full != bg_color_save.full) {
 579:d:\practise\f407_disc\lvgl\lvgl\src\misc\lv_color.h ****             fg_opa_save        = fg_opa;
 580:d:\practise\f407_disc\lvgl\lvgl\src\misc\lv_color.h ****             bg_opa_save        = bg_opa;
 581:d:\practise\f407_disc\lvgl\lvgl\src\misc\lv_color.h ****             fg_color_save.full = fg_color.full;
 582:d:\practise\f407_disc\lvgl\lvgl\src\misc\lv_color.h ****             bg_color_save.full = bg_color.full;
 583:d:\practise\f407_disc\lvgl\lvgl\src\misc\lv_color.h ****             /*Info:
 584:d:\practise\f407_disc\lvgl\lvgl\src\misc\lv_color.h ****              * https://en.wikipedia.org/wiki/Alpha_compositing#Analytical_derivation_of_the_over_op
 585:d:\practise\f407_disc\lvgl\lvgl\src\misc\lv_color.h ****             res_opa_saved = 255 - ((uint16_t)((uint16_t)(255 - fg_opa) * (255 - bg_opa)) >> 8);
 586:d:\practise\f407_disc\lvgl\lvgl\src\misc\lv_color.h ****             if(res_opa_saved == 0) {
 587:d:\practise\f407_disc\lvgl\lvgl\src\misc\lv_color.h ****                 while(1)
 588:d:\practise\f407_disc\lvgl\lvgl\src\misc\lv_color.h ****                     ;
 589:d:\practise\f407_disc\lvgl\lvgl\src\misc\lv_color.h ****             }
 590:d:\practise\f407_disc\lvgl\lvgl\src\misc\lv_color.h ****             lv_opa_t ratio = (uint16_t)((uint16_t)fg_opa * 255) / res_opa_saved;
 591:d:\practise\f407_disc\lvgl\lvgl\src\misc\lv_color.h ****             res_color_saved = lv_color_mix(fg_color, bg_color, ratio);
 592:d:\practise\f407_disc\lvgl\lvgl\src\misc\lv_color.h **** 
 593:d:\practise\f407_disc\lvgl\lvgl\src\misc\lv_color.h ****         }
 594:d:\practise\f407_disc\lvgl\lvgl\src\misc\lv_color.h **** 
ARM GAS  C:\Users\gx\AppData\Local\Temp\ccAfmFof.s 			page 18


 595:d:\practise\f407_disc\lvgl\lvgl\src\misc\lv_color.h ****         res_color->full = res_color_saved.full;
 596:d:\practise\f407_disc\lvgl\lvgl\src\misc\lv_color.h ****         *res_opa = res_opa_saved;
 597:d:\practise\f407_disc\lvgl\lvgl\src\misc\lv_color.h ****     }
 598:d:\practise\f407_disc\lvgl\lvgl\src\misc\lv_color.h **** }
 599:d:\practise\f407_disc\lvgl\lvgl\src\misc\lv_color.h **** 
 600:d:\practise\f407_disc\lvgl\lvgl\src\misc\lv_color.h **** //! @endcond
 601:d:\practise\f407_disc\lvgl\lvgl\src\misc\lv_color.h **** 
 602:d:\practise\f407_disc\lvgl\lvgl\src\misc\lv_color.h **** /**
 603:d:\practise\f407_disc\lvgl\lvgl\src\misc\lv_color.h ****  * Get the brightness of a color
 604:d:\practise\f407_disc\lvgl\lvgl\src\misc\lv_color.h ****  * @param color a color
 605:d:\practise\f407_disc\lvgl\lvgl\src\misc\lv_color.h ****  * @return the brightness [0..255]
 606:d:\practise\f407_disc\lvgl\lvgl\src\misc\lv_color.h ****  */
 607:d:\practise\f407_disc\lvgl\lvgl\src\misc\lv_color.h **** static inline uint8_t lv_color_brightness(lv_color_t color)
 608:d:\practise\f407_disc\lvgl\lvgl\src\misc\lv_color.h **** {
 609:d:\practise\f407_disc\lvgl\lvgl\src\misc\lv_color.h ****     lv_color32_t c32;
 610:d:\practise\f407_disc\lvgl\lvgl\src\misc\lv_color.h ****     c32.full        = lv_color_to32(color);
 611:d:\practise\f407_disc\lvgl\lvgl\src\misc\lv_color.h ****     uint16_t bright = (uint16_t)(3u * LV_COLOR_GET_R32(c32) + LV_COLOR_GET_B32(c32) + 4u * LV_COLOR
 612:d:\practise\f407_disc\lvgl\lvgl\src\misc\lv_color.h ****     return (uint8_t)(bright >> 3);
 613:d:\practise\f407_disc\lvgl\lvgl\src\misc\lv_color.h **** }
 614:d:\practise\f407_disc\lvgl\lvgl\src\misc\lv_color.h **** 
 615:d:\practise\f407_disc\lvgl\lvgl\src\misc\lv_color.h **** static inline lv_color_t lv_color_make(uint8_t r, uint8_t g, uint8_t b)
 616:d:\practise\f407_disc\lvgl\lvgl\src\misc\lv_color.h **** {
 617:d:\practise\f407_disc\lvgl\lvgl\src\misc\lv_color.h ****     return _LV_COLOR_MAKE_TYPE_HELPER LV_COLOR_MAKE(r, g, b);
 618:d:\practise\f407_disc\lvgl\lvgl\src\misc\lv_color.h **** }
 619:d:\practise\f407_disc\lvgl\lvgl\src\misc\lv_color.h **** 
 620:d:\practise\f407_disc\lvgl\lvgl\src\misc\lv_color.h **** static inline lv_color_t lv_color_hex(uint32_t c)
 621:d:\practise\f407_disc\lvgl\lvgl\src\misc\lv_color.h **** {
 622:d:\practise\f407_disc\lvgl\lvgl\src\misc\lv_color.h ****     return lv_color_make((uint8_t)((c >> 16) & 0xFF), (uint8_t)((c >> 8) & 0xFF), (uint8_t)(c & 0xF
 623:d:\practise\f407_disc\lvgl\lvgl\src\misc\lv_color.h **** }
 624:d:\practise\f407_disc\lvgl\lvgl\src\misc\lv_color.h **** 
 625:d:\practise\f407_disc\lvgl\lvgl\src\misc\lv_color.h **** static inline lv_color_t lv_color_hex3(uint32_t c)
 626:d:\practise\f407_disc\lvgl\lvgl\src\misc\lv_color.h **** {
 627:d:\practise\f407_disc\lvgl\lvgl\src\misc\lv_color.h ****     return lv_color_make((uint8_t)(((c >> 4) & 0xF0) | ((c >> 8) & 0xF)), (uint8_t)((c & 0xF0) | ((
 628:d:\practise\f407_disc\lvgl\lvgl\src\misc\lv_color.h ****                          (uint8_t)((c & 0xF) | ((c & 0xF) << 4)));
 629:d:\practise\f407_disc\lvgl\lvgl\src\misc\lv_color.h **** }
 630:d:\practise\f407_disc\lvgl\lvgl\src\misc\lv_color.h **** 
 631:d:\practise\f407_disc\lvgl\lvgl\src\misc\lv_color.h **** static inline void lv_color_filter_dsc_init(lv_color_filter_dsc_t * dsc, lv_color_filter_cb_t cb)
 632:d:\practise\f407_disc\lvgl\lvgl\src\misc\lv_color.h **** {
 633:d:\practise\f407_disc\lvgl\lvgl\src\misc\lv_color.h ****     dsc->filter_cb = cb;
 634:d:\practise\f407_disc\lvgl\lvgl\src\misc\lv_color.h **** }
 635:d:\practise\f407_disc\lvgl\lvgl\src\misc\lv_color.h **** 
 636:d:\practise\f407_disc\lvgl\lvgl\src\misc\lv_color.h **** //! @cond Doxygen_Suppress
 637:d:\practise\f407_disc\lvgl\lvgl\src\misc\lv_color.h **** //!
 638:d:\practise\f407_disc\lvgl\lvgl\src\misc\lv_color.h **** LV_ATTRIBUTE_FAST_MEM void lv_color_fill(lv_color_t * buf, lv_color_t color, uint32_t px_num);
 639:d:\practise\f407_disc\lvgl\lvgl\src\misc\lv_color.h **** 
 640:d:\practise\f407_disc\lvgl\lvgl\src\misc\lv_color.h **** //! @endcond
 641:d:\practise\f407_disc\lvgl\lvgl\src\misc\lv_color.h **** lv_color_t lv_color_lighten(lv_color_t c, lv_opa_t lvl);
 642:d:\practise\f407_disc\lvgl\lvgl\src\misc\lv_color.h **** 
 643:d:\practise\f407_disc\lvgl\lvgl\src\misc\lv_color.h **** lv_color_t lv_color_darken(lv_color_t c, lv_opa_t lvl);
 644:d:\practise\f407_disc\lvgl\lvgl\src\misc\lv_color.h **** 
 645:d:\practise\f407_disc\lvgl\lvgl\src\misc\lv_color.h **** lv_color_t lv_color_change_lightness(lv_color_t c, lv_opa_t lvl);
 646:d:\practise\f407_disc\lvgl\lvgl\src\misc\lv_color.h **** 
 647:d:\practise\f407_disc\lvgl\lvgl\src\misc\lv_color.h **** /**
 648:d:\practise\f407_disc\lvgl\lvgl\src\misc\lv_color.h ****  * Convert a HSV color to RGB
 649:d:\practise\f407_disc\lvgl\lvgl\src\misc\lv_color.h ****  * @param h hue [0..359]
 650:d:\practise\f407_disc\lvgl\lvgl\src\misc\lv_color.h ****  * @param s saturation [0..100]
 651:d:\practise\f407_disc\lvgl\lvgl\src\misc\lv_color.h ****  * @param v value [0..100]
ARM GAS  C:\Users\gx\AppData\Local\Temp\ccAfmFof.s 			page 19


 652:d:\practise\f407_disc\lvgl\lvgl\src\misc\lv_color.h ****  * @return the given RGB color in RGB (with LV_COLOR_DEPTH depth)
 653:d:\practise\f407_disc\lvgl\lvgl\src\misc\lv_color.h ****  */
 654:d:\practise\f407_disc\lvgl\lvgl\src\misc\lv_color.h **** lv_color_t lv_color_hsv_to_rgb(uint16_t h, uint8_t s, uint8_t v);
 655:d:\practise\f407_disc\lvgl\lvgl\src\misc\lv_color.h **** 
 656:d:\practise\f407_disc\lvgl\lvgl\src\misc\lv_color.h **** /**
 657:d:\practise\f407_disc\lvgl\lvgl\src\misc\lv_color.h ****  * Convert a 32-bit RGB color to HSV
 658:d:\practise\f407_disc\lvgl\lvgl\src\misc\lv_color.h ****  * @param r8 8-bit red
 659:d:\practise\f407_disc\lvgl\lvgl\src\misc\lv_color.h ****  * @param g8 8-bit green
 660:d:\practise\f407_disc\lvgl\lvgl\src\misc\lv_color.h ****  * @param b8 8-bit blue
 661:d:\practise\f407_disc\lvgl\lvgl\src\misc\lv_color.h ****  * @return the given RGB color in HSV
 662:d:\practise\f407_disc\lvgl\lvgl\src\misc\lv_color.h ****  */
 663:d:\practise\f407_disc\lvgl\lvgl\src\misc\lv_color.h **** lv_color_hsv_t lv_color_rgb_to_hsv(uint8_t r8, uint8_t g8, uint8_t b8);
 664:d:\practise\f407_disc\lvgl\lvgl\src\misc\lv_color.h **** 
 665:d:\practise\f407_disc\lvgl\lvgl\src\misc\lv_color.h **** /**
 666:d:\practise\f407_disc\lvgl\lvgl\src\misc\lv_color.h ****  * Convert a color to HSV
 667:d:\practise\f407_disc\lvgl\lvgl\src\misc\lv_color.h ****  * @param color color
 668:d:\practise\f407_disc\lvgl\lvgl\src\misc\lv_color.h ****  * @return the given color in HSV
 669:d:\practise\f407_disc\lvgl\lvgl\src\misc\lv_color.h ****  */
 670:d:\practise\f407_disc\lvgl\lvgl\src\misc\lv_color.h **** lv_color_hsv_t lv_color_to_hsv(lv_color_t color);
 671:d:\practise\f407_disc\lvgl\lvgl\src\misc\lv_color.h **** 
 672:d:\practise\f407_disc\lvgl\lvgl\src\misc\lv_color.h **** /**
 673:d:\practise\f407_disc\lvgl\lvgl\src\misc\lv_color.h ****  * Just a wrapper around LV_COLOR_CHROMA_KEY because it might be more convenient to use a function 
 674:d:\practise\f407_disc\lvgl\lvgl\src\misc\lv_color.h ****  * @return LV_COLOR_CHROMA_KEY
 675:d:\practise\f407_disc\lvgl\lvgl\src\misc\lv_color.h ****  */
 676:d:\practise\f407_disc\lvgl\lvgl\src\misc\lv_color.h **** static inline lv_color_t lv_color_chroma_key(void)
 677:d:\practise\f407_disc\lvgl\lvgl\src\misc\lv_color.h **** {
 678:d:\practise\f407_disc\lvgl\lvgl\src\misc\lv_color.h ****     return LV_COLOR_CHROMA_KEY;
 679:d:\practise\f407_disc\lvgl\lvgl\src\misc\lv_color.h **** }
 680:d:\practise\f407_disc\lvgl\lvgl\src\misc\lv_color.h **** 
 681:d:\practise\f407_disc\lvgl\lvgl\src\misc\lv_color.h **** /**********************
 682:d:\practise\f407_disc\lvgl\lvgl\src\misc\lv_color.h ****  *  PREDEFINED COLORS
 683:d:\practise\f407_disc\lvgl\lvgl\src\misc\lv_color.h ****  **********************/
 684:d:\practise\f407_disc\lvgl\lvgl\src\misc\lv_color.h **** /*Source: https://vuetifyjs.com/en/styles/colors/#material-colors*/
 685:d:\practise\f407_disc\lvgl\lvgl\src\misc\lv_color.h **** 
 686:d:\practise\f407_disc\lvgl\lvgl\src\misc\lv_color.h **** lv_color_t lv_palette_main(lv_palette_t p);
 687:d:\practise\f407_disc\lvgl\lvgl\src\misc\lv_color.h **** static inline lv_color_t lv_color_white(void) { return lv_color_make(0xff, 0xff, 0xff);}
 259              		.loc 2 687 26 discriminator 2 view .LVU77
 260              	.LBE14:
 261              	.LBE13:
 262              		.loc 2 687 49 discriminator 2 view .LVU78
 263              	.LBB18:
 264              	.LBB17:
 265              	.LBB15:
 266              	.LBI15:
 615:d:\practise\f407_disc\lvgl\lvgl\src\misc\lv_color.h **** {
 267              		.loc 2 615 26 discriminator 2 view .LVU79
 268              	.LBB16:
 617:d:\practise\f407_disc\lvgl\lvgl\src\misc\lv_color.h **** }
 269              		.loc 2 617 5 discriminator 2 view .LVU80
 617:d:\practise\f407_disc\lvgl\lvgl\src\misc\lv_color.h **** }
 270              		.loc 2 617 12 is_stmt 0 discriminator 2 view .LVU81
 271 0102 4FF6FF73 		movw	r3, #65535
 272              	.LVL24:
 617:d:\practise\f407_disc\lvgl\lvgl\src\misc\lv_color.h **** }
 273              		.loc 2 617 12 discriminator 2 view .LVU82
 274              	.LBE16:
 275              	.LBE15:
ARM GAS  C:\Users\gx\AppData\Local\Temp\ccAfmFof.s 			page 20


 276              	.LBE17:
  48:lvgl/lvgl/examples/widgets/chart/lv_example_chart_6.c ****         a.x1 += 5;
 277              		.loc 1 48 32 discriminator 2 view .LVU83
 278 0106 ADF83830 		strh	r3, [sp, #56]	@ movhi
  49:lvgl/lvgl/examples/widgets/chart/lv_example_chart_6.c ****         a.x2 -= 5;
 279              		.loc 1 49 9 is_stmt 1 discriminator 2 view .LVU84
  49:lvgl/lvgl/examples/widgets/chart/lv_example_chart_6.c ****         a.x2 -= 5;
 280              		.loc 1 49 14 is_stmt 0 discriminator 2 view .LVU85
 281 010a BDF81430 		ldrh	r3, [sp, #20]
 282 010e 0533     		adds	r3, r3, #5
 283 0110 ADF81430 		strh	r3, [sp, #20]	@ movhi
  50:lvgl/lvgl/examples/widgets/chart/lv_example_chart_6.c ****         a.y1 += 5;
 284              		.loc 1 50 9 is_stmt 1 discriminator 2 view .LVU86
  50:lvgl/lvgl/examples/widgets/chart/lv_example_chart_6.c ****         a.y1 += 5;
 285              		.loc 1 50 14 is_stmt 0 discriminator 2 view .LVU87
 286 0114 BDF81830 		ldrh	r3, [sp, #24]
 287 0118 053B     		subs	r3, r3, #5
 288 011a ADF81830 		strh	r3, [sp, #24]	@ movhi
  51:lvgl/lvgl/examples/widgets/chart/lv_example_chart_6.c ****         a.y2 -= 5;
 289              		.loc 1 51 9 is_stmt 1 discriminator 2 view .LVU88
  51:lvgl/lvgl/examples/widgets/chart/lv_example_chart_6.c ****         a.y2 -= 5;
 290              		.loc 1 51 14 is_stmt 0 discriminator 2 view .LVU89
 291 011e BDF81630 		ldrh	r3, [sp, #22]
 292 0122 0533     		adds	r3, r3, #5
 293 0124 ADF81630 		strh	r3, [sp, #22]	@ movhi
  52:lvgl/lvgl/examples/widgets/chart/lv_example_chart_6.c ****         lv_draw_label(&a, dsc->clip_area, &draw_label_dsc, buf, NULL);
 294              		.loc 1 52 9 is_stmt 1 discriminator 2 view .LVU90
  52:lvgl/lvgl/examples/widgets/chart/lv_example_chart_6.c ****         lv_draw_label(&a, dsc->clip_area, &draw_label_dsc, buf, NULL);
 295              		.loc 1 52 14 is_stmt 0 discriminator 2 view .LVU91
 296 0128 BDF81A30 		ldrh	r3, [sp, #26]
 297 012c 053B     		subs	r3, r3, #5
 298 012e ADF81A30 		strh	r3, [sp, #26]	@ movhi
  53:lvgl/lvgl/examples/widgets/chart/lv_example_chart_6.c ****     }
 299              		.loc 1 53 9 is_stmt 1 discriminator 2 view .LVU92
 300 0132 2168     		ldr	r1, [r4]
 301 0134 0095     		str	r5, [sp]
 302 0136 07AB     		add	r3, sp, #28
 303 0138 0BAA     		add	r2, sp, #44
 304 013a 05A8     		add	r0, sp, #20
 305 013c FFF7FEFF 		bl	lv_draw_label
 306              	.LVL25:
 307 0140 6BE7     		b	.L1
 308              	.L9:
 309 0142 00BF     		.align	2
 310              	.L8:
 311 0144 00000000 		.word	.LANCHOR0
 312 0148 00000000 		.word	.LANCHOR1
 313 014c 00000000 		.word	lv_chart_class
 314 0150 00000000 		.word	.LANCHOR2
 315 0154 00000000 		.word	.LANCHOR3
 316 0158 00000000 		.word	.LC0
 317 015c 00000000 		.word	lv_font_montserrat_14
 318              	.LBE18:
 319              		.cfi_endproc
 320              	.LFE189:
 322              		.section	.rodata.lv_example_chart_6.str1.4,"aMS",%progbits,1
 323              		.align	2
ARM GAS  C:\Users\gx\AppData\Local\Temp\ccAfmFof.s 			page 21


 324              	.LC1:
 325 0000 436C6963 		.ascii	"Click on a point\000"
 325      6B206F6E 
 325      20612070 
 325      6F696E74 
 325      00
 326              		.section	.text.lv_example_chart_6,"ax",%progbits
 327              		.align	1
 328              		.global	lv_example_chart_6
 329              		.syntax unified
 330              		.thumb
 331              		.thumb_func
 332              		.fpu fpv4-sp-d16
 334              	lv_example_chart_6:
 335              	.LFB190:
  56:lvgl/lvgl/examples/widgets/chart/lv_example_chart_6.c **** 
  57:lvgl/lvgl/examples/widgets/chart/lv_example_chart_6.c **** /**
  58:lvgl/lvgl/examples/widgets/chart/lv_example_chart_6.c ****  * Show cursor on the clicked point
  59:lvgl/lvgl/examples/widgets/chart/lv_example_chart_6.c ****  */
  60:lvgl/lvgl/examples/widgets/chart/lv_example_chart_6.c **** void lv_example_chart_6(void)
  61:lvgl/lvgl/examples/widgets/chart/lv_example_chart_6.c **** {
 336              		.loc 1 61 1 view -0
 337              		.cfi_startproc
 338              		@ args = 0, pretend = 0, frame = 0
 339              		@ frame_needed = 0, uses_anonymous_args = 0
 340 0000 70B5     		push	{r4, r5, r6, lr}
 341              	.LCFI4:
 342              		.cfi_def_cfa_offset 16
 343              		.cfi_offset 4, -16
 344              		.cfi_offset 5, -12
 345              		.cfi_offset 6, -8
 346              		.cfi_offset 14, -4
 347 0002 84B0     		sub	sp, sp, #16
 348              	.LCFI5:
 349              		.cfi_def_cfa_offset 32
  62:lvgl/lvgl/examples/widgets/chart/lv_example_chart_6.c ****     chart = lv_chart_create(lv_scr_act());
 350              		.loc 1 62 5 view .LVU94
 351              	.LBB19:
 352              	.LBI19:
 353              		.file 3 "d:\\practise\\f407_disc\\lvgl\\lvgl\\src/core/lv_disp.h"
   1:d:\practise\f407_disc\lvgl\lvgl\src/core\lv_disp.h **** /**
   2:d:\practise\f407_disc\lvgl\lvgl\src/core\lv_disp.h ****  * @file lv_disp.h
   3:d:\practise\f407_disc\lvgl\lvgl\src/core\lv_disp.h ****  *
   4:d:\practise\f407_disc\lvgl\lvgl\src/core\lv_disp.h ****  */
   5:d:\practise\f407_disc\lvgl\lvgl\src/core\lv_disp.h **** 
   6:d:\practise\f407_disc\lvgl\lvgl\src/core\lv_disp.h **** #ifndef LV_DISP_H
   7:d:\practise\f407_disc\lvgl\lvgl\src/core\lv_disp.h **** #define LV_DISP_H
   8:d:\practise\f407_disc\lvgl\lvgl\src/core\lv_disp.h **** 
   9:d:\practise\f407_disc\lvgl\lvgl\src/core\lv_disp.h **** #ifdef __cplusplus
  10:d:\practise\f407_disc\lvgl\lvgl\src/core\lv_disp.h **** extern "C" {
  11:d:\practise\f407_disc\lvgl\lvgl\src/core\lv_disp.h **** #endif
  12:d:\practise\f407_disc\lvgl\lvgl\src/core\lv_disp.h **** 
  13:d:\practise\f407_disc\lvgl\lvgl\src/core\lv_disp.h **** /*********************
  14:d:\practise\f407_disc\lvgl\lvgl\src/core\lv_disp.h ****  *      INCLUDES
  15:d:\practise\f407_disc\lvgl\lvgl\src/core\lv_disp.h ****  *********************/
  16:d:\practise\f407_disc\lvgl\lvgl\src/core\lv_disp.h **** #include "../hal/lv_hal.h"
  17:d:\practise\f407_disc\lvgl\lvgl\src/core\lv_disp.h **** #include "lv_obj.h"
ARM GAS  C:\Users\gx\AppData\Local\Temp\ccAfmFof.s 			page 22


  18:d:\practise\f407_disc\lvgl\lvgl\src/core\lv_disp.h **** #include "lv_theme.h"
  19:d:\practise\f407_disc\lvgl\lvgl\src/core\lv_disp.h **** 
  20:d:\practise\f407_disc\lvgl\lvgl\src/core\lv_disp.h **** /*********************
  21:d:\practise\f407_disc\lvgl\lvgl\src/core\lv_disp.h ****  *      DEFINES
  22:d:\practise\f407_disc\lvgl\lvgl\src/core\lv_disp.h ****  *********************/
  23:d:\practise\f407_disc\lvgl\lvgl\src/core\lv_disp.h **** 
  24:d:\practise\f407_disc\lvgl\lvgl\src/core\lv_disp.h **** /**********************
  25:d:\practise\f407_disc\lvgl\lvgl\src/core\lv_disp.h ****  *      TYPEDEFS
  26:d:\practise\f407_disc\lvgl\lvgl\src/core\lv_disp.h ****  **********************/
  27:d:\practise\f407_disc\lvgl\lvgl\src/core\lv_disp.h **** 
  28:d:\practise\f407_disc\lvgl\lvgl\src/core\lv_disp.h **** typedef enum {
  29:d:\practise\f407_disc\lvgl\lvgl\src/core\lv_disp.h ****     LV_SCR_LOAD_ANIM_NONE,
  30:d:\practise\f407_disc\lvgl\lvgl\src/core\lv_disp.h ****     LV_SCR_LOAD_ANIM_OVER_LEFT,
  31:d:\practise\f407_disc\lvgl\lvgl\src/core\lv_disp.h ****     LV_SCR_LOAD_ANIM_OVER_RIGHT,
  32:d:\practise\f407_disc\lvgl\lvgl\src/core\lv_disp.h ****     LV_SCR_LOAD_ANIM_OVER_TOP,
  33:d:\practise\f407_disc\lvgl\lvgl\src/core\lv_disp.h ****     LV_SCR_LOAD_ANIM_OVER_BOTTOM,
  34:d:\practise\f407_disc\lvgl\lvgl\src/core\lv_disp.h ****     LV_SCR_LOAD_ANIM_MOVE_LEFT,
  35:d:\practise\f407_disc\lvgl\lvgl\src/core\lv_disp.h ****     LV_SCR_LOAD_ANIM_MOVE_RIGHT,
  36:d:\practise\f407_disc\lvgl\lvgl\src/core\lv_disp.h ****     LV_SCR_LOAD_ANIM_MOVE_TOP,
  37:d:\practise\f407_disc\lvgl\lvgl\src/core\lv_disp.h ****     LV_SCR_LOAD_ANIM_MOVE_BOTTOM,
  38:d:\practise\f407_disc\lvgl\lvgl\src/core\lv_disp.h ****     LV_SCR_LOAD_ANIM_FADE_ON,
  39:d:\practise\f407_disc\lvgl\lvgl\src/core\lv_disp.h **** } lv_scr_load_anim_t;
  40:d:\practise\f407_disc\lvgl\lvgl\src/core\lv_disp.h **** 
  41:d:\practise\f407_disc\lvgl\lvgl\src/core\lv_disp.h **** /**********************
  42:d:\practise\f407_disc\lvgl\lvgl\src/core\lv_disp.h ****  * GLOBAL PROTOTYPES
  43:d:\practise\f407_disc\lvgl\lvgl\src/core\lv_disp.h ****  **********************/
  44:d:\practise\f407_disc\lvgl\lvgl\src/core\lv_disp.h **** 
  45:d:\practise\f407_disc\lvgl\lvgl\src/core\lv_disp.h **** /**
  46:d:\practise\f407_disc\lvgl\lvgl\src/core\lv_disp.h ****  * Return with a pointer to the active screen
  47:d:\practise\f407_disc\lvgl\lvgl\src/core\lv_disp.h ****  * @param disp pointer to display which active screen should be get. (NULL to use the default
  48:d:\practise\f407_disc\lvgl\lvgl\src/core\lv_disp.h ****  * screen)
  49:d:\practise\f407_disc\lvgl\lvgl\src/core\lv_disp.h ****  * @return pointer to the active screen object (loaded by 'lv_scr_load()')
  50:d:\practise\f407_disc\lvgl\lvgl\src/core\lv_disp.h ****  */
  51:d:\practise\f407_disc\lvgl\lvgl\src/core\lv_disp.h **** lv_obj_t * lv_disp_get_scr_act(lv_disp_t * disp);
  52:d:\practise\f407_disc\lvgl\lvgl\src/core\lv_disp.h **** 
  53:d:\practise\f407_disc\lvgl\lvgl\src/core\lv_disp.h **** /**
  54:d:\practise\f407_disc\lvgl\lvgl\src/core\lv_disp.h ****  * Return with a pointer to the previous screen. Only used during screen transitions.
  55:d:\practise\f407_disc\lvgl\lvgl\src/core\lv_disp.h ****  * @param disp pointer to display which previous screen should be get. (NULL to use the default
  56:d:\practise\f407_disc\lvgl\lvgl\src/core\lv_disp.h ****  * screen)
  57:d:\practise\f407_disc\lvgl\lvgl\src/core\lv_disp.h ****  * @return pointer to the previous screen object or NULL if not used now
  58:d:\practise\f407_disc\lvgl\lvgl\src/core\lv_disp.h ****  */
  59:d:\practise\f407_disc\lvgl\lvgl\src/core\lv_disp.h **** lv_obj_t * lv_disp_get_scr_prev(lv_disp_t * disp);
  60:d:\practise\f407_disc\lvgl\lvgl\src/core\lv_disp.h **** 
  61:d:\practise\f407_disc\lvgl\lvgl\src/core\lv_disp.h **** /**
  62:d:\practise\f407_disc\lvgl\lvgl\src/core\lv_disp.h ****  * Make a screen active
  63:d:\practise\f407_disc\lvgl\lvgl\src/core\lv_disp.h ****  * @param scr pointer to a screen
  64:d:\practise\f407_disc\lvgl\lvgl\src/core\lv_disp.h ****  */
  65:d:\practise\f407_disc\lvgl\lvgl\src/core\lv_disp.h **** void lv_disp_load_scr(lv_obj_t * scr);
  66:d:\practise\f407_disc\lvgl\lvgl\src/core\lv_disp.h **** 
  67:d:\practise\f407_disc\lvgl\lvgl\src/core\lv_disp.h **** /**
  68:d:\practise\f407_disc\lvgl\lvgl\src/core\lv_disp.h ****  * Return with the top layer. (Same on every screen and it is above the normal screen layer)
  69:d:\practise\f407_disc\lvgl\lvgl\src/core\lv_disp.h ****  * @param disp pointer to display which top layer should be get. (NULL to use the default screen)
  70:d:\practise\f407_disc\lvgl\lvgl\src/core\lv_disp.h ****  * @return pointer to the top layer object  (transparent screen sized lv_obj)
  71:d:\practise\f407_disc\lvgl\lvgl\src/core\lv_disp.h ****  */
  72:d:\practise\f407_disc\lvgl\lvgl\src/core\lv_disp.h **** lv_obj_t * lv_disp_get_layer_top(lv_disp_t * disp);
  73:d:\practise\f407_disc\lvgl\lvgl\src/core\lv_disp.h **** 
  74:d:\practise\f407_disc\lvgl\lvgl\src/core\lv_disp.h **** /**
ARM GAS  C:\Users\gx\AppData\Local\Temp\ccAfmFof.s 			page 23


  75:d:\practise\f407_disc\lvgl\lvgl\src/core\lv_disp.h ****  * Return with the sys. layer. (Same on every screen and it is above the normal screen and the top
  76:d:\practise\f407_disc\lvgl\lvgl\src/core\lv_disp.h ****  * layer)
  77:d:\practise\f407_disc\lvgl\lvgl\src/core\lv_disp.h ****  * @param disp pointer to display which sys. layer  should be get. (NULL to use the default screen)
  78:d:\practise\f407_disc\lvgl\lvgl\src/core\lv_disp.h ****  * @return pointer to the sys layer object  (transparent screen sized lv_obj)
  79:d:\practise\f407_disc\lvgl\lvgl\src/core\lv_disp.h ****  */
  80:d:\practise\f407_disc\lvgl\lvgl\src/core\lv_disp.h **** lv_obj_t * lv_disp_get_layer_sys(lv_disp_t * disp);
  81:d:\practise\f407_disc\lvgl\lvgl\src/core\lv_disp.h **** 
  82:d:\practise\f407_disc\lvgl\lvgl\src/core\lv_disp.h **** /**
  83:d:\practise\f407_disc\lvgl\lvgl\src/core\lv_disp.h ****  * Get the theme of a display
  84:d:\practise\f407_disc\lvgl\lvgl\src/core\lv_disp.h ****  * @param disp pointer to a display
  85:d:\practise\f407_disc\lvgl\lvgl\src/core\lv_disp.h ****  * @return the display's theme (can be NULL)
  86:d:\practise\f407_disc\lvgl\lvgl\src/core\lv_disp.h ****  */
  87:d:\practise\f407_disc\lvgl\lvgl\src/core\lv_disp.h **** void lv_disp_set_theme(lv_disp_t * disp, lv_theme_t * th);
  88:d:\practise\f407_disc\lvgl\lvgl\src/core\lv_disp.h **** 
  89:d:\practise\f407_disc\lvgl\lvgl\src/core\lv_disp.h **** /**
  90:d:\practise\f407_disc\lvgl\lvgl\src/core\lv_disp.h ****  * Get the theme of a display
  91:d:\practise\f407_disc\lvgl\lvgl\src/core\lv_disp.h ****  * @param disp pointer to a display
  92:d:\practise\f407_disc\lvgl\lvgl\src/core\lv_disp.h ****  * @return the display's theme (can be NULL)
  93:d:\practise\f407_disc\lvgl\lvgl\src/core\lv_disp.h ****  */
  94:d:\practise\f407_disc\lvgl\lvgl\src/core\lv_disp.h **** lv_theme_t * lv_disp_get_theme(lv_disp_t * disp);
  95:d:\practise\f407_disc\lvgl\lvgl\src/core\lv_disp.h **** 
  96:d:\practise\f407_disc\lvgl\lvgl\src/core\lv_disp.h **** /**
  97:d:\practise\f407_disc\lvgl\lvgl\src/core\lv_disp.h ****  * Set the background color of a display
  98:d:\practise\f407_disc\lvgl\lvgl\src/core\lv_disp.h ****  * @param disp pointer to a display
  99:d:\practise\f407_disc\lvgl\lvgl\src/core\lv_disp.h ****  * @param color color of the background
 100:d:\practise\f407_disc\lvgl\lvgl\src/core\lv_disp.h ****  */
 101:d:\practise\f407_disc\lvgl\lvgl\src/core\lv_disp.h **** void lv_disp_set_bg_color(lv_disp_t * disp, lv_color_t color);
 102:d:\practise\f407_disc\lvgl\lvgl\src/core\lv_disp.h **** 
 103:d:\practise\f407_disc\lvgl\lvgl\src/core\lv_disp.h **** /**
 104:d:\practise\f407_disc\lvgl\lvgl\src/core\lv_disp.h ****  * Set the background image of a display
 105:d:\practise\f407_disc\lvgl\lvgl\src/core\lv_disp.h ****  * @param disp pointer to a display
 106:d:\practise\f407_disc\lvgl\lvgl\src/core\lv_disp.h ****  * @param img_src path to file or pointer to an `lv_img_dsc_t` variable
 107:d:\practise\f407_disc\lvgl\lvgl\src/core\lv_disp.h ****  */
 108:d:\practise\f407_disc\lvgl\lvgl\src/core\lv_disp.h **** void lv_disp_set_bg_image(lv_disp_t * disp, const void  * img_src);
 109:d:\practise\f407_disc\lvgl\lvgl\src/core\lv_disp.h **** 
 110:d:\practise\f407_disc\lvgl\lvgl\src/core\lv_disp.h **** /**
 111:d:\practise\f407_disc\lvgl\lvgl\src/core\lv_disp.h ****  * Opacity of the background
 112:d:\practise\f407_disc\lvgl\lvgl\src/core\lv_disp.h ****  * @param disp pointer to a display
 113:d:\practise\f407_disc\lvgl\lvgl\src/core\lv_disp.h ****  * @param opa opacity (0..255)
 114:d:\practise\f407_disc\lvgl\lvgl\src/core\lv_disp.h ****  */
 115:d:\practise\f407_disc\lvgl\lvgl\src/core\lv_disp.h **** void lv_disp_set_bg_opa(lv_disp_t * disp, lv_opa_t opa);
 116:d:\practise\f407_disc\lvgl\lvgl\src/core\lv_disp.h **** 
 117:d:\practise\f407_disc\lvgl\lvgl\src/core\lv_disp.h **** /**
 118:d:\practise\f407_disc\lvgl\lvgl\src/core\lv_disp.h ****  * Switch screen with animation
 119:d:\practise\f407_disc\lvgl\lvgl\src/core\lv_disp.h ****  * @param scr pointer to the new screen to load
 120:d:\practise\f407_disc\lvgl\lvgl\src/core\lv_disp.h ****  * @param anim_type type of the animation from `lv_scr_load_anim_t`. E.g.  `LV_SCR_LOAD_ANIM_MOVE_L
 121:d:\practise\f407_disc\lvgl\lvgl\src/core\lv_disp.h ****  * @param time time of the animation
 122:d:\practise\f407_disc\lvgl\lvgl\src/core\lv_disp.h ****  * @param delay delay before the transition
 123:d:\practise\f407_disc\lvgl\lvgl\src/core\lv_disp.h ****  * @param auto_del true: automatically delete the old screen
 124:d:\practise\f407_disc\lvgl\lvgl\src/core\lv_disp.h ****  */
 125:d:\practise\f407_disc\lvgl\lvgl\src/core\lv_disp.h **** void lv_scr_load_anim(lv_obj_t * scr, lv_scr_load_anim_t anim_type, uint32_t time, uint32_t delay, 
 126:d:\practise\f407_disc\lvgl\lvgl\src/core\lv_disp.h **** 
 127:d:\practise\f407_disc\lvgl\lvgl\src/core\lv_disp.h **** /**
 128:d:\practise\f407_disc\lvgl\lvgl\src/core\lv_disp.h ****  * Get elapsed time since last user activity on a display (e.g. click)
 129:d:\practise\f407_disc\lvgl\lvgl\src/core\lv_disp.h ****  * @param disp pointer to an display (NULL to get the overall smallest inactivity)
 130:d:\practise\f407_disc\lvgl\lvgl\src/core\lv_disp.h ****  * @return elapsed ticks (milliseconds) since the last activity
 131:d:\practise\f407_disc\lvgl\lvgl\src/core\lv_disp.h ****  */
ARM GAS  C:\Users\gx\AppData\Local\Temp\ccAfmFof.s 			page 24


 132:d:\practise\f407_disc\lvgl\lvgl\src/core\lv_disp.h **** uint32_t lv_disp_get_inactive_time(const lv_disp_t * disp);
 133:d:\practise\f407_disc\lvgl\lvgl\src/core\lv_disp.h **** 
 134:d:\practise\f407_disc\lvgl\lvgl\src/core\lv_disp.h **** /**
 135:d:\practise\f407_disc\lvgl\lvgl\src/core\lv_disp.h ****  * Manually trigger an activity on a display
 136:d:\practise\f407_disc\lvgl\lvgl\src/core\lv_disp.h ****  * @param disp pointer to an display (NULL to use the default display)
 137:d:\practise\f407_disc\lvgl\lvgl\src/core\lv_disp.h ****  */
 138:d:\practise\f407_disc\lvgl\lvgl\src/core\lv_disp.h **** void lv_disp_trig_activity(lv_disp_t * disp);
 139:d:\practise\f407_disc\lvgl\lvgl\src/core\lv_disp.h **** 
 140:d:\practise\f407_disc\lvgl\lvgl\src/core\lv_disp.h **** /**
 141:d:\practise\f407_disc\lvgl\lvgl\src/core\lv_disp.h ****  * Clean any CPU cache that is related to the display.
 142:d:\practise\f407_disc\lvgl\lvgl\src/core\lv_disp.h ****  * @param disp pointer to an display (NULL to use the default display)
 143:d:\practise\f407_disc\lvgl\lvgl\src/core\lv_disp.h ****  */
 144:d:\practise\f407_disc\lvgl\lvgl\src/core\lv_disp.h **** void lv_disp_clean_dcache(lv_disp_t * disp);
 145:d:\practise\f407_disc\lvgl\lvgl\src/core\lv_disp.h **** 
 146:d:\practise\f407_disc\lvgl\lvgl\src/core\lv_disp.h **** /**
 147:d:\practise\f407_disc\lvgl\lvgl\src/core\lv_disp.h ****  * Get a pointer to the screen refresher timer to
 148:d:\practise\f407_disc\lvgl\lvgl\src/core\lv_disp.h ****  * modify its parameters with `lv_timer_...` functions.
 149:d:\practise\f407_disc\lvgl\lvgl\src/core\lv_disp.h ****  * @param disp pointer to a display
 150:d:\practise\f407_disc\lvgl\lvgl\src/core\lv_disp.h ****  * @return pointer to the display refresher timer. (NULL on error)
 151:d:\practise\f407_disc\lvgl\lvgl\src/core\lv_disp.h ****  */
 152:d:\practise\f407_disc\lvgl\lvgl\src/core\lv_disp.h **** lv_timer_t * _lv_disp_get_refr_timer(lv_disp_t * disp);
 153:d:\practise\f407_disc\lvgl\lvgl\src/core\lv_disp.h **** 
 154:d:\practise\f407_disc\lvgl\lvgl\src/core\lv_disp.h **** /*------------------------------------------------
 155:d:\practise\f407_disc\lvgl\lvgl\src/core\lv_disp.h ****  * To improve backward compatibility
 156:d:\practise\f407_disc\lvgl\lvgl\src/core\lv_disp.h ****  * Recommended only if you have one display
 157:d:\practise\f407_disc\lvgl\lvgl\src/core\lv_disp.h ****  *------------------------------------------------*/
 158:d:\practise\f407_disc\lvgl\lvgl\src/core\lv_disp.h **** 
 159:d:\practise\f407_disc\lvgl\lvgl\src/core\lv_disp.h **** /**
 160:d:\practise\f407_disc\lvgl\lvgl\src/core\lv_disp.h ****  * Get the active screen of the default display
 161:d:\practise\f407_disc\lvgl\lvgl\src/core\lv_disp.h ****  * @return pointer to the active screen
 162:d:\practise\f407_disc\lvgl\lvgl\src/core\lv_disp.h ****  */
 163:d:\practise\f407_disc\lvgl\lvgl\src/core\lv_disp.h **** static inline lv_obj_t * lv_scr_act(void)
 354              		.loc 3 163 26 view .LVU95
 355              	.LBB20:
 164:d:\practise\f407_disc\lvgl\lvgl\src/core\lv_disp.h **** {
 165:d:\practise\f407_disc\lvgl\lvgl\src/core\lv_disp.h ****     return lv_disp_get_scr_act(lv_disp_get_default());
 356              		.loc 3 165 5 view .LVU96
 357              		.loc 3 165 12 is_stmt 0 view .LVU97
 358 0004 FFF7FEFF 		bl	lv_disp_get_default
 359              	.LVL26:
 360 0008 FFF7FEFF 		bl	lv_disp_get_scr_act
 361              	.LVL27:
 362              	.LBE20:
 363              	.LBE19:
 364              		.loc 1 62 13 view .LVU98
 365 000c FFF7FEFF 		bl	lv_chart_create
 366              	.LVL28:
 367              		.loc 1 62 11 view .LVU99
 368 0010 384C     		ldr	r4, .L15
 369 0012 2060     		str	r0, [r4]
  63:lvgl/lvgl/examples/widgets/chart/lv_example_chart_6.c ****     lv_obj_set_size(chart, 200, 150);
 370              		.loc 1 63 5 is_stmt 1 view .LVU100
 371 0014 9622     		movs	r2, #150
 372 0016 C821     		movs	r1, #200
 373 0018 FFF7FEFF 		bl	lv_obj_set_size
 374              	.LVL29:
  64:lvgl/lvgl/examples/widgets/chart/lv_example_chart_6.c ****     lv_obj_align(chart, LV_ALIGN_CENTER, 0, -10);
ARM GAS  C:\Users\gx\AppData\Local\Temp\ccAfmFof.s 			page 25


 375              		.loc 1 64 5 view .LVU101
 376 001c 6FF00903 		mvn	r3, #9
 377 0020 0022     		movs	r2, #0
 378 0022 0921     		movs	r1, #9
 379 0024 2068     		ldr	r0, [r4]
 380 0026 FFF7FEFF 		bl	lv_obj_align
 381              	.LVL30:
  65:lvgl/lvgl/examples/widgets/chart/lv_example_chart_6.c **** 
  66:lvgl/lvgl/examples/widgets/chart/lv_example_chart_6.c ****     lv_chart_set_axis_tick(chart, LV_CHART_AXIS_PRIMARY_Y, 10, 5, 6, 5, true, 40);
 382              		.loc 1 66 5 view .LVU102
 383 002a 2823     		movs	r3, #40
 384 002c 0393     		str	r3, [sp, #12]
 385 002e 0126     		movs	r6, #1
 386 0030 0296     		str	r6, [sp, #8]
 387 0032 0525     		movs	r5, #5
 388 0034 0195     		str	r5, [sp, #4]
 389 0036 0623     		movs	r3, #6
 390 0038 0093     		str	r3, [sp]
 391 003a 2B46     		mov	r3, r5
 392 003c 0A22     		movs	r2, #10
 393 003e 0021     		movs	r1, #0
 394 0040 2068     		ldr	r0, [r4]
 395 0042 FFF7FEFF 		bl	lv_chart_set_axis_tick
 396              	.LVL31:
  67:lvgl/lvgl/examples/widgets/chart/lv_example_chart_6.c ****     lv_chart_set_axis_tick(chart, LV_CHART_AXIS_PRIMARY_X, 10, 5, 10, 1, true, 30);
 397              		.loc 1 67 5 view .LVU103
 398 0046 1E23     		movs	r3, #30
 399 0048 0393     		str	r3, [sp, #12]
 400 004a 0296     		str	r6, [sp, #8]
 401 004c 0196     		str	r6, [sp, #4]
 402 004e 0A22     		movs	r2, #10
 403 0050 0092     		str	r2, [sp]
 404 0052 2B46     		mov	r3, r5
 405 0054 0221     		movs	r1, #2
 406 0056 2068     		ldr	r0, [r4]
 407 0058 FFF7FEFF 		bl	lv_chart_set_axis_tick
 408              	.LVL32:
  68:lvgl/lvgl/examples/widgets/chart/lv_example_chart_6.c **** 
  69:lvgl/lvgl/examples/widgets/chart/lv_example_chart_6.c ****     lv_obj_add_event_cb(chart, event_cb, LV_EVENT_ALL, NULL);
 409              		.loc 1 69 5 view .LVU104
 410 005c 0023     		movs	r3, #0
 411 005e 1A46     		mov	r2, r3
 412 0060 2549     		ldr	r1, .L15+4
 413 0062 2068     		ldr	r0, [r4]
 414 0064 FFF7FEFF 		bl	lv_obj_add_event_cb
 415              	.LVL33:
  70:lvgl/lvgl/examples/widgets/chart/lv_example_chart_6.c ****     lv_obj_refresh_ext_draw_size(chart);
 416              		.loc 1 70 5 view .LVU105
 417 0068 2068     		ldr	r0, [r4]
 418 006a FFF7FEFF 		bl	lv_obj_refresh_ext_draw_size
 419              	.LVL34:
  71:lvgl/lvgl/examples/widgets/chart/lv_example_chart_6.c **** 
  72:lvgl/lvgl/examples/widgets/chart/lv_example_chart_6.c ****     cursor = lv_chart_add_cursor(chart, lv_palette_main(LV_PALETTE_BLUE), LV_DIR_LEFT | LV_DIR_BOTT
 420              		.loc 1 72 5 view .LVU106
 421              		.loc 1 72 14 is_stmt 0 view .LVU107
 422 006e 2668     		ldr	r6, [r4]
 423 0070 2846     		mov	r0, r5
ARM GAS  C:\Users\gx\AppData\Local\Temp\ccAfmFof.s 			page 26


 424 0072 FFF7FEFF 		bl	lv_palette_main
 425              	.LVL35:
 426 0076 0146     		mov	r1, r0	@ movhi
 427 0078 0922     		movs	r2, #9
 428 007a 3046     		mov	r0, r6
 429 007c FFF7FEFF 		bl	lv_chart_add_cursor
 430              	.LVL36:
 431              		.loc 1 72 12 view .LVU108
 432 0080 1E4B     		ldr	r3, .L15+8
 433 0082 1860     		str	r0, [r3]
  73:lvgl/lvgl/examples/widgets/chart/lv_example_chart_6.c **** 
  74:lvgl/lvgl/examples/widgets/chart/lv_example_chart_6.c ****     ser = lv_chart_add_series(chart, lv_palette_main(LV_PALETTE_RED), LV_CHART_AXIS_PRIMARY_Y);
 434              		.loc 1 74 5 is_stmt 1 view .LVU109
 435              		.loc 1 74 11 is_stmt 0 view .LVU110
 436 0084 2468     		ldr	r4, [r4]
 437 0086 0020     		movs	r0, #0
 438 0088 FFF7FEFF 		bl	lv_palette_main
 439              	.LVL37:
 440 008c 0146     		mov	r1, r0	@ movhi
 441 008e 0022     		movs	r2, #0
 442 0090 2046     		mov	r0, r4
 443 0092 FFF7FEFF 		bl	lv_chart_add_series
 444              	.LVL38:
 445              		.loc 1 74 9 view .LVU111
 446 0096 1A4B     		ldr	r3, .L15+12
 447 0098 1860     		str	r0, [r3]
  75:lvgl/lvgl/examples/widgets/chart/lv_example_chart_6.c ****     uint32_t i;
 448              		.loc 1 75 5 is_stmt 1 view .LVU112
  76:lvgl/lvgl/examples/widgets/chart/lv_example_chart_6.c ****     for(i = 0; i < 10; i++) {
 449              		.loc 1 76 5 view .LVU113
 450              	.LVL39:
 451              		.loc 1 76 11 is_stmt 0 view .LVU114
 452 009a 0024     		movs	r4, #0
 453              	.LVL40:
 454              	.L11:
 455              		.loc 1 76 16 is_stmt 1 discriminator 1 view .LVU115
 456              		.loc 1 76 5 is_stmt 0 discriminator 1 view .LVU116
 457 009c 092C     		cmp	r4, #9
 458 009e 0ED8     		bhi	.L14
  77:lvgl/lvgl/examples/widgets/chart/lv_example_chart_6.c ****         lv_chart_set_next_value(chart, ser, lv_rand(10,90));
 459              		.loc 1 77 9 is_stmt 1 discriminator 3 view .LVU117
 460 00a0 144B     		ldr	r3, .L15
 461 00a2 1D68     		ldr	r5, [r3]
 462 00a4 164B     		ldr	r3, .L15+12
 463 00a6 1E68     		ldr	r6, [r3]
 464              		.loc 1 77 45 is_stmt 0 discriminator 3 view .LVU118
 465 00a8 5A21     		movs	r1, #90
 466 00aa 0A20     		movs	r0, #10
 467 00ac FFF7FEFF 		bl	lv_rand
 468              	.LVL41:
 469              		.loc 1 77 9 discriminator 3 view .LVU119
 470 00b0 02B2     		sxth	r2, r0
 471 00b2 3146     		mov	r1, r6
 472 00b4 2846     		mov	r0, r5
 473 00b6 FFF7FEFF 		bl	lv_chart_set_next_value
 474              	.LVL42:
  76:lvgl/lvgl/examples/widgets/chart/lv_example_chart_6.c ****     for(i = 0; i < 10; i++) {
ARM GAS  C:\Users\gx\AppData\Local\Temp\ccAfmFof.s 			page 27


 475              		.loc 1 76 24 is_stmt 1 discriminator 3 view .LVU120
  76:lvgl/lvgl/examples/widgets/chart/lv_example_chart_6.c ****     for(i = 0; i < 10; i++) {
 476              		.loc 1 76 25 is_stmt 0 discriminator 3 view .LVU121
 477 00ba 0134     		adds	r4, r4, #1
 478              	.LVL43:
  76:lvgl/lvgl/examples/widgets/chart/lv_example_chart_6.c ****     for(i = 0; i < 10; i++) {
 479              		.loc 1 76 25 discriminator 3 view .LVU122
 480 00bc EEE7     		b	.L11
 481              	.L14:
  78:lvgl/lvgl/examples/widgets/chart/lv_example_chart_6.c ****     }
  79:lvgl/lvgl/examples/widgets/chart/lv_example_chart_6.c **** 
  80:lvgl/lvgl/examples/widgets/chart/lv_example_chart_6.c ****     lv_chart_set_zoom_x(chart, 500);
 482              		.loc 1 80 5 is_stmt 1 view .LVU123
 483 00be 0D4D     		ldr	r5, .L15
 484 00c0 4FF4FA71 		mov	r1, #500
 485 00c4 2868     		ldr	r0, [r5]
 486 00c6 FFF7FEFF 		bl	lv_chart_set_zoom_x
 487              	.LVL44:
  81:lvgl/lvgl/examples/widgets/chart/lv_example_chart_6.c **** 
  82:lvgl/lvgl/examples/widgets/chart/lv_example_chart_6.c ****     lv_obj_t * label = lv_label_create(lv_scr_act());
 488              		.loc 1 82 5 view .LVU124
 489              	.LBB21:
 490              	.LBI21:
 163:d:\practise\f407_disc\lvgl\lvgl\src/core\lv_disp.h **** {
 491              		.loc 3 163 26 view .LVU125
 492              	.LBB22:
 493              		.loc 3 165 5 view .LVU126
 494              		.loc 3 165 12 is_stmt 0 view .LVU127
 495 00ca FFF7FEFF 		bl	lv_disp_get_default
 496              	.LVL45:
 497 00ce FFF7FEFF 		bl	lv_disp_get_scr_act
 498              	.LVL46:
 499              	.LBE22:
 500              	.LBE21:
 501              		.loc 1 82 24 view .LVU128
 502 00d2 FFF7FEFF 		bl	lv_label_create
 503              	.LVL47:
 504 00d6 0446     		mov	r4, r0
 505              	.LVL48:
  83:lvgl/lvgl/examples/widgets/chart/lv_example_chart_6.c ****     lv_label_set_text(label, "Click on a point");
 506              		.loc 1 83 5 is_stmt 1 view .LVU129
 507 00d8 0A49     		ldr	r1, .L15+16
 508 00da FFF7FEFF 		bl	lv_label_set_text
 509              	.LVL49:
  84:lvgl/lvgl/examples/widgets/chart/lv_example_chart_6.c ****     lv_obj_align_to(label, chart, LV_ALIGN_OUT_TOP_MID, 0, -5);
 510              		.loc 1 84 5 view .LVU130
 511 00de 6FF00403 		mvn	r3, #4
 512 00e2 0093     		str	r3, [sp]
 513 00e4 0023     		movs	r3, #0
 514 00e6 0B22     		movs	r2, #11
 515 00e8 2968     		ldr	r1, [r5]
 516 00ea 2046     		mov	r0, r4
 517 00ec FFF7FEFF 		bl	lv_obj_align_to
 518              	.LVL50:
  85:lvgl/lvgl/examples/widgets/chart/lv_example_chart_6.c **** }
 519              		.loc 1 85 1 is_stmt 0 view .LVU131
 520 00f0 04B0     		add	sp, sp, #16
ARM GAS  C:\Users\gx\AppData\Local\Temp\ccAfmFof.s 			page 28


 521              	.LCFI6:
 522              		.cfi_def_cfa_offset 16
 523              		@ sp needed
 524 00f2 70BD     		pop	{r4, r5, r6, pc}
 525              	.LVL51:
 526              	.L16:
 527              		.loc 1 85 1 view .LVU132
 528              		.align	2
 529              	.L15:
 530 00f4 00000000 		.word	.LANCHOR3
 531 00f8 00000000 		.word	event_cb
 532 00fc 00000000 		.word	.LANCHOR1
 533 0100 00000000 		.word	.LANCHOR2
 534 0104 00000000 		.word	.LC1
 535              		.cfi_endproc
 536              	.LFE190:
 538              		.section	.bss.chart,"aw",%nobits
 539              		.align	2
 540              		.set	.LANCHOR3,. + 0
 543              	chart:
 544 0000 00000000 		.space	4
 545              		.section	.bss.cursor,"aw",%nobits
 546              		.align	2
 547              		.set	.LANCHOR1,. + 0
 550              	cursor:
 551 0000 00000000 		.space	4
 552              		.section	.bss.ser,"aw",%nobits
 553              		.align	2
 554              		.set	.LANCHOR2,. + 0
 557              	ser:
 558 0000 00000000 		.space	4
 559              		.section	.data.last_id.12316,"aw"
 560              		.align	2
 561              		.set	.LANCHOR0,. + 0
 564              	last_id.12316:
 565 0000 FFFFFFFF 		.word	-1
 566              		.text
 567              	.Letext0:
 568              		.file 4 "c:\\program files (x86)\\gnu arm embedded toolchain\\9 2020-q2-update\\arm-none-eabi\\inc
 569              		.file 5 "c:\\program files (x86)\\gnu arm embedded toolchain\\9 2020-q2-update\\arm-none-eabi\\inc
 570              		.file 6 "d:\\practise\\f407_disc\\lvgl\\lvgl\\src/misc/lv_ll.h"
 571              		.file 7 "c:\\program files (x86)\\gnu arm embedded toolchain\\9 2020-q2-update\\lib\\gcc\\arm-none
 572              		.file 8 "c:\\program files (x86)\\gnu arm embedded toolchain\\9 2020-q2-update\\arm-none-eabi\\inc
 573              		.file 9 "c:\\program files (x86)\\gnu arm embedded toolchain\\9 2020-q2-update\\arm-none-eabi\\inc
 574              		.file 10 "c:\\program files (x86)\\gnu arm embedded toolchain\\9 2020-q2-update\\arm-none-eabi\\in
 575              		.file 11 "d:\\practise\\f407_disc\\lvgl\\lvgl\\src\\misc\\lv_area.h"
 576              		.file 12 "d:\\practise\\f407_disc\\lvgl\\lvgl\\src/core/lv_obj.h"
 577              		.file 13 "d:\\practise\\f407_disc\\lvgl\\lvgl\\src/core/lv_group.h"
 578              		.file 14 "d:\\practise\\f407_disc\\lvgl\\lvgl\\src\\font\\lv_font.h"
 579              		.file 15 "d:\\practise\\f407_disc\\lvgl\\lvgl\\src\\misc\\lv_txt.h"
 580              		.file 16 "d:\\practise\\f407_disc\\lvgl\\lvgl\\src\\misc\\lv_bidi.h"
 581              		.file 17 "d:\\practise\\f407_disc\\lvgl\\lvgl\\src\\misc\\lv_style.h"
 582              		.file 18 "d:\\practise\\f407_disc\\lvgl\\lvgl\\src/core/lv_obj_scroll.h"
 583              		.file 19 "d:\\practise\\f407_disc\\lvgl\\lvgl\\src/core/lv_obj_style.h"
 584              		.file 20 "d:\\practise\\f407_disc\\lvgl\\lvgl\\src\\draw\\lv_draw_rect.h"
 585              		.file 21 "d:\\practise\\f407_disc\\lvgl\\lvgl\\src\\draw\\lv_draw_label.h"
 586              		.file 22 "d:\\practise\\f407_disc\\lvgl\\lvgl\\src\\draw\\lv_draw_img.h"
ARM GAS  C:\Users\gx\AppData\Local\Temp\ccAfmFof.s 			page 29


 587              		.file 23 "d:\\practise\\f407_disc\\lvgl\\lvgl\\src\\draw\\lv_draw_line.h"
 588              		.file 24 "d:\\practise\\f407_disc\\lvgl\\lvgl\\src\\draw\\lv_draw_arc.h"
 589              		.file 25 "d:\\practise\\f407_disc\\lvgl\\lvgl\\src/core/lv_obj_draw.h"
 590              		.file 26 "d:\\practise\\f407_disc\\lvgl\\lvgl\\src/core/lv_obj_class.h"
 591              		.file 27 "d:\\practise\\f407_disc\\lvgl\\lvgl\\src/core/lv_event.h"
 592              		.file 28 "d:\\practise\\f407_disc\\lvgl\\lvgl\\src/widgets/lv_arc.h"
 593              		.file 29 "d:\\practise\\f407_disc\\lvgl\\lvgl\\src/widgets/lv_btn.h"
 594              		.file 30 "d:\\practise\\f407_disc\\lvgl\\lvgl\\src/widgets/lv_img.h"
 595              		.file 31 "d:\\practise\\f407_disc\\lvgl\\lvgl\\src/widgets/lv_label.h"
 596              		.file 32 "d:\\practise\\f407_disc\\lvgl\\lvgl\\src/widgets/lv_line.h"
 597              		.file 33 "d:\\practise\\f407_disc\\lvgl\\lvgl\\src/widgets/lv_table.h"
 598              		.file 34 "d:\\practise\\f407_disc\\lvgl\\lvgl\\src/widgets/lv_checkbox.h"
 599              		.file 35 "d:\\practise\\f407_disc\\lvgl\\lvgl\\src/widgets/lv_bar.h"
 600              		.file 36 "d:\\practise\\f407_disc\\lvgl\\lvgl\\src/widgets/lv_slider.h"
 601              		.file 37 "d:\\practise\\f407_disc\\lvgl\\lvgl\\src/widgets/lv_btnmatrix.h"
 602              		.file 38 "d:\\practise\\f407_disc\\lvgl\\lvgl\\src/widgets/lv_dropdown.h"
 603              		.file 39 "d:\\practise\\f407_disc\\lvgl\\lvgl\\src/widgets/lv_roller.h"
 604              		.file 40 "d:\\practise\\f407_disc\\lvgl\\lvgl\\src/widgets/lv_textarea.h"
 605              		.file 41 "d:\\practise\\f407_disc\\lvgl\\lvgl\\src/widgets/lv_canvas.h"
 606              		.file 42 "d:\\practise\\f407_disc\\lvgl\\lvgl\\src/widgets/lv_switch.h"
 607              		.file 43 "d:\\practise\\f407_disc\\lvgl\\lvgl\\src/extra/widgets/animimg/lv_animimg.h"
 608              		.file 44 "d:\\practise\\f407_disc\\lvgl\\lvgl\\src/extra/widgets/calendar/lv_calendar.h"
 609              		.file 45 "d:\\practise\\f407_disc\\lvgl\\lvgl\\src/extra/widgets/calendar/lv_calendar_header_arrow
 610              		.file 46 "d:\\practise\\f407_disc\\lvgl\\lvgl\\src/extra/widgets/calendar/lv_calendar_header_dropd
 611              		.file 47 "d:\\practise\\f407_disc\\lvgl\\lvgl\\src/extra/widgets/chart/lv_chart.h"
 612              		.file 48 "d:\\practise\\f407_disc\\lvgl\\lvgl\\src/extra/widgets/keyboard/lv_keyboard.h"
 613              		.file 49 "d:\\practise\\f407_disc\\lvgl\\lvgl\\src\\extra\\layouts\\flex\\lv_flex.h"
 614              		.file 50 "d:\\practise\\f407_disc\\lvgl\\lvgl\\src/extra/widgets/list/lv_list.h"
 615              		.file 51 "d:\\practise\\f407_disc\\lvgl\\lvgl\\src/extra/widgets/msgbox/lv_msgbox.h"
 616              		.file 52 "d:\\practise\\f407_disc\\lvgl\\lvgl\\src/extra/widgets/meter/lv_meter.h"
 617              		.file 53 "d:\\practise\\f407_disc\\lvgl\\lvgl\\src/extra/widgets/spinbox/lv_spinbox.h"
 618              		.file 54 "d:\\practise\\f407_disc\\lvgl\\lvgl\\src/extra/widgets/spinner/lv_spinner.h"
 619              		.file 55 "d:\\practise\\f407_disc\\lvgl\\lvgl\\src/extra/widgets/tabview/lv_tabview.h"
 620              		.file 56 "d:\\practise\\f407_disc\\lvgl\\lvgl\\src/extra/widgets/tileview/lv_tileview.h"
 621              		.file 57 "d:\\practise\\f407_disc\\lvgl\\lvgl\\src/extra/widgets/win/lv_win.h"
 622              		.file 58 "d:\\practise\\f407_disc\\lvgl\\lvgl\\src/extra/widgets/colorwheel/lv_colorwheel.h"
 623              		.file 59 "d:\\practise\\f407_disc\\lvgl\\lvgl\\src/extra/widgets/led/lv_led.h"
 624              		.file 60 "d:\\practise\\f407_disc\\lvgl\\lvgl\\src/extra/widgets/imgbtn/lv_imgbtn.h"
 625              		.file 61 "d:\\practise\\f407_disc\\lvgl\\lvgl\\src/extra/widgets/span/lv_span.h"
 626              		.file 62 "d:\\practise\\f407_disc\\lvgl\\lvgl\\src/extra/layouts/grid/lv_grid.h"
 627              		.file 63 "d:\\practise\\f407_disc\\lvgl\\lvgl\\src/hal/lv_hal_disp.h"
 628              		.file 64 "d:\\practise\\f407_disc\\lvgl\\lvgl\\src/core/lv_obj_pos.h"
 629              		.file 65 "d:\\practise\\f407_disc\\lvgl\\lvgl\\src/misc/lv_math.h"
 630              		.file 66 "d:\\practise\\f407_disc\\lvgl\\lvgl\\src\\misc\\lv_printf.h"
ARM GAS  C:\Users\gx\AppData\Local\Temp\ccAfmFof.s 			page 30

