ARM GAS  C:\Users\gx\AppData\Local\Temp\ccdv9jmC.s 			page 1


   1              		.cpu cortex-m4
   2              		.eabi_attribute 27, 1
   3              		.eabi_attribute 28, 1
   4              		.eabi_attribute 20, 1
   5              		.eabi_attribute 21, 1
   6              		.eabi_attribute 23, 3
   7              		.eabi_attribute 24, 1
   8              		.eabi_attribute 25, 1
   9              		.eabi_attribute 26, 1
  10              		.eabi_attribute 30, 1
  11              		.eabi_attribute 34, 1
  12              		.eabi_attribute 18, 4
  13              		.file	"lv_hal_disp.c"
  14              		.text
  15              	.Ltext0:
  16              		.cfi_sections	.debug_frame
  17              		.section	.text.invalidate_layout_cb,"ax",%progbits
  18              		.align	1
  19              		.arch armv7e-m
  20              		.syntax unified
  21              		.thumb
  22              		.thumb_func
  23              		.fpu fpv4-sp-d16
  25              	invalidate_layout_cb:
  26              	.LVL0:
  27              	.LFB170:
  28              		.file 1 "lvgl/lvgl/src/hal/lv_hal_disp.c"
   1:lvgl/lvgl/src/hal/lv_hal_disp.c **** /**
   2:lvgl/lvgl/src/hal/lv_hal_disp.c ****  * @file lv_hal_disp.c
   3:lvgl/lvgl/src/hal/lv_hal_disp.c ****  *
   4:lvgl/lvgl/src/hal/lv_hal_disp.c ****  * @description HAL layer for display driver
   5:lvgl/lvgl/src/hal/lv_hal_disp.c ****  *
   6:lvgl/lvgl/src/hal/lv_hal_disp.c ****  */
   7:lvgl/lvgl/src/hal/lv_hal_disp.c **** 
   8:lvgl/lvgl/src/hal/lv_hal_disp.c **** /*********************
   9:lvgl/lvgl/src/hal/lv_hal_disp.c ****  *      INCLUDES
  10:lvgl/lvgl/src/hal/lv_hal_disp.c ****  *********************/
  11:lvgl/lvgl/src/hal/lv_hal_disp.c **** #include <stdint.h>
  12:lvgl/lvgl/src/hal/lv_hal_disp.c **** #include <stddef.h>
  13:lvgl/lvgl/src/hal/lv_hal_disp.c **** #include "lv_hal.h"
  14:lvgl/lvgl/src/hal/lv_hal_disp.c **** #include "../misc/lv_mem.h"
  15:lvgl/lvgl/src/hal/lv_hal_disp.c **** #include "../misc/lv_gc.h"
  16:lvgl/lvgl/src/hal/lv_hal_disp.c **** #include "../misc/lv_assert.h"
  17:lvgl/lvgl/src/hal/lv_hal_disp.c **** #include "../core/lv_obj.h"
  18:lvgl/lvgl/src/hal/lv_hal_disp.c **** #include "../core/lv_refr.h"
  19:lvgl/lvgl/src/hal/lv_hal_disp.c **** #include "../core/lv_theme.h"
  20:lvgl/lvgl/src/hal/lv_hal_disp.c **** #if LV_USE_THEME_DEFAULT
  21:lvgl/lvgl/src/hal/lv_hal_disp.c **** #include "../extra/themes/default/lv_theme_default.h"
  22:lvgl/lvgl/src/hal/lv_hal_disp.c **** #endif
  23:lvgl/lvgl/src/hal/lv_hal_disp.c **** 
  24:lvgl/lvgl/src/hal/lv_hal_disp.c **** /*********************
  25:lvgl/lvgl/src/hal/lv_hal_disp.c ****  *      DEFINES
  26:lvgl/lvgl/src/hal/lv_hal_disp.c ****  *********************/
  27:lvgl/lvgl/src/hal/lv_hal_disp.c **** 
  28:lvgl/lvgl/src/hal/lv_hal_disp.c **** /**********************
  29:lvgl/lvgl/src/hal/lv_hal_disp.c ****  *      TYPEDEFS
  30:lvgl/lvgl/src/hal/lv_hal_disp.c ****  **********************/
ARM GAS  C:\Users\gx\AppData\Local\Temp\ccdv9jmC.s 			page 2


  31:lvgl/lvgl/src/hal/lv_hal_disp.c **** 
  32:lvgl/lvgl/src/hal/lv_hal_disp.c **** /**********************
  33:lvgl/lvgl/src/hal/lv_hal_disp.c ****  *  STATIC PROTOTYPES
  34:lvgl/lvgl/src/hal/lv_hal_disp.c ****  **********************/
  35:lvgl/lvgl/src/hal/lv_hal_disp.c **** static lv_obj_tree_walk_res_t invalidate_layout_cb(lv_obj_t * obj, void * user_data);
  36:lvgl/lvgl/src/hal/lv_hal_disp.c **** 
  37:lvgl/lvgl/src/hal/lv_hal_disp.c **** static void set_px_true_color_alpha(lv_disp_drv_t * disp_drv, uint8_t * buf, lv_coord_t buf_w, lv_c
  38:lvgl/lvgl/src/hal/lv_hal_disp.c ****                                     lv_coord_t y,
  39:lvgl/lvgl/src/hal/lv_hal_disp.c ****                                     lv_color_t color, lv_opa_t opa);
  40:lvgl/lvgl/src/hal/lv_hal_disp.c **** 
  41:lvgl/lvgl/src/hal/lv_hal_disp.c **** static void set_px_cb_alpha1(lv_disp_drv_t * disp_drv, uint8_t * buf, lv_coord_t buf_w, lv_coord_t 
  42:lvgl/lvgl/src/hal/lv_hal_disp.c ****                              lv_color_t color, lv_opa_t opa);
  43:lvgl/lvgl/src/hal/lv_hal_disp.c **** 
  44:lvgl/lvgl/src/hal/lv_hal_disp.c **** static void set_px_cb_alpha2(lv_disp_drv_t * disp_drv, uint8_t * buf, lv_coord_t buf_w, lv_coord_t 
  45:lvgl/lvgl/src/hal/lv_hal_disp.c ****                              lv_color_t color, lv_opa_t opa);
  46:lvgl/lvgl/src/hal/lv_hal_disp.c **** 
  47:lvgl/lvgl/src/hal/lv_hal_disp.c **** static void set_px_cb_alpha4(lv_disp_drv_t * disp_drv, uint8_t * buf, lv_coord_t buf_w, lv_coord_t 
  48:lvgl/lvgl/src/hal/lv_hal_disp.c ****                              lv_color_t color, lv_opa_t opa);
  49:lvgl/lvgl/src/hal/lv_hal_disp.c **** 
  50:lvgl/lvgl/src/hal/lv_hal_disp.c **** static void set_px_cb_alpha8(lv_disp_drv_t * disp_drv, uint8_t * buf, lv_coord_t buf_w, lv_coord_t 
  51:lvgl/lvgl/src/hal/lv_hal_disp.c ****                              lv_color_t color, lv_opa_t opa);
  52:lvgl/lvgl/src/hal/lv_hal_disp.c **** 
  53:lvgl/lvgl/src/hal/lv_hal_disp.c **** static void set_px_alpha_generic(lv_img_dsc_t * d, lv_coord_t x, lv_coord_t y, lv_color_t color, lv
  54:lvgl/lvgl/src/hal/lv_hal_disp.c **** 
  55:lvgl/lvgl/src/hal/lv_hal_disp.c **** /**********************
  56:lvgl/lvgl/src/hal/lv_hal_disp.c ****  *  STATIC VARIABLES
  57:lvgl/lvgl/src/hal/lv_hal_disp.c ****  **********************/
  58:lvgl/lvgl/src/hal/lv_hal_disp.c **** static lv_disp_t * disp_def;
  59:lvgl/lvgl/src/hal/lv_hal_disp.c **** 
  60:lvgl/lvgl/src/hal/lv_hal_disp.c **** /**********************
  61:lvgl/lvgl/src/hal/lv_hal_disp.c ****  *      MACROS
  62:lvgl/lvgl/src/hal/lv_hal_disp.c ****  **********************/
  63:lvgl/lvgl/src/hal/lv_hal_disp.c **** 
  64:lvgl/lvgl/src/hal/lv_hal_disp.c **** /**********************
  65:lvgl/lvgl/src/hal/lv_hal_disp.c ****  *   GLOBAL FUNCTIONS
  66:lvgl/lvgl/src/hal/lv_hal_disp.c ****  **********************/
  67:lvgl/lvgl/src/hal/lv_hal_disp.c **** 
  68:lvgl/lvgl/src/hal/lv_hal_disp.c **** /**
  69:lvgl/lvgl/src/hal/lv_hal_disp.c ****  * Initialize a display driver with default values.
  70:lvgl/lvgl/src/hal/lv_hal_disp.c ****  * It is used to surly have known values in the fields ant not memory junk.
  71:lvgl/lvgl/src/hal/lv_hal_disp.c ****  * After it you can set the fields.
  72:lvgl/lvgl/src/hal/lv_hal_disp.c ****  * @param driver pointer to driver variable to initialize
  73:lvgl/lvgl/src/hal/lv_hal_disp.c ****  */
  74:lvgl/lvgl/src/hal/lv_hal_disp.c **** void lv_disp_drv_init(lv_disp_drv_t * driver)
  75:lvgl/lvgl/src/hal/lv_hal_disp.c **** {
  76:lvgl/lvgl/src/hal/lv_hal_disp.c ****     lv_memset_00(driver, sizeof(lv_disp_drv_t));
  77:lvgl/lvgl/src/hal/lv_hal_disp.c **** 
  78:lvgl/lvgl/src/hal/lv_hal_disp.c ****     driver->hor_res          = 320;
  79:lvgl/lvgl/src/hal/lv_hal_disp.c ****     driver->ver_res          = 240;
  80:lvgl/lvgl/src/hal/lv_hal_disp.c ****     driver->antialiasing     = LV_COLOR_DEPTH > 8 ? 1: 0;
  81:lvgl/lvgl/src/hal/lv_hal_disp.c ****     driver->screen_transp    = LV_COLOR_SCREEN_TRANSP;
  82:lvgl/lvgl/src/hal/lv_hal_disp.c ****     driver->dpi              = LV_DPI_DEF;
  83:lvgl/lvgl/src/hal/lv_hal_disp.c ****     driver->color_chroma_key = LV_COLOR_CHROMA_KEY;
  84:lvgl/lvgl/src/hal/lv_hal_disp.c **** }
  85:lvgl/lvgl/src/hal/lv_hal_disp.c **** 
  86:lvgl/lvgl/src/hal/lv_hal_disp.c **** /**
  87:lvgl/lvgl/src/hal/lv_hal_disp.c ****  * Initialize a display buffer
ARM GAS  C:\Users\gx\AppData\Local\Temp\ccdv9jmC.s 			page 3


  88:lvgl/lvgl/src/hal/lv_hal_disp.c ****  * @param draw_buf pointer `lv_disp_draw_buf_t` variable to initialize
  89:lvgl/lvgl/src/hal/lv_hal_disp.c ****  * @param buf1 A buffer to be used by LVGL to draw the image.
  90:lvgl/lvgl/src/hal/lv_hal_disp.c ****  *             Always has to specified and can't be NULL.
  91:lvgl/lvgl/src/hal/lv_hal_disp.c ****  *             Can be an array allocated by the user. E.g. `static lv_color_t disp_buf1[1024 * 10]`
  92:lvgl/lvgl/src/hal/lv_hal_disp.c ****  *             Or a memory address e.g. in external SRAM
  93:lvgl/lvgl/src/hal/lv_hal_disp.c ****  * @param buf2 Optionally specify a second buffer to make image rendering and image flushing
  94:lvgl/lvgl/src/hal/lv_hal_disp.c ****  *             (sending to the display) parallel.
  95:lvgl/lvgl/src/hal/lv_hal_disp.c ****  *             In the `disp_drv->flush` you should use DMA or similar hardware to send
  96:lvgl/lvgl/src/hal/lv_hal_disp.c ****  *             the image to the display in the background.
  97:lvgl/lvgl/src/hal/lv_hal_disp.c ****  *             It lets LVGL to render next frame into the other buffer while previous is being
  98:lvgl/lvgl/src/hal/lv_hal_disp.c ****  * sent. Set to `NULL` if unused.
  99:lvgl/lvgl/src/hal/lv_hal_disp.c ****  * @param size_in_px_cnt size of the `buf1` and `buf2` in pixel count.
 100:lvgl/lvgl/src/hal/lv_hal_disp.c ****  */
 101:lvgl/lvgl/src/hal/lv_hal_disp.c **** void lv_disp_draw_buf_init(lv_disp_draw_buf_t * draw_buf, void * buf1, void * buf2, uint32_t size_i
 102:lvgl/lvgl/src/hal/lv_hal_disp.c **** {
 103:lvgl/lvgl/src/hal/lv_hal_disp.c ****     lv_memset_00(draw_buf, sizeof(lv_disp_draw_buf_t));
 104:lvgl/lvgl/src/hal/lv_hal_disp.c **** 
 105:lvgl/lvgl/src/hal/lv_hal_disp.c ****     draw_buf->buf1    = buf1;
 106:lvgl/lvgl/src/hal/lv_hal_disp.c ****     draw_buf->buf2    = buf2;
 107:lvgl/lvgl/src/hal/lv_hal_disp.c ****     draw_buf->buf_act = draw_buf->buf1;
 108:lvgl/lvgl/src/hal/lv_hal_disp.c ****     draw_buf->size    = size_in_px_cnt;
 109:lvgl/lvgl/src/hal/lv_hal_disp.c **** }
 110:lvgl/lvgl/src/hal/lv_hal_disp.c **** 
 111:lvgl/lvgl/src/hal/lv_hal_disp.c **** /**
 112:lvgl/lvgl/src/hal/lv_hal_disp.c ****  * Register an initialized display driver.
 113:lvgl/lvgl/src/hal/lv_hal_disp.c ****  * Automatically set the first display as active.
 114:lvgl/lvgl/src/hal/lv_hal_disp.c ****  * @param driver pointer to an initialized 'lv_disp_drv_t' variable. Only its pointer is saved!
 115:lvgl/lvgl/src/hal/lv_hal_disp.c ****  * @return pointer to the new display or NULL on error
 116:lvgl/lvgl/src/hal/lv_hal_disp.c ****  */
 117:lvgl/lvgl/src/hal/lv_hal_disp.c **** lv_disp_t * lv_disp_drv_register(lv_disp_drv_t * driver)
 118:lvgl/lvgl/src/hal/lv_hal_disp.c **** {
 119:lvgl/lvgl/src/hal/lv_hal_disp.c ****     lv_disp_t * disp = _lv_ll_ins_head(&LV_GC_ROOT(_lv_disp_ll));
 120:lvgl/lvgl/src/hal/lv_hal_disp.c ****     if(!disp) {
 121:lvgl/lvgl/src/hal/lv_hal_disp.c ****         LV_ASSERT_MALLOC(disp);
 122:lvgl/lvgl/src/hal/lv_hal_disp.c ****         return NULL;
 123:lvgl/lvgl/src/hal/lv_hal_disp.c ****     }
 124:lvgl/lvgl/src/hal/lv_hal_disp.c **** 
 125:lvgl/lvgl/src/hal/lv_hal_disp.c ****     lv_memset_00(disp, sizeof(lv_disp_t));
 126:lvgl/lvgl/src/hal/lv_hal_disp.c **** 
 127:lvgl/lvgl/src/hal/lv_hal_disp.c ****     disp->driver = driver;
 128:lvgl/lvgl/src/hal/lv_hal_disp.c **** 
 129:lvgl/lvgl/src/hal/lv_hal_disp.c ****     lv_disp_t * disp_def_tmp = disp_def;
 130:lvgl/lvgl/src/hal/lv_hal_disp.c ****     disp_def                 = disp; /*Temporarily change the default screen to create the default 
 131:lvgl/lvgl/src/hal/lv_hal_disp.c ****                                         new display*/
 132:lvgl/lvgl/src/hal/lv_hal_disp.c ****     /*Create a refresh timer*/
 133:lvgl/lvgl/src/hal/lv_hal_disp.c ****     disp->refr_timer = lv_timer_create(_lv_disp_refr_timer, LV_DISP_DEF_REFR_PERIOD, disp);
 134:lvgl/lvgl/src/hal/lv_hal_disp.c ****     LV_ASSERT_MALLOC(disp->refr_timer);
 135:lvgl/lvgl/src/hal/lv_hal_disp.c ****     if(disp->refr_timer == NULL) {
 136:lvgl/lvgl/src/hal/lv_hal_disp.c ****         lv_mem_free(disp);
 137:lvgl/lvgl/src/hal/lv_hal_disp.c ****         return NULL;
 138:lvgl/lvgl/src/hal/lv_hal_disp.c ****     }
 139:lvgl/lvgl/src/hal/lv_hal_disp.c **** 
 140:lvgl/lvgl/src/hal/lv_hal_disp.c ****     if(driver->full_refresh && driver->draw_buf->size < (uint32_t)driver->hor_res * driver->ver_res
 141:lvgl/lvgl/src/hal/lv_hal_disp.c ****         driver->full_refresh = 0;
 142:lvgl/lvgl/src/hal/lv_hal_disp.c ****         LV_LOG_WARN("full_refresh requires at least screen sized draw buffer(s)")
 143:lvgl/lvgl/src/hal/lv_hal_disp.c ****     }
 144:lvgl/lvgl/src/hal/lv_hal_disp.c **** 
ARM GAS  C:\Users\gx\AppData\Local\Temp\ccdv9jmC.s 			page 4


 145:lvgl/lvgl/src/hal/lv_hal_disp.c ****     disp->bg_color = lv_color_white();
 146:lvgl/lvgl/src/hal/lv_hal_disp.c **** #if LV_COLOR_SCREEN_TRANSP
 147:lvgl/lvgl/src/hal/lv_hal_disp.c ****     disp->bg_opa = LV_OPA_TRANSP;
 148:lvgl/lvgl/src/hal/lv_hal_disp.c **** #else
 149:lvgl/lvgl/src/hal/lv_hal_disp.c ****     disp->bg_opa = LV_OPA_COVER;
 150:lvgl/lvgl/src/hal/lv_hal_disp.c **** #endif
 151:lvgl/lvgl/src/hal/lv_hal_disp.c **** 
 152:lvgl/lvgl/src/hal/lv_hal_disp.c **** #if LV_USE_THEME_DEFAULT
 153:lvgl/lvgl/src/hal/lv_hal_disp.c ****     if(lv_theme_default_is_inited() == false) {
 154:lvgl/lvgl/src/hal/lv_hal_disp.c ****         disp->theme = lv_theme_default_init(disp, lv_palette_main(LV_PALETTE_BLUE), lv_palette_main
 155:lvgl/lvgl/src/hal/lv_hal_disp.c ****     }
 156:lvgl/lvgl/src/hal/lv_hal_disp.c **** #endif
 157:lvgl/lvgl/src/hal/lv_hal_disp.c **** 
 158:lvgl/lvgl/src/hal/lv_hal_disp.c ****     disp->act_scr   = lv_obj_create(NULL); /*Create a default screen on the display*/
 159:lvgl/lvgl/src/hal/lv_hal_disp.c ****     disp->top_layer = lv_obj_create(NULL); /*Create top layer on the display*/
 160:lvgl/lvgl/src/hal/lv_hal_disp.c ****     disp->sys_layer = lv_obj_create(NULL); /*Create sys layer on the display*/
 161:lvgl/lvgl/src/hal/lv_hal_disp.c ****     lv_obj_remove_style_all(disp->top_layer);
 162:lvgl/lvgl/src/hal/lv_hal_disp.c ****     lv_obj_remove_style_all(disp->sys_layer);
 163:lvgl/lvgl/src/hal/lv_hal_disp.c ****     lv_obj_clear_flag(disp->top_layer, LV_OBJ_FLAG_CLICKABLE);
 164:lvgl/lvgl/src/hal/lv_hal_disp.c ****     lv_obj_clear_flag(disp->sys_layer, LV_OBJ_FLAG_CLICKABLE);
 165:lvgl/lvgl/src/hal/lv_hal_disp.c **** 
 166:lvgl/lvgl/src/hal/lv_hal_disp.c ****     lv_obj_set_scrollbar_mode(disp->top_layer, LV_SCROLLBAR_MODE_OFF);
 167:lvgl/lvgl/src/hal/lv_hal_disp.c ****     lv_obj_set_scrollbar_mode(disp->sys_layer, LV_SCROLLBAR_MODE_OFF);
 168:lvgl/lvgl/src/hal/lv_hal_disp.c **** 
 169:lvgl/lvgl/src/hal/lv_hal_disp.c ****     lv_obj_invalidate(disp->act_scr);
 170:lvgl/lvgl/src/hal/lv_hal_disp.c **** 
 171:lvgl/lvgl/src/hal/lv_hal_disp.c ****     disp_def = disp_def_tmp; /*Revert the default display*/
 172:lvgl/lvgl/src/hal/lv_hal_disp.c ****     if(disp_def == NULL) disp_def = disp; /*Initialize the default display*/
 173:lvgl/lvgl/src/hal/lv_hal_disp.c **** 
 174:lvgl/lvgl/src/hal/lv_hal_disp.c ****     lv_timer_ready(disp->refr_timer); /*Be sure the screen will be refreshed immediately on start u
 175:lvgl/lvgl/src/hal/lv_hal_disp.c **** 
 176:lvgl/lvgl/src/hal/lv_hal_disp.c ****     return disp;
 177:lvgl/lvgl/src/hal/lv_hal_disp.c **** }
 178:lvgl/lvgl/src/hal/lv_hal_disp.c **** 
 179:lvgl/lvgl/src/hal/lv_hal_disp.c **** /**
 180:lvgl/lvgl/src/hal/lv_hal_disp.c ****  * Update the driver in run time.
 181:lvgl/lvgl/src/hal/lv_hal_disp.c ****  * @param disp pointer to a display. (return value of `lv_disp_drv_register`)
 182:lvgl/lvgl/src/hal/lv_hal_disp.c ****  * @param new_drv pointer to the new driver
 183:lvgl/lvgl/src/hal/lv_hal_disp.c ****  */
 184:lvgl/lvgl/src/hal/lv_hal_disp.c **** void lv_disp_drv_update(lv_disp_t * disp, lv_disp_drv_t * new_drv)
 185:lvgl/lvgl/src/hal/lv_hal_disp.c **** {
 186:lvgl/lvgl/src/hal/lv_hal_disp.c ****     disp->driver = new_drv;
 187:lvgl/lvgl/src/hal/lv_hal_disp.c **** 
 188:lvgl/lvgl/src/hal/lv_hal_disp.c ****     if(disp->driver->full_refresh && disp->driver->draw_buf->size < (uint32_t)disp->driver->hor_res
 189:lvgl/lvgl/src/hal/lv_hal_disp.c ****         disp->driver->full_refresh = 0;
 190:lvgl/lvgl/src/hal/lv_hal_disp.c ****         LV_LOG_WARN("full_refresh requires at least screen sized draw buffer(s)")
 191:lvgl/lvgl/src/hal/lv_hal_disp.c ****     }
 192:lvgl/lvgl/src/hal/lv_hal_disp.c **** 
 193:lvgl/lvgl/src/hal/lv_hal_disp.c ****     lv_coord_t w = lv_disp_get_hor_res(disp);
 194:lvgl/lvgl/src/hal/lv_hal_disp.c ****     lv_coord_t h = lv_disp_get_ver_res(disp);
 195:lvgl/lvgl/src/hal/lv_hal_disp.c ****     uint32_t i;
 196:lvgl/lvgl/src/hal/lv_hal_disp.c ****     for(i = 0; i < disp->screen_cnt; i++) {
 197:lvgl/lvgl/src/hal/lv_hal_disp.c ****         lv_area_t prev_coords;
 198:lvgl/lvgl/src/hal/lv_hal_disp.c ****         lv_obj_get_coords(disp->screens[i], &prev_coords);
 199:lvgl/lvgl/src/hal/lv_hal_disp.c ****         lv_area_set_width(&disp->screens[i]->coords, w);
 200:lvgl/lvgl/src/hal/lv_hal_disp.c ****         lv_area_set_height(&disp->screens[i]->coords, h);
 201:lvgl/lvgl/src/hal/lv_hal_disp.c ****         lv_event_send(disp->screens[i], LV_EVENT_SIZE_CHANGED, &prev_coords);
ARM GAS  C:\Users\gx\AppData\Local\Temp\ccdv9jmC.s 			page 5


 202:lvgl/lvgl/src/hal/lv_hal_disp.c ****     }
 203:lvgl/lvgl/src/hal/lv_hal_disp.c **** 
 204:lvgl/lvgl/src/hal/lv_hal_disp.c ****     /*
 205:lvgl/lvgl/src/hal/lv_hal_disp.c ****      * This method is usually called upon orientation change, thus the screen is now a
 206:lvgl/lvgl/src/hal/lv_hal_disp.c ****      * different size.
 207:lvgl/lvgl/src/hal/lv_hal_disp.c ****      * The object invalidated its previous area. That area is now out of the screen area
 208:lvgl/lvgl/src/hal/lv_hal_disp.c ****      * so we reset all invalidated areas and invalidate the active screen's new area only.
 209:lvgl/lvgl/src/hal/lv_hal_disp.c ****      */
 210:lvgl/lvgl/src/hal/lv_hal_disp.c ****     lv_memset_00(disp->inv_areas, sizeof(disp->inv_areas));
 211:lvgl/lvgl/src/hal/lv_hal_disp.c ****     lv_memset_00(disp->inv_area_joined, sizeof(disp->inv_area_joined));
 212:lvgl/lvgl/src/hal/lv_hal_disp.c ****     disp->inv_p = 0;
 213:lvgl/lvgl/src/hal/lv_hal_disp.c ****     if(disp->act_scr != NULL) lv_obj_invalidate(disp->act_scr);
 214:lvgl/lvgl/src/hal/lv_hal_disp.c **** 
 215:lvgl/lvgl/src/hal/lv_hal_disp.c ****     lv_obj_tree_walk(NULL, invalidate_layout_cb, NULL);
 216:lvgl/lvgl/src/hal/lv_hal_disp.c **** 
 217:lvgl/lvgl/src/hal/lv_hal_disp.c ****     if(disp->driver->drv_update_cb) disp->driver->drv_update_cb(disp->driver);
 218:lvgl/lvgl/src/hal/lv_hal_disp.c **** }
 219:lvgl/lvgl/src/hal/lv_hal_disp.c **** 
 220:lvgl/lvgl/src/hal/lv_hal_disp.c **** /**
 221:lvgl/lvgl/src/hal/lv_hal_disp.c ****  * Remove a display
 222:lvgl/lvgl/src/hal/lv_hal_disp.c ****  * @param disp pointer to display
 223:lvgl/lvgl/src/hal/lv_hal_disp.c ****  */
 224:lvgl/lvgl/src/hal/lv_hal_disp.c **** void lv_disp_remove(lv_disp_t * disp)
 225:lvgl/lvgl/src/hal/lv_hal_disp.c **** {
 226:lvgl/lvgl/src/hal/lv_hal_disp.c ****     bool was_default = false;
 227:lvgl/lvgl/src/hal/lv_hal_disp.c ****     if(disp == lv_disp_get_default()) was_default = true;
 228:lvgl/lvgl/src/hal/lv_hal_disp.c **** 
 229:lvgl/lvgl/src/hal/lv_hal_disp.c ****     /*Detach the input devices*/
 230:lvgl/lvgl/src/hal/lv_hal_disp.c ****     lv_indev_t * indev;
 231:lvgl/lvgl/src/hal/lv_hal_disp.c ****     indev = lv_indev_get_next(NULL);
 232:lvgl/lvgl/src/hal/lv_hal_disp.c ****     while(indev) {
 233:lvgl/lvgl/src/hal/lv_hal_disp.c ****         if(indev->driver->disp == disp) {
 234:lvgl/lvgl/src/hal/lv_hal_disp.c ****             indev->driver->disp = NULL;
 235:lvgl/lvgl/src/hal/lv_hal_disp.c ****         }
 236:lvgl/lvgl/src/hal/lv_hal_disp.c ****         indev = lv_indev_get_next(indev);
 237:lvgl/lvgl/src/hal/lv_hal_disp.c ****     }
 238:lvgl/lvgl/src/hal/lv_hal_disp.c **** 
 239:lvgl/lvgl/src/hal/lv_hal_disp.c ****     /** delete screen and other obj */
 240:lvgl/lvgl/src/hal/lv_hal_disp.c ****     if (disp->sys_layer) {
 241:lvgl/lvgl/src/hal/lv_hal_disp.c ****         lv_obj_del(disp->sys_layer);
 242:lvgl/lvgl/src/hal/lv_hal_disp.c ****         disp->sys_layer = NULL;
 243:lvgl/lvgl/src/hal/lv_hal_disp.c ****     }
 244:lvgl/lvgl/src/hal/lv_hal_disp.c ****     if (disp->top_layer) {
 245:lvgl/lvgl/src/hal/lv_hal_disp.c ****         lv_obj_del(disp->top_layer);
 246:lvgl/lvgl/src/hal/lv_hal_disp.c ****         disp->top_layer = NULL;
 247:lvgl/lvgl/src/hal/lv_hal_disp.c ****     }
 248:lvgl/lvgl/src/hal/lv_hal_disp.c ****     while (disp->screen_cnt != 0) {
 249:lvgl/lvgl/src/hal/lv_hal_disp.c ****         /*Delete the screenst*/
 250:lvgl/lvgl/src/hal/lv_hal_disp.c ****         lv_obj_del(disp->screens[0]);
 251:lvgl/lvgl/src/hal/lv_hal_disp.c ****     }
 252:lvgl/lvgl/src/hal/lv_hal_disp.c **** 
 253:lvgl/lvgl/src/hal/lv_hal_disp.c ****     _lv_ll_remove(&LV_GC_ROOT(_lv_disp_ll), disp);
 254:lvgl/lvgl/src/hal/lv_hal_disp.c ****     lv_timer_del(disp->refr_timer);
 255:lvgl/lvgl/src/hal/lv_hal_disp.c ****     lv_mem_free(disp);
 256:lvgl/lvgl/src/hal/lv_hal_disp.c **** 
 257:lvgl/lvgl/src/hal/lv_hal_disp.c ****     if(was_default) lv_disp_set_default(_lv_ll_get_head(&LV_GC_ROOT(_lv_disp_ll)));
 258:lvgl/lvgl/src/hal/lv_hal_disp.c **** }
ARM GAS  C:\Users\gx\AppData\Local\Temp\ccdv9jmC.s 			page 6


 259:lvgl/lvgl/src/hal/lv_hal_disp.c **** 
 260:lvgl/lvgl/src/hal/lv_hal_disp.c **** /**
 261:lvgl/lvgl/src/hal/lv_hal_disp.c ****  * Set a default display. The new screens will be created on it by default.
 262:lvgl/lvgl/src/hal/lv_hal_disp.c ****  * @param disp pointer to a display
 263:lvgl/lvgl/src/hal/lv_hal_disp.c ****  */
 264:lvgl/lvgl/src/hal/lv_hal_disp.c **** void lv_disp_set_default(lv_disp_t * disp)
 265:lvgl/lvgl/src/hal/lv_hal_disp.c **** {
 266:lvgl/lvgl/src/hal/lv_hal_disp.c ****     disp_def = disp;
 267:lvgl/lvgl/src/hal/lv_hal_disp.c **** }
 268:lvgl/lvgl/src/hal/lv_hal_disp.c **** 
 269:lvgl/lvgl/src/hal/lv_hal_disp.c **** /**
 270:lvgl/lvgl/src/hal/lv_hal_disp.c ****  * Get the default display
 271:lvgl/lvgl/src/hal/lv_hal_disp.c ****  * @return pointer to the default display
 272:lvgl/lvgl/src/hal/lv_hal_disp.c ****  */
 273:lvgl/lvgl/src/hal/lv_hal_disp.c **** lv_disp_t * lv_disp_get_default(void)
 274:lvgl/lvgl/src/hal/lv_hal_disp.c **** {
 275:lvgl/lvgl/src/hal/lv_hal_disp.c ****     return disp_def;
 276:lvgl/lvgl/src/hal/lv_hal_disp.c **** }
 277:lvgl/lvgl/src/hal/lv_hal_disp.c **** 
 278:lvgl/lvgl/src/hal/lv_hal_disp.c **** /**
 279:lvgl/lvgl/src/hal/lv_hal_disp.c ****  * Get the horizontal resolution of a display
 280:lvgl/lvgl/src/hal/lv_hal_disp.c ****  * @param disp pointer to a display (NULL to use the default display)
 281:lvgl/lvgl/src/hal/lv_hal_disp.c ****  * @return the horizontal resolution of the display
 282:lvgl/lvgl/src/hal/lv_hal_disp.c ****  */
 283:lvgl/lvgl/src/hal/lv_hal_disp.c **** lv_coord_t lv_disp_get_hor_res(lv_disp_t * disp)
 284:lvgl/lvgl/src/hal/lv_hal_disp.c **** {
 285:lvgl/lvgl/src/hal/lv_hal_disp.c ****     if(disp == NULL) disp = lv_disp_get_default();
 286:lvgl/lvgl/src/hal/lv_hal_disp.c **** 
 287:lvgl/lvgl/src/hal/lv_hal_disp.c ****     if(disp == NULL) {
 288:lvgl/lvgl/src/hal/lv_hal_disp.c ****         return 0;
 289:lvgl/lvgl/src/hal/lv_hal_disp.c ****     } else {
 290:lvgl/lvgl/src/hal/lv_hal_disp.c ****         switch(disp->driver->rotated) {
 291:lvgl/lvgl/src/hal/lv_hal_disp.c ****             case LV_DISP_ROT_90:
 292:lvgl/lvgl/src/hal/lv_hal_disp.c ****             case LV_DISP_ROT_270:
 293:lvgl/lvgl/src/hal/lv_hal_disp.c ****                 return disp->driver->ver_res;
 294:lvgl/lvgl/src/hal/lv_hal_disp.c ****             default:
 295:lvgl/lvgl/src/hal/lv_hal_disp.c ****                 return disp->driver->hor_res;
 296:lvgl/lvgl/src/hal/lv_hal_disp.c ****         }
 297:lvgl/lvgl/src/hal/lv_hal_disp.c ****     }
 298:lvgl/lvgl/src/hal/lv_hal_disp.c **** }
 299:lvgl/lvgl/src/hal/lv_hal_disp.c **** 
 300:lvgl/lvgl/src/hal/lv_hal_disp.c **** /**
 301:lvgl/lvgl/src/hal/lv_hal_disp.c ****  * Get the vertical resolution of a display
 302:lvgl/lvgl/src/hal/lv_hal_disp.c ****  * @param disp pointer to a display (NULL to use the default display)
 303:lvgl/lvgl/src/hal/lv_hal_disp.c ****  * @return the vertical resolution of the display
 304:lvgl/lvgl/src/hal/lv_hal_disp.c ****  */
 305:lvgl/lvgl/src/hal/lv_hal_disp.c **** lv_coord_t lv_disp_get_ver_res(lv_disp_t * disp)
 306:lvgl/lvgl/src/hal/lv_hal_disp.c **** {
 307:lvgl/lvgl/src/hal/lv_hal_disp.c ****     if(disp == NULL) disp = lv_disp_get_default();
 308:lvgl/lvgl/src/hal/lv_hal_disp.c **** 
 309:lvgl/lvgl/src/hal/lv_hal_disp.c ****     if(disp == NULL) {
 310:lvgl/lvgl/src/hal/lv_hal_disp.c ****         return 0;
 311:lvgl/lvgl/src/hal/lv_hal_disp.c ****     } else {
 312:lvgl/lvgl/src/hal/lv_hal_disp.c ****         switch(disp->driver->rotated) {
 313:lvgl/lvgl/src/hal/lv_hal_disp.c ****             case LV_DISP_ROT_90:
 314:lvgl/lvgl/src/hal/lv_hal_disp.c ****             case LV_DISP_ROT_270:
 315:lvgl/lvgl/src/hal/lv_hal_disp.c ****                 return disp->driver->hor_res;
ARM GAS  C:\Users\gx\AppData\Local\Temp\ccdv9jmC.s 			page 7


 316:lvgl/lvgl/src/hal/lv_hal_disp.c ****             default:
 317:lvgl/lvgl/src/hal/lv_hal_disp.c ****                 return disp->driver->ver_res;
 318:lvgl/lvgl/src/hal/lv_hal_disp.c ****         }
 319:lvgl/lvgl/src/hal/lv_hal_disp.c ****     }
 320:lvgl/lvgl/src/hal/lv_hal_disp.c **** }
 321:lvgl/lvgl/src/hal/lv_hal_disp.c **** 
 322:lvgl/lvgl/src/hal/lv_hal_disp.c **** /**
 323:lvgl/lvgl/src/hal/lv_hal_disp.c ****  * Get if anti-aliasing is enabled for a display or not
 324:lvgl/lvgl/src/hal/lv_hal_disp.c ****  * @param disp pointer to a display (NULL to use the default display)
 325:lvgl/lvgl/src/hal/lv_hal_disp.c ****  * @return true: anti-aliasing is enabled; false: disabled
 326:lvgl/lvgl/src/hal/lv_hal_disp.c ****  */
 327:lvgl/lvgl/src/hal/lv_hal_disp.c **** bool lv_disp_get_antialiasing(lv_disp_t * disp)
 328:lvgl/lvgl/src/hal/lv_hal_disp.c **** {
 329:lvgl/lvgl/src/hal/lv_hal_disp.c ****     if(disp == NULL) disp = lv_disp_get_default();
 330:lvgl/lvgl/src/hal/lv_hal_disp.c ****     if(disp == NULL) return false;
 331:lvgl/lvgl/src/hal/lv_hal_disp.c **** 
 332:lvgl/lvgl/src/hal/lv_hal_disp.c ****     return disp->driver->antialiasing ? true : false;
 333:lvgl/lvgl/src/hal/lv_hal_disp.c **** }
 334:lvgl/lvgl/src/hal/lv_hal_disp.c **** 
 335:lvgl/lvgl/src/hal/lv_hal_disp.c **** /**
 336:lvgl/lvgl/src/hal/lv_hal_disp.c ****  * Get the DPI of the display
 337:lvgl/lvgl/src/hal/lv_hal_disp.c ****  * @param disp pointer to a display (NULL to use the default display)
 338:lvgl/lvgl/src/hal/lv_hal_disp.c ****  * @return dpi of the display
 339:lvgl/lvgl/src/hal/lv_hal_disp.c ****  */
 340:lvgl/lvgl/src/hal/lv_hal_disp.c **** lv_coord_t lv_disp_get_dpi(const lv_disp_t * disp)
 341:lvgl/lvgl/src/hal/lv_hal_disp.c **** {
 342:lvgl/lvgl/src/hal/lv_hal_disp.c ****     if(disp == NULL) disp = lv_disp_get_default();
 343:lvgl/lvgl/src/hal/lv_hal_disp.c ****     if(disp == NULL) return LV_DPI_DEF;  /*Do not return 0 because it might be a divider*/
 344:lvgl/lvgl/src/hal/lv_hal_disp.c ****     return disp->driver->dpi;
 345:lvgl/lvgl/src/hal/lv_hal_disp.c **** }
 346:lvgl/lvgl/src/hal/lv_hal_disp.c **** 
 347:lvgl/lvgl/src/hal/lv_hal_disp.c **** /**
 348:lvgl/lvgl/src/hal/lv_hal_disp.c ****  * Call in the display driver's `flush_cb` function when the flushing is finished
 349:lvgl/lvgl/src/hal/lv_hal_disp.c ****  * @param disp_drv pointer to display driver in `flush_cb` where this function is called
 350:lvgl/lvgl/src/hal/lv_hal_disp.c ****  */
 351:lvgl/lvgl/src/hal/lv_hal_disp.c **** LV_ATTRIBUTE_FLUSH_READY void lv_disp_flush_ready(lv_disp_drv_t * disp_drv)
 352:lvgl/lvgl/src/hal/lv_hal_disp.c **** {
 353:lvgl/lvgl/src/hal/lv_hal_disp.c ****     /*If the screen is transparent initialize it when the flushing is ready*/
 354:lvgl/lvgl/src/hal/lv_hal_disp.c **** #if LV_COLOR_SCREEN_TRANSP
 355:lvgl/lvgl/src/hal/lv_hal_disp.c ****     if(disp_drv->screen_transp) {
 356:lvgl/lvgl/src/hal/lv_hal_disp.c ****         lv_memset_00(disp_drv->draw_buf->buf_act, disp_drv->draw_buf->size * sizeof(lv_color32_t));
 357:lvgl/lvgl/src/hal/lv_hal_disp.c ****     }
 358:lvgl/lvgl/src/hal/lv_hal_disp.c **** #endif
 359:lvgl/lvgl/src/hal/lv_hal_disp.c **** 
 360:lvgl/lvgl/src/hal/lv_hal_disp.c ****     disp_drv->draw_buf->flushing = 0;
 361:lvgl/lvgl/src/hal/lv_hal_disp.c ****     disp_drv->draw_buf->flushing_last = 0;
 362:lvgl/lvgl/src/hal/lv_hal_disp.c **** }
 363:lvgl/lvgl/src/hal/lv_hal_disp.c **** 
 364:lvgl/lvgl/src/hal/lv_hal_disp.c **** /**
 365:lvgl/lvgl/src/hal/lv_hal_disp.c ****  * Tell if it's the last area of the refreshing process.
 366:lvgl/lvgl/src/hal/lv_hal_disp.c ****  * Can be called from `flush_cb` to execute some special display refreshing if needed when all area
 367:lvgl/lvgl/src/hal/lv_hal_disp.c ****  * @param disp_drv pointer to display driver
 368:lvgl/lvgl/src/hal/lv_hal_disp.c ****  * @return true: it's the last area to flush; false: there are other areas too which will be refres
 369:lvgl/lvgl/src/hal/lv_hal_disp.c ****  */
 370:lvgl/lvgl/src/hal/lv_hal_disp.c **** LV_ATTRIBUTE_FLUSH_READY bool lv_disp_flush_is_last(lv_disp_drv_t * disp_drv)
 371:lvgl/lvgl/src/hal/lv_hal_disp.c **** {
 372:lvgl/lvgl/src/hal/lv_hal_disp.c ****     return disp_drv->draw_buf->flushing_last;
ARM GAS  C:\Users\gx\AppData\Local\Temp\ccdv9jmC.s 			page 8


 373:lvgl/lvgl/src/hal/lv_hal_disp.c **** }
 374:lvgl/lvgl/src/hal/lv_hal_disp.c **** 
 375:lvgl/lvgl/src/hal/lv_hal_disp.c **** /**
 376:lvgl/lvgl/src/hal/lv_hal_disp.c ****  * Get the next display.
 377:lvgl/lvgl/src/hal/lv_hal_disp.c ****  * @param disp pointer to the current display. NULL to initialize.
 378:lvgl/lvgl/src/hal/lv_hal_disp.c ****  * @return the next display or NULL if no more. Give the first display when the parameter is NULL
 379:lvgl/lvgl/src/hal/lv_hal_disp.c ****  */
 380:lvgl/lvgl/src/hal/lv_hal_disp.c **** lv_disp_t * lv_disp_get_next(lv_disp_t * disp)
 381:lvgl/lvgl/src/hal/lv_hal_disp.c **** {
 382:lvgl/lvgl/src/hal/lv_hal_disp.c ****     if(disp == NULL)
 383:lvgl/lvgl/src/hal/lv_hal_disp.c ****         return _lv_ll_get_head(&LV_GC_ROOT(_lv_disp_ll));
 384:lvgl/lvgl/src/hal/lv_hal_disp.c ****     else
 385:lvgl/lvgl/src/hal/lv_hal_disp.c ****         return _lv_ll_get_next(&LV_GC_ROOT(_lv_disp_ll), disp);
 386:lvgl/lvgl/src/hal/lv_hal_disp.c **** }
 387:lvgl/lvgl/src/hal/lv_hal_disp.c **** 
 388:lvgl/lvgl/src/hal/lv_hal_disp.c **** /**
 389:lvgl/lvgl/src/hal/lv_hal_disp.c ****  * Get the internal buffer of a display
 390:lvgl/lvgl/src/hal/lv_hal_disp.c ****  * @param disp pointer to a display
 391:lvgl/lvgl/src/hal/lv_hal_disp.c ****  * @return pointer to the internal buffers
 392:lvgl/lvgl/src/hal/lv_hal_disp.c ****  */
 393:lvgl/lvgl/src/hal/lv_hal_disp.c **** lv_disp_draw_buf_t * lv_disp_get_draw_buf(lv_disp_t * disp)
 394:lvgl/lvgl/src/hal/lv_hal_disp.c **** {
 395:lvgl/lvgl/src/hal/lv_hal_disp.c ****     return disp->driver->draw_buf;
 396:lvgl/lvgl/src/hal/lv_hal_disp.c **** }
 397:lvgl/lvgl/src/hal/lv_hal_disp.c **** 
 398:lvgl/lvgl/src/hal/lv_hal_disp.c **** /**
 399:lvgl/lvgl/src/hal/lv_hal_disp.c ****  * Set the rotation of this display.
 400:lvgl/lvgl/src/hal/lv_hal_disp.c ****  * @param disp pointer to a display (NULL to use the default display)
 401:lvgl/lvgl/src/hal/lv_hal_disp.c ****  * @param rotation rotation angle
 402:lvgl/lvgl/src/hal/lv_hal_disp.c ****  */
 403:lvgl/lvgl/src/hal/lv_hal_disp.c **** void lv_disp_set_rotation(lv_disp_t * disp, lv_disp_rot_t rotation)
 404:lvgl/lvgl/src/hal/lv_hal_disp.c **** {
 405:lvgl/lvgl/src/hal/lv_hal_disp.c ****     if(disp == NULL) disp = lv_disp_get_default();
 406:lvgl/lvgl/src/hal/lv_hal_disp.c ****     if(disp == NULL) return;
 407:lvgl/lvgl/src/hal/lv_hal_disp.c **** 
 408:lvgl/lvgl/src/hal/lv_hal_disp.c ****     disp->driver->rotated = rotation;
 409:lvgl/lvgl/src/hal/lv_hal_disp.c ****     lv_disp_drv_update(disp, disp->driver);
 410:lvgl/lvgl/src/hal/lv_hal_disp.c **** }
 411:lvgl/lvgl/src/hal/lv_hal_disp.c **** 
 412:lvgl/lvgl/src/hal/lv_hal_disp.c **** /**
 413:lvgl/lvgl/src/hal/lv_hal_disp.c ****  * Get the current rotation of this display.
 414:lvgl/lvgl/src/hal/lv_hal_disp.c ****  * @param disp pointer to a display (NULL to use the default display)
 415:lvgl/lvgl/src/hal/lv_hal_disp.c ****  * @return rotation angle
 416:lvgl/lvgl/src/hal/lv_hal_disp.c ****  */
 417:lvgl/lvgl/src/hal/lv_hal_disp.c **** lv_disp_rot_t lv_disp_get_rotation(lv_disp_t * disp)
 418:lvgl/lvgl/src/hal/lv_hal_disp.c **** {
 419:lvgl/lvgl/src/hal/lv_hal_disp.c ****     if(disp == NULL) disp = lv_disp_get_default();
 420:lvgl/lvgl/src/hal/lv_hal_disp.c ****     if(disp == NULL) return LV_DISP_ROT_NONE;
 421:lvgl/lvgl/src/hal/lv_hal_disp.c ****     return disp->driver->rotated;
 422:lvgl/lvgl/src/hal/lv_hal_disp.c **** }
 423:lvgl/lvgl/src/hal/lv_hal_disp.c **** 
 424:lvgl/lvgl/src/hal/lv_hal_disp.c **** void lv_disp_drv_use_generic_set_px_cb(lv_disp_drv_t * disp_drv, lv_img_cf_t cf)
 425:lvgl/lvgl/src/hal/lv_hal_disp.c **** {
 426:lvgl/lvgl/src/hal/lv_hal_disp.c ****     switch(cf) {
 427:lvgl/lvgl/src/hal/lv_hal_disp.c ****         case LV_IMG_CF_TRUE_COLOR_ALPHA:
 428:lvgl/lvgl/src/hal/lv_hal_disp.c ****             disp_drv->set_px_cb = set_px_true_color_alpha;
 429:lvgl/lvgl/src/hal/lv_hal_disp.c ****             break;
ARM GAS  C:\Users\gx\AppData\Local\Temp\ccdv9jmC.s 			page 9


 430:lvgl/lvgl/src/hal/lv_hal_disp.c ****         case LV_IMG_CF_ALPHA_1BIT:
 431:lvgl/lvgl/src/hal/lv_hal_disp.c ****             disp_drv->set_px_cb = set_px_cb_alpha1;
 432:lvgl/lvgl/src/hal/lv_hal_disp.c ****             break;
 433:lvgl/lvgl/src/hal/lv_hal_disp.c ****         case LV_IMG_CF_ALPHA_2BIT:
 434:lvgl/lvgl/src/hal/lv_hal_disp.c ****             disp_drv->set_px_cb = set_px_cb_alpha2;
 435:lvgl/lvgl/src/hal/lv_hal_disp.c ****             break;
 436:lvgl/lvgl/src/hal/lv_hal_disp.c ****         case LV_IMG_CF_ALPHA_4BIT:
 437:lvgl/lvgl/src/hal/lv_hal_disp.c ****             disp_drv->set_px_cb = set_px_cb_alpha4;
 438:lvgl/lvgl/src/hal/lv_hal_disp.c ****             break;
 439:lvgl/lvgl/src/hal/lv_hal_disp.c ****         case LV_IMG_CF_ALPHA_8BIT:
 440:lvgl/lvgl/src/hal/lv_hal_disp.c ****             disp_drv->set_px_cb = set_px_cb_alpha8;
 441:lvgl/lvgl/src/hal/lv_hal_disp.c ****             break;
 442:lvgl/lvgl/src/hal/lv_hal_disp.c ****         default:
 443:lvgl/lvgl/src/hal/lv_hal_disp.c ****             disp_drv->set_px_cb = NULL;
 444:lvgl/lvgl/src/hal/lv_hal_disp.c ****     }
 445:lvgl/lvgl/src/hal/lv_hal_disp.c **** }
 446:lvgl/lvgl/src/hal/lv_hal_disp.c **** 
 447:lvgl/lvgl/src/hal/lv_hal_disp.c **** /**********************
 448:lvgl/lvgl/src/hal/lv_hal_disp.c ****  *   STATIC FUNCTIONS
 449:lvgl/lvgl/src/hal/lv_hal_disp.c ****  **********************/
 450:lvgl/lvgl/src/hal/lv_hal_disp.c **** 
 451:lvgl/lvgl/src/hal/lv_hal_disp.c **** static lv_obj_tree_walk_res_t invalidate_layout_cb(lv_obj_t * obj, void * user_data)
 452:lvgl/lvgl/src/hal/lv_hal_disp.c **** {
  29              		.loc 1 452 1 view -0
  30              		.cfi_startproc
  31              		@ args = 0, pretend = 0, frame = 0
  32              		@ frame_needed = 0, uses_anonymous_args = 0
  33              		.loc 1 452 1 is_stmt 0 view .LVU1
  34 0000 08B5     		push	{r3, lr}
  35              	.LCFI0:
  36              		.cfi_def_cfa_offset 8
  37              		.cfi_offset 3, -8
  38              		.cfi_offset 14, -4
 453:lvgl/lvgl/src/hal/lv_hal_disp.c ****     LV_UNUSED(user_data);
  39              		.loc 1 453 5 is_stmt 1 view .LVU2
 454:lvgl/lvgl/src/hal/lv_hal_disp.c ****     lv_obj_mark_layout_as_dirty(obj);
  40              		.loc 1 454 5 view .LVU3
  41 0002 FFF7FEFF 		bl	lv_obj_mark_layout_as_dirty
  42              	.LVL1:
 455:lvgl/lvgl/src/hal/lv_hal_disp.c ****     return LV_OBJ_TREE_WALK_NEXT;
  43              		.loc 1 455 5 view .LVU4
 456:lvgl/lvgl/src/hal/lv_hal_disp.c **** }
  44              		.loc 1 456 1 is_stmt 0 view .LVU5
  45 0006 0020     		movs	r0, #0
  46 0008 08BD     		pop	{r3, pc}
  47              		.cfi_endproc
  48              	.LFE170:
  50              		.section	.text.set_px_alpha_generic,"ax",%progbits
  51              		.align	1
  52              		.syntax unified
  53              		.thumb
  54              		.thumb_func
  55              		.fpu fpv4-sp-d16
  57              	set_px_alpha_generic:
  58              	.LVL2:
  59              	.LFB175:
 457:lvgl/lvgl/src/hal/lv_hal_disp.c **** 
ARM GAS  C:\Users\gx\AppData\Local\Temp\ccdv9jmC.s 			page 10


 458:lvgl/lvgl/src/hal/lv_hal_disp.c **** static void set_px_cb_alpha1(lv_disp_drv_t * disp_drv, uint8_t * buf, lv_coord_t buf_w, lv_coord_t 
 459:lvgl/lvgl/src/hal/lv_hal_disp.c ****                              lv_color_t color, lv_opa_t opa)
 460:lvgl/lvgl/src/hal/lv_hal_disp.c **** {
 461:lvgl/lvgl/src/hal/lv_hal_disp.c ****     (void) disp_drv; /*Unused*/
 462:lvgl/lvgl/src/hal/lv_hal_disp.c **** 
 463:lvgl/lvgl/src/hal/lv_hal_disp.c ****     if(opa <= LV_OPA_MIN) return;
 464:lvgl/lvgl/src/hal/lv_hal_disp.c ****     lv_img_dsc_t d;
 465:lvgl/lvgl/src/hal/lv_hal_disp.c ****     d.data = buf;
 466:lvgl/lvgl/src/hal/lv_hal_disp.c ****     d.header.w = buf_w;
 467:lvgl/lvgl/src/hal/lv_hal_disp.c ****     d.header.cf = LV_IMG_CF_ALPHA_1BIT;
 468:lvgl/lvgl/src/hal/lv_hal_disp.c **** 
 469:lvgl/lvgl/src/hal/lv_hal_disp.c ****     set_px_alpha_generic(&d, x, y, color, opa);
 470:lvgl/lvgl/src/hal/lv_hal_disp.c **** }
 471:lvgl/lvgl/src/hal/lv_hal_disp.c **** 
 472:lvgl/lvgl/src/hal/lv_hal_disp.c **** static void set_px_cb_alpha2(lv_disp_drv_t * disp_drv, uint8_t * buf, lv_coord_t buf_w, lv_coord_t 
 473:lvgl/lvgl/src/hal/lv_hal_disp.c ****                              lv_color_t color, lv_opa_t opa)
 474:lvgl/lvgl/src/hal/lv_hal_disp.c **** {
 475:lvgl/lvgl/src/hal/lv_hal_disp.c ****     (void) disp_drv; /*Unused*/
 476:lvgl/lvgl/src/hal/lv_hal_disp.c **** 
 477:lvgl/lvgl/src/hal/lv_hal_disp.c ****     if(opa <= LV_OPA_MIN) return;
 478:lvgl/lvgl/src/hal/lv_hal_disp.c ****     lv_img_dsc_t d;
 479:lvgl/lvgl/src/hal/lv_hal_disp.c ****     d.data = buf;
 480:lvgl/lvgl/src/hal/lv_hal_disp.c ****     d.header.w = buf_w;
 481:lvgl/lvgl/src/hal/lv_hal_disp.c ****     d.header.cf = LV_IMG_CF_ALPHA_2BIT;
 482:lvgl/lvgl/src/hal/lv_hal_disp.c **** 
 483:lvgl/lvgl/src/hal/lv_hal_disp.c ****     set_px_alpha_generic(&d, x, y, color, opa);
 484:lvgl/lvgl/src/hal/lv_hal_disp.c **** }
 485:lvgl/lvgl/src/hal/lv_hal_disp.c **** 
 486:lvgl/lvgl/src/hal/lv_hal_disp.c **** static void set_px_cb_alpha4(lv_disp_drv_t * disp_drv, uint8_t * buf, lv_coord_t buf_w, lv_coord_t 
 487:lvgl/lvgl/src/hal/lv_hal_disp.c ****                              lv_color_t color, lv_opa_t opa)
 488:lvgl/lvgl/src/hal/lv_hal_disp.c **** {
 489:lvgl/lvgl/src/hal/lv_hal_disp.c ****     (void) disp_drv; /*Unused*/
 490:lvgl/lvgl/src/hal/lv_hal_disp.c **** 
 491:lvgl/lvgl/src/hal/lv_hal_disp.c ****     if(opa <= LV_OPA_MIN) return;
 492:lvgl/lvgl/src/hal/lv_hal_disp.c ****     lv_img_dsc_t d;
 493:lvgl/lvgl/src/hal/lv_hal_disp.c ****     d.data = buf;
 494:lvgl/lvgl/src/hal/lv_hal_disp.c ****     d.header.w = buf_w;
 495:lvgl/lvgl/src/hal/lv_hal_disp.c ****     d.header.cf = LV_IMG_CF_ALPHA_4BIT;
 496:lvgl/lvgl/src/hal/lv_hal_disp.c **** 
 497:lvgl/lvgl/src/hal/lv_hal_disp.c ****     set_px_alpha_generic(&d, x, y, color, opa);
 498:lvgl/lvgl/src/hal/lv_hal_disp.c **** }
 499:lvgl/lvgl/src/hal/lv_hal_disp.c **** 
 500:lvgl/lvgl/src/hal/lv_hal_disp.c **** static void set_px_cb_alpha8(lv_disp_drv_t * disp_drv, uint8_t * buf, lv_coord_t buf_w, lv_coord_t 
 501:lvgl/lvgl/src/hal/lv_hal_disp.c ****                              lv_color_t color, lv_opa_t opa)
 502:lvgl/lvgl/src/hal/lv_hal_disp.c **** {
 503:lvgl/lvgl/src/hal/lv_hal_disp.c ****     (void) disp_drv; /*Unused*/
 504:lvgl/lvgl/src/hal/lv_hal_disp.c **** 
 505:lvgl/lvgl/src/hal/lv_hal_disp.c ****     if(opa <= LV_OPA_MIN) return;
 506:lvgl/lvgl/src/hal/lv_hal_disp.c ****     lv_img_dsc_t d;
 507:lvgl/lvgl/src/hal/lv_hal_disp.c ****     d.data = buf;
 508:lvgl/lvgl/src/hal/lv_hal_disp.c ****     d.header.w = buf_w;
 509:lvgl/lvgl/src/hal/lv_hal_disp.c ****     d.header.cf = LV_IMG_CF_ALPHA_8BIT;
 510:lvgl/lvgl/src/hal/lv_hal_disp.c **** 
 511:lvgl/lvgl/src/hal/lv_hal_disp.c ****     set_px_alpha_generic(&d, x, y, color, opa);
 512:lvgl/lvgl/src/hal/lv_hal_disp.c **** }
 513:lvgl/lvgl/src/hal/lv_hal_disp.c **** 
 514:lvgl/lvgl/src/hal/lv_hal_disp.c **** static void set_px_alpha_generic(lv_img_dsc_t * d, lv_coord_t x, lv_coord_t y, lv_color_t color, lv
ARM GAS  C:\Users\gx\AppData\Local\Temp\ccdv9jmC.s 			page 11


 515:lvgl/lvgl/src/hal/lv_hal_disp.c **** {
  60              		.loc 1 515 1 is_stmt 1 view -0
  61              		.cfi_startproc
  62              		@ args = 4, pretend = 0, frame = 0
  63              		@ frame_needed = 0, uses_anonymous_args = 0
  64              		.loc 1 515 1 is_stmt 0 view .LVU7
  65 0000 2DE9F041 		push	{r4, r5, r6, r7, r8, lr}
  66              	.LCFI1:
  67              		.cfi_def_cfa_offset 24
  68              		.cfi_offset 4, -24
  69              		.cfi_offset 5, -20
  70              		.cfi_offset 6, -16
  71              		.cfi_offset 7, -12
  72              		.cfi_offset 8, -8
  73              		.cfi_offset 14, -4
  74 0004 0446     		mov	r4, r0
  75 0006 0D46     		mov	r5, r1
  76 0008 1646     		mov	r6, r2
  77 000a 9DF81870 		ldrb	r7, [sp, #24]	@ zero_extendqisi2
 516:lvgl/lvgl/src/hal/lv_hal_disp.c ****     d->header.always_zero = 0;
  78              		.loc 1 516 5 is_stmt 1 view .LVU8
  79              		.loc 1 516 27 is_stmt 0 view .LVU9
  80 000e 0278     		ldrb	r2, [r0]	@ zero_extendqisi2
  81              	.LVL3:
  82              		.loc 1 516 27 view .LVU10
  83 0010 6FF34712 		bfc	r2, #5, #3
  84 0014 0270     		strb	r2, [r0]
 517:lvgl/lvgl/src/hal/lv_hal_disp.c ****     d->header.h = 1;    /*Doesn't matter*/
  85              		.loc 1 517 5 is_stmt 1 view .LVU11
  86              		.loc 1 517 17 is_stmt 0 view .LVU12
  87 0016 4288     		ldrh	r2, [r0, #2]
  88 0018 0121     		movs	r1, #1
  89              	.LVL4:
  90              		.loc 1 517 17 view .LVU13
  91 001a 61F34F12 		bfi	r2, r1, #5, #11
  92 001e 4280     		strh	r2, [r0, #2]	@ movhi
 518:lvgl/lvgl/src/hal/lv_hal_disp.c **** 
 519:lvgl/lvgl/src/hal/lv_hal_disp.c ****     uint8_t br = lv_color_brightness(color);
  93              		.loc 1 519 5 is_stmt 1 view .LVU14
  94              	.LBB37:
  95              	.LBI37:
  96              		.file 2 "lvgl/lvgl/src/hal/../draw/../misc/lv_color.h"
   1:lvgl/lvgl/src/hal/../draw/../misc/lv_color.h **** /**
   2:lvgl/lvgl/src/hal/../draw/../misc/lv_color.h ****  * @file lv_color.h
   3:lvgl/lvgl/src/hal/../draw/../misc/lv_color.h ****  *
   4:lvgl/lvgl/src/hal/../draw/../misc/lv_color.h ****  */
   5:lvgl/lvgl/src/hal/../draw/../misc/lv_color.h **** 
   6:lvgl/lvgl/src/hal/../draw/../misc/lv_color.h **** #ifndef LV_COLOR_H
   7:lvgl/lvgl/src/hal/../draw/../misc/lv_color.h **** #define LV_COLOR_H
   8:lvgl/lvgl/src/hal/../draw/../misc/lv_color.h **** 
   9:lvgl/lvgl/src/hal/../draw/../misc/lv_color.h **** #ifdef __cplusplus
  10:lvgl/lvgl/src/hal/../draw/../misc/lv_color.h **** extern "C" {
  11:lvgl/lvgl/src/hal/../draw/../misc/lv_color.h **** #endif
  12:lvgl/lvgl/src/hal/../draw/../misc/lv_color.h **** 
  13:lvgl/lvgl/src/hal/../draw/../misc/lv_color.h **** /*********************
  14:lvgl/lvgl/src/hal/../draw/../misc/lv_color.h ****  *      INCLUDES
  15:lvgl/lvgl/src/hal/../draw/../misc/lv_color.h ****  *********************/
ARM GAS  C:\Users\gx\AppData\Local\Temp\ccdv9jmC.s 			page 12


  16:lvgl/lvgl/src/hal/../draw/../misc/lv_color.h **** #include "../lv_conf_internal.h"
  17:lvgl/lvgl/src/hal/../draw/../misc/lv_color.h **** #include "lv_math.h"
  18:lvgl/lvgl/src/hal/../draw/../misc/lv_color.h **** #include "lv_types.h"
  19:lvgl/lvgl/src/hal/../draw/../misc/lv_color.h **** 
  20:lvgl/lvgl/src/hal/../draw/../misc/lv_color.h **** /*Error checking*/
  21:lvgl/lvgl/src/hal/../draw/../misc/lv_color.h **** #if LV_COLOR_DEPTH == 24
  22:lvgl/lvgl/src/hal/../draw/../misc/lv_color.h **** #error "LV_COLOR_DEPTH 24 is deprecated. Use LV_COLOR_DEPTH 32 instead (lv_conf.h)"
  23:lvgl/lvgl/src/hal/../draw/../misc/lv_color.h **** #endif
  24:lvgl/lvgl/src/hal/../draw/../misc/lv_color.h **** 
  25:lvgl/lvgl/src/hal/../draw/../misc/lv_color.h **** #if LV_COLOR_DEPTH != 32 && LV_COLOR_SCREEN_TRANSP != 0
  26:lvgl/lvgl/src/hal/../draw/../misc/lv_color.h **** #error "LV_COLOR_SCREEN_TRANSP requires LV_COLOR_DEPTH == 32. Set it in lv_conf.h"
  27:lvgl/lvgl/src/hal/../draw/../misc/lv_color.h **** #endif
  28:lvgl/lvgl/src/hal/../draw/../misc/lv_color.h **** 
  29:lvgl/lvgl/src/hal/../draw/../misc/lv_color.h **** #if LV_COLOR_DEPTH != 16 && LV_COLOR_16_SWAP != 0
  30:lvgl/lvgl/src/hal/../draw/../misc/lv_color.h **** #error "LV_COLOR_16_SWAP requires LV_COLOR_DEPTH == 16. Set it in lv_conf.h"
  31:lvgl/lvgl/src/hal/../draw/../misc/lv_color.h **** #endif
  32:lvgl/lvgl/src/hal/../draw/../misc/lv_color.h **** 
  33:lvgl/lvgl/src/hal/../draw/../misc/lv_color.h **** #include <stdint.h>
  34:lvgl/lvgl/src/hal/../draw/../misc/lv_color.h **** 
  35:lvgl/lvgl/src/hal/../draw/../misc/lv_color.h **** /*********************
  36:lvgl/lvgl/src/hal/../draw/../misc/lv_color.h ****  *      DEFINES
  37:lvgl/lvgl/src/hal/../draw/../misc/lv_color.h ****  *********************/
  38:lvgl/lvgl/src/hal/../draw/../misc/lv_color.h **** 
  39:lvgl/lvgl/src/hal/../draw/../misc/lv_color.h **** /**
  40:lvgl/lvgl/src/hal/../draw/../misc/lv_color.h ****  * Opacity percentages.
  41:lvgl/lvgl/src/hal/../draw/../misc/lv_color.h ****  */
  42:lvgl/lvgl/src/hal/../draw/../misc/lv_color.h **** enum {
  43:lvgl/lvgl/src/hal/../draw/../misc/lv_color.h ****     LV_OPA_TRANSP = 0,
  44:lvgl/lvgl/src/hal/../draw/../misc/lv_color.h ****     LV_OPA_0      = 0,
  45:lvgl/lvgl/src/hal/../draw/../misc/lv_color.h ****     LV_OPA_10     = 25,
  46:lvgl/lvgl/src/hal/../draw/../misc/lv_color.h ****     LV_OPA_20     = 51,
  47:lvgl/lvgl/src/hal/../draw/../misc/lv_color.h ****     LV_OPA_30     = 76,
  48:lvgl/lvgl/src/hal/../draw/../misc/lv_color.h ****     LV_OPA_40     = 102,
  49:lvgl/lvgl/src/hal/../draw/../misc/lv_color.h ****     LV_OPA_50     = 127,
  50:lvgl/lvgl/src/hal/../draw/../misc/lv_color.h ****     LV_OPA_60     = 153,
  51:lvgl/lvgl/src/hal/../draw/../misc/lv_color.h ****     LV_OPA_70     = 178,
  52:lvgl/lvgl/src/hal/../draw/../misc/lv_color.h ****     LV_OPA_80     = 204,
  53:lvgl/lvgl/src/hal/../draw/../misc/lv_color.h ****     LV_OPA_90     = 229,
  54:lvgl/lvgl/src/hal/../draw/../misc/lv_color.h ****     LV_OPA_100    = 255,
  55:lvgl/lvgl/src/hal/../draw/../misc/lv_color.h ****     LV_OPA_COVER  = 255,
  56:lvgl/lvgl/src/hal/../draw/../misc/lv_color.h **** };
  57:lvgl/lvgl/src/hal/../draw/../misc/lv_color.h **** 
  58:lvgl/lvgl/src/hal/../draw/../misc/lv_color.h **** #define LV_OPA_MIN 2    /*Opacities below this will be transparent*/
  59:lvgl/lvgl/src/hal/../draw/../misc/lv_color.h **** #define LV_OPA_MAX 253  /*Opacities above this will fully cover*/
  60:lvgl/lvgl/src/hal/../draw/../misc/lv_color.h **** 
  61:lvgl/lvgl/src/hal/../draw/../misc/lv_color.h **** #if LV_COLOR_DEPTH == 1
  62:lvgl/lvgl/src/hal/../draw/../misc/lv_color.h **** #define LV_COLOR_SIZE 8
  63:lvgl/lvgl/src/hal/../draw/../misc/lv_color.h **** #elif LV_COLOR_DEPTH == 8
  64:lvgl/lvgl/src/hal/../draw/../misc/lv_color.h **** #define LV_COLOR_SIZE 8
  65:lvgl/lvgl/src/hal/../draw/../misc/lv_color.h **** #elif LV_COLOR_DEPTH == 16
  66:lvgl/lvgl/src/hal/../draw/../misc/lv_color.h **** #define LV_COLOR_SIZE 16
  67:lvgl/lvgl/src/hal/../draw/../misc/lv_color.h **** #elif LV_COLOR_DEPTH == 32
  68:lvgl/lvgl/src/hal/../draw/../misc/lv_color.h **** #define LV_COLOR_SIZE 32
  69:lvgl/lvgl/src/hal/../draw/../misc/lv_color.h **** #else
  70:lvgl/lvgl/src/hal/../draw/../misc/lv_color.h **** #error "Invalid LV_COLOR_DEPTH in lv_conf.h! Set it to 1, 8, 16 or 32!"
  71:lvgl/lvgl/src/hal/../draw/../misc/lv_color.h **** #endif
  72:lvgl/lvgl/src/hal/../draw/../misc/lv_color.h **** 
ARM GAS  C:\Users\gx\AppData\Local\Temp\ccdv9jmC.s 			page 13


  73:lvgl/lvgl/src/hal/../draw/../misc/lv_color.h **** /**
  74:lvgl/lvgl/src/hal/../draw/../misc/lv_color.h ****  * Adjust color mix functions rounding.
  75:lvgl/lvgl/src/hal/../draw/../misc/lv_color.h ****  * GPUs might calculate color mix (blending) differently.
  76:lvgl/lvgl/src/hal/../draw/../misc/lv_color.h ****  * Should be in range of 0..254
  77:lvgl/lvgl/src/hal/../draw/../misc/lv_color.h ****  * 0: no adjustment, get the integer part of the result (round down)
  78:lvgl/lvgl/src/hal/../draw/../misc/lv_color.h ****  * 64: round up from x.75
  79:lvgl/lvgl/src/hal/../draw/../misc/lv_color.h ****  * 128: round up from half
  80:lvgl/lvgl/src/hal/../draw/../misc/lv_color.h ****  * 192: round up from x.25
  81:lvgl/lvgl/src/hal/../draw/../misc/lv_color.h ****  * 254: round up*/
  82:lvgl/lvgl/src/hal/../draw/../misc/lv_color.h **** #ifndef LV_COLOR_MIX_ROUND_OFS
  83:lvgl/lvgl/src/hal/../draw/../misc/lv_color.h **** #if LV_COLOR_DEPTH == 32
  84:lvgl/lvgl/src/hal/../draw/../misc/lv_color.h **** #define LV_COLOR_MIX_ROUND_OFS 0
  85:lvgl/lvgl/src/hal/../draw/../misc/lv_color.h **** #else
  86:lvgl/lvgl/src/hal/../draw/../misc/lv_color.h **** #define LV_COLOR_MIX_ROUND_OFS 128
  87:lvgl/lvgl/src/hal/../draw/../misc/lv_color.h **** #endif
  88:lvgl/lvgl/src/hal/../draw/../misc/lv_color.h **** #endif
  89:lvgl/lvgl/src/hal/../draw/../misc/lv_color.h **** 
  90:lvgl/lvgl/src/hal/../draw/../misc/lv_color.h **** #if defined(__cplusplus) && !defined(_LV_COLOR_HAS_MODERN_CPP)
  91:lvgl/lvgl/src/hal/../draw/../misc/lv_color.h **** /**
  92:lvgl/lvgl/src/hal/../draw/../misc/lv_color.h **** * MSVC compiler's definition of the __cplusplus indicating 199711L regardless to C++ standard versi
  93:lvgl/lvgl/src/hal/../draw/../misc/lv_color.h **** * see https://devblogs.microsoft.com/cppblog/msvc-now-correctly-reports-cplusplus
  94:lvgl/lvgl/src/hal/../draw/../misc/lv_color.h **** * so we use _MSC_VER macro instead of __cplusplus
  95:lvgl/lvgl/src/hal/../draw/../misc/lv_color.h **** */
  96:lvgl/lvgl/src/hal/../draw/../misc/lv_color.h **** #ifdef _MSC_VER
  97:lvgl/lvgl/src/hal/../draw/../misc/lv_color.h **** #if _MSC_VER >= 1900 /*Visual Studio 2015*/
  98:lvgl/lvgl/src/hal/../draw/../misc/lv_color.h **** #define _LV_COLOR_HAS_MODERN_CPP 1
  99:lvgl/lvgl/src/hal/../draw/../misc/lv_color.h **** #endif
 100:lvgl/lvgl/src/hal/../draw/../misc/lv_color.h **** #else
 101:lvgl/lvgl/src/hal/../draw/../misc/lv_color.h **** #if __cplusplus >= 201103L
 102:lvgl/lvgl/src/hal/../draw/../misc/lv_color.h **** #define _LV_COLOR_HAS_MODERN_CPP 1
 103:lvgl/lvgl/src/hal/../draw/../misc/lv_color.h **** #endif
 104:lvgl/lvgl/src/hal/../draw/../misc/lv_color.h **** #endif
 105:lvgl/lvgl/src/hal/../draw/../misc/lv_color.h **** #endif /*__cplusplus*/
 106:lvgl/lvgl/src/hal/../draw/../misc/lv_color.h **** 
 107:lvgl/lvgl/src/hal/../draw/../misc/lv_color.h **** #ifndef _LV_COLOR_HAS_MODERN_CPP
 108:lvgl/lvgl/src/hal/../draw/../misc/lv_color.h **** #define _LV_COLOR_HAS_MODERN_CPP 0
 109:lvgl/lvgl/src/hal/../draw/../misc/lv_color.h **** #endif
 110:lvgl/lvgl/src/hal/../draw/../misc/lv_color.h **** 
 111:lvgl/lvgl/src/hal/../draw/../misc/lv_color.h **** #if _LV_COLOR_HAS_MODERN_CPP
 112:lvgl/lvgl/src/hal/../draw/../misc/lv_color.h **** /*Fix msvc compiler error C4576 inside C++ code*/
 113:lvgl/lvgl/src/hal/../draw/../misc/lv_color.h **** #define _LV_COLOR_MAKE_TYPE_HELPER lv_color_t
 114:lvgl/lvgl/src/hal/../draw/../misc/lv_color.h **** #else
 115:lvgl/lvgl/src/hal/../draw/../misc/lv_color.h **** #define _LV_COLOR_MAKE_TYPE_HELPER (lv_color_t)
 116:lvgl/lvgl/src/hal/../draw/../misc/lv_color.h **** #endif
 117:lvgl/lvgl/src/hal/../draw/../misc/lv_color.h **** 
 118:lvgl/lvgl/src/hal/../draw/../misc/lv_color.h **** /*---------------------------------------
 119:lvgl/lvgl/src/hal/../draw/../misc/lv_color.h ****  * Macros for all existing color depths
 120:lvgl/lvgl/src/hal/../draw/../misc/lv_color.h ****  * to set/get values of the color channels
 121:lvgl/lvgl/src/hal/../draw/../misc/lv_color.h ****  *------------------------------------------*/
 122:lvgl/lvgl/src/hal/../draw/../misc/lv_color.h **** # define LV_COLOR_SET_R1(c, v) (c).ch.red = (uint8_t)((v) & 0x1)
 123:lvgl/lvgl/src/hal/../draw/../misc/lv_color.h **** # define LV_COLOR_SET_G1(c, v) (c).ch.green = (uint8_t)((v) & 0x1)
 124:lvgl/lvgl/src/hal/../draw/../misc/lv_color.h **** # define LV_COLOR_SET_B1(c, v) (c).ch.blue = (uint8_t)((v) & 0x1)
 125:lvgl/lvgl/src/hal/../draw/../misc/lv_color.h **** # define LV_COLOR_SET_A1(c, v) do {} while(0)
 126:lvgl/lvgl/src/hal/../draw/../misc/lv_color.h **** 
 127:lvgl/lvgl/src/hal/../draw/../misc/lv_color.h **** # define LV_COLOR_GET_R1(c) (c).ch.red
 128:lvgl/lvgl/src/hal/../draw/../misc/lv_color.h **** # define LV_COLOR_GET_G1(c) (c).ch.green
 129:lvgl/lvgl/src/hal/../draw/../misc/lv_color.h **** # define LV_COLOR_GET_B1(c) (c).ch.blue
ARM GAS  C:\Users\gx\AppData\Local\Temp\ccdv9jmC.s 			page 14


 130:lvgl/lvgl/src/hal/../draw/../misc/lv_color.h **** # define LV_COLOR_GET_A1(c) 0xFF
 131:lvgl/lvgl/src/hal/../draw/../misc/lv_color.h **** 
 132:lvgl/lvgl/src/hal/../draw/../misc/lv_color.h **** # define _LV_COLOR_ZERO_INITIALIZER1 {0x00}
 133:lvgl/lvgl/src/hal/../draw/../misc/lv_color.h **** # define LV_COLOR_MAKE1(r8, g8, b8)  {(uint8_t)((b8 >> 7) | (g8 >> 7) | (r8 >> 7))}
 134:lvgl/lvgl/src/hal/../draw/../misc/lv_color.h **** 
 135:lvgl/lvgl/src/hal/../draw/../misc/lv_color.h **** # define LV_COLOR_SET_R8(c, v) (c).ch.red = (uint8_t)((v) & 0x7U)
 136:lvgl/lvgl/src/hal/../draw/../misc/lv_color.h **** # define LV_COLOR_SET_G8(c, v) (c).ch.green = (uint8_t)((v) & 0x7U)
 137:lvgl/lvgl/src/hal/../draw/../misc/lv_color.h **** # define LV_COLOR_SET_B8(c, v) (c).ch.blue = (uint8_t)((v) & 0x3U)
 138:lvgl/lvgl/src/hal/../draw/../misc/lv_color.h **** # define LV_COLOR_SET_A8(c, v) do {} while(0)
 139:lvgl/lvgl/src/hal/../draw/../misc/lv_color.h **** 
 140:lvgl/lvgl/src/hal/../draw/../misc/lv_color.h **** # define LV_COLOR_GET_R8(c) (c).ch.red
 141:lvgl/lvgl/src/hal/../draw/../misc/lv_color.h **** # define LV_COLOR_GET_G8(c) (c).ch.green
 142:lvgl/lvgl/src/hal/../draw/../misc/lv_color.h **** # define LV_COLOR_GET_B8(c) (c).ch.blue
 143:lvgl/lvgl/src/hal/../draw/../misc/lv_color.h **** # define LV_COLOR_GET_A8(c) 0xFF
 144:lvgl/lvgl/src/hal/../draw/../misc/lv_color.h **** 
 145:lvgl/lvgl/src/hal/../draw/../misc/lv_color.h **** # define _LV_COLOR_ZERO_INITIALIZER8 {{0x00, 0x00, 0x00}}
 146:lvgl/lvgl/src/hal/../draw/../misc/lv_color.h **** # define LV_COLOR_MAKE8(r8, g8, b8) {{(uint8_t)((b8 >> 6) & 0x3U), (uint8_t)((g8 >> 5) & 0x7U), (ui
 147:lvgl/lvgl/src/hal/../draw/../misc/lv_color.h **** 
 148:lvgl/lvgl/src/hal/../draw/../misc/lv_color.h **** # define LV_COLOR_SET_R16(c, v) (c).ch.red = (uint8_t)((v) & 0x1FU)
 149:lvgl/lvgl/src/hal/../draw/../misc/lv_color.h **** #if LV_COLOR_16_SWAP == 0
 150:lvgl/lvgl/src/hal/../draw/../misc/lv_color.h **** # define LV_COLOR_SET_G16(c, v) (c).ch.green = (uint8_t)((v) & 0x3FU)
 151:lvgl/lvgl/src/hal/../draw/../misc/lv_color.h **** #else
 152:lvgl/lvgl/src/hal/../draw/../misc/lv_color.h **** # define LV_COLOR_SET_G16(c, v) {(c).ch.green_h = (uint8_t)(((v) >> 3) & 0x7); (c).ch.green_l = (ui
 153:lvgl/lvgl/src/hal/../draw/../misc/lv_color.h **** #endif
 154:lvgl/lvgl/src/hal/../draw/../misc/lv_color.h **** # define LV_COLOR_SET_B16(c, v) (c).ch.blue = (uint8_t)((v) & 0x1FU)
 155:lvgl/lvgl/src/hal/../draw/../misc/lv_color.h **** # define LV_COLOR_SET_A16(c, v) do {} while(0)
 156:lvgl/lvgl/src/hal/../draw/../misc/lv_color.h **** 
 157:lvgl/lvgl/src/hal/../draw/../misc/lv_color.h **** # define LV_COLOR_GET_R16(c) (c).ch.red
 158:lvgl/lvgl/src/hal/../draw/../misc/lv_color.h **** #if LV_COLOR_16_SWAP == 0
 159:lvgl/lvgl/src/hal/../draw/../misc/lv_color.h **** # define LV_COLOR_GET_G16(c) (c).ch.green
 160:lvgl/lvgl/src/hal/../draw/../misc/lv_color.h **** #else
 161:lvgl/lvgl/src/hal/../draw/../misc/lv_color.h **** # define LV_COLOR_GET_G16(c) (((c).ch.green_h << 3) + (c).ch.green_l)
 162:lvgl/lvgl/src/hal/../draw/../misc/lv_color.h **** #endif
 163:lvgl/lvgl/src/hal/../draw/../misc/lv_color.h **** # define LV_COLOR_GET_B16(c) (c).ch.blue
 164:lvgl/lvgl/src/hal/../draw/../misc/lv_color.h **** # define LV_COLOR_GET_A16(c) 0xFF
 165:lvgl/lvgl/src/hal/../draw/../misc/lv_color.h **** 
 166:lvgl/lvgl/src/hal/../draw/../misc/lv_color.h **** #if LV_COLOR_16_SWAP == 0
 167:lvgl/lvgl/src/hal/../draw/../misc/lv_color.h **** # define _LV_COLOR_ZERO_INITIALIZER16  {{0x00, 0x00, 0x00}}
 168:lvgl/lvgl/src/hal/../draw/../misc/lv_color.h **** # define LV_COLOR_MAKE16(r8, g8, b8) {{(uint8_t)((b8 >> 3) & 0x1FU), (uint8_t)((g8 >> 2) & 0x3FU), 
 169:lvgl/lvgl/src/hal/../draw/../misc/lv_color.h **** #else
 170:lvgl/lvgl/src/hal/../draw/../misc/lv_color.h **** # define _LV_COLOR_ZERO_INITIALIZER16 {{0x00, 0x00, 0x00, 0x00}}
 171:lvgl/lvgl/src/hal/../draw/../misc/lv_color.h **** # define LV_COLOR_MAKE16(r8, g8, b8) {{(uint8_t)((g8 >> 5) & 0x7U), (uint8_t)((r8 >> 3) & 0x1FU), (
 172:lvgl/lvgl/src/hal/../draw/../misc/lv_color.h **** #endif
 173:lvgl/lvgl/src/hal/../draw/../misc/lv_color.h **** 
 174:lvgl/lvgl/src/hal/../draw/../misc/lv_color.h **** # define LV_COLOR_SET_R32(c, v) (c).ch.red = (uint8_t)((v) & 0xFF)
 175:lvgl/lvgl/src/hal/../draw/../misc/lv_color.h **** # define LV_COLOR_SET_G32(c, v) (c).ch.green = (uint8_t)((v) & 0xFF)
 176:lvgl/lvgl/src/hal/../draw/../misc/lv_color.h **** # define LV_COLOR_SET_B32(c, v) (c).ch.blue = (uint8_t)((v) & 0xFF)
 177:lvgl/lvgl/src/hal/../draw/../misc/lv_color.h **** # define LV_COLOR_SET_A32(c, v) (c).ch.alpha = (uint8_t)((v) & 0xFF)
 178:lvgl/lvgl/src/hal/../draw/../misc/lv_color.h **** 
 179:lvgl/lvgl/src/hal/../draw/../misc/lv_color.h **** # define LV_COLOR_GET_R32(c) (c).ch.red
 180:lvgl/lvgl/src/hal/../draw/../misc/lv_color.h **** # define LV_COLOR_GET_G32(c) (c).ch.green
 181:lvgl/lvgl/src/hal/../draw/../misc/lv_color.h **** # define LV_COLOR_GET_B32(c) (c).ch.blue
 182:lvgl/lvgl/src/hal/../draw/../misc/lv_color.h **** # define LV_COLOR_GET_A32(c) (c).ch.alpha
 183:lvgl/lvgl/src/hal/../draw/../misc/lv_color.h **** 
 184:lvgl/lvgl/src/hal/../draw/../misc/lv_color.h **** # define _LV_COLOR_ZERO_INITIALIZER32  {{0x00, 0x00, 0x00, 0x00}}
 185:lvgl/lvgl/src/hal/../draw/../misc/lv_color.h **** # define LV_COLOR_MAKE32(r8, g8, b8) {{b8, g8, r8, 0xff}} /*Fix 0xff alpha*/
 186:lvgl/lvgl/src/hal/../draw/../misc/lv_color.h **** 
ARM GAS  C:\Users\gx\AppData\Local\Temp\ccdv9jmC.s 			page 15


 187:lvgl/lvgl/src/hal/../draw/../misc/lv_color.h **** /*---------------------------------------
 188:lvgl/lvgl/src/hal/../draw/../misc/lv_color.h ****  * Macros for the current color depth
 189:lvgl/lvgl/src/hal/../draw/../misc/lv_color.h ****  * to set/get values of the color channels
 190:lvgl/lvgl/src/hal/../draw/../misc/lv_color.h ****  *------------------------------------------*/
 191:lvgl/lvgl/src/hal/../draw/../misc/lv_color.h **** #define LV_COLOR_SET_R(c, v) LV_CONCAT(LV_COLOR_SET_R, LV_COLOR_DEPTH)(c, v)
 192:lvgl/lvgl/src/hal/../draw/../misc/lv_color.h **** #define LV_COLOR_SET_G(c, v) LV_CONCAT(LV_COLOR_SET_G, LV_COLOR_DEPTH)(c, v)
 193:lvgl/lvgl/src/hal/../draw/../misc/lv_color.h **** #define LV_COLOR_SET_B(c, v) LV_CONCAT(LV_COLOR_SET_B, LV_COLOR_DEPTH)(c, v)
 194:lvgl/lvgl/src/hal/../draw/../misc/lv_color.h **** #define LV_COLOR_SET_A(c, v) LV_CONCAT(LV_COLOR_SET_A, LV_COLOR_DEPTH)(c, v)
 195:lvgl/lvgl/src/hal/../draw/../misc/lv_color.h **** 
 196:lvgl/lvgl/src/hal/../draw/../misc/lv_color.h **** #define LV_COLOR_GET_R(c) LV_CONCAT(LV_COLOR_GET_R, LV_COLOR_DEPTH)(c)
 197:lvgl/lvgl/src/hal/../draw/../misc/lv_color.h **** #define LV_COLOR_GET_G(c) LV_CONCAT(LV_COLOR_GET_G, LV_COLOR_DEPTH)(c)
 198:lvgl/lvgl/src/hal/../draw/../misc/lv_color.h **** #define LV_COLOR_GET_B(c) LV_CONCAT(LV_COLOR_GET_B, LV_COLOR_DEPTH)(c)
 199:lvgl/lvgl/src/hal/../draw/../misc/lv_color.h **** #define LV_COLOR_GET_A(c) LV_CONCAT(LV_COLOR_GET_A, LV_COLOR_DEPTH)(c)
 200:lvgl/lvgl/src/hal/../draw/../misc/lv_color.h **** 
 201:lvgl/lvgl/src/hal/../draw/../misc/lv_color.h **** #define _LV_COLOR_ZERO_INITIALIZER LV_CONCAT(_LV_COLOR_ZERO_INITIALIZER, LV_COLOR_DEPTH)
 202:lvgl/lvgl/src/hal/../draw/../misc/lv_color.h **** #define LV_COLOR_MAKE(r8, g8, b8) LV_CONCAT(LV_COLOR_MAKE, LV_COLOR_DEPTH)(r8, g8, b8)
 203:lvgl/lvgl/src/hal/../draw/../misc/lv_color.h **** 
 204:lvgl/lvgl/src/hal/../draw/../misc/lv_color.h **** #define LV_UDIV255(x) ((uint32_t)((uint32_t) (x) * 0x8081) >> 0x17)
 205:lvgl/lvgl/src/hal/../draw/../misc/lv_color.h **** 
 206:lvgl/lvgl/src/hal/../draw/../misc/lv_color.h **** /**********************
 207:lvgl/lvgl/src/hal/../draw/../misc/lv_color.h ****  *      TYPEDEFS
 208:lvgl/lvgl/src/hal/../draw/../misc/lv_color.h ****  **********************/
 209:lvgl/lvgl/src/hal/../draw/../misc/lv_color.h **** 
 210:lvgl/lvgl/src/hal/../draw/../misc/lv_color.h **** typedef union {
 211:lvgl/lvgl/src/hal/../draw/../misc/lv_color.h ****     uint8_t full; /*must be declared first to set all bits of byte via initializer list*/
 212:lvgl/lvgl/src/hal/../draw/../misc/lv_color.h ****     union {
 213:lvgl/lvgl/src/hal/../draw/../misc/lv_color.h ****         uint8_t blue : 1;
 214:lvgl/lvgl/src/hal/../draw/../misc/lv_color.h ****         uint8_t green : 1;
 215:lvgl/lvgl/src/hal/../draw/../misc/lv_color.h ****         uint8_t red : 1;
 216:lvgl/lvgl/src/hal/../draw/../misc/lv_color.h ****     } ch;
 217:lvgl/lvgl/src/hal/../draw/../misc/lv_color.h **** } lv_color1_t;
 218:lvgl/lvgl/src/hal/../draw/../misc/lv_color.h **** 
 219:lvgl/lvgl/src/hal/../draw/../misc/lv_color.h **** typedef union {
 220:lvgl/lvgl/src/hal/../draw/../misc/lv_color.h ****     struct {
 221:lvgl/lvgl/src/hal/../draw/../misc/lv_color.h ****         uint8_t blue : 2;
 222:lvgl/lvgl/src/hal/../draw/../misc/lv_color.h ****         uint8_t green : 3;
 223:lvgl/lvgl/src/hal/../draw/../misc/lv_color.h ****         uint8_t red : 3;
 224:lvgl/lvgl/src/hal/../draw/../misc/lv_color.h ****     } ch;
 225:lvgl/lvgl/src/hal/../draw/../misc/lv_color.h ****     uint8_t full;
 226:lvgl/lvgl/src/hal/../draw/../misc/lv_color.h **** } lv_color8_t;
 227:lvgl/lvgl/src/hal/../draw/../misc/lv_color.h **** 
 228:lvgl/lvgl/src/hal/../draw/../misc/lv_color.h **** typedef union {
 229:lvgl/lvgl/src/hal/../draw/../misc/lv_color.h ****     struct {
 230:lvgl/lvgl/src/hal/../draw/../misc/lv_color.h **** #if LV_COLOR_16_SWAP == 0
 231:lvgl/lvgl/src/hal/../draw/../misc/lv_color.h ****         uint16_t blue : 5;
 232:lvgl/lvgl/src/hal/../draw/../misc/lv_color.h ****         uint16_t green : 6;
 233:lvgl/lvgl/src/hal/../draw/../misc/lv_color.h ****         uint16_t red : 5;
 234:lvgl/lvgl/src/hal/../draw/../misc/lv_color.h **** #else
 235:lvgl/lvgl/src/hal/../draw/../misc/lv_color.h ****         uint16_t green_h : 3;
 236:lvgl/lvgl/src/hal/../draw/../misc/lv_color.h ****         uint16_t red : 5;
 237:lvgl/lvgl/src/hal/../draw/../misc/lv_color.h ****         uint16_t blue : 5;
 238:lvgl/lvgl/src/hal/../draw/../misc/lv_color.h ****         uint16_t green_l : 3;
 239:lvgl/lvgl/src/hal/../draw/../misc/lv_color.h **** #endif
 240:lvgl/lvgl/src/hal/../draw/../misc/lv_color.h ****     } ch;
 241:lvgl/lvgl/src/hal/../draw/../misc/lv_color.h ****     uint16_t full;
 242:lvgl/lvgl/src/hal/../draw/../misc/lv_color.h **** } lv_color16_t;
 243:lvgl/lvgl/src/hal/../draw/../misc/lv_color.h **** 
ARM GAS  C:\Users\gx\AppData\Local\Temp\ccdv9jmC.s 			page 16


 244:lvgl/lvgl/src/hal/../draw/../misc/lv_color.h **** typedef union {
 245:lvgl/lvgl/src/hal/../draw/../misc/lv_color.h ****     struct {
 246:lvgl/lvgl/src/hal/../draw/../misc/lv_color.h ****         uint8_t blue;
 247:lvgl/lvgl/src/hal/../draw/../misc/lv_color.h ****         uint8_t green;
 248:lvgl/lvgl/src/hal/../draw/../misc/lv_color.h ****         uint8_t red;
 249:lvgl/lvgl/src/hal/../draw/../misc/lv_color.h ****         uint8_t alpha;
 250:lvgl/lvgl/src/hal/../draw/../misc/lv_color.h ****     } ch;
 251:lvgl/lvgl/src/hal/../draw/../misc/lv_color.h ****     uint32_t full;
 252:lvgl/lvgl/src/hal/../draw/../misc/lv_color.h **** } lv_color32_t;
 253:lvgl/lvgl/src/hal/../draw/../misc/lv_color.h **** 
 254:lvgl/lvgl/src/hal/../draw/../misc/lv_color.h **** typedef LV_CONCAT3(uint, LV_COLOR_SIZE, _t) lv_color_int_t;
 255:lvgl/lvgl/src/hal/../draw/../misc/lv_color.h **** typedef LV_CONCAT3(lv_color, LV_COLOR_DEPTH, _t) lv_color_t;
 256:lvgl/lvgl/src/hal/../draw/../misc/lv_color.h **** 
 257:lvgl/lvgl/src/hal/../draw/../misc/lv_color.h **** typedef struct {
 258:lvgl/lvgl/src/hal/../draw/../misc/lv_color.h ****     uint16_t h;
 259:lvgl/lvgl/src/hal/../draw/../misc/lv_color.h ****     uint8_t s;
 260:lvgl/lvgl/src/hal/../draw/../misc/lv_color.h ****     uint8_t v;
 261:lvgl/lvgl/src/hal/../draw/../misc/lv_color.h **** } lv_color_hsv_t;
 262:lvgl/lvgl/src/hal/../draw/../misc/lv_color.h **** 
 263:lvgl/lvgl/src/hal/../draw/../misc/lv_color.h **** //! @cond Doxygen_Suppress
 264:lvgl/lvgl/src/hal/../draw/../misc/lv_color.h **** /*No idea where the guard is required but else throws warnings in the docs*/
 265:lvgl/lvgl/src/hal/../draw/../misc/lv_color.h **** typedef uint8_t lv_opa_t;
 266:lvgl/lvgl/src/hal/../draw/../misc/lv_color.h **** //! @endcond
 267:lvgl/lvgl/src/hal/../draw/../misc/lv_color.h **** 
 268:lvgl/lvgl/src/hal/../draw/../misc/lv_color.h **** struct _lv_color_filter_dsc_t;
 269:lvgl/lvgl/src/hal/../draw/../misc/lv_color.h **** 
 270:lvgl/lvgl/src/hal/../draw/../misc/lv_color.h **** typedef lv_color_t (*lv_color_filter_cb_t)(const struct _lv_color_filter_dsc_t *, lv_color_t, lv_op
 271:lvgl/lvgl/src/hal/../draw/../misc/lv_color.h **** 
 272:lvgl/lvgl/src/hal/../draw/../misc/lv_color.h **** typedef struct _lv_color_filter_dsc_t {
 273:lvgl/lvgl/src/hal/../draw/../misc/lv_color.h ****     lv_color_filter_cb_t filter_cb;
 274:lvgl/lvgl/src/hal/../draw/../misc/lv_color.h ****     void * user_data;
 275:lvgl/lvgl/src/hal/../draw/../misc/lv_color.h **** }lv_color_filter_dsc_t;
 276:lvgl/lvgl/src/hal/../draw/../misc/lv_color.h **** 
 277:lvgl/lvgl/src/hal/../draw/../misc/lv_color.h **** 
 278:lvgl/lvgl/src/hal/../draw/../misc/lv_color.h **** typedef enum {
 279:lvgl/lvgl/src/hal/../draw/../misc/lv_color.h ****     LV_PALETTE_RED,
 280:lvgl/lvgl/src/hal/../draw/../misc/lv_color.h ****     LV_PALETTE_PINK,
 281:lvgl/lvgl/src/hal/../draw/../misc/lv_color.h ****     LV_PALETTE_PURPLE,
 282:lvgl/lvgl/src/hal/../draw/../misc/lv_color.h ****     LV_PALETTE_DEEP_PURPLE,
 283:lvgl/lvgl/src/hal/../draw/../misc/lv_color.h ****     LV_PALETTE_INDIGO,
 284:lvgl/lvgl/src/hal/../draw/../misc/lv_color.h ****     LV_PALETTE_BLUE,
 285:lvgl/lvgl/src/hal/../draw/../misc/lv_color.h ****     LV_PALETTE_LIGHT_BLUE,
 286:lvgl/lvgl/src/hal/../draw/../misc/lv_color.h ****     LV_PALETTE_CYAN,
 287:lvgl/lvgl/src/hal/../draw/../misc/lv_color.h ****     LV_PALETTE_TEAL,
 288:lvgl/lvgl/src/hal/../draw/../misc/lv_color.h ****     LV_PALETTE_GREEN,
 289:lvgl/lvgl/src/hal/../draw/../misc/lv_color.h ****     LV_PALETTE_LIGHT_GREEN,
 290:lvgl/lvgl/src/hal/../draw/../misc/lv_color.h ****     LV_PALETTE_LIME,
 291:lvgl/lvgl/src/hal/../draw/../misc/lv_color.h ****     LV_PALETTE_YELLOW,
 292:lvgl/lvgl/src/hal/../draw/../misc/lv_color.h ****     LV_PALETTE_AMBER,
 293:lvgl/lvgl/src/hal/../draw/../misc/lv_color.h ****     LV_PALETTE_ORANGE,
 294:lvgl/lvgl/src/hal/../draw/../misc/lv_color.h ****     LV_PALETTE_DEEP_ORANGE,
 295:lvgl/lvgl/src/hal/../draw/../misc/lv_color.h ****     LV_PALETTE_BROWN,
 296:lvgl/lvgl/src/hal/../draw/../misc/lv_color.h ****     LV_PALETTE_BLUE_GREY,
 297:lvgl/lvgl/src/hal/../draw/../misc/lv_color.h ****     LV_PALETTE_GREY,
 298:lvgl/lvgl/src/hal/../draw/../misc/lv_color.h ****     _LV_PALETTE_LAST,
 299:lvgl/lvgl/src/hal/../draw/../misc/lv_color.h ****     LV_PALETTE_NONE = 0xff,
 300:lvgl/lvgl/src/hal/../draw/../misc/lv_color.h **** }lv_palette_t;
ARM GAS  C:\Users\gx\AppData\Local\Temp\ccdv9jmC.s 			page 17


 301:lvgl/lvgl/src/hal/../draw/../misc/lv_color.h **** 
 302:lvgl/lvgl/src/hal/../draw/../misc/lv_color.h **** /**********************
 303:lvgl/lvgl/src/hal/../draw/../misc/lv_color.h ****  * GLOBAL PROTOTYPES
 304:lvgl/lvgl/src/hal/../draw/../misc/lv_color.h ****  **********************/
 305:lvgl/lvgl/src/hal/../draw/../misc/lv_color.h **** 
 306:lvgl/lvgl/src/hal/../draw/../misc/lv_color.h **** /*In color conversations:
 307:lvgl/lvgl/src/hal/../draw/../misc/lv_color.h ****  * - When converting to bigger color type the LSB weight of 1 LSB is calculated
 308:lvgl/lvgl/src/hal/../draw/../misc/lv_color.h ****  *   E.g. 16 bit Red has 5 bits
 309:lvgl/lvgl/src/hal/../draw/../misc/lv_color.h ****  *         8 bit Red has 3 bits
 310:lvgl/lvgl/src/hal/../draw/../misc/lv_color.h ****  *        ----------------------
 311:lvgl/lvgl/src/hal/../draw/../misc/lv_color.h ****  *        8 bit red LSB = (2^5 - 1) / (2^3 - 1) = 31 / 7 = 4
 312:lvgl/lvgl/src/hal/../draw/../misc/lv_color.h ****  *
 313:lvgl/lvgl/src/hal/../draw/../misc/lv_color.h ****  * - When calculating to smaller color type simply shift out the LSBs
 314:lvgl/lvgl/src/hal/../draw/../misc/lv_color.h ****  *   E.g.  8 bit Red has 3 bits
 315:lvgl/lvgl/src/hal/../draw/../misc/lv_color.h ****  *        16 bit Red has 5 bits
 316:lvgl/lvgl/src/hal/../draw/../misc/lv_color.h ****  *        ----------------------
 317:lvgl/lvgl/src/hal/../draw/../misc/lv_color.h ****  *         Shift right with 5 - 3 = 2
 318:lvgl/lvgl/src/hal/../draw/../misc/lv_color.h ****  */
 319:lvgl/lvgl/src/hal/../draw/../misc/lv_color.h **** static inline uint8_t lv_color_to1(lv_color_t color)
 320:lvgl/lvgl/src/hal/../draw/../misc/lv_color.h **** {
 321:lvgl/lvgl/src/hal/../draw/../misc/lv_color.h **** #if LV_COLOR_DEPTH == 1
 322:lvgl/lvgl/src/hal/../draw/../misc/lv_color.h ****     return color.full;
 323:lvgl/lvgl/src/hal/../draw/../misc/lv_color.h **** #elif LV_COLOR_DEPTH == 8
 324:lvgl/lvgl/src/hal/../draw/../misc/lv_color.h ****     if((LV_COLOR_GET_R(color) & 0x4) || (LV_COLOR_GET_G(color) & 0x4) || (LV_COLOR_GET_B(color) & 0
 325:lvgl/lvgl/src/hal/../draw/../misc/lv_color.h ****         return 1;
 326:lvgl/lvgl/src/hal/../draw/../misc/lv_color.h ****     }
 327:lvgl/lvgl/src/hal/../draw/../misc/lv_color.h ****     else {
 328:lvgl/lvgl/src/hal/../draw/../misc/lv_color.h ****         return 0;
 329:lvgl/lvgl/src/hal/../draw/../misc/lv_color.h ****     }
 330:lvgl/lvgl/src/hal/../draw/../misc/lv_color.h **** #elif LV_COLOR_DEPTH == 16
 331:lvgl/lvgl/src/hal/../draw/../misc/lv_color.h ****     if((LV_COLOR_GET_R(color) & 0x10) || (LV_COLOR_GET_G(color) & 0x20) || (LV_COLOR_GET_B(color) &
 332:lvgl/lvgl/src/hal/../draw/../misc/lv_color.h ****         return 1;
 333:lvgl/lvgl/src/hal/../draw/../misc/lv_color.h ****     }
 334:lvgl/lvgl/src/hal/../draw/../misc/lv_color.h ****     else {
 335:lvgl/lvgl/src/hal/../draw/../misc/lv_color.h ****         return 0;
 336:lvgl/lvgl/src/hal/../draw/../misc/lv_color.h ****     }
 337:lvgl/lvgl/src/hal/../draw/../misc/lv_color.h **** #elif LV_COLOR_DEPTH == 32
 338:lvgl/lvgl/src/hal/../draw/../misc/lv_color.h ****     if((LV_COLOR_GET_R(color) & 0x80) || (LV_COLOR_GET_G(color) & 0x80) || (LV_COLOR_GET_B(color) &
 339:lvgl/lvgl/src/hal/../draw/../misc/lv_color.h ****         return 1;
 340:lvgl/lvgl/src/hal/../draw/../misc/lv_color.h ****     }
 341:lvgl/lvgl/src/hal/../draw/../misc/lv_color.h ****     else {
 342:lvgl/lvgl/src/hal/../draw/../misc/lv_color.h ****         return 0;
 343:lvgl/lvgl/src/hal/../draw/../misc/lv_color.h ****     }
 344:lvgl/lvgl/src/hal/../draw/../misc/lv_color.h **** #endif
 345:lvgl/lvgl/src/hal/../draw/../misc/lv_color.h **** }
 346:lvgl/lvgl/src/hal/../draw/../misc/lv_color.h **** 
 347:lvgl/lvgl/src/hal/../draw/../misc/lv_color.h **** static inline uint8_t lv_color_to8(lv_color_t color)
 348:lvgl/lvgl/src/hal/../draw/../misc/lv_color.h **** {
 349:lvgl/lvgl/src/hal/../draw/../misc/lv_color.h **** #if LV_COLOR_DEPTH == 1
 350:lvgl/lvgl/src/hal/../draw/../misc/lv_color.h ****     if(color.full == 0)
 351:lvgl/lvgl/src/hal/../draw/../misc/lv_color.h ****         return 0;
 352:lvgl/lvgl/src/hal/../draw/../misc/lv_color.h ****     else
 353:lvgl/lvgl/src/hal/../draw/../misc/lv_color.h ****         return 0xFF;
 354:lvgl/lvgl/src/hal/../draw/../misc/lv_color.h **** #elif LV_COLOR_DEPTH == 8
 355:lvgl/lvgl/src/hal/../draw/../misc/lv_color.h ****     return color.full;
 356:lvgl/lvgl/src/hal/../draw/../misc/lv_color.h **** #elif LV_COLOR_DEPTH == 16
 357:lvgl/lvgl/src/hal/../draw/../misc/lv_color.h ****     lv_color8_t ret;
ARM GAS  C:\Users\gx\AppData\Local\Temp\ccdv9jmC.s 			page 18


 358:lvgl/lvgl/src/hal/../draw/../misc/lv_color.h ****     LV_COLOR_SET_R8(ret, LV_COLOR_GET_R(color) >> 2); /*5 - 3  = 2*/
 359:lvgl/lvgl/src/hal/../draw/../misc/lv_color.h ****     LV_COLOR_SET_G8(ret, LV_COLOR_GET_G(color) >> 3); /*6 - 3  = 3*/
 360:lvgl/lvgl/src/hal/../draw/../misc/lv_color.h ****     LV_COLOR_SET_B8(ret, LV_COLOR_GET_B(color) >> 3); /*5 - 2  = 3*/
 361:lvgl/lvgl/src/hal/../draw/../misc/lv_color.h ****     return ret.full;
 362:lvgl/lvgl/src/hal/../draw/../misc/lv_color.h **** #elif LV_COLOR_DEPTH == 32
 363:lvgl/lvgl/src/hal/../draw/../misc/lv_color.h ****     lv_color8_t ret;
 364:lvgl/lvgl/src/hal/../draw/../misc/lv_color.h ****     LV_COLOR_SET_R8(ret, LV_COLOR_GET_R(color) >> 5); /*8 - 3  = 5*/
 365:lvgl/lvgl/src/hal/../draw/../misc/lv_color.h ****     LV_COLOR_SET_G8(ret, LV_COLOR_GET_G(color) >> 5); /*8 - 3  = 5*/
 366:lvgl/lvgl/src/hal/../draw/../misc/lv_color.h ****     LV_COLOR_SET_B8(ret, LV_COLOR_GET_B(color) >> 6); /*8 - 2  = 6*/
 367:lvgl/lvgl/src/hal/../draw/../misc/lv_color.h ****     return ret.full;
 368:lvgl/lvgl/src/hal/../draw/../misc/lv_color.h **** #endif
 369:lvgl/lvgl/src/hal/../draw/../misc/lv_color.h **** }
 370:lvgl/lvgl/src/hal/../draw/../misc/lv_color.h **** 
 371:lvgl/lvgl/src/hal/../draw/../misc/lv_color.h **** static inline uint16_t lv_color_to16(lv_color_t color)
 372:lvgl/lvgl/src/hal/../draw/../misc/lv_color.h **** {
 373:lvgl/lvgl/src/hal/../draw/../misc/lv_color.h **** #if LV_COLOR_DEPTH == 1
 374:lvgl/lvgl/src/hal/../draw/../misc/lv_color.h ****     if(color.full == 0)
 375:lvgl/lvgl/src/hal/../draw/../misc/lv_color.h ****         return 0;
 376:lvgl/lvgl/src/hal/../draw/../misc/lv_color.h ****     else
 377:lvgl/lvgl/src/hal/../draw/../misc/lv_color.h ****         return 0xFFFF;
 378:lvgl/lvgl/src/hal/../draw/../misc/lv_color.h **** #elif LV_COLOR_DEPTH == 8
 379:lvgl/lvgl/src/hal/../draw/../misc/lv_color.h ****     lv_color16_t ret;
 380:lvgl/lvgl/src/hal/../draw/../misc/lv_color.h ****     LV_COLOR_SET_R16(ret, LV_COLOR_GET_R(color) * 4);  /*(2^5 - 1)/(2^3 - 1) = 31/7 = 4*/
 381:lvgl/lvgl/src/hal/../draw/../misc/lv_color.h ****     LV_COLOR_SET_G16(ret, LV_COLOR_GET_G(color) * 9);  /*(2^6 - 1)/(2^3 - 1) = 63/7 = 9*/
 382:lvgl/lvgl/src/hal/../draw/../misc/lv_color.h ****     LV_COLOR_SET_B16(ret, LV_COLOR_GET_B(color) * 10); /*(2^5 - 1)/(2^2 - 1) = 31/3 = 10*/
 383:lvgl/lvgl/src/hal/../draw/../misc/lv_color.h ****     return ret.full;
 384:lvgl/lvgl/src/hal/../draw/../misc/lv_color.h **** #elif LV_COLOR_DEPTH == 16
 385:lvgl/lvgl/src/hal/../draw/../misc/lv_color.h ****     return color.full;
 386:lvgl/lvgl/src/hal/../draw/../misc/lv_color.h **** #elif LV_COLOR_DEPTH == 32
 387:lvgl/lvgl/src/hal/../draw/../misc/lv_color.h ****     lv_color16_t ret;
 388:lvgl/lvgl/src/hal/../draw/../misc/lv_color.h ****     LV_COLOR_SET_R16(ret, LV_COLOR_GET_R(color) >> 3); /*8 - 5  = 3*/
 389:lvgl/lvgl/src/hal/../draw/../misc/lv_color.h ****     LV_COLOR_SET_G16(ret, LV_COLOR_GET_G(color) >> 2); /*8 - 6  = 2*/
 390:lvgl/lvgl/src/hal/../draw/../misc/lv_color.h ****     LV_COLOR_SET_B16(ret, LV_COLOR_GET_B(color) >> 3); /*8 - 5  = 3*/
 391:lvgl/lvgl/src/hal/../draw/../misc/lv_color.h ****     return ret.full;
 392:lvgl/lvgl/src/hal/../draw/../misc/lv_color.h **** #endif
 393:lvgl/lvgl/src/hal/../draw/../misc/lv_color.h **** }
 394:lvgl/lvgl/src/hal/../draw/../misc/lv_color.h **** 
 395:lvgl/lvgl/src/hal/../draw/../misc/lv_color.h **** static inline uint32_t lv_color_to32(lv_color_t color)
 396:lvgl/lvgl/src/hal/../draw/../misc/lv_color.h **** {
 397:lvgl/lvgl/src/hal/../draw/../misc/lv_color.h **** #if LV_COLOR_DEPTH == 1
 398:lvgl/lvgl/src/hal/../draw/../misc/lv_color.h ****     if(color.full == 0)
 399:lvgl/lvgl/src/hal/../draw/../misc/lv_color.h ****         return 0xFF000000;
 400:lvgl/lvgl/src/hal/../draw/../misc/lv_color.h ****     else
 401:lvgl/lvgl/src/hal/../draw/../misc/lv_color.h ****         return 0xFFFFFFFF;
 402:lvgl/lvgl/src/hal/../draw/../misc/lv_color.h **** #elif LV_COLOR_DEPTH == 8
 403:lvgl/lvgl/src/hal/../draw/../misc/lv_color.h ****     lv_color32_t ret;
 404:lvgl/lvgl/src/hal/../draw/../misc/lv_color.h ****     LV_COLOR_SET_R32(ret, LV_COLOR_GET_R(color) * 36); /*(2^8 - 1)/(2^3 - 1) = 255/7 = 36*/
 405:lvgl/lvgl/src/hal/../draw/../misc/lv_color.h ****     LV_COLOR_SET_G32(ret, LV_COLOR_GET_G(color) * 36); /*(2^8 - 1)/(2^3 - 1) = 255/7 = 36*/
 406:lvgl/lvgl/src/hal/../draw/../misc/lv_color.h ****     LV_COLOR_SET_B32(ret, LV_COLOR_GET_B(color) * 85); /*(2^8 - 1)/(2^2 - 1) = 255/3 = 85*/
 407:lvgl/lvgl/src/hal/../draw/../misc/lv_color.h ****     LV_COLOR_SET_A32(ret, 0xFF);
 408:lvgl/lvgl/src/hal/../draw/../misc/lv_color.h ****     return ret.full;
 409:lvgl/lvgl/src/hal/../draw/../misc/lv_color.h **** #elif LV_COLOR_DEPTH == 16
 410:lvgl/lvgl/src/hal/../draw/../misc/lv_color.h ****     /**
 411:lvgl/lvgl/src/hal/../draw/../misc/lv_color.h ****      * The floating point math for conversion is:
 412:lvgl/lvgl/src/hal/../draw/../misc/lv_color.h ****      *  valueto = valuefrom * ( (2^bitsto - 1) / (float)(2^bitsfrom - 1) )
 413:lvgl/lvgl/src/hal/../draw/../misc/lv_color.h ****      * The faster integer math for conversion is:
 414:lvgl/lvgl/src/hal/../draw/../misc/lv_color.h ****      *  valueto = ( valuefrom * multiplier + adder ) >> divisor
ARM GAS  C:\Users\gx\AppData\Local\Temp\ccdv9jmC.s 			page 19


 415:lvgl/lvgl/src/hal/../draw/../misc/lv_color.h ****      *   multiplier = FLOOR( ( (2^bitsto - 1) << divisor ) / (float)(2^bitsfrom - 1) )
 416:lvgl/lvgl/src/hal/../draw/../misc/lv_color.h ****      *
 417:lvgl/lvgl/src/hal/../draw/../misc/lv_color.h ****      * Find the first divisor where ( adder >> divisor ) <= 0
 418:lvgl/lvgl/src/hal/../draw/../misc/lv_color.h ****      *
 419:lvgl/lvgl/src/hal/../draw/../misc/lv_color.h ****      * 5-bit to 8-bit: ( 31 * multiplier + adder ) >> divisor = 255
 420:lvgl/lvgl/src/hal/../draw/../misc/lv_color.h ****      * divisor  multiplier  adder  min (0)  max (31)
 421:lvgl/lvgl/src/hal/../draw/../misc/lv_color.h ****      *       0           8      7        7       255
 422:lvgl/lvgl/src/hal/../draw/../misc/lv_color.h ****      *       1          16     14        7       255
 423:lvgl/lvgl/src/hal/../draw/../misc/lv_color.h ****      *       2          32     28        7       255
 424:lvgl/lvgl/src/hal/../draw/../misc/lv_color.h ****      *       3          65     25        3       255
 425:lvgl/lvgl/src/hal/../draw/../misc/lv_color.h ****      *       4         131     19        1       255
 426:lvgl/lvgl/src/hal/../draw/../misc/lv_color.h ****      *       5         263      7        0       255
 427:lvgl/lvgl/src/hal/../draw/../misc/lv_color.h ****      *
 428:lvgl/lvgl/src/hal/../draw/../misc/lv_color.h ****      * 6-bit to 8-bit: 255 = ( 63 * multiplier + adder ) >> divisor
 429:lvgl/lvgl/src/hal/../draw/../misc/lv_color.h ****      * divisor  multiplier  adder  min (0)  max (63)
 430:lvgl/lvgl/src/hal/../draw/../misc/lv_color.h ****      *       0           4      3        3       255
 431:lvgl/lvgl/src/hal/../draw/../misc/lv_color.h ****      *       1           8      6        3       255
 432:lvgl/lvgl/src/hal/../draw/../misc/lv_color.h ****      *       2          16     12        3       255
 433:lvgl/lvgl/src/hal/../draw/../misc/lv_color.h ****      *       3          32     24        3       255
 434:lvgl/lvgl/src/hal/../draw/../misc/lv_color.h ****      *       4          64     48        3       255
 435:lvgl/lvgl/src/hal/../draw/../misc/lv_color.h ****      *       5         129     33        1       255
 436:lvgl/lvgl/src/hal/../draw/../misc/lv_color.h ****      *       6         259      3        0       255
 437:lvgl/lvgl/src/hal/../draw/../misc/lv_color.h ****      */
 438:lvgl/lvgl/src/hal/../draw/../misc/lv_color.h **** 
 439:lvgl/lvgl/src/hal/../draw/../misc/lv_color.h ****     lv_color32_t ret;
 440:lvgl/lvgl/src/hal/../draw/../misc/lv_color.h ****     LV_COLOR_SET_R32(ret, (LV_COLOR_GET_R(color) * 263 + 7) >> 5);
 441:lvgl/lvgl/src/hal/../draw/../misc/lv_color.h ****     LV_COLOR_SET_G32(ret, (LV_COLOR_GET_G(color) * 259 + 3) >> 6);
 442:lvgl/lvgl/src/hal/../draw/../misc/lv_color.h ****     LV_COLOR_SET_B32(ret, (LV_COLOR_GET_B(color) * 263 + 7) >> 5);
 443:lvgl/lvgl/src/hal/../draw/../misc/lv_color.h ****     LV_COLOR_SET_A32(ret, 0xFF);
 444:lvgl/lvgl/src/hal/../draw/../misc/lv_color.h ****     return ret.full;
 445:lvgl/lvgl/src/hal/../draw/../misc/lv_color.h **** #elif LV_COLOR_DEPTH == 32
 446:lvgl/lvgl/src/hal/../draw/../misc/lv_color.h ****     return color.full;
 447:lvgl/lvgl/src/hal/../draw/../misc/lv_color.h **** #endif
 448:lvgl/lvgl/src/hal/../draw/../misc/lv_color.h **** }
 449:lvgl/lvgl/src/hal/../draw/../misc/lv_color.h **** 
 450:lvgl/lvgl/src/hal/../draw/../misc/lv_color.h **** //! @cond Doxygen_Suppress
 451:lvgl/lvgl/src/hal/../draw/../misc/lv_color.h **** 
 452:lvgl/lvgl/src/hal/../draw/../misc/lv_color.h **** /**
 453:lvgl/lvgl/src/hal/../draw/../misc/lv_color.h ****  * Mix two colors with a given ratio.
 454:lvgl/lvgl/src/hal/../draw/../misc/lv_color.h ****  * @param c1 the first color to mix (usually the foreground)
 455:lvgl/lvgl/src/hal/../draw/../misc/lv_color.h ****  * @param c2 the second color to mix (usually the background)
 456:lvgl/lvgl/src/hal/../draw/../misc/lv_color.h ****  * @param mix The ratio of the colors. 0: full `c2`, 255: full `c1`, 127: half `c1` and half`c2`
 457:lvgl/lvgl/src/hal/../draw/../misc/lv_color.h ****  * @return the mixed color
 458:lvgl/lvgl/src/hal/../draw/../misc/lv_color.h ****  */
 459:lvgl/lvgl/src/hal/../draw/../misc/lv_color.h **** LV_ATTRIBUTE_FAST_MEM static inline lv_color_t lv_color_mix(lv_color_t c1, lv_color_t c2, uint8_t m
 460:lvgl/lvgl/src/hal/../draw/../misc/lv_color.h **** {
 461:lvgl/lvgl/src/hal/../draw/../misc/lv_color.h ****     lv_color_t ret;
 462:lvgl/lvgl/src/hal/../draw/../misc/lv_color.h **** 
 463:lvgl/lvgl/src/hal/../draw/../misc/lv_color.h **** #if LV_COLOR_DEPTH == 16 && LV_COLOR_16_SWAP == 0
 464:lvgl/lvgl/src/hal/../draw/../misc/lv_color.h ****     /*Source: https://stackoverflow.com/a/50012418/1999969*/
 465:lvgl/lvgl/src/hal/../draw/../misc/lv_color.h ****     mix = ( mix + 4 ) >> 3;
 466:lvgl/lvgl/src/hal/../draw/../misc/lv_color.h ****     uint32_t bg = (uint32_t)((uint32_t)c2.full | ((uint32_t)c2.full << 16)) & 0x7E0F81F; /*0b000001
 467:lvgl/lvgl/src/hal/../draw/../misc/lv_color.h ****     uint32_t fg = (uint32_t)((uint32_t)c1.full | (uint32_t)(c1.full << 16)) & 0x7E0F81F;
 468:lvgl/lvgl/src/hal/../draw/../misc/lv_color.h ****     uint32_t result = ((((fg - bg) * mix) >> 5) + bg) & 0x7E0F81F;
 469:lvgl/lvgl/src/hal/../draw/../misc/lv_color.h ****     ret.full = (uint16_t)((result >> 16) | result);
 470:lvgl/lvgl/src/hal/../draw/../misc/lv_color.h **** #elif LV_COLOR_DEPTH != 1
 471:lvgl/lvgl/src/hal/../draw/../misc/lv_color.h ****     /*LV_COLOR_DEPTH == 8, 16 or 32*/
ARM GAS  C:\Users\gx\AppData\Local\Temp\ccdv9jmC.s 			page 20


 472:lvgl/lvgl/src/hal/../draw/../misc/lv_color.h ****     LV_COLOR_SET_R(ret, LV_UDIV255((uint16_t) LV_COLOR_GET_R(c1) * mix + LV_COLOR_GET_R(c2) *
 473:lvgl/lvgl/src/hal/../draw/../misc/lv_color.h ****                                         (255 - mix) + LV_COLOR_MIX_ROUND_OFS));
 474:lvgl/lvgl/src/hal/../draw/../misc/lv_color.h ****     LV_COLOR_SET_G(ret, LV_UDIV255((uint16_t) LV_COLOR_GET_G(c1) * mix + LV_COLOR_GET_G(c2) *
 475:lvgl/lvgl/src/hal/../draw/../misc/lv_color.h ****                                         (255 - mix) + LV_COLOR_MIX_ROUND_OFS));
 476:lvgl/lvgl/src/hal/../draw/../misc/lv_color.h ****     LV_COLOR_SET_B(ret, LV_UDIV255((uint16_t) LV_COLOR_GET_B(c1) * mix + LV_COLOR_GET_B(c2) *
 477:lvgl/lvgl/src/hal/../draw/../misc/lv_color.h ****                                         (255 - mix) + LV_COLOR_MIX_ROUND_OFS));
 478:lvgl/lvgl/src/hal/../draw/../misc/lv_color.h ****     LV_COLOR_SET_A(ret, 0xFF);
 479:lvgl/lvgl/src/hal/../draw/../misc/lv_color.h **** #else
 480:lvgl/lvgl/src/hal/../draw/../misc/lv_color.h ****     /*LV_COLOR_DEPTH == 1*/
 481:lvgl/lvgl/src/hal/../draw/../misc/lv_color.h ****     ret.full = mix > LV_OPA_50 ? c1.full : c2.full;
 482:lvgl/lvgl/src/hal/../draw/../misc/lv_color.h **** #endif
 483:lvgl/lvgl/src/hal/../draw/../misc/lv_color.h **** 
 484:lvgl/lvgl/src/hal/../draw/../misc/lv_color.h ****     return ret;
 485:lvgl/lvgl/src/hal/../draw/../misc/lv_color.h **** }
 486:lvgl/lvgl/src/hal/../draw/../misc/lv_color.h **** 
 487:lvgl/lvgl/src/hal/../draw/../misc/lv_color.h **** LV_ATTRIBUTE_FAST_MEM static inline void lv_color_premult(lv_color_t c, uint8_t mix, uint16_t * out
 488:lvgl/lvgl/src/hal/../draw/../misc/lv_color.h **** {
 489:lvgl/lvgl/src/hal/../draw/../misc/lv_color.h **** #if LV_COLOR_DEPTH != 1
 490:lvgl/lvgl/src/hal/../draw/../misc/lv_color.h ****     out[0] = (uint16_t) LV_COLOR_GET_R(c) * mix;
 491:lvgl/lvgl/src/hal/../draw/../misc/lv_color.h ****     out[1] = (uint16_t) LV_COLOR_GET_G(c) * mix;
 492:lvgl/lvgl/src/hal/../draw/../misc/lv_color.h ****     out[2] = (uint16_t) LV_COLOR_GET_B(c) * mix;
 493:lvgl/lvgl/src/hal/../draw/../misc/lv_color.h **** #else
 494:lvgl/lvgl/src/hal/../draw/../misc/lv_color.h ****     (void) mix;
 495:lvgl/lvgl/src/hal/../draw/../misc/lv_color.h ****     /*Pre-multiplication can't be used with 1 bpp*/
 496:lvgl/lvgl/src/hal/../draw/../misc/lv_color.h ****     out[0] = LV_COLOR_GET_R(c);
 497:lvgl/lvgl/src/hal/../draw/../misc/lv_color.h ****     out[1] = LV_COLOR_GET_G(c);
 498:lvgl/lvgl/src/hal/../draw/../misc/lv_color.h ****     out[2] = LV_COLOR_GET_B(c);
 499:lvgl/lvgl/src/hal/../draw/../misc/lv_color.h **** #endif
 500:lvgl/lvgl/src/hal/../draw/../misc/lv_color.h **** 
 501:lvgl/lvgl/src/hal/../draw/../misc/lv_color.h **** }
 502:lvgl/lvgl/src/hal/../draw/../misc/lv_color.h **** 
 503:lvgl/lvgl/src/hal/../draw/../misc/lv_color.h **** /**
 504:lvgl/lvgl/src/hal/../draw/../misc/lv_color.h ****  * Mix two colors with a given ratio. It runs faster then `lv_color_mix` but requires some pre comp
 505:lvgl/lvgl/src/hal/../draw/../misc/lv_color.h ****  * @param premult_c1 The first color. Should be preprocessed with `lv_color_premult(c1)`
 506:lvgl/lvgl/src/hal/../draw/../misc/lv_color.h ****  * @param c2 The second color. As it is no pre computation required on it
 507:lvgl/lvgl/src/hal/../draw/../misc/lv_color.h ****  * @param mix The ratio of the colors. 0: full `c1`, 255: full `c2`, 127: half `c1` and half `c2`.
 508:lvgl/lvgl/src/hal/../draw/../misc/lv_color.h ****  *            Should be modified like mix = `255 - mix`
 509:lvgl/lvgl/src/hal/../draw/../misc/lv_color.h ****  * @return the mixed color
 510:lvgl/lvgl/src/hal/../draw/../misc/lv_color.h ****  * @note 255 won't give clearly `c1`.
 511:lvgl/lvgl/src/hal/../draw/../misc/lv_color.h ****  */
 512:lvgl/lvgl/src/hal/../draw/../misc/lv_color.h **** LV_ATTRIBUTE_FAST_MEM static inline lv_color_t lv_color_mix_premult(uint16_t * premult_c1, lv_color
 513:lvgl/lvgl/src/hal/../draw/../misc/lv_color.h **** {
 514:lvgl/lvgl/src/hal/../draw/../misc/lv_color.h ****     lv_color_t ret;
 515:lvgl/lvgl/src/hal/../draw/../misc/lv_color.h **** #if LV_COLOR_DEPTH == 16 && LV_COLOR_16_SWAP == 0
 516:lvgl/lvgl/src/hal/../draw/../misc/lv_color.h ****     /*For compatibility with lv_color_mix on 16 bit color depth*/
 517:lvgl/lvgl/src/hal/../draw/../misc/lv_color.h ****     LV_COLOR_SET_R(ret, (premult_c1[0] + LV_COLOR_GET_R(c2) * mix) >> 8);
 518:lvgl/lvgl/src/hal/../draw/../misc/lv_color.h ****     LV_COLOR_SET_G(ret, (premult_c1[1] + LV_COLOR_GET_G(c2) * mix) >> 8);
 519:lvgl/lvgl/src/hal/../draw/../misc/lv_color.h ****     LV_COLOR_SET_B(ret, (premult_c1[2] + LV_COLOR_GET_B(c2) * mix) >> 8);
 520:lvgl/lvgl/src/hal/../draw/../misc/lv_color.h **** #elif LV_COLOR_DEPTH != 1
 521:lvgl/lvgl/src/hal/../draw/../misc/lv_color.h ****     /*LV_COLOR_DEPTH == 8 or 32*/
 522:lvgl/lvgl/src/hal/../draw/../misc/lv_color.h ****     LV_COLOR_SET_R(ret, LV_UDIV255(premult_c1[0] + LV_COLOR_GET_R(c2) * mix + LV_COLOR_MIX_ROUND_OF
 523:lvgl/lvgl/src/hal/../draw/../misc/lv_color.h ****     LV_COLOR_SET_G(ret, LV_UDIV255(premult_c1[1] + LV_COLOR_GET_G(c2) * mix + LV_COLOR_MIX_ROUND_OF
 524:lvgl/lvgl/src/hal/../draw/../misc/lv_color.h ****     LV_COLOR_SET_B(ret, LV_UDIV255(premult_c1[2] + LV_COLOR_GET_B(c2) * mix + LV_COLOR_MIX_ROUND_OF
 525:lvgl/lvgl/src/hal/../draw/../misc/lv_color.h ****     LV_COLOR_SET_A(ret, 0xFF);
 526:lvgl/lvgl/src/hal/../draw/../misc/lv_color.h **** #else
 527:lvgl/lvgl/src/hal/../draw/../misc/lv_color.h ****     /*LV_COLOR_DEPTH == 1*/
 528:lvgl/lvgl/src/hal/../draw/../misc/lv_color.h ****     /*Restore color1*/
ARM GAS  C:\Users\gx\AppData\Local\Temp\ccdv9jmC.s 			page 21


 529:lvgl/lvgl/src/hal/../draw/../misc/lv_color.h ****     lv_color_t c1;
 530:lvgl/lvgl/src/hal/../draw/../misc/lv_color.h ****     LV_COLOR_SET_R(c1, premult_c1[0]);
 531:lvgl/lvgl/src/hal/../draw/../misc/lv_color.h ****     LV_COLOR_SET_G(c1, premult_c1[1]);
 532:lvgl/lvgl/src/hal/../draw/../misc/lv_color.h ****     LV_COLOR_SET_B(c1, premult_c1[2]);
 533:lvgl/lvgl/src/hal/../draw/../misc/lv_color.h ****     ret.full = mix > LV_OPA_50 ? c2.full : c1.full;
 534:lvgl/lvgl/src/hal/../draw/../misc/lv_color.h **** #endif
 535:lvgl/lvgl/src/hal/../draw/../misc/lv_color.h **** 
 536:lvgl/lvgl/src/hal/../draw/../misc/lv_color.h ****     return ret;
 537:lvgl/lvgl/src/hal/../draw/../misc/lv_color.h **** }
 538:lvgl/lvgl/src/hal/../draw/../misc/lv_color.h **** 
 539:lvgl/lvgl/src/hal/../draw/../misc/lv_color.h **** /**
 540:lvgl/lvgl/src/hal/../draw/../misc/lv_color.h ****  * Mix two colors. Both color can have alpha value.
 541:lvgl/lvgl/src/hal/../draw/../misc/lv_color.h ****  * @param bg_color background color
 542:lvgl/lvgl/src/hal/../draw/../misc/lv_color.h ****  * @param bg_opa alpha of the background color
 543:lvgl/lvgl/src/hal/../draw/../misc/lv_color.h ****  * @param fg_color foreground color
 544:lvgl/lvgl/src/hal/../draw/../misc/lv_color.h ****  * @param fg_opa alpha of the foreground color
 545:lvgl/lvgl/src/hal/../draw/../misc/lv_color.h ****  * @param res_color the result color
 546:lvgl/lvgl/src/hal/../draw/../misc/lv_color.h ****  * @param res_opa the result opacity
 547:lvgl/lvgl/src/hal/../draw/../misc/lv_color.h ****  */
 548:lvgl/lvgl/src/hal/../draw/../misc/lv_color.h **** LV_ATTRIBUTE_FAST_MEM static inline void lv_color_mix_with_alpha(lv_color_t bg_color, lv_opa_t bg_o
 549:lvgl/lvgl/src/hal/../draw/../misc/lv_color.h ****                                                                  lv_color_t fg_color, lv_opa_t fg_o
 550:lvgl/lvgl/src/hal/../draw/../misc/lv_color.h ****                                                                  lv_color_t * res_color, lv_opa_t *
 551:lvgl/lvgl/src/hal/../draw/../misc/lv_color.h **** {
 552:lvgl/lvgl/src/hal/../draw/../misc/lv_color.h ****     /*Pick the foreground if it's fully opaque or the Background is fully transparent*/
 553:lvgl/lvgl/src/hal/../draw/../misc/lv_color.h ****     if(fg_opa >= LV_OPA_MAX || bg_opa <= LV_OPA_MIN) {
 554:lvgl/lvgl/src/hal/../draw/../misc/lv_color.h ****         res_color->full = fg_color.full;
 555:lvgl/lvgl/src/hal/../draw/../misc/lv_color.h ****         *res_opa = fg_opa;
 556:lvgl/lvgl/src/hal/../draw/../misc/lv_color.h ****     }
 557:lvgl/lvgl/src/hal/../draw/../misc/lv_color.h ****     /*Transparent foreground: use the Background*/
 558:lvgl/lvgl/src/hal/../draw/../misc/lv_color.h ****     else if(fg_opa <= LV_OPA_MIN) {
 559:lvgl/lvgl/src/hal/../draw/../misc/lv_color.h ****         res_color->full = bg_color.full;
 560:lvgl/lvgl/src/hal/../draw/../misc/lv_color.h ****         *res_opa = bg_opa;
 561:lvgl/lvgl/src/hal/../draw/../misc/lv_color.h ****     }
 562:lvgl/lvgl/src/hal/../draw/../misc/lv_color.h ****     /*Opaque background: use simple mix*/
 563:lvgl/lvgl/src/hal/../draw/../misc/lv_color.h ****     else if(bg_opa >= LV_OPA_MAX) {
 564:lvgl/lvgl/src/hal/../draw/../misc/lv_color.h ****         *res_color = lv_color_mix(fg_color, bg_color, fg_opa);
 565:lvgl/lvgl/src/hal/../draw/../misc/lv_color.h ****         *res_opa = LV_OPA_COVER;
 566:lvgl/lvgl/src/hal/../draw/../misc/lv_color.h ****     }
 567:lvgl/lvgl/src/hal/../draw/../misc/lv_color.h ****     /*Both colors have alpha. Expensive calculation need to be applied*/
 568:lvgl/lvgl/src/hal/../draw/../misc/lv_color.h ****     else {
 569:lvgl/lvgl/src/hal/../draw/../misc/lv_color.h ****         /*Save the parameters and the result. If they will be asked again don't compute again*/
 570:lvgl/lvgl/src/hal/../draw/../misc/lv_color.h ****         static lv_opa_t fg_opa_save     = 0;
 571:lvgl/lvgl/src/hal/../draw/../misc/lv_color.h ****         static lv_opa_t bg_opa_save     = 0;
 572:lvgl/lvgl/src/hal/../draw/../misc/lv_color.h ****         static lv_color_t fg_color_save = _LV_COLOR_ZERO_INITIALIZER;
 573:lvgl/lvgl/src/hal/../draw/../misc/lv_color.h ****         static lv_color_t bg_color_save = _LV_COLOR_ZERO_INITIALIZER;
 574:lvgl/lvgl/src/hal/../draw/../misc/lv_color.h ****         static lv_color_t res_color_saved = _LV_COLOR_ZERO_INITIALIZER;
 575:lvgl/lvgl/src/hal/../draw/../misc/lv_color.h ****         static lv_opa_t res_opa_saved = 0;
 576:lvgl/lvgl/src/hal/../draw/../misc/lv_color.h **** 
 577:lvgl/lvgl/src/hal/../draw/../misc/lv_color.h ****         if(fg_opa != fg_opa_save || bg_opa != bg_opa_save || fg_color.full != fg_color_save.full ||
 578:lvgl/lvgl/src/hal/../draw/../misc/lv_color.h ****            bg_color.full != bg_color_save.full) {
 579:lvgl/lvgl/src/hal/../draw/../misc/lv_color.h ****             fg_opa_save        = fg_opa;
 580:lvgl/lvgl/src/hal/../draw/../misc/lv_color.h ****             bg_opa_save        = bg_opa;
 581:lvgl/lvgl/src/hal/../draw/../misc/lv_color.h ****             fg_color_save.full = fg_color.full;
 582:lvgl/lvgl/src/hal/../draw/../misc/lv_color.h ****             bg_color_save.full = bg_color.full;
 583:lvgl/lvgl/src/hal/../draw/../misc/lv_color.h ****             /*Info:
 584:lvgl/lvgl/src/hal/../draw/../misc/lv_color.h ****              * https://en.wikipedia.org/wiki/Alpha_compositing#Analytical_derivation_of_the_over_op
 585:lvgl/lvgl/src/hal/../draw/../misc/lv_color.h ****             res_opa_saved = 255 - ((uint16_t)((uint16_t)(255 - fg_opa) * (255 - bg_opa)) >> 8);
ARM GAS  C:\Users\gx\AppData\Local\Temp\ccdv9jmC.s 			page 22


 586:lvgl/lvgl/src/hal/../draw/../misc/lv_color.h ****             if(res_opa_saved == 0) {
 587:lvgl/lvgl/src/hal/../draw/../misc/lv_color.h ****                 while(1)
 588:lvgl/lvgl/src/hal/../draw/../misc/lv_color.h ****                     ;
 589:lvgl/lvgl/src/hal/../draw/../misc/lv_color.h ****             }
 590:lvgl/lvgl/src/hal/../draw/../misc/lv_color.h ****             lv_opa_t ratio = (uint16_t)((uint16_t)fg_opa * 255) / res_opa_saved;
 591:lvgl/lvgl/src/hal/../draw/../misc/lv_color.h ****             res_color_saved = lv_color_mix(fg_color, bg_color, ratio);
 592:lvgl/lvgl/src/hal/../draw/../misc/lv_color.h **** 
 593:lvgl/lvgl/src/hal/../draw/../misc/lv_color.h ****         }
 594:lvgl/lvgl/src/hal/../draw/../misc/lv_color.h **** 
 595:lvgl/lvgl/src/hal/../draw/../misc/lv_color.h ****         res_color->full = res_color_saved.full;
 596:lvgl/lvgl/src/hal/../draw/../misc/lv_color.h ****         *res_opa = res_opa_saved;
 597:lvgl/lvgl/src/hal/../draw/../misc/lv_color.h ****     }
 598:lvgl/lvgl/src/hal/../draw/../misc/lv_color.h **** }
 599:lvgl/lvgl/src/hal/../draw/../misc/lv_color.h **** 
 600:lvgl/lvgl/src/hal/../draw/../misc/lv_color.h **** //! @endcond
 601:lvgl/lvgl/src/hal/../draw/../misc/lv_color.h **** 
 602:lvgl/lvgl/src/hal/../draw/../misc/lv_color.h **** /**
 603:lvgl/lvgl/src/hal/../draw/../misc/lv_color.h ****  * Get the brightness of a color
 604:lvgl/lvgl/src/hal/../draw/../misc/lv_color.h ****  * @param color a color
 605:lvgl/lvgl/src/hal/../draw/../misc/lv_color.h ****  * @return the brightness [0..255]
 606:lvgl/lvgl/src/hal/../draw/../misc/lv_color.h ****  */
 607:lvgl/lvgl/src/hal/../draw/../misc/lv_color.h **** static inline uint8_t lv_color_brightness(lv_color_t color)
  97              		.loc 2 607 23 view .LVU15
  98              	.LBB38:
 608:lvgl/lvgl/src/hal/../draw/../misc/lv_color.h **** {
 609:lvgl/lvgl/src/hal/../draw/../misc/lv_color.h ****     lv_color32_t c32;
  99              		.loc 2 609 5 view .LVU16
 610:lvgl/lvgl/src/hal/../draw/../misc/lv_color.h ****     c32.full        = lv_color_to32(color);
 100              		.loc 2 610 5 view .LVU17
 101              	.LBB39:
 102              	.LBI39:
 395:lvgl/lvgl/src/hal/../draw/../misc/lv_color.h **** {
 103              		.loc 2 395 24 view .LVU18
 104              	.LBB40:
 439:lvgl/lvgl/src/hal/../draw/../misc/lv_color.h ****     LV_COLOR_SET_R32(ret, (LV_COLOR_GET_R(color) * 263 + 7) >> 5);
 105              		.loc 2 439 5 view .LVU19
 440:lvgl/lvgl/src/hal/../draw/../misc/lv_color.h ****     LV_COLOR_SET_G32(ret, (LV_COLOR_GET_G(color) * 259 + 3) >> 6);
 106              		.loc 2 440 5 view .LVU20
 107 0020 C3F3C422 		ubfx	r2, r3, #11, #5
 108 0024 02EB4211 		add	r1, r2, r2, lsl #5
 109 0028 C2EBC101 		rsb	r1, r2, r1, lsl #3
 110 002c 0731     		adds	r1, r1, #7
 111 002e C1F34711 		ubfx	r1, r1, #5, #8
 112 0032 0022     		movs	r2, #0
 113              	.LVL5:
 440:lvgl/lvgl/src/hal/../draw/../misc/lv_color.h ****     LV_COLOR_SET_G32(ret, (LV_COLOR_GET_G(color) * 259 + 3) >> 6);
 114              		.loc 2 440 5 is_stmt 0 view .LVU21
 115 0034 61F31742 		bfi	r2, r1, #16, #8
 116              	.LVL6:
 441:lvgl/lvgl/src/hal/../draw/../misc/lv_color.h ****     LV_COLOR_SET_B32(ret, (LV_COLOR_GET_B(color) * 263 + 7) >> 5);
 117              		.loc 2 441 5 is_stmt 1 view .LVU22
 118 0038 C3F34511 		ubfx	r1, r3, #5, #6
 119 003c 01EBC110 		add	r0, r1, r1, lsl #7
 120              	.LVL7:
 441:lvgl/lvgl/src/hal/../draw/../misc/lv_color.h ****     LV_COLOR_SET_B32(ret, (LV_COLOR_GET_B(color) * 263 + 7) >> 5);
 121              		.loc 2 441 5 is_stmt 0 view .LVU23
 122 0040 01EB4001 		add	r1, r1, r0, lsl #1
ARM GAS  C:\Users\gx\AppData\Local\Temp\ccdv9jmC.s 			page 23


 123 0044 0331     		adds	r1, r1, #3
 124 0046 C1F38711 		ubfx	r1, r1, #6, #8
 125 004a 61F30F22 		bfi	r2, r1, #8, #8
 442:lvgl/lvgl/src/hal/../draw/../misc/lv_color.h ****     LV_COLOR_SET_A32(ret, 0xFF);
 126              		.loc 2 442 5 is_stmt 1 view .LVU24
 127 004e 03F01F03 		and	r3, r3, #31
 128              	.LVL8:
 442:lvgl/lvgl/src/hal/../draw/../misc/lv_color.h ****     LV_COLOR_SET_A32(ret, 0xFF);
 129              		.loc 2 442 5 is_stmt 0 view .LVU25
 130 0052 03EB4311 		add	r1, r3, r3, lsl #5
 131 0056 C3EBC103 		rsb	r3, r3, r1, lsl #3
 132 005a 0733     		adds	r3, r3, #7
 133 005c C3F34713 		ubfx	r3, r3, #5, #8
 134 0060 63F30702 		bfi	r2, r3, #0, #8
 443:lvgl/lvgl/src/hal/../draw/../misc/lv_color.h ****     return ret.full;
 135              		.loc 2 443 5 is_stmt 1 view .LVU26
 136 0064 42F07F42 		orr	r2, r2, #-16777216
 137              	.LVL9:
 444:lvgl/lvgl/src/hal/../draw/../misc/lv_color.h **** #elif LV_COLOR_DEPTH == 32
 138              		.loc 2 444 5 view .LVU27
 139              	.LBE40:
 140              	.LBE39:
 611:lvgl/lvgl/src/hal/../draw/../misc/lv_color.h ****     uint16_t bright = (uint16_t)(3u * LV_COLOR_GET_R32(c32) + LV_COLOR_GET_B32(c32) + 4u * LV_COLOR
 141              		.loc 2 611 5 view .LVU28
 142              		.loc 2 611 39 is_stmt 0 view .LVU29
 143 0068 C2F30743 		ubfx	r3, r2, #16, #8
 144              		.loc 2 611 37 view .LVU30
 145 006c 03EB4303 		add	r3, r3, r3, lsl #1
 146              		.loc 2 611 92 view .LVU31
 147 0070 C2F30728 		ubfx	r8, r2, #8, #8
 148              		.loc 2 611 85 view .LVU32
 149 0074 03EB8808 		add	r8, r3, r8, lsl #2
 150              		.loc 2 611 63 view .LVU33
 151 0078 D2B2     		uxtb	r2, r2
 152              	.LVL10:
 153              		.loc 2 611 14 view .LVU34
 154 007a 12FA88F2 		uxtah	r2, r2, r8
 155              	.LVL11:
 612:lvgl/lvgl/src/hal/../draw/../misc/lv_color.h ****     return (uint8_t)(bright >> 3);
 156              		.loc 2 612 5 is_stmt 1 view .LVU35
 157              		.loc 2 612 12 is_stmt 0 view .LVU36
 158 007e C2F3C708 		ubfx	r8, r2, #3, #8
 159              	.LVL12:
 160              		.loc 2 612 12 view .LVU37
 161              	.LBE38:
 162              	.LBE37:
 520:lvgl/lvgl/src/hal/lv_hal_disp.c ****     if(opa < LV_OPA_MAX) {
 163              		.loc 1 520 5 is_stmt 1 view .LVU38
 164              		.loc 1 520 7 is_stmt 0 view .LVU39
 165 0082 FC2F     		cmp	r7, #252
 166 0084 07D9     		bls	.L6
 167              	.L4:
 521:lvgl/lvgl/src/hal/lv_hal_disp.c ****         uint8_t bg = lv_img_buf_get_px_alpha(d, x, y);
 522:lvgl/lvgl/src/hal/lv_hal_disp.c ****         br = (uint16_t)((uint16_t)br * opa + (bg * (255 - opa))) >> 8;
 523:lvgl/lvgl/src/hal/lv_hal_disp.c ****     }
 524:lvgl/lvgl/src/hal/lv_hal_disp.c **** 
 525:lvgl/lvgl/src/hal/lv_hal_disp.c ****     lv_img_buf_set_px_alpha(d, x, y, br);
ARM GAS  C:\Users\gx\AppData\Local\Temp\ccdv9jmC.s 			page 24


 168              		.loc 1 525 5 is_stmt 1 view .LVU40
 169 0086 4346     		mov	r3, r8
 170 0088 3246     		mov	r2, r6
 171 008a 2946     		mov	r1, r5
 172 008c 2046     		mov	r0, r4
 173 008e FFF7FEFF 		bl	lv_img_buf_set_px_alpha
 174              	.LVL13:
 526:lvgl/lvgl/src/hal/lv_hal_disp.c **** }
 175              		.loc 1 526 1 is_stmt 0 view .LVU41
 176 0092 BDE8F081 		pop	{r4, r5, r6, r7, r8, pc}
 177              	.LVL14:
 178              	.L6:
 179              	.LBB41:
 521:lvgl/lvgl/src/hal/lv_hal_disp.c ****         uint8_t bg = lv_img_buf_get_px_alpha(d, x, y);
 180              		.loc 1 521 9 is_stmt 1 view .LVU42
 521:lvgl/lvgl/src/hal/lv_hal_disp.c ****         uint8_t bg = lv_img_buf_get_px_alpha(d, x, y);
 181              		.loc 1 521 22 is_stmt 0 view .LVU43
 182 0096 3246     		mov	r2, r6
 183 0098 2946     		mov	r1, r5
 184 009a 2046     		mov	r0, r4
 185 009c FFF7FEFF 		bl	lv_img_buf_get_px_alpha
 186              	.LVL15:
 522:lvgl/lvgl/src/hal/lv_hal_disp.c ****     }
 187              		.loc 1 522 9 is_stmt 1 view .LVU44
 522:lvgl/lvgl/src/hal/lv_hal_disp.c ****     }
 188              		.loc 1 522 57 is_stmt 0 view .LVU45
 189 00a0 C7F1FF02 		rsb	r2, r7, #255
 522:lvgl/lvgl/src/hal/lv_hal_disp.c ****     }
 190              		.loc 1 522 14 view .LVU46
 191 00a4 10FB02F2 		smulbb	r2, r0, r2
 192 00a8 08FB0728 		mla	r8, r8, r7, r2
 193              	.LVL16:
 522:lvgl/lvgl/src/hal/lv_hal_disp.c ****     }
 194              		.loc 1 522 12 view .LVU47
 195 00ac C8F30728 		ubfx	r8, r8, #8, #8
 196              	.LVL17:
 522:lvgl/lvgl/src/hal/lv_hal_disp.c ****     }
 197              		.loc 1 522 12 view .LVU48
 198 00b0 E9E7     		b	.L4
 199              	.LBE41:
 200              		.cfi_endproc
 201              	.LFE175:
 203              		.section	.text.set_px_cb_alpha8,"ax",%progbits
 204              		.align	1
 205              		.syntax unified
 206              		.thumb
 207              		.thumb_func
 208              		.fpu fpv4-sp-d16
 210              	set_px_cb_alpha8:
 211              	.LVL18:
 212              	.LFB174:
 502:lvgl/lvgl/src/hal/lv_hal_disp.c ****     (void) disp_drv; /*Unused*/
 213              		.loc 1 502 1 is_stmt 1 view -0
 214              		.cfi_startproc
 215              		@ args = 12, pretend = 0, frame = 16
 216              		@ frame_needed = 0, uses_anonymous_args = 0
 502:lvgl/lvgl/src/hal/lv_hal_disp.c ****     (void) disp_drv; /*Unused*/
ARM GAS  C:\Users\gx\AppData\Local\Temp\ccdv9jmC.s 			page 25


 217              		.loc 1 502 1 is_stmt 0 view .LVU50
 218 0000 10B5     		push	{r4, lr}
 219              	.LCFI2:
 220              		.cfi_def_cfa_offset 8
 221              		.cfi_offset 4, -8
 222              		.cfi_offset 14, -4
 223 0002 86B0     		sub	sp, sp, #24
 224              	.LCFI3:
 225              		.cfi_def_cfa_offset 32
 226 0004 9DF82840 		ldrb	r4, [sp, #40]	@ zero_extendqisi2
 503:lvgl/lvgl/src/hal/lv_hal_disp.c **** 
 227              		.loc 1 503 5 is_stmt 1 view .LVU51
 505:lvgl/lvgl/src/hal/lv_hal_disp.c ****     lv_img_dsc_t d;
 228              		.loc 1 505 5 view .LVU52
 505:lvgl/lvgl/src/hal/lv_hal_disp.c ****     lv_img_dsc_t d;
 229              		.loc 1 505 7 is_stmt 0 view .LVU53
 230 0008 022C     		cmp	r4, #2
 231 000a 01D8     		bhi	.L11
 232              	.LVL19:
 233              	.L7:
 512:lvgl/lvgl/src/hal/lv_hal_disp.c **** 
 234              		.loc 1 512 1 view .LVU54
 235 000c 06B0     		add	sp, sp, #24
 236              	.LCFI4:
 237              		.cfi_remember_state
 238              		.cfi_def_cfa_offset 8
 239              		@ sp needed
 240 000e 10BD     		pop	{r4, pc}
 241              	.LVL20:
 242              	.L11:
 243              	.LCFI5:
 244              		.cfi_restore_state
 512:lvgl/lvgl/src/hal/lv_hal_disp.c **** 
 245              		.loc 1 512 1 view .LVU55
 246 0010 0846     		mov	r0, r1
 247              	.LVL21:
 512:lvgl/lvgl/src/hal/lv_hal_disp.c **** 
 248              		.loc 1 512 1 view .LVU56
 249 0012 1946     		mov	r1, r3
 250              	.LVL22:
 506:lvgl/lvgl/src/hal/lv_hal_disp.c ****     d.data = buf;
 251              		.loc 1 506 5 is_stmt 1 view .LVU57
 507:lvgl/lvgl/src/hal/lv_hal_disp.c ****     d.header.w = buf_w;
 252              		.loc 1 507 5 view .LVU58
 507:lvgl/lvgl/src/hal/lv_hal_disp.c ****     d.header.w = buf_w;
 253              		.loc 1 507 12 is_stmt 0 view .LVU59
 254 0014 0590     		str	r0, [sp, #20]
 508:lvgl/lvgl/src/hal/lv_hal_disp.c ****     d.header.cf = LV_IMG_CF_ALPHA_8BIT;
 255              		.loc 1 508 5 is_stmt 1 view .LVU60
 508:lvgl/lvgl/src/hal/lv_hal_disp.c ****     d.header.cf = LV_IMG_CF_ALPHA_8BIT;
 256              		.loc 1 508 16 is_stmt 0 view .LVU61
 257 0016 039B     		ldr	r3, [sp, #12]
 258              	.LVL23:
 508:lvgl/lvgl/src/hal/lv_hal_disp.c ****     d.header.cf = LV_IMG_CF_ALPHA_8BIT;
 259              		.loc 1 508 16 view .LVU62
 260 0018 62F39423 		bfi	r3, r2, #10, #11
 261 001c 0393     		str	r3, [sp, #12]
ARM GAS  C:\Users\gx\AppData\Local\Temp\ccdv9jmC.s 			page 26


 509:lvgl/lvgl/src/hal/lv_hal_disp.c **** 
 262              		.loc 1 509 5 is_stmt 1 view .LVU63
 509:lvgl/lvgl/src/hal/lv_hal_disp.c **** 
 263              		.loc 1 509 17 is_stmt 0 view .LVU64
 264 001e 0E22     		movs	r2, #14
 265              	.LVL24:
 509:lvgl/lvgl/src/hal/lv_hal_disp.c **** 
 266              		.loc 1 509 17 view .LVU65
 267 0020 62F30403 		bfi	r3, r2, #0, #5
 268 0024 8DF80C30 		strb	r3, [sp, #12]
 511:lvgl/lvgl/src/hal/lv_hal_disp.c **** }
 269              		.loc 1 511 5 is_stmt 1 view .LVU66
 270 0028 0094     		str	r4, [sp]
 271 002a BDF82430 		ldrh	r3, [sp, #36]
 272 002e BDF92020 		ldrsh	r2, [sp, #32]
 273 0032 03A8     		add	r0, sp, #12
 274              	.LVL25:
 511:lvgl/lvgl/src/hal/lv_hal_disp.c **** }
 275              		.loc 1 511 5 is_stmt 0 view .LVU67
 276 0034 FFF7FEFF 		bl	set_px_alpha_generic
 277              	.LVL26:
 511:lvgl/lvgl/src/hal/lv_hal_disp.c **** }
 278              		.loc 1 511 5 view .LVU68
 279 0038 E8E7     		b	.L7
 280              		.cfi_endproc
 281              	.LFE174:
 283              		.section	.text.set_px_cb_alpha4,"ax",%progbits
 284              		.align	1
 285              		.syntax unified
 286              		.thumb
 287              		.thumb_func
 288              		.fpu fpv4-sp-d16
 290              	set_px_cb_alpha4:
 291              	.LVL27:
 292              	.LFB173:
 488:lvgl/lvgl/src/hal/lv_hal_disp.c ****     (void) disp_drv; /*Unused*/
 293              		.loc 1 488 1 is_stmt 1 view -0
 294              		.cfi_startproc
 295              		@ args = 12, pretend = 0, frame = 16
 296              		@ frame_needed = 0, uses_anonymous_args = 0
 488:lvgl/lvgl/src/hal/lv_hal_disp.c ****     (void) disp_drv; /*Unused*/
 297              		.loc 1 488 1 is_stmt 0 view .LVU70
 298 0000 10B5     		push	{r4, lr}
 299              	.LCFI6:
 300              		.cfi_def_cfa_offset 8
 301              		.cfi_offset 4, -8
 302              		.cfi_offset 14, -4
 303 0002 86B0     		sub	sp, sp, #24
 304              	.LCFI7:
 305              		.cfi_def_cfa_offset 32
 306 0004 9DF82840 		ldrb	r4, [sp, #40]	@ zero_extendqisi2
 489:lvgl/lvgl/src/hal/lv_hal_disp.c **** 
 307              		.loc 1 489 5 is_stmt 1 view .LVU71
 491:lvgl/lvgl/src/hal/lv_hal_disp.c ****     lv_img_dsc_t d;
 308              		.loc 1 491 5 view .LVU72
 491:lvgl/lvgl/src/hal/lv_hal_disp.c ****     lv_img_dsc_t d;
 309              		.loc 1 491 7 is_stmt 0 view .LVU73
ARM GAS  C:\Users\gx\AppData\Local\Temp\ccdv9jmC.s 			page 27


 310 0008 022C     		cmp	r4, #2
 311 000a 01D8     		bhi	.L16
 312              	.LVL28:
 313              	.L12:
 498:lvgl/lvgl/src/hal/lv_hal_disp.c **** 
 314              		.loc 1 498 1 view .LVU74
 315 000c 06B0     		add	sp, sp, #24
 316              	.LCFI8:
 317              		.cfi_remember_state
 318              		.cfi_def_cfa_offset 8
 319              		@ sp needed
 320 000e 10BD     		pop	{r4, pc}
 321              	.LVL29:
 322              	.L16:
 323              	.LCFI9:
 324              		.cfi_restore_state
 498:lvgl/lvgl/src/hal/lv_hal_disp.c **** 
 325              		.loc 1 498 1 view .LVU75
 326 0010 0846     		mov	r0, r1
 327              	.LVL30:
 498:lvgl/lvgl/src/hal/lv_hal_disp.c **** 
 328              		.loc 1 498 1 view .LVU76
 329 0012 1946     		mov	r1, r3
 330              	.LVL31:
 492:lvgl/lvgl/src/hal/lv_hal_disp.c ****     d.data = buf;
 331              		.loc 1 492 5 is_stmt 1 view .LVU77
 493:lvgl/lvgl/src/hal/lv_hal_disp.c ****     d.header.w = buf_w;
 332              		.loc 1 493 5 view .LVU78
 493:lvgl/lvgl/src/hal/lv_hal_disp.c ****     d.header.w = buf_w;
 333              		.loc 1 493 12 is_stmt 0 view .LVU79
 334 0014 0590     		str	r0, [sp, #20]
 494:lvgl/lvgl/src/hal/lv_hal_disp.c ****     d.header.cf = LV_IMG_CF_ALPHA_4BIT;
 335              		.loc 1 494 5 is_stmt 1 view .LVU80
 494:lvgl/lvgl/src/hal/lv_hal_disp.c ****     d.header.cf = LV_IMG_CF_ALPHA_4BIT;
 336              		.loc 1 494 16 is_stmt 0 view .LVU81
 337 0016 039B     		ldr	r3, [sp, #12]
 338              	.LVL32:
 494:lvgl/lvgl/src/hal/lv_hal_disp.c ****     d.header.cf = LV_IMG_CF_ALPHA_4BIT;
 339              		.loc 1 494 16 view .LVU82
 340 0018 62F39423 		bfi	r3, r2, #10, #11
 341 001c 0393     		str	r3, [sp, #12]
 495:lvgl/lvgl/src/hal/lv_hal_disp.c **** 
 342              		.loc 1 495 5 is_stmt 1 view .LVU83
 495:lvgl/lvgl/src/hal/lv_hal_disp.c **** 
 343              		.loc 1 495 17 is_stmt 0 view .LVU84
 344 001e 0D22     		movs	r2, #13
 345              	.LVL33:
 495:lvgl/lvgl/src/hal/lv_hal_disp.c **** 
 346              		.loc 1 495 17 view .LVU85
 347 0020 62F30403 		bfi	r3, r2, #0, #5
 348 0024 8DF80C30 		strb	r3, [sp, #12]
 497:lvgl/lvgl/src/hal/lv_hal_disp.c **** }
 349              		.loc 1 497 5 is_stmt 1 view .LVU86
 350 0028 0094     		str	r4, [sp]
 351 002a BDF82430 		ldrh	r3, [sp, #36]
 352 002e BDF92020 		ldrsh	r2, [sp, #32]
 353 0032 03A8     		add	r0, sp, #12
ARM GAS  C:\Users\gx\AppData\Local\Temp\ccdv9jmC.s 			page 28


 354              	.LVL34:
 497:lvgl/lvgl/src/hal/lv_hal_disp.c **** }
 355              		.loc 1 497 5 is_stmt 0 view .LVU87
 356 0034 FFF7FEFF 		bl	set_px_alpha_generic
 357              	.LVL35:
 497:lvgl/lvgl/src/hal/lv_hal_disp.c **** }
 358              		.loc 1 497 5 view .LVU88
 359 0038 E8E7     		b	.L12
 360              		.cfi_endproc
 361              	.LFE173:
 363              		.section	.text.set_px_cb_alpha2,"ax",%progbits
 364              		.align	1
 365              		.syntax unified
 366              		.thumb
 367              		.thumb_func
 368              		.fpu fpv4-sp-d16
 370              	set_px_cb_alpha2:
 371              	.LVL36:
 372              	.LFB172:
 474:lvgl/lvgl/src/hal/lv_hal_disp.c ****     (void) disp_drv; /*Unused*/
 373              		.loc 1 474 1 is_stmt 1 view -0
 374              		.cfi_startproc
 375              		@ args = 12, pretend = 0, frame = 16
 376              		@ frame_needed = 0, uses_anonymous_args = 0
 474:lvgl/lvgl/src/hal/lv_hal_disp.c ****     (void) disp_drv; /*Unused*/
 377              		.loc 1 474 1 is_stmt 0 view .LVU90
 378 0000 10B5     		push	{r4, lr}
 379              	.LCFI10:
 380              		.cfi_def_cfa_offset 8
 381              		.cfi_offset 4, -8
 382              		.cfi_offset 14, -4
 383 0002 86B0     		sub	sp, sp, #24
 384              	.LCFI11:
 385              		.cfi_def_cfa_offset 32
 386 0004 9DF82840 		ldrb	r4, [sp, #40]	@ zero_extendqisi2
 475:lvgl/lvgl/src/hal/lv_hal_disp.c **** 
 387              		.loc 1 475 5 is_stmt 1 view .LVU91
 477:lvgl/lvgl/src/hal/lv_hal_disp.c ****     lv_img_dsc_t d;
 388              		.loc 1 477 5 view .LVU92
 477:lvgl/lvgl/src/hal/lv_hal_disp.c ****     lv_img_dsc_t d;
 389              		.loc 1 477 7 is_stmt 0 view .LVU93
 390 0008 022C     		cmp	r4, #2
 391 000a 01D8     		bhi	.L21
 392              	.LVL37:
 393              	.L17:
 484:lvgl/lvgl/src/hal/lv_hal_disp.c **** 
 394              		.loc 1 484 1 view .LVU94
 395 000c 06B0     		add	sp, sp, #24
 396              	.LCFI12:
 397              		.cfi_remember_state
 398              		.cfi_def_cfa_offset 8
 399              		@ sp needed
 400 000e 10BD     		pop	{r4, pc}
 401              	.LVL38:
 402              	.L21:
 403              	.LCFI13:
 404              		.cfi_restore_state
ARM GAS  C:\Users\gx\AppData\Local\Temp\ccdv9jmC.s 			page 29


 484:lvgl/lvgl/src/hal/lv_hal_disp.c **** 
 405              		.loc 1 484 1 view .LVU95
 406 0010 0846     		mov	r0, r1
 407              	.LVL39:
 484:lvgl/lvgl/src/hal/lv_hal_disp.c **** 
 408              		.loc 1 484 1 view .LVU96
 409 0012 1946     		mov	r1, r3
 410              	.LVL40:
 478:lvgl/lvgl/src/hal/lv_hal_disp.c ****     d.data = buf;
 411              		.loc 1 478 5 is_stmt 1 view .LVU97
 479:lvgl/lvgl/src/hal/lv_hal_disp.c ****     d.header.w = buf_w;
 412              		.loc 1 479 5 view .LVU98
 479:lvgl/lvgl/src/hal/lv_hal_disp.c ****     d.header.w = buf_w;
 413              		.loc 1 479 12 is_stmt 0 view .LVU99
 414 0014 0590     		str	r0, [sp, #20]
 480:lvgl/lvgl/src/hal/lv_hal_disp.c ****     d.header.cf = LV_IMG_CF_ALPHA_2BIT;
 415              		.loc 1 480 5 is_stmt 1 view .LVU100
 480:lvgl/lvgl/src/hal/lv_hal_disp.c ****     d.header.cf = LV_IMG_CF_ALPHA_2BIT;
 416              		.loc 1 480 16 is_stmt 0 view .LVU101
 417 0016 039B     		ldr	r3, [sp, #12]
 418              	.LVL41:
 480:lvgl/lvgl/src/hal/lv_hal_disp.c ****     d.header.cf = LV_IMG_CF_ALPHA_2BIT;
 419              		.loc 1 480 16 view .LVU102
 420 0018 62F39423 		bfi	r3, r2, #10, #11
 421 001c 0393     		str	r3, [sp, #12]
 481:lvgl/lvgl/src/hal/lv_hal_disp.c **** 
 422              		.loc 1 481 5 is_stmt 1 view .LVU103
 481:lvgl/lvgl/src/hal/lv_hal_disp.c **** 
 423              		.loc 1 481 17 is_stmt 0 view .LVU104
 424 001e 0C22     		movs	r2, #12
 425              	.LVL42:
 481:lvgl/lvgl/src/hal/lv_hal_disp.c **** 
 426              		.loc 1 481 17 view .LVU105
 427 0020 62F30403 		bfi	r3, r2, #0, #5
 428 0024 8DF80C30 		strb	r3, [sp, #12]
 483:lvgl/lvgl/src/hal/lv_hal_disp.c **** }
 429              		.loc 1 483 5 is_stmt 1 view .LVU106
 430 0028 0094     		str	r4, [sp]
 431 002a BDF82430 		ldrh	r3, [sp, #36]
 432 002e BDF92020 		ldrsh	r2, [sp, #32]
 433 0032 03A8     		add	r0, sp, #12
 434              	.LVL43:
 483:lvgl/lvgl/src/hal/lv_hal_disp.c **** }
 435              		.loc 1 483 5 is_stmt 0 view .LVU107
 436 0034 FFF7FEFF 		bl	set_px_alpha_generic
 437              	.LVL44:
 483:lvgl/lvgl/src/hal/lv_hal_disp.c **** }
 438              		.loc 1 483 5 view .LVU108
 439 0038 E8E7     		b	.L17
 440              		.cfi_endproc
 441              	.LFE172:
 443              		.section	.text.set_px_cb_alpha1,"ax",%progbits
 444              		.align	1
 445              		.syntax unified
 446              		.thumb
 447              		.thumb_func
 448              		.fpu fpv4-sp-d16
ARM GAS  C:\Users\gx\AppData\Local\Temp\ccdv9jmC.s 			page 30


 450              	set_px_cb_alpha1:
 451              	.LVL45:
 452              	.LFB171:
 460:lvgl/lvgl/src/hal/lv_hal_disp.c ****     (void) disp_drv; /*Unused*/
 453              		.loc 1 460 1 is_stmt 1 view -0
 454              		.cfi_startproc
 455              		@ args = 12, pretend = 0, frame = 16
 456              		@ frame_needed = 0, uses_anonymous_args = 0
 460:lvgl/lvgl/src/hal/lv_hal_disp.c ****     (void) disp_drv; /*Unused*/
 457              		.loc 1 460 1 is_stmt 0 view .LVU110
 458 0000 10B5     		push	{r4, lr}
 459              	.LCFI14:
 460              		.cfi_def_cfa_offset 8
 461              		.cfi_offset 4, -8
 462              		.cfi_offset 14, -4
 463 0002 86B0     		sub	sp, sp, #24
 464              	.LCFI15:
 465              		.cfi_def_cfa_offset 32
 466 0004 9DF82840 		ldrb	r4, [sp, #40]	@ zero_extendqisi2
 461:lvgl/lvgl/src/hal/lv_hal_disp.c **** 
 467              		.loc 1 461 5 is_stmt 1 view .LVU111
 463:lvgl/lvgl/src/hal/lv_hal_disp.c ****     lv_img_dsc_t d;
 468              		.loc 1 463 5 view .LVU112
 463:lvgl/lvgl/src/hal/lv_hal_disp.c ****     lv_img_dsc_t d;
 469              		.loc 1 463 7 is_stmt 0 view .LVU113
 470 0008 022C     		cmp	r4, #2
 471 000a 01D8     		bhi	.L26
 472              	.LVL46:
 473              	.L22:
 470:lvgl/lvgl/src/hal/lv_hal_disp.c **** 
 474              		.loc 1 470 1 view .LVU114
 475 000c 06B0     		add	sp, sp, #24
 476              	.LCFI16:
 477              		.cfi_remember_state
 478              		.cfi_def_cfa_offset 8
 479              		@ sp needed
 480 000e 10BD     		pop	{r4, pc}
 481              	.LVL47:
 482              	.L26:
 483              	.LCFI17:
 484              		.cfi_restore_state
 470:lvgl/lvgl/src/hal/lv_hal_disp.c **** 
 485              		.loc 1 470 1 view .LVU115
 486 0010 0846     		mov	r0, r1
 487              	.LVL48:
 470:lvgl/lvgl/src/hal/lv_hal_disp.c **** 
 488              		.loc 1 470 1 view .LVU116
 489 0012 1946     		mov	r1, r3
 490              	.LVL49:
 464:lvgl/lvgl/src/hal/lv_hal_disp.c ****     d.data = buf;
 491              		.loc 1 464 5 is_stmt 1 view .LVU117
 465:lvgl/lvgl/src/hal/lv_hal_disp.c ****     d.header.w = buf_w;
 492              		.loc 1 465 5 view .LVU118
 465:lvgl/lvgl/src/hal/lv_hal_disp.c ****     d.header.w = buf_w;
 493              		.loc 1 465 12 is_stmt 0 view .LVU119
 494 0014 0590     		str	r0, [sp, #20]
 466:lvgl/lvgl/src/hal/lv_hal_disp.c ****     d.header.cf = LV_IMG_CF_ALPHA_1BIT;
ARM GAS  C:\Users\gx\AppData\Local\Temp\ccdv9jmC.s 			page 31


 495              		.loc 1 466 5 is_stmt 1 view .LVU120
 466:lvgl/lvgl/src/hal/lv_hal_disp.c ****     d.header.cf = LV_IMG_CF_ALPHA_1BIT;
 496              		.loc 1 466 16 is_stmt 0 view .LVU121
 497 0016 039B     		ldr	r3, [sp, #12]
 498              	.LVL50:
 466:lvgl/lvgl/src/hal/lv_hal_disp.c ****     d.header.cf = LV_IMG_CF_ALPHA_1BIT;
 499              		.loc 1 466 16 view .LVU122
 500 0018 62F39423 		bfi	r3, r2, #10, #11
 501 001c 0393     		str	r3, [sp, #12]
 467:lvgl/lvgl/src/hal/lv_hal_disp.c **** 
 502              		.loc 1 467 5 is_stmt 1 view .LVU123
 467:lvgl/lvgl/src/hal/lv_hal_disp.c **** 
 503              		.loc 1 467 17 is_stmt 0 view .LVU124
 504 001e 0B22     		movs	r2, #11
 505              	.LVL51:
 467:lvgl/lvgl/src/hal/lv_hal_disp.c **** 
 506              		.loc 1 467 17 view .LVU125
 507 0020 62F30403 		bfi	r3, r2, #0, #5
 508 0024 8DF80C30 		strb	r3, [sp, #12]
 469:lvgl/lvgl/src/hal/lv_hal_disp.c **** }
 509              		.loc 1 469 5 is_stmt 1 view .LVU126
 510 0028 0094     		str	r4, [sp]
 511 002a BDF82430 		ldrh	r3, [sp, #36]
 512 002e BDF92020 		ldrsh	r2, [sp, #32]
 513 0032 03A8     		add	r0, sp, #12
 514              	.LVL52:
 469:lvgl/lvgl/src/hal/lv_hal_disp.c **** }
 515              		.loc 1 469 5 is_stmt 0 view .LVU127
 516 0034 FFF7FEFF 		bl	set_px_alpha_generic
 517              	.LVL53:
 469:lvgl/lvgl/src/hal/lv_hal_disp.c **** }
 518              		.loc 1 469 5 view .LVU128
 519 0038 E8E7     		b	.L22
 520              		.cfi_endproc
 521              	.LFE171:
 523              		.section	.text.set_px_true_color_alpha,"ax",%progbits
 524              		.align	1
 525              		.syntax unified
 526              		.thumb
 527              		.thumb_func
 528              		.fpu fpv4-sp-d16
 530              	set_px_true_color_alpha:
 531              	.LVL54:
 532              	.LFB176:
 527:lvgl/lvgl/src/hal/lv_hal_disp.c **** 
 528:lvgl/lvgl/src/hal/lv_hal_disp.c **** static void set_px_true_color_alpha(lv_disp_drv_t * disp_drv, uint8_t * buf, lv_coord_t buf_w, lv_c
 529:lvgl/lvgl/src/hal/lv_hal_disp.c ****                                     lv_coord_t y,
 530:lvgl/lvgl/src/hal/lv_hal_disp.c ****                                     lv_color_t color, lv_opa_t opa)
 531:lvgl/lvgl/src/hal/lv_hal_disp.c **** {
 533              		.loc 1 531 1 is_stmt 1 view -0
 534              		.cfi_startproc
 535              		@ args = 12, pretend = 0, frame = 24
 536              		@ frame_needed = 0, uses_anonymous_args = 0
 537              		.loc 1 531 1 is_stmt 0 view .LVU130
 538 0000 F0B5     		push	{r4, r5, r6, r7, lr}
 539              	.LCFI18:
 540              		.cfi_def_cfa_offset 20
ARM GAS  C:\Users\gx\AppData\Local\Temp\ccdv9jmC.s 			page 32


 541              		.cfi_offset 4, -20
 542              		.cfi_offset 5, -16
 543              		.cfi_offset 6, -12
 544              		.cfi_offset 7, -8
 545              		.cfi_offset 14, -4
 546 0002 87B0     		sub	sp, sp, #28
 547              	.LCFI19:
 548              		.cfi_def_cfa_offset 48
 549 0004 1C46     		mov	r4, r3
 550 0006 BDF93060 		ldrsh	r6, [sp, #48]
 551 000a BDF83430 		ldrh	r3, [sp, #52]
 552              	.LVL55:
 553              		.loc 1 531 1 view .LVU131
 554 000e ADF80430 		strh	r3, [sp, #4]	@ movhi
 555 0012 9DF83850 		ldrb	r5, [sp, #56]	@ zero_extendqisi2
 532:lvgl/lvgl/src/hal/lv_hal_disp.c ****     (void) disp_drv; /*Unused*/
 556              		.loc 1 532 5 is_stmt 1 view .LVU132
 533:lvgl/lvgl/src/hal/lv_hal_disp.c **** 
 534:lvgl/lvgl/src/hal/lv_hal_disp.c ****     if(opa <= LV_OPA_MIN) return;
 557              		.loc 1 534 5 view .LVU133
 558              		.loc 1 534 7 is_stmt 0 view .LVU134
 559 0016 022D     		cmp	r5, #2
 560 0018 01D8     		bhi	.L40
 561              	.LVL56:
 562              	.L27:
 535:lvgl/lvgl/src/hal/lv_hal_disp.c ****     lv_img_dsc_t d;
 536:lvgl/lvgl/src/hal/lv_hal_disp.c ****     d.data = buf;
 537:lvgl/lvgl/src/hal/lv_hal_disp.c ****     d.header.always_zero = 0;
 538:lvgl/lvgl/src/hal/lv_hal_disp.c ****     d.header.h = 1;    /*Doesn't matter*/;
 539:lvgl/lvgl/src/hal/lv_hal_disp.c ****     d.header.w = buf_w;
 540:lvgl/lvgl/src/hal/lv_hal_disp.c ****     d.header.cf = LV_IMG_CF_TRUE_COLOR_ALPHA;
 541:lvgl/lvgl/src/hal/lv_hal_disp.c **** 
 542:lvgl/lvgl/src/hal/lv_hal_disp.c ****     lv_color_t bg_color = lv_img_buf_get_px_color(&d, x, y, lv_color_black());
 543:lvgl/lvgl/src/hal/lv_hal_disp.c ****     lv_opa_t bg_opa = lv_img_buf_get_px_alpha(&d, x, y);
 544:lvgl/lvgl/src/hal/lv_hal_disp.c **** 
 545:lvgl/lvgl/src/hal/lv_hal_disp.c ****     lv_opa_t res_opa;
 546:lvgl/lvgl/src/hal/lv_hal_disp.c ****     lv_color_t res_color;
 547:lvgl/lvgl/src/hal/lv_hal_disp.c **** 
 548:lvgl/lvgl/src/hal/lv_hal_disp.c ****     lv_color_mix_with_alpha(bg_color, bg_opa, color, opa, &res_color, &res_opa);
 549:lvgl/lvgl/src/hal/lv_hal_disp.c **** 
 550:lvgl/lvgl/src/hal/lv_hal_disp.c ****     lv_img_buf_set_px_alpha(&d, x, y, res_opa);
 551:lvgl/lvgl/src/hal/lv_hal_disp.c ****     lv_img_buf_set_px_color(&d, x, y, res_color);
 552:lvgl/lvgl/src/hal/lv_hal_disp.c **** }
 563              		.loc 1 552 1 view .LVU135
 564 001a 07B0     		add	sp, sp, #28
 565              	.LCFI20:
 566              		.cfi_remember_state
 567              		.cfi_def_cfa_offset 20
 568              		@ sp needed
 569 001c F0BD     		pop	{r4, r5, r6, r7, pc}
 570              	.LVL57:
 571              	.L40:
 572              	.LCFI21:
 573              		.cfi_restore_state
 535:lvgl/lvgl/src/hal/lv_hal_disp.c ****     lv_img_dsc_t d;
 574              		.loc 1 535 5 is_stmt 1 view .LVU136
 536:lvgl/lvgl/src/hal/lv_hal_disp.c ****     d.header.always_zero = 0;
ARM GAS  C:\Users\gx\AppData\Local\Temp\ccdv9jmC.s 			page 33


 575              		.loc 1 536 5 view .LVU137
 536:lvgl/lvgl/src/hal/lv_hal_disp.c ****     d.header.always_zero = 0;
 576              		.loc 1 536 12 is_stmt 0 view .LVU138
 577 001e 0591     		str	r1, [sp, #20]
 537:lvgl/lvgl/src/hal/lv_hal_disp.c ****     d.header.h = 1;    /*Doesn't matter*/;
 578              		.loc 1 537 5 is_stmt 1 view .LVU139
 537:lvgl/lvgl/src/hal/lv_hal_disp.c ****     d.header.h = 1;    /*Doesn't matter*/;
 579              		.loc 1 537 26 is_stmt 0 view .LVU140
 580 0020 9DF80C30 		ldrb	r3, [sp, #12]	@ zero_extendqisi2
 581 0024 6FF34713 		bfc	r3, #5, #3
 582 0028 8DF80C30 		strb	r3, [sp, #12]
 538:lvgl/lvgl/src/hal/lv_hal_disp.c ****     d.header.w = buf_w;
 583              		.loc 1 538 5 is_stmt 1 view .LVU141
 538:lvgl/lvgl/src/hal/lv_hal_disp.c ****     d.header.w = buf_w;
 584              		.loc 1 538 16 is_stmt 0 view .LVU142
 585 002c BDF80E30 		ldrh	r3, [sp, #14]
 586 0030 0121     		movs	r1, #1
 587              	.LVL58:
 538:lvgl/lvgl/src/hal/lv_hal_disp.c ****     d.header.w = buf_w;
 588              		.loc 1 538 16 view .LVU143
 589 0032 61F34F13 		bfi	r3, r1, #5, #11
 590 0036 ADF80E30 		strh	r3, [sp, #14]	@ movhi
 538:lvgl/lvgl/src/hal/lv_hal_disp.c ****     d.header.w = buf_w;
 591              		.loc 1 538 42 is_stmt 1 view .LVU144
 539:lvgl/lvgl/src/hal/lv_hal_disp.c ****     d.header.cf = LV_IMG_CF_TRUE_COLOR_ALPHA;
 592              		.loc 1 539 5 view .LVU145
 539:lvgl/lvgl/src/hal/lv_hal_disp.c ****     d.header.cf = LV_IMG_CF_TRUE_COLOR_ALPHA;
 593              		.loc 1 539 16 is_stmt 0 view .LVU146
 594 003a 039B     		ldr	r3, [sp, #12]
 595 003c 62F39423 		bfi	r3, r2, #10, #11
 596 0040 0393     		str	r3, [sp, #12]
 540:lvgl/lvgl/src/hal/lv_hal_disp.c **** 
 597              		.loc 1 540 5 is_stmt 1 view .LVU147
 540:lvgl/lvgl/src/hal/lv_hal_disp.c **** 
 598              		.loc 1 540 17 is_stmt 0 view .LVU148
 599 0042 0522     		movs	r2, #5
 600              	.LVL59:
 540:lvgl/lvgl/src/hal/lv_hal_disp.c **** 
 601              		.loc 1 540 17 view .LVU149
 602 0044 62F30403 		bfi	r3, r2, #0, #5
 603 0048 8DF80C30 		strb	r3, [sp, #12]
 542:lvgl/lvgl/src/hal/lv_hal_disp.c ****     lv_opa_t bg_opa = lv_img_buf_get_px_alpha(&d, x, y);
 604              		.loc 1 542 5 is_stmt 1 view .LVU150
 605              	.LBB53:
 606              	.LBI53:
 613:lvgl/lvgl/src/hal/../draw/../misc/lv_color.h **** }
 614:lvgl/lvgl/src/hal/../draw/../misc/lv_color.h **** 
 615:lvgl/lvgl/src/hal/../draw/../misc/lv_color.h **** static inline lv_color_t lv_color_make(uint8_t r, uint8_t g, uint8_t b)
 616:lvgl/lvgl/src/hal/../draw/../misc/lv_color.h **** {
 617:lvgl/lvgl/src/hal/../draw/../misc/lv_color.h ****     return _LV_COLOR_MAKE_TYPE_HELPER LV_COLOR_MAKE(r, g, b);
 618:lvgl/lvgl/src/hal/../draw/../misc/lv_color.h **** }
 619:lvgl/lvgl/src/hal/../draw/../misc/lv_color.h **** 
 620:lvgl/lvgl/src/hal/../draw/../misc/lv_color.h **** static inline lv_color_t lv_color_hex(uint32_t c)
 621:lvgl/lvgl/src/hal/../draw/../misc/lv_color.h **** {
 622:lvgl/lvgl/src/hal/../draw/../misc/lv_color.h ****     return lv_color_make((uint8_t)((c >> 16) & 0xFF), (uint8_t)((c >> 8) & 0xFF), (uint8_t)(c & 0xF
 623:lvgl/lvgl/src/hal/../draw/../misc/lv_color.h **** }
 624:lvgl/lvgl/src/hal/../draw/../misc/lv_color.h **** 
ARM GAS  C:\Users\gx\AppData\Local\Temp\ccdv9jmC.s 			page 34


 625:lvgl/lvgl/src/hal/../draw/../misc/lv_color.h **** static inline lv_color_t lv_color_hex3(uint32_t c)
 626:lvgl/lvgl/src/hal/../draw/../misc/lv_color.h **** {
 627:lvgl/lvgl/src/hal/../draw/../misc/lv_color.h ****     return lv_color_make((uint8_t)(((c >> 4) & 0xF0) | ((c >> 8) & 0xF)), (uint8_t)((c & 0xF0) | ((
 628:lvgl/lvgl/src/hal/../draw/../misc/lv_color.h ****                          (uint8_t)((c & 0xF) | ((c & 0xF) << 4)));
 629:lvgl/lvgl/src/hal/../draw/../misc/lv_color.h **** }
 630:lvgl/lvgl/src/hal/../draw/../misc/lv_color.h **** 
 631:lvgl/lvgl/src/hal/../draw/../misc/lv_color.h **** static inline void lv_color_filter_dsc_init(lv_color_filter_dsc_t * dsc, lv_color_filter_cb_t cb)
 632:lvgl/lvgl/src/hal/../draw/../misc/lv_color.h **** {
 633:lvgl/lvgl/src/hal/../draw/../misc/lv_color.h ****     dsc->filter_cb = cb;
 634:lvgl/lvgl/src/hal/../draw/../misc/lv_color.h **** }
 635:lvgl/lvgl/src/hal/../draw/../misc/lv_color.h **** 
 636:lvgl/lvgl/src/hal/../draw/../misc/lv_color.h **** //! @cond Doxygen_Suppress
 637:lvgl/lvgl/src/hal/../draw/../misc/lv_color.h **** //!
 638:lvgl/lvgl/src/hal/../draw/../misc/lv_color.h **** LV_ATTRIBUTE_FAST_MEM void lv_color_fill(lv_color_t * buf, lv_color_t color, uint32_t px_num);
 639:lvgl/lvgl/src/hal/../draw/../misc/lv_color.h **** 
 640:lvgl/lvgl/src/hal/../draw/../misc/lv_color.h **** //! @endcond
 641:lvgl/lvgl/src/hal/../draw/../misc/lv_color.h **** lv_color_t lv_color_lighten(lv_color_t c, lv_opa_t lvl);
 642:lvgl/lvgl/src/hal/../draw/../misc/lv_color.h **** 
 643:lvgl/lvgl/src/hal/../draw/../misc/lv_color.h **** lv_color_t lv_color_darken(lv_color_t c, lv_opa_t lvl);
 644:lvgl/lvgl/src/hal/../draw/../misc/lv_color.h **** 
 645:lvgl/lvgl/src/hal/../draw/../misc/lv_color.h **** lv_color_t lv_color_change_lightness(lv_color_t c, lv_opa_t lvl);
 646:lvgl/lvgl/src/hal/../draw/../misc/lv_color.h **** 
 647:lvgl/lvgl/src/hal/../draw/../misc/lv_color.h **** /**
 648:lvgl/lvgl/src/hal/../draw/../misc/lv_color.h ****  * Convert a HSV color to RGB
 649:lvgl/lvgl/src/hal/../draw/../misc/lv_color.h ****  * @param h hue [0..359]
 650:lvgl/lvgl/src/hal/../draw/../misc/lv_color.h ****  * @param s saturation [0..100]
 651:lvgl/lvgl/src/hal/../draw/../misc/lv_color.h ****  * @param v value [0..100]
 652:lvgl/lvgl/src/hal/../draw/../misc/lv_color.h ****  * @return the given RGB color in RGB (with LV_COLOR_DEPTH depth)
 653:lvgl/lvgl/src/hal/../draw/../misc/lv_color.h ****  */
 654:lvgl/lvgl/src/hal/../draw/../misc/lv_color.h **** lv_color_t lv_color_hsv_to_rgb(uint16_t h, uint8_t s, uint8_t v);
 655:lvgl/lvgl/src/hal/../draw/../misc/lv_color.h **** 
 656:lvgl/lvgl/src/hal/../draw/../misc/lv_color.h **** /**
 657:lvgl/lvgl/src/hal/../draw/../misc/lv_color.h ****  * Convert a 32-bit RGB color to HSV
 658:lvgl/lvgl/src/hal/../draw/../misc/lv_color.h ****  * @param r8 8-bit red
 659:lvgl/lvgl/src/hal/../draw/../misc/lv_color.h ****  * @param g8 8-bit green
 660:lvgl/lvgl/src/hal/../draw/../misc/lv_color.h ****  * @param b8 8-bit blue
 661:lvgl/lvgl/src/hal/../draw/../misc/lv_color.h ****  * @return the given RGB color in HSV
 662:lvgl/lvgl/src/hal/../draw/../misc/lv_color.h ****  */
 663:lvgl/lvgl/src/hal/../draw/../misc/lv_color.h **** lv_color_hsv_t lv_color_rgb_to_hsv(uint8_t r8, uint8_t g8, uint8_t b8);
 664:lvgl/lvgl/src/hal/../draw/../misc/lv_color.h **** 
 665:lvgl/lvgl/src/hal/../draw/../misc/lv_color.h **** /**
 666:lvgl/lvgl/src/hal/../draw/../misc/lv_color.h ****  * Convert a color to HSV
 667:lvgl/lvgl/src/hal/../draw/../misc/lv_color.h ****  * @param color color
 668:lvgl/lvgl/src/hal/../draw/../misc/lv_color.h ****  * @return the given color in HSV
 669:lvgl/lvgl/src/hal/../draw/../misc/lv_color.h ****  */
 670:lvgl/lvgl/src/hal/../draw/../misc/lv_color.h **** lv_color_hsv_t lv_color_to_hsv(lv_color_t color);
 671:lvgl/lvgl/src/hal/../draw/../misc/lv_color.h **** 
 672:lvgl/lvgl/src/hal/../draw/../misc/lv_color.h **** /**
 673:lvgl/lvgl/src/hal/../draw/../misc/lv_color.h ****  * Just a wrapper around LV_COLOR_CHROMA_KEY because it might be more convenient to use a function 
 674:lvgl/lvgl/src/hal/../draw/../misc/lv_color.h ****  * @return LV_COLOR_CHROMA_KEY
 675:lvgl/lvgl/src/hal/../draw/../misc/lv_color.h ****  */
 676:lvgl/lvgl/src/hal/../draw/../misc/lv_color.h **** static inline lv_color_t lv_color_chroma_key(void)
 677:lvgl/lvgl/src/hal/../draw/../misc/lv_color.h **** {
 678:lvgl/lvgl/src/hal/../draw/../misc/lv_color.h ****     return LV_COLOR_CHROMA_KEY;
 679:lvgl/lvgl/src/hal/../draw/../misc/lv_color.h **** }
 680:lvgl/lvgl/src/hal/../draw/../misc/lv_color.h **** 
 681:lvgl/lvgl/src/hal/../draw/../misc/lv_color.h **** /**********************
ARM GAS  C:\Users\gx\AppData\Local\Temp\ccdv9jmC.s 			page 35


 682:lvgl/lvgl/src/hal/../draw/../misc/lv_color.h ****  *  PREDEFINED COLORS
 683:lvgl/lvgl/src/hal/../draw/../misc/lv_color.h ****  **********************/
 684:lvgl/lvgl/src/hal/../draw/../misc/lv_color.h **** /*Source: https://vuetifyjs.com/en/styles/colors/#material-colors*/
 685:lvgl/lvgl/src/hal/../draw/../misc/lv_color.h **** 
 686:lvgl/lvgl/src/hal/../draw/../misc/lv_color.h **** lv_color_t lv_palette_main(lv_palette_t p);
 687:lvgl/lvgl/src/hal/../draw/../misc/lv_color.h **** static inline lv_color_t lv_color_white(void) { return lv_color_make(0xff, 0xff, 0xff);}
 688:lvgl/lvgl/src/hal/../draw/../misc/lv_color.h **** static inline lv_color_t lv_color_black(void) { return lv_color_make(0x00, 0x0, 0x00);}
 607              		.loc 2 688 26 view .LVU151
 608              	.LBE53:
 609              		.loc 2 688 49 view .LVU152
 610              	.LVL60:
 611              	.LBB56:
 612              	.LBB54:
 613              	.LBI54:
 615:lvgl/lvgl/src/hal/../draw/../misc/lv_color.h **** {
 614              		.loc 2 615 26 view .LVU153
 615              	.LBB55:
 617:lvgl/lvgl/src/hal/../draw/../misc/lv_color.h **** }
 616              		.loc 2 617 5 view .LVU154
 617:lvgl/lvgl/src/hal/../draw/../misc/lv_color.h **** }
 617              		.loc 2 617 5 is_stmt 0 view .LVU155
 618              	.LBE55:
 619              	.LBE54:
 620              	.LBE56:
 542:lvgl/lvgl/src/hal/lv_hal_disp.c ****     lv_opa_t bg_opa = lv_img_buf_get_px_alpha(&d, x, y);
 621              		.loc 1 542 27 view .LVU156
 622 004c 4FF00003 		mov	r3, #0	@ movhi
 623 0050 3246     		mov	r2, r6
 624 0052 2146     		mov	r1, r4
 625 0054 03A8     		add	r0, sp, #12
 626              	.LVL61:
 542:lvgl/lvgl/src/hal/lv_hal_disp.c ****     lv_opa_t bg_opa = lv_img_buf_get_px_alpha(&d, x, y);
 627              		.loc 1 542 27 view .LVU157
 628 0056 FFF7FEFF 		bl	lv_img_buf_get_px_color
 629              	.LVL62:
 542:lvgl/lvgl/src/hal/lv_hal_disp.c ****     lv_opa_t bg_opa = lv_img_buf_get_px_alpha(&d, x, y);
 630              		.loc 1 542 27 view .LVU158
 631 005a 0746     		mov	r7, r0	@ movhi
 632              	.LVL63:
 543:lvgl/lvgl/src/hal/lv_hal_disp.c **** 
 633              		.loc 1 543 5 is_stmt 1 view .LVU159
 543:lvgl/lvgl/src/hal/lv_hal_disp.c **** 
 634              		.loc 1 543 23 is_stmt 0 view .LVU160
 635 005c 3246     		mov	r2, r6
 636 005e 2146     		mov	r1, r4
 637 0060 03A8     		add	r0, sp, #12
 638 0062 FFF7FEFF 		bl	lv_img_buf_get_px_alpha
 639              	.LVL64:
 545:lvgl/lvgl/src/hal/lv_hal_disp.c ****     lv_color_t res_color;
 640              		.loc 1 545 5 is_stmt 1 view .LVU161
 546:lvgl/lvgl/src/hal/lv_hal_disp.c **** 
 641              		.loc 1 546 5 view .LVU162
 548:lvgl/lvgl/src/hal/lv_hal_disp.c **** 
 642              		.loc 1 548 5 view .LVU163
 643              	.LBB57:
 644              	.LBI57:
 548:lvgl/lvgl/src/hal/../draw/../misc/lv_color.h ****                                                                  lv_color_t fg_color, lv_opa_t fg_o
ARM GAS  C:\Users\gx\AppData\Local\Temp\ccdv9jmC.s 			page 36


 645              		.loc 2 548 42 view .LVU164
 646              	.LBB58:
 553:lvgl/lvgl/src/hal/../draw/../misc/lv_color.h ****         res_color->full = fg_color.full;
 647              		.loc 2 553 5 view .LVU165
 553:lvgl/lvgl/src/hal/../draw/../misc/lv_color.h ****         res_color->full = fg_color.full;
 648              		.loc 2 553 7 is_stmt 0 view .LVU166
 649 0066 FC2D     		cmp	r5, #252
 650 0068 01D8     		bhi	.L30
 553:lvgl/lvgl/src/hal/../draw/../misc/lv_color.h ****         res_color->full = fg_color.full;
 651              		.loc 2 553 29 view .LVU167
 652 006a 0228     		cmp	r0, #2
 653 006c 0ED8     		bhi	.L31
 654              	.L30:
 554:lvgl/lvgl/src/hal/../draw/../misc/lv_color.h ****         *res_opa = fg_opa;
 655              		.loc 2 554 9 is_stmt 1 view .LVU168
 554:lvgl/lvgl/src/hal/../draw/../misc/lv_color.h ****         *res_opa = fg_opa;
 656              		.loc 2 554 25 is_stmt 0 view .LVU169
 657 006e BDF80470 		ldrh	r7, [sp, #4]
 555:lvgl/lvgl/src/hal/../draw/../misc/lv_color.h ****     }
 658              		.loc 2 555 9 is_stmt 1 view .LVU170
 659              	.LVL65:
 660              	.L32:
 555:lvgl/lvgl/src/hal/../draw/../misc/lv_color.h ****     }
 661              		.loc 2 555 9 is_stmt 0 view .LVU171
 662              	.LBE58:
 663              	.LBE57:
 550:lvgl/lvgl/src/hal/lv_hal_disp.c ****     lv_img_buf_set_px_color(&d, x, y, res_color);
 664              		.loc 1 550 5 is_stmt 1 view .LVU172
 665 0072 2B46     		mov	r3, r5
 666 0074 3246     		mov	r2, r6
 667 0076 2146     		mov	r1, r4
 668 0078 03A8     		add	r0, sp, #12
 669 007a FFF7FEFF 		bl	lv_img_buf_set_px_alpha
 670              	.LVL66:
 551:lvgl/lvgl/src/hal/lv_hal_disp.c **** }
 671              		.loc 1 551 5 view .LVU173
 551:lvgl/lvgl/src/hal/lv_hal_disp.c **** }
 672              		.loc 1 551 5 is_stmt 0 view .LVU174
 673 007e 3B46     		mov	r3, r7	@ movhi
 674 0080 3246     		mov	r2, r6
 675 0082 2146     		mov	r1, r4
 676 0084 03A8     		add	r0, sp, #12
 677 0086 FFF7FEFF 		bl	lv_img_buf_set_px_color
 678              	.LVL67:
 551:lvgl/lvgl/src/hal/lv_hal_disp.c **** }
 679              		.loc 1 551 5 view .LVU175
 680 008a C6E7     		b	.L27
 681              	.LVL68:
 682              	.L31:
 683              	.LBB67:
 684              	.LBB66:
 558:lvgl/lvgl/src/hal/../draw/../misc/lv_color.h ****         res_color->full = bg_color.full;
 685              		.loc 2 558 10 is_stmt 1 view .LVU176
 558:lvgl/lvgl/src/hal/../draw/../misc/lv_color.h ****         res_color->full = bg_color.full;
 686              		.loc 2 558 12 is_stmt 0 view .LVU177
 687 008c 022D     		cmp	r5, #2
 688 008e 01D8     		bhi	.L33
ARM GAS  C:\Users\gx\AppData\Local\Temp\ccdv9jmC.s 			page 37


 559:lvgl/lvgl/src/hal/../draw/../misc/lv_color.h ****         *res_opa = bg_opa;
 689              		.loc 2 559 9 is_stmt 1 view .LVU178
 560:lvgl/lvgl/src/hal/../draw/../misc/lv_color.h ****     }
 690              		.loc 2 560 9 view .LVU179
 691              	.LVL69:
 560:lvgl/lvgl/src/hal/../draw/../misc/lv_color.h ****     }
 692              		.loc 2 560 18 is_stmt 0 view .LVU180
 693 0090 0546     		mov	r5, r0
 694              	.LVL70:
 560:lvgl/lvgl/src/hal/../draw/../misc/lv_color.h ****     }
 695              		.loc 2 560 18 view .LVU181
 696 0092 EEE7     		b	.L32
 697              	.LVL71:
 698              	.L33:
 563:lvgl/lvgl/src/hal/../draw/../misc/lv_color.h ****         *res_color = lv_color_mix(fg_color, bg_color, fg_opa);
 699              		.loc 2 563 10 is_stmt 1 view .LVU182
 563:lvgl/lvgl/src/hal/../draw/../misc/lv_color.h ****         *res_color = lv_color_mix(fg_color, bg_color, fg_opa);
 700              		.loc 2 563 12 is_stmt 0 view .LVU183
 701 0094 FC28     		cmp	r0, #252
 702 0096 18D9     		bls	.L34
 564:lvgl/lvgl/src/hal/../draw/../misc/lv_color.h ****         *res_opa = LV_OPA_COVER;
 703              		.loc 2 564 9 is_stmt 1 view .LVU184
 704              	.LVL72:
 705              	.LBB59:
 706              	.LBI59:
 459:lvgl/lvgl/src/hal/../draw/../misc/lv_color.h **** {
 707              		.loc 2 459 48 view .LVU185
 708              	.LBB60:
 461:lvgl/lvgl/src/hal/../draw/../misc/lv_color.h **** 
 709              		.loc 2 461 5 view .LVU186
 465:lvgl/lvgl/src/hal/../draw/../misc/lv_color.h ****     uint32_t bg = (uint32_t)((uint32_t)c2.full | ((uint32_t)c2.full << 16)) & 0x7E0F81F; /*0b000001
 710              		.loc 2 465 5 view .LVU187
 465:lvgl/lvgl/src/hal/../draw/../misc/lv_color.h ****     uint32_t bg = (uint32_t)((uint32_t)c2.full | ((uint32_t)c2.full << 16)) & 0x7E0F81F; /*0b000001
 711              		.loc 2 465 17 is_stmt 0 view .LVU188
 712 0098 0435     		adds	r5, r5, #4
 713              	.LVL73:
 466:lvgl/lvgl/src/hal/../draw/../misc/lv_color.h ****     uint32_t fg = (uint32_t)((uint32_t)c1.full | (uint32_t)(c1.full << 16)) & 0x7E0F81F;
 714              		.loc 2 466 5 is_stmt 1 view .LVU189
 466:lvgl/lvgl/src/hal/../draw/../misc/lv_color.h ****     uint32_t fg = (uint32_t)((uint32_t)c1.full | (uint32_t)(c1.full << 16)) & 0x7E0F81F;
 715              		.loc 2 466 42 is_stmt 0 view .LVU190
 716 009a B8B2     		uxth	r0, r7
 717              	.LVL74:
 466:lvgl/lvgl/src/hal/../draw/../misc/lv_color.h ****     uint32_t fg = (uint32_t)((uint32_t)c1.full | (uint32_t)(c1.full << 16)) & 0x7E0F81F;
 718              		.loc 2 466 19 view .LVU191
 719 009c 40EA0740 		orr	r0, r0, r7, lsl #16
 466:lvgl/lvgl/src/hal/../draw/../misc/lv_color.h ****     uint32_t fg = (uint32_t)((uint32_t)c1.full | (uint32_t)(c1.full << 16)) & 0x7E0F81F;
 720              		.loc 2 466 14 view .LVU192
 721 00a0 304A     		ldr	r2, .L42
 722 00a2 1040     		ands	r0, r0, r2
 723              	.LVL75:
 467:lvgl/lvgl/src/hal/../draw/../misc/lv_color.h ****     uint32_t result = ((((fg - bg) * mix) >> 5) + bg) & 0x7E0F81F;
 724              		.loc 2 467 5 is_stmt 1 view .LVU193
 467:lvgl/lvgl/src/hal/../draw/../misc/lv_color.h ****     uint32_t result = ((((fg - bg) * mix) >> 5) + bg) & 0x7E0F81F;
 725              		.loc 2 467 42 is_stmt 0 view .LVU194
 726 00a4 BDF80430 		ldrh	r3, [sp, #4]
 467:lvgl/lvgl/src/hal/../draw/../misc/lv_color.h ****     uint32_t result = ((((fg - bg) * mix) >> 5) + bg) & 0x7E0F81F;
 727              		.loc 2 467 19 view .LVU195
ARM GAS  C:\Users\gx\AppData\Local\Temp\ccdv9jmC.s 			page 38


 728 00a8 BDF80410 		ldrh	r1, [sp, #4]
 729 00ac 43EA0143 		orr	r3, r3, r1, lsl #16
 467:lvgl/lvgl/src/hal/../draw/../misc/lv_color.h ****     uint32_t result = ((((fg - bg) * mix) >> 5) + bg) & 0x7E0F81F;
 730              		.loc 2 467 14 view .LVU196
 731 00b0 1340     		ands	r3, r3, r2
 732              	.LVL76:
 468:lvgl/lvgl/src/hal/../draw/../misc/lv_color.h ****     ret.full = (uint16_t)((result >> 16) | result);
 733              		.loc 2 468 5 is_stmt 1 view .LVU197
 468:lvgl/lvgl/src/hal/../draw/../misc/lv_color.h ****     ret.full = (uint16_t)((result >> 16) | result);
 734              		.loc 2 468 30 is_stmt 0 view .LVU198
 735 00b2 1B1A     		subs	r3, r3, r0
 736              	.LVL77:
 468:lvgl/lvgl/src/hal/../draw/../misc/lv_color.h ****     ret.full = (uint16_t)((result >> 16) | result);
 737              		.loc 2 468 36 view .LVU199
 738 00b4 C5F3C705 		ubfx	r5, r5, #3, #8
 739              	.LVL78:
 468:lvgl/lvgl/src/hal/../draw/../misc/lv_color.h ****     ret.full = (uint16_t)((result >> 16) | result);
 740              		.loc 2 468 36 view .LVU200
 741 00b8 03FB05F3 		mul	r3, r3, r5
 468:lvgl/lvgl/src/hal/../draw/../misc/lv_color.h ****     ret.full = (uint16_t)((result >> 16) | result);
 742              		.loc 2 468 49 view .LVU201
 743 00bc 00EB5317 		add	r7, r0, r3, lsr #5
 744              	.LVL79:
 468:lvgl/lvgl/src/hal/../draw/../misc/lv_color.h ****     ret.full = (uint16_t)((result >> 16) | result);
 745              		.loc 2 468 14 view .LVU202
 746 00c0 1740     		ands	r7, r7, r2
 747              	.LVL80:
 469:lvgl/lvgl/src/hal/../draw/../misc/lv_color.h **** #elif LV_COLOR_DEPTH != 1
 748              		.loc 2 469 5 is_stmt 1 view .LVU203
 484:lvgl/lvgl/src/hal/../draw/../misc/lv_color.h **** }
 749              		.loc 2 484 5 view .LVU204
 484:lvgl/lvgl/src/hal/../draw/../misc/lv_color.h **** }
 750              		.loc 2 484 5 is_stmt 0 view .LVU205
 751              	.LBE60:
 752              	.LBE59:
 564:lvgl/lvgl/src/hal/../draw/../misc/lv_color.h ****         *res_opa = LV_OPA_COVER;
 753              		.loc 2 564 22 view .LVU206
 754 00c2 47EA1747 		orr	r7, r7, r7, lsr #16
 565:lvgl/lvgl/src/hal/../draw/../misc/lv_color.h ****     }
 755              		.loc 2 565 9 is_stmt 1 view .LVU207
 756              	.LVL81:
 565:lvgl/lvgl/src/hal/../draw/../misc/lv_color.h ****     }
 757              		.loc 2 565 18 is_stmt 0 view .LVU208
 758 00c6 FF25     		movs	r5, #255
 759 00c8 D3E7     		b	.L32
 760              	.LVL82:
 761              	.L34:
 762              	.LBB61:
 570:lvgl/lvgl/src/hal/../draw/../misc/lv_color.h ****         static lv_opa_t bg_opa_save     = 0;
 763              		.loc 2 570 9 is_stmt 1 view .LVU209
 571:lvgl/lvgl/src/hal/../draw/../misc/lv_color.h ****         static lv_color_t fg_color_save = _LV_COLOR_ZERO_INITIALIZER;
 764              		.loc 2 571 9 view .LVU210
 572:lvgl/lvgl/src/hal/../draw/../misc/lv_color.h ****         static lv_color_t bg_color_save = _LV_COLOR_ZERO_INITIALIZER;
 765              		.loc 2 572 9 view .LVU211
 573:lvgl/lvgl/src/hal/../draw/../misc/lv_color.h ****         static lv_color_t res_color_saved = _LV_COLOR_ZERO_INITIALIZER;
 766              		.loc 2 573 9 view .LVU212
 574:lvgl/lvgl/src/hal/../draw/../misc/lv_color.h ****         static lv_opa_t res_opa_saved = 0;
ARM GAS  C:\Users\gx\AppData\Local\Temp\ccdv9jmC.s 			page 39


 767              		.loc 2 574 9 view .LVU213
 575:lvgl/lvgl/src/hal/../draw/../misc/lv_color.h **** 
 768              		.loc 2 575 9 view .LVU214
 577:lvgl/lvgl/src/hal/../draw/../misc/lv_color.h ****            bg_color.full != bg_color_save.full) {
 769              		.loc 2 577 9 view .LVU215
 577:lvgl/lvgl/src/hal/../draw/../misc/lv_color.h ****            bg_color.full != bg_color_save.full) {
 770              		.loc 2 577 19 is_stmt 0 view .LVU216
 771 00ca 274B     		ldr	r3, .L42+4
 772 00cc 1B78     		ldrb	r3, [r3]	@ zero_extendqisi2
 577:lvgl/lvgl/src/hal/../draw/../misc/lv_color.h ****            bg_color.full != bg_color_save.full) {
 773              		.loc 2 577 11 view .LVU217
 774 00ce 9D42     		cmp	r5, r3
 775 00d0 19D0     		beq	.L41
 776              	.LVL83:
 777              	.L35:
 778              	.LBB62:
 579:lvgl/lvgl/src/hal/../draw/../misc/lv_color.h ****             bg_opa_save        = bg_opa;
 779              		.loc 2 579 13 is_stmt 1 view .LVU218
 579:lvgl/lvgl/src/hal/../draw/../misc/lv_color.h ****             bg_opa_save        = bg_opa;
 780              		.loc 2 579 32 is_stmt 0 view .LVU219
 781 00d2 254B     		ldr	r3, .L42+4
 782 00d4 1D70     		strb	r5, [r3]
 580:lvgl/lvgl/src/hal/../draw/../misc/lv_color.h ****             fg_color_save.full = fg_color.full;
 783              		.loc 2 580 13 is_stmt 1 view .LVU220
 580:lvgl/lvgl/src/hal/../draw/../misc/lv_color.h ****             fg_color_save.full = fg_color.full;
 784              		.loc 2 580 32 is_stmt 0 view .LVU221
 785 00d6 254B     		ldr	r3, .L42+8
 786 00d8 1870     		strb	r0, [r3]
 581:lvgl/lvgl/src/hal/../draw/../misc/lv_color.h ****             bg_color_save.full = bg_color.full;
 787              		.loc 2 581 13 is_stmt 1 view .LVU222
 581:lvgl/lvgl/src/hal/../draw/../misc/lv_color.h ****             bg_color_save.full = bg_color.full;
 788              		.loc 2 581 42 is_stmt 0 view .LVU223
 789 00da BDF80430 		ldrh	r3, [sp, #4]
 581:lvgl/lvgl/src/hal/../draw/../misc/lv_color.h ****             bg_color_save.full = bg_color.full;
 790              		.loc 2 581 32 view .LVU224
 791 00de 244A     		ldr	r2, .L42+12
 792 00e0 1380     		strh	r3, [r2]	@ movhi
 582:lvgl/lvgl/src/hal/../draw/../misc/lv_color.h ****             /*Info:
 793              		.loc 2 582 13 is_stmt 1 view .LVU225
 582:lvgl/lvgl/src/hal/../draw/../misc/lv_color.h ****             /*Info:
 794              		.loc 2 582 42 is_stmt 0 view .LVU226
 795 00e2 B9B2     		uxth	r1, r7
 582:lvgl/lvgl/src/hal/../draw/../misc/lv_color.h ****             /*Info:
 796              		.loc 2 582 32 view .LVU227
 797 00e4 234A     		ldr	r2, .L42+16
 798 00e6 1780     		strh	r7, [r2]	@ movhi
 585:lvgl/lvgl/src/hal/../draw/../misc/lv_color.h ****             if(res_opa_saved == 0) {
 799              		.loc 2 585 13 is_stmt 1 view .LVU228
 585:lvgl/lvgl/src/hal/../draw/../misc/lv_color.h ****             if(res_opa_saved == 0) {
 800              		.loc 2 585 47 is_stmt 0 view .LVU229
 801 00e8 ADB2     		uxth	r5, r5
 802              	.LVL84:
 585:lvgl/lvgl/src/hal/../draw/../misc/lv_color.h ****             if(res_opa_saved == 0) {
 803              		.loc 2 585 47 view .LVU230
 804 00ea C5F1FF07 		rsb	r7, r5, #255
 805              	.LVL85:
 585:lvgl/lvgl/src/hal/../draw/../misc/lv_color.h ****             if(res_opa_saved == 0) {
ARM GAS  C:\Users\gx\AppData\Local\Temp\ccdv9jmC.s 			page 40


 806              		.loc 2 585 79 view .LVU231
 807 00ee C0F1FF02 		rsb	r2, r0, #255
 585:lvgl/lvgl/src/hal/../draw/../misc/lv_color.h ****             if(res_opa_saved == 0) {
 808              		.loc 2 585 36 view .LVU232
 809 00f2 12FB07F2 		smulbb	r2, r2, r7
 585:lvgl/lvgl/src/hal/../draw/../misc/lv_color.h ****             if(res_opa_saved == 0) {
 810              		.loc 2 585 33 view .LVU233
 811 00f6 C2F30722 		ubfx	r2, r2, #8, #8
 812 00fa D243     		mvns	r2, r2
 813 00fc D2B2     		uxtb	r2, r2
 585:lvgl/lvgl/src/hal/../draw/../misc/lv_color.h ****             if(res_opa_saved == 0) {
 814              		.loc 2 585 27 view .LVU234
 815 00fe 1E48     		ldr	r0, .L42+20
 816              	.LVL86:
 585:lvgl/lvgl/src/hal/../draw/../misc/lv_color.h ****             if(res_opa_saved == 0) {
 817              		.loc 2 585 27 view .LVU235
 818 0100 0270     		strb	r2, [r0]
 586:lvgl/lvgl/src/hal/../draw/../misc/lv_color.h ****                 while(1)
 819              		.loc 2 586 13 is_stmt 1 view .LVU236
 586:lvgl/lvgl/src/hal/../draw/../misc/lv_color.h ****                 while(1)
 820              		.loc 2 586 15 is_stmt 0 view .LVU237
 821 0102 82B9     		cbnz	r2, .L37
 822              	.L38:
 587:lvgl/lvgl/src/hal/../draw/../misc/lv_color.h ****                     ;
 823              		.loc 2 587 17 is_stmt 1 view .LVU238
 588:lvgl/lvgl/src/hal/../draw/../misc/lv_color.h ****             }
 824              		.loc 2 588 21 view .LVU239
 587:lvgl/lvgl/src/hal/../draw/../misc/lv_color.h ****                     ;
 825              		.loc 2 587 22 view .LVU240
 826 0104 FEE7     		b	.L38
 827              	.LVL87:
 828              	.L41:
 587:lvgl/lvgl/src/hal/../draw/../misc/lv_color.h ****                     ;
 829              		.loc 2 587 22 is_stmt 0 view .LVU241
 830              	.LBE62:
 577:lvgl/lvgl/src/hal/../draw/../misc/lv_color.h ****            bg_color.full != bg_color_save.full) {
 831              		.loc 2 577 44 view .LVU242
 832 0106 194B     		ldr	r3, .L42+8
 833 0108 1B78     		ldrb	r3, [r3]	@ zero_extendqisi2
 577:lvgl/lvgl/src/hal/../draw/../misc/lv_color.h ****            bg_color.full != bg_color_save.full) {
 834              		.loc 2 577 34 view .LVU243
 835 010a 9842     		cmp	r0, r3
 836 010c E1D1     		bne	.L35
 577:lvgl/lvgl/src/hal/../draw/../misc/lv_color.h ****            bg_color.full != bg_color_save.full) {
 837              		.loc 2 577 70 view .LVU244
 838 010e BDF80420 		ldrh	r2, [sp, #4]
 577:lvgl/lvgl/src/hal/../draw/../misc/lv_color.h ****            bg_color.full != bg_color_save.full) {
 839              		.loc 2 577 92 view .LVU245
 840 0112 174B     		ldr	r3, .L42+12
 841 0114 1B88     		ldrh	r3, [r3]
 577:lvgl/lvgl/src/hal/../draw/../misc/lv_color.h ****            bg_color.full != bg_color_save.full) {
 842              		.loc 2 577 59 view .LVU246
 843 0116 9A42     		cmp	r2, r3
 844 0118 DBD1     		bne	.L35
 845              	.LVL88:
 578:lvgl/lvgl/src/hal/../draw/../misc/lv_color.h ****             fg_opa_save        = fg_opa;
 846              		.loc 2 578 20 view .LVU247
ARM GAS  C:\Users\gx\AppData\Local\Temp\ccdv9jmC.s 			page 41


 847 011a BBB2     		uxth	r3, r7
 578:lvgl/lvgl/src/hal/../draw/../misc/lv_color.h ****             fg_opa_save        = fg_opa;
 848              		.loc 2 578 42 view .LVU248
 849 011c 154A     		ldr	r2, .L42+16
 850 011e 1288     		ldrh	r2, [r2]
 577:lvgl/lvgl/src/hal/../draw/../misc/lv_color.h ****            bg_color.full != bg_color_save.full) {
 851              		.loc 2 577 98 view .LVU249
 852 0120 9342     		cmp	r3, r2
 853 0122 D6D1     		bne	.L35
 854 0124 18E0     		b	.L36
 855              	.LVL89:
 856              	.L37:
 857              	.LBB65:
 590:lvgl/lvgl/src/hal/../draw/../misc/lv_color.h ****             res_color_saved = lv_color_mix(fg_color, bg_color, ratio);
 858              		.loc 2 590 13 is_stmt 1 view .LVU250
 590:lvgl/lvgl/src/hal/../draw/../misc/lv_color.h ****             res_color_saved = lv_color_mix(fg_color, bg_color, ratio);
 859              		.loc 2 590 30 is_stmt 0 view .LVU251
 860 0126 C5EB0525 		rsb	r5, r5, r5, lsl #8
 861 012a A8B2     		uxth	r0, r5
 590:lvgl/lvgl/src/hal/../draw/../misc/lv_color.h ****             res_color_saved = lv_color_mix(fg_color, bg_color, ratio);
 862              		.loc 2 590 65 view .LVU252
 863 012c 90FBF2F2 		sdiv	r2, r0, r2
 864              	.LVL90:
 591:lvgl/lvgl/src/hal/../draw/../misc/lv_color.h **** 
 865              		.loc 2 591 13 is_stmt 1 view .LVU253
 866              	.LBB63:
 867              	.LBI63:
 459:lvgl/lvgl/src/hal/../draw/../misc/lv_color.h **** {
 868              		.loc 2 459 48 view .LVU254
 869              	.LBB64:
 461:lvgl/lvgl/src/hal/../draw/../misc/lv_color.h **** 
 870              		.loc 2 461 5 view .LVU255
 465:lvgl/lvgl/src/hal/../draw/../misc/lv_color.h ****     uint32_t bg = (uint32_t)((uint32_t)c2.full | ((uint32_t)c2.full << 16)) & 0x7E0F81F; /*0b000001
 871              		.loc 2 465 5 view .LVU256
 465:lvgl/lvgl/src/hal/../draw/../misc/lv_color.h ****     uint32_t bg = (uint32_t)((uint32_t)c2.full | ((uint32_t)c2.full << 16)) & 0x7E0F81F; /*0b000001
 872              		.loc 2 465 17 is_stmt 0 view .LVU257
 873 0130 D2B2     		uxtb	r2, r2
 465:lvgl/lvgl/src/hal/../draw/../misc/lv_color.h ****     uint32_t bg = (uint32_t)((uint32_t)c2.full | ((uint32_t)c2.full << 16)) & 0x7E0F81F; /*0b000001
 874              		.loc 2 465 17 view .LVU258
 875 0132 0432     		adds	r2, r2, #4
 876              	.LVL91:
 466:lvgl/lvgl/src/hal/../draw/../misc/lv_color.h ****     uint32_t fg = (uint32_t)((uint32_t)c1.full | (uint32_t)(c1.full << 16)) & 0x7E0F81F;
 877              		.loc 2 466 5 is_stmt 1 view .LVU259
 466:lvgl/lvgl/src/hal/../draw/../misc/lv_color.h ****     uint32_t fg = (uint32_t)((uint32_t)c1.full | (uint32_t)(c1.full << 16)) & 0x7E0F81F;
 878              		.loc 2 466 19 is_stmt 0 view .LVU260
 879 0134 41EA0141 		orr	r1, r1, r1, lsl #16
 466:lvgl/lvgl/src/hal/../draw/../misc/lv_color.h ****     uint32_t fg = (uint32_t)((uint32_t)c1.full | (uint32_t)(c1.full << 16)) & 0x7E0F81F;
 880              		.loc 2 466 14 view .LVU261
 881 0138 0A4D     		ldr	r5, .L42
 882 013a 2940     		ands	r1, r1, r5
 883              	.LVL92:
 467:lvgl/lvgl/src/hal/../draw/../misc/lv_color.h ****     uint32_t result = ((((fg - bg) * mix) >> 5) + bg) & 0x7E0F81F;
 884              		.loc 2 467 5 is_stmt 1 view .LVU262
 467:lvgl/lvgl/src/hal/../draw/../misc/lv_color.h ****     uint32_t result = ((((fg - bg) * mix) >> 5) + bg) & 0x7E0F81F;
 885              		.loc 2 467 19 is_stmt 0 view .LVU263
 886 013c 43EA0343 		orr	r3, r3, r3, lsl #16
 467:lvgl/lvgl/src/hal/../draw/../misc/lv_color.h ****     uint32_t result = ((((fg - bg) * mix) >> 5) + bg) & 0x7E0F81F;
ARM GAS  C:\Users\gx\AppData\Local\Temp\ccdv9jmC.s 			page 42


 887              		.loc 2 467 14 view .LVU264
 888 0140 2B40     		ands	r3, r3, r5
 889              	.LVL93:
 468:lvgl/lvgl/src/hal/../draw/../misc/lv_color.h ****     ret.full = (uint16_t)((result >> 16) | result);
 890              		.loc 2 468 5 is_stmt 1 view .LVU265
 468:lvgl/lvgl/src/hal/../draw/../misc/lv_color.h ****     ret.full = (uint16_t)((result >> 16) | result);
 891              		.loc 2 468 30 is_stmt 0 view .LVU266
 892 0142 581A     		subs	r0, r3, r1
 468:lvgl/lvgl/src/hal/../draw/../misc/lv_color.h ****     ret.full = (uint16_t)((result >> 16) | result);
 893              		.loc 2 468 36 view .LVU267
 894 0144 D308     		lsrs	r3, r2, #3
 895              	.LVL94:
 468:lvgl/lvgl/src/hal/../draw/../misc/lv_color.h ****     ret.full = (uint16_t)((result >> 16) | result);
 896              		.loc 2 468 36 view .LVU268
 897 0146 00FB03F3 		mul	r3, r0, r3
 468:lvgl/lvgl/src/hal/../draw/../misc/lv_color.h ****     ret.full = (uint16_t)((result >> 16) | result);
 898              		.loc 2 468 49 view .LVU269
 899 014a 01EB5313 		add	r3, r1, r3, lsr #5
 468:lvgl/lvgl/src/hal/../draw/../misc/lv_color.h ****     ret.full = (uint16_t)((result >> 16) | result);
 900              		.loc 2 468 14 view .LVU270
 901 014e 2B40     		ands	r3, r3, r5
 902              	.LVL95:
 469:lvgl/lvgl/src/hal/../draw/../misc/lv_color.h **** #elif LV_COLOR_DEPTH != 1
 903              		.loc 2 469 5 is_stmt 1 view .LVU271
 469:lvgl/lvgl/src/hal/../draw/../misc/lv_color.h **** #elif LV_COLOR_DEPTH != 1
 904              		.loc 2 469 16 is_stmt 0 view .LVU272
 905 0150 43EA1343 		orr	r3, r3, r3, lsr #16
 906              	.LVL96:
 484:lvgl/lvgl/src/hal/../draw/../misc/lv_color.h **** }
 907              		.loc 2 484 5 is_stmt 1 view .LVU273
 484:lvgl/lvgl/src/hal/../draw/../misc/lv_color.h **** }
 908              		.loc 2 484 5 is_stmt 0 view .LVU274
 909              	.LBE64:
 910              	.LBE63:
 591:lvgl/lvgl/src/hal/../draw/../misc/lv_color.h **** 
 911              		.loc 2 591 31 view .LVU275
 912 0154 094A     		ldr	r2, .L42+24
 913              	.LVL97:
 591:lvgl/lvgl/src/hal/../draw/../misc/lv_color.h **** 
 914              		.loc 2 591 31 view .LVU276
 915 0156 1380     		strh	r3, [r2]	@ movhi
 916              	.LVL98:
 917              	.L36:
 591:lvgl/lvgl/src/hal/../draw/../misc/lv_color.h **** 
 918              		.loc 2 591 31 view .LVU277
 919              	.LBE65:
 595:lvgl/lvgl/src/hal/../draw/../misc/lv_color.h ****         *res_opa = res_opa_saved;
 920              		.loc 2 595 9 is_stmt 1 view .LVU278
 595:lvgl/lvgl/src/hal/../draw/../misc/lv_color.h ****         *res_opa = res_opa_saved;
 921              		.loc 2 595 25 is_stmt 0 view .LVU279
 922 0158 084B     		ldr	r3, .L42+24
 923 015a 1F88     		ldrh	r7, [r3]
 924              	.LVL99:
 596:lvgl/lvgl/src/hal/../draw/../misc/lv_color.h ****     }
 925              		.loc 2 596 9 is_stmt 1 view .LVU280
 596:lvgl/lvgl/src/hal/../draw/../misc/lv_color.h ****     }
 926              		.loc 2 596 18 is_stmt 0 view .LVU281
ARM GAS  C:\Users\gx\AppData\Local\Temp\ccdv9jmC.s 			page 43


 927 015c 064B     		ldr	r3, .L42+20
 928 015e 1D78     		ldrb	r5, [r3]	@ zero_extendqisi2
 929              	.LVL100:
 596:lvgl/lvgl/src/hal/../draw/../misc/lv_color.h ****     }
 930              		.loc 2 596 18 view .LVU282
 931 0160 87E7     		b	.L32
 932              	.L43:
 933 0162 00BF     		.align	2
 934              	.L42:
 935 0164 1FF8E007 		.word	132184095
 936 0168 00000000 		.word	.LANCHOR0
 937 016c 00000000 		.word	.LANCHOR1
 938 0170 00000000 		.word	.LANCHOR2
 939 0174 00000000 		.word	.LANCHOR3
 940 0178 00000000 		.word	.LANCHOR4
 941 017c 00000000 		.word	.LANCHOR5
 942              	.LBE61:
 943              	.LBE66:
 944              	.LBE67:
 945              		.cfi_endproc
 946              	.LFE176:
 948              		.section	.text.lv_disp_drv_init,"ax",%progbits
 949              		.align	1
 950              		.global	lv_disp_drv_init
 951              		.syntax unified
 952              		.thumb
 953              		.thumb_func
 954              		.fpu fpv4-sp-d16
 956              	lv_disp_drv_init:
 957              	.LVL101:
 958              	.LFB152:
  75:lvgl/lvgl/src/hal/lv_hal_disp.c ****     lv_memset_00(driver, sizeof(lv_disp_drv_t));
 959              		.loc 1 75 1 is_stmt 1 view -0
 960              		.cfi_startproc
 961              		@ args = 0, pretend = 0, frame = 0
 962              		@ frame_needed = 0, uses_anonymous_args = 0
  75:lvgl/lvgl/src/hal/lv_hal_disp.c ****     lv_memset_00(driver, sizeof(lv_disp_drv_t));
 963              		.loc 1 75 1 is_stmt 0 view .LVU284
 964 0000 10B5     		push	{r4, lr}
 965              	.LCFI22:
 966              		.cfi_def_cfa_offset 8
 967              		.cfi_offset 4, -8
 968              		.cfi_offset 14, -4
 969 0002 0446     		mov	r4, r0
  76:lvgl/lvgl/src/hal/lv_hal_disp.c **** 
 970              		.loc 1 76 5 is_stmt 1 view .LVU285
 971 0004 3821     		movs	r1, #56
 972 0006 FFF7FEFF 		bl	lv_memset_00
 973              	.LVL102:
  78:lvgl/lvgl/src/hal/lv_hal_disp.c ****     driver->ver_res          = 240;
 974              		.loc 1 78 5 view .LVU286
  78:lvgl/lvgl/src/hal/lv_hal_disp.c ****     driver->ver_res          = 240;
 975              		.loc 1 78 30 is_stmt 0 view .LVU287
 976 000a 4FF4A073 		mov	r3, #320
 977 000e 2380     		strh	r3, [r4]	@ movhi
  79:lvgl/lvgl/src/hal/lv_hal_disp.c ****     driver->antialiasing     = LV_COLOR_DEPTH > 8 ? 1: 0;
 978              		.loc 1 79 5 is_stmt 1 view .LVU288
ARM GAS  C:\Users\gx\AppData\Local\Temp\ccdv9jmC.s 			page 44


  79:lvgl/lvgl/src/hal/lv_hal_disp.c ****     driver->antialiasing     = LV_COLOR_DEPTH > 8 ? 1: 0;
 979              		.loc 1 79 30 is_stmt 0 view .LVU289
 980 0010 F023     		movs	r3, #240
 981 0012 6380     		strh	r3, [r4, #2]	@ movhi
  80:lvgl/lvgl/src/hal/lv_hal_disp.c ****     driver->screen_transp    = LV_COLOR_SCREEN_TRANSP;
 982              		.loc 1 80 5 is_stmt 1 view .LVU290
  80:lvgl/lvgl/src/hal/lv_hal_disp.c ****     driver->screen_transp    = LV_COLOR_SCREEN_TRANSP;
 983              		.loc 1 80 30 is_stmt 0 view .LVU291
 984 0014 237A     		ldrb	r3, [r4, #8]	@ zero_extendqisi2
  81:lvgl/lvgl/src/hal/lv_hal_disp.c ****     driver->dpi              = LV_DPI_DEF;
 985              		.loc 1 81 5 is_stmt 1 view .LVU292
  81:lvgl/lvgl/src/hal/lv_hal_disp.c ****     driver->dpi              = LV_DPI_DEF;
 986              		.loc 1 81 30 is_stmt 0 view .LVU293
 987 0016 43F00403 		orr	r3, r3, #4
 988 001a 6FF34513 		bfc	r3, #5, #1
 989 001e 2372     		strb	r3, [r4, #8]
  82:lvgl/lvgl/src/hal/lv_hal_disp.c ****     driver->color_chroma_key = LV_COLOR_CHROMA_KEY;
 990              		.loc 1 82 5 is_stmt 1 view .LVU294
  82:lvgl/lvgl/src/hal/lv_hal_disp.c ****     driver->color_chroma_key = LV_COLOR_CHROMA_KEY;
 991              		.loc 1 82 30 is_stmt 0 view .LVU295
 992 0020 2389     		ldrh	r3, [r4, #8]
 993 0022 8222     		movs	r2, #130
 994 0024 62F38F13 		bfi	r3, r2, #6, #10
 995 0028 2381     		strh	r3, [r4, #8]	@ movhi
  83:lvgl/lvgl/src/hal/lv_hal_disp.c **** }
 996              		.loc 1 83 5 is_stmt 1 view .LVU296
 997              	.LVL103:
 998              	.LBB68:
 999              	.LBI68:
 620:lvgl/lvgl/src/hal/../draw/../misc/lv_color.h **** {
 1000              		.loc 2 620 26 view .LVU297
 1001              	.LBE68:
 622:lvgl/lvgl/src/hal/../draw/../misc/lv_color.h **** }
 1002              		.loc 2 622 5 view .LVU298
 1003              	.LBB71:
 1004              	.LBB69:
 1005              	.LBI69:
 615:lvgl/lvgl/src/hal/../draw/../misc/lv_color.h **** {
 1006              		.loc 2 615 26 view .LVU299
 1007              	.LBB70:
 617:lvgl/lvgl/src/hal/../draw/../misc/lv_color.h **** }
 1008              		.loc 2 617 5 view .LVU300
 617:lvgl/lvgl/src/hal/../draw/../misc/lv_color.h **** }
 1009              		.loc 2 617 12 is_stmt 0 view .LVU301
 1010 002a 4FF4FC63 		mov	r3, #2016	@ movhi
 1011              	.LVL104:
 617:lvgl/lvgl/src/hal/../draw/../misc/lv_color.h **** }
 1012              		.loc 2 617 12 view .LVU302
 1013              	.LBE70:
 1014              	.LBE69:
 1015              	.LBE71:
  83:lvgl/lvgl/src/hal/lv_hal_disp.c **** }
 1016              		.loc 1 83 32 view .LVU303
 1017 002e 2386     		strh	r3, [r4, #48]	@ movhi
  84:lvgl/lvgl/src/hal/lv_hal_disp.c **** 
 1018              		.loc 1 84 1 view .LVU304
 1019 0030 10BD     		pop	{r4, pc}
ARM GAS  C:\Users\gx\AppData\Local\Temp\ccdv9jmC.s 			page 45


  84:lvgl/lvgl/src/hal/lv_hal_disp.c **** 
 1020              		.loc 1 84 1 view .LVU305
 1021              		.cfi_endproc
 1022              	.LFE152:
 1024              		.section	.text.lv_disp_draw_buf_init,"ax",%progbits
 1025              		.align	1
 1026              		.global	lv_disp_draw_buf_init
 1027              		.syntax unified
 1028              		.thumb
 1029              		.thumb_func
 1030              		.fpu fpv4-sp-d16
 1032              	lv_disp_draw_buf_init:
 1033              	.LVL105:
 1034              	.LFB153:
 102:lvgl/lvgl/src/hal/lv_hal_disp.c ****     lv_memset_00(draw_buf, sizeof(lv_disp_draw_buf_t));
 1035              		.loc 1 102 1 is_stmt 1 view -0
 1036              		.cfi_startproc
 1037              		@ args = 0, pretend = 0, frame = 0
 1038              		@ frame_needed = 0, uses_anonymous_args = 0
 102:lvgl/lvgl/src/hal/lv_hal_disp.c ****     lv_memset_00(draw_buf, sizeof(lv_disp_draw_buf_t));
 1039              		.loc 1 102 1 is_stmt 0 view .LVU307
 1040 0000 F8B5     		push	{r3, r4, r5, r6, r7, lr}
 1041              	.LCFI23:
 1042              		.cfi_def_cfa_offset 24
 1043              		.cfi_offset 3, -24
 1044              		.cfi_offset 4, -20
 1045              		.cfi_offset 5, -16
 1046              		.cfi_offset 6, -12
 1047              		.cfi_offset 7, -8
 1048              		.cfi_offset 14, -4
 1049 0002 0446     		mov	r4, r0
 1050 0004 0D46     		mov	r5, r1
 1051 0006 1746     		mov	r7, r2
 1052 0008 1E46     		mov	r6, r3
 103:lvgl/lvgl/src/hal/lv_hal_disp.c **** 
 1053              		.loc 1 103 5 is_stmt 1 view .LVU308
 1054 000a 2421     		movs	r1, #36
 1055              	.LVL106:
 103:lvgl/lvgl/src/hal/lv_hal_disp.c **** 
 1056              		.loc 1 103 5 is_stmt 0 view .LVU309
 1057 000c FFF7FEFF 		bl	lv_memset_00
 1058              	.LVL107:
 105:lvgl/lvgl/src/hal/lv_hal_disp.c ****     draw_buf->buf2    = buf2;
 1059              		.loc 1 105 5 is_stmt 1 view .LVU310
 105:lvgl/lvgl/src/hal/lv_hal_disp.c ****     draw_buf->buf2    = buf2;
 1060              		.loc 1 105 23 is_stmt 0 view .LVU311
 1061 0010 2560     		str	r5, [r4]
 106:lvgl/lvgl/src/hal/lv_hal_disp.c ****     draw_buf->buf_act = draw_buf->buf1;
 1062              		.loc 1 106 5 is_stmt 1 view .LVU312
 106:lvgl/lvgl/src/hal/lv_hal_disp.c ****     draw_buf->buf_act = draw_buf->buf1;
 1063              		.loc 1 106 23 is_stmt 0 view .LVU313
 1064 0012 6760     		str	r7, [r4, #4]
 107:lvgl/lvgl/src/hal/lv_hal_disp.c ****     draw_buf->size    = size_in_px_cnt;
 1065              		.loc 1 107 5 is_stmt 1 view .LVU314
 107:lvgl/lvgl/src/hal/lv_hal_disp.c ****     draw_buf->size    = size_in_px_cnt;
 1066              		.loc 1 107 23 is_stmt 0 view .LVU315
 1067 0014 A560     		str	r5, [r4, #8]
ARM GAS  C:\Users\gx\AppData\Local\Temp\ccdv9jmC.s 			page 46


 108:lvgl/lvgl/src/hal/lv_hal_disp.c **** }
 1068              		.loc 1 108 5 is_stmt 1 view .LVU316
 108:lvgl/lvgl/src/hal/lv_hal_disp.c **** }
 1069              		.loc 1 108 23 is_stmt 0 view .LVU317
 1070 0016 E660     		str	r6, [r4, #12]
 109:lvgl/lvgl/src/hal/lv_hal_disp.c **** 
 1071              		.loc 1 109 1 view .LVU318
 1072 0018 F8BD     		pop	{r3, r4, r5, r6, r7, pc}
 109:lvgl/lvgl/src/hal/lv_hal_disp.c **** 
 1073              		.loc 1 109 1 view .LVU319
 1074              		.cfi_endproc
 1075              	.LFE153:
 1077              		.section	.rodata.lv_disp_drv_register.str1.4,"aMS",%progbits,1
 1078              		.align	2
 1079              	.LC0:
 1080 0000 6C76676C 		.ascii	"lvgl/lvgl/src/hal/lv_hal_disp.c\000"
 1080      2F6C7667 
 1080      6C2F7372 
 1080      632F6861 
 1080      6C2F6C76 
 1081              		.align	2
 1082              	.LC1:
 1083 0020 4F757420 		.ascii	"Out of memory\000"
 1083      6F66206D 
 1083      656D6F72 
 1083      7900
 1084 002e 0000     		.align	2
 1085              	.LC2:
 1086 0030 64697370 		.ascii	"disp != NULL\000"
 1086      20213D20 
 1086      4E554C4C 
 1086      00
 1087 003d 000000   		.align	2
 1088              	.LC3:
 1089 0040 41737365 		.ascii	"Asserted at expression: %s (%s)\000"
 1089      72746564 
 1089      20617420 
 1089      65787072 
 1089      65737369 
 1090              		.align	2
 1091              	.LC4:
 1092 0060 64697370 		.ascii	"disp->refr_timer != NULL\000"
 1092      2D3E7265 
 1092      66725F74 
 1092      696D6572 
 1092      20213D20 
 1093 0079 000000   		.align	2
 1094              	.LC5:
 1095 007c 66756C6C 		.ascii	"full_refresh requires at least screen sized draw bu"
 1095      5F726566 
 1095      72657368 
 1095      20726571 
 1095      75697265 
 1096 00af 66666572 		.ascii	"ffer(s)\000"
 1096      28732900 
 1097              		.section	.text.lv_disp_drv_register,"ax",%progbits
 1098              		.align	1
ARM GAS  C:\Users\gx\AppData\Local\Temp\ccdv9jmC.s 			page 47


 1099              		.global	lv_disp_drv_register
 1100              		.syntax unified
 1101              		.thumb
 1102              		.thumb_func
 1103              		.fpu fpv4-sp-d16
 1105              	lv_disp_drv_register:
 1106              	.LVL108:
 1107              	.LFB154:
 118:lvgl/lvgl/src/hal/lv_hal_disp.c ****     lv_disp_t * disp = _lv_ll_ins_head(&LV_GC_ROOT(_lv_disp_ll));
 1108              		.loc 1 118 1 is_stmt 1 view -0
 1109              		.cfi_startproc
 1110              		@ args = 0, pretend = 0, frame = 0
 1111              		@ frame_needed = 0, uses_anonymous_args = 0
 118:lvgl/lvgl/src/hal/lv_hal_disp.c ****     lv_disp_t * disp = _lv_ll_ins_head(&LV_GC_ROOT(_lv_disp_ll));
 1112              		.loc 1 118 1 is_stmt 0 view .LVU321
 1113 0000 70B5     		push	{r4, r5, r6, lr}
 1114              	.LCFI24:
 1115              		.cfi_def_cfa_offset 16
 1116              		.cfi_offset 4, -16
 1117              		.cfi_offset 5, -12
 1118              		.cfi_offset 6, -8
 1119              		.cfi_offset 14, -4
 1120 0002 84B0     		sub	sp, sp, #16
 1121              	.LCFI25:
 1122              		.cfi_def_cfa_offset 32
 1123 0004 0546     		mov	r5, r0
 119:lvgl/lvgl/src/hal/lv_hal_disp.c ****     if(!disp) {
 1124              		.loc 1 119 5 is_stmt 1 view .LVU322
 119:lvgl/lvgl/src/hal/lv_hal_disp.c ****     if(!disp) {
 1125              		.loc 1 119 24 is_stmt 0 view .LVU323
 1126 0006 4E48     		ldr	r0, .L62
 1127              	.LVL109:
 119:lvgl/lvgl/src/hal/lv_hal_disp.c ****     if(!disp) {
 1128              		.loc 1 119 24 view .LVU324
 1129 0008 FFF7FEFF 		bl	_lv_ll_ins_head
 1130              	.LVL110:
 120:lvgl/lvgl/src/hal/lv_hal_disp.c ****         LV_ASSERT_MALLOC(disp);
 1131              		.loc 1 120 5 is_stmt 1 view .LVU325
 120:lvgl/lvgl/src/hal/lv_hal_disp.c ****         LV_ASSERT_MALLOC(disp);
 1132              		.loc 1 120 7 is_stmt 0 view .LVU326
 1133 000c 0028     		cmp	r0, #0
 1134 000e 5CD0     		beq	.L57
 1135 0010 0446     		mov	r4, r0
 125:lvgl/lvgl/src/hal/lv_hal_disp.c **** 
 1136              		.loc 1 125 5 is_stmt 1 view .LVU327
 1137 0012 4FF4AC71 		mov	r1, #344
 1138 0016 FFF7FEFF 		bl	lv_memset_00
 1139              	.LVL111:
 127:lvgl/lvgl/src/hal/lv_hal_disp.c **** 
 1140              		.loc 1 127 5 view .LVU328
 127:lvgl/lvgl/src/hal/lv_hal_disp.c **** 
 1141              		.loc 1 127 18 is_stmt 0 view .LVU329
 1142 001a 2560     		str	r5, [r4]
 129:lvgl/lvgl/src/hal/lv_hal_disp.c ****     disp_def                 = disp; /*Temporarily change the default screen to create the default 
 1143              		.loc 1 129 5 is_stmt 1 view .LVU330
 129:lvgl/lvgl/src/hal/lv_hal_disp.c ****     disp_def                 = disp; /*Temporarily change the default screen to create the default 
 1144              		.loc 1 129 17 is_stmt 0 view .LVU331
ARM GAS  C:\Users\gx\AppData\Local\Temp\ccdv9jmC.s 			page 48


 1145 001c 494B     		ldr	r3, .L62+4
 1146 001e 1E68     		ldr	r6, [r3]
 1147              	.LVL112:
 130:lvgl/lvgl/src/hal/lv_hal_disp.c ****                                         new display*/
 1148              		.loc 1 130 5 is_stmt 1 view .LVU332
 130:lvgl/lvgl/src/hal/lv_hal_disp.c ****                                         new display*/
 1149              		.loc 1 130 30 is_stmt 0 view .LVU333
 1150 0020 1C60     		str	r4, [r3]
 133:lvgl/lvgl/src/hal/lv_hal_disp.c ****     LV_ASSERT_MALLOC(disp->refr_timer);
 1151              		.loc 1 133 5 is_stmt 1 view .LVU334
 133:lvgl/lvgl/src/hal/lv_hal_disp.c ****     LV_ASSERT_MALLOC(disp->refr_timer);
 1152              		.loc 1 133 24 is_stmt 0 view .LVU335
 1153 0022 2246     		mov	r2, r4
 1154 0024 1E21     		movs	r1, #30
 1155 0026 4848     		ldr	r0, .L62+8
 1156 0028 FFF7FEFF 		bl	lv_timer_create
 1157              	.LVL113:
 133:lvgl/lvgl/src/hal/lv_hal_disp.c ****     LV_ASSERT_MALLOC(disp->refr_timer);
 1158              		.loc 1 133 22 view .LVU336
 1159 002c 6060     		str	r0, [r4, #4]
 134:lvgl/lvgl/src/hal/lv_hal_disp.c ****     if(disp->refr_timer == NULL) {
 1160              		.loc 1 134 5 is_stmt 1 view .LVU337
 134:lvgl/lvgl/src/hal/lv_hal_disp.c ****     if(disp->refr_timer == NULL) {
 1161              		.loc 1 134 5 view .LVU338
 1162 002e 0028     		cmp	r0, #0
 1163 0030 58D0     		beq	.L58
 134:lvgl/lvgl/src/hal/lv_hal_disp.c ****     if(disp->refr_timer == NULL) {
 1164              		.loc 1 134 5 view .LVU339
 134:lvgl/lvgl/src/hal/lv_hal_disp.c ****     if(disp->refr_timer == NULL) {
 1165              		.loc 1 134 39 view .LVU340
 135:lvgl/lvgl/src/hal/lv_hal_disp.c ****         lv_mem_free(disp);
 1166              		.loc 1 135 5 view .LVU341
 140:lvgl/lvgl/src/hal/lv_hal_disp.c ****         driver->full_refresh = 0;
 1167              		.loc 1 140 5 view .LVU342
 140:lvgl/lvgl/src/hal/lv_hal_disp.c ****         driver->full_refresh = 0;
 1168              		.loc 1 140 8 is_stmt 0 view .LVU343
 1169 0032 2B7A     		ldrb	r3, [r5, #8]	@ zero_extendqisi2
 140:lvgl/lvgl/src/hal/lv_hal_disp.c ****         driver->full_refresh = 0;
 1170              		.loc 1 140 7 view .LVU344
 1171 0034 13F0010F 		tst	r3, #1
 1172 0038 09D0     		beq	.L53
 140:lvgl/lvgl/src/hal/lv_hal_disp.c ****         driver->full_refresh = 0;
 1173              		.loc 1 140 38 discriminator 1 view .LVU345
 1174 003a 6B68     		ldr	r3, [r5, #4]
 140:lvgl/lvgl/src/hal/lv_hal_disp.c ****         driver->full_refresh = 0;
 1175              		.loc 1 140 48 discriminator 1 view .LVU346
 1176 003c DA68     		ldr	r2, [r3, #12]
 140:lvgl/lvgl/src/hal/lv_hal_disp.c ****         driver->full_refresh = 0;
 1177              		.loc 1 140 73 discriminator 1 view .LVU347
 1178 003e B5F90010 		ldrsh	r1, [r5]
 140:lvgl/lvgl/src/hal/lv_hal_disp.c ****         driver->full_refresh = 0;
 1179              		.loc 1 140 91 discriminator 1 view .LVU348
 1180 0042 B5F90230 		ldrsh	r3, [r5, #2]
 140:lvgl/lvgl/src/hal/lv_hal_disp.c ****         driver->full_refresh = 0;
 1181              		.loc 1 140 83 discriminator 1 view .LVU349
 1182 0046 03FB01F3 		mul	r3, r3, r1
 140:lvgl/lvgl/src/hal/lv_hal_disp.c ****         driver->full_refresh = 0;
ARM GAS  C:\Users\gx\AppData\Local\Temp\ccdv9jmC.s 			page 49


 1183              		.loc 1 140 29 discriminator 1 view .LVU350
 1184 004a 9A42     		cmp	r2, r3
 1185 004c 57D3     		bcc	.L59
 1186              	.L53:
 145:lvgl/lvgl/src/hal/lv_hal_disp.c **** #if LV_COLOR_SCREEN_TRANSP
 1187              		.loc 1 145 5 is_stmt 1 view .LVU351
 1188              	.LBB72:
 1189              	.LBI72:
 687:lvgl/lvgl/src/hal/../draw/../misc/lv_color.h **** static inline lv_color_t lv_color_black(void) { return lv_color_make(0x00, 0x0, 0x00);}
 1190              		.loc 2 687 26 view .LVU352
 1191              	.LBE72:
 687:lvgl/lvgl/src/hal/../draw/../misc/lv_color.h **** static inline lv_color_t lv_color_black(void) { return lv_color_make(0x00, 0x0, 0x00);}
 1192              		.loc 2 687 49 view .LVU353
 1193              	.LVL114:
 1194              	.LBB75:
 1195              	.LBB73:
 1196              	.LBI73:
 615:lvgl/lvgl/src/hal/../draw/../misc/lv_color.h **** {
 1197              		.loc 2 615 26 view .LVU354
 1198              	.LBB74:
 617:lvgl/lvgl/src/hal/../draw/../misc/lv_color.h **** }
 1199              		.loc 2 617 5 view .LVU355
 617:lvgl/lvgl/src/hal/../draw/../misc/lv_color.h **** }
 1200              		.loc 2 617 12 is_stmt 0 view .LVU356
 1201 004e 4FF6FF73 		movw	r3, #65535
 1202              	.LVL115:
 617:lvgl/lvgl/src/hal/../draw/../misc/lv_color.h **** }
 1203              		.loc 2 617 12 view .LVU357
 1204              	.LBE74:
 1205              	.LBE73:
 1206              	.LBE75:
 145:lvgl/lvgl/src/hal/lv_hal_disp.c **** #if LV_COLOR_SCREEN_TRANSP
 1207              		.loc 1 145 22 view .LVU358
 1208 0052 6385     		strh	r3, [r4, #42]	@ movhi
 149:lvgl/lvgl/src/hal/lv_hal_disp.c **** #endif
 1209              		.loc 1 149 5 is_stmt 1 view .LVU359
 149:lvgl/lvgl/src/hal/lv_hal_disp.c **** #endif
 1210              		.loc 1 149 18 is_stmt 0 view .LVU360
 1211 0054 FF23     		movs	r3, #255
 1212 0056 84F82930 		strb	r3, [r4, #41]
 153:lvgl/lvgl/src/hal/lv_hal_disp.c ****         disp->theme = lv_theme_default_init(disp, lv_palette_main(LV_PALETTE_BLUE), lv_palette_main
 1213              		.loc 1 153 5 is_stmt 1 view .LVU361
 153:lvgl/lvgl/src/hal/lv_hal_disp.c ****         disp->theme = lv_theme_default_init(disp, lv_palette_main(LV_PALETTE_BLUE), lv_palette_main
 1214              		.loc 1 153 8 is_stmt 0 view .LVU362
 1215 005a FFF7FEFF 		bl	lv_theme_default_is_inited
 1216              	.LVL116:
 153:lvgl/lvgl/src/hal/lv_hal_disp.c ****         disp->theme = lv_theme_default_init(disp, lv_palette_main(LV_PALETTE_BLUE), lv_palette_main
 1217              		.loc 1 153 7 view .LVU363
 1218 005e 0028     		cmp	r0, #0
 1219 0060 5AD0     		beq	.L60
 1220              	.LVL117:
 1221              	.L54:
 158:lvgl/lvgl/src/hal/lv_hal_disp.c ****     disp->top_layer = lv_obj_create(NULL); /*Create top layer on the display*/
 1222              		.loc 1 158 5 is_stmt 1 view .LVU364
 158:lvgl/lvgl/src/hal/lv_hal_disp.c ****     disp->top_layer = lv_obj_create(NULL); /*Create top layer on the display*/
 1223              		.loc 1 158 23 is_stmt 0 view .LVU365
 1224 0062 0020     		movs	r0, #0
ARM GAS  C:\Users\gx\AppData\Local\Temp\ccdv9jmC.s 			page 50


 1225 0064 FFF7FEFF 		bl	lv_obj_create
 1226              	.LVL118:
 158:lvgl/lvgl/src/hal/lv_hal_disp.c ****     disp->top_layer = lv_obj_create(NULL); /*Create top layer on the display*/
 1227              		.loc 1 158 21 view .LVU366
 1228 0068 2061     		str	r0, [r4, #16]
 159:lvgl/lvgl/src/hal/lv_hal_disp.c ****     disp->sys_layer = lv_obj_create(NULL); /*Create sys layer on the display*/
 1229              		.loc 1 159 5 is_stmt 1 view .LVU367
 159:lvgl/lvgl/src/hal/lv_hal_disp.c ****     disp->sys_layer = lv_obj_create(NULL); /*Create sys layer on the display*/
 1230              		.loc 1 159 23 is_stmt 0 view .LVU368
 1231 006a 0020     		movs	r0, #0
 1232 006c FFF7FEFF 		bl	lv_obj_create
 1233              	.LVL119:
 159:lvgl/lvgl/src/hal/lv_hal_disp.c ****     disp->sys_layer = lv_obj_create(NULL); /*Create sys layer on the display*/
 1234              		.loc 1 159 21 view .LVU369
 1235 0070 E061     		str	r0, [r4, #28]
 160:lvgl/lvgl/src/hal/lv_hal_disp.c ****     lv_obj_remove_style_all(disp->top_layer);
 1236              		.loc 1 160 5 is_stmt 1 view .LVU370
 160:lvgl/lvgl/src/hal/lv_hal_disp.c ****     lv_obj_remove_style_all(disp->top_layer);
 1237              		.loc 1 160 23 is_stmt 0 view .LVU371
 1238 0072 0020     		movs	r0, #0
 1239 0074 FFF7FEFF 		bl	lv_obj_create
 1240              	.LVL120:
 160:lvgl/lvgl/src/hal/lv_hal_disp.c ****     lv_obj_remove_style_all(disp->top_layer);
 1241              		.loc 1 160 21 view .LVU372
 1242 0078 2062     		str	r0, [r4, #32]
 161:lvgl/lvgl/src/hal/lv_hal_disp.c ****     lv_obj_remove_style_all(disp->sys_layer);
 1243              		.loc 1 161 5 is_stmt 1 view .LVU373
 1244              	.LVL121:
 1245              	.LBB76:
 1246              	.LBI76:
 1247              		.file 3 "lvgl/lvgl/src/hal/../core/lv_obj_style.h"
   1:lvgl/lvgl/src/hal/../core/lv_obj_style.h **** /**
   2:lvgl/lvgl/src/hal/../core/lv_obj_style.h ****  * @file lv_obj_style.h
   3:lvgl/lvgl/src/hal/../core/lv_obj_style.h ****  *
   4:lvgl/lvgl/src/hal/../core/lv_obj_style.h ****  */
   5:lvgl/lvgl/src/hal/../core/lv_obj_style.h **** 
   6:lvgl/lvgl/src/hal/../core/lv_obj_style.h **** #ifndef LV_OBJ_STYLE_H
   7:lvgl/lvgl/src/hal/../core/lv_obj_style.h **** #define LV_OBJ_STYLE_H
   8:lvgl/lvgl/src/hal/../core/lv_obj_style.h **** 
   9:lvgl/lvgl/src/hal/../core/lv_obj_style.h **** #ifdef __cplusplus
  10:lvgl/lvgl/src/hal/../core/lv_obj_style.h **** extern "C" {
  11:lvgl/lvgl/src/hal/../core/lv_obj_style.h **** #endif
  12:lvgl/lvgl/src/hal/../core/lv_obj_style.h **** 
  13:lvgl/lvgl/src/hal/../core/lv_obj_style.h **** /*********************
  14:lvgl/lvgl/src/hal/../core/lv_obj_style.h ****  *      INCLUDES
  15:lvgl/lvgl/src/hal/../core/lv_obj_style.h ****  *********************/
  16:lvgl/lvgl/src/hal/../core/lv_obj_style.h **** #include <stdint.h>
  17:lvgl/lvgl/src/hal/../core/lv_obj_style.h **** #include <stdbool.h>
  18:lvgl/lvgl/src/hal/../core/lv_obj_style.h **** #include "../misc/lv_bidi.h"
  19:lvgl/lvgl/src/hal/../core/lv_obj_style.h **** 
  20:lvgl/lvgl/src/hal/../core/lv_obj_style.h **** /*********************
  21:lvgl/lvgl/src/hal/../core/lv_obj_style.h ****  *      DEFINES
  22:lvgl/lvgl/src/hal/../core/lv_obj_style.h ****  *********************/
  23:lvgl/lvgl/src/hal/../core/lv_obj_style.h **** 
  24:lvgl/lvgl/src/hal/../core/lv_obj_style.h **** /**********************
  25:lvgl/lvgl/src/hal/../core/lv_obj_style.h ****  *      TYPEDEFS
  26:lvgl/lvgl/src/hal/../core/lv_obj_style.h ****  **********************/
ARM GAS  C:\Users\gx\AppData\Local\Temp\ccdv9jmC.s 			page 51


  27:lvgl/lvgl/src/hal/../core/lv_obj_style.h **** /*Can't include lv_obj.h because it includes this header file*/
  28:lvgl/lvgl/src/hal/../core/lv_obj_style.h **** struct _lv_obj_t;
  29:lvgl/lvgl/src/hal/../core/lv_obj_style.h **** 
  30:lvgl/lvgl/src/hal/../core/lv_obj_style.h **** typedef enum {
  31:lvgl/lvgl/src/hal/../core/lv_obj_style.h ****     _LV_STYLE_STATE_CMP_SAME,           /*The style properties in the 2 states are identical*/
  32:lvgl/lvgl/src/hal/../core/lv_obj_style.h ****     _LV_STYLE_STATE_CMP_DIFF_REDRAW,    /*The differences can be shown with a simple redraw*/
  33:lvgl/lvgl/src/hal/../core/lv_obj_style.h ****     _LV_STYLE_STATE_CMP_DIFF_DRAW_PAD,  /*The differences can be shown with a simple redraw*/
  34:lvgl/lvgl/src/hal/../core/lv_obj_style.h ****     _LV_STYLE_STATE_CMP_DIFF_LAYOUT,    /*The differences can be shown with a simple redraw*/
  35:lvgl/lvgl/src/hal/../core/lv_obj_style.h **** } _lv_style_state_cmp_t;
  36:lvgl/lvgl/src/hal/../core/lv_obj_style.h **** 
  37:lvgl/lvgl/src/hal/../core/lv_obj_style.h **** typedef uint32_t lv_style_selector_t;
  38:lvgl/lvgl/src/hal/../core/lv_obj_style.h **** 
  39:lvgl/lvgl/src/hal/../core/lv_obj_style.h **** typedef struct {
  40:lvgl/lvgl/src/hal/../core/lv_obj_style.h ****     lv_style_t * style;
  41:lvgl/lvgl/src/hal/../core/lv_obj_style.h ****     uint32_t selector :24;
  42:lvgl/lvgl/src/hal/../core/lv_obj_style.h ****     uint32_t is_local :1;
  43:lvgl/lvgl/src/hal/../core/lv_obj_style.h ****     uint32_t is_trans :1;
  44:lvgl/lvgl/src/hal/../core/lv_obj_style.h **** }_lv_obj_style_t;
  45:lvgl/lvgl/src/hal/../core/lv_obj_style.h **** 
  46:lvgl/lvgl/src/hal/../core/lv_obj_style.h **** typedef struct {
  47:lvgl/lvgl/src/hal/../core/lv_obj_style.h ****     uint16_t time;
  48:lvgl/lvgl/src/hal/../core/lv_obj_style.h ****     uint16_t delay;
  49:lvgl/lvgl/src/hal/../core/lv_obj_style.h ****     lv_style_selector_t selector;
  50:lvgl/lvgl/src/hal/../core/lv_obj_style.h ****     lv_style_prop_t prop;
  51:lvgl/lvgl/src/hal/../core/lv_obj_style.h ****     lv_anim_path_cb_t path_cb;
  52:lvgl/lvgl/src/hal/../core/lv_obj_style.h **** #if LV_USE_USER_DATA
  53:lvgl/lvgl/src/hal/../core/lv_obj_style.h ****     void * user_data;
  54:lvgl/lvgl/src/hal/../core/lv_obj_style.h **** #endif
  55:lvgl/lvgl/src/hal/../core/lv_obj_style.h **** }_lv_obj_style_transition_dsc_t;
  56:lvgl/lvgl/src/hal/../core/lv_obj_style.h **** 
  57:lvgl/lvgl/src/hal/../core/lv_obj_style.h **** /**********************
  58:lvgl/lvgl/src/hal/../core/lv_obj_style.h ****  * GLOBAL PROTOTYPES
  59:lvgl/lvgl/src/hal/../core/lv_obj_style.h ****  **********************/
  60:lvgl/lvgl/src/hal/../core/lv_obj_style.h **** 
  61:lvgl/lvgl/src/hal/../core/lv_obj_style.h **** /**
  62:lvgl/lvgl/src/hal/../core/lv_obj_style.h ****  * Initialize the object related style manager module.
  63:lvgl/lvgl/src/hal/../core/lv_obj_style.h ****  * Called by LVGL in `lv_init()`
  64:lvgl/lvgl/src/hal/../core/lv_obj_style.h ****  */
  65:lvgl/lvgl/src/hal/../core/lv_obj_style.h **** void _lv_obj_style_init(void);
  66:lvgl/lvgl/src/hal/../core/lv_obj_style.h **** 
  67:lvgl/lvgl/src/hal/../core/lv_obj_style.h **** /**
  68:lvgl/lvgl/src/hal/../core/lv_obj_style.h ****  * Add a style to an object.
  69:lvgl/lvgl/src/hal/../core/lv_obj_style.h ****  * @param obj       pointer to an object
  70:lvgl/lvgl/src/hal/../core/lv_obj_style.h ****  * @param style     pointer to a style to add
  71:lvgl/lvgl/src/hal/../core/lv_obj_style.h ****  * @param selector  OR-ed value of parts and state to which the style should be added
  72:lvgl/lvgl/src/hal/../core/lv_obj_style.h ****  * @example         lv_obj_add_style(btn, &style_btn, 0); //Default button style
  73:lvgl/lvgl/src/hal/../core/lv_obj_style.h ****  * @example         lv_obj_add_style(btn, &btn_red, LV_STATE_PRESSED); //Overwrite only some colors
  74:lvgl/lvgl/src/hal/../core/lv_obj_style.h ****  */
  75:lvgl/lvgl/src/hal/../core/lv_obj_style.h **** void lv_obj_add_style(struct _lv_obj_t * obj, lv_style_t * style, lv_style_selector_t selector);
  76:lvgl/lvgl/src/hal/../core/lv_obj_style.h **** 
  77:lvgl/lvgl/src/hal/../core/lv_obj_style.h **** /**
  78:lvgl/lvgl/src/hal/../core/lv_obj_style.h ****  * Add a style to an object.
  79:lvgl/lvgl/src/hal/../core/lv_obj_style.h ****  * @param obj       pointer to an object
  80:lvgl/lvgl/src/hal/../core/lv_obj_style.h ****  * @param style     pointer to a style to remove. Can be NULL to check only the selector
  81:lvgl/lvgl/src/hal/../core/lv_obj_style.h ****  * @param selector  OR-ed values of states and a part to remove only styles with matching selectors
  82:lvgl/lvgl/src/hal/../core/lv_obj_style.h ****  * @example lv_obj_remove_style(obj, &style, LV_PART_ANY | LV_STATE_ANY); //Remove a specific style
  83:lvgl/lvgl/src/hal/../core/lv_obj_style.h ****  * @example lv_obj_remove_style(obj, NULL, LV_PART_MAIN | LV_STATE_ANY); //Remove all styles from t
ARM GAS  C:\Users\gx\AppData\Local\Temp\ccdv9jmC.s 			page 52


  84:lvgl/lvgl/src/hal/../core/lv_obj_style.h ****  * @example lv_obj_remove_style(obj, NULL, LV_PART_ANY | LV_STATE_ANY); //Remove all styles
  85:lvgl/lvgl/src/hal/../core/lv_obj_style.h ****  */
  86:lvgl/lvgl/src/hal/../core/lv_obj_style.h **** void lv_obj_remove_style(struct _lv_obj_t * obj, lv_style_t * style, lv_style_selector_t selector);
  87:lvgl/lvgl/src/hal/../core/lv_obj_style.h **** 
  88:lvgl/lvgl/src/hal/../core/lv_obj_style.h **** /**
  89:lvgl/lvgl/src/hal/../core/lv_obj_style.h ****  * Remove all styles from an object
  90:lvgl/lvgl/src/hal/../core/lv_obj_style.h ****  * @param obj       pointer to an object
  91:lvgl/lvgl/src/hal/../core/lv_obj_style.h ****  */
  92:lvgl/lvgl/src/hal/../core/lv_obj_style.h **** static inline void lv_obj_remove_style_all(struct _lv_obj_t * obj)
 1248              		.loc 3 92 20 view .LVU374
 1249              	.LBB77:
  93:lvgl/lvgl/src/hal/../core/lv_obj_style.h **** {
  94:lvgl/lvgl/src/hal/../core/lv_obj_style.h ****     lv_obj_remove_style(obj, NULL, LV_PART_ANY | LV_STATE_ANY);
 1250              		.loc 3 94 5 view .LVU375
 1251 007a 344D     		ldr	r5, .L62+12
 1252 007c 2A46     		mov	r2, r5
 1253 007e 0021     		movs	r1, #0
 1254 0080 E069     		ldr	r0, [r4, #28]
 1255 0082 FFF7FEFF 		bl	lv_obj_remove_style
 1256              	.LVL122:
 1257              		.loc 3 94 5 is_stmt 0 view .LVU376
 1258              	.LBE77:
 1259              	.LBE76:
 162:lvgl/lvgl/src/hal/lv_hal_disp.c ****     lv_obj_clear_flag(disp->top_layer, LV_OBJ_FLAG_CLICKABLE);
 1260              		.loc 1 162 5 is_stmt 1 view .LVU377
 1261              	.LBB78:
 1262              	.LBI78:
  92:lvgl/lvgl/src/hal/../core/lv_obj_style.h **** {
 1263              		.loc 3 92 20 view .LVU378
 1264              	.LBB79:
 1265              		.loc 3 94 5 view .LVU379
 1266 0086 2A46     		mov	r2, r5
 1267 0088 0021     		movs	r1, #0
 1268 008a 206A     		ldr	r0, [r4, #32]
 1269 008c FFF7FEFF 		bl	lv_obj_remove_style
 1270              	.LVL123:
 1271              		.loc 3 94 5 is_stmt 0 view .LVU380
 1272              	.LBE79:
 1273              	.LBE78:
 163:lvgl/lvgl/src/hal/lv_hal_disp.c ****     lv_obj_clear_flag(disp->sys_layer, LV_OBJ_FLAG_CLICKABLE);
 1274              		.loc 1 163 5 is_stmt 1 view .LVU381
 1275 0090 0221     		movs	r1, #2
 1276 0092 E069     		ldr	r0, [r4, #28]
 1277 0094 FFF7FEFF 		bl	lv_obj_clear_flag
 1278              	.LVL124:
 164:lvgl/lvgl/src/hal/lv_hal_disp.c **** 
 1279              		.loc 1 164 5 view .LVU382
 1280 0098 0221     		movs	r1, #2
 1281 009a 206A     		ldr	r0, [r4, #32]
 1282 009c FFF7FEFF 		bl	lv_obj_clear_flag
 1283              	.LVL125:
 166:lvgl/lvgl/src/hal/lv_hal_disp.c ****     lv_obj_set_scrollbar_mode(disp->sys_layer, LV_SCROLLBAR_MODE_OFF);
 1284              		.loc 1 166 5 view .LVU383
 1285 00a0 0021     		movs	r1, #0
 1286 00a2 E069     		ldr	r0, [r4, #28]
 1287 00a4 FFF7FEFF 		bl	lv_obj_set_scrollbar_mode
 1288              	.LVL126:
ARM GAS  C:\Users\gx\AppData\Local\Temp\ccdv9jmC.s 			page 53


 167:lvgl/lvgl/src/hal/lv_hal_disp.c **** 
 1289              		.loc 1 167 5 view .LVU384
 1290 00a8 0021     		movs	r1, #0
 1291 00aa 206A     		ldr	r0, [r4, #32]
 1292 00ac FFF7FEFF 		bl	lv_obj_set_scrollbar_mode
 1293              	.LVL127:
 169:lvgl/lvgl/src/hal/lv_hal_disp.c **** 
 1294              		.loc 1 169 5 view .LVU385
 1295 00b0 2069     		ldr	r0, [r4, #16]
 1296 00b2 FFF7FEFF 		bl	lv_obj_invalidate
 1297              	.LVL128:
 171:lvgl/lvgl/src/hal/lv_hal_disp.c ****     if(disp_def == NULL) disp_def = disp; /*Initialize the default display*/
 1298              		.loc 1 171 5 view .LVU386
 171:lvgl/lvgl/src/hal/lv_hal_disp.c ****     if(disp_def == NULL) disp_def = disp; /*Initialize the default display*/
 1299              		.loc 1 171 14 is_stmt 0 view .LVU387
 1300 00b6 234B     		ldr	r3, .L62+4
 1301 00b8 1E60     		str	r6, [r3]
 172:lvgl/lvgl/src/hal/lv_hal_disp.c **** 
 1302              		.loc 1 172 5 is_stmt 1 view .LVU388
 172:lvgl/lvgl/src/hal/lv_hal_disp.c **** 
 1303              		.loc 1 172 7 is_stmt 0 view .LVU389
 1304 00ba 002E     		cmp	r6, #0
 1305 00bc 3DD0     		beq	.L61
 1306              	.L55:
 174:lvgl/lvgl/src/hal/lv_hal_disp.c **** 
 1307              		.loc 1 174 5 is_stmt 1 view .LVU390
 1308 00be 6068     		ldr	r0, [r4, #4]
 1309 00c0 FFF7FEFF 		bl	lv_timer_ready
 1310              	.LVL129:
 176:lvgl/lvgl/src/hal/lv_hal_disp.c **** }
 1311              		.loc 1 176 5 view .LVU391
 177:lvgl/lvgl/src/hal/lv_hal_disp.c **** 
 1312              		.loc 1 177 1 is_stmt 0 view .LVU392
 1313 00c4 2046     		mov	r0, r4
 1314 00c6 04B0     		add	sp, sp, #16
 1315              	.LCFI26:
 1316              		.cfi_remember_state
 1317              		.cfi_def_cfa_offset 16
 1318              		@ sp needed
 1319 00c8 70BD     		pop	{r4, r5, r6, pc}
 1320              	.LVL130:
 1321              	.L57:
 1322              	.LCFI27:
 1323              		.cfi_restore_state
 121:lvgl/lvgl/src/hal/lv_hal_disp.c ****         return NULL;
 1324              		.loc 1 121 9 is_stmt 1 discriminator 1 view .LVU393
 121:lvgl/lvgl/src/hal/lv_hal_disp.c ****         return NULL;
 1325              		.loc 1 121 9 discriminator 1 view .LVU394
 121:lvgl/lvgl/src/hal/lv_hal_disp.c ****         return NULL;
 1326              		.loc 1 121 9 discriminator 1 view .LVU395
 1327 00ca 214B     		ldr	r3, .L62+16
 1328 00cc 0293     		str	r3, [sp, #8]
 1329 00ce 214B     		ldr	r3, .L62+20
 1330 00d0 0193     		str	r3, [sp, #4]
 1331 00d2 214B     		ldr	r3, .L62+24
 1332 00d4 0093     		str	r3, [sp]
 1333 00d6 214B     		ldr	r3, .L62+28
ARM GAS  C:\Users\gx\AppData\Local\Temp\ccdv9jmC.s 			page 54


 1334 00d8 7922     		movs	r2, #121
 1335 00da 2149     		ldr	r1, .L62+32
 1336 00dc 0320     		movs	r0, #3
 1337              	.LVL131:
 121:lvgl/lvgl/src/hal/lv_hal_disp.c ****         return NULL;
 1338              		.loc 1 121 9 is_stmt 0 discriminator 1 view .LVU396
 1339 00de FFF7FEFF 		bl	_lv_log_add
 1340              	.LVL132:
 1341              	.L50:
 121:lvgl/lvgl/src/hal/lv_hal_disp.c ****         return NULL;
 1342              		.loc 1 121 9 is_stmt 1 discriminator 1 view .LVU397
 121:lvgl/lvgl/src/hal/lv_hal_disp.c ****         return NULL;
 1343              		.loc 1 121 9 discriminator 1 view .LVU398
 121:lvgl/lvgl/src/hal/lv_hal_disp.c ****         return NULL;
 1344              		.loc 1 121 9 discriminator 1 view .LVU399
 121:lvgl/lvgl/src/hal/lv_hal_disp.c ****         return NULL;
 1345              		.loc 1 121 9 discriminator 1 view .LVU400
 1346 00e2 FEE7     		b	.L50
 1347              	.LVL133:
 1348              	.L58:
 134:lvgl/lvgl/src/hal/lv_hal_disp.c ****     if(disp->refr_timer == NULL) {
 1349              		.loc 1 134 5 discriminator 1 view .LVU401
 1350 00e4 1A4B     		ldr	r3, .L62+16
 1351 00e6 0293     		str	r3, [sp, #8]
 1352 00e8 1E4B     		ldr	r3, .L62+36
 1353 00ea 0193     		str	r3, [sp, #4]
 1354 00ec 1A4B     		ldr	r3, .L62+24
 1355 00ee 0093     		str	r3, [sp]
 1356 00f0 1A4B     		ldr	r3, .L62+28
 1357 00f2 8622     		movs	r2, #134
 1358 00f4 1A49     		ldr	r1, .L62+32
 1359 00f6 0320     		movs	r0, #3
 1360 00f8 FFF7FEFF 		bl	_lv_log_add
 1361              	.LVL134:
 1362              	.L52:
 134:lvgl/lvgl/src/hal/lv_hal_disp.c ****     if(disp->refr_timer == NULL) {
 1363              		.loc 1 134 5 discriminator 2 view .LVU402
 134:lvgl/lvgl/src/hal/lv_hal_disp.c ****     if(disp->refr_timer == NULL) {
 1364              		.loc 1 134 5 discriminator 2 view .LVU403
 134:lvgl/lvgl/src/hal/lv_hal_disp.c ****     if(disp->refr_timer == NULL) {
 1365              		.loc 1 134 5 discriminator 2 view .LVU404
 134:lvgl/lvgl/src/hal/lv_hal_disp.c ****     if(disp->refr_timer == NULL) {
 1366              		.loc 1 134 5 discriminator 2 view .LVU405
 1367 00fc FEE7     		b	.L52
 1368              	.L59:
 141:lvgl/lvgl/src/hal/lv_hal_disp.c ****         LV_LOG_WARN("full_refresh requires at least screen sized draw buffer(s)")
 1369              		.loc 1 141 9 view .LVU406
 141:lvgl/lvgl/src/hal/lv_hal_disp.c ****         LV_LOG_WARN("full_refresh requires at least screen sized draw buffer(s)")
 1370              		.loc 1 141 30 is_stmt 0 view .LVU407
 1371 00fe 2B7A     		ldrb	r3, [r5, #8]	@ zero_extendqisi2
 1372 0100 6FF30003 		bfc	r3, #0, #1
 1373 0104 2B72     		strb	r3, [r5, #8]
 142:lvgl/lvgl/src/hal/lv_hal_disp.c ****     }
 1374              		.loc 1 142 9 is_stmt 1 view .LVU408
 1375 0106 184B     		ldr	r3, .L62+40
 1376 0108 0093     		str	r3, [sp]
 1377 010a 144B     		ldr	r3, .L62+28
ARM GAS  C:\Users\gx\AppData\Local\Temp\ccdv9jmC.s 			page 55


 1378 010c 8E22     		movs	r2, #142
 1379 010e 1449     		ldr	r1, .L62+32
 1380 0110 0220     		movs	r0, #2
 1381 0112 FFF7FEFF 		bl	_lv_log_add
 1382              	.LVL135:
 1383 0116 9AE7     		b	.L53
 1384              	.L60:
 154:lvgl/lvgl/src/hal/lv_hal_disp.c ****     }
 1385              		.loc 1 154 9 view .LVU409
 154:lvgl/lvgl/src/hal/lv_hal_disp.c ****     }
 1386              		.loc 1 154 23 is_stmt 0 view .LVU410
 1387 0118 0520     		movs	r0, #5
 1388 011a FFF7FEFF 		bl	lv_palette_main
 1389              	.LVL136:
 1390 011e 0546     		mov	r5, r0	@ movhi
 1391              	.LVL137:
 154:lvgl/lvgl/src/hal/lv_hal_disp.c ****     }
 1392              		.loc 1 154 23 view .LVU411
 1393 0120 0020     		movs	r0, #0
 1394 0122 FFF7FEFF 		bl	lv_palette_main
 1395              	.LVL138:
 1396 0126 0246     		mov	r2, r0	@ movhi
 1397 0128 104B     		ldr	r3, .L62+44
 1398 012a 0093     		str	r3, [sp]
 1399 012c 0023     		movs	r3, #0
 1400 012e 2946     		mov	r1, r5	@ movhi
 1401 0130 2046     		mov	r0, r4
 1402 0132 FFF7FEFF 		bl	lv_theme_default_init
 1403              	.LVL139:
 154:lvgl/lvgl/src/hal/lv_hal_disp.c ****     }
 1404              		.loc 1 154 21 view .LVU412
 1405 0136 A060     		str	r0, [r4, #8]
 1406 0138 93E7     		b	.L54
 1407              	.L61:
 172:lvgl/lvgl/src/hal/lv_hal_disp.c **** 
 1408              		.loc 1 172 26 is_stmt 1 discriminator 1 view .LVU413
 172:lvgl/lvgl/src/hal/lv_hal_disp.c **** 
 1409              		.loc 1 172 35 is_stmt 0 discriminator 1 view .LVU414
 1410 013a 1C60     		str	r4, [r3]
 1411 013c BFE7     		b	.L55
 1412              	.L63:
 1413 013e 00BF     		.align	2
 1414              	.L62:
 1415 0140 00000000 		.word	_lv_disp_ll
 1416 0144 00000000 		.word	.LANCHOR7
 1417 0148 00000000 		.word	_lv_disp_refr_timer
 1418 014c FFFF0F00 		.word	1048575
 1419 0150 20000000 		.word	.LC1
 1420 0154 30000000 		.word	.LC2
 1421 0158 40000000 		.word	.LC3
 1422 015c 00000000 		.word	.LANCHOR6
 1423 0160 00000000 		.word	.LC0
 1424 0164 60000000 		.word	.LC4
 1425 0168 7C000000 		.word	.LC5
 1426 016c 00000000 		.word	lv_font_montserrat_14
 1427              		.cfi_endproc
 1428              	.LFE154:
ARM GAS  C:\Users\gx\AppData\Local\Temp\ccdv9jmC.s 			page 56


 1430              		.section	.text.lv_disp_set_default,"ax",%progbits
 1431              		.align	1
 1432              		.global	lv_disp_set_default
 1433              		.syntax unified
 1434              		.thumb
 1435              		.thumb_func
 1436              		.fpu fpv4-sp-d16
 1438              	lv_disp_set_default:
 1439              	.LVL140:
 1440              	.LFB157:
 265:lvgl/lvgl/src/hal/lv_hal_disp.c ****     disp_def = disp;
 1441              		.loc 1 265 1 is_stmt 1 view -0
 1442              		.cfi_startproc
 1443              		@ args = 0, pretend = 0, frame = 0
 1444              		@ frame_needed = 0, uses_anonymous_args = 0
 1445              		@ link register save eliminated.
 266:lvgl/lvgl/src/hal/lv_hal_disp.c **** }
 1446              		.loc 1 266 5 view .LVU416
 266:lvgl/lvgl/src/hal/lv_hal_disp.c **** }
 1447              		.loc 1 266 14 is_stmt 0 view .LVU417
 1448 0000 014B     		ldr	r3, .L65
 1449 0002 1860     		str	r0, [r3]
 267:lvgl/lvgl/src/hal/lv_hal_disp.c **** 
 1450              		.loc 1 267 1 view .LVU418
 1451 0004 7047     		bx	lr
 1452              	.L66:
 1453 0006 00BF     		.align	2
 1454              	.L65:
 1455 0008 00000000 		.word	.LANCHOR7
 1456              		.cfi_endproc
 1457              	.LFE157:
 1459              		.section	.text.lv_disp_get_default,"ax",%progbits
 1460              		.align	1
 1461              		.global	lv_disp_get_default
 1462              		.syntax unified
 1463              		.thumb
 1464              		.thumb_func
 1465              		.fpu fpv4-sp-d16
 1467              	lv_disp_get_default:
 1468              	.LFB158:
 274:lvgl/lvgl/src/hal/lv_hal_disp.c ****     return disp_def;
 1469              		.loc 1 274 1 is_stmt 1 view -0
 1470              		.cfi_startproc
 1471              		@ args = 0, pretend = 0, frame = 0
 1472              		@ frame_needed = 0, uses_anonymous_args = 0
 1473              		@ link register save eliminated.
 275:lvgl/lvgl/src/hal/lv_hal_disp.c **** }
 1474              		.loc 1 275 5 view .LVU420
 276:lvgl/lvgl/src/hal/lv_hal_disp.c **** 
 1475              		.loc 1 276 1 is_stmt 0 view .LVU421
 1476 0000 014B     		ldr	r3, .L68
 1477 0002 1868     		ldr	r0, [r3]
 1478 0004 7047     		bx	lr
 1479              	.L69:
 1480 0006 00BF     		.align	2
 1481              	.L68:
 1482 0008 00000000 		.word	.LANCHOR7
ARM GAS  C:\Users\gx\AppData\Local\Temp\ccdv9jmC.s 			page 57


 1483              		.cfi_endproc
 1484              	.LFE158:
 1486              		.section	.text.lv_disp_remove,"ax",%progbits
 1487              		.align	1
 1488              		.global	lv_disp_remove
 1489              		.syntax unified
 1490              		.thumb
 1491              		.thumb_func
 1492              		.fpu fpv4-sp-d16
 1494              	lv_disp_remove:
 1495              	.LVL141:
 1496              	.LFB156:
 225:lvgl/lvgl/src/hal/lv_hal_disp.c ****     bool was_default = false;
 1497              		.loc 1 225 1 is_stmt 1 view -0
 1498              		.cfi_startproc
 1499              		@ args = 0, pretend = 0, frame = 0
 1500              		@ frame_needed = 0, uses_anonymous_args = 0
 225:lvgl/lvgl/src/hal/lv_hal_disp.c ****     bool was_default = false;
 1501              		.loc 1 225 1 is_stmt 0 view .LVU423
 1502 0000 38B5     		push	{r3, r4, r5, lr}
 1503              	.LCFI28:
 1504              		.cfi_def_cfa_offset 16
 1505              		.cfi_offset 3, -16
 1506              		.cfi_offset 4, -12
 1507              		.cfi_offset 5, -8
 1508              		.cfi_offset 14, -4
 1509 0002 0446     		mov	r4, r0
 226:lvgl/lvgl/src/hal/lv_hal_disp.c ****     if(disp == lv_disp_get_default()) was_default = true;
 1510              		.loc 1 226 5 is_stmt 1 view .LVU424
 1511              	.LVL142:
 227:lvgl/lvgl/src/hal/lv_hal_disp.c **** 
 1512              		.loc 1 227 5 view .LVU425
 227:lvgl/lvgl/src/hal/lv_hal_disp.c **** 
 1513              		.loc 1 227 16 is_stmt 0 view .LVU426
 1514 0004 FFF7FEFF 		bl	lv_disp_get_default
 1515              	.LVL143:
 227:lvgl/lvgl/src/hal/lv_hal_disp.c **** 
 1516              		.loc 1 227 7 view .LVU427
 1517 0008 8442     		cmp	r4, r0
 1518 000a 04D0     		beq	.L80
 226:lvgl/lvgl/src/hal/lv_hal_disp.c ****     if(disp == lv_disp_get_default()) was_default = true;
 1519              		.loc 1 226 10 view .LVU428
 1520 000c 0025     		movs	r5, #0
 1521              	.L71:
 1522              	.LVL144:
 230:lvgl/lvgl/src/hal/lv_hal_disp.c ****     indev = lv_indev_get_next(NULL);
 1523              		.loc 1 230 5 is_stmt 1 view .LVU429
 231:lvgl/lvgl/src/hal/lv_hal_disp.c ****     while(indev) {
 1524              		.loc 1 231 5 view .LVU430
 231:lvgl/lvgl/src/hal/lv_hal_disp.c ****     while(indev) {
 1525              		.loc 1 231 13 is_stmt 0 view .LVU431
 1526 000e 0020     		movs	r0, #0
 1527 0010 FFF7FEFF 		bl	lv_indev_get_next
 1528              	.LVL145:
 232:lvgl/lvgl/src/hal/lv_hal_disp.c ****         if(indev->driver->disp == disp) {
 1529              		.loc 1 232 5 is_stmt 1 view .LVU432
 232:lvgl/lvgl/src/hal/lv_hal_disp.c ****         if(indev->driver->disp == disp) {
ARM GAS  C:\Users\gx\AppData\Local\Temp\ccdv9jmC.s 			page 58


 1530              		.loc 1 232 10 is_stmt 0 view .LVU433
 1531 0014 05E0     		b	.L72
 1532              	.LVL146:
 1533              	.L80:
 227:lvgl/lvgl/src/hal/lv_hal_disp.c **** 
 1534              		.loc 1 227 51 view .LVU434
 1535 0016 0125     		movs	r5, #1
 1536 0018 F9E7     		b	.L71
 1537              	.LVL147:
 1538              	.L83:
 234:lvgl/lvgl/src/hal/lv_hal_disp.c ****         }
 1539              		.loc 1 234 13 is_stmt 1 view .LVU435
 234:lvgl/lvgl/src/hal/lv_hal_disp.c ****         }
 1540              		.loc 1 234 33 is_stmt 0 view .LVU436
 1541 001a 0022     		movs	r2, #0
 1542 001c 1A61     		str	r2, [r3, #16]
 1543              	.L73:
 236:lvgl/lvgl/src/hal/lv_hal_disp.c ****     }
 1544              		.loc 1 236 9 is_stmt 1 view .LVU437
 236:lvgl/lvgl/src/hal/lv_hal_disp.c ****     }
 1545              		.loc 1 236 17 is_stmt 0 view .LVU438
 1546 001e FFF7FEFF 		bl	lv_indev_get_next
 1547              	.LVL148:
 1548              	.L72:
 232:lvgl/lvgl/src/hal/lv_hal_disp.c ****         if(indev->driver->disp == disp) {
 1549              		.loc 1 232 10 is_stmt 1 view .LVU439
 1550 0022 20B1     		cbz	r0, .L82
 233:lvgl/lvgl/src/hal/lv_hal_disp.c ****             indev->driver->disp = NULL;
 1551              		.loc 1 233 9 view .LVU440
 233:lvgl/lvgl/src/hal/lv_hal_disp.c ****             indev->driver->disp = NULL;
 1552              		.loc 1 233 17 is_stmt 0 view .LVU441
 1553 0024 0368     		ldr	r3, [r0]
 233:lvgl/lvgl/src/hal/lv_hal_disp.c ****             indev->driver->disp = NULL;
 1554              		.loc 1 233 25 view .LVU442
 1555 0026 1A69     		ldr	r2, [r3, #16]
 233:lvgl/lvgl/src/hal/lv_hal_disp.c ****             indev->driver->disp = NULL;
 1556              		.loc 1 233 11 view .LVU443
 1557 0028 A242     		cmp	r2, r4
 1558 002a F8D1     		bne	.L73
 1559 002c F5E7     		b	.L83
 1560              	.L82:
 240:lvgl/lvgl/src/hal/lv_hal_disp.c ****         lv_obj_del(disp->sys_layer);
 1561              		.loc 1 240 5 is_stmt 1 view .LVU444
 240:lvgl/lvgl/src/hal/lv_hal_disp.c ****         lv_obj_del(disp->sys_layer);
 1562              		.loc 1 240 13 is_stmt 0 view .LVU445
 1563 002e 206A     		ldr	r0, [r4, #32]
 1564              	.LVL149:
 240:lvgl/lvgl/src/hal/lv_hal_disp.c ****         lv_obj_del(disp->sys_layer);
 1565              		.loc 1 240 8 view .LVU446
 1566 0030 18B1     		cbz	r0, .L75
 241:lvgl/lvgl/src/hal/lv_hal_disp.c ****         disp->sys_layer = NULL;
 1567              		.loc 1 241 9 is_stmt 1 view .LVU447
 1568 0032 FFF7FEFF 		bl	lv_obj_del
 1569              	.LVL150:
 242:lvgl/lvgl/src/hal/lv_hal_disp.c ****     }
 1570              		.loc 1 242 9 view .LVU448
 242:lvgl/lvgl/src/hal/lv_hal_disp.c ****     }
ARM GAS  C:\Users\gx\AppData\Local\Temp\ccdv9jmC.s 			page 59


 1571              		.loc 1 242 25 is_stmt 0 view .LVU449
 1572 0036 0023     		movs	r3, #0
 1573 0038 2362     		str	r3, [r4, #32]
 1574              	.L75:
 244:lvgl/lvgl/src/hal/lv_hal_disp.c ****         lv_obj_del(disp->top_layer);
 1575              		.loc 1 244 5 is_stmt 1 view .LVU450
 244:lvgl/lvgl/src/hal/lv_hal_disp.c ****         lv_obj_del(disp->top_layer);
 1576              		.loc 1 244 13 is_stmt 0 view .LVU451
 1577 003a E069     		ldr	r0, [r4, #28]
 244:lvgl/lvgl/src/hal/lv_hal_disp.c ****         lv_obj_del(disp->top_layer);
 1578              		.loc 1 244 8 view .LVU452
 1579 003c 40B1     		cbz	r0, .L77
 245:lvgl/lvgl/src/hal/lv_hal_disp.c ****         disp->top_layer = NULL;
 1580              		.loc 1 245 9 is_stmt 1 view .LVU453
 1581 003e FFF7FEFF 		bl	lv_obj_del
 1582              	.LVL151:
 246:lvgl/lvgl/src/hal/lv_hal_disp.c ****     }
 1583              		.loc 1 246 9 view .LVU454
 246:lvgl/lvgl/src/hal/lv_hal_disp.c ****     }
 1584              		.loc 1 246 25 is_stmt 0 view .LVU455
 1585 0042 0023     		movs	r3, #0
 1586 0044 E361     		str	r3, [r4, #28]
 1587 0046 03E0     		b	.L77
 1588              	.L78:
 250:lvgl/lvgl/src/hal/lv_hal_disp.c ****     }
 1589              		.loc 1 250 9 is_stmt 1 view .LVU456
 250:lvgl/lvgl/src/hal/lv_hal_disp.c ****     }
 1590              		.loc 1 250 24 is_stmt 0 view .LVU457
 1591 0048 E368     		ldr	r3, [r4, #12]
 250:lvgl/lvgl/src/hal/lv_hal_disp.c ****     }
 1592              		.loc 1 250 9 view .LVU458
 1593 004a 1868     		ldr	r0, [r3]
 1594 004c FFF7FEFF 		bl	lv_obj_del
 1595              	.LVL152:
 1596              	.L77:
 248:lvgl/lvgl/src/hal/lv_hal_disp.c ****         /*Delete the screenst*/
 1597              		.loc 1 248 11 is_stmt 1 view .LVU459
 248:lvgl/lvgl/src/hal/lv_hal_disp.c ****         /*Delete the screenst*/
 1598              		.loc 1 248 16 is_stmt 0 view .LVU460
 1599 0050 636A     		ldr	r3, [r4, #36]
 248:lvgl/lvgl/src/hal/lv_hal_disp.c ****         /*Delete the screenst*/
 1600              		.loc 1 248 11 view .LVU461
 1601 0052 002B     		cmp	r3, #0
 1602 0054 F8D1     		bne	.L78
 253:lvgl/lvgl/src/hal/lv_hal_disp.c ****     lv_timer_del(disp->refr_timer);
 1603              		.loc 1 253 5 is_stmt 1 view .LVU462
 1604 0056 2146     		mov	r1, r4
 1605 0058 0848     		ldr	r0, .L85
 1606 005a FFF7FEFF 		bl	_lv_ll_remove
 1607              	.LVL153:
 254:lvgl/lvgl/src/hal/lv_hal_disp.c ****     lv_mem_free(disp);
 1608              		.loc 1 254 5 view .LVU463
 1609 005e 6068     		ldr	r0, [r4, #4]
 1610 0060 FFF7FEFF 		bl	lv_timer_del
 1611              	.LVL154:
 255:lvgl/lvgl/src/hal/lv_hal_disp.c **** 
 1612              		.loc 1 255 5 view .LVU464
ARM GAS  C:\Users\gx\AppData\Local\Temp\ccdv9jmC.s 			page 60


 1613 0064 2046     		mov	r0, r4
 1614 0066 FFF7FEFF 		bl	lv_mem_free
 1615              	.LVL155:
 257:lvgl/lvgl/src/hal/lv_hal_disp.c **** }
 1616              		.loc 1 257 5 view .LVU465
 257:lvgl/lvgl/src/hal/lv_hal_disp.c **** }
 1617              		.loc 1 257 7 is_stmt 0 view .LVU466
 1618 006a 05B9     		cbnz	r5, .L84
 1619              	.L70:
 258:lvgl/lvgl/src/hal/lv_hal_disp.c **** 
 1620              		.loc 1 258 1 view .LVU467
 1621 006c 38BD     		pop	{r3, r4, r5, pc}
 1622              	.LVL156:
 1623              	.L84:
 257:lvgl/lvgl/src/hal/lv_hal_disp.c **** }
 1624              		.loc 1 257 21 is_stmt 1 discriminator 1 view .LVU468
 257:lvgl/lvgl/src/hal/lv_hal_disp.c **** }
 1625              		.loc 1 257 41 is_stmt 0 discriminator 1 view .LVU469
 1626 006e 0348     		ldr	r0, .L85
 1627 0070 FFF7FEFF 		bl	_lv_ll_get_head
 1628              	.LVL157:
 257:lvgl/lvgl/src/hal/lv_hal_disp.c **** }
 1629              		.loc 1 257 21 discriminator 1 view .LVU470
 1630 0074 FFF7FEFF 		bl	lv_disp_set_default
 1631              	.LVL158:
 258:lvgl/lvgl/src/hal/lv_hal_disp.c **** 
 1632              		.loc 1 258 1 discriminator 1 view .LVU471
 1633 0078 F8E7     		b	.L70
 1634              	.L86:
 1635 007a 00BF     		.align	2
 1636              	.L85:
 1637 007c 00000000 		.word	_lv_disp_ll
 1638              		.cfi_endproc
 1639              	.LFE156:
 1641              		.section	.text.lv_disp_get_hor_res,"ax",%progbits
 1642              		.align	1
 1643              		.global	lv_disp_get_hor_res
 1644              		.syntax unified
 1645              		.thumb
 1646              		.thumb_func
 1647              		.fpu fpv4-sp-d16
 1649              	lv_disp_get_hor_res:
 1650              	.LVL159:
 1651              	.LFB159:
 284:lvgl/lvgl/src/hal/lv_hal_disp.c ****     if(disp == NULL) disp = lv_disp_get_default();
 1652              		.loc 1 284 1 is_stmt 1 view -0
 1653              		.cfi_startproc
 1654              		@ args = 0, pretend = 0, frame = 0
 1655              		@ frame_needed = 0, uses_anonymous_args = 0
 284:lvgl/lvgl/src/hal/lv_hal_disp.c ****     if(disp == NULL) disp = lv_disp_get_default();
 1656              		.loc 1 284 1 is_stmt 0 view .LVU473
 1657 0000 08B5     		push	{r3, lr}
 1658              	.LCFI29:
 1659              		.cfi_def_cfa_offset 8
 1660              		.cfi_offset 3, -8
 1661              		.cfi_offset 14, -4
 285:lvgl/lvgl/src/hal/lv_hal_disp.c **** 
ARM GAS  C:\Users\gx\AppData\Local\Temp\ccdv9jmC.s 			page 61


 1662              		.loc 1 285 5 is_stmt 1 view .LVU474
 285:lvgl/lvgl/src/hal/lv_hal_disp.c **** 
 1663              		.loc 1 285 7 is_stmt 0 view .LVU475
 1664 0002 0346     		mov	r3, r0
 1665 0004 58B1     		cbz	r0, .L94
 1666              	.L88:
 287:lvgl/lvgl/src/hal/lv_hal_disp.c ****         return 0;
 1667              		.loc 1 287 5 is_stmt 1 view .LVU476
 287:lvgl/lvgl/src/hal/lv_hal_disp.c ****         return 0;
 1668              		.loc 1 287 7 is_stmt 0 view .LVU477
 1669 0006 8BB1     		cbz	r3, .L92
 290:lvgl/lvgl/src/hal/lv_hal_disp.c ****             case LV_DISP_ROT_90:
 1670              		.loc 1 290 9 is_stmt 1 view .LVU478
 290:lvgl/lvgl/src/hal/lv_hal_disp.c ****             case LV_DISP_ROT_90:
 1671              		.loc 1 290 20 is_stmt 0 view .LVU479
 1672 0008 1A68     		ldr	r2, [r3]
 290:lvgl/lvgl/src/hal/lv_hal_disp.c ****             case LV_DISP_ROT_90:
 1673              		.loc 1 290 28 view .LVU480
 1674 000a 137A     		ldrb	r3, [r2, #8]	@ zero_extendqisi2
 1675 000c C3F3C103 		ubfx	r3, r3, #3, #2
 290:lvgl/lvgl/src/hal/lv_hal_disp.c ****             case LV_DISP_ROT_90:
 1676              		.loc 1 290 9 view .LVU481
 1677 0010 012B     		cmp	r3, #1
 1678 0012 08D0     		beq	.L90
 1679 0014 032B     		cmp	r3, #3
 1680 0016 06D0     		beq	.L90
 295:lvgl/lvgl/src/hal/lv_hal_disp.c ****         }
 1681              		.loc 1 295 17 is_stmt 1 view .LVU482
 295:lvgl/lvgl/src/hal/lv_hal_disp.c ****         }
 1682              		.loc 1 295 36 is_stmt 0 view .LVU483
 1683 0018 B2F90000 		ldrsh	r0, [r2]
 1684              	.LVL160:
 295:lvgl/lvgl/src/hal/lv_hal_disp.c ****         }
 1685              		.loc 1 295 36 view .LVU484
 1686 001c 05E0     		b	.L89
 1687              	.LVL161:
 1688              	.L94:
 285:lvgl/lvgl/src/hal/lv_hal_disp.c **** 
 1689              		.loc 1 285 22 is_stmt 1 discriminator 1 view .LVU485
 285:lvgl/lvgl/src/hal/lv_hal_disp.c **** 
 1690              		.loc 1 285 29 is_stmt 0 discriminator 1 view .LVU486
 1691 001e FFF7FEFF 		bl	lv_disp_get_default
 1692              	.LVL162:
 285:lvgl/lvgl/src/hal/lv_hal_disp.c **** 
 1693              		.loc 1 285 29 discriminator 1 view .LVU487
 1694 0022 0346     		mov	r3, r0
 1695              	.LVL163:
 285:lvgl/lvgl/src/hal/lv_hal_disp.c **** 
 1696              		.loc 1 285 29 discriminator 1 view .LVU488
 1697 0024 EFE7     		b	.L88
 1698              	.L90:
 293:lvgl/lvgl/src/hal/lv_hal_disp.c ****             default:
 1699              		.loc 1 293 17 is_stmt 1 view .LVU489
 293:lvgl/lvgl/src/hal/lv_hal_disp.c ****             default:
 1700              		.loc 1 293 36 is_stmt 0 view .LVU490
 1701 0026 B2F90200 		ldrsh	r0, [r2, #2]
 1702              	.LVL164:
ARM GAS  C:\Users\gx\AppData\Local\Temp\ccdv9jmC.s 			page 62


 1703              	.L89:
 298:lvgl/lvgl/src/hal/lv_hal_disp.c **** 
 1704              		.loc 1 298 1 view .LVU491
 1705 002a 08BD     		pop	{r3, pc}
 1706              	.LVL165:
 1707              	.L92:
 288:lvgl/lvgl/src/hal/lv_hal_disp.c ****     } else {
 1708              		.loc 1 288 16 view .LVU492
 1709 002c 0020     		movs	r0, #0
 1710              	.LVL166:
 288:lvgl/lvgl/src/hal/lv_hal_disp.c ****     } else {
 1711              		.loc 1 288 16 view .LVU493
 1712 002e FCE7     		b	.L89
 1713              		.cfi_endproc
 1714              	.LFE159:
 1716              		.section	.text.lv_disp_get_ver_res,"ax",%progbits
 1717              		.align	1
 1718              		.global	lv_disp_get_ver_res
 1719              		.syntax unified
 1720              		.thumb
 1721              		.thumb_func
 1722              		.fpu fpv4-sp-d16
 1724              	lv_disp_get_ver_res:
 1725              	.LVL167:
 1726              	.LFB160:
 306:lvgl/lvgl/src/hal/lv_hal_disp.c ****     if(disp == NULL) disp = lv_disp_get_default();
 1727              		.loc 1 306 1 is_stmt 1 view -0
 1728              		.cfi_startproc
 1729              		@ args = 0, pretend = 0, frame = 0
 1730              		@ frame_needed = 0, uses_anonymous_args = 0
 306:lvgl/lvgl/src/hal/lv_hal_disp.c ****     if(disp == NULL) disp = lv_disp_get_default();
 1731              		.loc 1 306 1 is_stmt 0 view .LVU495
 1732 0000 08B5     		push	{r3, lr}
 1733              	.LCFI30:
 1734              		.cfi_def_cfa_offset 8
 1735              		.cfi_offset 3, -8
 1736              		.cfi_offset 14, -4
 307:lvgl/lvgl/src/hal/lv_hal_disp.c **** 
 1737              		.loc 1 307 5 is_stmt 1 view .LVU496
 307:lvgl/lvgl/src/hal/lv_hal_disp.c **** 
 1738              		.loc 1 307 7 is_stmt 0 view .LVU497
 1739 0002 0346     		mov	r3, r0
 1740 0004 58B1     		cbz	r0, .L102
 1741              	.L96:
 309:lvgl/lvgl/src/hal/lv_hal_disp.c ****         return 0;
 1742              		.loc 1 309 5 is_stmt 1 view .LVU498
 309:lvgl/lvgl/src/hal/lv_hal_disp.c ****         return 0;
 1743              		.loc 1 309 7 is_stmt 0 view .LVU499
 1744 0006 8BB1     		cbz	r3, .L100
 312:lvgl/lvgl/src/hal/lv_hal_disp.c ****             case LV_DISP_ROT_90:
 1745              		.loc 1 312 9 is_stmt 1 view .LVU500
 312:lvgl/lvgl/src/hal/lv_hal_disp.c ****             case LV_DISP_ROT_90:
 1746              		.loc 1 312 20 is_stmt 0 view .LVU501
 1747 0008 1A68     		ldr	r2, [r3]
 312:lvgl/lvgl/src/hal/lv_hal_disp.c ****             case LV_DISP_ROT_90:
 1748              		.loc 1 312 28 view .LVU502
 1749 000a 137A     		ldrb	r3, [r2, #8]	@ zero_extendqisi2
ARM GAS  C:\Users\gx\AppData\Local\Temp\ccdv9jmC.s 			page 63


 1750 000c C3F3C103 		ubfx	r3, r3, #3, #2
 312:lvgl/lvgl/src/hal/lv_hal_disp.c ****             case LV_DISP_ROT_90:
 1751              		.loc 1 312 9 view .LVU503
 1752 0010 012B     		cmp	r3, #1
 1753 0012 08D0     		beq	.L98
 1754 0014 032B     		cmp	r3, #3
 1755 0016 06D0     		beq	.L98
 317:lvgl/lvgl/src/hal/lv_hal_disp.c ****         }
 1756              		.loc 1 317 17 is_stmt 1 view .LVU504
 317:lvgl/lvgl/src/hal/lv_hal_disp.c ****         }
 1757              		.loc 1 317 36 is_stmt 0 view .LVU505
 1758 0018 B2F90200 		ldrsh	r0, [r2, #2]
 1759              	.LVL168:
 317:lvgl/lvgl/src/hal/lv_hal_disp.c ****         }
 1760              		.loc 1 317 36 view .LVU506
 1761 001c 05E0     		b	.L97
 1762              	.LVL169:
 1763              	.L102:
 307:lvgl/lvgl/src/hal/lv_hal_disp.c **** 
 1764              		.loc 1 307 22 is_stmt 1 discriminator 1 view .LVU507
 307:lvgl/lvgl/src/hal/lv_hal_disp.c **** 
 1765              		.loc 1 307 29 is_stmt 0 discriminator 1 view .LVU508
 1766 001e FFF7FEFF 		bl	lv_disp_get_default
 1767              	.LVL170:
 307:lvgl/lvgl/src/hal/lv_hal_disp.c **** 
 1768              		.loc 1 307 29 discriminator 1 view .LVU509
 1769 0022 0346     		mov	r3, r0
 1770              	.LVL171:
 307:lvgl/lvgl/src/hal/lv_hal_disp.c **** 
 1771              		.loc 1 307 29 discriminator 1 view .LVU510
 1772 0024 EFE7     		b	.L96
 1773              	.L98:
 315:lvgl/lvgl/src/hal/lv_hal_disp.c ****             default:
 1774              		.loc 1 315 17 is_stmt 1 view .LVU511
 315:lvgl/lvgl/src/hal/lv_hal_disp.c ****             default:
 1775              		.loc 1 315 36 is_stmt 0 view .LVU512
 1776 0026 B2F90000 		ldrsh	r0, [r2]
 1777              	.LVL172:
 1778              	.L97:
 320:lvgl/lvgl/src/hal/lv_hal_disp.c **** 
 1779              		.loc 1 320 1 view .LVU513
 1780 002a 08BD     		pop	{r3, pc}
 1781              	.LVL173:
 1782              	.L100:
 310:lvgl/lvgl/src/hal/lv_hal_disp.c ****     } else {
 1783              		.loc 1 310 16 view .LVU514
 1784 002c 0020     		movs	r0, #0
 1785              	.LVL174:
 310:lvgl/lvgl/src/hal/lv_hal_disp.c ****     } else {
 1786              		.loc 1 310 16 view .LVU515
 1787 002e FCE7     		b	.L97
 1788              		.cfi_endproc
 1789              	.LFE160:
 1791              		.section	.text.lv_disp_drv_update,"ax",%progbits
 1792              		.align	1
 1793              		.global	lv_disp_drv_update
 1794              		.syntax unified
ARM GAS  C:\Users\gx\AppData\Local\Temp\ccdv9jmC.s 			page 64


 1795              		.thumb
 1796              		.thumb_func
 1797              		.fpu fpv4-sp-d16
 1799              	lv_disp_drv_update:
 1800              	.LVL175:
 1801              	.LFB155:
 185:lvgl/lvgl/src/hal/lv_hal_disp.c ****     disp->driver = new_drv;
 1802              		.loc 1 185 1 is_stmt 1 view -0
 1803              		.cfi_startproc
 1804              		@ args = 0, pretend = 0, frame = 8
 1805              		@ frame_needed = 0, uses_anonymous_args = 0
 185:lvgl/lvgl/src/hal/lv_hal_disp.c ****     disp->driver = new_drv;
 1806              		.loc 1 185 1 is_stmt 0 view .LVU517
 1807 0000 F0B5     		push	{r4, r5, r6, r7, lr}
 1808              	.LCFI31:
 1809              		.cfi_def_cfa_offset 20
 1810              		.cfi_offset 4, -20
 1811              		.cfi_offset 5, -16
 1812              		.cfi_offset 6, -12
 1813              		.cfi_offset 7, -8
 1814              		.cfi_offset 14, -4
 1815 0002 85B0     		sub	sp, sp, #20
 1816              	.LCFI32:
 1817              		.cfi_def_cfa_offset 40
 1818 0004 0546     		mov	r5, r0
 186:lvgl/lvgl/src/hal/lv_hal_disp.c **** 
 1819              		.loc 1 186 5 is_stmt 1 view .LVU518
 186:lvgl/lvgl/src/hal/lv_hal_disp.c **** 
 1820              		.loc 1 186 18 is_stmt 0 view .LVU519
 1821 0006 0160     		str	r1, [r0]
 188:lvgl/lvgl/src/hal/lv_hal_disp.c ****         disp->driver->full_refresh = 0;
 1822              		.loc 1 188 5 is_stmt 1 view .LVU520
 188:lvgl/lvgl/src/hal/lv_hal_disp.c ****         disp->driver->full_refresh = 0;
 1823              		.loc 1 188 8 is_stmt 0 view .LVU521
 1824 0008 0B7A     		ldrb	r3, [r1, #8]	@ zero_extendqisi2
 188:lvgl/lvgl/src/hal/lv_hal_disp.c ****         disp->driver->full_refresh = 0;
 1825              		.loc 1 188 7 view .LVU522
 1826 000a 13F0010F 		tst	r3, #1
 1827 000e 09D0     		beq	.L104
 188:lvgl/lvgl/src/hal/lv_hal_disp.c ****         disp->driver->full_refresh = 0;
 1828              		.loc 1 188 50 discriminator 1 view .LVU523
 1829 0010 4B68     		ldr	r3, [r1, #4]
 188:lvgl/lvgl/src/hal/lv_hal_disp.c ****         disp->driver->full_refresh = 0;
 1830              		.loc 1 188 60 discriminator 1 view .LVU524
 1831 0012 DA68     		ldr	r2, [r3, #12]
 188:lvgl/lvgl/src/hal/lv_hal_disp.c ****         disp->driver->full_refresh = 0;
 1832              		.loc 1 188 91 discriminator 1 view .LVU525
 1833 0014 B1F90000 		ldrsh	r0, [r1]
 1834              	.LVL176:
 188:lvgl/lvgl/src/hal/lv_hal_disp.c ****         disp->driver->full_refresh = 0;
 1835              		.loc 1 188 115 discriminator 1 view .LVU526
 1836 0018 B1F90230 		ldrsh	r3, [r1, #2]
 188:lvgl/lvgl/src/hal/lv_hal_disp.c ****         disp->driver->full_refresh = 0;
 1837              		.loc 1 188 101 discriminator 1 view .LVU527
 1838 001c 03FB00F3 		mul	r3, r3, r0
 188:lvgl/lvgl/src/hal/lv_hal_disp.c ****         disp->driver->full_refresh = 0;
 1839              		.loc 1 188 35 discriminator 1 view .LVU528
ARM GAS  C:\Users\gx\AppData\Local\Temp\ccdv9jmC.s 			page 65


 1840 0020 9A42     		cmp	r2, r3
 1841 0022 28D3     		bcc	.L110
 1842              	.LVL177:
 1843              	.L104:
 193:lvgl/lvgl/src/hal/lv_hal_disp.c ****     lv_coord_t h = lv_disp_get_ver_res(disp);
 1844              		.loc 1 193 5 is_stmt 1 view .LVU529
 193:lvgl/lvgl/src/hal/lv_hal_disp.c ****     lv_coord_t h = lv_disp_get_ver_res(disp);
 1845              		.loc 1 193 20 is_stmt 0 view .LVU530
 1846 0024 2846     		mov	r0, r5
 1847 0026 FFF7FEFF 		bl	lv_disp_get_hor_res
 1848              	.LVL178:
 1849 002a 0746     		mov	r7, r0
 1850              	.LVL179:
 194:lvgl/lvgl/src/hal/lv_hal_disp.c ****     uint32_t i;
 1851              		.loc 1 194 5 is_stmt 1 view .LVU531
 194:lvgl/lvgl/src/hal/lv_hal_disp.c ****     uint32_t i;
 1852              		.loc 1 194 20 is_stmt 0 view .LVU532
 1853 002c 2846     		mov	r0, r5
 1854 002e FFF7FEFF 		bl	lv_disp_get_ver_res
 1855              	.LVL180:
 1856 0032 0646     		mov	r6, r0
 1857              	.LVL181:
 195:lvgl/lvgl/src/hal/lv_hal_disp.c ****     for(i = 0; i < disp->screen_cnt; i++) {
 1858              		.loc 1 195 5 is_stmt 1 view .LVU533
 196:lvgl/lvgl/src/hal/lv_hal_disp.c ****         lv_area_t prev_coords;
 1859              		.loc 1 196 5 view .LVU534
 196:lvgl/lvgl/src/hal/lv_hal_disp.c ****         lv_area_t prev_coords;
 1860              		.loc 1 196 11 is_stmt 0 view .LVU535
 1861 0034 0024     		movs	r4, #0
 1862              	.LVL182:
 1863              	.L105:
 196:lvgl/lvgl/src/hal/lv_hal_disp.c ****         lv_area_t prev_coords;
 1864              		.loc 1 196 16 is_stmt 1 discriminator 1 view .LVU536
 196:lvgl/lvgl/src/hal/lv_hal_disp.c ****         lv_area_t prev_coords;
 1865              		.loc 1 196 24 is_stmt 0 discriminator 1 view .LVU537
 1866 0036 6B6A     		ldr	r3, [r5, #36]
 196:lvgl/lvgl/src/hal/lv_hal_disp.c ****         lv_area_t prev_coords;
 1867              		.loc 1 196 5 discriminator 1 view .LVU538
 1868 0038 A342     		cmp	r3, r4
 1869 003a 29D9     		bls	.L111
 1870              	.LBB80:
 197:lvgl/lvgl/src/hal/lv_hal_disp.c ****         lv_obj_get_coords(disp->screens[i], &prev_coords);
 1871              		.loc 1 197 9 is_stmt 1 discriminator 3 view .LVU539
 198:lvgl/lvgl/src/hal/lv_hal_disp.c ****         lv_area_set_width(&disp->screens[i]->coords, w);
 1872              		.loc 1 198 9 discriminator 3 view .LVU540
 198:lvgl/lvgl/src/hal/lv_hal_disp.c ****         lv_area_set_width(&disp->screens[i]->coords, w);
 1873              		.loc 1 198 31 is_stmt 0 discriminator 3 view .LVU541
 1874 003c EB68     		ldr	r3, [r5, #12]
 198:lvgl/lvgl/src/hal/lv_hal_disp.c ****         lv_area_set_width(&disp->screens[i]->coords, w);
 1875              		.loc 1 198 9 discriminator 3 view .LVU542
 1876 003e 02A9     		add	r1, sp, #8
 1877 0040 53F82400 		ldr	r0, [r3, r4, lsl #2]
 1878 0044 FFF7FEFF 		bl	lv_obj_get_coords
 1879              	.LVL183:
 199:lvgl/lvgl/src/hal/lv_hal_disp.c ****         lv_area_set_height(&disp->screens[i]->coords, h);
 1880              		.loc 1 199 9 is_stmt 1 discriminator 3 view .LVU543
 199:lvgl/lvgl/src/hal/lv_hal_disp.c ****         lv_area_set_height(&disp->screens[i]->coords, h);
ARM GAS  C:\Users\gx\AppData\Local\Temp\ccdv9jmC.s 			page 66


 1881              		.loc 1 199 32 is_stmt 0 discriminator 3 view .LVU544
 1882 0048 EB68     		ldr	r3, [r5, #12]
 199:lvgl/lvgl/src/hal/lv_hal_disp.c ****         lv_area_set_height(&disp->screens[i]->coords, h);
 1883              		.loc 1 199 41 discriminator 3 view .LVU545
 1884 004a 53F82400 		ldr	r0, [r3, r4, lsl #2]
 199:lvgl/lvgl/src/hal/lv_hal_disp.c ****         lv_area_set_height(&disp->screens[i]->coords, h);
 1885              		.loc 1 199 9 discriminator 3 view .LVU546
 1886 004e 3946     		mov	r1, r7
 1887 0050 1430     		adds	r0, r0, #20
 1888 0052 FFF7FEFF 		bl	lv_area_set_width
 1889              	.LVL184:
 200:lvgl/lvgl/src/hal/lv_hal_disp.c ****         lv_event_send(disp->screens[i], LV_EVENT_SIZE_CHANGED, &prev_coords);
 1890              		.loc 1 200 9 is_stmt 1 discriminator 3 view .LVU547
 200:lvgl/lvgl/src/hal/lv_hal_disp.c ****         lv_event_send(disp->screens[i], LV_EVENT_SIZE_CHANGED, &prev_coords);
 1891              		.loc 1 200 33 is_stmt 0 discriminator 3 view .LVU548
 1892 0056 EB68     		ldr	r3, [r5, #12]
 200:lvgl/lvgl/src/hal/lv_hal_disp.c ****         lv_event_send(disp->screens[i], LV_EVENT_SIZE_CHANGED, &prev_coords);
 1893              		.loc 1 200 42 discriminator 3 view .LVU549
 1894 0058 53F82400 		ldr	r0, [r3, r4, lsl #2]
 200:lvgl/lvgl/src/hal/lv_hal_disp.c ****         lv_event_send(disp->screens[i], LV_EVENT_SIZE_CHANGED, &prev_coords);
 1895              		.loc 1 200 9 discriminator 3 view .LVU550
 1896 005c 3146     		mov	r1, r6
 1897 005e 1430     		adds	r0, r0, #20
 1898 0060 FFF7FEFF 		bl	lv_area_set_height
 1899              	.LVL185:
 201:lvgl/lvgl/src/hal/lv_hal_disp.c ****     }
 1900              		.loc 1 201 9 is_stmt 1 discriminator 3 view .LVU551
 201:lvgl/lvgl/src/hal/lv_hal_disp.c ****     }
 1901              		.loc 1 201 27 is_stmt 0 discriminator 3 view .LVU552
 1902 0064 EB68     		ldr	r3, [r5, #12]
 201:lvgl/lvgl/src/hal/lv_hal_disp.c ****     }
 1903              		.loc 1 201 9 discriminator 3 view .LVU553
 1904 0066 02AA     		add	r2, sp, #8
 1905 0068 2321     		movs	r1, #35
 1906 006a 53F82400 		ldr	r0, [r3, r4, lsl #2]
 1907 006e FFF7FEFF 		bl	lv_event_send
 1908              	.LVL186:
 1909              	.LBE80:
 196:lvgl/lvgl/src/hal/lv_hal_disp.c ****         lv_area_t prev_coords;
 1910              		.loc 1 196 38 is_stmt 1 discriminator 3 view .LVU554
 196:lvgl/lvgl/src/hal/lv_hal_disp.c ****         lv_area_t prev_coords;
 1911              		.loc 1 196 39 is_stmt 0 discriminator 3 view .LVU555
 1912 0072 0134     		adds	r4, r4, #1
 1913              	.LVL187:
 196:lvgl/lvgl/src/hal/lv_hal_disp.c ****         lv_area_t prev_coords;
 1914              		.loc 1 196 39 discriminator 3 view .LVU556
 1915 0074 DFE7     		b	.L105
 1916              	.LVL188:
 1917              	.L110:
 189:lvgl/lvgl/src/hal/lv_hal_disp.c ****         LV_LOG_WARN("full_refresh requires at least screen sized draw buffer(s)")
 1918              		.loc 1 189 9 is_stmt 1 view .LVU557
 189:lvgl/lvgl/src/hal/lv_hal_disp.c ****         LV_LOG_WARN("full_refresh requires at least screen sized draw buffer(s)")
 1919              		.loc 1 189 36 is_stmt 0 view .LVU558
 1920 0076 0B7A     		ldrb	r3, [r1, #8]	@ zero_extendqisi2
 1921 0078 6FF30003 		bfc	r3, #0, #1
 1922 007c 0B72     		strb	r3, [r1, #8]
 190:lvgl/lvgl/src/hal/lv_hal_disp.c ****     }
ARM GAS  C:\Users\gx\AppData\Local\Temp\ccdv9jmC.s 			page 67


 1923              		.loc 1 190 9 is_stmt 1 view .LVU559
 1924 007e 134B     		ldr	r3, .L112
 1925 0080 0093     		str	r3, [sp]
 1926 0082 134B     		ldr	r3, .L112+4
 1927 0084 BE22     		movs	r2, #190
 1928 0086 1349     		ldr	r1, .L112+8
 1929              	.LVL189:
 190:lvgl/lvgl/src/hal/lv_hal_disp.c ****     }
 1930              		.loc 1 190 9 is_stmt 0 view .LVU560
 1931 0088 0220     		movs	r0, #2
 1932 008a FFF7FEFF 		bl	_lv_log_add
 1933              	.LVL190:
 1934 008e C9E7     		b	.L104
 1935              	.LVL191:
 1936              	.L111:
 210:lvgl/lvgl/src/hal/lv_hal_disp.c ****     lv_memset_00(disp->inv_area_joined, sizeof(disp->inv_area_joined));
 1937              		.loc 1 210 5 is_stmt 1 view .LVU561
 1938 0090 4FF48071 		mov	r1, #256
 1939 0094 05F13000 		add	r0, r5, #48
 1940 0098 FFF7FEFF 		bl	lv_memset_00
 1941              	.LVL192:
 211:lvgl/lvgl/src/hal/lv_hal_disp.c ****     disp->inv_p = 0;
 1942              		.loc 1 211 5 view .LVU562
 1943 009c 2021     		movs	r1, #32
 1944 009e 05F59870 		add	r0, r5, #304
 1945 00a2 FFF7FEFF 		bl	lv_memset_00
 1946              	.LVL193:
 212:lvgl/lvgl/src/hal/lv_hal_disp.c ****     if(disp->act_scr != NULL) lv_obj_invalidate(disp->act_scr);
 1947              		.loc 1 212 5 view .LVU563
 212:lvgl/lvgl/src/hal/lv_hal_disp.c ****     if(disp->act_scr != NULL) lv_obj_invalidate(disp->act_scr);
 1948              		.loc 1 212 17 is_stmt 0 view .LVU564
 1949 00a6 0023     		movs	r3, #0
 1950 00a8 A5F85031 		strh	r3, [r5, #336]	@ movhi
 213:lvgl/lvgl/src/hal/lv_hal_disp.c **** 
 1951              		.loc 1 213 5 is_stmt 1 view .LVU565
 213:lvgl/lvgl/src/hal/lv_hal_disp.c **** 
 1952              		.loc 1 213 12 is_stmt 0 view .LVU566
 1953 00ac 2869     		ldr	r0, [r5, #16]
 213:lvgl/lvgl/src/hal/lv_hal_disp.c **** 
 1954              		.loc 1 213 7 view .LVU567
 1955 00ae 08B1     		cbz	r0, .L107
 213:lvgl/lvgl/src/hal/lv_hal_disp.c **** 
 1956              		.loc 1 213 31 is_stmt 1 discriminator 1 view .LVU568
 1957 00b0 FFF7FEFF 		bl	lv_obj_invalidate
 1958              	.LVL194:
 1959              	.L107:
 215:lvgl/lvgl/src/hal/lv_hal_disp.c **** 
 1960              		.loc 1 215 5 view .LVU569
 1961 00b4 0022     		movs	r2, #0
 1962 00b6 0849     		ldr	r1, .L112+12
 1963 00b8 1046     		mov	r0, r2
 1964 00ba FFF7FEFF 		bl	lv_obj_tree_walk
 1965              	.LVL195:
 217:lvgl/lvgl/src/hal/lv_hal_disp.c **** }
 1966              		.loc 1 217 5 view .LVU570
 217:lvgl/lvgl/src/hal/lv_hal_disp.c **** }
 1967              		.loc 1 217 12 is_stmt 0 view .LVU571
ARM GAS  C:\Users\gx\AppData\Local\Temp\ccdv9jmC.s 			page 68


 1968 00be 2868     		ldr	r0, [r5]
 217:lvgl/lvgl/src/hal/lv_hal_disp.c **** }
 1969              		.loc 1 217 20 view .LVU572
 1970 00c0 836A     		ldr	r3, [r0, #40]
 217:lvgl/lvgl/src/hal/lv_hal_disp.c **** }
 1971              		.loc 1 217 7 view .LVU573
 1972 00c2 03B1     		cbz	r3, .L103
 217:lvgl/lvgl/src/hal/lv_hal_disp.c **** }
 1973              		.loc 1 217 37 is_stmt 1 discriminator 1 view .LVU574
 1974 00c4 9847     		blx	r3
 1975              	.LVL196:
 1976              	.L103:
 218:lvgl/lvgl/src/hal/lv_hal_disp.c **** 
 1977              		.loc 1 218 1 is_stmt 0 view .LVU575
 1978 00c6 05B0     		add	sp, sp, #20
 1979              	.LCFI33:
 1980              		.cfi_def_cfa_offset 20
 1981              		@ sp needed
 1982 00c8 F0BD     		pop	{r4, r5, r6, r7, pc}
 1983              	.LVL197:
 1984              	.L113:
 218:lvgl/lvgl/src/hal/lv_hal_disp.c **** 
 1985              		.loc 1 218 1 view .LVU576
 1986 00ca 00BF     		.align	2
 1987              	.L112:
 1988 00cc 7C000000 		.word	.LC5
 1989 00d0 00000000 		.word	.LANCHOR8
 1990 00d4 00000000 		.word	.LC0
 1991 00d8 00000000 		.word	invalidate_layout_cb
 1992              		.cfi_endproc
 1993              	.LFE155:
 1995              		.section	.text.lv_disp_get_antialiasing,"ax",%progbits
 1996              		.align	1
 1997              		.global	lv_disp_get_antialiasing
 1998              		.syntax unified
 1999              		.thumb
 2000              		.thumb_func
 2001              		.fpu fpv4-sp-d16
 2003              	lv_disp_get_antialiasing:
 2004              	.LVL198:
 2005              	.LFB161:
 328:lvgl/lvgl/src/hal/lv_hal_disp.c ****     if(disp == NULL) disp = lv_disp_get_default();
 2006              		.loc 1 328 1 is_stmt 1 view -0
 2007              		.cfi_startproc
 2008              		@ args = 0, pretend = 0, frame = 0
 2009              		@ frame_needed = 0, uses_anonymous_args = 0
 328:lvgl/lvgl/src/hal/lv_hal_disp.c ****     if(disp == NULL) disp = lv_disp_get_default();
 2010              		.loc 1 328 1 is_stmt 0 view .LVU578
 2011 0000 08B5     		push	{r3, lr}
 2012              	.LCFI34:
 2013              		.cfi_def_cfa_offset 8
 2014              		.cfi_offset 3, -8
 2015              		.cfi_offset 14, -4
 329:lvgl/lvgl/src/hal/lv_hal_disp.c ****     if(disp == NULL) return false;
 2016              		.loc 1 329 5 is_stmt 1 view .LVU579
 329:lvgl/lvgl/src/hal/lv_hal_disp.c ****     if(disp == NULL) return false;
 2017              		.loc 1 329 7 is_stmt 0 view .LVU580
ARM GAS  C:\Users\gx\AppData\Local\Temp\ccdv9jmC.s 			page 69


 2018 0002 0346     		mov	r3, r0
 2019 0004 28B1     		cbz	r0, .L119
 2020              	.L115:
 330:lvgl/lvgl/src/hal/lv_hal_disp.c **** 
 2021              		.loc 1 330 5 is_stmt 1 view .LVU581
 330:lvgl/lvgl/src/hal/lv_hal_disp.c **** 
 2022              		.loc 1 330 7 is_stmt 0 view .LVU582
 2023 0006 43B1     		cbz	r3, .L117
 332:lvgl/lvgl/src/hal/lv_hal_disp.c **** }
 2024              		.loc 1 332 5 is_stmt 1 view .LVU583
 332:lvgl/lvgl/src/hal/lv_hal_disp.c **** }
 2025              		.loc 1 332 16 is_stmt 0 view .LVU584
 2026 0008 1B68     		ldr	r3, [r3]
 332:lvgl/lvgl/src/hal/lv_hal_disp.c **** }
 2027              		.loc 1 332 39 view .LVU585
 2028 000a 187A     		ldrb	r0, [r3, #8]	@ zero_extendqisi2
 2029              	.LVL199:
 332:lvgl/lvgl/src/hal/lv_hal_disp.c **** }
 2030              		.loc 1 332 46 view .LVU586
 2031 000c C0F38000 		ubfx	r0, r0, #2, #1
 2032              	.L116:
 333:lvgl/lvgl/src/hal/lv_hal_disp.c **** 
 2033              		.loc 1 333 1 view .LVU587
 2034 0010 08BD     		pop	{r3, pc}
 2035              	.LVL200:
 2036              	.L119:
 329:lvgl/lvgl/src/hal/lv_hal_disp.c ****     if(disp == NULL) return false;
 2037              		.loc 1 329 22 is_stmt 1 discriminator 1 view .LVU588
 329:lvgl/lvgl/src/hal/lv_hal_disp.c ****     if(disp == NULL) return false;
 2038              		.loc 1 329 29 is_stmt 0 discriminator 1 view .LVU589
 2039 0012 FFF7FEFF 		bl	lv_disp_get_default
 2040              	.LVL201:
 329:lvgl/lvgl/src/hal/lv_hal_disp.c ****     if(disp == NULL) return false;
 2041              		.loc 1 329 29 discriminator 1 view .LVU590
 2042 0016 0346     		mov	r3, r0
 2043              	.LVL202:
 329:lvgl/lvgl/src/hal/lv_hal_disp.c ****     if(disp == NULL) return false;
 2044              		.loc 1 329 29 discriminator 1 view .LVU591
 2045 0018 F5E7     		b	.L115
 2046              	.L117:
 330:lvgl/lvgl/src/hal/lv_hal_disp.c **** 
 2047              		.loc 1 330 29 view .LVU592
 2048 001a 0020     		movs	r0, #0
 2049              	.LVL203:
 330:lvgl/lvgl/src/hal/lv_hal_disp.c **** 
 2050              		.loc 1 330 29 view .LVU593
 2051 001c F8E7     		b	.L116
 2052              		.cfi_endproc
 2053              	.LFE161:
 2055              		.section	.text.lv_disp_get_dpi,"ax",%progbits
 2056              		.align	1
 2057              		.global	lv_disp_get_dpi
 2058              		.syntax unified
 2059              		.thumb
 2060              		.thumb_func
 2061              		.fpu fpv4-sp-d16
 2063              	lv_disp_get_dpi:
ARM GAS  C:\Users\gx\AppData\Local\Temp\ccdv9jmC.s 			page 70


 2064              	.LVL204:
 2065              	.LFB162:
 341:lvgl/lvgl/src/hal/lv_hal_disp.c ****     if(disp == NULL) disp = lv_disp_get_default();
 2066              		.loc 1 341 1 is_stmt 1 view -0
 2067              		.cfi_startproc
 2068              		@ args = 0, pretend = 0, frame = 0
 2069              		@ frame_needed = 0, uses_anonymous_args = 0
 341:lvgl/lvgl/src/hal/lv_hal_disp.c ****     if(disp == NULL) disp = lv_disp_get_default();
 2070              		.loc 1 341 1 is_stmt 0 view .LVU595
 2071 0000 08B5     		push	{r3, lr}
 2072              	.LCFI35:
 2073              		.cfi_def_cfa_offset 8
 2074              		.cfi_offset 3, -8
 2075              		.cfi_offset 14, -4
 342:lvgl/lvgl/src/hal/lv_hal_disp.c ****     if(disp == NULL) return LV_DPI_DEF;  /*Do not return 0 because it might be a divider*/
 2076              		.loc 1 342 5 is_stmt 1 view .LVU596
 342:lvgl/lvgl/src/hal/lv_hal_disp.c ****     if(disp == NULL) return LV_DPI_DEF;  /*Do not return 0 because it might be a divider*/
 2077              		.loc 1 342 7 is_stmt 0 view .LVU597
 2078 0002 0346     		mov	r3, r0
 2079 0004 28B1     		cbz	r0, .L125
 2080              	.L121:
 343:lvgl/lvgl/src/hal/lv_hal_disp.c ****     return disp->driver->dpi;
 2081              		.loc 1 343 5 is_stmt 1 view .LVU598
 343:lvgl/lvgl/src/hal/lv_hal_disp.c ****     return disp->driver->dpi;
 2082              		.loc 1 343 7 is_stmt 0 view .LVU599
 2083 0006 43B1     		cbz	r3, .L123
 344:lvgl/lvgl/src/hal/lv_hal_disp.c **** }
 2084              		.loc 1 344 5 is_stmt 1 view .LVU600
 344:lvgl/lvgl/src/hal/lv_hal_disp.c **** }
 2085              		.loc 1 344 16 is_stmt 0 view .LVU601
 2086 0008 1B68     		ldr	r3, [r3]
 344:lvgl/lvgl/src/hal/lv_hal_disp.c **** }
 2087              		.loc 1 344 24 view .LVU602
 2088 000a 1889     		ldrh	r0, [r3, #8]
 2089              	.LVL205:
 344:lvgl/lvgl/src/hal/lv_hal_disp.c **** }
 2090              		.loc 1 344 24 view .LVU603
 2091 000c C0F38910 		ubfx	r0, r0, #6, #10
 2092              	.L122:
 345:lvgl/lvgl/src/hal/lv_hal_disp.c **** 
 2093              		.loc 1 345 1 view .LVU604
 2094 0010 08BD     		pop	{r3, pc}
 2095              	.LVL206:
 2096              	.L125:
 342:lvgl/lvgl/src/hal/lv_hal_disp.c ****     if(disp == NULL) return LV_DPI_DEF;  /*Do not return 0 because it might be a divider*/
 2097              		.loc 1 342 22 is_stmt 1 discriminator 1 view .LVU605
 342:lvgl/lvgl/src/hal/lv_hal_disp.c ****     if(disp == NULL) return LV_DPI_DEF;  /*Do not return 0 because it might be a divider*/
 2098              		.loc 1 342 29 is_stmt 0 discriminator 1 view .LVU606
 2099 0012 FFF7FEFF 		bl	lv_disp_get_default
 2100              	.LVL207:
 342:lvgl/lvgl/src/hal/lv_hal_disp.c ****     if(disp == NULL) return LV_DPI_DEF;  /*Do not return 0 because it might be a divider*/
 2101              		.loc 1 342 29 discriminator 1 view .LVU607
 2102 0016 0346     		mov	r3, r0
 2103              	.LVL208:
 342:lvgl/lvgl/src/hal/lv_hal_disp.c ****     if(disp == NULL) return LV_DPI_DEF;  /*Do not return 0 because it might be a divider*/
 2104              		.loc 1 342 29 discriminator 1 view .LVU608
 2105 0018 F5E7     		b	.L121
ARM GAS  C:\Users\gx\AppData\Local\Temp\ccdv9jmC.s 			page 71


 2106              	.L123:
 343:lvgl/lvgl/src/hal/lv_hal_disp.c ****     return disp->driver->dpi;
 2107              		.loc 1 343 29 view .LVU609
 2108 001a 8220     		movs	r0, #130
 2109              	.LVL209:
 343:lvgl/lvgl/src/hal/lv_hal_disp.c ****     return disp->driver->dpi;
 2110              		.loc 1 343 29 view .LVU610
 2111 001c F8E7     		b	.L122
 2112              		.cfi_endproc
 2113              	.LFE162:
 2115              		.section	.text.lv_disp_flush_ready,"ax",%progbits
 2116              		.align	1
 2117              		.global	lv_disp_flush_ready
 2118              		.syntax unified
 2119              		.thumb
 2120              		.thumb_func
 2121              		.fpu fpv4-sp-d16
 2123              	lv_disp_flush_ready:
 2124              	.LVL210:
 2125              	.LFB163:
 352:lvgl/lvgl/src/hal/lv_hal_disp.c ****     /*If the screen is transparent initialize it when the flushing is ready*/
 2126              		.loc 1 352 1 is_stmt 1 view -0
 2127              		.cfi_startproc
 2128              		@ args = 0, pretend = 0, frame = 0
 2129              		@ frame_needed = 0, uses_anonymous_args = 0
 2130              		@ link register save eliminated.
 360:lvgl/lvgl/src/hal/lv_hal_disp.c ****     disp_drv->draw_buf->flushing_last = 0;
 2131              		.loc 1 360 5 view .LVU612
 360:lvgl/lvgl/src/hal/lv_hal_disp.c ****     disp_drv->draw_buf->flushing_last = 0;
 2132              		.loc 1 360 13 is_stmt 0 view .LVU613
 2133 0000 4268     		ldr	r2, [r0, #4]
 360:lvgl/lvgl/src/hal/lv_hal_disp.c ****     disp_drv->draw_buf->flushing_last = 0;
 2134              		.loc 1 360 34 view .LVU614
 2135 0002 0023     		movs	r3, #0
 2136 0004 9361     		str	r3, [r2, #24]
 361:lvgl/lvgl/src/hal/lv_hal_disp.c **** }
 2137              		.loc 1 361 5 is_stmt 1 view .LVU615
 361:lvgl/lvgl/src/hal/lv_hal_disp.c **** }
 2138              		.loc 1 361 13 is_stmt 0 view .LVU616
 2139 0006 4268     		ldr	r2, [r0, #4]
 361:lvgl/lvgl/src/hal/lv_hal_disp.c **** }
 2140              		.loc 1 361 39 view .LVU617
 2141 0008 D361     		str	r3, [r2, #28]
 362:lvgl/lvgl/src/hal/lv_hal_disp.c **** 
 2142              		.loc 1 362 1 view .LVU618
 2143 000a 7047     		bx	lr
 2144              		.cfi_endproc
 2145              	.LFE163:
 2147              		.section	.text.lv_disp_flush_is_last,"ax",%progbits
 2148              		.align	1
 2149              		.global	lv_disp_flush_is_last
 2150              		.syntax unified
 2151              		.thumb
 2152              		.thumb_func
 2153              		.fpu fpv4-sp-d16
 2155              	lv_disp_flush_is_last:
 2156              	.LVL211:
ARM GAS  C:\Users\gx\AppData\Local\Temp\ccdv9jmC.s 			page 72


 2157              	.LFB164:
 371:lvgl/lvgl/src/hal/lv_hal_disp.c ****     return disp_drv->draw_buf->flushing_last;
 2158              		.loc 1 371 1 is_stmt 1 view -0
 2159              		.cfi_startproc
 2160              		@ args = 0, pretend = 0, frame = 0
 2161              		@ frame_needed = 0, uses_anonymous_args = 0
 2162              		@ link register save eliminated.
 372:lvgl/lvgl/src/hal/lv_hal_disp.c **** }
 2163              		.loc 1 372 5 view .LVU620
 372:lvgl/lvgl/src/hal/lv_hal_disp.c **** }
 2164              		.loc 1 372 20 is_stmt 0 view .LVU621
 2165 0000 4368     		ldr	r3, [r0, #4]
 372:lvgl/lvgl/src/hal/lv_hal_disp.c **** }
 2166              		.loc 1 372 30 view .LVU622
 2167 0002 D869     		ldr	r0, [r3, #28]
 2168              	.LVL212:
 373:lvgl/lvgl/src/hal/lv_hal_disp.c **** 
 2169              		.loc 1 373 1 view .LVU623
 2170 0004 0038     		subs	r0, r0, #0
 2171 0006 18BF     		it	ne
 2172 0008 0120     		movne	r0, #1
 2173 000a 7047     		bx	lr
 2174              		.cfi_endproc
 2175              	.LFE164:
 2177              		.section	.text.lv_disp_get_next,"ax",%progbits
 2178              		.align	1
 2179              		.global	lv_disp_get_next
 2180              		.syntax unified
 2181              		.thumb
 2182              		.thumb_func
 2183              		.fpu fpv4-sp-d16
 2185              	lv_disp_get_next:
 2186              	.LVL213:
 2187              	.LFB165:
 381:lvgl/lvgl/src/hal/lv_hal_disp.c ****     if(disp == NULL)
 2188              		.loc 1 381 1 is_stmt 1 view -0
 2189              		.cfi_startproc
 2190              		@ args = 0, pretend = 0, frame = 0
 2191              		@ frame_needed = 0, uses_anonymous_args = 0
 381:lvgl/lvgl/src/hal/lv_hal_disp.c ****     if(disp == NULL)
 2192              		.loc 1 381 1 is_stmt 0 view .LVU625
 2193 0000 08B5     		push	{r3, lr}
 2194              	.LCFI36:
 2195              		.cfi_def_cfa_offset 8
 2196              		.cfi_offset 3, -8
 2197              		.cfi_offset 14, -4
 382:lvgl/lvgl/src/hal/lv_hal_disp.c ****         return _lv_ll_get_head(&LV_GC_ROOT(_lv_disp_ll));
 2198              		.loc 1 382 5 is_stmt 1 view .LVU626
 382:lvgl/lvgl/src/hal/lv_hal_disp.c ****         return _lv_ll_get_head(&LV_GC_ROOT(_lv_disp_ll));
 2199              		.loc 1 382 7 is_stmt 0 view .LVU627
 2200 0002 20B1     		cbz	r0, .L132
 2201 0004 0146     		mov	r1, r0
 385:lvgl/lvgl/src/hal/lv_hal_disp.c **** }
 2202              		.loc 1 385 9 is_stmt 1 view .LVU628
 385:lvgl/lvgl/src/hal/lv_hal_disp.c **** }
 2203              		.loc 1 385 16 is_stmt 0 view .LVU629
 2204 0006 0448     		ldr	r0, .L133
ARM GAS  C:\Users\gx\AppData\Local\Temp\ccdv9jmC.s 			page 73


 2205              	.LVL214:
 385:lvgl/lvgl/src/hal/lv_hal_disp.c **** }
 2206              		.loc 1 385 16 view .LVU630
 2207 0008 FFF7FEFF 		bl	_lv_ll_get_next
 2208              	.LVL215:
 2209              	.L128:
 386:lvgl/lvgl/src/hal/lv_hal_disp.c **** 
 2210              		.loc 1 386 1 view .LVU631
 2211 000c 08BD     		pop	{r3, pc}
 2212              	.LVL216:
 2213              	.L132:
 383:lvgl/lvgl/src/hal/lv_hal_disp.c ****     else
 2214              		.loc 1 383 9 is_stmt 1 view .LVU632
 383:lvgl/lvgl/src/hal/lv_hal_disp.c ****     else
 2215              		.loc 1 383 16 is_stmt 0 view .LVU633
 2216 000e 0248     		ldr	r0, .L133
 2217              	.LVL217:
 383:lvgl/lvgl/src/hal/lv_hal_disp.c ****     else
 2218              		.loc 1 383 16 view .LVU634
 2219 0010 FFF7FEFF 		bl	_lv_ll_get_head
 2220              	.LVL218:
 2221 0014 FAE7     		b	.L128
 2222              	.L134:
 2223 0016 00BF     		.align	2
 2224              	.L133:
 2225 0018 00000000 		.word	_lv_disp_ll
 2226              		.cfi_endproc
 2227              	.LFE165:
 2229              		.section	.text.lv_disp_get_draw_buf,"ax",%progbits
 2230              		.align	1
 2231              		.global	lv_disp_get_draw_buf
 2232              		.syntax unified
 2233              		.thumb
 2234              		.thumb_func
 2235              		.fpu fpv4-sp-d16
 2237              	lv_disp_get_draw_buf:
 2238              	.LVL219:
 2239              	.LFB166:
 394:lvgl/lvgl/src/hal/lv_hal_disp.c ****     return disp->driver->draw_buf;
 2240              		.loc 1 394 1 is_stmt 1 view -0
 2241              		.cfi_startproc
 2242              		@ args = 0, pretend = 0, frame = 0
 2243              		@ frame_needed = 0, uses_anonymous_args = 0
 2244              		@ link register save eliminated.
 395:lvgl/lvgl/src/hal/lv_hal_disp.c **** }
 2245              		.loc 1 395 5 view .LVU636
 395:lvgl/lvgl/src/hal/lv_hal_disp.c **** }
 2246              		.loc 1 395 16 is_stmt 0 view .LVU637
 2247 0000 0368     		ldr	r3, [r0]
 396:lvgl/lvgl/src/hal/lv_hal_disp.c **** 
 2248              		.loc 1 396 1 view .LVU638
 2249 0002 5868     		ldr	r0, [r3, #4]
 2250              	.LVL220:
 396:lvgl/lvgl/src/hal/lv_hal_disp.c **** 
 2251              		.loc 1 396 1 view .LVU639
 2252 0004 7047     		bx	lr
 2253              		.cfi_endproc
ARM GAS  C:\Users\gx\AppData\Local\Temp\ccdv9jmC.s 			page 74


 2254              	.LFE166:
 2256              		.section	.text.lv_disp_set_rotation,"ax",%progbits
 2257              		.align	1
 2258              		.global	lv_disp_set_rotation
 2259              		.syntax unified
 2260              		.thumb
 2261              		.thumb_func
 2262              		.fpu fpv4-sp-d16
 2264              	lv_disp_set_rotation:
 2265              	.LVL221:
 2266              	.LFB167:
 404:lvgl/lvgl/src/hal/lv_hal_disp.c ****     if(disp == NULL) disp = lv_disp_get_default();
 2267              		.loc 1 404 1 is_stmt 1 view -0
 2268              		.cfi_startproc
 2269              		@ args = 0, pretend = 0, frame = 0
 2270              		@ frame_needed = 0, uses_anonymous_args = 0
 404:lvgl/lvgl/src/hal/lv_hal_disp.c ****     if(disp == NULL) disp = lv_disp_get_default();
 2271              		.loc 1 404 1 is_stmt 0 view .LVU641
 2272 0000 10B5     		push	{r4, lr}
 2273              	.LCFI37:
 2274              		.cfi_def_cfa_offset 8
 2275              		.cfi_offset 4, -8
 2276              		.cfi_offset 14, -4
 2277 0002 0C46     		mov	r4, r1
 405:lvgl/lvgl/src/hal/lv_hal_disp.c ****     if(disp == NULL) return;
 2278              		.loc 1 405 5 is_stmt 1 view .LVU642
 405:lvgl/lvgl/src/hal/lv_hal_disp.c ****     if(disp == NULL) return;
 2279              		.loc 1 405 7 is_stmt 0 view .LVU643
 2280 0004 0346     		mov	r3, r0
 2281 0006 50B1     		cbz	r0, .L140
 2282              	.LVL222:
 2283              	.L137:
 406:lvgl/lvgl/src/hal/lv_hal_disp.c **** 
 2284              		.loc 1 406 5 is_stmt 1 view .LVU644
 406:lvgl/lvgl/src/hal/lv_hal_disp.c **** 
 2285              		.loc 1 406 7 is_stmt 0 view .LVU645
 2286 0008 43B1     		cbz	r3, .L136
 408:lvgl/lvgl/src/hal/lv_hal_disp.c ****     lv_disp_drv_update(disp, disp->driver);
