ARM GAS  C:\Users\gx\AppData\Local\Temp\ccszQoK7.s 			page 1


   1              		.cpu cortex-m4
   2              		.eabi_attribute 27, 1
   3              		.eabi_attribute 28, 1
   4              		.eabi_attribute 20, 1
   5              		.eabi_attribute 21, 1
   6              		.eabi_attribute 23, 3
   7              		.eabi_attribute 24, 1
   8              		.eabi_attribute 25, 1
   9              		.eabi_attribute 26, 1
  10              		.eabi_attribute 30, 1
  11              		.eabi_attribute 34, 1
  12              		.eabi_attribute 18, 4
  13              		.file	"lv_indev.c"
  14              		.text
  15              	.Ltext0:
  16              		.cfi_sections	.debug_frame
  17              		.section	.text.indev_proc_reset_query_handler,"ax",%progbits
  18              		.align	1
  19              		.arch armv7e-m
  20              		.syntax unified
  21              		.thumb
  22              		.thumb_func
  23              		.fpu fpv4-sp-d16
  25              	indev_proc_reset_query_handler:
  26              	.LVL0:
  27              	.LFB183:
  28              		.file 1 "lvgl/lvgl/src/core/lv_indev.c"
   1:lvgl/lvgl/src/core/lv_indev.c **** /**
   2:lvgl/lvgl/src/core/lv_indev.c ****  * @file lv_indev.c
   3:lvgl/lvgl/src/core/lv_indev.c ****  *
   4:lvgl/lvgl/src/core/lv_indev.c ****  */
   5:lvgl/lvgl/src/core/lv_indev.c **** 
   6:lvgl/lvgl/src/core/lv_indev.c **** /*********************
   7:lvgl/lvgl/src/core/lv_indev.c ****  *      INCLUDES
   8:lvgl/lvgl/src/core/lv_indev.c ****  ********************/
   9:lvgl/lvgl/src/core/lv_indev.c **** #include "lv_indev.h"
  10:lvgl/lvgl/src/core/lv_indev.c **** #include "lv_disp.h"
  11:lvgl/lvgl/src/core/lv_indev.c **** #include "lv_obj.h"
  12:lvgl/lvgl/src/core/lv_indev.c **** #include "lv_indev_scroll.h"
  13:lvgl/lvgl/src/core/lv_indev.c **** #include "lv_group.h"
  14:lvgl/lvgl/src/core/lv_indev.c **** #include "lv_refr.h"
  15:lvgl/lvgl/src/core/lv_indev.c **** 
  16:lvgl/lvgl/src/core/lv_indev.c **** #include "../hal/lv_hal_tick.h"
  17:lvgl/lvgl/src/core/lv_indev.c **** #include "../misc/lv_timer.h"
  18:lvgl/lvgl/src/core/lv_indev.c **** #include "../misc/lv_math.h"
  19:lvgl/lvgl/src/core/lv_indev.c **** 
  20:lvgl/lvgl/src/core/lv_indev.c **** /*********************
  21:lvgl/lvgl/src/core/lv_indev.c ****  *      DEFINES
  22:lvgl/lvgl/src/core/lv_indev.c ****  *********************/
  23:lvgl/lvgl/src/core/lv_indev.c **** #if LV_INDEV_DEF_SCROLL_THROW <= 0
  24:lvgl/lvgl/src/core/lv_indev.c ****     #warning "LV_INDEV_DRAG_THROW must be greater than 0"
  25:lvgl/lvgl/src/core/lv_indev.c **** #endif
  26:lvgl/lvgl/src/core/lv_indev.c **** 
  27:lvgl/lvgl/src/core/lv_indev.c **** /**********************
  28:lvgl/lvgl/src/core/lv_indev.c ****  *      TYPEDEFS
  29:lvgl/lvgl/src/core/lv_indev.c ****  **********************/
  30:lvgl/lvgl/src/core/lv_indev.c **** 
ARM GAS  C:\Users\gx\AppData\Local\Temp\ccszQoK7.s 			page 2


  31:lvgl/lvgl/src/core/lv_indev.c **** /**********************
  32:lvgl/lvgl/src/core/lv_indev.c ****  *  STATIC PROTOTYPES
  33:lvgl/lvgl/src/core/lv_indev.c ****  **********************/
  34:lvgl/lvgl/src/core/lv_indev.c **** static void indev_pointer_proc(lv_indev_t * i, lv_indev_data_t * data);
  35:lvgl/lvgl/src/core/lv_indev.c **** static void indev_keypad_proc(lv_indev_t * i, lv_indev_data_t * data);
  36:lvgl/lvgl/src/core/lv_indev.c **** static void indev_encoder_proc(lv_indev_t * i, lv_indev_data_t * data);
  37:lvgl/lvgl/src/core/lv_indev.c **** static void indev_button_proc(lv_indev_t * i, lv_indev_data_t * data);
  38:lvgl/lvgl/src/core/lv_indev.c **** static void indev_proc_press(_lv_indev_proc_t * proc);
  39:lvgl/lvgl/src/core/lv_indev.c **** static void indev_proc_release(_lv_indev_proc_t * proc);
  40:lvgl/lvgl/src/core/lv_indev.c **** static void indev_proc_reset_query_handler(lv_indev_t * indev);
  41:lvgl/lvgl/src/core/lv_indev.c **** static void indev_click_focus(_lv_indev_proc_t * proc);
  42:lvgl/lvgl/src/core/lv_indev.c **** static void indev_gesture(_lv_indev_proc_t * proc);
  43:lvgl/lvgl/src/core/lv_indev.c **** static bool indev_reset_check(_lv_indev_proc_t * proc);
  44:lvgl/lvgl/src/core/lv_indev.c **** 
  45:lvgl/lvgl/src/core/lv_indev.c **** /**********************
  46:lvgl/lvgl/src/core/lv_indev.c ****  *  STATIC VARIABLES
  47:lvgl/lvgl/src/core/lv_indev.c ****  **********************/
  48:lvgl/lvgl/src/core/lv_indev.c **** static lv_indev_t * indev_act;
  49:lvgl/lvgl/src/core/lv_indev.c **** static lv_obj_t * indev_obj_act = NULL;
  50:lvgl/lvgl/src/core/lv_indev.c **** 
  51:lvgl/lvgl/src/core/lv_indev.c **** /**********************
  52:lvgl/lvgl/src/core/lv_indev.c ****  *      MACROS
  53:lvgl/lvgl/src/core/lv_indev.c ****  **********************/
  54:lvgl/lvgl/src/core/lv_indev.c **** #if LV_LOG_TRACE_INDEV
  55:lvgl/lvgl/src/core/lv_indev.c **** #  define INDEV_TRACE(...) LV_LOG_TRACE( __VA_ARGS__)
  56:lvgl/lvgl/src/core/lv_indev.c **** #else
  57:lvgl/lvgl/src/core/lv_indev.c **** #  define INDEV_TRACE(...)
  58:lvgl/lvgl/src/core/lv_indev.c **** #endif
  59:lvgl/lvgl/src/core/lv_indev.c **** 
  60:lvgl/lvgl/src/core/lv_indev.c **** /**********************
  61:lvgl/lvgl/src/core/lv_indev.c ****  *   GLOBAL FUNCTIONS
  62:lvgl/lvgl/src/core/lv_indev.c ****  **********************/
  63:lvgl/lvgl/src/core/lv_indev.c **** 
  64:lvgl/lvgl/src/core/lv_indev.c **** void lv_indev_read_timer_cb(lv_timer_t * timer)
  65:lvgl/lvgl/src/core/lv_indev.c **** {
  66:lvgl/lvgl/src/core/lv_indev.c ****     INDEV_TRACE("begin");
  67:lvgl/lvgl/src/core/lv_indev.c **** 
  68:lvgl/lvgl/src/core/lv_indev.c ****     lv_indev_data_t data;
  69:lvgl/lvgl/src/core/lv_indev.c **** 
  70:lvgl/lvgl/src/core/lv_indev.c ****     indev_act = timer->user_data;
  71:lvgl/lvgl/src/core/lv_indev.c **** 
  72:lvgl/lvgl/src/core/lv_indev.c ****     /*Read and process all indevs*/
  73:lvgl/lvgl/src/core/lv_indev.c ****     if(indev_act->driver->disp == NULL) return; /*Not assigned to any displays*/
  74:lvgl/lvgl/src/core/lv_indev.c **** 
  75:lvgl/lvgl/src/core/lv_indev.c ****     /*Handle reset query before processing the point*/
  76:lvgl/lvgl/src/core/lv_indev.c ****     indev_proc_reset_query_handler(indev_act);
  77:lvgl/lvgl/src/core/lv_indev.c **** 
  78:lvgl/lvgl/src/core/lv_indev.c ****     if(indev_act->proc.disabled) return;
  79:lvgl/lvgl/src/core/lv_indev.c ****     bool continue_reading;
  80:lvgl/lvgl/src/core/lv_indev.c ****     do {
  81:lvgl/lvgl/src/core/lv_indev.c ****         /*Read the data*/
  82:lvgl/lvgl/src/core/lv_indev.c ****         _lv_indev_read(indev_act, &data);
  83:lvgl/lvgl/src/core/lv_indev.c ****         continue_reading = data.continue_reading;
  84:lvgl/lvgl/src/core/lv_indev.c **** 
  85:lvgl/lvgl/src/core/lv_indev.c ****         /*The active object might deleted even in the read function*/
  86:lvgl/lvgl/src/core/lv_indev.c ****         indev_proc_reset_query_handler(indev_act);
  87:lvgl/lvgl/src/core/lv_indev.c ****         indev_obj_act = NULL;
ARM GAS  C:\Users\gx\AppData\Local\Temp\ccszQoK7.s 			page 3


  88:lvgl/lvgl/src/core/lv_indev.c **** 
  89:lvgl/lvgl/src/core/lv_indev.c ****         indev_act->proc.state = data.state;
  90:lvgl/lvgl/src/core/lv_indev.c **** 
  91:lvgl/lvgl/src/core/lv_indev.c ****         /*Save the last activity time*/
  92:lvgl/lvgl/src/core/lv_indev.c ****         if(indev_act->proc.state == LV_INDEV_STATE_PRESSED) {
  93:lvgl/lvgl/src/core/lv_indev.c ****             indev_act->driver->disp->last_activity_time = lv_tick_get();
  94:lvgl/lvgl/src/core/lv_indev.c ****         }
  95:lvgl/lvgl/src/core/lv_indev.c ****         else if(indev_act->driver->type == LV_INDEV_TYPE_ENCODER && data.enc_diff) {
  96:lvgl/lvgl/src/core/lv_indev.c ****             indev_act->driver->disp->last_activity_time = lv_tick_get();
  97:lvgl/lvgl/src/core/lv_indev.c ****         }
  98:lvgl/lvgl/src/core/lv_indev.c **** 
  99:lvgl/lvgl/src/core/lv_indev.c ****         if(indev_act->driver->type == LV_INDEV_TYPE_POINTER) {
 100:lvgl/lvgl/src/core/lv_indev.c ****             indev_pointer_proc(indev_act, &data);
 101:lvgl/lvgl/src/core/lv_indev.c ****         }
 102:lvgl/lvgl/src/core/lv_indev.c ****         else if(indev_act->driver->type == LV_INDEV_TYPE_KEYPAD) {
 103:lvgl/lvgl/src/core/lv_indev.c ****             indev_keypad_proc(indev_act, &data);
 104:lvgl/lvgl/src/core/lv_indev.c ****         }
 105:lvgl/lvgl/src/core/lv_indev.c ****         else if(indev_act->driver->type == LV_INDEV_TYPE_ENCODER) {
 106:lvgl/lvgl/src/core/lv_indev.c ****             indev_encoder_proc(indev_act, &data);
 107:lvgl/lvgl/src/core/lv_indev.c ****         }
 108:lvgl/lvgl/src/core/lv_indev.c ****         else if(indev_act->driver->type == LV_INDEV_TYPE_BUTTON) {
 109:lvgl/lvgl/src/core/lv_indev.c ****             indev_button_proc(indev_act, &data);
 110:lvgl/lvgl/src/core/lv_indev.c ****         }
 111:lvgl/lvgl/src/core/lv_indev.c ****         /*Handle reset query if it happened in during processing*/
 112:lvgl/lvgl/src/core/lv_indev.c ****         indev_proc_reset_query_handler(indev_act);
 113:lvgl/lvgl/src/core/lv_indev.c ****     } while(continue_reading);
 114:lvgl/lvgl/src/core/lv_indev.c **** 
 115:lvgl/lvgl/src/core/lv_indev.c ****     /*End of indev processing, so no act indev*/
 116:lvgl/lvgl/src/core/lv_indev.c ****     indev_act     = NULL;
 117:lvgl/lvgl/src/core/lv_indev.c ****     indev_obj_act = NULL;
 118:lvgl/lvgl/src/core/lv_indev.c **** 
 119:lvgl/lvgl/src/core/lv_indev.c ****     INDEV_TRACE("finished");
 120:lvgl/lvgl/src/core/lv_indev.c **** }
 121:lvgl/lvgl/src/core/lv_indev.c **** 
 122:lvgl/lvgl/src/core/lv_indev.c **** void lv_indev_enable(lv_indev_t * indev, bool en)
 123:lvgl/lvgl/src/core/lv_indev.c **** {
 124:lvgl/lvgl/src/core/lv_indev.c ****     if(!indev) return;
 125:lvgl/lvgl/src/core/lv_indev.c **** 
 126:lvgl/lvgl/src/core/lv_indev.c ****     indev->proc.disabled = en ? 0 : 1;
 127:lvgl/lvgl/src/core/lv_indev.c **** }
 128:lvgl/lvgl/src/core/lv_indev.c **** 
 129:lvgl/lvgl/src/core/lv_indev.c **** lv_indev_t * lv_indev_get_act(void)
 130:lvgl/lvgl/src/core/lv_indev.c **** {
 131:lvgl/lvgl/src/core/lv_indev.c ****     return indev_act;
 132:lvgl/lvgl/src/core/lv_indev.c **** }
 133:lvgl/lvgl/src/core/lv_indev.c **** 
 134:lvgl/lvgl/src/core/lv_indev.c **** lv_indev_type_t lv_indev_get_type(const lv_indev_t * indev)
 135:lvgl/lvgl/src/core/lv_indev.c **** {
 136:lvgl/lvgl/src/core/lv_indev.c ****     if(indev == NULL) return LV_INDEV_TYPE_NONE;
 137:lvgl/lvgl/src/core/lv_indev.c **** 
 138:lvgl/lvgl/src/core/lv_indev.c ****     return indev->driver->type;
 139:lvgl/lvgl/src/core/lv_indev.c **** }
 140:lvgl/lvgl/src/core/lv_indev.c **** 
 141:lvgl/lvgl/src/core/lv_indev.c **** void lv_indev_reset(lv_indev_t * indev, lv_obj_t * obj)
 142:lvgl/lvgl/src/core/lv_indev.c **** {
 143:lvgl/lvgl/src/core/lv_indev.c ****     if(indev) {
 144:lvgl/lvgl/src/core/lv_indev.c ****         indev->proc.reset_query = 1;
ARM GAS  C:\Users\gx\AppData\Local\Temp\ccszQoK7.s 			page 4


 145:lvgl/lvgl/src/core/lv_indev.c ****         if(indev_act == indev) indev_obj_act = NULL;
 146:lvgl/lvgl/src/core/lv_indev.c ****         if(obj == NULL || indev->proc.types.pointer.last_pressed == obj) {
 147:lvgl/lvgl/src/core/lv_indev.c ****             indev->proc.types.pointer.last_pressed = NULL;
 148:lvgl/lvgl/src/core/lv_indev.c ****         }
 149:lvgl/lvgl/src/core/lv_indev.c ****         if(obj == NULL || indev->proc.types.pointer.act_obj == obj) {
 150:lvgl/lvgl/src/core/lv_indev.c ****             indev->proc.types.pointer.act_obj = NULL;
 151:lvgl/lvgl/src/core/lv_indev.c ****         }
 152:lvgl/lvgl/src/core/lv_indev.c ****         if(obj == NULL || indev->proc.types.pointer.last_obj == obj) {
 153:lvgl/lvgl/src/core/lv_indev.c ****             indev->proc.types.pointer.last_obj = NULL;
 154:lvgl/lvgl/src/core/lv_indev.c ****         }
 155:lvgl/lvgl/src/core/lv_indev.c ****     }
 156:lvgl/lvgl/src/core/lv_indev.c ****     else {
 157:lvgl/lvgl/src/core/lv_indev.c ****         lv_indev_t * i = lv_indev_get_next(NULL);
 158:lvgl/lvgl/src/core/lv_indev.c ****         while(i) {
 159:lvgl/lvgl/src/core/lv_indev.c ****             i->proc.reset_query = 1;
 160:lvgl/lvgl/src/core/lv_indev.c ****             if((i->driver->type == LV_INDEV_TYPE_POINTER || i->driver->type == LV_INDEV_TYPE_KEYPAD
 161:lvgl/lvgl/src/core/lv_indev.c ****                (obj == NULL || i->proc.types.pointer.last_pressed == obj)) {
 162:lvgl/lvgl/src/core/lv_indev.c ****                 i->proc.types.pointer.last_pressed = NULL;
 163:lvgl/lvgl/src/core/lv_indev.c ****             }
 164:lvgl/lvgl/src/core/lv_indev.c ****             if(obj == NULL || i->proc.types.pointer.act_obj == obj) {
 165:lvgl/lvgl/src/core/lv_indev.c ****                 i->proc.types.pointer.act_obj = NULL;
 166:lvgl/lvgl/src/core/lv_indev.c ****             }
 167:lvgl/lvgl/src/core/lv_indev.c ****             if(obj == NULL || i->proc.types.pointer.last_obj == obj) {
 168:lvgl/lvgl/src/core/lv_indev.c ****                 i->proc.types.pointer.last_obj = NULL;
 169:lvgl/lvgl/src/core/lv_indev.c ****             }
 170:lvgl/lvgl/src/core/lv_indev.c ****             i = lv_indev_get_next(i);
 171:lvgl/lvgl/src/core/lv_indev.c ****         }
 172:lvgl/lvgl/src/core/lv_indev.c ****         indev_obj_act = NULL;
 173:lvgl/lvgl/src/core/lv_indev.c ****     }
 174:lvgl/lvgl/src/core/lv_indev.c **** }
 175:lvgl/lvgl/src/core/lv_indev.c **** 
 176:lvgl/lvgl/src/core/lv_indev.c **** void lv_indev_reset_long_press(lv_indev_t * indev)
 177:lvgl/lvgl/src/core/lv_indev.c **** {
 178:lvgl/lvgl/src/core/lv_indev.c ****     indev->proc.long_pr_sent         = 0;
 179:lvgl/lvgl/src/core/lv_indev.c ****     indev->proc.longpr_rep_timestamp = lv_tick_get();
 180:lvgl/lvgl/src/core/lv_indev.c ****     indev->proc.pr_timestamp         = lv_tick_get();
 181:lvgl/lvgl/src/core/lv_indev.c **** }
 182:lvgl/lvgl/src/core/lv_indev.c **** 
 183:lvgl/lvgl/src/core/lv_indev.c **** void lv_indev_set_cursor(lv_indev_t * indev, lv_obj_t * cur_obj)
 184:lvgl/lvgl/src/core/lv_indev.c **** {
 185:lvgl/lvgl/src/core/lv_indev.c ****     if(indev->driver->type != LV_INDEV_TYPE_POINTER) return;
 186:lvgl/lvgl/src/core/lv_indev.c **** 
 187:lvgl/lvgl/src/core/lv_indev.c ****     indev->cursor = cur_obj;
 188:lvgl/lvgl/src/core/lv_indev.c ****     lv_obj_set_parent(indev->cursor, lv_disp_get_layer_sys(indev->driver->disp));
 189:lvgl/lvgl/src/core/lv_indev.c ****     lv_obj_set_pos(indev->cursor, indev->proc.types.pointer.act_point.x, indev->proc.types.pointer.
 190:lvgl/lvgl/src/core/lv_indev.c ****     lv_obj_clear_flag(indev->cursor, LV_OBJ_FLAG_CLICKABLE);
 191:lvgl/lvgl/src/core/lv_indev.c ****     lv_obj_add_flag(indev->cursor, LV_OBJ_FLAG_IGNORE_LAYOUT | LV_OBJ_FLAG_FLOATING);
 192:lvgl/lvgl/src/core/lv_indev.c **** }
 193:lvgl/lvgl/src/core/lv_indev.c **** 
 194:lvgl/lvgl/src/core/lv_indev.c **** void lv_indev_set_group(lv_indev_t * indev, lv_group_t * group)
 195:lvgl/lvgl/src/core/lv_indev.c **** {
 196:lvgl/lvgl/src/core/lv_indev.c ****     if(indev->driver->type == LV_INDEV_TYPE_KEYPAD || indev->driver->type == LV_INDEV_TYPE_ENCODER)
 197:lvgl/lvgl/src/core/lv_indev.c ****         indev->group = group;
 198:lvgl/lvgl/src/core/lv_indev.c ****     }
 199:lvgl/lvgl/src/core/lv_indev.c **** }
 200:lvgl/lvgl/src/core/lv_indev.c **** 
 201:lvgl/lvgl/src/core/lv_indev.c **** void lv_indev_set_button_points(lv_indev_t * indev, const lv_point_t points[])
ARM GAS  C:\Users\gx\AppData\Local\Temp\ccszQoK7.s 			page 5


 202:lvgl/lvgl/src/core/lv_indev.c **** {
 203:lvgl/lvgl/src/core/lv_indev.c ****     if(indev->driver->type == LV_INDEV_TYPE_BUTTON) {
 204:lvgl/lvgl/src/core/lv_indev.c ****         indev->btn_points = points;
 205:lvgl/lvgl/src/core/lv_indev.c ****     }
 206:lvgl/lvgl/src/core/lv_indev.c **** }
 207:lvgl/lvgl/src/core/lv_indev.c **** 
 208:lvgl/lvgl/src/core/lv_indev.c **** void lv_indev_get_point(const lv_indev_t * indev, lv_point_t * point)
 209:lvgl/lvgl/src/core/lv_indev.c **** {
 210:lvgl/lvgl/src/core/lv_indev.c ****     if(indev == NULL) {
 211:lvgl/lvgl/src/core/lv_indev.c ****         point->x = 0;
 212:lvgl/lvgl/src/core/lv_indev.c ****         point->y = 0;
 213:lvgl/lvgl/src/core/lv_indev.c ****         return;
 214:lvgl/lvgl/src/core/lv_indev.c ****     }
 215:lvgl/lvgl/src/core/lv_indev.c ****     if(indev->driver->type != LV_INDEV_TYPE_POINTER && indev->driver->type != LV_INDEV_TYPE_BUTTON)
 216:lvgl/lvgl/src/core/lv_indev.c ****         point->x = -1;
 217:lvgl/lvgl/src/core/lv_indev.c ****         point->y = -1;
 218:lvgl/lvgl/src/core/lv_indev.c ****     }
 219:lvgl/lvgl/src/core/lv_indev.c ****     else {
 220:lvgl/lvgl/src/core/lv_indev.c ****         point->x = indev->proc.types.pointer.act_point.x;
 221:lvgl/lvgl/src/core/lv_indev.c ****         point->y = indev->proc.types.pointer.act_point.y;
 222:lvgl/lvgl/src/core/lv_indev.c ****     }
 223:lvgl/lvgl/src/core/lv_indev.c **** }
 224:lvgl/lvgl/src/core/lv_indev.c **** 
 225:lvgl/lvgl/src/core/lv_indev.c **** lv_dir_t lv_indev_get_gesture_dir(const lv_indev_t * indev)
 226:lvgl/lvgl/src/core/lv_indev.c **** {
 227:lvgl/lvgl/src/core/lv_indev.c ****     return indev->proc.types.pointer.gesture_dir;
 228:lvgl/lvgl/src/core/lv_indev.c **** }
 229:lvgl/lvgl/src/core/lv_indev.c **** 
 230:lvgl/lvgl/src/core/lv_indev.c **** uint32_t lv_indev_get_key(const lv_indev_t * indev)
 231:lvgl/lvgl/src/core/lv_indev.c **** {
 232:lvgl/lvgl/src/core/lv_indev.c ****     if(indev->driver->type != LV_INDEV_TYPE_KEYPAD)
 233:lvgl/lvgl/src/core/lv_indev.c ****         return 0;
 234:lvgl/lvgl/src/core/lv_indev.c ****     else
 235:lvgl/lvgl/src/core/lv_indev.c ****         return indev->proc.types.keypad.last_key;
 236:lvgl/lvgl/src/core/lv_indev.c **** }
 237:lvgl/lvgl/src/core/lv_indev.c **** 
 238:lvgl/lvgl/src/core/lv_indev.c **** lv_dir_t lv_indev_get_scroll_dir(const lv_indev_t * indev)
 239:lvgl/lvgl/src/core/lv_indev.c **** {
 240:lvgl/lvgl/src/core/lv_indev.c ****     if(indev == NULL) return false;
 241:lvgl/lvgl/src/core/lv_indev.c ****     if(indev->driver->type != LV_INDEV_TYPE_POINTER && indev->driver->type != LV_INDEV_TYPE_BUTTON)
 242:lvgl/lvgl/src/core/lv_indev.c ****     return indev->proc.types.pointer.scroll_dir;
 243:lvgl/lvgl/src/core/lv_indev.c **** }
 244:lvgl/lvgl/src/core/lv_indev.c **** 
 245:lvgl/lvgl/src/core/lv_indev.c **** lv_obj_t * lv_indev_get_scroll_obj(const lv_indev_t * indev)
 246:lvgl/lvgl/src/core/lv_indev.c **** {
 247:lvgl/lvgl/src/core/lv_indev.c ****     if(indev == NULL) return NULL;
 248:lvgl/lvgl/src/core/lv_indev.c ****     if(indev->driver->type != LV_INDEV_TYPE_POINTER && indev->driver->type != LV_INDEV_TYPE_BUTTON)
 249:lvgl/lvgl/src/core/lv_indev.c ****     return indev->proc.types.pointer.scroll_obj;
 250:lvgl/lvgl/src/core/lv_indev.c **** }
 251:lvgl/lvgl/src/core/lv_indev.c **** 
 252:lvgl/lvgl/src/core/lv_indev.c **** void lv_indev_get_vect(const lv_indev_t * indev, lv_point_t * point)
 253:lvgl/lvgl/src/core/lv_indev.c **** {
 254:lvgl/lvgl/src/core/lv_indev.c ****     point->x = 0;
 255:lvgl/lvgl/src/core/lv_indev.c ****     point->y = 0;
 256:lvgl/lvgl/src/core/lv_indev.c **** 
 257:lvgl/lvgl/src/core/lv_indev.c ****     if(indev == NULL) return;
 258:lvgl/lvgl/src/core/lv_indev.c **** 
ARM GAS  C:\Users\gx\AppData\Local\Temp\ccszQoK7.s 			page 6


 259:lvgl/lvgl/src/core/lv_indev.c ****     if(indev->driver->type == LV_INDEV_TYPE_POINTER || indev->driver->type == LV_INDEV_TYPE_BUTTON)
 260:lvgl/lvgl/src/core/lv_indev.c ****         point->x = indev->proc.types.pointer.vect.x;
 261:lvgl/lvgl/src/core/lv_indev.c ****         point->y = indev->proc.types.pointer.vect.y;
 262:lvgl/lvgl/src/core/lv_indev.c ****     }
 263:lvgl/lvgl/src/core/lv_indev.c **** }
 264:lvgl/lvgl/src/core/lv_indev.c **** 
 265:lvgl/lvgl/src/core/lv_indev.c **** void lv_indev_wait_release(lv_indev_t * indev)
 266:lvgl/lvgl/src/core/lv_indev.c **** {
 267:lvgl/lvgl/src/core/lv_indev.c ****     if(indev == NULL)return;
 268:lvgl/lvgl/src/core/lv_indev.c ****     indev->proc.wait_until_release = 1;
 269:lvgl/lvgl/src/core/lv_indev.c **** }
 270:lvgl/lvgl/src/core/lv_indev.c **** 
 271:lvgl/lvgl/src/core/lv_indev.c **** lv_obj_t * lv_indev_get_obj_act(void)
 272:lvgl/lvgl/src/core/lv_indev.c **** {
 273:lvgl/lvgl/src/core/lv_indev.c ****     return indev_obj_act;
 274:lvgl/lvgl/src/core/lv_indev.c **** }
 275:lvgl/lvgl/src/core/lv_indev.c **** 
 276:lvgl/lvgl/src/core/lv_indev.c **** lv_timer_t * lv_indev_get_read_timer(lv_disp_t * indev)
 277:lvgl/lvgl/src/core/lv_indev.c **** {
 278:lvgl/lvgl/src/core/lv_indev.c ****     if(!indev) {
 279:lvgl/lvgl/src/core/lv_indev.c ****         LV_LOG_WARN("lv_indev_get_read_timer: indev was NULL");
 280:lvgl/lvgl/src/core/lv_indev.c ****         return NULL;
 281:lvgl/lvgl/src/core/lv_indev.c ****     }
 282:lvgl/lvgl/src/core/lv_indev.c **** 
 283:lvgl/lvgl/src/core/lv_indev.c ****     return indev->refr_timer;
 284:lvgl/lvgl/src/core/lv_indev.c **** }
 285:lvgl/lvgl/src/core/lv_indev.c **** 
 286:lvgl/lvgl/src/core/lv_indev.c **** lv_obj_t * lv_indev_search_obj(lv_obj_t * obj, lv_point_t * point)
 287:lvgl/lvgl/src/core/lv_indev.c **** {
 288:lvgl/lvgl/src/core/lv_indev.c ****     lv_obj_t * found_p = NULL;
 289:lvgl/lvgl/src/core/lv_indev.c **** 
 290:lvgl/lvgl/src/core/lv_indev.c ****     /*If the point is on this object check its children too*/
 291:lvgl/lvgl/src/core/lv_indev.c ****     if(lv_obj_hit_test(obj, point)) {
 292:lvgl/lvgl/src/core/lv_indev.c ****         int32_t i;
 293:lvgl/lvgl/src/core/lv_indev.c ****         uint32_t child_cnt = lv_obj_get_child_cnt(obj);
 294:lvgl/lvgl/src/core/lv_indev.c ****         for(i = child_cnt - 1; i >= 0; i--) {
 295:lvgl/lvgl/src/core/lv_indev.c ****             lv_obj_t * child = obj->spec_attr->children[i];
 296:lvgl/lvgl/src/core/lv_indev.c ****             found_p = lv_indev_search_obj(child, point);
 297:lvgl/lvgl/src/core/lv_indev.c **** 
 298:lvgl/lvgl/src/core/lv_indev.c ****             /*If a child was found then break*/
 299:lvgl/lvgl/src/core/lv_indev.c ****             if(found_p != NULL) break;
 300:lvgl/lvgl/src/core/lv_indev.c ****         }
 301:lvgl/lvgl/src/core/lv_indev.c **** 
 302:lvgl/lvgl/src/core/lv_indev.c ****         /*If then the children was not ok, and this obj is clickable
 303:lvgl/lvgl/src/core/lv_indev.c ****          * and it or its parent is not hidden then save this object*/
 304:lvgl/lvgl/src/core/lv_indev.c ****         if(found_p == NULL && lv_obj_has_flag(obj, LV_OBJ_FLAG_CLICKABLE)) {
 305:lvgl/lvgl/src/core/lv_indev.c ****             lv_obj_t * hidden_i = obj;
 306:lvgl/lvgl/src/core/lv_indev.c ****             while(hidden_i != NULL) {
 307:lvgl/lvgl/src/core/lv_indev.c ****                 if(lv_obj_has_flag(hidden_i, LV_OBJ_FLAG_HIDDEN) == true) break;
 308:lvgl/lvgl/src/core/lv_indev.c ****                 hidden_i = lv_obj_get_parent(hidden_i);
 309:lvgl/lvgl/src/core/lv_indev.c ****             }
 310:lvgl/lvgl/src/core/lv_indev.c ****             /*No parent found with hidden == true*/
 311:lvgl/lvgl/src/core/lv_indev.c ****             if(hidden_i == NULL && (lv_obj_get_state(obj) & LV_STATE_DISABLED) == false) found_p = 
 312:lvgl/lvgl/src/core/lv_indev.c ****         }
 313:lvgl/lvgl/src/core/lv_indev.c ****     }
 314:lvgl/lvgl/src/core/lv_indev.c **** 
 315:lvgl/lvgl/src/core/lv_indev.c ****     return found_p;
ARM GAS  C:\Users\gx\AppData\Local\Temp\ccszQoK7.s 			page 7


 316:lvgl/lvgl/src/core/lv_indev.c **** }
 317:lvgl/lvgl/src/core/lv_indev.c **** 
 318:lvgl/lvgl/src/core/lv_indev.c **** /**********************
 319:lvgl/lvgl/src/core/lv_indev.c ****  *   STATIC FUNCTIONS
 320:lvgl/lvgl/src/core/lv_indev.c ****  **********************/
 321:lvgl/lvgl/src/core/lv_indev.c **** 
 322:lvgl/lvgl/src/core/lv_indev.c **** /**
 323:lvgl/lvgl/src/core/lv_indev.c ****  * Process a new point from LV_INDEV_TYPE_POINTER input device
 324:lvgl/lvgl/src/core/lv_indev.c ****  * @param i pointer to an input device
 325:lvgl/lvgl/src/core/lv_indev.c ****  * @param data pointer to the data read from the input device
 326:lvgl/lvgl/src/core/lv_indev.c ****  */
 327:lvgl/lvgl/src/core/lv_indev.c **** static void indev_pointer_proc(lv_indev_t * i, lv_indev_data_t * data)
 328:lvgl/lvgl/src/core/lv_indev.c **** {
 329:lvgl/lvgl/src/core/lv_indev.c ****     lv_disp_t *disp = i->driver->disp;
 330:lvgl/lvgl/src/core/lv_indev.c ****     /*Save the raw points so they can be used again in _lv_indev_read*/
 331:lvgl/lvgl/src/core/lv_indev.c ****     i->proc.types.pointer.last_raw_point.x = data->point.x;
 332:lvgl/lvgl/src/core/lv_indev.c ****     i->proc.types.pointer.last_raw_point.y = data->point.y;
 333:lvgl/lvgl/src/core/lv_indev.c **** 
 334:lvgl/lvgl/src/core/lv_indev.c ****     if(disp->driver->rotated == LV_DISP_ROT_180 || disp->driver->rotated == LV_DISP_ROT_270) {
 335:lvgl/lvgl/src/core/lv_indev.c ****         data->point.x = disp->driver->hor_res - data->point.x - 1;
 336:lvgl/lvgl/src/core/lv_indev.c ****         data->point.y = disp->driver->ver_res - data->point.y - 1;
 337:lvgl/lvgl/src/core/lv_indev.c ****     }
 338:lvgl/lvgl/src/core/lv_indev.c ****     if(disp->driver->rotated == LV_DISP_ROT_90 || disp->driver->rotated == LV_DISP_ROT_270) {
 339:lvgl/lvgl/src/core/lv_indev.c ****         lv_coord_t tmp = data->point.y;
 340:lvgl/lvgl/src/core/lv_indev.c ****         data->point.y = data->point.x;
 341:lvgl/lvgl/src/core/lv_indev.c ****         data->point.x = disp->driver->ver_res - tmp - 1;
 342:lvgl/lvgl/src/core/lv_indev.c ****     }
 343:lvgl/lvgl/src/core/lv_indev.c **** 
 344:lvgl/lvgl/src/core/lv_indev.c ****     /*Simple sanity check*/
 345:lvgl/lvgl/src/core/lv_indev.c ****     if(data->point.x < 0) LV_LOG_WARN("X is %d which is smaller than zero", data->point.x);
 346:lvgl/lvgl/src/core/lv_indev.c ****     if(data->point.x >= lv_disp_get_hor_res(i->driver->disp)) LV_LOG_WARN("X is %d which is greater
 347:lvgl/lvgl/src/core/lv_indev.c ****     if(data->point.y < 0) LV_LOG_WARN("Y is %d which is smaller than zero", data->point.y);
 348:lvgl/lvgl/src/core/lv_indev.c ****     if(data->point.y >= lv_disp_get_ver_res(i->driver->disp)) LV_LOG_WARN("Y is %d which is greater
 349:lvgl/lvgl/src/core/lv_indev.c **** 
 350:lvgl/lvgl/src/core/lv_indev.c ****     /*Move the cursor if set and moved*/
 351:lvgl/lvgl/src/core/lv_indev.c ****     if(i->cursor != NULL &&
 352:lvgl/lvgl/src/core/lv_indev.c ****        (i->proc.types.pointer.last_point.x != data->point.x || i->proc.types.pointer.last_point.y !
 353:lvgl/lvgl/src/core/lv_indev.c ****         lv_obj_set_pos(i->cursor, data->point.x, data->point.y);
 354:lvgl/lvgl/src/core/lv_indev.c ****     }
 355:lvgl/lvgl/src/core/lv_indev.c **** 
 356:lvgl/lvgl/src/core/lv_indev.c ****     i->proc.types.pointer.act_point.x = data->point.x;
 357:lvgl/lvgl/src/core/lv_indev.c ****     i->proc.types.pointer.act_point.y = data->point.y;
 358:lvgl/lvgl/src/core/lv_indev.c **** 
 359:lvgl/lvgl/src/core/lv_indev.c ****     if(i->proc.state == LV_INDEV_STATE_PRESSED) {
 360:lvgl/lvgl/src/core/lv_indev.c ****         indev_proc_press(&i->proc);
 361:lvgl/lvgl/src/core/lv_indev.c ****     }
 362:lvgl/lvgl/src/core/lv_indev.c ****     else {
 363:lvgl/lvgl/src/core/lv_indev.c ****         indev_proc_release(&i->proc);
 364:lvgl/lvgl/src/core/lv_indev.c ****     }
 365:lvgl/lvgl/src/core/lv_indev.c **** 
 366:lvgl/lvgl/src/core/lv_indev.c ****     i->proc.types.pointer.last_point.x = i->proc.types.pointer.act_point.x;
 367:lvgl/lvgl/src/core/lv_indev.c ****     i->proc.types.pointer.last_point.y = i->proc.types.pointer.act_point.y;
 368:lvgl/lvgl/src/core/lv_indev.c **** }
 369:lvgl/lvgl/src/core/lv_indev.c **** 
 370:lvgl/lvgl/src/core/lv_indev.c **** /**
 371:lvgl/lvgl/src/core/lv_indev.c ****  * Process a new point from LV_INDEV_TYPE_KEYPAD input device
 372:lvgl/lvgl/src/core/lv_indev.c ****  * @param i pointer to an input device
ARM GAS  C:\Users\gx\AppData\Local\Temp\ccszQoK7.s 			page 8


 373:lvgl/lvgl/src/core/lv_indev.c ****  * @param data pointer to the data read from the input device
 374:lvgl/lvgl/src/core/lv_indev.c ****  */
 375:lvgl/lvgl/src/core/lv_indev.c **** static void indev_keypad_proc(lv_indev_t * i, lv_indev_data_t * data)
 376:lvgl/lvgl/src/core/lv_indev.c **** {
 377:lvgl/lvgl/src/core/lv_indev.c ****     if(data->state == LV_INDEV_STATE_PRESSED && i->proc.wait_until_release) return;
 378:lvgl/lvgl/src/core/lv_indev.c **** 
 379:lvgl/lvgl/src/core/lv_indev.c ****     if(i->proc.wait_until_release) {
 380:lvgl/lvgl/src/core/lv_indev.c ****         i->proc.wait_until_release      = 0;
 381:lvgl/lvgl/src/core/lv_indev.c ****         i->proc.pr_timestamp            = 0;
 382:lvgl/lvgl/src/core/lv_indev.c ****         i->proc.long_pr_sent            = 0;
 383:lvgl/lvgl/src/core/lv_indev.c ****         i->proc.types.keypad.last_state = LV_INDEV_STATE_RELEASED; /*To skip the processing of rele
 384:lvgl/lvgl/src/core/lv_indev.c ****     }
 385:lvgl/lvgl/src/core/lv_indev.c **** 
 386:lvgl/lvgl/src/core/lv_indev.c ****     lv_group_t * g = i->group;
 387:lvgl/lvgl/src/core/lv_indev.c ****     if(g == NULL) return;
 388:lvgl/lvgl/src/core/lv_indev.c **** 
 389:lvgl/lvgl/src/core/lv_indev.c ****     indev_obj_act = lv_group_get_focused(g);
 390:lvgl/lvgl/src/core/lv_indev.c ****     if(indev_obj_act == NULL) return;
 391:lvgl/lvgl/src/core/lv_indev.c **** 
 392:lvgl/lvgl/src/core/lv_indev.c ****     /*Save the last key to compare it with the current latter on RELEASE*/
 393:lvgl/lvgl/src/core/lv_indev.c ****     uint32_t prev_key = i->proc.types.keypad.last_key;
 394:lvgl/lvgl/src/core/lv_indev.c **** 
 395:lvgl/lvgl/src/core/lv_indev.c ****     /*Save the last key.
 396:lvgl/lvgl/src/core/lv_indev.c ****      *It must be done here else `lv_indev_get_key` will return the last key in events*/
 397:lvgl/lvgl/src/core/lv_indev.c ****     i->proc.types.keypad.last_key = data->key;
 398:lvgl/lvgl/src/core/lv_indev.c **** 
 399:lvgl/lvgl/src/core/lv_indev.c ****     /*Save the previous state so we can detect state changes below and also set the last state now
 400:lvgl/lvgl/src/core/lv_indev.c ****      *so if any event handler on the way returns `LV_RES_INV` the last state is remembered
 401:lvgl/lvgl/src/core/lv_indev.c ****      *for the next time*/
 402:lvgl/lvgl/src/core/lv_indev.c ****     uint32_t prev_state             = i->proc.types.keypad.last_state;
 403:lvgl/lvgl/src/core/lv_indev.c ****     i->proc.types.keypad.last_state = data->state;
 404:lvgl/lvgl/src/core/lv_indev.c **** 
 405:lvgl/lvgl/src/core/lv_indev.c ****     /*Key press happened*/
 406:lvgl/lvgl/src/core/lv_indev.c ****     if(data->state == LV_INDEV_STATE_PRESSED && prev_state == LV_INDEV_STATE_RELEASED) {
 407:lvgl/lvgl/src/core/lv_indev.c ****         LV_LOG_INFO("%d key is pressed", data->key);
 408:lvgl/lvgl/src/core/lv_indev.c ****         i->proc.pr_timestamp = lv_tick_get();
 409:lvgl/lvgl/src/core/lv_indev.c **** 
 410:lvgl/lvgl/src/core/lv_indev.c ****         /*Simulate a press on the object if ENTER was pressed*/
 411:lvgl/lvgl/src/core/lv_indev.c ****         if(data->key == LV_KEY_ENTER) {
 412:lvgl/lvgl/src/core/lv_indev.c ****             /*Send the ENTER as a normal KEY*/
 413:lvgl/lvgl/src/core/lv_indev.c ****             lv_group_send_data(g, LV_KEY_ENTER);
 414:lvgl/lvgl/src/core/lv_indev.c **** 
 415:lvgl/lvgl/src/core/lv_indev.c ****             lv_event_send(indev_obj_act, LV_EVENT_PRESSED, indev_act);
 416:lvgl/lvgl/src/core/lv_indev.c ****             if(indev_reset_check(&i->proc)) return;
 417:lvgl/lvgl/src/core/lv_indev.c ****         }
 418:lvgl/lvgl/src/core/lv_indev.c ****         else if(data->key == LV_KEY_ESC) {
 419:lvgl/lvgl/src/core/lv_indev.c ****             /*Send the ESC as a normal KEY*/
 420:lvgl/lvgl/src/core/lv_indev.c ****             lv_group_send_data(g, LV_KEY_ESC);
 421:lvgl/lvgl/src/core/lv_indev.c **** 
 422:lvgl/lvgl/src/core/lv_indev.c ****             lv_event_send(indev_obj_act, LV_EVENT_CANCEL, indev_act);
 423:lvgl/lvgl/src/core/lv_indev.c ****             if(indev_reset_check(&i->proc)) return;
 424:lvgl/lvgl/src/core/lv_indev.c ****         }
 425:lvgl/lvgl/src/core/lv_indev.c ****         /*Move the focus on NEXT*/
 426:lvgl/lvgl/src/core/lv_indev.c ****         else if(data->key == LV_KEY_NEXT) {
 427:lvgl/lvgl/src/core/lv_indev.c ****             lv_group_set_editing(g, false); /*Editing is not used by KEYPAD is be sure it is disabl
 428:lvgl/lvgl/src/core/lv_indev.c ****             lv_group_focus_next(g);
 429:lvgl/lvgl/src/core/lv_indev.c ****             if(indev_reset_check(&i->proc)) return;
ARM GAS  C:\Users\gx\AppData\Local\Temp\ccszQoK7.s 			page 9


 430:lvgl/lvgl/src/core/lv_indev.c ****         }
 431:lvgl/lvgl/src/core/lv_indev.c ****         /*Move the focus on PREV*/
 432:lvgl/lvgl/src/core/lv_indev.c ****         else if(data->key == LV_KEY_PREV) {
 433:lvgl/lvgl/src/core/lv_indev.c ****             lv_group_set_editing(g, false); /*Editing is not used by KEYPAD is be sure it is disabl
 434:lvgl/lvgl/src/core/lv_indev.c ****             lv_group_focus_prev(g);
 435:lvgl/lvgl/src/core/lv_indev.c ****             if(indev_reset_check(&i->proc)) return;
 436:lvgl/lvgl/src/core/lv_indev.c ****         }
 437:lvgl/lvgl/src/core/lv_indev.c ****         /*Just send other keys to the object (e.g. 'A' or `LV_GROUP_KEY_RIGHT`)*/
 438:lvgl/lvgl/src/core/lv_indev.c ****         else {
 439:lvgl/lvgl/src/core/lv_indev.c ****             lv_group_send_data(g, data->key);
 440:lvgl/lvgl/src/core/lv_indev.c ****         }
 441:lvgl/lvgl/src/core/lv_indev.c ****     }
 442:lvgl/lvgl/src/core/lv_indev.c ****     /*Pressing*/
 443:lvgl/lvgl/src/core/lv_indev.c ****     else if(data->state == LV_INDEV_STATE_PRESSED && prev_state == LV_INDEV_STATE_PRESSED) {
 444:lvgl/lvgl/src/core/lv_indev.c **** 
 445:lvgl/lvgl/src/core/lv_indev.c ****         if(data->key == LV_KEY_ENTER) {
 446:lvgl/lvgl/src/core/lv_indev.c ****             lv_event_send(indev_obj_act, LV_EVENT_PRESSING, indev_act);
 447:lvgl/lvgl/src/core/lv_indev.c ****             if(indev_reset_check(&i->proc)) return;
 448:lvgl/lvgl/src/core/lv_indev.c ****         }
 449:lvgl/lvgl/src/core/lv_indev.c **** 
 450:lvgl/lvgl/src/core/lv_indev.c ****         /*Long press time has elapsed?*/
 451:lvgl/lvgl/src/core/lv_indev.c ****         if(i->proc.long_pr_sent == 0 && lv_tick_elaps(i->proc.pr_timestamp) > i->driver->long_press
 452:lvgl/lvgl/src/core/lv_indev.c ****             i->proc.long_pr_sent = 1;
 453:lvgl/lvgl/src/core/lv_indev.c ****             if(data->key == LV_KEY_ENTER) {
 454:lvgl/lvgl/src/core/lv_indev.c ****                 i->proc.longpr_rep_timestamp = lv_tick_get();
 455:lvgl/lvgl/src/core/lv_indev.c ****                 lv_event_send(indev_obj_act, LV_EVENT_LONG_PRESSED, indev_act);
 456:lvgl/lvgl/src/core/lv_indev.c ****                 if(indev_reset_check(&i->proc)) return;
 457:lvgl/lvgl/src/core/lv_indev.c ****             }
 458:lvgl/lvgl/src/core/lv_indev.c ****         }
 459:lvgl/lvgl/src/core/lv_indev.c ****         /*Long press repeated time has elapsed?*/
 460:lvgl/lvgl/src/core/lv_indev.c ****         else if(i->proc.long_pr_sent != 0 &&
 461:lvgl/lvgl/src/core/lv_indev.c ****                 lv_tick_elaps(i->proc.longpr_rep_timestamp) > i->driver->long_press_repeat_time) {
 462:lvgl/lvgl/src/core/lv_indev.c **** 
 463:lvgl/lvgl/src/core/lv_indev.c ****             i->proc.longpr_rep_timestamp = lv_tick_get();
 464:lvgl/lvgl/src/core/lv_indev.c **** 
 465:lvgl/lvgl/src/core/lv_indev.c ****             /*Send LONG_PRESS_REP on ENTER*/
 466:lvgl/lvgl/src/core/lv_indev.c ****             if(data->key == LV_KEY_ENTER) {
 467:lvgl/lvgl/src/core/lv_indev.c ****                 lv_event_send(indev_obj_act, LV_EVENT_LONG_PRESSED_REPEAT, indev_act);
 468:lvgl/lvgl/src/core/lv_indev.c ****                 if(indev_reset_check(&i->proc)) return;
 469:lvgl/lvgl/src/core/lv_indev.c ****             }
 470:lvgl/lvgl/src/core/lv_indev.c ****             /*Move the focus on NEXT again*/
 471:lvgl/lvgl/src/core/lv_indev.c ****             else if(data->key == LV_KEY_NEXT) {
 472:lvgl/lvgl/src/core/lv_indev.c ****                 lv_group_set_editing(g, false); /*Editing is not used by KEYPAD is be sure it is di
 473:lvgl/lvgl/src/core/lv_indev.c ****                 lv_group_focus_next(g);
 474:lvgl/lvgl/src/core/lv_indev.c ****                 if(indev_reset_check(&i->proc)) return;
 475:lvgl/lvgl/src/core/lv_indev.c ****             }
 476:lvgl/lvgl/src/core/lv_indev.c ****             /*Move the focus on PREV again*/
 477:lvgl/lvgl/src/core/lv_indev.c ****             else if(data->key == LV_KEY_PREV) {
 478:lvgl/lvgl/src/core/lv_indev.c ****                 lv_group_set_editing(g, false); /*Editing is not used by KEYPAD is be sure it is di
 479:lvgl/lvgl/src/core/lv_indev.c ****                 lv_group_focus_prev(g);
 480:lvgl/lvgl/src/core/lv_indev.c ****                 if(indev_reset_check(&i->proc)) return;
 481:lvgl/lvgl/src/core/lv_indev.c ****             }
 482:lvgl/lvgl/src/core/lv_indev.c ****             /*Just send other keys again to the object (e.g. 'A' or `LV_GROUP_KEY_RIGHT)*/
 483:lvgl/lvgl/src/core/lv_indev.c ****             else {
 484:lvgl/lvgl/src/core/lv_indev.c ****                 lv_group_send_data(g, data->key);
 485:lvgl/lvgl/src/core/lv_indev.c ****                 if(indev_reset_check(&i->proc)) return;
 486:lvgl/lvgl/src/core/lv_indev.c ****             }
ARM GAS  C:\Users\gx\AppData\Local\Temp\ccszQoK7.s 			page 10


 487:lvgl/lvgl/src/core/lv_indev.c ****         }
 488:lvgl/lvgl/src/core/lv_indev.c ****     }
 489:lvgl/lvgl/src/core/lv_indev.c ****     /*Release happened*/
 490:lvgl/lvgl/src/core/lv_indev.c ****     else if(data->state == LV_INDEV_STATE_RELEASED && prev_state == LV_INDEV_STATE_PRESSED) {
 491:lvgl/lvgl/src/core/lv_indev.c ****         LV_LOG_INFO("%d key is released", data->key);
 492:lvgl/lvgl/src/core/lv_indev.c ****         /*The user might clear the key when it was released. Always release the pressed key*/
 493:lvgl/lvgl/src/core/lv_indev.c ****         data->key = prev_key;
 494:lvgl/lvgl/src/core/lv_indev.c ****         if(data->key == LV_KEY_ENTER) {
 495:lvgl/lvgl/src/core/lv_indev.c **** 
 496:lvgl/lvgl/src/core/lv_indev.c ****             lv_event_send(indev_obj_act, LV_EVENT_RELEASED, indev_act);
 497:lvgl/lvgl/src/core/lv_indev.c ****             if(indev_reset_check(&i->proc)) return;
 498:lvgl/lvgl/src/core/lv_indev.c **** 
 499:lvgl/lvgl/src/core/lv_indev.c ****             if(i->proc.long_pr_sent == 0) {
 500:lvgl/lvgl/src/core/lv_indev.c ****                 lv_event_send(indev_obj_act, LV_EVENT_SHORT_CLICKED, indev_act);
 501:lvgl/lvgl/src/core/lv_indev.c ****                 if(indev_reset_check(&i->proc)) return;
 502:lvgl/lvgl/src/core/lv_indev.c ****             }
 503:lvgl/lvgl/src/core/lv_indev.c **** 
 504:lvgl/lvgl/src/core/lv_indev.c ****             lv_event_send(indev_obj_act, LV_EVENT_CLICKED, indev_act);
 505:lvgl/lvgl/src/core/lv_indev.c ****             if(indev_reset_check(&i->proc)) return;
 506:lvgl/lvgl/src/core/lv_indev.c **** 
 507:lvgl/lvgl/src/core/lv_indev.c ****         }
 508:lvgl/lvgl/src/core/lv_indev.c ****         i->proc.pr_timestamp = 0;
 509:lvgl/lvgl/src/core/lv_indev.c ****         i->proc.long_pr_sent = 0;
 510:lvgl/lvgl/src/core/lv_indev.c ****     }
 511:lvgl/lvgl/src/core/lv_indev.c ****     indev_obj_act = NULL;
 512:lvgl/lvgl/src/core/lv_indev.c **** }
 513:lvgl/lvgl/src/core/lv_indev.c **** 
 514:lvgl/lvgl/src/core/lv_indev.c **** /**
 515:lvgl/lvgl/src/core/lv_indev.c ****  * Process a new point from LV_INDEV_TYPE_ENCODER input device
 516:lvgl/lvgl/src/core/lv_indev.c ****  * @param i pointer to an input device
 517:lvgl/lvgl/src/core/lv_indev.c ****  * @param data pointer to the data read from the input device
 518:lvgl/lvgl/src/core/lv_indev.c ****  */
 519:lvgl/lvgl/src/core/lv_indev.c **** static void indev_encoder_proc(lv_indev_t * i, lv_indev_data_t * data)
 520:lvgl/lvgl/src/core/lv_indev.c **** {
 521:lvgl/lvgl/src/core/lv_indev.c ****     if(data->state == LV_INDEV_STATE_PRESSED && i->proc.wait_until_release) return;
 522:lvgl/lvgl/src/core/lv_indev.c **** 
 523:lvgl/lvgl/src/core/lv_indev.c ****     if(i->proc.wait_until_release) {
 524:lvgl/lvgl/src/core/lv_indev.c ****         i->proc.wait_until_release      = 0;
 525:lvgl/lvgl/src/core/lv_indev.c ****         i->proc.pr_timestamp            = 0;
 526:lvgl/lvgl/src/core/lv_indev.c ****         i->proc.long_pr_sent            = 0;
 527:lvgl/lvgl/src/core/lv_indev.c ****         i->proc.types.keypad.last_state = LV_INDEV_STATE_RELEASED; /*To skip the processing of rele
 528:lvgl/lvgl/src/core/lv_indev.c ****     }
 529:lvgl/lvgl/src/core/lv_indev.c **** 
 530:lvgl/lvgl/src/core/lv_indev.c ****     /*Save the last keys before anything else.
 531:lvgl/lvgl/src/core/lv_indev.c ****      *They need to be already saved if the function returns for any reason*/
 532:lvgl/lvgl/src/core/lv_indev.c ****     lv_indev_state_t last_state     = i->proc.types.keypad.last_state;
 533:lvgl/lvgl/src/core/lv_indev.c ****     i->proc.types.keypad.last_state = data->state;
 534:lvgl/lvgl/src/core/lv_indev.c ****     i->proc.types.keypad.last_key   = data->key;
 535:lvgl/lvgl/src/core/lv_indev.c **** 
 536:lvgl/lvgl/src/core/lv_indev.c ****     lv_group_t * g = i->group;
 537:lvgl/lvgl/src/core/lv_indev.c ****     if(g == NULL) return;
 538:lvgl/lvgl/src/core/lv_indev.c **** 
 539:lvgl/lvgl/src/core/lv_indev.c ****     indev_obj_act = lv_group_get_focused(g);
 540:lvgl/lvgl/src/core/lv_indev.c ****     if(indev_obj_act == NULL) return;
 541:lvgl/lvgl/src/core/lv_indev.c **** 
 542:lvgl/lvgl/src/core/lv_indev.c ****     /*Process the steps they are valid only with released button*/
 543:lvgl/lvgl/src/core/lv_indev.c ****     if(data->state != LV_INDEV_STATE_RELEASED) {
ARM GAS  C:\Users\gx\AppData\Local\Temp\ccszQoK7.s 			page 11


 544:lvgl/lvgl/src/core/lv_indev.c ****         data->enc_diff = 0;
 545:lvgl/lvgl/src/core/lv_indev.c ****     }
 546:lvgl/lvgl/src/core/lv_indev.c **** 
 547:lvgl/lvgl/src/core/lv_indev.c ****     /*Refresh the focused object. It might change due to lv_group_focus_prev/next*/
 548:lvgl/lvgl/src/core/lv_indev.c ****     indev_obj_act = lv_group_get_focused(g);
 549:lvgl/lvgl/src/core/lv_indev.c ****     if(indev_obj_act == NULL) return;
 550:lvgl/lvgl/src/core/lv_indev.c **** 
 551:lvgl/lvgl/src/core/lv_indev.c ****     /*Button press happened*/
 552:lvgl/lvgl/src/core/lv_indev.c ****     if(data->state == LV_INDEV_STATE_PRESSED && last_state == LV_INDEV_STATE_RELEASED) {
 553:lvgl/lvgl/src/core/lv_indev.c ****         LV_LOG_INFO("pressed");
 554:lvgl/lvgl/src/core/lv_indev.c **** 
 555:lvgl/lvgl/src/core/lv_indev.c ****         i->proc.pr_timestamp = lv_tick_get();
 556:lvgl/lvgl/src/core/lv_indev.c **** 
 557:lvgl/lvgl/src/core/lv_indev.c ****         if(data->key == LV_KEY_ENTER) {
 558:lvgl/lvgl/src/core/lv_indev.c ****             bool editable_or_scrollable = lv_obj_is_editable(indev_obj_act) ||
 559:lvgl/lvgl/src/core/lv_indev.c ****                                           lv_obj_has_flag(indev_obj_act, LV_OBJ_FLAG_SCROLLABLE);
 560:lvgl/lvgl/src/core/lv_indev.c ****             if(lv_group_get_editing(g) == true || editable_or_scrollable == false) {
 561:lvgl/lvgl/src/core/lv_indev.c ****                 lv_event_send(indev_obj_act, LV_EVENT_PRESSED, indev_act);
 562:lvgl/lvgl/src/core/lv_indev.c ****                 if(indev_reset_check(&i->proc)) return;
 563:lvgl/lvgl/src/core/lv_indev.c ****             }
 564:lvgl/lvgl/src/core/lv_indev.c ****         }
 565:lvgl/lvgl/src/core/lv_indev.c ****         else if(data->key == LV_KEY_LEFT) {
 566:lvgl/lvgl/src/core/lv_indev.c ****             /*emulate encoder left*/
 567:lvgl/lvgl/src/core/lv_indev.c ****             data->enc_diff--;
 568:lvgl/lvgl/src/core/lv_indev.c ****         }
 569:lvgl/lvgl/src/core/lv_indev.c ****         else if(data->key == LV_KEY_RIGHT) {
 570:lvgl/lvgl/src/core/lv_indev.c ****             /*emulate encoder right*/
 571:lvgl/lvgl/src/core/lv_indev.c ****             data->enc_diff++;
 572:lvgl/lvgl/src/core/lv_indev.c ****         }
 573:lvgl/lvgl/src/core/lv_indev.c ****         else if(data->key == LV_KEY_ESC) {
 574:lvgl/lvgl/src/core/lv_indev.c ****             /*Send the ESC as a normal KEY*/
 575:lvgl/lvgl/src/core/lv_indev.c ****             lv_group_send_data(g, LV_KEY_ESC);
 576:lvgl/lvgl/src/core/lv_indev.c **** 
 577:lvgl/lvgl/src/core/lv_indev.c ****             lv_event_send(indev_obj_act, LV_EVENT_CANCEL, indev_act);
 578:lvgl/lvgl/src/core/lv_indev.c ****             if(indev_reset_check(&i->proc)) return;
 579:lvgl/lvgl/src/core/lv_indev.c ****         }
 580:lvgl/lvgl/src/core/lv_indev.c ****         /*Just send other keys to the object (e.g. 'A' or `LV_GROUP_KEY_RIGHT`)*/
 581:lvgl/lvgl/src/core/lv_indev.c ****         else {
 582:lvgl/lvgl/src/core/lv_indev.c ****             lv_group_send_data(g, data->key);
 583:lvgl/lvgl/src/core/lv_indev.c ****         }
 584:lvgl/lvgl/src/core/lv_indev.c ****     }
 585:lvgl/lvgl/src/core/lv_indev.c ****     /*Pressing*/
 586:lvgl/lvgl/src/core/lv_indev.c ****     else if(data->state == LV_INDEV_STATE_PRESSED && last_state == LV_INDEV_STATE_PRESSED) {
 587:lvgl/lvgl/src/core/lv_indev.c ****         /*Long press*/
 588:lvgl/lvgl/src/core/lv_indev.c ****         if(i->proc.long_pr_sent == 0 && lv_tick_elaps(i->proc.pr_timestamp) > i->driver->long_press
 589:lvgl/lvgl/src/core/lv_indev.c **** 
 590:lvgl/lvgl/src/core/lv_indev.c ****             i->proc.long_pr_sent = 1;
 591:lvgl/lvgl/src/core/lv_indev.c ****             i->proc.longpr_rep_timestamp = lv_tick_get();
 592:lvgl/lvgl/src/core/lv_indev.c **** 
 593:lvgl/lvgl/src/core/lv_indev.c ****             if(data->key == LV_KEY_ENTER) {
 594:lvgl/lvgl/src/core/lv_indev.c ****                 bool editable_or_scrollable = lv_obj_is_editable(indev_obj_act) ||
 595:lvgl/lvgl/src/core/lv_indev.c ****                                               lv_obj_has_flag(indev_obj_act, LV_OBJ_FLAG_SCROLLABLE
 596:lvgl/lvgl/src/core/lv_indev.c **** 
 597:lvgl/lvgl/src/core/lv_indev.c ****                 /*On enter long press toggle edit mode.*/
 598:lvgl/lvgl/src/core/lv_indev.c ****                 if(editable_or_scrollable) {
 599:lvgl/lvgl/src/core/lv_indev.c ****                     /*Don't leave edit mode if there is only one object (nowhere to navigate)*/
 600:lvgl/lvgl/src/core/lv_indev.c ****                     if(lv_group_get_obj_count(g) > 1) {
ARM GAS  C:\Users\gx\AppData\Local\Temp\ccszQoK7.s 			page 12


 601:lvgl/lvgl/src/core/lv_indev.c ****                         LV_LOG_INFO("toggling edit mode");
 602:lvgl/lvgl/src/core/lv_indev.c ****                         lv_group_set_editing(g, lv_group_get_editing(g) ? false : true); /*Toggle e
 603:lvgl/lvgl/src/core/lv_indev.c ****                         lv_obj_clear_state(indev_obj_act, LV_STATE_PRESSED);    /*Remove the presse
 604:lvgl/lvgl/src/core/lv_indev.c ****                     }
 605:lvgl/lvgl/src/core/lv_indev.c ****                 }
 606:lvgl/lvgl/src/core/lv_indev.c ****                 /*If not editable then just send a long press Call the ancestor's event handler*/
 607:lvgl/lvgl/src/core/lv_indev.c ****                 else {
 608:lvgl/lvgl/src/core/lv_indev.c ****                     lv_event_send(indev_obj_act, LV_EVENT_LONG_PRESSED, indev_act);
 609:lvgl/lvgl/src/core/lv_indev.c ****                     if(indev_reset_check(&i->proc)) return;
 610:lvgl/lvgl/src/core/lv_indev.c ****                 }
 611:lvgl/lvgl/src/core/lv_indev.c ****             }
 612:lvgl/lvgl/src/core/lv_indev.c **** 
 613:lvgl/lvgl/src/core/lv_indev.c ****             i->proc.long_pr_sent = 1;
 614:lvgl/lvgl/src/core/lv_indev.c ****         }
 615:lvgl/lvgl/src/core/lv_indev.c ****         /*Long press repeated time has elapsed?*/
 616:lvgl/lvgl/src/core/lv_indev.c ****         else if(i->proc.long_pr_sent != 0 && lv_tick_elaps(i->proc.longpr_rep_timestamp) > i->drive
 617:lvgl/lvgl/src/core/lv_indev.c **** 
 618:lvgl/lvgl/src/core/lv_indev.c ****             i->proc.longpr_rep_timestamp = lv_tick_get();
 619:lvgl/lvgl/src/core/lv_indev.c **** 
 620:lvgl/lvgl/src/core/lv_indev.c ****             if(data->key == LV_KEY_ENTER) {
 621:lvgl/lvgl/src/core/lv_indev.c ****                 lv_event_send(indev_obj_act, LV_EVENT_LONG_PRESSED_REPEAT, indev_act);
 622:lvgl/lvgl/src/core/lv_indev.c ****                 if(indev_reset_check(&i->proc)) return;
 623:lvgl/lvgl/src/core/lv_indev.c ****             }
 624:lvgl/lvgl/src/core/lv_indev.c ****             else if(data->key == LV_KEY_LEFT) {
 625:lvgl/lvgl/src/core/lv_indev.c ****                 /*emulate encoder left*/
 626:lvgl/lvgl/src/core/lv_indev.c ****                 data->enc_diff--;
 627:lvgl/lvgl/src/core/lv_indev.c ****             }
 628:lvgl/lvgl/src/core/lv_indev.c ****             else if(data->key == LV_KEY_RIGHT) {
 629:lvgl/lvgl/src/core/lv_indev.c ****                 /*emulate encoder right*/
 630:lvgl/lvgl/src/core/lv_indev.c ****                 data->enc_diff++;
 631:lvgl/lvgl/src/core/lv_indev.c ****             }
 632:lvgl/lvgl/src/core/lv_indev.c ****             else {
 633:lvgl/lvgl/src/core/lv_indev.c ****                 lv_group_send_data(g, data->key);
 634:lvgl/lvgl/src/core/lv_indev.c ****                 if(indev_reset_check(&i->proc)) return;
 635:lvgl/lvgl/src/core/lv_indev.c ****             }
 636:lvgl/lvgl/src/core/lv_indev.c **** 
 637:lvgl/lvgl/src/core/lv_indev.c ****         }
 638:lvgl/lvgl/src/core/lv_indev.c **** 
 639:lvgl/lvgl/src/core/lv_indev.c ****     }
 640:lvgl/lvgl/src/core/lv_indev.c ****     /*Release happened*/
 641:lvgl/lvgl/src/core/lv_indev.c ****     else if(data->state == LV_INDEV_STATE_RELEASED && last_state == LV_INDEV_STATE_PRESSED) {
 642:lvgl/lvgl/src/core/lv_indev.c ****         LV_LOG_INFO("released");
 643:lvgl/lvgl/src/core/lv_indev.c **** 
 644:lvgl/lvgl/src/core/lv_indev.c ****         if(data->key == LV_KEY_ENTER) {
 645:lvgl/lvgl/src/core/lv_indev.c ****             bool editable_or_scrollable = lv_obj_is_editable(indev_obj_act) ||
 646:lvgl/lvgl/src/core/lv_indev.c ****                                           lv_obj_has_flag(indev_obj_act, LV_OBJ_FLAG_SCROLLABLE);
 647:lvgl/lvgl/src/core/lv_indev.c **** 
 648:lvgl/lvgl/src/core/lv_indev.c ****             /*The button was released on a non-editable object. Just send enter*/
 649:lvgl/lvgl/src/core/lv_indev.c ****             if(editable_or_scrollable == false) {
 650:lvgl/lvgl/src/core/lv_indev.c ****                 lv_event_send(indev_obj_act, LV_EVENT_RELEASED, indev_act);
 651:lvgl/lvgl/src/core/lv_indev.c ****                 if(indev_reset_check(&i->proc)) return;
 652:lvgl/lvgl/src/core/lv_indev.c **** 
 653:lvgl/lvgl/src/core/lv_indev.c ****                 if(i->proc.long_pr_sent == 0) lv_event_send(indev_obj_act, LV_EVENT_SHORT_CLICKED, 
 654:lvgl/lvgl/src/core/lv_indev.c ****                 if(indev_reset_check(&i->proc)) return;
 655:lvgl/lvgl/src/core/lv_indev.c **** 
 656:lvgl/lvgl/src/core/lv_indev.c ****                 lv_event_send(indev_obj_act, LV_EVENT_CLICKED, indev_act);
 657:lvgl/lvgl/src/core/lv_indev.c ****                 if(indev_reset_check(&i->proc)) return;
ARM GAS  C:\Users\gx\AppData\Local\Temp\ccszQoK7.s 			page 13


 658:lvgl/lvgl/src/core/lv_indev.c **** 
 659:lvgl/lvgl/src/core/lv_indev.c ****             }
 660:lvgl/lvgl/src/core/lv_indev.c ****             /*An object is being edited and the button is released.*/
 661:lvgl/lvgl/src/core/lv_indev.c ****             else if(lv_group_get_editing(g)) {
 662:lvgl/lvgl/src/core/lv_indev.c ****                 /*Ignore long pressed enter release because it comes from mode switch*/
 663:lvgl/lvgl/src/core/lv_indev.c ****                 if(!i->proc.long_pr_sent || lv_group_get_obj_count(g) <= 1) {
 664:lvgl/lvgl/src/core/lv_indev.c ****                     lv_event_send(indev_obj_act, LV_EVENT_RELEASED, indev_act);
 665:lvgl/lvgl/src/core/lv_indev.c ****                     if(indev_reset_check(&i->proc)) return;
 666:lvgl/lvgl/src/core/lv_indev.c **** 
 667:lvgl/lvgl/src/core/lv_indev.c ****                     lv_event_send(indev_obj_act, LV_EVENT_SHORT_CLICKED, indev_act);
 668:lvgl/lvgl/src/core/lv_indev.c ****                     if(indev_reset_check(&i->proc)) return;
 669:lvgl/lvgl/src/core/lv_indev.c **** 
 670:lvgl/lvgl/src/core/lv_indev.c ****                     lv_event_send(indev_obj_act, LV_EVENT_CLICKED, indev_act);
 671:lvgl/lvgl/src/core/lv_indev.c ****                     if(indev_reset_check(&i->proc)) return;
 672:lvgl/lvgl/src/core/lv_indev.c **** 
 673:lvgl/lvgl/src/core/lv_indev.c **** 
 674:lvgl/lvgl/src/core/lv_indev.c ****                     lv_group_send_data(g, LV_KEY_ENTER);
 675:lvgl/lvgl/src/core/lv_indev.c ****                 } else {
 676:lvgl/lvgl/src/core/lv_indev.c ****                     lv_obj_clear_state(indev_obj_act, LV_STATE_PRESSED);    /*Remove the pressed st
 677:lvgl/lvgl/src/core/lv_indev.c ****                 }
 678:lvgl/lvgl/src/core/lv_indev.c ****             }
 679:lvgl/lvgl/src/core/lv_indev.c ****             /*If the focused object is editable and now in navigate mode then on enter switch edit
 680:lvgl/lvgl/src/core/lv_indev.c ****                mode*/
 681:lvgl/lvgl/src/core/lv_indev.c ****             else if(!i->proc.long_pr_sent) {
 682:lvgl/lvgl/src/core/lv_indev.c ****                 LV_LOG_INFO("entering edit mode");
 683:lvgl/lvgl/src/core/lv_indev.c ****                 lv_group_set_editing(g, true); /*Set edit mode*/
 684:lvgl/lvgl/src/core/lv_indev.c ****             }
 685:lvgl/lvgl/src/core/lv_indev.c ****         }
 686:lvgl/lvgl/src/core/lv_indev.c **** 
 687:lvgl/lvgl/src/core/lv_indev.c ****         i->proc.pr_timestamp = 0;
 688:lvgl/lvgl/src/core/lv_indev.c ****         i->proc.long_pr_sent = 0;
 689:lvgl/lvgl/src/core/lv_indev.c ****     }
 690:lvgl/lvgl/src/core/lv_indev.c ****     indev_obj_act = NULL;
 691:lvgl/lvgl/src/core/lv_indev.c **** 
 692:lvgl/lvgl/src/core/lv_indev.c ****     /*if encoder steps or simulated steps via left/right keys*/
 693:lvgl/lvgl/src/core/lv_indev.c ****     if(data->enc_diff != 0) {
 694:lvgl/lvgl/src/core/lv_indev.c ****         /*In edit mode send LEFT/RIGHT keys*/
 695:lvgl/lvgl/src/core/lv_indev.c ****         if(lv_group_get_editing(g)) {
 696:lvgl/lvgl/src/core/lv_indev.c ****             LV_LOG_INFO("rotated by %+d (edit)", data->enc_diff);
 697:lvgl/lvgl/src/core/lv_indev.c ****             int32_t s;
 698:lvgl/lvgl/src/core/lv_indev.c ****             if(data->enc_diff < 0) {
 699:lvgl/lvgl/src/core/lv_indev.c ****                 for(s = 0; s < -data->enc_diff; s++) lv_group_send_data(g, LV_KEY_LEFT);
 700:lvgl/lvgl/src/core/lv_indev.c ****             }
 701:lvgl/lvgl/src/core/lv_indev.c ****             else if(data->enc_diff > 0) {
 702:lvgl/lvgl/src/core/lv_indev.c ****                 for(s = 0; s < data->enc_diff; s++) lv_group_send_data(g, LV_KEY_RIGHT);
 703:lvgl/lvgl/src/core/lv_indev.c ****             }
 704:lvgl/lvgl/src/core/lv_indev.c ****         }
 705:lvgl/lvgl/src/core/lv_indev.c ****         /*In navigate mode focus on the next/prev objects*/
 706:lvgl/lvgl/src/core/lv_indev.c ****         else {
 707:lvgl/lvgl/src/core/lv_indev.c ****             LV_LOG_INFO("rotated by %+d (nav)", data->enc_diff);
 708:lvgl/lvgl/src/core/lv_indev.c ****             int32_t s;
 709:lvgl/lvgl/src/core/lv_indev.c ****             if(data->enc_diff < 0) {
 710:lvgl/lvgl/src/core/lv_indev.c ****                 for(s = 0; s < -data->enc_diff; s++) lv_group_focus_prev(g);
 711:lvgl/lvgl/src/core/lv_indev.c ****             }
 712:lvgl/lvgl/src/core/lv_indev.c ****             else if(data->enc_diff > 0) {
 713:lvgl/lvgl/src/core/lv_indev.c ****                 for(s = 0; s < data->enc_diff; s++) lv_group_focus_next(g);
 714:lvgl/lvgl/src/core/lv_indev.c ****             }
ARM GAS  C:\Users\gx\AppData\Local\Temp\ccszQoK7.s 			page 14


 715:lvgl/lvgl/src/core/lv_indev.c ****         }
 716:lvgl/lvgl/src/core/lv_indev.c ****     }
 717:lvgl/lvgl/src/core/lv_indev.c **** }
 718:lvgl/lvgl/src/core/lv_indev.c **** 
 719:lvgl/lvgl/src/core/lv_indev.c **** /**
 720:lvgl/lvgl/src/core/lv_indev.c ****  * Process new points from a input device. indev->state.pressed has to be set
 721:lvgl/lvgl/src/core/lv_indev.c ****  * @param indev pointer to an input device state
 722:lvgl/lvgl/src/core/lv_indev.c ****  * @param x x coordinate of the next point
 723:lvgl/lvgl/src/core/lv_indev.c ****  * @param y y coordinate of the next point
 724:lvgl/lvgl/src/core/lv_indev.c ****  */
 725:lvgl/lvgl/src/core/lv_indev.c **** static void indev_button_proc(lv_indev_t * i, lv_indev_data_t * data)
 726:lvgl/lvgl/src/core/lv_indev.c **** {
 727:lvgl/lvgl/src/core/lv_indev.c ****     /*Die gracefully if i->btn_points is NULL*/
 728:lvgl/lvgl/src/core/lv_indev.c ****     if(i->btn_points == NULL) {
 729:lvgl/lvgl/src/core/lv_indev.c ****         LV_LOG_WARN("btn_points is NULL");
 730:lvgl/lvgl/src/core/lv_indev.c ****         return;
 731:lvgl/lvgl/src/core/lv_indev.c ****     }
 732:lvgl/lvgl/src/core/lv_indev.c **** 
 733:lvgl/lvgl/src/core/lv_indev.c ****     lv_coord_t x = i->btn_points[data->btn_id].x;
 734:lvgl/lvgl/src/core/lv_indev.c ****     lv_coord_t y = i->btn_points[data->btn_id].y;
 735:lvgl/lvgl/src/core/lv_indev.c **** 
 736:lvgl/lvgl/src/core/lv_indev.c ****     static lv_indev_state_t prev_state = LV_INDEV_STATE_RELEASED;
 737:lvgl/lvgl/src/core/lv_indev.c ****     if(prev_state != data->state) {
 738:lvgl/lvgl/src/core/lv_indev.c ****         if(data->state == LV_INDEV_STATE_PRESSED) {
 739:lvgl/lvgl/src/core/lv_indev.c ****             LV_LOG_INFO("button %d is pressed (x:%d y:%d)", data->btn_id, x, y);
 740:lvgl/lvgl/src/core/lv_indev.c ****         }
 741:lvgl/lvgl/src/core/lv_indev.c ****         else {
 742:lvgl/lvgl/src/core/lv_indev.c ****             LV_LOG_INFO("button %d is released (x:%d y:%d)", data->btn_id, x, y);
 743:lvgl/lvgl/src/core/lv_indev.c ****         }
 744:lvgl/lvgl/src/core/lv_indev.c ****     }
 745:lvgl/lvgl/src/core/lv_indev.c **** 
 746:lvgl/lvgl/src/core/lv_indev.c ****     /*If a new point comes always make a release*/
 747:lvgl/lvgl/src/core/lv_indev.c ****     if(data->state == LV_INDEV_STATE_PRESSED) {
 748:lvgl/lvgl/src/core/lv_indev.c ****         if(i->proc.types.pointer.last_point.x != x ||
 749:lvgl/lvgl/src/core/lv_indev.c ****            i->proc.types.pointer.last_point.y != y) {
 750:lvgl/lvgl/src/core/lv_indev.c ****             indev_proc_release(&i->proc);
 751:lvgl/lvgl/src/core/lv_indev.c ****         }
 752:lvgl/lvgl/src/core/lv_indev.c ****     }
 753:lvgl/lvgl/src/core/lv_indev.c **** 
 754:lvgl/lvgl/src/core/lv_indev.c ****     if(indev_reset_check(&i->proc)) return;
 755:lvgl/lvgl/src/core/lv_indev.c **** 
 756:lvgl/lvgl/src/core/lv_indev.c ****     /*Save the new points*/
 757:lvgl/lvgl/src/core/lv_indev.c ****     i->proc.types.pointer.act_point.x = x;
 758:lvgl/lvgl/src/core/lv_indev.c ****     i->proc.types.pointer.act_point.y = y;
 759:lvgl/lvgl/src/core/lv_indev.c **** 
 760:lvgl/lvgl/src/core/lv_indev.c ****     if(data->state == LV_INDEV_STATE_PRESSED) indev_proc_press(&i->proc);
 761:lvgl/lvgl/src/core/lv_indev.c ****     else indev_proc_release(&i->proc);
 762:lvgl/lvgl/src/core/lv_indev.c **** 
 763:lvgl/lvgl/src/core/lv_indev.c ****     if(indev_reset_check(&i->proc)) return;
 764:lvgl/lvgl/src/core/lv_indev.c **** 
 765:lvgl/lvgl/src/core/lv_indev.c ****     i->proc.types.pointer.last_point.x = i->proc.types.pointer.act_point.x;
 766:lvgl/lvgl/src/core/lv_indev.c ****     i->proc.types.pointer.last_point.y = i->proc.types.pointer.act_point.y;
 767:lvgl/lvgl/src/core/lv_indev.c **** }
 768:lvgl/lvgl/src/core/lv_indev.c **** 
 769:lvgl/lvgl/src/core/lv_indev.c **** /**
 770:lvgl/lvgl/src/core/lv_indev.c ****  * Process the pressed state of LV_INDEV_TYPE_POINTER input devices
 771:lvgl/lvgl/src/core/lv_indev.c ****  * @param indev pointer to an input device 'proc'
ARM GAS  C:\Users\gx\AppData\Local\Temp\ccszQoK7.s 			page 15


 772:lvgl/lvgl/src/core/lv_indev.c ****  * @return LV_RES_OK: no indev reset required; LV_RES_INV: indev reset is required
 773:lvgl/lvgl/src/core/lv_indev.c ****  */
 774:lvgl/lvgl/src/core/lv_indev.c **** static void indev_proc_press(_lv_indev_proc_t * proc)
 775:lvgl/lvgl/src/core/lv_indev.c **** {
 776:lvgl/lvgl/src/core/lv_indev.c ****     LV_LOG_INFO("pressed at x:%d y:%d", proc->types.pointer.act_point.x, proc->types.pointer.act_po
 777:lvgl/lvgl/src/core/lv_indev.c ****     indev_obj_act = proc->types.pointer.act_obj;
 778:lvgl/lvgl/src/core/lv_indev.c **** 
 779:lvgl/lvgl/src/core/lv_indev.c ****     if(proc->wait_until_release != 0) return;
 780:lvgl/lvgl/src/core/lv_indev.c **** 
 781:lvgl/lvgl/src/core/lv_indev.c ****     lv_disp_t * disp = indev_act->driver->disp;
 782:lvgl/lvgl/src/core/lv_indev.c ****     bool new_obj_searched = false;
 783:lvgl/lvgl/src/core/lv_indev.c **** 
 784:lvgl/lvgl/src/core/lv_indev.c ****     /*If there is no last object then search*/
 785:lvgl/lvgl/src/core/lv_indev.c ****     if(indev_obj_act == NULL) {
 786:lvgl/lvgl/src/core/lv_indev.c ****         indev_obj_act = lv_indev_search_obj(lv_disp_get_layer_sys(disp), &proc->types.pointer.act_p
 787:lvgl/lvgl/src/core/lv_indev.c ****         if(indev_obj_act == NULL) indev_obj_act = lv_indev_search_obj(lv_disp_get_layer_top(disp),
 788:lvgl/lvgl/src/core/lv_indev.c ****                                                                           &proc->types.pointer.act_
 789:lvgl/lvgl/src/core/lv_indev.c ****         if(indev_obj_act == NULL) indev_obj_act = lv_indev_search_obj(lv_disp_get_scr_act(disp),
 790:lvgl/lvgl/src/core/lv_indev.c ****                                                                           &proc->types.pointer.act_
 791:lvgl/lvgl/src/core/lv_indev.c ****         new_obj_searched = true;
 792:lvgl/lvgl/src/core/lv_indev.c ****     }
 793:lvgl/lvgl/src/core/lv_indev.c ****     /*If there is last object but it is not scrolled and not protected also search*/
 794:lvgl/lvgl/src/core/lv_indev.c ****     else if(proc->types.pointer.scroll_obj == NULL &&
 795:lvgl/lvgl/src/core/lv_indev.c ****             lv_obj_has_flag(indev_obj_act, LV_OBJ_FLAG_PRESS_LOCK) == false) {
 796:lvgl/lvgl/src/core/lv_indev.c ****         indev_obj_act = lv_indev_search_obj(lv_disp_get_layer_sys(disp), &proc->types.pointer.act_p
 797:lvgl/lvgl/src/core/lv_indev.c ****         if(indev_obj_act == NULL) indev_obj_act = lv_indev_search_obj(lv_disp_get_layer_top(disp),
 798:lvgl/lvgl/src/core/lv_indev.c ****                                                                           &proc->types.pointer.act_
 799:lvgl/lvgl/src/core/lv_indev.c ****         if(indev_obj_act == NULL) indev_obj_act = lv_indev_search_obj(lv_disp_get_scr_act(disp),
 800:lvgl/lvgl/src/core/lv_indev.c ****                                                                           &proc->types.pointer.act_
 801:lvgl/lvgl/src/core/lv_indev.c ****         new_obj_searched = true;
 802:lvgl/lvgl/src/core/lv_indev.c ****     }
 803:lvgl/lvgl/src/core/lv_indev.c **** 
 804:lvgl/lvgl/src/core/lv_indev.c ****     /*The last object might have scroll throw. Stop it manually*/
 805:lvgl/lvgl/src/core/lv_indev.c ****     if(new_obj_searched && proc->types.pointer.last_obj) {
 806:lvgl/lvgl/src/core/lv_indev.c ****         proc->types.pointer.scroll_throw_vect.x = 0;
 807:lvgl/lvgl/src/core/lv_indev.c ****         proc->types.pointer.scroll_throw_vect.y = 0;
 808:lvgl/lvgl/src/core/lv_indev.c ****         _lv_indev_scroll_throw_handler(proc);
 809:lvgl/lvgl/src/core/lv_indev.c ****         if(indev_reset_check(proc)) return;
 810:lvgl/lvgl/src/core/lv_indev.c ****     }
 811:lvgl/lvgl/src/core/lv_indev.c **** 
 812:lvgl/lvgl/src/core/lv_indev.c ****     /*If a new object was found reset some variables and send a pressed Call the ancestor's event h
 813:lvgl/lvgl/src/core/lv_indev.c ****     if(indev_obj_act != proc->types.pointer.act_obj) {
 814:lvgl/lvgl/src/core/lv_indev.c ****         proc->types.pointer.last_point.x = proc->types.pointer.act_point.x;
 815:lvgl/lvgl/src/core/lv_indev.c ****         proc->types.pointer.last_point.y = proc->types.pointer.act_point.y;
 816:lvgl/lvgl/src/core/lv_indev.c **** 
 817:lvgl/lvgl/src/core/lv_indev.c ****         /*If a new object found the previous was lost, so send a Call the ancestor's event handler*
 818:lvgl/lvgl/src/core/lv_indev.c ****         if(proc->types.pointer.act_obj != NULL) {
 819:lvgl/lvgl/src/core/lv_indev.c ****             /*Save the obj because in special cases `act_obj` can change in the Call the ancestor's
 820:lvgl/lvgl/src/core/lv_indev.c ****             lv_obj_t * last_obj = proc->types.pointer.act_obj;
 821:lvgl/lvgl/src/core/lv_indev.c **** 
 822:lvgl/lvgl/src/core/lv_indev.c ****             lv_event_send(last_obj, LV_EVENT_PRESS_LOST, indev_act);
 823:lvgl/lvgl/src/core/lv_indev.c ****             if(indev_reset_check(proc)) return;
 824:lvgl/lvgl/src/core/lv_indev.c ****         }
 825:lvgl/lvgl/src/core/lv_indev.c **** 
 826:lvgl/lvgl/src/core/lv_indev.c ****         proc->types.pointer.act_obj  = indev_obj_act; /*Save the pressed object*/
 827:lvgl/lvgl/src/core/lv_indev.c ****         proc->types.pointer.last_obj = indev_obj_act;
 828:lvgl/lvgl/src/core/lv_indev.c **** 
ARM GAS  C:\Users\gx\AppData\Local\Temp\ccszQoK7.s 			page 16


 829:lvgl/lvgl/src/core/lv_indev.c ****         if(indev_obj_act != NULL) {
 830:lvgl/lvgl/src/core/lv_indev.c ****             /*Save the time when the obj pressed to count long press time.*/
 831:lvgl/lvgl/src/core/lv_indev.c ****             proc->pr_timestamp                 = lv_tick_get();
 832:lvgl/lvgl/src/core/lv_indev.c ****             proc->long_pr_sent                 = 0;
 833:lvgl/lvgl/src/core/lv_indev.c ****             proc->types.pointer.scroll_sum.x     = 0;
 834:lvgl/lvgl/src/core/lv_indev.c ****             proc->types.pointer.scroll_sum.y     = 0;
 835:lvgl/lvgl/src/core/lv_indev.c ****             proc->types.pointer.scroll_dir = LV_DIR_NONE;
 836:lvgl/lvgl/src/core/lv_indev.c ****             proc->types.pointer.gesture_dir = LV_DIR_NONE;
 837:lvgl/lvgl/src/core/lv_indev.c ****             proc->types.pointer.gesture_sent   = 0;
 838:lvgl/lvgl/src/core/lv_indev.c ****             proc->types.pointer.gesture_sum.x  = 0;
 839:lvgl/lvgl/src/core/lv_indev.c ****             proc->types.pointer.gesture_sum.y  = 0;
 840:lvgl/lvgl/src/core/lv_indev.c ****             proc->types.pointer.vect.x         = 0;
 841:lvgl/lvgl/src/core/lv_indev.c ****             proc->types.pointer.vect.y         = 0;
 842:lvgl/lvgl/src/core/lv_indev.c **** 
 843:lvgl/lvgl/src/core/lv_indev.c ****             /*Call the ancestor's event handler about the press*/
 844:lvgl/lvgl/src/core/lv_indev.c ****             lv_event_send(indev_obj_act, LV_EVENT_PRESSED, indev_act);
 845:lvgl/lvgl/src/core/lv_indev.c ****             if(indev_reset_check(proc)) return;
 846:lvgl/lvgl/src/core/lv_indev.c **** 
 847:lvgl/lvgl/src/core/lv_indev.c ****             if(indev_act->proc.wait_until_release) return;
 848:lvgl/lvgl/src/core/lv_indev.c **** 
 849:lvgl/lvgl/src/core/lv_indev.c ****             /*Handle focus*/
 850:lvgl/lvgl/src/core/lv_indev.c ****             indev_click_focus(&indev_act->proc);
 851:lvgl/lvgl/src/core/lv_indev.c ****             if(indev_reset_check(proc)) return;
 852:lvgl/lvgl/src/core/lv_indev.c **** 
 853:lvgl/lvgl/src/core/lv_indev.c ****         }
 854:lvgl/lvgl/src/core/lv_indev.c ****     }
 855:lvgl/lvgl/src/core/lv_indev.c **** 
 856:lvgl/lvgl/src/core/lv_indev.c ****     /*Calculate the vector and apply a low pass filter: new value = 0.5 * old_value + 0.5 * new_val
 857:lvgl/lvgl/src/core/lv_indev.c ****     proc->types.pointer.vect.x = proc->types.pointer.act_point.x - proc->types.pointer.last_point.x
 858:lvgl/lvgl/src/core/lv_indev.c ****     proc->types.pointer.vect.y = proc->types.pointer.act_point.y - proc->types.pointer.last_point.y
 859:lvgl/lvgl/src/core/lv_indev.c **** 
 860:lvgl/lvgl/src/core/lv_indev.c ****     proc->types.pointer.scroll_throw_vect.x = (proc->types.pointer.scroll_throw_vect.x * 4) >> 3;
 861:lvgl/lvgl/src/core/lv_indev.c ****     proc->types.pointer.scroll_throw_vect.y = (proc->types.pointer.scroll_throw_vect.y * 4) >> 3;
 862:lvgl/lvgl/src/core/lv_indev.c **** 
 863:lvgl/lvgl/src/core/lv_indev.c ****     proc->types.pointer.scroll_throw_vect.x += (proc->types.pointer.vect.x * 4) >> 3;
 864:lvgl/lvgl/src/core/lv_indev.c ****     proc->types.pointer.scroll_throw_vect.y += (proc->types.pointer.vect.y * 4) >> 3;
 865:lvgl/lvgl/src/core/lv_indev.c **** 
 866:lvgl/lvgl/src/core/lv_indev.c ****     proc->types.pointer.scroll_throw_vect_ori = proc->types.pointer.scroll_throw_vect;
 867:lvgl/lvgl/src/core/lv_indev.c **** 
 868:lvgl/lvgl/src/core/lv_indev.c ****     if(indev_obj_act) {
 869:lvgl/lvgl/src/core/lv_indev.c ****         lv_event_send(indev_obj_act, LV_EVENT_PRESSING, indev_act);
 870:lvgl/lvgl/src/core/lv_indev.c ****         if(indev_reset_check(proc)) return;
 871:lvgl/lvgl/src/core/lv_indev.c **** 
 872:lvgl/lvgl/src/core/lv_indev.c ****         if(indev_act->proc.wait_until_release) return;
 873:lvgl/lvgl/src/core/lv_indev.c **** 
 874:lvgl/lvgl/src/core/lv_indev.c ****         _lv_indev_scroll_handler(proc);
 875:lvgl/lvgl/src/core/lv_indev.c ****         if(indev_reset_check(proc)) return;
 876:lvgl/lvgl/src/core/lv_indev.c ****         indev_gesture(proc);
 877:lvgl/lvgl/src/core/lv_indev.c ****         if(indev_reset_check(proc)) return;
 878:lvgl/lvgl/src/core/lv_indev.c **** 
 879:lvgl/lvgl/src/core/lv_indev.c ****         /*If there is no scrolling then check for long press time*/
 880:lvgl/lvgl/src/core/lv_indev.c ****         if(proc->types.pointer.scroll_obj == NULL && proc->long_pr_sent == 0) {
 881:lvgl/lvgl/src/core/lv_indev.c ****             /*Call the ancestor's event handler about the long press if enough time elapsed*/
 882:lvgl/lvgl/src/core/lv_indev.c ****             if(lv_tick_elaps(proc->pr_timestamp) > indev_act->driver->long_press_time) {
 883:lvgl/lvgl/src/core/lv_indev.c ****                 lv_event_send(indev_obj_act, LV_EVENT_LONG_PRESSED, indev_act);
 884:lvgl/lvgl/src/core/lv_indev.c ****                 if(indev_reset_check(proc)) return;
 885:lvgl/lvgl/src/core/lv_indev.c **** 
ARM GAS  C:\Users\gx\AppData\Local\Temp\ccszQoK7.s 			page 17


 886:lvgl/lvgl/src/core/lv_indev.c ****                 /*Mark the Call the ancestor's event handler sending to do not send it again*/
 887:lvgl/lvgl/src/core/lv_indev.c ****                 proc->long_pr_sent = 1;
 888:lvgl/lvgl/src/core/lv_indev.c **** 
 889:lvgl/lvgl/src/core/lv_indev.c ****                 /*Save the long press time stamp for the long press repeat handler*/
 890:lvgl/lvgl/src/core/lv_indev.c ****                 proc->longpr_rep_timestamp = lv_tick_get();
 891:lvgl/lvgl/src/core/lv_indev.c ****             }
 892:lvgl/lvgl/src/core/lv_indev.c ****         }
 893:lvgl/lvgl/src/core/lv_indev.c **** 
 894:lvgl/lvgl/src/core/lv_indev.c ****         /*Send long press repeated Call the ancestor's event handler*/
 895:lvgl/lvgl/src/core/lv_indev.c ****         if(proc->types.pointer.scroll_obj == NULL && proc->long_pr_sent == 1) {
 896:lvgl/lvgl/src/core/lv_indev.c ****             /*Call the ancestor's event handler about the long press repeat if enough time elapsed*
 897:lvgl/lvgl/src/core/lv_indev.c ****             if(lv_tick_elaps(proc->longpr_rep_timestamp) > indev_act->driver->long_press_repeat_tim
 898:lvgl/lvgl/src/core/lv_indev.c ****                 lv_event_send(indev_obj_act, LV_EVENT_LONG_PRESSED_REPEAT, indev_act);
 899:lvgl/lvgl/src/core/lv_indev.c ****                 if(indev_reset_check(proc)) return;
 900:lvgl/lvgl/src/core/lv_indev.c ****                 proc->longpr_rep_timestamp = lv_tick_get();
 901:lvgl/lvgl/src/core/lv_indev.c ****             }
 902:lvgl/lvgl/src/core/lv_indev.c ****         }
 903:lvgl/lvgl/src/core/lv_indev.c ****     }
 904:lvgl/lvgl/src/core/lv_indev.c **** }
 905:lvgl/lvgl/src/core/lv_indev.c **** 
 906:lvgl/lvgl/src/core/lv_indev.c **** /**
 907:lvgl/lvgl/src/core/lv_indev.c ****  * Process the released state of LV_INDEV_TYPE_POINTER input devices
 908:lvgl/lvgl/src/core/lv_indev.c ****  * @param proc pointer to an input device 'proc'
 909:lvgl/lvgl/src/core/lv_indev.c ****  */
 910:lvgl/lvgl/src/core/lv_indev.c **** static void indev_proc_release(_lv_indev_proc_t * proc)
 911:lvgl/lvgl/src/core/lv_indev.c **** {
 912:lvgl/lvgl/src/core/lv_indev.c ****     if(proc->wait_until_release != 0) {
 913:lvgl/lvgl/src/core/lv_indev.c ****         proc->types.pointer.act_obj  = NULL;
 914:lvgl/lvgl/src/core/lv_indev.c ****         proc->types.pointer.last_obj = NULL;
 915:lvgl/lvgl/src/core/lv_indev.c ****         proc->pr_timestamp           = 0;
 916:lvgl/lvgl/src/core/lv_indev.c ****         proc->longpr_rep_timestamp   = 0;
 917:lvgl/lvgl/src/core/lv_indev.c ****         proc->wait_until_release     = 0;
 918:lvgl/lvgl/src/core/lv_indev.c ****     }
 919:lvgl/lvgl/src/core/lv_indev.c ****     indev_obj_act = proc->types.pointer.act_obj;
 920:lvgl/lvgl/src/core/lv_indev.c ****     lv_obj_t * scroll_obj = proc->types.pointer.scroll_obj;
 921:lvgl/lvgl/src/core/lv_indev.c **** 
 922:lvgl/lvgl/src/core/lv_indev.c ****     /*Forget the act obj and send a released Call the ancestor's event handler*/
 923:lvgl/lvgl/src/core/lv_indev.c ****     if(indev_obj_act) {
 924:lvgl/lvgl/src/core/lv_indev.c ****         LV_LOG_INFO("released");
 925:lvgl/lvgl/src/core/lv_indev.c **** 
 926:lvgl/lvgl/src/core/lv_indev.c ****         /*Send RELEASE Call the ancestor's event handler and event*/
 927:lvgl/lvgl/src/core/lv_indev.c ****         lv_event_send(indev_obj_act, LV_EVENT_RELEASED, indev_act);
 928:lvgl/lvgl/src/core/lv_indev.c ****         if(indev_reset_check(proc)) return;
 929:lvgl/lvgl/src/core/lv_indev.c **** 
 930:lvgl/lvgl/src/core/lv_indev.c ****         /*Send CLICK if no scrolling*/
 931:lvgl/lvgl/src/core/lv_indev.c ****         if(scroll_obj == NULL) {
 932:lvgl/lvgl/src/core/lv_indev.c ****             if(proc->long_pr_sent == 0) {
 933:lvgl/lvgl/src/core/lv_indev.c ****                 lv_event_send(indev_obj_act, LV_EVENT_SHORT_CLICKED, indev_act);
 934:lvgl/lvgl/src/core/lv_indev.c ****                 if(indev_reset_check(proc)) return;
 935:lvgl/lvgl/src/core/lv_indev.c ****             }
 936:lvgl/lvgl/src/core/lv_indev.c **** 
 937:lvgl/lvgl/src/core/lv_indev.c ****             lv_event_send(indev_obj_act, LV_EVENT_CLICKED, indev_act);
 938:lvgl/lvgl/src/core/lv_indev.c ****             if(indev_reset_check(proc)) return;
 939:lvgl/lvgl/src/core/lv_indev.c ****         }
 940:lvgl/lvgl/src/core/lv_indev.c **** 
 941:lvgl/lvgl/src/core/lv_indev.c ****         proc->types.pointer.act_obj = NULL;
 942:lvgl/lvgl/src/core/lv_indev.c ****         proc->pr_timestamp          = 0;
ARM GAS  C:\Users\gx\AppData\Local\Temp\ccszQoK7.s 			page 18


 943:lvgl/lvgl/src/core/lv_indev.c ****         proc->longpr_rep_timestamp  = 0;
 944:lvgl/lvgl/src/core/lv_indev.c **** 
 945:lvgl/lvgl/src/core/lv_indev.c ****     }
 946:lvgl/lvgl/src/core/lv_indev.c **** 
 947:lvgl/lvgl/src/core/lv_indev.c ****     /*The reset can be set in the Call the ancestor's event handler function.
 948:lvgl/lvgl/src/core/lv_indev.c ****      * In case of reset query ignore the remaining parts.*/
 949:lvgl/lvgl/src/core/lv_indev.c ****     if(scroll_obj) {
 950:lvgl/lvgl/src/core/lv_indev.c ****         _lv_indev_scroll_throw_handler(proc);
 951:lvgl/lvgl/src/core/lv_indev.c ****         if(indev_reset_check(proc)) return;
 952:lvgl/lvgl/src/core/lv_indev.c ****     }
 953:lvgl/lvgl/src/core/lv_indev.c **** }
 954:lvgl/lvgl/src/core/lv_indev.c **** 
 955:lvgl/lvgl/src/core/lv_indev.c **** /**
 956:lvgl/lvgl/src/core/lv_indev.c ****  * Process a new point from LV_INDEV_TYPE_BUTTON input device
 957:lvgl/lvgl/src/core/lv_indev.c ****  * @param i pointer to an input device
 958:lvgl/lvgl/src/core/lv_indev.c ****  * @param data pointer to the data read from the input device
 959:lvgl/lvgl/src/core/lv_indev.c ****  * Reset input device if a reset query has been sent to it
 960:lvgl/lvgl/src/core/lv_indev.c ****  * @param indev pointer to an input device
 961:lvgl/lvgl/src/core/lv_indev.c ****  */
 962:lvgl/lvgl/src/core/lv_indev.c **** static void indev_proc_reset_query_handler(lv_indev_t * indev)
 963:lvgl/lvgl/src/core/lv_indev.c **** {
  29              		.loc 1 963 1 view -0
  30              		.cfi_startproc
  31              		@ args = 0, pretend = 0, frame = 0
  32              		@ frame_needed = 0, uses_anonymous_args = 0
  33              		@ link register save eliminated.
 964:lvgl/lvgl/src/core/lv_indev.c ****     if(indev->proc.reset_query) {
  34              		.loc 1 964 5 view .LVU1
  35              		.loc 1 964 8 is_stmt 0 view .LVU2
  36 0000 4379     		ldrb	r3, [r0, #5]	@ zero_extendqisi2
  37              		.loc 1 964 7 view .LVU3
  38 0002 13F0020F 		tst	r3, #2
  39 0006 19D0     		beq	.L1
 965:lvgl/lvgl/src/core/lv_indev.c ****         indev->proc.types.pointer.act_obj           = NULL;
  40              		.loc 1 965 9 is_stmt 1 view .LVU4
  41              		.loc 1 965 53 is_stmt 0 view .LVU5
  42 0008 0023     		movs	r3, #0
  43 000a 4362     		str	r3, [r0, #36]
 966:lvgl/lvgl/src/core/lv_indev.c ****         indev->proc.types.pointer.last_obj          = NULL;
  44              		.loc 1 966 9 is_stmt 1 view .LVU6
  45              		.loc 1 966 53 is_stmt 0 view .LVU7
  46 000c 8362     		str	r3, [r0, #40]
 967:lvgl/lvgl/src/core/lv_indev.c ****         indev->proc.types.pointer.scroll_obj          = NULL;
  47              		.loc 1 967 9 is_stmt 1 view .LVU8
  48              		.loc 1 967 55 is_stmt 0 view .LVU9
  49 000e C362     		str	r3, [r0, #44]
 968:lvgl/lvgl/src/core/lv_indev.c ****         indev->proc.long_pr_sent                    = 0;
  50              		.loc 1 968 9 is_stmt 1 view .LVU10
  51              		.loc 1 968 53 is_stmt 0 view .LVU11
  52 0010 4279     		ldrb	r2, [r0, #5]	@ zero_extendqisi2
 969:lvgl/lvgl/src/core/lv_indev.c ****         indev->proc.pr_timestamp                    = 0;
  53              		.loc 1 969 9 is_stmt 1 view .LVU12
  54              		.loc 1 969 53 is_stmt 0 view .LVU13
  55 0012 4364     		str	r3, [r0, #68]
 970:lvgl/lvgl/src/core/lv_indev.c ****         indev->proc.longpr_rep_timestamp            = 0;
  56              		.loc 1 970 9 is_stmt 1 view .LVU14
  57              		.loc 1 970 53 is_stmt 0 view .LVU15
ARM GAS  C:\Users\gx\AppData\Local\Temp\ccszQoK7.s 			page 19


  58 0014 8364     		str	r3, [r0, #72]
 971:lvgl/lvgl/src/core/lv_indev.c ****         indev->proc.types.pointer.scroll_sum.x        = 0;
  59              		.loc 1 971 9 is_stmt 1 view .LVU16
  60              		.loc 1 971 55 is_stmt 0 view .LVU17
  61 0016 0383     		strh	r3, [r0, #24]	@ movhi
 972:lvgl/lvgl/src/core/lv_indev.c ****         indev->proc.types.pointer.scroll_sum.y        = 0;
  62              		.loc 1 972 9 is_stmt 1 view .LVU18
  63              		.loc 1 972 55 is_stmt 0 view .LVU19
  64 0018 4383     		strh	r3, [r0, #26]	@ movhi
 973:lvgl/lvgl/src/core/lv_indev.c ****         indev->proc.types.pointer.scroll_dir = LV_DIR_NONE;
  65              		.loc 1 973 9 is_stmt 1 view .LVU20
  66              		.loc 1 973 46 is_stmt 0 view .LVU21
  67 001a 90F84010 		ldrb	r1, [r0, #64]	@ zero_extendqisi2
  68 001e 63F30301 		bfi	r1, r3, #0, #4
  69 0022 80F84010 		strb	r1, [r0, #64]
 974:lvgl/lvgl/src/core/lv_indev.c ****         indev->proc.types.pointer.scroll_throw_vect.x = 0;
  70              		.loc 1 974 9 is_stmt 1 view .LVU22
  71              		.loc 1 974 55 is_stmt 0 view .LVU23
  72 0026 8383     		strh	r3, [r0, #28]	@ movhi
 975:lvgl/lvgl/src/core/lv_indev.c ****         indev->proc.types.pointer.scroll_throw_vect.y = 0;
  73              		.loc 1 975 9 is_stmt 1 view .LVU24
  74              		.loc 1 975 55 is_stmt 0 view .LVU25
  75 0028 C383     		strh	r3, [r0, #30]	@ movhi
 976:lvgl/lvgl/src/core/lv_indev.c ****         indev->proc.types.pointer.gesture_sum.x     = 0;
  76              		.loc 1 976 9 is_stmt 1 view .LVU26
  77              		.loc 1 976 53 is_stmt 0 view .LVU27
  78 002a 8387     		strh	r3, [r0, #60]	@ movhi
 977:lvgl/lvgl/src/core/lv_indev.c ****         indev->proc.types.pointer.gesture_sum.y     = 0;
  79              		.loc 1 977 9 is_stmt 1 view .LVU28
  80              		.loc 1 977 53 is_stmt 0 view .LVU29
  81 002c C387     		strh	r3, [r0, #62]	@ movhi
 978:lvgl/lvgl/src/core/lv_indev.c ****         indev->proc.reset_query                     = 0;
  82              		.loc 1 978 9 is_stmt 1 view .LVU30
  83              		.loc 1 978 53 is_stmt 0 view .LVU31
  84 002e 02F0FE02 		and	r2, r2, #254
  85 0032 63F34102 		bfi	r2, r3, #1, #1
  86 0036 4271     		strb	r2, [r0, #5]
 979:lvgl/lvgl/src/core/lv_indev.c ****         indev_obj_act                               = NULL;
  87              		.loc 1 979 9 is_stmt 1 view .LVU32
  88              		.loc 1 979 53 is_stmt 0 view .LVU33
  89 0038 014A     		ldr	r2, .L3
  90 003a 1360     		str	r3, [r2]
  91              	.L1:
 980:lvgl/lvgl/src/core/lv_indev.c ****     }
 981:lvgl/lvgl/src/core/lv_indev.c **** }
  92              		.loc 1 981 1 view .LVU34
  93 003c 7047     		bx	lr
  94              	.L4:
  95 003e 00BF     		.align	2
  96              	.L3:
  97 0040 00000000 		.word	.LANCHOR0
  98              		.cfi_endproc
  99              	.LFE183:
 101              		.section	.text.indev_reset_check,"ax",%progbits
 102              		.align	1
 103              		.syntax unified
 104              		.thumb
ARM GAS  C:\Users\gx\AppData\Local\Temp\ccszQoK7.s 			page 20


 105              		.thumb_func
 106              		.fpu fpv4-sp-d16
 108              	indev_reset_check:
 109              	.LVL1:
 110              	.LFB186:
 982:lvgl/lvgl/src/core/lv_indev.c **** 
 983:lvgl/lvgl/src/core/lv_indev.c **** /**
 984:lvgl/lvgl/src/core/lv_indev.c ****  * Handle focus/defocus on click for POINTER input devices
 985:lvgl/lvgl/src/core/lv_indev.c ****  * @param proc pointer to the state of the indev
 986:lvgl/lvgl/src/core/lv_indev.c ****  */
 987:lvgl/lvgl/src/core/lv_indev.c **** static void indev_click_focus(_lv_indev_proc_t * proc)
 988:lvgl/lvgl/src/core/lv_indev.c **** {
 989:lvgl/lvgl/src/core/lv_indev.c ****     /*Handle click focus*/
 990:lvgl/lvgl/src/core/lv_indev.c ****     lv_obj_t * obj_to_focus = indev_obj_act;
 991:lvgl/lvgl/src/core/lv_indev.c ****     if(lv_obj_has_flag(obj_to_focus, LV_OBJ_FLAG_CLICK_FOCUSABLE) &&
 992:lvgl/lvgl/src/core/lv_indev.c ****        proc->types.pointer.last_pressed != obj_to_focus) {
 993:lvgl/lvgl/src/core/lv_indev.c ****         lv_group_t * g_act = lv_obj_get_group(obj_to_focus);
 994:lvgl/lvgl/src/core/lv_indev.c ****         lv_group_t * g_prev = proc->types.pointer.last_pressed ? lv_obj_get_group(proc->types.point
 995:lvgl/lvgl/src/core/lv_indev.c **** 
 996:lvgl/lvgl/src/core/lv_indev.c ****         /*If both the last and act. obj. are in the same group (or no group but it's also the same)
 997:lvgl/lvgl/src/core/lv_indev.c ****         if(g_act == g_prev) {
 998:lvgl/lvgl/src/core/lv_indev.c ****             /*The objects are in a group*/
 999:lvgl/lvgl/src/core/lv_indev.c ****             if(g_act) {
1000:lvgl/lvgl/src/core/lv_indev.c ****                 lv_group_focus_obj(obj_to_focus);
1001:lvgl/lvgl/src/core/lv_indev.c ****                 if(indev_reset_check(proc)) return;
1002:lvgl/lvgl/src/core/lv_indev.c ****             }
1003:lvgl/lvgl/src/core/lv_indev.c ****             /*The object are not in group*/
1004:lvgl/lvgl/src/core/lv_indev.c ****             else {
1005:lvgl/lvgl/src/core/lv_indev.c ****                 if(proc->types.pointer.last_pressed) {
1006:lvgl/lvgl/src/core/lv_indev.c ****                     lv_event_send(proc->types.pointer.last_pressed, LV_EVENT_DEFOCUSED, indev_act);
1007:lvgl/lvgl/src/core/lv_indev.c ****                     if(indev_reset_check(proc)) return;
1008:lvgl/lvgl/src/core/lv_indev.c ****                 }
1009:lvgl/lvgl/src/core/lv_indev.c **** 
1010:lvgl/lvgl/src/core/lv_indev.c ****                 lv_event_send(obj_to_focus, LV_EVENT_FOCUSED, indev_act);
1011:lvgl/lvgl/src/core/lv_indev.c ****                 if(indev_reset_check(proc)) return;
1012:lvgl/lvgl/src/core/lv_indev.c ****             }
1013:lvgl/lvgl/src/core/lv_indev.c ****         }
1014:lvgl/lvgl/src/core/lv_indev.c ****         /*The object are not in the same group (in different group or one in not a group)*/
1015:lvgl/lvgl/src/core/lv_indev.c ****         else {
1016:lvgl/lvgl/src/core/lv_indev.c ****             /*If the prev. obj. is not in a group then defocus it.*/
1017:lvgl/lvgl/src/core/lv_indev.c ****             if(g_prev == NULL && proc->types.pointer.last_pressed) {
1018:lvgl/lvgl/src/core/lv_indev.c ****                 lv_event_send(proc->types.pointer.last_pressed, LV_EVENT_DEFOCUSED, indev_act);
1019:lvgl/lvgl/src/core/lv_indev.c ****                 if(indev_reset_check(proc)) return;
1020:lvgl/lvgl/src/core/lv_indev.c ****             }
1021:lvgl/lvgl/src/core/lv_indev.c ****             /*Focus on a non-group object*/
1022:lvgl/lvgl/src/core/lv_indev.c ****             else {
1023:lvgl/lvgl/src/core/lv_indev.c ****                 if(proc->types.pointer.last_pressed) {
1024:lvgl/lvgl/src/core/lv_indev.c ****                     /*If the prev. object also wasn't in a group defocus it*/
1025:lvgl/lvgl/src/core/lv_indev.c ****                     if(g_prev == NULL) {
1026:lvgl/lvgl/src/core/lv_indev.c ****                         lv_event_send(proc->types.pointer.last_pressed, LV_EVENT_DEFOCUSED, indev_a
1027:lvgl/lvgl/src/core/lv_indev.c ****                         if(indev_reset_check(proc)) return;
1028:lvgl/lvgl/src/core/lv_indev.c ****                     }
1029:lvgl/lvgl/src/core/lv_indev.c ****                     /*If the prev. object also was in a group at least "LEAVE" it instead of defocu
1030:lvgl/lvgl/src/core/lv_indev.c ****                     else {
1031:lvgl/lvgl/src/core/lv_indev.c ****                         lv_event_send(proc->types.pointer.last_pressed, LV_EVENT_LEAVE, indev_act);
1032:lvgl/lvgl/src/core/lv_indev.c ****                         if(indev_reset_check(proc)) return;
1033:lvgl/lvgl/src/core/lv_indev.c ****                     }
ARM GAS  C:\Users\gx\AppData\Local\Temp\ccszQoK7.s 			page 21


1034:lvgl/lvgl/src/core/lv_indev.c ****                 }
1035:lvgl/lvgl/src/core/lv_indev.c ****             }
1036:lvgl/lvgl/src/core/lv_indev.c **** 
1037:lvgl/lvgl/src/core/lv_indev.c ****             /*Focus to the act. in its group*/
1038:lvgl/lvgl/src/core/lv_indev.c ****             if(g_act) {
1039:lvgl/lvgl/src/core/lv_indev.c ****                 lv_group_focus_obj(obj_to_focus);
1040:lvgl/lvgl/src/core/lv_indev.c ****                 if(indev_reset_check(proc)) return;
1041:lvgl/lvgl/src/core/lv_indev.c ****             }
1042:lvgl/lvgl/src/core/lv_indev.c ****             else {
1043:lvgl/lvgl/src/core/lv_indev.c ****                 lv_event_send(obj_to_focus, LV_EVENT_FOCUSED, indev_act);
1044:lvgl/lvgl/src/core/lv_indev.c ****                 if(indev_reset_check(proc)) return;
1045:lvgl/lvgl/src/core/lv_indev.c ****             }
1046:lvgl/lvgl/src/core/lv_indev.c ****         }
1047:lvgl/lvgl/src/core/lv_indev.c ****         proc->types.pointer.last_pressed = obj_to_focus;
1048:lvgl/lvgl/src/core/lv_indev.c ****     }
1049:lvgl/lvgl/src/core/lv_indev.c **** 
1050:lvgl/lvgl/src/core/lv_indev.c **** }
1051:lvgl/lvgl/src/core/lv_indev.c **** 
1052:lvgl/lvgl/src/core/lv_indev.c **** /**
1053:lvgl/lvgl/src/core/lv_indev.c **** * Handle the gesture of indev_proc_p->types.pointer.act_obj
1054:lvgl/lvgl/src/core/lv_indev.c **** * @param indev pointer to a input device state
1055:lvgl/lvgl/src/core/lv_indev.c **** */
1056:lvgl/lvgl/src/core/lv_indev.c **** void indev_gesture(_lv_indev_proc_t * proc)
1057:lvgl/lvgl/src/core/lv_indev.c **** {
1058:lvgl/lvgl/src/core/lv_indev.c **** 
1059:lvgl/lvgl/src/core/lv_indev.c ****     if(proc->types.pointer.scroll_obj) return;
1060:lvgl/lvgl/src/core/lv_indev.c ****     if(proc->types.pointer.gesture_sent) return;
1061:lvgl/lvgl/src/core/lv_indev.c **** 
1062:lvgl/lvgl/src/core/lv_indev.c ****     lv_obj_t * gesture_obj = proc->types.pointer.act_obj;
1063:lvgl/lvgl/src/core/lv_indev.c **** 
1064:lvgl/lvgl/src/core/lv_indev.c ****     /*If gesture parent is active check recursively the gesture attribute*/
1065:lvgl/lvgl/src/core/lv_indev.c ****     while(gesture_obj && lv_obj_has_flag(gesture_obj, LV_OBJ_FLAG_GESTURE_BUBBLE)) {
1066:lvgl/lvgl/src/core/lv_indev.c ****         gesture_obj = lv_obj_get_parent(gesture_obj);
1067:lvgl/lvgl/src/core/lv_indev.c ****     }
1068:lvgl/lvgl/src/core/lv_indev.c **** 
1069:lvgl/lvgl/src/core/lv_indev.c ****     if(gesture_obj == NULL) return;
1070:lvgl/lvgl/src/core/lv_indev.c **** 
1071:lvgl/lvgl/src/core/lv_indev.c ****     if((LV_ABS(proc->types.pointer.vect.x) < indev_act->driver->gesture_min_velocity) &&
1072:lvgl/lvgl/src/core/lv_indev.c ****        (LV_ABS(proc->types.pointer.vect.y) < indev_act->driver->gesture_min_velocity)) {
1073:lvgl/lvgl/src/core/lv_indev.c ****         proc->types.pointer.gesture_sum.x = 0;
1074:lvgl/lvgl/src/core/lv_indev.c ****         proc->types.pointer.gesture_sum.y = 0;
1075:lvgl/lvgl/src/core/lv_indev.c ****     }
1076:lvgl/lvgl/src/core/lv_indev.c **** 
1077:lvgl/lvgl/src/core/lv_indev.c ****     /*Count the movement by gesture*/
1078:lvgl/lvgl/src/core/lv_indev.c ****     proc->types.pointer.gesture_sum.x += proc->types.pointer.vect.x;
1079:lvgl/lvgl/src/core/lv_indev.c ****     proc->types.pointer.gesture_sum.y += proc->types.pointer.vect.y;
1080:lvgl/lvgl/src/core/lv_indev.c **** 
1081:lvgl/lvgl/src/core/lv_indev.c ****     if((LV_ABS(proc->types.pointer.gesture_sum.x) > indev_act->driver->gesture_limit) ||
1082:lvgl/lvgl/src/core/lv_indev.c ****        (LV_ABS(proc->types.pointer.gesture_sum.y) > indev_act->driver->gesture_limit)) {
1083:lvgl/lvgl/src/core/lv_indev.c **** 
1084:lvgl/lvgl/src/core/lv_indev.c ****         proc->types.pointer.gesture_sent = 1;
1085:lvgl/lvgl/src/core/lv_indev.c **** 
1086:lvgl/lvgl/src/core/lv_indev.c ****         if(LV_ABS(proc->types.pointer.gesture_sum.x) > LV_ABS(proc->types.pointer.gesture_sum.y)) {
1087:lvgl/lvgl/src/core/lv_indev.c ****             if(proc->types.pointer.gesture_sum.x > 0)
1088:lvgl/lvgl/src/core/lv_indev.c ****                 proc->types.pointer.gesture_dir = LV_DIR_RIGHT;
1089:lvgl/lvgl/src/core/lv_indev.c ****             else
1090:lvgl/lvgl/src/core/lv_indev.c ****                 proc->types.pointer.gesture_dir = LV_DIR_LEFT;
ARM GAS  C:\Users\gx\AppData\Local\Temp\ccszQoK7.s 			page 22


1091:lvgl/lvgl/src/core/lv_indev.c ****         }
1092:lvgl/lvgl/src/core/lv_indev.c ****         else {
1093:lvgl/lvgl/src/core/lv_indev.c ****             if(proc->types.pointer.gesture_sum.y > 0)
1094:lvgl/lvgl/src/core/lv_indev.c ****                 proc->types.pointer.gesture_dir = LV_DIR_BOTTOM;
1095:lvgl/lvgl/src/core/lv_indev.c ****             else
1096:lvgl/lvgl/src/core/lv_indev.c ****                 proc->types.pointer.gesture_dir = LV_DIR_TOP;
1097:lvgl/lvgl/src/core/lv_indev.c ****         }
1098:lvgl/lvgl/src/core/lv_indev.c **** 
1099:lvgl/lvgl/src/core/lv_indev.c ****         lv_event_send(gesture_obj, LV_EVENT_GESTURE, indev_act);
1100:lvgl/lvgl/src/core/lv_indev.c ****         if(indev_reset_check(proc)) return;
1101:lvgl/lvgl/src/core/lv_indev.c ****     }
1102:lvgl/lvgl/src/core/lv_indev.c **** }
1103:lvgl/lvgl/src/core/lv_indev.c **** 
1104:lvgl/lvgl/src/core/lv_indev.c **** /**
1105:lvgl/lvgl/src/core/lv_indev.c ****  * Checks if the reset_query flag has been set. If so, perform necessary global indev cleanup actio
1106:lvgl/lvgl/src/core/lv_indev.c ****  * @param proc pointer to an input device 'proc'
1107:lvgl/lvgl/src/core/lv_indev.c ****  * @return true if indev query should be immediately truncated.
1108:lvgl/lvgl/src/core/lv_indev.c ****  */
1109:lvgl/lvgl/src/core/lv_indev.c **** static bool indev_reset_check(_lv_indev_proc_t * proc)
1110:lvgl/lvgl/src/core/lv_indev.c **** {
 111              		.loc 1 1110 1 is_stmt 1 view -0
 112              		.cfi_startproc
 113              		@ args = 0, pretend = 0, frame = 0
 114              		@ frame_needed = 0, uses_anonymous_args = 0
 115              		@ link register save eliminated.
1111:lvgl/lvgl/src/core/lv_indev.c ****     if(proc->reset_query) {
 116              		.loc 1 1111 5 view .LVU36
 117              		.loc 1 1111 8 is_stmt 0 view .LVU37
 118 0000 4078     		ldrb	r0, [r0, #1]	@ zero_extendqisi2
 119              	.LVL2:
 120              		.loc 1 1111 7 view .LVU38
 121 0002 10F0020F 		tst	r0, #2
 122 0006 02D0     		beq	.L6
1112:lvgl/lvgl/src/core/lv_indev.c ****         indev_obj_act = NULL;
 123              		.loc 1 1112 9 is_stmt 1 view .LVU39
 124              		.loc 1 1112 23 is_stmt 0 view .LVU40
 125 0008 024B     		ldr	r3, .L7
 126 000a 0022     		movs	r2, #0
 127 000c 1A60     		str	r2, [r3]
 128              	.L6:
1113:lvgl/lvgl/src/core/lv_indev.c ****     }
1114:lvgl/lvgl/src/core/lv_indev.c **** 
1115:lvgl/lvgl/src/core/lv_indev.c ****     return proc->reset_query ? true : false;
 129              		.loc 1 1115 5 is_stmt 1 view .LVU41
1116:lvgl/lvgl/src/core/lv_indev.c **** }
 130              		.loc 1 1116 1 is_stmt 0 view .LVU42
 131 000e C0F34000 		ubfx	r0, r0, #1, #1
 132 0012 7047     		bx	lr
 133              	.L8:
 134              		.align	2
 135              	.L7:
 136 0014 00000000 		.word	.LANCHOR0
 137              		.cfi_endproc
 138              	.LFE186:
 140              		.section	.text.indev_proc_release,"ax",%progbits
 141              		.align	1
 142              		.syntax unified
ARM GAS  C:\Users\gx\AppData\Local\Temp\ccszQoK7.s 			page 23


 143              		.thumb
 144              		.thumb_func
 145              		.fpu fpv4-sp-d16
 147              	indev_proc_release:
 148              	.LVL3:
 149              	.LFB182:
 911:lvgl/lvgl/src/core/lv_indev.c ****     if(proc->wait_until_release != 0) {
 150              		.loc 1 911 1 is_stmt 1 view -0
 151              		.cfi_startproc
 152              		@ args = 0, pretend = 0, frame = 0
 153              		@ frame_needed = 0, uses_anonymous_args = 0
 911:lvgl/lvgl/src/core/lv_indev.c ****     if(proc->wait_until_release != 0) {
 154              		.loc 1 911 1 is_stmt 0 view .LVU44
 155 0000 38B5     		push	{r3, r4, r5, lr}
 156              	.LCFI0:
 157              		.cfi_def_cfa_offset 16
 158              		.cfi_offset 3, -16
 159              		.cfi_offset 4, -12
 160              		.cfi_offset 5, -8
 161              		.cfi_offset 14, -4
 162 0002 0446     		mov	r4, r0
 912:lvgl/lvgl/src/core/lv_indev.c ****         proc->types.pointer.act_obj  = NULL;
 163              		.loc 1 912 5 is_stmt 1 view .LVU45
 912:lvgl/lvgl/src/core/lv_indev.c ****         proc->types.pointer.act_obj  = NULL;
 164              		.loc 1 912 33 is_stmt 0 view .LVU46
 165 0004 4378     		ldrb	r3, [r0, #1]	@ zero_extendqisi2
 912:lvgl/lvgl/src/core/lv_indev.c ****         proc->types.pointer.act_obj  = NULL;
 166              		.loc 1 912 7 view .LVU47
 167 0006 13F0080F 		tst	r3, #8
 168 000a 08D0     		beq	.L10
 913:lvgl/lvgl/src/core/lv_indev.c ****         proc->types.pointer.last_obj = NULL;
 169              		.loc 1 913 9 is_stmt 1 view .LVU48
 913:lvgl/lvgl/src/core/lv_indev.c ****         proc->types.pointer.last_obj = NULL;
 170              		.loc 1 913 38 is_stmt 0 view .LVU49
 171 000c 0023     		movs	r3, #0
 172 000e 0362     		str	r3, [r0, #32]
 914:lvgl/lvgl/src/core/lv_indev.c ****         proc->pr_timestamp           = 0;
 173              		.loc 1 914 9 is_stmt 1 view .LVU50
 914:lvgl/lvgl/src/core/lv_indev.c ****         proc->pr_timestamp           = 0;
 174              		.loc 1 914 38 is_stmt 0 view .LVU51
 175 0010 4362     		str	r3, [r0, #36]
 915:lvgl/lvgl/src/core/lv_indev.c ****         proc->longpr_rep_timestamp   = 0;
 176              		.loc 1 915 9 is_stmt 1 view .LVU52
 915:lvgl/lvgl/src/core/lv_indev.c ****         proc->longpr_rep_timestamp   = 0;
 177              		.loc 1 915 38 is_stmt 0 view .LVU53
 178 0012 0364     		str	r3, [r0, #64]
 916:lvgl/lvgl/src/core/lv_indev.c ****         proc->wait_until_release     = 0;
 179              		.loc 1 916 9 is_stmt 1 view .LVU54
 916:lvgl/lvgl/src/core/lv_indev.c ****         proc->wait_until_release     = 0;
 180              		.loc 1 916 38 is_stmt 0 view .LVU55
 181 0014 4364     		str	r3, [r0, #68]
 917:lvgl/lvgl/src/core/lv_indev.c ****     }
 182              		.loc 1 917 9 is_stmt 1 view .LVU56
 917:lvgl/lvgl/src/core/lv_indev.c ****     }
 183              		.loc 1 917 38 is_stmt 0 view .LVU57
 184 0016 4278     		ldrb	r2, [r0, #1]	@ zero_extendqisi2
 185 0018 63F3C302 		bfi	r2, r3, #3, #1
ARM GAS  C:\Users\gx\AppData\Local\Temp\ccszQoK7.s 			page 24


 186 001c 4270     		strb	r2, [r0, #1]
 187              	.L10:
 919:lvgl/lvgl/src/core/lv_indev.c ****     lv_obj_t * scroll_obj = proc->types.pointer.scroll_obj;
 188              		.loc 1 919 5 is_stmt 1 view .LVU58
 919:lvgl/lvgl/src/core/lv_indev.c ****     lv_obj_t * scroll_obj = proc->types.pointer.scroll_obj;
 189              		.loc 1 919 40 is_stmt 0 view .LVU59
 190 001e 206A     		ldr	r0, [r4, #32]
 191              	.LVL4:
 919:lvgl/lvgl/src/core/lv_indev.c ****     lv_obj_t * scroll_obj = proc->types.pointer.scroll_obj;
 192              		.loc 1 919 19 view .LVU60
 193 0020 1B4B     		ldr	r3, .L17
 194 0022 1860     		str	r0, [r3]
 920:lvgl/lvgl/src/core/lv_indev.c **** 
 195              		.loc 1 920 5 is_stmt 1 view .LVU61
 920:lvgl/lvgl/src/core/lv_indev.c **** 
 196              		.loc 1 920 16 is_stmt 0 view .LVU62
 197 0024 A56A     		ldr	r5, [r4, #40]
 198              	.LVL5:
 923:lvgl/lvgl/src/core/lv_indev.c ****         LV_LOG_INFO("released");
 199              		.loc 1 923 5 is_stmt 1 view .LVU63
 923:lvgl/lvgl/src/core/lv_indev.c ****         LV_LOG_INFO("released");
 200              		.loc 1 923 7 is_stmt 0 view .LVU64
 201 0026 68B1     		cbz	r0, .L11
 924:lvgl/lvgl/src/core/lv_indev.c **** 
 202              		.loc 1 924 9 is_stmt 1 view .LVU65
 924:lvgl/lvgl/src/core/lv_indev.c **** 
 203              		.loc 1 924 9 view .LVU66
 924:lvgl/lvgl/src/core/lv_indev.c **** 
 204              		.loc 1 924 9 view .LVU67
 924:lvgl/lvgl/src/core/lv_indev.c **** 
 205              		.loc 1 924 32 view .LVU68
 927:lvgl/lvgl/src/core/lv_indev.c ****         if(indev_reset_check(proc)) return;
 206              		.loc 1 927 9 view .LVU69
 207 0028 1A4B     		ldr	r3, .L17+4
 208 002a 1A68     		ldr	r2, [r3]
 209 002c 0821     		movs	r1, #8
 210 002e FFF7FEFF 		bl	lv_event_send
 211              	.LVL6:
 928:lvgl/lvgl/src/core/lv_indev.c **** 
 212              		.loc 1 928 9 view .LVU70
 928:lvgl/lvgl/src/core/lv_indev.c **** 
 213              		.loc 1 928 12 is_stmt 0 view .LVU71
 214 0032 2046     		mov	r0, r4
 215 0034 FFF7FEFF 		bl	indev_reset_check
 216              	.LVL7:
 928:lvgl/lvgl/src/core/lv_indev.c **** 
 217              		.loc 1 928 11 view .LVU72
 218 0038 58B9     		cbnz	r0, .L9
 931:lvgl/lvgl/src/core/lv_indev.c ****             if(proc->long_pr_sent == 0) {
 219              		.loc 1 931 9 is_stmt 1 view .LVU73
 931:lvgl/lvgl/src/core/lv_indev.c ****             if(proc->long_pr_sent == 0) {
 220              		.loc 1 931 11 is_stmt 0 view .LVU74
 221 003a 5DB1     		cbz	r5, .L16
 222              	.L13:
 941:lvgl/lvgl/src/core/lv_indev.c ****         proc->pr_timestamp          = 0;
 223              		.loc 1 941 9 is_stmt 1 view .LVU75
 941:lvgl/lvgl/src/core/lv_indev.c ****         proc->pr_timestamp          = 0;
ARM GAS  C:\Users\gx\AppData\Local\Temp\ccszQoK7.s 			page 25


 224              		.loc 1 941 37 is_stmt 0 view .LVU76
 225 003c 0023     		movs	r3, #0
 226 003e 2362     		str	r3, [r4, #32]
 942:lvgl/lvgl/src/core/lv_indev.c ****         proc->longpr_rep_timestamp  = 0;
 227              		.loc 1 942 9 is_stmt 1 view .LVU77
 942:lvgl/lvgl/src/core/lv_indev.c ****         proc->longpr_rep_timestamp  = 0;
 228              		.loc 1 942 37 is_stmt 0 view .LVU78
 229 0040 2364     		str	r3, [r4, #64]
 943:lvgl/lvgl/src/core/lv_indev.c **** 
 230              		.loc 1 943 9 is_stmt 1 view .LVU79
 943:lvgl/lvgl/src/core/lv_indev.c **** 
 231              		.loc 1 943 37 is_stmt 0 view .LVU80
 232 0042 6364     		str	r3, [r4, #68]
 233              	.L11:
 949:lvgl/lvgl/src/core/lv_indev.c ****         _lv_indev_scroll_throw_handler(proc);
 234              		.loc 1 949 5 is_stmt 1 view .LVU81
 949:lvgl/lvgl/src/core/lv_indev.c ****         _lv_indev_scroll_throw_handler(proc);
 235              		.loc 1 949 7 is_stmt 0 view .LVU82
 236 0044 2DB1     		cbz	r5, .L9
 950:lvgl/lvgl/src/core/lv_indev.c ****         if(indev_reset_check(proc)) return;
 237              		.loc 1 950 9 is_stmt 1 view .LVU83
 238 0046 2046     		mov	r0, r4
 239 0048 FFF7FEFF 		bl	_lv_indev_scroll_throw_handler
 240              	.LVL8:
 951:lvgl/lvgl/src/core/lv_indev.c ****     }
 241              		.loc 1 951 9 view .LVU84
 951:lvgl/lvgl/src/core/lv_indev.c ****     }
 242              		.loc 1 951 12 is_stmt 0 view .LVU85
 243 004c 2046     		mov	r0, r4
 244 004e FFF7FEFF 		bl	indev_reset_check
 245              	.LVL9:
 246              	.L9:
 953:lvgl/lvgl/src/core/lv_indev.c **** 
 247              		.loc 1 953 1 view .LVU86
 248 0052 38BD     		pop	{r3, r4, r5, pc}
 249              	.LVL10:
 250              	.L16:
 932:lvgl/lvgl/src/core/lv_indev.c ****                 lv_event_send(indev_obj_act, LV_EVENT_SHORT_CLICKED, indev_act);
 251              		.loc 1 932 13 is_stmt 1 view .LVU87
 932:lvgl/lvgl/src/core/lv_indev.c ****                 lv_event_send(indev_obj_act, LV_EVENT_SHORT_CLICKED, indev_act);
 252              		.loc 1 932 35 is_stmt 0 view .LVU88
 253 0054 6378     		ldrb	r3, [r4, #1]	@ zero_extendqisi2
 932:lvgl/lvgl/src/core/lv_indev.c ****                 lv_event_send(indev_obj_act, LV_EVENT_SHORT_CLICKED, indev_act);
 254              		.loc 1 932 15 view .LVU89
 255 0056 13F0010F 		tst	r3, #1
 256 005a 0BD1     		bne	.L14
 933:lvgl/lvgl/src/core/lv_indev.c ****                 if(indev_reset_check(proc)) return;
 257              		.loc 1 933 17 is_stmt 1 view .LVU90
 258 005c 0D4B     		ldr	r3, .L17+4
 259 005e 1A68     		ldr	r2, [r3]
 260 0060 0421     		movs	r1, #4
 261 0062 0B4B     		ldr	r3, .L17
 262 0064 1868     		ldr	r0, [r3]
 263 0066 FFF7FEFF 		bl	lv_event_send
 264              	.LVL11:
 934:lvgl/lvgl/src/core/lv_indev.c ****             }
 265              		.loc 1 934 17 view .LVU91
ARM GAS  C:\Users\gx\AppData\Local\Temp\ccszQoK7.s 			page 26


 934:lvgl/lvgl/src/core/lv_indev.c ****             }
 266              		.loc 1 934 20 is_stmt 0 view .LVU92
 267 006a 2046     		mov	r0, r4
 268 006c FFF7FEFF 		bl	indev_reset_check
 269              	.LVL12:
 934:lvgl/lvgl/src/core/lv_indev.c ****             }
 270              		.loc 1 934 19 view .LVU93
 271 0070 0028     		cmp	r0, #0
 272 0072 EED1     		bne	.L9
 273              	.L14:
 937:lvgl/lvgl/src/core/lv_indev.c ****             if(indev_reset_check(proc)) return;
 274              		.loc 1 937 13 is_stmt 1 view .LVU94
 275 0074 074B     		ldr	r3, .L17+4
 276 0076 1A68     		ldr	r2, [r3]
 277 0078 0721     		movs	r1, #7
 278 007a 054B     		ldr	r3, .L17
 279 007c 1868     		ldr	r0, [r3]
 280 007e FFF7FEFF 		bl	lv_event_send
 281              	.LVL13:
 938:lvgl/lvgl/src/core/lv_indev.c ****         }
 282              		.loc 1 938 13 view .LVU95
 938:lvgl/lvgl/src/core/lv_indev.c ****         }
 283              		.loc 1 938 16 is_stmt 0 view .LVU96
 284 0082 2046     		mov	r0, r4
 285 0084 FFF7FEFF 		bl	indev_reset_check
 286              	.LVL14:
 938:lvgl/lvgl/src/core/lv_indev.c ****         }
 287              		.loc 1 938 15 view .LVU97
 288 0088 0028     		cmp	r0, #0
 289 008a D7D0     		beq	.L13
 290 008c E1E7     		b	.L9
 291              	.L18:
 292 008e 00BF     		.align	2
 293              	.L17:
 294 0090 00000000 		.word	.LANCHOR0
 295 0094 00000000 		.word	.LANCHOR1
 296              		.cfi_endproc
 297              	.LFE182:
 299              		.section	.text.indev_click_focus,"ax",%progbits
 300              		.align	1
 301              		.syntax unified
 302              		.thumb
 303              		.thumb_func
 304              		.fpu fpv4-sp-d16
 306              	indev_click_focus:
 307              	.LVL15:
 308              	.LFB184:
 988:lvgl/lvgl/src/core/lv_indev.c ****     /*Handle click focus*/
 309              		.loc 1 988 1 is_stmt 1 view -0
 310              		.cfi_startproc
 311              		@ args = 0, pretend = 0, frame = 0
 312              		@ frame_needed = 0, uses_anonymous_args = 0
 988:lvgl/lvgl/src/core/lv_indev.c ****     /*Handle click focus*/
 313              		.loc 1 988 1 is_stmt 0 view .LVU99
 314 0000 70B5     		push	{r4, r5, r6, lr}
 315              	.LCFI1:
 316              		.cfi_def_cfa_offset 16
ARM GAS  C:\Users\gx\AppData\Local\Temp\ccszQoK7.s 			page 27


 317              		.cfi_offset 4, -16
 318              		.cfi_offset 5, -12
 319              		.cfi_offset 6, -8
 320              		.cfi_offset 14, -4
 321 0002 0446     		mov	r4, r0
 990:lvgl/lvgl/src/core/lv_indev.c ****     if(lv_obj_has_flag(obj_to_focus, LV_OBJ_FLAG_CLICK_FOCUSABLE) &&
 322              		.loc 1 990 5 is_stmt 1 view .LVU100
 990:lvgl/lvgl/src/core/lv_indev.c ****     if(lv_obj_has_flag(obj_to_focus, LV_OBJ_FLAG_CLICK_FOCUSABLE) &&
 323              		.loc 1 990 16 is_stmt 0 view .LVU101
 324 0004 3B4B     		ldr	r3, .L34
 325 0006 1D68     		ldr	r5, [r3]
 326              	.LVL16:
 991:lvgl/lvgl/src/core/lv_indev.c ****        proc->types.pointer.last_pressed != obj_to_focus) {
 327              		.loc 1 991 5 is_stmt 1 view .LVU102
 991:lvgl/lvgl/src/core/lv_indev.c ****        proc->types.pointer.last_pressed != obj_to_focus) {
 328              		.loc 1 991 8 is_stmt 0 view .LVU103
 329 0008 0421     		movs	r1, #4
 330 000a 2846     		mov	r0, r5
 331              	.LVL17:
 991:lvgl/lvgl/src/core/lv_indev.c ****        proc->types.pointer.last_pressed != obj_to_focus) {
 332              		.loc 1 991 8 view .LVU104
 333 000c FFF7FEFF 		bl	lv_obj_has_flag
 334              	.LVL18:
 991:lvgl/lvgl/src/core/lv_indev.c ****        proc->types.pointer.last_pressed != obj_to_focus) {
 335              		.loc 1 991 7 view .LVU105
 336 0010 30B3     		cbz	r0, .L19
 992:lvgl/lvgl/src/core/lv_indev.c ****         lv_group_t * g_act = lv_obj_get_group(obj_to_focus);
 337              		.loc 1 992 27 discriminator 1 view .LVU106
 338 0012 E36A     		ldr	r3, [r4, #44]
 991:lvgl/lvgl/src/core/lv_indev.c ****        proc->types.pointer.last_pressed != obj_to_focus) {
 339              		.loc 1 991 67 discriminator 1 view .LVU107
 340 0014 AB42     		cmp	r3, r5
 341 0016 23D0     		beq	.L19
 342              	.LBB2:
 993:lvgl/lvgl/src/core/lv_indev.c ****         lv_group_t * g_prev = proc->types.pointer.last_pressed ? lv_obj_get_group(proc->types.point
 343              		.loc 1 993 9 is_stmt 1 view .LVU108
 993:lvgl/lvgl/src/core/lv_indev.c ****         lv_group_t * g_prev = proc->types.pointer.last_pressed ? lv_obj_get_group(proc->types.point
 344              		.loc 1 993 30 is_stmt 0 view .LVU109
 345 0018 2846     		mov	r0, r5
 346 001a FFF7FEFF 		bl	lv_obj_get_group
 347              	.LVL19:
 348 001e 0646     		mov	r6, r0
 349              	.LVL20:
 994:lvgl/lvgl/src/core/lv_indev.c **** 
 350              		.loc 1 994 9 is_stmt 1 view .LVU110
 994:lvgl/lvgl/src/core/lv_indev.c **** 
 351              		.loc 1 994 50 is_stmt 0 view .LVU111
 352 0020 E06A     		ldr	r0, [r4, #44]
 353              	.LVL21:
 994:lvgl/lvgl/src/core/lv_indev.c **** 
 354              		.loc 1 994 117 view .LVU112
 355 0022 08B1     		cbz	r0, .L21
 994:lvgl/lvgl/src/core/lv_indev.c **** 
 356              		.loc 1 994 66 discriminator 1 view .LVU113
 357 0024 FFF7FEFF 		bl	lv_obj_get_group
 358              	.LVL22:
 359              	.L21:
ARM GAS  C:\Users\gx\AppData\Local\Temp\ccszQoK7.s 			page 28


 997:lvgl/lvgl/src/core/lv_indev.c ****             /*The objects are in a group*/
 360              		.loc 1 997 9 is_stmt 1 discriminator 4 view .LVU114
 997:lvgl/lvgl/src/core/lv_indev.c ****             /*The objects are in a group*/
 361              		.loc 1 997 11 is_stmt 0 discriminator 4 view .LVU115
 362 0028 B042     		cmp	r0, r6
 363 002a 1AD0     		beq	.L31
1017:lvgl/lvgl/src/core/lv_indev.c ****                 lv_event_send(proc->types.pointer.last_pressed, LV_EVENT_DEFOCUSED, indev_act);
 364              		.loc 1 1017 13 is_stmt 1 view .LVU116
1017:lvgl/lvgl/src/core/lv_indev.c ****                 lv_event_send(proc->types.pointer.last_pressed, LV_EVENT_DEFOCUSED, indev_act);
 365              		.loc 1 1017 15 is_stmt 0 view .LVU117
 366 002c 0028     		cmp	r0, #0
 367 002e 3AD0     		beq	.L32
 368              	.L26:
1023:lvgl/lvgl/src/core/lv_indev.c ****                     /*If the prev. object also wasn't in a group defocus it*/
 369              		.loc 1 1023 17 is_stmt 1 view .LVU118
1023:lvgl/lvgl/src/core/lv_indev.c ****                     /*If the prev. object also wasn't in a group defocus it*/
 370              		.loc 1 1023 39 is_stmt 0 view .LVU119
 371 0030 E36A     		ldr	r3, [r4, #44]
1023:lvgl/lvgl/src/core/lv_indev.c ****                     /*If the prev. object also wasn't in a group defocus it*/
 372              		.loc 1 1023 19 view .LVU120
 373 0032 5BB1     		cbz	r3, .L27
1025:lvgl/lvgl/src/core/lv_indev.c ****                         lv_event_send(proc->types.pointer.last_pressed, LV_EVENT_DEFOCUSED, indev_a
 374              		.loc 1 1025 21 is_stmt 1 view .LVU121
1025:lvgl/lvgl/src/core/lv_indev.c ****                         lv_event_send(proc->types.pointer.last_pressed, LV_EVENT_DEFOCUSED, indev_a
 375              		.loc 1 1025 23 is_stmt 0 view .LVU122
 376 0034 0028     		cmp	r0, #0
 377 0036 45D0     		beq	.L33
1031:lvgl/lvgl/src/core/lv_indev.c ****                         if(indev_reset_check(proc)) return;
 378              		.loc 1 1031 25 is_stmt 1 view .LVU123
 379 0038 2F4A     		ldr	r2, .L34+4
 380 003a 1268     		ldr	r2, [r2]
 381 003c 1021     		movs	r1, #16
 382 003e 1846     		mov	r0, r3
 383              	.LVL23:
1031:lvgl/lvgl/src/core/lv_indev.c ****                         if(indev_reset_check(proc)) return;
 384              		.loc 1 1031 25 is_stmt 0 view .LVU124
 385 0040 FFF7FEFF 		bl	lv_event_send
 386              	.LVL24:
1032:lvgl/lvgl/src/core/lv_indev.c ****                     }
 387              		.loc 1 1032 25 is_stmt 1 view .LVU125
1032:lvgl/lvgl/src/core/lv_indev.c ****                     }
 388              		.loc 1 1032 28 is_stmt 0 view .LVU126
 389 0044 2046     		mov	r0, r4
 390 0046 FFF7FEFF 		bl	indev_reset_check
 391              	.LVL25:
1032:lvgl/lvgl/src/core/lv_indev.c ****                     }
 392              		.loc 1 1032 27 view .LVU127
 393 004a 48B9     		cbnz	r0, .L19
 394              	.L27:
1038:lvgl/lvgl/src/core/lv_indev.c ****                 lv_group_focus_obj(obj_to_focus);
 395              		.loc 1 1038 13 is_stmt 1 view .LVU128
1038:lvgl/lvgl/src/core/lv_indev.c ****                 lv_group_focus_obj(obj_to_focus);
 396              		.loc 1 1038 15 is_stmt 0 view .LVU129
 397 004c 002E     		cmp	r6, #0
 398 004e 45D0     		beq	.L29
1039:lvgl/lvgl/src/core/lv_indev.c ****                 if(indev_reset_check(proc)) return;
 399              		.loc 1 1039 17 is_stmt 1 view .LVU130
ARM GAS  C:\Users\gx\AppData\Local\Temp\ccszQoK7.s 			page 29


 400 0050 2846     		mov	r0, r5
 401 0052 FFF7FEFF 		bl	lv_group_focus_obj
 402              	.LVL26:
1040:lvgl/lvgl/src/core/lv_indev.c ****             }
 403              		.loc 1 1040 17 view .LVU131
1040:lvgl/lvgl/src/core/lv_indev.c ****             }
 404              		.loc 1 1040 20 is_stmt 0 view .LVU132
 405 0056 2046     		mov	r0, r4
 406 0058 FFF7FEFF 		bl	indev_reset_check
 407              	.LVL27:
1040:lvgl/lvgl/src/core/lv_indev.c ****             }
 408              		.loc 1 1040 19 view .LVU133
 409 005c 00B9     		cbnz	r0, .L19
 410              	.L24:
1047:lvgl/lvgl/src/core/lv_indev.c ****     }
 411              		.loc 1 1047 9 is_stmt 1 view .LVU134
1047:lvgl/lvgl/src/core/lv_indev.c ****     }
 412              		.loc 1 1047 42 is_stmt 0 view .LVU135
 413 005e E562     		str	r5, [r4, #44]
 414              	.LVL28:
 415              	.L19:
1047:lvgl/lvgl/src/core/lv_indev.c ****     }
 416              		.loc 1 1047 42 view .LVU136
 417              	.LBE2:
1050:lvgl/lvgl/src/core/lv_indev.c **** 
 418              		.loc 1 1050 1 view .LVU137
 419 0060 70BD     		pop	{r4, r5, r6, pc}
 420              	.LVL29:
 421              	.L31:
 422              	.LBB3:
 999:lvgl/lvgl/src/core/lv_indev.c ****                 lv_group_focus_obj(obj_to_focus);
 423              		.loc 1 999 13 is_stmt 1 view .LVU138
 999:lvgl/lvgl/src/core/lv_indev.c ****                 lv_group_focus_obj(obj_to_focus);
 424              		.loc 1 999 15 is_stmt 0 view .LVU139
 425 0062 46B1     		cbz	r6, .L23
1000:lvgl/lvgl/src/core/lv_indev.c ****                 if(indev_reset_check(proc)) return;
 426              		.loc 1 1000 17 is_stmt 1 view .LVU140
 427 0064 2846     		mov	r0, r5
 428              	.LVL30:
1000:lvgl/lvgl/src/core/lv_indev.c ****                 if(indev_reset_check(proc)) return;
 429              		.loc 1 1000 17 is_stmt 0 view .LVU141
 430 0066 FFF7FEFF 		bl	lv_group_focus_obj
 431              	.LVL31:
1001:lvgl/lvgl/src/core/lv_indev.c ****             }
 432              		.loc 1 1001 17 is_stmt 1 view .LVU142
1001:lvgl/lvgl/src/core/lv_indev.c ****             }
 433              		.loc 1 1001 20 is_stmt 0 view .LVU143
 434 006a 2046     		mov	r0, r4
 435 006c FFF7FEFF 		bl	indev_reset_check
 436              	.LVL32:
1001:lvgl/lvgl/src/core/lv_indev.c ****             }
 437              		.loc 1 1001 19 view .LVU144
 438 0070 0028     		cmp	r0, #0
 439 0072 F4D0     		beq	.L24
 440 0074 F4E7     		b	.L19
 441              	.LVL33:
 442              	.L23:
ARM GAS  C:\Users\gx\AppData\Local\Temp\ccszQoK7.s 			page 30


1005:lvgl/lvgl/src/core/lv_indev.c ****                     lv_event_send(proc->types.pointer.last_pressed, LV_EVENT_DEFOCUSED, indev_act);
 443              		.loc 1 1005 17 is_stmt 1 view .LVU145
1005:lvgl/lvgl/src/core/lv_indev.c ****                     lv_event_send(proc->types.pointer.last_pressed, LV_EVENT_DEFOCUSED, indev_act);
 444              		.loc 1 1005 39 is_stmt 0 view .LVU146
 445 0076 E06A     		ldr	r0, [r4, #44]
 446              	.LVL34:
1005:lvgl/lvgl/src/core/lv_indev.c ****                     lv_event_send(proc->types.pointer.last_pressed, LV_EVENT_DEFOCUSED, indev_act);
 447              		.loc 1 1005 19 view .LVU147
 448 0078 48B1     		cbz	r0, .L25
1006:lvgl/lvgl/src/core/lv_indev.c ****                     if(indev_reset_check(proc)) return;
 449              		.loc 1 1006 21 is_stmt 1 view .LVU148
 450 007a 1F4B     		ldr	r3, .L34+4
 451 007c 1A68     		ldr	r2, [r3]
 452 007e 0F21     		movs	r1, #15
 453 0080 FFF7FEFF 		bl	lv_event_send
 454              	.LVL35:
1007:lvgl/lvgl/src/core/lv_indev.c ****                 }
 455              		.loc 1 1007 21 view .LVU149
1007:lvgl/lvgl/src/core/lv_indev.c ****                 }
 456              		.loc 1 1007 24 is_stmt 0 view .LVU150
 457 0084 2046     		mov	r0, r4
 458 0086 FFF7FEFF 		bl	indev_reset_check
 459              	.LVL36:
1007:lvgl/lvgl/src/core/lv_indev.c ****                 }
 460              		.loc 1 1007 23 view .LVU151
 461 008a 0028     		cmp	r0, #0
 462 008c E8D1     		bne	.L19
 463              	.L25:
1010:lvgl/lvgl/src/core/lv_indev.c ****                 if(indev_reset_check(proc)) return;
 464              		.loc 1 1010 17 is_stmt 1 view .LVU152
 465 008e 1A4B     		ldr	r3, .L34+4
 466 0090 1A68     		ldr	r2, [r3]
 467 0092 0E21     		movs	r1, #14
 468 0094 2846     		mov	r0, r5
 469 0096 FFF7FEFF 		bl	lv_event_send
 470              	.LVL37:
1011:lvgl/lvgl/src/core/lv_indev.c ****             }
 471              		.loc 1 1011 17 view .LVU153
1011:lvgl/lvgl/src/core/lv_indev.c ****             }
 472              		.loc 1 1011 20 is_stmt 0 view .LVU154
 473 009a 2046     		mov	r0, r4
 474 009c FFF7FEFF 		bl	indev_reset_check
 475              	.LVL38:
1011:lvgl/lvgl/src/core/lv_indev.c ****             }
 476              		.loc 1 1011 19 view .LVU155
 477 00a0 0028     		cmp	r0, #0
 478 00a2 DCD0     		beq	.L24
 479 00a4 DCE7     		b	.L19
 480              	.LVL39:
 481              	.L32:
1017:lvgl/lvgl/src/core/lv_indev.c ****                 lv_event_send(proc->types.pointer.last_pressed, LV_EVENT_DEFOCUSED, indev_act);
 482              		.loc 1 1017 53 discriminator 1 view .LVU156
 483 00a6 E36A     		ldr	r3, [r4, #44]
1017:lvgl/lvgl/src/core/lv_indev.c ****                 lv_event_send(proc->types.pointer.last_pressed, LV_EVENT_DEFOCUSED, indev_act);
 484              		.loc 1 1017 31 discriminator 1 view .LVU157
 485 00a8 002B     		cmp	r3, #0
 486 00aa C1D0     		beq	.L26
ARM GAS  C:\Users\gx\AppData\Local\Temp\ccszQoK7.s 			page 31


1018:lvgl/lvgl/src/core/lv_indev.c ****                 if(indev_reset_check(proc)) return;
 487              		.loc 1 1018 17 is_stmt 1 view .LVU158
 488 00ac 124A     		ldr	r2, .L34+4
 489 00ae 1268     		ldr	r2, [r2]
 490 00b0 0F21     		movs	r1, #15
 491 00b2 1846     		mov	r0, r3
 492              	.LVL40:
1018:lvgl/lvgl/src/core/lv_indev.c ****                 if(indev_reset_check(proc)) return;
 493              		.loc 1 1018 17 is_stmt 0 view .LVU159
 494 00b4 FFF7FEFF 		bl	lv_event_send
 495              	.LVL41:
1019:lvgl/lvgl/src/core/lv_indev.c ****             }
 496              		.loc 1 1019 17 is_stmt 1 view .LVU160
1019:lvgl/lvgl/src/core/lv_indev.c ****             }
 497              		.loc 1 1019 20 is_stmt 0 view .LVU161
 498 00b8 2046     		mov	r0, r4
 499 00ba FFF7FEFF 		bl	indev_reset_check
 500              	.LVL42:
1019:lvgl/lvgl/src/core/lv_indev.c ****             }
 501              		.loc 1 1019 19 view .LVU162
 502 00be 0028     		cmp	r0, #0
 503 00c0 C4D0     		beq	.L27
 504 00c2 CDE7     		b	.L19
 505              	.LVL43:
 506              	.L33:
1026:lvgl/lvgl/src/core/lv_indev.c ****                         if(indev_reset_check(proc)) return;
 507              		.loc 1 1026 25 is_stmt 1 view .LVU163
 508 00c4 0C4A     		ldr	r2, .L34+4
 509 00c6 1268     		ldr	r2, [r2]
 510 00c8 0F21     		movs	r1, #15
 511 00ca 1846     		mov	r0, r3
 512              	.LVL44:
1026:lvgl/lvgl/src/core/lv_indev.c ****                         if(indev_reset_check(proc)) return;
 513              		.loc 1 1026 25 is_stmt 0 view .LVU164
 514 00cc FFF7FEFF 		bl	lv_event_send
 515              	.LVL45:
1027:lvgl/lvgl/src/core/lv_indev.c ****                     }
 516              		.loc 1 1027 25 is_stmt 1 view .LVU165
1027:lvgl/lvgl/src/core/lv_indev.c ****                     }
 517              		.loc 1 1027 28 is_stmt 0 view .LVU166
 518 00d0 2046     		mov	r0, r4
 519 00d2 FFF7FEFF 		bl	indev_reset_check
 520              	.LVL46:
1027:lvgl/lvgl/src/core/lv_indev.c ****                     }
 521              		.loc 1 1027 27 view .LVU167
 522 00d6 0028     		cmp	r0, #0
 523 00d8 B8D0     		beq	.L27
 524 00da C1E7     		b	.L19
 525              	.L29:
1043:lvgl/lvgl/src/core/lv_indev.c ****                 if(indev_reset_check(proc)) return;
 526              		.loc 1 1043 17 is_stmt 1 view .LVU168
 527 00dc 064B     		ldr	r3, .L34+4
 528 00de 1A68     		ldr	r2, [r3]
 529 00e0 0E21     		movs	r1, #14
 530 00e2 2846     		mov	r0, r5
 531 00e4 FFF7FEFF 		bl	lv_event_send
 532              	.LVL47:
ARM GAS  C:\Users\gx\AppData\Local\Temp\ccszQoK7.s 			page 32


1044:lvgl/lvgl/src/core/lv_indev.c ****             }
 533              		.loc 1 1044 17 view .LVU169
1044:lvgl/lvgl/src/core/lv_indev.c ****             }
 534              		.loc 1 1044 20 is_stmt 0 view .LVU170
 535 00e8 2046     		mov	r0, r4
 536 00ea FFF7FEFF 		bl	indev_reset_check
 537              	.LVL48:
1044:lvgl/lvgl/src/core/lv_indev.c ****             }
 538              		.loc 1 1044 19 view .LVU171
 539 00ee 0028     		cmp	r0, #0
 540 00f0 B5D0     		beq	.L24
 541 00f2 B5E7     		b	.L19
 542              	.L35:
 543              		.align	2
 544              	.L34:
 545 00f4 00000000 		.word	.LANCHOR0
 546 00f8 00000000 		.word	.LANCHOR1
 547              	.LBE3:
 548              		.cfi_endproc
 549              	.LFE184:
 551              		.section	.text.indev_gesture,"ax",%progbits
 552              		.align	1
 553              		.syntax unified
 554              		.thumb
 555              		.thumb_func
 556              		.fpu fpv4-sp-d16
 558              	indev_gesture:
 559              	.LVL49:
 560              	.LFB185:
1057:lvgl/lvgl/src/core/lv_indev.c **** 
 561              		.loc 1 1057 1 is_stmt 1 view -0
 562              		.cfi_startproc
 563              		@ args = 0, pretend = 0, frame = 0
 564              		@ frame_needed = 0, uses_anonymous_args = 0
1057:lvgl/lvgl/src/core/lv_indev.c **** 
 565              		.loc 1 1057 1 is_stmt 0 view .LVU173
 566 0000 F8B5     		push	{r3, r4, r5, r6, r7, lr}
 567              	.LCFI2:
 568              		.cfi_def_cfa_offset 24
 569              		.cfi_offset 3, -24
 570              		.cfi_offset 4, -20
 571              		.cfi_offset 5, -16
 572              		.cfi_offset 6, -12
 573              		.cfi_offset 7, -8
 574              		.cfi_offset 14, -4
1059:lvgl/lvgl/src/core/lv_indev.c ****     if(proc->types.pointer.gesture_sent) return;
 575              		.loc 1 1059 5 is_stmt 1 view .LVU174
1059:lvgl/lvgl/src/core/lv_indev.c ****     if(proc->types.pointer.gesture_sent) return;
 576              		.loc 1 1059 27 is_stmt 0 view .LVU175
 577 0002 836A     		ldr	r3, [r0, #40]
1059:lvgl/lvgl/src/core/lv_indev.c ****     if(proc->types.pointer.gesture_sent) return;
 578              		.loc 1 1059 7 view .LVU176
 579 0004 03B1     		cbz	r3, .L48
 580              	.LVL50:
 581              	.L36:
1102:lvgl/lvgl/src/core/lv_indev.c **** 
 582              		.loc 1 1102 1 view .LVU177
ARM GAS  C:\Users\gx\AppData\Local\Temp\ccszQoK7.s 			page 33


 583 0006 F8BD     		pop	{r3, r4, r5, r6, r7, pc}
 584              	.LVL51:
 585              	.L48:
1102:lvgl/lvgl/src/core/lv_indev.c **** 
 586              		.loc 1 1102 1 view .LVU178
 587 0008 0546     		mov	r5, r0
1060:lvgl/lvgl/src/core/lv_indev.c **** 
 588              		.loc 1 1060 5 is_stmt 1 view .LVU179
1060:lvgl/lvgl/src/core/lv_indev.c **** 
 589              		.loc 1 1060 8 is_stmt 0 view .LVU180
 590 000a 90F83D30 		ldrb	r3, [r0, #61]	@ zero_extendqisi2
1060:lvgl/lvgl/src/core/lv_indev.c **** 
 591              		.loc 1 1060 7 view .LVU181
 592 000e 13F0010F 		tst	r3, #1
 593 0012 F8D1     		bne	.L36
1062:lvgl/lvgl/src/core/lv_indev.c **** 
 594              		.loc 1 1062 5 is_stmt 1 view .LVU182
1062:lvgl/lvgl/src/core/lv_indev.c **** 
 595              		.loc 1 1062 16 is_stmt 0 view .LVU183
 596 0014 046A     		ldr	r4, [r0, #32]
 597              	.LVL52:
1065:lvgl/lvgl/src/core/lv_indev.c ****         gesture_obj = lv_obj_get_parent(gesture_obj);
 598              		.loc 1 1065 5 is_stmt 1 view .LVU184
1065:lvgl/lvgl/src/core/lv_indev.c ****         gesture_obj = lv_obj_get_parent(gesture_obj);
 599              		.loc 1 1065 10 is_stmt 0 view .LVU185
 600 0016 03E0     		b	.L38
 601              	.LVL53:
 602              	.L40:
1066:lvgl/lvgl/src/core/lv_indev.c ****     }
 603              		.loc 1 1066 9 is_stmt 1 view .LVU186
1066:lvgl/lvgl/src/core/lv_indev.c ****     }
 604              		.loc 1 1066 23 is_stmt 0 view .LVU187
 605 0018 2046     		mov	r0, r4
 606 001a FFF7FEFF 		bl	lv_obj_get_parent
 607              	.LVL54:
 608 001e 0446     		mov	r4, r0
 609              	.LVL55:
 610              	.L38:
1065:lvgl/lvgl/src/core/lv_indev.c ****         gesture_obj = lv_obj_get_parent(gesture_obj);
 611              		.loc 1 1065 10 is_stmt 1 view .LVU188
 612 0020 34B1     		cbz	r4, .L39
1065:lvgl/lvgl/src/core/lv_indev.c ****         gesture_obj = lv_obj_get_parent(gesture_obj);
 613              		.loc 1 1065 26 is_stmt 0 discriminator 1 view .LVU189
 614 0022 4FF40051 		mov	r1, #8192
 615 0026 2046     		mov	r0, r4
 616 0028 FFF7FEFF 		bl	lv_obj_has_flag
 617              	.LVL56:
1065:lvgl/lvgl/src/core/lv_indev.c ****         gesture_obj = lv_obj_get_parent(gesture_obj);
 618              		.loc 1 1065 23 discriminator 1 view .LVU190
 619 002c 0028     		cmp	r0, #0
 620 002e F3D1     		bne	.L40
 621              	.L39:
1069:lvgl/lvgl/src/core/lv_indev.c **** 
 622              		.loc 1 1069 5 is_stmt 1 view .LVU191
1069:lvgl/lvgl/src/core/lv_indev.c **** 
 623              		.loc 1 1069 7 is_stmt 0 view .LVU192
 624 0030 002C     		cmp	r4, #0
ARM GAS  C:\Users\gx\AppData\Local\Temp\ccszQoK7.s 			page 34


 625 0032 E8D0     		beq	.L36
1071:lvgl/lvgl/src/core/lv_indev.c ****        (LV_ABS(proc->types.pointer.vect.y) < indev_act->driver->gesture_min_velocity)) {
 626              		.loc 1 1071 5 is_stmt 1 view .LVU193
1071:lvgl/lvgl/src/core/lv_indev.c ****        (LV_ABS(proc->types.pointer.vect.y) < indev_act->driver->gesture_min_velocity)) {
 627              		.loc 1 1071 9 is_stmt 0 view .LVU194
 628 0034 B5F91030 		ldrsh	r3, [r5, #16]
 629 0038 83EAE371 		eor	r1, r3, r3, asr #31
 630 003c A1EBE371 		sub	r1, r1, r3, asr #31
 631 0040 89B2     		uxth	r1, r1
1071:lvgl/lvgl/src/core/lv_indev.c ****        (LV_ABS(proc->types.pointer.vect.y) < indev_act->driver->gesture_min_velocity)) {
 632              		.loc 1 1071 55 view .LVU195
 633 0042 314A     		ldr	r2, .L49
 634 0044 1268     		ldr	r2, [r2]
 635 0046 1068     		ldr	r0, [r2]
1071:lvgl/lvgl/src/core/lv_indev.c ****        (LV_ABS(proc->types.pointer.vect.y) < indev_act->driver->gesture_min_velocity)) {
 636              		.loc 1 1071 44 view .LVU196
 637 0048 807E     		ldrb	r0, [r0, #26]	@ zero_extendqisi2
1071:lvgl/lvgl/src/core/lv_indev.c ****        (LV_ABS(proc->types.pointer.vect.y) < indev_act->driver->gesture_min_velocity)) {
 638              		.loc 1 1071 7 view .LVU197
 639 004a 8142     		cmp	r1, r0
 640 004c 0AD2     		bcs	.L41
1072:lvgl/lvgl/src/core/lv_indev.c ****         proc->types.pointer.gesture_sum.x = 0;
 641              		.loc 1 1072 9 discriminator 1 view .LVU198
 642 004e B5F91210 		ldrsh	r1, [r5, #18]
 643 0052 0029     		cmp	r1, #0
 644 0054 B8BF     		it	lt
 645 0056 4942     		rsblt	r1, r1, #0
 646 0058 89B2     		uxth	r1, r1
1071:lvgl/lvgl/src/core/lv_indev.c ****        (LV_ABS(proc->types.pointer.vect.y) < indev_act->driver->gesture_min_velocity)) {
 647              		.loc 1 1071 87 discriminator 1 view .LVU199
 648 005a 8842     		cmp	r0, r1
 649 005c 02D9     		bls	.L41
1073:lvgl/lvgl/src/core/lv_indev.c ****         proc->types.pointer.gesture_sum.y = 0;
 650              		.loc 1 1073 9 is_stmt 1 view .LVU200
1073:lvgl/lvgl/src/core/lv_indev.c ****         proc->types.pointer.gesture_sum.y = 0;
 651              		.loc 1 1073 43 is_stmt 0 view .LVU201
 652 005e 0021     		movs	r1, #0
 653 0060 2987     		strh	r1, [r5, #56]	@ movhi
1074:lvgl/lvgl/src/core/lv_indev.c ****     }
 654              		.loc 1 1074 9 is_stmt 1 view .LVU202
1074:lvgl/lvgl/src/core/lv_indev.c ****     }
 655              		.loc 1 1074 43 is_stmt 0 view .LVU203
 656 0062 6987     		strh	r1, [r5, #58]	@ movhi
 657              	.L41:
1078:lvgl/lvgl/src/core/lv_indev.c ****     proc->types.pointer.gesture_sum.y += proc->types.pointer.vect.y;
 658              		.loc 1 1078 5 is_stmt 1 view .LVU204
1078:lvgl/lvgl/src/core/lv_indev.c ****     proc->types.pointer.gesture_sum.y += proc->types.pointer.vect.y;
 659              		.loc 1 1078 39 is_stmt 0 view .LVU205
 660 0064 298F     		ldrh	r1, [r5, #56]
 661 0066 11FA83F3 		uxtah	r3, r1, r3
 662 006a 1BB2     		sxth	r3, r3
 663 006c 2B87     		strh	r3, [r5, #56]	@ movhi
1079:lvgl/lvgl/src/core/lv_indev.c **** 
 664              		.loc 1 1079 5 is_stmt 1 view .LVU206
1079:lvgl/lvgl/src/core/lv_indev.c **** 
 665              		.loc 1 1079 66 is_stmt 0 view .LVU207
 666 006e 698A     		ldrh	r1, [r5, #18]
ARM GAS  C:\Users\gx\AppData\Local\Temp\ccszQoK7.s 			page 35


1079:lvgl/lvgl/src/core/lv_indev.c **** 
 667              		.loc 1 1079 39 view .LVU208
 668 0070 688F     		ldrh	r0, [r5, #58]
 669 0072 0144     		add	r1, r1, r0
 670 0074 09B2     		sxth	r1, r1
 671 0076 6987     		strh	r1, [r5, #58]	@ movhi
1081:lvgl/lvgl/src/core/lv_indev.c ****        (LV_ABS(proc->types.pointer.gesture_sum.y) > indev_act->driver->gesture_limit)) {
 672              		.loc 1 1081 5 is_stmt 1 view .LVU209
1081:lvgl/lvgl/src/core/lv_indev.c ****        (LV_ABS(proc->types.pointer.gesture_sum.y) > indev_act->driver->gesture_limit)) {
 673              		.loc 1 1081 9 is_stmt 0 view .LVU210
 674 0078 83EAE370 		eor	r0, r3, r3, asr #31
 675 007c A0EBE370 		sub	r0, r0, r3, asr #31
 676 0080 80B2     		uxth	r0, r0
1081:lvgl/lvgl/src/core/lv_indev.c ****        (LV_ABS(proc->types.pointer.gesture_sum.y) > indev_act->driver->gesture_limit)) {
 677              		.loc 1 1081 62 view .LVU211
 678 0082 1668     		ldr	r6, [r2]
1081:lvgl/lvgl/src/core/lv_indev.c ****        (LV_ABS(proc->types.pointer.gesture_sum.y) > indev_act->driver->gesture_limit)) {
 679              		.loc 1 1081 51 view .LVU212
 680 0084 F67E     		ldrb	r6, [r6, #27]	@ zero_extendqisi2
1081:lvgl/lvgl/src/core/lv_indev.c ****        (LV_ABS(proc->types.pointer.gesture_sum.y) > indev_act->driver->gesture_limit)) {
 681              		.loc 1 1081 7 view .LVU213
 682 0086 B042     		cmp	r0, r6
 683 0088 06D8     		bhi	.L42
1082:lvgl/lvgl/src/core/lv_indev.c **** 
 684              		.loc 1 1082 9 discriminator 1 view .LVU214
 685 008a 81EAE177 		eor	r7, r1, r1, asr #31
 686 008e A7EBE177 		sub	r7, r7, r1, asr #31
 687 0092 BFB2     		uxth	r7, r7
1081:lvgl/lvgl/src/core/lv_indev.c ****        (LV_ABS(proc->types.pointer.gesture_sum.y) > indev_act->driver->gesture_limit)) {
 688              		.loc 1 1081 87 discriminator 1 view .LVU215
 689 0094 BE42     		cmp	r6, r7
 690 0096 B6D2     		bcs	.L36
 691              	.L42:
1084:lvgl/lvgl/src/core/lv_indev.c **** 
 692              		.loc 1 1084 9 is_stmt 1 view .LVU216
1084:lvgl/lvgl/src/core/lv_indev.c **** 
 693              		.loc 1 1084 42 is_stmt 0 view .LVU217
 694 0098 95F83D60 		ldrb	r6, [r5, #61]	@ zero_extendqisi2
 695 009c 46F00106 		orr	r6, r6, #1
 696 00a0 85F83D60 		strb	r6, [r5, #61]
1086:lvgl/lvgl/src/core/lv_indev.c ****             if(proc->types.pointer.gesture_sum.x > 0)
 697              		.loc 1 1086 9 is_stmt 1 view .LVU218
1086:lvgl/lvgl/src/core/lv_indev.c ****             if(proc->types.pointer.gesture_sum.x > 0)
 698              		.loc 1 1086 56 is_stmt 0 view .LVU219
 699 00a4 81EAE176 		eor	r6, r1, r1, asr #31
 700 00a8 A6EBE176 		sub	r6, r6, r1, asr #31
 701 00ac B6B2     		uxth	r6, r6
1086:lvgl/lvgl/src/core/lv_indev.c ****             if(proc->types.pointer.gesture_sum.x > 0)
 702              		.loc 1 1086 11 view .LVU220
 703 00ae B042     		cmp	r0, r6
 704 00b0 18D9     		bls	.L43
1087:lvgl/lvgl/src/core/lv_indev.c ****                 proc->types.pointer.gesture_dir = LV_DIR_RIGHT;
 705              		.loc 1 1087 13 is_stmt 1 view .LVU221
1087:lvgl/lvgl/src/core/lv_indev.c ****                 proc->types.pointer.gesture_dir = LV_DIR_RIGHT;
 706              		.loc 1 1087 15 is_stmt 0 view .LVU222
 707 00b2 002B     		cmp	r3, #0
 708 00b4 0EDD     		ble	.L44
ARM GAS  C:\Users\gx\AppData\Local\Temp\ccszQoK7.s 			page 36


1088:lvgl/lvgl/src/core/lv_indev.c ****             else
 709              		.loc 1 1088 17 is_stmt 1 view .LVU223
1088:lvgl/lvgl/src/core/lv_indev.c ****             else
 710              		.loc 1 1088 49 is_stmt 0 view .LVU224
 711 00b6 95F83C30 		ldrb	r3, [r5, #60]	@ zero_extendqisi2
 712 00ba 0221     		movs	r1, #2
 713 00bc 61F30713 		bfi	r3, r1, #4, #4
 714 00c0 85F83C30 		strb	r3, [r5, #60]
 715              	.L45:
1099:lvgl/lvgl/src/core/lv_indev.c ****         if(indev_reset_check(proc)) return;
 716              		.loc 1 1099 9 is_stmt 1 view .LVU225
 717 00c4 0C21     		movs	r1, #12
 718 00c6 2046     		mov	r0, r4
 719 00c8 FFF7FEFF 		bl	lv_event_send
 720              	.LVL57:
1100:lvgl/lvgl/src/core/lv_indev.c ****     }
 721              		.loc 1 1100 9 view .LVU226
1100:lvgl/lvgl/src/core/lv_indev.c ****     }
 722              		.loc 1 1100 12 is_stmt 0 view .LVU227
 723 00cc 2846     		mov	r0, r5
 724 00ce FFF7FEFF 		bl	indev_reset_check
 725              	.LVL58:
 726 00d2 98E7     		b	.L36
 727              	.L44:
1090:lvgl/lvgl/src/core/lv_indev.c ****         }
 728              		.loc 1 1090 17 is_stmt 1 view .LVU228
1090:lvgl/lvgl/src/core/lv_indev.c ****         }
 729              		.loc 1 1090 49 is_stmt 0 view .LVU229
 730 00d4 95F83C30 		ldrb	r3, [r5, #60]	@ zero_extendqisi2
 731 00d8 0121     		movs	r1, #1
 732 00da 61F30713 		bfi	r3, r1, #4, #4
 733 00de 85F83C30 		strb	r3, [r5, #60]
 734 00e2 EFE7     		b	.L45
 735              	.L43:
1093:lvgl/lvgl/src/core/lv_indev.c ****                 proc->types.pointer.gesture_dir = LV_DIR_BOTTOM;
 736              		.loc 1 1093 13 is_stmt 1 view .LVU230
1093:lvgl/lvgl/src/core/lv_indev.c ****                 proc->types.pointer.gesture_dir = LV_DIR_BOTTOM;
 737              		.loc 1 1093 15 is_stmt 0 view .LVU231
 738 00e4 0029     		cmp	r1, #0
 739 00e6 07DD     		ble	.L46
1094:lvgl/lvgl/src/core/lv_indev.c ****             else
 740              		.loc 1 1094 17 is_stmt 1 view .LVU232
1094:lvgl/lvgl/src/core/lv_indev.c ****             else
 741              		.loc 1 1094 49 is_stmt 0 view .LVU233
 742 00e8 95F83C30 		ldrb	r3, [r5, #60]	@ zero_extendqisi2
 743 00ec 0821     		movs	r1, #8
 744 00ee 61F30713 		bfi	r3, r1, #4, #4
 745 00f2 85F83C30 		strb	r3, [r5, #60]
 746 00f6 E5E7     		b	.L45
 747              	.L46:
1096:lvgl/lvgl/src/core/lv_indev.c ****         }
 748              		.loc 1 1096 17 is_stmt 1 view .LVU234
1096:lvgl/lvgl/src/core/lv_indev.c ****         }
 749              		.loc 1 1096 49 is_stmt 0 view .LVU235
 750 00f8 95F83C30 		ldrb	r3, [r5, #60]	@ zero_extendqisi2
 751 00fc 0421     		movs	r1, #4
 752 00fe 61F30713 		bfi	r3, r1, #4, #4
ARM GAS  C:\Users\gx\AppData\Local\Temp\ccszQoK7.s 			page 37


 753 0102 85F83C30 		strb	r3, [r5, #60]
 754 0106 DDE7     		b	.L45
 755              	.L50:
 756              		.align	2
 757              	.L49:
 758 0108 00000000 		.word	.LANCHOR1
 759              		.cfi_endproc
 760              	.LFE185:
 762              		.section	.text.indev_keypad_proc,"ax",%progbits
 763              		.align	1
 764              		.syntax unified
 765              		.thumb
 766              		.thumb_func
 767              		.fpu fpv4-sp-d16
 769              	indev_keypad_proc:
 770              	.LVL59:
 771              	.LFB178:
 376:lvgl/lvgl/src/core/lv_indev.c ****     if(data->state == LV_INDEV_STATE_PRESSED && i->proc.wait_until_release) return;
 772              		.loc 1 376 1 is_stmt 1 view -0
 773              		.cfi_startproc
 774              		@ args = 0, pretend = 0, frame = 0
 775              		@ frame_needed = 0, uses_anonymous_args = 0
 376:lvgl/lvgl/src/core/lv_indev.c ****     if(data->state == LV_INDEV_STATE_PRESSED && i->proc.wait_until_release) return;
 776              		.loc 1 376 1 is_stmt 0 view .LVU237
 777 0000 70B5     		push	{r4, r5, r6, lr}
 778              	.LCFI3:
 779              		.cfi_def_cfa_offset 16
 780              		.cfi_offset 4, -16
 781              		.cfi_offset 5, -12
 782              		.cfi_offset 6, -8
 783              		.cfi_offset 14, -4
 784 0002 0446     		mov	r4, r0
 785 0004 0D46     		mov	r5, r1
 377:lvgl/lvgl/src/core/lv_indev.c **** 
 786              		.loc 1 377 5 is_stmt 1 view .LVU238
 377:lvgl/lvgl/src/core/lv_indev.c **** 
 787              		.loc 1 377 12 is_stmt 0 view .LVU239
 788 0006 8B7B     		ldrb	r3, [r1, #14]	@ zero_extendqisi2
 377:lvgl/lvgl/src/core/lv_indev.c **** 
 789              		.loc 1 377 7 view .LVU240
 790 0008 012B     		cmp	r3, #1
 791 000a 26D0     		beq	.L70
 792              	.L52:
 379:lvgl/lvgl/src/core/lv_indev.c ****         i->proc.wait_until_release      = 0;
 793              		.loc 1 379 5 is_stmt 1 view .LVU241
 379:lvgl/lvgl/src/core/lv_indev.c ****         i->proc.wait_until_release      = 0;
 794              		.loc 1 379 8 is_stmt 0 view .LVU242
 795 000c 6379     		ldrb	r3, [r4, #5]	@ zero_extendqisi2
 379:lvgl/lvgl/src/core/lv_indev.c ****         i->proc.wait_until_release      = 0;
 796              		.loc 1 379 7 view .LVU243
 797 000e 13F0080F 		tst	r3, #8
 798 0012 08D0     		beq	.L54
 380:lvgl/lvgl/src/core/lv_indev.c ****         i->proc.pr_timestamp            = 0;
 799              		.loc 1 380 9 is_stmt 1 view .LVU244
 380:lvgl/lvgl/src/core/lv_indev.c ****         i->proc.pr_timestamp            = 0;
 800              		.loc 1 380 41 is_stmt 0 view .LVU245
 801 0014 6379     		ldrb	r3, [r4, #5]	@ zero_extendqisi2
ARM GAS  C:\Users\gx\AppData\Local\Temp\ccszQoK7.s 			page 38


 381:lvgl/lvgl/src/core/lv_indev.c ****         i->proc.long_pr_sent            = 0;
 802              		.loc 1 381 9 is_stmt 1 view .LVU246
 381:lvgl/lvgl/src/core/lv_indev.c ****         i->proc.long_pr_sent            = 0;
 803              		.loc 1 381 41 is_stmt 0 view .LVU247
 804 0016 0022     		movs	r2, #0
 805 0018 6264     		str	r2, [r4, #68]
 382:lvgl/lvgl/src/core/lv_indev.c ****         i->proc.types.keypad.last_state = LV_INDEV_STATE_RELEASED; /*To skip the processing of rele
 806              		.loc 1 382 9 is_stmt 1 view .LVU248
 382:lvgl/lvgl/src/core/lv_indev.c ****         i->proc.types.keypad.last_state = LV_INDEV_STATE_RELEASED; /*To skip the processing of rele
 807              		.loc 1 382 41 is_stmt 0 view .LVU249
 808 001a 03F0F703 		and	r3, r3, #247
 809 001e 62F30003 		bfi	r3, r2, #0, #1
 810 0022 6371     		strb	r3, [r4, #5]
 383:lvgl/lvgl/src/core/lv_indev.c ****     }
 811              		.loc 1 383 9 is_stmt 1 view .LVU250
 383:lvgl/lvgl/src/core/lv_indev.c ****     }
 812              		.loc 1 383 41 is_stmt 0 view .LVU251
 813 0024 2272     		strb	r2, [r4, #8]
 814              	.L54:
 386:lvgl/lvgl/src/core/lv_indev.c ****     if(g == NULL) return;
 815              		.loc 1 386 5 is_stmt 1 view .LVU252
 386:lvgl/lvgl/src/core/lv_indev.c ****     if(g == NULL) return;
 816              		.loc 1 386 18 is_stmt 0 view .LVU253
 817 0026 266D     		ldr	r6, [r4, #80]
 818              	.LVL60:
 387:lvgl/lvgl/src/core/lv_indev.c **** 
 819              		.loc 1 387 5 is_stmt 1 view .LVU254
 387:lvgl/lvgl/src/core/lv_indev.c **** 
 820              		.loc 1 387 7 is_stmt 0 view .LVU255
 821 0028 B6B1     		cbz	r6, .L51
 389:lvgl/lvgl/src/core/lv_indev.c ****     if(indev_obj_act == NULL) return;
 822              		.loc 1 389 5 is_stmt 1 view .LVU256
 389:lvgl/lvgl/src/core/lv_indev.c ****     if(indev_obj_act == NULL) return;
 823              		.loc 1 389 21 is_stmt 0 view .LVU257
 824 002a 3046     		mov	r0, r6
 825              	.LVL61:
 389:lvgl/lvgl/src/core/lv_indev.c ****     if(indev_obj_act == NULL) return;
 826              		.loc 1 389 21 view .LVU258
 827 002c FFF7FEFF 		bl	lv_group_get_focused
 828              	.LVL62:
 389:lvgl/lvgl/src/core/lv_indev.c ****     if(indev_obj_act == NULL) return;
 829              		.loc 1 389 19 view .LVU259
 830 0030 8A4B     		ldr	r3, .L84
 831 0032 1860     		str	r0, [r3]
 390:lvgl/lvgl/src/core/lv_indev.c **** 
 832              		.loc 1 390 5 is_stmt 1 view .LVU260
 390:lvgl/lvgl/src/core/lv_indev.c **** 
 833              		.loc 1 390 7 is_stmt 0 view .LVU261
 834 0034 80B1     		cbz	r0, .L51
 393:lvgl/lvgl/src/core/lv_indev.c **** 
 835              		.loc 1 393 5 is_stmt 1 view .LVU262
 393:lvgl/lvgl/src/core/lv_indev.c **** 
 836              		.loc 1 393 14 is_stmt 0 view .LVU263
 837 0036 E168     		ldr	r1, [r4, #12]
 838              	.LVL63:
 397:lvgl/lvgl/src/core/lv_indev.c **** 
 839              		.loc 1 397 5 is_stmt 1 view .LVU264
ARM GAS  C:\Users\gx\AppData\Local\Temp\ccszQoK7.s 			page 39


 397:lvgl/lvgl/src/core/lv_indev.c **** 
 840              		.loc 1 397 41 is_stmt 0 view .LVU265
 841 0038 6B68     		ldr	r3, [r5, #4]
 397:lvgl/lvgl/src/core/lv_indev.c **** 
 842              		.loc 1 397 35 view .LVU266
 843 003a E360     		str	r3, [r4, #12]
 402:lvgl/lvgl/src/core/lv_indev.c ****     i->proc.types.keypad.last_state = data->state;
 844              		.loc 1 402 5 is_stmt 1 view .LVU267
 402:lvgl/lvgl/src/core/lv_indev.c ****     i->proc.types.keypad.last_state = data->state;
 845              		.loc 1 402 59 is_stmt 0 view .LVU268
 846 003c 227A     		ldrb	r2, [r4, #8]	@ zero_extendqisi2
 847              	.LVL64:
 403:lvgl/lvgl/src/core/lv_indev.c **** 
 848              		.loc 1 403 5 is_stmt 1 view .LVU269
 403:lvgl/lvgl/src/core/lv_indev.c **** 
 849              		.loc 1 403 43 is_stmt 0 view .LVU270
 850 003e AB7B     		ldrb	r3, [r5, #14]	@ zero_extendqisi2
 403:lvgl/lvgl/src/core/lv_indev.c **** 
 851              		.loc 1 403 37 view .LVU271
 852 0040 2372     		strb	r3, [r4, #8]
 406:lvgl/lvgl/src/core/lv_indev.c ****         LV_LOG_INFO("%d key is pressed", data->key);
 853              		.loc 1 406 5 is_stmt 1 view .LVU272
 406:lvgl/lvgl/src/core/lv_indev.c ****         LV_LOG_INFO("%d key is pressed", data->key);
 854              		.loc 1 406 7 is_stmt 0 view .LVU273
 855 0042 012B     		cmp	r3, #1
 856 0044 0ED0     		beq	.L71
 857              	.L55:
 443:lvgl/lvgl/src/core/lv_indev.c **** 
 858              		.loc 1 443 10 is_stmt 1 view .LVU274
 443:lvgl/lvgl/src/core/lv_indev.c **** 
 859              		.loc 1 443 12 is_stmt 0 view .LVU275
 860 0046 012B     		cmp	r3, #1
 861 0048 58D0     		beq	.L72
 862              	.L61:
 490:lvgl/lvgl/src/core/lv_indev.c ****         LV_LOG_INFO("%d key is released", data->key);
 863              		.loc 1 490 10 is_stmt 1 view .LVU276
 490:lvgl/lvgl/src/core/lv_indev.c ****         LV_LOG_INFO("%d key is released", data->key);
 864              		.loc 1 490 12 is_stmt 0 view .LVU277
 865 004a 13B9     		cbnz	r3, .L57
 490:lvgl/lvgl/src/core/lv_indev.c ****         LV_LOG_INFO("%d key is released", data->key);
 866              		.loc 1 490 52 discriminator 1 view .LVU278
 867 004c 012A     		cmp	r2, #1
 868 004e 00F0D180 		beq	.L73
 869              	.LVL65:
 870              	.L57:
 511:lvgl/lvgl/src/core/lv_indev.c **** }
 871              		.loc 1 511 5 is_stmt 1 view .LVU279
 511:lvgl/lvgl/src/core/lv_indev.c **** }
 872              		.loc 1 511 19 is_stmt 0 view .LVU280
 873 0052 824B     		ldr	r3, .L84
 874 0054 0022     		movs	r2, #0
 875 0056 1A60     		str	r2, [r3]
 876              	.LVL66:
 877              	.L51:
 512:lvgl/lvgl/src/core/lv_indev.c **** 
 878              		.loc 1 512 1 view .LVU281
 879 0058 70BD     		pop	{r4, r5, r6, pc}
ARM GAS  C:\Users\gx\AppData\Local\Temp\ccszQoK7.s 			page 40


 880              	.LVL67:
 881              	.L70:
 377:lvgl/lvgl/src/core/lv_indev.c **** 
 882              		.loc 1 377 46 discriminator 1 view .LVU282
 883 005a 4379     		ldrb	r3, [r0, #5]	@ zero_extendqisi2
 884 005c 13F0080F 		tst	r3, #8
 885 0060 D4D0     		beq	.L52
 886 0062 F9E7     		b	.L51
 887              	.LVL68:
 888              	.L71:
 406:lvgl/lvgl/src/core/lv_indev.c ****         LV_LOG_INFO("%d key is pressed", data->key);
 889              		.loc 1 406 46 discriminator 1 view .LVU283
 890 0064 002A     		cmp	r2, #0
 891 0066 EED1     		bne	.L55
 407:lvgl/lvgl/src/core/lv_indev.c ****         i->proc.pr_timestamp = lv_tick_get();
 892              		.loc 1 407 9 is_stmt 1 view .LVU284
 407:lvgl/lvgl/src/core/lv_indev.c ****         i->proc.pr_timestamp = lv_tick_get();
 893              		.loc 1 407 9 view .LVU285
 407:lvgl/lvgl/src/core/lv_indev.c ****         i->proc.pr_timestamp = lv_tick_get();
 894              		.loc 1 407 9 view .LVU286
 407:lvgl/lvgl/src/core/lv_indev.c ****         i->proc.pr_timestamp = lv_tick_get();
 895              		.loc 1 407 52 view .LVU287
 408:lvgl/lvgl/src/core/lv_indev.c **** 
 896              		.loc 1 408 9 view .LVU288
 408:lvgl/lvgl/src/core/lv_indev.c **** 
 897              		.loc 1 408 32 is_stmt 0 view .LVU289
 898 0068 FFF7FEFF 		bl	lv_tick_get
 899              	.LVL69:
 408:lvgl/lvgl/src/core/lv_indev.c **** 
 900              		.loc 1 408 30 view .LVU290
 901 006c 6064     		str	r0, [r4, #68]
 411:lvgl/lvgl/src/core/lv_indev.c ****             /*Send the ENTER as a normal KEY*/
 902              		.loc 1 411 9 is_stmt 1 view .LVU291
 411:lvgl/lvgl/src/core/lv_indev.c ****             /*Send the ENTER as a normal KEY*/
 903              		.loc 1 411 16 is_stmt 0 view .LVU292
 904 006e 6968     		ldr	r1, [r5, #4]
 411:lvgl/lvgl/src/core/lv_indev.c ****             /*Send the ENTER as a normal KEY*/
 905              		.loc 1 411 11 view .LVU293
 906 0070 0A29     		cmp	r1, #10
 907 0072 09D0     		beq	.L74
 418:lvgl/lvgl/src/core/lv_indev.c ****             /*Send the ESC as a normal KEY*/
 908              		.loc 1 418 14 is_stmt 1 view .LVU294
 418:lvgl/lvgl/src/core/lv_indev.c ****             /*Send the ESC as a normal KEY*/
 909              		.loc 1 418 16 is_stmt 0 view .LVU295
 910 0074 1B29     		cmp	r1, #27
 911 0076 17D0     		beq	.L75
 426:lvgl/lvgl/src/core/lv_indev.c ****             lv_group_set_editing(g, false); /*Editing is not used by KEYPAD is be sure it is disabl
 912              		.loc 1 426 14 is_stmt 1 view .LVU296
 426:lvgl/lvgl/src/core/lv_indev.c ****             lv_group_set_editing(g, false); /*Editing is not used by KEYPAD is be sure it is disabl
 913              		.loc 1 426 16 is_stmt 0 view .LVU297
 914 0078 0929     		cmp	r1, #9
 915 007a 25D0     		beq	.L76
 432:lvgl/lvgl/src/core/lv_indev.c ****             lv_group_set_editing(g, false); /*Editing is not used by KEYPAD is be sure it is disabl
 916              		.loc 1 432 14 is_stmt 1 view .LVU298
 432:lvgl/lvgl/src/core/lv_indev.c ****             lv_group_set_editing(g, false); /*Editing is not used by KEYPAD is be sure it is disabl
 917              		.loc 1 432 16 is_stmt 0 view .LVU299
 918 007c 0B29     		cmp	r1, #11
ARM GAS  C:\Users\gx\AppData\Local\Temp\ccszQoK7.s 			page 41


 919 007e 30D0     		beq	.L77
 439:lvgl/lvgl/src/core/lv_indev.c ****         }
 920              		.loc 1 439 13 is_stmt 1 view .LVU300
 921 0080 3046     		mov	r0, r6
 922 0082 FFF7FEFF 		bl	lv_group_send_data
 923              	.LVL70:
 924 0086 E4E7     		b	.L57
 925              	.L74:
 413:lvgl/lvgl/src/core/lv_indev.c **** 
 926              		.loc 1 413 13 view .LVU301
 927 0088 3046     		mov	r0, r6
 928 008a FFF7FEFF 		bl	lv_group_send_data
 929              	.LVL71:
 415:lvgl/lvgl/src/core/lv_indev.c ****             if(indev_reset_check(&i->proc)) return;
 930              		.loc 1 415 13 view .LVU302
 931 008e 744B     		ldr	r3, .L84+4
 932 0090 1A68     		ldr	r2, [r3]
 933 0092 0121     		movs	r1, #1
 934 0094 714B     		ldr	r3, .L84
 935 0096 1868     		ldr	r0, [r3]
 936 0098 FFF7FEFF 		bl	lv_event_send
 937              	.LVL72:
 416:lvgl/lvgl/src/core/lv_indev.c ****         }
 938              		.loc 1 416 13 view .LVU303
 416:lvgl/lvgl/src/core/lv_indev.c ****         }
 939              		.loc 1 416 16 is_stmt 0 view .LVU304
 940 009c 201D     		adds	r0, r4, #4
 941 009e FFF7FEFF 		bl	indev_reset_check
 942              	.LVL73:
 416:lvgl/lvgl/src/core/lv_indev.c ****         }
 943              		.loc 1 416 15 view .LVU305
 944 00a2 0028     		cmp	r0, #0
 945 00a4 D5D0     		beq	.L57
 946 00a6 D7E7     		b	.L51
 947              	.L75:
 420:lvgl/lvgl/src/core/lv_indev.c **** 
 948              		.loc 1 420 13 is_stmt 1 view .LVU306
 949 00a8 3046     		mov	r0, r6
 950 00aa FFF7FEFF 		bl	lv_group_send_data
 951              	.LVL74:
 422:lvgl/lvgl/src/core/lv_indev.c ****             if(indev_reset_check(&i->proc)) return;
 952              		.loc 1 422 13 view .LVU307
 953 00ae 6C4B     		ldr	r3, .L84+4
 954 00b0 1A68     		ldr	r2, [r3]
 955 00b2 2021     		movs	r1, #32
 956 00b4 694B     		ldr	r3, .L84
 957 00b6 1868     		ldr	r0, [r3]
 958 00b8 FFF7FEFF 		bl	lv_event_send
 959              	.LVL75:
 423:lvgl/lvgl/src/core/lv_indev.c ****         }
 960              		.loc 1 423 13 view .LVU308
 423:lvgl/lvgl/src/core/lv_indev.c ****         }
 961              		.loc 1 423 16 is_stmt 0 view .LVU309
 962 00bc 201D     		adds	r0, r4, #4
 963 00be FFF7FEFF 		bl	indev_reset_check
 964              	.LVL76:
 423:lvgl/lvgl/src/core/lv_indev.c ****         }
ARM GAS  C:\Users\gx\AppData\Local\Temp\ccszQoK7.s 			page 42


 965              		.loc 1 423 15 view .LVU310
 966 00c2 0028     		cmp	r0, #0
 967 00c4 C5D0     		beq	.L57
 968 00c6 C7E7     		b	.L51
 969              	.L76:
 427:lvgl/lvgl/src/core/lv_indev.c ****             lv_group_focus_next(g);
 970              		.loc 1 427 13 is_stmt 1 view .LVU311
 971 00c8 0021     		movs	r1, #0
 972 00ca 3046     		mov	r0, r6
 973 00cc FFF7FEFF 		bl	lv_group_set_editing
 974              	.LVL77:
 428:lvgl/lvgl/src/core/lv_indev.c ****             if(indev_reset_check(&i->proc)) return;
 975              		.loc 1 428 13 view .LVU312
 976 00d0 3046     		mov	r0, r6
 977 00d2 FFF7FEFF 		bl	lv_group_focus_next
 978              	.LVL78:
 429:lvgl/lvgl/src/core/lv_indev.c ****         }
 979              		.loc 1 429 13 view .LVU313
 429:lvgl/lvgl/src/core/lv_indev.c ****         }
 980              		.loc 1 429 16 is_stmt 0 view .LVU314
 981 00d6 201D     		adds	r0, r4, #4
 982 00d8 FFF7FEFF 		bl	indev_reset_check
 983              	.LVL79:
 429:lvgl/lvgl/src/core/lv_indev.c ****         }
 984              		.loc 1 429 15 view .LVU315
 985 00dc 0028     		cmp	r0, #0
 986 00de B8D0     		beq	.L57
 987 00e0 BAE7     		b	.L51
 988              	.L77:
 433:lvgl/lvgl/src/core/lv_indev.c ****             lv_group_focus_prev(g);
 989              		.loc 1 433 13 is_stmt 1 view .LVU316
 990 00e2 0021     		movs	r1, #0
 991 00e4 3046     		mov	r0, r6
 992 00e6 FFF7FEFF 		bl	lv_group_set_editing
 993              	.LVL80:
 434:lvgl/lvgl/src/core/lv_indev.c ****             if(indev_reset_check(&i->proc)) return;
 994              		.loc 1 434 13 view .LVU317
 995 00ea 3046     		mov	r0, r6
 996 00ec FFF7FEFF 		bl	lv_group_focus_prev
 997              	.LVL81:
 435:lvgl/lvgl/src/core/lv_indev.c ****         }
 998              		.loc 1 435 13 view .LVU318
 435:lvgl/lvgl/src/core/lv_indev.c ****         }
 999              		.loc 1 435 16 is_stmt 0 view .LVU319
 1000 00f0 201D     		adds	r0, r4, #4
 1001 00f2 FFF7FEFF 		bl	indev_reset_check
 1002              	.LVL82:
 435:lvgl/lvgl/src/core/lv_indev.c ****         }
 1003              		.loc 1 435 15 view .LVU320
 1004 00f6 0028     		cmp	r0, #0
 1005 00f8 ABD0     		beq	.L57
 1006 00fa ADE7     		b	.L51
 1007              	.LVL83:
 1008              	.L72:
 443:lvgl/lvgl/src/core/lv_indev.c **** 
 1009              		.loc 1 443 51 discriminator 1 view .LVU321
 1010 00fc 012A     		cmp	r2, #1
ARM GAS  C:\Users\gx\AppData\Local\Temp\ccszQoK7.s 			page 43


 1011 00fe A4D1     		bne	.L61
 445:lvgl/lvgl/src/core/lv_indev.c ****             lv_event_send(indev_obj_act, LV_EVENT_PRESSING, indev_act);
 1012              		.loc 1 445 9 is_stmt 1 view .LVU322
 445:lvgl/lvgl/src/core/lv_indev.c ****             lv_event_send(indev_obj_act, LV_EVENT_PRESSING, indev_act);
 1013              		.loc 1 445 16 is_stmt 0 view .LVU323
 1014 0100 6B68     		ldr	r3, [r5, #4]
 445:lvgl/lvgl/src/core/lv_indev.c ****             lv_event_send(indev_obj_act, LV_EVENT_PRESSING, indev_act);
 1015              		.loc 1 445 11 view .LVU324
 1016 0102 0A2B     		cmp	r3, #10
 1017 0104 21D0     		beq	.L78
 1018              	.LVL84:
 1019              	.L62:
 451:lvgl/lvgl/src/core/lv_indev.c ****             i->proc.long_pr_sent = 1;
 1020              		.loc 1 451 9 is_stmt 1 view .LVU325
 451:lvgl/lvgl/src/core/lv_indev.c ****             i->proc.long_pr_sent = 1;
 1021              		.loc 1 451 33 is_stmt 0 view .LVU326
 1022 0106 6379     		ldrb	r3, [r4, #5]	@ zero_extendqisi2
 451:lvgl/lvgl/src/core/lv_indev.c ****             i->proc.long_pr_sent = 1;
 1023              		.loc 1 451 11 view .LVU327
 1024 0108 13F0010F 		tst	r3, #1
 1025 010c 28D0     		beq	.L79
 1026              	.L63:
 460:lvgl/lvgl/src/core/lv_indev.c ****                 lv_tick_elaps(i->proc.longpr_rep_timestamp) > i->driver->long_press_repeat_time) {
 1027              		.loc 1 460 14 is_stmt 1 view .LVU328
 460:lvgl/lvgl/src/core/lv_indev.c ****                 lv_tick_elaps(i->proc.longpr_rep_timestamp) > i->driver->long_press_repeat_time) {
 1028              		.loc 1 460 38 is_stmt 0 view .LVU329
 1029 010e 6379     		ldrb	r3, [r4, #5]	@ zero_extendqisi2
 460:lvgl/lvgl/src/core/lv_indev.c ****                 lv_tick_elaps(i->proc.longpr_rep_timestamp) > i->driver->long_press_repeat_time) {
 1030              		.loc 1 460 16 view .LVU330
 1031 0110 13F0010F 		tst	r3, #1
 1032 0114 9DD0     		beq	.L57
 461:lvgl/lvgl/src/core/lv_indev.c **** 
 1033              		.loc 1 461 17 discriminator 1 view .LVU331
 1034 0116 A06C     		ldr	r0, [r4, #72]
 1035 0118 FFF7FEFF 		bl	lv_tick_elaps
 1036              	.LVL85:
 461:lvgl/lvgl/src/core/lv_indev.c **** 
 1037              		.loc 1 461 64 discriminator 1 view .LVU332
 1038 011c 2368     		ldr	r3, [r4]
 461:lvgl/lvgl/src/core/lv_indev.c **** 
 1039              		.loc 1 461 72 discriminator 1 view .LVU333
 1040 011e DB8B     		ldrh	r3, [r3, #30]
 460:lvgl/lvgl/src/core/lv_indev.c ****                 lv_tick_elaps(i->proc.longpr_rep_timestamp) > i->driver->long_press_repeat_time) {
 1041              		.loc 1 460 43 discriminator 1 view .LVU334
 1042 0120 9842     		cmp	r0, r3
 1043 0122 96D9     		bls	.L57
 463:lvgl/lvgl/src/core/lv_indev.c **** 
 1044              		.loc 1 463 13 is_stmt 1 view .LVU335
 463:lvgl/lvgl/src/core/lv_indev.c **** 
 1045              		.loc 1 463 44 is_stmt 0 view .LVU336
 1046 0124 FFF7FEFF 		bl	lv_tick_get
 1047              	.LVL86:
 463:lvgl/lvgl/src/core/lv_indev.c **** 
 1048              		.loc 1 463 42 view .LVU337
 1049 0128 A064     		str	r0, [r4, #72]
 466:lvgl/lvgl/src/core/lv_indev.c ****                 lv_event_send(indev_obj_act, LV_EVENT_LONG_PRESSED_REPEAT, indev_act);
 1050              		.loc 1 466 13 is_stmt 1 view .LVU338
ARM GAS  C:\Users\gx\AppData\Local\Temp\ccszQoK7.s 			page 44


 466:lvgl/lvgl/src/core/lv_indev.c ****                 lv_event_send(indev_obj_act, LV_EVENT_LONG_PRESSED_REPEAT, indev_act);
 1051              		.loc 1 466 20 is_stmt 0 view .LVU339
 1052 012a 6968     		ldr	r1, [r5, #4]
 466:lvgl/lvgl/src/core/lv_indev.c ****                 lv_event_send(indev_obj_act, LV_EVENT_LONG_PRESSED_REPEAT, indev_act);
 1053              		.loc 1 466 15 view .LVU340
 1054 012c 0A29     		cmp	r1, #10
 1055 012e 37D0     		beq	.L80
 471:lvgl/lvgl/src/core/lv_indev.c ****                 lv_group_set_editing(g, false); /*Editing is not used by KEYPAD is be sure it is di
 1056              		.loc 1 471 18 is_stmt 1 view .LVU341
 471:lvgl/lvgl/src/core/lv_indev.c ****                 lv_group_set_editing(g, false); /*Editing is not used by KEYPAD is be sure it is di
 1057              		.loc 1 471 20 is_stmt 0 view .LVU342
 1058 0130 0929     		cmp	r1, #9
 1059 0132 43D0     		beq	.L81
 477:lvgl/lvgl/src/core/lv_indev.c ****                 lv_group_set_editing(g, false); /*Editing is not used by KEYPAD is be sure it is di
 1060              		.loc 1 477 18 is_stmt 1 view .LVU343
 477:lvgl/lvgl/src/core/lv_indev.c ****                 lv_group_set_editing(g, false); /*Editing is not used by KEYPAD is be sure it is di
 1061              		.loc 1 477 20 is_stmt 0 view .LVU344
 1062 0134 0B29     		cmp	r1, #11
 1063 0136 4FD0     		beq	.L82
 484:lvgl/lvgl/src/core/lv_indev.c ****                 if(indev_reset_check(&i->proc)) return;
 1064              		.loc 1 484 17 is_stmt 1 view .LVU345
 1065 0138 3046     		mov	r0, r6
 1066 013a FFF7FEFF 		bl	lv_group_send_data
 1067              	.LVL87:
 485:lvgl/lvgl/src/core/lv_indev.c ****             }
 1068              		.loc 1 485 17 view .LVU346
 485:lvgl/lvgl/src/core/lv_indev.c ****             }
 1069              		.loc 1 485 20 is_stmt 0 view .LVU347
 1070 013e 201D     		adds	r0, r4, #4
 1071 0140 FFF7FEFF 		bl	indev_reset_check
 1072              	.LVL88:
 485:lvgl/lvgl/src/core/lv_indev.c ****             }
 1073              		.loc 1 485 19 view .LVU348
 1074 0144 0028     		cmp	r0, #0
 1075 0146 84D0     		beq	.L57
 1076 0148 86E7     		b	.L51
 1077              	.LVL89:
 1078              	.L78:
 446:lvgl/lvgl/src/core/lv_indev.c ****             if(indev_reset_check(&i->proc)) return;
 1079              		.loc 1 446 13 is_stmt 1 view .LVU349
 1080 014a 454B     		ldr	r3, .L84+4
 1081 014c 1A68     		ldr	r2, [r3]
 1082              	.LVL90:
 446:lvgl/lvgl/src/core/lv_indev.c ****             if(indev_reset_check(&i->proc)) return;
 1083              		.loc 1 446 13 is_stmt 0 view .LVU350
 1084 014e 0221     		movs	r1, #2
 1085              	.LVL91:
 446:lvgl/lvgl/src/core/lv_indev.c ****             if(indev_reset_check(&i->proc)) return;
 1086              		.loc 1 446 13 view .LVU351
 1087 0150 FFF7FEFF 		bl	lv_event_send
 1088              	.LVL92:
 447:lvgl/lvgl/src/core/lv_indev.c ****         }
 1089              		.loc 1 447 13 is_stmt 1 view .LVU352
 447:lvgl/lvgl/src/core/lv_indev.c ****         }
 1090              		.loc 1 447 16 is_stmt 0 view .LVU353
 1091 0154 201D     		adds	r0, r4, #4
 1092 0156 FFF7FEFF 		bl	indev_reset_check
ARM GAS  C:\Users\gx\AppData\Local\Temp\ccszQoK7.s 			page 45


 1093              	.LVL93:
 447:lvgl/lvgl/src/core/lv_indev.c ****         }
 1094              		.loc 1 447 15 view .LVU354
 1095 015a 0028     		cmp	r0, #0
 1096 015c D3D0     		beq	.L62
 1097 015e 7BE7     		b	.L51
 1098              	.L79:
 451:lvgl/lvgl/src/core/lv_indev.c ****             i->proc.long_pr_sent = 1;
 1099              		.loc 1 451 41 discriminator 1 view .LVU355
 1100 0160 606C     		ldr	r0, [r4, #68]
 1101 0162 FFF7FEFF 		bl	lv_tick_elaps
 1102              	.LVL94:
 451:lvgl/lvgl/src/core/lv_indev.c ****             i->proc.long_pr_sent = 1;
 1103              		.loc 1 451 80 discriminator 1 view .LVU356
 1104 0166 2368     		ldr	r3, [r4]
 451:lvgl/lvgl/src/core/lv_indev.c ****             i->proc.long_pr_sent = 1;
 1105              		.loc 1 451 88 discriminator 1 view .LVU357
 1106 0168 9B8B     		ldrh	r3, [r3, #28]
 451:lvgl/lvgl/src/core/lv_indev.c ****             i->proc.long_pr_sent = 1;
 1107              		.loc 1 451 38 discriminator 1 view .LVU358
 1108 016a 9842     		cmp	r0, r3
 1109 016c CFD9     		bls	.L63
 452:lvgl/lvgl/src/core/lv_indev.c ****             if(data->key == LV_KEY_ENTER) {
 1110              		.loc 1 452 13 is_stmt 1 view .LVU359
 452:lvgl/lvgl/src/core/lv_indev.c ****             if(data->key == LV_KEY_ENTER) {
 1111              		.loc 1 452 34 is_stmt 0 view .LVU360
 1112 016e 6379     		ldrb	r3, [r4, #5]	@ zero_extendqisi2
 1113 0170 43F00103 		orr	r3, r3, #1
 1114 0174 6371     		strb	r3, [r4, #5]
 453:lvgl/lvgl/src/core/lv_indev.c ****                 i->proc.longpr_rep_timestamp = lv_tick_get();
 1115              		.loc 1 453 13 is_stmt 1 view .LVU361
 453:lvgl/lvgl/src/core/lv_indev.c ****                 i->proc.longpr_rep_timestamp = lv_tick_get();
 1116              		.loc 1 453 20 is_stmt 0 view .LVU362
 1117 0176 6B68     		ldr	r3, [r5, #4]
 453:lvgl/lvgl/src/core/lv_indev.c ****                 i->proc.longpr_rep_timestamp = lv_tick_get();
 1118              		.loc 1 453 15 view .LVU363
 1119 0178 0A2B     		cmp	r3, #10
 1120 017a 7FF46AAF 		bne	.L57
 454:lvgl/lvgl/src/core/lv_indev.c ****                 lv_event_send(indev_obj_act, LV_EVENT_LONG_PRESSED, indev_act);
 1121              		.loc 1 454 17 is_stmt 1 view .LVU364
 454:lvgl/lvgl/src/core/lv_indev.c ****                 lv_event_send(indev_obj_act, LV_EVENT_LONG_PRESSED, indev_act);
 1122              		.loc 1 454 48 is_stmt 0 view .LVU365
 1123 017e FFF7FEFF 		bl	lv_tick_get
 1124              	.LVL95:
 454:lvgl/lvgl/src/core/lv_indev.c ****                 lv_event_send(indev_obj_act, LV_EVENT_LONG_PRESSED, indev_act);
 1125              		.loc 1 454 46 view .LVU366
 1126 0182 A064     		str	r0, [r4, #72]
 455:lvgl/lvgl/src/core/lv_indev.c ****                 if(indev_reset_check(&i->proc)) return;
 1127              		.loc 1 455 17 is_stmt 1 view .LVU367
 1128 0184 364B     		ldr	r3, .L84+4
 1129 0186 1A68     		ldr	r2, [r3]
 1130 0188 0521     		movs	r1, #5
 1131 018a 344B     		ldr	r3, .L84
 1132 018c 1868     		ldr	r0, [r3]
 1133 018e FFF7FEFF 		bl	lv_event_send
 1134              	.LVL96:
 456:lvgl/lvgl/src/core/lv_indev.c ****             }
ARM GAS  C:\Users\gx\AppData\Local\Temp\ccszQoK7.s 			page 46


 1135              		.loc 1 456 17 view .LVU368
 456:lvgl/lvgl/src/core/lv_indev.c ****             }
 1136              		.loc 1 456 20 is_stmt 0 view .LVU369
 1137 0192 201D     		adds	r0, r4, #4
 1138 0194 FFF7FEFF 		bl	indev_reset_check
 1139              	.LVL97:
 456:lvgl/lvgl/src/core/lv_indev.c ****             }
 1140              		.loc 1 456 19 view .LVU370
 1141 0198 0028     		cmp	r0, #0
 1142 019a 3FF45AAF 		beq	.L57
 1143 019e 5BE7     		b	.L51
 1144              	.L80:
 467:lvgl/lvgl/src/core/lv_indev.c ****                 if(indev_reset_check(&i->proc)) return;
 1145              		.loc 1 467 17 is_stmt 1 view .LVU371
 1146 01a0 2F4B     		ldr	r3, .L84+4
 1147 01a2 1A68     		ldr	r2, [r3]
 1148 01a4 0621     		movs	r1, #6
 1149 01a6 2D4B     		ldr	r3, .L84
 1150 01a8 1868     		ldr	r0, [r3]
 1151 01aa FFF7FEFF 		bl	lv_event_send
 1152              	.LVL98:
 468:lvgl/lvgl/src/core/lv_indev.c ****             }
 1153              		.loc 1 468 17 view .LVU372
 468:lvgl/lvgl/src/core/lv_indev.c ****             }
 1154              		.loc 1 468 20 is_stmt 0 view .LVU373
 1155 01ae 201D     		adds	r0, r4, #4
 1156 01b0 FFF7FEFF 		bl	indev_reset_check
 1157              	.LVL99:
 468:lvgl/lvgl/src/core/lv_indev.c ****             }
 1158              		.loc 1 468 19 view .LVU374
 1159 01b4 0028     		cmp	r0, #0
 1160 01b6 3FF44CAF 		beq	.L57
 1161 01ba 4DE7     		b	.L51
 1162              	.L81:
 472:lvgl/lvgl/src/core/lv_indev.c ****                 lv_group_focus_next(g);
 1163              		.loc 1 472 17 is_stmt 1 view .LVU375
 1164 01bc 0021     		movs	r1, #0
 1165 01be 3046     		mov	r0, r6
 1166 01c0 FFF7FEFF 		bl	lv_group_set_editing
 1167              	.LVL100:
 473:lvgl/lvgl/src/core/lv_indev.c ****                 if(indev_reset_check(&i->proc)) return;
 1168              		.loc 1 473 17 view .LVU376
 1169 01c4 3046     		mov	r0, r6
 1170 01c6 FFF7FEFF 		bl	lv_group_focus_next
 1171              	.LVL101:
 474:lvgl/lvgl/src/core/lv_indev.c ****             }
 1172              		.loc 1 474 17 view .LVU377
 474:lvgl/lvgl/src/core/lv_indev.c ****             }
 1173              		.loc 1 474 20 is_stmt 0 view .LVU378
 1174 01ca 201D     		adds	r0, r4, #4
 1175 01cc FFF7FEFF 		bl	indev_reset_check
 1176              	.LVL102:
 474:lvgl/lvgl/src/core/lv_indev.c ****             }
 1177              		.loc 1 474 19 view .LVU379
 1178 01d0 0028     		cmp	r0, #0
 1179 01d2 3FF43EAF 		beq	.L57
 1180 01d6 3FE7     		b	.L51
ARM GAS  C:\Users\gx\AppData\Local\Temp\ccszQoK7.s 			page 47


 1181              	.L82:
 478:lvgl/lvgl/src/core/lv_indev.c ****                 lv_group_focus_prev(g);
 1182              		.loc 1 478 17 is_stmt 1 view .LVU380
 1183 01d8 0021     		movs	r1, #0
 1184 01da 3046     		mov	r0, r6
 1185 01dc FFF7FEFF 		bl	lv_group_set_editing
 1186              	.LVL103:
 479:lvgl/lvgl/src/core/lv_indev.c ****                 if(indev_reset_check(&i->proc)) return;
 1187              		.loc 1 479 17 view .LVU381
 1188 01e0 3046     		mov	r0, r6
 1189 01e2 FFF7FEFF 		bl	lv_group_focus_prev
 1190              	.LVL104:
 480:lvgl/lvgl/src/core/lv_indev.c ****             }
 1191              		.loc 1 480 17 view .LVU382
 480:lvgl/lvgl/src/core/lv_indev.c ****             }
 1192              		.loc 1 480 20 is_stmt 0 view .LVU383
 1193 01e6 201D     		adds	r0, r4, #4
 1194 01e8 FFF7FEFF 		bl	indev_reset_check
 1195              	.LVL105:
 480:lvgl/lvgl/src/core/lv_indev.c ****             }
 1196              		.loc 1 480 19 view .LVU384
 1197 01ec 0028     		cmp	r0, #0
 1198 01ee 3FF430AF 		beq	.L57
 1199 01f2 31E7     		b	.L51
 1200              	.LVL106:
 1201              	.L73:
 491:lvgl/lvgl/src/core/lv_indev.c ****         /*The user might clear the key when it was released. Always release the pressed key*/
 1202              		.loc 1 491 9 is_stmt 1 view .LVU385
 491:lvgl/lvgl/src/core/lv_indev.c ****         /*The user might clear the key when it was released. Always release the pressed key*/
 1203              		.loc 1 491 9 view .LVU386
 491:lvgl/lvgl/src/core/lv_indev.c ****         /*The user might clear the key when it was released. Always release the pressed key*/
 1204              		.loc 1 491 9 view .LVU387
 491:lvgl/lvgl/src/core/lv_indev.c ****         /*The user might clear the key when it was released. Always release the pressed key*/
 1205              		.loc 1 491 53 view .LVU388
 493:lvgl/lvgl/src/core/lv_indev.c ****         if(data->key == LV_KEY_ENTER) {
 1206              		.loc 1 493 9 view .LVU389
 493:lvgl/lvgl/src/core/lv_indev.c ****         if(data->key == LV_KEY_ENTER) {
 1207              		.loc 1 493 19 is_stmt 0 view .LVU390
 1208 01f4 6960     		str	r1, [r5, #4]
 494:lvgl/lvgl/src/core/lv_indev.c **** 
 1209              		.loc 1 494 9 is_stmt 1 view .LVU391
 494:lvgl/lvgl/src/core/lv_indev.c **** 
 1210              		.loc 1 494 11 is_stmt 0 view .LVU392
 1211 01f6 0A29     		cmp	r1, #10
 1212 01f8 06D0     		beq	.L83
 1213              	.LVL107:
 1214              	.L67:
 508:lvgl/lvgl/src/core/lv_indev.c ****         i->proc.long_pr_sent = 0;
 1215              		.loc 1 508 9 is_stmt 1 view .LVU393
 508:lvgl/lvgl/src/core/lv_indev.c ****         i->proc.long_pr_sent = 0;
 1216              		.loc 1 508 30 is_stmt 0 view .LVU394
 1217 01fa 0022     		movs	r2, #0
 1218 01fc 6264     		str	r2, [r4, #68]
 509:lvgl/lvgl/src/core/lv_indev.c ****     }
 1219              		.loc 1 509 9 is_stmt 1 view .LVU395
 509:lvgl/lvgl/src/core/lv_indev.c ****     }
 1220              		.loc 1 509 30 is_stmt 0 view .LVU396
ARM GAS  C:\Users\gx\AppData\Local\Temp\ccszQoK7.s 			page 48


 1221 01fe 6379     		ldrb	r3, [r4, #5]	@ zero_extendqisi2
 1222 0200 62F30003 		bfi	r3, r2, #0, #1
 1223 0204 6371     		strb	r3, [r4, #5]
 1224 0206 24E7     		b	.L57
 1225              	.LVL108:
 1226              	.L83:
 496:lvgl/lvgl/src/core/lv_indev.c ****             if(indev_reset_check(&i->proc)) return;
 1227              		.loc 1 496 13 is_stmt 1 view .LVU397
 1228 0208 154B     		ldr	r3, .L84+4
 1229 020a 1A68     		ldr	r2, [r3]
 1230              	.LVL109:
 496:lvgl/lvgl/src/core/lv_indev.c ****             if(indev_reset_check(&i->proc)) return;
 1231              		.loc 1 496 13 is_stmt 0 view .LVU398
 1232 020c 0821     		movs	r1, #8
 1233              	.LVL110:
 496:lvgl/lvgl/src/core/lv_indev.c ****             if(indev_reset_check(&i->proc)) return;
 1234              		.loc 1 496 13 view .LVU399
 1235 020e FFF7FEFF 		bl	lv_event_send
 1236              	.LVL111:
 497:lvgl/lvgl/src/core/lv_indev.c **** 
 1237              		.loc 1 497 13 is_stmt 1 view .LVU400
 497:lvgl/lvgl/src/core/lv_indev.c **** 
 1238              		.loc 1 497 16 is_stmt 0 view .LVU401
 1239 0212 251D     		adds	r5, r4, #4
 1240              	.LVL112:
 497:lvgl/lvgl/src/core/lv_indev.c **** 
 1241              		.loc 1 497 16 view .LVU402
 1242 0214 2846     		mov	r0, r5
 1243 0216 FFF7FEFF 		bl	indev_reset_check
 1244              	.LVL113:
 497:lvgl/lvgl/src/core/lv_indev.c **** 
 1245              		.loc 1 497 15 view .LVU403
 1246 021a 0028     		cmp	r0, #0
 1247 021c 7FF41CAF 		bne	.L51
 499:lvgl/lvgl/src/core/lv_indev.c ****                 lv_event_send(indev_obj_act, LV_EVENT_SHORT_CLICKED, indev_act);
 1248              		.loc 1 499 13 is_stmt 1 view .LVU404
 499:lvgl/lvgl/src/core/lv_indev.c ****                 lv_event_send(indev_obj_act, LV_EVENT_SHORT_CLICKED, indev_act);
 1249              		.loc 1 499 37 is_stmt 0 view .LVU405
 1250 0220 6379     		ldrb	r3, [r4, #5]	@ zero_extendqisi2
 499:lvgl/lvgl/src/core/lv_indev.c ****                 lv_event_send(indev_obj_act, LV_EVENT_SHORT_CLICKED, indev_act);
 1251              		.loc 1 499 15 view .LVU406
 1252 0222 13F0010F 		tst	r3, #1
 1253 0226 0CD1     		bne	.L68
 500:lvgl/lvgl/src/core/lv_indev.c ****                 if(indev_reset_check(&i->proc)) return;
 1254              		.loc 1 500 17 is_stmt 1 view .LVU407
 1255 0228 0D4B     		ldr	r3, .L84+4
 1256 022a 1A68     		ldr	r2, [r3]
 1257 022c 0421     		movs	r1, #4
 1258 022e 0B4B     		ldr	r3, .L84
 1259 0230 1868     		ldr	r0, [r3]
 1260 0232 FFF7FEFF 		bl	lv_event_send
 1261              	.LVL114:
 501:lvgl/lvgl/src/core/lv_indev.c ****             }
 1262              		.loc 1 501 17 view .LVU408
 501:lvgl/lvgl/src/core/lv_indev.c ****             }
 1263              		.loc 1 501 20 is_stmt 0 view .LVU409
 1264 0236 2846     		mov	r0, r5
ARM GAS  C:\Users\gx\AppData\Local\Temp\ccszQoK7.s 			page 49


 1265 0238 FFF7FEFF 		bl	indev_reset_check
 1266              	.LVL115:
 501:lvgl/lvgl/src/core/lv_indev.c ****             }
 1267              		.loc 1 501 19 view .LVU410
 1268 023c 0028     		cmp	r0, #0
 1269 023e 7FF40BAF 		bne	.L51
 1270              	.L68:
 504:lvgl/lvgl/src/core/lv_indev.c ****             if(indev_reset_check(&i->proc)) return;
 1271              		.loc 1 504 13 is_stmt 1 view .LVU411
 1272 0242 074B     		ldr	r3, .L84+4
 1273 0244 1A68     		ldr	r2, [r3]
 1274 0246 0721     		movs	r1, #7
 1275 0248 044B     		ldr	r3, .L84
 1276 024a 1868     		ldr	r0, [r3]
 1277 024c FFF7FEFF 		bl	lv_event_send
 1278              	.LVL116:
 505:lvgl/lvgl/src/core/lv_indev.c **** 
 1279              		.loc 1 505 13 view .LVU412
 505:lvgl/lvgl/src/core/lv_indev.c **** 
 1280              		.loc 1 505 16 is_stmt 0 view .LVU413
 1281 0250 2846     		mov	r0, r5
 1282 0252 FFF7FEFF 		bl	indev_reset_check
 1283              	.LVL117:
 505:lvgl/lvgl/src/core/lv_indev.c **** 
 1284              		.loc 1 505 15 view .LVU414
 1285 0256 0028     		cmp	r0, #0
 1286 0258 CFD0     		beq	.L67
 1287 025a FDE6     		b	.L51
 1288              	.L85:
 1289              		.align	2
 1290              	.L84:
 1291 025c 00000000 		.word	.LANCHOR0
 1292 0260 00000000 		.word	.LANCHOR1
 1293              		.cfi_endproc
 1294              	.LFE178:
 1296              		.section	.text.indev_encoder_proc,"ax",%progbits
 1297              		.align	1
 1298              		.syntax unified
 1299              		.thumb
 1300              		.thumb_func
 1301              		.fpu fpv4-sp-d16
 1303              	indev_encoder_proc:
 1304              	.LVL118:
 1305              	.LFB179:
 520:lvgl/lvgl/src/core/lv_indev.c ****     if(data->state == LV_INDEV_STATE_PRESSED && i->proc.wait_until_release) return;
 1306              		.loc 1 520 1 is_stmt 1 view -0
 1307              		.cfi_startproc
 1308              		@ args = 0, pretend = 0, frame = 0
 1309              		@ frame_needed = 0, uses_anonymous_args = 0
 520:lvgl/lvgl/src/core/lv_indev.c ****     if(data->state == LV_INDEV_STATE_PRESSED && i->proc.wait_until_release) return;
 1310              		.loc 1 520 1 is_stmt 0 view .LVU416
 1311 0000 F8B5     		push	{r3, r4, r5, r6, r7, lr}
 1312              	.LCFI4:
 1313              		.cfi_def_cfa_offset 24
 1314              		.cfi_offset 3, -24
 1315              		.cfi_offset 4, -20
 1316              		.cfi_offset 5, -16
ARM GAS  C:\Users\gx\AppData\Local\Temp\ccszQoK7.s 			page 50


 1317              		.cfi_offset 6, -12
 1318              		.cfi_offset 7, -8
 1319              		.cfi_offset 14, -4
 1320 0002 0446     		mov	r4, r0
 1321 0004 0D46     		mov	r5, r1
 521:lvgl/lvgl/src/core/lv_indev.c **** 
 1322              		.loc 1 521 5 is_stmt 1 view .LVU417
 521:lvgl/lvgl/src/core/lv_indev.c **** 
 1323              		.loc 1 521 12 is_stmt 0 view .LVU418
 1324 0006 8B7B     		ldrb	r3, [r1, #14]	@ zero_extendqisi2
 521:lvgl/lvgl/src/core/lv_indev.c **** 
 1325              		.loc 1 521 7 view .LVU419
 1326 0008 012B     		cmp	r3, #1
 1327 000a 35D0     		beq	.L138
 1328              	.L87:
 523:lvgl/lvgl/src/core/lv_indev.c ****         i->proc.wait_until_release      = 0;
 1329              		.loc 1 523 5 is_stmt 1 view .LVU420
 523:lvgl/lvgl/src/core/lv_indev.c ****         i->proc.wait_until_release      = 0;
 1330              		.loc 1 523 8 is_stmt 0 view .LVU421
 1331 000c 6379     		ldrb	r3, [r4, #5]	@ zero_extendqisi2
 523:lvgl/lvgl/src/core/lv_indev.c ****         i->proc.wait_until_release      = 0;
 1332              		.loc 1 523 7 view .LVU422
 1333 000e 13F0080F 		tst	r3, #8
 1334 0012 08D0     		beq	.L89
 524:lvgl/lvgl/src/core/lv_indev.c ****         i->proc.pr_timestamp            = 0;
 1335              		.loc 1 524 9 is_stmt 1 view .LVU423
 524:lvgl/lvgl/src/core/lv_indev.c ****         i->proc.pr_timestamp            = 0;
 1336              		.loc 1 524 41 is_stmt 0 view .LVU424
 1337 0014 6379     		ldrb	r3, [r4, #5]	@ zero_extendqisi2
 525:lvgl/lvgl/src/core/lv_indev.c ****         i->proc.long_pr_sent            = 0;
 1338              		.loc 1 525 9 is_stmt 1 view .LVU425
 525:lvgl/lvgl/src/core/lv_indev.c ****         i->proc.long_pr_sent            = 0;
 1339              		.loc 1 525 41 is_stmt 0 view .LVU426
 1340 0016 0022     		movs	r2, #0
 1341 0018 6264     		str	r2, [r4, #68]
 526:lvgl/lvgl/src/core/lv_indev.c ****         i->proc.types.keypad.last_state = LV_INDEV_STATE_RELEASED; /*To skip the processing of rele
 1342              		.loc 1 526 9 is_stmt 1 view .LVU427
 526:lvgl/lvgl/src/core/lv_indev.c ****         i->proc.types.keypad.last_state = LV_INDEV_STATE_RELEASED; /*To skip the processing of rele
 1343              		.loc 1 526 41 is_stmt 0 view .LVU428
 1344 001a 03F0F703 		and	r3, r3, #247
 1345 001e 62F30003 		bfi	r3, r2, #0, #1
 1346 0022 6371     		strb	r3, [r4, #5]
 527:lvgl/lvgl/src/core/lv_indev.c ****     }
 1347              		.loc 1 527 9 is_stmt 1 view .LVU429
 527:lvgl/lvgl/src/core/lv_indev.c ****     }
 1348              		.loc 1 527 41 is_stmt 0 view .LVU430
 1349 0024 2272     		strb	r2, [r4, #8]
 1350              	.L89:
 532:lvgl/lvgl/src/core/lv_indev.c ****     i->proc.types.keypad.last_state = data->state;
 1351              		.loc 1 532 5 is_stmt 1 view .LVU431
 532:lvgl/lvgl/src/core/lv_indev.c ****     i->proc.types.keypad.last_state = data->state;
 1352              		.loc 1 532 22 is_stmt 0 view .LVU432
 1353 0026 277A     		ldrb	r7, [r4, #8]	@ zero_extendqisi2
 1354              	.LVL119:
 533:lvgl/lvgl/src/core/lv_indev.c ****     i->proc.types.keypad.last_key   = data->key;
 1355              		.loc 1 533 5 is_stmt 1 view .LVU433
 533:lvgl/lvgl/src/core/lv_indev.c ****     i->proc.types.keypad.last_key   = data->key;
ARM GAS  C:\Users\gx\AppData\Local\Temp\ccszQoK7.s 			page 51


 1356              		.loc 1 533 43 is_stmt 0 view .LVU434
 1357 0028 AB7B     		ldrb	r3, [r5, #14]	@ zero_extendqisi2
 533:lvgl/lvgl/src/core/lv_indev.c ****     i->proc.types.keypad.last_key   = data->key;
 1358              		.loc 1 533 37 view .LVU435
 1359 002a 2372     		strb	r3, [r4, #8]
 534:lvgl/lvgl/src/core/lv_indev.c **** 
 1360              		.loc 1 534 5 is_stmt 1 view .LVU436
 534:lvgl/lvgl/src/core/lv_indev.c **** 
 1361              		.loc 1 534 43 is_stmt 0 view .LVU437
 1362 002c 6B68     		ldr	r3, [r5, #4]
 534:lvgl/lvgl/src/core/lv_indev.c **** 
 1363              		.loc 1 534 37 view .LVU438
 1364 002e E360     		str	r3, [r4, #12]
 536:lvgl/lvgl/src/core/lv_indev.c ****     if(g == NULL) return;
 1365              		.loc 1 536 5 is_stmt 1 view .LVU439
 536:lvgl/lvgl/src/core/lv_indev.c ****     if(g == NULL) return;
 1366              		.loc 1 536 18 is_stmt 0 view .LVU440
 1367 0030 266D     		ldr	r6, [r4, #80]
 1368              	.LVL120:
 537:lvgl/lvgl/src/core/lv_indev.c **** 
 1369              		.loc 1 537 5 is_stmt 1 view .LVU441
 537:lvgl/lvgl/src/core/lv_indev.c **** 
 1370              		.loc 1 537 7 is_stmt 0 view .LVU442
 1371 0032 06B3     		cbz	r6, .L86
 539:lvgl/lvgl/src/core/lv_indev.c ****     if(indev_obj_act == NULL) return;
 1372              		.loc 1 539 5 is_stmt 1 view .LVU443
 539:lvgl/lvgl/src/core/lv_indev.c ****     if(indev_obj_act == NULL) return;
 1373              		.loc 1 539 21 is_stmt 0 view .LVU444
 1374 0034 3046     		mov	r0, r6
 1375              	.LVL121:
 539:lvgl/lvgl/src/core/lv_indev.c ****     if(indev_obj_act == NULL) return;
 1376              		.loc 1 539 21 view .LVU445
 1377 0036 FFF7FEFF 		bl	lv_group_get_focused
 1378              	.LVL122:
 539:lvgl/lvgl/src/core/lv_indev.c ****     if(indev_obj_act == NULL) return;
 1379              		.loc 1 539 19 view .LVU446
 1380 003a A04B     		ldr	r3, .L158
 1381 003c 1860     		str	r0, [r3]
 540:lvgl/lvgl/src/core/lv_indev.c **** 
 1382              		.loc 1 540 5 is_stmt 1 view .LVU447
 540:lvgl/lvgl/src/core/lv_indev.c **** 
 1383              		.loc 1 540 7 is_stmt 0 view .LVU448
 1384 003e D0B1     		cbz	r0, .L86
 543:lvgl/lvgl/src/core/lv_indev.c ****         data->enc_diff = 0;
 1385              		.loc 1 543 5 is_stmt 1 view .LVU449
 543:lvgl/lvgl/src/core/lv_indev.c ****         data->enc_diff = 0;
 1386              		.loc 1 543 12 is_stmt 0 view .LVU450
 1387 0040 AB7B     		ldrb	r3, [r5, #14]	@ zero_extendqisi2
 543:lvgl/lvgl/src/core/lv_indev.c ****         data->enc_diff = 0;
 1388              		.loc 1 543 7 view .LVU451
 1389 0042 0BB1     		cbz	r3, .L90
 544:lvgl/lvgl/src/core/lv_indev.c ****     }
 1390              		.loc 1 544 9 is_stmt 1 view .LVU452
 544:lvgl/lvgl/src/core/lv_indev.c ****     }
 1391              		.loc 1 544 24 is_stmt 0 view .LVU453
 1392 0044 0023     		movs	r3, #0
 1393 0046 AB81     		strh	r3, [r5, #12]	@ movhi
ARM GAS  C:\Users\gx\AppData\Local\Temp\ccszQoK7.s 			page 52


 1394              	.L90:
 548:lvgl/lvgl/src/core/lv_indev.c ****     if(indev_obj_act == NULL) return;
 1395              		.loc 1 548 5 is_stmt 1 view .LVU454
 548:lvgl/lvgl/src/core/lv_indev.c ****     if(indev_obj_act == NULL) return;
 1396              		.loc 1 548 21 is_stmt 0 view .LVU455
 1397 0048 3046     		mov	r0, r6
 1398 004a FFF7FEFF 		bl	lv_group_get_focused
 1399              	.LVL123:
 548:lvgl/lvgl/src/core/lv_indev.c ****     if(indev_obj_act == NULL) return;
 1400              		.loc 1 548 19 view .LVU456
 1401 004e 9B4B     		ldr	r3, .L158
 1402 0050 1860     		str	r0, [r3]
 549:lvgl/lvgl/src/core/lv_indev.c **** 
 1403              		.loc 1 549 5 is_stmt 1 view .LVU457
 549:lvgl/lvgl/src/core/lv_indev.c **** 
 1404              		.loc 1 549 7 is_stmt 0 view .LVU458
 1405 0052 80B1     		cbz	r0, .L86
 552:lvgl/lvgl/src/core/lv_indev.c ****         LV_LOG_INFO("pressed");
 1406              		.loc 1 552 5 is_stmt 1 view .LVU459
 552:lvgl/lvgl/src/core/lv_indev.c ****         LV_LOG_INFO("pressed");
 1407              		.loc 1 552 12 is_stmt 0 view .LVU460
 1408 0054 AB7B     		ldrb	r3, [r5, #14]	@ zero_extendqisi2
 552:lvgl/lvgl/src/core/lv_indev.c ****         LV_LOG_INFO("pressed");
 1409              		.loc 1 552 7 view .LVU461
 1410 0056 012B     		cmp	r3, #1
 1411 0058 13D0     		beq	.L139
 1412              	.L91:
 586:lvgl/lvgl/src/core/lv_indev.c ****         /*Long press*/
 1413              		.loc 1 586 10 is_stmt 1 view .LVU462
 586:lvgl/lvgl/src/core/lv_indev.c ****         /*Long press*/
 1414              		.loc 1 586 12 is_stmt 0 view .LVU463
 1415 005a 012B     		cmp	r3, #1
 1416 005c 61D0     		beq	.L140
 1417              	.L99:
 641:lvgl/lvgl/src/core/lv_indev.c ****         LV_LOG_INFO("released");
 1418              		.loc 1 641 10 is_stmt 1 view .LVU464
 641:lvgl/lvgl/src/core/lv_indev.c ****         LV_LOG_INFO("released");
 1419              		.loc 1 641 12 is_stmt 0 view .LVU465
 1420 005e 13B9     		cbnz	r3, .L95
 641:lvgl/lvgl/src/core/lv_indev.c ****         LV_LOG_INFO("released");
 1421              		.loc 1 641 52 discriminator 1 view .LVU466
 1422 0060 012F     		cmp	r7, #1
 1423 0062 00F0E380 		beq	.L141
 1424              	.LVL124:
 1425              	.L95:
 690:lvgl/lvgl/src/core/lv_indev.c **** 
 1426              		.loc 1 690 5 is_stmt 1 view .LVU467
 690:lvgl/lvgl/src/core/lv_indev.c **** 
 1427              		.loc 1 690 19 is_stmt 0 view .LVU468
 1428 0066 954B     		ldr	r3, .L158
 1429 0068 0022     		movs	r2, #0
 1430 006a 1A60     		str	r2, [r3]
 693:lvgl/lvgl/src/core/lv_indev.c ****         /*In edit mode send LEFT/RIGHT keys*/
 1431              		.loc 1 693 5 is_stmt 1 view .LVU469
 693:lvgl/lvgl/src/core/lv_indev.c ****         /*In edit mode send LEFT/RIGHT keys*/
 1432              		.loc 1 693 12 is_stmt 0 view .LVU470
 1433 006c B5F90C30 		ldrsh	r3, [r5, #12]
ARM GAS  C:\Users\gx\AppData\Local\Temp\ccszQoK7.s 			page 53


 693:lvgl/lvgl/src/core/lv_indev.c ****         /*In edit mode send LEFT/RIGHT keys*/
 1434              		.loc 1 693 7 view .LVU471
 1435 0070 002B     		cmp	r3, #0
 1436 0072 40F07281 		bne	.L142
 1437              	.LVL125:
 1438              	.L86:
 717:lvgl/lvgl/src/core/lv_indev.c **** 
 1439              		.loc 1 717 1 view .LVU472
 1440 0076 F8BD     		pop	{r3, r4, r5, r6, r7, pc}
 1441              	.LVL126:
 1442              	.L138:
 521:lvgl/lvgl/src/core/lv_indev.c **** 
 1443              		.loc 1 521 46 discriminator 1 view .LVU473
 1444 0078 4379     		ldrb	r3, [r0, #5]	@ zero_extendqisi2
 1445 007a 13F0080F 		tst	r3, #8
 1446 007e C5D0     		beq	.L87
 1447 0080 F9E7     		b	.L86
 1448              	.LVL127:
 1449              	.L139:
 552:lvgl/lvgl/src/core/lv_indev.c ****         LV_LOG_INFO("pressed");
 1450              		.loc 1 552 46 discriminator 1 view .LVU474
 1451 0082 002F     		cmp	r7, #0
 1452 0084 E9D1     		bne	.L91
 553:lvgl/lvgl/src/core/lv_indev.c **** 
 1453              		.loc 1 553 9 is_stmt 1 view .LVU475
 553:lvgl/lvgl/src/core/lv_indev.c **** 
 1454              		.loc 1 553 9 view .LVU476
 553:lvgl/lvgl/src/core/lv_indev.c **** 
 1455              		.loc 1 553 9 view .LVU477
 553:lvgl/lvgl/src/core/lv_indev.c **** 
 1456              		.loc 1 553 31 view .LVU478
 555:lvgl/lvgl/src/core/lv_indev.c **** 
 1457              		.loc 1 555 9 view .LVU479
 555:lvgl/lvgl/src/core/lv_indev.c **** 
 1458              		.loc 1 555 32 is_stmt 0 view .LVU480
 1459 0086 FFF7FEFF 		bl	lv_tick_get
 1460              	.LVL128:
 555:lvgl/lvgl/src/core/lv_indev.c **** 
 1461              		.loc 1 555 30 view .LVU481
 1462 008a 6064     		str	r0, [r4, #68]
 557:lvgl/lvgl/src/core/lv_indev.c ****             bool editable_or_scrollable = lv_obj_is_editable(indev_obj_act) ||
 1463              		.loc 1 557 9 is_stmt 1 view .LVU482
 557:lvgl/lvgl/src/core/lv_indev.c ****             bool editable_or_scrollable = lv_obj_is_editable(indev_obj_act) ||
 1464              		.loc 1 557 16 is_stmt 0 view .LVU483
 1465 008c 6968     		ldr	r1, [r5, #4]
 557:lvgl/lvgl/src/core/lv_indev.c ****             bool editable_or_scrollable = lv_obj_is_editable(indev_obj_act) ||
 1466              		.loc 1 557 11 view .LVU484
 1467 008e 0A29     		cmp	r1, #10
 1468 0090 09D0     		beq	.L143
 565:lvgl/lvgl/src/core/lv_indev.c ****             /*emulate encoder left*/
 1469              		.loc 1 565 14 is_stmt 1 view .LVU485
 565:lvgl/lvgl/src/core/lv_indev.c ****             /*emulate encoder left*/
 1470              		.loc 1 565 16 is_stmt 0 view .LVU486
 1471 0092 1429     		cmp	r1, #20
 1472 0094 2BD0     		beq	.L144
 569:lvgl/lvgl/src/core/lv_indev.c ****             /*emulate encoder right*/
 1473              		.loc 1 569 14 is_stmt 1 view .LVU487
ARM GAS  C:\Users\gx\AppData\Local\Temp\ccszQoK7.s 			page 54


 569:lvgl/lvgl/src/core/lv_indev.c ****             /*emulate encoder right*/
 1474              		.loc 1 569 16 is_stmt 0 view .LVU488
 1475 0096 1329     		cmp	r1, #19
 1476 0098 2ED0     		beq	.L145
 573:lvgl/lvgl/src/core/lv_indev.c ****             /*Send the ESC as a normal KEY*/
 1477              		.loc 1 573 14 is_stmt 1 view .LVU489
 573:lvgl/lvgl/src/core/lv_indev.c ****             /*Send the ESC as a normal KEY*/
 1478              		.loc 1 573 16 is_stmt 0 view .LVU490
 1479 009a 1B29     		cmp	r1, #27
 1480 009c 31D0     		beq	.L146
 582:lvgl/lvgl/src/core/lv_indev.c ****         }
 1481              		.loc 1 582 13 is_stmt 1 view .LVU491
 1482 009e 3046     		mov	r0, r6
 1483 00a0 FFF7FEFF 		bl	lv_group_send_data
 1484              	.LVL129:
 1485 00a4 DFE7     		b	.L95
 1486              	.L143:
 1487              	.LBB4:
 558:lvgl/lvgl/src/core/lv_indev.c ****                                           lv_obj_has_flag(indev_obj_act, LV_OBJ_FLAG_SCROLLABLE);
 1488              		.loc 1 558 13 view .LVU492
 558:lvgl/lvgl/src/core/lv_indev.c ****                                           lv_obj_has_flag(indev_obj_act, LV_OBJ_FLAG_SCROLLABLE);
 1489              		.loc 1 558 43 is_stmt 0 view .LVU493
 1490 00a6 854B     		ldr	r3, .L158
 1491 00a8 1868     		ldr	r0, [r3]
 1492 00aa FFF7FEFF 		bl	lv_obj_is_editable
 1493              	.LVL130:
 558:lvgl/lvgl/src/core/lv_indev.c ****                                           lv_obj_has_flag(indev_obj_act, LV_OBJ_FLAG_SCROLLABLE);
 1494              		.loc 1 558 77 view .LVU494
 1495 00ae A0B1     		cbz	r0, .L147
 1496 00b0 0123     		movs	r3, #1
 1497              	.L93:
 558:lvgl/lvgl/src/core/lv_indev.c ****                                           lv_obj_has_flag(indev_obj_act, LV_OBJ_FLAG_SCROLLABLE);
 1498              		.loc 1 558 18 discriminator 6 view .LVU495
 1499 00b2 1F46     		mov	r7, r3
 1500              	.LVL131:
 560:lvgl/lvgl/src/core/lv_indev.c ****                 lv_event_send(indev_obj_act, LV_EVENT_PRESSED, indev_act);
 1501              		.loc 1 560 13 is_stmt 1 discriminator 6 view .LVU496
 560:lvgl/lvgl/src/core/lv_indev.c ****                 lv_event_send(indev_obj_act, LV_EVENT_PRESSED, indev_act);
 1502              		.loc 1 560 16 is_stmt 0 discriminator 6 view .LVU497
 1503 00b4 3046     		mov	r0, r6
 1504 00b6 FFF7FEFF 		bl	lv_group_get_editing
 1505              	.LVL132:
 560:lvgl/lvgl/src/core/lv_indev.c ****                 lv_event_send(indev_obj_act, LV_EVENT_PRESSED, indev_act);
 1506              		.loc 1 560 15 discriminator 6 view .LVU498
 1507 00ba 08B9     		cbnz	r0, .L94
 560:lvgl/lvgl/src/core/lv_indev.c ****                 lv_event_send(indev_obj_act, LV_EVENT_PRESSED, indev_act);
 1508              		.loc 1 560 48 discriminator 1 view .LVU499
 1509 00bc 002F     		cmp	r7, #0
 1510 00be D2D1     		bne	.L95
 1511              	.L94:
 561:lvgl/lvgl/src/core/lv_indev.c ****                 if(indev_reset_check(&i->proc)) return;
 1512              		.loc 1 561 17 is_stmt 1 view .LVU500
 1513 00c0 7F4B     		ldr	r3, .L158+4
 1514 00c2 1A68     		ldr	r2, [r3]
 1515 00c4 0121     		movs	r1, #1
 1516 00c6 7D4B     		ldr	r3, .L158
 1517 00c8 1868     		ldr	r0, [r3]
ARM GAS  C:\Users\gx\AppData\Local\Temp\ccszQoK7.s 			page 55


 1518 00ca FFF7FEFF 		bl	lv_event_send
 1519              	.LVL133:
 562:lvgl/lvgl/src/core/lv_indev.c ****             }
 1520              		.loc 1 562 17 view .LVU501
 562:lvgl/lvgl/src/core/lv_indev.c ****             }
 1521              		.loc 1 562 20 is_stmt 0 view .LVU502
 1522 00ce 201D     		adds	r0, r4, #4
 1523 00d0 FFF7FEFF 		bl	indev_reset_check
 1524              	.LVL134:
 562:lvgl/lvgl/src/core/lv_indev.c ****             }
 1525              		.loc 1 562 19 view .LVU503
 1526 00d4 0028     		cmp	r0, #0
 1527 00d6 C6D0     		beq	.L95
 1528 00d8 CDE7     		b	.L86
 1529              	.LVL135:
 1530              	.L147:
 559:lvgl/lvgl/src/core/lv_indev.c ****             if(lv_group_get_editing(g) == true || editable_or_scrollable == false) {
 1531              		.loc 1 559 43 discriminator 2 view .LVU504
 1532 00da 1021     		movs	r1, #16
 1533 00dc 774B     		ldr	r3, .L158
 1534 00de 1868     		ldr	r0, [r3]
 1535 00e0 FFF7FEFF 		bl	lv_obj_has_flag
 1536              	.LVL136:
 558:lvgl/lvgl/src/core/lv_indev.c ****                                           lv_obj_has_flag(indev_obj_act, LV_OBJ_FLAG_SCROLLABLE);
 1537              		.loc 1 558 77 discriminator 2 view .LVU505
 1538 00e4 08B9     		cbnz	r0, .L126
 558:lvgl/lvgl/src/core/lv_indev.c ****                                           lv_obj_has_flag(indev_obj_act, LV_OBJ_FLAG_SCROLLABLE);
 1539              		.loc 1 558 77 view .LVU506
 1540 00e6 0023     		movs	r3, #0
 1541 00e8 E3E7     		b	.L93
 1542              	.L126:
 1543 00ea 0123     		movs	r3, #1
 1544 00ec E1E7     		b	.L93
 1545              	.L144:
 1546              	.LBE4:
 567:lvgl/lvgl/src/core/lv_indev.c ****         }
 1547              		.loc 1 567 13 is_stmt 1 view .LVU507
 567:lvgl/lvgl/src/core/lv_indev.c ****         }
 1548              		.loc 1 567 17 is_stmt 0 view .LVU508
 1549 00ee B5F90C30 		ldrsh	r3, [r5, #12]
 567:lvgl/lvgl/src/core/lv_indev.c ****         }
 1550              		.loc 1 567 27 view .LVU509
 1551 00f2 013B     		subs	r3, r3, #1
 1552 00f4 AB81     		strh	r3, [r5, #12]	@ movhi
 1553 00f6 B6E7     		b	.L95
 1554              	.L145:
 571:lvgl/lvgl/src/core/lv_indev.c ****         }
 1555              		.loc 1 571 13 is_stmt 1 view .LVU510
 571:lvgl/lvgl/src/core/lv_indev.c ****         }
 1556              		.loc 1 571 17 is_stmt 0 view .LVU511
 1557 00f8 B5F90C30 		ldrsh	r3, [r5, #12]
 571:lvgl/lvgl/src/core/lv_indev.c ****         }
 1558              		.loc 1 571 27 view .LVU512
 1559 00fc 0133     		adds	r3, r3, #1
 1560 00fe AB81     		strh	r3, [r5, #12]	@ movhi
 1561 0100 B1E7     		b	.L95
 1562              	.L146:
ARM GAS  C:\Users\gx\AppData\Local\Temp\ccszQoK7.s 			page 56


 575:lvgl/lvgl/src/core/lv_indev.c **** 
 1563              		.loc 1 575 13 is_stmt 1 view .LVU513
 1564 0102 3046     		mov	r0, r6
 1565 0104 FFF7FEFF 		bl	lv_group_send_data
 1566              	.LVL137:
 577:lvgl/lvgl/src/core/lv_indev.c ****             if(indev_reset_check(&i->proc)) return;
 1567              		.loc 1 577 13 view .LVU514
 1568 0108 6D4B     		ldr	r3, .L158+4
 1569 010a 1A68     		ldr	r2, [r3]
 1570 010c 2021     		movs	r1, #32
 1571 010e 6B4B     		ldr	r3, .L158
 1572 0110 1868     		ldr	r0, [r3]
 1573 0112 FFF7FEFF 		bl	lv_event_send
 1574              	.LVL138:
 578:lvgl/lvgl/src/core/lv_indev.c ****         }
 1575              		.loc 1 578 13 view .LVU515
 578:lvgl/lvgl/src/core/lv_indev.c ****         }
 1576              		.loc 1 578 16 is_stmt 0 view .LVU516
 1577 0116 201D     		adds	r0, r4, #4
 1578 0118 FFF7FEFF 		bl	indev_reset_check
 1579              	.LVL139:
 578:lvgl/lvgl/src/core/lv_indev.c ****         }
 1580              		.loc 1 578 15 view .LVU517
 1581 011c 0028     		cmp	r0, #0
 1582 011e A2D0     		beq	.L95
 1583 0120 A9E7     		b	.L86
 1584              	.L140:
 586:lvgl/lvgl/src/core/lv_indev.c ****         /*Long press*/
 1585              		.loc 1 586 51 discriminator 1 view .LVU518
 1586 0122 012F     		cmp	r7, #1
 1587 0124 9BD1     		bne	.L99
 588:lvgl/lvgl/src/core/lv_indev.c **** 
 1588              		.loc 1 588 9 is_stmt 1 view .LVU519
 588:lvgl/lvgl/src/core/lv_indev.c **** 
 1589              		.loc 1 588 33 is_stmt 0 view .LVU520
 1590 0126 6379     		ldrb	r3, [r4, #5]	@ zero_extendqisi2
 588:lvgl/lvgl/src/core/lv_indev.c **** 
 1591              		.loc 1 588 11 view .LVU521
 1592 0128 13F0010F 		tst	r3, #1
 1593 012c 19D0     		beq	.L148
 1594              	.L100:
 616:lvgl/lvgl/src/core/lv_indev.c **** 
 1595              		.loc 1 616 14 is_stmt 1 view .LVU522
 616:lvgl/lvgl/src/core/lv_indev.c **** 
 1596              		.loc 1 616 38 is_stmt 0 view .LVU523
 1597 012e 6379     		ldrb	r3, [r4, #5]	@ zero_extendqisi2
 616:lvgl/lvgl/src/core/lv_indev.c **** 
 1598              		.loc 1 616 16 view .LVU524
 1599 0130 13F0010F 		tst	r3, #1
 1600 0134 97D0     		beq	.L95
 616:lvgl/lvgl/src/core/lv_indev.c **** 
 1601              		.loc 1 616 46 discriminator 1 view .LVU525
 1602 0136 A06C     		ldr	r0, [r4, #72]
 1603 0138 FFF7FEFF 		bl	lv_tick_elaps
 1604              	.LVL140:
 616:lvgl/lvgl/src/core/lv_indev.c **** 
 1605              		.loc 1 616 93 discriminator 1 view .LVU526
ARM GAS  C:\Users\gx\AppData\Local\Temp\ccszQoK7.s 			page 57


 1606 013c 2368     		ldr	r3, [r4]
 616:lvgl/lvgl/src/core/lv_indev.c **** 
 1607              		.loc 1 616 101 discriminator 1 view .LVU527
 1608 013e DB8B     		ldrh	r3, [r3, #30]
 616:lvgl/lvgl/src/core/lv_indev.c **** 
 1609              		.loc 1 616 43 discriminator 1 view .LVU528
 1610 0140 9842     		cmp	r0, r3
 1611 0142 90D9     		bls	.L95
 618:lvgl/lvgl/src/core/lv_indev.c **** 
 1612              		.loc 1 618 13 is_stmt 1 view .LVU529
 618:lvgl/lvgl/src/core/lv_indev.c **** 
 1613              		.loc 1 618 44 is_stmt 0 view .LVU530
 1614 0144 FFF7FEFF 		bl	lv_tick_get
 1615              	.LVL141:
 618:lvgl/lvgl/src/core/lv_indev.c **** 
 1616              		.loc 1 618 42 view .LVU531
 1617 0148 A064     		str	r0, [r4, #72]
 620:lvgl/lvgl/src/core/lv_indev.c ****                 lv_event_send(indev_obj_act, LV_EVENT_LONG_PRESSED_REPEAT, indev_act);
 1618              		.loc 1 620 13 is_stmt 1 view .LVU532
 620:lvgl/lvgl/src/core/lv_indev.c ****                 lv_event_send(indev_obj_act, LV_EVENT_LONG_PRESSED_REPEAT, indev_act);
 1619              		.loc 1 620 20 is_stmt 0 view .LVU533
 1620 014a 6968     		ldr	r1, [r5, #4]
 620:lvgl/lvgl/src/core/lv_indev.c ****                 lv_event_send(indev_obj_act, LV_EVENT_LONG_PRESSED_REPEAT, indev_act);
 1621              		.loc 1 620 15 view .LVU534
 1622 014c 0A29     		cmp	r1, #10
 1623 014e 50D0     		beq	.L149
 624:lvgl/lvgl/src/core/lv_indev.c ****                 /*emulate encoder left*/
 1624              		.loc 1 624 18 is_stmt 1 view .LVU535
 624:lvgl/lvgl/src/core/lv_indev.c ****                 /*emulate encoder left*/
 1625              		.loc 1 624 20 is_stmt 0 view .LVU536
 1626 0150 1429     		cmp	r1, #20
 1627 0152 5CD0     		beq	.L150
 628:lvgl/lvgl/src/core/lv_indev.c ****                 /*emulate encoder right*/
 1628              		.loc 1 628 18 is_stmt 1 view .LVU537
 628:lvgl/lvgl/src/core/lv_indev.c ****                 /*emulate encoder right*/
 1629              		.loc 1 628 20 is_stmt 0 view .LVU538
 1630 0154 1329     		cmp	r1, #19
 1631 0156 5FD1     		bne	.L106
 630:lvgl/lvgl/src/core/lv_indev.c ****             }
 1632              		.loc 1 630 17 is_stmt 1 view .LVU539
 630:lvgl/lvgl/src/core/lv_indev.c ****             }
 1633              		.loc 1 630 21 is_stmt 0 view .LVU540
 1634 0158 B5F90C30 		ldrsh	r3, [r5, #12]
 630:lvgl/lvgl/src/core/lv_indev.c ****             }
 1635              		.loc 1 630 31 view .LVU541
 1636 015c 0133     		adds	r3, r3, #1
 1637 015e AB81     		strh	r3, [r5, #12]	@ movhi
 1638 0160 81E7     		b	.L95
 1639              	.L148:
 588:lvgl/lvgl/src/core/lv_indev.c **** 
 1640              		.loc 1 588 41 discriminator 1 view .LVU542
 1641 0162 606C     		ldr	r0, [r4, #68]
 1642 0164 FFF7FEFF 		bl	lv_tick_elaps
 1643              	.LVL142:
 588:lvgl/lvgl/src/core/lv_indev.c **** 
 1644              		.loc 1 588 80 discriminator 1 view .LVU543
 1645 0168 2368     		ldr	r3, [r4]
ARM GAS  C:\Users\gx\AppData\Local\Temp\ccszQoK7.s 			page 58


 588:lvgl/lvgl/src/core/lv_indev.c **** 
 1646              		.loc 1 588 88 discriminator 1 view .LVU544
 1647 016a 9B8B     		ldrh	r3, [r3, #28]
 588:lvgl/lvgl/src/core/lv_indev.c **** 
 1648              		.loc 1 588 38 discriminator 1 view .LVU545
 1649 016c 9842     		cmp	r0, r3
 1650 016e DED9     		bls	.L100
 590:lvgl/lvgl/src/core/lv_indev.c ****             i->proc.longpr_rep_timestamp = lv_tick_get();
 1651              		.loc 1 590 13 is_stmt 1 view .LVU546
 590:lvgl/lvgl/src/core/lv_indev.c ****             i->proc.longpr_rep_timestamp = lv_tick_get();
 1652              		.loc 1 590 34 is_stmt 0 view .LVU547
 1653 0170 6379     		ldrb	r3, [r4, #5]	@ zero_extendqisi2
 1654 0172 43F00103 		orr	r3, r3, #1
 1655 0176 6371     		strb	r3, [r4, #5]
 591:lvgl/lvgl/src/core/lv_indev.c **** 
 1656              		.loc 1 591 13 is_stmt 1 view .LVU548
 591:lvgl/lvgl/src/core/lv_indev.c **** 
 1657              		.loc 1 591 44 is_stmt 0 view .LVU549
 1658 0178 FFF7FEFF 		bl	lv_tick_get
 1659              	.LVL143:
 591:lvgl/lvgl/src/core/lv_indev.c **** 
 1660              		.loc 1 591 42 view .LVU550
 1661 017c A064     		str	r0, [r4, #72]
 593:lvgl/lvgl/src/core/lv_indev.c ****                 bool editable_or_scrollable = lv_obj_is_editable(indev_obj_act) ||
 1662              		.loc 1 593 13 is_stmt 1 view .LVU551
 593:lvgl/lvgl/src/core/lv_indev.c ****                 bool editable_or_scrollable = lv_obj_is_editable(indev_obj_act) ||
 1663              		.loc 1 593 20 is_stmt 0 view .LVU552
 1664 017e 6B68     		ldr	r3, [r5, #4]
 593:lvgl/lvgl/src/core/lv_indev.c ****                 bool editable_or_scrollable = lv_obj_is_editable(indev_obj_act) ||
 1665              		.loc 1 593 15 view .LVU553
 1666 0180 0A2B     		cmp	r3, #10
 1667 0182 04D0     		beq	.L151
 1668              	.L101:
 613:lvgl/lvgl/src/core/lv_indev.c ****         }
 1669              		.loc 1 613 13 is_stmt 1 view .LVU554
 613:lvgl/lvgl/src/core/lv_indev.c ****         }
 1670              		.loc 1 613 34 is_stmt 0 view .LVU555
 1671 0184 6379     		ldrb	r3, [r4, #5]	@ zero_extendqisi2
 1672 0186 43F00103 		orr	r3, r3, #1
 1673 018a 6371     		strb	r3, [r4, #5]
 1674 018c 6BE7     		b	.L95
 1675              	.L151:
 1676              	.LBB5:
 594:lvgl/lvgl/src/core/lv_indev.c ****                                               lv_obj_has_flag(indev_obj_act, LV_OBJ_FLAG_SCROLLABLE
 1677              		.loc 1 594 17 is_stmt 1 view .LVU556
 594:lvgl/lvgl/src/core/lv_indev.c ****                                               lv_obj_has_flag(indev_obj_act, LV_OBJ_FLAG_SCROLLABLE
 1678              		.loc 1 594 47 is_stmt 0 view .LVU557
 1679 018e 4B4B     		ldr	r3, .L158
 1680 0190 1868     		ldr	r0, [r3]
 1681 0192 FFF7FEFF 		bl	lv_obj_is_editable
 1682              	.LVL144:
 594:lvgl/lvgl/src/core/lv_indev.c ****                                               lv_obj_has_flag(indev_obj_act, LV_OBJ_FLAG_SCROLLABLE
 1683              		.loc 1 594 81 view .LVU558
 1684 0196 A8B1     		cbz	r0, .L152
 1685 0198 0123     		movs	r3, #1
 1686              	.L102:
 1687              	.LVL145:
ARM GAS  C:\Users\gx\AppData\Local\Temp\ccszQoK7.s 			page 59


 598:lvgl/lvgl/src/core/lv_indev.c ****                     /*Don't leave edit mode if there is only one object (nowhere to navigate)*/
 1688              		.loc 1 598 17 is_stmt 1 discriminator 6 view .LVU559
 598:lvgl/lvgl/src/core/lv_indev.c ****                     /*Don't leave edit mode if there is only one object (nowhere to navigate)*/
 1689              		.loc 1 598 19 is_stmt 0 discriminator 6 view .LVU560
 1690 019a EBB1     		cbz	r3, .L103
 600:lvgl/lvgl/src/core/lv_indev.c ****                         LV_LOG_INFO("toggling edit mode");
 1691              		.loc 1 600 21 is_stmt 1 view .LVU561
 600:lvgl/lvgl/src/core/lv_indev.c ****                         LV_LOG_INFO("toggling edit mode");
 1692              		.loc 1 600 24 is_stmt 0 view .LVU562
 1693 019c 3046     		mov	r0, r6
 1694 019e FFF7FEFF 		bl	lv_group_get_obj_count
 1695              	.LVL146:
 600:lvgl/lvgl/src/core/lv_indev.c ****                         LV_LOG_INFO("toggling edit mode");
 1696              		.loc 1 600 23 view .LVU563
 1697 01a2 0128     		cmp	r0, #1
 1698 01a4 EED9     		bls	.L101
 601:lvgl/lvgl/src/core/lv_indev.c ****                         lv_group_set_editing(g, lv_group_get_editing(g) ? false : true); /*Toggle e
 1699              		.loc 1 601 25 is_stmt 1 view .LVU564
 601:lvgl/lvgl/src/core/lv_indev.c ****                         lv_group_set_editing(g, lv_group_get_editing(g) ? false : true); /*Toggle e
 1700              		.loc 1 601 25 view .LVU565
 601:lvgl/lvgl/src/core/lv_indev.c ****                         lv_group_set_editing(g, lv_group_get_editing(g) ? false : true); /*Toggle e
 1701              		.loc 1 601 25 view .LVU566
 601:lvgl/lvgl/src/core/lv_indev.c ****                         lv_group_set_editing(g, lv_group_get_editing(g) ? false : true); /*Toggle e
 1702              		.loc 1 601 58 view .LVU567
 602:lvgl/lvgl/src/core/lv_indev.c ****                         lv_obj_clear_state(indev_obj_act, LV_STATE_PRESSED);    /*Remove the presse
 1703              		.loc 1 602 25 view .LVU568
 602:lvgl/lvgl/src/core/lv_indev.c ****                         lv_obj_clear_state(indev_obj_act, LV_STATE_PRESSED);    /*Remove the presse
 1704              		.loc 1 602 49 is_stmt 0 view .LVU569
 1705 01a6 3046     		mov	r0, r6
 1706 01a8 FFF7FEFF 		bl	lv_group_get_editing
 1707              	.LVL147:
 602:lvgl/lvgl/src/core/lv_indev.c ****                         lv_obj_clear_state(indev_obj_act, LV_STATE_PRESSED);    /*Remove the presse
 1708              		.loc 1 602 25 view .LVU570
 1709 01ac 80F00101 		eor	r1, r0, #1
 1710 01b0 C9B2     		uxtb	r1, r1
 1711 01b2 3046     		mov	r0, r6
 1712 01b4 FFF7FEFF 		bl	lv_group_set_editing
 1713              	.LVL148:
 603:lvgl/lvgl/src/core/lv_indev.c ****                     }
 1714              		.loc 1 603 25 is_stmt 1 view .LVU571
 1715 01b8 2021     		movs	r1, #32
 1716 01ba 404B     		ldr	r3, .L158
 1717 01bc 1868     		ldr	r0, [r3]
 1718 01be FFF7FEFF 		bl	lv_obj_clear_state
 1719              	.LVL149:
 1720 01c2 DFE7     		b	.L101
 1721              	.L152:
 595:lvgl/lvgl/src/core/lv_indev.c **** 
 1722              		.loc 1 595 47 is_stmt 0 discriminator 2 view .LVU572
 1723 01c4 1021     		movs	r1, #16
 1724 01c6 3D4B     		ldr	r3, .L158
 1725 01c8 1868     		ldr	r0, [r3]
 1726 01ca FFF7FEFF 		bl	lv_obj_has_flag
 1727              	.LVL150:
 594:lvgl/lvgl/src/core/lv_indev.c ****                                               lv_obj_has_flag(indev_obj_act, LV_OBJ_FLAG_SCROLLABLE
 1728              		.loc 1 594 81 discriminator 2 view .LVU573
 1729 01ce 08B9     		cbnz	r0, .L128
ARM GAS  C:\Users\gx\AppData\Local\Temp\ccszQoK7.s 			page 60


 594:lvgl/lvgl/src/core/lv_indev.c ****                                               lv_obj_has_flag(indev_obj_act, LV_OBJ_FLAG_SCROLLABLE
 1730              		.loc 1 594 81 view .LVU574
 1731 01d0 0023     		movs	r3, #0
 1732 01d2 E2E7     		b	.L102
 1733              	.L128:
 1734 01d4 0123     		movs	r3, #1
 1735 01d6 E0E7     		b	.L102
 1736              	.LVL151:
 1737              	.L103:
 608:lvgl/lvgl/src/core/lv_indev.c ****                     if(indev_reset_check(&i->proc)) return;
 1738              		.loc 1 608 21 is_stmt 1 view .LVU575
 1739 01d8 394B     		ldr	r3, .L158+4
 1740              	.LVL152:
 608:lvgl/lvgl/src/core/lv_indev.c ****                     if(indev_reset_check(&i->proc)) return;
 1741              		.loc 1 608 21 is_stmt 0 view .LVU576
 1742 01da 1A68     		ldr	r2, [r3]
 1743 01dc 0521     		movs	r1, #5
 1744 01de 374B     		ldr	r3, .L158
 1745 01e0 1868     		ldr	r0, [r3]
 1746 01e2 FFF7FEFF 		bl	lv_event_send
 1747              	.LVL153:
 609:lvgl/lvgl/src/core/lv_indev.c ****                 }
 1748              		.loc 1 609 21 is_stmt 1 view .LVU577
 609:lvgl/lvgl/src/core/lv_indev.c ****                 }
 1749              		.loc 1 609 24 is_stmt 0 view .LVU578
 1750 01e6 201D     		adds	r0, r4, #4
 1751 01e8 FFF7FEFF 		bl	indev_reset_check
 1752              	.LVL154:
 609:lvgl/lvgl/src/core/lv_indev.c ****                 }
 1753              		.loc 1 609 23 view .LVU579
 1754 01ec 0028     		cmp	r0, #0
 1755 01ee C9D0     		beq	.L101
 1756 01f0 41E7     		b	.L86
 1757              	.L149:
 609:lvgl/lvgl/src/core/lv_indev.c ****                 }
 1758              		.loc 1 609 23 view .LVU580
 1759              	.LBE5:
 621:lvgl/lvgl/src/core/lv_indev.c ****                 if(indev_reset_check(&i->proc)) return;
 1760              		.loc 1 621 17 is_stmt 1 view .LVU581
 1761 01f2 334B     		ldr	r3, .L158+4
 1762 01f4 1A68     		ldr	r2, [r3]
 1763 01f6 0621     		movs	r1, #6
 1764 01f8 304B     		ldr	r3, .L158
 1765 01fa 1868     		ldr	r0, [r3]
 1766 01fc FFF7FEFF 		bl	lv_event_send
 1767              	.LVL155:
 622:lvgl/lvgl/src/core/lv_indev.c ****             }
 1768              		.loc 1 622 17 view .LVU582
 622:lvgl/lvgl/src/core/lv_indev.c ****             }
 1769              		.loc 1 622 20 is_stmt 0 view .LVU583
 1770 0200 201D     		adds	r0, r4, #4
 1771 0202 FFF7FEFF 		bl	indev_reset_check
 1772              	.LVL156:
 622:lvgl/lvgl/src/core/lv_indev.c ****             }
 1773              		.loc 1 622 19 view .LVU584
 1774 0206 0028     		cmp	r0, #0
 1775 0208 3FF42DAF 		beq	.L95
ARM GAS  C:\Users\gx\AppData\Local\Temp\ccszQoK7.s 			page 61


 1776 020c 33E7     		b	.L86
 1777              	.L150:
 626:lvgl/lvgl/src/core/lv_indev.c ****             }
 1778              		.loc 1 626 17 is_stmt 1 view .LVU585
 626:lvgl/lvgl/src/core/lv_indev.c ****             }
 1779              		.loc 1 626 21 is_stmt 0 view .LVU586
 1780 020e B5F90C30 		ldrsh	r3, [r5, #12]
 626:lvgl/lvgl/src/core/lv_indev.c ****             }
 1781              		.loc 1 626 31 view .LVU587
 1782 0212 013B     		subs	r3, r3, #1
 1783 0214 AB81     		strh	r3, [r5, #12]	@ movhi
 1784 0216 26E7     		b	.L95
 1785              	.L106:
 633:lvgl/lvgl/src/core/lv_indev.c ****                 if(indev_reset_check(&i->proc)) return;
 1786              		.loc 1 633 17 is_stmt 1 view .LVU588
 1787 0218 3046     		mov	r0, r6
 1788 021a FFF7FEFF 		bl	lv_group_send_data
 1789              	.LVL157:
 634:lvgl/lvgl/src/core/lv_indev.c ****             }
 1790              		.loc 1 634 17 view .LVU589
 634:lvgl/lvgl/src/core/lv_indev.c ****             }
 1791              		.loc 1 634 20 is_stmt 0 view .LVU590
 1792 021e 201D     		adds	r0, r4, #4
 1793 0220 FFF7FEFF 		bl	indev_reset_check
 1794              	.LVL158:
 634:lvgl/lvgl/src/core/lv_indev.c ****             }
 1795              		.loc 1 634 19 view .LVU591
 1796 0224 0028     		cmp	r0, #0
 1797 0226 3FF41EAF 		beq	.L95
 1798 022a 24E7     		b	.L86
 1799              	.L141:
 642:lvgl/lvgl/src/core/lv_indev.c **** 
 1800              		.loc 1 642 9 is_stmt 1 view .LVU592
 642:lvgl/lvgl/src/core/lv_indev.c **** 
 1801              		.loc 1 642 9 view .LVU593
 642:lvgl/lvgl/src/core/lv_indev.c **** 
 1802              		.loc 1 642 9 view .LVU594
 642:lvgl/lvgl/src/core/lv_indev.c **** 
 1803              		.loc 1 642 32 view .LVU595
 644:lvgl/lvgl/src/core/lv_indev.c ****             bool editable_or_scrollable = lv_obj_is_editable(indev_obj_act) ||
 1804              		.loc 1 644 9 view .LVU596
 644:lvgl/lvgl/src/core/lv_indev.c ****             bool editable_or_scrollable = lv_obj_is_editable(indev_obj_act) ||
 1805              		.loc 1 644 16 is_stmt 0 view .LVU597
 1806 022c 6B68     		ldr	r3, [r5, #4]
 644:lvgl/lvgl/src/core/lv_indev.c ****             bool editable_or_scrollable = lv_obj_is_editable(indev_obj_act) ||
 1807              		.loc 1 644 11 view .LVU598
 1808 022e 0A2B     		cmp	r3, #10
 1809 0230 06D0     		beq	.L153
 1810              	.LVL159:
 1811              	.L107:
 687:lvgl/lvgl/src/core/lv_indev.c ****         i->proc.long_pr_sent = 0;
 1812              		.loc 1 687 9 is_stmt 1 view .LVU599
 687:lvgl/lvgl/src/core/lv_indev.c ****         i->proc.long_pr_sent = 0;
 1813              		.loc 1 687 30 is_stmt 0 view .LVU600
 1814 0232 0022     		movs	r2, #0
 1815 0234 6264     		str	r2, [r4, #68]
 688:lvgl/lvgl/src/core/lv_indev.c ****     }
ARM GAS  C:\Users\gx\AppData\Local\Temp\ccszQoK7.s 			page 62


 1816              		.loc 1 688 9 is_stmt 1 view .LVU601
 688:lvgl/lvgl/src/core/lv_indev.c ****     }
 1817              		.loc 1 688 30 is_stmt 0 view .LVU602
 1818 0236 6379     		ldrb	r3, [r4, #5]	@ zero_extendqisi2
 1819 0238 62F30003 		bfi	r3, r2, #0, #1
 1820 023c 6371     		strb	r3, [r4, #5]
 1821 023e 12E7     		b	.L95
 1822              	.LVL160:
 1823              	.L153:
 1824              	.LBB6:
 645:lvgl/lvgl/src/core/lv_indev.c ****                                           lv_obj_has_flag(indev_obj_act, LV_OBJ_FLAG_SCROLLABLE);
 1825              		.loc 1 645 13 is_stmt 1 view .LVU603
 645:lvgl/lvgl/src/core/lv_indev.c ****                                           lv_obj_has_flag(indev_obj_act, LV_OBJ_FLAG_SCROLLABLE);
 1826              		.loc 1 645 43 is_stmt 0 view .LVU604
 1827 0240 FFF7FEFF 		bl	lv_obj_is_editable
 1828              	.LVL161:
 645:lvgl/lvgl/src/core/lv_indev.c ****                                           lv_obj_has_flag(indev_obj_act, LV_OBJ_FLAG_SCROLLABLE);
 1829              		.loc 1 645 77 view .LVU605
 1830 0244 38B3     		cbz	r0, .L154
 1831 0246 0123     		movs	r3, #1
 1832              	.L108:
 1833              	.LVL162:
 649:lvgl/lvgl/src/core/lv_indev.c ****                 lv_event_send(indev_obj_act, LV_EVENT_RELEASED, indev_act);
 1834              		.loc 1 649 13 is_stmt 1 discriminator 6 view .LVU606
 649:lvgl/lvgl/src/core/lv_indev.c ****                 lv_event_send(indev_obj_act, LV_EVENT_RELEASED, indev_act);
 1835              		.loc 1 649 15 is_stmt 0 discriminator 6 view .LVU607
 1836 0248 002B     		cmp	r3, #0
 1837 024a 3BD1     		bne	.L109
 650:lvgl/lvgl/src/core/lv_indev.c ****                 if(indev_reset_check(&i->proc)) return;
 1838              		.loc 1 650 17 is_stmt 1 view .LVU608
 1839 024c 1C4B     		ldr	r3, .L158+4
 1840              	.LVL163:
 650:lvgl/lvgl/src/core/lv_indev.c ****                 if(indev_reset_check(&i->proc)) return;
 1841              		.loc 1 650 17 is_stmt 0 view .LVU609
 1842 024e 1A68     		ldr	r2, [r3]
 1843 0250 0821     		movs	r1, #8
 1844 0252 1A4B     		ldr	r3, .L158
 1845 0254 1868     		ldr	r0, [r3]
 1846 0256 FFF7FEFF 		bl	lv_event_send
 1847              	.LVL164:
 651:lvgl/lvgl/src/core/lv_indev.c **** 
 1848              		.loc 1 651 17 is_stmt 1 view .LVU610
 651:lvgl/lvgl/src/core/lv_indev.c **** 
 1849              		.loc 1 651 20 is_stmt 0 view .LVU611
 1850 025a 271D     		adds	r7, r4, #4
 1851              	.LVL165:
 651:lvgl/lvgl/src/core/lv_indev.c **** 
 1852              		.loc 1 651 20 view .LVU612
 1853 025c 3846     		mov	r0, r7
 1854 025e FFF7FEFF 		bl	indev_reset_check
 1855              	.LVL166:
 651:lvgl/lvgl/src/core/lv_indev.c **** 
 1856              		.loc 1 651 19 view .LVU613
 1857 0262 0028     		cmp	r0, #0
 1858 0264 7FF407AF 		bne	.L86
 653:lvgl/lvgl/src/core/lv_indev.c ****                 if(indev_reset_check(&i->proc)) return;
 1859              		.loc 1 653 17 is_stmt 1 view .LVU614
ARM GAS  C:\Users\gx\AppData\Local\Temp\ccszQoK7.s 			page 63


 653:lvgl/lvgl/src/core/lv_indev.c ****                 if(indev_reset_check(&i->proc)) return;
 1860              		.loc 1 653 41 is_stmt 0 view .LVU615
 1861 0268 6379     		ldrb	r3, [r4, #5]	@ zero_extendqisi2
 653:lvgl/lvgl/src/core/lv_indev.c ****                 if(indev_reset_check(&i->proc)) return;
 1862              		.loc 1 653 19 view .LVU616
 1863 026a 13F0010F 		tst	r3, #1
 1864 026e 1CD0     		beq	.L155
 1865              	.L110:
 654:lvgl/lvgl/src/core/lv_indev.c **** 
 1866              		.loc 1 654 17 is_stmt 1 view .LVU617
 654:lvgl/lvgl/src/core/lv_indev.c **** 
 1867              		.loc 1 654 20 is_stmt 0 view .LVU618
 1868 0270 3846     		mov	r0, r7
 1869 0272 FFF7FEFF 		bl	indev_reset_check
 1870              	.LVL167:
 654:lvgl/lvgl/src/core/lv_indev.c **** 
 1871              		.loc 1 654 19 view .LVU619
 1872 0276 0028     		cmp	r0, #0
 1873 0278 7FF4FDAE 		bne	.L86
 656:lvgl/lvgl/src/core/lv_indev.c ****                 if(indev_reset_check(&i->proc)) return;
 1874              		.loc 1 656 17 is_stmt 1 view .LVU620
 1875 027c 104B     		ldr	r3, .L158+4
 1876 027e 1A68     		ldr	r2, [r3]
 1877 0280 0721     		movs	r1, #7
 1878 0282 0E4B     		ldr	r3, .L158
 1879 0284 1868     		ldr	r0, [r3]
 1880 0286 FFF7FEFF 		bl	lv_event_send
 1881              	.LVL168:
 657:lvgl/lvgl/src/core/lv_indev.c **** 
 1882              		.loc 1 657 17 view .LVU621
 657:lvgl/lvgl/src/core/lv_indev.c **** 
 1883              		.loc 1 657 20 is_stmt 0 view .LVU622
 1884 028a 3846     		mov	r0, r7
 1885 028c FFF7FEFF 		bl	indev_reset_check
 1886              	.LVL169:
 657:lvgl/lvgl/src/core/lv_indev.c **** 
 1887              		.loc 1 657 19 view .LVU623
 1888 0290 0028     		cmp	r0, #0
 1889 0292 CED0     		beq	.L107
 1890 0294 EFE6     		b	.L86
 1891              	.LVL170:
 1892              	.L154:
 646:lvgl/lvgl/src/core/lv_indev.c **** 
 1893              		.loc 1 646 43 discriminator 2 view .LVU624
 1894 0296 1021     		movs	r1, #16
 1895 0298 084B     		ldr	r3, .L158
 1896 029a 1868     		ldr	r0, [r3]
 1897 029c FFF7FEFF 		bl	lv_obj_has_flag
 1898              	.LVL171:
 645:lvgl/lvgl/src/core/lv_indev.c ****                                           lv_obj_has_flag(indev_obj_act, LV_OBJ_FLAG_SCROLLABLE);
 1899              		.loc 1 645 77 discriminator 2 view .LVU625
 1900 02a0 08B9     		cbnz	r0, .L130
 645:lvgl/lvgl/src/core/lv_indev.c ****                                           lv_obj_has_flag(indev_obj_act, LV_OBJ_FLAG_SCROLLABLE);
 1901              		.loc 1 645 77 view .LVU626
 1902 02a2 0023     		movs	r3, #0
 1903 02a4 D0E7     		b	.L108
 1904              	.L130:
ARM GAS  C:\Users\gx\AppData\Local\Temp\ccszQoK7.s 			page 64


 1905 02a6 0123     		movs	r3, #1
 1906 02a8 CEE7     		b	.L108
 1907              	.LVL172:
 1908              	.L155:
 653:lvgl/lvgl/src/core/lv_indev.c ****                 if(indev_reset_check(&i->proc)) return;
 1909              		.loc 1 653 47 is_stmt 1 discriminator 1 view .LVU627
 1910 02aa 054B     		ldr	r3, .L158+4
 1911 02ac 1A68     		ldr	r2, [r3]
 1912 02ae 0421     		movs	r1, #4
 1913 02b0 024B     		ldr	r3, .L158
 1914 02b2 1868     		ldr	r0, [r3]
 1915 02b4 FFF7FEFF 		bl	lv_event_send
 1916              	.LVL173:
 1917 02b8 DAE7     		b	.L110
 1918              	.L159:
 1919 02ba 00BF     		.align	2
 1920              	.L158:
 1921 02bc 00000000 		.word	.LANCHOR0
 1922 02c0 00000000 		.word	.LANCHOR1
 1923              	.LVL174:
 1924              	.L109:
 661:lvgl/lvgl/src/core/lv_indev.c ****                 /*Ignore long pressed enter release because it comes from mode switch*/
 1925              		.loc 1 661 18 view .LVU628
 661:lvgl/lvgl/src/core/lv_indev.c ****                 /*Ignore long pressed enter release because it comes from mode switch*/
 1926              		.loc 1 661 21 is_stmt 0 view .LVU629
 1927 02c4 3046     		mov	r0, r6
 1928 02c6 FFF7FEFF 		bl	lv_group_get_editing
 1929              	.LVL175:
 661:lvgl/lvgl/src/core/lv_indev.c ****                 /*Ignore long pressed enter release because it comes from mode switch*/
 1930              		.loc 1 661 20 view .LVU630
 1931 02ca 0028     		cmp	r0, #0
 1932 02cc 3BD0     		beq	.L111
 663:lvgl/lvgl/src/core/lv_indev.c ****                     lv_event_send(indev_obj_act, LV_EVENT_RELEASED, indev_act);
 1933              		.loc 1 663 17 is_stmt 1 view .LVU631
 663:lvgl/lvgl/src/core/lv_indev.c ****                     lv_event_send(indev_obj_act, LV_EVENT_RELEASED, indev_act);
 1934              		.loc 1 663 20 is_stmt 0 view .LVU632
 1935 02ce 6379     		ldrb	r3, [r4, #5]	@ zero_extendqisi2
 663:lvgl/lvgl/src/core/lv_indev.c ****                     lv_event_send(indev_obj_act, LV_EVENT_RELEASED, indev_act);
 1936              		.loc 1 663 19 view .LVU633
 1937 02d0 13F0010F 		tst	r3, #1
 1938 02d4 04D0     		beq	.L112
 663:lvgl/lvgl/src/core/lv_indev.c ****                     lv_event_send(indev_obj_act, LV_EVENT_RELEASED, indev_act);
 1939              		.loc 1 663 45 discriminator 1 view .LVU634
 1940 02d6 3046     		mov	r0, r6
 1941 02d8 FFF7FEFF 		bl	lv_group_get_obj_count
 1942              	.LVL176:
 663:lvgl/lvgl/src/core/lv_indev.c ****                     lv_event_send(indev_obj_act, LV_EVENT_RELEASED, indev_act);
 1943              		.loc 1 663 42 discriminator 1 view .LVU635
 1944 02dc 0128     		cmp	r0, #1
 1945 02de 2CD8     		bhi	.L113
 1946              	.L112:
 664:lvgl/lvgl/src/core/lv_indev.c ****                     if(indev_reset_check(&i->proc)) return;
 1947              		.loc 1 664 21 is_stmt 1 view .LVU636
 1948 02e0 3F4B     		ldr	r3, .L160
 1949 02e2 1A68     		ldr	r2, [r3]
 1950 02e4 0821     		movs	r1, #8
 1951 02e6 3F4B     		ldr	r3, .L160+4
ARM GAS  C:\Users\gx\AppData\Local\Temp\ccszQoK7.s 			page 65


 1952 02e8 1868     		ldr	r0, [r3]
 1953 02ea FFF7FEFF 		bl	lv_event_send
 1954              	.LVL177:
 665:lvgl/lvgl/src/core/lv_indev.c **** 
 1955              		.loc 1 665 21 view .LVU637
 665:lvgl/lvgl/src/core/lv_indev.c **** 
 1956              		.loc 1 665 24 is_stmt 0 view .LVU638
 1957 02ee 271D     		adds	r7, r4, #4
 1958              	.LVL178:
 665:lvgl/lvgl/src/core/lv_indev.c **** 
 1959              		.loc 1 665 24 view .LVU639
 1960 02f0 3846     		mov	r0, r7
 1961 02f2 FFF7FEFF 		bl	indev_reset_check
 1962              	.LVL179:
 665:lvgl/lvgl/src/core/lv_indev.c **** 
 1963              		.loc 1 665 23 view .LVU640
 1964 02f6 0028     		cmp	r0, #0
 1965 02f8 7FF4BDAE 		bne	.L86
 667:lvgl/lvgl/src/core/lv_indev.c ****                     if(indev_reset_check(&i->proc)) return;
 1966              		.loc 1 667 21 is_stmt 1 view .LVU641
 1967 02fc 384B     		ldr	r3, .L160
 1968 02fe 1A68     		ldr	r2, [r3]
 1969 0300 0421     		movs	r1, #4
 1970 0302 384B     		ldr	r3, .L160+4
 1971 0304 1868     		ldr	r0, [r3]
 1972 0306 FFF7FEFF 		bl	lv_event_send
 1973              	.LVL180:
 668:lvgl/lvgl/src/core/lv_indev.c **** 
 1974              		.loc 1 668 21 view .LVU642
 668:lvgl/lvgl/src/core/lv_indev.c **** 
 1975              		.loc 1 668 24 is_stmt 0 view .LVU643
 1976 030a 3846     		mov	r0, r7
 1977 030c FFF7FEFF 		bl	indev_reset_check
 1978              	.LVL181:
 668:lvgl/lvgl/src/core/lv_indev.c **** 
 1979              		.loc 1 668 23 view .LVU644
 1980 0310 0028     		cmp	r0, #0
 1981 0312 7FF4B0AE 		bne	.L86
 670:lvgl/lvgl/src/core/lv_indev.c ****                     if(indev_reset_check(&i->proc)) return;
 1982              		.loc 1 670 21 is_stmt 1 view .LVU645
 1983 0316 324B     		ldr	r3, .L160
 1984 0318 1A68     		ldr	r2, [r3]
 1985 031a 0721     		movs	r1, #7
 1986 031c 314B     		ldr	r3, .L160+4
 1987 031e 1868     		ldr	r0, [r3]
 1988 0320 FFF7FEFF 		bl	lv_event_send
 1989              	.LVL182:
 671:lvgl/lvgl/src/core/lv_indev.c **** 
 1990              		.loc 1 671 21 view .LVU646
 671:lvgl/lvgl/src/core/lv_indev.c **** 
 1991              		.loc 1 671 24 is_stmt 0 view .LVU647
 1992 0324 3846     		mov	r0, r7
 1993 0326 FFF7FEFF 		bl	indev_reset_check
 1994              	.LVL183:
 671:lvgl/lvgl/src/core/lv_indev.c **** 
 1995              		.loc 1 671 23 view .LVU648
 1996 032a 0028     		cmp	r0, #0
ARM GAS  C:\Users\gx\AppData\Local\Temp\ccszQoK7.s 			page 66


 1997 032c 7FF4A3AE 		bne	.L86
 674:lvgl/lvgl/src/core/lv_indev.c ****                 } else {
 1998              		.loc 1 674 21 is_stmt 1 view .LVU649
 1999 0330 0A21     		movs	r1, #10
 2000 0332 3046     		mov	r0, r6
 2001 0334 FFF7FEFF 		bl	lv_group_send_data
 2002              	.LVL184:
 2003 0338 7BE7     		b	.L107
 2004              	.LVL185:
 2005              	.L113:
 676:lvgl/lvgl/src/core/lv_indev.c ****                 }
 2006              		.loc 1 676 21 view .LVU650
 2007 033a 2021     		movs	r1, #32
 2008 033c 294B     		ldr	r3, .L160+4
 2009 033e 1868     		ldr	r0, [r3]
 2010 0340 FFF7FEFF 		bl	lv_obj_clear_state
 2011              	.LVL186:
 2012 0344 75E7     		b	.L107
 2013              	.L111:
 681:lvgl/lvgl/src/core/lv_indev.c ****                 LV_LOG_INFO("entering edit mode");
 2014              		.loc 1 681 18 view .LVU651
 681:lvgl/lvgl/src/core/lv_indev.c ****                 LV_LOG_INFO("entering edit mode");
 2015              		.loc 1 681 21 is_stmt 0 view .LVU652
 2016 0346 6379     		ldrb	r3, [r4, #5]	@ zero_extendqisi2
 681:lvgl/lvgl/src/core/lv_indev.c ****                 LV_LOG_INFO("entering edit mode");
 2017              		.loc 1 681 20 view .LVU653
 2018 0348 13F0010F 		tst	r3, #1
 2019 034c 7FF471AF 		bne	.L107
 682:lvgl/lvgl/src/core/lv_indev.c ****                 lv_group_set_editing(g, true); /*Set edit mode*/
 2020              		.loc 1 682 17 is_stmt 1 view .LVU654
 682:lvgl/lvgl/src/core/lv_indev.c ****                 lv_group_set_editing(g, true); /*Set edit mode*/
 2021              		.loc 1 682 17 view .LVU655
 682:lvgl/lvgl/src/core/lv_indev.c ****                 lv_group_set_editing(g, true); /*Set edit mode*/
 2022              		.loc 1 682 17 view .LVU656
 682:lvgl/lvgl/src/core/lv_indev.c ****                 lv_group_set_editing(g, true); /*Set edit mode*/
 2023              		.loc 1 682 50 view .LVU657
 683:lvgl/lvgl/src/core/lv_indev.c ****             }
 2024              		.loc 1 683 17 view .LVU658
 2025 0350 0121     		movs	r1, #1
 2026 0352 3046     		mov	r0, r6
 2027 0354 FFF7FEFF 		bl	lv_group_set_editing
 2028              	.LVL187:
 2029 0358 6BE7     		b	.L107
 2030              	.LVL188:
 2031              	.L142:
 683:lvgl/lvgl/src/core/lv_indev.c ****             }
 2032              		.loc 1 683 17 is_stmt 0 view .LVU659
 2033              	.LBE6:
 695:lvgl/lvgl/src/core/lv_indev.c ****             LV_LOG_INFO("rotated by %+d (edit)", data->enc_diff);
 2034              		.loc 1 695 9 is_stmt 1 view .LVU660
 695:lvgl/lvgl/src/core/lv_indev.c ****             LV_LOG_INFO("rotated by %+d (edit)", data->enc_diff);
 2035              		.loc 1 695 12 is_stmt 0 view .LVU661
 2036 035a 3046     		mov	r0, r6
 2037 035c FFF7FEFF 		bl	lv_group_get_editing
 2038              	.LVL189:
 695:lvgl/lvgl/src/core/lv_indev.c ****             LV_LOG_INFO("rotated by %+d (edit)", data->enc_diff);
 2039              		.loc 1 695 11 view .LVU662
ARM GAS  C:\Users\gx\AppData\Local\Temp\ccszQoK7.s 			page 67


 2040 0360 F8B1     		cbz	r0, .L114
 2041              	.LBB7:
 696:lvgl/lvgl/src/core/lv_indev.c ****             int32_t s;
 2042              		.loc 1 696 13 is_stmt 1 view .LVU663
 696:lvgl/lvgl/src/core/lv_indev.c ****             int32_t s;
 2043              		.loc 1 696 13 view .LVU664
 696:lvgl/lvgl/src/core/lv_indev.c ****             int32_t s;
 2044              		.loc 1 696 13 view .LVU665
 696:lvgl/lvgl/src/core/lv_indev.c ****             int32_t s;
 2045              		.loc 1 696 65 view .LVU666
 697:lvgl/lvgl/src/core/lv_indev.c ****             if(data->enc_diff < 0) {
 2046              		.loc 1 697 13 view .LVU667
 698:lvgl/lvgl/src/core/lv_indev.c ****                 for(s = 0; s < -data->enc_diff; s++) lv_group_send_data(g, LV_KEY_LEFT);
 2047              		.loc 1 698 13 view .LVU668
 698:lvgl/lvgl/src/core/lv_indev.c ****                 for(s = 0; s < -data->enc_diff; s++) lv_group_send_data(g, LV_KEY_LEFT);
 2048              		.loc 1 698 20 is_stmt 0 view .LVU669
 2049 0362 B5F90C30 		ldrsh	r3, [r5, #12]
 698:lvgl/lvgl/src/core/lv_indev.c ****                 for(s = 0; s < -data->enc_diff; s++) lv_group_send_data(g, LV_KEY_LEFT);
 2050              		.loc 1 698 15 view .LVU670
 2051 0366 002B     		cmp	r3, #0
 2052 0368 0EDB     		blt	.L156
 701:lvgl/lvgl/src/core/lv_indev.c ****                 for(s = 0; s < data->enc_diff; s++) lv_group_send_data(g, LV_KEY_RIGHT);
 2053              		.loc 1 701 18 is_stmt 1 view .LVU671
 701:lvgl/lvgl/src/core/lv_indev.c ****                 for(s = 0; s < data->enc_diff; s++) lv_group_send_data(g, LV_KEY_RIGHT);
 2054              		.loc 1 701 20 is_stmt 0 view .LVU672
 2055 036a 002B     		cmp	r3, #0
 2056 036c 7FF783AE 		ble	.L86
 702:lvgl/lvgl/src/core/lv_indev.c ****             }
 2057              		.loc 1 702 23 view .LVU673
 2058 0370 0024     		movs	r4, #0
 2059              	.LVL190:
 2060              	.L118:
 702:lvgl/lvgl/src/core/lv_indev.c ****             }
 2061              		.loc 1 702 28 is_stmt 1 discriminator 1 view .LVU674
 702:lvgl/lvgl/src/core/lv_indev.c ****             }
 2062              		.loc 1 702 36 is_stmt 0 discriminator 1 view .LVU675
 2063 0372 B5F90C30 		ldrsh	r3, [r5, #12]
 702:lvgl/lvgl/src/core/lv_indev.c ****             }
 2064              		.loc 1 702 17 discriminator 1 view .LVU676
 2065 0376 A342     		cmp	r3, r4
 2066 0378 7FF77DAE 		ble	.L86
 702:lvgl/lvgl/src/core/lv_indev.c ****             }
 2067              		.loc 1 702 53 is_stmt 1 discriminator 3 view .LVU677
 2068 037c 1321     		movs	r1, #19
 2069 037e 3046     		mov	r0, r6
 2070 0380 FFF7FEFF 		bl	lv_group_send_data
 2071              	.LVL191:
 702:lvgl/lvgl/src/core/lv_indev.c ****             }
 2072              		.loc 1 702 48 discriminator 3 view .LVU678
 702:lvgl/lvgl/src/core/lv_indev.c ****             }
 2073              		.loc 1 702 49 is_stmt 0 discriminator 3 view .LVU679
 2074 0384 0134     		adds	r4, r4, #1
 2075              	.LVL192:
 702:lvgl/lvgl/src/core/lv_indev.c ****             }
 2076              		.loc 1 702 49 discriminator 3 view .LVU680
 2077 0386 F4E7     		b	.L118
 2078              	.LVL193:
ARM GAS  C:\Users\gx\AppData\Local\Temp\ccszQoK7.s 			page 68


 2079              	.L156:
 699:lvgl/lvgl/src/core/lv_indev.c ****             }
 2080              		.loc 1 699 23 view .LVU681
 2081 0388 0024     		movs	r4, #0
 2082              	.LVL194:
 2083              	.L115:
 699:lvgl/lvgl/src/core/lv_indev.c ****             }
 2084              		.loc 1 699 28 is_stmt 1 discriminator 1 view .LVU682
 699:lvgl/lvgl/src/core/lv_indev.c ****             }
 2085              		.loc 1 699 37 is_stmt 0 discriminator 1 view .LVU683
 2086 038a B5F90C30 		ldrsh	r3, [r5, #12]
 699:lvgl/lvgl/src/core/lv_indev.c ****             }
 2087              		.loc 1 699 32 discriminator 1 view .LVU684
 2088 038e 5B42     		rsbs	r3, r3, #0
 699:lvgl/lvgl/src/core/lv_indev.c ****             }
 2089              		.loc 1 699 17 discriminator 1 view .LVU685
 2090 0390 A342     		cmp	r3, r4
 2091 0392 7FF770AE 		ble	.L86
 699:lvgl/lvgl/src/core/lv_indev.c ****             }
 2092              		.loc 1 699 54 is_stmt 1 discriminator 3 view .LVU686
 2093 0396 1421     		movs	r1, #20
 2094 0398 3046     		mov	r0, r6
 2095 039a FFF7FEFF 		bl	lv_group_send_data
 2096              	.LVL195:
 699:lvgl/lvgl/src/core/lv_indev.c ****             }
 2097              		.loc 1 699 49 discriminator 3 view .LVU687
 699:lvgl/lvgl/src/core/lv_indev.c ****             }
 2098              		.loc 1 699 50 is_stmt 0 discriminator 3 view .LVU688
 2099 039e 0134     		adds	r4, r4, #1
 2100              	.LVL196:
 699:lvgl/lvgl/src/core/lv_indev.c ****             }
 2101              		.loc 1 699 50 discriminator 3 view .LVU689
 2102 03a0 F3E7     		b	.L115
 2103              	.LVL197:
 2104              	.L114:
 699:lvgl/lvgl/src/core/lv_indev.c ****             }
 2105              		.loc 1 699 50 discriminator 3 view .LVU690
 2106              	.LBE7:
 2107              	.LBB8:
 707:lvgl/lvgl/src/core/lv_indev.c ****             int32_t s;
 2108              		.loc 1 707 13 is_stmt 1 view .LVU691
 707:lvgl/lvgl/src/core/lv_indev.c ****             int32_t s;
 2109              		.loc 1 707 13 view .LVU692
 707:lvgl/lvgl/src/core/lv_indev.c ****             int32_t s;
 2110              		.loc 1 707 13 view .LVU693
 707:lvgl/lvgl/src/core/lv_indev.c ****             int32_t s;
 2111              		.loc 1 707 64 view .LVU694
 708:lvgl/lvgl/src/core/lv_indev.c ****             if(data->enc_diff < 0) {
 2112              		.loc 1 708 13 view .LVU695
 709:lvgl/lvgl/src/core/lv_indev.c ****                 for(s = 0; s < -data->enc_diff; s++) lv_group_focus_prev(g);
 2113              		.loc 1 709 13 view .LVU696
 709:lvgl/lvgl/src/core/lv_indev.c ****                 for(s = 0; s < -data->enc_diff; s++) lv_group_focus_prev(g);
 2114              		.loc 1 709 20 is_stmt 0 view .LVU697
 2115 03a2 B5F90C30 		ldrsh	r3, [r5, #12]
 709:lvgl/lvgl/src/core/lv_indev.c ****                 for(s = 0; s < -data->enc_diff; s++) lv_group_focus_prev(g);
 2116              		.loc 1 709 15 view .LVU698
 2117 03a6 002B     		cmp	r3, #0
ARM GAS  C:\Users\gx\AppData\Local\Temp\ccszQoK7.s 			page 69


 2118 03a8 0DDB     		blt	.L157
 712:lvgl/lvgl/src/core/lv_indev.c ****                 for(s = 0; s < data->enc_diff; s++) lv_group_focus_next(g);
 2119              		.loc 1 712 18 is_stmt 1 view .LVU699
 712:lvgl/lvgl/src/core/lv_indev.c ****                 for(s = 0; s < data->enc_diff; s++) lv_group_focus_next(g);
 2120              		.loc 1 712 20 is_stmt 0 view .LVU700
 2121 03aa 002B     		cmp	r3, #0
 2122 03ac 7FF763AE 		ble	.L86
 713:lvgl/lvgl/src/core/lv_indev.c ****             }
 2123              		.loc 1 713 23 view .LVU701
 2124 03b0 0024     		movs	r4, #0
 2125              	.LVL198:
 2126              	.L123:
 713:lvgl/lvgl/src/core/lv_indev.c ****             }
 2127              		.loc 1 713 28 is_stmt 1 discriminator 1 view .LVU702
 713:lvgl/lvgl/src/core/lv_indev.c ****             }
 2128              		.loc 1 713 36 is_stmt 0 discriminator 1 view .LVU703
 2129 03b2 B5F90C30 		ldrsh	r3, [r5, #12]
 713:lvgl/lvgl/src/core/lv_indev.c ****             }
 2130              		.loc 1 713 17 discriminator 1 view .LVU704
 2131 03b6 A342     		cmp	r3, r4
 2132 03b8 7FF75DAE 		ble	.L86
 713:lvgl/lvgl/src/core/lv_indev.c ****             }
 2133              		.loc 1 713 53 is_stmt 1 discriminator 3 view .LVU705
 2134 03bc 3046     		mov	r0, r6
 2135 03be FFF7FEFF 		bl	lv_group_focus_next
 2136              	.LVL199:
 713:lvgl/lvgl/src/core/lv_indev.c ****             }
 2137              		.loc 1 713 48 discriminator 3 view .LVU706
 713:lvgl/lvgl/src/core/lv_indev.c ****             }
 2138              		.loc 1 713 49 is_stmt 0 discriminator 3 view .LVU707
 2139 03c2 0134     		adds	r4, r4, #1
 2140              	.LVL200:
 713:lvgl/lvgl/src/core/lv_indev.c ****             }
 2141              		.loc 1 713 49 discriminator 3 view .LVU708
 2142 03c4 F5E7     		b	.L123
 2143              	.LVL201:
 2144              	.L157:
 710:lvgl/lvgl/src/core/lv_indev.c ****             }
 2145              		.loc 1 710 23 view .LVU709
 2146 03c6 0024     		movs	r4, #0
 2147              	.LVL202:
 2148              	.L120:
 710:lvgl/lvgl/src/core/lv_indev.c ****             }
 2149              		.loc 1 710 28 is_stmt 1 discriminator 1 view .LVU710
 710:lvgl/lvgl/src/core/lv_indev.c ****             }
 2150              		.loc 1 710 37 is_stmt 0 discriminator 1 view .LVU711
 2151 03c8 B5F90C30 		ldrsh	r3, [r5, #12]
 710:lvgl/lvgl/src/core/lv_indev.c ****             }
 2152              		.loc 1 710 32 discriminator 1 view .LVU712
 2153 03cc 5B42     		rsbs	r3, r3, #0
 710:lvgl/lvgl/src/core/lv_indev.c ****             }
 2154              		.loc 1 710 17 discriminator 1 view .LVU713
 2155 03ce A342     		cmp	r3, r4
 2156 03d0 7FF751AE 		ble	.L86
 710:lvgl/lvgl/src/core/lv_indev.c ****             }
 2157              		.loc 1 710 54 is_stmt 1 discriminator 3 view .LVU714
 2158 03d4 3046     		mov	r0, r6
ARM GAS  C:\Users\gx\AppData\Local\Temp\ccszQoK7.s 			page 70


 2159 03d6 FFF7FEFF 		bl	lv_group_focus_prev
 2160              	.LVL203:
 710:lvgl/lvgl/src/core/lv_indev.c ****             }
 2161              		.loc 1 710 49 discriminator 3 view .LVU715
 710:lvgl/lvgl/src/core/lv_indev.c ****             }
 2162              		.loc 1 710 50 is_stmt 0 discriminator 3 view .LVU716
 2163 03da 0134     		adds	r4, r4, #1
 2164              	.LVL204:
 710:lvgl/lvgl/src/core/lv_indev.c ****             }
 2165              		.loc 1 710 50 discriminator 3 view .LVU717
 2166 03dc F4E7     		b	.L120
 2167              	.L161:
 2168 03de 00BF     		.align	2
 2169              	.L160:
 2170 03e0 00000000 		.word	.LANCHOR1
 2171 03e4 00000000 		.word	.LANCHOR0
 2172              	.LBE8:
 2173              		.cfi_endproc
 2174              	.LFE179:
 2176              		.section	.text.lv_indev_enable,"ax",%progbits
 2177              		.align	1
 2178              		.global	lv_indev_enable
 2179              		.syntax unified
 2180              		.thumb
 2181              		.thumb_func
 2182              		.fpu fpv4-sp-d16
 2184              	lv_indev_enable:
 2185              	.LVL205:
 2186              	.LFB159:
 123:lvgl/lvgl/src/core/lv_indev.c ****     if(!indev) return;
 2187              		.loc 1 123 1 is_stmt 1 view -0
 2188              		.cfi_startproc
 2189              		@ args = 0, pretend = 0, frame = 0
 2190              		@ frame_needed = 0, uses_anonymous_args = 0
 2191              		@ link register save eliminated.
 124:lvgl/lvgl/src/core/lv_indev.c **** 
 2192              		.loc 1 124 5 view .LVU719
 124:lvgl/lvgl/src/core/lv_indev.c **** 
 2193              		.loc 1 124 7 is_stmt 0 view .LVU720
 2194 0000 28B1     		cbz	r0, .L162
 126:lvgl/lvgl/src/core/lv_indev.c **** }
 2195              		.loc 1 126 5 is_stmt 1 view .LVU721
 126:lvgl/lvgl/src/core/lv_indev.c **** }
 2196              		.loc 1 126 35 is_stmt 0 view .LVU722
 2197 0002 81F00101 		eor	r1, r1, #1
 2198              	.LVL206:
 126:lvgl/lvgl/src/core/lv_indev.c **** }
 2199              		.loc 1 126 26 view .LVU723
 2200 0006 4279     		ldrb	r2, [r0, #5]	@ zero_extendqisi2
 2201 0008 61F38202 		bfi	r2, r1, #2, #1
 2202 000c 4271     		strb	r2, [r0, #5]
 2203              	.L162:
 127:lvgl/lvgl/src/core/lv_indev.c **** 
 2204              		.loc 1 127 1 view .LVU724
 2205 000e 7047     		bx	lr
 2206              		.cfi_endproc
 2207              	.LFE159:
ARM GAS  C:\Users\gx\AppData\Local\Temp\ccszQoK7.s 			page 71


 2209              		.section	.text.lv_indev_get_act,"ax",%progbits
 2210              		.align	1
 2211              		.global	lv_indev_get_act
 2212              		.syntax unified
 2213              		.thumb
 2214              		.thumb_func
 2215              		.fpu fpv4-sp-d16
 2217              	lv_indev_get_act:
 2218              	.LFB160:
 130:lvgl/lvgl/src/core/lv_indev.c ****     return indev_act;
 2219              		.loc 1 130 1 is_stmt 1 view -0
 2220              		.cfi_startproc
 2221              		@ args = 0, pretend = 0, frame = 0
 2222              		@ frame_needed = 0, uses_anonymous_args = 0
 2223              		@ link register save eliminated.
 131:lvgl/lvgl/src/core/lv_indev.c **** }
 2224              		.loc 1 131 5 view .LVU726
 132:lvgl/lvgl/src/core/lv_indev.c **** 
 2225              		.loc 1 132 1 is_stmt 0 view .LVU727
 2226 0000 014B     		ldr	r3, .L165
 2227 0002 1868     		ldr	r0, [r3]
 2228 0004 7047     		bx	lr
 2229              	.L166:
 2230 0006 00BF     		.align	2
 2231              	.L165:
 2232 0008 00000000 		.word	.LANCHOR1
 2233              		.cfi_endproc
 2234              	.LFE160:
 2236              		.section	.text.lv_indev_get_type,"ax",%progbits
 2237              		.align	1
 2238              		.global	lv_indev_get_type
 2239              		.syntax unified
 2240              		.thumb
 2241              		.thumb_func
 2242              		.fpu fpv4-sp-d16
 2244              	lv_indev_get_type:
 2245              	.LVL207:
 2246              	.LFB161:
 135:lvgl/lvgl/src/core/lv_indev.c ****     if(indev == NULL) return LV_INDEV_TYPE_NONE;
 2247              		.loc 1 135 1 is_stmt 1 view -0
 2248              		.cfi_startproc
 2249              		@ args = 0, pretend = 0, frame = 0
 2250              		@ frame_needed = 0, uses_anonymous_args = 0
 2251              		@ link register save eliminated.
 136:lvgl/lvgl/src/core/lv_indev.c **** 
 2252              		.loc 1 136 5 view .LVU729
 136:lvgl/lvgl/src/core/lv_indev.c **** 
 2253              		.loc 1 136 7 is_stmt 0 view .LVU730
 2254 0000 10B1     		cbz	r0, .L169
 138:lvgl/lvgl/src/core/lv_indev.c **** }
 2255              		.loc 1 138 5 is_stmt 1 view .LVU731
 138:lvgl/lvgl/src/core/lv_indev.c **** }
 2256              		.loc 1 138 17 is_stmt 0 view .LVU732
 2257 0002 0368     		ldr	r3, [r0]
 138:lvgl/lvgl/src/core/lv_indev.c **** }
 2258              		.loc 1 138 25 view .LVU733
 2259 0004 1878     		ldrb	r0, [r3]	@ zero_extendqisi2
ARM GAS  C:\Users\gx\AppData\Local\Temp\ccszQoK7.s 			page 72


 2260              	.LVL208:
 138:lvgl/lvgl/src/core/lv_indev.c **** }
 2261              		.loc 1 138 25 view .LVU734
 2262 0006 7047     		bx	lr
 2263              	.LVL209:
 2264              	.L169:
 136:lvgl/lvgl/src/core/lv_indev.c **** 
 2265              		.loc 1 136 30 view .LVU735
 2266 0008 0020     		movs	r0, #0
 2267              	.LVL210:
 139:lvgl/lvgl/src/core/lv_indev.c **** 
 2268              		.loc 1 139 1 view .LVU736
 2269 000a 7047     		bx	lr
 2270              		.cfi_endproc
 2271              	.LFE161:
 2273              		.section	.text.lv_indev_reset,"ax",%progbits
 2274              		.align	1
 2275              		.global	lv_indev_reset
 2276              		.syntax unified
 2277              		.thumb
 2278              		.thumb_func
 2279              		.fpu fpv4-sp-d16
 2281              	lv_indev_reset:
 2282              	.LVL211:
 2283              	.LFB162:
 142:lvgl/lvgl/src/core/lv_indev.c ****     if(indev) {
 2284              		.loc 1 142 1 is_stmt 1 view -0
 2285              		.cfi_startproc
 2286              		@ args = 0, pretend = 0, frame = 0
 2287              		@ frame_needed = 0, uses_anonymous_args = 0
 142:lvgl/lvgl/src/core/lv_indev.c ****     if(indev) {
 2288              		.loc 1 142 1 is_stmt 0 view .LVU738
 2289 0000 10B5     		push	{r4, lr}
 2290              	.LCFI5:
 2291              		.cfi_def_cfa_offset 8
 2292              		.cfi_offset 4, -8
 2293              		.cfi_offset 14, -4
 2294 0002 0C46     		mov	r4, r1
 143:lvgl/lvgl/src/core/lv_indev.c ****         indev->proc.reset_query = 1;
 2295              		.loc 1 143 5 is_stmt 1 view .LVU739
 143:lvgl/lvgl/src/core/lv_indev.c ****         indev->proc.reset_query = 1;
 2296              		.loc 1 143 7 is_stmt 0 view .LVU740
 2297 0004 F8B1     		cbz	r0, .L171
 2298 0006 0346     		mov	r3, r0
 144:lvgl/lvgl/src/core/lv_indev.c ****         if(indev_act == indev) indev_obj_act = NULL;
 2299              		.loc 1 144 9 is_stmt 1 view .LVU741
 144:lvgl/lvgl/src/core/lv_indev.c ****         if(indev_act == indev) indev_obj_act = NULL;
 2300              		.loc 1 144 33 is_stmt 0 view .LVU742
 2301 0008 4279     		ldrb	r2, [r0, #5]	@ zero_extendqisi2
 2302 000a 42F00202 		orr	r2, r2, #2
 2303 000e 4271     		strb	r2, [r0, #5]
 145:lvgl/lvgl/src/core/lv_indev.c ****         if(obj == NULL || indev->proc.types.pointer.last_pressed == obj) {
 2304              		.loc 1 145 9 is_stmt 1 view .LVU743
 145:lvgl/lvgl/src/core/lv_indev.c ****         if(obj == NULL || indev->proc.types.pointer.last_pressed == obj) {
 2305              		.loc 1 145 22 is_stmt 0 view .LVU744
 2306 0010 224A     		ldr	r2, .L191
 2307 0012 1268     		ldr	r2, [r2]
ARM GAS  C:\Users\gx\AppData\Local\Temp\ccszQoK7.s 			page 73


 145:lvgl/lvgl/src/core/lv_indev.c ****         if(obj == NULL || indev->proc.types.pointer.last_pressed == obj) {
 2308              		.loc 1 145 11 view .LVU745
 2309 0014 8242     		cmp	r2, r0
 2310 0016 12D0     		beq	.L188
 2311              	.LVL212:
 2312              	.L172:
 146:lvgl/lvgl/src/core/lv_indev.c ****             indev->proc.types.pointer.last_pressed = NULL;
 2313              		.loc 1 146 9 is_stmt 1 view .LVU746
 146:lvgl/lvgl/src/core/lv_indev.c ****             indev->proc.types.pointer.last_pressed = NULL;
 2314              		.loc 1 146 11 is_stmt 0 view .LVU747
 2315 0018 14B1     		cbz	r4, .L173
 146:lvgl/lvgl/src/core/lv_indev.c ****             indev->proc.types.pointer.last_pressed = NULL;
 2316              		.loc 1 146 52 discriminator 1 view .LVU748
 2317 001a 1A6B     		ldr	r2, [r3, #48]
 146:lvgl/lvgl/src/core/lv_indev.c ****             indev->proc.types.pointer.last_pressed = NULL;
 2318              		.loc 1 146 24 discriminator 1 view .LVU749
 2319 001c A242     		cmp	r2, r4
 2320 001e 01D1     		bne	.L174
 2321              	.L173:
 147:lvgl/lvgl/src/core/lv_indev.c ****         }
 2322              		.loc 1 147 13 is_stmt 1 view .LVU750
 147:lvgl/lvgl/src/core/lv_indev.c ****         }
 2323              		.loc 1 147 52 is_stmt 0 view .LVU751
 2324 0020 0022     		movs	r2, #0
 2325 0022 1A63     		str	r2, [r3, #48]
 2326              	.L174:
 149:lvgl/lvgl/src/core/lv_indev.c ****             indev->proc.types.pointer.act_obj = NULL;
 2327              		.loc 1 149 9 is_stmt 1 view .LVU752
 149:lvgl/lvgl/src/core/lv_indev.c ****             indev->proc.types.pointer.act_obj = NULL;
 2328              		.loc 1 149 11 is_stmt 0 view .LVU753
 2329 0024 14B1     		cbz	r4, .L175
 149:lvgl/lvgl/src/core/lv_indev.c ****             indev->proc.types.pointer.act_obj = NULL;
 2330              		.loc 1 149 52 discriminator 1 view .LVU754
 2331 0026 5A6A     		ldr	r2, [r3, #36]
 149:lvgl/lvgl/src/core/lv_indev.c ****             indev->proc.types.pointer.act_obj = NULL;
 2332              		.loc 1 149 24 discriminator 1 view .LVU755
 2333 0028 A242     		cmp	r2, r4
 2334 002a 01D1     		bne	.L176
 2335              	.L175:
 150:lvgl/lvgl/src/core/lv_indev.c ****         }
 2336              		.loc 1 150 13 is_stmt 1 view .LVU756
 150:lvgl/lvgl/src/core/lv_indev.c ****         }
 2337              		.loc 1 150 47 is_stmt 0 view .LVU757
 2338 002c 0022     		movs	r2, #0
 2339 002e 5A62     		str	r2, [r3, #36]
 2340              	.L176:
 152:lvgl/lvgl/src/core/lv_indev.c ****             indev->proc.types.pointer.last_obj = NULL;
 2341              		.loc 1 152 9 is_stmt 1 view .LVU758
 152:lvgl/lvgl/src/core/lv_indev.c ****             indev->proc.types.pointer.last_obj = NULL;
 2342              		.loc 1 152 11 is_stmt 0 view .LVU759
 2343 0030 14B1     		cbz	r4, .L177
 152:lvgl/lvgl/src/core/lv_indev.c ****             indev->proc.types.pointer.last_obj = NULL;
 2344              		.loc 1 152 52 discriminator 1 view .LVU760
 2345 0032 9A6A     		ldr	r2, [r3, #40]
 152:lvgl/lvgl/src/core/lv_indev.c ****             indev->proc.types.pointer.last_obj = NULL;
 2346              		.loc 1 152 24 discriminator 1 view .LVU761
 2347 0034 A242     		cmp	r2, r4
ARM GAS  C:\Users\gx\AppData\Local\Temp\ccszQoK7.s 			page 74


 2348 0036 01D1     		bne	.L170
 2349              	.L177:
 153:lvgl/lvgl/src/core/lv_indev.c ****         }
 2350              		.loc 1 153 13 is_stmt 1 view .LVU762
 153:lvgl/lvgl/src/core/lv_indev.c ****         }
 2351              		.loc 1 153 48 is_stmt 0 view .LVU763
 2352 0038 0022     		movs	r2, #0
 2353 003a 9A62     		str	r2, [r3, #40]
 2354              	.LVL213:
 2355              	.L170:
 174:lvgl/lvgl/src/core/lv_indev.c **** 
 2356              		.loc 1 174 1 view .LVU764
 2357 003c 10BD     		pop	{r4, pc}
 2358              	.LVL214:
 2359              	.L188:
 145:lvgl/lvgl/src/core/lv_indev.c ****         if(obj == NULL || indev->proc.types.pointer.last_pressed == obj) {
 2360              		.loc 1 145 32 is_stmt 1 discriminator 1 view .LVU765
 145:lvgl/lvgl/src/core/lv_indev.c ****         if(obj == NULL || indev->proc.types.pointer.last_pressed == obj) {
 2361              		.loc 1 145 46 is_stmt 0 discriminator 1 view .LVU766
 2362 003e 184A     		ldr	r2, .L191+4
 2363 0040 0021     		movs	r1, #0
 2364              	.LVL215:
 145:lvgl/lvgl/src/core/lv_indev.c ****         if(obj == NULL || indev->proc.types.pointer.last_pressed == obj) {
 2365              		.loc 1 145 46 discriminator 1 view .LVU767
 2366 0042 1160     		str	r1, [r2]
 2367 0044 E8E7     		b	.L172
 2368              	.LVL216:
 2369              	.L171:
 2370              	.LBB9:
 157:lvgl/lvgl/src/core/lv_indev.c ****         while(i) {
 2371              		.loc 1 157 9 is_stmt 1 view .LVU768
 157:lvgl/lvgl/src/core/lv_indev.c ****         while(i) {
 2372              		.loc 1 157 26 is_stmt 0 view .LVU769
 2373 0046 0020     		movs	r0, #0
 2374              	.LVL217:
 157:lvgl/lvgl/src/core/lv_indev.c ****         while(i) {
 2375              		.loc 1 157 26 view .LVU770
 2376 0048 FFF7FEFF 		bl	lv_indev_get_next
 2377              	.LVL218:
 158:lvgl/lvgl/src/core/lv_indev.c ****             i->proc.reset_query = 1;
 2378              		.loc 1 158 9 is_stmt 1 view .LVU771
 158:lvgl/lvgl/src/core/lv_indev.c ****             i->proc.reset_query = 1;
 2379              		.loc 1 158 14 is_stmt 0 view .LVU772
 2380 004c 0AE0     		b	.L179
 2381              	.L190:
 160:lvgl/lvgl/src/core/lv_indev.c ****                (obj == NULL || i->proc.types.pointer.last_pressed == obj)) {
 2382              		.loc 1 160 102 discriminator 1 view .LVU773
 2383 004e 14B1     		cbz	r4, .L181
 161:lvgl/lvgl/src/core/lv_indev.c ****                 i->proc.types.pointer.last_pressed = NULL;
 2384              		.loc 1 161 53 view .LVU774
 2385 0050 036B     		ldr	r3, [r0, #48]
 161:lvgl/lvgl/src/core/lv_indev.c ****                 i->proc.types.pointer.last_pressed = NULL;
 2386              		.loc 1 161 29 view .LVU775
 2387 0052 A342     		cmp	r3, r4
 2388 0054 11D1     		bne	.L180
 2389              	.L181:
 162:lvgl/lvgl/src/core/lv_indev.c ****             }
ARM GAS  C:\Users\gx\AppData\Local\Temp\ccszQoK7.s 			page 75


 2390              		.loc 1 162 17 is_stmt 1 view .LVU776
 162:lvgl/lvgl/src/core/lv_indev.c ****             }
 2391              		.loc 1 162 52 is_stmt 0 view .LVU777
 2392 0056 0023     		movs	r3, #0
 2393 0058 0363     		str	r3, [r0, #48]
 2394 005a 0EE0     		b	.L180
 2395              	.L184:
 168:lvgl/lvgl/src/core/lv_indev.c ****             }
 2396              		.loc 1 168 17 is_stmt 1 view .LVU778
 168:lvgl/lvgl/src/core/lv_indev.c ****             }
 2397              		.loc 1 168 48 is_stmt 0 view .LVU779
 2398 005c 0023     		movs	r3, #0
 2399 005e 8362     		str	r3, [r0, #40]
 2400              	.L185:
 170:lvgl/lvgl/src/core/lv_indev.c ****         }
 2401              		.loc 1 170 13 is_stmt 1 view .LVU780
 170:lvgl/lvgl/src/core/lv_indev.c ****         }
 2402              		.loc 1 170 17 is_stmt 0 view .LVU781
 2403 0060 FFF7FEFF 		bl	lv_indev_get_next
 2404              	.LVL219:
 2405              	.L179:
 158:lvgl/lvgl/src/core/lv_indev.c ****             i->proc.reset_query = 1;
 2406              		.loc 1 158 14 is_stmt 1 view .LVU782
 2407 0064 A8B1     		cbz	r0, .L189
 159:lvgl/lvgl/src/core/lv_indev.c ****             if((i->driver->type == LV_INDEV_TYPE_POINTER || i->driver->type == LV_INDEV_TYPE_KEYPAD
 2408              		.loc 1 159 13 view .LVU783
 159:lvgl/lvgl/src/core/lv_indev.c ****             if((i->driver->type == LV_INDEV_TYPE_POINTER || i->driver->type == LV_INDEV_TYPE_KEYPAD
 2409              		.loc 1 159 33 is_stmt 0 view .LVU784
 2410 0066 4379     		ldrb	r3, [r0, #5]	@ zero_extendqisi2
 2411 0068 43F00203 		orr	r3, r3, #2
 2412 006c 4371     		strb	r3, [r0, #5]
 160:lvgl/lvgl/src/core/lv_indev.c ****                (obj == NULL || i->proc.types.pointer.last_pressed == obj)) {
 2413              		.loc 1 160 13 is_stmt 1 view .LVU785
 160:lvgl/lvgl/src/core/lv_indev.c ****                (obj == NULL || i->proc.types.pointer.last_pressed == obj)) {
 2414              		.loc 1 160 18 is_stmt 0 view .LVU786
 2415 006e 0368     		ldr	r3, [r0]
 160:lvgl/lvgl/src/core/lv_indev.c ****                (obj == NULL || i->proc.types.pointer.last_pressed == obj)) {
 2416              		.loc 1 160 26 view .LVU787
 2417 0070 1B78     		ldrb	r3, [r3]	@ zero_extendqisi2
 160:lvgl/lvgl/src/core/lv_indev.c ****                (obj == NULL || i->proc.types.pointer.last_pressed == obj)) {
 2418              		.loc 1 160 58 view .LVU788
 2419 0072 013B     		subs	r3, r3, #1
 2420 0074 DBB2     		uxtb	r3, r3
 160:lvgl/lvgl/src/core/lv_indev.c ****                (obj == NULL || i->proc.types.pointer.last_pressed == obj)) {
 2421              		.loc 1 160 15 view .LVU789
 2422 0076 012B     		cmp	r3, #1
 2423 0078 E9D9     		bls	.L190
 2424              	.L180:
 164:lvgl/lvgl/src/core/lv_indev.c ****                 i->proc.types.pointer.act_obj = NULL;
 2425              		.loc 1 164 13 is_stmt 1 view .LVU790
 164:lvgl/lvgl/src/core/lv_indev.c ****                 i->proc.types.pointer.act_obj = NULL;
 2426              		.loc 1 164 15 is_stmt 0 view .LVU791
 2427 007a 14B1     		cbz	r4, .L182
 164:lvgl/lvgl/src/core/lv_indev.c ****                 i->proc.types.pointer.act_obj = NULL;
 2428              		.loc 1 164 52 discriminator 1 view .LVU792
 2429 007c 436A     		ldr	r3, [r0, #36]
 164:lvgl/lvgl/src/core/lv_indev.c ****                 i->proc.types.pointer.act_obj = NULL;
ARM GAS  C:\Users\gx\AppData\Local\Temp\ccszQoK7.s 			page 76


 2430              		.loc 1 164 28 discriminator 1 view .LVU793
 2431 007e A342     		cmp	r3, r4
 2432 0080 01D1     		bne	.L183
 2433              	.L182:
 165:lvgl/lvgl/src/core/lv_indev.c ****             }
 2434              		.loc 1 165 17 is_stmt 1 view .LVU794
 165:lvgl/lvgl/src/core/lv_indev.c ****             }
 2435              		.loc 1 165 47 is_stmt 0 view .LVU795
 2436 0082 0023     		movs	r3, #0
 2437 0084 4362     		str	r3, [r0, #36]
 2438              	.L183:
 167:lvgl/lvgl/src/core/lv_indev.c ****                 i->proc.types.pointer.last_obj = NULL;
 2439              		.loc 1 167 13 is_stmt 1 view .LVU796
 167:lvgl/lvgl/src/core/lv_indev.c ****                 i->proc.types.pointer.last_obj = NULL;
 2440              		.loc 1 167 15 is_stmt 0 view .LVU797
 2441 0086 002C     		cmp	r4, #0
 2442 0088 E8D0     		beq	.L184
 167:lvgl/lvgl/src/core/lv_indev.c ****                 i->proc.types.pointer.last_obj = NULL;
 2443              		.loc 1 167 52 discriminator 1 view .LVU798
 2444 008a 836A     		ldr	r3, [r0, #40]
 167:lvgl/lvgl/src/core/lv_indev.c ****                 i->proc.types.pointer.last_obj = NULL;
 2445              		.loc 1 167 28 discriminator 1 view .LVU799
 2446 008c A342     		cmp	r3, r4
 2447 008e E7D1     		bne	.L185
 2448 0090 E4E7     		b	.L184
 2449              	.L189:
 172:lvgl/lvgl/src/core/lv_indev.c ****     }
 2450              		.loc 1 172 9 is_stmt 1 view .LVU800
 172:lvgl/lvgl/src/core/lv_indev.c ****     }
 2451              		.loc 1 172 23 is_stmt 0 view .LVU801
 2452 0092 034B     		ldr	r3, .L191+4
 2453 0094 0022     		movs	r2, #0
 2454 0096 1A60     		str	r2, [r3]
 2455              	.LBE9:
 174:lvgl/lvgl/src/core/lv_indev.c **** 
 2456              		.loc 1 174 1 view .LVU802
 2457 0098 D0E7     		b	.L170
 2458              	.L192:
 2459 009a 00BF     		.align	2
 2460              	.L191:
 2461 009c 00000000 		.word	.LANCHOR1
 2462 00a0 00000000 		.word	.LANCHOR0
 2463              		.cfi_endproc
 2464              	.LFE162:
 2466              		.section	.text.lv_indev_reset_long_press,"ax",%progbits
 2467              		.align	1
 2468              		.global	lv_indev_reset_long_press
 2469              		.syntax unified
 2470              		.thumb
 2471              		.thumb_func
 2472              		.fpu fpv4-sp-d16
 2474              	lv_indev_reset_long_press:
 2475              	.LVL220:
 2476              	.LFB163:
 177:lvgl/lvgl/src/core/lv_indev.c ****     indev->proc.long_pr_sent         = 0;
 2477              		.loc 1 177 1 is_stmt 1 view -0
 2478              		.cfi_startproc
ARM GAS  C:\Users\gx\AppData\Local\Temp\ccszQoK7.s 			page 77


 2479              		@ args = 0, pretend = 0, frame = 0
 2480              		@ frame_needed = 0, uses_anonymous_args = 0
 177:lvgl/lvgl/src/core/lv_indev.c ****     indev->proc.long_pr_sent         = 0;
 2481              		.loc 1 177 1 is_stmt 0 view .LVU804
 2482 0000 10B5     		push	{r4, lr}
 2483              	.LCFI6:
 2484              		.cfi_def_cfa_offset 8
 2485              		.cfi_offset 4, -8
 2486              		.cfi_offset 14, -4
 2487 0002 0446     		mov	r4, r0
 178:lvgl/lvgl/src/core/lv_indev.c ****     indev->proc.longpr_rep_timestamp = lv_tick_get();
 2488              		.loc 1 178 5 is_stmt 1 view .LVU805
 178:lvgl/lvgl/src/core/lv_indev.c ****     indev->proc.longpr_rep_timestamp = lv_tick_get();
 2489              		.loc 1 178 38 is_stmt 0 view .LVU806
 2490 0004 4379     		ldrb	r3, [r0, #5]	@ zero_extendqisi2
 2491 0006 6FF30003 		bfc	r3, #0, #1
 2492 000a 4371     		strb	r3, [r0, #5]
 179:lvgl/lvgl/src/core/lv_indev.c ****     indev->proc.pr_timestamp         = lv_tick_get();
 2493              		.loc 1 179 5 is_stmt 1 view .LVU807
 179:lvgl/lvgl/src/core/lv_indev.c ****     indev->proc.pr_timestamp         = lv_tick_get();
 2494              		.loc 1 179 40 is_stmt 0 view .LVU808
 2495 000c FFF7FEFF 		bl	lv_tick_get
 2496              	.LVL221:
 179:lvgl/lvgl/src/core/lv_indev.c ****     indev->proc.pr_timestamp         = lv_tick_get();
 2497              		.loc 1 179 38 view .LVU809
 2498 0010 A064     		str	r0, [r4, #72]
 180:lvgl/lvgl/src/core/lv_indev.c **** }
 2499              		.loc 1 180 5 is_stmt 1 view .LVU810
 180:lvgl/lvgl/src/core/lv_indev.c **** }
 2500              		.loc 1 180 40 is_stmt 0 view .LVU811
 2501 0012 FFF7FEFF 		bl	lv_tick_get
 2502              	.LVL222:
 180:lvgl/lvgl/src/core/lv_indev.c **** }
 2503              		.loc 1 180 38 view .LVU812
 2504 0016 6064     		str	r0, [r4, #68]
 181:lvgl/lvgl/src/core/lv_indev.c **** 
 2505              		.loc 1 181 1 view .LVU813
 2506 0018 10BD     		pop	{r4, pc}
 181:lvgl/lvgl/src/core/lv_indev.c **** 
 2507              		.loc 1 181 1 view .LVU814
 2508              		.cfi_endproc
 2509              	.LFE163:
 2511              		.section	.text.lv_indev_set_cursor,"ax",%progbits
 2512              		.align	1
 2513              		.global	lv_indev_set_cursor
 2514              		.syntax unified
 2515              		.thumb
 2516              		.thumb_func
 2517              		.fpu fpv4-sp-d16
 2519              	lv_indev_set_cursor:
 2520              	.LVL223:
 2521              	.LFB164:
 184:lvgl/lvgl/src/core/lv_indev.c ****     if(indev->driver->type != LV_INDEV_TYPE_POINTER) return;
 2522              		.loc 1 184 1 is_stmt 1 view -0
 2523              		.cfi_startproc
 2524              		@ args = 0, pretend = 0, frame = 0
 2525              		@ frame_needed = 0, uses_anonymous_args = 0
ARM GAS  C:\Users\gx\AppData\Local\Temp\ccszQoK7.s 			page 78


 184:lvgl/lvgl/src/core/lv_indev.c ****     if(indev->driver->type != LV_INDEV_TYPE_POINTER) return;
 2526              		.loc 1 184 1 is_stmt 0 view .LVU816
 2527 0000 38B5     		push	{r3, r4, r5, lr}
 2528              	.LCFI7:
 2529              		.cfi_def_cfa_offset 16
 2530              		.cfi_offset 3, -16
 2531              		.cfi_offset 4, -12
 2532              		.cfi_offset 5, -8
 2533              		.cfi_offset 14, -4
 185:lvgl/lvgl/src/core/lv_indev.c **** 
 2534              		.loc 1 185 5 is_stmt 1 view .LVU817
 185:lvgl/lvgl/src/core/lv_indev.c **** 
 2535              		.loc 1 185 13 is_stmt 0 view .LVU818
 2536 0002 0368     		ldr	r3, [r0]
 185:lvgl/lvgl/src/core/lv_indev.c **** 
 2537              		.loc 1 185 21 view .LVU819
 2538 0004 1A78     		ldrb	r2, [r3]	@ zero_extendqisi2
 185:lvgl/lvgl/src/core/lv_indev.c **** 
 2539              		.loc 1 185 7 view .LVU820
 2540 0006 012A     		cmp	r2, #1
 2541 0008 00D0     		beq	.L198
 2542              	.LVL224:
 2543              	.L195:
 192:lvgl/lvgl/src/core/lv_indev.c **** 
 2544              		.loc 1 192 1 view .LVU821
 2545 000a 38BD     		pop	{r3, r4, r5, pc}
 2546              	.LVL225:
 2547              	.L198:
 192:lvgl/lvgl/src/core/lv_indev.c **** 
 2548              		.loc 1 192 1 view .LVU822
 2549 000c 0446     		mov	r4, r0
 2550 000e 0D46     		mov	r5, r1
 187:lvgl/lvgl/src/core/lv_indev.c ****     lv_obj_set_parent(indev->cursor, lv_disp_get_layer_sys(indev->driver->disp));
 2551              		.loc 1 187 5 is_stmt 1 view .LVU823
 187:lvgl/lvgl/src/core/lv_indev.c ****     lv_obj_set_parent(indev->cursor, lv_disp_get_layer_sys(indev->driver->disp));
 2552              		.loc 1 187 19 is_stmt 0 view .LVU824
 2553 0010 C164     		str	r1, [r0, #76]
 188:lvgl/lvgl/src/core/lv_indev.c ****     lv_obj_set_pos(indev->cursor, indev->proc.types.pointer.act_point.x, indev->proc.types.pointer.
 2554              		.loc 1 188 5 is_stmt 1 view .LVU825
 188:lvgl/lvgl/src/core/lv_indev.c ****     lv_obj_set_pos(indev->cursor, indev->proc.types.pointer.act_point.x, indev->proc.types.pointer.
 2555              		.loc 1 188 38 is_stmt 0 view .LVU826
 2556 0012 1869     		ldr	r0, [r3, #16]
 2557              	.LVL226:
 188:lvgl/lvgl/src/core/lv_indev.c ****     lv_obj_set_pos(indev->cursor, indev->proc.types.pointer.act_point.x, indev->proc.types.pointer.
 2558              		.loc 1 188 38 view .LVU827
 2559 0014 FFF7FEFF 		bl	lv_disp_get_layer_sys
 2560              	.LVL227:
 188:lvgl/lvgl/src/core/lv_indev.c ****     lv_obj_set_pos(indev->cursor, indev->proc.types.pointer.act_point.x, indev->proc.types.pointer.
 2561              		.loc 1 188 38 view .LVU828
 2562 0018 0146     		mov	r1, r0
 188:lvgl/lvgl/src/core/lv_indev.c ****     lv_obj_set_pos(indev->cursor, indev->proc.types.pointer.act_point.x, indev->proc.types.pointer.
 2563              		.loc 1 188 5 view .LVU829
 2564 001a 2846     		mov	r0, r5
 2565 001c FFF7FEFF 		bl	lv_obj_set_parent
 2566              	.LVL228:
 189:lvgl/lvgl/src/core/lv_indev.c ****     lv_obj_clear_flag(indev->cursor, LV_OBJ_FLAG_CLICKABLE);
 2567              		.loc 1 189 5 is_stmt 1 view .LVU830
ARM GAS  C:\Users\gx\AppData\Local\Temp\ccszQoK7.s 			page 79


 2568 0020 B4F90A20 		ldrsh	r2, [r4, #10]
 2569 0024 B4F90810 		ldrsh	r1, [r4, #8]
 2570 0028 E06C     		ldr	r0, [r4, #76]
 2571 002a FFF7FEFF 		bl	lv_obj_set_pos
 2572              	.LVL229:
 190:lvgl/lvgl/src/core/lv_indev.c ****     lv_obj_add_flag(indev->cursor, LV_OBJ_FLAG_IGNORE_LAYOUT | LV_OBJ_FLAG_FLOATING);
 2573              		.loc 1 190 5 view .LVU831
 2574 002e 0221     		movs	r1, #2
 2575 0030 E06C     		ldr	r0, [r4, #76]
 2576 0032 FFF7FEFF 		bl	lv_obj_clear_flag
 2577              	.LVL230:
 191:lvgl/lvgl/src/core/lv_indev.c **** }
 2578              		.loc 1 191 5 view .LVU832
 2579 0036 4FF4C031 		mov	r1, #98304
 2580 003a E06C     		ldr	r0, [r4, #76]
 2581 003c FFF7FEFF 		bl	lv_obj_add_flag
 2582              	.LVL231:
 2583 0040 E3E7     		b	.L195
 2584              		.cfi_endproc
 2585              	.LFE164:
 2587              		.section	.text.lv_indev_set_group,"ax",%progbits
 2588              		.align	1
 2589              		.global	lv_indev_set_group
 2590              		.syntax unified
 2591              		.thumb
 2592              		.thumb_func
 2593              		.fpu fpv4-sp-d16
 2595              	lv_indev_set_group:
 2596              	.LVL232:
 2597              	.LFB165:
 195:lvgl/lvgl/src/core/lv_indev.c ****     if(indev->driver->type == LV_INDEV_TYPE_KEYPAD || indev->driver->type == LV_INDEV_TYPE_ENCODER)
 2598              		.loc 1 195 1 view -0
 2599              		.cfi_startproc
 2600              		@ args = 0, pretend = 0, frame = 0
 2601              		@ frame_needed = 0, uses_anonymous_args = 0
 2602              		@ link register save eliminated.
 196:lvgl/lvgl/src/core/lv_indev.c ****         indev->group = group;
 2603              		.loc 1 196 5 view .LVU834
 196:lvgl/lvgl/src/core/lv_indev.c ****         indev->group = group;
 2604              		.loc 1 196 13 is_stmt 0 view .LVU835
 2605 0000 0368     		ldr	r3, [r0]
 196:lvgl/lvgl/src/core/lv_indev.c ****         indev->group = group;
 2606              		.loc 1 196 21 view .LVU836
 2607 0002 1B78     		ldrb	r3, [r3]	@ zero_extendqisi2
 196:lvgl/lvgl/src/core/lv_indev.c ****         indev->group = group;
 2608              		.loc 1 196 7 view .LVU837
 2609 0004 022B     		cmp	r3, #2
 2610 0006 01D0     		beq	.L200
 196:lvgl/lvgl/src/core/lv_indev.c ****         indev->group = group;
 2611              		.loc 1 196 52 discriminator 1 view .LVU838
 2612 0008 042B     		cmp	r3, #4
 2613 000a 00D1     		bne	.L199
 2614              	.L200:
 197:lvgl/lvgl/src/core/lv_indev.c ****     }
 2615              		.loc 1 197 9 is_stmt 1 view .LVU839
 197:lvgl/lvgl/src/core/lv_indev.c ****     }
 2616              		.loc 1 197 22 is_stmt 0 view .LVU840
ARM GAS  C:\Users\gx\AppData\Local\Temp\ccszQoK7.s 			page 80


 2617 000c 0165     		str	r1, [r0, #80]
 2618              	.L199:
 199:lvgl/lvgl/src/core/lv_indev.c **** 
 2619              		.loc 1 199 1 view .LVU841
 2620 000e 7047     		bx	lr
 2621              		.cfi_endproc
 2622              	.LFE165:
 2624              		.section	.text.lv_indev_set_button_points,"ax",%progbits
 2625              		.align	1
 2626              		.global	lv_indev_set_button_points
 2627              		.syntax unified
 2628              		.thumb
 2629              		.thumb_func
 2630              		.fpu fpv4-sp-d16
 2632              	lv_indev_set_button_points:
 2633              	.LVL233:
 2634              	.LFB166:
 202:lvgl/lvgl/src/core/lv_indev.c ****     if(indev->driver->type == LV_INDEV_TYPE_BUTTON) {
 2635              		.loc 1 202 1 is_stmt 1 view -0
 2636              		.cfi_startproc
 2637              		@ args = 0, pretend = 0, frame = 0
 2638              		@ frame_needed = 0, uses_anonymous_args = 0
 2639              		@ link register save eliminated.
 203:lvgl/lvgl/src/core/lv_indev.c ****         indev->btn_points = points;
 2640              		.loc 1 203 5 view .LVU843
 203:lvgl/lvgl/src/core/lv_indev.c ****         indev->btn_points = points;
 2641              		.loc 1 203 13 is_stmt 0 view .LVU844
 2642 0000 0368     		ldr	r3, [r0]
 203:lvgl/lvgl/src/core/lv_indev.c ****         indev->btn_points = points;
 2643              		.loc 1 203 21 view .LVU845
 2644 0002 1B78     		ldrb	r3, [r3]	@ zero_extendqisi2
 203:lvgl/lvgl/src/core/lv_indev.c ****         indev->btn_points = points;
 2645              		.loc 1 203 7 view .LVU846
 2646 0004 032B     		cmp	r3, #3
 2647 0006 00D0     		beq	.L204
 2648              	.L202:
 206:lvgl/lvgl/src/core/lv_indev.c **** 
 2649              		.loc 1 206 1 view .LVU847
 2650 0008 7047     		bx	lr
 2651              	.L204:
 204:lvgl/lvgl/src/core/lv_indev.c ****     }
 2652              		.loc 1 204 9 is_stmt 1 view .LVU848
 204:lvgl/lvgl/src/core/lv_indev.c ****     }
 2653              		.loc 1 204 27 is_stmt 0 view .LVU849
 2654 000a 4165     		str	r1, [r0, #84]
 206:lvgl/lvgl/src/core/lv_indev.c **** 
 2655              		.loc 1 206 1 view .LVU850
 2656 000c FCE7     		b	.L202
 2657              		.cfi_endproc
 2658              	.LFE166:
 2660              		.section	.text.lv_indev_get_point,"ax",%progbits
 2661              		.align	1
 2662              		.global	lv_indev_get_point
 2663              		.syntax unified
 2664              		.thumb
 2665              		.thumb_func
 2666              		.fpu fpv4-sp-d16
ARM GAS  C:\Users\gx\AppData\Local\Temp\ccszQoK7.s 			page 81


 2668              	lv_indev_get_point:
 2669              	.LVL234:
 2670              	.LFB167:
 209:lvgl/lvgl/src/core/lv_indev.c ****     if(indev == NULL) {
 2671              		.loc 1 209 1 is_stmt 1 view -0
 2672              		.cfi_startproc
 2673              		@ args = 0, pretend = 0, frame = 0
 2674              		@ frame_needed = 0, uses_anonymous_args = 0
 2675              		@ link register save eliminated.
 210:lvgl/lvgl/src/core/lv_indev.c ****         point->x = 0;
 2676              		.loc 1 210 5 view .LVU852
 210:lvgl/lvgl/src/core/lv_indev.c ****         point->x = 0;
 2677              		.loc 1 210 7 is_stmt 0 view .LVU853
 2678 0000 0346     		mov	r3, r0
 2679 0002 50B1     		cbz	r0, .L209
 215:lvgl/lvgl/src/core/lv_indev.c ****         point->x = -1;
 2680              		.loc 1 215 5 is_stmt 1 view .LVU854
 215:lvgl/lvgl/src/core/lv_indev.c ****         point->x = -1;
 2681              		.loc 1 215 13 is_stmt 0 view .LVU855
 2682 0004 0268     		ldr	r2, [r0]
 215:lvgl/lvgl/src/core/lv_indev.c ****         point->x = -1;
 2683              		.loc 1 215 21 view .LVU856
 2684 0006 1278     		ldrb	r2, [r2]	@ zero_extendqisi2
 215:lvgl/lvgl/src/core/lv_indev.c ****         point->x = -1;
 2685              		.loc 1 215 7 view .LVU857
 2686 0008 012A     		cmp	r2, #1
 2687 000a 0AD0     		beq	.L208
 215:lvgl/lvgl/src/core/lv_indev.c ****         point->x = -1;
 2688              		.loc 1 215 53 discriminator 1 view .LVU858
 2689 000c 032A     		cmp	r2, #3
 2690 000e 08D0     		beq	.L208
 216:lvgl/lvgl/src/core/lv_indev.c ****         point->y = -1;
 2691              		.loc 1 216 9 is_stmt 1 view .LVU859
 216:lvgl/lvgl/src/core/lv_indev.c ****         point->y = -1;
 2692              		.loc 1 216 18 is_stmt 0 view .LVU860
 2693 0010 4FF6FF73 		movw	r3, #65535
 2694 0014 0B80     		strh	r3, [r1]	@ movhi
 217:lvgl/lvgl/src/core/lv_indev.c ****     }
 2695              		.loc 1 217 9 is_stmt 1 view .LVU861
 217:lvgl/lvgl/src/core/lv_indev.c ****     }
 2696              		.loc 1 217 18 is_stmt 0 view .LVU862
 2697 0016 4B80     		strh	r3, [r1, #2]	@ movhi
 2698 0018 7047     		bx	lr
 2699              	.L209:
 211:lvgl/lvgl/src/core/lv_indev.c ****         point->y = 0;
 2700              		.loc 1 211 9 is_stmt 1 view .LVU863
 211:lvgl/lvgl/src/core/lv_indev.c ****         point->y = 0;
 2701              		.loc 1 211 18 is_stmt 0 view .LVU864
 2702 001a 0023     		movs	r3, #0
 2703 001c 0B80     		strh	r3, [r1]	@ movhi
 212:lvgl/lvgl/src/core/lv_indev.c ****         return;
 2704              		.loc 1 212 9 is_stmt 1 view .LVU865
 212:lvgl/lvgl/src/core/lv_indev.c ****         return;
 2705              		.loc 1 212 18 is_stmt 0 view .LVU866
 2706 001e 4B80     		strh	r3, [r1, #2]	@ movhi
 213:lvgl/lvgl/src/core/lv_indev.c ****     }
 2707              		.loc 1 213 9 is_stmt 1 view .LVU867
ARM GAS  C:\Users\gx\AppData\Local\Temp\ccszQoK7.s 			page 82


 2708 0020 7047     		bx	lr
 2709              	.L208:
 220:lvgl/lvgl/src/core/lv_indev.c ****         point->y = indev->proc.types.pointer.act_point.y;
 2710              		.loc 1 220 9 view .LVU868
 220:lvgl/lvgl/src/core/lv_indev.c ****         point->y = indev->proc.types.pointer.act_point.y;
 2711              		.loc 1 220 55 is_stmt 0 view .LVU869
 2712 0022 B3F90820 		ldrsh	r2, [r3, #8]
 220:lvgl/lvgl/src/core/lv_indev.c ****         point->y = indev->proc.types.pointer.act_point.y;
 2713              		.loc 1 220 18 view .LVU870
 2714 0026 0A80     		strh	r2, [r1]	@ movhi
 221:lvgl/lvgl/src/core/lv_indev.c ****     }
 2715              		.loc 1 221 9 is_stmt 1 view .LVU871
 221:lvgl/lvgl/src/core/lv_indev.c ****     }
 2716              		.loc 1 221 55 is_stmt 0 view .LVU872
 2717 0028 B3F90A30 		ldrsh	r3, [r3, #10]
 221:lvgl/lvgl/src/core/lv_indev.c ****     }
 2718              		.loc 1 221 18 view .LVU873
 2719 002c 4B80     		strh	r3, [r1, #2]	@ movhi
 223:lvgl/lvgl/src/core/lv_indev.c **** 
 2720              		.loc 1 223 1 view .LVU874
 2721 002e 7047     		bx	lr
 2722              		.cfi_endproc
 2723              	.LFE167:
 2725              		.section	.text.lv_indev_get_gesture_dir,"ax",%progbits
 2726              		.align	1
 2727              		.global	lv_indev_get_gesture_dir
 2728              		.syntax unified
 2729              		.thumb
 2730              		.thumb_func
 2731              		.fpu fpv4-sp-d16
 2733              	lv_indev_get_gesture_dir:
 2734              	.LVL235:
 2735              	.LFB168:
 226:lvgl/lvgl/src/core/lv_indev.c ****     return indev->proc.types.pointer.gesture_dir;
 2736              		.loc 1 226 1 is_stmt 1 view -0
 2737              		.cfi_startproc
 2738              		@ args = 0, pretend = 0, frame = 0
 2739              		@ frame_needed = 0, uses_anonymous_args = 0
 2740              		@ link register save eliminated.
 227:lvgl/lvgl/src/core/lv_indev.c **** }
 2741              		.loc 1 227 5 view .LVU876
 227:lvgl/lvgl/src/core/lv_indev.c **** }
 2742              		.loc 1 227 37 is_stmt 0 view .LVU877
 2743 0000 90F84000 		ldrb	r0, [r0, #64]	@ zero_extendqisi2
 2744              	.LVL236:
 228:lvgl/lvgl/src/core/lv_indev.c **** 
 2745              		.loc 1 228 1 view .LVU878
 2746 0004 0009     		lsrs	r0, r0, #4
 2747 0006 7047     		bx	lr
 2748              		.cfi_endproc
 2749              	.LFE168:
 2751              		.section	.text.lv_indev_get_key,"ax",%progbits
 2752              		.align	1
 2753              		.global	lv_indev_get_key
 2754              		.syntax unified
 2755              		.thumb
 2756              		.thumb_func
ARM GAS  C:\Users\gx\AppData\Local\Temp\ccszQoK7.s 			page 83


 2757              		.fpu fpv4-sp-d16
 2759              	lv_indev_get_key:
 2760              	.LVL237:
 2761              	.LFB169:
 231:lvgl/lvgl/src/core/lv_indev.c ****     if(indev->driver->type != LV_INDEV_TYPE_KEYPAD)
 2762              		.loc 1 231 1 is_stmt 1 view -0
 2763              		.cfi_startproc
 2764              		@ args = 0, pretend = 0, frame = 0
 2765              		@ frame_needed = 0, uses_anonymous_args = 0
 2766              		@ link register save eliminated.
 232:lvgl/lvgl/src/core/lv_indev.c ****         return 0;
 2767              		.loc 1 232 5 view .LVU880
 232:lvgl/lvgl/src/core/lv_indev.c ****         return 0;
 2768              		.loc 1 232 13 is_stmt 0 view .LVU881
 2769 0000 0368     		ldr	r3, [r0]
 232:lvgl/lvgl/src/core/lv_indev.c ****         return 0;
 2770              		.loc 1 232 21 view .LVU882
 2771 0002 1B78     		ldrb	r3, [r3]	@ zero_extendqisi2
 232:lvgl/lvgl/src/core/lv_indev.c ****         return 0;
 2772              		.loc 1 232 7 view .LVU883
 2773 0004 022B     		cmp	r3, #2
 2774 0006 01D0     		beq	.L214
 233:lvgl/lvgl/src/core/lv_indev.c ****     else
 2775              		.loc 1 233 16 view .LVU884
 2776 0008 0020     		movs	r0, #0
 2777              	.LVL238:
 236:lvgl/lvgl/src/core/lv_indev.c **** 
 2778              		.loc 1 236 1 view .LVU885
 2779 000a 7047     		bx	lr
 2780              	.LVL239:
 2781              	.L214:
 235:lvgl/lvgl/src/core/lv_indev.c **** }
 2782              		.loc 1 235 9 is_stmt 1 view .LVU886
 235:lvgl/lvgl/src/core/lv_indev.c **** }
 2783              		.loc 1 235 40 is_stmt 0 view .LVU887
 2784 000c C068     		ldr	r0, [r0, #12]
 2785              	.LVL240:
 235:lvgl/lvgl/src/core/lv_indev.c **** }
 2786              		.loc 1 235 40 view .LVU888
 2787 000e 7047     		bx	lr
 2788              		.cfi_endproc
 2789              	.LFE169:
 2791              		.section	.text.lv_indev_get_scroll_dir,"ax",%progbits
 2792              		.align	1
 2793              		.global	lv_indev_get_scroll_dir
 2794              		.syntax unified
 2795              		.thumb
 2796              		.thumb_func
 2797              		.fpu fpv4-sp-d16
 2799              	lv_indev_get_scroll_dir:
 2800              	.LVL241:
 2801              	.LFB170:
 239:lvgl/lvgl/src/core/lv_indev.c ****     if(indev == NULL) return false;
 2802              		.loc 1 239 1 is_stmt 1 view -0
 2803              		.cfi_startproc
 2804              		@ args = 0, pretend = 0, frame = 0
 2805              		@ frame_needed = 0, uses_anonymous_args = 0
ARM GAS  C:\Users\gx\AppData\Local\Temp\ccszQoK7.s 			page 84


 2806              		@ link register save eliminated.
 240:lvgl/lvgl/src/core/lv_indev.c ****     if(indev->driver->type != LV_INDEV_TYPE_POINTER && indev->driver->type != LV_INDEV_TYPE_BUTTON)
 2807              		.loc 1 240 5 view .LVU890
 240:lvgl/lvgl/src/core/lv_indev.c ****     if(indev->driver->type != LV_INDEV_TYPE_POINTER && indev->driver->type != LV_INDEV_TYPE_BUTTON)
 2808              		.loc 1 240 7 is_stmt 0 view .LVU891
 2809 0000 0346     		mov	r3, r0
 2810 0002 50B1     		cbz	r0, .L218
 241:lvgl/lvgl/src/core/lv_indev.c ****     return indev->proc.types.pointer.scroll_dir;
 2811              		.loc 1 241 5 is_stmt 1 view .LVU892
 241:lvgl/lvgl/src/core/lv_indev.c ****     return indev->proc.types.pointer.scroll_dir;
 2812              		.loc 1 241 13 is_stmt 0 view .LVU893
 2813 0004 0268     		ldr	r2, [r0]
 241:lvgl/lvgl/src/core/lv_indev.c ****     return indev->proc.types.pointer.scroll_dir;
 2814              		.loc 1 241 21 view .LVU894
 2815 0006 1278     		ldrb	r2, [r2]	@ zero_extendqisi2
 241:lvgl/lvgl/src/core/lv_indev.c ****     return indev->proc.types.pointer.scroll_dir;
 2816              		.loc 1 241 7 view .LVU895
 2817 0008 012A     		cmp	r2, #1
 2818 000a 01D0     		beq	.L217
 241:lvgl/lvgl/src/core/lv_indev.c ****     return indev->proc.types.pointer.scroll_dir;
 2819              		.loc 1 241 53 discriminator 1 view .LVU896
 2820 000c 032A     		cmp	r2, #3
 2821 000e 06D1     		bne	.L219
 2822              	.L217:
 242:lvgl/lvgl/src/core/lv_indev.c **** }
 2823              		.loc 1 242 5 is_stmt 1 view .LVU897
 242:lvgl/lvgl/src/core/lv_indev.c **** }
 2824              		.loc 1 242 37 is_stmt 0 view .LVU898
 2825 0010 93F84000 		ldrb	r0, [r3, #64]	@ zero_extendqisi2
 2826              	.LVL242:
 242:lvgl/lvgl/src/core/lv_indev.c **** }
 2827              		.loc 1 242 37 view .LVU899
 2828 0014 00F00F00 		and	r0, r0, #15
 2829 0018 7047     		bx	lr
 2830              	.LVL243:
 2831              	.L218:
 240:lvgl/lvgl/src/core/lv_indev.c ****     if(indev->driver->type != LV_INDEV_TYPE_POINTER && indev->driver->type != LV_INDEV_TYPE_BUTTON)
 2832              		.loc 1 240 30 view .LVU900
 2833 001a 0020     		movs	r0, #0
 2834              	.LVL244:
 240:lvgl/lvgl/src/core/lv_indev.c ****     if(indev->driver->type != LV_INDEV_TYPE_POINTER && indev->driver->type != LV_INDEV_TYPE_BUTTON)
 2835              		.loc 1 240 30 view .LVU901
 2836 001c 7047     		bx	lr
 2837              	.LVL245:
 2838              	.L219:
 241:lvgl/lvgl/src/core/lv_indev.c ****     return indev->proc.types.pointer.scroll_dir;
 2839              		.loc 1 241 108 view .LVU902
 2840 001e 0020     		movs	r0, #0
 2841              	.LVL246:
 243:lvgl/lvgl/src/core/lv_indev.c **** 
 2842              		.loc 1 243 1 view .LVU903
 2843 0020 7047     		bx	lr
 2844              		.cfi_endproc
 2845              	.LFE170:
 2847              		.section	.text.lv_indev_get_scroll_obj,"ax",%progbits
 2848              		.align	1
 2849              		.global	lv_indev_get_scroll_obj
ARM GAS  C:\Users\gx\AppData\Local\Temp\ccszQoK7.s 			page 85


 2850              		.syntax unified
 2851              		.thumb
 2852              		.thumb_func
 2853              		.fpu fpv4-sp-d16
 2855              	lv_indev_get_scroll_obj:
 2856              	.LVL247:
 2857              	.LFB171:
 246:lvgl/lvgl/src/core/lv_indev.c ****     if(indev == NULL) return NULL;
 2858              		.loc 1 246 1 is_stmt 1 view -0
 2859              		.cfi_startproc
 2860              		@ args = 0, pretend = 0, frame = 0
 2861              		@ frame_needed = 0, uses_anonymous_args = 0
 2862              		@ link register save eliminated.
 247:lvgl/lvgl/src/core/lv_indev.c ****     if(indev->driver->type != LV_INDEV_TYPE_POINTER && indev->driver->type != LV_INDEV_TYPE_BUTTON)
 2863              		.loc 1 247 5 view .LVU905
 247:lvgl/lvgl/src/core/lv_indev.c ****     if(indev->driver->type != LV_INDEV_TYPE_POINTER && indev->driver->type != LV_INDEV_TYPE_BUTTON)
 2864              		.loc 1 247 7 is_stmt 0 view .LVU906
 2865 0000 0346     		mov	r3, r0
 2866 0002 38B1     		cbz	r0, .L223
 248:lvgl/lvgl/src/core/lv_indev.c ****     return indev->proc.types.pointer.scroll_obj;
 2867              		.loc 1 248 5 is_stmt 1 view .LVU907
 248:lvgl/lvgl/src/core/lv_indev.c ****     return indev->proc.types.pointer.scroll_obj;
 2868              		.loc 1 248 13 is_stmt 0 view .LVU908
 2869 0004 0268     		ldr	r2, [r0]
 248:lvgl/lvgl/src/core/lv_indev.c ****     return indev->proc.types.pointer.scroll_obj;
 2870              		.loc 1 248 21 view .LVU909
 2871 0006 1278     		ldrb	r2, [r2]	@ zero_extendqisi2
 248:lvgl/lvgl/src/core/lv_indev.c ****     return indev->proc.types.pointer.scroll_obj;
 2872              		.loc 1 248 7 view .LVU910
 2873 0008 012A     		cmp	r2, #1
 2874 000a 01D0     		beq	.L222
 248:lvgl/lvgl/src/core/lv_indev.c ****     return indev->proc.types.pointer.scroll_obj;
 2875              		.loc 1 248 53 discriminator 1 view .LVU911
 2876 000c 032A     		cmp	r2, #3
 2877 000e 02D1     		bne	.L224
 2878              	.L222:
 249:lvgl/lvgl/src/core/lv_indev.c **** }
 2879              		.loc 1 249 5 is_stmt 1 view .LVU912
 249:lvgl/lvgl/src/core/lv_indev.c **** }
 2880              		.loc 1 249 37 is_stmt 0 view .LVU913
 2881 0010 D86A     		ldr	r0, [r3, #44]
 2882              	.LVL248:
 249:lvgl/lvgl/src/core/lv_indev.c **** }
 2883              		.loc 1 249 37 view .LVU914
 2884 0012 7047     		bx	lr
 2885              	.LVL249:
 2886              	.L223:
 249:lvgl/lvgl/src/core/lv_indev.c **** }
 2887              		.loc 1 249 37 view .LVU915
 2888 0014 7047     		bx	lr
 2889              	.L224:
 248:lvgl/lvgl/src/core/lv_indev.c ****     return indev->proc.types.pointer.scroll_obj;
 2890              		.loc 1 248 108 view .LVU916
 2891 0016 0020     		movs	r0, #0
 2892              	.LVL250:
 250:lvgl/lvgl/src/core/lv_indev.c **** 
 2893              		.loc 1 250 1 view .LVU917
ARM GAS  C:\Users\gx\AppData\Local\Temp\ccszQoK7.s 			page 86


 2894 0018 7047     		bx	lr
 2895              		.cfi_endproc
 2896              	.LFE171:
 2898              		.section	.text.lv_indev_get_vect,"ax",%progbits
 2899              		.align	1
 2900              		.global	lv_indev_get_vect
 2901              		.syntax unified
 2902              		.thumb
 2903              		.thumb_func
 2904              		.fpu fpv4-sp-d16
 2906              	lv_indev_get_vect:
 2907              	.LVL251:
 2908              	.LFB172:
 253:lvgl/lvgl/src/core/lv_indev.c ****     point->x = 0;
 2909              		.loc 1 253 1 is_stmt 1 view -0
 2910              		.cfi_startproc
 2911              		@ args = 0, pretend = 0, frame = 0
 2912              		@ frame_needed = 0, uses_anonymous_args = 0
 2913              		@ link register save eliminated.
 254:lvgl/lvgl/src/core/lv_indev.c ****     point->y = 0;
 2914              		.loc 1 254 5 view .LVU919
 254:lvgl/lvgl/src/core/lv_indev.c ****     point->y = 0;
 2915              		.loc 1 254 14 is_stmt 0 view .LVU920
 2916 0000 0023     		movs	r3, #0
 2917 0002 0B80     		strh	r3, [r1]	@ movhi
 255:lvgl/lvgl/src/core/lv_indev.c **** 
 2918              		.loc 1 255 5 is_stmt 1 view .LVU921
 255:lvgl/lvgl/src/core/lv_indev.c **** 
 2919              		.loc 1 255 14 is_stmt 0 view .LVU922
 2920 0004 4B80     		strh	r3, [r1, #2]	@ movhi
 257:lvgl/lvgl/src/core/lv_indev.c **** 
 2921              		.loc 1 257 5 is_stmt 1 view .LVU923
 257:lvgl/lvgl/src/core/lv_indev.c **** 
 2922              		.loc 1 257 7 is_stmt 0 view .LVU924
 2923 0006 0346     		mov	r3, r0
 2924 0008 58B1     		cbz	r0, .L225
 259:lvgl/lvgl/src/core/lv_indev.c ****         point->x = indev->proc.types.pointer.vect.x;
 2925              		.loc 1 259 5 is_stmt 1 view .LVU925
 259:lvgl/lvgl/src/core/lv_indev.c ****         point->x = indev->proc.types.pointer.vect.x;
 2926              		.loc 1 259 13 is_stmt 0 view .LVU926
 2927 000a 0268     		ldr	r2, [r0]
 259:lvgl/lvgl/src/core/lv_indev.c ****         point->x = indev->proc.types.pointer.vect.x;
 2928              		.loc 1 259 21 view .LVU927
 2929 000c 1278     		ldrb	r2, [r2]	@ zero_extendqisi2
 259:lvgl/lvgl/src/core/lv_indev.c ****         point->x = indev->proc.types.pointer.vect.x;
 2930              		.loc 1 259 7 view .LVU928
 2931 000e 012A     		cmp	r2, #1
 2932 0010 01D0     		beq	.L227
 259:lvgl/lvgl/src/core/lv_indev.c ****         point->x = indev->proc.types.pointer.vect.x;
 2933              		.loc 1 259 53 discriminator 1 view .LVU929
 2934 0012 032A     		cmp	r2, #3
 2935 0014 05D1     		bne	.L225
 2936              	.L227:
 260:lvgl/lvgl/src/core/lv_indev.c ****         point->y = indev->proc.types.pointer.vect.y;
 2937              		.loc 1 260 9 is_stmt 1 view .LVU930
 260:lvgl/lvgl/src/core/lv_indev.c ****         point->y = indev->proc.types.pointer.vect.y;
 2938              		.loc 1 260 50 is_stmt 0 view .LVU931
ARM GAS  C:\Users\gx\AppData\Local\Temp\ccszQoK7.s 			page 87


 2939 0016 B3F91420 		ldrsh	r2, [r3, #20]
 260:lvgl/lvgl/src/core/lv_indev.c ****         point->y = indev->proc.types.pointer.vect.y;
 2940              		.loc 1 260 18 view .LVU932
 2941 001a 0A80     		strh	r2, [r1]	@ movhi
 261:lvgl/lvgl/src/core/lv_indev.c ****     }
 2942              		.loc 1 261 9 is_stmt 1 view .LVU933
 261:lvgl/lvgl/src/core/lv_indev.c ****     }
 2943              		.loc 1 261 50 is_stmt 0 view .LVU934
 2944 001c B3F91630 		ldrsh	r3, [r3, #22]
 261:lvgl/lvgl/src/core/lv_indev.c ****     }
 2945              		.loc 1 261 18 view .LVU935
 2946 0020 4B80     		strh	r3, [r1, #2]	@ movhi
 2947              	.L225:
 263:lvgl/lvgl/src/core/lv_indev.c **** 
 2948              		.loc 1 263 1 view .LVU936
 2949 0022 7047     		bx	lr
 2950              		.cfi_endproc
 2951              	.LFE172:
 2953              		.section	.text.lv_indev_wait_release,"ax",%progbits
 2954              		.align	1
 2955              		.global	lv_indev_wait_release
 2956              		.syntax unified
 2957              		.thumb
 2958              		.thumb_func
 2959              		.fpu fpv4-sp-d16
 2961              	lv_indev_wait_release:
 2962              	.LVL252:
 2963              	.LFB173:
 266:lvgl/lvgl/src/core/lv_indev.c ****     if(indev == NULL)return;
 2964              		.loc 1 266 1 is_stmt 1 view -0
 2965              		.cfi_startproc
 2966              		@ args = 0, pretend = 0, frame = 0
 2967              		@ frame_needed = 0, uses_anonymous_args = 0
 2968              		@ link register save eliminated.
 267:lvgl/lvgl/src/core/lv_indev.c ****     indev->proc.wait_until_release = 1;
 2969              		.loc 1 267 5 view .LVU938
 267:lvgl/lvgl/src/core/lv_indev.c ****     indev->proc.wait_until_release = 1;
 2970              		.loc 1 267 7 is_stmt 0 view .LVU939
 2971 0000 18B1     		cbz	r0, .L228
 268:lvgl/lvgl/src/core/lv_indev.c **** }
 2972              		.loc 1 268 5 is_stmt 1 view .LVU940
 268:lvgl/lvgl/src/core/lv_indev.c **** }
 2973              		.loc 1 268 36 is_stmt 0 view .LVU941
 2974 0002 4379     		ldrb	r3, [r0, #5]	@ zero_extendqisi2
 2975 0004 43F00803 		orr	r3, r3, #8
 2976 0008 4371     		strb	r3, [r0, #5]
 2977              	.L228:
 269:lvgl/lvgl/src/core/lv_indev.c **** 
 2978              		.loc 1 269 1 view .LVU942
 2979 000a 7047     		bx	lr
 2980              		.cfi_endproc
 2981              	.LFE173:
 2983              		.section	.text.lv_indev_get_obj_act,"ax",%progbits
 2984              		.align	1
 2985              		.global	lv_indev_get_obj_act
 2986              		.syntax unified
 2987              		.thumb
ARM GAS  C:\Users\gx\AppData\Local\Temp\ccszQoK7.s 			page 88


 2988              		.thumb_func
 2989              		.fpu fpv4-sp-d16
 2991              	lv_indev_get_obj_act:
 2992              	.LFB174:
 272:lvgl/lvgl/src/core/lv_indev.c ****     return indev_obj_act;
 2993              		.loc 1 272 1 is_stmt 1 view -0
 2994              		.cfi_startproc
 2995              		@ args = 0, pretend = 0, frame = 0
 2996              		@ frame_needed = 0, uses_anonymous_args = 0
 2997              		@ link register save eliminated.
 273:lvgl/lvgl/src/core/lv_indev.c **** }
 2998              		.loc 1 273 5 view .LVU944
 274:lvgl/lvgl/src/core/lv_indev.c **** 
 2999              		.loc 1 274 1 is_stmt 0 view .LVU945
 3000 0000 014B     		ldr	r3, .L231
 3001 0002 1868     		ldr	r0, [r3]
 3002 0004 7047     		bx	lr
 3003              	.L232:
 3004 0006 00BF     		.align	2
 3005              	.L231:
 3006 0008 00000000 		.word	.LANCHOR0
 3007              		.cfi_endproc
 3008              	.LFE174:
 3010              		.section	.rodata.lv_indev_get_read_timer.str1.4,"aMS",%progbits,1
 3011              		.align	2
 3012              	.LC0:
 3013 0000 6C76676C 		.ascii	"lvgl/lvgl/src/core/lv_indev.c\000"
 3013      2F6C7667 
 3013      6C2F7372 
 3013      632F636F 
 3013      72652F6C 
 3014 001e 0000     		.align	2
 3015              	.LC1:
 3016 0020 6C765F69 		.ascii	"lv_indev_get_read_timer: indev was NULL\000"
 3016      6E646576 
 3016      5F676574 
 3016      5F726561 
 3016      645F7469 
 3017              		.section	.text.lv_indev_get_read_timer,"ax",%progbits
 3018              		.align	1
 3019              		.global	lv_indev_get_read_timer
 3020              		.syntax unified
 3021              		.thumb
 3022              		.thumb_func
 3023              		.fpu fpv4-sp-d16
 3025              	lv_indev_get_read_timer:
 3026              	.LVL253:
 3027              	.LFB175:
 277:lvgl/lvgl/src/core/lv_indev.c ****     if(!indev) {
 3028              		.loc 1 277 1 is_stmt 1 view -0
 3029              		.cfi_startproc
 3030              		@ args = 0, pretend = 0, frame = 0
 3031              		@ frame_needed = 0, uses_anonymous_args = 0
 277:lvgl/lvgl/src/core/lv_indev.c ****     if(!indev) {
 3032              		.loc 1 277 1 is_stmt 0 view .LVU947
 3033 0000 10B5     		push	{r4, lr}
 3034              	.LCFI8:
ARM GAS  C:\Users\gx\AppData\Local\Temp\ccszQoK7.s 			page 89


 3035              		.cfi_def_cfa_offset 8
 3036              		.cfi_offset 4, -8
 3037              		.cfi_offset 14, -4
 3038 0002 82B0     		sub	sp, sp, #8
 3039              	.LCFI9:
 3040              		.cfi_def_cfa_offset 16
 278:lvgl/lvgl/src/core/lv_indev.c ****         LV_LOG_WARN("lv_indev_get_read_timer: indev was NULL");
 3041              		.loc 1 278 5 is_stmt 1 view .LVU948
 278:lvgl/lvgl/src/core/lv_indev.c ****         LV_LOG_WARN("lv_indev_get_read_timer: indev was NULL");
 3042              		.loc 1 278 7 is_stmt 0 view .LVU949
 3043 0004 0446     		mov	r4, r0
 3044 0006 10B1     		cbz	r0, .L237
 283:lvgl/lvgl/src/core/lv_indev.c **** }
 3045              		.loc 1 283 5 is_stmt 1 view .LVU950
 283:lvgl/lvgl/src/core/lv_indev.c **** }
 3046              		.loc 1 283 17 is_stmt 0 view .LVU951
 3047 0008 4068     		ldr	r0, [r0, #4]
 3048              	.LVL254:
 3049              	.L233:
 284:lvgl/lvgl/src/core/lv_indev.c **** 
 3050              		.loc 1 284 1 view .LVU952
 3051 000a 02B0     		add	sp, sp, #8
 3052              	.LCFI10:
 3053              		.cfi_remember_state
 3054              		.cfi_def_cfa_offset 8
 3055              		@ sp needed
 3056 000c 10BD     		pop	{r4, pc}
 3057              	.LVL255:
 3058              	.L237:
 3059              	.LCFI11:
 3060              		.cfi_restore_state
 279:lvgl/lvgl/src/core/lv_indev.c ****         return NULL;
 3061              		.loc 1 279 9 is_stmt 1 view .LVU953
 3062 000e 054B     		ldr	r3, .L238
 3063 0010 0093     		str	r3, [sp]
 3064 0012 054B     		ldr	r3, .L238+4
 3065 0014 40F21712 		movw	r2, #279
 3066 0018 0449     		ldr	r1, .L238+8
 3067 001a 0220     		movs	r0, #2
 3068              	.LVL256:
 279:lvgl/lvgl/src/core/lv_indev.c ****         return NULL;
 3069              		.loc 1 279 9 is_stmt 0 view .LVU954
 3070 001c FFF7FEFF 		bl	_lv_log_add
 3071              	.LVL257:
 279:lvgl/lvgl/src/core/lv_indev.c ****         return NULL;
 3072              		.loc 1 279 63 is_stmt 1 view .LVU955
 280:lvgl/lvgl/src/core/lv_indev.c ****     }
 3073              		.loc 1 280 9 view .LVU956
 280:lvgl/lvgl/src/core/lv_indev.c ****     }
 3074              		.loc 1 280 16 is_stmt 0 view .LVU957
 3075 0020 2046     		mov	r0, r4
 3076 0022 F2E7     		b	.L233
 3077              	.L239:
 3078              		.align	2
 3079              	.L238:
 3080 0024 20000000 		.word	.LC1
 3081 0028 00000000 		.word	.LANCHOR2
ARM GAS  C:\Users\gx\AppData\Local\Temp\ccszQoK7.s 			page 90


 3082 002c 00000000 		.word	.LC0
 3083              		.cfi_endproc
 3084              	.LFE175:
 3086              		.section	.text.lv_indev_search_obj,"ax",%progbits
 3087              		.align	1
 3088              		.global	lv_indev_search_obj
 3089              		.syntax unified
 3090              		.thumb
 3091              		.thumb_func
 3092              		.fpu fpv4-sp-d16
 3094              	lv_indev_search_obj:
 3095              	.LVL258:
 3096              	.LFB176:
 287:lvgl/lvgl/src/core/lv_indev.c ****     lv_obj_t * found_p = NULL;
 3097              		.loc 1 287 1 is_stmt 1 view -0
 3098              		.cfi_startproc
 3099              		@ args = 0, pretend = 0, frame = 0
 3100              		@ frame_needed = 0, uses_anonymous_args = 0
 287:lvgl/lvgl/src/core/lv_indev.c ****     lv_obj_t * found_p = NULL;
 3101              		.loc 1 287 1 is_stmt 0 view .LVU959
 3102 0000 F8B5     		push	{r3, r4, r5, r6, r7, lr}
 3103              	.LCFI12:
 3104              		.cfi_def_cfa_offset 24
 3105              		.cfi_offset 3, -24
 3106              		.cfi_offset 4, -20
 3107              		.cfi_offset 5, -16
 3108              		.cfi_offset 6, -12
 3109              		.cfi_offset 7, -8
 3110              		.cfi_offset 14, -4
 3111 0002 0546     		mov	r5, r0
 3112 0004 0E46     		mov	r6, r1
 288:lvgl/lvgl/src/core/lv_indev.c **** 
 3113              		.loc 1 288 5 is_stmt 1 view .LVU960
 3114              	.LVL259:
 291:lvgl/lvgl/src/core/lv_indev.c ****         int32_t i;
 3115              		.loc 1 291 5 view .LVU961
 291:lvgl/lvgl/src/core/lv_indev.c ****         int32_t i;
 3116              		.loc 1 291 8 is_stmt 0 view .LVU962
 3117 0006 FFF7FEFF 		bl	lv_obj_hit_test
 3118              	.LVL260:
 291:lvgl/lvgl/src/core/lv_indev.c ****         int32_t i;
 3119              		.loc 1 291 7 view .LVU963
 3120 000a 68B3     		cbz	r0, .L248
 3121              	.LBB10:
 292:lvgl/lvgl/src/core/lv_indev.c ****         uint32_t child_cnt = lv_obj_get_child_cnt(obj);
 3122              		.loc 1 292 9 is_stmt 1 view .LVU964
 293:lvgl/lvgl/src/core/lv_indev.c ****         for(i = child_cnt - 1; i >= 0; i--) {
 3123              		.loc 1 293 9 view .LVU965
 293:lvgl/lvgl/src/core/lv_indev.c ****         for(i = child_cnt - 1; i >= 0; i--) {
 3124              		.loc 1 293 30 is_stmt 0 view .LVU966
 3125 000c 2846     		mov	r0, r5
 3126 000e FFF7FEFF 		bl	lv_obj_get_child_cnt
 3127              	.LVL261:
 294:lvgl/lvgl/src/core/lv_indev.c ****             lv_obj_t * child = obj->spec_attr->children[i];
 3128              		.loc 1 294 9 is_stmt 1 view .LVU967
 294:lvgl/lvgl/src/core/lv_indev.c ****             lv_obj_t * child = obj->spec_attr->children[i];
 3129              		.loc 1 294 27 is_stmt 0 view .LVU968
ARM GAS  C:\Users\gx\AppData\Local\Temp\ccszQoK7.s 			page 91


 3130 0012 441E     		subs	r4, r0, #1
 3131              	.LVL262:
 294:lvgl/lvgl/src/core/lv_indev.c ****             lv_obj_t * child = obj->spec_attr->children[i];
 3132              		.loc 1 294 27 view .LVU969
 3133              	.LBE10:
 288:lvgl/lvgl/src/core/lv_indev.c **** 
 3134              		.loc 1 288 16 view .LVU970
 3135 0014 0027     		movs	r7, #0
 3136              	.LVL263:
 3137              	.L242:
 3138              	.LBB13:
 294:lvgl/lvgl/src/core/lv_indev.c ****             lv_obj_t * child = obj->spec_attr->children[i];
 3139              		.loc 1 294 32 is_stmt 1 discriminator 1 view .LVU971
 294:lvgl/lvgl/src/core/lv_indev.c ****             lv_obj_t * child = obj->spec_attr->children[i];
 3140              		.loc 1 294 9 is_stmt 0 discriminator 1 view .LVU972
 3141 0016 002C     		cmp	r4, #0
 3142 0018 0ADB     		blt	.L243
 3143              	.LBB11:
 295:lvgl/lvgl/src/core/lv_indev.c ****             found_p = lv_indev_search_obj(child, point);
 3144              		.loc 1 295 13 is_stmt 1 view .LVU973
 295:lvgl/lvgl/src/core/lv_indev.c ****             found_p = lv_indev_search_obj(child, point);
 3145              		.loc 1 295 35 is_stmt 0 view .LVU974
 3146 001a AB68     		ldr	r3, [r5, #8]
 295:lvgl/lvgl/src/core/lv_indev.c ****             found_p = lv_indev_search_obj(child, point);
 3147              		.loc 1 295 46 view .LVU975
 3148 001c 1B68     		ldr	r3, [r3]
 3149              	.LVL264:
 296:lvgl/lvgl/src/core/lv_indev.c **** 
 3150              		.loc 1 296 13 is_stmt 1 view .LVU976
 296:lvgl/lvgl/src/core/lv_indev.c **** 
 3151              		.loc 1 296 23 is_stmt 0 view .LVU977
 3152 001e 3146     		mov	r1, r6
 3153 0020 53F82400 		ldr	r0, [r3, r4, lsl #2]
 3154 0024 FFF7FEFF 		bl	lv_indev_search_obj
 3155              	.LVL265:
 299:lvgl/lvgl/src/core/lv_indev.c ****         }
 3156              		.loc 1 299 13 is_stmt 1 view .LVU978
 299:lvgl/lvgl/src/core/lv_indev.c ****         }
 3157              		.loc 1 299 15 is_stmt 0 view .LVU979
 3158 0028 0746     		mov	r7, r0
 3159 002a 08B9     		cbnz	r0, .L243
 3160              	.LBE11:
 294:lvgl/lvgl/src/core/lv_indev.c ****             lv_obj_t * child = obj->spec_attr->children[i];
 3161              		.loc 1 294 40 is_stmt 1 discriminator 2 view .LVU980
 294:lvgl/lvgl/src/core/lv_indev.c ****             lv_obj_t * child = obj->spec_attr->children[i];
 3162              		.loc 1 294 41 is_stmt 0 discriminator 2 view .LVU981
 3163 002c 013C     		subs	r4, r4, #1
 3164              	.LVL266:
 294:lvgl/lvgl/src/core/lv_indev.c ****             lv_obj_t * child = obj->spec_attr->children[i];
 3165              		.loc 1 294 41 discriminator 2 view .LVU982
 3166 002e F2E7     		b	.L242
 3167              	.LVL267:
 3168              	.L243:
 304:lvgl/lvgl/src/core/lv_indev.c ****             lv_obj_t * hidden_i = obj;
 3169              		.loc 1 304 9 is_stmt 1 view .LVU983
 304:lvgl/lvgl/src/core/lv_indev.c ****             lv_obj_t * hidden_i = obj;
 3170              		.loc 1 304 11 is_stmt 0 view .LVU984
ARM GAS  C:\Users\gx\AppData\Local\Temp\ccszQoK7.s 			page 92


 3171 0030 DFB9     		cbnz	r7, .L240
 304:lvgl/lvgl/src/core/lv_indev.c ****             lv_obj_t * hidden_i = obj;
 3172              		.loc 1 304 31 discriminator 1 view .LVU985
 3173 0032 0221     		movs	r1, #2
 3174 0034 2846     		mov	r0, r5
 3175 0036 FFF7FEFF 		bl	lv_obj_has_flag
 3176              	.LVL268:
 304:lvgl/lvgl/src/core/lv_indev.c ****             lv_obj_t * hidden_i = obj;
 3177              		.loc 1 304 28 discriminator 1 view .LVU986
 3178 003a B0B1     		cbz	r0, .L240
 3179              	.LBB12:
 305:lvgl/lvgl/src/core/lv_indev.c ****             while(hidden_i != NULL) {
 3180              		.loc 1 305 24 view .LVU987
 3181 003c 2C46     		mov	r4, r5
 3182              	.LVL269:
 305:lvgl/lvgl/src/core/lv_indev.c ****             while(hidden_i != NULL) {
 3183              		.loc 1 305 24 view .LVU988
 3184 003e 03E0     		b	.L245
 3185              	.LVL270:
 3186              	.L252:
 308:lvgl/lvgl/src/core/lv_indev.c ****             }
 3187              		.loc 1 308 17 is_stmt 1 view .LVU989
 308:lvgl/lvgl/src/core/lv_indev.c ****             }
 3188              		.loc 1 308 28 is_stmt 0 view .LVU990
 3189 0040 2046     		mov	r0, r4
 3190 0042 FFF7FEFF 		bl	lv_obj_get_parent
 3191              	.LVL271:
 3192 0046 0446     		mov	r4, r0
 3193              	.LVL272:
 3194              	.L245:
 306:lvgl/lvgl/src/core/lv_indev.c ****                 if(lv_obj_has_flag(hidden_i, LV_OBJ_FLAG_HIDDEN) == true) break;
 3195              		.loc 1 306 18 is_stmt 1 view .LVU991
 3196 0048 2CB1     		cbz	r4, .L246
 307:lvgl/lvgl/src/core/lv_indev.c ****                 hidden_i = lv_obj_get_parent(hidden_i);
 3197              		.loc 1 307 17 view .LVU992
 307:lvgl/lvgl/src/core/lv_indev.c ****                 hidden_i = lv_obj_get_parent(hidden_i);
 3198              		.loc 1 307 20 is_stmt 0 view .LVU993
 3199 004a 0121     		movs	r1, #1
 3200 004c 2046     		mov	r0, r4
 3201 004e FFF7FEFF 		bl	lv_obj_has_flag
 3202              	.LVL273:
 307:lvgl/lvgl/src/core/lv_indev.c ****                 hidden_i = lv_obj_get_parent(hidden_i);
 3203              		.loc 1 307 19 view .LVU994
 3204 0052 0028     		cmp	r0, #0
 3205 0054 F4D0     		beq	.L252
 3206              	.L246:
 311:lvgl/lvgl/src/core/lv_indev.c ****         }
 3207              		.loc 1 311 13 is_stmt 1 view .LVU995
 311:lvgl/lvgl/src/core/lv_indev.c ****         }
 3208              		.loc 1 311 15 is_stmt 0 view .LVU996
 3209 0056 44B9     		cbnz	r4, .L240
 311:lvgl/lvgl/src/core/lv_indev.c ****         }
 3210              		.loc 1 311 37 discriminator 1 view .LVU997
 3211 0058 2846     		mov	r0, r5
 3212 005a FFF7FEFF 		bl	lv_obj_get_state
 3213              	.LVL274:
 311:lvgl/lvgl/src/core/lv_indev.c ****         }
ARM GAS  C:\Users\gx\AppData\Local\Temp\ccszQoK7.s 			page 93


 3214              		.loc 1 311 33 discriminator 1 view .LVU998
 3215 005e 10F0800F 		tst	r0, #128
 3216 0062 02D1     		bne	.L240
 311:lvgl/lvgl/src/core/lv_indev.c ****         }
 3217              		.loc 1 311 98 view .LVU999
 3218 0064 2F46     		mov	r7, r5
 3219              	.LVL275:
 311:lvgl/lvgl/src/core/lv_indev.c ****         }
 3220              		.loc 1 311 98 view .LVU1000
 3221              	.LBE12:
 3222              	.LBE13:
 315:lvgl/lvgl/src/core/lv_indev.c **** }
 3223              		.loc 1 315 5 is_stmt 1 view .LVU1001
 315:lvgl/lvgl/src/core/lv_indev.c **** }
 3224              		.loc 1 315 12 is_stmt 0 view .LVU1002
 3225 0066 00E0     		b	.L240
 3226              	.LVL276:
 3227              	.L248:
 288:lvgl/lvgl/src/core/lv_indev.c **** 
 3228              		.loc 1 288 16 view .LVU1003
 3229 0068 0027     		movs	r7, #0
 3230              	.LVL277:
 3231              	.L240:
 316:lvgl/lvgl/src/core/lv_indev.c **** 
 3232              		.loc 1 316 1 view .LVU1004
 3233 006a 3846     		mov	r0, r7
 3234 006c F8BD     		pop	{r3, r4, r5, r6, r7, pc}
 316:lvgl/lvgl/src/core/lv_indev.c **** 
 3235              		.loc 1 316 1 view .LVU1005
 3236              		.cfi_endproc
 3237              	.LFE176:
 3239              		.section	.text.indev_proc_press,"ax",%progbits
 3240              		.align	1
 3241              		.syntax unified
 3242              		.thumb
 3243              		.thumb_func
 3244              		.fpu fpv4-sp-d16
 3246              	indev_proc_press:
 3247              	.LVL278:
 3248              	.LFB181:
 775:lvgl/lvgl/src/core/lv_indev.c ****     LV_LOG_INFO("pressed at x:%d y:%d", proc->types.pointer.act_point.x, proc->types.pointer.act_po
 3249              		.loc 1 775 1 is_stmt 1 view -0
 3250              		.cfi_startproc
 3251              		@ args = 0, pretend = 0, frame = 0
 3252              		@ frame_needed = 0, uses_anonymous_args = 0
 775:lvgl/lvgl/src/core/lv_indev.c ****     LV_LOG_INFO("pressed at x:%d y:%d", proc->types.pointer.act_point.x, proc->types.pointer.act_po
 3253              		.loc 1 775 1 is_stmt 0 view .LVU1007
 3254 0000 70B5     		push	{r4, r5, r6, lr}
 3255              	.LCFI13:
 3256              		.cfi_def_cfa_offset 16
 3257              		.cfi_offset 4, -16
 3258              		.cfi_offset 5, -12
 3259              		.cfi_offset 6, -8
 3260              		.cfi_offset 14, -4
 3261 0002 0446     		mov	r4, r0
 776:lvgl/lvgl/src/core/lv_indev.c ****     indev_obj_act = proc->types.pointer.act_obj;
 3262              		.loc 1 776 5 is_stmt 1 view .LVU1008
ARM GAS  C:\Users\gx\AppData\Local\Temp\ccszQoK7.s 			page 94


 776:lvgl/lvgl/src/core/lv_indev.c ****     indev_obj_act = proc->types.pointer.act_obj;
 3263              		.loc 1 776 5 view .LVU1009
 776:lvgl/lvgl/src/core/lv_indev.c ****     indev_obj_act = proc->types.pointer.act_obj;
 3264              		.loc 1 776 5 view .LVU1010
 776:lvgl/lvgl/src/core/lv_indev.c ****     indev_obj_act = proc->types.pointer.act_obj;
 3265              		.loc 1 776 106 view .LVU1011
 777:lvgl/lvgl/src/core/lv_indev.c **** 
 3266              		.loc 1 777 5 view .LVU1012
 777:lvgl/lvgl/src/core/lv_indev.c **** 
 3267              		.loc 1 777 40 is_stmt 0 view .LVU1013
 3268 0004 006A     		ldr	r0, [r0, #32]
 3269              	.LVL279:
 777:lvgl/lvgl/src/core/lv_indev.c **** 
 3270              		.loc 1 777 19 view .LVU1014
 3271 0006 9A4B     		ldr	r3, .L271
 3272 0008 1860     		str	r0, [r3]
 779:lvgl/lvgl/src/core/lv_indev.c **** 
 3273              		.loc 1 779 5 is_stmt 1 view .LVU1015
 779:lvgl/lvgl/src/core/lv_indev.c **** 
 3274              		.loc 1 779 33 is_stmt 0 view .LVU1016
 3275 000a 6378     		ldrb	r3, [r4, #1]	@ zero_extendqisi2
 779:lvgl/lvgl/src/core/lv_indev.c **** 
 3276              		.loc 1 779 7 view .LVU1017
 3277 000c 13F0080F 		tst	r3, #8
 3278 0010 40F08580 		bne	.L253
 781:lvgl/lvgl/src/core/lv_indev.c ****     bool new_obj_searched = false;
 3279              		.loc 1 781 5 is_stmt 1 view .LVU1018
 781:lvgl/lvgl/src/core/lv_indev.c ****     bool new_obj_searched = false;
 3280              		.loc 1 781 33 is_stmt 0 view .LVU1019
 3281 0014 974B     		ldr	r3, .L271+4
 3282 0016 1B68     		ldr	r3, [r3]
 3283 0018 1B68     		ldr	r3, [r3]
 781:lvgl/lvgl/src/core/lv_indev.c ****     bool new_obj_searched = false;
 3284              		.loc 1 781 17 view .LVU1020
 3285 001a 1D69     		ldr	r5, [r3, #16]
 3286              	.LVL280:
 782:lvgl/lvgl/src/core/lv_indev.c **** 
 3287              		.loc 1 782 5 is_stmt 1 view .LVU1021
 785:lvgl/lvgl/src/core/lv_indev.c ****         indev_obj_act = lv_indev_search_obj(lv_disp_get_layer_sys(disp), &proc->types.pointer.act_p
 3288              		.loc 1 785 5 view .LVU1022
 785:lvgl/lvgl/src/core/lv_indev.c ****         indev_obj_act = lv_indev_search_obj(lv_disp_get_layer_sys(disp), &proc->types.pointer.act_p
 3289              		.loc 1 785 7 is_stmt 0 view .LVU1023
 3290 001c 0028     		cmp	r0, #0
 3291 001e 7FD0     		beq	.L264
 794:lvgl/lvgl/src/core/lv_indev.c ****             lv_obj_has_flag(indev_obj_act, LV_OBJ_FLAG_PRESS_LOCK) == false) {
 3292              		.loc 1 794 10 is_stmt 1 view .LVU1024
 794:lvgl/lvgl/src/core/lv_indev.c ****             lv_obj_has_flag(indev_obj_act, LV_OBJ_FLAG_PRESS_LOCK) == false) {
 3293              		.loc 1 794 32 is_stmt 0 view .LVU1025
 3294 0020 A36A     		ldr	r3, [r4, #40]
 794:lvgl/lvgl/src/core/lv_indev.c ****             lv_obj_has_flag(indev_obj_act, LV_OBJ_FLAG_PRESS_LOCK) == false) {
 3295              		.loc 1 794 12 view .LVU1026
 3296 0022 002B     		cmp	r3, #0
 3297 0024 00F0AC80 		beq	.L265
 3298              	.LVL281:
 3299              	.L258:
 813:lvgl/lvgl/src/core/lv_indev.c ****         proc->types.pointer.last_point.x = proc->types.pointer.act_point.x;
 3300              		.loc 1 813 5 is_stmt 1 view .LVU1027
ARM GAS  C:\Users\gx\AppData\Local\Temp\ccszQoK7.s 			page 95


 813:lvgl/lvgl/src/core/lv_indev.c ****         proc->types.pointer.last_point.x = proc->types.pointer.act_point.x;
 3301              		.loc 1 813 44 is_stmt 0 view .LVU1028
 3302 0028 206A     		ldr	r0, [r4, #32]
 813:lvgl/lvgl/src/core/lv_indev.c ****         proc->types.pointer.last_point.x = proc->types.pointer.act_point.x;
 3303              		.loc 1 813 22 view .LVU1029
 3304 002a 914B     		ldr	r3, .L271
 3305 002c 1B68     		ldr	r3, [r3]
 813:lvgl/lvgl/src/core/lv_indev.c ****         proc->types.pointer.last_point.x = proc->types.pointer.act_point.x;
 3306              		.loc 1 813 7 view .LVU1030
 3307 002e 9842     		cmp	r0, r3
 3308 0030 4BD0     		beq	.L260
 814:lvgl/lvgl/src/core/lv_indev.c ****         proc->types.pointer.last_point.y = proc->types.pointer.act_point.y;
 3309              		.loc 1 814 9 is_stmt 1 view .LVU1031
 814:lvgl/lvgl/src/core/lv_indev.c ****         proc->types.pointer.last_point.y = proc->types.pointer.act_point.y;
 3310              		.loc 1 814 73 is_stmt 0 view .LVU1032
 3311 0032 B4F90430 		ldrsh	r3, [r4, #4]
 814:lvgl/lvgl/src/core/lv_indev.c ****         proc->types.pointer.last_point.y = proc->types.pointer.act_point.y;
 3312              		.loc 1 814 42 view .LVU1033
 3313 0036 2381     		strh	r3, [r4, #8]	@ movhi
 815:lvgl/lvgl/src/core/lv_indev.c **** 
 3314              		.loc 1 815 9 is_stmt 1 view .LVU1034
 815:lvgl/lvgl/src/core/lv_indev.c **** 
 3315              		.loc 1 815 73 is_stmt 0 view .LVU1035
 3316 0038 B4F90630 		ldrsh	r3, [r4, #6]
 815:lvgl/lvgl/src/core/lv_indev.c **** 
 3317              		.loc 1 815 42 view .LVU1036
 3318 003c 6381     		strh	r3, [r4, #10]	@ movhi
 818:lvgl/lvgl/src/core/lv_indev.c ****             /*Save the obj because in special cases `act_obj` can change in the Call the ancestor's
 3319              		.loc 1 818 9 is_stmt 1 view .LVU1037
 818:lvgl/lvgl/src/core/lv_indev.c ****             /*Save the obj because in special cases `act_obj` can change in the Call the ancestor's
 3320              		.loc 1 818 11 is_stmt 0 view .LVU1038
 3321 003e 48B1     		cbz	r0, .L261
 3322              	.LBB14:
 820:lvgl/lvgl/src/core/lv_indev.c **** 
 3323              		.loc 1 820 13 is_stmt 1 view .LVU1039
 3324              	.LVL282:
 822:lvgl/lvgl/src/core/lv_indev.c ****             if(indev_reset_check(proc)) return;
 3325              		.loc 1 822 13 view .LVU1040
 3326 0040 8C4B     		ldr	r3, .L271+4
 3327 0042 1A68     		ldr	r2, [r3]
 3328 0044 0321     		movs	r1, #3
 3329 0046 FFF7FEFF 		bl	lv_event_send
 3330              	.LVL283:
 823:lvgl/lvgl/src/core/lv_indev.c ****         }
 3331              		.loc 1 823 13 view .LVU1041
 823:lvgl/lvgl/src/core/lv_indev.c ****         }
 3332              		.loc 1 823 16 is_stmt 0 view .LVU1042
 3333 004a 2046     		mov	r0, r4
 3334 004c FFF7FEFF 		bl	indev_reset_check
 3335              	.LVL284:
 823:lvgl/lvgl/src/core/lv_indev.c ****         }
 3336              		.loc 1 823 15 view .LVU1043
 3337 0050 0028     		cmp	r0, #0
 3338 0052 64D1     		bne	.L253
 3339              	.L261:
 823:lvgl/lvgl/src/core/lv_indev.c ****         }
 3340              		.loc 1 823 15 view .LVU1044
ARM GAS  C:\Users\gx\AppData\Local\Temp\ccszQoK7.s 			page 96


 3341              	.LBE14:
 826:lvgl/lvgl/src/core/lv_indev.c ****         proc->types.pointer.last_obj = indev_obj_act;
 3342              		.loc 1 826 9 is_stmt 1 view .LVU1045
 826:lvgl/lvgl/src/core/lv_indev.c ****         proc->types.pointer.last_obj = indev_obj_act;
 3343              		.loc 1 826 38 is_stmt 0 view .LVU1046
 3344 0054 864B     		ldr	r3, .L271
 3345 0056 1B68     		ldr	r3, [r3]
 3346 0058 2362     		str	r3, [r4, #32]
 827:lvgl/lvgl/src/core/lv_indev.c **** 
 3347              		.loc 1 827 9 is_stmt 1 view .LVU1047
 827:lvgl/lvgl/src/core/lv_indev.c **** 
 3348              		.loc 1 827 38 is_stmt 0 view .LVU1048
 3349 005a 6362     		str	r3, [r4, #36]
 829:lvgl/lvgl/src/core/lv_indev.c ****             /*Save the time when the obj pressed to count long press time.*/
 3350              		.loc 1 829 9 is_stmt 1 view .LVU1049
 829:lvgl/lvgl/src/core/lv_indev.c ****             /*Save the time when the obj pressed to count long press time.*/
 3351              		.loc 1 829 11 is_stmt 0 view .LVU1050
 3352 005c 002B     		cmp	r3, #0
 3353 005e 34D0     		beq	.L260
 831:lvgl/lvgl/src/core/lv_indev.c ****             proc->long_pr_sent                 = 0;
 3354              		.loc 1 831 13 is_stmt 1 view .LVU1051
 831:lvgl/lvgl/src/core/lv_indev.c ****             proc->long_pr_sent                 = 0;
 3355              		.loc 1 831 50 is_stmt 0 view .LVU1052
 3356 0060 FFF7FEFF 		bl	lv_tick_get
 3357              	.LVL285:
 831:lvgl/lvgl/src/core/lv_indev.c ****             proc->long_pr_sent                 = 0;
 3358              		.loc 1 831 48 view .LVU1053
 3359 0064 2064     		str	r0, [r4, #64]
 832:lvgl/lvgl/src/core/lv_indev.c ****             proc->types.pointer.scroll_sum.x     = 0;
 3360              		.loc 1 832 13 is_stmt 1 view .LVU1054
 832:lvgl/lvgl/src/core/lv_indev.c ****             proc->types.pointer.scroll_sum.x     = 0;
 3361              		.loc 1 832 48 is_stmt 0 view .LVU1055
 3362 0066 6378     		ldrb	r3, [r4, #1]	@ zero_extendqisi2
 3363 0068 6FF30003 		bfc	r3, #0, #1
 3364 006c 6370     		strb	r3, [r4, #1]
 833:lvgl/lvgl/src/core/lv_indev.c ****             proc->types.pointer.scroll_sum.y     = 0;
 3365              		.loc 1 833 13 is_stmt 1 view .LVU1056
 833:lvgl/lvgl/src/core/lv_indev.c ****             proc->types.pointer.scroll_sum.y     = 0;
 3366              		.loc 1 833 50 is_stmt 0 view .LVU1057
 3367 006e 0023     		movs	r3, #0
 3368 0070 A382     		strh	r3, [r4, #20]	@ movhi
 834:lvgl/lvgl/src/core/lv_indev.c ****             proc->types.pointer.scroll_dir = LV_DIR_NONE;
 3369              		.loc 1 834 13 is_stmt 1 view .LVU1058
 834:lvgl/lvgl/src/core/lv_indev.c ****             proc->types.pointer.scroll_dir = LV_DIR_NONE;
 3370              		.loc 1 834 50 is_stmt 0 view .LVU1059
 3371 0072 E382     		strh	r3, [r4, #22]	@ movhi
 835:lvgl/lvgl/src/core/lv_indev.c ****             proc->types.pointer.gesture_dir = LV_DIR_NONE;
 3372              		.loc 1 835 13 is_stmt 1 view .LVU1060
 835:lvgl/lvgl/src/core/lv_indev.c ****             proc->types.pointer.gesture_dir = LV_DIR_NONE;
 3373              		.loc 1 835 44 is_stmt 0 view .LVU1061
 3374 0074 94F83C20 		ldrb	r2, [r4, #60]	@ zero_extendqisi2
 836:lvgl/lvgl/src/core/lv_indev.c ****             proc->types.pointer.gesture_sent   = 0;
 3375              		.loc 1 836 13 is_stmt 1 view .LVU1062
 836:lvgl/lvgl/src/core/lv_indev.c ****             proc->types.pointer.gesture_sent   = 0;
 3376              		.loc 1 836 45 is_stmt 0 view .LVU1063
 3377 0078 02F0F002 		and	r2, r2, #240
 3378 007c 63F30712 		bfi	r2, r3, #4, #4
ARM GAS  C:\Users\gx\AppData\Local\Temp\ccszQoK7.s 			page 97


 3379 0080 84F83C20 		strb	r2, [r4, #60]
 837:lvgl/lvgl/src/core/lv_indev.c ****             proc->types.pointer.gesture_sum.x  = 0;
 3380              		.loc 1 837 13 is_stmt 1 view .LVU1064
 837:lvgl/lvgl/src/core/lv_indev.c ****             proc->types.pointer.gesture_sum.x  = 0;
 3381              		.loc 1 837 48 is_stmt 0 view .LVU1065
 3382 0084 94F83D20 		ldrb	r2, [r4, #61]	@ zero_extendqisi2
 3383 0088 63F30002 		bfi	r2, r3, #0, #1
 3384 008c 84F83D20 		strb	r2, [r4, #61]
 838:lvgl/lvgl/src/core/lv_indev.c ****             proc->types.pointer.gesture_sum.y  = 0;
 3385              		.loc 1 838 13 is_stmt 1 view .LVU1066
 838:lvgl/lvgl/src/core/lv_indev.c ****             proc->types.pointer.gesture_sum.y  = 0;
 3386              		.loc 1 838 48 is_stmt 0 view .LVU1067
 3387 0090 2387     		strh	r3, [r4, #56]	@ movhi
 839:lvgl/lvgl/src/core/lv_indev.c ****             proc->types.pointer.vect.x         = 0;
 3388              		.loc 1 839 13 is_stmt 1 view .LVU1068
 839:lvgl/lvgl/src/core/lv_indev.c ****             proc->types.pointer.vect.x         = 0;
 3389              		.loc 1 839 48 is_stmt 0 view .LVU1069
 3390 0092 6387     		strh	r3, [r4, #58]	@ movhi
 840:lvgl/lvgl/src/core/lv_indev.c ****             proc->types.pointer.vect.y         = 0;
 3391              		.loc 1 840 13 is_stmt 1 view .LVU1070
 840:lvgl/lvgl/src/core/lv_indev.c ****             proc->types.pointer.vect.y         = 0;
 3392              		.loc 1 840 48 is_stmt 0 view .LVU1071
 3393 0094 2382     		strh	r3, [r4, #16]	@ movhi
 841:lvgl/lvgl/src/core/lv_indev.c **** 
 3394              		.loc 1 841 13 is_stmt 1 view .LVU1072
 841:lvgl/lvgl/src/core/lv_indev.c **** 
 3395              		.loc 1 841 48 is_stmt 0 view .LVU1073
 3396 0096 6382     		strh	r3, [r4, #18]	@ movhi
 844:lvgl/lvgl/src/core/lv_indev.c ****             if(indev_reset_check(proc)) return;
 3397              		.loc 1 844 13 is_stmt 1 view .LVU1074
 3398 0098 764B     		ldr	r3, .L271+4
 3399 009a 1A68     		ldr	r2, [r3]
 3400 009c 0121     		movs	r1, #1
 3401 009e 744B     		ldr	r3, .L271
 3402 00a0 1868     		ldr	r0, [r3]
 3403 00a2 FFF7FEFF 		bl	lv_event_send
 3404              	.LVL286:
 845:lvgl/lvgl/src/core/lv_indev.c **** 
 3405              		.loc 1 845 13 view .LVU1075
 845:lvgl/lvgl/src/core/lv_indev.c **** 
 3406              		.loc 1 845 16 is_stmt 0 view .LVU1076
 3407 00a6 2046     		mov	r0, r4
 3408 00a8 FFF7FEFF 		bl	indev_reset_check
 3409              	.LVL287:
 845:lvgl/lvgl/src/core/lv_indev.c **** 
 3410              		.loc 1 845 15 view .LVU1077
 3411 00ac 0028     		cmp	r0, #0
 3412 00ae 36D1     		bne	.L253
 847:lvgl/lvgl/src/core/lv_indev.c **** 
 3413              		.loc 1 847 13 is_stmt 1 view .LVU1078
 847:lvgl/lvgl/src/core/lv_indev.c **** 
 3414              		.loc 1 847 25 is_stmt 0 view .LVU1079
 3415 00b0 704B     		ldr	r3, .L271+4
 3416 00b2 1868     		ldr	r0, [r3]
 847:lvgl/lvgl/src/core/lv_indev.c **** 
 3417              		.loc 1 847 16 view .LVU1080
 3418 00b4 4379     		ldrb	r3, [r0, #5]	@ zero_extendqisi2
ARM GAS  C:\Users\gx\AppData\Local\Temp\ccszQoK7.s 			page 98


 847:lvgl/lvgl/src/core/lv_indev.c **** 
 3419              		.loc 1 847 15 view .LVU1081
 3420 00b6 13F0080F 		tst	r3, #8
 3421 00ba 30D1     		bne	.L253
 850:lvgl/lvgl/src/core/lv_indev.c ****             if(indev_reset_check(proc)) return;
 3422              		.loc 1 850 13 is_stmt 1 view .LVU1082
 3423 00bc 0430     		adds	r0, r0, #4
 3424 00be FFF7FEFF 		bl	indev_click_focus
 3425              	.LVL288:
 851:lvgl/lvgl/src/core/lv_indev.c **** 
 3426              		.loc 1 851 13 view .LVU1083
 851:lvgl/lvgl/src/core/lv_indev.c **** 
 3427              		.loc 1 851 16 is_stmt 0 view .LVU1084
 3428 00c2 2046     		mov	r0, r4
 3429 00c4 FFF7FEFF 		bl	indev_reset_check
 3430              	.LVL289:
 851:lvgl/lvgl/src/core/lv_indev.c **** 
 3431              		.loc 1 851 15 view .LVU1085
 3432 00c8 48BB     		cbnz	r0, .L253
 3433              	.L260:
 857:lvgl/lvgl/src/core/lv_indev.c ****     proc->types.pointer.vect.y = proc->types.pointer.act_point.y - proc->types.pointer.last_point.y
 3434              		.loc 1 857 5 is_stmt 1 view .LVU1086
 857:lvgl/lvgl/src/core/lv_indev.c ****     proc->types.pointer.vect.y = proc->types.pointer.act_point.y - proc->types.pointer.last_point.y
 3435              		.loc 1 857 63 is_stmt 0 view .LVU1087
 3436 00ca A288     		ldrh	r2, [r4, #4]
 857:lvgl/lvgl/src/core/lv_indev.c ****     proc->types.pointer.vect.y = proc->types.pointer.act_point.y - proc->types.pointer.last_point.y
 3437              		.loc 1 857 98 view .LVU1088
 3438 00cc 2389     		ldrh	r3, [r4, #8]
 857:lvgl/lvgl/src/core/lv_indev.c ****     proc->types.pointer.vect.y = proc->types.pointer.act_point.y - proc->types.pointer.last_point.y
 3439              		.loc 1 857 66 view .LVU1089
 3440 00ce D21A     		subs	r2, r2, r3
 3441 00d0 12B2     		sxth	r2, r2
 857:lvgl/lvgl/src/core/lv_indev.c ****     proc->types.pointer.vect.y = proc->types.pointer.act_point.y - proc->types.pointer.last_point.y
 3442              		.loc 1 857 32 view .LVU1090
 3443 00d2 2282     		strh	r2, [r4, #16]	@ movhi
 858:lvgl/lvgl/src/core/lv_indev.c **** 
 3444              		.loc 1 858 5 is_stmt 1 view .LVU1091
 858:lvgl/lvgl/src/core/lv_indev.c **** 
 3445              		.loc 1 858 63 is_stmt 0 view .LVU1092
 3446 00d4 E388     		ldrh	r3, [r4, #6]
 858:lvgl/lvgl/src/core/lv_indev.c **** 
 3447              		.loc 1 858 98 view .LVU1093
 3448 00d6 6189     		ldrh	r1, [r4, #10]
 858:lvgl/lvgl/src/core/lv_indev.c **** 
 3449              		.loc 1 858 66 view .LVU1094
 3450 00d8 5B1A     		subs	r3, r3, r1
 3451 00da 1BB2     		sxth	r3, r3
 858:lvgl/lvgl/src/core/lv_indev.c **** 
 3452              		.loc 1 858 32 view .LVU1095
 3453 00dc 6382     		strh	r3, [r4, #18]	@ movhi
 860:lvgl/lvgl/src/core/lv_indev.c ****     proc->types.pointer.scroll_throw_vect.y = (proc->types.pointer.scroll_throw_vect.y * 4) >> 3;
 3454              		.loc 1 860 5 is_stmt 1 view .LVU1096
 860:lvgl/lvgl/src/core/lv_indev.c ****     proc->types.pointer.scroll_throw_vect.y = (proc->types.pointer.scroll_throw_vect.y * 4) >> 3;
 3455              		.loc 1 860 85 is_stmt 0 view .LVU1097
 3456 00de B4F91800 		ldrsh	r0, [r4, #24]
 861:lvgl/lvgl/src/core/lv_indev.c **** 
 3457              		.loc 1 861 5 is_stmt 1 view .LVU1098
ARM GAS  C:\Users\gx\AppData\Local\Temp\ccszQoK7.s 			page 99


 861:lvgl/lvgl/src/core/lv_indev.c **** 
 3458              		.loc 1 861 85 is_stmt 0 view .LVU1099
 3459 00e2 B4F91A10 		ldrsh	r1, [r4, #26]
 863:lvgl/lvgl/src/core/lv_indev.c ****     proc->types.pointer.scroll_throw_vect.y += (proc->types.pointer.vect.y * 4) >> 3;
 3460              		.loc 1 863 5 is_stmt 1 view .LVU1100
 863:lvgl/lvgl/src/core/lv_indev.c ****     proc->types.pointer.scroll_throw_vect.y += (proc->types.pointer.vect.y * 4) >> 3;
 3461              		.loc 1 863 81 is_stmt 0 view .LVU1101
 3462 00e6 5210     		asrs	r2, r2, #1
 863:lvgl/lvgl/src/core/lv_indev.c ****     proc->types.pointer.scroll_throw_vect.y += (proc->types.pointer.vect.y * 4) >> 3;
 3463              		.loc 1 863 45 view .LVU1102
 3464 00e8 02EB6002 		add	r2, r2, r0, asr #1
 3465 00ec 2283     		strh	r2, [r4, #24]	@ movhi
 864:lvgl/lvgl/src/core/lv_indev.c **** 
 3466              		.loc 1 864 5 is_stmt 1 view .LVU1103
 864:lvgl/lvgl/src/core/lv_indev.c **** 
 3467              		.loc 1 864 81 is_stmt 0 view .LVU1104
 3468 00ee 5B10     		asrs	r3, r3, #1
 864:lvgl/lvgl/src/core/lv_indev.c **** 
 3469              		.loc 1 864 45 view .LVU1105
 3470 00f0 03EB6103 		add	r3, r3, r1, asr #1
 3471 00f4 6383     		strh	r3, [r4, #26]	@ movhi
 866:lvgl/lvgl/src/core/lv_indev.c **** 
 3472              		.loc 1 866 5 is_stmt 1 view .LVU1106
 866:lvgl/lvgl/src/core/lv_indev.c **** 
 3473              		.loc 1 866 47 is_stmt 0 view .LVU1107
 3474 00f6 A369     		ldr	r3, [r4, #24]
 3475 00f8 E361     		str	r3, [r4, #28]
 868:lvgl/lvgl/src/core/lv_indev.c ****         lv_event_send(indev_obj_act, LV_EVENT_PRESSING, indev_act);
 3476              		.loc 1 868 5 is_stmt 1 view .LVU1108
 868:lvgl/lvgl/src/core/lv_indev.c ****         lv_event_send(indev_obj_act, LV_EVENT_PRESSING, indev_act);
 3477              		.loc 1 868 8 is_stmt 0 view .LVU1109
 3478 00fa 5D4B     		ldr	r3, .L271
 3479 00fc 1868     		ldr	r0, [r3]
 868:lvgl/lvgl/src/core/lv_indev.c ****         lv_event_send(indev_obj_act, LV_EVENT_PRESSING, indev_act);
 3480              		.loc 1 868 7 view .LVU1110
 3481 00fe 70B1     		cbz	r0, .L253
 869:lvgl/lvgl/src/core/lv_indev.c ****         if(indev_reset_check(proc)) return;
 3482              		.loc 1 869 9 is_stmt 1 view .LVU1111
 3483 0100 5C4B     		ldr	r3, .L271+4
 3484 0102 1A68     		ldr	r2, [r3]
 3485 0104 0221     		movs	r1, #2
 3486 0106 FFF7FEFF 		bl	lv_event_send
 3487              	.LVL290:
 870:lvgl/lvgl/src/core/lv_indev.c **** 
 3488              		.loc 1 870 9 view .LVU1112
 870:lvgl/lvgl/src/core/lv_indev.c **** 
 3489              		.loc 1 870 12 is_stmt 0 view .LVU1113
 3490 010a 2046     		mov	r0, r4
 3491 010c FFF7FEFF 		bl	indev_reset_check
 3492              	.LVL291:
 870:lvgl/lvgl/src/core/lv_indev.c **** 
 3493              		.loc 1 870 11 view .LVU1114
 3494 0110 28B9     		cbnz	r0, .L253
 872:lvgl/lvgl/src/core/lv_indev.c **** 
 3495              		.loc 1 872 9 is_stmt 1 view .LVU1115
 872:lvgl/lvgl/src/core/lv_indev.c **** 
 3496              		.loc 1 872 21 is_stmt 0 view .LVU1116
ARM GAS  C:\Users\gx\AppData\Local\Temp\ccszQoK7.s 			page 100


 3497 0112 584B     		ldr	r3, .L271+4
 3498 0114 1B68     		ldr	r3, [r3]
 872:lvgl/lvgl/src/core/lv_indev.c **** 
 3499              		.loc 1 872 12 view .LVU1117
 3500 0116 5B79     		ldrb	r3, [r3, #5]	@ zero_extendqisi2
 872:lvgl/lvgl/src/core/lv_indev.c **** 
 3501              		.loc 1 872 11 view .LVU1118
 3502 0118 13F0080F 		tst	r3, #8
 3503 011c 57D0     		beq	.L266
 3504              	.LVL292:
 3505              	.L253:
 904:lvgl/lvgl/src/core/lv_indev.c **** 
 3506              		.loc 1 904 1 view .LVU1119
 3507 011e 70BD     		pop	{r4, r5, r6, pc}
 3508              	.LVL293:
 3509              	.L264:
 786:lvgl/lvgl/src/core/lv_indev.c ****         if(indev_obj_act == NULL) indev_obj_act = lv_indev_search_obj(lv_disp_get_layer_top(disp),
 3510              		.loc 1 786 9 is_stmt 1 view .LVU1120
 786:lvgl/lvgl/src/core/lv_indev.c ****         if(indev_obj_act == NULL) indev_obj_act = lv_indev_search_obj(lv_disp_get_layer_top(disp),
 3511              		.loc 1 786 25 is_stmt 0 view .LVU1121
 3512 0120 2846     		mov	r0, r5
 3513 0122 FFF7FEFF 		bl	lv_disp_get_layer_sys
 3514              	.LVL294:
 3515 0126 261D     		adds	r6, r4, #4
 3516 0128 3146     		mov	r1, r6
 3517 012a FFF7FEFF 		bl	lv_indev_search_obj
 3518              	.LVL295:
 786:lvgl/lvgl/src/core/lv_indev.c ****         if(indev_obj_act == NULL) indev_obj_act = lv_indev_search_obj(lv_disp_get_layer_top(disp),
 3519              		.loc 1 786 23 view .LVU1122
 3520 012e 504B     		ldr	r3, .L271
 3521 0130 1860     		str	r0, [r3]
 787:lvgl/lvgl/src/core/lv_indev.c ****                                                                           &proc->types.pointer.act_
 3522              		.loc 1 787 9 is_stmt 1 view .LVU1123
 787:lvgl/lvgl/src/core/lv_indev.c ****                                                                           &proc->types.pointer.act_
 3523              		.loc 1 787 11 is_stmt 0 view .LVU1124
 3524 0132 98B1     		cbz	r0, .L267
 3525              	.L256:
 789:lvgl/lvgl/src/core/lv_indev.c ****                                                                           &proc->types.pointer.act_
 3526              		.loc 1 789 9 is_stmt 1 view .LVU1125
 789:lvgl/lvgl/src/core/lv_indev.c ****                                                                           &proc->types.pointer.act_
 3527              		.loc 1 789 26 is_stmt 0 view .LVU1126
 3528 0134 4E4B     		ldr	r3, .L271
 3529 0136 1B68     		ldr	r3, [r3]
 789:lvgl/lvgl/src/core/lv_indev.c ****                                                                           &proc->types.pointer.act_
 3530              		.loc 1 789 11 view .LVU1127
 3531 0138 CBB1     		cbz	r3, .L268
 3532              	.L257:
 3533              	.LVL296:
 805:lvgl/lvgl/src/core/lv_indev.c ****         proc->types.pointer.scroll_throw_vect.x = 0;
 3534              		.loc 1 805 47 discriminator 1 view .LVU1128
 3535 013a 636A     		ldr	r3, [r4, #36]
 805:lvgl/lvgl/src/core/lv_indev.c ****         proc->types.pointer.scroll_throw_vect.x = 0;
 3536              		.loc 1 805 25 discriminator 1 view .LVU1129
 3537 013c 002B     		cmp	r3, #0
 3538 013e 3FF473AF 		beq	.L258
 806:lvgl/lvgl/src/core/lv_indev.c ****         proc->types.pointer.scroll_throw_vect.y = 0;
 3539              		.loc 1 806 9 is_stmt 1 view .LVU1130
ARM GAS  C:\Users\gx\AppData\Local\Temp\ccszQoK7.s 			page 101


 806:lvgl/lvgl/src/core/lv_indev.c ****         proc->types.pointer.scroll_throw_vect.y = 0;
 3540              		.loc 1 806 49 is_stmt 0 view .LVU1131
 3541 0142 0023     		movs	r3, #0
 3542 0144 2383     		strh	r3, [r4, #24]	@ movhi
 807:lvgl/lvgl/src/core/lv_indev.c ****         _lv_indev_scroll_throw_handler(proc);
 3543              		.loc 1 807 9 is_stmt 1 view .LVU1132
 807:lvgl/lvgl/src/core/lv_indev.c ****         _lv_indev_scroll_throw_handler(proc);
 3544              		.loc 1 807 49 is_stmt 0 view .LVU1133
 3545 0146 6383     		strh	r3, [r4, #26]	@ movhi
 808:lvgl/lvgl/src/core/lv_indev.c ****         if(indev_reset_check(proc)) return;
 3546              		.loc 1 808 9 is_stmt 1 view .LVU1134
 3547 0148 2046     		mov	r0, r4
 3548 014a FFF7FEFF 		bl	_lv_indev_scroll_throw_handler
 3549              	.LVL297:
 809:lvgl/lvgl/src/core/lv_indev.c ****     }
 3550              		.loc 1 809 9 view .LVU1135
 809:lvgl/lvgl/src/core/lv_indev.c ****     }
 3551              		.loc 1 809 12 is_stmt 0 view .LVU1136
 3552 014e 2046     		mov	r0, r4
 3553 0150 FFF7FEFF 		bl	indev_reset_check
 3554              	.LVL298:
 809:lvgl/lvgl/src/core/lv_indev.c ****     }
 3555              		.loc 1 809 11 view .LVU1137
 3556 0154 0028     		cmp	r0, #0
 3557 0156 3FF467AF 		beq	.L258
 3558 015a E0E7     		b	.L253
 3559              	.LVL299:
 3560              	.L267:
 787:lvgl/lvgl/src/core/lv_indev.c ****                                                                           &proc->types.pointer.act_
 3561              		.loc 1 787 35 is_stmt 1 discriminator 1 view .LVU1138
 787:lvgl/lvgl/src/core/lv_indev.c ****                                                                           &proc->types.pointer.act_
 3562              		.loc 1 787 51 is_stmt 0 discriminator 1 view .LVU1139
 3563 015c 2846     		mov	r0, r5
 3564 015e FFF7FEFF 		bl	lv_disp_get_layer_top
 3565              	.LVL300:
 3566 0162 3146     		mov	r1, r6
 3567 0164 FFF7FEFF 		bl	lv_indev_search_obj
 3568              	.LVL301:
 787:lvgl/lvgl/src/core/lv_indev.c ****                                                                           &proc->types.pointer.act_
 3569              		.loc 1 787 49 discriminator 1 view .LVU1140
 3570 0168 414B     		ldr	r3, .L271
 3571 016a 1860     		str	r0, [r3]
 3572 016c E2E7     		b	.L256
 3573              	.L268:
 789:lvgl/lvgl/src/core/lv_indev.c ****                                                                           &proc->types.pointer.act_
 3574              		.loc 1 789 35 is_stmt 1 discriminator 1 view .LVU1141
 789:lvgl/lvgl/src/core/lv_indev.c ****                                                                           &proc->types.pointer.act_
 3575              		.loc 1 789 51 is_stmt 0 discriminator 1 view .LVU1142
 3576 016e 2846     		mov	r0, r5
 3577 0170 FFF7FEFF 		bl	lv_disp_get_scr_act
 3578              	.LVL302:
 3579 0174 3146     		mov	r1, r6
 3580 0176 FFF7FEFF 		bl	lv_indev_search_obj
 3581              	.LVL303:
 789:lvgl/lvgl/src/core/lv_indev.c ****                                                                           &proc->types.pointer.act_
 3582              		.loc 1 789 49 discriminator 1 view .LVU1143
 3583 017a 3D4B     		ldr	r3, .L271
ARM GAS  C:\Users\gx\AppData\Local\Temp\ccszQoK7.s 			page 102


 3584 017c 1860     		str	r0, [r3]
 3585 017e DCE7     		b	.L257
 3586              	.L265:
 795:lvgl/lvgl/src/core/lv_indev.c ****         indev_obj_act = lv_indev_search_obj(lv_disp_get_layer_sys(disp), &proc->types.pointer.act_p
 3587              		.loc 1 795 13 discriminator 1 view .LVU1144
 3588 0180 4FF40061 		mov	r1, #2048
 3589 0184 FFF7FEFF 		bl	lv_obj_has_flag
 3590              	.LVL304:
 794:lvgl/lvgl/src/core/lv_indev.c ****             lv_obj_has_flag(indev_obj_act, LV_OBJ_FLAG_PRESS_LOCK) == false) {
 3591              		.loc 1 794 52 discriminator 1 view .LVU1145
 3592 0188 0028     		cmp	r0, #0
 3593 018a 7FF44DAF 		bne	.L258
 796:lvgl/lvgl/src/core/lv_indev.c ****         if(indev_obj_act == NULL) indev_obj_act = lv_indev_search_obj(lv_disp_get_layer_top(disp),
 3594              		.loc 1 796 9 is_stmt 1 view .LVU1146
 796:lvgl/lvgl/src/core/lv_indev.c ****         if(indev_obj_act == NULL) indev_obj_act = lv_indev_search_obj(lv_disp_get_layer_top(disp),
 3595              		.loc 1 796 25 is_stmt 0 view .LVU1147
 3596 018e 2846     		mov	r0, r5
 3597 0190 FFF7FEFF 		bl	lv_disp_get_layer_sys
 3598              	.LVL305:
 3599 0194 261D     		adds	r6, r4, #4
 3600 0196 3146     		mov	r1, r6
 3601 0198 FFF7FEFF 		bl	lv_indev_search_obj
 3602              	.LVL306:
 796:lvgl/lvgl/src/core/lv_indev.c ****         if(indev_obj_act == NULL) indev_obj_act = lv_indev_search_obj(lv_disp_get_layer_top(disp),
 3603              		.loc 1 796 23 view .LVU1148
 3604 019c 344B     		ldr	r3, .L271
 3605 019e 1860     		str	r0, [r3]
 797:lvgl/lvgl/src/core/lv_indev.c ****                                                                           &proc->types.pointer.act_
 3606              		.loc 1 797 9 is_stmt 1 view .LVU1149
 797:lvgl/lvgl/src/core/lv_indev.c ****                                                                           &proc->types.pointer.act_
 3607              		.loc 1 797 11 is_stmt 0 view .LVU1150
 3608 01a0 60B1     		cbz	r0, .L269
 3609              	.L259:
 799:lvgl/lvgl/src/core/lv_indev.c ****                                                                           &proc->types.pointer.act_
 3610              		.loc 1 799 9 is_stmt 1 view .LVU1151
 799:lvgl/lvgl/src/core/lv_indev.c ****                                                                           &proc->types.pointer.act_
 3611              		.loc 1 799 26 is_stmt 0 view .LVU1152
 3612 01a2 334B     		ldr	r3, .L271
 3613 01a4 1B68     		ldr	r3, [r3]
 799:lvgl/lvgl/src/core/lv_indev.c ****                                                                           &proc->types.pointer.act_
 3614              		.loc 1 799 11 view .LVU1153
 3615 01a6 002B     		cmp	r3, #0
 3616 01a8 C7D1     		bne	.L257
 799:lvgl/lvgl/src/core/lv_indev.c ****                                                                           &proc->types.pointer.act_
 3617              		.loc 1 799 35 is_stmt 1 discriminator 1 view .LVU1154
 799:lvgl/lvgl/src/core/lv_indev.c ****                                                                           &proc->types.pointer.act_
 3618              		.loc 1 799 51 is_stmt 0 discriminator 1 view .LVU1155
 3619 01aa 2846     		mov	r0, r5
 3620 01ac FFF7FEFF 		bl	lv_disp_get_scr_act
 3621              	.LVL307:
 3622 01b0 3146     		mov	r1, r6
 3623 01b2 FFF7FEFF 		bl	lv_indev_search_obj
 3624              	.LVL308:
 799:lvgl/lvgl/src/core/lv_indev.c ****                                                                           &proc->types.pointer.act_
 3625              		.loc 1 799 49 discriminator 1 view .LVU1156
 3626 01b6 2E4B     		ldr	r3, .L271
 3627 01b8 1860     		str	r0, [r3]
ARM GAS  C:\Users\gx\AppData\Local\Temp\ccszQoK7.s 			page 103


 3628 01ba BEE7     		b	.L257
 3629              	.L269:
 797:lvgl/lvgl/src/core/lv_indev.c ****                                                                           &proc->types.pointer.act_
 3630              		.loc 1 797 35 is_stmt 1 discriminator 1 view .LVU1157
 797:lvgl/lvgl/src/core/lv_indev.c ****                                                                           &proc->types.pointer.act_
 3631              		.loc 1 797 51 is_stmt 0 discriminator 1 view .LVU1158
 3632 01bc 2846     		mov	r0, r5
 3633 01be FFF7FEFF 		bl	lv_disp_get_layer_top
 3634              	.LVL309:
 3635 01c2 3146     		mov	r1, r6
 3636 01c4 FFF7FEFF 		bl	lv_indev_search_obj
 3637              	.LVL310:
 797:lvgl/lvgl/src/core/lv_indev.c ****                                                                           &proc->types.pointer.act_
 3638              		.loc 1 797 49 discriminator 1 view .LVU1159
 3639 01c8 294B     		ldr	r3, .L271
 3640 01ca 1860     		str	r0, [r3]
 3641 01cc E9E7     		b	.L259
 3642              	.LVL311:
 3643              	.L266:
 874:lvgl/lvgl/src/core/lv_indev.c ****         if(indev_reset_check(proc)) return;
 3644              		.loc 1 874 9 is_stmt 1 view .LVU1160
 3645 01ce 2046     		mov	r0, r4
 3646 01d0 FFF7FEFF 		bl	_lv_indev_scroll_handler
 3647              	.LVL312:
 875:lvgl/lvgl/src/core/lv_indev.c ****         indev_gesture(proc);
 3648              		.loc 1 875 9 view .LVU1161
 875:lvgl/lvgl/src/core/lv_indev.c ****         indev_gesture(proc);
 3649              		.loc 1 875 12 is_stmt 0 view .LVU1162
 3650 01d4 2046     		mov	r0, r4
 3651 01d6 FFF7FEFF 		bl	indev_reset_check
 3652              	.LVL313:
 875:lvgl/lvgl/src/core/lv_indev.c ****         indev_gesture(proc);
 3653              		.loc 1 875 11 view .LVU1163
 3654 01da 0028     		cmp	r0, #0
 3655 01dc 9FD1     		bne	.L253
 876:lvgl/lvgl/src/core/lv_indev.c ****         if(indev_reset_check(proc)) return;
 3656              		.loc 1 876 9 is_stmt 1 view .LVU1164
 3657 01de 2046     		mov	r0, r4
 3658 01e0 FFF7FEFF 		bl	indev_gesture
 3659              	.LVL314:
 877:lvgl/lvgl/src/core/lv_indev.c **** 
 3660              		.loc 1 877 9 view .LVU1165
 877:lvgl/lvgl/src/core/lv_indev.c **** 
 3661              		.loc 1 877 12 is_stmt 0 view .LVU1166
 3662 01e4 2046     		mov	r0, r4
 3663 01e6 FFF7FEFF 		bl	indev_reset_check
 3664              	.LVL315:
 877:lvgl/lvgl/src/core/lv_indev.c **** 
 3665              		.loc 1 877 11 view .LVU1167
 3666 01ea 0028     		cmp	r0, #0
 3667 01ec 97D1     		bne	.L253
 880:lvgl/lvgl/src/core/lv_indev.c ****             /*Call the ancestor's event handler about the long press if enough time elapsed*/
 3668              		.loc 1 880 9 is_stmt 1 view .LVU1168
 880:lvgl/lvgl/src/core/lv_indev.c ****             /*Call the ancestor's event handler about the long press if enough time elapsed*/
 3669              		.loc 1 880 31 is_stmt 0 view .LVU1169
 3670 01ee A36A     		ldr	r3, [r4, #40]
 880:lvgl/lvgl/src/core/lv_indev.c ****             /*Call the ancestor's event handler about the long press if enough time elapsed*/
ARM GAS  C:\Users\gx\AppData\Local\Temp\ccszQoK7.s 			page 104


 3671              		.loc 1 880 11 view .LVU1170
 3672 01f0 F3B1     		cbz	r3, .L270
 3673              	.L262:
 895:lvgl/lvgl/src/core/lv_indev.c ****             /*Call the ancestor's event handler about the long press repeat if enough time elapsed*
 3674              		.loc 1 895 9 is_stmt 1 view .LVU1171
 895:lvgl/lvgl/src/core/lv_indev.c ****             /*Call the ancestor's event handler about the long press repeat if enough time elapsed*
 3675              		.loc 1 895 31 is_stmt 0 view .LVU1172
 3676 01f2 A36A     		ldr	r3, [r4, #40]
 895:lvgl/lvgl/src/core/lv_indev.c ****             /*Call the ancestor's event handler about the long press repeat if enough time elapsed*
 3677              		.loc 1 895 11 view .LVU1173
 3678 01f4 002B     		cmp	r3, #0
 3679 01f6 92D1     		bne	.L253
 895:lvgl/lvgl/src/core/lv_indev.c ****             /*Call the ancestor's event handler about the long press repeat if enough time elapsed*
 3680              		.loc 1 895 73 discriminator 1 view .LVU1174
 3681 01f8 6378     		ldrb	r3, [r4, #1]	@ zero_extendqisi2
 895:lvgl/lvgl/src/core/lv_indev.c ****             /*Call the ancestor's event handler about the long press repeat if enough time elapsed*
 3682              		.loc 1 895 51 discriminator 1 view .LVU1175
 3683 01fa 13F0010F 		tst	r3, #1
 3684 01fe 8ED0     		beq	.L253
 897:lvgl/lvgl/src/core/lv_indev.c ****                 lv_event_send(indev_obj_act, LV_EVENT_LONG_PRESSED_REPEAT, indev_act);
 3685              		.loc 1 897 13 is_stmt 1 view .LVU1176
 897:lvgl/lvgl/src/core/lv_indev.c ****                 lv_event_send(indev_obj_act, LV_EVENT_LONG_PRESSED_REPEAT, indev_act);
 3686              		.loc 1 897 16 is_stmt 0 view .LVU1177
 3687 0200 606C     		ldr	r0, [r4, #68]
 3688 0202 FFF7FEFF 		bl	lv_tick_elaps
 3689              	.LVL316:
 897:lvgl/lvgl/src/core/lv_indev.c ****                 lv_event_send(indev_obj_act, LV_EVENT_LONG_PRESSED_REPEAT, indev_act);
 3690              		.loc 1 897 69 view .LVU1178
 3691 0206 1B4B     		ldr	r3, .L271+4
 3692 0208 1A68     		ldr	r2, [r3]
 3693 020a 1368     		ldr	r3, [r2]
 897:lvgl/lvgl/src/core/lv_indev.c ****                 lv_event_send(indev_obj_act, LV_EVENT_LONG_PRESSED_REPEAT, indev_act);
 3694              		.loc 1 897 77 view .LVU1179
 3695 020c DB8B     		ldrh	r3, [r3, #30]
 897:lvgl/lvgl/src/core/lv_indev.c ****                 lv_event_send(indev_obj_act, LV_EVENT_LONG_PRESSED_REPEAT, indev_act);
 3696              		.loc 1 897 15 view .LVU1180
 3697 020e 9842     		cmp	r0, r3
 3698 0210 85D9     		bls	.L253
 898:lvgl/lvgl/src/core/lv_indev.c ****                 if(indev_reset_check(proc)) return;
 3699              		.loc 1 898 17 is_stmt 1 view .LVU1181
 3700 0212 0621     		movs	r1, #6
 3701 0214 164B     		ldr	r3, .L271
 3702 0216 1868     		ldr	r0, [r3]
 3703 0218 FFF7FEFF 		bl	lv_event_send
 3704              	.LVL317:
 899:lvgl/lvgl/src/core/lv_indev.c ****                 proc->longpr_rep_timestamp = lv_tick_get();
 3705              		.loc 1 899 17 view .LVU1182
 899:lvgl/lvgl/src/core/lv_indev.c ****                 proc->longpr_rep_timestamp = lv_tick_get();
 3706              		.loc 1 899 20 is_stmt 0 view .LVU1183
 3707 021c 2046     		mov	r0, r4
 3708 021e FFF7FEFF 		bl	indev_reset_check
 3709              	.LVL318:
 899:lvgl/lvgl/src/core/lv_indev.c ****                 proc->longpr_rep_timestamp = lv_tick_get();
 3710              		.loc 1 899 19 view .LVU1184
 3711 0222 0028     		cmp	r0, #0
 3712 0224 7FF47BAF 		bne	.L253
 900:lvgl/lvgl/src/core/lv_indev.c ****             }
ARM GAS  C:\Users\gx\AppData\Local\Temp\ccszQoK7.s 			page 105


 3713              		.loc 1 900 17 is_stmt 1 view .LVU1185
 900:lvgl/lvgl/src/core/lv_indev.c ****             }
 3714              		.loc 1 900 46 is_stmt 0 view .LVU1186
 3715 0228 FFF7FEFF 		bl	lv_tick_get
 3716              	.LVL319:
 900:lvgl/lvgl/src/core/lv_indev.c ****             }
 3717              		.loc 1 900 44 view .LVU1187
 3718 022c 6064     		str	r0, [r4, #68]
 3719 022e 76E7     		b	.L253
 3720              	.L270:
 880:lvgl/lvgl/src/core/lv_indev.c ****             /*Call the ancestor's event handler about the long press if enough time elapsed*/
 3721              		.loc 1 880 73 discriminator 1 view .LVU1188
 3722 0230 6378     		ldrb	r3, [r4, #1]	@ zero_extendqisi2
 880:lvgl/lvgl/src/core/lv_indev.c ****             /*Call the ancestor's event handler about the long press if enough time elapsed*/
 3723              		.loc 1 880 51 discriminator 1 view .LVU1189
 3724 0232 13F0010F 		tst	r3, #1
 3725 0236 DCD1     		bne	.L262
 882:lvgl/lvgl/src/core/lv_indev.c ****                 lv_event_send(indev_obj_act, LV_EVENT_LONG_PRESSED, indev_act);
 3726              		.loc 1 882 13 is_stmt 1 view .LVU1190
 882:lvgl/lvgl/src/core/lv_indev.c ****                 lv_event_send(indev_obj_act, LV_EVENT_LONG_PRESSED, indev_act);
 3727              		.loc 1 882 16 is_stmt 0 view .LVU1191
 3728 0238 206C     		ldr	r0, [r4, #64]
 3729 023a FFF7FEFF 		bl	lv_tick_elaps
 3730              	.LVL320:
 882:lvgl/lvgl/src/core/lv_indev.c ****                 lv_event_send(indev_obj_act, LV_EVENT_LONG_PRESSED, indev_act);
 3731              		.loc 1 882 61 view .LVU1192
 3732 023e 0D4B     		ldr	r3, .L271+4
 3733 0240 1A68     		ldr	r2, [r3]
 3734 0242 1368     		ldr	r3, [r2]
 882:lvgl/lvgl/src/core/lv_indev.c ****                 lv_event_send(indev_obj_act, LV_EVENT_LONG_PRESSED, indev_act);
 3735              		.loc 1 882 69 view .LVU1193
 3736 0244 9B8B     		ldrh	r3, [r3, #28]
 882:lvgl/lvgl/src/core/lv_indev.c ****                 lv_event_send(indev_obj_act, LV_EVENT_LONG_PRESSED, indev_act);
 3737              		.loc 1 882 15 view .LVU1194
 3738 0246 9842     		cmp	r0, r3
 3739 0248 D3D9     		bls	.L262
 883:lvgl/lvgl/src/core/lv_indev.c ****                 if(indev_reset_check(proc)) return;
 3740              		.loc 1 883 17 is_stmt 1 view .LVU1195
 3741 024a 0521     		movs	r1, #5
 3742 024c 084B     		ldr	r3, .L271
 3743 024e 1868     		ldr	r0, [r3]
 3744 0250 FFF7FEFF 		bl	lv_event_send
 3745              	.LVL321:
 884:lvgl/lvgl/src/core/lv_indev.c **** 
 3746              		.loc 1 884 17 view .LVU1196
 884:lvgl/lvgl/src/core/lv_indev.c **** 
 3747              		.loc 1 884 20 is_stmt 0 view .LVU1197
 3748 0254 2046     		mov	r0, r4
 3749 0256 FFF7FEFF 		bl	indev_reset_check
 3750              	.LVL322:
 884:lvgl/lvgl/src/core/lv_indev.c **** 
 3751              		.loc 1 884 19 view .LVU1198
 3752 025a 0028     		cmp	r0, #0
 3753 025c 7FF45FAF 		bne	.L253
 887:lvgl/lvgl/src/core/lv_indev.c **** 
 3754              		.loc 1 887 17 is_stmt 1 view .LVU1199
 887:lvgl/lvgl/src/core/lv_indev.c **** 
ARM GAS  C:\Users\gx\AppData\Local\Temp\ccszQoK7.s 			page 106


 3755              		.loc 1 887 36 is_stmt 0 view .LVU1200
 3756 0260 6378     		ldrb	r3, [r4, #1]	@ zero_extendqisi2
 3757 0262 43F00103 		orr	r3, r3, #1
 3758 0266 6370     		strb	r3, [r4, #1]
 890:lvgl/lvgl/src/core/lv_indev.c ****             }
 3759              		.loc 1 890 17 is_stmt 1 view .LVU1201
 890:lvgl/lvgl/src/core/lv_indev.c ****             }
 3760              		.loc 1 890 46 is_stmt 0 view .LVU1202
 3761 0268 FFF7FEFF 		bl	lv_tick_get
 3762              	.LVL323:
 890:lvgl/lvgl/src/core/lv_indev.c ****             }
 3763              		.loc 1 890 44 view .LVU1203
 3764 026c 6064     		str	r0, [r4, #68]
 3765 026e C0E7     		b	.L262
 3766              	.L272:
 3767              		.align	2
 3768              	.L271:
 3769 0270 00000000 		.word	.LANCHOR0
 3770 0274 00000000 		.word	.LANCHOR1
 3771              		.cfi_endproc
 3772              	.LFE181:
 3774              		.section	.rodata.indev_pointer_proc.str1.4,"aMS",%progbits,1
 3775              		.align	2
 3776              	.LC2:
 3777 0000 58206973 		.ascii	"X is %d which is smaller than zero\000"
 3777      20256420 
 3777      77686963 
 3777      68206973 
 3777      20736D61 
 3778 0023 00       		.align	2
 3779              	.LC3:
 3780 0024 58206973 		.ascii	"X is %d which is greater than hor. res\000"
 3780      20256420 
 3780      77686963 
 3780      68206973 
 3780      20677265 
 3781 004b 00       		.align	2
 3782              	.LC4:
 3783 004c 59206973 		.ascii	"Y is %d which is smaller than zero\000"
 3783      20256420 
 3783      77686963 
 3783      68206973 
 3783      20736D61 
 3784 006f 00       		.align	2
 3785              	.LC5:
 3786 0070 59206973 		.ascii	"Y is %d which is greater than hor. res\000"
 3786      20256420 
 3786      77686963 
 3786      68206973 
 3786      20677265 
 3787              		.section	.text.indev_pointer_proc,"ax",%progbits
 3788              		.align	1
 3789              		.syntax unified
 3790              		.thumb
 3791              		.thumb_func
 3792              		.fpu fpv4-sp-d16
 3794              	indev_pointer_proc:
ARM GAS  C:\Users\gx\AppData\Local\Temp\ccszQoK7.s 			page 107


 3795              	.LVL324:
 3796              	.LFB177:
 328:lvgl/lvgl/src/core/lv_indev.c ****     lv_disp_t *disp = i->driver->disp;
 3797              		.loc 1 328 1 is_stmt 1 view -0
 3798              		.cfi_startproc
 3799              		@ args = 0, pretend = 0, frame = 0
 3800              		@ frame_needed = 0, uses_anonymous_args = 0
 328:lvgl/lvgl/src/core/lv_indev.c ****     lv_disp_t *disp = i->driver->disp;
 3801              		.loc 1 328 1 is_stmt 0 view .LVU1205
 3802 0000 70B5     		push	{r4, r5, r6, lr}
 3803              	.LCFI14:
 3804              		.cfi_def_cfa_offset 16
 3805              		.cfi_offset 4, -16
 3806              		.cfi_offset 5, -12
 3807              		.cfi_offset 6, -8
 3808              		.cfi_offset 14, -4
 3809 0002 82B0     		sub	sp, sp, #8
 3810              	.LCFI15:
 3811              		.cfi_def_cfa_offset 24
 3812 0004 0446     		mov	r4, r0
 3813 0006 0D46     		mov	r5, r1
 329:lvgl/lvgl/src/core/lv_indev.c ****     /*Save the raw points so they can be used again in _lv_indev_read*/
 3814              		.loc 1 329 5 is_stmt 1 view .LVU1206
 329:lvgl/lvgl/src/core/lv_indev.c ****     /*Save the raw points so they can be used again in _lv_indev_read*/
 3815              		.loc 1 329 24 is_stmt 0 view .LVU1207
 3816 0008 0368     		ldr	r3, [r0]
 329:lvgl/lvgl/src/core/lv_indev.c ****     /*Save the raw points so they can be used again in _lv_indev_read*/
 3817              		.loc 1 329 16 view .LVU1208
 3818 000a 1969     		ldr	r1, [r3, #16]
 3819              	.LVL325:
 331:lvgl/lvgl/src/core/lv_indev.c ****     i->proc.types.pointer.last_raw_point.y = data->point.y;
 3820              		.loc 1 331 5 is_stmt 1 view .LVU1209
 331:lvgl/lvgl/src/core/lv_indev.c ****     i->proc.types.pointer.last_raw_point.y = data->point.y;
 3821              		.loc 1 331 57 is_stmt 0 view .LVU1210
 3822 000c B5F90030 		ldrsh	r3, [r5]
 331:lvgl/lvgl/src/core/lv_indev.c ****     i->proc.types.pointer.last_raw_point.y = data->point.y;
 3823              		.loc 1 331 44 view .LVU1211
 3824 0010 0382     		strh	r3, [r0, #16]	@ movhi
 332:lvgl/lvgl/src/core/lv_indev.c **** 
 3825              		.loc 1 332 5 is_stmt 1 view .LVU1212
 332:lvgl/lvgl/src/core/lv_indev.c **** 
 3826              		.loc 1 332 57 is_stmt 0 view .LVU1213
 3827 0012 B5F90200 		ldrsh	r0, [r5, #2]
 3828              	.LVL326:
 332:lvgl/lvgl/src/core/lv_indev.c **** 
 3829              		.loc 1 332 44 view .LVU1214
 3830 0016 6082     		strh	r0, [r4, #18]	@ movhi
 334:lvgl/lvgl/src/core/lv_indev.c ****         data->point.x = disp->driver->hor_res - data->point.x - 1;
 3831              		.loc 1 334 5 is_stmt 1 view .LVU1215
 334:lvgl/lvgl/src/core/lv_indev.c ****         data->point.x = disp->driver->hor_res - data->point.x - 1;
 3832              		.loc 1 334 12 is_stmt 0 view .LVU1216
 3833 0018 0A68     		ldr	r2, [r1]
 334:lvgl/lvgl/src/core/lv_indev.c ****         data->point.x = disp->driver->hor_res - data->point.x - 1;
 3834              		.loc 1 334 30 view .LVU1217
 3835 001a 137A     		ldrb	r3, [r2, #8]	@ zero_extendqisi2
 3836 001c 03F01803 		and	r3, r3, #24
 334:lvgl/lvgl/src/core/lv_indev.c ****         data->point.x = disp->driver->hor_res - data->point.x - 1;
ARM GAS  C:\Users\gx\AppData\Local\Temp\ccszQoK7.s 			page 108


 3837              		.loc 1 334 7 view .LVU1218
 3838 0020 102B     		cmp	r3, #16
 3839 0022 01D0     		beq	.L274
 334:lvgl/lvgl/src/core/lv_indev.c ****         data->point.x = disp->driver->hor_res - data->point.x - 1;
 3840              		.loc 1 334 49 discriminator 1 view .LVU1219
 3841 0024 182B     		cmp	r3, #24
 3842 0026 0CD1     		bne	.L275
 3843              	.L274:
 335:lvgl/lvgl/src/core/lv_indev.c ****         data->point.y = disp->driver->ver_res - data->point.y - 1;
 3844              		.loc 1 335 9 is_stmt 1 view .LVU1220
 335:lvgl/lvgl/src/core/lv_indev.c ****         data->point.y = disp->driver->ver_res - data->point.y - 1;
 3845              		.loc 1 335 37 is_stmt 0 view .LVU1221
 3846 0028 1288     		ldrh	r2, [r2]
 335:lvgl/lvgl/src/core/lv_indev.c ****         data->point.y = disp->driver->ver_res - data->point.y - 1;
 3847              		.loc 1 335 60 view .LVU1222
 3848 002a 2B88     		ldrh	r3, [r5]
 335:lvgl/lvgl/src/core/lv_indev.c ****         data->point.y = disp->driver->ver_res - data->point.y - 1;
 3849              		.loc 1 335 47 view .LVU1223
 3850 002c D21A     		subs	r2, r2, r3
 3851 002e 92B2     		uxth	r2, r2
 335:lvgl/lvgl/src/core/lv_indev.c ****         data->point.y = disp->driver->ver_res - data->point.y - 1;
 3852              		.loc 1 335 63 view .LVU1224
 3853 0030 013A     		subs	r2, r2, #1
 335:lvgl/lvgl/src/core/lv_indev.c ****         data->point.y = disp->driver->ver_res - data->point.y - 1;
 3854              		.loc 1 335 23 view .LVU1225
 3855 0032 2A80     		strh	r2, [r5]	@ movhi
 336:lvgl/lvgl/src/core/lv_indev.c ****     }
 3856              		.loc 1 336 9 is_stmt 1 view .LVU1226
 336:lvgl/lvgl/src/core/lv_indev.c ****     }
 3857              		.loc 1 336 29 is_stmt 0 view .LVU1227
 3858 0034 0B68     		ldr	r3, [r1]
 336:lvgl/lvgl/src/core/lv_indev.c ****     }
 3859              		.loc 1 336 37 view .LVU1228
 3860 0036 5B88     		ldrh	r3, [r3, #2]
 336:lvgl/lvgl/src/core/lv_indev.c ****     }
 3861              		.loc 1 336 60 view .LVU1229
 3862 0038 80B2     		uxth	r0, r0
 336:lvgl/lvgl/src/core/lv_indev.c ****     }
 3863              		.loc 1 336 47 view .LVU1230
 3864 003a 1B1A     		subs	r3, r3, r0
 3865 003c 9BB2     		uxth	r3, r3
 336:lvgl/lvgl/src/core/lv_indev.c ****     }
 3866              		.loc 1 336 63 view .LVU1231
 3867 003e 013B     		subs	r3, r3, #1
 336:lvgl/lvgl/src/core/lv_indev.c ****     }
 3868              		.loc 1 336 23 view .LVU1232
 3869 0040 6B80     		strh	r3, [r5, #2]	@ movhi
 3870              	.L275:
 338:lvgl/lvgl/src/core/lv_indev.c ****         lv_coord_t tmp = data->point.y;
 3871              		.loc 1 338 5 is_stmt 1 view .LVU1233
 338:lvgl/lvgl/src/core/lv_indev.c ****         lv_coord_t tmp = data->point.y;
 3872              		.loc 1 338 12 is_stmt 0 view .LVU1234
 3873 0042 0B68     		ldr	r3, [r1]
 338:lvgl/lvgl/src/core/lv_indev.c ****         lv_coord_t tmp = data->point.y;
 3874              		.loc 1 338 30 view .LVU1235
 3875 0044 1B7A     		ldrb	r3, [r3, #8]	@ zero_extendqisi2
 3876 0046 03F01803 		and	r3, r3, #24
ARM GAS  C:\Users\gx\AppData\Local\Temp\ccszQoK7.s 			page 109


 338:lvgl/lvgl/src/core/lv_indev.c ****         lv_coord_t tmp = data->point.y;
 3877              		.loc 1 338 7 view .LVU1236
 3878 004a 082B     		cmp	r3, #8
 3879 004c 01D0     		beq	.L276
 338:lvgl/lvgl/src/core/lv_indev.c ****         lv_coord_t tmp = data->point.y;
 3880              		.loc 1 338 48 discriminator 1 view .LVU1237
 3881 004e 182B     		cmp	r3, #24
 3882 0050 0AD1     		bne	.L277
 3883              	.L276:
 3884              	.LBB15:
 339:lvgl/lvgl/src/core/lv_indev.c ****         data->point.y = data->point.x;
 3885              		.loc 1 339 9 is_stmt 1 view .LVU1238
 339:lvgl/lvgl/src/core/lv_indev.c ****         data->point.y = data->point.x;
 3886              		.loc 1 339 20 is_stmt 0 view .LVU1239
 3887 0052 B5F90220 		ldrsh	r2, [r5, #2]
 3888              	.LVL327:
 340:lvgl/lvgl/src/core/lv_indev.c ****         data->point.x = disp->driver->ver_res - tmp - 1;
 3889              		.loc 1 340 9 is_stmt 1 view .LVU1240
 340:lvgl/lvgl/src/core/lv_indev.c ****         data->point.x = disp->driver->ver_res - tmp - 1;
 3890              		.loc 1 340 36 is_stmt 0 view .LVU1241
 3891 0056 B5F90030 		ldrsh	r3, [r5]
 340:lvgl/lvgl/src/core/lv_indev.c ****         data->point.x = disp->driver->ver_res - tmp - 1;
 3892              		.loc 1 340 23 view .LVU1242
 3893 005a 6B80     		strh	r3, [r5, #2]	@ movhi
 341:lvgl/lvgl/src/core/lv_indev.c ****     }
 3894              		.loc 1 341 9 is_stmt 1 view .LVU1243
 341:lvgl/lvgl/src/core/lv_indev.c ****     }
 3895              		.loc 1 341 29 is_stmt 0 view .LVU1244
 3896 005c 0B68     		ldr	r3, [r1]
 341:lvgl/lvgl/src/core/lv_indev.c ****     }
 3897              		.loc 1 341 37 view .LVU1245
 3898 005e 5B88     		ldrh	r3, [r3, #2]
 341:lvgl/lvgl/src/core/lv_indev.c ****     }
 3899              		.loc 1 341 47 view .LVU1246
 3900 0060 9B1A     		subs	r3, r3, r2
 3901 0062 9BB2     		uxth	r3, r3
 341:lvgl/lvgl/src/core/lv_indev.c ****     }
 3902              		.loc 1 341 53 view .LVU1247
 3903 0064 013B     		subs	r3, r3, #1
 341:lvgl/lvgl/src/core/lv_indev.c ****     }
 3904              		.loc 1 341 23 view .LVU1248
 3905 0066 2B80     		strh	r3, [r5]	@ movhi
 3906              	.LVL328:
 3907              	.L277:
 341:lvgl/lvgl/src/core/lv_indev.c ****     }
 3908              		.loc 1 341 23 view .LVU1249
 3909              	.LBE15:
 345:lvgl/lvgl/src/core/lv_indev.c ****     if(data->point.x >= lv_disp_get_hor_res(i->driver->disp)) LV_LOG_WARN("X is %d which is greater
 3910              		.loc 1 345 5 is_stmt 1 view .LVU1250
 345:lvgl/lvgl/src/core/lv_indev.c ****     if(data->point.x >= lv_disp_get_hor_res(i->driver->disp)) LV_LOG_WARN("X is %d which is greater
 3911              		.loc 1 345 19 is_stmt 0 view .LVU1251
 3912 0068 B5F90030 		ldrsh	r3, [r5]
 345:lvgl/lvgl/src/core/lv_indev.c ****     if(data->point.x >= lv_disp_get_hor_res(i->driver->disp)) LV_LOG_WARN("X is %d which is greater
 3913              		.loc 1 345 7 view .LVU1252
 3914 006c 002B     		cmp	r3, #0
 3915 006e 2DDB     		blt	.L286
 3916              	.LVL329:
ARM GAS  C:\Users\gx\AppData\Local\Temp\ccszQoK7.s 			page 110


 3917              	.L278:
 345:lvgl/lvgl/src/core/lv_indev.c ****     if(data->point.x >= lv_disp_get_hor_res(i->driver->disp)) LV_LOG_WARN("X is %d which is greater
 3918              		.loc 1 345 91 is_stmt 1 discriminator 3 view .LVU1253
 346:lvgl/lvgl/src/core/lv_indev.c ****     if(data->point.y < 0) LV_LOG_WARN("Y is %d which is smaller than zero", data->point.y);
 3919              		.loc 1 346 5 discriminator 3 view .LVU1254
 346:lvgl/lvgl/src/core/lv_indev.c ****     if(data->point.y < 0) LV_LOG_WARN("Y is %d which is smaller than zero", data->point.y);
 3920              		.loc 1 346 19 is_stmt 0 discriminator 3 view .LVU1255
 3921 0070 B5F90060 		ldrsh	r6, [r5]
 346:lvgl/lvgl/src/core/lv_indev.c ****     if(data->point.y < 0) LV_LOG_WARN("Y is %d which is smaller than zero", data->point.y);
 3922              		.loc 1 346 46 discriminator 3 view .LVU1256
 3923 0074 2368     		ldr	r3, [r4]
 346:lvgl/lvgl/src/core/lv_indev.c ****     if(data->point.y < 0) LV_LOG_WARN("Y is %d which is smaller than zero", data->point.y);
 3924              		.loc 1 346 25 discriminator 3 view .LVU1257
 3925 0076 1869     		ldr	r0, [r3, #16]
 3926 0078 FFF7FEFF 		bl	lv_disp_get_hor_res
 3927              	.LVL330:
 346:lvgl/lvgl/src/core/lv_indev.c ****     if(data->point.y < 0) LV_LOG_WARN("Y is %d which is smaller than zero", data->point.y);
 3928              		.loc 1 346 7 discriminator 3 view .LVU1258
 3929 007c 8642     		cmp	r6, r0
 3930 007e 30DA     		bge	.L287
 3931              	.L279:
 346:lvgl/lvgl/src/core/lv_indev.c ****     if(data->point.y < 0) LV_LOG_WARN("Y is %d which is smaller than zero", data->point.y);
 3932              		.loc 1 346 131 is_stmt 1 discriminator 3 view .LVU1259
 347:lvgl/lvgl/src/core/lv_indev.c ****     if(data->point.y >= lv_disp_get_ver_res(i->driver->disp)) LV_LOG_WARN("Y is %d which is greater
 3933              		.loc 1 347 5 discriminator 3 view .LVU1260
 347:lvgl/lvgl/src/core/lv_indev.c ****     if(data->point.y >= lv_disp_get_ver_res(i->driver->disp)) LV_LOG_WARN("Y is %d which is greater
 3934              		.loc 1 347 19 is_stmt 0 discriminator 3 view .LVU1261
 3935 0080 B5F90230 		ldrsh	r3, [r5, #2]
 347:lvgl/lvgl/src/core/lv_indev.c ****     if(data->point.y >= lv_disp_get_ver_res(i->driver->disp)) LV_LOG_WARN("Y is %d which is greater
 3936              		.loc 1 347 7 discriminator 3 view .LVU1262
 3937 0084 002B     		cmp	r3, #0
 3938 0086 39DB     		blt	.L288
 3939              	.L280:
 347:lvgl/lvgl/src/core/lv_indev.c ****     if(data->point.y >= lv_disp_get_ver_res(i->driver->disp)) LV_LOG_WARN("Y is %d which is greater
 3940              		.loc 1 347 91 is_stmt 1 discriminator 3 view .LVU1263
 348:lvgl/lvgl/src/core/lv_indev.c **** 
 3941              		.loc 1 348 5 discriminator 3 view .LVU1264
 348:lvgl/lvgl/src/core/lv_indev.c **** 
 3942              		.loc 1 348 19 is_stmt 0 discriminator 3 view .LVU1265
 3943 0088 B5F90260 		ldrsh	r6, [r5, #2]
 348:lvgl/lvgl/src/core/lv_indev.c **** 
 3944              		.loc 1 348 46 discriminator 3 view .LVU1266
 3945 008c 2368     		ldr	r3, [r4]
 348:lvgl/lvgl/src/core/lv_indev.c **** 
 3946              		.loc 1 348 25 discriminator 3 view .LVU1267
 3947 008e 1869     		ldr	r0, [r3, #16]
 3948 0090 FFF7FEFF 		bl	lv_disp_get_ver_res
 3949              	.LVL331:
 348:lvgl/lvgl/src/core/lv_indev.c **** 
 3950              		.loc 1 348 7 discriminator 3 view .LVU1268
 3951 0094 8642     		cmp	r6, r0
 3952 0096 3CDA     		bge	.L289
 3953              	.L281:
 348:lvgl/lvgl/src/core/lv_indev.c **** 
 3954              		.loc 1 348 131 is_stmt 1 discriminator 3 view .LVU1269
 351:lvgl/lvgl/src/core/lv_indev.c ****        (i->proc.types.pointer.last_point.x != data->point.x || i->proc.types.pointer.last_point.y !
 3955              		.loc 1 351 5 discriminator 3 view .LVU1270
ARM GAS  C:\Users\gx\AppData\Local\Temp\ccszQoK7.s 			page 111


 351:lvgl/lvgl/src/core/lv_indev.c ****        (i->proc.types.pointer.last_point.x != data->point.x || i->proc.types.pointer.last_point.y !
 3956              		.loc 1 351 9 is_stmt 0 discriminator 3 view .LVU1271
 3957 0098 E06C     		ldr	r0, [r4, #76]
 351:lvgl/lvgl/src/core/lv_indev.c ****        (i->proc.types.pointer.last_point.x != data->point.x || i->proc.types.pointer.last_point.y !
 3958              		.loc 1 351 7 discriminator 3 view .LVU1272
 3959 009a 18B1     		cbz	r0, .L282
 352:lvgl/lvgl/src/core/lv_indev.c ****         lv_obj_set_pos(i->cursor, data->point.x, data->point.y);
 3960              		.loc 1 352 61 discriminator 1 view .LVU1273
 3961 009c E268     		ldr	r2, [r4, #12]
 3962 009e 2B68     		ldr	r3, [r5]
 351:lvgl/lvgl/src/core/lv_indev.c ****        (i->proc.types.pointer.last_point.x != data->point.x || i->proc.types.pointer.last_point.y !
 3963              		.loc 1 351 26 discriminator 1 view .LVU1274
 3964 00a0 9A42     		cmp	r2, r3
 3965 00a2 43D1     		bne	.L290
 3966              	.L282:
 356:lvgl/lvgl/src/core/lv_indev.c ****     i->proc.types.pointer.act_point.y = data->point.y;
 3967              		.loc 1 356 5 is_stmt 1 view .LVU1275
 356:lvgl/lvgl/src/core/lv_indev.c ****     i->proc.types.pointer.act_point.y = data->point.y;
 3968              		.loc 1 356 52 is_stmt 0 view .LVU1276
 3969 00a4 B5F90030 		ldrsh	r3, [r5]
 356:lvgl/lvgl/src/core/lv_indev.c ****     i->proc.types.pointer.act_point.y = data->point.y;
 3970              		.loc 1 356 39 view .LVU1277
 3971 00a8 2381     		strh	r3, [r4, #8]	@ movhi
 357:lvgl/lvgl/src/core/lv_indev.c **** 
 3972              		.loc 1 357 5 is_stmt 1 view .LVU1278
 357:lvgl/lvgl/src/core/lv_indev.c **** 
 3973              		.loc 1 357 52 is_stmt 0 view .LVU1279
 3974 00aa B5F90230 		ldrsh	r3, [r5, #2]
 357:lvgl/lvgl/src/core/lv_indev.c **** 
 3975              		.loc 1 357 39 view .LVU1280
 3976 00ae 6381     		strh	r3, [r4, #10]	@ movhi
 359:lvgl/lvgl/src/core/lv_indev.c ****         indev_proc_press(&i->proc);
 3977              		.loc 1 359 5 is_stmt 1 view .LVU1281
 359:lvgl/lvgl/src/core/lv_indev.c ****         indev_proc_press(&i->proc);
 3978              		.loc 1 359 15 is_stmt 0 view .LVU1282
 3979 00b0 2379     		ldrb	r3, [r4, #4]	@ zero_extendqisi2
 359:lvgl/lvgl/src/core/lv_indev.c ****         indev_proc_press(&i->proc);
 3980              		.loc 1 359 7 view .LVU1283
 3981 00b2 012B     		cmp	r3, #1
 3982 00b4 41D0     		beq	.L291
 363:lvgl/lvgl/src/core/lv_indev.c ****     }
 3983              		.loc 1 363 9 is_stmt 1 view .LVU1284
 3984 00b6 201D     		adds	r0, r4, #4
 3985 00b8 FFF7FEFF 		bl	indev_proc_release
 3986              	.LVL332:
 3987              	.L284:
 366:lvgl/lvgl/src/core/lv_indev.c ****     i->proc.types.pointer.last_point.y = i->proc.types.pointer.act_point.y;
 3988              		.loc 1 366 5 view .LVU1285
 366:lvgl/lvgl/src/core/lv_indev.c ****     i->proc.types.pointer.last_point.y = i->proc.types.pointer.act_point.y;
 3989              		.loc 1 366 73 is_stmt 0 view .LVU1286
 3990 00bc B4F90830 		ldrsh	r3, [r4, #8]
 366:lvgl/lvgl/src/core/lv_indev.c ****     i->proc.types.pointer.last_point.y = i->proc.types.pointer.act_point.y;
 3991              		.loc 1 366 40 view .LVU1287
 3992 00c0 A381     		strh	r3, [r4, #12]	@ movhi
 367:lvgl/lvgl/src/core/lv_indev.c **** }
 3993              		.loc 1 367 5 is_stmt 1 view .LVU1288
 367:lvgl/lvgl/src/core/lv_indev.c **** }
ARM GAS  C:\Users\gx\AppData\Local\Temp\ccszQoK7.s 			page 112


 3994              		.loc 1 367 73 is_stmt 0 view .LVU1289
 3995 00c2 B4F90A30 		ldrsh	r3, [r4, #10]
 367:lvgl/lvgl/src/core/lv_indev.c **** }
 3996              		.loc 1 367 40 view .LVU1290
 3997 00c6 E381     		strh	r3, [r4, #14]	@ movhi
 368:lvgl/lvgl/src/core/lv_indev.c **** 
 3998              		.loc 1 368 1 view .LVU1291
 3999 00c8 02B0     		add	sp, sp, #8
 4000              	.LCFI16:
 4001              		.cfi_remember_state
 4002              		.cfi_def_cfa_offset 16
 4003              		@ sp needed
 4004 00ca 70BD     		pop	{r4, r5, r6, pc}
 4005              	.LVL333:
 4006              	.L286:
 4007              	.LCFI17:
 4008              		.cfi_restore_state
 345:lvgl/lvgl/src/core/lv_indev.c ****     if(data->point.x >= lv_disp_get_hor_res(i->driver->disp)) LV_LOG_WARN("X is %d which is greater
 4009              		.loc 1 345 27 is_stmt 1 discriminator 1 view .LVU1292
 4010 00cc 0193     		str	r3, [sp, #4]
 4011 00ce 1D4B     		ldr	r3, .L292
 4012 00d0 0093     		str	r3, [sp]
 4013 00d2 1D4B     		ldr	r3, .L292+4
 4014 00d4 40F25912 		movw	r2, #345
 4015 00d8 1C49     		ldr	r1, .L292+8
 4016              	.LVL334:
 345:lvgl/lvgl/src/core/lv_indev.c ****     if(data->point.x >= lv_disp_get_hor_res(i->driver->disp)) LV_LOG_WARN("X is %d which is greater
 4017              		.loc 1 345 27 is_stmt 0 discriminator 1 view .LVU1293
 4018 00da 0220     		movs	r0, #2
 4019 00dc FFF7FEFF 		bl	_lv_log_add
 4020              	.LVL335:
 4021 00e0 C6E7     		b	.L278
 4022              	.L287:
 346:lvgl/lvgl/src/core/lv_indev.c ****     if(data->point.y < 0) LV_LOG_WARN("Y is %d which is smaller than zero", data->point.y);
 4023              		.loc 1 346 63 is_stmt 1 discriminator 1 view .LVU1294
 4024 00e2 B5F90030 		ldrsh	r3, [r5]
 4025 00e6 0193     		str	r3, [sp, #4]
 4026 00e8 194B     		ldr	r3, .L292+12
 4027 00ea 0093     		str	r3, [sp]
 4028 00ec 164B     		ldr	r3, .L292+4
 4029 00ee 4FF4AD72 		mov	r2, #346
 4030 00f2 1649     		ldr	r1, .L292+8
 4031 00f4 0220     		movs	r0, #2
 4032 00f6 FFF7FEFF 		bl	_lv_log_add
 4033              	.LVL336:
 4034 00fa C1E7     		b	.L279
 4035              	.L288:
 347:lvgl/lvgl/src/core/lv_indev.c ****     if(data->point.y >= lv_disp_get_ver_res(i->driver->disp)) LV_LOG_WARN("Y is %d which is greater
 4036              		.loc 1 347 27 discriminator 1 view .LVU1295
 4037 00fc 0193     		str	r3, [sp, #4]
 4038 00fe 154B     		ldr	r3, .L292+16
 4039 0100 0093     		str	r3, [sp]
 4040 0102 114B     		ldr	r3, .L292+4
 4041 0104 40F25B12 		movw	r2, #347
 4042 0108 1049     		ldr	r1, .L292+8
 4043 010a 0220     		movs	r0, #2
 4044 010c FFF7FEFF 		bl	_lv_log_add
ARM GAS  C:\Users\gx\AppData\Local\Temp\ccszQoK7.s 			page 113


 4045              	.LVL337:
 4046 0110 BAE7     		b	.L280
 4047              	.L289:
 348:lvgl/lvgl/src/core/lv_indev.c **** 
 4048              		.loc 1 348 63 discriminator 1 view .LVU1296
 4049 0112 B5F90230 		ldrsh	r3, [r5, #2]
 4050 0116 0193     		str	r3, [sp, #4]
 4051 0118 0F4B     		ldr	r3, .L292+20
 4052 011a 0093     		str	r3, [sp]
 4053 011c 0A4B     		ldr	r3, .L292+4
 4054 011e 4FF4AE72 		mov	r2, #348
 4055 0122 0A49     		ldr	r1, .L292+8
 4056 0124 0220     		movs	r0, #2
 4057 0126 FFF7FEFF 		bl	_lv_log_add
 4058              	.LVL338:
 4059 012a B5E7     		b	.L281
 4060              	.L290:
 353:lvgl/lvgl/src/core/lv_indev.c ****     }
 4061              		.loc 1 353 9 view .LVU1297
 4062 012c B5F90220 		ldrsh	r2, [r5, #2]
 4063 0130 B5F90010 		ldrsh	r1, [r5]
 4064 0134 FFF7FEFF 		bl	lv_obj_set_pos
 4065              	.LVL339:
 4066 0138 B4E7     		b	.L282
 4067              	.L291:
 360:lvgl/lvgl/src/core/lv_indev.c ****     }
 4068              		.loc 1 360 9 view .LVU1298
 4069 013a 201D     		adds	r0, r4, #4
 4070 013c FFF7FEFF 		bl	indev_proc_press
 4071              	.LVL340:
 4072 0140 BCE7     		b	.L284
 4073              	.L293:
 4074 0142 00BF     		.align	2
 4075              	.L292:
 4076 0144 00000000 		.word	.LC2
 4077 0148 00000000 		.word	.LANCHOR3
 4078 014c 00000000 		.word	.LC0
 4079 0150 24000000 		.word	.LC3
 4080 0154 4C000000 		.word	.LC4
 4081 0158 70000000 		.word	.LC5
 4082              		.cfi_endproc
 4083              	.LFE177:
 4085              		.section	.rodata.indev_button_proc.str1.4,"aMS",%progbits,1
 4086              		.align	2
 4087              	.LC6:
 4088 0000 62746E5F 		.ascii	"btn_points is NULL\000"
 4088      706F696E 
 4088      74732069 
 4088      73204E55 
 4088      4C4C00
 4089              		.section	.text.indev_button_proc,"ax",%progbits
 4090              		.align	1
 4091              		.syntax unified
 4092              		.thumb
 4093              		.thumb_func
 4094              		.fpu fpv4-sp-d16
 4096              	indev_button_proc:
ARM GAS  C:\Users\gx\AppData\Local\Temp\ccszQoK7.s 			page 114


 4097              	.LVL341:
 4098              	.LFB180:
 726:lvgl/lvgl/src/core/lv_indev.c ****     /*Die gracefully if i->btn_points is NULL*/
 4099              		.loc 1 726 1 view -0
 4100              		.cfi_startproc
 4101              		@ args = 0, pretend = 0, frame = 0
 4102              		@ frame_needed = 0, uses_anonymous_args = 0
 726:lvgl/lvgl/src/core/lv_indev.c ****     /*Die gracefully if i->btn_points is NULL*/
 4103              		.loc 1 726 1 is_stmt 0 view .LVU1300
 4104 0000 2DE9F041 		push	{r4, r5, r6, r7, r8, lr}
 4105              	.LCFI18:
 4106              		.cfi_def_cfa_offset 24
 4107              		.cfi_offset 4, -24
 4108              		.cfi_offset 5, -20
 4109              		.cfi_offset 6, -16
 4110              		.cfi_offset 7, -12
 4111              		.cfi_offset 8, -8
 4112              		.cfi_offset 14, -4
 4113 0004 82B0     		sub	sp, sp, #8
 4114              	.LCFI19:
 4115              		.cfi_def_cfa_offset 32
 728:lvgl/lvgl/src/core/lv_indev.c ****         LV_LOG_WARN("btn_points is NULL");
 4116              		.loc 1 728 5 is_stmt 1 view .LVU1301
 728:lvgl/lvgl/src/core/lv_indev.c ****         LV_LOG_WARN("btn_points is NULL");
 4117              		.loc 1 728 9 is_stmt 0 view .LVU1302
 4118 0006 436D     		ldr	r3, [r0, #84]
 728:lvgl/lvgl/src/core/lv_indev.c ****         LV_LOG_WARN("btn_points is NULL");
 4119              		.loc 1 728 7 view .LVU1303
 4120 0008 33B3     		cbz	r3, .L302
 4121 000a 0446     		mov	r4, r0
 4122 000c 0D46     		mov	r5, r1
 733:lvgl/lvgl/src/core/lv_indev.c ****     lv_coord_t y = i->btn_points[data->btn_id].y;
 4123              		.loc 1 733 5 is_stmt 1 view .LVU1304
 733:lvgl/lvgl/src/core/lv_indev.c ****     lv_coord_t y = i->btn_points[data->btn_id].y;
 4124              		.loc 1 733 38 is_stmt 0 view .LVU1305
 4125 000e 8A68     		ldr	r2, [r1, #8]
 733:lvgl/lvgl/src/core/lv_indev.c ****     lv_coord_t y = i->btn_points[data->btn_id].y;
 4126              		.loc 1 733 33 view .LVU1306
 4127 0010 03EB8201 		add	r1, r3, r2, lsl #2
 4128              	.LVL342:
 733:lvgl/lvgl/src/core/lv_indev.c ****     lv_coord_t y = i->btn_points[data->btn_id].y;
 4129              		.loc 1 733 16 view .LVU1307
 4130 0014 33F92270 		ldrsh	r7, [r3, r2, lsl #2]
 4131              	.LVL343:
 734:lvgl/lvgl/src/core/lv_indev.c **** 
 4132              		.loc 1 734 5 is_stmt 1 view .LVU1308
 734:lvgl/lvgl/src/core/lv_indev.c **** 
 4133              		.loc 1 734 16 is_stmt 0 view .LVU1309
 4134 0018 B1F90280 		ldrsh	r8, [r1, #2]
 4135              	.LVL344:
 736:lvgl/lvgl/src/core/lv_indev.c ****     if(prev_state != data->state) {
 4136              		.loc 1 736 5 is_stmt 1 view .LVU1310
 737:lvgl/lvgl/src/core/lv_indev.c ****         if(data->state == LV_INDEV_STATE_PRESSED) {
 4137              		.loc 1 737 5 view .LVU1311
 737:lvgl/lvgl/src/core/lv_indev.c ****         if(data->state == LV_INDEV_STATE_PRESSED) {
 4138              		.loc 1 737 26 is_stmt 0 view .LVU1312
 4139 001c AB7B     		ldrb	r3, [r5, #14]	@ zero_extendqisi2
ARM GAS  C:\Users\gx\AppData\Local\Temp\ccszQoK7.s 			page 115


 742:lvgl/lvgl/src/core/lv_indev.c ****         }
 4140              		.loc 1 742 13 is_stmt 1 view .LVU1313
 742:lvgl/lvgl/src/core/lv_indev.c ****         }
 4141              		.loc 1 742 13 view .LVU1314
 742:lvgl/lvgl/src/core/lv_indev.c ****         }
 4142              		.loc 1 742 13 view .LVU1315
 742:lvgl/lvgl/src/core/lv_indev.c ****         }
 4143              		.loc 1 742 81 view .LVU1316
 747:lvgl/lvgl/src/core/lv_indev.c ****         if(i->proc.types.pointer.last_point.x != x ||
 4144              		.loc 1 747 5 view .LVU1317
 747:lvgl/lvgl/src/core/lv_indev.c ****         if(i->proc.types.pointer.last_point.x != x ||
 4145              		.loc 1 747 7 is_stmt 0 view .LVU1318
 4146 001e 012B     		cmp	r3, #1
 4147 0020 24D0     		beq	.L303
 4148              	.LVL345:
 4149              	.L297:
 754:lvgl/lvgl/src/core/lv_indev.c **** 
 4150              		.loc 1 754 5 is_stmt 1 view .LVU1319
 754:lvgl/lvgl/src/core/lv_indev.c **** 
 4151              		.loc 1 754 8 is_stmt 0 view .LVU1320
 4152 0022 261D     		adds	r6, r4, #4
 4153 0024 3046     		mov	r0, r6
 4154 0026 FFF7FEFF 		bl	indev_reset_check
 4155              	.LVL346:
 754:lvgl/lvgl/src/core/lv_indev.c **** 
 4156              		.loc 1 754 7 view .LVU1321
 4157 002a 90B9     		cbnz	r0, .L294
 757:lvgl/lvgl/src/core/lv_indev.c ****     i->proc.types.pointer.act_point.y = y;
 4158              		.loc 1 757 5 is_stmt 1 view .LVU1322
 757:lvgl/lvgl/src/core/lv_indev.c ****     i->proc.types.pointer.act_point.y = y;
 4159              		.loc 1 757 39 is_stmt 0 view .LVU1323
 4160 002c 2781     		strh	r7, [r4, #8]	@ movhi
 758:lvgl/lvgl/src/core/lv_indev.c **** 
 4161              		.loc 1 758 5 is_stmt 1 view .LVU1324
 758:lvgl/lvgl/src/core/lv_indev.c **** 
 4162              		.loc 1 758 39 is_stmt 0 view .LVU1325
 4163 002e A4F80A80 		strh	r8, [r4, #10]	@ movhi
 760:lvgl/lvgl/src/core/lv_indev.c ****     else indev_proc_release(&i->proc);
 4164              		.loc 1 760 5 is_stmt 1 view .LVU1326
 760:lvgl/lvgl/src/core/lv_indev.c ****     else indev_proc_release(&i->proc);
 4165              		.loc 1 760 12 is_stmt 0 view .LVU1327
 4166 0032 AB7B     		ldrb	r3, [r5, #14]	@ zero_extendqisi2
 760:lvgl/lvgl/src/core/lv_indev.c ****     else indev_proc_release(&i->proc);
 4167              		.loc 1 760 7 view .LVU1328
 4168 0034 012B     		cmp	r3, #1
 4169 0036 25D0     		beq	.L304
 761:lvgl/lvgl/src/core/lv_indev.c **** 
 4170              		.loc 1 761 10 is_stmt 1 view .LVU1329
 4171 0038 3046     		mov	r0, r6
 4172 003a FFF7FEFF 		bl	indev_proc_release
 4173              	.LVL347:
 4174              	.L300:
 763:lvgl/lvgl/src/core/lv_indev.c **** 
 4175              		.loc 1 763 5 view .LVU1330
 763:lvgl/lvgl/src/core/lv_indev.c **** 
 4176              		.loc 1 763 8 is_stmt 0 view .LVU1331
 4177 003e 3046     		mov	r0, r6
ARM GAS  C:\Users\gx\AppData\Local\Temp\ccszQoK7.s 			page 116


 4178 0040 FFF7FEFF 		bl	indev_reset_check
 4179              	.LVL348:
 763:lvgl/lvgl/src/core/lv_indev.c **** 
 4180              		.loc 1 763 7 view .LVU1332
 4181 0044 28B9     		cbnz	r0, .L294
 765:lvgl/lvgl/src/core/lv_indev.c ****     i->proc.types.pointer.last_point.y = i->proc.types.pointer.act_point.y;
 4182              		.loc 1 765 5 is_stmt 1 view .LVU1333
 765:lvgl/lvgl/src/core/lv_indev.c ****     i->proc.types.pointer.last_point.y = i->proc.types.pointer.act_point.y;
 4183              		.loc 1 765 73 is_stmt 0 view .LVU1334
 4184 0046 B4F90830 		ldrsh	r3, [r4, #8]
 765:lvgl/lvgl/src/core/lv_indev.c ****     i->proc.types.pointer.last_point.y = i->proc.types.pointer.act_point.y;
 4185              		.loc 1 765 40 view .LVU1335
 4186 004a A381     		strh	r3, [r4, #12]	@ movhi
 766:lvgl/lvgl/src/core/lv_indev.c **** }
 4187              		.loc 1 766 5 is_stmt 1 view .LVU1336
 766:lvgl/lvgl/src/core/lv_indev.c **** }
 4188              		.loc 1 766 73 is_stmt 0 view .LVU1337
 4189 004c B4F90A30 		ldrsh	r3, [r4, #10]
 766:lvgl/lvgl/src/core/lv_indev.c **** }
 4190              		.loc 1 766 40 view .LVU1338
 4191 0050 E381     		strh	r3, [r4, #14]	@ movhi
 4192              	.LVL349:
 4193              	.L294:
 767:lvgl/lvgl/src/core/lv_indev.c **** 
 4194              		.loc 1 767 1 view .LVU1339
 4195 0052 02B0     		add	sp, sp, #8
 4196              	.LCFI20:
 4197              		.cfi_remember_state
 4198              		.cfi_def_cfa_offset 24
 4199              		@ sp needed
 4200 0054 BDE8F081 		pop	{r4, r5, r6, r7, r8, pc}
 4201              	.LVL350:
 4202              	.L302:
 4203              	.LCFI21:
 4204              		.cfi_restore_state
 729:lvgl/lvgl/src/core/lv_indev.c ****         return;
 4205              		.loc 1 729 9 is_stmt 1 view .LVU1340
 4206 0058 0C4B     		ldr	r3, .L305
 4207 005a 0093     		str	r3, [sp]
 4208 005c 0C4B     		ldr	r3, .L305+4
 4209 005e 40F2D922 		movw	r2, #729
 4210 0062 0C49     		ldr	r1, .L305+8
 4211              	.LVL351:
 729:lvgl/lvgl/src/core/lv_indev.c ****         return;
 4212              		.loc 1 729 9 is_stmt 0 view .LVU1341
 4213 0064 0220     		movs	r0, #2
 4214              	.LVL352:
 729:lvgl/lvgl/src/core/lv_indev.c ****         return;
 4215              		.loc 1 729 9 view .LVU1342
 4216 0066 FFF7FEFF 		bl	_lv_log_add
 4217              	.LVL353:
 729:lvgl/lvgl/src/core/lv_indev.c ****         return;
 4218              		.loc 1 729 42 is_stmt 1 view .LVU1343
 730:lvgl/lvgl/src/core/lv_indev.c ****     }
 4219              		.loc 1 730 9 view .LVU1344
 4220 006a F2E7     		b	.L294
 4221              	.LVL354:
ARM GAS  C:\Users\gx\AppData\Local\Temp\ccszQoK7.s 			page 117


 4222              	.L303:
 748:lvgl/lvgl/src/core/lv_indev.c ****            i->proc.types.pointer.last_point.y != y) {
 4223              		.loc 1 748 9 view .LVU1345
 748:lvgl/lvgl/src/core/lv_indev.c ****            i->proc.types.pointer.last_point.y != y) {
 4224              		.loc 1 748 44 is_stmt 0 view .LVU1346
 4225 006c B0F90C30 		ldrsh	r3, [r0, #12]
 748:lvgl/lvgl/src/core/lv_indev.c ****            i->proc.types.pointer.last_point.y != y) {
 4226              		.loc 1 748 11 view .LVU1347
 4227 0070 BB42     		cmp	r3, r7
 4228 0072 03D1     		bne	.L298
 749:lvgl/lvgl/src/core/lv_indev.c ****             indev_proc_release(&i->proc);
 4229              		.loc 1 749 44 discriminator 1 view .LVU1348
 4230 0074 B0F90E30 		ldrsh	r3, [r0, #14]
 748:lvgl/lvgl/src/core/lv_indev.c ****            i->proc.types.pointer.last_point.y != y) {
 4231              		.loc 1 748 52 discriminator 1 view .LVU1349
 4232 0078 4345     		cmp	r3, r8
 4233 007a D2D0     		beq	.L297
 4234              	.L298:
 750:lvgl/lvgl/src/core/lv_indev.c ****         }
 4235              		.loc 1 750 13 is_stmt 1 view .LVU1350
 4236 007c 201D     		adds	r0, r4, #4
 4237              	.LVL355:
 750:lvgl/lvgl/src/core/lv_indev.c ****         }
 4238              		.loc 1 750 13 is_stmt 0 view .LVU1351
 4239 007e FFF7FEFF 		bl	indev_proc_release
 4240              	.LVL356:
 4241 0082 CEE7     		b	.L297
 4242              	.L304:
 760:lvgl/lvgl/src/core/lv_indev.c ****     else indev_proc_release(&i->proc);
 4243              		.loc 1 760 47 is_stmt 1 discriminator 1 view .LVU1352
 4244 0084 3046     		mov	r0, r6
 4245 0086 FFF7FEFF 		bl	indev_proc_press
 4246              	.LVL357:
 4247 008a D8E7     		b	.L300
 4248              	.L306:
 4249              		.align	2
 4250              	.L305:
 4251 008c 00000000 		.word	.LC6
 4252 0090 00000000 		.word	.LANCHOR4
 4253 0094 00000000 		.word	.LC0
 4254              		.cfi_endproc
 4255              	.LFE180:
 4257              		.section	.text.lv_indev_read_timer_cb,"ax",%progbits
 4258              		.align	1
 4259              		.global	lv_indev_read_timer_cb
 4260              		.syntax unified
 4261              		.thumb
 4262              		.thumb_func
 4263              		.fpu fpv4-sp-d16
 4265              	lv_indev_read_timer_cb:
 4266              	.LVL358:
 4267              	.LFB158:
  65:lvgl/lvgl/src/core/lv_indev.c ****     INDEV_TRACE("begin");
 4268              		.loc 1 65 1 view -0
 4269              		.cfi_startproc
 4270              		@ args = 0, pretend = 0, frame = 16
 4271              		@ frame_needed = 0, uses_anonymous_args = 0
ARM GAS  C:\Users\gx\AppData\Local\Temp\ccszQoK7.s 			page 118


  66:lvgl/lvgl/src/core/lv_indev.c **** 
 4272              		.loc 1 66 5 view .LVU1354
  66:lvgl/lvgl/src/core/lv_indev.c **** 
 4273              		.loc 1 66 5 view .LVU1355
  66:lvgl/lvgl/src/core/lv_indev.c **** 
 4274              		.loc 1 66 5 view .LVU1356
  66:lvgl/lvgl/src/core/lv_indev.c **** 
 4275              		.loc 1 66 25 view .LVU1357
  68:lvgl/lvgl/src/core/lv_indev.c **** 
 4276              		.loc 1 68 5 view .LVU1358
  70:lvgl/lvgl/src/core/lv_indev.c **** 
 4277              		.loc 1 70 5 view .LVU1359
  70:lvgl/lvgl/src/core/lv_indev.c **** 
 4278              		.loc 1 70 22 is_stmt 0 view .LVU1360
 4279 0000 C068     		ldr	r0, [r0, #12]
 4280              	.LVL359:
  70:lvgl/lvgl/src/core/lv_indev.c **** 
 4281              		.loc 1 70 15 view .LVU1361
 4282 0002 304B     		ldr	r3, .L327
 4283 0004 1860     		str	r0, [r3]
  73:lvgl/lvgl/src/core/lv_indev.c **** 
 4284              		.loc 1 73 5 is_stmt 1 view .LVU1362
  73:lvgl/lvgl/src/core/lv_indev.c **** 
 4285              		.loc 1 73 17 is_stmt 0 view .LVU1363
 4286 0006 0368     		ldr	r3, [r0]
  73:lvgl/lvgl/src/core/lv_indev.c **** 
 4287              		.loc 1 73 25 view .LVU1364
 4288 0008 1B69     		ldr	r3, [r3, #16]
  73:lvgl/lvgl/src/core/lv_indev.c **** 
 4289              		.loc 1 73 7 view .LVU1365
 4290 000a 002B     		cmp	r3, #0
 4291 000c 58D0     		beq	.L318
  65:lvgl/lvgl/src/core/lv_indev.c ****     INDEV_TRACE("begin");
 4292              		.loc 1 65 1 view .LVU1366
 4293 000e 30B5     		push	{r4, r5, lr}
 4294              	.LCFI22:
 4295              		.cfi_def_cfa_offset 12
 4296              		.cfi_offset 4, -12
 4297              		.cfi_offset 5, -8
 4298              		.cfi_offset 14, -4
 4299 0010 85B0     		sub	sp, sp, #20
 4300              	.LCFI23:
 4301              		.cfi_def_cfa_offset 32
  76:lvgl/lvgl/src/core/lv_indev.c **** 
 4302              		.loc 1 76 5 is_stmt 1 view .LVU1367
 4303 0012 FFF7FEFF 		bl	indev_proc_reset_query_handler
 4304              	.LVL360:
  78:lvgl/lvgl/src/core/lv_indev.c ****     bool continue_reading;
 4305              		.loc 1 78 5 view .LVU1368
  78:lvgl/lvgl/src/core/lv_indev.c ****     bool continue_reading;
 4306              		.loc 1 78 17 is_stmt 0 view .LVU1369
 4307 0016 2B4B     		ldr	r3, .L327
 4308 0018 1B68     		ldr	r3, [r3]
  78:lvgl/lvgl/src/core/lv_indev.c ****     bool continue_reading;
 4309              		.loc 1 78 8 view .LVU1370
 4310 001a 5B79     		ldrb	r3, [r3, #5]	@ zero_extendqisi2
  78:lvgl/lvgl/src/core/lv_indev.c ****     bool continue_reading;
ARM GAS  C:\Users\gx\AppData\Local\Temp\ccszQoK7.s 			page 119


 4311              		.loc 1 78 7 view .LVU1371
 4312 001c 13F0040F 		tst	r3, #4
 4313 0020 18D0     		beq	.L315
 4314 0022 4BE0     		b	.L307
 4315              	.LVL361:
 4316              	.L322:
  93:lvgl/lvgl/src/core/lv_indev.c ****         }
 4317              		.loc 1 93 13 is_stmt 1 view .LVU1372
  93:lvgl/lvgl/src/core/lv_indev.c ****         }
 4318              		.loc 1 93 22 is_stmt 0 view .LVU1373
 4319 0024 1368     		ldr	r3, [r2]
  93:lvgl/lvgl/src/core/lv_indev.c ****         }
 4320              		.loc 1 93 30 view .LVU1374
 4321 0026 1C69     		ldr	r4, [r3, #16]
  93:lvgl/lvgl/src/core/lv_indev.c ****         }
 4322              		.loc 1 93 59 view .LVU1375
 4323 0028 FFF7FEFF 		bl	lv_tick_get
 4324              	.LVL362:
  93:lvgl/lvgl/src/core/lv_indev.c ****         }
 4325              		.loc 1 93 57 view .LVU1376
 4326 002c C4F85401 		str	r0, [r4, #340]
 4327 0030 27E0     		b	.L310
 4328              	.L323:
  95:lvgl/lvgl/src/core/lv_indev.c ****             indev_act->driver->disp->last_activity_time = lv_tick_get();
 4329              		.loc 1 95 73 discriminator 1 view .LVU1377
 4330 0032 BDF90C20 		ldrsh	r2, [sp, #12]
  95:lvgl/lvgl/src/core/lv_indev.c ****             indev_act->driver->disp->last_activity_time = lv_tick_get();
 4331              		.loc 1 95 66 discriminator 1 view .LVU1378
 4332 0036 22B3     		cbz	r2, .L310
  96:lvgl/lvgl/src/core/lv_indev.c ****         }
 4333              		.loc 1 96 13 is_stmt 1 view .LVU1379
  96:lvgl/lvgl/src/core/lv_indev.c ****         }
 4334              		.loc 1 96 30 is_stmt 0 view .LVU1380
 4335 0038 1C69     		ldr	r4, [r3, #16]
  96:lvgl/lvgl/src/core/lv_indev.c ****         }
 4336              		.loc 1 96 59 view .LVU1381
 4337 003a FFF7FEFF 		bl	lv_tick_get
 4338              	.LVL363:
  96:lvgl/lvgl/src/core/lv_indev.c ****         }
 4339              		.loc 1 96 57 view .LVU1382
 4340 003e C4F85401 		str	r0, [r4, #340]
 4341 0042 1EE0     		b	.L310
 4342              	.L324:
 100:lvgl/lvgl/src/core/lv_indev.c ****         }
 4343              		.loc 1 100 13 is_stmt 1 view .LVU1383
 4344 0044 6946     		mov	r1, sp
 4345 0046 FFF7FEFF 		bl	indev_pointer_proc
 4346              	.LVL364:
 4347              	.L312:
 112:lvgl/lvgl/src/core/lv_indev.c ****     } while(continue_reading);
 4348              		.loc 1 112 9 view .LVU1384
 4349 004a 1E4B     		ldr	r3, .L327
 4350 004c 1868     		ldr	r0, [r3]
 4351 004e FFF7FEFF 		bl	indev_proc_reset_query_handler
 4352              	.LVL365:
 113:lvgl/lvgl/src/core/lv_indev.c **** 
 4353              		.loc 1 113 12 view .LVU1385
ARM GAS  C:\Users\gx\AppData\Local\Temp\ccszQoK7.s 			page 120


 113:lvgl/lvgl/src/core/lv_indev.c **** 
 4354              		.loc 1 113 5 is_stmt 0 view .LVU1386
 4355 0052 75B3     		cbz	r5, .L321
 4356              	.LVL366:
 4357              	.L315:
  79:lvgl/lvgl/src/core/lv_indev.c ****     do {
 4358              		.loc 1 79 5 is_stmt 1 view .LVU1387
  80:lvgl/lvgl/src/core/lv_indev.c ****         /*Read the data*/
 4359              		.loc 1 80 5 view .LVU1388
  82:lvgl/lvgl/src/core/lv_indev.c ****         continue_reading = data.continue_reading;
 4360              		.loc 1 82 9 view .LVU1389
 4361 0054 1B4C     		ldr	r4, .L327
 4362 0056 6946     		mov	r1, sp
 4363 0058 2068     		ldr	r0, [r4]
 4364 005a FFF7FEFF 		bl	_lv_indev_read
 4365              	.LVL367:
  83:lvgl/lvgl/src/core/lv_indev.c **** 
 4366              		.loc 1 83 9 view .LVU1390
  83:lvgl/lvgl/src/core/lv_indev.c **** 
 4367              		.loc 1 83 26 is_stmt 0 view .LVU1391
 4368 005e 9DF80F50 		ldrb	r5, [sp, #15]	@ zero_extendqisi2
 4369              	.LVL368:
  86:lvgl/lvgl/src/core/lv_indev.c ****         indev_obj_act = NULL;
 4370              		.loc 1 86 9 is_stmt 1 view .LVU1392
 4371 0062 2068     		ldr	r0, [r4]
 4372 0064 FFF7FEFF 		bl	indev_proc_reset_query_handler
 4373              	.LVL369:
  87:lvgl/lvgl/src/core/lv_indev.c **** 
 4374              		.loc 1 87 9 view .LVU1393
  87:lvgl/lvgl/src/core/lv_indev.c **** 
 4375              		.loc 1 87 23 is_stmt 0 view .LVU1394
 4376 0068 174B     		ldr	r3, .L327+4
 4377 006a 0022     		movs	r2, #0
 4378 006c 1A60     		str	r2, [r3]
  89:lvgl/lvgl/src/core/lv_indev.c **** 
 4379              		.loc 1 89 9 is_stmt 1 view .LVU1395
  89:lvgl/lvgl/src/core/lv_indev.c **** 
 4380              		.loc 1 89 18 is_stmt 0 view .LVU1396
 4381 006e 2268     		ldr	r2, [r4]
  89:lvgl/lvgl/src/core/lv_indev.c **** 
 4382              		.loc 1 89 37 view .LVU1397
 4383 0070 9DF80E30 		ldrb	r3, [sp, #14]	@ zero_extendqisi2
  89:lvgl/lvgl/src/core/lv_indev.c **** 
 4384              		.loc 1 89 31 view .LVU1398
 4385 0074 1371     		strb	r3, [r2, #4]
  92:lvgl/lvgl/src/core/lv_indev.c ****             indev_act->driver->disp->last_activity_time = lv_tick_get();
 4386              		.loc 1 92 9 is_stmt 1 view .LVU1399
  92:lvgl/lvgl/src/core/lv_indev.c ****             indev_act->driver->disp->last_activity_time = lv_tick_get();
 4387              		.loc 1 92 11 is_stmt 0 view .LVU1400
 4388 0076 012B     		cmp	r3, #1
 4389 0078 D4D0     		beq	.L322
  95:lvgl/lvgl/src/core/lv_indev.c ****             indev_act->driver->disp->last_activity_time = lv_tick_get();
 4390              		.loc 1 95 14 is_stmt 1 view .LVU1401
  95:lvgl/lvgl/src/core/lv_indev.c ****             indev_act->driver->disp->last_activity_time = lv_tick_get();
 4391              		.loc 1 95 26 is_stmt 0 view .LVU1402
 4392 007a 1368     		ldr	r3, [r2]
  95:lvgl/lvgl/src/core/lv_indev.c ****             indev_act->driver->disp->last_activity_time = lv_tick_get();
ARM GAS  C:\Users\gx\AppData\Local\Temp\ccszQoK7.s 			page 121


 4393              		.loc 1 95 34 view .LVU1403
 4394 007c 1A78     		ldrb	r2, [r3]	@ zero_extendqisi2
  95:lvgl/lvgl/src/core/lv_indev.c ****             indev_act->driver->disp->last_activity_time = lv_tick_get();
 4395              		.loc 1 95 16 view .LVU1404
 4396 007e 042A     		cmp	r2, #4
 4397 0080 D7D0     		beq	.L323
 4398              	.L310:
  99:lvgl/lvgl/src/core/lv_indev.c ****             indev_pointer_proc(indev_act, &data);
 4399              		.loc 1 99 9 is_stmt 1 view .LVU1405
  99:lvgl/lvgl/src/core/lv_indev.c ****             indev_pointer_proc(indev_act, &data);
 4400              		.loc 1 99 21 is_stmt 0 view .LVU1406
 4401 0082 104B     		ldr	r3, .L327
 4402 0084 1868     		ldr	r0, [r3]
 4403 0086 0368     		ldr	r3, [r0]
  99:lvgl/lvgl/src/core/lv_indev.c ****             indev_pointer_proc(indev_act, &data);
 4404              		.loc 1 99 29 view .LVU1407
 4405 0088 1B78     		ldrb	r3, [r3]	@ zero_extendqisi2
  99:lvgl/lvgl/src/core/lv_indev.c ****             indev_pointer_proc(indev_act, &data);
 4406              		.loc 1 99 11 view .LVU1408
 4407 008a 012B     		cmp	r3, #1
 4408 008c DAD0     		beq	.L324
 102:lvgl/lvgl/src/core/lv_indev.c ****             indev_keypad_proc(indev_act, &data);
 4409              		.loc 1 102 14 is_stmt 1 view .LVU1409
 102:lvgl/lvgl/src/core/lv_indev.c ****             indev_keypad_proc(indev_act, &data);
 4410              		.loc 1 102 16 is_stmt 0 view .LVU1410
 4411 008e 022B     		cmp	r3, #2
 4412 0090 07D0     		beq	.L325
 105:lvgl/lvgl/src/core/lv_indev.c ****             indev_encoder_proc(indev_act, &data);
 4413              		.loc 1 105 14 is_stmt 1 view .LVU1411
 105:lvgl/lvgl/src/core/lv_indev.c ****             indev_encoder_proc(indev_act, &data);
 4414              		.loc 1 105 16 is_stmt 0 view .LVU1412
 4415 0092 042B     		cmp	r3, #4
 4416 0094 09D0     		beq	.L326
 108:lvgl/lvgl/src/core/lv_indev.c ****             indev_button_proc(indev_act, &data);
 4417              		.loc 1 108 14 is_stmt 1 view .LVU1413
 108:lvgl/lvgl/src/core/lv_indev.c ****             indev_button_proc(indev_act, &data);
 4418              		.loc 1 108 16 is_stmt 0 view .LVU1414
 4419 0096 032B     		cmp	r3, #3
 4420 0098 D7D1     		bne	.L312
 109:lvgl/lvgl/src/core/lv_indev.c ****         }
 4421              		.loc 1 109 13 is_stmt 1 view .LVU1415
 4422 009a 6946     		mov	r1, sp
 4423 009c FFF7FEFF 		bl	indev_button_proc
 4424              	.LVL370:
 4425 00a0 D3E7     		b	.L312
 4426              	.L325:
 103:lvgl/lvgl/src/core/lv_indev.c ****         }
 4427              		.loc 1 103 13 view .LVU1416
 4428 00a2 6946     		mov	r1, sp
 4429 00a4 FFF7FEFF 		bl	indev_keypad_proc
 4430              	.LVL371:
 4431 00a8 CFE7     		b	.L312
 4432              	.L326:
 106:lvgl/lvgl/src/core/lv_indev.c ****         }
 4433              		.loc 1 106 13 view .LVU1417
 4434 00aa 6946     		mov	r1, sp
 4435 00ac FFF7FEFF 		bl	indev_encoder_proc
ARM GAS  C:\Users\gx\AppData\Local\Temp\ccszQoK7.s 			page 122


 4436              	.LVL372:
 4437 00b0 CBE7     		b	.L312
 4438              	.L321:
 116:lvgl/lvgl/src/core/lv_indev.c ****     indev_obj_act = NULL;
 4439              		.loc 1 116 5 view .LVU1418
 116:lvgl/lvgl/src/core/lv_indev.c ****     indev_obj_act = NULL;
 4440              		.loc 1 116 19 is_stmt 0 view .LVU1419
 4441 00b2 0023     		movs	r3, #0
 4442 00b4 034A     		ldr	r2, .L327
 4443 00b6 1360     		str	r3, [r2]
 117:lvgl/lvgl/src/core/lv_indev.c **** 
 4444              		.loc 1 117 5 is_stmt 1 view .LVU1420
 117:lvgl/lvgl/src/core/lv_indev.c **** 
 4445              		.loc 1 117 19 is_stmt 0 view .LVU1421
 4446 00b8 034A     		ldr	r2, .L327+4
 4447 00ba 1360     		str	r3, [r2]
 119:lvgl/lvgl/src/core/lv_indev.c **** }
 4448              		.loc 1 119 5 is_stmt 1 view .LVU1422
 119:lvgl/lvgl/src/core/lv_indev.c **** }
 4449              		.loc 1 119 5 view .LVU1423
 119:lvgl/lvgl/src/core/lv_indev.c **** }
 4450              		.loc 1 119 5 view .LVU1424
 119:lvgl/lvgl/src/core/lv_indev.c **** }
 4451              		.loc 1 119 28 view .LVU1425
 4452              	.LVL373:
 4453              	.L307:
 120:lvgl/lvgl/src/core/lv_indev.c **** 
 4454              		.loc 1 120 1 is_stmt 0 view .LVU1426
 4455 00bc 05B0     		add	sp, sp, #20
 4456              	.LCFI24:
 4457              		.cfi_def_cfa_offset 12
 4458              		@ sp needed
 4459 00be 30BD     		pop	{r4, r5, pc}
 4460              	.L318:
 4461              	.LCFI25:
 4462              		.cfi_def_cfa_offset 0
 4463              		.cfi_restore 4
 4464              		.cfi_restore 5
 4465              		.cfi_restore 14
 4466 00c0 7047     		bx	lr
 4467              	.L328:
 4468 00c2 00BF     		.align	2
 4469              	.L327:
 4470 00c4 00000000 		.word	.LANCHOR1
 4471 00c8 00000000 		.word	.LANCHOR0
 4472              		.cfi_endproc
 4473              	.LFE158:
 4475              		.section	.bss.indev_act,"aw",%nobits
 4476              		.align	2
 4477              		.set	.LANCHOR1,. + 0
 4480              	indev_act:
 4481 0000 00000000 		.space	4
 4482              		.section	.bss.indev_obj_act,"aw",%nobits
 4483              		.align	2
 4484              		.set	.LANCHOR0,. + 0
 4487              	indev_obj_act:
 4488 0000 00000000 		.space	4
ARM GAS  C:\Users\gx\AppData\Local\Temp\ccszQoK7.s 			page 123


 4489              		.section	.rodata.__func__.10149,"a"
 4490              		.align	2
 4491              		.set	.LANCHOR2,. + 0
 4494              	__func__.10149:
 4495 0000 6C765F69 		.ascii	"lv_indev_get_read_timer\000"
 4495      6E646576 
 4495      5F676574 
 4495      5F726561 
 4495      645F7469 
 4496              		.section	.rodata.__func__.10171,"a"
 4497              		.align	2
 4498              		.set	.LANCHOR3,. + 0
 4501              	__func__.10171:
 4502 0000 696E6465 		.ascii	"indev_pointer_proc\000"
 4502      765F706F 
 4502      696E7465 
 4502      725F7072 
 4502      6F6300
 4503              		.section	.rodata.__func__.10206,"a"
 4504              		.align	2
 4505              		.set	.LANCHOR4,. + 0
 4508              	__func__.10206:
 4509 0000 696E6465 		.ascii	"indev_button_proc\000"
 4509      765F6275 
 4509      74746F6E 
 4509      5F70726F 
 4509      6300
 4510              		.text
 4511              	.Letext0:
 4512              		.file 2 "c:\\program files (x86)\\gnu arm embedded toolchain\\9 2020-q2-update\\arm-none-eabi\\inc
 4513              		.file 3 "c:\\program files (x86)\\gnu arm embedded toolchain\\9 2020-q2-update\\arm-none-eabi\\inc
 4514              		.file 4 "c:\\program files (x86)\\gnu arm embedded toolchain\\9 2020-q2-update\\lib\\gcc\\arm-none
 4515              		.file 5 "c:\\program files (x86)\\gnu arm embedded toolchain\\9 2020-q2-update\\arm-none-eabi\\inc
 4516              		.file 6 "c:\\program files (x86)\\gnu arm embedded toolchain\\9 2020-q2-update\\arm-none-eabi\\inc
 4517              		.file 7 "c:\\program files (x86)\\gnu arm embedded toolchain\\9 2020-q2-update\\arm-none-eabi\\inc
 4518              		.file 8 "d:\\practise\\f407_disc\\lvgl\\lvgl\\src\\misc\\lv_area.h"
 4519              		.file 9 "lvgl/lvgl/src/core/../misc/../font/lv_font.h"
 4520              		.file 10 "lvgl/lvgl/src/core/../misc/lv_color.h"
 4521              		.file 11 "lvgl/lvgl/src/core/../misc/lv_txt.h"
 4522              		.file 12 "lvgl/lvgl/src/core/../misc/lv_style.h"
 4523              		.file 13 "lvgl/lvgl/src/core/../hal/../misc/lv_ll.h"
 4524              		.file 14 "lvgl/lvgl/src/core/../hal/../misc/lv_timer.h"
 4525              		.file 15 "lvgl/lvgl/src/core/../hal/lv_hal_disp.h"
 4526              		.file 16 "lvgl/lvgl/src/core/lv_theme.h"
 4527              		.file 17 "lvgl/lvgl/src/core/lv_obj.h"
 4528              		.file 18 "lvgl/lvgl/src/core/../hal/lv_hal_indev.h"
 4529              		.file 19 "lvgl/lvgl/src/core/lv_group.h"
 4530              		.file 20 "lvgl/lvgl/src/core/lv_obj_scroll.h"
 4531              		.file 21 "lvgl/lvgl/src/core/lv_obj_style.h"
 4532              		.file 22 "lvgl/lvgl/src/core/../draw/lv_draw_label.h"
 4533              		.file 23 "lvgl/lvgl/src/core/lv_obj_class.h"
 4534              		.file 24 "lvgl/lvgl/src/core/lv_event.h"
 4535              		.file 25 "lvgl/lvgl/src/core/lv_obj_tree.h"
 4536              		.file 26 "lvgl/lvgl/src/core/lv_indev_scroll.h"
 4537              		.file 27 "lvgl/lvgl/src/core/../hal/lv_hal_tick.h"
 4538              		.file 28 "lvgl/lvgl/src/core/lv_disp.h"
 4539              		.file 29 "lvgl/lvgl/src/core/../hal/../misc/lv_log.h"
ARM GAS  C:\Users\gx\AppData\Local\Temp\ccszQoK7.s 			page 124


 4540              		.file 30 "lvgl/lvgl/src/core/lv_obj_pos.h"
ARM GAS  C:\Users\gx\AppData\Local\Temp\ccszQoK7.s 			page 125


DEFINED SYMBOLS
                            *ABS*:00000000 lv_indev.c
C:\Users\gx\AppData\Local\Temp\ccszQoK7.s:18     .text.indev_proc_reset_query_handler:00000000 $t
C:\Users\gx\AppData\Local\Temp\ccszQoK7.s:25     .text.indev_proc_reset_query_handler:00000000 indev_proc_reset_query_handler
C:\Users\gx\AppData\Local\Temp\ccszQoK7.s:97     .text.indev_proc_reset_query_handler:00000040 $d
C:\Users\gx\AppData\Local\Temp\ccszQoK7.s:102    .text.indev_reset_check:00000000 $t
C:\Users\gx\AppData\Local\Temp\ccszQoK7.s:108    .text.indev_reset_check:00000000 indev_reset_check
C:\Users\gx\AppData\Local\Temp\ccszQoK7.s:136    .text.indev_reset_check:00000014 $d
C:\Users\gx\AppData\Local\Temp\ccszQoK7.s:141    .text.indev_proc_release:00000000 $t
C:\Users\gx\AppData\Local\Temp\ccszQoK7.s:147    .text.indev_proc_release:00000000 indev_proc_release
C:\Users\gx\AppData\Local\Temp\ccszQoK7.s:294    .text.indev_proc_release:00000090 $d
C:\Users\gx\AppData\Local\Temp\ccszQoK7.s:300    .text.indev_click_focus:00000000 $t
C:\Users\gx\AppData\Local\Temp\ccszQoK7.s:306    .text.indev_click_focus:00000000 indev_click_focus
C:\Users\gx\AppData\Local\Temp\ccszQoK7.s:545    .text.indev_click_focus:000000f4 $d
C:\Users\gx\AppData\Local\Temp\ccszQoK7.s:552    .text.indev_gesture:00000000 $t
C:\Users\gx\AppData\Local\Temp\ccszQoK7.s:558    .text.indev_gesture:00000000 indev_gesture
C:\Users\gx\AppData\Local\Temp\ccszQoK7.s:758    .text.indev_gesture:00000108 $d
C:\Users\gx\AppData\Local\Temp\ccszQoK7.s:763    .text.indev_keypad_proc:00000000 $t
C:\Users\gx\AppData\Local\Temp\ccszQoK7.s:769    .text.indev_keypad_proc:00000000 indev_keypad_proc
C:\Users\gx\AppData\Local\Temp\ccszQoK7.s:1291   .text.indev_keypad_proc:0000025c $d
C:\Users\gx\AppData\Local\Temp\ccszQoK7.s:1297   .text.indev_encoder_proc:00000000 $t
C:\Users\gx\AppData\Local\Temp\ccszQoK7.s:1303   .text.indev_encoder_proc:00000000 indev_encoder_proc
C:\Users\gx\AppData\Local\Temp\ccszQoK7.s:1921   .text.indev_encoder_proc:000002bc $d
C:\Users\gx\AppData\Local\Temp\ccszQoK7.s:1927   .text.indev_encoder_proc:000002c4 $t
C:\Users\gx\AppData\Local\Temp\ccszQoK7.s:2170   .text.indev_encoder_proc:000003e0 $d
C:\Users\gx\AppData\Local\Temp\ccszQoK7.s:2177   .text.lv_indev_enable:00000000 $t
C:\Users\gx\AppData\Local\Temp\ccszQoK7.s:2184   .text.lv_indev_enable:00000000 lv_indev_enable
C:\Users\gx\AppData\Local\Temp\ccszQoK7.s:2210   .text.lv_indev_get_act:00000000 $t
C:\Users\gx\AppData\Local\Temp\ccszQoK7.s:2217   .text.lv_indev_get_act:00000000 lv_indev_get_act
C:\Users\gx\AppData\Local\Temp\ccszQoK7.s:2232   .text.lv_indev_get_act:00000008 $d
C:\Users\gx\AppData\Local\Temp\ccszQoK7.s:2237   .text.lv_indev_get_type:00000000 $t
C:\Users\gx\AppData\Local\Temp\ccszQoK7.s:2244   .text.lv_indev_get_type:00000000 lv_indev_get_type
C:\Users\gx\AppData\Local\Temp\ccszQoK7.s:2274   .text.lv_indev_reset:00000000 $t
C:\Users\gx\AppData\Local\Temp\ccszQoK7.s:2281   .text.lv_indev_reset:00000000 lv_indev_reset
C:\Users\gx\AppData\Local\Temp\ccszQoK7.s:2461   .text.lv_indev_reset:0000009c $d
C:\Users\gx\AppData\Local\Temp\ccszQoK7.s:2467   .text.lv_indev_reset_long_press:00000000 $t
C:\Users\gx\AppData\Local\Temp\ccszQoK7.s:2474   .text.lv_indev_reset_long_press:00000000 lv_indev_reset_long_press
C:\Users\gx\AppData\Local\Temp\ccszQoK7.s:2512   .text.lv_indev_set_cursor:00000000 $t
C:\Users\gx\AppData\Local\Temp\ccszQoK7.s:2519   .text.lv_indev_set_cursor:00000000 lv_indev_set_cursor
C:\Users\gx\AppData\Local\Temp\ccszQoK7.s:2588   .text.lv_indev_set_group:00000000 $t
C:\Users\gx\AppData\Local\Temp\ccszQoK7.s:2595   .text.lv_indev_set_group:00000000 lv_indev_set_group
C:\Users\gx\AppData\Local\Temp\ccszQoK7.s:2625   .text.lv_indev_set_button_points:00000000 $t
C:\Users\gx\AppData\Local\Temp\ccszQoK7.s:2632   .text.lv_indev_set_button_points:00000000 lv_indev_set_button_points
C:\Users\gx\AppData\Local\Temp\ccszQoK7.s:2661   .text.lv_indev_get_point:00000000 $t
C:\Users\gx\AppData\Local\Temp\ccszQoK7.s:2668   .text.lv_indev_get_point:00000000 lv_indev_get_point
C:\Users\gx\AppData\Local\Temp\ccszQoK7.s:2726   .text.lv_indev_get_gesture_dir:00000000 $t
C:\Users\gx\AppData\Local\Temp\ccszQoK7.s:2733   .text.lv_indev_get_gesture_dir:00000000 lv_indev_get_gesture_dir
C:\Users\gx\AppData\Local\Temp\ccszQoK7.s:2752   .text.lv_indev_get_key:00000000 $t
C:\Users\gx\AppData\Local\Temp\ccszQoK7.s:2759   .text.lv_indev_get_key:00000000 lv_indev_get_key
C:\Users\gx\AppData\Local\Temp\ccszQoK7.s:2792   .text.lv_indev_get_scroll_dir:00000000 $t
C:\Users\gx\AppData\Local\Temp\ccszQoK7.s:2799   .text.lv_indev_get_scroll_dir:00000000 lv_indev_get_scroll_dir
C:\Users\gx\AppData\Local\Temp\ccszQoK7.s:2848   .text.lv_indev_get_scroll_obj:00000000 $t
C:\Users\gx\AppData\Local\Temp\ccszQoK7.s:2855   .text.lv_indev_get_scroll_obj:00000000 lv_indev_get_scroll_obj
C:\Users\gx\AppData\Local\Temp\ccszQoK7.s:2899   .text.lv_indev_get_vect:00000000 $t
C:\Users\gx\AppData\Local\Temp\ccszQoK7.s:2906   .text.lv_indev_get_vect:00000000 lv_indev_get_vect
C:\Users\gx\AppData\Local\Temp\ccszQoK7.s:2954   .text.lv_indev_wait_release:00000000 $t
C:\Users\gx\AppData\Local\Temp\ccszQoK7.s:2961   .text.lv_indev_wait_release:00000000 lv_indev_wait_release
ARM GAS  C:\Users\gx\AppData\Local\Temp\ccszQoK7.s 			page 126


C:\Users\gx\AppData\Local\Temp\ccszQoK7.s:2984   .text.lv_indev_get_obj_act:00000000 $t
C:\Users\gx\AppData\Local\Temp\ccszQoK7.s:2991   .text.lv_indev_get_obj_act:00000000 lv_indev_get_obj_act
C:\Users\gx\AppData\Local\Temp\ccszQoK7.s:3006   .text.lv_indev_get_obj_act:00000008 $d
C:\Users\gx\AppData\Local\Temp\ccszQoK7.s:3011   .rodata.lv_indev_get_read_timer.str1.4:00000000 $d
C:\Users\gx\AppData\Local\Temp\ccszQoK7.s:3018   .text.lv_indev_get_read_timer:00000000 $t
C:\Users\gx\AppData\Local\Temp\ccszQoK7.s:3025   .text.lv_indev_get_read_timer:00000000 lv_indev_get_read_timer
C:\Users\gx\AppData\Local\Temp\ccszQoK7.s:3080   .text.lv_indev_get_read_timer:00000024 $d
C:\Users\gx\AppData\Local\Temp\ccszQoK7.s:3087   .text.lv_indev_search_obj:00000000 $t
C:\Users\gx\AppData\Local\Temp\ccszQoK7.s:3094   .text.lv_indev_search_obj:00000000 lv_indev_search_obj
C:\Users\gx\AppData\Local\Temp\ccszQoK7.s:3240   .text.indev_proc_press:00000000 $t
C:\Users\gx\AppData\Local\Temp\ccszQoK7.s:3246   .text.indev_proc_press:00000000 indev_proc_press
C:\Users\gx\AppData\Local\Temp\ccszQoK7.s:3769   .text.indev_proc_press:00000270 $d
C:\Users\gx\AppData\Local\Temp\ccszQoK7.s:3775   .rodata.indev_pointer_proc.str1.4:00000000 $d
C:\Users\gx\AppData\Local\Temp\ccszQoK7.s:3788   .text.indev_pointer_proc:00000000 $t
C:\Users\gx\AppData\Local\Temp\ccszQoK7.s:3794   .text.indev_pointer_proc:00000000 indev_pointer_proc
C:\Users\gx\AppData\Local\Temp\ccszQoK7.s:4076   .text.indev_pointer_proc:00000144 $d
C:\Users\gx\AppData\Local\Temp\ccszQoK7.s:4086   .rodata.indev_button_proc.str1.4:00000000 $d
C:\Users\gx\AppData\Local\Temp\ccszQoK7.s:4090   .text.indev_button_proc:00000000 $t
C:\Users\gx\AppData\Local\Temp\ccszQoK7.s:4096   .text.indev_button_proc:00000000 indev_button_proc
C:\Users\gx\AppData\Local\Temp\ccszQoK7.s:4251   .text.indev_button_proc:0000008c $d
C:\Users\gx\AppData\Local\Temp\ccszQoK7.s:4258   .text.lv_indev_read_timer_cb:00000000 $t
C:\Users\gx\AppData\Local\Temp\ccszQoK7.s:4265   .text.lv_indev_read_timer_cb:00000000 lv_indev_read_timer_cb
C:\Users\gx\AppData\Local\Temp\ccszQoK7.s:4470   .text.lv_indev_read_timer_cb:000000c4 $d
C:\Users\gx\AppData\Local\Temp\ccszQoK7.s:4476   .bss.indev_act:00000000 $d
C:\Users\gx\AppData\Local\Temp\ccszQoK7.s:4480   .bss.indev_act:00000000 indev_act
C:\Users\gx\AppData\Local\Temp\ccszQoK7.s:4483   .bss.indev_obj_act:00000000 $d
C:\Users\gx\AppData\Local\Temp\ccszQoK7.s:4487   .bss.indev_obj_act:00000000 indev_obj_act
C:\Users\gx\AppData\Local\Temp\ccszQoK7.s:4490   .rodata.__func__.10149:00000000 $d
C:\Users\gx\AppData\Local\Temp\ccszQoK7.s:4494   .rodata.__func__.10149:00000000 __func__.10149
C:\Users\gx\AppData\Local\Temp\ccszQoK7.s:4497   .rodata.__func__.10171:00000000 $d
C:\Users\gx\AppData\Local\Temp\ccszQoK7.s:4501   .rodata.__func__.10171:00000000 __func__.10171
C:\Users\gx\AppData\Local\Temp\ccszQoK7.s:4504   .rodata.__func__.10206:00000000 $d
C:\Users\gx\AppData\Local\Temp\ccszQoK7.s:4508   .rodata.__func__.10206:00000000 __func__.10206

UNDEFINED SYMBOLS
lv_event_send
_lv_indev_scroll_throw_handler
lv_obj_has_flag
lv_obj_get_group
lv_group_focus_obj
lv_obj_get_parent
lv_group_get_focused
lv_tick_get
lv_group_send_data
lv_group_set_editing
lv_group_focus_next
lv_group_focus_prev
lv_tick_elaps
lv_obj_is_editable
lv_group_get_editing
lv_group_get_obj_count
lv_obj_clear_state
lv_indev_get_next
lv_disp_get_layer_sys
lv_obj_set_parent
lv_obj_set_pos
lv_obj_clear_flag
ARM GAS  C:\Users\gx\AppData\Local\Temp\ccszQoK7.s 			page 127


lv_obj_add_flag
_lv_log_add
lv_obj_hit_test
lv_obj_get_child_cnt
lv_obj_get_state
lv_disp_get_layer_top
lv_disp_get_scr_act
_lv_indev_scroll_handler
lv_disp_get_hor_res
lv_disp_get_ver_res
_lv_indev_read
