ARM GAS  C:\Users\gx\AppData\Local\Temp\ccszQoK7.s 			page 1


   1              		.cpu cortex-m4
   2              		.eabi_attribute 27, 1
   3              		.eabi_attribute 28, 1
   4              		.eabi_attribute 20, 1
   5              		.eabi_attribute 21, 1
   6              		.eabi_attribute 23, 3
   7              		.eabi_attribute 24, 1
   8              		.eabi_attribute 25, 1
   9              		.eabi_attribute 26, 1
  10              		.eabi_attribute 30, 1
  11              		.eabi_attribute 34, 1
  12              		.eabi_attribute 18, 4
  13              		.file	"lv_indev.c"
  14              		.text
  15              	.Ltext0:
  16              		.cfi_sections	.debug_frame
  17              		.section	.text.indev_proc_reset_query_handler,"ax",%progbits
  18              		.align	1
  19              		.arch armv7e-m
  20              		.syntax unified
  21              		.thumb
  22              		.thumb_func
  23              		.fpu fpv4-sp-d16
  25              	indev_proc_reset_query_handler:
  26              	.LVL0:
  27              	.LFB183:
  28              		.file 1 "lvgl/lvgl/src/core/lv_indev.c"
   1:lvgl/lvgl/src/core/lv_indev.c **** /**
   2:lvgl/lvgl/src/core/lv_indev.c ****  * @file lv_indev.c
   3:lvgl/lvgl/src/core/lv_indev.c ****  *
   4:lvgl/lvgl/src/core/lv_indev.c ****  */
   5:lvgl/lvgl/src/core/lv_indev.c **** 
   6:lvgl/lvgl/src/core/lv_indev.c **** /*********************
   7:lvgl/lvgl/src/core/lv_indev.c ****  *      INCLUDES
   8:lvgl/lvgl/src/core/lv_indev.c ****  ********************/
   9:lvgl/lvgl/src/core/lv_indev.c **** #include "lv_indev.h"
  10:lvgl/lvgl/src/core/lv_indev.c **** #include "lv_disp.h"
  11:lvgl/lvgl/src/core/lv_indev.c **** #include "lv_obj.h"
  12:lvgl/lvgl/src/core/lv_indev.c **** #include "lv_indev_scroll.h"
  13:lvgl/lvgl/src/core/lv_indev.c **** #include "lv_group.h"
  14:lvgl/lvgl/src/core/lv_indev.c **** #include "lv_refr.h"
  15:lvgl/lvgl/src/core/lv_indev.c **** 
  16:lvgl/lvgl/src/core/lv_indev.c **** #include "../hal/lv_hal_tick.h"
  17:lvgl/lvgl/src/core/lv_indev.c **** #include "../misc/lv_timer.h"
  18:lvgl/lvgl/src/core/lv_indev.c **** #include "../misc/lv_math.h"
  19:lvgl/lvgl/src/core/lv_indev.c **** 
  20:lvgl/lvgl/src/core/lv_indev.c **** /*********************
  21:lvgl/lvgl/src/core/lv_indev.c ****  *      DEFINES
  22:lvgl/lvgl/src/core/lv_indev.c ****  *********************/
  23:lvgl/lvgl/src/core/lv_indev.c **** #if LV_INDEV_DEF_SCROLL_THROW <= 0
  24:lvgl/lvgl/src/core/lv_indev.c ****     #warning "LV_INDEV_DRAG_THROW must be greater than 0"
  25:lvgl/lvgl/src/core/lv_indev.c **** #endif
  26:lvgl/lvgl/src/core/lv_indev.c **** 
  27:lvgl/lvgl/src/core/lv_indev.c **** /**********************
  28:lvgl/lvgl/src/core/lv_indev.c ****  *      TYPEDEFS
  29:lvgl/lvgl/src/core/lv_indev.c ****  **********************/
  30:lvgl/lvgl/src/core/lv_indev.c **** 
ARM GAS  C:\Users\gx\AppData\Local\Temp\ccszQoK7.s 			page 2


  31:lvgl/lvgl/src/core/lv_indev.c **** /**********************
  32:lvgl/lvgl/src/core/lv_indev.c ****  *  STATIC PROTOTYPES
  33:lvgl/lvgl/src/core/lv_indev.c ****  **********************/
  34:lvgl/lvgl/src/core/lv_indev.c **** static void indev_pointer_proc(lv_indev_t * i, lv_indev_data_t * data);
  35:lvgl/lvgl/src/core/lv_indev.c **** static void indev_keypad_proc(lv_indev_t * i, lv_indev_data_t * data);
  36:lvgl/lvgl/src/core/lv_indev.c **** static void indev_encoder_proc(lv_indev_t * i, lv_indev_data_t * data);
  37:lvgl/lvgl/src/core/lv_indev.c **** static void indev_button_proc(lv_indev_t * i, lv_indev_data_t * data);
  38:lvgl/lvgl/src/core/lv_indev.c **** static void indev_proc_press(_lv_indev_proc_t * proc);
  39:lvgl/lvgl/src/core/lv_indev.c **** static void indev_proc_release(_lv_indev_proc_t * proc);
  40:lvgl/lvgl/src/core/lv_indev.c **** static void indev_proc_reset_query_handler(lv_indev_t * indev);
  41:lvgl/lvgl/src/core/lv_indev.c **** static void indev_click_focus(_lv_indev_proc_t * proc);
  42:lvgl/lvgl/src/core/lv_indev.c **** static void indev_gesture(_lv_indev_proc_t * proc);
  43:lvgl/lvgl/src/core/lv_indev.c **** static bool indev_reset_check(_lv_indev_proc_t * proc);
  44:lvgl/lvgl/src/core/lv_indev.c **** 
  45:lvgl/lvgl/src/core/lv_indev.c **** /**********************
  46:lvgl/lvgl/src/core/lv_indev.c ****  *  STATIC VARIABLES
  47:lvgl/lvgl/src/core/lv_indev.c ****  **********************/
  48:lvgl/lvgl/src/core/lv_indev.c **** static lv_indev_t * indev_act;
  49:lvgl/lvgl/src/core/lv_indev.c **** static lv_obj_t * indev_obj_act = NULL;
  50:lvgl/lvgl/src/core/lv_indev.c **** 
  51:lvgl/lvgl/src/core/lv_indev.c **** /**********************
  52:lvgl/lvgl/src/core/lv_indev.c ****  *      MACROS
  53:lvgl/lvgl/src/core/lv_indev.c ****  **********************/
  54:lvgl/lvgl/src/core/lv_indev.c **** #if LV_LOG_TRACE_INDEV
  55:lvgl/lvgl/src/core/lv_indev.c **** #  define INDEV_TRACE(...) LV_LOG_TRACE( __VA_ARGS__)
  56:lvgl/lvgl/src/core/lv_indev.c **** #else
  57:lvgl/lvgl/src/core/lv_indev.c **** #  define INDEV_TRACE(...)
  58:lvgl/lvgl/src/core/lv_indev.c **** #endif
  59:lvgl/lvgl/src/core/lv_indev.c **** 
  60:lvgl/lvgl/src/core/lv_indev.c **** /**********************
  61:lvgl/lvgl/src/core/lv_indev.c ****  *   GLOBAL FUNCTIONS
  62:lvgl/lvgl/src/core/lv_indev.c ****  **********************/
  63:lvgl/lvgl/src/core/lv_indev.c **** 
  64:lvgl/lvgl/src/core/lv_indev.c **** void lv_indev_read_timer_cb(lv_timer_t * timer)
  65:lvgl/lvgl/src/core/lv_indev.c **** {
  66:lvgl/lvgl/src/core/lv_indev.c ****     INDEV_TRACE("begin");
  67:lvgl/lvgl/src/core/lv_indev.c **** 
  68:lvgl/lvgl/src/core/lv_indev.c ****     lv_indev_data_t data;
  69:lvgl/lvgl/src/core/lv_indev.c **** 
  70:lvgl/lvgl/src/core/lv_indev.c ****     indev_act = timer->user_data;
  71:lvgl/lvgl/src/core/lv_indev.c **** 
  72:lvgl/lvgl/src/core/lv_indev.c ****     /*Read and process all indevs*/
  73:lvgl/lvgl/src/core/lv_indev.c ****     if(indev_act->driver->disp == NULL) return; /*Not assigned to any displays*/
  74:lvgl/lvgl/src/core/lv_indev.c **** 
  75:lvgl/lvgl/src/core/lv_indev.c ****     /*Handle reset query before processing the point*/
  76:lvgl/lvgl/src/core/lv_indev.c ****     indev_proc_reset_query_handler(indev_act);
  77:lvgl/lvgl/src/core/lv_indev.c **** 
  78:lvgl/lvgl/src/core/lv_indev.c ****     if(indev_act->proc.disabled) return;
  79:lvgl/lvgl/src/core/lv_indev.c ****     bool continue_reading;
  80:lvgl/lvgl/src/core/lv_indev.c ****     do {
  81:lvgl/lvgl/src/core/lv_indev.c ****         /*Read the data*/
  82:lvgl/lvgl/src/core/lv_indev.c ****         _lv_indev_read(indev_act, &data);
  83:lvgl/lvgl/src/core/lv_indev.c ****         continue_reading = data.continue_reading;
  84:lvgl/lvgl/src/core/lv_indev.c **** 
  85:lvgl/lvgl/src/core/lv_indev.c ****         /*The active object might deleted even in the read function*/
  86:lvgl/lvgl/src/core/lv_indev.c ****         indev_proc_reset_query_handler(indev_act);
  87:lvgl/lvgl/src/core/lv_indev.c ****         indev_obj_act = NULL;
ARM GAS  C:\Users\gx\AppData\Local\Temp\ccszQoK7.s 			page 3


  88:lvgl/lvgl/src/core/lv_indev.c **** 
  89:lvgl/lvgl/src/core/lv_indev.c ****         indev_act->proc.state = data.state;
  90:lvgl/lvgl/src/core/lv_indev.c **** 
  91:lvgl/lvgl/src/core/lv_indev.c ****         /*Save the last activity time*/
  92:lvgl/lvgl/src/core/lv_indev.c ****         if(indev_act->proc.state == LV_INDEV_STATE_PRESSED) {
  93:lvgl/lvgl/src/core/lv_indev.c ****             indev_act->driver->disp->last_activity_time = lv_tick_get();
  94:lvgl/lvgl/src/core/lv_indev.c ****         }
  95:lvgl/lvgl/src/core/lv_indev.c ****         else if(indev_act->driver->type == LV_INDEV_TYPE_ENCODER && data.enc_diff) {
  96:lvgl/lvgl/src/core/lv_indev.c ****             indev_act->driver->disp->last_activity_time = lv_tick_get();
  97:lvgl/lvgl/src/core/lv_indev.c ****         }
  98:lvgl/lvgl/src/core/lv_indev.c **** 
  99:lvgl/lvgl/src/core/lv_indev.c ****         if(indev_act->driver->type == LV_INDEV_TYPE_POINTER) {
 100:lvgl/lvgl/src/core/lv_indev.c ****             indev_pointer_proc(indev_act, &data);
 101:lvgl/lvgl/src/core/lv_indev.c ****         }
 102:lvgl/lvgl/src/core/lv_indev.c ****         else if(indev_act->driver->type == LV_INDEV_TYPE_KEYPAD) {
 103:lvgl/lvgl/src/core/lv_indev.c ****             indev_keypad_proc(indev_act, &data);
 104:lvgl/lvgl/src/core/lv_indev.c ****         }
 105:lvgl/lvgl/src/core/lv_indev.c ****         else if(indev_act->driver->type == LV_INDEV_TYPE_ENCODER) {
 106:lvgl/lvgl/src/core/lv_indev.c ****             indev_encoder_proc(indev_act, &data);
 107:lvgl/lvgl/src/core/lv_indev.c ****         }
 108:lvgl/lvgl/src/core/lv_indev.c ****         else if(indev_act->driver->type == LV_INDEV_TYPE_BUTTON) {
 109:lvgl/lvgl/src/core/lv_indev.c ****             indev_button_proc(indev_act, &data);
 110:lvgl/lvgl/src/core/lv_indev.c ****         }
 111:lvgl/lvgl/src/core/lv_indev.c ****         /*Handle reset query if it happened in during processing*/
 112:lvgl/lvgl/src/core/lv_indev.c ****         indev_proc_reset_query_handler(indev_act);
 113:lvgl/lvgl/src/core/lv_indev.c ****     } while(continue_reading);
 114:lvgl/lvgl/src/core/lv_indev.c **** 
 115:lvgl/lvgl/src/core/lv_indev.c ****     /*End of indev processing, so no act indev*/
 116:lvgl/lvgl/src/core/lv_indev.c ****     indev_act     = NULL;
 117:lvgl/lvgl/src/core/lv_indev.c ****     indev_obj_act = NULL;
 118:lvgl/lvgl/src/core/lv_indev.c **** 
 119:lvgl/lvgl/src/core/lv_indev.c ****     INDEV_TRACE("finished");
 120:lvgl/lvgl/src/core/lv_indev.c **** }
 121:lvgl/lvgl/src/core/lv_indev.c **** 
 122:lvgl/lvgl/src/core/lv_indev.c **** void lv_indev_enable(lv_indev_t * indev, bool en)
 123:lvgl/lvgl/src/core/lv_indev.c **** {
 124:lvgl/lvgl/src/core/lv_indev.c ****     if(!indev) return;
 125:lvgl/lvgl/src/core/lv_indev.c **** 
 126:lvgl/lvgl/src/core/lv_indev.c ****     indev->proc.disabled = en ? 0 : 1;
 127:lvgl/lvgl/src/core/lv_indev.c **** }
 128:lvgl/lvgl/src/core/lv_indev.c **** 
 129:lvgl/lvgl/src/core/lv_indev.c **** lv_indev_t * lv_indev_get_act(void)
 130:lvgl/lvgl/src/core/lv_indev.c **** {
 131:lvgl/lvgl/src/core/lv_indev.c ****     return indev_act;
 132:lvgl/lvgl/src/core/lv_indev.c **** }
 133:lvgl/lvgl/src/core/lv_indev.c **** 
 134:lvgl/lvgl/src/core/lv_indev.c **** lv_indev_type_t lv_indev_get_type(const lv_indev_t * indev)
 135:lvgl/lvgl/src/core/lv_indev.c **** {
 136:lvgl/lvgl/src/core/lv_indev.c ****     if(indev == NULL) return LV_INDEV_TYPE_NONE;
 137:lvgl/lvgl/src/core/lv_indev.c **** 
 138:lvgl/lvgl/src/core/lv_indev.c ****     return indev->driver->type;
 139:lvgl/lvgl/src/core/lv_indev.c **** }
 140:lvgl/lvgl/src/core/lv_indev.c **** 
 141:lvgl/lvgl/src/core/lv_indev.c **** void lv_indev_reset(lv_indev_t * indev, lv_obj_t * obj)
 142:lvgl/lvgl/src/core/lv_indev.c **** {
 143:lvgl/lvgl/src/core/lv_indev.c ****     if(indev) {
 144:lvgl/lvgl/src/core/lv_indev.c ****         indev->proc.reset_query = 1;
ARM GAS  C:\Users\gx\AppData\Local\Temp\ccszQoK7.s 			page 4


 145:lvgl/lvgl/src/core/lv_indev.c ****         if(indev_act == indev) indev_obj_act = NULL;
 146:lvgl/lvgl/src/core/lv_indev.c ****         if(obj == NULL || indev->proc.types.pointer.last_pressed == obj) {
 147:lvgl/lvgl/src/core/lv_indev.c ****             indev->proc.types.pointer.last_pressed = NULL;
 148:lvgl/lvgl/src/core/lv_indev.c ****         }
 149:lvgl/lvgl/src/core/lv_indev.c ****         if(obj == NULL || indev->proc.types.pointer.act_obj == obj) {
 150:lvgl/lvgl/src/core/lv_indev.c ****             indev->proc.types.pointer.act_obj = NULL;
 151:lvgl/lvgl/src/core/lv_indev.c ****         }
 152:lvgl/lvgl/src/core/lv_indev.c ****         if(obj == NULL || indev->proc.types.pointer.last_obj == obj) {
 153:lvgl/lvgl/src/core/lv_indev.c ****             indev->proc.types.pointer.last_obj = NULL;
 154:lvgl/lvgl/src/core/lv_indev.c ****         }
 155:lvgl/lvgl/src/core/lv_indev.c ****     }
 156:lvgl/lvgl/src/core/lv_indev.c ****     else {
 157:lvgl/lvgl/src/core/lv_indev.c ****         lv_indev_t * i = lv_indev_get_next(NULL);
 158:lvgl/lvgl/src/core/lv_indev.c ****         while(i) {
 159:lvgl/lvgl/src/core/lv_indev.c ****             i->proc.reset_query = 1;
 160:lvgl/lvgl/src/core/lv_indev.c ****             if((i->driver->type == LV_INDEV_TYPE_POINTER || i->driver->type == LV_INDEV_TYPE_KEYPAD
 161:lvgl/lvgl/src/core/lv_indev.c ****                (obj == NULL || i->proc.types.pointer.last_pressed == obj)) {
 162:lvgl/lvgl/src/core/lv_indev.c ****                 i->proc.types.pointer.last_pressed = NULL;
 163:lvgl/lvgl/src/core/lv_indev.c ****             }
 164:lvgl/lvgl/src/core/lv_indev.c ****             if(obj == NULL || i->proc.types.pointer.act_obj == obj) {
 165:lvgl/lvgl/src/core/lv_indev.c ****                 i->proc.types.pointer.act_obj = NULL;
 166:lvgl/lvgl/src/core/lv_indev.c ****             }
 167:lvgl/lvgl/src/core/lv_indev.c ****             if(obj == NULL || i->proc.types.pointer.last_obj == obj) {
 168:lvgl/lvgl/src/core/lv_indev.c ****                 i->proc.types.pointer.last_obj = NULL;
 169:lvgl/lvgl/src/core/lv_indev.c ****             }
 170:lvgl/lvgl/src/core/lv_indev.c ****             i = lv_indev_get_next(i);
 171:lvgl/lvgl/src/core/lv_indev.c ****         }
 172:lvgl/lvgl/src/core/lv_indev.c ****         indev_obj_act = NULL;
 173:lvgl/lvgl/src/core/lv_indev.c ****     }
 174:lvgl/lvgl/src/core/lv_indev.c **** }
 175:lvgl/lvgl/src/core/lv_indev.c **** 
 176:lvgl/lvgl/src/core/lv_indev.c **** void lv_indev_reset_long_press(lv_indev_t * indev)
 177:lvgl/lvgl/src/core/lv_indev.c **** {
 178:lvgl/lvgl/src/core/lv_indev.c ****     indev->proc.long_pr_sent         = 0;
 179:lvgl/lvgl/src/core/lv_indev.c ****     indev->proc.longpr_rep_timestamp = lv_tick_get();
 180:lvgl/lvgl/src/core/lv_indev.c ****     indev->proc.pr_timestamp         = lv_tick_get();
 181:lvgl/lvgl/src/core/lv_indev.c **** }
 182:lvgl/lvgl/src/core/lv_indev.c **** 
 183:lvgl/lvgl/src/core/lv_indev.c **** void lv_indev_set_cursor(lv_indev_t * indev, lv_obj_t * cur_obj)
 184:lvgl/lvgl/src/core/lv_indev.c **** {
 185:lvgl/lvgl/src/core/lv_indev.c ****     if(indev->driver->type != LV_INDEV_TYPE_POINTER) return;
 186:lvgl/lvgl/src/core/lv_indev.c **** 
 187:lvgl/lvgl/src/core/lv_indev.c ****     indev->cursor = cur_obj;
 188:lvgl/lvgl/src/core/lv_indev.c ****     lv_obj_set_parent(indev->cursor, lv_disp_get_layer_sys(indev->driver->disp));
 189:lvgl/lvgl/src/core/lv_indev.c ****     lv_obj_set_pos(indev->cursor, indev->proc.types.pointer.act_point.x, indev->proc.types.pointer.
 190:lvgl/lvgl/src/core/lv_indev.c ****     lv_obj_clear_flag(indev->cursor, LV_OBJ_FLAG_CLICKABLE);
 191:lvgl/lvgl/src/core/lv_indev.c ****     lv_obj_add_flag(indev->cursor, LV_OBJ_FLAG_IGNORE_LAYOUT | LV_OBJ_FLAG_FLOATING);
 192:lvgl/lvgl/src/core/lv_indev.c **** }
 193:lvgl/lvgl/src/core/lv_indev.c **** 
 194:lvgl/lvgl/src/core/lv_indev.c **** void lv_indev_set_group(lv_indev_t * indev, lv_group_t * group)
 195:lvgl/lvgl/src/core/lv_indev.c **** {
 196:lvgl/lvgl/src/core/lv_indev.c ****     if(indev->driver->type == LV_INDEV_TYPE_KEYPAD || indev->driver->type == LV_INDEV_TYPE_ENCODER)
 197:lvgl/lvgl/src/core/lv_indev.c ****         indev->group = group;
 198:lvgl/lvgl/src/core/lv_indev.c ****     }
 199:lvgl/lvgl/src/core/lv_indev.c **** }
 200:lvgl/lvgl/src/core/lv_indev.c **** 
 201:lvgl/lvgl/src/core/lv_indev.c **** void lv_indev_set_button_points(lv_indev_t * indev, const lv_point_t points[])
ARM GAS  C:\Users\gx\AppData\Local\Temp\ccszQoK7.s 			page 5


 202:lvgl/lvgl/src/core/lv_indev.c **** {
 203:lvgl/lvgl/src/core/lv_indev.c ****     if(indev->driver->type == LV_INDEV_TYPE_BUTTON) {
 204:lvgl/lvgl/src/core/lv_indev.c ****         indev->btn_points = points;
 205:lvgl/lvgl/src/core/lv_indev.c ****     }
 206:lvgl/lvgl/src/core/lv_indev.c **** }
 207:lvgl/lvgl/src/core/lv_indev.c **** 
 208:lvgl/lvgl/src/core/lv_indev.c **** void lv_indev_get_point(const lv_indev_t * indev, lv_point_t * point)
 209:lvgl/lvgl/src/core/lv_indev.c **** {
 210:lvgl/lvgl/src/core/lv_indev.c ****     if(indev == NULL) {
 211:lvgl/lvgl/src/core/lv_indev.c ****         point->x = 0;
 212:lvgl/lvgl/src/core/lv_indev.c ****         point->y = 0;
 213:lvgl/lvgl/src/core/lv_indev.c ****         return;
 214:lvgl/lvgl/src/core/lv_indev.c ****     }
 215:lvgl/lvgl/src/core/lv_indev.c ****     if(indev->driver->type != LV_INDEV_TYPE_POINTER && indev->driver->type != LV_INDEV_TYPE_BUTTON)
 216:lvgl/lvgl/src/core/lv_indev.c ****         point->x = -1;
 217:lvgl/lvgl/src/core/lv_indev.c ****         point->y = -1;
 218:lvgl/lvgl/src/core/lv_indev.c ****     }
 219:lvgl/lvgl/src/core/lv_indev.c ****     else {
 220:lvgl/lvgl/src/core/lv_indev.c ****         point->x = indev->proc.types.pointer.act_point.x;
 221:lvgl/lvgl/src/core/lv_indev.c ****         point->y = indev->proc.types.pointer.act_point.y;
 222:lvgl/lvgl/src/core/lv_indev.c ****     }
 223:lvgl/lvgl/src/core/lv_indev.c **** }
 224:lvgl/lvgl/src/core/lv_indev.c **** 
 225:lvgl/lvgl/src/core/lv_indev.c **** lv_dir_t lv_indev_get_gesture_dir(const lv_indev_t * indev)
 226:lvgl/lvgl/src/core/lv_indev.c **** {
 227:lvgl/lvgl/src/core/lv_indev.c ****     return indev->proc.types.pointer.gesture_dir;
 228:lvgl/lvgl/src/core/lv_indev.c **** }
 229:lvgl/lvgl/src/core/lv_indev.c **** 
 230:lvgl/lvgl/src/core/lv_indev.c **** uint32_t lv_indev_get_key(const lv_indev_t * indev)
 231:lvgl/lvgl/src/core/lv_indev.c **** {
 232:lvgl/lvgl/src/core/lv_indev.c ****     if(indev->driver->type != LV_INDEV_TYPE_KEYPAD)
 233:lvgl/lvgl/src/core/lv_indev.c ****         return 0;
 234:lvgl/lvgl/src/core/lv_indev.c ****     else
 235:lvgl/lvgl/src/core/lv_indev.c ****         return indev->proc.types.keypad.last_key;
 236:lvgl/lvgl/src/core/lv_indev.c **** }
 237:lvgl/lvgl/src/core/lv_indev.c **** 
 238:lvgl/lvgl/src/core/lv_indev.c **** lv_dir_t lv_indev_get_scroll_dir(const lv_indev_t * indev)
 239:lvgl/lvgl/src/core/lv_indev.c **** {
 240:lvgl/lvgl/src/core/lv_indev.c ****     if(indev == NULL) return false;
 241:lvgl/lvgl/src/core/lv_indev.c ****     if(indev->driver->type != LV_INDEV_TYPE_POINTER && indev->driver->type != LV_INDEV_TYPE_BUTTON)
 242:lvgl/lvgl/src/core/lv_indev.c ****     return indev->proc.types.pointer.scroll_dir;
 243:lvgl/lvgl/src/core/lv_indev.c **** }
 244:lvgl/lvgl/src/core/lv_indev.c **** 
 245:lvgl/lvgl/src/core/lv_indev.c **** lv_obj_t * lv_indev_get_scroll_obj(const lv_indev_t * indev)
 246:lvgl/lvgl/src/core/lv_indev.c **** {
 247:lvgl/lvgl/src/core/lv_indev.c ****     if(indev == NULL) return NULL;
 248:lvgl/lvgl/src/core/lv_indev.c ****     if(indev->driver->type != LV_INDEV_TYPE_POINTER && indev->driver->type != LV_INDEV_TYPE_BUTTON)
 249:lvgl/lvgl/src/core/lv_indev.c ****     return indev->proc.types.pointer.scroll_obj;
 250:lvgl/lvgl/src/core/lv_indev.c **** }
 251:lvgl/lvgl/src/core/lv_indev.c **** 
 252:lvgl/lvgl/src/core/lv_indev.c **** void lv_indev_get_vect(const lv_indev_t * indev, lv_point_t * point)
 253:lvgl/lvgl/src/core/lv_indev.c **** {
 254:lvgl/lvgl/src/core/lv_indev.c ****     point->x = 0;
 255:lvgl/lvgl/src/core/lv_indev.c ****     point->y = 0;
 256:lvgl/lvgl/src/core/lv_indev.c **** 
 257:lvgl/lvgl/src/core/lv_indev.c ****     if(indev == NULL) return;
 258:lvgl/lvgl/src/core/lv_indev.c **** 
ARM GAS  C:\Users\gx\AppData\Local\Temp\ccszQoK7.s 			page 6


 259:lvgl/lvgl/src/core/lv_indev.c ****     if(indev->driver->type == LV_INDEV_TYPE_POINTER || indev->driver->type == LV_INDEV_TYPE_BUTTON)
 260:lvgl/lvgl/src/core/lv_indev.c ****         point->x = indev->proc.types.pointer.vect.x;
 261:lvgl/lvgl/src/core/lv_indev.c ****         point->y = indev->proc.types.pointer.vect.y;
 262:lvgl/lvgl/src/core/lv_indev.c ****     }
 263:lvgl/lvgl/src/core/lv_indev.c **** }
 264:lvgl/lvgl/src/core/lv_indev.c **** 
 265:lvgl/lvgl/src/core/lv_indev.c **** void lv_indev_wait_release(lv_indev_t * indev)
 266:lvgl/lvgl/src/core/lv_indev.c **** {
 267:lvgl/lvgl/src/core/lv_indev.c ****     if(indev == NULL)return;
 268:lvgl/lvgl/src/core/lv_indev.c ****     indev->proc.wait_until_release = 1;
 269:lvgl/lvgl/src/core/lv_indev.c **** }
 270:lvgl/lvgl/src/core/lv_indev.c **** 
 271:lvgl/lvgl/src/core/lv_indev.c **** lv_obj_t * lv_indev_get_obj_act(void)
 272:lvgl/lvgl/src/core/lv_indev.c **** {
 273:lvgl/lvgl/src/core/lv_indev.c ****     return indev_obj_act;
 274:lvgl/lvgl/src/core/lv_indev.c **** }
 275:lvgl/lvgl/src/core/lv_indev.c **** 
 276:lvgl/lvgl/src/core/lv_indev.c **** lv_timer_t * lv_indev_get_read_timer(lv_disp_t * indev)
 277:lvgl/lvgl/src/core/lv_indev.c **** {
 278:lvgl/lvgl/src/core/lv_indev.c ****     if(!indev) {
 279:lvgl/lvgl/src/core/lv_indev.c ****         LV_LOG_WARN("lv_indev_get_read_timer: indev was NULL");
 280:lvgl/lvgl/src/core/lv_indev.c ****         return NULL;
 281:lvgl/lvgl/src/core/lv_indev.c ****     }
 282:lvgl/lvgl/src/core/lv_indev.c **** 
 283:lvgl/lvgl/src/core/lv_indev.c ****     return indev->refr_timer;
 284:lvgl/lvgl/src/core/lv_indev.c **** }
 285:lvgl/lvgl/src/core/lv_indev.c **** 
 286:lvgl/lvgl/src/core/lv_indev.c **** lv_obj_t * lv_indev_search_obj(lv_obj_t * obj, lv_point_t * point)
 287:lvgl/lvgl/src/core/lv_indev.c **** {
 288:lvgl/lvgl/src/core/lv_indev.c ****     lv_obj_t * found_p = NULL;
 289:lvgl/lvgl/src/core/lv_indev.c **** 
 290:lvgl/lvgl/src/core/lv_indev.c ****     /*If the point is on this object check its children too*/
 291:lvgl/lvgl/src/core/lv_indev.c ****     if(lv_obj_hit_test(obj, point)) {
 292:lvgl/lvgl/src/core/lv_indev.c ****         int32_t i;
 293:lvgl/lvgl/src/core/lv_indev.c ****         uint32_t child_cnt = lv_obj_get_child_cnt(obj);
 294:lvgl/lvgl/src/core/lv_indev.c ****         for(i = child_cnt - 1; i >= 0; i--) {
 295:lvgl/lvgl/src/core/lv_indev.c ****             lv_obj_t * child = obj->spec_attr->children[i];
 296:lvgl/lvgl/src/core/lv_indev.c ****             found_p = lv_indev_search_obj(child, point);
 297:lvgl/lvgl/src/core/lv_indev.c **** 
 298:lvgl/lvgl/src/core/lv_indev.c ****             /*If a child was found then break*/
 299:lvgl/lvgl/src/core/lv_indev.c ****             if(found_p != NULL) break;
 300:lvgl/lvgl/src/core/lv_indev.c ****         }
 301:lvgl/lvgl/src/core/lv_indev.c **** 
 302:lvgl/lvgl/src/core/lv_indev.c ****         /*If then the children was not ok, and this obj is clickable
 303:lvgl/lvgl/src/core/lv_indev.c ****          * and it or its parent is not hidden then save this object*/
 304:lvgl/lvgl/src/core/lv_indev.c ****         if(found_p == NULL && lv_obj_has_flag(obj, LV_OBJ_FLAG_CLICKABLE)) {
 305:lvgl/lvgl/src/core/lv_indev.c ****             lv_obj_t * hidden_i = obj;
 306:lvgl/lvgl/src/core/lv_indev.c ****             while(hidden_i != NULL) {
 307:lvgl/lvgl/src/core/lv_indev.c ****                 if(lv_obj_has_flag(hidden_i, LV_OBJ_FLAG_HIDDEN) == true) break;
 308:lvgl/lvgl/src/core/lv_indev.c ****                 hidden_i = lv_obj_get_parent(hidden_i);
 309:lvgl/lvgl/src/core/lv_indev.c ****             }
 310:lvgl/lvgl/src/core/lv_indev.c ****             /*No parent found with hidden == true*/
 311:lvgl/lvgl/src/core/lv_indev.c ****             if(hidden_i == NULL && (lv_obj_get_state(obj) & LV_STATE_DISABLED) == false) found_p = 
 312:lvgl/lvgl/src/core/lv_indev.c ****         }
 313:lvgl/lvgl/src/core/lv_indev.c ****     }
 314:lvgl/lvgl/src/core/lv_indev.c **** 
 315:lvgl/lvgl/src/core/lv_indev.c ****     return found_p;
ARM GAS  C:\Users\gx\AppData\Local\Temp\ccszQoK7.s 			page 7


 316:lvgl/lvgl/src/core/lv_indev.c **** }
 317:lvgl/lvgl/src/core/lv_indev.c **** 
 318:lvgl/lvgl/src/core/lv_indev.c **** /**********************
 319:lvgl/lvgl/src/core/lv_indev.c ****  *   STATIC FUNCTIONS
 320:lvgl/lvgl/src/core/lv_indev.c ****  **********************/
 321:lvgl/lvgl/src/core/lv_indev.c **** 
 322:lvgl/lvgl/src/core/lv_indev.c **** /**
 323:lvgl/lvgl/src/core/lv_indev.c ****  * Process a new point from LV_INDEV_TYPE_POINTER input device
 324:lvgl/lvgl/src/core/lv_indev.c ****  * @param i pointer to an input device
 325:lvgl/lvgl/src/core/lv_indev.c ****  * @param data pointer to the data read from the input device
 326:lvgl/lvgl/src/core/lv_indev.c ****  */
 327:lvgl/lvgl/src/core/lv_indev.c **** static void indev_pointer_proc(lv_indev_t * i, lv_indev_data_t * data)
 328:lvgl/lvgl/src/core/lv_indev.c **** {
 329:lvgl/lvgl/src/core/lv_indev.c ****     lv_disp_t *disp = i->driver->disp;
 330:lvgl/lvgl/src/core/lv_indev.c ****     /*Save the raw points so they can be used again in _lv_indev_read*/
 331:lvgl/lvgl/src/core/lv_indev.c ****     i->proc.types.pointer.last_raw_point.x = data->point.x;
 332:lvgl/lvgl/src/core/lv_indev.c ****     i->proc.types.pointer.last_raw_point.y = data->point.y;
 333:lvgl/lvgl/src/core/lv_indev.c **** 
 334:lvgl/lvgl/src/core/lv_indev.c ****     if(disp->driver->rotated == LV_DISP_ROT_180 || disp->driver->rotated == LV_DISP_ROT_270) {
 335:lvgl/lvgl/src/core/lv_indev.c ****         data->point.x = disp->driver->hor_res - data->point.x - 1;
 336:lvgl/lvgl/src/core/lv_indev.c ****         data->point.y = disp->driver->ver_res - data->point.y - 1;
 337:lvgl/lvgl/src/core/lv_indev.c ****     }
 338:lvgl/lvgl/src/core/lv_indev.c ****     if(disp->driver->rotated == LV_DISP_ROT_90 || disp->driver->rotated == LV_DISP_ROT_270) {
 339:lvgl/lvgl/src/core/lv_indev.c ****         lv_coord_t tmp = data->point.y;
 340:lvgl/lvgl/src/core/lv_indev.c ****         data->point.y = data->point.x;
 341:lvgl/lvgl/src/core/lv_indev.c ****         data->point.x = disp->driver->ver_res - tmp - 1;
 342:lvgl/lvgl/src/core/lv_indev.c ****     }
 343:lvgl/lvgl/src/core/lv_indev.c **** 
 344:lvgl/lvgl/src/core/lv_indev.c ****     /*Simple sanity check*/
 345:lvgl/lvgl/src/core/lv_indev.c ****     if(data->point.x < 0) LV_LOG_WARN("X is %d which is smaller than zero", data->point.x);
 346:lvgl/lvgl/src/core/lv_indev.c ****     if(data->point.x >= lv_disp_get_hor_res(i->driver->disp)) LV_LOG_WARN("X is %d which is greater
 347:lvgl/lvgl/src/core/lv_indev.c ****     if(data->point.y < 0) LV_LOG_WARN("Y is %d which is smaller than zero", data->point.y);
 348:lvgl/lvgl/src/core/lv_indev.c ****     if(data->point.y >= lv_disp_get_ver_res(i->driver->disp)) LV_LOG_WARN("Y is %d which is greater
 349:lvgl/lvgl/src/core/lv_indev.c **** 
 350:lvgl/lvgl/src/core/lv_indev.c ****     /*Move the cursor if set and moved*/
 351:lvgl/lvgl/src/core/lv_indev.c ****     if(i->cursor != NULL &&
 352:lvgl/lvgl/src/core/lv_indev.c ****        (i->proc.types.pointer.last_point.x != data->point.x || i->proc.types.pointer.last_point.y !
 353:lvgl/lvgl/src/core/lv_indev.c ****         lv_obj_set_pos(i->cursor, data->point.x, data->point.y);
 354:lvgl/lvgl/src/core/lv_indev.c ****     }
 355:lvgl/lvgl/src/core/lv_indev.c **** 
 356:lvgl/lvgl/src/core/lv_indev.c ****     i->proc.types.pointer.act_point.x = data->point.x;
 357:lvgl/lvgl/src/core/lv_indev.c ****     i->proc.types.pointer.act_point.y = data->point.y;
 358:lvgl/lvgl/src/core/lv_indev.c **** 
 359:lvgl/lvgl/src/core/lv_indev.c ****     if(i->proc.state == LV_INDEV_STATE_PRESSED) {
 360:lvgl/lvgl/src/core/lv_indev.c ****         indev_proc_press(&i->proc);
 361:lvgl/lvgl/src/core/lv_indev.c ****     }
 362:lvgl/lvgl/src/core/lv_indev.c ****     else {
 363:lvgl/lvgl/src/core/lv_indev.c ****         indev_proc_release(&i->proc);
 364:lvgl/lvgl/src/core/lv_indev.c ****     }
 365:lvgl/lvgl/src/core/lv_indev.c **** 
 366:lvgl/lvgl/src/core/lv_indev.c ****     i->proc.types.pointer.last_point.x = i->proc.types.pointer.act_point.x;
 367:lvgl/lvgl/src/core/lv_indev.c ****     i->proc.types.pointer.last_point.y = i->proc.types.pointer.act_point.y;
 368:lvgl/lvgl/src/core/lv_indev.c **** }
 369:lvgl/lvgl/src/core/lv_indev.c **** 
 370:lvgl/lvgl/src/core/lv_indev.c **** /**
 371:lvgl/lvgl/src/core/lv_indev.c ****  * Process a new point from LV_INDEV_TYPE_KEYPAD input device
 372:lvgl/lvgl/src/core/lv_indev.c ****  * @param i pointer to an input device
ARM GAS  C:\Users\gx\AppData\Local\Temp\ccszQoK7.s 			page 8


 373:lvgl/lvgl/src/core/lv_indev.c ****  * @param data pointer to the data read from the input device
 374:lvgl/lvgl/src/core/lv_indev.c ****  */
 375:lvgl/lvgl/src/core/lv_indev.c **** static void indev_keypad_proc(lv_indev_t * i, lv_indev_data_t * data)
 376:lvgl/lvgl/src/core/lv_indev.c **** {
 377:lvgl/lvgl/src/core/lv_indev.c ****     if(data->state == LV_INDEV_STATE_PRESSED && i->proc.wait_until_release) return;
 378:lvgl/lvgl/src/core/lv_indev.c **** 
 379:lvgl/lvgl/src/core/lv_indev.c ****     if(i->proc.wait_until_release) {
 380:lvgl/lvgl/src/core/lv_indev.c ****         i->proc.wait_until_release      = 0;
 381:lvgl/lvgl/src/core/lv_indev.c ****         i->proc.pr_timestamp            = 0;
 382:lvgl/lvgl/src/core/lv_indev.c ****         i->proc.long_pr_sent            = 0;
 383:lvgl/lvgl/src/core/lv_indev.c ****         i->proc.types.keypad.last_state = LV_INDEV_STATE_RELEASED; /*To skip the processing of rele
 384:lvgl/lvgl/src/core/lv_indev.c ****     }
 385:lvgl/lvgl/src/core/lv_indev.c **** 
 386:lvgl/lvgl/src/core/lv_indev.c ****     lv_group_t * g = i->group;
 387:lvgl/lvgl/src/core/lv_indev.c ****     if(g == NULL) return;
 388:lvgl/lvgl/src/core/lv_indev.c **** 
 389:lvgl/lvgl/src/core/lv_indev.c ****     indev_obj_act = lv_group_get_focused(g);
 390:lvgl/lvgl/src/core/lv_indev.c ****     if(indev_obj_act == NULL) return;
 391:lvgl/lvgl/src/core/lv_indev.c **** 
 392:lvgl/lvgl/src/core/lv_indev.c ****     /*Save the last key to compare it with the current latter on RELEASE*/
 393:lvgl/lvgl/src/core/lv_indev.c ****     uint32_t prev_key = i->proc.types.keypad.last_key;
 394:lvgl/lvgl/src/core/lv_indev.c **** 
 395:lvgl/lvgl/src/core/lv_indev.c ****     /*Save the last key.
 396:lvgl/lvgl/src/core/lv_indev.c ****      *It must be done here else `lv_indev_get_key` will return the last key in events*/
 397:lvgl/lvgl/src/core/lv_indev.c ****     i->proc.types.keypad.last_key = data->key;
 398:lvgl/lvgl/src/core/lv_indev.c **** 
 399:lvgl/lvgl/src/core/lv_indev.c ****     /*Save the previous state so we can detect state changes below and also set the last state now
 400:lvgl/lvgl/src/core/lv_indev.c ****      *so if any event handler on the way returns `LV_RES_INV` the last state is remembered
 401:lvgl/lvgl/src/core/lv_indev.c ****      *for the next time*/
 402:lvgl/lvgl/src/core/lv_indev.c ****     uint32_t prev_state             = i->proc.types.keypad.last_state;
 403:lvgl/lvgl/src/core/lv_indev.c ****     i->proc.types.keypad.last_state = data->state;
 404:lvgl/lvgl/src/core/lv_indev.c **** 
 405:lvgl/lvgl/src/core/lv_indev.c ****     /*Key press happened*/
 406:lvgl/lvgl/src/core/lv_indev.c ****     if(data->state == LV_INDEV_STATE_PRESSED && prev_state == LV_INDEV_STATE_RELEASED) {
 407:lvgl/lvgl/src/core/lv_indev.c ****         LV_LOG_INFO("%d key is pressed", data->key);
 408:lvgl/lvgl/src/core/lv_indev.c ****         i->proc.pr_timestamp = lv_tick_get();
 409:lvgl/lvgl/src/core/lv_indev.c **** 
 410:lvgl/lvgl/src/core/lv_indev.c ****         /*Simulate a press on the object if ENTER was pressed*/
 411:lvgl/lvgl/src/core/lv_indev.c ****         if(data->key == LV_KEY_ENTER) {
 412:lvgl/lvgl/src/core/lv_indev.c ****             /*Send the ENTER as a normal KEY*/
 413:lvgl/lvgl/src/core/lv_indev.c ****             lv_group_send_data(g, LV_KEY_ENTER);
 414:lvgl/lvgl/src/core/lv_indev.c **** 
 415:lvgl/lvgl/src/core/lv_indev.c ****             lv_event_send(indev_obj_act, LV_EVENT_PRESSED, indev_act);
 416:lvgl/lvgl/src/core/lv_indev.c ****             if(indev_reset_check(&i->proc)) return;
 417:lvgl/lvgl/src/core/lv_indev.c ****         }
 418:lvgl/lvgl/src/core/lv_indev.c ****         else if(data->key == LV_KEY_ESC) {
 419:lvgl/lvgl/src/core/lv_indev.c ****             /*Send the ESC as a normal KEY*/
 420:lvgl/lvgl/src/core/lv_indev.c ****             lv_group_send_data(g, LV_KEY_ESC);
 421:lvgl/lvgl/src/core/lv_indev.c **** 
 422:lvgl/lvgl/src/core/lv_indev.c ****             lv_event_send(indev_obj_act, LV_EVENT_CANCEL, indev_act);
 423:lvgl/lvgl/src/core/lv_indev.c ****             if(indev_reset_check(&i->proc)) return;
 424:lvgl/lvgl/src/core/lv_indev.c ****         }
 425:lvgl/lvgl/src/core/lv_indev.c ****         /*Move the focus on NEXT*/
 426:lvgl/lvgl/src/core/lv_indev.c ****         else if(data->key == LV_KEY_NEXT) {
 427:lvgl/lvgl/src/core/lv_indev.c ****             lv_group_set_editing(g, false); /*Editing is not used by KEYPAD is be sure it is disabl
 428:lvgl/lvgl/src/core/lv_indev.c ****             lv_group_focus_next(g);
 429:lvgl/lvgl/src/core/lv_indev.c ****             if(indev_reset_check(&i->proc)) return;
ARM GAS  C:\Users\gx\AppData\Local\Temp\ccszQoK7.s 			page 9


 430:lvgl/lvgl/src/core/lv_indev.c ****         }
 431:lvgl/lvgl/src/core/lv_indev.c ****         /*Move the focus on PREV*/
 432:lvgl/lvgl/src/core/lv_indev.c ****         else if(data->key == LV_KEY_PREV) {
 433:lvgl/lvgl/src/core/lv_indev.c ****             lv_group_set_editing(g, false); /*Editing is not used by KEYPAD is be sure it is disabl
 434:lvgl/lvgl/src/core/lv_indev.c ****             lv_group_focus_prev(g);
 435:lvgl/lvgl/src/core/lv_indev.c ****             if(indev_reset_check(&i->proc)) return;
 436:lvgl/lvgl/src/core/lv_indev.c ****         }
 437:lvgl/lvgl/src/core/lv_indev.c ****         /*Just send other keys to the object (e.g. 'A' or `LV_GROUP_KEY_RIGHT`)*/
 438:lvgl/lvgl/src/core/lv_indev.c ****         else {
 439:lvgl/lvgl/src/core/lv_indev.c ****             lv_group_send_data(g, data->key);
 440:lvgl/lvgl/src/core/lv_indev.c ****         }
 441:lvgl/lvgl/src/core/lv_indev.c ****     }
 442:lvgl/lvgl/src/core/lv_indev.c ****     /*Pressing*/
 443:lvgl/lvgl/src/core/lv_indev.c ****     else if(data->state == LV_INDEV_STATE_PRESSED && prev_state == LV_INDEV_STATE_PRESSED) {
 444:lvgl/lvgl/src/core/lv_indev.c **** 
 445:lvgl/lvgl/src/core/lv_indev.c ****         if(data->key == LV_KEY_ENTER) {
 446:lvgl/lvgl/src/core/lv_indev.c ****             lv_event_send(indev_obj_act, LV_EVENT_PRESSING, indev_act);
 447:lvgl/lvgl/src/core/lv_indev.c ****             if(indev_reset_check(&i->proc)) return;
 448:lvgl/lvgl/src/core/lv_indev.c ****         }
 449:lvgl/lvgl/src/core/lv_indev.c **** 
 450:lvgl/lvgl/src/core/lv_indev.c ****         /*Long press time has elapsed?*/
 451:lvgl/lvgl/src/core/lv_indev.c ****         if(i->proc.long_pr_sent == 0 && lv_tick_elaps(i->proc.pr_timestamp) > i->driver->long_press
 452:lvgl/lvgl/src/core/lv_indev.c ****             i->proc.long_pr_sent = 1;
 453:lvgl/lvgl/src/core/lv_indev.c ****             if(data->key == LV_KEY_ENTER) {
 454:lvgl/lvgl/src/core/lv_indev.c ****                 i->proc.longpr_rep_timestamp = lv_tick_get();
 455:lvgl/lvgl/src/core/lv_indev.c ****                 lv_event_send(indev_obj_act, LV_EVENT_LONG_PRESSED, indev_act);
 456:lvgl/lvgl/src/core/lv_indev.c ****                 if(indev_reset_check(&i->proc)) return;
 457:lvgl/lvgl/src/core/lv_indev.c ****             }
 458:lvgl/lvgl/src/core/lv_indev.c ****         }
 459:lvgl/lvgl/src/core/lv_indev.c ****         /*Long press repeated time has elapsed?*/
 460:lvgl/lvgl/src/core/lv_indev.c ****         else if(i->proc.long_pr_sent != 0 &&
 461:lvgl/lvgl/src/core/lv_indev.c ****                 lv_tick_elaps(i->proc.longpr_rep_timestamp) > i->driver->long_press_repeat_time) {
 462:lvgl/lvgl/src/core/lv_indev.c **** 
 463:lvgl/lvgl/src/core/lv_indev.c ****             i->proc.longpr_rep_timestamp = lv_tick_get();
 464:lvgl/lvgl/src/core/lv_indev.c **** 
 465:lvgl/lvgl/src/core/lv_indev.c ****             /*Send LONG_PRESS_REP on ENTER*/
 466:lvgl/lvgl/src/core/lv_indev.c ****             if(data->key == LV_KEY_ENTER) {
 467:lvgl/lvgl/src/core/lv_indev.c ****                 lv_event_send(indev_obj_act, LV_EVENT_LONG_PRESSED_REPEAT, indev_act);
 468:lvgl/lvgl/src/core/lv_indev.c ****                 if(indev_reset_check(&i->proc)) return;
 469:lvgl/lvgl/src/core/lv_indev.c ****             }
 470:lvgl/lvgl/src/core/lv_indev.c ****             /*Move the focus on NEXT again*/
 471:lvgl/lvgl/src/core/lv_indev.c ****             else if(data->key == LV_KEY_NEXT) {
 472:lvgl/lvgl/src/core/lv_indev.c ****                 lv_group_set_editing(g, false); /*Editing is not used by KEYPAD is be sure it is di
 473:lvgl/lvgl/src/core/lv_indev.c ****                 lv_group_focus_next(g);
 474:lvgl/lvgl/src/core/lv_indev.c ****                 if(indev_reset_check(&i->proc)) return;
 475:lvgl/lvgl/src/core/lv_indev.c ****             }
 476:lvgl/lvgl/src/core/lv_indev.c ****             /*Move the focus on PREV again*/
 477:lvgl/lvgl/src/core/lv_indev.c ****             else if(data->key == LV_KEY_PREV) {
 478:lvgl/lvgl/src/core/lv_indev.c ****                 lv_group_set_editing(g, false); /*Editing is not used by KEYPAD is be sure it is di
 479:lvgl/lvgl/src/core/lv_indev.c ****                 lv_group_focus_prev(g);
 480:lvgl/lvgl/src/core/lv_indev.c ****                 if(indev_reset_check(&i->proc)) return;
 481:lvgl/lvgl/src/core/lv_indev.c ****             }
 482:lvgl/lvgl/src/core/lv_indev.c ****             /*Just send other keys again to the object (e.g. 'A' or `LV_GROUP_KEY_RIGHT)*/
 483:lvgl/lvgl/src/core/lv_indev.c ****             else {
 484:lvgl/lvgl/src/core/lv_indev.c ****                 lv_group_send_data(g, data->key);
 485:lvgl/lvgl/src/core/lv_indev.c ****                 if(indev_reset_check(&i->proc)) return;
 486:lvgl/lvgl/src/core/lv_indev.c ****             }
ARM GAS  C:\Users\gx\AppData\Local\Temp\ccszQoK7.s 			page 10


 487:lvgl/lvgl/src/core/lv_indev.c ****         }
 488:lvgl/lvgl/src/core/lv_indev.c ****     }
 489:lvgl/lvgl/src/core/lv_indev.c ****     /*Release happened*/
 490:lvgl/lvgl/src/core/lv_indev.c ****     else if(data->state == LV_INDEV_STATE_RELEASED && prev_state == LV_INDEV_STATE_PRESSED) {
 491:lvgl/lvgl/src/core/lv_indev.c ****         LV_LOG_INFO("%d key is released", data->key);
 492:lvgl/lvgl/src/core/lv_indev.c ****         /*The user might clear the key when it was released. Always release the pressed key*/
 493:lvgl/lvgl/src/core/lv_indev.c ****         data->key = prev_key;
 494:lvgl/lvgl/src/core/lv_indev.c ****         if(data->key == LV_KEY_ENTER) {
 495:lvgl/lvgl/src/core/lv_indev.c **** 
 496:lvgl/lvgl/src/core/lv_indev.c ****             lv_event_send(indev_obj_act, LV_EVENT_RELEASED, indev_act);
 497:lvgl/lvgl/src/core/lv_indev.c ****             if(indev_reset_check(&i->proc)) return;
 498:lvgl/lvgl/src/core/lv_indev.c **** 
 499:lvgl/lvgl/src/core/lv_indev.c ****             if(i->proc.long_pr_sent == 0) {
 500:lvgl/lvgl/src/core/lv_indev.c ****                 lv_event_send(indev_obj_act, LV_EVENT_SHORT_CLICKED, indev_act);
 501:lvgl/lvgl/src/core/lv_indev.c ****                 if(indev_reset_check(&i->proc)) return;
 502:lvgl/lvgl/src/core/lv_indev.c ****             }
 503:lvgl/lvgl/src/core/lv_indev.c **** 
 504:lvgl/lvgl/src/core/lv_indev.c ****             lv_event_send(indev_obj_act, LV_EVENT_CLICKED, indev_act);
 505:lvgl/lvgl/src/core/lv_indev.c ****             if(indev_reset_check(&i->proc)) return;
 506:lvgl/lvgl/src/core/lv_indev.c **** 
 507:lvgl/lvgl/src/core/lv_indev.c ****         }
 508:lvgl/lvgl/src/core/lv_indev.c ****         i->proc.pr_timestamp = 0;
 509:lvgl/lvgl/src/core/lv_indev.c ****         i->proc.long_pr_sent = 0;
 510:lvgl/lvgl/src/core/lv_indev.c ****     }
 511:lvgl/lvgl/src/core/lv_indev.c ****     indev_obj_act = NULL;
 512:lvgl/lvgl/src/core/lv_indev.c **** }
 513:lvgl/lvgl/src/core/lv_indev.c **** 
 514:lvgl/lvgl/src/core/lv_indev.c **** /**
 515:lvgl/lvgl/src/core/lv_indev.c ****  * Process a new point from LV_INDEV_TYPE_ENCODER input device
 516:lvgl/lvgl/src/core/lv_indev.c ****  * @param i pointer to an input device
 517:lvgl/lvgl/src/core/lv_indev.c ****  * @param data pointer to the data read from the input device
 518:lvgl/lvgl/src/core/lv_indev.c ****  */
 519:lvgl/lvgl/src/core/lv_indev.c **** static void indev_encoder_proc(lv_indev_t * i, lv_indev_data_t * data)
 520:lvgl/lvgl/src/core/lv_indev.c **** {
 521:lvgl/lvgl/src/core/lv_indev.c ****     if(data->state == LV_INDEV_STATE_PRESSED && i->proc.wait_until_release) return;
 522:lvgl/lvgl/src/core/lv_indev.c **** 
 523:lvgl/lvgl/src/core/lv_indev.c ****     if(i->proc.wait_until_release) {
 524:lvgl/lvgl/src/core/lv_indev.c ****         i->proc.wait_until_release      = 0;
 525:lvgl/lvgl/src/core/lv_indev.c ****         i->proc.pr_timestamp            = 0;
 526:lvgl/lvgl/src/core/lv_indev.c ****         i->proc.long_pr_sent            = 0;
 527:lvgl/lvgl/src/core/lv_indev.c ****         i->proc.types.keypad.last_state = LV_INDEV_STATE_RELEASED; /*To skip the processing of rele
 528:lvgl/lvgl/src/core/lv_indev.c ****     }
 529:lvgl/lvgl/src/core/lv_indev.c **** 
 530:lvgl/lvgl/src/core/lv_indev.c ****     /*Save the last keys before anything else.
 531:lvgl/lvgl/src/core/lv_indev.c ****      *They need to be already saved if the function returns for any reason*/
 532:lvgl/lvgl/src/core/lv_indev.c ****     lv_indev_state_t last_state     = i->proc.types.keypad.last_state;
 533:lvgl/lvgl/src/core/lv_indev.c ****     i->proc.types.keypad.last_state = data->state;
 534:lvgl/lvgl/src/core/lv_indev.c ****     i->proc.types.keypad.last_key   = data->key;
 535:lvgl/lvgl/src/core/lv_indev.c **** 
 536:lvgl/lvgl/src/core/lv_indev.c ****     lv_group_t * g = i->group;
 537:lvgl/lvgl/src/core/lv_indev.c ****     if(g == NULL) return;
 538:lvgl/lvgl/src/core/lv_indev.c **** 
 539:lvgl/lvgl/src/core/lv_indev.c ****     indev_obj_act = lv_group_get_focused(g);
 540:lvgl/lvgl/src/core/lv_indev.c ****     if(indev_obj_act == NULL) return;
 541:lvgl/lvgl/src/core/lv_indev.c **** 
 542:lvgl/lvgl/src/core/lv_indev.c ****     /*Process the steps they are valid only with released button*/
 543:lvgl/lvgl/src/core/lv_indev.c ****     if(data->state != LV_INDEV_STATE_RELEASED) {
ARM GAS  C:\Users\gx\AppData\Local\Temp\ccszQoK7.s 			page 11


 544:lvgl/lvgl/src/core/lv_indev.c ****         data->enc_diff = 0;
 545:lvgl/lvgl/src/core/lv_indev.c ****     }
 546:lvgl/lvgl/src/core/lv_indev.c **** 
 547:lvgl/lvgl/src/core/lv_indev.c ****     /*Refresh the focused object. It might change due to lv_group_focus_prev/next*/
 548:lvgl/lvgl/src/core/lv_indev.c ****     indev_obj_act = lv_group_get_focused(g);
 549:lvgl/lvgl/src/core/lv_indev.c ****     if(indev_obj_act == NULL) return;
 550:lvgl/lvgl/src/core/lv_indev.c **** 
 551:lvgl/lvgl/src/core/lv_indev.c ****     /*Button press happened*/
 552:lvgl/lvgl/src/core/lv_indev.c ****     if(data->state == LV_INDEV_STATE_PRESSED && last_state == LV_INDEV_STATE_RELEASED) {
 553:lvgl/lvgl/src/core/lv_indev.c ****         LV_LOG_INFO("pressed");
 554:lvgl/lvgl/src/core/lv_indev.c **** 
 555:lvgl/lvgl/src/core/lv_indev.c ****         i->proc.pr_timestamp = lv_tick_get();
 556:lvgl/lvgl/src/core/lv_indev.c **** 
 557:lvgl/lvgl/src/core/lv_indev.c ****         if(data->key == LV_KEY_ENTER) {
 558:lvgl/lvgl/src/core/lv_indev.c ****             bool editable_or_scrollable = lv_obj_is_editable(indev_obj_act) ||
 559:lvgl/lvgl/src/core/lv_indev.c ****                                           lv_obj_has_flag(indev_obj_act, LV_OBJ_FLAG_SCROLLABLE);
 560:lvgl/lvgl/src/core/lv_indev.c ****             if(lv_group_get_editing(g) == true || editable_or_scrollable == false) {
 561:lvgl/lvgl/src/core/lv_indev.c ****                 lv_event_send(indev_obj_act, LV_EVENT_PRESSED, indev_act);
 562:lvgl/lvgl/src/core/lv_indev.c ****                 if(indev_reset_check(&i->proc)) return;
 563:lvgl/lvgl/src/core/lv_indev.c ****             }
 564:lvgl/lvgl/src/core/lv_indev.c ****         }
 565:lvgl/lvgl/src/core/lv_indev.c ****         else if(data->key == LV_KEY_LEFT) {
 566:lvgl/lvgl/src/core/lv_indev.c ****             /*emulate encoder left*/
 567:lvgl/lvgl/src/core/lv_indev.c ****             data->enc_diff--;
 568:lvgl/lvgl/src/core/lv_indev.c ****         }
 569:lvgl/lvgl/src/core/lv_indev.c ****         else if(data->key == LV_KEY_RIGHT) {
 570:lvgl/lvgl/src/core/lv_indev.c ****             /*emulate encoder right*/
 571:lvgl/lvgl/src/core/lv_indev.c ****             data->enc_diff++;
 572:lvgl/lvgl/src/core/lv_indev.c ****         }
 573:lvgl/lvgl/src/core/lv_indev.c ****         else if(data->key == LV_KEY_ESC) {
 574:lvgl/lvgl/src/core/lv_indev.c ****             /*Send the ESC as a normal KEY*/
 575:lvgl/lvgl/src/core/lv_indev.c ****             lv_group_send_data(g, LV_KEY_ESC);
 576:lvgl/lvgl/src/core/lv_indev.c **** 
 577:lvgl/lvgl/src/core/lv_indev.c ****             lv_event_send(indev_obj_act, LV_EVENT_CANCEL, indev_act);
 578:lvgl/lvgl/src/core/lv_indev.c ****             if(indev_reset_check(&i->proc)) return;
 579:lvgl/lvgl/src/core/lv_indev.c ****         }
 580:lvgl/lvgl/src/core/lv_indev.c ****         /*Just send other keys to the object (e.g. 'A' or `LV_GROUP_KEY_RIGHT`)*/
 581:lvgl/lvgl/src/core/lv_indev.c ****         else {
 582:lvgl/lvgl/src/core/lv_indev.c ****             lv_group_send_data(g, data->key);
 583:lvgl/lvgl/src/core/lv_indev.c ****         }
 584:lvgl/lvgl/src/core/lv_indev.c ****     }
 585:lvgl/lvgl/src/core/lv_indev.c ****     /*Pressing*/
 586:lvgl/lvgl/src/core/lv_indev.c ****     else if(data->state == LV_INDEV_STATE_PRESSED && last_state == LV_INDEV_STATE_PRESSED) {
 587:lvgl/lvgl/src/core/lv_indev.c ****         /*Long press*/
 588:lvgl/lvgl/src/core/lv_indev.c ****         if(i->proc.long_pr_sent == 0 && lv_tick_elaps(i->proc.pr_timestamp) > i->driver->long_press
 589:lvgl/lvgl/src/core/lv_indev.c **** 
 590:lvgl/lvgl/src/core/lv_indev.c ****             i->proc.long_pr_sent = 1;
 591:lvgl/lvgl/src/core/lv_indev.c ****             i->proc.longpr_rep_timestamp = lv_tick_get();
 592:lvgl/lvgl/src/core/lv_indev.c **** 
 593:lvgl/lvgl/src/core/lv_indev.c ****             if(data->key == LV_KEY_ENTER) {
 594:lvgl/lvgl/src/core/lv_indev.c ****                 bool editable_or_scrollable = lv_obj_is_editable(indev_obj_act) ||
 595:lvgl/lvgl/src/core/lv_indev.c ****                                               lv_obj_has_flag(indev_obj_act, LV_OBJ_FLAG_SCROLLABLE
 596:lvgl/lvgl/src/core/lv_indev.c **** 
 597:lvgl/lvgl/src/core/lv_indev.c ****                 /*On enter long press toggle edit mode.*/
 598:lvgl/lvgl/src/core/lv_indev.c ****                 if(editable_or_scrollable) {
 599:lvgl/lvgl/src/core/lv_indev.c ****                     /*Don't leave edit mode if there is only one object (nowhere to navigate)*/
 600:lvgl/lvgl/src/core/lv_indev.c ****                     if(lv_group_get_obj_count(g) > 1) {
ARM GAS  C:\Users\gx\AppData\Local\Temp\ccszQoK7.s 			page 12


 601:lvgl/lvgl/src/core/lv_indev.c ****                         LV_LOG_INFO("toggling edit mode");
 602:lvgl/lvgl/src/core/lv_indev.c ****                         lv_group_set_editing(g, lv_group_get_editing(g) ? false : true); /*Toggle e
 603:lvgl/lvgl/src/core/lv_indev.c ****                         lv_obj_clear_state(indev_obj_act, LV_STATE_PRESSED);    /*Remove the presse
 604:lvgl/lvgl/src/core/lv_indev.c ****                     }
 605:lvgl/lvgl/src/core/lv_indev.c ****                 }
 606:lvgl/lvgl/src/core/lv_indev.c ****                 /*If not editable then just send a long press Call the ancestor's event handler*/
 607:lvgl/lvgl/src/core/lv_indev.c ****                 else {
 608:lvgl/lvgl/src/core/lv_indev.c ****                     lv_event_send(indev_obj_act, LV_EVENT_LONG_PRESSED, indev_act);
 609:lvgl/lvgl/src/core/lv_indev.c ****                     if(indev_reset_check(&i->proc)) return;
 610:lvgl/lvgl/src/core/lv_indev.c ****                 }
 611:lvgl/lvgl/src/core/lv_indev.c ****             }
 612:lvgl/lvgl/src/core/lv_indev.c **** 
 613:lvgl/lvgl/src/core/lv_indev.c ****             i->proc.long_pr_sent = 1;
 614:lvgl/lvgl/src/core/lv_indev.c ****         }
 615:lvgl/lvgl/src/core/lv_indev.c ****         /*Long press repeated time has elapsed?*/
 616:lvgl/lvgl/src/core/lv_indev.c ****         else if(i->proc.long_pr_sent != 0 && lv_tick_elaps(i->proc.longpr_rep_timestamp) > i->drive
 617:lvgl/lvgl/src/core/lv_indev.c **** 
 618:lvgl/lvgl/src/core/lv_indev.c ****             i->proc.longpr_rep_timestamp = lv_tick_get();
 619:lvgl/lvgl/src/core/lv_indev.c **** 
 620:lvgl/lvgl/src/core/lv_indev.c ****             if(data->key == LV_KEY_ENTER) {
 621:lvgl/lvgl/src/core/lv_indev.c ****                 lv_event_send(indev_obj_act, LV_EVENT_LONG_PRESSED_REPEAT, indev_act);
 622:lvgl/lvgl/src/core/lv_indev.c ****                 if(indev_reset_check(&i->proc)) return;
 623:lvgl/lvgl/src/core/lv_indev.c ****             }
 624:lvgl/lvgl/src/core/lv_indev.c ****             else if(data->key == LV_KEY_LEFT) {
 625:lvgl/lvgl/src/core/lv_indev.c ****                 /*emulate encoder left*/
 626:lvgl/lvgl/src/core/lv_indev.c ****                 data->enc_diff--;
 627:lvgl/lvgl/src/core/lv_indev.c ****             }
 628:lvgl/lvgl/src/core/lv_indev.c ****             else if(data->key == LV_KEY_RIGHT) {
 629:lvgl/lvgl/src/core/lv_indev.c ****                 /*emulate encoder right*/
 630:lvgl/lvgl/src/core/lv_indev.c ****                 data->enc_diff++;
 631:lvgl/lvgl/src/core/lv_indev.c ****             }
 632:lvgl/lvgl/src/core/lv_indev.c ****             else {
 633:lvgl/lvgl/src/core/lv_indev.c ****                 lv_group_send_data(g, data->key);
 634:lvgl/lvgl/src/core/lv_indev.c ****                 if(indev_reset_check(&i->proc)) return;
 635:lvgl/lvgl/src/core/lv_indev.c ****             }
 636:lvgl/lvgl/src/core/lv_indev.c **** 
 637:lvgl/lvgl/src/core/lv_indev.c ****         }
 638:lvgl/lvgl/src/core/lv_indev.c **** 
 639:lvgl/lvgl/src/core/lv_indev.c ****     }
 640:lvgl/lvgl/src/core/lv_indev.c ****     /*Release happened*/
 641:lvgl/lvgl/src/core/lv_indev.c ****     else if(data->state == LV_INDEV_STATE_RELEASED && last_state == LV_INDEV_STATE_PRESSED) {
 642:lvgl/lvgl/src/core/lv_indev.c ****         LV_LOG_INFO("released");
 643:lvgl/lvgl/src/core/lv_indev.c **** 
 644:lvgl/lvgl/src/core/lv_indev.c ****         if(data->key == LV_KEY_ENTER) {
 645:lvgl/lvgl/src/core/lv_indev.c ****             bool editable_or_scrollable = lv_obj_is_editable(indev_obj_act) ||
 646:lvgl/lvgl/src/core/lv_indev.c ****                                           lv_obj_has_flag(indev_obj_act, LV_OBJ_FLAG_SCROLLABLE);
 647:lvgl/lvgl/src/core/lv_indev.c **** 
 648:lvgl/lvgl/src/core/lv_indev.c ****             /*The button was released on a non-editable object. Just send enter*/
 649:lvgl/lvgl/src/core/lv_indev.c ****             if(editable_or_scrollable == false) {
 650:lvgl/lvgl/src/core/lv_indev.c ****                 lv_event_send(indev_obj_act, LV_EVENT_RELEASED, indev_act);
 651:lvgl/lvgl/src/core/lv_indev.c ****                 if(indev_reset_check(&i->proc)) return;
 652:lvgl/lvgl/src/core/lv_indev.c **** 
 653:lvgl/lvgl/src/core/lv_indev.c ****                 if(i->proc.long_pr_sent == 0) lv_event_send(indev_obj_act, LV_EVENT_SHORT_CLICKED, 
 654:lvgl/lvgl/src/core/lv_indev.c ****                 if(indev_reset_check(&i->proc)) return;
 655:lvgl/lvgl/src/core/lv_indev.c **** 
 656:lvgl/lvgl/src/core/lv_indev.c ****                 lv_event_send(indev_obj_act, LV_EVENT_CLICKED, indev_act);
 657:lvgl/lvgl/src/core/lv_indev.c ****                 if(indev_reset_check(&i->proc)) return;
ARM GAS  C:\Users\gx\AppData\Local\Temp\ccszQoK7.s 			page 13


 658:lvgl/lvgl/src/core/lv_indev.c **** 
 659:lvgl/lvgl/src/core/lv_indev.c ****             }
 660:lvgl/lvgl/src/core/lv_indev.c ****             /*An object is being edited and the button is released.*/
 661:lvgl/lvgl/src/core/lv_indev.c ****             else if(lv_group_get_editing(g)) {
 662:lvgl/lvgl/src/core/lv_indev.c ****                 /*Ignore long pressed enter release because it comes from mode switch*/
 663:lvgl/lvgl/src/core/lv_indev.c ****                 if(!i->proc.long_pr_sent || lv_group_get_obj_count(g) <= 1) {
 664:lvgl/lvgl/src/core/lv_indev.c ****                     lv_event_send(indev_obj_act, LV_EVENT_RELEASED, indev_act);
 665:lvgl/lvgl/src/core/lv_indev.c ****                     if(indev_reset_check(&i->proc)) return;
 666:lvgl/lvgl/src/core/lv_indev.c **** 
 667:lvgl/lvgl/src/core/lv_indev.c ****                     lv_event_send(indev_obj_act, LV_EVENT_SHORT_CLICKED, indev_act);
 668:lvgl/lvgl/src/core/lv_indev.c ****                     if(indev_reset_check(&i->proc)) return;
 669:lvgl/lvgl/src/core/lv_indev.c **** 
 670:lvgl/lvgl/src/core/lv_indev.c ****                     lv_event_send(indev_obj_act, LV_EVENT_CLICKED, indev_act);
 671:lvgl/lvgl/src/core/lv_indev.c ****                     if(indev_reset_check(&i->proc)) return;
 672:lvgl/lvgl/src/core/lv_indev.c **** 
 673:lvgl/lvgl/src/core/lv_indev.c **** 
 674:lvgl/lvgl/src/core/lv_indev.c ****                     lv_group_send_data(g, LV_KEY_ENTER);
 675:lvgl/lvgl/src/core/lv_indev.c ****                 } else {
 676:lvgl/lvgl/src/core/lv_indev.c ****                     lv_obj_clear_state(indev_obj_act, LV_STATE_PRESSED);    /*Remove the pressed st
 677:lvgl/lvgl/src/core/lv_indev.c ****                 }
 678:lvgl/lvgl/src/core/lv_indev.c ****             }
 679:lvgl/lvgl/src/core/lv_indev.c ****             /*If the focused object is editable and now in navigate mode then on enter switch edit
 680:lvgl/lvgl/src/core/lv_indev.c ****                mode*/
 681:lvgl/lvgl/src/core/lv_indev.c ****             else if(!i->proc.long_pr_sent) {
 682:lvgl/lvgl/src/core/lv_indev.c ****                 LV_LOG_INFO("entering edit mode");
 683:lvgl/lvgl/src/core/lv_indev.c ****                 lv_group_set_editing(g, true); /*Set edit mode*/
 684:lvgl/lvgl/src/core/lv_indev.c ****             }
 685:lvgl/lvgl/src/core/lv_indev.c ****         }
 686:lvgl/lvgl/src/core/lv_indev.c **** 
 687:lvgl/lvgl/src/core/lv_indev.c ****         i->proc.pr_timestamp = 0;
 688:lvgl/lvgl/src/core/lv_indev.c ****         i->proc.long_pr_sent = 0;
 689:lvgl/lvgl/src/core/lv_indev.c ****     }
 690:lvgl/lvgl/src/core/lv_indev.c ****     indev_obj_act = NULL;
 691:lvgl/lvgl/src/core/lv_indev.c **** 
 692:lvgl/lvgl/src/core/lv_indev.c ****     /*if encoder steps or simulated steps via left/right keys*/
 693:lvgl/lvgl/src/core/lv_indev.c ****     if(data->enc_diff != 0) {
 694:lvgl/lvgl/src/core/lv_indev.c ****         /*In edit mode send LEFT/RIGHT keys*/
 695:lvgl/lvgl/src/core/lv_indev.c ****         if(lv_group_get_editing(g)) {
 696:lvgl/lvgl/src/core/lv_indev.c ****             LV_LOG_INFO("rotated by %+d (edit)", data->enc_diff);
 697:lvgl/lvgl/src/core/lv_indev.c ****             int32_t s;
 698:lvgl/lvgl/src/core/lv_indev.c ****             if(data->enc_diff < 0) {
 699:lvgl/lvgl/src/core/lv_indev.c ****                 for(s = 0; s < -data->enc_diff; s++) lv_group_send_data(g, LV_KEY_LEFT);
 700:lvgl/lvgl/src/core/lv_indev.c ****             }
 701:lvgl/lvgl/src/core/lv_indev.c ****             else if(data->enc_diff > 0) {
 702:lvgl/lvgl/src/core/lv_indev.c ****                 for(s = 0; s < data->enc_diff; s++) lv_group_send_data(g, LV_KEY_RIGHT);
 703:lvgl/lvgl/src/core/lv_indev.c ****             }
 704:lvgl/lvgl/src/core/lv_indev.c ****         }
 705:lvgl/lvgl/src/core/lv_indev.c ****         /*In navigate mode focus on the next/prev objects*/
 706:lvgl/lvgl/src/core/lv_indev.c ****         else {
 707:lvgl/lvgl/src/core/lv_indev.c ****             LV_LOG_INFO("rotated by %+d (nav)", data->enc_diff);
 708:lvgl/lvgl/src/core/lv_indev.c ****             int32_t s;
 709:lvgl/lvgl/src/core/lv_indev.c ****             if(data->enc_diff < 0) {
 710:lvgl/lvgl/src/core/lv_indev.c ****                 for(s = 0; s < -data->enc_diff; s++) lv_group_focus_prev(g);
 711:lvgl/lvgl/src/core/lv_indev.c ****             }
 712:lvgl/lvgl/src/core/lv_indev.c ****             else if(data->enc_diff > 0) {
 713:lvgl/lvgl/src/core/lv_indev.c ****                 for(s = 0; s < data->enc_diff; s++) lv_group_focus_next(g);
 714:lvgl/lvgl/src/core/lv_indev.c ****             }
ARM GAS  C:\Users\gx\AppData\Local\Temp\ccszQoK7.s 			page 14


 715:lvgl/lvgl/src/core/lv_indev.c ****         }
 716:lvgl/lvgl/src/core/lv_indev.c ****     }
 717:lvgl/lvgl/src/core/lv_indev.c **** }
 718:lvgl/lvgl/src/core/lv_indev.c **** 
 719:lvgl/lvgl/src/core/lv_indev.c **** /**
 720:lvgl/lvgl/src/core/lv_indev.c ****  * Process new points from a input device. indev->state.pressed has to be set
 721:lvgl/lvgl/src/core/lv_indev.c ****  * @param indev pointer to an input device state
 722:lvgl/lvgl/src/core/lv_indev.c ****  * @param x x coordinate of the next point
 723:lvgl/lvgl/src/core/lv_indev.c ****  * @param y y coordinate of the next point
 724:lvgl/lvgl/src/core/lv_indev.c ****  */
 725:lvgl/lvgl/src/core/lv_indev.c **** static void indev_button_proc(lv_indev_t * i, lv_indev_data_t * data)
 726:lvgl/lvgl/src/core/lv_indev.c **** {
 727:lvgl/lvgl/src/core/lv_indev.c ****     /*Die gracefully if i->btn_points is NULL*/
 728:lvgl/lvgl/src/core/lv_indev.c ****     if(i->btn_points == NULL) {
 729:lvgl/lvgl/src/core/lv_indev.c ****         LV_LOG_WARN("btn_points is NULL");
 730:lvgl/lvgl/src/core/lv_indev.c ****         return;
 731:lvgl/lvgl/src/core/lv_indev.c ****     }
 732:lvgl/lvgl/src/core/lv_indev.c **** 
 733:lvgl/lvgl/src/core/lv_indev.c ****     lv_coord_t x = i->btn_points[data->btn_id].x;
 734:lvgl/lvgl/src/core/lv_indev.c ****     lv_coord_t y = i->btn_points[data->btn_id].y;
 735:lvgl/lvgl/src/core/lv_indev.c **** 
 736:lvgl/lvgl/src/core/lv_indev.c ****     static lv_indev_state_t prev_state = LV_INDEV_STATE_RELEASED;
 737:lvgl/lvgl/src/core/lv_indev.c ****     if(prev_state != data->state) {
 738:lvgl/lvgl/src/core/lv_indev.c ****         if(data->state == LV_INDEV_STATE_PRESSED) {
 739:lvgl/lvgl/src/core/lv_indev.c ****             LV_LOG_INFO("button %d is pressed (x:%d y:%d)", data->btn_id, x, y);
 740:lvgl/lvgl/src/core/lv_indev.c ****         }
 741:lvgl/lvgl/src/core/lv_indev.c ****         else {
 742:lvgl/lvgl/src/core/lv_indev.c ****             LV_LOG_INFO("button %d is released (x:%d y:%d)", data->btn_id, x, y);
 743:lvgl/lvgl/src/core/lv_indev.c ****         }
 744:lvgl/lvgl/src/core/lv_indev.c ****     }
 745:lvgl/lvgl/src/core/lv_indev.c **** 
 746:lvgl/lvgl/src/core/lv_indev.c ****     /*If a new point comes always make a release*/
 747:lvgl/lvgl/src/core/lv_indev.c ****     if(data->state == LV_INDEV_STATE_PRESSED) {
 748:lvgl/lvgl/src/core/lv_indev.c ****         if(i->proc.types.pointer.last_point.x != x ||
 749:lvgl/lvgl/src/core/lv_indev.c ****            i->proc.types.pointer.last_point.y != y) {
 750:lvgl/lvgl/src/core/lv_indev.c ****             indev_proc_release(&i->proc);
 751:lvgl/lvgl/src/core/lv_indev.c ****         }
 752:lvgl/lvgl/src/core/lv_indev.c ****     }
 753:lvgl/lvgl/src/core/lv_indev.c **** 
 754:lvgl/lvgl/src/core/lv_indev.c ****     if(indev_reset_check(&i->proc)) return;
 755:lvgl/lvgl/src/core/lv_indev.c **** 
 756:lvgl/lvgl/src/core/lv_indev.c ****     /*Save the new points*/
 757:lvgl/lvgl/src/core/lv_indev.c ****     i->proc.types.pointer.act_point.x = x;
 758:lvgl/lvgl/src/core/lv_indev.c ****     i->proc.types.pointer.act_point.y = y;
 759:lvgl/lvgl/src/core/lv_indev.c **** 
 760:lvgl/lvgl/src/core/lv_indev.c ****     if(data->state == LV_INDEV_STATE_PRESSED) indev_proc_press(&i->proc);
 761:lvgl/lvgl/src/core/lv_indev.c ****     else indev_proc_release(&i->proc);
 762:lvgl/lvgl/src/core/lv_indev.c **** 
 763:lvgl/lvgl/src/core/lv_indev.c ****     if(indev_reset_check(&i->proc)) return;
 764:lvgl/lvgl/src/core/lv_indev.c **** 
 765:lvgl/lvgl/src/core/lv_indev.c ****     i->proc.types.pointer.last_point.x = i->proc.types.pointer.act_point.x;
 766:lvgl/lvgl/src/core/lv_indev.c ****     i->proc.types.pointer.last_point.y = i->proc.types.pointer.act_point.y;
 767:lvgl/lvgl/src/core/lv_indev.c **** }
 768:lvgl/lvgl/src/core/lv_indev.c **** 
 769:lvgl/lvgl/src/core/lv_indev.c **** /**
 770:lvgl/lvgl/src/core/lv_indev.c ****  * Process the pressed state of LV_INDEV_TYPE_POINTER input devices
 771:lvgl/lvgl/src/core/lv_indev.c ****  * @param indev pointer to an input device 'proc'
ARM GAS  C:\Users\gx\AppData\Local\Temp\ccszQoK7.s 			page 15


 772:lvgl/lvgl/src/core/lv_indev.c ****  * @return LV_RES_OK: no indev reset required; LV_RES_INV: indev reset is required
 773:lvgl/lvgl/src/core/lv_indev.c ****  */
 774:lvgl/lvgl/src/core/lv_indev.c **** static void indev_proc_press(_lv_indev_proc_t * proc)
 775:lvgl/lvgl/src/core/lv_indev.c **** {
 776:lvgl/lvgl/src/core/lv_indev.c ****     LV_LOG_INFO("pressed at x:%d y:%d", proc->types.pointer.act_point.x, proc->types.pointer.act_po
 777:lvgl/lvgl/src/core/lv_indev.c ****     indev_obj_act = proc->types.pointer.act_obj;
 778:lvgl/lvgl/src/core/lv_indev.c **** 
 779:lvgl/lvgl/src/core/lv_indev.c ****     if(proc->wait_until_release != 0) return;
 780:lvgl/lvgl/src/core/lv_indev.c **** 
 781:lvgl/lvgl/src/core/lv_indev.c ****     lv_disp_t * disp = indev_act->driver->disp;
 782:lvgl/lvgl/src/core/lv_indev.c ****     bool new_obj_searched = false;
 783:lvgl/lvgl/src/core/lv_indev.c **** 
 784:lvgl/lvgl/src/core/lv_indev.c ****     /*If there is no last object then search*/
 785:lvgl/lvgl/src/core/lv_indev.c ****     if(indev_obj_act == NULL) {
 786:lvgl/lvgl/src/core/lv_indev.c ****         indev_obj_act = lv_indev_search_obj(lv_disp_get_layer_sys(disp), &proc->types.pointer.act_p
 787:lvgl/lvgl/src/core/lv_indev.c ****         if(indev_obj_act == NULL) indev_obj_act = lv_indev_search_obj(lv_disp_get_layer_top(disp),
 788:lvgl/lvgl/src/core/lv_indev.c ****                                                                           &proc->types.pointer.act_
 789:lvgl/lvgl/src/core/lv_indev.c ****         if(indev_obj_act == NULL) indev_obj_act = lv_indev_search_obj(lv_disp_get_scr_act(disp),
 790:lvgl/lvgl/src/core/lv_indev.c ****                                                                           &proc->types.pointer.act_
 791:lvgl/lvgl/src/core/lv_indev.c ****         new_obj_searched = true;
 792:lvgl/lvgl/src/core/lv_indev.c ****     }
 793:lvgl/lvgl/src/core/lv_indev.c ****     /*If there is last object but it is not scrolled and not protected also search*/
 794:lvgl/lvgl/src/core/lv_indev.c ****     else if(proc->types.pointer.scroll_obj == NULL &&
 795:lvgl/lvgl/src/core/lv_indev.c ****             lv_obj_has_flag(indev_obj_act, LV_OBJ_FLAG_PRESS_LOCK) == false) {
 796:lvgl/lvgl/src/core/lv_indev.c ****         indev_obj_act = lv_indev_search_obj(lv_disp_get_layer_sys(disp), &proc->types.pointer.act_p
 797:lvgl/lvgl/src/core/lv_indev.c ****         if(indev_obj_act == NULL) indev_obj_act = lv_indev_search_obj(lv_disp_get_layer_top(disp),
 798:lvgl/lvgl/src/core/lv_indev.c ****                                                                           &proc->types.pointer.act_
 799:lvgl/lvgl/src/core/lv_indev.c ****         if(indev_obj_act == NULL) indev_obj_act = lv_indev_search_obj(lv_disp_get_scr_act(disp),
 800:lvgl/lvgl/src/core/lv_indev.c ****                                                                           &proc->types.pointer.act_
 801:lvgl/lvgl/src/core/lv_indev.c ****         new_obj_searched = true;
 802:lvgl/lvgl/src/core/lv_indev.c ****     }
 803:lvgl/lvgl/src/core/lv_indev.c **** 
 804:lvgl/lvgl/src/core/lv_indev.c ****     /*The last object might have scroll throw. Stop it manually*/
 805:lvgl/lvgl/src/core/lv_indev.c ****     if(new_obj_searched && proc->types.pointer.last_obj) {
 806:lvgl/lvgl/src/core/lv_indev.c ****         proc->types.pointer.scroll_throw_vect.x = 0;
 807:lvgl/lvgl/src/core/lv_indev.c ****         proc->types.pointer.scroll_throw_vect.y = 0;
 808:lvgl/lvgl/src/core/lv_indev.c ****         _lv_indev_scroll_throw_handler(proc);
 809:lvgl/lvgl/src/core/lv_indev.c ****         if(indev_reset_check(proc)) return;
 810:lvgl/lvgl/src/core/lv_indev.c ****     }
 811:lvgl/lvgl/src/core/lv_indev.c **** 
 812:lvgl/lvgl/src/core/lv_indev.c ****     /*If a new object was found reset some variables and send a pressed Call the ancestor's event h
 813:lvgl/lvgl/src/core/lv_indev.c ****     if(indev_obj_act != proc->types.pointer.act_obj) {
 814:lvgl/lvgl/src/core/lv_indev.c ****         proc->types.pointer.last_point.x = proc->types.pointer.act_point.x;
 815:lvgl/lvgl/src/core/lv_indev.c ****         proc->types.pointer.last_point.y = proc->types.pointer.act_point.y;
 816:lvgl/lvgl/src/core/lv_indev.c **** 
 817:lvgl/lvgl/src/core/lv_indev.c ****         /*If a new object found the previous was lost, so send a Call the ancestor's event handler*
 818:lvgl/lvgl/src/core/lv_indev.c ****         if(proc->types.pointer.act_obj != NULL) {
 819:lvgl/lvgl/src/core/lv_indev.c ****             /*Save the obj because in special cases `act_obj` can change in the Call the ancestor's
 820:lvgl/lvgl/src/core/lv_indev.c ****             lv_obj_t * last_obj = proc->types.pointer.act_obj;
 821:lvgl/lvgl/src/core/lv_indev.c **** 
 822:lvgl/lvgl/src/core/lv_indev.c ****             lv_event_send(last_obj, LV_EVENT_PRESS_LOST, indev_act);
 823:lvgl/lvgl/src/core/lv_indev.c ****             if(indev_reset_check(proc)) return;
 824:lvgl/lvgl/src/core/lv_indev.c ****         }
 825:lvgl/lvgl/src/core/lv_indev.c **** 
 826:lvgl/lvgl/src/core/lv_indev.c ****         proc->types.pointer.act_obj  = indev_obj_act; /*Save the pressed object*/
 827:lvgl/lvgl/src/core/lv_indev.c ****         proc->types.pointer.last_obj = indev_obj_act;
 828:lvgl/lvgl/src/core/lv_indev.c **** 
ARM GAS  C:\Users\gx\AppData\Local\Temp\ccszQoK7.s 			page 16


 829:lvgl/lvgl/src/core/lv_indev.c ****         if(indev_obj_act != NULL) {
 830:lvgl/lvgl/src/core/lv_indev.c ****             /*Save the time when the obj pressed to count long press time.*/
 831:lvgl/lvgl/src/core/lv_indev.c ****             proc->pr_timestamp                 = lv_tick_get();
 832:lvgl/lvgl/src/core/lv_indev.c ****             proc->long_pr_sent                 = 0;
 833:lvgl/lvgl/src/core/lv_indev.c ****             proc->types.pointer.scroll_sum.x     = 0;
 834:lvgl/lvgl/src/core/lv_indev.c ****             proc->types.pointer.scroll_sum.y     = 0;
 835:lvgl/lvgl/src/core/lv_indev.c ****             proc->types.pointer.scroll_dir = LV_DIR_NONE;
 836:lvgl/lvgl/src/core/lv_indev.c ****             proc->types.pointer.gesture_dir = LV_DIR_NONE;
 837:lvgl/lvgl/src/core/lv_indev.c ****             proc->types.pointer.gesture_sent   = 0;
 838:lvgl/lvgl/src/core/lv_indev.c ****             proc->types.pointer.gesture_sum.x  = 0;
 839:lvgl/lvgl/src/core/lv_indev.c ****             proc->types.pointer.gesture_sum.y  = 0;
 840:lvgl/lvgl/src/core/lv_indev.c ****             proc->types.pointer.vect.x         = 0;
 841:lvgl/lvgl/src/core/lv_indev.c ****             proc->types.pointer.vect.y         = 0;
 842:lvgl/lvgl/src/core/lv_indev.c **** 
 843:lvgl/lvgl/src/core/lv_indev.c ****             /*Call the ancestor's event handler about the press*/
 844:lvgl/lvgl/src/core/lv_indev.c ****             lv_event_send(indev_obj_act, LV_EVENT_PRESSED, indev_act);
 845:lvgl/lvgl/src/core/lv_indev.c ****             if(indev_reset_check(proc)) return;
 846:lvgl/lvgl/src/core/lv_indev.c **** 
 847:lvgl/lvgl/src/core/lv_indev.c ****             if(indev_act->proc.wait_until_release) return;
 848:lvgl/lvgl/src/core/lv_indev.c **** 
 849:lvgl/lvgl/src/core/lv_indev.c ****             /*Handle focus*/
 850:lvgl/lvgl/src/core/lv_indev.c ****             indev_click_focus(&indev_act->proc);
 851:lvgl/lvgl/src/core/lv_indev.c ****             if(indev_reset_check(proc)) return;
 852:lvgl/lvgl/src/core/lv_indev.c **** 
 853:lvgl/lvgl/src/core/lv_indev.c ****         }
 854:lvgl/lvgl/src/core/lv_indev.c ****     }
 855:lvgl/lvgl/src/core/lv_indev.c **** 
 856:lvgl/lvgl/src/core/lv_indev.c ****     /*Calculate the vector and apply a low pass filter: new value = 0.5 * old_value + 0.5 * new_val
 857:lvgl/lvgl/src/core/lv_indev.c ****     proc->types.pointer.vect.x = proc->types.pointer.act_point.x - proc->types.pointer.last_point.x
 858:lvgl/lvgl/src/core/lv_indev.c ****     proc->types.pointer.vect.y = proc->types.pointer.act_point.y - proc->types.pointer.last_point.y
 859:lvgl/lvgl/src/core/lv_indev.c **** 
 860:lvgl/lvgl/src/core/lv_indev.c ****     proc->types.pointer.scroll_throw_vect.x = (proc->types.pointer.scroll_throw_vect.x * 4) >> 3;
 861:lvgl/lvgl/src/core/lv_indev.c ****     proc->types.pointer.scroll_throw_vect.y = (proc->types.pointer.scroll_throw_vect.y * 4) >> 3;
 862:lvgl/lvgl/src/core/lv_indev.c **** 
 863:lvgl/lvgl/src/core/lv_indev.c ****     proc->types.pointer.scroll_throw_vect.x += (proc->types.pointer.vect.x * 4) >> 3;
 864:lvgl/lvgl/src/core/lv_indev.c ****     proc->types.pointer.scroll_throw_vect.y += (proc->types.pointer.vect.y * 4) >> 3;
 865:lvgl/lvgl/src/core/lv_indev.c **** 
 866:lvgl/lvgl/src/core/lv_indev.c ****     proc->types.pointer.scroll_throw_vect_ori = proc->types.pointer.scroll_throw_vect;
 867:lvgl/lvgl/src/core/lv_indev.c **** 
 868:lvgl/lvgl/src/core/lv_indev.c ****     if(indev_obj_act) {
 869:lvgl/lvgl/src/core/lv_indev.c ****         lv_event_send(indev_obj_act, LV_EVENT_PRESSING, indev_act);
 870:lvgl/lvgl/src/core/lv_indev.c ****         if(indev_reset_check(proc)) return;
 871:lvgl/lvgl/src/core/lv_indev.c **** 
 872:lvgl/lvgl/src/core/lv_indev.c ****         if(indev_act->proc.wait_until_release) return;
 873:lvgl/lvgl/src/core/lv_indev.c **** 
 874:lvgl/lvgl/src/core/lv_indev.c ****         _lv_indev_scroll_handler(proc);
 875:lvgl/lvgl/src/core/lv_indev.c ****         if(indev_reset_check(proc)) return;
 876:lvgl/lvgl/src/core/lv_indev.c ****         indev_gesture(proc);
 877:lvgl/lvgl/src/core/lv_indev.c ****         if(indev_reset_check(proc)) return;
 878:lvgl/lvgl/src/core/lv_indev.c **** 
 879:lvgl/lvgl/src/core/lv_indev.c ****         /*If there is no scrolling then check for long press time*/
 880:lvgl/lvgl/src/core/lv_indev.c ****         if(proc->types.pointer.scroll_obj == NULL && proc->long_pr_sent == 0) {
 881:lvgl/lvgl/src/core/lv_indev.c ****             /*Call the ancestor's event handler about the long press if enough time elapsed*/
 882:lvgl/lvgl/src/core/lv_indev.c ****             if(lv_tick_elaps(proc->pr_timestamp) > indev_act->driver->long_press_time) {
 883:lvgl/lvgl/src/core/lv_indev.c ****                 lv_event_send(indev_obj_act, LV_EVENT_LONG_PRESSED, indev_act);
 884:lvgl/lvgl/src/core/lv_indev.c ****                 if(indev_reset_check(proc)) return;
 885:lvgl/lvgl/src/core/lv_indev.c **** 
ARM GAS  C:\Users\gx\AppData\Local\Temp\ccszQoK7.s 			page 17


 886:lvgl/lvgl/src/core/lv_indev.c ****                 /*Mark the Call the ancestor's event handler sending to do not send it again*/
 887:lvgl/lvgl/src/core/lv_indev.c ****                 proc->long_pr_sent = 1;
 888:lvgl/lvgl/src/core/lv_indev.c **** 
 889:lvgl/lvgl/src/core/lv_indev.c ****                 /*Save the long press time stamp for the long press repeat handler*/
 890:lvgl/lvgl/src/core/lv_indev.c ****                 proc->longpr_rep_timestamp = lv_tick_get();
 891:lvgl/lvgl/src/core/lv_indev.c ****             }
 892:lvgl/lvgl/src/core/lv_indev.c ****         }
 893:lvgl/lvgl/src/core/lv_indev.c **** 
 894:lvgl/lvgl/src/core/lv_indev.c ****         /*Send long press repeated Call the ancestor's event handler*/
 895:lvgl/lvgl/src/core/lv_indev.c ****         if(proc->types.pointer.scroll_obj == NULL && proc->long_pr_sent == 1) {
 896:lvgl/lvgl/src/core/lv_indev.c ****             /*Call the ancestor's event handler about the long press repeat if enough time elapsed*
 897:lvgl/lvgl/src/core/lv_indev.c ****             if(lv_tick_elaps(proc->longpr_rep_timestamp) > indev_act->driver->long_press_repeat_tim
 898:lvgl/lvgl/src/core/lv_indev.c ****                 lv_event_send(indev_obj_act, LV_EVENT_LONG_PRESSED_REPEAT, indev_act);
 899:lvgl/lvgl/src/core/lv_indev.c ****                 if(indev_reset_check(proc)) return;
 900:lvgl/lvgl/src/core/lv_indev.c ****                 proc->longpr_rep_timestamp = lv_tick_get();
 901:lvgl/lvgl/src/core/lv_indev.c ****             }
 902:lvgl/lvgl/src/core/lv_indev.c ****         }
 903:lvgl/lvgl/src/core/lv_indev.c ****     }
 904:lvgl/lvgl/src/core/lv_indev.c **** }
 905:lvgl/lvgl/src/core/lv_indev.c **** 
 906:lvgl/lvgl/src/core/lv_indev.c **** /**
 907:lvgl/lvgl/src/core/lv_indev.c ****  * Process the released state of LV_INDEV_TYPE_POINTER input devices
 908:lvgl/lvgl/src/core/lv_indev.c ****  * @param proc pointer to an input device 'proc'
 909:lvgl/lvgl/src/core/lv_indev.c ****  */
 910:lvgl/lvgl/src/core/lv_indev.c **** static void indev_proc_release(_lv_indev_proc_t * proc)
 911:lvgl/lvgl/src/core/lv_indev.c **** {
 912:lvgl/lvgl/src/core/lv_indev.c ****     if(proc->wait_until_release != 0) {
 913:lvgl/lvgl/src/core/lv_indev.c ****         proc->types.pointer.act_obj  = NULL;
 914:lvgl/lvgl/src/core/lv_indev.c ****         proc->types.pointer.last_obj = NULL;
 915:lvgl/lvgl/src/core/lv_indev.c ****         proc->pr_timestamp           = 0;
 916:lvgl/lvgl/src/core/lv_indev.c ****         proc->longpr_rep_timestamp   = 0;
 917:lvgl/lvgl/src/core/lv_indev.c ****         proc->wait_until_release     = 0;
 918:lvgl/lvgl/src/core/lv_indev.c ****     }
 919:lvgl/lvgl/src/core/lv_indev.c ****     indev_obj_act = proc->types.pointer.act_obj;
 920:lvgl/lvgl/src/core/lv_indev.c ****     lv_obj_t * scroll_obj = proc->types.pointer.scroll_obj;
 921:lvgl/lvgl/src/core/lv_indev.c **** 
 922:lvgl/lvgl/src/core/lv_indev.c ****     /*Forget the act obj and send a released Call the ancestor's event handler*/
 923:lvgl/lvgl/src/core/lv_indev.c ****     if(indev_obj_act) {
 924:lvgl/lvgl/src/core/lv_indev.c ****         LV_LOG_INFO("released");
 925:lvgl/lvgl/src/core/lv_indev.c **** 
 926:lvgl/lvgl/src/core/lv_indev.c ****         /*Send RELEASE Call the ancestor's event handler and event*/
 927:lvgl/lvgl/src/core/lv_indev.c ****         lv_event_send(indev_obj_act, LV_EVENT_RELEASED, indev_act);
 928:lvgl/lvgl/src/core/lv_indev.c ****         if(indev_reset_check(proc)) return;
 929:lvgl/lvgl/src/core/lv_indev.c **** 
 930:lvgl/lvgl/src/core/lv_indev.c ****         /*Send CLICK if no scrolling*/
 931:lvgl/lvgl/src/core/lv_indev.c ****         if(scroll_obj == NULL) {
 932:lvgl/lvgl/src/core/lv_indev.c ****             if(proc->long_pr_sent == 0) {
 933:lvgl/lvgl/src/core/lv_indev.c ****                 lv_event_send(indev_obj_act, LV_EVENT_SHORT_CLICKED, indev_act);
 934:lvgl/lvgl/src/core/lv_indev.c ****                 if(indev_reset_check(proc)) return;
 935:lvgl/lvgl/src/core/lv_indev.c ****             }
 936:lvgl/lvgl/src/core/lv_indev.c **** 
 937:lvgl/lvgl/src/core/lv_indev.c ****             lv_event_send(indev_obj_act, LV_EVENT_CLICKED, indev_act);
 938:lvgl/lvgl/src/core/lv_indev.c ****             if(indev_reset_check(proc)) return;
 939:lvgl/lvgl/src/core/lv_indev.c ****         }
 940:lvgl/lvgl/src/core/lv_indev.c **** 
 941:lvgl/lvgl/src/core/lv_indev.c ****         proc->types.pointer.act_obj = NULL;
 942:lvgl/lvgl/src/core/lv_indev.c ****         proc->pr_timestamp          = 0;
ARM GAS  C:\Users\gx\AppData\Local\Temp\ccszQoK7.s 			page 18


 943:lvgl/lvgl/src/core/lv_indev.c ****         proc->longpr_rep_timestamp  = 0;
 944:lvgl/lvgl/src/core/lv_indev.c **** 
 945:lvgl/lvgl/src/core/lv_indev.c ****     }
 946:lvgl/lvgl/src/core/lv_indev.c **** 
 947:lvgl/lvgl/src/core/lv_indev.c ****     /*The reset can be set in the Call the ancestor's event handler function.
 948:lvgl/lvgl/src/core/lv_indev.c ****      * In case of reset query ignore the remaining parts.*/
 949:lvgl/lvgl/src/core/lv_indev.c ****     if(scroll_obj) {
 950:lvgl/lvgl/src/core/lv_indev.c ****         _lv_indev_scroll_throw_handler(proc);
 951:lvgl/lvgl/src/core/lv_indev.c ****         if(indev_reset_check(proc)) return;
 952:lvgl/lvgl/src/core/lv_indev.c ****     }
 953:lvgl/lvgl/src/core/lv_indev.c **** }
 954:lvgl/lvgl/src/core/lv_indev.c **** 
 955:lvgl/lvgl/src/core/lv_indev.c **** /**
 956:lvgl/lvgl/src/core/lv_indev.c ****  * Process a new point from LV_INDEV_TYPE_BUTTON input device
 957:lvgl/lvgl/src/core/lv_indev.c ****  * @param i pointer to an input device
 958:lvgl/lvgl/src/core/lv_indev.c ****  * @param data pointer to the data read from the input device
 959:lvgl/lvgl/src/core/lv_indev.c ****  * Reset input device if a reset query has been sent to it
 960:lvgl/lvgl/src/core/lv_indev.c ****  * @param indev pointer to an input device
 961:lvgl/lvgl/src/core/lv_indev.c ****  */
 962:lvgl/lvgl/src/core/lv_indev.c **** static void indev_proc_reset_query_handler(lv_indev_t * indev)
 963:lvgl/lvgl/src/core/lv_indev.c **** {
  29              		.loc 1 963 1 view -0
  30              		.cfi_startproc
  31              		@ args = 0, pretend = 0, frame = 0
  32              		@ frame_needed = 0, uses_anonymous_args = 0
  33              		@ link register save eliminated.
 964:lvgl/lvgl/src/core/lv_indev.c ****     if(indev->proc.reset_query) {
  34              		.loc 1 964 5 view .LVU1
  35              		.loc 1 964 8 is_stmt 0 view .LVU2
  36 0000 4379     		ldrb	r3, [r0, #5]	@ zero_extendqisi2
  37              		.loc 1 964 7 view .LVU3
  38 0002 13F0020F 		tst	r3, #2
  39 0006 19D0     		beq	.L1
 965:lvgl/lvgl/src/core/lv_indev.c ****         indev->proc.types.pointer.act_obj           = NULL;
  40              		.loc 1 965 9 is_stmt 1 view .LVU4
  41              		.loc 1 965 53 is_stmt 0 view .LVU5
  42 0008 0023     		movs	r3, #0
  43 000a 4362     		str	r3, [r0, #36]
 966:lvgl/lvgl/src/core/lv_indev.c ****         indev->proc.types.pointer.last_obj          = NULL;
  44              		.loc 1 966 9 is_stmt 1 view .LVU6
  45              		.loc 1 966 53 is_stmt 0 view .LVU7
  46 000c 8362     		str	r3, [r0, #40]
 967:lvgl/lvgl/src/core/lv_indev.c ****         indev->proc.types.pointer.scroll_obj          = NULL;
  47              		.loc 1 967 9 is_stmt 1 view .LVU8
  48              		.loc 1 967 55 is_stmt 0 view .LVU9
  49 000e C362     		str	r3, [r0, #44]
 968:lvgl/lvgl/src/core/lv_indev.c ****         indev->proc.long_pr_sent                    = 0;
  50              		.loc 1 968 9 is_stmt 1 view .LVU10
  51              		.loc 1 968 53 is_stmt 0 view .LVU11
  52 0010 4279     		ldrb	r2, [r0, #5]	@ zero_extendqisi2
 969:lvgl/lvgl/src/core/lv_indev.c ****         indev->proc.pr_timestamp                    = 0;
  53              		.loc 1 969 9 is_stmt 1 view .LVU12
  54              		.loc 1 969 53 is_stmt 0 view .LVU13
  55 0012 4364     		str	r3, [r0, #68]
 970:lvgl/lvgl/src/core/lv_indev.c ****         indev->proc.longpr_rep_timestamp            = 0;
  56              		.loc 1 970 9 is_stmt 1 view .LVU14
  57              		.loc 1 970 53 is_stmt 0 view .LVU15
ARM GAS  C:\Users\gx\AppData\Local\Temp\ccszQoK7.s 			page 19


  58 0014 8364     		str	r3, [r0, #72]
 971:lvgl/lvgl/src/core/lv_indev.c ****         indev->proc.types.pointer.scroll_sum.x        = 0;
  59              		.loc 1 971 9 is_stmt 1 view .LVU16
  60              		.loc 1 971 55 is_stmt 0 view .LVU17
  61 0016 0383     		strh	r3, [r0, #24]	@ movhi
 972:lvgl/lvgl/src/core/lv_indev.c ****         indev->proc.types.pointer.scroll_sum.y        = 0;
  62              		.loc 1 972 9 is_stmt 1 view .LVU18
  63              		.loc 1 972 55 is_stmt 0 view .LVU19
  64 0018 4383     		strh	r3, [r0, #26]	@ movhi
 973:lvgl/lvgl/src/core/lv_indev.c ****         indev->proc.types.pointer.scroll_dir = LV_DIR_NONE;
  65              		.loc 1 973 9 is_stmt 1 view .LVU20
  66              		.loc 1 973 46 is_stmt 0 view .LVU21
  67 001a 90F84010 		ldrb	r1, [r0, #64]	@ zero_extendqisi2
  68 001e 63F30301 		bfi	r1, r3, #0, #4
  69 0022 80F84010 		strb	r1, [r0, #64]
 974:lvgl/lvgl/src/core/lv_indev.c ****         indev->proc.types.pointer.scroll_throw_vect.x = 0;
  70              		.loc 1 974 9 is_stmt 1 view .LVU22
  71              		.loc 1 974 55 is_stmt 0 view .LVU23
  72 0026 8383     		strh	r3, [r0, #28]	@ movhi
 975:lvgl/lvgl/src/core/lv_indev.c ****         indev->proc.types.pointer.scroll_throw_vect.y = 0;
  73              		.loc 1 975 9 is_stmt 1 view .LVU24
  74              		.loc 1 975 55 is_stmt 0 view .LVU25
  75 0028 C383     		strh	r3, [r0, #30]	@ movhi
 976:lvgl/lvgl/src/core/lv_indev.c ****         indev->proc.types.pointer.gesture_sum.x     = 0;
  76              		.loc 1 976 9 is_stmt 1 view .LVU26
  77              		.loc 1 976 53 is_stmt 0 view .LVU27
  78 002a 8387     		strh	r3, [r0, #60]	@ movhi
 977:lvgl/lvgl/src/core/lv_indev.c ****         indev->proc.types.pointer.gesture_sum.y     = 0;
  79              		.loc 1 977 9 is_stmt 1 view .LVU28
  80              		.loc 1 977 53 is_stmt 0 view .LVU29
  81 002c C387     		strh	r3, [r0, #62]	@ movhi
 978:lvgl/lvgl/src/core/lv_indev.c ****         indev->proc.reset_query                     = 0;
  82              		.loc 1 978 9 is_stmt 1 view .LVU30
  83              		.loc 1 978 53 is_stmt 0 view .LVU31
  84 002e 02F0FE02 		and	r2, r2, #254
  85 0032 63F34102 		bfi	r2, r3, #1, #1
  86 0036 4271     		strb	r2, [r0, #5]
 979:lvgl/lvgl/src/core/lv_indev.c ****         indev_obj_act                               = NULL;
  87              		.loc 1 979 9 is_stmt 1 view .LVU32
  88              		.loc 1 979 53 is_stmt 0 view .LVU33
  89 0038 014A     		ldr	r2, .L3
  90 003a 1360     		str	r3, [r2]
  91              	.L1:
 980:lvgl/lvgl/src/core/lv_indev.c ****     }
 981:lvgl/lvgl/src/core/lv_indev.c **** }
  92              		.loc 1 981 1 view .LVU34
  93 003c 7047     		bx	lr
  94              	.L4:
  95 003e 00BF     		.align	2
  96              	.L3:
  97 0040 00000000 		.word	.LANCHOR0
  98              		.cfi_endproc
  99              	.LFE183:
 101              		.section	.text.indev_reset_check,"ax",%progbits
 102              		.align	1
 103              		.syntax unified
 104              		.thumb
ARM GAS  C:\Users\gx\AppData\Local\Temp\ccszQoK7.s 			page 20


 105              		.thumb_func
 106              		.fpu fpv4-sp-d16
 108              	indev_reset_check:
 109              	.LVL1:
 110              	.LFB186:
 982:lvgl/lvgl/src/core/lv_indev.c **** 
 983:lvgl/lvgl/src/core/lv_indev.c **** /**
 984:lvgl/lvgl/src/core/lv_indev.c ****  * Handle focus/defocus on click for POINTER input devices
 985:lvgl/lvgl/src/core/lv_indev.c ****  * @param proc pointer to the state of the indev
 986:lvgl/lvgl/src/core/lv_indev.c ****  */
 987:lvgl/lvgl/src/core/lv_indev.c **** static void indev_click_focus(_lv_indev_proc_t * proc)
 988:lvgl/lvgl/src/core/lv_indev.c **** {
 989:lvgl/lvgl/src/core/lv_indev.c ****     /*Handle click focus*/
 990:lvgl/lvgl/src/core/lv_indev.c ****     lv_obj_t * obj_to_focus = indev_obj_act;
 991:lvgl/lvgl/src/core/lv_indev.c ****     if(lv_obj_has_flag(obj_to_focus, LV_OBJ_FLAG_CLICK_FOCUSABLE) &&
 992:lvgl/lvgl/src/core/lv_indev.c ****        proc->types.pointer.last_pressed != obj_to_focus) {
 993:lvgl/lvgl/src/core/lv_indev.c ****         lv_group_t * g_act = lv_obj_get_group(obj_to_focus);
 994:lvgl/lvgl/src/core/lv_indev.c ****         lv_group_t * g_prev = proc->types.pointer.last_pressed ? lv_obj_get_group(proc->types.point
 995:lvgl/lvgl/src/core/lv_indev.c **** 
 996:lvgl/lvgl/src/core/lv_indev.c ****         /*If both the last and act. obj. are in the same group (or no group but it's also the same)
 997:lvgl/lvgl/src/core/lv_indev.c ****         if(g_act == g_prev) {
 998:lvgl/lvgl/src/core/lv_indev.c ****             /*The objects are in a group*/
 999:lvgl/lvgl/src/core/lv_indev.c ****             if(g_act) {
1000:lvgl/lvgl/src/core/lv_indev.c ****                 lv_group_focus_obj(obj_to_focus);
1001:lvgl/lvgl/src/core/lv_indev.c ****                 if(indev_reset_check(proc)) return;
1002:lvgl/lvgl/src/core/lv_indev.c ****             }
1003:lvgl/lvgl/src/core/lv_indev.c ****             /*The object are not in group*/
1004:lvgl/lvgl/src/core/lv_indev.c ****             else {
1005:lvgl/lvgl/src/core/lv_indev.c ****                 if(proc->types.pointer.last_pressed) {
1006:lvgl/lvgl/src/core/lv_indev.c ****                     lv_event_send(proc->types.pointer.last_pressed, LV_EVENT_DEFOCUSED, indev_act);
1007:lvgl/lvgl/src/core/lv_indev.c ****                     if(indev_reset_check(proc)) return;
1008:lvgl/lvgl/src/core/lv_indev.c ****                 }
1009:lvgl/lvgl/src/core/lv_indev.c **** 
1010:lvgl/lvgl/src/core/lv_indev.c ****                 lv_event_send(obj_to_focus, LV_EVENT_FOCUSED, indev_act);
1011:lvgl/lvgl/src/core/lv_indev.c ****                 if(indev_reset_check(proc)) return;
1012:lvgl/lvgl/src/core/lv_indev.c ****             }
1013:lvgl/lvgl/src/core/lv_indev.c ****         }
1014:lvgl/lvgl/src/core/lv_indev.c ****         /*The object are not in the same group (in different group or one in not a group)*/
1015:lvgl/lvgl/src/core/lv_indev.c ****         else {
1016:lvgl/lvgl/src/core/lv_indev.c ****             /*If the prev. obj. is not in a group then defocus it.*/
1017:lvgl/lvgl/src/core/lv_indev.c ****             if(g_prev == NULL && proc->types.pointer.last_pressed) {
1018:lvgl/lvgl/src/core/lv_indev.c ****                 lv_event_send(proc->types.pointer.last_pressed, LV_EVENT_DEFOCUSED, indev_act);
1019:lvgl/lvgl/src/core/lv_indev.c ****                 if(indev_reset_check(proc)) return;
1020:lvgl/lvgl/src/core/lv_indev.c ****             }
1021:lvgl/lvgl/src/core/lv_indev.c ****             /*Focus on a non-group object*/
1022:lvgl/lvgl/src/core/lv_indev.c ****             else {
1023:lvgl/lvgl/src/core/lv_indev.c ****                 if(proc->types.pointer.last_pressed) {
1024:lvgl/lvgl/src/core/lv_indev.c ****                     /*If the prev. object also wasn't in a group defocus it*/
1025:lvgl/lvgl/src/core/lv_indev.c ****                     if(g_prev == NULL) {
1026:lvgl/lvgl/src/core/lv_indev.c ****                         lv_event_send(proc->types.pointer.last_pressed, LV_EVENT_DEFOCUSED, indev_a
1027:lvgl/lvgl/src/core/lv_indev.c ****                         if(indev_reset_check(proc)) return;
1028:lvgl/lvgl/src/core/lv_indev.c ****                     }
1029:lvgl/lvgl/src/core/lv_indev.c ****                     /*If the prev. object also was in a group at least "LEAVE" it instead of defocu
1030:lvgl/lvgl/src/core/lv_indev.c ****                     else {
1031:lvgl/lvgl/src/core/lv_indev.c ****                         lv_event_send(proc->types.pointer.last_pressed, LV_EVENT_LEAVE, indev_act);
1032:lvgl/lvgl/src/core/lv_indev.c ****                         if(indev_reset_check(proc)) return;
1033:lvgl/lvgl/src/core/lv_indev.c ****                     }
ARM GAS  C:\Users\gx\AppData\Local\Temp\ccszQoK7.s 			page 21


1034:lvgl/lvgl/src/core/lv_indev.c ****                 }
1035:lvgl/lvgl/src/core/lv_indev.c ****             }
1036:lvgl/lvgl/src/core/lv_indev.c **** 
1037:lvgl/lvgl/src/core/lv_indev.c ****             /*Focus to the act. in its group*/
1038:lvgl/lvgl/src/core/lv_indev.c ****             if(g_act) {
1039:lvgl/lvgl/src/core/lv_indev.c ****                 lv_group_focus_obj(obj_to_focus);
1040:lvgl/lvgl/src/core/lv_indev.c ****                 if(indev_reset_check(proc)) return;
1041:lvgl/lvgl/src/core/lv_indev.c ****             }
1042:lvgl/lvgl/src/core/lv_indev.c ****             else {
1043:lvgl/lvgl/src/core/lv_indev.c ****                 lv_event_send(obj_to_focus, LV_EVENT_FOCUSED, indev_act);
1044:lvgl/lvgl/src/core/lv_indev.c ****                 if(indev_reset_check(proc)) return;
1045:lvgl/lvgl/src/core/lv_indev.c ****             }
1046:lvgl/lvgl/src/core/lv_indev.c ****         }
1047:lvgl/lvgl/src/core/lv_indev.c ****         proc->types.pointer.last_pressed = obj_to_focus;
1048:lvgl/lvgl/src/core/lv_indev.c ****     }
1049:lvgl/lvgl/src/core/lv_indev.c **** 
1050:lvgl/lvgl/src/core/lv_indev.c **** }
1051:lvgl/lvgl/src/core/lv_indev.c **** 
1052:lvgl/lvgl/src/core/lv_indev.c **** /**
1053:lvgl/lvgl/src/core/lv_indev.c **** * Handle the gesture of indev_proc_p->types.pointer.act_obj
1054:lvgl/lvgl/src/core/lv_indev.c **** * @param indev pointer to a input device state
1055:lvgl/lvgl/src/core/lv_indev.c **** */
1056:lvgl/lvgl/src/core/lv_indev.c **** void indev_gesture(_lv_indev_proc_t * proc)
1057:lvgl/lvgl/src/core/lv_indev.c **** {
1058:lvgl/lvgl/src/core/lv_indev.c **** 
1059:lvgl/lvgl/src/core/lv_indev.c ****     if(proc->types.pointer.scroll_obj) return;
1060:lvgl/lvgl/src/core/lv_indev.c ****     if(proc->types.pointer.gesture_sent) return;
1061:lvgl/lvgl/src/core/lv_indev.c **** 
1062:lvgl/lvgl/src/core/lv_indev.c ****     lv_obj_t * gesture_obj = proc->types.pointer.act_obj;
1063:lvgl/lvgl/src/core/lv_indev.c **** 
1064:lvgl/lvgl/src/core/lv_indev.c ****     /*If gesture parent is active check recursively the gesture attribute*/
1065:lvgl/lvgl/src/core/lv_indev.c ****     while(gesture_obj && lv_obj_has_flag(gesture_obj, LV_OBJ_FLAG_GESTURE_BUBBLE)) {
1066:lvgl/lvgl/src/core/lv_indev.c ****         gesture_obj = lv_obj_get_parent(gesture_obj);
1067:lvgl/lvgl/src/core/lv_indev.c ****     }
1068:lvgl/lvgl/src/core/lv_indev.c **** 
1069:lvgl/lvgl/src/core/lv_indev.c ****     if(gesture_obj == NULL) return;
1070:lvgl/lvgl/src/core/lv_indev.c **** 
1071:lvgl/lvgl/src/core/lv_indev.c ****     if((LV_ABS(proc->types.pointer.vect.x) < indev_act->driver->gesture_min_velocity) &&
1072:lvgl/lvgl/src/core/lv_indev.c ****        (LV_ABS(proc->types.pointer.vect.y) < indev_act->driver->gesture_min_velocity)) {
1073:lvgl/lvgl/src/core/lv_indev.c ****         proc->types.pointer.gesture_sum.x = 0;
1074:lvgl/lvgl/src/core/lv_indev.c ****         proc->types.pointer.gesture_sum.y = 0;
1075:lvgl/lvgl/src/core/lv_indev.c ****     }
1076:lvgl/lvgl/src/core/lv_indev.c **** 
1077:lvgl/lvgl/src/core/lv_indev.c ****     /*Count the movement by gesture*/
1078:lvgl/lvgl/src/core/lv_indev.c ****     proc->types.pointer.gesture_sum.x += proc->types.pointer.vect.x;
1079:lvgl/lvgl/src/core/lv_indev.c ****     proc->types.pointer.gesture_sum.y += proc->types.pointer.vect.y;
1080:lvgl/lvgl/src/core/lv_indev.c **** 
1081:lvgl/lvgl/src/core/lv_indev.c ****     if((LV_ABS(proc->types.pointer.gesture_sum.x) > indev_act->driver->gesture_limit) ||
1082:lvgl/lvgl/src/core/lv_indev.c ****        (LV_ABS(proc->types.pointer.gesture_sum.y) > indev_act->driver->gesture_limit)) {
1083:lvgl/lvgl/src/core/lv_indev.c **** 
1084:lvgl/lvgl/src/core/lv_indev.c ****         proc->types.pointer.gesture_sent = 1;
1085:lvgl/lvgl/src/core/lv_indev.c **** 
1086:lvgl/lvgl/src/core/lv_indev.c ****         if(LV_ABS(proc->types.pointer.gesture_sum.x) > LV_ABS(proc->types.pointer.gesture_sum.y)) {
1087:lvgl/lvgl/src/core/lv_indev.c ****             if(proc->types.pointer.gesture_sum.x > 0)
1088:lvgl/lvgl/src/core/lv_indev.c ****                 proc->types.pointer.gesture_dir = LV_DIR_RIGHT;
1089:lvgl/lvgl/src/core/lv_indev.c ****             else
1090:lvgl/lvgl/src/core/lv_indev.c ****                 proc->types.pointer.gesture_dir = LV_DIR_LEFT;
ARM GAS  C:\Users\gx\AppData\Local\Temp\ccszQoK7.s 			page 22


1091:lvgl/lvgl/src/core/lv_indev.c ****         }
1092:lvgl/lvgl/src/core/lv_indev.c ****         else {
1093:lvgl/lvgl/src/core/lv_indev.c ****             if(proc->types.pointer.gesture_sum.y > 0)
1094:lvgl/lvgl/src/core/lv_indev.c ****                 proc->types.pointer.gesture_dir = LV_DIR_BOTTOM;
1095:lvgl/lvgl/src/core/lv_indev.c ****             else
1096:lvgl/lvgl/src/core/lv_indev.c ****                 proc->types.pointer.gesture_dir = LV_DIR_TOP;
1097:lvgl/lvgl/src/core/lv_indev.c ****         }
1098:lvgl/lvgl/src/core/lv_indev.c **** 
1099:lvgl/lvgl/src/core/lv_indev.c ****         lv_event_send(gesture_obj, LV_EVENT_GESTURE, indev_act);
1100:lvgl/lvgl/src/core/lv_indev.c ****         if(indev_reset_check(proc)) return;
1101:lvgl/lvgl/src/core/lv_indev.c ****     }
1102:lvgl/lvgl/src/core/lv_indev.c **** }
1103:lvgl/lvgl/src/core/lv_indev.c **** 
1104:lvgl/lvgl/src/core/lv_indev.c **** /**
1105:lvgl/lvgl/src/core/lv_indev.c ****  * Checks if the reset_query flag has been set. If so, perform necessary global indev cleanup actio
1106:lvgl/lvgl/src/core/lv_indev.c ****  * @param proc pointer to an input device 'proc'
1107:lvgl/lvgl/src/core/lv_indev.c ****  * @return true if indev query should be immediately truncated.
1108:lvgl/lvgl/src/core/lv_indev.c ****  */
1109:lvgl/lvgl/src/core/lv_indev.c **** static bool indev_reset_check(_lv_indev_proc_t * proc)
1110:lvgl/lvgl/src/core/lv_indev.c **** {
 111              		.loc 1 1110 1 is_stmt 1 view -0
 112              		.cfi_startproc
 113              		@ args = 0, pretend = 0, frame = 0
 114              		@ frame_needed = 0, uses_anonymous_args = 0
 115              		@ link register save eliminated.
1111:lvgl/lvgl/src/core/lv_indev.c ****     if(proc->reset_query) {
 116              		.loc 1 1111 5 view .LVU36
 117              		.loc 1 1111 8 is_stmt 0 view .LVU37
 118 0000 4078     		ldrb	r0, [r0, #1]	@ zero_extendqisi2
 119              	.LVL2:
 120              		.loc 1 1111 7 view .LVU38
 121 0002 10F0020F 		tst	r0, #2
 122 0006 02D0     		beq	.L6
1112:lvgl/lvgl/src/core/lv_indev.c ****         indev_obj_act = NULL;
 123              		.loc 1 1112 9 is_stmt 1 view .LVU39
 124              		.loc 1 1112 23 is_stmt 0 view .LVU40
 125 0008 024B     		ldr	r3, .L7
 126 000a 0022     		movs	r2, #0
 127 000c 1A60     		str	r2, [r3]
 128              	.L6:
1113:lvgl/lvgl/src/core/lv_indev.c ****     }
1114:lvgl/lvgl/src/core/lv_indev.c **** 
1115:lvgl/lvgl/src/core/lv_indev.c ****     return proc->reset_query ? true : false;
 129              		.loc 1 1115 5 is_stmt 1 view .LVU41
1116:lvgl/lvgl/src/core/lv_indev.c **** }
 130              		.loc 1 1116 1 is_stmt 0 view .LVU42
 131 000e C0F34000 		ubfx	r0, r0, #1, #1
 132 0012 7047     		bx	lr
 133              	.L8:
 134              		.align	2
 135              	.L7:
 136 0014 00000000 		.word	.LANCHOR0
 137              		.cfi_endproc
 138              	.LFE186:
 140              		.section	.text.indev_proc_release,"ax",%progbits
 141              		.align	1
 142              		.syntax unified
ARM GAS  C:\Users\gx\AppData\Local\Temp\ccszQoK7.s 			page 23


 143              		.thumb
 144              		.thumb_func
 145              		.fpu fpv4-sp-d16
 147              	indev_proc_release:
 148              	.LVL3:
 149              	.LFB182:
 911:lvgl/lvgl/src/core/lv_indev.c ****     if(proc->wait_until_release != 0) {
 150              		.loc 1 911 1 is_stmt 1 view -0
 151              		.cfi_startproc
 152              		@ args = 0, pretend = 0, frame = 0
 153              		@ frame_needed = 0, uses_anonymous_args = 0
 911:lvgl/lvgl/src/core/lv_indev.c ****     if(proc->wait_until_release != 0) {
 154              		.loc 1 911 1 is_stmt 0 view .LVU44
 155 0000 38B5     		push	{r3, r4, r5, lr}
 156              	.LCFI0:
 157              		.cfi_def_cfa_offset 16
 158              		.cfi_offset 3, -16
 159              		.cfi_offset 4, -12
 160              		.cfi_offset 5, -8
 161              		.cfi_offset 14, -4
 162 0002 0446     		mov	r4, r0
 912:lvgl/lvgl/src/core/lv_indev.c ****         proc->types.pointer.act_obj  = NULL;
 163              		.loc 1 912 5 is_stmt 1 view .LVU45
 912:lvgl/lvgl/src/core/lv_indev.c ****         proc->types.pointer.act_obj  = NULL;
 164              		.loc 1 912 33 is_stmt 0 view .LVU46
 165 0004 4378     		ldrb	r3, [r0, #1]	@ zero_extendqisi2
 912:lvgl/lvgl/src/core/lv_indev.c ****         proc->types.pointer.act_obj  = NULL;
 166              		.loc 1 912 7 view .LVU47
 167 0006 13F0080F 		tst	r3, #8
 168 000a 08D0     		beq	.L10
 913:lvgl/lvgl/src/core/lv_indev.c ****         proc->types.pointer.last_obj = NULL;
 169              		.loc 1 913 9 is_stmt 1 view .LVU48
 913:lvgl/lvgl/src/core/lv_indev.c ****         proc->types.pointer.last_obj = NULL;
 170              		.loc 1 913 38 is_stmt 0 view .LVU49
 171 000c 0023     		movs	r3, #0
 172 000e 0362     		str	r3, [r0, #32]
 914:lvgl/lvgl/src/core/lv_indev.c ****         proc->pr_timestamp           = 0;
 173              		.loc 1 914 9 is_stmt 1 view .LVU50
 914:lvgl/lvgl/src/core/lv_indev.c ****         proc->pr_timestamp           = 0;
 174              		.loc 1 914 38 is_stmt 0 view .LVU51
 175 0010 4362     		str	r3, [r0, #36]
 915:lvgl/lvgl/src/core/lv_indev.c ****         proc->longpr_rep_timestamp   = 0;
 176              		.loc 1 915 9 is_stmt 1 view .LVU52
 915:lvgl/lvgl/src/core/lv_indev.c ****         proc->longpr_rep_timestamp   = 0;
 177              		.loc 1 915 38 is_stmt 0 view .LVU53
 178 0012 0364     		str	r3, [r0, #64]
 916:lvgl/lvgl/src/core/lv_indev.c ****         proc->wait_until_release     = 0;
 179              		.loc 1 916 9 is_stmt 1 view .LVU54
 916:lvgl/lvgl/src/core/lv_indev.c ****         proc->wait_until_release     = 0;
 180              		.loc 1 916 38 is_stmt 0 view .LVU55
 181 0014 4364     		str	r3, [r0, #68]
 917:lvgl/lvgl/src/core/lv_indev.c ****     }
 182              		.loc 1 917 9 is_stmt 1 view .LVU56
 917:lvgl/lvgl/src/core/lv_indev.c ****     }
 183              		.loc 1 917 38 is_stmt 0 view .LVU57
 184 0016 4278     		ldrb	r2, [r0, #1]	@ zero_extendqisi2
 185 0018 63F3C302 		bfi	r2, r3, #3, #1
ARM GAS  C:\Users\gx\AppData\Local\Temp\ccszQoK7.s 			page 24


 186 001c 4270     		strb	r2, [r0, #1]
 187              	.L10:
 919:lvgl/lvgl/src/core/lv_indev.c ****     lv_obj_t * scroll_obj = proc->types.pointer.scroll_obj;
 188              		.loc 1 919 5 is_stmt 1 view .LVU58
 919:lvgl/lvgl/src/core/lv_indev.c ****     lv_obj_t * scroll_obj = proc->types.pointer.scroll_obj;
 189              		.loc 1 919 40 is_stmt 0 view .LVU59
 190 001e 206A     		ldr	r0, [r4, #32]
 191              	.LVL4:
 919:lvgl/lvgl/src/core/lv_indev.c ****     lv_obj_t * scroll_obj = proc->types.pointer.scroll_obj;
 192              		.loc 1 919 19 view .LVU60
 193 0020 1B4B     		ldr	r3, .L17
 194 0022 1860     		str	r0, [r3]
 920:lvgl/lvgl/src/core/lv_indev.c **** 
 195              		.loc 1 920 5 is_stmt 1 view .LVU61
 920:lvgl/lvgl/src/core/lv_indev.c **** 
 196              		.loc 1 920 16 is_stmt 0 view .LVU62
 197 0024 A56A     		ldr	r5, [r4, #40]
 198              	.LVL5:
 923:lvgl/lvgl/src/core/lv_indev.c ****         LV_LOG_INFO("released");
 199              		.loc 1 923 5 is_stmt 1 view .LVU63
 923:lvgl/lvgl/src/core/lv_indev.c ****         LV_LOG_INFO("released");
 200              		.loc 1 923 7 is_stmt 0 view .LVU64
 201 0026 68B1     		cbz	r0, .L11
 924:lvgl/lvgl/src/core/lv_indev.c **** 
 202              		.loc 1 924 9 is_stmt 1 view .LVU65
 924:lvgl/lvgl/src/core/lv_indev.c **** 
 203              		.loc 1 924 9 view .LVU66
 924:lvgl/lvgl/src/core/lv_indev.c **** 
 204              		.loc 1 924 9 view .LVU67
 924:lvgl/lvgl/src/core/lv_indev.c **** 
 205              		.loc 1 924 32 view .LVU68
 927:lvgl/lvgl/src/core/lv_indev.c ****         if(indev_reset_check(proc)) return;
 206              		.loc 1 927 9 view .LVU69
 207 0028 1A4B     		ldr	r3, .L17+4
 208 002a 1A68     		ldr	r2, [r3]
 209 002c 0821     		movs	r1, #8
 210 002e FFF7FEFF 		bl	lv_event_send
 211              	.LVL6:
 928:lvgl/lvgl/src/core/lv_indev.c **** 
 212              		.loc 1 928 9 view .LVU70
 928:lvgl/lvgl/src/core/lv_indev.c **** 
 213              		.loc 1 928 12 is_stmt 0 view .LVU71
 214 0032 2046     		mov	r0, r4
 215 0034 FFF7FEFF 		bl	indev_reset_check
 216              	.LVL7:
 928:lvgl/lvgl/src/core/lv_indev.c **** 
 217              		.loc 1 928 11 view .LVU72
 218 0038 58B9     		cbnz	r0, .L9
 931:lvgl/lvgl/src/core/lv_indev.c ****             if(proc->long_pr_sent == 0) {
 219              		.loc 1 931 9 is_stmt 1 view .LVU73
 931:lvgl/lvgl/src/core/lv_indev.c ****             if(proc->long_pr_sent == 0) {
 220              		.loc 1 931 11 is_stmt 0 view .LVU74
 221 003a 5DB1     		cbz	r5, .L16
 222              	.L13:
 941:lvgl/lvgl/src/core/lv_indev.c ****         proc->pr_timestamp          = 0;
 223              		.loc 1 941 9 is_stmt 1 view .LVU75
 941:lvgl/lvgl/src/core/lv_indev.c ****         proc->pr_timestamp          = 0;
ARM GAS  C:\Users\gx\AppData\Local\Temp\ccszQoK7.s 			page 25


 224              		.loc 1 941 37 is_stmt 0 view .LVU76
 225 003c 0023     		movs	r3, #0
 226 003e 2362     		str	r3, [r4, #32]
 942:lvgl/lvgl/src/core/lv_indev.c ****         proc->longpr_rep_timestamp  = 0;
 227              		.loc 1 942 9 is_stmt 1 view .LVU77
 942:lvgl/lvgl/src/core/lv_indev.c ****         proc->longpr_rep_timestamp  = 0;
 228              		.loc 1 942 37 is_stmt 0 view .LVU78
 229 0040 2364     		str	r3, [r4, #64]
 943:lvgl/lvgl/src/core/lv_indev.c **** 
 230              		.loc 1 943 9 is_stmt 1 view .LVU79
 943:lvgl/lvgl/src/core/lv_indev.c **** 
 231              		.loc 1 943 37 is_stmt 0 view .LVU80
 232 0042 6364     		str	r3, [r4, #68]
 233              	.L11:
 949:lvgl/lvgl/src/core/lv_indev.c ****         _lv_indev_scroll_throw_handler(proc);
 234              		.loc 1 949 5 is_stmt 1 view .LVU81
 949:lvgl/lvgl/src/core/lv_indev.c ****         _lv_indev_scroll_throw_handler(proc);
 235              		.loc 1 949 7 is_stmt 0 view .LVU82
 236 0044 2DB1     		cbz	r5, .L9
 950:lvgl/lvgl/src/core/lv_indev.c ****         if(indev_reset_check(proc)) return;
 237              		.loc 1 950 9 is_stmt 1 view .LVU83
 238 0046 2046     		mov	r0, r4
 239 0048 FFF7FEFF 		bl	_lv_indev_scroll_throw_handler
 240              	.LVL8:
 951:lvgl/lvgl/src/core/lv_indev.c ****     }
 241              		.loc 1 951 9 view .LVU84
 951:lvgl/lvgl/src/core/lv_indev.c ****     }
 242              		.loc 1 951 12 is_stmt 0 view .LVU85
 243 004c 2046     		mov	r0, r4
 244 004e FFF7FEFF 		bl	indev_reset_check
 245              	.LVL9:
 246              	.L9:
 953:lvgl/lvgl/src/core/lv_indev.c **** 
 247              		.loc 1 953 1 view .LVU86
 248 0052 38BD     		pop	{r3, r4, r5, pc}
 249              	.LVL10:
 250              	.L16:
 932:lvgl/lvgl/src/core/lv_indev.c ****                 lv_event_send(indev_obj_act, LV_EVENT_SHORT_CLICKED, indev_act);
 251              		.loc 1 932 13 is_stmt 1 view .LVU87
 932:lvgl/lvgl/src/core/lv_indev.c ****                 lv_event_send(indev_obj_act, LV_EVENT_SHORT_CLICKED, indev_act);
 252              		.loc 1 932 35 is_stmt 0 view .LVU88
 253 0054 6378     		ldrb	r3, [r4, #1]	@ zero_extendqisi2
 932:lvgl/lvgl/src/core/lv_indev.c ****                 lv_event_send(indev_obj_act, LV_EVENT_SHORT_CLICKED, indev_act);
 254              		.loc 1 932 15 view .LVU89
 255 0056 13F0010F 		tst	r3, #1
 256 005a 0BD1     		bne	.L14
 933:lvgl/lvgl/src/core/lv_indev.c ****                 if(indev_reset_check(proc)) return;
 257              		.loc 1 933 17 is_stmt 1 view .LVU90
 258 005c 0D4B     		ldr	r3, .L17+4
 259 005e 1A68     		ldr	r2, [r3]
 260 0060 0421     		movs	r1, #4
 261 0062 0B4B     		ldr	r3, .L17
 262 0064 1868     		ldr	r0, [r3]
 263 0066 FFF7FEFF 		bl	lv_event_send
 264              	.LVL11:
 934:lvgl/lvgl/src/core/lv_indev.c ****             }
 265              		.loc 1 934 17 view .LVU91
ARM GAS  C:\Users\gx\AppData\Local\Temp\ccszQoK7.s 			page 26


 934:lvgl/lvgl/src/core/lv_indev.c ****             }
 266              		.loc 1 934 20 is_stmt 0 view .LVU92
 267 006a 2046     		mov	r0, r4
 268 006c FFF7FEFF 		bl	indev_reset_check
 269              	.LVL12:
 934:lvgl/lvgl/src/core/lv_indev.c ****             }
 270              		.loc 1 934 19 view .LVU93
 271 0070 0028     		cmp	r0, #0
 272 0072 EED1     		bne	.L9
 273              	.L14:
 937:lvgl/lvgl/src/core/lv_indev.c ****             if(indev_reset_check(proc)) return;
 274              		.loc 1 937 13 is_stmt 1 view .LVU94
 275 0074 074B     		ldr	r3, .L17+4
 276 0076 1A68     		ldr	r2, [r3]
 277 0078 0721     		movs	r1, #7
 278 007a 054B     		ldr	r3, .L17
 279 007c 1868     		ldr	r0, [r3]
 280 007e FFF7FEFF 		bl	lv_event_send
 281              	.LVL13:
 938:lvgl/lvgl/src/core/lv_indev.c ****         }
 282              		.loc 1 938 13 view .LVU95
 938:lvgl/lvgl/src/core/lv_indev.c ****         }
 283              		.loc 1 938 16 is_stmt 0 view .LVU96
 284 0082 2046     		mov	r0, r4
 285 0084 FFF7FEFF 		bl	indev_reset_check
 286              	.LVL14:
 938:lvgl/lvgl/src/core/lv_indev.c ****         }
 287              		.loc 1 938 15 view .LVU97
 288 0088 0028     		cmp	r0, #0
 289 008a D7D0     		beq	.L13
 290 008c E1E7     		b	.L9
 291              	.L18:
 292 008e 00BF     		.align	2
 293              	.L17:
 294 0090 00000000 		.word	.LANCHOR0
 295 0094 00000000 		.word	.LANCHOR1
 296              		.cfi_endproc
 297              	.LFE182:
 299              		.section	.text.indev_click_focus,"ax",%progbits
 300              		.align	1
 301              		.syntax unified
 302              		.thumb
 303              		.thumb_func
 304              		.fpu fpv4-sp-d16
 306              	indev_click_focus:
 307              	.LVL15:
 308              	.LFB184:
 988:lvgl/lvgl/src/core/lv_indev.c ****     /*Handle click focus*/
 309              		.loc 1 988 1 is_stmt 1 view -0
 310              		.cfi_startproc
 311              		@ args = 0, pretend = 0, frame = 0
 312              		@ frame_needed = 0, uses_anonymous_args = 0
 988:lvgl/lvgl/src/core/lv_indev.c ****     /*Handle click focus*/
 313              		.loc 1 988 1 is_stmt 0 view .LVU99
 314 0000 70B5     		push	{r4, r5, r6, lr}
 315              	.LCFI1:
 316              		.cfi_def_cfa_offset 16
ARM GAS  C:\Users\gx\AppData\Local\Temp\ccszQoK7.s 			page 27


 317              		.cfi_offset 4, -16
 318              		.cfi_offset 5, -12
 319              		.cfi_offset 6, -8
 320              		.cfi_offset 14, -4
 321 0002 0446     		mov	r4, r0
 990:lvgl/lvgl/src/core/lv_indev.c ****     if(lv_obj_has_flag(obj_to_focus, LV_OBJ_FLAG_CLICK_FOCUSABLE) &&
 322              		.loc 1 990 5 is_stmt 1 view .LVU100
 990:lvgl/lvgl/src/core/lv_indev.c ****     if(lv_obj_has_flag(obj_to_focus, LV_OBJ_FLAG_CLICK_FOCUSABLE) &&
 323              		.loc 1 990 16 is_stmt 0 view .LVU101
 324 0004 3B4B     		ldr	r3, .L34
 325 0006 1D68     		ldr	r5, [r3]
 326              	.LVL16:
 991:lvgl/lvgl/src/core/lv_indev.c ****        proc->types.pointer.last_pressed != obj_to_focus) {
 327              		.loc 1 991 5 is_stmt 1 view .LVU102
 991:lvgl/lvgl/src/core/lv_indev.c ****        proc->types.pointer.last_pressed != obj_to_focus) {
 328              		.loc 1 991 8 is_stmt 0 view .LVU103
 329 0008 0421     		movs	r1, #4
 330 000a 2846     		mov	r0, r5
 331              	.LVL17:
 991:lvgl/lvgl/src/core/lv_indev.c ****        proc->types.pointer.last_pressed != obj_to_focus) {
 332              		.loc 1 991 8 view .LVU104
 333 000c FFF7FEFF 		bl	lv_obj_has_flag
 334              	.LVL18:
 991:lvgl/lvgl/src/core/lv_indev.c ****        proc->types.pointer.last_pressed != obj_to_focus) {
 335              		.loc 1 991 7 view .LVU105
 336 0010 30B3     		cbz	r0, .L19
 992:lvgl/lvgl/src/core/lv_indev.c ****         lv_group_t * g_act = lv_obj_get_group(obj_to_focus);
 337              		.loc 1 992 27 discriminator 1 view .LVU106
 338 0012 E36A     		ldr	r3, [r4, #44]
 991:lvgl/lvgl/src/core/lv_indev.c ****        proc->types.pointer.last_pressed != obj_to_focus) {
 339              		.loc 1 991 67 discriminator 1 view .LVU107
 340 0014 AB42     		cmp	r3, r5
 341 0016 23D0     		beq	.L19
 342              	.LBB2:
 993:lvgl/lvgl/src/core/lv_indev.c ****         lv_group_t * g_prev = proc->types.pointer.last_pressed ? lv_obj_get_group(proc->types.point
 343              		.loc 1 993 9 is_stmt 1 view .LVU108
 993:lvgl/lvgl/src/core/lv_indev.c ****         lv_group_t * g_prev = proc->types.pointer.last_pressed ? lv_obj_get_group(proc->types.point
 344              		.loc 1 993 30 is_stmt 0 view .LVU109
 345 0018 2846     		mov	r0, r5
 346 001a FFF7FEFF 		bl	lv_obj_get_group
 347              	.LVL19:
 348 001e 0646     		mov	r6, r0
 349              	.LVL20:
 994:lvgl/lvgl/src/core/lv_indev.c **** 
 350              		.loc 1 994 9 is_stmt 1 view .LVU110
 994:lvgl/lvgl/src/core/lv_indev.c **** 
 351              		.loc 1 994 50 is_stmt 0 view .LVU111
 352 0020 E06A     		ldr	r0, [r4, #44]
 353              	.LVL21:
 994:lvgl/lvgl/src/core/lv_indev.c **** 
 354              		.loc 1 994 117 view .LVU112
 355 0022 08B1     		cbz	r0, .L21
 994:lvgl/lvgl/src/core/lv_indev.c **** 
 356              		.loc 1 994 66 discriminator 1 view .LVU113
 357 0024 FFF7FEFF 		bl	lv_obj_get_group
 358              	.LVL22:
 359              	.L21:
ARM GAS  C:\Users\gx\AppData\Local\Temp\ccszQoK7.s 			page 28


 997:lvgl/lvgl/src/core/lv_indev.c ****             /*The objects are in a group*/
 360              		.loc 1 997 9 is_stmt 1 discriminator 4 view .LVU114
 997:lvgl/lvgl/src/core/lv_indev.c ****             /*The objects are in a group*/
 361              		.loc 1 997 11 is_stmt 0 discriminator 4 view .LVU115
 362 0028 B042     		cmp	r0, r6
 363 002a 1AD0     		beq	.L31
1017:lvgl/lvgl/src/core/lv_indev.c ****                 lv_event_send(proc->types.pointer.last_pressed, LV_EVENT_DEFOCUSED, indev_act);
 364              		.loc 1 1017 13 is_stmt 1 view .LVU116
1017:lvgl/lvgl/src/core/lv_indev.c ****                 lv_event_send(proc->types.pointer.last_pressed, LV_EVENT_DEFOCUSED, indev_act);
 365              		.loc 1 1017 15 is_stmt 0 view .LVU117
 366 002c 0028     		cmp	r0, #0
 367 002e 3AD0     		beq	.L32
 368              	.L26:
1023:lvgl/lvgl/src/core/lv_indev.c ****                     /*If the prev. object also wasn't in a group defocus it*/
 369              		.loc 1 1023 17 is_stmt 1 view .LVU118
1023:lvgl/lvgl/src/core/lv_indev.c ****                     /*If the prev. object also wasn't in a group defocus it*/
 370              		.loc 1 1023 39 is_stmt 0 view .LVU119
 371 0030 E36A     		ldr	r3, [r4, #44]
1023:lvgl/lvgl/src/core/lv_indev.c ****                     /*If the prev. object also wasn't in a group defocus it*/
 372              		.loc 1 1023 19 view .LVU120
 373 0032 5BB1     		cbz	r3, .L27
1025:lvgl/lvgl/src/core/lv_indev.c ****                         lv_event_send(proc->types.pointer.last_pressed, LV_EVENT_DEFOCUSED, indev_a
 374              		.loc 1 1025 21 is_stmt 1 view .LVU121
1025:lvgl/lvgl/src/core/lv_indev.c ****                         lv_event_send(proc->types.pointer.last_pressed, LV_EVENT_DEFOCUSED, indev_a
 375              		.loc 1 1025 23 is_stmt 0 view .LVU122
 376 0034 0028     		cmp	r0, #0
 377 0036 45D0     		beq	.L33
1031:lvgl/lvgl/src/core/lv_indev.c ****                         if(indev_reset_check(proc)) return;
 378              		.loc 1 1031 25 is_stmt 1 view .LVU123
 379 0038 2F4A     		ldr	r2, .L34+4
 380 003a 1268     		ldr	r2, [r2]
 381 003c 1021     		movs	r1, #16
 382 003e 1846     		mov	r0, r3
 383              	.LVL23:
1031:lvgl/lvgl/src/core/lv_indev.c ****                         if(indev_reset_check(proc)) return;
 384              		.loc 1 1031 25 is_stmt 0 view .LVU124
 385 0040 FFF7FEFF 		bl	lv_event_send
 386              	.LVL24:
1032:lvgl/lvgl/src/core/lv_indev.c ****                     }
 387              		.loc 1 1032 25 is_stmt 1 view .LVU125
1032:lvgl/lvgl/src/core/lv_indev.c ****                     }
 388              		.loc 1 1032 28 is_stmt 0 view .LVU126
 389 0044 2046     		mov	r0, r4
 390 0046 FFF7FEFF 		bl	indev_reset_check
 391              	.LVL25:
1032:lvgl/lvgl/src/core/lv_indev.c ****                     }
 392              		.loc 1 1032 27 view .LVU127
 393 004a 48B9     		cbnz	r0, .L19
 394              	.L27:
1038:lvgl/lvgl/src/core/lv_indev.c ****                 lv_group_focus_obj(obj_to_focus);
 395              		.loc 1 1038 13 is_stmt 1 view .LVU128
1038:lvgl/lvgl/src/core/lv_indev.c ****                 lv_group_focus_obj(obj_to_focus);
 396              		.loc 1 1038 15 is_stmt 0 view .LVU129
 397 004c 002E     		cmp	r6, #0
 398 004e 45D0     		beq	.L29
1039:lvgl/lvgl/src/core/lv_indev.c ****                 if(indev_reset_check(proc)) return;
 399              		.loc 1 1039 17 is_stmt 1 view .LVU130
ARM GAS  C:\Users\gx\AppData\Local\Temp\ccszQoK7.s 			page 29


 400 0050 2846     		mov	r0, r5
 401 0052 FFF7FEFF 		bl	lv_group_focus_obj
 402              	.LVL26:
1040:lvgl/lvgl/src/core/lv_indev.c ****             }
 403              		.loc 1 1040 17 view .LVU131
1040:lvgl/lvgl/src/core/lv_indev.c ****             }
 404              		.loc 1 1040 20 is_stmt 0 view .LVU132
 405 0056 2046     		mov	r0, r4
 406 0058 FFF7FEFF 		bl	indev_reset_check
 407              	.LVL27:
1040:lvgl/lvgl/src/core/lv_indev.c ****             }
 408              		.loc 1 1040 19 view .LVU133
 409 005c 00B9     		cbnz	r0, .L19
 410              	.L24:
1047:lvgl/lvgl/src/core/lv_indev.c ****     }
 411              		.loc 1 1047 9 is_stmt 1 view .LVU134
1047:lvgl/lvgl/src/core/lv_indev.c ****     }
 412              		.loc 1 1047 42 is_stmt 0 view .LVU135
 413 005e E562     		str	r5, [r4, #44]
 414              	.LVL28:
 415              	.L19:
1047:lvgl/lvgl/src/core/lv_indev.c ****     }
 416              		.loc 1 1047 42 view .LVU136
 417              	.LBE2:
1050:lvgl/lvgl/src/core/lv_indev.c **** 
 418              		.loc 1 1050 1 view .LVU137
 419 0060 70BD     		pop	{r4, r5, r6, pc}
 420              	.LVL29:
 421              	.L31:
 422              	.LBB3:
 999:lvgl/lvgl/src/core/lv_indev.c ****                 lv_group_focus_obj(obj_to_focus);
 423              		.loc 1 999 13 is_stmt 1 view .LVU138
 999:lvgl/lvgl/src/core/lv_indev.c ****                 lv_group_focus_obj(obj_to_focus);
 424              		.loc 1 999 15 is_stmt 0 view .LVU139
 425 0062 46B1     		cbz	r6, .L23
1000:lvgl/lvgl/src/core/lv_indev.c ****                 if(indev_reset_check(proc)) return;
 426              		.loc 1 1000 17 is_stmt 1 view .LVU140
 427 0064 2846     		mov	r0, r5
 428              	.LVL30:
1000:lvgl/lvgl/src/core/lv_indev.c ****                 if(indev_reset_check(proc)) return;
 429              		.loc 1 1000 17 is_stmt 0 view .LVU141
 430 0066 FFF7FEFF 		bl	lv_group_focus_obj
 431              	.LVL31:
1001:lvgl/lvgl/src/core/lv_indev.c ****             }
 432              		.loc 1 1001 17 is_stmt 1 view .LVU142
1001:lvgl/lvgl/src/core/lv_indev.c ****             }
 433              		.loc 1 1001 20 is_stmt 0 view .LVU143
 434 006a 2046     		mov	r0, r4
 435 006c FFF7FEFF 		bl	indev_reset_check
 436              	.LVL32:
1001:lvgl/lvgl/src/core/lv_indev.c ****             }
 437              		.loc 1 1001 19 view .LVU144
 438 0070 0028     		cmp	r0, #0
 439 0072 F4D0     		beq	.L24
 440 0074 F4E7     		b	.L19
 441              	.LVL33:
 442              	.L23:
ARM GAS  C:\Users\gx\AppData\Local\Temp\ccszQoK7.s 			page 30


1005:lvgl/lvgl/src/core/lv_indev.c ****                     lv_event_send(proc->types.pointer.last_pressed, LV_EVENT_DEFOCUSED, indev_act);
 443              		.loc 1 1005 17 is_stmt 1 view .LVU145
1005:lvgl/lvgl/src/core/lv_indev.c ****                     lv_event_send(proc->types.pointer.last_pressed, LV_EVENT_DEFOCUSED, indev_act);
 444              		.loc 1 1005 39 is_stmt 0 view .LVU146
 445 0076 E06A     		ldr	r0, [r4, #44]
 446              	.LVL34:
1005:lvgl/lvgl/src/core/lv_indev.c ****                     lv_event_send(proc->types.pointer.last_pressed, LV_EVENT_DEFOCUSED, indev_act);
 447              		.loc 1 1005 19 view .LVU147
 448 0078 48B1     		cbz	r0, .L25
1006:lvgl/lvgl/src/core/lv_indev.c ****                     if(indev_reset_check(proc)) return;
 449              		.loc 1 1006 21 is_stmt 1 view .LVU148
 450 007a 1F4B     		ldr	r3, .L34+4
 451 007c 1A68     		ldr	r2, [r3]
 452 007e 0F21     		movs	r1, #15
 453 0080 FFF7FEFF 		bl	lv_event_send
 454              	.LVL35:
1007:lvgl/lvgl/src/core/lv_indev.c ****                 }
 455              		.loc 1 1007 21 view .LVU149
1007:lvgl/lvgl/src/core/lv_indev.c ****                 }
 456              		.loc 1 1007 24 is_stmt 0 view .LVU150
 457 0084 2046     		mov	r0, r4
 458 0086 FFF7FEFF 		bl	indev_reset_check
 459              	.LVL36:
1007:lvgl/lvgl/src/core/lv_indev.c ****                 }
 460              		.loc 1 1007 23 view .LVU151
 461 008a 0028     		cmp	r0, #0
 462 008c E8D1     		bne	.L19
 463              	.L25:
1010:lvgl/lvgl/src/core/lv_indev.c ****                 if(indev_reset_check(proc)) return;
 464              		.loc 1 1010 17 is_stmt 1 view .LVU152
 465 008e 1A4B     		ldr	r3, .L34+4
 466 0090 1A68     		ldr	r2, [r3]
 467 0092 0E21     		movs	r1, #14
 468 0094 2846     		mov	r0, r5
 469 0096 FFF7FEFF 		bl	lv_event_send
 470              	.LVL37:
1011:lvgl/lvgl/src/core/lv_indev.c ****             }
 471              		.loc 1 1011 17 view .LVU153
1011:lvgl/lvgl/src/core/lv_indev.c ****             }
 472              		.loc 1 1011 20 is_stmt 0 view .LVU154
 473 009a 2046     		mov	r0, r4
 474 009c FFF7FEFF 		bl	indev_reset_check
 475              	.LVL38:
1011:lvgl/lvgl/src/core/lv_indev.c ****             }
 476              		.loc 1 1011 19 view .LVU155
 477 00a0 0028     		cmp	r0, #0
 478 00a2 DCD0     		beq	.L24
 479 00a4 DCE7     		b	.L19
 480              	.LVL39:
 481              	.L32:
1017:lvgl/lvgl/src/core/lv_indev.c ****                 lv_event_send(proc->types.pointer.last_pressed, LV_EVENT_DEFOCUSED, indev_act);
 482              		.loc 1 1017 53 discriminator 1 view .LVU156
 483 00a6 E36A     		ldr	r3, [r4, #44]
1017:lvgl/lvgl/src/core/lv_indev.c ****                 lv_event_send(proc->types.pointer.last_pressed, LV_EVENT_DEFOCUSED, indev_act);
 484              		.loc 1 1017 31 discriminator 1 view .LVU157
 485 00a8 002B     		cmp	r3, #0
 486 00aa C1D0     		beq	.L26
ARM GAS  C:\Users\gx\AppData\Local\Temp\ccszQoK7.s 			page 31


1018:lvgl/lvgl/src/core/lv_indev.c ****                 if(indev_reset_check(proc)) return;
 487              		.loc 1 1018 17 is_stmt 1 view .LVU158
 488 00ac 124A     		ldr	r2, .L34+4
 489 00ae 1268     		ldr	r2, [r2]
 490 00b0 0F21     		movs	r1, #15
 491 00b2 1846     		mov	r0, r3
 492              	.LVL40:
1018:lvgl/lvgl/src/core/lv_indev.c ****                 if(indev_reset_check(proc)) return;
 493              		.loc 1 1018 17 is_stmt 0 view .LVU159
 494 00b4 FFF7FEFF 		bl	lv_event_send
 495              	.LVL41:
1019:lvgl/lvgl/src/core/lv_indev.c ****             }
 496              		.loc 1 1019 17 is_stmt 1 view .LVU160
1019:lvgl/lvgl/src/core/lv_indev.c ****             }
 497              		.loc 1 1019 20 is_stmt 0 view .LVU161
 498 00b8 2046     		mov	r0, r4
 499 00ba FFF7FEFF 		bl	indev_reset_check
 500              	.LVL42:
1019:lvgl/lvgl/src/core/lv_indev.c ****             }
 501              		.loc 1 1019 19 view .LVU162
 502 00be 0028     		cmp	r0, #0
 503 00c0 C4D0     		beq	.L27
 504 00c2 CDE7     		b	.L19
 505              	.LVL43:
 506              	.L33:
1026:lvgl/lvgl/src/core/lv_indev.c ****                         if(indev_reset_check(proc)) return;
 507              		.loc 1 1026 25 is_stmt 1 view .LVU163
 508 00c4 0C4A     		ldr	r2, .L34+4
 509 00c6 1268     		ldr	r2, [r2]
 510 00c8 0F21     		movs	r1, #15
 511 00ca 1846     		mov	r0, r3
 512              	.LVL44:
1026:lvgl/lvgl/src/core/lv_indev.c ****                         if(indev_reset_check(proc)) return;
 513              		.loc 1 1026 25 is_stmt 0 view .LVU164
 514 00cc FFF7FEFF 		bl	lv_event_send
 515              	.LVL45:
1027:lvgl/lvgl/src/core/lv_indev.c ****                     }
 516              		.loc 1 1027 25 is_stmt 1 view .LVU165
1027:lvgl/lvgl/src/core/lv_indev.c ****                     }
 517              		.loc 1 1027 28 is_stmt 0 view .LVU166
 518 00d0 2046     		mov	r0, r4
 519 00d2 FFF7FEFF 		bl	indev_reset_check
 520              	.LVL46:
1027:lvgl/lvgl/src/core/lv_indev.c ****                     }
 521              		.loc 1 1027 27 view .LVU167
 522 00d6 0028     		cmp	r0, #0
 523 00d8 B8D0     		beq	.L27
 524 00da C1E7     		b	.L19
 525              	.L29:
1043:lvgl/lvgl/src/core/lv_indev.c ****                 if(indev_reset_check(proc)) return;
 526              		.loc 1 1043 17 is_stmt 1 view .LVU168
 527 00dc 064B     		ldr	r3, .L34+4
 528 00de 1A68     		ldr	r2, [r3]
 529 00e0 0E21     		movs	r1, #14
 530 00e2 2846     		mov	r0, r5
 531 00e4 FFF7FEFF 		bl	lv_event_send
 532              	.LVL47:
ARM GAS  C:\Users\gx\AppData\Local\Temp\ccszQoK7.s 			page 32


1044:lvgl/lvgl/src/core/lv_indev.c ****             }
 533              		.loc 1 1044 17 view .LVU169
1044:lvgl/lvgl/src/core/lv_indev.c ****             }
 534              		.loc 1 1044 20 is_stmt 0 view .LVU170
 535 00e8 2046     		mov	r0, r4
 536 00ea FFF7FEFF 		bl	indev_reset_check
 537              	.LVL48:
1044:lvgl/lvgl/src/core/lv_indev.c ****             }
 538              		.loc 1 1044 19 view .LVU171
 539 00ee 0028     		cmp	r0, #0
 540 00f0 B5D0     		beq	.L24
 541 00f2 B5E7     		b	.L19
 542              	.L35:
 543              		.align	2
 544              	.L34:
 545 00f4 00000000 		.word	.LANCHOR0
 546 00f8 00000000 		.word	.LANCHOR1
 547              	.LBE3:
 548              		.cfi_endproc
 549              	.LFE184:
 551              		.section	.text.indev_gesture,"ax",%progbits
 552              		.align	1
 553              		.syntax unified
 554              		.thumb
 555              		.thumb_func
 556              		.fpu fpv4-sp-d16
 558              	indev_gesture:
 559              	.LVL49:
 560              	.LFB185:
1057:lvgl/lvgl/src/core/lv_indev.c **** 
 561              		.loc 1 1057 1 is_stmt 1 view -0
 562              		.cfi_startproc
 563              		@ args = 0, pretend = 0, frame = 0
 564              		@ frame_needed = 0, uses_anonymous_args = 0
1057:lvgl/lvgl/src/core/lv_indev.c **** 
 565              		.loc 1 1057 1 is_stmt 0 view .LVU173
 566 0000 F8B5     		push	{r3, r4, r5, r6, r7, lr}
 567              	.LCFI2:
 568              		.cfi_def_cfa_offset 24
 569              		.cfi_offset 3, -24
 570              		.cfi_offset 4, -20
 571              		.cfi_offset 5, -16
 572              		.cfi_offset 6, -12
 573              		.cfi_offset 7, -8
 574              		.cfi_offset 14, -4
1059:lvgl/lvgl/src/core/lv_indev.c ****     if(proc->types.pointer.gesture_sent) return;
 575              		.loc 1 1059 5 is_stmt 1 view .LVU174
1059:lvgl/lvgl/src/core/lv_indev.c ****     if(proc->types.pointer.gesture_sent) return;
 576              		.loc 1 1059 27 is_stmt 0 view .LVU175
 577 0002 836A     		ldr	r3, [r0, #40]
1059:lvgl/lvgl/src/core/lv_indev.c ****     if(proc->types.pointer.gesture_sent) return;
 578              		.loc 1 1059 7 view .LVU176
 579 0004 03B1     		cbz	r3, .L48
 580              	.LVL50:
 581              	.L36:
1102:lvgl/lvgl/src/core/lv_indev.c **** 
 582              		.loc 1 1102 1 view .LVU177
ARM GAS  C:\Users\gx\AppData\Local\Temp\ccszQoK7.s 			page 33


 583 0006 F8BD     		pop	{r3, r4, r5, r6, r7, pc}
 584              	.LVL51:
 585              	.L48:
1102:lvgl/lvgl/src/core/lv_indev.c **** 
 586              		.loc 1 1102 1 view .LVU178
 587 0008 0546     		mov	r5, r0
1060:lvgl/lvgl/src/core/lv_indev.c **** 
 588              		.loc 1 1060 5 is_stmt 1 view .LVU179
1060:lvgl/lvgl/src/core/lv_indev.c **** 
 589              		.loc 1 1060 8 is_stmt 0 view .LVU180
 590 000a 90F83D30 		ldrb	r3, [r0, #61]	@ zero_extendqisi2
1060:lvgl/lvgl/src/core/lv_indev.c **** 
 591              		.loc 1 1060 7 view .LVU181
 592 000e 13F0010F 		tst	r3, #1
 593 0012 F8D1     		bne	.L36
1062:lvgl/lvgl/src/core/lv_indev.c **** 
 594              		.loc 1 1062 5 is_stmt 1 view .LVU182
1062:lvgl/lvgl/src/core/lv_indev.c **** 
 595              		.loc 1 1062 16 is_stmt 0 view .LVU183
 596 0014 046A     		ldr	r4, [r0, #32]
 597              	.LVL52:
1065:lvgl/lvgl/src/core/lv_indev.c ****         gesture_obj = lv_obj_get_parent(gesture_obj);
 598              		.loc 1 1065 5 is_stmt 1 view .LVU184
1065:lvgl/lvgl/src/core/lv_indev.c ****         gesture_obj = lv_obj_get_parent(gesture_obj);
 599              		.loc 1 1065 10 is_stmt 0 view .LVU185
 600 0016 03E0     		b	.L38
 601              	.LVL53:
 602              	.L40:
1066:lvgl/lvgl/src/core/lv_indev.c ****     }
 603              		.loc 1 1066 9 is_stmt 1 view .LVU186
1066:lvgl/lvgl/src/core/lv_indev.c ****     }
 604              		.loc 1 1066 23 is_stmt 0 view .LVU187
 605 0018 2046     		mov	r0, r4
 606 001a FFF7FEFF 		bl	lv_obj_get_parent
 607              	.LVL54:
 608 001e 0446     		mov	r4, r0
 609              	.LVL55:
 610              	.L38:
1065:lvgl/lvgl/src/core/lv_indev.c ****         gesture_obj = lv_obj_get_parent(gesture_obj);
 611              		.loc 1 1065 10 is_stmt 1 view .LVU188
 612 0020 34B1     		cbz	r4, .L39
1065:lvgl/lvgl/src/core/lv_indev.c ****         gesture_obj = lv_obj_get_parent(gesture_obj);
 613              		.loc 1 1065 26 is_stmt 0 discriminator 1 view .LVU189
 614 0022 4FF40051 		mov	r1, #8192
 615 0026 2046     		mov	r0, r4
 616 0028 FFF7FEFF 		bl	lv_obj_has_flag
 617              	.LVL56:
1065:lvgl/lvgl/src/core/lv_indev.c ****         gesture_obj = lv_obj_get_parent(gesture_obj);
 618              		.loc 1 1065 23 discriminator 1 view .LVU190
 619 002c 0028     		cmp	r0, #0
 620 002e F3D1     		bne	.L40
 621              	.L39:
1069:lvgl/lvgl/src/core/lv_indev.c **** 
 622              		.loc 1 1069 5 is_stmt 1 view .LVU191
1069:lvgl/lvgl/src/core/lv_indev.c **** 
 623              		.loc 1 1069 7 is_stmt 0 view .LVU192
 624 0030 002C     		cmp	r4, #0
ARM GAS  C:\Users\gx\AppData\Local\Temp\ccszQoK7.s 			page 34


 625 0032 E8D0     		beq	.L36
1071:lvgl/lvgl/src/core/lv_indev.c ****        (LV_ABS(proc->types.pointer.vect.y) < indev_act->driver->gesture_min_velocity)) {
 626              		.loc 1 1071 5 is_stmt 1 view .LVU193
1071:lvgl/lvgl/src/core/lv_indev.c ****        (LV_ABS(proc->types.pointer.vect.y) < indev_act->driver->gesture_min_velocity)) {
 627              		.loc 1 1071 9 is_stmt 0 view .LVU194
 628 0034 B5F91030 		ldrsh	r3, [r5, #16]
 629 0038 83EAE371 		eor	r1, r3, r3, asr #31
 630 003c A1EBE371 		sub	r1, r1, r3, asr #31
 631 0040 89B2     		uxth	r1, r1
1071:lvgl/lvgl/src/core/lv_indev.c ****        (LV_ABS(proc->types.pointer.vect.y) < indev_act->driver->gesture_min_velocity)) {
 632              		.loc 1 1071 55 view .LVU195
 633 0042 314A     		ldr	r2, .L49
 634 0044 1268     		ldr	r2, [r2]
 635 0046 1068     		ldr	r0, [r2]
1071:lvgl/lvgl/src/core/lv_indev.c ****        (LV_ABS(proc->types.pointer.vect.y) < indev_act->driver->gesture_min_velocity)) {
 636              		.loc 1 1071 44 view .LVU196
 637 0048 807E     		ldrb	r0, [r0, #26]	@ zero_extendqisi2
1071:lvgl/lvgl/src/core/lv_indev.c ****        (LV_ABS(proc->types.pointer.vect.y) < indev_act->driver->gesture_min_velocity)) {
 638              		.loc 1 1071 7 view .LVU197
 639 004a 8142     		cmp	r1, r0
 640 004c 0AD2     		bcs	.L41
1072:lvgl/lvgl/src/core/lv_indev.c ****         proc->types.pointer.gesture_sum.x = 0;
 641              		.loc 1 1072 9 discriminator 1 view .LVU198
 642 004e B5F91210 		ldrsh	r1, [r5, #18]
 643 0052 0029     		cmp	r1, #0
 644 0054 B8BF     		it	lt
 645 0056 4942     		rsblt	r1, r1, #0
 646 0058 89B2     		uxth	r1, r1
1071:lvgl/lvgl/src/core/lv_indev.c ****        (LV_ABS(proc->types.pointer.vect.y) < indev_act->driver->gesture_min_velocity)) {
 647              		.loc 1 1071 87 discriminator 1 view .LVU199
 648 005a 8842     		cmp	r0, r1
 649 005c 02D9     		bls	.L41
1073:lvgl/lvgl/src/core/lv_indev.c ****         proc->types.pointer.gesture_sum.y = 0;
 650              		.loc 1 1073 9 is_stmt 1 view .LVU200
1073:lvgl/lvgl/src/core/lv_indev.c ****         proc->types.pointer.gesture_sum.y = 0;
 651              		.loc 1 1073 43 is_stmt 0 view .LVU201
 652 005e 0021     		movs	r1, #0
 653 0060 2987     		strh	r1, [r5, #56]	@ movhi
1074:lvgl/lvgl/src/core/lv_indev.c ****     }
 654              		.loc 1 1074 9 is_stmt 1 view .LVU202
1074:lvgl/lvgl/src/core/lv_indev.c ****     }
 655              		.loc 1 1074 43 is_stmt 0 view .LVU203
 656 0062 6987     		strh	r1, [r5, #58]	@ movhi
 657              	.L41:
1078:lvgl/lvgl/src/core/lv_indev.c ****     proc->types.pointer.gesture_sum.y += proc->types.pointer.vect.y;
 658              		.loc 1 1078 5 is_stmt 1 view .LVU204
1078:lvgl/lvgl/src/core/lv_indev.c ****     proc->types.pointer.gesture_sum.y += proc->types.pointer.vect.y;
 659              		.loc 1 1078 39 is_stmt 0 view .LVU205
 660 0064 298F     		ldrh	r1, [r5, #56]
 661 0066 11FA83F3 		uxtah	r3, r1, r3
 662 006a 1BB2     		sxth	r3, r3
 663 006c 2B87     		strh	r3, [r5, #56]	@ movhi
1079:lvgl/lvgl/src/core/lv_indev.c **** 
 664              		.loc 1 1079 5 is_stmt 1 view .LVU206
1079:lvgl/lvgl/src/core/lv_indev.c **** 
 665              		.loc 1 1079 66 is_stmt 0 view .LVU207
 666 006e 698A     		ldrh	r1, [r5, #18]
ARM GAS  C:\Users\gx\AppData\Local\Temp\ccszQoK7.s 			page 35


1079:lvgl/lvgl/src/core/lv_indev.c **** 
 667              		.loc 1 1079 39 view .LVU208
 668 0070 688F     		ldrh	r0, [r5, #58]
 669 0072 0144     		add	r1, r1, r0
 670 0074 09B2     		sxth	r1, r1
 671 0076 6987     		strh	r1, [r5, #58]	@ movhi
1081:lvgl/lvgl/src/core/lv_indev.c ****        (LV_ABS(proc->types.pointer.gesture_sum.y) > indev_act->driver->gesture_limit)) {
 672              		.loc 1 1081 5 is_stmt 1 view .LVU209
1081:lvgl/lvgl/src/core/lv_indev.c ****        (LV_ABS(proc->types.pointer.gesture_sum.y) > indev_act->driver->gesture_limit)) {
 673              		.loc 1 1081 9 is_stmt 0 view .LVU210
 674 0078 83EAE370 		eor	r0, r3, r3, asr #31
 675 007c A0EBE370 		sub	r0, r0, r3, asr #31
 676 0080 80B2     		uxth	r0, r0
1081:lvgl/lvgl/src/core/lv_indev.c ****        (LV_ABS(proc->types.pointer.gesture_sum.y) > indev_act->driver->gesture_limit)) {
 677              		.loc 1 1081 62 view .LVU211
 678 0082 1668     		ldr	r6, [r2]
1081:lvgl/lvgl/src/core/lv_indev.c ****        (LV_ABS(proc->types.pointer.gesture_sum.y) > indev_act->driver->gesture_limit)) {
 679              		.loc 1 1081 51 view .LVU212
 680 0084 F67E     		ldrb	r6, [r6, #27]	@ zero_extendqisi2
1081:lvgl/lvgl/src/core/lv_indev.c ****        (LV_ABS(proc->types.pointer.gesture_sum.y) > indev_act->driver->gesture_limit)) {
 681              		.loc 1 1081 7 view .LVU213
 682 0086 B042     		cmp	r0, r6
 683 0088 06D8     		bhi	.L42
1082:lvgl/lvgl/src/core/lv_indev.c **** 
 684              		.loc 1 1082 9 discriminator 1 view .LVU214
 685 008a 81EAE177 		eor	r7, r1, r1, asr #31
 686 008e A7EBE177 		sub	r7, r7, r1, asr #31
 687 0092 BFB2     		uxth	r7, r7
1081:lvgl/lvgl/src/core/lv_indev.c ****        (LV_ABS(proc->types.pointer.gesture_sum.y) > indev_act->driver->gesture_limit)) {
 688              		.loc 1 1081 87 discriminator 1 view .LVU215
 689 0094 BE42     		cmp	r6, r7
 690 0096 B6D2     		bcs	.L36
 691              	.L42:
1084:lvgl/lvgl/src/core/lv_indev.c **** 
 692              		.loc 1 1084 9 is_stmt 1 view .LVU216
1084:lvgl/lvgl/src/core/lv_indev.c **** 
 693              		.loc 1 1084 42 is_stmt 0 view .LVU217
 694 0098 95F83D60 		ldrb	r6, [r5, #61]	@ zero_extendqisi2
 695 009c 46F00106 		orr	r6, r6, #1
 696 00a0 85F83D60 		strb	r6, [r5, #61]
1086:lvgl/lvgl/src/core/lv_indev.c ****             if(proc->types.pointer.gesture_sum.x > 0)
 697              		.loc 1 1086 9 is_stmt 1 view .LVU218
1086:lvgl/lvgl/src/core/lv_indev.c ****             if(proc->types.pointer.gesture_sum.x > 0)
 698              		.loc 1 1086 56 is_stmt 0 view .LVU219
 699 00a4 81EAE176 		eor	r6, r1, r1, asr #31
 700 00a8 A6EBE176 		sub	r6, r6, r1, asr #31
 701 00ac B6B2     		uxth	r6, r6
1086:lvgl/lvgl/src/core/lv_indev.c ****             if(proc->types.pointer.gesture_sum.x > 0)
 702              		.loc 1 1086 11 view .LVU220
 703 00ae B042     		cmp	r0, r6
 704 00b0 18D9     		bls	.L43
1087:lvgl/lvgl/src/core/lv_indev.c ****                 proc->types.pointer.gesture_dir = LV_DIR_RIGHT;
 705              		.loc 1 1087 13 is_stmt 1 view .LVU221
1087:lvgl/lvgl/src/core/lv_indev.c ****                 proc->types.pointer.gesture_dir = LV_DIR_RIGHT;
 706              		.loc 1 1087 15 is_stmt 0 view .LVU222
 707 00b2 002B     		cmp	r3, #0
 708 00b4 0EDD     		ble	.L44
ARM GAS  C:\Users\gx\AppData\Local\Temp\ccszQoK7.s 			page 36


1088:lvgl/lvgl/src/core/lv_indev.c ****             else
 709              		.loc 1 1088 17 is_stmt 1 view .LVU223
1088:lvgl/lvgl/src/core/lv_indev.c ****             else
 710              		.loc 1 1088 49 is_stmt 0 view .LVU224
 711 00b6 95F83C30 		ldrb	r3, [r5, #60]	@ zero_extendqisi2
 712 00ba 0221     		movs	r1, #2
 713 00bc 61F30713 		bfi	r3, r1, #4, #4
 714 00c0 85F83C30 		strb	r3, [r5, #60]
 715              	.L45:
1099:lvgl/lvgl/src/core/lv_indev.c ****         if(indev_reset_check(proc)) return;
 716              		.loc 1 1099 9 is_stmt 1 view .LVU225
 717 00c4 0C21     		movs	r1, #12
 718 00c6 2046     		mov	r0, r4
 719 00c8 FFF7FEFF 		bl	lv_event_send
 720              	.LVL57:
1100:lvgl/lvgl/src/core/lv_indev.c ****     }
 721              		.loc 1 1100 9 view .LVU226
1100:lvgl/lvgl/src/core/lv_indev.c ****     }
 722              		.loc 1 1100 12 is_stmt 0 view .LVU227
 723 00cc 2846     		mov	r0, r5
 724 00ce FFF7FEFF 		bl	indev_reset_check
 725              	.LVL58:
 726 00d2 98E7     		b	.L36
 727              	.L44:
1090:lvgl/lvgl/src/core/lv_indev.c ****         }
 728              		.loc 1 1090 17 is_stmt 1 view .LVU228
1090:lvgl/lvgl/src/core/lv_indev.c ****         }
 729              		.loc 1 1090 49 is_stmt 0 view .LVU229
 730 00d4 95F83C30 		ldrb	r3, [r5, #60]	@ zero_extendqisi2
 731 00d8 0121     		movs	r1, #1
 732 00da 61F30713 		bfi	r3, r1, #4, #4
 733 00de 85F83C30 		strb	r3, [r5, #60]
 734 00e2 EFE7     		b	.L45
 735              	.L43:
1093:lvgl/lvgl/src/core/lv_indev.c ****                 proc->types.pointer.gesture_dir = LV_DIR_BOTTOM;
 736              		.loc 1 1093 13 is_stmt 1 view .LVU230
1093:lvgl/lvgl/src/core/lv_indev.c ****                 proc->types.pointer.gesture_dir = LV_DIR_BOTTOM;
 737              		.loc 1 1093 15 is_stmt 0 view .LVU231
 738 00e4 0029     		cmp	r1, #0
 739 00e6 07DD     		ble	.L46
1094:lvgl/lvgl/src/core/lv_indev.c ****             else
 740              		.loc 1 1094 17 is_stmt 1 view .LVU232
1094:lvgl/lvgl/src/core/lv_indev.c ****             else
 741              		.loc 1 1094 49 is_stmt 0 view .LVU233
 742 00e8 95F83C30 		ldrb	r3, [r5, #60]	@ zero_extendqisi2
 743 00ec 0821     		movs	r1, #8
 744 00ee 61F30713 		bfi	r3, r1, #4, #4
 745 00f2 85F83C30 		strb	r3, [r5, #60]
 746 00f6 E5E7     		b	.L45
 747              	.L46:
1096:lvgl/lvgl/src/core/lv_indev.c ****         }
 748              		.loc 1 1096 17 is_stmt 1 view .LVU234
1096:lvgl/lvgl/src/core/lv_indev.c ****         }
 749              		.loc 1 1096 49 is_stmt 0 view .LVU235
 750 00f8 95F83C30 		ldrb	r3, [r5, #60]	@ zero_extendqisi2
 751 00fc 0421     		movs	r1, #4
 752 00fe 61F30713 		bfi	r3, r1, #4, #4
ARM GAS  C:\Users\gx\AppData\Local\Temp\ccszQoK7.s 			page 37


 753 0102 85F83C30 		strb	r3, [r5, #60]
 754 0106 DDE7     		b	.L45
 755              	.L50:
 756              		.align	2
 757              	.L49:
 758 0108 00000000 		.word	.LANCHOR1
 759              		.cfi_endproc
 760              	.LFE185:
 762              		.section	.text.indev_keypad_proc,"ax",%progbits
 763              		.align	1
 764              		.syntax unified
 765              		.thumb
 766              		.thumb_func
 767              		.fpu fpv4-sp-d16
 769              	indev_keypad_proc:
 770              	.LVL59:
 771              	.LFB178:
 376:lvgl/lvgl/src/core/lv_indev.c ****     if(data->state == LV_INDEV_STATE_PRESSED && i->proc.wait_until_release) return;
 772              		.loc 1 376 1 is_stmt 1 view -0
 773              		.cfi_startproc
 774              		@ args = 0, pretend = 0, frame = 0
 775              		@ frame_needed = 0, uses_anonymous_args = 0
 376:lvgl/lvgl/src/core/lv_indev.c ****     if(data->state == LV_INDEV_STATE_PRESSED && i->proc.wait_until_release) return;
 776              		.loc 1 376 1 is_stmt 0 view .LVU237
 777 0000 70B5     		push	{r4, r5, r6, lr}
 778              	.LCFI3:
 779              		.cfi_def_cfa_offset 16
 780              		.cfi_offset 4, -16
 781              		.cfi_offset 5, -12
 782              		.cfi_offset 6, -8
 783              		.cfi_offset 14, -4
 784 0002 0446     		mov	r4, r0
 785 0004 0D46     		mov	r5, r1
 377:lvgl/lvgl/src/core/lv_indev.c **** 
 786              		.loc 1 377 5 is_stmt 1 view .LVU238
 377:lvgl/lvgl/src/core/lv_indev.c **** 
 787              		.loc 1 377 12 is_stmt 0 view .LVU239
 788 0006 8B7B     		ldrb	r3, [r1, #14]	@ zero_extendqisi2
 377:lvgl/lvgl/src/core/lv_indev.c **** 
 789              		.loc 1 377 7 view .LVU240
 790 0008 012B     		cmp	r3, #1
 791 000a 26D0     		beq	.L70
 792              	.L52:
 379:lvgl/lvgl/src/core/lv_indev.c ****         i->proc.wait_until_release      = 0;
 793              		.loc 1 379 5 is_stmt 1 view .LVU241
 379:lvgl/lvgl/src/core/lv_indev.c ****         i->proc.wait_until_release      = 0;
 794              		.loc 1 379 8 is_stmt 0 view .LVU242
 795 000c 6379     		ldrb	r3, [r4, #5]	@ zero_extendqisi2
 379:lvgl/lvgl/src/core/lv_indev.c ****         i->proc.wait_until_release      = 0;
 796              		.loc 1 379 7 view .LVU243
 797 000e 13F0080F 		tst	r3, #8
 798 0012 08D0     		beq	.L54
 380:lvgl/lvgl/src/core/lv_indev.c ****         i->proc.pr_timestamp            = 0;
 799              		.loc 1 380 9 is_stmt 1 view .LVU244
 380:lvgl/lvgl/src/core/lv_indev.c ****         i->proc.pr_timestamp            = 0;
 800              		.loc 1 380 41 is_stmt 0 view .LVU245
 801 0014 6379     		ldrb	r3, [r4, #5]	@ zero_extendqisi2
ARM GAS  C:\Users\gx\AppData\Local\Temp\ccszQoK7.s 			page 38


 381:lvgl/lvgl/src/core/lv_indev.c ****         i->proc.long_pr_sent            = 0;
 802              		.loc 1 381 9 is_stmt 1 view .LVU246
 381:lvgl/lvgl/src/core/lv_indev.c ****         i->proc.long_pr_sent            = 0;
 803              		.loc 1 381 41 is_stmt 0 view .LVU247
 804 0016 0022     		movs	r2, #0
 805 0018 6264     		str	r2, [r4, #68]
 382:lvgl/lvgl/src/core/lv_indev.c ****         i->proc.types.keypad.last_state = LV_INDEV_STATE_RELEASED; /*To skip the processing of rele
 806              		.loc 1 382 9 is_stmt 1 view .LVU248
 382:lvgl/lvgl/src/core/lv_indev.c ****         i->proc.types.keypad.last_state = LV_INDEV_STATE_RELEASED; /*To skip the processing of rele
 807              		.loc 1 382 41 is_stmt 0 view .LVU249
 808 001a 03F0F703 		and	r3, r3, #247
 809 001e 62F30003 		bfi	r3, r2, #0, #1
 810 0022 6371     		strb	r3, [r4, #5]
 383:lvgl/lvgl/src/core/lv_indev.c ****     }
 811              		.loc 1 383 9 is_stmt 1 view .LVU250
 383:lvgl/lvgl/src/core/lv_indev.c ****     }
 812              		.loc 1 383 41 is_stmt 0 view .LVU251
 813 0024 2272     		strb	r2, [r4, #8]
 814              	.L54:
 386:lvgl/lvgl/src/core/lv_indev.c ****     if(g == NULL) return;
 815              		.loc 1 386 5 is_stmt 1 view .LVU252
 386:lvgl/lvgl/src/core/lv_indev.c ****     if(g == NULL) return;
 816              		.loc 1 386 18 is_stmt 0 view .LVU253
 817 0026 266D     		ldr	r6, [r4, #80]
 818              	.LVL60:
 387:lvgl/lvgl/src/core/lv_indev.c **** 
 819              		.loc 1 387 5 is_stmt 1 view .LVU254
 387:lvgl/lvgl/src/core/lv_indev.c **** 
 820              		.loc 1 387 7 is_stmt 0 view .LVU255
 821 0028 B6B1     		cbz	r6, .L51
 389:lvgl/lvgl/src/core/lv_indev.c ****     if(indev_obj_act == NULL) return;
 822              		.loc 1 389 5 is_stmt 1 view .LVU256
 389:lvgl/lvgl/src/core/lv_indev.c ****     if(indev_obj_act == NULL) return;
 823              		.loc 1 389 21 is_stmt 0 view .LVU257
 824 002a 3046     		mov	r0, r6
 825              	.LVL61:
 389:lvgl/lvgl/src/core/lv_indev.c ****     if(indev_obj_act == NULL) return;
 826              		.loc 1 389 21 view .LVU258
 827 002c FFF7FEFF 		bl	lv_group_get_focused
 828              	.LVL62:
 389:lvgl/lvgl/src/core/lv_indev.c ****     if(indev_obj_act == NULL) return;
 829              		.loc 1 389 19 view .LVU259
 830 0030 8A4B     		ldr	r3, .L84
 831 0032 1860     		str	r0, [r3]
 390:lvgl/lvgl/src/core/lv_indev.c **** 
 832              		.loc 1 390 5 is_stmt 1 view .LVU260
 390:lvgl/lvgl/src/core/lv_indev.c **** 
 833              		.loc 1 390 7 is_stmt 0 view .LVU261
 834 0034 80B1     		cbz	r0, .L51
 393:lvgl/lvgl/src/core/lv_indev.c **** 
 835              		.loc 1 393 5 is_stmt 1 view .LVU262
 393:lvgl/lvgl/src/core/lv_indev.c **** 
 836              		.loc 1 393 14 is_stmt 0 view .LVU263
 837 0036 E168     		ldr	r1, [r4, #12]
 838              	.LVL63:
 397:lvgl/lvgl/src/core/lv_indev.c **** 
 839              		.loc 1 397 5 is_stmt 1 view .LVU264
ARM GAS  C:\Users\gx\AppData\Local\Temp\ccszQoK7.s 			page 39


 397:lvgl/lvgl/src/core/lv_indev.c **** 
 840              		.loc 1 397 41 is_stmt 0 view .LVU265
 841 0038 6B68     		ldr	r3, [r5, #4]
 397:lvgl/lvgl/src/core/lv_indev.c **** 
 842              		.loc 1 397 35 view .LVU266
 843 003a E360     		str	r3, [r4, #12]
 402:lvgl/lvgl/src/core/lv_indev.c ****     i->proc.types.keypad.last_state = data->state;
 844              		.loc 1 402 5 is_stmt 1 view .LVU267
 402:lvgl/lvgl/src/core/lv_indev.c ****     i->proc.types.keypad.last_state = data->state;
 845              		.loc 1 402 59 is_stmt 0 view .LVU268
 846 003c 227A     		ldrb	r2, [r4, #8]	@ zero_extendqisi2
 847              	.LVL64:
 403:lvgl/lvgl/src/core/lv_indev.c **** 
 848              		.loc 1 403 5 is_stmt 1 view .LVU269
 403:lvgl/lvgl/src/core/lv_indev.c **** 
 849              		.loc 1 403 43 is_stmt 0 view .LVU270
 850 003e AB7B     		ldrb	r3, [r5, #14]	@ zero_extendqisi2
 403:lvgl/lvgl/src/core/lv_indev.c **** 
 851              		.loc 1 403 37 view .LVU271
 852 0040 2372     		strb	r3, [r4, #8]
 406:lvgl/lvgl/src/core/lv_indev.c ****         LV_LOG_INFO("%d key is pressed", data->key);
 853              		.loc 1 406 5 is_stmt 1 view .LVU272
 406:lvgl/lvgl/src/core/lv_indev.c ****         LV_LOG_INFO("%d key is pressed", data->key);
 854              		.loc 1 406 7 is_stmt 0 view .LVU273
 855 0042 012B     		cmp	r3, #1
 856 0044 0ED0     		beq	.L71
 857              	.L55:
 443:lvgl/lvgl/src/core/lv_indev.c **** 
 858              		.loc 1 443 10 is_stmt 1 view .LVU274
 443:lvgl/lvgl/src/core/lv_indev.c **** 
 859              		.loc 1 443 12 is_stmt 0 view .LVU275
 860 0046 012B     		cmp	r3, #1
 861 0048 58D0     		beq	.L72
 862              	.L61:
 490:lvgl/lvgl/src/core/lv_indev.c ****         LV_LOG_INFO("%d key is released", data->key);
 863              		.loc 1 490 10 is_stmt 1 view .LVU276
 490:lvgl/lvgl/src/core/lv_indev.c ****         LV_LOG_INFO("%d key is released", data->key);
 864              		.loc 1 490 12 is_stmt 0 view .LVU277
 865 004a 13B9     		cbnz	r3, .L57
 490:lvgl/lvgl/src/core/lv_indev.c ****         LV_LOG_INFO("%d key is released", data->key);
 866              		.loc 1 490 52 discriminator 1 view .LVU278
 867 004c 012A     		cmp	r2, #1
 868 004e 00F0D180 		beq	.L73
 869              	.LVL65:
 870              	.L57:
 511:lvgl/lvgl/src/core/lv_indev.c **** }
 871              		.loc 1 511 5 is_stmt 1 view .LVU279
 511:lvgl/lvgl/src/core/lv_indev.c **** }
 872              		.loc 1 511 19 is_stmt 0 view .LVU280
 873 0052 824B     		ldr	r3, .L84
 874 0054 0022     		movs	r2, #0
 875 0056 1A60     		str	r2, [r3]
 876              	.LVL66:
 877              	.L51:
 512:lvgl/lvgl/src/core/lv_indev.c **** 
 878              		.loc 1 512 1 view .LVU281
 879 0058 70BD     		pop	{r4, r5, r6, pc}
ARM GAS  C:\Users\gx\AppData\Local\Temp\ccszQoK7.s 			page 40


 880              	.LVL67:
 881              	.L70:
 377:lvgl/lvgl/src/core/lv_indev.c **** 
 882              		.loc 1 377 46 discriminator 1 view .LVU282
 883 005a 4379     		ldrb	r3, [r0, #5]	@ zero_extendqisi2
 884 005c 13F0080F 		tst	r3, #8
 885 0060 D4D0     		beq	.L52
 886 0062 F9E7     		b	.L51
 887              	.LVL68:
 888              	.L71:
 406:lvgl/lvgl/src/core/lv_indev.c ****         LV_LOG_INFO("%d key is pressed", data->key);
 889              		.loc 1 406 46 discriminator 1 view .LVU283
 890 0064 002A     		cmp	r2, #0
 891 0066 EED1     		bne	.L55
 407:lvgl/lvgl/src/core/lv_indev.c ****         i->proc.pr_timestamp = lv_tick_get();
 892              		.loc 1 407 9 is_stmt 1 view .LVU284
 407:lvgl/lvgl/src/core/lv_indev.c ****         i->proc.pr_timestamp = lv_tick_get();
 893              		.loc 1 407 9 view .LVU285
 407:lvgl/lvgl/src/core/lv_indev.c ****         i->proc.pr_timestamp = lv_tick_get();
 894              		.loc 1 407 9 view .LVU286
 407:lvgl/lvgl/src/core/lv_indev.c ****         i->proc.pr_timestamp = lv_tick_get();
 895              		.loc 1 407 52 view .LVU287
 408:lvgl/lvgl/src/core/lv_indev.c **** 
 896              		.loc 1 408 9 view .LVU288
 408:lvgl/lvgl/src/core/lv_indev.c **** 
 897              		.loc 1 408 32 is_stmt 0 view .LVU289
 898 0068 FFF7FEFF 		bl	lv_tick_get
 899              	.LVL69:
 408:lvgl/lvgl/src/core/lv_indev.c **** 
 900              		.loc 1 408 30 view .LVU290
 901 006c 6064     		str	r0, [r4, #68]
 411:lvgl/lvgl/src/core/lv_indev.c ****             /*Send the ENTER as a normal KEY*/
 902              		.loc 1 411 9 is_stmt 1 view .LVU291
 411:lvgl/lvgl/src/core/lv_indev.c ****             /*Send the ENTER as a normal KEY*/
 903              		.loc 1 411 16 is_stmt 0 view .LVU292
 904 006e 6968     		ldr	r1, [r5, #4]
 411:lvgl/lvgl/src/core/lv_indev.c ****             /*Send the ENTER as a normal KEY*/
 905              		.loc 1 411 11 view .LVU293
 906 0070 0A29     		cmp	r1, #10
 907 0072 09D0     		beq	.L74
 418:lvgl/lvgl/src/core/lv_indev.c ****             /*Send the ESC as a normal KEY*/
 908              		.loc 1 418 14 is_stmt 1 view .LVU294
 418:lvgl/lvgl/src/core/lv_indev.c ****             /*Send the ESC as a normal KEY*/
 909              		.loc 1 418 16 is_stmt 0 view .LVU295
 910 0074 1B29     		cmp	r1, #27
 911 0076 17D0     		beq	.L75
 426:lvgl/lvgl/src/core/lv_indev.c ****             lv_group_set_editing(g, false); /*Editing is not used by KEYPAD is be sure it is disabl
 912              		.loc 1 426 14 is_stmt 1 view .LVU296
 426:lvgl/lvgl/src/core/lv_indev.c ****             lv_group_set_editing(g, false); /*Editing is not used by KEYPAD is be sure it is disabl
 913              		.loc 1 426 16 is_stmt 0 view .LVU297
 914 0078 0929     		cmp	r1, #9
 915 007a 25D0     		beq	.L76
 432:lvgl/lvgl/src/core/lv_indev.c ****             lv_group_set_editing(g, false); /*Editing is not used by KEYPAD is be sure it is disabl
 916              		.loc 1 432 14 is_stmt 1 view .LVU298
 432:lvgl/lvgl/src/core/lv_indev.c ****             lv_group_set_editing(g, false); /*Editing is not used by KEYPAD is be sure it is disabl
 917              		.loc 1 432 16 is_stmt 0 view .LVU299
 918 007c 0B29     		cmp	r1, #11
ARM GAS  C:\Users\gx\AppData\Local\Temp\ccszQoK7.s 			page 41


 919 007e 30D0     		beq	.L77
 439:lvgl/lvgl/src/core/lv_indev.c ****         }
 920              		.loc 1 439 13 is_stmt 1 view .LVU300
 921 0080 3046     		mov	r0, r6
 922 0082 FFF7FEFF 		bl	lv_group_send_data
 923              	.LVL70:
 924 0086 E4E7     		b	.L57
 925              	.L74:
 413:lvgl/lvgl/src/core/lv_indev.c **** 
 926              		.loc 1 413 13 view .LVU301
 927 0088 3046     		mov	r0, r6
 928 008a FFF7FEFF 		bl	lv_group_send_data
 929              	.LVL71:
 415:lvgl/lvgl/src/core/lv_indev.c ****             if(indev_reset_check(&i->proc)) return;
 930              		.loc 1 415 13 view .LVU302
 931 008e 744B     		ldr	r3, .L84+4
 932 0090 1A68     		ldr	r2, [r3]
 933 0092 0121     		movs	r1, #1
 934 0094 714B     		ldr	r3, .L84
 935 0096 1868     		ldr	r0, [r3]
 936 0098 FFF7FEFF 		bl	lv_event_send
 937              	.LVL72:
 416:lvgl/lvgl/src/core/lv_indev.c ****         }
 938              		.loc 1 416 13 view .LVU303
 416:lvgl/lvgl/src/core/lv_indev.c ****         }
 939              		.loc 1 416 16 is_stmt 0 view .LVU304
 940 009c 201D     		adds	r0, r4, #4
 941 009e FFF7FEFF 		bl	indev_reset_check
 942              	.LVL73:
 416:lvgl/lvgl/src/core/lv_indev.c ****         }
 943              		.loc 1 416 15 view .LVU305
 944 00a2 0028     		cmp	r0, #0
 945 00a4 D5D0     		beq	.L57
 946 00a6 D7E7     		b	.L51
 947              	.L75:
 420:lvgl/lvgl/src/core/lv_indev.c **** 
 948              		.loc 1 420 13 is_stmt 1 view .LVU306
 949 00a8 3046     		mov	r0, r6
 950 00aa FFF7FEFF 		bl	lv_group_send_data
 951              	.LVL74:
 422:lvgl/lvgl/src/core/lv_indev.c ****             if(indev_reset_check(&i->proc)) return;
 952              		.loc 1 422 13 view .LVU307
 953 00ae 6C4B     		ldr	r3, .L84+4
 954 00b0 1A68     		ldr	r2, [r3]
 955 00b2 2021     		movs	r1, #32
 956 00b4 694B     		ldr	r3, .L84
 957 00b6 1868     		ldr	r0, [r3]
 958 00b8 FFF7FEFF 		bl	lv_event_send
 959              	.LVL75:
 423:lvgl/lvgl/src/core/lv_indev.c ****         }
 960              		.loc 1 423 13 view .LVU308
 423:lvgl/lvgl/src/core/lv_indev.c ****         }
 961              		.loc 1 423 16 is_stmt 0 view .LVU309
 962 00bc 201D     		adds	r0, r4, #4
 963 00be FFF7FEFF 		bl	indev_reset_check
 964              	.LVL76:
 423:lvgl/lvgl/src/core/lv_indev.c ****         }
ARM GAS  C:\Users\gx\AppData\Local\Temp\ccszQoK7.s 			page 42


 965              		.loc 1 423 15 view .LVU310
 966 00c2 0028     		cmp	r0, #0
 967 00c4 C5D0     		beq	.L57
 968 00c6 C7E7     		b	.L51
 969              	.L76:
 427:lvgl/lvgl/src/core/lv_indev.c ****             lv_group_focus_next(g);
 970              		.loc 1 427 13 is_stmt 1 view .LVU311
 971 00c8 0021     		movs	r1, #0
 972 00ca 3046     		mov	r0, r6
 973 00cc FFF7FEFF 		bl	lv_group_set_editing
 974              	.LVL77:
 428:lvgl/lvgl/src/core/lv_indev.c ****             if(indev_reset_check(&i->proc)) return;
 975              		.loc 1 428 13 view .LVU312
 976 00d0 3046     		mov	r0, r6
 977 00d2 FFF7FEFF 		bl	lv_group_focus_next
 978              	.LVL78:
 429:lvgl/lvgl/src/core/lv_indev.c ****         }
 979              		.loc 1 429 13 view .LVU313
 429:lvgl/lvgl/src/core/lv_indev.c ****         }
 980              		.loc 1 429 16 is_stmt 0 view .LVU314
 981 00d6 201D     		adds	r0, r4, #4
 982 00d8 FFF7FEFF 		bl	indev_reset_check
 983              	.LVL79:
 429:lvgl/lvgl/src/core/lv_indev.c ****         }
 984              		.loc 1 429 15 view .LVU315
 985 00dc 0028     		cmp	r0, #0
 986 00de B8D0     		beq	.L57
 987 00e0 BAE7     		b	.L51
 988              	.L77:
 433:lvgl/lvgl/src/core/lv_indev.c ****             lv_group_focus_prev(g);
 989              		.loc 1 433 13 is_stmt 1 view .LVU316
 990 00e2 0021     		movs	r1, #0
 991 00e4 3046     		mov	r0, r6
 992 00e6 FFF7FEFF 		bl	lv_group_set_editing
 993              	.LVL80:
 434:lvgl/lvgl/src/core/lv_indev.c ****             if(indev_reset_check(&i->proc)) return;
 994              		.loc 1 434 13 view .LVU317
 995 00ea 3046     		mov	r0, r6
 996 00ec FFF7FEFF 		bl	lv_group_focus_prev
 997              	.LVL81:
 435:lvgl/lvgl/src/core/lv_indev.c ****         }
 998              		.loc 1 435 13 view .LVU318
 435:lvgl/lvgl/src/core/lv_indev.c ****         }
 999              		.loc 1 435 16 is_stmt 0 view .LVU319
 1000 00f0 201D     		adds	r0, r4, #4
 1001 00f2 FFF7FEFF 		bl	indev_reset_check
 1002              	.LVL82:
 435:lvgl/lvgl/src/core/lv_indev.c ****         }
 1003              		.loc 1 435 15 view .LVU320
 1004 00f6 0028     		cmp	r0, #0
 1005 00f8 ABD0     		beq	.L57
 1006 00fa ADE7     		b	.L51
 1007              	.LVL83:
 1008              	.L72:
 443:lvgl/lvgl/src/core/lv_indev.c **** 
 1009              		.loc 1 443 51 discriminator 1 view .LVU321
 1010 00fc 012A     		cmp	r2, #1
ARM GAS  C:\Users\gx\AppData\Local\Temp\ccszQoK7.s 			page 43


 1011 00fe A4D1     		bne	.L61
 445:lvgl/lvgl/src/core/lv_indev.c ****             lv_event_send(indev_obj_act, LV_EVENT_PRESSING, indev_act);
 1012              		.loc 1 445 9 is_stmt 1 view .LVU322
 445:lvgl/lvgl/src/core/lv_indev.c ****             lv_event_send(indev_obj_act, LV_EVENT_PRESSING, indev_act);
 1013              		.loc 1 445 16 is_stmt 0 view .LVU323
 1014 0100 6B68     		ldr	r3, [r5, #4]
 445:lvgl/lvgl/src/core/lv_indev.c ****             lv_event_send(indev_obj_act, LV_EVENT_PRESSING, indev_act);
 1015              		.loc 1 445 11 view .LVU324
 1016 0102 0A2B     		cmp	r3, #10
 1017 0104 21D0     		beq	.L78
 1018              	.LVL84:
 1019              	.L62:
 451:lvgl/lvgl/src/core/lv_indev.c ****             i->proc.long_pr_sent = 1;
 1020              		.loc 1 451 9 is_stmt 1 view .LVU325
 451:lvgl/lvgl/src/core/lv_indev.c ****             i->proc.long_pr_sent = 1;
 1021              		.loc 1 451 33 is_stmt 0 view .LVU326
 1022 0106 6379     		ldrb	r3, [r4, #5]	@ zero_extendqisi2
 451:lvgl/lvgl/src/core/lv_indev.c ****             i->proc.long_pr_sent = 1;
 1023              		.loc 1 451 11 view .LVU327
 1024 0108 13F0010F 		tst	r3, #1
 1025 010c 28D0     		beq	.L79
 1026              	.L63:
 460:lvgl/lvgl/src/core/lv_indev.c ****                 lv_tick_elaps(i->proc.longpr_rep_timestamp) > i->driver->long_press_repeat_time) {
 1027              		.loc 1 460 14 is_stmt 1 view .LVU328
 460:lvgl/lvgl/src/core/lv_indev.c ****                 lv_tick_elaps(i->proc.longpr_rep_timestamp) > i->driver->long_press_repeat_time) {
 1028              		.loc 1 460 38 is_stmt 0 view .LVU329
 1029 010e 6379     		ldrb	r3, [r4, #5]	@ zero_extendqisi2
 460:lvgl/lvgl/src/core/lv_indev.c ****                 lv_tick_elaps(i->proc.longpr_rep_timestamp) > i->driver->long_press_repeat_time) {
 1030              		.loc 1 460 16 view .LVU330
 1031 0110 13F0010F 		tst	r3, #1
 1032 0114 9DD0     		beq	.L57
 461:lvgl/lvgl/src/core/lv_indev.c **** 
 1033              		.loc 1 461 17 discriminator 1 view .LVU331
 1034 0116 A06C     		ldr	r0, [r4, #72]
 1035 0118 FFF7FEFF 		bl	lv_tick_elaps
 1036              	.LVL85:
 461:lvgl/lvgl/src/core/lv_indev.c **** 
 1037              		.loc 1 461 64 discriminator 1 view .LVU332
 1038 011c 2368     		ldr	r3, [r4]
 461:lvgl/lvgl/src/core/lv_indev.c **** 
 1039              		.loc 1 461 72 discriminator 1 view .LVU333
 1040 011e DB8B     		ldrh	r3, [r3, #30]
 460:lvgl/lvgl/src/core/lv_indev.c ****                 lv_tick_elaps(i->proc.longpr_rep_timestamp) > i->driver->long_press_repeat_time) {
 1041              		.loc 1 460 43 discriminator 1 view .LVU334
 1042 0120 9842     		cmp	r0, r3
 1043 0122 96D9     		bls	.L57
 463:lvgl/lvgl/src/core/lv_indev.c **** 
 1044              		.loc 1 463 13 is_stmt 1 view .LVU335
 463:lvgl/lvgl/src/core/lv_indev.c **** 
 1045              		.loc 1 463 44 is_stmt 0 view .LVU336
 1046 0124 FFF7FEFF 		bl	lv_tick_get
 1047              	.LVL86:
 463:lvgl/lvgl/src/core/lv_indev.c **** 
 1048              		.loc 1 463 42 view .LVU337
 1049 0128 A064     		str	r0, [r4, #72]
 466:lvgl/lvgl/src/core/lv_indev.c ****                 lv_event_send(indev_obj_act, LV_EVENT_LONG_PRESSED_REPEAT, indev_act);
 1050              		.loc 1 466 13 is_stmt 1 view .LVU338
ARM GAS  C:\Users\gx\AppData\Local\Temp\ccszQoK7.s 			page 44


 466:lvgl/lvgl/src/core/lv_indev.c ****                 lv_event_send(indev_obj_act, LV_EVENT_LONG_PRESSED_REPEAT, indev_act);
 1051              		.loc 1 466 20 is_stmt 0 view .LVU339
 1052 012a 6968     		ldr	r1, [r5, #4]
 466:lvgl/lvgl/src/core/lv_indev.c ****                 lv_event_send(indev_obj_act, LV_EVENT_LONG_PRESSED_REPEAT, indev_act);
 1053              		.loc 1 466 15 view .LVU340
 1054 012c 0A29     		cmp	r1, #10
 1055 012e 37D0     		beq	.L80
 471:lvgl/lvgl/src/core/lv_indev.c ****                 lv_group_set_editing(g, false); /*Editing is not used by KEYPAD is be sure it is di
 1056              		.loc 1 471 18 is_stmt 1 view .LVU341
 471:lvgl/lvgl/src/core/lv_indev.c ****                 lv_group_set_editing(g, false); /*Editing is not used by KEYPAD is be sure it is di
 1057              		.loc 1 471 20 is_stmt 0 view .LVU342
 1058 0130 0929     		cmp	r1, #9
 1059 0132 43D0     		beq	.L81
 477:lvgl/lvgl/src/core/lv_indev.c ****                 lv_group_set_editing(g, false); /*Editing is not used by KEYPAD is be sure it is di
 1060              		.loc 1 477 18 is_stmt 1 view .LVU343
 477:lvgl/lvgl/src/core/lv_indev.c ****                 lv_group_set_editing(g, false); /*Editing is not used by KEYPAD is be sure it is di
 1061              		.loc 1 477 20 is_stmt 0 view .LVU344
 1062 0134 0B29     		cmp	r1, #11
 1063 0136 4FD0     		beq	.L82
 484:lvgl/lvgl/src/core/lv_indev.c ****                 if(indev_reset_check(&i->proc)) return;
 1064              		.loc 1 484 17 is_stmt 1 view .LVU345
 1065 0138 3046     		mov	r0, r6
 1066 013a FFF7FEFF 		bl	lv_group_send_data
 1067              	.LVL87:
 485:lvgl/lvgl/src/core/lv_indev.c ****             }
 1068              		.loc 1 485 17 view .LVU346
 485:lvgl/lvgl/src/core/lv_indev.c ****             }
 1069              		.loc 1 485 20 is_stmt 0 view .LVU347
 1070 013e 201D     		adds	r0, r4, #4
 1071 0140 FFF7FEFF 		bl	indev_reset_check
 1072              	.LVL88:
 485:lvgl/lvgl/src/core/lv_indev.c ****             }
 1073              		.loc 1 485 19 view .LVU348
 1074 0144 0028     		cmp	r0, #0
 1075 0146 84D0     		beq	.L57
 1076 0148 86E7     		b	.L51
 1077              	.LVL89:
 1078              	.L78:
 446:lvgl/lvgl/src/core/lv_indev.c ****             if(indev_reset_check(&i->proc)) return;
 1079              		.loc 1 446 13 is_stmt 1 view .LVU349
 1080 014a 454B     		ldr	r3, .L84+4
 1081 014c 1A68     		ldr	r2, [r3]
 1082              	.LVL90:
 446:lvgl/lvgl/src/core/lv_indev.c ****             if(indev_reset_check(&i->proc)) return;
 1083              		.loc 1 446 13 is_stmt 0 view .LVU350
 1084 014e 0221     		movs	r1, #2
 1085              	.LVL91:
 446:lvgl/lvgl/src/core/lv_indev.c ****             if(indev_reset_check(&i->proc)) return;
 1086              		.loc 1 446 13 view .LVU351
 1087 0150 FFF7FEFF 		bl	lv_event_send
 1088              	.LVL92:
 447:lvgl/lvgl/src/core/lv_indev.c ****         }
 1089              		.loc 1 447 13 is_stmt 1 view .LVU352
 447:lvgl/lvgl/src/core/lv_indev.c ****         }
 1090              		.loc 1 447 16 is_stmt 0 view .LVU353
 1091 0154 201D     		adds	r0, r4, #4
 1092 0156 FFF7FEFF 		bl	indev_reset_check
ARM GAS  C:\Users\gx\AppData\Local\Temp\ccszQoK7.s 			page 45


 1093              	.LVL93:
 447:lvgl/lvgl/src/core/lv_indev.c ****         }
 1094              		.loc 1 447 15 view .LVU354
 1095 015a 0028     		cmp	r0, #0
 1096 015c D3D0     		beq	.L62
 1097 015e 7BE7     		b	.L51
 1098              	.L79:
 451:lvgl/lvgl/src/core/lv_indev.c ****             i->proc.long_pr_sent = 1;
 1099              		.loc 1 451 41 discriminator 1 view .LVU355
 1100 0160 606C     		ldr	r0, [r4, #68]
 1101 0162 FFF7FEFF 		bl	lv_tick_elaps
 1102              	.LVL94:
 451:lvgl/lvgl/src/core/lv_indev.c ****             i->proc.long_pr_sent = 1;
 1103              		.loc 1 451 80 discriminator 1 view .LVU356
 1104 0166 2368     		ldr	r3, [r4]
 451:lvgl/lvgl/src/core/lv_indev.c ****             i->proc.long_pr_sent = 1;
 1105              		.loc 1 451 88 discriminator 1 view .LVU357
 1106 0168 9B8B     		ldrh	r3, [r3, #28]
 451:lvgl/lvgl/src/core/lv_indev.c ****             i->proc.long_pr_sent = 1;
 1107              		.loc 1 451 38 discriminator 1 view .LVU358
 1108 016a 9842     		cmp	r0, r3
 1109 016c CFD9     		bls	.L63
 452:lvgl/lvgl/src/core/lv_indev.c ****             if(data->key == LV_KEY_ENTER) {
 1110              		.loc 1 452 13 is_stmt 1 view .LVU359
 452:lvgl/lvgl/src/core/lv_indev.c ****             if(data->key == LV_KEY_ENTER) {
 1111              		.loc 1 452 34 is_stmt 0 view .LVU360
 1112 016e 6379     		ldrb	r3, [r4, #5]	@ zero_extendqisi2
 1113 0170 43F00103 		orr	r3, r3, #1
 1114 0174 6371     		strb	r3, [r4, #5]
 453:lvgl/lvgl/src/core/lv_indev.c ****                 i->proc.longpr_rep_timestamp = lv_tick_get();
 1115              		.loc 1 453 13 is_stmt 1 view .LVU361
 453:lvgl/lvgl/src/core/lv_indev.c ****                 i->proc.longpr_rep_timestamp = lv_tick_get();
 1116              		.loc 1 453 20 is_stmt 0 view .LVU362
 1117 0176 6B68     		ldr	r3, [r5, #4]
 453:lvgl/lvgl/src/core/lv_indev.c ****                 i->proc.longpr_rep_timestamp = lv_tick_get();
 1118              		.loc 1 453 15 view .LVU363
 1119 0178 0A2B     		cmp	r3, #10
 1120 017a 7FF46AAF 		bne	.L57
 454:lvgl/lvgl/src/core/lv_indev.c ****                 lv_event_send(indev_obj_act, LV_EVENT_LONG_PRESSED, indev_act);
 1121              		.loc 1 454 17 is_stmt 1 view .LVU364
 454:lvgl/lvgl/src/core/lv_indev.c ****                 lv_event_send(indev_obj_act, LV_EVENT_LONG_PRESSED, indev_act);
 1122              		.loc 1 454 48 is_stmt 0 view .LVU365
 1123 017e FFF7FEFF 		bl	lv_tick_get
 1124              	.LVL95:
 454:lvgl/lvgl/src/core/lv_indev.c ****                 lv_event_send(indev_obj_act, LV_EVENT_LONG_PRESSED, indev_act);
 1125              		.loc 1 454 46 view .LVU366
 1126 0182 A064     		str	r0, [r4, #72]
 455:lvgl/lvgl/src/core/lv_indev.c ****                 if(indev_reset_check(&i->proc)) return;
 1127              		.loc 1 455 17 is_stmt 1 view .LVU367
 1128 0184 364B     		ldr	r3, .L84+4
 1129 0186 1A68     		ldr	r2, [r3]
 1130 0188 0521     		movs	r1, #5
 1131 018a 344B     		ldr	r3, .L84
 1132 018c 1868     		ldr	r0, [r3]
 1133 018e FFF7FEFF 		bl	lv_event_send
 1134              	.LVL96:
 456:lvgl/lvgl/src/core/lv_indev.c ****             }
ARM GAS  C:\Users\gx\AppData\Local\Temp\ccszQoK7.s 			page 46


 1135              		.loc 1 456 17 view .LVU368
 456:lvgl/lvgl/src/core/lv_indev.c ****             }
 1136              		.loc 1 456 20 is_stmt 0 view .LVU369
 1137 0192 201D     		adds	r0, r4, #4
 1138 0194 FFF7FEFF 		bl	indev_reset_check
 1139              	.LVL97:
 456:lvgl/lvgl/src/core/lv_indev.c ****             }
 1140              		.loc 1 456 19 view .LVU370
 1141 0198 0028     		cmp	r0, #0
 1142 019a 3FF45AAF 		beq	.L57
 1143 019e 5BE7     		b	.L51
 1144              	.L80:
 467:lvgl/lvgl/src/core/lv_indev.c ****                 if(indev_reset_check(&i->proc)) return;
 1145              		.loc 1 467 17 is_stmt 1 view .LVU371
 1146 01a0 2F4B     		ldr	r3, .L84+4
 1147 01a2 1A68     		ldr	r2, [r3]
 1148 01a4 0621     		movs	r1, #6
 1149 01a6 2D4B     		ldr	r3, .L84
 1150 01a8 1868     		ldr	r0, [r3]
 1151 01aa FFF7FEFF 		bl	lv_event_send
 1152              	.LVL98:
 468:lvgl/lvgl/src/core/lv_indev.c ****             }
 1153              		.loc 1 468 17 view .LVU372
 468:lvgl/lvgl/src/core/lv_indev.c ****             }
 1154              		.loc 1 468 20 is_stmt 0 view .LVU373
 1155 01ae 201D     		adds	r0, r4, #4
 1156 01b0 FFF7FEFF 		bl	indev_reset_check
 1157              	.LVL99:
 468:lvgl/lvgl/src/core/lv_indev.c ****             }
 1158              		.loc 1 468 19 view .LVU374
 1159 01b4 0028     		cmp	r0, #0
 1160 01b6 3FF44CAF 		beq	.L57
 1161 01ba 4DE7     		b	.L51
 1162              	.L81:
 472:lvgl/lvgl/src/core/lv_indev.c ****                 lv_group_focus_next(g);
 1163              		.loc 1 472 17 is_stmt 1 view .LVU375
 1164 01bc 0021     		movs	r1, #0
 1165 01be 3046     		mov	r0, r6
 1166 01c0 FFF7FEFF 		bl	lv_group_set_editing
 1167              	.LVL100:
 473:lvgl/lvgl/src/core/lv_indev.c ****                 if(indev_reset_check(&i->proc)) return;
 1168              		.loc 1 473 17 view .LVU376
 1169 01c4 3046     		mov	r0, r6
 1170 01c6 FFF7FEFF 		bl	lv_group_focus_next
 1171              	.LVL101:
 474:lvgl/lvgl/src/core/lv_indev.c ****             }
 1172              		.loc 1 474 17 view .LVU377
 474:lvgl/lvgl/src/core/lv_indev.c ****             }
 1173              		.loc 1 474 20 is_stmt 0 view .LVU378
 1174 01ca 201D     		adds	r0, r4, #4
 1175 01cc FFF7FEFF 		bl	indev_reset_check
 1176              	.LVL102:
 474:lvgl/lvgl/src/core/lv_indev.c ****             }
 1177              		.loc 1 474 19 view .LVU379
 1178 01d0 0028     		cmp	r0, #0
 1179 01d2 3FF43EAF 		beq	.L57
 1180 01d6 3FE7     		b	.L51
ARM GAS  C:\Users\gx\AppData\Local\Temp\ccszQoK7.s 			page 47


 1181              	.L82:
 478:lvgl/lvgl/src/core/lv_indev.c ****                 lv_group_focus_prev(g);
 1182              		.loc 1 478 17 is_stmt 1 view .LVU380
 1183 01d8 0021     		movs	r1, #0
 1184 01da 3046     		mov	r0, r6
 1185 01dc FFF7FEFF 		bl	lv_group_set_editing
 1186              	.LVL103:
 479:lvgl/lvgl/src/core/lv_indev.c ****                 if(indev_reset_check(&i->proc)) return;
 1187              		.loc 1 479 17 view .LVU381
 1188 01e0 3046     		mov	r0, r6
 1189 01e2 FFF7FEFF 		bl	lv_group_focus_prev
 1190              	.LVL104:
 480:lvgl/lvgl/src/core/lv_indev.c ****             }
 1191              		.loc 1 480 17 view .LVU382
 480:lvgl/lvgl/src/core/lv_indev.c ****             }
 1192              		.loc 1 480 20 is_stmt 0 view .LVU383
 1193 01e6 201D     		adds	r0, r4, #4
 1194 01e8 FFF7FEFF 		bl	indev_reset_check
 1195              	.LVL105:
 480:lvgl/lvgl/src/core/lv_indev.c ****             }
 1196              		.loc 1 480 19 view .LVU384
 1197 01ec 0028     		cmp	r0, #0
 1198 01ee 3FF430AF 		beq	.L57
 1199 01f2 31E7     		b	.L51
 1200              	.LVL106:
 1201              	.L73:
 491:lvgl/lvgl/src/core/lv_indev.c ****         /*The user might clear the key when it was released. Always release the pressed key*/
 1202              		.loc 1 491 9 is_stmt 1 view .LVU385
 491:lvgl/lvgl/src/core/lv_indev.c ****         /*The user might clear the key when it was released. Always release the pressed key*/
 1203              		.loc 1 491 9 view .LVU386
 491:lvgl/lvgl/src/core/lv_indev.c ****         /*The user might clear the key when it was released. Always release the pressed key*/
 1204              		.loc 1 491 9 view .LVU387
 491:lvgl/lvgl/src/core/lv_indev.c ****         /*The user might clear the key when it was released. Always release the pressed key*/
 1205              		.loc 1 491 53 view .LVU388
 493:lvgl/lvgl/src/core/lv_indev.c ****         if(data->key == LV_KEY_ENTER) {
 1206              		.loc 1 493 9 view .LVU389
 493:lvgl/lvgl/src/core/lv_indev.c ****         if(data->key == LV_KEY_ENTER) {
 1207              		.loc 1 493 19 is_stmt 0 view .LVU390
 1208 01f4 6960     		str	r1, [r5, #4]
 494:lvgl/lvgl/src/core/lv_indev.c **** 
 1209              		.loc 1 494 9 is_stmt 1 view .LVU391
 494:lvgl/lvgl/src/core/lv_indev.c **** 
 1210              		.loc 1 494 11 is_stmt 0 view .LVU392
 1211 01f6 0A29     		cmp	r1, #10
 1212 01f8 06D0     		beq	.L83
 1213              	.LVL107:
 1214              	.L67:
 508:lvgl/lvgl/src/core/lv_indev.c ****         i->proc.long_pr_sent = 0;
 1215              		.loc 1 508 9 is_stmt 1 view .LVU393
 508:lvgl/lvgl/src/core/lv_indev.c ****         i->proc.long_pr_sent = 0;
 1216              		.loc 1 508 30 is_stmt 0 view .LVU394
 1217 01fa 0022     		movs	r2, #0
 1218 01fc 6264     		str	r2, [r4, #68]
 509:lvgl/lvgl/src/core/lv_indev.c ****     }
 1219              		.loc 1 509 9 is_stmt 1 view .LVU395
 509:lvgl/lvgl/src/core/lv_indev.c ****     }
 1220              		.loc 1 509 30 is_stmt 0 view .LVU396
ARM GAS  C:\Users\gx\AppData\Local\Temp\ccszQoK7.s 			page 48


 1221 01fe 6379     		ldrb	r3, [r4, #5]	@ zero_extendqisi2
 1222 0200 62F30003 		bfi	r3, r2, #0, #1
 1223 0204 6371     		strb	r3, [r4, #5]
 1224 0206 24E7     		b	.L57
 1225              	.LVL108:
 1226              	.L83:
 496:lvgl/lvgl/src/core/lv_indev.c ****             if(indev_reset_check(&i->proc)) return;
 1227              		.loc 1 496 13 is_stmt 1 view .LVU397
 1228 0208 154B     		ldr	r3, .L84+4
 1229 020a 1A68     		ldr	r2, [r3]
 1230              	.LVL109:
 496:lvgl/lvgl/src/core/lv_indev.c ****             if(indev_reset_check(&i->proc)) return;
 1231              		.loc 1 496 13 is_stmt 0 view .LVU398
 1232 020c 0821     		movs	r1, #8
 1233              	.LVL110:
 496:lvgl/lvgl/src/core/lv_indev.c ****             if(indev_reset_check(&i->proc)) return;
 1234              		.loc 1 496 13 view .LVU399
 1235 020e FFF7FEFF 		bl	lv_event_send
 1236              	.LVL111:
 497:lvgl/lvgl/src/core/lv_indev.c **** 
 1237              		.loc 1 497 13 is_stmt 1 view .LVU400
 497:lvgl/lvgl/src/core/lv_indev.c **** 
 1238              		.loc 1 497 16 is_stmt 0 view .LVU401
 1239 0212 251D     		adds	r5, r4, #4
 1240              	.LVL112:
 497:lvgl/lvgl/src/core/lv_indev.c **** 
 1241              		.loc 1 497 16 view .LVU402
 1242 0214 2846     		mov	r0, r5
 1243 0216 FFF7FEFF 		bl	indev_reset_check
 1244              	.LVL113:
 497:lvgl/lvgl/src/core/lv_indev.c **** 
 1245              		.loc 1 497 15 view .LVU403
 1246 021a 0028     		cmp	r0, #0
 1247 021c 7FF41CAF 		bne	.L51
 499:lvgl/lvgl/src/core/lv_indev.c ****                 lv_event_send(indev_obj_act, LV_EVENT_SHORT_CLICKED, indev_act);
 1248              		.loc 1 499 13 is_stmt 1 view .LVU404
 499:lvgl/lvgl/src/core/lv_indev.c ****                 lv_event_send(indev_obj_act, LV_EVENT_SHORT_CLICKED, indev_act);
 1249              		.loc 1 499 37 is_stmt 0 view .LVU405
 1250 0220 6379     		ldrb	r3, [r4, #5]	@ zero_extendqisi2
 499:lvgl/lvgl/src/core/lv_indev.c ****                 lv_event_send(indev_obj_act, LV_EVENT_SHORT_CLICKED, indev_act);
 1251              		.loc 1 499 15 view .LVU406
 1252 0222 13F0010F 		tst	r3, #1
 1253 0226 0CD1     		bne	.L68
 500:lvgl/lvgl/src/core/lv_indev.c ****                 if(indev_reset_check(&i->proc)) return;
 1254              		.loc 1 500 17 is_stmt 1 view .LVU407
 1255 0228 0D4B     		ldr	r3, .L84+4
 1256 022a 1A68     		ldr	r2, [r3]
 1257 022c 0421     		movs	r1, #4
 1258 022e 0B4B     		ldr	r3, .L84
 1259 0230 1868     		ldr	r0, [r3]
 1260 0232 FFF7FEFF 		bl	lv_event_send
 1261              	.LVL114:
 501:lvgl/lvgl/src/core/lv_indev.c ****             }
 1262              		.loc 1 501 17 view .LVU408
 501:lvgl/lvgl/src/core/lv_indev.c ****             }
 1263              		.loc 1 501 20 is_stmt 0 view .LVU409
 1264 0236 2846     		mov	r0, r5
ARM GAS  C:\Users\gx\AppData\Local\Temp\ccszQoK7.s 			page 49


 1265 0238 FFF7FEFF 		bl	indev_reset_check
 1266              	.LVL115:
 501:lvgl/lvgl/src/core/lv_indev.c ****             }
 1267              		.loc 1 501 19 view .LVU410
 1268 023c 0028     		cmp	r0, #0
 1269 023e 7FF40BAF 		bne	.L51
 1270              	.L68:
 504:lvgl/lvgl/src/core/lv_indev.c ****             if(indev_reset_check(&i->proc)) return;
 1271              		.loc 1 504 13 is_stmt 1 view .LVU411
 1272 0242 074B     		ldr	r3, .L84+4
 1273 0244 1A68     		ldr	r2, [r3]
 1274 0246 0721     		movs	r1, #7
 1275 0248 044B     		ldr	r3, .L84
 1276 024a 1868     		ldr	r0, [r3]
 1277 024c FFF7FEFF 		bl	lv_event_send
 1278              	.LVL116:
 505:lvgl/lvgl/src/core/lv_indev.c **** 
 1279              		.loc 1 505 13 view .LVU412
 505:lvgl/lvgl/src/core/lv_indev.c **** 
 1280              		.loc 1 505 16 is_stmt 0 view .LVU413
 1281 0250 2846     		mov	r0, r5
 1282 0252 FFF7FEFF 		bl	indev_reset_check
 1283              	.LVL117:
 505:lvgl/lvgl/src/core/lv_indev.c **** 
 1284              		.loc 1 505 15 view .LVU414
 1285 0256 0028     		cmp	r0, #0
 1286 0258 CFD0     		beq	.L67
 1287 025a FDE6     		b	.L51
 1288              	.L85:
 1289              		.align	2
 1290              	.L84:
 1291 025c 00000000 		.word	.LANCHOR0
 1292 0260 00000000 		.word	.LANCHOR1
 1293              		.cfi_endproc
 1294              	.LFE178:
 1296              		.section	.text.indev_encoder_proc,"ax",%progbits
 1297              		.align	1
 1298              		.syntax unified
 1299              		.thumb
 1300              		.thumb_func
 1301              		.fpu fpv4-sp-d16
 1303              	indev_encoder_proc:
 1304              	.LVL118:
 1305              	.LFB179:
 520:lvgl/lvgl/src/core/lv_indev.c ****     if(data->state == LV_INDEV_STATE_PRESSED && i->proc.wait_until_release) return;
 1306              		.loc 1 520 1 is_stmt 1 view -0
 1307              		.cfi_startproc
 1308              		@ args = 0, pretend = 0, frame = 0
 1309              		@ frame_needed = 0, uses_anonymous_args = 0
 520:lvgl/lvgl/src/core/lv_indev.c ****     if(data->state == LV_INDEV_STATE_PRESSED && i->proc.wait_until_release) return;
 1310              		.loc 1 520 1 is_stmt 0 view .LVU416
 1311 0000 F8B5     		push	{r3, r4, r5, r6, r7, lr}
 1312              	.LCFI4:
 1313              		.cfi_def_cfa_offset 24
 1314              		.cfi_offset 3, -24
 1315              		.cfi_offset 4, -20
 1316              		.cfi_offset 5, -16
ARM GAS  C:\Users\gx\AppData\Local\Temp\ccszQoK7.s 			page 50


 1317              		.cfi_offset 6, -12
 1318              		.cfi_offset 7, -8
 1319              		.cfi_offset 14, -4
 1320 0002 0446     		mov	r4, r0
 1321 0004 0D46     		mov	r5, r1
 521:lvgl/lvgl/src/core/lv_indev.c **** 
 1322              		.loc 1 521 5 is_stmt 1 view .LVU417
 521:lvgl/lvgl/src/core/lv_indev.c **** 
 1323              		.loc 1 521 12 is_stmt 0 view .LVU418
 1324 0006 8B7B     		ldrb	r3, [r1, #14]	@ zero_extendqisi2
 521:lvgl/lvgl/src/core/lv_indev.c **** 
 1325              		.loc 1 521 7 view .LVU419
 1326 0008 012B     		cmp	r3, #1
 1327 000a 35D0     		beq	.L138
 1328              	.L87:
 523:lvgl/lvgl/src/core/lv_indev.c ****         i->proc.wait_until_release      = 0;
 1329              		.loc 1 523 5 is_stmt 1 view .LVU420
 523:lvgl/lvgl/src/core/lv_indev.c ****         i->proc.wait_until_release      = 0;
 1330              		.loc 1 523 8 is_stmt 0 view .LVU421
 1331 000c 6379     		ldrb	r3, [r4, #5]	@ zero_extendqisi2
 523:lvgl/lvgl/src/core/lv_indev.c ****         i->proc.wait_until_release      = 0;
 1332              		.loc 1 523 7 view .LVU422
 1333 000e 13F0080F 		tst	r3, #8
 1334 0012 08D0     		beq	.L89
 524:lvgl/lvgl/src/core/lv_indev.c ****         i->proc.pr_timestamp            = 0;
 1335              		.loc 1 524 9 is_stmt 1 view .LVU423
 524:lvgl/lvgl/src/core/lv_indev.c ****         i->proc.pr_timestamp            = 0;
 1336              		.loc 1 524 41 is_stmt 0 view .LVU424
 1337 0014 6379     		ldrb	r3, [r4, #5]	@ zero_extendqisi2
 525:lvgl/lvgl/src/core/lv_indev.c ****         i->proc.long_pr_sent            = 0;
 1338              		.loc 1 525 9 is_stmt 1 view .LVU425
 525:lvgl/lvgl/src/core/lv_indev.c ****         i->proc.long_pr_sent            = 0;
 1339              		.loc 1 525 41 is_stmt 0 view .LVU426
 1340 0016 0022     		movs	r2, #0
 1341 0018 6264     		str	r2, [r4, #68]
 526:lvgl/lvgl/src/core/lv_indev.c ****         i->proc.types.keypad.last_state = LV_INDEV_STATE_RELEASED; /*To skip the processing of rele
 1342              		.loc 1 526 9 is_stmt 1 view .LVU427
 526:lvgl/lvgl/src/core/lv_indev.c ****         i->proc.types.keypad.last_state = LV_INDEV_STATE_RELEASED; /*To skip the processing of rele
 1343              		.loc 1 526 41 is_stmt 0 view .LVU428
 1344 001a 03F0F703 		and	r3, r3, #247
 1345 001e 62F30003 		bfi	r3, r2, #0, #1
 1346 0022 6371     		strb	r3, [r4, #5]
 527:lvgl/lvgl/src/core/lv_indev.c ****     }
 1347              		.loc 1 527 9 is_stmt 1 view .LVU429
 527:lvgl/lvgl/src/core/lv_indev.c ****     }
 1348              		.loc 1 527 41 is_stmt 0 view .LVU430
 1349 0024 2272     		strb	r2, [r4, #8]
 1350              	.L89:
 532:lvgl/lvgl/src/core/lv_indev.c ****     i->proc.types.keypad.last_state = data->state;
 1351              		.loc 1 532 5 is_stmt 1 view .LVU431
 532:lvgl/lvgl/src/core/lv_indev.c ****     i->proc.types.keypad.last_state = data->state;
 1352              		.loc 1 532 22 is_stmt 0 view .LVU432
 1353 0026 277A     		ldrb	r7, [r4, #8]	@ zero_extendqisi2
 1354              	.LVL119:
 533:lvgl/lvgl/src/core/lv_indev.c ****     i->proc.types.keypad.last_key   = data->key;
 1355              		.loc 1 533 5 is_stmt 1 view .LVU433
 533:lvgl/lvgl/src/core/lv_indev.c ****     i->proc.types.keypad.last_key   = data->key;
ARM GAS  C:\Users\gx\AppData\Local\Temp\ccszQoK7.s 			page 51


 1356              		.loc 1 533 43 is_stmt 0 view .LVU434
 1357 0028 AB7B     		ldrb	r3, [r5, #14]	@ zero_extendqisi2
 533:lvgl/lvgl/src/core/lv_indev.c ****     i->proc.types.keypad.last_key   = data->key;
 1358              		.loc 1 533 37 view .LVU435
 1359 002a 2372     		strb	r3, [r4, #8]
 534:lvgl/lvgl/src/core/lv_indev.c **** 
 1360              		.loc 1 534 5 is_stmt 1 view .LVU436
 534:lvgl/lvgl/src/core/lv_indev.c **** 
 1361              		.loc 1 534 43 is_stmt 0 view .LVU437
 1362 002c 6B68     		ldr	r3, [r5, #4]
 534:lvgl/lvgl/src/core/lv_indev.c **** 
 1363              		.loc 1 534 37 view .LVU438
 1364 002e E360     		str	r3, [r4, #12]
 536:lvgl/lvgl/src/core/lv_indev.c ****     if(g == NULL) return;
 1365              		.loc 1 536 5 is_stmt 1 view .LVU439
 536:lvgl/lvgl/src/core/lv_indev.c ****     if(g == NULL) return;
 1366              		.loc 1 536 18 is_stmt 0 view .LVU440
 1367 0030 266D     		ldr	r6, [r4, #80]
 1368              	.LVL120:
 537:lvgl/lvgl/src/core/lv_indev.c **** 
 1369              		.loc 1 537 5 is_stmt 1 view .LVU441
 537:lvgl/lvgl/src/core/lv_indev.c **** 
 1370              		.loc 1 537 7 is_stmt 0 view .LVU442
 1371 0032 06B3     		cbz	r6, .L86
 539:lvgl/lvgl/src/core/lv_indev.c ****     if(indev_obj_act == NULL) return;
 1372              		.loc 1 539 5 is_stmt 1 view .LVU443
 539:lvgl/lvgl/src/core/lv_indev.c ****     if(indev_obj_act == NULL) return;
 1373              		.loc 1 539 21 is_stmt 0 view .LVU444
 1374 0034 3046     		mov	r0, r6
 1375              	.LVL121:
 539:lvgl/lvgl/src/core/lv_indev.c ****     if(indev_obj_act == NULL) return;
 1376              		.loc 1 539 21 view .LVU445
 1377 0036 FFF7FEFF 		bl	lv_group_get_focused
 1378              	.LVL122:
 539:lvgl/lvgl/src/core/lv_indev.c ****     if(indev_obj_act == NULL) return;
 1379              		.loc 1 539 19 view .LVU446
 1380 003a A04B     		ldr	r3, .L158
 1381 003c 1860     		str	r0, [r3]
 540:lvgl/lvgl/src/core/lv_indev.c **** 
 1382              		.loc 1 540 5 is_stmt 1 view .LVU447
 540:lvgl/lvgl/src/core/lv_indev.c **** 
 1383              		.loc 1 540 7 is_stmt 0 view .LVU448
 1384 003e D0B1     		cbz	r0, .L86
 543:lvgl/lvgl/src/core/lv_indev.c ****         data->enc_diff = 0;
 1385              		.loc 1 543 5 is_stmt 1 view .LVU449
 543:lvgl/lvgl/src/core/lv_indev.c ****         data->enc_diff = 0;
 1386              		.loc 1 543 12 is_stmt 0 view .LVU450
 1387 0040 AB7B     		ldrb	r3, [r5, #14]	@ zero_extendqisi2
 543:lvgl/lvgl/src/core/lv_indev.c ****         data->enc_diff = 0;
 1388              		.loc 1 543 7 view .LVU451
 1389 0042 0BB1     		cbz	r3, .L90
 544:lvgl/lvgl/src/core/lv_indev.c ****     }
 1390              		.loc 1 544 9 is_stmt 1 view .LVU452
 544:lvgl/lvgl/src/core/lv_indev.c ****     }
 1391              		.loc 1 544 24 is_stmt 0 view .LVU453
 1392 0044 0023     		movs	r3, #0
 1393 0046 AB81     		strh	r3, [r5, #12]	@ movhi
ARM GAS  C:\Users\gx\AppData\Local\Temp\ccszQoK7.s 			page 52


 1394              	.L90:
 548:lvgl/lvgl/src/core/lv_indev.c ****     if(indev_obj_act == NULL) return;
 1395              		.loc 1 548 5 is_stmt 1 view .LVU454
 548:lvgl/lvgl/src/core/lv_indev.c ****     if(indev_obj_act == NULL) return;
 1396              		.loc 1 548 21 is_stmt 0 view .LVU455
 1397 0048 3046     		mov	r0, r6
 1398 004a FFF7FEFF 		bl	lv_group_get_focused
 1399              	.LVL123:
 548:lvgl/lvgl/src/core/lv_indev.c ****     if(indev_obj_act == NULL) return;
 1400              		.loc 1 548 19 view .LVU456
 1401 004e 9B4B     		ldr	r3, .L158
 1402 0050 1860     		str	r0, [r3]
 549:lvgl/lvgl/src/core/lv_indev.c **** 
 1403              		.loc 1 549 5 is_stmt 1 view .LVU457
 549:lvgl/lvgl/src/core/lv_indev.c **** 
 1404              		.loc 1 549 7 is_stmt 0 view .LVU458
 1405 0052 80B1     		cbz	r0, .L86
 552:lvgl/lvgl/src/core/lv_indev.c ****         LV_LOG_INFO("pressed");
 1406              		.loc 1 552 5 is_stmt 1 view .LVU459
 552:lvgl/lvgl/src/core/lv_indev.c ****         LV_LOG_INFO("pressed");
 1407              		.loc 1 552 12 is_stmt 0 view .LVU460
 1408 0054 AB7B     		ldrb	r3, [r5, #14]	@ zero_extendqisi2
 552:lvgl/lvgl/src/core/lv_indev.c ****         LV_LOG_INFO("pressed");
 1409              		.loc 1 552 7 view .LVU461
 1410 0056 012B     		cmp	r3, #1
 1411 0058 13D0     		beq	.L139
 1412              	.L91:
 586:lvgl/lvgl/src/core/lv_indev.c ****         /*Long press*/
 1413              		.loc 1 586 10 is_stmt 1 view .LVU462
 586:lvgl/lvgl/src/core/lv_indev.c ****         /*Long press*/
 1414              		.loc 1 586 12 is_stmt 0 view .LVU463
 1415 005a 012B     		cmp	r3, #1
 1416 005c 61D0     		beq	.L140
 1417              	.L99:
 641:lvgl/lvgl/src/core/lv_indev.c ****         LV_LOG_INFO("released");
 1418              		.loc 1 641 10 is_stmt 1 view .LVU464
 641:lvgl/lvgl/src/core/lv_indev.c ****         LV_LOG_INFO("released");
 1419              		.loc 1 641 12 is_stmt 0 view .LVU465
 1420 005e 13B9     		cbnz	r3, .L95
 641:lvgl/lvgl/src/core/lv_indev.c ****         LV_LOG_INFO("released");
 1421              		.loc 1 641 52 discriminator 1 view .LVU466
 1422 0060 012F     		cmp	r7, #1
 1423 0062 00F0E380 		beq	.L141
 1424              	.LVL124:
 1425              	.L95:
 690:lvgl/lvgl/src/core/lv_indev.c **** 
 1426              		.loc 1 690 5 is_stmt 1 view .LVU467
 690:lvgl/lvgl/src/core/lv_indev.c **** 
 1427              		.loc 1 690 19 is_stmt 0 view .LVU468
 1428 0066 954B     		ldr	r3, .L158
 1429 0068 0022     		movs	r2, #0
 1430 006a 1A60     		str	r2, [r3]
 693:lvgl/lvgl/src/core/lv_indev.c ****         /*In edit mode send LEFT/RIGHT keys*/
 1431              		.loc 1 693 5 is_stmt 1 view .LVU469
 693:lvgl/lvgl/src/core/lv_indev.c ****         /*In edit mode send LEFT/RIGHT keys*/
 1432              		.loc 1 693 12 is_stmt 0 view .LVU470
 1433 006c B5F90C30 		ldrsh	r3, [r5, #12]
ARM GAS  C:\Users\gx\AppData\Local\Temp\ccszQoK7.s 			page 53


 693:lvgl/lvgl/src/core/lv_indev.c ****         /*In edit mode send LEFT/RIGHT keys*/
 1434              		.loc 1 693 7 view .LVU471
 1435 0070 002B     		cmp	r3, #0
 1436 0072 40F07281 		bne	.L142
 1437              	.LVL125:
 1438              	.L86:
 717:lvgl/lvgl/src/core/lv_indev.c **** 
 1439              		.loc 1 717 1 view .LVU472
 1440 0076 F8BD     		pop	{r3, r4, r5, r6, r7, pc}
 1441              	.LVL126:
 1442              	.L138:
 521:lvgl/lvgl/src/core/lv_indev.c **** 
 1443              		.loc 1 521 46 discriminator 1 view .LVU473
 1444 0078 4379     		ldrb	r3, [r0, #5]	@ zero_extendqisi2
 1445 007a 13F0080F 		tst	r3, #8
 1446 007e C5D0     		beq	.L87
 1447 0080 F9E7     		b	.L86
 1448              	.LVL127:
 1449              	.L139:
 552:lvgl/lvgl/src/core/lv_indev.c ****         LV_LOG_INFO("pressed");
 1450              		.loc 1 552 46 discriminator 1 view .LVU474
 1451 0082 002F     		cmp	r7, #0
 1452 0084 E9D1     		bne	.L91
 553:lvgl/lvgl/src/core/lv_indev.c **** 
 1453              		.loc 1 553 9 is_stmt 1 view .LVU475
 553:lvgl/lvgl/src/core/lv_indev.c **** 
 1454              		.loc 1 553 9 view .LVU476
 553:lvgl/lvgl/src/core/lv_indev.c **** 
 1455              		.loc 1 553 9 view .LVU477
 553:lvgl/lvgl/src/core/lv_indev.c **** 
 1456              		.loc 1 553 31 view .LVU478
 555:lvgl/lvgl/src/core/lv_indev.c **** 
 1457              		.loc 1 555 9 view .LVU479
 555:lvgl/lvgl/src/core/lv_indev.c **** 
 1458              		.loc 1 555 32 is_stmt 0 view .LVU480
 1459 0086 FFF7FEFF 		bl	lv_tick_get
 1460              	.LVL128:
 555:lvgl/lvgl/src/core/lv_indev.c **** 
 1461              		.loc 1 555 30 view .LVU481
 1462 008a 6064     		str	r0, [r4, #68]
 557:lvgl/lvgl/src/core/lv_indev.c ****             bool editable_or_scrollable = lv_obj_is_editable(indev_obj_act) ||
 1463              		.loc 1 557 9 is_stmt 1 view .LVU482
 557:lvgl/lvgl/src/core/lv_indev.c ****             bool editable_or_scrollable = lv_obj_is_editable(indev_obj_act) ||
 1464              		.loc 1 557 16 is_stmt 0 view .LVU483
 1465 008c 6968     		ldr	r1, [r5, #4]
 557:lvgl/lvgl/src/core/lv_indev.c ****             bool editable_or_scrollable = lv_obj_is_editable(indev_obj_act) ||
 1466              		.loc 1 557 11 view .LVU484
 1467 008e 0A29     		cmp	r1, #10
 1468 0090 09D0     		beq	.L143
 565:lvgl/lvgl/src/core/lv_indev.c ****             /*emulate encoder left*/
 1469              		.loc 1 565 14 is_stmt 1 view .LVU485
 565:lvgl/lvgl/src/core/lv_indev.c ****             /*emulate encoder left*/
 1470              		.loc 1 565 16 is_stmt 0 view .LVU486
 1471 0092 1429     		cmp	r1, #20
 1472 0094 2BD0     		beq	.L144
 569:lvgl/lvgl/src/core/lv_indev.c ****             /*emulate encoder right*/
 1473              		.loc 1 569 14 is_stmt 1 view .LVU487
ARM GAS  C:\Users\gx\AppData\Local\Temp\ccszQoK7.s 			page 54


 569:lvgl/lvgl/src/core/lv_indev.c ****             /*emulate encoder right*/
 1474              		.loc 1 569 16 is_stmt 0 view .LVU488
 1475 0096 1329     		cmp	r1, #19
 1476 0098 2ED0     		beq	.L145
 573:lvgl/lvgl/src/core/lv_indev.c ****             /*Send the ESC as a normal KEY*/
 1477              		.loc 1 573 14 is_stmt 1 view .LVU489
 573:lvgl/lvgl/src/core/lv_indev.c ****             /*Send the ESC as a normal KEY*/
 1478              		.loc 1 573 16 is_stmt 0 view .LVU490
 1479 009a 1B29     		cmp	r1, #27
 1480 009c 31D0     		beq	.L146
 582:lvgl/lvgl/src/core/lv_indev.c ****         }
 1481              		.loc 1 582 13 is_stmt 1 view .LVU491
 1482 009e 3046     		mov	r0, r6
 1483 00a0 FFF7FEFF 		bl	lv_group_send_data
 1484              	.LVL129:
 1485 00a4 DFE7     		b	.L95
 1486              	.L143:
 1487              	.LBB4:
 558:lvgl/lvgl/src/core/lv_indev.c ****                                           lv_obj_has_flag(indev_obj_act, LV_OBJ_FLAG_SCROLLABLE);
 1488              		.loc 1 558 13 view .LVU492
 558:lvgl/lvgl/src/core/lv_indev.c ****                                           lv_obj_has_flag(indev_obj_act, LV_OBJ_FLAG_SCROLLABLE);
 1489              		.loc 1 558 43 is_stmt 0 view .LVU493
 1490 00a6 854B     		ldr	r3, .L158
 1491 00a8 1868     		ldr	r0, [r3]
 1492 00aa FFF7FEFF 		bl	lv_obj_is_editable
 1493              	.LVL130:
 558:lvgl/lvgl/src/core/lv_indev.c ****                                           lv_obj_has_flag(indev_obj_act, LV_OBJ_FLAG_SCROLLABLE);
 1494              		.loc 1 558 77 view .LVU494
 1495 00ae A0B1     		cbz	r0, .L147
 1496 00b0 0123     		movs	r3, #1
 1497              	.L93:
 558:lvgl/lvgl/src/core/lv_indev.c ****                                           lv_obj_has_flag(indev_obj_act, LV_OBJ_FLAG_SCROLLABLE);
 1498              		.loc 1 558 18 discriminator 6 view .LVU495
 1499 00b2 1F46     		mov	r7, r3
 1500              	.LVL131:
 560:lvgl/lvgl/src/core/lv_indev.c ****                 lv_event_send(indev_obj_act, LV_EVENT_PRESSED, indev_act);
 1501              		.loc 1 560 13 is_stmt 1 discriminator 6 view .LVU496
 560:lvgl/lvgl/src/core/lv_indev.c ****                 lv_event_send(indev_obj_act, LV_EVENT_PRESSED, indev_act);
 1502              		.loc 1 560 16 is_stmt 0 discriminator 6 view .LVU497
 1503 00b4 3046     		mov	r0, r6
 1504 00b6 FFF7FEFF 		bl	lv_group_get_editing
 1505              	.LVL132:
 560:lvgl/lvgl/src/core/lv_indev.c ****                 lv_event_send(indev_obj_act, LV_EVENT_PRESSED, indev_act);
 1506              		.loc 1 560 15 discriminator 6 view .LVU498
 1507 00ba 08B9     		cbnz	r0, .L94
 560:lvgl/lvgl/src/core/lv_indev.c ****                 lv_event_send(indev_obj_act, LV_EVENT_PRESSED, indev_act);
 1508              		.loc 1 560 48 discriminator 1 view .LVU499
 1509 00bc 002F     		cmp	r7, #0
 1510 00be D2D1     		bne	.L95
 1511              	.L94:
 561:lvgl/lvgl/src/core/lv_indev.c ****                 if(indev_reset_check(&i->proc)) return;
 1512              		.loc 1 561 17 is_stmt 1 view .LVU500
 1513 00c0 7F4B     		ldr	r3, .L158+4
 1514 00c2 1A68     		ldr	r2, [r3]
 1515 00c4 0121     		movs	r1, #1
 1516 00c6 7D4B     		ldr	r3, .L158
 1517 00c8 1868     		ldr	r0, [r3]
ARM GAS  C:\Users\gx\AppData\Local\Temp\ccszQoK7.s 			page 55


 1518 00ca FFF7FEFF 		bl	lv_event_send
 1519              	.LVL133:
 562:lvgl/lvgl/src/core/lv_indev.c ****             }
 1520              		.loc 1 562 17 view .LVU501
 562:lvgl/lvgl/src/core/lv_indev.c ****             }
 1521              		.loc 1 562 20 is_stmt 0 view .LVU502
 1522 00ce 201D     		adds	r0, r4, #4
 1523 00d0 FFF7FEFF 		bl	indev_reset_check
 1524              	.LVL134:
 562:lvgl/lvgl/src/core/lv_indev.c ****             }
 1525              		.loc 1 562 19 view .LVU503
 1526 00d4 0028     		cmp	r0, #0
 1527 00d6 C6D0     		beq	.L95
 1528 00d8 CDE7     		b	.L86
 1529              	.LVL135:
 1530              	.L147:
 559:lvgl/lvgl/src/core/lv_indev.c ****             if(lv_group_get_editing(g) == true || editable_or_scrollable == false) {
 1531              		.loc 1 559 43 discriminator 2 view .LVU504
 1532 00da 1021     		movs	r1, #16
 1533 00dc 774B     		ldr	r3, .L158
 1534 00de 1868     		ldr	r0, [r3]
 1535 00e0 FFF7FEFF 		bl	lv_obj_has_flag
 1536              	.LVL136:
 558:lvgl/lvgl/src/core/lv_indev.c ****                                           lv_obj_has_flag(indev_obj_act, LV_OBJ_FLAG_SCROLLABLE);
 1537              		.loc 1 558 77 discriminator 2 view .LVU505
 1538 00e4 08B9     		cbnz	r0, .L126
 558:lvgl/lvgl/src/core/lv_indev.c ****                                           lv_obj_has_flag(indev_obj_act, LV_OBJ_FLAG_SCROLLABLE);
 1539              		.loc 1 558 77 view .LVU506
 1540 00e6 0023     		movs	r3, #0
 1541 00e8 E3E7     		b	.L93
 1542              	.L126:
 1543 00ea 0123     		movs	r3, #1
 1544 00ec E1E7     		b	.L93
 1545              	.L144:
 1546              	.LBE4:
 567:lvgl/lvgl/src/core/lv_indev.c ****         }
 1547              		.loc 1 567 13 is_stmt 1 view .LVU507
 567:lvgl/lvgl/src/core/lv_indev.c ****         }
 1548              		.loc 1 567 17 is_stmt 0 view .LVU508
 1549 00ee B5F90C30 		ldrsh	r3, [r5, #12]
 567:lvgl/lvgl/src/core/lv_indev.c ****         }
 1550              		.loc 1 567 27 view .LVU509
 1551 00f2 013B     		subs	r3, r3, #1
 1552 00f4 AB81     		strh	r3, [r5, #12]	@ movhi
 1553 00f6 B6E7     		b	.L95
 1554              	.L145:
 571:lvgl/lvgl/src/core/lv_indev.c ****         }
 1555              		.loc 1 571 13 is_stmt 1 view .LVU510
 571:lvgl/lvgl/src/core/lv_indev.c ****         }
 1556              		.loc 1 571 17 is_stmt 0 view .LVU511
 1557 00f8 B5F90C30 		ldrsh	r3, [r5, #12]
 571:lvgl/lvgl/src/core/lv_indev.c ****         }
 1558              		.loc 1 571 27 view .LVU512
 1559 00fc 0133     		adds	r3, r3, #1
 1560 00fe AB81     		strh	r3, [r5, #12]	@ movhi
 1561 0100 B1E7     		b	.L95
 1562              	.L146:
ARM GAS  C:\Users\gx\AppData\Local\Temp\ccszQoK7.s 			page 56


 575:lvgl/lvgl/src/core/lv_indev.c **** 
 1563              		.loc 1 575 13 is_stmt 1 view .LVU513
 1564 0102 3046     		mov	r0, r6
 1565 0104 FFF7FEFF 		bl	lv_group_send_data
 1566              	.LVL137:
 577:lvgl/lvgl/src/core/lv_indev.c ****             if(indev_reset_check(&i->proc)) return;
 1567              		.loc 1 577 13 view .LVU514
 1568 0108 6D4B     		ldr	r3, .L158+4
 1569 010a 1A68     		ldr	r2, [r3]
 1570 010c 2021     		movs	r1, #32
 1571 010e 6B4B     		ldr	r3, .L158
 1572 0110 1868     		ldr	r0, [r3]
 1573 0112 FFF7FEFF 		bl	lv_event_send
 1574              	.LVL138:
 578:lvgl/lvgl/src/core/lv_indev.c ****         }
 1575              		.loc 1 578 13 view .LVU515
 578:lvgl/lvgl/src/core/lv_indev.c ****         }
 1576              		.loc 1 578 16 is_stmt 0 view .LVU516
 1577 0116 201D     		adds	r0, r4, #4
 1578 0118 FFF7FEFF 		bl	indev_reset_check
 1579              	.LVL139:
 578:lvgl/lvgl/src/core/lv_indev.c ****         }
 1580              		.loc 1 578 15 view .LVU517
 1581 011c 0028     		cmp	r0, #0
 1582 011e A2D0     		beq	.L95
 1583 0120 A9E7     		b	.L86
 1584              	.L140:
 586:lvgl/lvgl/src/core/lv_indev.c ****         /*Long press*/
 1585              		.loc 1 586 51 discriminator 1 view .LVU518
 1586 0122 012F     		cmp	r7, #1
 1587 0124 9BD1     		bne	.L99
 588:lvgl/lvgl/src/core/lv_indev.c **** 
 1588              		.loc 1 588 9 is_stmt 1 view .LVU519
 588:lvgl/lvgl/src/core/lv_indev.c **** 
 1589              		.loc 1 588 33 is_stmt 0 view .LVU520
 1590 0126 6379     		ldrb	r3, [r4, #5]	@ zero_extendqisi2
 588:lvgl/lvgl/src/core/lv_indev.c **** 
 1591              		.loc 1 588 11 view .LVU521
 1592 0128 13F0010F 		tst	r3, #1
 1593 012c 19D0     		beq	.L148
 1594              	.L100:
 616:lvgl/lvgl/src/core/lv_indev.c **** 
 1595              		.loc 1 616 14 is_stmt 1 view .LVU522
 616:lvgl/lvgl/src/core/lv_indev.c **** 
 1596              		.loc 1 616 38 is_stmt 0 view .LVU523
 1597 012e 6379     		ldrb	r3, [r4, #5]	@ zero_extendqisi2
 616:lvgl/lvgl/src/core/lv_indev.c **** 
 1598              		.loc 1 616 16 view .LVU524
 1599 0130 13F0010F 		tst	r3, #1
 1600 0134 97D0     		beq	.L95
 616:lvgl/lvgl/src/core/lv_indev.c **** 
 1601              		.loc 1 616 46 discriminator 1 view .LVU525
 1602 0136 A06C     		ldr	r0, [r4, #72]
 1603 0138 FFF7FEFF 		bl	lv_tick_elaps
 1604              	.LVL140:
 616:lvgl/lvgl/src/core/lv_indev.c **** 
 1605              		.loc 1 616 93 discriminator 1 view .LVU526
ARM GAS  C:\Users\gx\AppData\Local\Temp\ccszQoK7.s 			page 57


 1606 013c 2368     		ldr	r3, [r4]
 616:lvgl/lvgl/src/core/lv_indev.c **** 
 1607              		.loc 1 616 101 discriminator 1 view .LVU527
 1608 013e DB8B     		ldrh	r3, [r3, #30]
 616:lvgl/lvgl/src/core/lv_indev.c **** 
 1609              		.loc 1 616 43 discriminator 1 view .LVU528
 1610 0140 9842     		cmp	r0, r3
 1611 0142 90D9     		bls	.L95
 618:lvgl/lvgl/src/core/lv_indev.c **** 
 1612              		.loc 1 618 13 is_stmt 1 view .LVU529
 618:lvgl/lvgl/src/core/lv_indev.c **** 
 1613              		.loc 1 618 44 is_stmt 0 view .LVU530
 1614 0144 FFF7FEFF 		bl	lv_tick_get
 1615              	.LVL141:
 618:lvgl/lvgl/src/core/lv_indev.c **** 
 1616              		.loc 1 618 42 view .LVU531
 1617 0148 A064     		str	r0, [r4, #72]
 620:lvgl/lvgl/src/core/lv_indev.c ****                 lv_event_send(indev_obj_act, LV_EVENT_LONG_PRESSED_REPEAT, indev_act);
 1618              		.loc 1 620 13 is_stmt 1 view .LVU532
 620:lvgl/lvgl/src/core/lv_indev.c ****                 lv_event_send(indev_obj_act, LV_EVENT_LONG_PRESSED_REPEAT, indev_act);
 1619              		.loc 1 620 20 is_stmt 0 view .LVU533
 1620 014a 6968     		ldr	r1, [r5, #4]
 620:lvgl/lvgl/src/core/lv_indev.c ****                 lv_event_send(indev_obj_act, LV_EVENT_LONG_PRESSED_REPEAT, indev_act);
 1621              		.loc 1 620 15 view .LVU534
 1622 014c 0A29     		cmp	r1, #10
 1623 014e 50D0     		beq	.L149
 624:lvgl/lvgl/src/core/lv_indev.c ****                 /*emulate encoder left*/
 1624              		.loc 1 624 18 is_stmt 1 view .LVU535
 624:lvgl/lvgl/src/core/lv_indev.c ****                 /*emulate encoder left*/
 1625              		.loc 1 624 20 is_stmt 0 view .LVU536
 1626 0150 1429     		cmp	r1, #20
 1627 0152 5CD0     		beq	.L150
 628:lvgl/lvgl/src/core/lv_indev.c ****                 /*emulate encoder right*/
 1628              		.loc 1 628 18 is_stmt 1 view .LVU537
 628:lvgl/lvgl/src/core/lv_indev.c ****                 /*emulate encoder right*/
 1629              		.loc 1 628 20 is_stmt 0 view .LVU538
 1630 0154 1329     		cmp	r1, #19
 1631 0156 5FD1     		bne	.L106
 630:lvgl/lvgl/src/core/lv_indev.c ****             }
 1632              		.loc 1 630 17 is_stmt 1 view .LVU539
 630:lvgl/lvgl/src/core/lv_indev.c ****             }
 1633              		.loc 1 630 21 is_stmt 0 view .LVU540
 1634 0158 B5F90C30 		ldrsh	r3, [r5, #12]
 630:lvgl/lvgl/src/core/lv_indev.c ****             }
 1635              		.loc 1 630 31 view .LVU541
 1636 015c 0133     		adds	r3, r3, #1
 1637 015e AB81     		strh	r3, [r5, #12]	@ movhi
 1638 0160 81E7     		b	.L95
 1639              	.L148:
 588:lvgl/lvgl/src/core/lv_indev.c **** 
 1640              		.loc 1 588 41 discriminator 1 view .LVU542
 1641 0162 606C     		ldr	r0, [r4, #68]
 1642 0164 FFF7FEFF 		bl	lv_tick_elaps
 1643              	.LVL142:
 588:lvgl/lvgl/src/core/lv_indev.c **** 
 1644              		.loc 1 588 80 discriminator 1 view .LVU543
 1645 0168 2368     		ldr	r3, [r4]
ARM GAS  C:\Users\gx\AppData\Local\Temp\ccszQoK7.s 			page 58


 588:lvgl/lvgl/src/core/lv_indev.c **** 
 1646              		.loc 1 588 88 discriminator 1 view .LVU544
 1647 016a 9B8B     		ldrh	r3, [r3, #28]
 588:lvgl/lvgl/src/core/lv_indev.c **** 
 1648              		.loc 1 588 38 discriminator 1 view .LVU545
 1649 016c 9842     		cmp	r0, r3
 1650 016e DED9     		bls	.L100
 590:lvgl/lvgl/src/core/lv_indev.c ****             i->proc.longpr_rep_timestamp = lv_tick_get();
 1651              		.loc 1 590 13 is_stmt 1 view .LVU546
 590:lvgl/lvgl/src/core/lv_indev.c ****             i->proc.longpr_rep_timestamp = lv_tick_get();
 1652              		.loc 1 590 34 is_stmt 0 view .LVU547
 1653 0170 6379     		ldrb	r3, [r4, #5]	@ zero_extendqisi2
 1654 0172 43F00103 		orr	r3, r3, #1
 1655 0176 6371     		strb	r3, [r4, #5]
 591:lvgl/lvgl/src/core/lv_indev.c **** 
 1656              		.loc 1 591 13 is_stmt 1 view .LVU548
 591:lvgl/lvgl/src/core/lv_indev.c **** 
 1657              		.loc 1 591 44 is_stmt 0 view .LVU549
 1658 0178 FFF7FEFF 		bl	lv_tick_get
 1659              	.LVL143:
 591:lvgl/lvgl/src/core/lv_indev.c **** 
 1660              		.loc 1 591 42 view .LVU550
 1661 017c A064     		str	r0, [r4, #72]
 593:lvgl/lvgl/src/core/lv_indev.c ****                 bool editable_or_scrollable = lv_obj_is_editable(indev_obj_act) ||
 1662              		.loc 1 593 13 is_stmt 1 view .LVU551
 593:lvgl/lvgl/src/core/lv_indev.c ****                 bool editable_or_scrollable = lv_obj_is_editable(indev_obj_act) ||
 1663              		.loc 1 593 20 is_stmt 0 view .LVU552
 1664 017e 6B68     		ldr	r3, [r5, #4]
 593:lvgl/lvgl/src/core/lv_indev.c ****                 bool editable_or_scrollable = lv_obj_is_editable(indev_obj_act) ||
 1665              		.loc 1 593 15 view .LVU553
 1666 0180 0A2B     		cmp	r3, #10
 1667 0182 04D0     		beq	.L151
 1668              	.L101:
 613:lvgl/lvgl/src/core/lv_indev.c ****         }
 1669              		.loc 1 613 13 is_stmt 1 view .LVU554
 613:lvgl/lvgl/src/core/lv_indev.c ****         }
 1670              		.loc 1 613 34 is_stmt 0 view .LVU555
 1671 0184 6379     		ldrb	r3, [r4, #5]	@ zero_extendqisi2
 1672 0186 43F00103 		orr	r3, r3, #1
 1673 018a 6371     		strb	r3, [r4, #5]
 1674 018c 6BE7     		b	.L95
 1675              	.L151:
 1676              	.LBB5:
 594:lvgl/lvgl/src/core/lv_indev.c ****                                               lv_obj_has_flag(indev_obj_act, LV_OBJ_FLAG_SCROLLABLE
 1677              		.loc 1 594 17 is_stmt 1 view .LVU556
 594:lvgl/lvgl/src/core/lv_indev.c ****                                               lv_obj_has_flag(indev_obj_act, LV_OBJ_FLAG_SCROLLABLE
 1678              		.loc 1 594 47 is_stmt 0 view .LVU557
 1679 018e 4B4B     		ldr	r3, .L158
 1680 0190 1868     		ldr	r0, [r3]
 1681 0192 FFF7FEFF 		bl	lv_obj_is_editable
 1682              	.LVL144:
 594:lvgl/lvgl/src/core/lv_indev.c ****                                               lv_obj_has_flag(indev_obj_act, LV_OBJ_FLAG_SCROLLABLE
 1683              		.loc 1 594 81 view .LVU558
 1684 0196 A8B1     		cbz	r0, .L152
 1685 0198 0123     		movs	r3, #1
 1686              	.L102:
 1687              	.LVL145:
ARM GAS  C:\Users\gx\AppData\Local\Temp\ccszQoK7.s 			page 59


 598:lvgl/lvgl/src/core/lv_indev.c ****                     /*Don't leave edit mode if there is only one object (nowhere to navigate)*/
 1688              		.loc 1 598 17 is_stmt 1 discriminator 6 view .LVU559
 598:lvgl/lvgl/src/core/lv_indev.c ****                     /*Don't leave edit mode if there is only one object (nowhere to navigate)*/
 1689              		.loc 1 598 19 is_stmt 0 discriminator 6 view .LVU560
 1690 019a EBB1     		cbz	r3, .L103
 600:lvgl/lvgl/src/core/lv_indev.c ****                         LV_LOG_INFO("toggling edit mode");
 1691              		.loc 1 600 21 is_stmt 1 view .LVU561
 600:lvgl/lvgl/src/core/lv_indev.c ****                         LV_LOG_INFO("toggling edit mode");
 1692              		.loc 1 600 24 is_stmt 0 view .LVU562
 1693 019c 3046     		mov	r0, r6
 1694 019e FFF7FEFF 		bl	lv_group_get_obj_count
 1695              	.LVL146:
 600:lvgl/lvgl/src/core/lv_indev.c ****                         LV_LOG_INFO("toggling edit mode");
 1696              		.loc 1 600 23 view .LVU563
 1697 01a2 0128     		cmp	r0, #1
 1698 01a4 EED9     		bls	.L101
 601:lvgl/lvgl/src/core/lv_indev.c ****                         lv_group_set_editing(g, lv_group_get_editing(g) ? false : true); /*Toggle e
 1699              		.loc 1 601 25 is_stmt 1 view .LVU564
 601:lvgl/lvgl/src/core/lv_indev.c ****                         lv_group_set_editing(g, lv_group_get_editing(g) ? false : true); /*Toggle e
 1700              		.loc 1 601 25 view .LVU565
 601:lvgl/lvgl/src/core/lv_indev.c ****                         lv_group_set_editing(g, lv_group_get_editing(g) ? false : true); /*Toggle e
 1701              		.loc 1 601 25 view .LVU566
 601:lvgl/lvgl/src/core/lv_indev.c ****                         lv_group_set_editing(g, lv_group_get_editing(g) ? false : true); /*Toggle e
 1702              		.loc 1 601 58 view .LVU567
 602:lvgl/lvgl/src/core/lv_indev.c ****                         lv_obj_clear_state(indev_obj_act, LV_STATE_PRESSED);    /*Remove the presse
 1703              		.loc 1 602 25 view .LVU568
 602:lvgl/lvgl/src/core/lv_indev.c ****                         lv_obj_clear_state(indev_obj_act, LV_STATE_PRESSED);    /*Remove the presse
 1704              		.loc 1 602 49 is_stmt 0 view .LVU569
 1705 01a6 3046     		mov	r0, r6
 1706 01a8 FFF7FEFF 		bl	lv_group_get_editing
 1707              	.LVL147:
 602:lvgl/lvgl/src/core/lv_indev.c ****                         lv_obj_clear_state(indev_obj_act, LV_STATE_PRESSED);    /*Remove the presse
 1708              		.loc 1 602 25 view .LVU570
 1709 01ac 80F00101 		eor	r1, r0, #1
 1710 01b0 C9B2     		uxtb	r1, r1
 1711 01b2 3046     		mov	r0, r6
 1712 01b4 FFF7FEFF 		bl	lv_group_set_editing
 1713              	.LVL148:
 603:lvgl/lvgl/src/core/lv_indev.c ****                     }
 1714              		.loc 1 603 25 is_stmt 1 view .LVU571
 1715 01b8 2021     		movs	r1, #32
 1716 01ba 404B     		ldr	r3, .L158
 1717 01bc 1868     		ldr	r0, [r3]
 1718 01be FFF7FEFF 		bl	lv_obj_clear_state
 1719              	.LVL149:
 1720 01c2 DFE7     		b	.L101
 1721              	.L152:
 595:lvgl/lvgl/src/core/lv_indev.c **** 
 1722              		.loc 1 595 47 is_stmt 0 discriminator 2 view .LVU572
 1723 01c4 1021     		movs	r1, #16
 1724 01c6 3D4B     		ldr	r3, .L158
 1725 01c8 1868     		ldr	r0, [r3]
 1726 01ca FFF7FEFF 		bl	lv_obj_has_flag
 1727              	.LVL150:
 594:lvgl/lvgl/src/core/lv_indev.c ****                                               lv_obj_has_flag(indev_obj_act, LV_OBJ_FLAG_SCROLLABLE
 1728              		.loc 1 594 81 discriminator 2 view .LVU573
 1729 01ce 08B9     		cbnz	r0, .L128
ARM GAS  C:\Users\gx\AppData\Local\Temp\ccszQoK7.s 			page 60


 594:lvgl/lvgl/src/core/lv_indev.c ****                                               lv_obj_has_flag(indev_obj_act, LV_OBJ_FLAG_SCROLLABLE
 1730              		.loc 1 594 81 view .LVU574
 1731 01d0 0023     		movs	r3, #0
 1732 01d2 E2E7     		b	.L102
 1733              	.L128:
 1734 01d4 0123     		movs	r3, #1
 1735 01d6 E0E7     		b	.L102
 1736              	.LVL151:
 1737              	.L103:
 608:lvgl/lvgl/src/core/lv_indev.c ****                     if(indev_reset_check(&i->proc)) return;
 1738              		.loc 1 608 21 is_stmt 1 view .LVU575
 1739 01d8 394B     		ldr	r3, .L158+4
 1740              	.LVL152:
 608:lvgl/lvgl/src/core/lv_indev.c ****                     if(indev_reset_check(&i->proc)) return;
 1741              		.loc 1 608 21 is_stmt 0 view .LVU576
 1742 01da 1A68     		ldr	r2, [r3]
 1743 01dc 0521     		movs	r1, #5
 1744 01de 374B     		ldr	r3, .L158
 1745 01e0 1868     		ldr	r0, [r3]
 1746 01e2 FFF7FEFF 		bl	lv_event_send
 1747              	.LVL153:
 609:lvgl/lvgl/src/core/lv_indev.c ****                 }
 1748              		.loc 1 609 21 is_stmt 1 view .LVU577
 609:lvgl/lvgl/src/core/lv_indev.c ****                 }
 1749              		.loc 1 609 24 is_stmt 0 view .LVU578
 1750 01e6 201D     		adds	r0, r4, #4
 1751 01e8 FFF7FEFF 		bl	indev_reset_check
 1752              	.LVL154:
 609:lvgl/lvgl/src/core/lv_indev.c ****                 }
 1753              		.loc 1 609 23 view .LVU579
 1754 01ec 0028     		cmp	r0, #0
 1755 01ee C9D0     		beq	.L101
 1756 01f0 41E7     		b	.L86
 1757              	.L149:
 609:lvgl/lvgl/src/core/lv_indev.c ****                 }
 1758              		.loc 1 609 23 view .LVU580
 1759              	.LBE5:
 621:lvgl/lvgl/src/core/lv_indev.c ****                 if(indev_reset_check(&i->proc)) return;
 1760              		.loc 1 621 17 is_stmt 1 view .LVU581
 1761 01f2 334B     		ldr	r3, .L158+4
 1762 01f4 1A68     		ldr	r2, [r3]
 1763 01f6 0621     		movs	r1, #6
 1764 01f8 304B     		ldr	r3, .L158
 1765 01fa 1868     		ldr	r0, [r3]
 1766 01fc FFF7FEFF 		bl	lv_event_send
 1767              	.LVL155:
 622:lvgl/lvgl/src/core/lv_indev.c ****             }
 1768              		.loc 1 622 17 view .LVU582
 622:lvgl/lvgl/src/core/lv_indev.c ****             }
 1769              		.loc 1 622 20 is_stmt 0 view .LVU583
 1770 0200 201D     		adds	r0, r4, #4
 1771 0202 FFF7FEFF 		bl	indev_reset_check
 1772              	.LVL156:
 622:lvgl/lvgl/src/core/lv_indev.c ****             }
 1773              		.loc 1 622 19 view .LVU584
 1774 0206 0028     		cmp	r0, #0
 1775 0208 3FF42DAF 		beq	.L95
ARM GAS  C:\Users\gx\AppData\Local\Temp\ccszQoK7.s 			page 61


 1776 020c 33E7     		b	.L86
 1777              	.L150:
 626:lvgl/lvgl/src/core/lv_indev.c ****             }
 1778              		.loc 1 626 17 is_stmt 1 view .LVU585
 626:lvgl/lvgl/src/core/lv_indev.c ****             }
 1779              		.loc 1 626 21 is_stmt 0 view .LVU586
 1780 020e B5F90C30 		ldrsh	r3, [r5, #12]
 626:lvgl/lvgl/src/core/lv_indev.c ****             }
 1781              		.loc 1 626 31 view .LVU587
 1782 0212 013B     		subs	r3, r3, #1
 1783 0214 AB81     		strh	r3, [r5, #12]	@ movhi
 1784 0216 26E7     		b	.L95
 1785              	.L106:
 633:lvgl/lvgl/src/core/lv_indev.c ****                 if(indev_reset_check(&i->proc)) return;
 1786              		.loc 1 633 17 is_stmt 1 view .LVU588
 1787 0218 3046     		mov	r0, r6
 1788 021a FFF7FEFF 		bl	lv_group_send_data
 1789              	.LVL157:
 634:lvgl/lvgl/src/core/lv_indev.c ****             }
 1790              		.loc 1 634 17 view .LVU589
 634:lvgl/lvgl/src/core/lv_indev.c ****             }
 1791              		.loc 1 634 20 is_stmt 0 view .LVU590
 1792 021e 201D     		adds	r0, r4, #4
 1793 0220 FFF7FEFF 		bl	indev_reset_check
 1794              	.LVL158:
 634:lvgl/lvgl/src/core/lv_indev.c ****             }
 1795              		.loc 1 634 19 view .LVU591
 1796 0224 0028     		cmp	r0, #0
 1797 0226 3FF41EAF 		beq	.L95
 1798 022a 24E7     		b	.L86
 1799              	.L141:
 642:lvgl/lvgl/src/core/lv_indev.c **** 
 1800              		.loc 1 642 9 is_stmt 1 view .LVU592
 642:lvgl/lvgl/src/core/lv_indev.c **** 
 1801              		.loc 1 642 9 view .LVU593
 642:lvgl/lvgl/src/core/lv_indev.c **** 
 1802              		.loc 1 642 9 view .LVU594
 642:lvgl/lvgl/src/core/lv_indev.c **** 
 1803              		.loc 1 642 32 view .LVU595
 644:lvgl/lvgl/src/core/lv_indev.c ****             bool editable_or_scrollable = lv_obj_is_editable(indev_obj_act) ||
 1804              		.loc 1 644 9 view .LVU596
 644:lvgl/lvgl/src/core/lv_indev.c ****             bool editable_or_scrollable = lv_obj_is_editable(indev_obj_act) ||
 1805              		.loc 1 644 16 is_stmt 0 view .LVU597
 1806 022c 6B68     		ldr	r3, [r5, #4]
 644:lvgl/lvgl/src/core/lv_indev.c ****             bool editable_or_scrollable = lv_obj_is_editable(indev_obj_act) ||
 1807              		.loc 1 644 11 view .LVU598
 1808 022e 0A2B     		cmp	r3, #10
 1809 0230 06D0     		beq	.L153
 1810              	.LVL159:
 1811              	.L107:
 687:lvgl/lvgl/src/core/lv_indev.c ****         i->proc.long_pr_sent = 0;
 1812              		.loc 1 687 9 is_stmt 1 view .LVU599
 687:lvgl/lvgl/src/core/lv_indev.c ****         i->proc.long_pr_sent = 0;
 1813              		.loc 1 687 30 is_stmt 0 view .LVU600
 1814 0232 0022     		movs	r2, #0
 1815 0234 6264     		str	r2, [r4, #68]
 688:lvgl/lvgl/src/core/lv_indev.c ****     }
ARM GAS  C:\Users\gx\AppData\Local\Temp\ccszQoK7.s 			page 62


 1816              		.loc 1 688 9 is_stmt 1 view .LVU601
 688:lvgl/lvgl/src/core/lv_indev.c ****     }
 1817              		.loc 1 688 30 is_stmt 0 view .LVU602
 1818 0236 6379     		ldrb	r3, [r4, #5]	@ zero_extendqisi2
 1819 0238 62F30003 		bfi	r3, r2, #0, #1
 1820 023c 6371     		strb	r3, [r4, #5]
 1821 023e 12E7     		b	.L95
 1822              	.LVL160:
 1823              	.L153:
 1824              	.LBB6:
 645:lvgl/lvgl/src/core/lv_indev.c ****                                           lv_obj_has_flag(indev_obj_act, LV_OBJ_FLAG_SCROLLABLE);
 1825              		.loc 1 645 13 is_stmt 1 view .LVU603
 645:lvgl/lvgl/src/core/lv_indev.c ****                                           lv_obj_has_flag(indev_obj_act, LV_OBJ_FLAG_SCROLLABLE);
 1826              		.loc 1 645 43 is_stmt 0 view .LVU604
 1827 0240 FFF7FEFF 		bl	lv_obj_is_editable
 1828              	.LVL161:
 645:lvgl/lvgl/src/core/lv_indev.c ****                                           lv_obj_has_flag(indev_obj_act, LV_OBJ_FLAG_SCROLLABLE);
 1829              		.loc 1 645 77 view .LVU605
 1830 0244 38B3     		cbz	r0, .L154
 1831 0246 0123     		movs	r3, #1
 1832              	.L108:
 1833              	.LVL162:
 649:lvgl/lvgl/src/core/lv_indev.c ****                 lv_event_send(indev_obj_act, LV_EVENT_RELEASED, indev_act);
 1834              		.loc 1 649 13 is_stmt 1 discriminator 6 view .LVU606
 649:lvgl/lvgl/src/core/lv_indev.c ****                 lv_event_send(indev_obj_act, LV_EVENT_RELEASED, indev_act);
 1835              		.loc 1 649 15 is_stmt 0 discriminator 6 view .LVU607
 1836 0248 002B     		cmp	r3, #0
 1837 024a 3BD1     		bne	.L109
 650:lvgl/lvgl/src/core/lv_indev.c ****                 if(indev_reset_check(&i->proc)) return;
 1838              		.loc 1 650 17 is_stmt 1 view .LVU608
 1839 024c 1C4B     		ldr	r3, .L158+4
 1840              	.LVL163:
 650:lvgl/lvgl/src/core/lv_indev.c ****                 if(indev_reset_check(&i->proc)) return;
 1841              		.loc 1 650 17 is_stmt 0 view .LVU609
 1842 024e 1A68     		ldr	r2, [r3]
 1843 0250 0821     		movs	r1, #8
 1844 0252 1A4B     		ldr	r3, .L158
 1845 0254 1868     		ldr	r0, [r3]
 1846 0256 FFF7FEFF 		bl	lv_event_send
 1847              	.LVL164:
 651:lvgl/lvgl/src/core/lv_indev.c **** 
 1848              		.loc 1 651 17 is_stmt 1 view .LVU610
 651:lvgl/lvgl/src/core/lv_indev.c **** 
 1849              		.loc 1 651 20 is_stmt 0 view .LVU611
 1850 025a 271D     		adds	r7, r4, #4
 1851              	.LVL165:
 651:lvgl/lvgl/src/core/lv_indev.c **** 
 1852              		.loc 1 651 20 view .LVU612
 1853 025c 3846     		mov	r0, r7
 1854 025e FFF7FEFF 		bl	indev_reset_check
 1855              	.LVL166:
 651:lvgl/lvgl/src/core/lv_indev.c **** 
 1856              		.loc 1 651 19 view .LVU613
 1857 0262 0028     		cmp	r0, #0
 1858 0264 7FF407AF 		bne	.L86
 653:lvgl/lvgl/src/core/lv_indev.c ****                 if(indev_reset_check(&i->proc)) return;
 1859              		.loc 1 653 17 is_stmt 1 view .LVU614
ARM GAS  C:\Users\gx\AppData\Local\Temp\ccszQoK7.s 			page 63


 653:lvgl/lvgl/src/core/lv_indev.c ****                 if(indev_reset_check(&i->proc)) return;
 1860              		.loc 1 653 41 is_stmt 0 view .LVU615
 1861 0268 6379     		ldrb	r3, [r4, #5]	@ zero_extendqisi2
 653:lvgl/lvgl/src/core/lv_indev.c ****                 if(indev_reset_check(&i->proc)) return;
 1862              		.loc 1 653 19 view .LVU616
 1863 026a 13F0010F 		tst	r3, #1
 1864 026e 1CD0     		beq	.L155
 1865              	.L110:
 654:lvgl/lvgl/src/core/lv_indev.c **** 
 1866              		.loc 1 654 17 is_stmt 1 view .LVU617
 654:lvgl/lvgl/src/core/lv_indev.c **** 
 1867              		.loc 1 654 20 is_stmt 0 view .LVU618
 1868 0270 3846     		mov	r0, r7
 1869 0272 FFF7FEFF 		bl	indev_reset_check
 1870              	.LVL167:
 654:lvgl/lvgl/src/core/lv_indev.c **** 
 1871              		.loc 1 654 19 view .LVU619
 1872 0276 0028     		cmp	r0, #0
 1873 0278 7FF4FDAE 		bne	.L86
 656:lvgl/lvgl/src/core/lv_indev.c ****                 if(indev_reset_check(&i->proc)) return;
 1874              		.loc 1 656 17 is_stmt 1 view .LVU620
 1875 027c 104B     		ldr	r3, .L158+4
 1876 027e 1A68     		ldr	r2, [r3]
 1877 0280 0721     		movs	r1, #7
 1878 0282 0E4B     		ldr	r3, .L158
 1879 0284 1868     		ldr	r0, [r3]
 1880 0286 FFF7FEFF 		bl	lv_event_send
 1881              	.LVL168:
 657:lvgl/lvgl/src/core/lv_indev.c **** 
 1882              		.loc 1 657 17 view .LVU621
 657:lvgl/lvgl/src/core/lv_indev.c **** 
 1883              		.loc 1 657 20 is_stmt 0 view .LVU622
 1884 028a 3846     		mov	r0, r7
 1885 028c FFF7FEFF 		bl	indev_reset_check
 1886              	.LVL169:
 657:lvgl/lvgl/src/core/lv_indev.c **** 
 1887              		.loc 1 657 19 view .LVU623
 1888 0290 0028     		cmp	r0, #0
 1889 0292 CED0     		beq	.L107
 1890 0294 EFE6     		b	.L86
 1891              	.LVL170:
 1892              	.L154:
 646:lvgl/lvgl/src/core/lv_indev.c **** 
 1893              		.loc 1 646 43 discriminator 2 view .LVU624
 1894 0296 1021     		movs	r1, #16
 1895 0298 084B     		ldr	r3, .L158
 1896 029a 1868     		ldr	r0, [r3]
 1897 029c FFF7FEFF 		bl	lv_obj_has_flag
 1898              	.LVL171:
 645:lvgl/lvgl/src/core/lv_indev.c ****                                           lv_obj_has_flag(indev_obj_act, LV_OBJ_FLAG_SCROLLABLE);
 1899              		.loc 1 645 77 discriminator 2 view .LVU625
 1900 02a0 08B9     		cbnz	r0, .L130
 645:lvgl/lvgl/src/core/lv_indev.c ****                                           lv_obj_has_flag(indev_obj_act, LV_OBJ_FLAG_SCROLLABLE);
 1901              		.loc 1 645 77 view .LVU626
 1902 02a2 0023     		movs	r3, #0
 1903 02a4 D0E7     		b	.L108
 1904              	.L130:
ARM GAS  C:\Users\gx\AppData\Local\Temp\ccszQoK7.s 			page 64


 1905 02a6 0123     		movs	r3, #1
 1906 02a8 CEE7     		b	.L108
 1907              	.LVL172:
 1908              	.L155:
 653:lvgl/lvgl/src/core/lv_indev.c ****                 if(indev_reset_check(&i->proc)) return;
 1909              		.loc 1 653 47 is_stmt 1 discriminator 1 view .LVU627
 1910 02aa 054B     		ldr	r3, .L158+4
 1911 02ac 1A68     		ldr	r2, [r3]
 1912 02ae 0421     		movs	r1, #4
 1913 02b0 024B     		ldr	r3, .L158
 1914 02b2 1868     		ldr	r0, [r3]
 1915 02b4 FFF7FEFF 		bl	lv_event_send
 1916              	.LVL173:
 1917 02b8 DAE7     		b	.L110
 1918              	.L159:
 1919 02ba 00BF     		.align	2
 1920              	.L158:
 1921 02bc 00000000 		.word	.LANCHOR0
 1922 02c0 00000000 		.word	.LANCHOR1
 1923              	.LVL174:
 1924              	.L109:
 661:lvgl/lvgl/src/core/lv_indev.c ****                 /*Ignore long pressed enter release because it comes from mode switch*/
 1925              		.loc 1 661 18 view .LVU628
 661:lvgl/lvgl/src/core/lv_indev.c ****                 /*Ignore long pressed enter release because it comes from mode switch*/
 1926              		.loc 1 661 21 is_stmt 0 view .LVU629
 1927 02c4 3046     		mov	r0, r6
 1928 02c6 FFF7FEFF 		bl	lv_group_get_editing
 1929              	.LVL175:
 661:lvgl/lvgl/src/core/lv_indev.c ****                 /*Ignore long pressed enter release because it comes from mode switch*/
 1930              		.loc 1 661 20 view .LVU630
 1931 02ca 0028     		cmp	r0, #0
 1932 02cc 3BD0     		beq	.L111
 663:lvgl/lvgl/src/core/lv_indev.c ****                     lv_event_send(indev_obj_act, LV_EVENT_RELEASED, indev_act);
 1933              		.loc 1 663 17 is_stmt 1 view .LVU631
 663:lvgl/lvgl/src/core/lv_indev.c ****                     lv_event_send(indev_obj_act, LV_EVENT_RELEASED, indev_act);
 1934              		.loc 1 663 20 is_stmt 0 view .LVU632
 1935 02ce 6379     		ldrb	r3, [r4, #5]	@ zero_extendqisi2
 663:lvgl/lvgl/src/core/lv_indev.c ****                     lv_event_send(indev_obj_act, LV_EVENT_RELEASED, indev_act);
 1936              		.loc 1 663 19 view .LVU633
 1937 02d0 13F0010F 		tst	r3, #1
 1938 02d4 04D0     		beq	.L112
 663:lvgl/lvgl/src/core/lv_indev.c ****                     lv_event_send(indev_obj_act, LV_EVENT_RELEASED, indev_act);
 1939              		.loc 1 663 45 discriminator 1 view .LVU634
 1940 02d6 3046     		mov	r0, r6
 1941 02d8 FFF7FEFF 		bl	lv_group_get_obj_count
 1942              	.LVL176:
 663:lvgl/lvgl/src/core/lv_indev.c ****                     lv_event_send(indev_obj_act, LV_EVENT_RELEASED, indev_act);
 1943              		.loc 1 663 42 discriminator 1 view .LVU635
 1944 02dc 0128     		cmp	r0, #1
 1945 02de 2CD8     		bhi	.L113
 1946              	.L112:
 664:lvgl/lvgl/src/core/lv_indev.c ****                     if(indev_reset_check(&i->proc)) return;
 1947              		.loc 1 664 21 is_stmt 1 view .LVU636
 1948 02e0 3F4B     		ldr	r3, .L160
 1949 02e2 1A68     		ldr	r2, [r3]
 1950 02e4 0821     		movs	r1, #8
 1951 02e6 3F4B     		ldr	r3, .L160+4
ARM GAS  C:\Users\gx\AppData\Local\Temp\ccszQoK7.s 			page 65


 1952 02e8 1868     		ldr	r0, [r3]
 1953 02ea FFF7FEFF 		bl	lv_event_send
 1954              	.LVL177:
 665:lvgl/lvgl/src/core/lv_indev.c **** 
 1955              		.loc 1 665 21 view .LVU637
 665:lvgl/lvgl/src/core/lv_indev.c **** 
 1956              		.loc 1 665 24 is_stmt 0 view .LVU638
 1957 02ee 271D     		adds	r7, r4, #4
 1958              	.LVL178:
 665:lvgl/lvgl/src/core/lv_indev.c **** 
 1959              		.loc 1 665 24 view .LVU639
 1960 02f0 3846     		mov	r0, r7
 1961 02f2 FFF7FEFF 		bl	indev_reset_check
 1962              	.LVL179:
 665:lvgl/lvgl/src/core/lv_indev.c **** 
 1963              		.loc 1 665 23 view .LVU640
 1964 02f6 0028     		cmp	r0, #0
 1965 02f8 7FF4BDAE 		bne	.L86
 667:lvgl/lvgl/src/core/lv_indev.c ****                     if(indev_reset_check(&i->proc)) return;
 1966              		.loc 1 667 21 is_stmt 1 view .LVU641
 1967 02fc 384B     		ldr	r3, .L160
 1968 02fe 1A68     		ldr	r2, [r3]
 1969 0300 0421     		movs	r1, #4
 1970 0302 384B     		ldr	r3, .L160+4
 1971 0304 1868     		ldr	r0, [r3]
 1972 0306 FFF7FEFF 		bl	lv_event_send
 1973              	.LVL180:
 668:lvgl/lvgl/src/core/lv_indev.c **** 
 1974              		.loc 1 668 21 view .LVU642
 668:lvgl/lvgl/src/core/lv_indev.c **** 
 1975              		.loc 1 668 24 is_stmt 0 view .LVU643
 1976 030a 3846     		mov	r0, r7
 1977 030c FFF7FEFF 		bl	indev_reset_check
 1978              	.LVL181:
 668:lvgl/lvgl/src/core/lv_indev.c **** 
 1979              		.loc 1 668 23 view .LVU644
 1980 0310 0028     		cmp	r0, #0
 1981 0312 7FF4B0AE 		bne	.L86
 670:lvgl/lvgl/src/core/lv_indev.c ****                     if(indev_reset_check(&i->proc)) return;
 1982              		.loc 1 670 21 is_stmt 1 view .LVU645
 1983 0316 324B     		ldr	r3, .L160
 1984 0318 1A68     		ldr	r2, [r3]
 1985 031a 0721     		movs	r1, #7
 1986 031c 314B     		ldr	r3, .L160+4
 1987 031e 1868     		ldr	r0, [r3]
 1988 0320 FFF7FEFF 		bl	lv_event_send
 1989              	.LVL182:
 671:lvgl/lvgl/src/core/lv_indev.c **** 
 1990              		.loc 1 671 21 view .LVU646
 671:lvgl/lvgl/src/core/lv_indev.c **** 
 1991              		.loc 1 671 24 is_stmt 0 view .LVU647
 1992 0324 3846     		mov	r0, r7
 1993 0326 FFF7FEFF 		bl	indev_reset_check
 1994              	.LVL183:
 671:lvgl/lvgl/src/core/lv_indev.c **** 
 1995              		.loc 1 671 23 view .LVU648
 1996 032a 0028     		cmp	r0, #0
ARM GAS  C:\Users\gx\AppData\Local\Temp\ccszQoK7.s 			page 66


 1997 032c 7FF4A3AE 		bne	.L86
 674:lvgl/lvgl/src/core/lv_indev.c ****                 } else {
 1998              		.loc 1 674 21 is_stmt 1 view .LVU649
 1999 0330 0A21     		movs	r1, #10
 2000 0332 3046     		mov	r0, r6
 2001 0334 FFF7FEFF 		bl	lv_group_send_data
 2002              	.LVL184:
 2003 0338 7BE7     		b	.L107
 2004              	.LVL185:
 2005              	.L113:
 676:lvgl/lvgl/src/core/lv_indev.c ****                 }
 2006              		.loc 1 676 21 view .LVU650
 2007 033a 2021     		movs	r1, #32
 2008 033c 294B     		ldr	r3, .L160+4
 2009 033e 1868     		ldr	r0, [r3]
 2010 0340 FFF7FEFF 		bl	lv_obj_clear_state
 2011              	.LVL186:
 2012 0344 75E7     		b	.L107
 2013              	.L111:
 681:lvgl/lvgl/src/core/lv_indev.c ****                 LV_LOG_INFO("entering edit mode");
 2014              		.loc 1 681 18 view .LVU651
 681:lvgl/lvgl/src/core/lv_indev.c ****                 LV_LOG_INFO("entering edit mode");
 2015              		.loc 1 681 21 is_stmt 0 view .LVU652
 2016 0346 6379     		ldrb	r3, [r4, #5]	@ zero_extendqisi2
 681:lvgl/lvgl/src/core/lv_indev.c ****                 LV_LOG_INFO("entering edit mode");
 2017              		.loc 1 681 20 view .LVU653
 2018 0348 13F0010F 		tst	r3, #1
 2019 034c 7FF471AF 		bne	.L107
 682:lvgl/lvgl/src/core/lv_indev.c ****                 lv_group_set_editing(g, true); /*Set edit mode*/
 2020              		.loc 1 682 17 is_stmt 1 view .LVU654
 682:lvgl/lvgl/src/core/lv_indev.c ****                 lv_group_set_editing(g, true); /*Set edit mode*/
 2021              		.loc 1 682 17 view .LVU655
 682:lvgl/lvgl/src/core/lv_indev.c ****                 lv_group_set_editing(g, true); /*Set edit mode*/
 2022              		.loc 1 682 17 view .LVU656
 682:lvgl/lvgl/src/core/lv_indev.c ****                 lv_group_set_editing(g, true); /*Set edit mode*/
 2023              		.loc 1 682 50 view .LVU657
 683:lvgl/lvgl/src/core/lv_indev.c ****             }
 2024              		.loc 1 683 17 view .LVU658
 2025 0350 0121     		movs	r1, #1
 2026 0352 3046     		mov	r0, r6
 2027 0354 FFF7FEFF 		bl	lv_group_set_editing
 2028              	.LVL187:
 2029 0358 6BE7     		b	.L107
 2030              	.LVL188:
 2031              	.L142:
 683:lvgl/lvgl/src/core/lv_indev.c ****             }
 2032              		.loc 1 683 17 is_stmt 0 view .LVU659
 2033              	.LBE6:
 695:lvgl/lvgl/src/core/lv_indev.c ****             LV_LOG_INFO("rotated by %+d (edit)", data->enc_diff);
 2034              		.loc 1 695 9 is_stmt 1 view .LVU660
 695:lvgl/lvgl/src/core/lv_indev.c ****             LV_LOG_INFO("rotated by %+d (edit)", data->enc_diff);
 2035              		.loc 1 695 12 is_stmt 0 view .LVU661
 2036 035a 3046     		mov	r0, r6
 2037 035c FFF7FEFF 		bl	lv_group_get_editing
 2038              	.LVL189:
 695:lvgl/lvgl/src/core/lv_indev.c ****             LV_LOG_INFO("rotated by %+d (edit)", data->enc_diff);
 2039              		.loc 1 695 11 view .LVU662
ARM GAS  C:\Users\gx\AppData\Local\Temp\ccszQoK7.s 			page 67


 2040 0360 F8B1     		cbz	r0, .L114
 2041              	.LBB7:
 696:lvgl/lvgl/src/core/lv_indev.c ****             int32_t s;
 2042              		.loc 1 696 13 is_stmt 1 view .LVU663
 696:lvgl/lvgl/src/core/lv_indev.c ****             int32_t s;
 2043              		.loc 1 696 13 view .LVU664
 696:lvgl/lvgl/src/core/lv_indev.c ****             int32_t s;
 2044              		.loc 1 696 13 view .LVU665
 696:lvgl/lvgl/src/core/lv_indev.c ****             int32_t s;
 2045              		.loc 1 696 65 view .LVU666
 697:lvgl/lvgl/src/core/lv_indev.c ****             if(data->enc_diff < 0) {
 2046              		.loc 1 697 13 view .LVU667
 698:lvgl/lvgl/src/core/lv_indev.c ****                 for(s = 0; s < -data->enc_diff; s++) lv_group_send_data(g, LV_KEY_LEFT);
 2047              		.loc 1 698 13 view .LVU668
 698:lvgl/lvgl/src/core/lv_indev.c ****                 for(s = 0; s < -data->enc_diff; s++) lv_group_send_data(g, LV_KEY_LEFT);
 2048              		.loc 1 698 20 is_stmt 0 view .LVU669
 2049 0362 B5F90C30 		ldrsh	r3, [r5, #12]
 698:lvgl/lvgl/src/core/lv_indev.c ****                 for(s = 0; s < -data->enc_diff; s++) lv_group_send_data(g, LV_KEY_LEFT);
 2050              		.loc 1 698 15 view .LVU670
 2051 0366 002B     		cmp	r3, #0
 2052 0368 0EDB     		blt	.L156
 701:lvgl/lvgl/src/core/lv_indev.c ****                 for(s = 0; s < data->enc_diff; s++) lv_group_send_data(g, LV_KEY_RIGHT);
 2053              		.loc 1 701 18 is_stmt 1 view .LVU671
 701:lvgl/lvgl/src/core/lv_indev.c ****                 for(s = 0; s < data->enc_diff; s++) lv_group_send_data(g, LV_KEY_RIGHT);
 2054              		.loc 1 701 20 is_stmt 0 view .LVU672
 2055 036a 002B     		cmp	r3, #0
 2056 036c 7FF783AE 		ble	.L86
 702:lvgl/lvgl/src/core/lv_indev.c ****             }
 2057              		.loc 1 702 23 view .LVU673
 2058 0370 0024     		movs	r4, #0
 2059              	.LVL190:
 2060              	.L118:
 702:lvgl/lvgl/src/core/lv_indev.c ****             }
 2061              		.loc 1 702 28 is_stmt 1 discriminator 1 view .LVU674
 702:lvgl/lvgl/src/core/lv_indev.c ****             }
 2062              		.loc 1 702 36 is_stmt 0 discriminator 1 view .LVU675
 2063 0372 B5F90C30 		ldrsh	r3, [r5, #12]
 702:lvgl/lvgl/src/core/lv_indev.c ****             }
 2064              		.loc 1 702 17 discriminator 1 view .LVU676
 2065 0376 A342     		cmp	r3, r4
 2066 0378 7FF77DAE 		ble	.L86
 702:lvgl/lvgl/src/core/lv_indev.c ****             }
 2067              		.loc 1 702 53 is_stmt 1 discriminator 3 view .LVU677
 2068 037c 1321     		movs	r1, #19
 2069 037e 3046     		mov	r0, r6
 2070 0380 FFF7FEFF 		bl	lv_group_send_data
 2071              	.LVL191:
 702:lvgl/lvgl/src/core/lv_indev.c ****             }
 2072              		.loc 1 702 48 discriminator 3 view .LVU678
 702:lvgl/lvgl/src/core/lv_indev.c ****             }
 2073              		.loc 1 702 49 is_stmt 0 discriminator 3 view .LVU679
 2074 0384 0134     		adds	r4, r4, #1
 2075              	.LVL192:
 702:lvgl/lvgl/src/core/lv_indev.c ****             }
 2076              		.loc 1 702 49 discriminator 3 view .LVU680
 2077 0386 F4E7     		b	.L118
 2078              	.LVL193:
ARM GAS  C:\Users\gx\AppData\Local\Temp\ccszQoK7.s 			page 68


 2079              	.L156:
 699:lvgl/lvgl/src/core/lv_indev.c ****             }
 2080              		.loc 1 699 23 view .LVU681
 2081 0388 0024     		movs	r4, #0
 2082              	.LVL194:
 2083              	.L115:
 699:lvgl/lvgl/src/core/lv_indev.c ****             }
 2084              		.loc 1 699 28 is_stmt 1 discriminator 1 view .LVU682
 699:lvgl/lvgl/src/core/lv_indev.c ****             }
 2085              		.loc 1 699 37 is_stmt 0 discriminator 1 view .LVU683
 2086 038a B5F90C30 		ldrsh	r3, [r5, #12]
 699:lvgl/lvgl/src/core/lv_indev.c ****             }
 2087              		.loc 1 699 32 discriminator 1 view .LVU684
 2088 038e 5B42     		rsbs	r3, r3, #0
 699:lvgl/lvgl/src/core/lv_indev.c ****             }
 2089              		.loc 1 699 17 discriminator 1 view .LVU685
 2090 0390 A342     		cmp	r3, r4
 2091 0392 7FF770AE 		ble	.L86
 699:lvgl/lvgl/src/core/lv_indev.c ****             }
 2092              		.loc 1 699 54 is_stmt 1 discriminator 3 view .LVU686
 2093 0396 1421     		movs	r1, #20
 2094 0398 3046     		mov	r0, r6
 2095 039a FFF7FEFF 		bl	lv_group_send_data
 2096              	.LVL195:
 699:lvgl/lvgl/src/core/lv_indev.c ****             }
 2097              		.loc 1 699 49 discriminator 3 view .LVU687
 699:lvgl/lvgl/src/core/lv_indev.c ****             }
 2098              		.loc 1 699 50 is_stmt 0 discriminator 3 view .LVU688
 2099 039e 0134     		adds	r4, r4, #1
 2100              	.LVL196:
 699:lvgl/lvgl/src/core/lv_indev.c ****             }
 2101              		.loc 1 699 50 discriminator 3 view .LVU689
 2102 03a0 F3E7     		b	.L115
 2103              	.LVL197:
 2104              	.L114:
 699:lvgl/lvgl/src/core/lv_indev.c ****             }
 2105              		.loc 1 699 50 discriminator 3 view .LVU690
 2106              	.LBE7:
 2107              	.LBB8:
 707:lvgl/lvgl/src/core/lv_indev.c ****             int32_t s;
 2108              		.loc 1 707 13 is_stmt 1 view .LVU691
 707:lvgl/lvgl/src/core/lv_indev.c ****             int32_t s;
 2109              		.loc 1 707 13 view .LVU692
 707:lvgl/lvgl/src/core/lv_indev.c ****             int32_t s;
 2110              		.loc 1 707 13 view .LVU693
 707:lvgl/lvgl/src/core/lv_indev.c ****             int32_t s;
 2111              		.loc 1 707 64 view .LVU694
 708:lvgl/lvgl/src/core/lv_indev.c ****             if(data->enc_diff < 0) {
 2112              		.loc 1 708 13 view .LVU695
 709:lvgl/lvgl/src/core/lv_indev.c ****                 for(s = 0; s < -data->enc_diff; s++) lv_group_focus_prev(g);
 2113              		.loc 1 709 13 view .LVU696
 709:lvgl/lvgl/src/core/lv_indev.c ****                 for(s = 0; s < -data->enc_diff; s++) lv_group_focus_prev(g);
 2114              		.loc 1 709 20 is_stmt 0 view .LVU697
 2115 03a2 B5F90C30 		ldrsh	r3, [r5, #12]
 709:lvgl/lvgl/src/core/lv_indev.c ****                 for(s = 0; s < -data->enc_diff; s++) lv_group_focus_prev(g);
 2116              		.loc 1 709 15 view .LVU698
 2117 03a6 002B     		cmp	r3, #0
ARM GAS  C:\Users\gx\AppData\Local\Temp\ccszQoK7.s 			page 69


 2118 03a8 0DDB     		blt	.L157
 712:lvgl/lvgl/src/core/lv_indev.c ****                 for(s = 0; s < data->enc_diff; s++) lv_group_focus_next(g);
 2119              		.loc 1 712 18 is_stmt 1 view .LVU699
 712:lvgl/lvgl/src/core/lv_indev.c ****                 for(s = 0; s < data->enc_diff; s++) lv_group_focus_next(g);
 2120              		.loc 1 712 20 is_stmt 0 view .LVU700
 2121 03aa 002B     		cmp	r3, #0
 2122 03ac 7FF763AE 		ble	.L86
 713:lvgl/lvgl/src/core/lv_indev.c ****             }
 2123              		.loc 1 713 23 view .LVU701
 2124 03b0 0024     		movs	r4, #0
 2125              	.LVL198:
 2126              	.L123:
 713:lvgl/lvgl/src/core/lv_indev.c ****             }
 2127              		.loc 1 713 28 is_stmt 1 discriminator 1 view .LVU702
 713:lvgl/lvgl/src/core/lv_indev.c ****             }
 2128              		.loc 1 713 36 is_stmt 0 discriminator 1 view .LVU703
 2129 03b2 B5F90C30 		ldrsh	r3, [r5, #12]
 713:lvgl/lvgl/src/core/lv_indev.c ****             }
 2130              		.loc 1 713 17 discriminator 1 view .LVU704
 2131 03b6 A342     		cmp	r3, r4
 2132 03b8 7FF75DAE 		ble	.L86
 713:lvgl/lvgl/src/core/lv_indev.c ****             }
 2133              		.loc 1 713 53 is_stmt 1 discriminator 3 view .LVU705
 2134 03bc 3046     		mov	r0, r6
 2135 03be FFF7FEFF 		bl	lv_group_focus_next
 2136              	.LVL199:
 713:lvgl/lvgl/src/core/lv_indev.c ****             }
 2137              		.loc 1 713 48 discriminator 3 view .LVU706
 713:lvgl/lvgl/src/core/lv_indev.c ****             }
 2138              		.loc 1 713 49 is_stmt 0 discriminator 3 view .LVU707
 2139 03c2 0134     		adds	r4, r4, #1
 2140              	.LVL200:
 713:lvgl/lvgl/src/core/lv_indev.c ****             }
 2141              		.loc 1 713 49 discriminator 3 view .LVU708
 2142 03c4 F5E7     		b	.L123
 2143              	.LVL201:
 2144              	.L157:
 710:lvgl/lvgl/src/core/lv_indev.c ****             }
 2145              		.loc 1 710 23 view .LVU709
 2146 03c6 0024     		movs	r4, #0
 2147              	.LVL202:
 2148              	.L120:
 710:lvgl/lvgl/src/core/lv_indev.c ****             }
 2149              		.loc 1 710 28 is_stmt 1 discriminator 1 view .LVU710
 710:lvgl/lvgl/src/core/lv_indev.c ****             }
 2150              		.loc 1 710 37 is_stmt 0 discriminator 1 view .LVU711
 2151 03c8 B5F90C30 		ldrsh	r3, [r5, #12]
 710:lvgl/lvgl/src/core/lv_indev.c ****             }
 2152              		.loc 1 710 32 discriminator 1 view .LVU712
 2153 03cc 5B42     		rsbs	r3, r3, #0
 710:lvgl/lvgl/src/core/lv_indev.c ****             }
 2154              		.loc 1 710 17 discriminator 1 view .LVU713
 2155 03ce A342     		cmp	r3, r4
 2156 03d0 7FF751AE 		ble	.L86
 710:lvgl/lvgl/src/core/lv_indev.c ****             }
 2157              		.loc 1 710 54 is_stmt 1 discriminator 3 view .LVU714
 2158 03d4 3046     		mov	r0, r6
ARM GAS  C:\Users\gx\AppData\Local\Temp\ccszQoK7.s 			page 70


 2159 03d6 FFF7FEFF 		bl	lv_group_focus_prev
 2160              	.LVL203:
 710:lvgl/lvgl/src/core/lv_indev.c ****             }
 2161              		.loc 1 710 49 discriminator 3 view .LVU715
 710:lvgl/lvgl/src/core/lv_indev.c ****             }
 2162              		.loc 1 710 50 is_stmt 0 discriminator 3 view .LVU716
 2163 03da 0134     		adds	r4, r4, #1
 2164              	.LVL204:
 710:lvgl/lvgl/src/core/lv_indev.c ****             }
 2165              		.loc 1 710 50 discriminator 3 view .LVU717
 2166 03dc F4E7     		b	.L120
 2167              	.L161:
 2168 03de 00BF     		.align	2
 2169              	.L160:
 2170 03e0 00000000 		.word	.LANCHOR1
 2171 03e4 00000000 		.word	.LANCHOR0
 2172              	.LBE8:
 2173              		.cfi_endproc
 2174              	.LFE179:
 2176              		.section	.text.lv_indev_enable,"ax",%progbits
 2177              		.align	1
 2178              		.global	lv_indev_enable
 2179              		.syntax unified
 2180              		.thumb
 2181              		.thumb_func
 2182              		.fpu fpv4-sp-d16
 2184              	lv_indev_enable:
 2185              	.LVL205:
 2186              	.LFB159:
 123:lvgl/lvgl/src/core/lv_indev.c ****     if(!indev) return;
 2187              		.loc 1 123 1 is_stmt 1 view -0
 2188              		.cfi_startproc
 2189              		@ args = 0, pretend = 0, frame = 0
 2190              		@ frame_needed = 0, uses_anonymous_args = 0
 2191              		@ link register save eliminated.
 124:lvgl/lvgl/src/core/lv_indev.c **** 
 2192              		.loc 1 124 5 view .LVU719
 124:lvgl/lvgl/src/core/lv_indev.c **** 
 2193              		.loc 1 124 7 is_stmt 0 view .LVU720
 2194 0000 28B1     		cbz	r0, .L162
 126:lvgl/lvgl/src/core/lv_indev.c **** }
 2195              		.loc 1 126 5 is_stmt 1 view .LVU721
 126:lvgl/lvgl/src/core/lv_indev.c **** }
 2196              		.loc 1 126 35 is_stmt 0 view .LVU722
 2197 0002 81F00101 		eor	r1, r1, #1
 2198              	.LVL206:
 126:lvgl/lvgl/src/core/lv_indev.c **** }
 2199              		.loc 1 126 26 view .LVU723
 2200 0006 4279     		ldrb	r2, [r0, #5]	@ zero_extendqisi2
 2201 0008 61F38202 		bfi	r2, r1, #2, #1
 2202 000c 4271     		strb	r2, [r0, #5]
 2203              	.L162:
 127:lvgl/lvgl/src/core/lv_indev.c **** 
 2204              		.loc 1 127 1 view .LVU724
 2205 000e 7047     		bx	lr
 2206              		.cfi_endproc
 2207              	.LFE159:
ARM GAS  C:\Users\gx\AppData\Local\Temp\ccszQoK7.s 			page 71


 2209              		.section	.text.lv_indev_get_act,"ax",%progbits
 2210              		.align	1
 2211              		.global	lv_indev_get_act
 2212              		.syntax unified
 2213              		.thumb
 2214              		.thumb_func
 2215              		.fpu fpv4-sp-d16
 2217              	lv_indev_get_act:
 2218              	.LFB160:
 130:lvgl/lvgl/src/core/lv_indev.c ****     return indev_act;
 2219              		.loc 1 130 1 is_stmt 1 view -0
 2220              		.cfi_startproc
 2221              		@ args = 0, pretend = 0, frame = 0
 2222              		@ frame_needed = 0, uses_anonymous_args = 0
 2223              		@ link register save eliminated.
 131:lvgl/lvgl/src/core/lv_indev.c **** }
 2224              		.loc 1 131 5 view .LVU726
 132:lvgl/lvgl/src/core/lv_indev.c **** 
 2225              		.loc 1 132 1 is_stmt 0 view .LVU727
 2226 0000 014B     		ldr	r3, .L165
 2227 0002 1868     		ldr	r0, [r3]
 2228 0004 7047     		bx	lr
 2229              	.L166:
 2230 0006 00BF     		.align	2
 2231              	.L165:
 2232 0008 00000000 		.word	.LANCHOR1
 2233              		.cfi_endproc
 2234              	.LFE160:
 2236              		.section	.text.lv_indev_get_type,"ax",%progbits
 2237              		.align	1
 2238              		.global	lv_indev_get_type
 2239              		.syntax unified
 2240              		.thumb
 2241              		.thumb_func
 2242              		.fpu fpv4-sp-d16
 2244              	lv_indev_get_type:
 2245              	.LVL207:
 2246              	.LFB161:
 135:lvgl/lvgl/src/core/lv_indev.c ****     if(indev == NULL) return LV_INDEV_TYPE_NONE;
 2247              		.loc 1 135 1 is_stmt 1 view -0
 2248              		.cfi_startproc
 2249              		@ args = 0, pretend = 0, frame = 0
 2250              		@ frame_needed = 0, uses_anonymous_args = 0
 2251              		@ link register save eliminated.
 136:lvgl/lvgl/src/core/lv_indev.c **** 
 2252              		.loc 1 136 5 view .LVU729
 136:lvgl/lvgl/src/core/lv_indev.c **** 
 2253              		.loc 1 136 7 is_stmt 0 view .LVU730
 2254 0000 10B1     		cbz	r0, .L169
 138:lvgl/lvgl/src/core/lv_indev.c **** }
 2255              		.loc 1 138 5 is_stmt 1 view .LVU731
 138:lvgl/lvgl/src/core/lv_indev.c **** }
 2256              		.loc 1 138 17 is_stmt 0 view .LVU732
 2257 0002 0368     		ldr	r3, [r0]
 138:lvgl/lvgl/src/core/lv_indev.c **** }
 2258              		.loc 1 138 25 view .LVU733
 2259 0004 1878     		ldrb	r0, [r3]	@ zero_extendqisi2
ARM GAS  C:\Users\gx\AppData\Local\Temp\ccszQoK7.s 			page 72


 2260              	.LVL208:
 138:lvgl/lvgl/src/core/lv_indev.c **** }
 2261              		.loc 1 138 25 view .LVU734
 2262 0006 7047     		bx	lr
 2263              	.LVL209:
 2264              	.L169:
 136:lvgl/lvgl/src/core/lv_indev.c **** 
 2265              		.loc 1 136 30 view .LVU735
 2266 0008 0020     		movs	r0, #0
 2267              	.LVL210:
 139:lvgl/lvgl/src/core/lv_indev.c **** 
 2268              		.loc 1 139 1 view .LVU736
 2269 000a 7047     		bx	lr
 2270              		.cfi_endproc
 2271              	.LFE161:
 2273              		.section	.text.lv_indev_reset,"ax",%progbits
 2274              		.align	1
 2275              		.global	lv_indev_reset
 2276              		.syntax unified
 2277              		.thumb
 2278              		.thumb_func
 2279              		.fpu fpv4-sp-d16
 2281              	lv_indev_reset:
 2282              	.LVL211:
 2283              	.LFB162:
 142:lvgl/lvgl/src/core/lv_indev.c ****     if(indev) {
 2284              		.loc 1 142 1 is_stmt 1 view -0
 2285              		.cfi_startproc
 2286              		@ args = 0, pretend = 0, frame = 0
 2287              		@ frame_needed = 0, uses_anonymous_args = 0
 142:lvgl/lvgl/src/core/lv_indev.c ****     if(indev) {
 2288              		.loc 1 142 1 is_stmt 0 view .LVU738
 2289 0000 10B5     		push	{r4, lr}
 2290              	.LCFI5:
 2291              		.cfi_def_cfa_offset 8
 2292              		.cfi_offset 4, -8
 2293              		.cfi_offset 14, -4
 2294 0002 0C46     		mov	r4, r1
 143:lvgl/lvgl/src/core/lv_indev.c ****         indev->proc.reset_query = 1;
 2295              		.loc 1 143 5 is_stmt 1 view .LVU739
 143:lvgl/lvgl/src/core/lv_indev.c ****         indev->proc.reset_query = 1;
 2296              		.loc 1 143 7 is_stmt 0 view .LVU740
 2297 0004 F8B1     		cbz	r0, .L171
 2298 0006 0346     		mov	r3, r0
 144:lvgl/lvgl/src/core/lv_indev.c ****         if(indev_act == indev) indev_obj_act = NULL;
 2299              		.loc 1 144 9 is_stmt 1 view .LVU741
 144:lvgl/lvgl/src/core/lv_indev.c ****         if(indev_act == indev) indev_obj_act = NULL;
 2300              		.loc 1 144 33 is_stmt 0 view .LVU742
 2301 0008 4279     		ldrb	r2, [r0, #5]	@ zero_extendqisi2
 2302 000a 42F00202 		orr	r2, r2, #2
 2303 000e 4271     		strb	r2, [r0, #5]
 145:lvgl/lvgl/src/core/lv_indev.c ****         if(obj == NULL || indev->proc.types.pointer.last_pressed == obj) {
 2304              		.loc 1 145 9 is_stmt 1 view .LVU743
 145:lvgl/lvgl/src/core/lv_indev.c ****         if(obj == NULL || indev->proc.types.pointer.last_pressed == obj) {
 2305              		.loc 1 145 22 is_stmt 0 view .LVU744
 2306 0010 224A     		ldr	r2, .L191
 2307 0012 1268     		ldr	r2, [r2]
ARM GAS  C:\Users\gx\AppData\Local\Temp\ccszQoK7.s 			page 73


 145:lvgl/lvgl/src/core/lv_indev.c ****         if(obj == NULL || indev->proc.types.pointer.last_pressed == obj) {
 2308              		.loc 1 145 11 view .LVU745
 2309 0014 8242     		cmp	r2, r0
 2310 0016 12D0     		beq	.L188
 2311              	.LVL212:
 2312              	.L172:
 146:lvgl/lvgl/src/core/lv_indev.c ****             indev->proc.types.pointer.last_pressed = NULL;
 2313              		.loc 1 146 9 is_stmt 1 view .LVU746
 146:lvgl/lvgl/src/core/lv_indev.c ****             indev->proc.types.pointer.last_pressed = NULL;
 2314              		.loc 1 146 11 is_stmt 0 view .LVU747
 2315 0018 14B1     		cbz	r4, .L173
 146:lvgl/lvgl/src/core/lv_indev.c ****             indev->proc.types.pointer.last_pressed = NULL;
 2316              		.loc 1 146 52 discriminator 1 view .LVU748
 2317 001a 1A6B     		ldr	r2, [r3, #48]
 146:lvgl/lvgl/src/core/lv_indev.c ****             indev->proc.types.pointer.last_pressed = NULL;
 2318              		.loc 1 146 24 discriminator 1 view .LVU749
 2319 001c A242     		cmp	r2, r4
 2320 001e 01D1     		bne	.L174
 2321              	.L173:
 147:lvgl/lvgl/src/core/lv_indev.c ****         }
 2322              		.loc 1 147 13 is_stmt 1 view .LVU750
 147:lvgl/lvgl/src/core/lv_indev.c ****         }
 2323              		.loc 1 147 52 is_stmt 0 view .LVU751
 2324 0020 0022     		movs	r2, #0
 2325 0022 1A63     		str	r2, [r3, #48]
 2326              	.L174:
 149:lvgl/lvgl/src/core/lv_indev.c ****             indev->proc.types.pointer.act_obj = NULL;
 2327              		.loc 1 149 9 is_stmt 1 view .LVU752
 149:lvgl/lvgl/src/core/lv_indev.c ****             indev->proc.types.pointer.act_obj = NULL;
 2328              		.loc 1 149 11 is_stmt 0 view .LVU753
 2329 0024 14B1     		cbz	r4, .L175
 149:lvgl/lvgl/src/core/lv_indev.c ****             indev->proc.types.pointer.act_obj = NULL;
 2330              		.loc 1 149 52 discriminator 1 view .LVU754
 2331 0026 5A6A     		ldr	r2, [r3, #36]
 149:lvgl/lvgl/src/core/lv_indev.c ****             indev->proc.types.pointer.act_obj = NULL;
 2332              		.loc 1 149 24 discriminator 1 view .LVU755
 2333 0028 A242     		cmp	r2, r4
 2334 002a 01D1     		bne	.L176
 2335              	.L175:
 150:lvgl/lvgl/src/core/lv_indev.c ****         }
 2336              		.loc 1 150 13 is_stmt 1 view .LVU756
 150:lvgl/lvgl/src/core/lv_indev.c ****         }
 2337              		.loc 1 150 47 is_stmt 0 view .LVU757
 2338 002c 0022     		movs	r2, #0
 2339 002e 5A62     		str	r2, [r3, #36]
 2340              	.L176:
 152:lvgl/lvgl/src/core/lv_indev.c ****             indev->proc.types.pointer.last_obj = NULL;
 2341              		.loc 1 152 9 is_stmt 1 view .LVU758
 152:lvgl/lvgl/src/core/lv_indev.c ****             indev->proc.types.pointer.last_obj = NULL;
 2342              		.loc 1 152 11 is_stmt 0 view .LVU759
 2343 0030 14B1     		cbz	r4, .L177
 152:lvgl/lvgl/src/core/lv_indev.c ****             indev->proc.types.pointer.last_obj = NULL;
 2344              		.loc 1 152 52 discriminator 1 view .LVU760
 2345 0032 9A6A     		ldr	r2, [r3, #40]
 152:lvgl/lvgl/src/core/lv_indev.c ****             indev->proc.types.pointer.last_obj = NULL;
 2346              		.loc 1 152 24 discriminator 1 view .LVU761
 2347 0034 A242     		cmp	r2, r4
ARM GAS  C:\Users\gx\AppData\Local\Temp\ccszQoK7.s 			page 74


 2348 0036 01D1     		bne	.L170
 2349              	.L177:
 153:lvgl/lvgl/src/core/lv_indev.c ****         }
 2350              		.loc 1 153 13 is_stmt 1 view .LVU762
 153:lvgl/lvgl/src/core/lv_indev.c ****         }
 2351              		.loc 1 153 48 is_stmt 0 view .LVU763
 2352 0038 0022     		movs	r2, #0
 2353 003a 9A62     		str	r2, [r3, #40]
 2354              	.LVL213:
 2355              	.L170:
 174:lvgl/lvgl/src/core/lv_indev.c **** 
 2356              		.loc 1 174 1 view .LVU764
 2357 003c 10BD     		pop	{r4, pc}
 2358              	.LVL214:
 2359              	.L188:
 145:lvgl/lvgl/src/core/lv_indev.c ****         if(obj == NULL || indev->proc.types.pointer.last_pressed == obj) {
 2360              		.loc 1 145 32 is_stmt 1 discriminator 1 view .LVU765
 145:lvgl/lvgl/src/core/lv_indev.c ****         if(obj == NULL || indev->proc.types.pointer.last_pressed == obj) {
 2361              		.loc 1 145 46 is_stmt 0 discriminator 1 view .LVU766
 2362 003e 184A     		ldr	r2, .L191+4
 2363 0040 0021     		movs	r1, #0
 2364              	.LVL215:
 145:lvgl/lvgl/src/core/lv_indev.c ****         if(obj == NULL || indev->proc.types.pointer.last_pressed == obj) {
 2365              		.loc 1 145 46 discriminator 1 view .LVU767
 2366 0042 1160     		str	r1, [r2]
 2367 0044 E8E7     		b	.L172
 2368              	.LVL216:
 2369              	.L171:
 2370              	.LBB9:
 157:lvgl/lvgl/src/core/lv_indev.c ****         while(i) {
 2371              		.loc 1 157 9 is_stmt 1 view .LVU768
 157:lvgl/lvgl/src/core/lv_indev.c ****         while(i) {
 2372              		.loc 1 157 26 is_stmt 0 view .LVU769
 2373 0046 0020     		movs	r0, #0
 2374              	.LVL217:
 157:lvgl/lvgl/src/core/lv_indev.c ****         while(i) {
 2375              		.loc 1 157 26 view .LVU770
 2376 0048 FFF7FEFF 		bl	lv_indev_get_next
 2377              	.LVL218:
 158:lvgl/lvgl/src/core/lv_indev.c ****             i->proc.reset_query = 1;
 2378              		.loc 1 158 9 is_stmt 1 view .LVU771
 158:lvgl/lvgl/src/core/lv_indev.c ****             i->proc.reset_query = 1;
 2379              		.loc 1 158 14 is_stmt 0 view .LVU772
 2380 004c 0AE0     		b	.L179
 2381              	.L190:
 160:lvgl/lvgl/src/core/lv_indev.c ****                (obj == NULL || i->proc.types.pointer.last_pressed == obj)) {
 2382              		.loc 1 160 102 discriminator 1 view .LVU773
 2383 004e 14B1     		cbz	r4, .L181
 161:lvgl/lvgl/src/core/lv_indev.c ****                 i->proc.types.pointer.last_pressed = NULL;
 2384              		.loc 1 161 53 view .LVU774
 2385 0050 036B     		ldr	r3, [r0, #48]
 161:lvgl/lvgl/src/core/lv_indev.c ****                 i->proc.types.pointer.last_pressed = NULL;
 2386              		.loc 1 161 29 view .LVU775
 2387 0052 A342     		cmp	r3, r4
 2388 0054 11D1     		bne	.L180
 2389              	.L181:
 162:lvgl/lvgl/src/core/lv_indev.c ****             }
ARM GAS  C:\Users\gx\AppData\Local\Temp\ccszQoK7.s 			page 75


 2390              		.loc 1 162 17 is_stmt 1 view .LVU776
 162:lvgl/lvgl/src/core/lv_indev.c ****             }
 2391              		.loc 1 162 52 is_stmt 0 view .LVU777
 2392 0056 0023     		movs	r3, #0
 2393 0058 0363     		str	r3, [r0, #48]
 2394 005a 0EE0     		b	.L180
 2395              	.L184:
 168:lvgl/lvgl/src/core/lv_indev.c ****             }
 2396              		.loc 1 168 17 is_stmt 1 view .LVU778
 168:lvgl/lvgl/src/core/lv_indev.c ****             }
 2397              		.loc 1 168 48 is_stmt 0 view .LVU779
 2398 005c 0023     		movs	r3, #0
 2399 005e 8362     		str	r3, [r0, #40]
 2400              	.L185:
 170:lvgl/lvgl/src/core/lv_indev.c ****         }
 2401              		.loc 1 170 13 is_stmt 1 view .LVU780
 170:lvgl/lvgl/src/core/lv_indev.c ****         }
 2402              		.loc 1 170 17 is_stmt 0 view .LVU781
 2403 0060 FFF7FEFF 		bl	lv_indev_get_next
 2404              	.LVL219:
 2405              	.L179:
 158:lvgl/lvgl/src/core/lv_indev.c ****             i->proc.reset_query = 1;
 2406              		.loc 1 158 14 is_stmt 1 view .LVU782
 2407 0064 A8B1     		cbz	r0, .L189
 159:lvgl/lvgl/src/core/lv_indev.c ****             if((i->driver->type == LV_INDEV_TYPE_POINTER || i->driver->type == LV_INDEV_TYPE_KEYPAD
 2408              		.loc 1 159 13 view .LVU783
 159:lvgl/lvgl/src/core/lv_indev.c ****             if((i->driver->type == LV_INDEV_TYPE_POINTER || i->driver->type == LV_INDEV_TYPE_KEYPAD
 2409              		.loc 1 159 33 is_stmt 0 view .LVU784
 2410 0066 4379     		ldrb	r3, [r0, #5]	@ zero_extendqisi2
 2411 0068 43F00203 		orr	r3, r3, #2
 2412 006c 4371     		strb	r3, [r0, #5]
 160:lvgl/lvgl/src/core/lv_indev.c ****                (obj == NULL || i->proc.types.pointer.last_pressed == obj)) {
 2413              		.loc 1 160 13 is_stmt 1 view .LVU785
 160:lvgl/lvgl/src/core/lv_indev.c ****                (obj == NULL || i->proc.types.pointer.last_pressed == obj)) {
 2414              		.loc 1 160 18 is_stmt 0 view .LVU786
 2415 006e 0368     		ldr	r3, [r0]
 160:lvgl/lvgl/src/core/lv_indev.c ****                (obj == NULL || i->proc.types.pointer.last_pressed == obj)) {
 2416              		.loc 1 160 26 view .LVU787
 2417 0070 1B78     		ldrb	r3, [r3]	@ zero_extendqisi2
 160:lvgl/lvgl/src/core/lv_indev.c ****                (obj == NULL || i->proc.types.pointer.last_pressed == obj)) {
 2418              		.loc 1 160 58 view .LVU788
 2419 0072 013B     		subs	r3, r3, #1
 2420 0074 DBB2     		uxtb	r3, r3
 160:lvgl/lvgl/src/core/lv_indev.c ****                (obj == NULL || i->proc.types.pointer.last_pressed == obj)) {
 2421              		.loc 1 160 15 view .LVU789
 2422 0076 012B     		cmp	r3, #1
 2423 0078 E9D9     		bls	.L190
 2424              	.L180:
 164:lvgl/lvgl/src/core/lv_indev.c ****                 i->proc.types.pointer.act_obj = NULL;
 2425              		.loc 1 164 13 is_stmt 1 view .LVU790
 164:lvgl/lvgl/src/core/lv_indev.c ****                 i->proc.types.pointer.act_obj = NULL;
 2426              		.loc 1 164 15 is_stmt 0 view .LVU791
 2427 007a 14B1     		cbz	r4, .L182
 164:lvgl/lvgl/src/core/lv_indev.c ****                 i->proc.types.pointer.act_obj = NULL;
 2428              		.loc 1 164 52 discriminator 1 view .LVU792
 2429 007c 436A     		ldr	r3, [r0, #36]
 164:lvgl/lvgl/src/core/lv_indev.c ****                 i->proc.types.pointer.act_obj = NULL;
ARM GAS  C:\Users\gx\AppData\Local\Temp\ccszQoK7.s 			page 76


 2430              		.loc 1 164 28 discriminator 1 view .LVU793
 2431 007e A342     		cmp	r3, r4
 2432 0080 01D1     		bne	.L183
 2433              	.L182:
 165:lvgl/lvgl/src/core/lv_indev.c ****             }
 2434              		.loc 1 165 17 is_stmt 1 view .LVU794
 165:lvgl/lvgl/src/core/lv_indev.c ****             }
 2435              		.loc 1 165 47 is_stmt 0 view .LVU795
 2436 0082 0023     		movs	r3, #0
 2437 0084 4362     		str	r3, [r0, #36]
