ARM GAS  C:\Users\gx\AppData\Local\Temp\ccAHLVXI.s 			page 1


   1              		.cpu cortex-m4
   2              		.eabi_attribute 27, 1
   3              		.eabi_attribute 28, 1
   4              		.eabi_attribute 20, 1
   5              		.eabi_attribute 21, 1
   6              		.eabi_attribute 23, 3
   7              		.eabi_attribute 24, 1
   8              		.eabi_attribute 25, 1
   9              		.eabi_attribute 26, 1
  10              		.eabi_attribute 30, 1
  11              		.eabi_attribute 34, 1
  12              		.eabi_attribute 18, 4
  13              		.file	"lv_img.c"
  14              		.text
  15              	.Ltext0:
  16              		.cfi_sections	.debug_frame
  17              		.section	.text.lv_img_get_tranformed_size,"ax",%progbits
  18              		.align	1
  19              		.arch armv7e-m
  20              		.syntax unified
  21              		.thumb
  22              		.thumb_func
  23              		.fpu fpv4-sp-d16
  25              	lv_img_get_tranformed_size:
  26              	.LVL0:
  27              	.LFB171:
  28              		.file 1 "lvgl/lvgl/src/widgets/lv_img.c"
   1:lvgl/lvgl/src/widgets/lv_img.c **** /**
   2:lvgl/lvgl/src/widgets/lv_img.c ****  * @file lv_img.c
   3:lvgl/lvgl/src/widgets/lv_img.c ****  *
   4:lvgl/lvgl/src/widgets/lv_img.c ****  */
   5:lvgl/lvgl/src/widgets/lv_img.c **** 
   6:lvgl/lvgl/src/widgets/lv_img.c **** /*********************
   7:lvgl/lvgl/src/widgets/lv_img.c ****  *      INCLUDES
   8:lvgl/lvgl/src/widgets/lv_img.c ****  *********************/
   9:lvgl/lvgl/src/widgets/lv_img.c **** #include "lv_img.h"
  10:lvgl/lvgl/src/widgets/lv_img.c **** #if LV_USE_IMG != 0
  11:lvgl/lvgl/src/widgets/lv_img.c **** 
  12:lvgl/lvgl/src/widgets/lv_img.c **** #include "../misc/lv_assert.h"
  13:lvgl/lvgl/src/widgets/lv_img.c **** #include "../draw/lv_img_decoder.h"
  14:lvgl/lvgl/src/widgets/lv_img.c **** #include "../misc/lv_fs.h"
  15:lvgl/lvgl/src/widgets/lv_img.c **** #include "../misc/lv_txt.h"
  16:lvgl/lvgl/src/widgets/lv_img.c **** #include "../misc/lv_math.h"
  17:lvgl/lvgl/src/widgets/lv_img.c **** #include "../misc/lv_log.h"
  18:lvgl/lvgl/src/widgets/lv_img.c **** 
  19:lvgl/lvgl/src/widgets/lv_img.c **** /*********************
  20:lvgl/lvgl/src/widgets/lv_img.c ****  *      DEFINES
  21:lvgl/lvgl/src/widgets/lv_img.c ****  *********************/
  22:lvgl/lvgl/src/widgets/lv_img.c **** #define MY_CLASS &lv_img_class
  23:lvgl/lvgl/src/widgets/lv_img.c **** 
  24:lvgl/lvgl/src/widgets/lv_img.c **** /**********************
  25:lvgl/lvgl/src/widgets/lv_img.c ****  *      TYPEDEFS
  26:lvgl/lvgl/src/widgets/lv_img.c ****  **********************/
  27:lvgl/lvgl/src/widgets/lv_img.c **** 
  28:lvgl/lvgl/src/widgets/lv_img.c **** /**********************
  29:lvgl/lvgl/src/widgets/lv_img.c ****  *  STATIC PROTOTYPES
  30:lvgl/lvgl/src/widgets/lv_img.c ****  **********************/
ARM GAS  C:\Users\gx\AppData\Local\Temp\ccAHLVXI.s 			page 2


  31:lvgl/lvgl/src/widgets/lv_img.c **** static void lv_img_constructor(const lv_obj_class_t * class_p, lv_obj_t * obj);
  32:lvgl/lvgl/src/widgets/lv_img.c **** static void lv_img_destructor(const lv_obj_class_t * class_p, lv_obj_t * obj);
  33:lvgl/lvgl/src/widgets/lv_img.c **** static void lv_img_event(const lv_obj_class_t * class_p, lv_event_t * e);
  34:lvgl/lvgl/src/widgets/lv_img.c **** static void draw_img(lv_event_t * e);
  35:lvgl/lvgl/src/widgets/lv_img.c **** 
  36:lvgl/lvgl/src/widgets/lv_img.c **** /**********************
  37:lvgl/lvgl/src/widgets/lv_img.c ****  *  STATIC VARIABLES
  38:lvgl/lvgl/src/widgets/lv_img.c ****  **********************/
  39:lvgl/lvgl/src/widgets/lv_img.c **** const lv_obj_class_t lv_img_class = {
  40:lvgl/lvgl/src/widgets/lv_img.c ****          .constructor_cb = lv_img_constructor,
  41:lvgl/lvgl/src/widgets/lv_img.c ****          .destructor_cb = lv_img_destructor,
  42:lvgl/lvgl/src/widgets/lv_img.c ****          .event_cb = lv_img_event,
  43:lvgl/lvgl/src/widgets/lv_img.c ****          .width_def = LV_SIZE_CONTENT,
  44:lvgl/lvgl/src/widgets/lv_img.c ****          .height_def = LV_SIZE_CONTENT,
  45:lvgl/lvgl/src/widgets/lv_img.c ****          .instance_size = sizeof(lv_img_t),
  46:lvgl/lvgl/src/widgets/lv_img.c ****          .base_class = &lv_obj_class
  47:lvgl/lvgl/src/widgets/lv_img.c ****      };
  48:lvgl/lvgl/src/widgets/lv_img.c **** 
  49:lvgl/lvgl/src/widgets/lv_img.c **** /**********************
  50:lvgl/lvgl/src/widgets/lv_img.c ****  *      MACROS
  51:lvgl/lvgl/src/widgets/lv_img.c ****  **********************/
  52:lvgl/lvgl/src/widgets/lv_img.c **** 
  53:lvgl/lvgl/src/widgets/lv_img.c **** /**********************
  54:lvgl/lvgl/src/widgets/lv_img.c ****  *   GLOBAL FUNCTIONS
  55:lvgl/lvgl/src/widgets/lv_img.c ****  **********************/
  56:lvgl/lvgl/src/widgets/lv_img.c **** 
  57:lvgl/lvgl/src/widgets/lv_img.c **** lv_obj_t * lv_img_create(lv_obj_t * parent)
  58:lvgl/lvgl/src/widgets/lv_img.c **** {
  59:lvgl/lvgl/src/widgets/lv_img.c ****     LV_LOG_INFO("begin")
  60:lvgl/lvgl/src/widgets/lv_img.c ****     lv_obj_t * obj = lv_obj_class_create_obj(MY_CLASS, parent);
  61:lvgl/lvgl/src/widgets/lv_img.c ****     lv_obj_class_init_obj(obj);
  62:lvgl/lvgl/src/widgets/lv_img.c ****     return obj;
  63:lvgl/lvgl/src/widgets/lv_img.c **** }
  64:lvgl/lvgl/src/widgets/lv_img.c **** 
  65:lvgl/lvgl/src/widgets/lv_img.c **** /*=====================
  66:lvgl/lvgl/src/widgets/lv_img.c ****  * Setter functions
  67:lvgl/lvgl/src/widgets/lv_img.c ****  *====================*/
  68:lvgl/lvgl/src/widgets/lv_img.c **** 
  69:lvgl/lvgl/src/widgets/lv_img.c **** void lv_img_set_src(lv_obj_t * obj, const void * src)
  70:lvgl/lvgl/src/widgets/lv_img.c **** {
  71:lvgl/lvgl/src/widgets/lv_img.c ****     LV_ASSERT_OBJ(obj, MY_CLASS);
  72:lvgl/lvgl/src/widgets/lv_img.c **** 
  73:lvgl/lvgl/src/widgets/lv_img.c ****     lv_obj_invalidate(obj);
  74:lvgl/lvgl/src/widgets/lv_img.c **** 
  75:lvgl/lvgl/src/widgets/lv_img.c ****     lv_img_src_t src_type = lv_img_src_get_type(src);
  76:lvgl/lvgl/src/widgets/lv_img.c ****     lv_img_t * img = (lv_img_t *)obj;
  77:lvgl/lvgl/src/widgets/lv_img.c **** 
  78:lvgl/lvgl/src/widgets/lv_img.c **** #if LV_USE_LOG && LV_LOG_LEVEL >= LV_LOG_LEVEL_INFO
  79:lvgl/lvgl/src/widgets/lv_img.c ****     switch(src_type) {
  80:lvgl/lvgl/src/widgets/lv_img.c ****         case LV_IMG_SRC_FILE:
  81:lvgl/lvgl/src/widgets/lv_img.c ****             LV_LOG_TRACE("lv_img_set_src: `LV_IMG_SRC_FILE` type found");
  82:lvgl/lvgl/src/widgets/lv_img.c ****             break;
  83:lvgl/lvgl/src/widgets/lv_img.c ****         case LV_IMG_SRC_VARIABLE:
  84:lvgl/lvgl/src/widgets/lv_img.c ****             LV_LOG_TRACE("lv_img_set_src: `LV_IMG_SRC_VARIABLE` type found");
  85:lvgl/lvgl/src/widgets/lv_img.c ****             break;
  86:lvgl/lvgl/src/widgets/lv_img.c ****         case LV_IMG_SRC_SYMBOL:
  87:lvgl/lvgl/src/widgets/lv_img.c ****             LV_LOG_TRACE("lv_img_set_src: `LV_IMG_SRC_SYMBOL` type found");
ARM GAS  C:\Users\gx\AppData\Local\Temp\ccAHLVXI.s 			page 3


  88:lvgl/lvgl/src/widgets/lv_img.c ****             break;
  89:lvgl/lvgl/src/widgets/lv_img.c ****         default:
  90:lvgl/lvgl/src/widgets/lv_img.c ****             LV_LOG_WARN("lv_img_set_src: unknown type");
  91:lvgl/lvgl/src/widgets/lv_img.c ****     }
  92:lvgl/lvgl/src/widgets/lv_img.c **** #endif
  93:lvgl/lvgl/src/widgets/lv_img.c **** 
  94:lvgl/lvgl/src/widgets/lv_img.c ****     /*If the new source type is unknown free the memories of the old source*/
  95:lvgl/lvgl/src/widgets/lv_img.c ****     if(src_type == LV_IMG_SRC_UNKNOWN) {
  96:lvgl/lvgl/src/widgets/lv_img.c ****         LV_LOG_WARN("lv_img_set_src: unknown image type");
  97:lvgl/lvgl/src/widgets/lv_img.c ****         if(img->src_type == LV_IMG_SRC_SYMBOL || img->src_type == LV_IMG_SRC_FILE) {
  98:lvgl/lvgl/src/widgets/lv_img.c ****             lv_mem_free((void*)img->src);
  99:lvgl/lvgl/src/widgets/lv_img.c ****         }
 100:lvgl/lvgl/src/widgets/lv_img.c ****         img->src      = NULL;
 101:lvgl/lvgl/src/widgets/lv_img.c ****         img->src_type = LV_IMG_SRC_UNKNOWN;
 102:lvgl/lvgl/src/widgets/lv_img.c ****         return;
 103:lvgl/lvgl/src/widgets/lv_img.c ****     }
 104:lvgl/lvgl/src/widgets/lv_img.c **** 
 105:lvgl/lvgl/src/widgets/lv_img.c ****     lv_img_header_t header;
 106:lvgl/lvgl/src/widgets/lv_img.c ****     lv_img_decoder_get_info(src, &header);
 107:lvgl/lvgl/src/widgets/lv_img.c **** 
 108:lvgl/lvgl/src/widgets/lv_img.c ****     /*Save the source*/
 109:lvgl/lvgl/src/widgets/lv_img.c ****     if(src_type == LV_IMG_SRC_VARIABLE) {
 110:lvgl/lvgl/src/widgets/lv_img.c ****         /*If memory was allocated because of the previous `src_type` then free it*/
 111:lvgl/lvgl/src/widgets/lv_img.c ****         if(img->src_type == LV_IMG_SRC_FILE || img->src_type == LV_IMG_SRC_SYMBOL) {
 112:lvgl/lvgl/src/widgets/lv_img.c ****             lv_mem_free((void*)img->src);
 113:lvgl/lvgl/src/widgets/lv_img.c ****         }
 114:lvgl/lvgl/src/widgets/lv_img.c ****         img->src = src;
 115:lvgl/lvgl/src/widgets/lv_img.c ****     }
 116:lvgl/lvgl/src/widgets/lv_img.c ****     else if(src_type == LV_IMG_SRC_FILE || src_type == LV_IMG_SRC_SYMBOL) {
 117:lvgl/lvgl/src/widgets/lv_img.c ****         /*If the new and the old src are the same then it was only a refresh.*/
 118:lvgl/lvgl/src/widgets/lv_img.c ****         if(img->src != src) {
 119:lvgl/lvgl/src/widgets/lv_img.c ****             const void * old_src = NULL;
 120:lvgl/lvgl/src/widgets/lv_img.c ****             /*If memory was allocated because of the previous `src_type` then save its pointer and 
 121:lvgl/lvgl/src/widgets/lv_img.c ****              *It's important to allocate first to be sure the new data will be on a new address.
 122:lvgl/lvgl/src/widgets/lv_img.c ****              *Else `img_cache` wouldn't see the change in source.*/
 123:lvgl/lvgl/src/widgets/lv_img.c ****             if(img->src_type == LV_IMG_SRC_FILE || img->src_type == LV_IMG_SRC_SYMBOL) {
 124:lvgl/lvgl/src/widgets/lv_img.c ****                 old_src = img->src;
 125:lvgl/lvgl/src/widgets/lv_img.c ****             }
 126:lvgl/lvgl/src/widgets/lv_img.c ****             char * new_str = lv_mem_alloc(strlen(src) + 1);
 127:lvgl/lvgl/src/widgets/lv_img.c ****             LV_ASSERT_MALLOC(new_str);
 128:lvgl/lvgl/src/widgets/lv_img.c ****             if(new_str == NULL) return;
 129:lvgl/lvgl/src/widgets/lv_img.c ****             strcpy(new_str, src);
 130:lvgl/lvgl/src/widgets/lv_img.c ****             img->src = new_str;
 131:lvgl/lvgl/src/widgets/lv_img.c **** 
 132:lvgl/lvgl/src/widgets/lv_img.c ****             if(old_src) lv_mem_free((void*)old_src);
 133:lvgl/lvgl/src/widgets/lv_img.c ****         }
 134:lvgl/lvgl/src/widgets/lv_img.c ****     }
 135:lvgl/lvgl/src/widgets/lv_img.c **** 
 136:lvgl/lvgl/src/widgets/lv_img.c ****     if(src_type == LV_IMG_SRC_SYMBOL) {
 137:lvgl/lvgl/src/widgets/lv_img.c ****         /*`lv_img_dsc_get_info` couldn't set the with and height of a font so set it here*/
 138:lvgl/lvgl/src/widgets/lv_img.c ****         const lv_font_t * font = lv_obj_get_style_text_font(obj, LV_PART_MAIN);
 139:lvgl/lvgl/src/widgets/lv_img.c ****         lv_coord_t letter_space = lv_obj_get_style_text_letter_space(obj, LV_PART_MAIN);
 140:lvgl/lvgl/src/widgets/lv_img.c ****         lv_coord_t line_space = lv_obj_get_style_text_line_space(obj, LV_PART_MAIN);
 141:lvgl/lvgl/src/widgets/lv_img.c ****         lv_point_t size;
 142:lvgl/lvgl/src/widgets/lv_img.c ****         lv_txt_get_size(&size, src, font, letter_space, line_space, LV_COORD_MAX, LV_TEXT_FLAG_NONE
 143:lvgl/lvgl/src/widgets/lv_img.c ****         header.w = size.x;
 144:lvgl/lvgl/src/widgets/lv_img.c ****         header.h = size.y;
ARM GAS  C:\Users\gx\AppData\Local\Temp\ccAHLVXI.s 			page 4


 145:lvgl/lvgl/src/widgets/lv_img.c ****     }
 146:lvgl/lvgl/src/widgets/lv_img.c **** 
 147:lvgl/lvgl/src/widgets/lv_img.c ****     img->src_type = src_type;
 148:lvgl/lvgl/src/widgets/lv_img.c ****     img->w        = header.w;
 149:lvgl/lvgl/src/widgets/lv_img.c ****     img->h        = header.h;
 150:lvgl/lvgl/src/widgets/lv_img.c ****     img->cf       = header.cf;
 151:lvgl/lvgl/src/widgets/lv_img.c ****     img->pivot.x = header.w / 2;
 152:lvgl/lvgl/src/widgets/lv_img.c ****     img->pivot.y = header.h / 2;
 153:lvgl/lvgl/src/widgets/lv_img.c **** 
 154:lvgl/lvgl/src/widgets/lv_img.c ****     lv_obj_refresh_self_size(obj);
 155:lvgl/lvgl/src/widgets/lv_img.c **** 
 156:lvgl/lvgl/src/widgets/lv_img.c ****     /*Provide enough room for the rotated corners*/
 157:lvgl/lvgl/src/widgets/lv_img.c ****     if(img->angle || img->zoom != LV_IMG_ZOOM_NONE) lv_obj_refresh_ext_draw_size(obj);
 158:lvgl/lvgl/src/widgets/lv_img.c **** 
 159:lvgl/lvgl/src/widgets/lv_img.c ****     lv_obj_invalidate(obj);
 160:lvgl/lvgl/src/widgets/lv_img.c **** }
 161:lvgl/lvgl/src/widgets/lv_img.c **** 
 162:lvgl/lvgl/src/widgets/lv_img.c **** void lv_img_set_offset_x(lv_obj_t * obj, lv_coord_t x)
 163:lvgl/lvgl/src/widgets/lv_img.c **** {
 164:lvgl/lvgl/src/widgets/lv_img.c ****     LV_ASSERT_OBJ(obj, MY_CLASS);
 165:lvgl/lvgl/src/widgets/lv_img.c **** 
 166:lvgl/lvgl/src/widgets/lv_img.c ****    lv_img_t * img = (lv_img_t *)obj;
 167:lvgl/lvgl/src/widgets/lv_img.c **** 
 168:lvgl/lvgl/src/widgets/lv_img.c ****     x = x % img->w;
 169:lvgl/lvgl/src/widgets/lv_img.c **** 
 170:lvgl/lvgl/src/widgets/lv_img.c ****     img->offset.x = x;
 171:lvgl/lvgl/src/widgets/lv_img.c ****     lv_obj_invalidate(obj);
 172:lvgl/lvgl/src/widgets/lv_img.c **** }
 173:lvgl/lvgl/src/widgets/lv_img.c **** 
 174:lvgl/lvgl/src/widgets/lv_img.c **** void lv_img_set_offset_y(lv_obj_t * obj, lv_coord_t y)
 175:lvgl/lvgl/src/widgets/lv_img.c **** {
 176:lvgl/lvgl/src/widgets/lv_img.c ****     LV_ASSERT_OBJ(obj, MY_CLASS);
 177:lvgl/lvgl/src/widgets/lv_img.c **** 
 178:lvgl/lvgl/src/widgets/lv_img.c ****    lv_img_t * img = (lv_img_t *)obj;
 179:lvgl/lvgl/src/widgets/lv_img.c **** 
 180:lvgl/lvgl/src/widgets/lv_img.c ****     y = y % img->h;
 181:lvgl/lvgl/src/widgets/lv_img.c **** 
 182:lvgl/lvgl/src/widgets/lv_img.c ****     img->offset.y = y;
 183:lvgl/lvgl/src/widgets/lv_img.c ****     lv_obj_invalidate(obj);
 184:lvgl/lvgl/src/widgets/lv_img.c **** }
 185:lvgl/lvgl/src/widgets/lv_img.c **** 
 186:lvgl/lvgl/src/widgets/lv_img.c **** void lv_img_set_angle(lv_obj_t * obj, int16_t angle)
 187:lvgl/lvgl/src/widgets/lv_img.c **** {
 188:lvgl/lvgl/src/widgets/lv_img.c ****     if(angle < 0 || angle >= 3600) angle = angle % 3600;
 189:lvgl/lvgl/src/widgets/lv_img.c **** 
 190:lvgl/lvgl/src/widgets/lv_img.c ****    lv_img_t * img = (lv_img_t *)obj;
 191:lvgl/lvgl/src/widgets/lv_img.c ****     if(angle == img->angle) return;
 192:lvgl/lvgl/src/widgets/lv_img.c **** 
 193:lvgl/lvgl/src/widgets/lv_img.c ****     lv_coord_t transf_zoom = lv_obj_get_style_transform_zoom(obj, LV_PART_MAIN);
 194:lvgl/lvgl/src/widgets/lv_img.c ****     transf_zoom = (transf_zoom * img->zoom) >> 8;
 195:lvgl/lvgl/src/widgets/lv_img.c **** 
 196:lvgl/lvgl/src/widgets/lv_img.c ****     lv_coord_t transf_angle = lv_obj_get_style_transform_angle(obj, LV_PART_MAIN);
 197:lvgl/lvgl/src/widgets/lv_img.c **** 
 198:lvgl/lvgl/src/widgets/lv_img.c ****     lv_coord_t w = lv_obj_get_width(obj);
 199:lvgl/lvgl/src/widgets/lv_img.c ****     lv_coord_t h = lv_obj_get_height(obj);
 200:lvgl/lvgl/src/widgets/lv_img.c ****     lv_area_t a;
 201:lvgl/lvgl/src/widgets/lv_img.c ****     _lv_img_buf_get_transformed_area(&a, w, h, transf_angle + img->angle, transf_zoom, &img->pivot)
ARM GAS  C:\Users\gx\AppData\Local\Temp\ccAHLVXI.s 			page 5


 202:lvgl/lvgl/src/widgets/lv_img.c ****     a.x1 += obj->coords.x1;
 203:lvgl/lvgl/src/widgets/lv_img.c ****     a.y1 += obj->coords.y1;
 204:lvgl/lvgl/src/widgets/lv_img.c ****     a.x2 += obj->coords.x1;
 205:lvgl/lvgl/src/widgets/lv_img.c ****     a.y2 += obj->coords.y1;
 206:lvgl/lvgl/src/widgets/lv_img.c ****     lv_obj_invalidate_area(obj, &a);
 207:lvgl/lvgl/src/widgets/lv_img.c **** 
 208:lvgl/lvgl/src/widgets/lv_img.c ****     img->angle = angle;
 209:lvgl/lvgl/src/widgets/lv_img.c ****     lv_obj_refresh_ext_draw_size(obj);
 210:lvgl/lvgl/src/widgets/lv_img.c **** 
 211:lvgl/lvgl/src/widgets/lv_img.c ****     _lv_img_buf_get_transformed_area(&a, w, h, transf_angle + img->angle, transf_zoom, &img->pivot)
 212:lvgl/lvgl/src/widgets/lv_img.c ****     a.x1 += obj->coords.x1;
 213:lvgl/lvgl/src/widgets/lv_img.c ****     a.y1 += obj->coords.y1;
 214:lvgl/lvgl/src/widgets/lv_img.c ****     a.x2 += obj->coords.x1;
 215:lvgl/lvgl/src/widgets/lv_img.c ****     a.y2 += obj->coords.y1;
 216:lvgl/lvgl/src/widgets/lv_img.c ****     lv_obj_invalidate_area(obj, &a);
 217:lvgl/lvgl/src/widgets/lv_img.c **** }
 218:lvgl/lvgl/src/widgets/lv_img.c **** 
 219:lvgl/lvgl/src/widgets/lv_img.c **** void lv_img_set_pivot(lv_obj_t * obj, lv_coord_t x, lv_coord_t y)
 220:lvgl/lvgl/src/widgets/lv_img.c **** {
 221:lvgl/lvgl/src/widgets/lv_img.c ****     lv_img_t * img = (lv_img_t *)obj;
 222:lvgl/lvgl/src/widgets/lv_img.c ****     if(img->pivot.x == x && img->pivot.y == y) return;
 223:lvgl/lvgl/src/widgets/lv_img.c **** 
 224:lvgl/lvgl/src/widgets/lv_img.c ****     lv_coord_t transf_zoom = lv_obj_get_style_transform_zoom(obj, LV_PART_MAIN);
 225:lvgl/lvgl/src/widgets/lv_img.c ****     transf_zoom = (transf_zoom * img->zoom) >> 8;
 226:lvgl/lvgl/src/widgets/lv_img.c **** 
 227:lvgl/lvgl/src/widgets/lv_img.c ****     lv_coord_t transf_angle = lv_obj_get_style_transform_angle(obj, LV_PART_MAIN);
 228:lvgl/lvgl/src/widgets/lv_img.c ****     transf_angle += img->angle;
 229:lvgl/lvgl/src/widgets/lv_img.c **** 
 230:lvgl/lvgl/src/widgets/lv_img.c ****     lv_coord_t w = lv_obj_get_width(obj);
 231:lvgl/lvgl/src/widgets/lv_img.c ****     lv_coord_t h = lv_obj_get_height(obj);
 232:lvgl/lvgl/src/widgets/lv_img.c ****     lv_area_t a;
 233:lvgl/lvgl/src/widgets/lv_img.c ****     _lv_img_buf_get_transformed_area(&a, w, h, transf_angle, transf_zoom, &img->pivot);
 234:lvgl/lvgl/src/widgets/lv_img.c ****     a.x1 += obj->coords.x1;
 235:lvgl/lvgl/src/widgets/lv_img.c ****     a.y1 += obj->coords.y1;
 236:lvgl/lvgl/src/widgets/lv_img.c ****     a.x2 += obj->coords.x1;
 237:lvgl/lvgl/src/widgets/lv_img.c ****     a.y2 += obj->coords.y1;
 238:lvgl/lvgl/src/widgets/lv_img.c ****     lv_obj_invalidate_area(obj, &a);
 239:lvgl/lvgl/src/widgets/lv_img.c **** 
 240:lvgl/lvgl/src/widgets/lv_img.c ****     img->pivot.x = x;
 241:lvgl/lvgl/src/widgets/lv_img.c ****     img->pivot.y = y;
 242:lvgl/lvgl/src/widgets/lv_img.c ****     lv_obj_refresh_ext_draw_size(obj);
 243:lvgl/lvgl/src/widgets/lv_img.c **** 
 244:lvgl/lvgl/src/widgets/lv_img.c ****     _lv_img_buf_get_transformed_area(&a, w, h, transf_angle, transf_zoom, &img->pivot);
 245:lvgl/lvgl/src/widgets/lv_img.c ****     a.x1 += obj->coords.x1;
 246:lvgl/lvgl/src/widgets/lv_img.c ****     a.y1 += obj->coords.y1;
 247:lvgl/lvgl/src/widgets/lv_img.c ****     a.x2 += obj->coords.x1;
 248:lvgl/lvgl/src/widgets/lv_img.c ****     a.y2 += obj->coords.y1;
 249:lvgl/lvgl/src/widgets/lv_img.c ****     lv_obj_invalidate_area(obj, &a);
 250:lvgl/lvgl/src/widgets/lv_img.c **** }
 251:lvgl/lvgl/src/widgets/lv_img.c **** 
 252:lvgl/lvgl/src/widgets/lv_img.c **** void lv_img_set_zoom(lv_obj_t * obj, uint16_t zoom)
 253:lvgl/lvgl/src/widgets/lv_img.c **** {
 254:lvgl/lvgl/src/widgets/lv_img.c ****    lv_img_t * img = (lv_img_t *)obj;
 255:lvgl/lvgl/src/widgets/lv_img.c ****     if(zoom == img->zoom) return;
 256:lvgl/lvgl/src/widgets/lv_img.c **** 
 257:lvgl/lvgl/src/widgets/lv_img.c ****     if(zoom == 0) zoom = 1;
 258:lvgl/lvgl/src/widgets/lv_img.c **** 
ARM GAS  C:\Users\gx\AppData\Local\Temp\ccAHLVXI.s 			page 6


 259:lvgl/lvgl/src/widgets/lv_img.c ****     lv_coord_t transf_zoom = lv_obj_get_style_transform_zoom(obj, LV_PART_MAIN);
 260:lvgl/lvgl/src/widgets/lv_img.c **** 
 261:lvgl/lvgl/src/widgets/lv_img.c ****     lv_coord_t transf_angle = lv_obj_get_style_transform_angle(obj, LV_PART_MAIN);
 262:lvgl/lvgl/src/widgets/lv_img.c ****     transf_angle += img->angle;
 263:lvgl/lvgl/src/widgets/lv_img.c **** 
 264:lvgl/lvgl/src/widgets/lv_img.c ****     lv_coord_t w = lv_obj_get_width(obj);
 265:lvgl/lvgl/src/widgets/lv_img.c ****     lv_coord_t h = lv_obj_get_height(obj);
 266:lvgl/lvgl/src/widgets/lv_img.c ****     lv_area_t a;
 267:lvgl/lvgl/src/widgets/lv_img.c ****     _lv_img_buf_get_transformed_area(&a, w, h, transf_angle, (transf_zoom * img->zoom) >> 8, &img->
 268:lvgl/lvgl/src/widgets/lv_img.c ****     a.x1 += obj->coords.x1 - 1;
 269:lvgl/lvgl/src/widgets/lv_img.c ****     a.y1 += obj->coords.y1 - 1;
 270:lvgl/lvgl/src/widgets/lv_img.c ****     a.x2 += obj->coords.x1 + 1;
 271:lvgl/lvgl/src/widgets/lv_img.c ****     a.y2 += obj->coords.y1 + 1;
 272:lvgl/lvgl/src/widgets/lv_img.c ****     lv_obj_invalidate_area(obj, &a);
 273:lvgl/lvgl/src/widgets/lv_img.c **** 
 274:lvgl/lvgl/src/widgets/lv_img.c ****     img->zoom = zoom;
 275:lvgl/lvgl/src/widgets/lv_img.c ****     lv_obj_refresh_ext_draw_size(obj);
 276:lvgl/lvgl/src/widgets/lv_img.c **** 
 277:lvgl/lvgl/src/widgets/lv_img.c ****     _lv_img_buf_get_transformed_area(&a, w, h, transf_angle, (transf_zoom * img->zoom) >> 8, &img->
 278:lvgl/lvgl/src/widgets/lv_img.c ****     a.x1 += obj->coords.x1 - 1;
 279:lvgl/lvgl/src/widgets/lv_img.c ****     a.y1 += obj->coords.y1 - 1;
 280:lvgl/lvgl/src/widgets/lv_img.c ****     a.x2 += obj->coords.x1 + 1;
 281:lvgl/lvgl/src/widgets/lv_img.c ****     a.y2 += obj->coords.y1 + 1;
 282:lvgl/lvgl/src/widgets/lv_img.c ****     lv_obj_invalidate_area(obj, &a);
 283:lvgl/lvgl/src/widgets/lv_img.c **** }
 284:lvgl/lvgl/src/widgets/lv_img.c **** 
 285:lvgl/lvgl/src/widgets/lv_img.c **** void lv_img_set_antialias(lv_obj_t * obj, bool antialias)
 286:lvgl/lvgl/src/widgets/lv_img.c **** {
 287:lvgl/lvgl/src/widgets/lv_img.c ****    lv_img_t * img = (lv_img_t *)obj;
 288:lvgl/lvgl/src/widgets/lv_img.c ****     if(antialias == img->antialias) return;
 289:lvgl/lvgl/src/widgets/lv_img.c **** 
 290:lvgl/lvgl/src/widgets/lv_img.c ****     img->antialias = antialias;
 291:lvgl/lvgl/src/widgets/lv_img.c ****     lv_obj_invalidate(obj);
 292:lvgl/lvgl/src/widgets/lv_img.c **** }
 293:lvgl/lvgl/src/widgets/lv_img.c **** 
 294:lvgl/lvgl/src/widgets/lv_img.c **** void lv_img_set_size_mode(lv_obj_t * obj, lv_img_size_mode_t mode)
 295:lvgl/lvgl/src/widgets/lv_img.c **** {
 296:lvgl/lvgl/src/widgets/lv_img.c ****     LV_ASSERT_OBJ(obj, MY_CLASS);
 297:lvgl/lvgl/src/widgets/lv_img.c ****     lv_img_t * img = (lv_img_t *)obj;
 298:lvgl/lvgl/src/widgets/lv_img.c ****     if(mode == img->obj_size_mode) return;
 299:lvgl/lvgl/src/widgets/lv_img.c **** 
 300:lvgl/lvgl/src/widgets/lv_img.c ****     img->obj_size_mode = mode;
 301:lvgl/lvgl/src/widgets/lv_img.c ****     lv_obj_invalidate(obj);
 302:lvgl/lvgl/src/widgets/lv_img.c **** }
 303:lvgl/lvgl/src/widgets/lv_img.c **** 
 304:lvgl/lvgl/src/widgets/lv_img.c **** /*=====================
 305:lvgl/lvgl/src/widgets/lv_img.c ****  * Getter functions
 306:lvgl/lvgl/src/widgets/lv_img.c ****  *====================*/
 307:lvgl/lvgl/src/widgets/lv_img.c **** 
 308:lvgl/lvgl/src/widgets/lv_img.c **** const void * lv_img_get_src(lv_obj_t * obj)
 309:lvgl/lvgl/src/widgets/lv_img.c **** {
 310:lvgl/lvgl/src/widgets/lv_img.c ****     LV_ASSERT_OBJ(obj, MY_CLASS);
 311:lvgl/lvgl/src/widgets/lv_img.c **** 
 312:lvgl/lvgl/src/widgets/lv_img.c ****    lv_img_t * img = (lv_img_t *)obj;
 313:lvgl/lvgl/src/widgets/lv_img.c **** 
 314:lvgl/lvgl/src/widgets/lv_img.c ****     return img->src;
 315:lvgl/lvgl/src/widgets/lv_img.c **** }
ARM GAS  C:\Users\gx\AppData\Local\Temp\ccAHLVXI.s 			page 7


 316:lvgl/lvgl/src/widgets/lv_img.c **** 
 317:lvgl/lvgl/src/widgets/lv_img.c **** lv_coord_t lv_img_get_offset_x(lv_obj_t * obj)
 318:lvgl/lvgl/src/widgets/lv_img.c **** {
 319:lvgl/lvgl/src/widgets/lv_img.c ****     LV_ASSERT_OBJ(obj, MY_CLASS);
 320:lvgl/lvgl/src/widgets/lv_img.c **** 
 321:lvgl/lvgl/src/widgets/lv_img.c ****    lv_img_t * img = (lv_img_t *)obj;
 322:lvgl/lvgl/src/widgets/lv_img.c **** 
 323:lvgl/lvgl/src/widgets/lv_img.c ****     return img->offset.x;
 324:lvgl/lvgl/src/widgets/lv_img.c **** }
 325:lvgl/lvgl/src/widgets/lv_img.c **** 
 326:lvgl/lvgl/src/widgets/lv_img.c **** lv_coord_t lv_img_get_offset_y(lv_obj_t * obj)
 327:lvgl/lvgl/src/widgets/lv_img.c **** {
 328:lvgl/lvgl/src/widgets/lv_img.c ****     LV_ASSERT_OBJ(obj, MY_CLASS);
 329:lvgl/lvgl/src/widgets/lv_img.c **** 
 330:lvgl/lvgl/src/widgets/lv_img.c ****    lv_img_t * img = (lv_img_t *)obj;
 331:lvgl/lvgl/src/widgets/lv_img.c **** 
 332:lvgl/lvgl/src/widgets/lv_img.c ****     return img->offset.y;
 333:lvgl/lvgl/src/widgets/lv_img.c **** }
 334:lvgl/lvgl/src/widgets/lv_img.c **** 
 335:lvgl/lvgl/src/widgets/lv_img.c **** uint16_t lv_img_get_angle(lv_obj_t * obj)
 336:lvgl/lvgl/src/widgets/lv_img.c **** {
 337:lvgl/lvgl/src/widgets/lv_img.c ****     LV_ASSERT_OBJ(obj, MY_CLASS);
 338:lvgl/lvgl/src/widgets/lv_img.c **** 
 339:lvgl/lvgl/src/widgets/lv_img.c ****    lv_img_t * img = (lv_img_t *)obj;
 340:lvgl/lvgl/src/widgets/lv_img.c **** 
 341:lvgl/lvgl/src/widgets/lv_img.c ****     return img->angle;
 342:lvgl/lvgl/src/widgets/lv_img.c **** }
 343:lvgl/lvgl/src/widgets/lv_img.c **** 
 344:lvgl/lvgl/src/widgets/lv_img.c **** void lv_img_get_pivot(lv_obj_t * obj, lv_point_t * pivot)
 345:lvgl/lvgl/src/widgets/lv_img.c **** {
 346:lvgl/lvgl/src/widgets/lv_img.c ****     LV_ASSERT_OBJ(obj, MY_CLASS);
 347:lvgl/lvgl/src/widgets/lv_img.c **** 
 348:lvgl/lvgl/src/widgets/lv_img.c ****    lv_img_t * img = (lv_img_t *)obj;
 349:lvgl/lvgl/src/widgets/lv_img.c **** 
 350:lvgl/lvgl/src/widgets/lv_img.c ****     *pivot = img->pivot;
 351:lvgl/lvgl/src/widgets/lv_img.c **** }
 352:lvgl/lvgl/src/widgets/lv_img.c **** 
 353:lvgl/lvgl/src/widgets/lv_img.c **** uint16_t lv_img_get_zoom(lv_obj_t * obj)
 354:lvgl/lvgl/src/widgets/lv_img.c **** {
 355:lvgl/lvgl/src/widgets/lv_img.c ****     LV_ASSERT_OBJ(obj, MY_CLASS);
 356:lvgl/lvgl/src/widgets/lv_img.c **** 
 357:lvgl/lvgl/src/widgets/lv_img.c ****    lv_img_t * img = (lv_img_t *)obj;
 358:lvgl/lvgl/src/widgets/lv_img.c **** 
 359:lvgl/lvgl/src/widgets/lv_img.c ****     return img->zoom;
 360:lvgl/lvgl/src/widgets/lv_img.c **** }
 361:lvgl/lvgl/src/widgets/lv_img.c **** 
 362:lvgl/lvgl/src/widgets/lv_img.c **** bool lv_img_get_antialias(lv_obj_t * obj)
 363:lvgl/lvgl/src/widgets/lv_img.c **** {
 364:lvgl/lvgl/src/widgets/lv_img.c ****     LV_ASSERT_OBJ(obj, MY_CLASS);
 365:lvgl/lvgl/src/widgets/lv_img.c **** 
 366:lvgl/lvgl/src/widgets/lv_img.c ****    lv_img_t * img = (lv_img_t *)obj;
 367:lvgl/lvgl/src/widgets/lv_img.c **** 
 368:lvgl/lvgl/src/widgets/lv_img.c ****     return img->antialias ? true : false;
 369:lvgl/lvgl/src/widgets/lv_img.c **** }
 370:lvgl/lvgl/src/widgets/lv_img.c **** 
 371:lvgl/lvgl/src/widgets/lv_img.c **** lv_img_size_mode_t lv_img_get_size_mode(lv_obj_t * obj)
 372:lvgl/lvgl/src/widgets/lv_img.c **** {
ARM GAS  C:\Users\gx\AppData\Local\Temp\ccAHLVXI.s 			page 8


 373:lvgl/lvgl/src/widgets/lv_img.c ****     LV_ASSERT_OBJ(obj, MY_CLASS);
 374:lvgl/lvgl/src/widgets/lv_img.c ****     lv_img_t * img = (lv_img_t *)obj;
 375:lvgl/lvgl/src/widgets/lv_img.c ****     return img->obj_size_mode;
 376:lvgl/lvgl/src/widgets/lv_img.c **** }
 377:lvgl/lvgl/src/widgets/lv_img.c **** 
 378:lvgl/lvgl/src/widgets/lv_img.c **** /**********************
 379:lvgl/lvgl/src/widgets/lv_img.c ****  *   STATIC FUNCTIONS
 380:lvgl/lvgl/src/widgets/lv_img.c ****  **********************/
 381:lvgl/lvgl/src/widgets/lv_img.c **** 
 382:lvgl/lvgl/src/widgets/lv_img.c **** static void lv_img_constructor(const lv_obj_class_t * class_p, lv_obj_t * obj)
 383:lvgl/lvgl/src/widgets/lv_img.c **** {
 384:lvgl/lvgl/src/widgets/lv_img.c ****     LV_UNUSED(class_p);
 385:lvgl/lvgl/src/widgets/lv_img.c ****     LV_TRACE_OBJ_CREATE("begin");
 386:lvgl/lvgl/src/widgets/lv_img.c **** 
 387:lvgl/lvgl/src/widgets/lv_img.c ****     lv_img_t * img = (lv_img_t *)obj;
 388:lvgl/lvgl/src/widgets/lv_img.c **** 
 389:lvgl/lvgl/src/widgets/lv_img.c ****     img->src       = NULL;
 390:lvgl/lvgl/src/widgets/lv_img.c ****     img->src_type  = LV_IMG_SRC_UNKNOWN;
 391:lvgl/lvgl/src/widgets/lv_img.c ****     img->cf        = LV_IMG_CF_UNKNOWN;
 392:lvgl/lvgl/src/widgets/lv_img.c ****     img->w         = lv_obj_get_width(obj);
 393:lvgl/lvgl/src/widgets/lv_img.c ****     img->h         = lv_obj_get_height(obj);
 394:lvgl/lvgl/src/widgets/lv_img.c ****     img->angle = 0;
 395:lvgl/lvgl/src/widgets/lv_img.c ****     img->zoom = LV_IMG_ZOOM_NONE;
 396:lvgl/lvgl/src/widgets/lv_img.c ****     img->antialias = LV_COLOR_DEPTH > 8 ? 1 : 0;
 397:lvgl/lvgl/src/widgets/lv_img.c ****     img->offset.x  = 0;
 398:lvgl/lvgl/src/widgets/lv_img.c ****     img->offset.y  = 0;
 399:lvgl/lvgl/src/widgets/lv_img.c ****     img->pivot.x = 0;
 400:lvgl/lvgl/src/widgets/lv_img.c ****     img->pivot.y = 0;
 401:lvgl/lvgl/src/widgets/lv_img.c ****     img->obj_size_mode = LV_IMG_SIZE_MODE_VIRTUAL;
 402:lvgl/lvgl/src/widgets/lv_img.c **** 
 403:lvgl/lvgl/src/widgets/lv_img.c ****     lv_obj_clear_flag(obj, LV_OBJ_FLAG_CLICKABLE);
 404:lvgl/lvgl/src/widgets/lv_img.c ****     lv_obj_add_flag(obj, LV_OBJ_FLAG_ADV_HITTEST);
 405:lvgl/lvgl/src/widgets/lv_img.c **** 
 406:lvgl/lvgl/src/widgets/lv_img.c ****     LV_TRACE_OBJ_CREATE("finished");
 407:lvgl/lvgl/src/widgets/lv_img.c **** }
 408:lvgl/lvgl/src/widgets/lv_img.c **** 
 409:lvgl/lvgl/src/widgets/lv_img.c **** static void lv_img_destructor(const lv_obj_class_t * class_p, lv_obj_t * obj)
 410:lvgl/lvgl/src/widgets/lv_img.c **** {
 411:lvgl/lvgl/src/widgets/lv_img.c ****     LV_UNUSED(class_p);
 412:lvgl/lvgl/src/widgets/lv_img.c ****     lv_img_t * img = (lv_img_t *)obj;
 413:lvgl/lvgl/src/widgets/lv_img.c ****     if(img->src_type == LV_IMG_SRC_FILE || img->src_type == LV_IMG_SRC_SYMBOL) {
 414:lvgl/lvgl/src/widgets/lv_img.c ****         lv_mem_free((void*)img->src);
 415:lvgl/lvgl/src/widgets/lv_img.c ****         img->src      = NULL;
 416:lvgl/lvgl/src/widgets/lv_img.c ****         img->src_type = LV_IMG_SRC_UNKNOWN;
 417:lvgl/lvgl/src/widgets/lv_img.c ****     }
 418:lvgl/lvgl/src/widgets/lv_img.c **** }
 419:lvgl/lvgl/src/widgets/lv_img.c **** 
 420:lvgl/lvgl/src/widgets/lv_img.c **** static lv_point_t lv_img_get_tranformed_size(lv_obj_t* obj)
 421:lvgl/lvgl/src/widgets/lv_img.c **** {
  29              		.loc 1 421 1 view -0
  30              		.cfi_startproc
  31              		@ args = 0, pretend = 0, frame = 16
  32              		@ frame_needed = 0, uses_anonymous_args = 0
  33              		.loc 1 421 1 is_stmt 0 view .LVU1
  34 0000 30B5     		push	{r4, r5, lr}
  35              	.LCFI0:
  36              		.cfi_def_cfa_offset 12
ARM GAS  C:\Users\gx\AppData\Local\Temp\ccAHLVXI.s 			page 9


  37              		.cfi_offset 4, -12
  38              		.cfi_offset 5, -8
  39              		.cfi_offset 14, -4
  40 0002 87B0     		sub	sp, sp, #28
  41              	.LCFI1:
  42              		.cfi_def_cfa_offset 40
  43 0004 0546     		mov	r5, r0
 422:lvgl/lvgl/src/widgets/lv_img.c ****     lv_img_t * img = (lv_img_t *)obj;
  44              		.loc 1 422 5 is_stmt 1 view .LVU2
  45              	.LVL1:
 423:lvgl/lvgl/src/widgets/lv_img.c **** 
 424:lvgl/lvgl/src/widgets/lv_img.c ****     int32_t zoom_final = lv_obj_get_style_transform_zoom(obj, LV_PART_MAIN);
  46              		.loc 1 424 5 view .LVU3
  47              	.LBB83:
  48              	.LBI83:
  49              		.file 2 "lvgl/lvgl/src/widgets/../core/lv_obj_style_gen.h"
   1:lvgl/lvgl/src/widgets/../core/lv_obj_style_gen.h **** static inline lv_coord_t lv_obj_get_style_width(const struct _lv_obj_t * obj, uint32_t part)
   2:lvgl/lvgl/src/widgets/../core/lv_obj_style_gen.h **** {
   3:lvgl/lvgl/src/widgets/../core/lv_obj_style_gen.h ****     lv_style_value_t v = lv_obj_get_style_prop(obj, part, LV_STYLE_WIDTH);
   4:lvgl/lvgl/src/widgets/../core/lv_obj_style_gen.h ****     return (lv_coord_t)v.num;
   5:lvgl/lvgl/src/widgets/../core/lv_obj_style_gen.h **** }
   6:lvgl/lvgl/src/widgets/../core/lv_obj_style_gen.h **** 
   7:lvgl/lvgl/src/widgets/../core/lv_obj_style_gen.h **** static inline lv_coord_t lv_obj_get_style_min_width(const struct _lv_obj_t * obj, uint32_t part)
   8:lvgl/lvgl/src/widgets/../core/lv_obj_style_gen.h **** {
   9:lvgl/lvgl/src/widgets/../core/lv_obj_style_gen.h ****     lv_style_value_t v = lv_obj_get_style_prop(obj, part, LV_STYLE_MIN_WIDTH);
  10:lvgl/lvgl/src/widgets/../core/lv_obj_style_gen.h ****     return (lv_coord_t)v.num;
  11:lvgl/lvgl/src/widgets/../core/lv_obj_style_gen.h **** }
  12:lvgl/lvgl/src/widgets/../core/lv_obj_style_gen.h **** 
  13:lvgl/lvgl/src/widgets/../core/lv_obj_style_gen.h **** static inline lv_coord_t lv_obj_get_style_max_width(const struct _lv_obj_t * obj, uint32_t part)
  14:lvgl/lvgl/src/widgets/../core/lv_obj_style_gen.h **** {
  15:lvgl/lvgl/src/widgets/../core/lv_obj_style_gen.h ****     lv_style_value_t v = lv_obj_get_style_prop(obj, part, LV_STYLE_MAX_WIDTH);
  16:lvgl/lvgl/src/widgets/../core/lv_obj_style_gen.h ****     return (lv_coord_t)v.num;
  17:lvgl/lvgl/src/widgets/../core/lv_obj_style_gen.h **** }
  18:lvgl/lvgl/src/widgets/../core/lv_obj_style_gen.h **** 
  19:lvgl/lvgl/src/widgets/../core/lv_obj_style_gen.h **** static inline lv_coord_t lv_obj_get_style_height(const struct _lv_obj_t * obj, uint32_t part)
  20:lvgl/lvgl/src/widgets/../core/lv_obj_style_gen.h **** {
  21:lvgl/lvgl/src/widgets/../core/lv_obj_style_gen.h ****     lv_style_value_t v = lv_obj_get_style_prop(obj, part, LV_STYLE_HEIGHT);
  22:lvgl/lvgl/src/widgets/../core/lv_obj_style_gen.h ****     return (lv_coord_t)v.num;
  23:lvgl/lvgl/src/widgets/../core/lv_obj_style_gen.h **** }
  24:lvgl/lvgl/src/widgets/../core/lv_obj_style_gen.h **** 
  25:lvgl/lvgl/src/widgets/../core/lv_obj_style_gen.h **** static inline lv_coord_t lv_obj_get_style_min_height(const struct _lv_obj_t * obj, uint32_t part)
  26:lvgl/lvgl/src/widgets/../core/lv_obj_style_gen.h **** {
  27:lvgl/lvgl/src/widgets/../core/lv_obj_style_gen.h ****     lv_style_value_t v = lv_obj_get_style_prop(obj, part, LV_STYLE_MIN_HEIGHT);
  28:lvgl/lvgl/src/widgets/../core/lv_obj_style_gen.h ****     return (lv_coord_t)v.num;
  29:lvgl/lvgl/src/widgets/../core/lv_obj_style_gen.h **** }
  30:lvgl/lvgl/src/widgets/../core/lv_obj_style_gen.h **** 
  31:lvgl/lvgl/src/widgets/../core/lv_obj_style_gen.h **** static inline lv_coord_t lv_obj_get_style_max_height(const struct _lv_obj_t * obj, uint32_t part)
  32:lvgl/lvgl/src/widgets/../core/lv_obj_style_gen.h **** {
  33:lvgl/lvgl/src/widgets/../core/lv_obj_style_gen.h ****     lv_style_value_t v = lv_obj_get_style_prop(obj, part, LV_STYLE_MAX_HEIGHT);
  34:lvgl/lvgl/src/widgets/../core/lv_obj_style_gen.h ****     return (lv_coord_t)v.num;
  35:lvgl/lvgl/src/widgets/../core/lv_obj_style_gen.h **** }
  36:lvgl/lvgl/src/widgets/../core/lv_obj_style_gen.h **** 
  37:lvgl/lvgl/src/widgets/../core/lv_obj_style_gen.h **** static inline lv_coord_t lv_obj_get_style_x(const struct _lv_obj_t * obj, uint32_t part)
  38:lvgl/lvgl/src/widgets/../core/lv_obj_style_gen.h **** {
  39:lvgl/lvgl/src/widgets/../core/lv_obj_style_gen.h ****     lv_style_value_t v = lv_obj_get_style_prop(obj, part, LV_STYLE_X);
  40:lvgl/lvgl/src/widgets/../core/lv_obj_style_gen.h ****     return (lv_coord_t)v.num;
  41:lvgl/lvgl/src/widgets/../core/lv_obj_style_gen.h **** }
ARM GAS  C:\Users\gx\AppData\Local\Temp\ccAHLVXI.s 			page 10


  42:lvgl/lvgl/src/widgets/../core/lv_obj_style_gen.h **** 
  43:lvgl/lvgl/src/widgets/../core/lv_obj_style_gen.h **** static inline lv_coord_t lv_obj_get_style_y(const struct _lv_obj_t * obj, uint32_t part)
  44:lvgl/lvgl/src/widgets/../core/lv_obj_style_gen.h **** {
  45:lvgl/lvgl/src/widgets/../core/lv_obj_style_gen.h ****     lv_style_value_t v = lv_obj_get_style_prop(obj, part, LV_STYLE_Y);
  46:lvgl/lvgl/src/widgets/../core/lv_obj_style_gen.h ****     return (lv_coord_t)v.num;
  47:lvgl/lvgl/src/widgets/../core/lv_obj_style_gen.h **** }
  48:lvgl/lvgl/src/widgets/../core/lv_obj_style_gen.h **** 
  49:lvgl/lvgl/src/widgets/../core/lv_obj_style_gen.h **** static inline lv_align_t lv_obj_get_style_align(const struct _lv_obj_t * obj, uint32_t part)
  50:lvgl/lvgl/src/widgets/../core/lv_obj_style_gen.h **** {
  51:lvgl/lvgl/src/widgets/../core/lv_obj_style_gen.h ****     lv_style_value_t v = lv_obj_get_style_prop(obj, part, LV_STYLE_ALIGN);
  52:lvgl/lvgl/src/widgets/../core/lv_obj_style_gen.h ****     return (lv_align_t)v.num;
  53:lvgl/lvgl/src/widgets/../core/lv_obj_style_gen.h **** }
  54:lvgl/lvgl/src/widgets/../core/lv_obj_style_gen.h **** 
  55:lvgl/lvgl/src/widgets/../core/lv_obj_style_gen.h **** static inline lv_coord_t lv_obj_get_style_transform_width(const struct _lv_obj_t * obj, uint32_t pa
  56:lvgl/lvgl/src/widgets/../core/lv_obj_style_gen.h **** {
  57:lvgl/lvgl/src/widgets/../core/lv_obj_style_gen.h ****     lv_style_value_t v = lv_obj_get_style_prop(obj, part, LV_STYLE_TRANSFORM_WIDTH);
  58:lvgl/lvgl/src/widgets/../core/lv_obj_style_gen.h ****     return (lv_coord_t)v.num;
  59:lvgl/lvgl/src/widgets/../core/lv_obj_style_gen.h **** }
  60:lvgl/lvgl/src/widgets/../core/lv_obj_style_gen.h **** 
  61:lvgl/lvgl/src/widgets/../core/lv_obj_style_gen.h **** static inline lv_coord_t lv_obj_get_style_transform_height(const struct _lv_obj_t * obj, uint32_t p
  62:lvgl/lvgl/src/widgets/../core/lv_obj_style_gen.h **** {
  63:lvgl/lvgl/src/widgets/../core/lv_obj_style_gen.h ****     lv_style_value_t v = lv_obj_get_style_prop(obj, part, LV_STYLE_TRANSFORM_HEIGHT);
  64:lvgl/lvgl/src/widgets/../core/lv_obj_style_gen.h ****     return (lv_coord_t)v.num;
  65:lvgl/lvgl/src/widgets/../core/lv_obj_style_gen.h **** }
  66:lvgl/lvgl/src/widgets/../core/lv_obj_style_gen.h **** 
  67:lvgl/lvgl/src/widgets/../core/lv_obj_style_gen.h **** static inline lv_coord_t lv_obj_get_style_translate_x(const struct _lv_obj_t * obj, uint32_t part)
  68:lvgl/lvgl/src/widgets/../core/lv_obj_style_gen.h **** {
  69:lvgl/lvgl/src/widgets/../core/lv_obj_style_gen.h ****     lv_style_value_t v = lv_obj_get_style_prop(obj, part, LV_STYLE_TRANSLATE_X);
  70:lvgl/lvgl/src/widgets/../core/lv_obj_style_gen.h ****     return (lv_coord_t)v.num;
  71:lvgl/lvgl/src/widgets/../core/lv_obj_style_gen.h **** }
  72:lvgl/lvgl/src/widgets/../core/lv_obj_style_gen.h **** 
  73:lvgl/lvgl/src/widgets/../core/lv_obj_style_gen.h **** static inline lv_coord_t lv_obj_get_style_translate_y(const struct _lv_obj_t * obj, uint32_t part)
  74:lvgl/lvgl/src/widgets/../core/lv_obj_style_gen.h **** {
  75:lvgl/lvgl/src/widgets/../core/lv_obj_style_gen.h ****     lv_style_value_t v = lv_obj_get_style_prop(obj, part, LV_STYLE_TRANSLATE_Y);
  76:lvgl/lvgl/src/widgets/../core/lv_obj_style_gen.h ****     return (lv_coord_t)v.num;
  77:lvgl/lvgl/src/widgets/../core/lv_obj_style_gen.h **** }
  78:lvgl/lvgl/src/widgets/../core/lv_obj_style_gen.h **** 
  79:lvgl/lvgl/src/widgets/../core/lv_obj_style_gen.h **** static inline lv_coord_t lv_obj_get_style_transform_zoom(const struct _lv_obj_t * obj, uint32_t par
  50              		.loc 2 79 26 view .LVU4
  51              	.LBB84:
  80:lvgl/lvgl/src/widgets/../core/lv_obj_style_gen.h **** {
  81:lvgl/lvgl/src/widgets/../core/lv_obj_style_gen.h ****     lv_style_value_t v = lv_obj_get_style_prop(obj, part, LV_STYLE_TRANSFORM_ZOOM);
  52              		.loc 2 81 5 view .LVU5
  53              		.loc 2 81 26 is_stmt 0 view .LVU6
  54 0006 43F60E02 		movw	r2, #14350
  55 000a 0021     		movs	r1, #0
  56 000c FFF7FEFF 		bl	lv_obj_get_style_prop
  57              	.LVL2:
  82:lvgl/lvgl/src/widgets/../core/lv_obj_style_gen.h ****     return (lv_coord_t)v.num;
  58              		.loc 2 82 5 is_stmt 1 view .LVU7
  59              		.loc 2 82 12 is_stmt 0 view .LVU8
  60 0010 04B2     		sxth	r4, r0
  61              	.LVL3:
  62              		.loc 2 82 12 view .LVU9
  63              	.LBE84:
  64              	.LBE83:
 425:lvgl/lvgl/src/widgets/lv_img.c ****     zoom_final = (zoom_final * img->zoom) >> 8;
ARM GAS  C:\Users\gx\AppData\Local\Temp\ccAHLVXI.s 			page 11


  65              		.loc 1 425 5 is_stmt 1 view .LVU10
  66              		.loc 1 425 35 is_stmt 0 view .LVU11
  67 0012 E88E     		ldrh	r0, [r5, #54]
  68              		.loc 1 425 30 view .LVU12
  69 0014 04FB00F4 		mul	r4, r4, r0
  70              	.LVL4:
  71              		.loc 1 425 16 view .LVU13
  72 0018 2412     		asrs	r4, r4, #8
  73              	.LVL5:
 426:lvgl/lvgl/src/widgets/lv_img.c ****     int32_t angle_final = lv_obj_get_style_transform_angle(obj, LV_PART_MAIN);
  74              		.loc 1 426 5 is_stmt 1 view .LVU14
  75              	.LBB85:
  76              	.LBI85:
  83:lvgl/lvgl/src/widgets/../core/lv_obj_style_gen.h **** }
  84:lvgl/lvgl/src/widgets/../core/lv_obj_style_gen.h **** 
  85:lvgl/lvgl/src/widgets/../core/lv_obj_style_gen.h **** static inline lv_coord_t lv_obj_get_style_transform_angle(const struct _lv_obj_t * obj, uint32_t pa
  77              		.loc 2 85 26 view .LVU15
  78              	.LBB86:
  86:lvgl/lvgl/src/widgets/../core/lv_obj_style_gen.h **** {
  87:lvgl/lvgl/src/widgets/../core/lv_obj_style_gen.h ****     lv_style_value_t v = lv_obj_get_style_prop(obj, part, LV_STYLE_TRANSFORM_ANGLE);
  79              		.loc 2 87 5 view .LVU16
  80              		.loc 2 87 26 is_stmt 0 view .LVU17
  81 001a 43F60F02 		movw	r2, #14351
  82 001e 0021     		movs	r1, #0
  83 0020 2846     		mov	r0, r5
  84 0022 FFF7FEFF 		bl	lv_obj_get_style_prop
  85              	.LVL6:
  88:lvgl/lvgl/src/widgets/../core/lv_obj_style_gen.h ****     return (lv_coord_t)v.num;
  86              		.loc 2 88 5 is_stmt 1 view .LVU18
  87              		.loc 2 88 5 is_stmt 0 view .LVU19
  88              	.LBE86:
  89              	.LBE85:
 427:lvgl/lvgl/src/widgets/lv_img.c ****     angle_final += img->angle;
  90              		.loc 1 427 5 is_stmt 1 view .LVU20
  91              		.loc 1 427 23 is_stmt 0 view .LVU21
  92 0026 2B8E     		ldrh	r3, [r5, #48]
  93              		.loc 1 427 17 view .LVU22
  94 0028 03FA80F3 		sxtah	r3, r3, r0
  95              	.LVL7:
 428:lvgl/lvgl/src/widgets/lv_img.c **** 
 429:lvgl/lvgl/src/widgets/lv_img.c ****     lv_area_t area_transform;
  96              		.loc 1 429 5 is_stmt 1 view .LVU23
 430:lvgl/lvgl/src/widgets/lv_img.c ****     _lv_img_buf_get_transformed_area(&area_transform, img->w, img->h ,
  97              		.loc 1 430 5 view .LVU24
 431:lvgl/lvgl/src/widgets/lv_img.c ****             angle_final, zoom_final, &img->pivot);
  98              		.loc 1 431 38 is_stmt 0 view .LVU25
  99 002c 05F13202 		add	r2, r5, #50
 430:lvgl/lvgl/src/widgets/lv_img.c ****     _lv_img_buf_get_transformed_area(&area_transform, img->w, img->h ,
 100              		.loc 1 430 5 view .LVU26
 101 0030 0192     		str	r2, [sp, #4]
 102 0032 A4B2     		uxth	r4, r4
 103              	.LVL8:
 430:lvgl/lvgl/src/widgets/lv_img.c ****     _lv_img_buf_get_transformed_area(&area_transform, img->w, img->h ,
 104              		.loc 1 430 5 view .LVU27
 105 0034 0094     		str	r4, [sp]
 106 0036 1BB2     		sxth	r3, r3
 107              	.LVL9:
ARM GAS  C:\Users\gx\AppData\Local\Temp\ccAHLVXI.s 			page 12


 430:lvgl/lvgl/src/widgets/lv_img.c ****     _lv_img_buf_get_transformed_area(&area_transform, img->w, img->h ,
 108              		.loc 1 430 5 view .LVU28
 109 0038 B5F92E20 		ldrsh	r2, [r5, #46]
 110 003c B5F92C10 		ldrsh	r1, [r5, #44]
 111 0040 03A8     		add	r0, sp, #12
 430:lvgl/lvgl/src/widgets/lv_img.c ****     _lv_img_buf_get_transformed_area(&area_transform, img->w, img->h ,
 112              		.loc 1 430 5 view .LVU29
 113 0042 FFF7FEFF 		bl	_lv_img_buf_get_transformed_area
 114              	.LVL10:
 432:lvgl/lvgl/src/widgets/lv_img.c **** 
 433:lvgl/lvgl/src/widgets/lv_img.c ****     return (lv_point_t){lv_area_get_width(&area_transform), lv_area_get_height(&area_transform)};
 115              		.loc 1 433 5 is_stmt 1 view .LVU30
 116              	.LBB87:
 117              	.LBI87:
 118              		.file 3 "d:\\practise\\f407_disc\\lvgl\\lvgl\\src\\misc\\lv_area.h"
   1:d:\practise\f407_disc\lvgl\lvgl\src\misc\lv_area.h **** /**
   2:d:\practise\f407_disc\lvgl\lvgl\src\misc\lv_area.h ****  * @file lv_area.h
   3:d:\practise\f407_disc\lvgl\lvgl\src\misc\lv_area.h ****  *
   4:d:\practise\f407_disc\lvgl\lvgl\src\misc\lv_area.h ****  */
   5:d:\practise\f407_disc\lvgl\lvgl\src\misc\lv_area.h **** 
   6:d:\practise\f407_disc\lvgl\lvgl\src\misc\lv_area.h **** #ifndef LV_AREA_H
   7:d:\practise\f407_disc\lvgl\lvgl\src\misc\lv_area.h **** #define LV_AREA_H
   8:d:\practise\f407_disc\lvgl\lvgl\src\misc\lv_area.h **** 
   9:d:\practise\f407_disc\lvgl\lvgl\src\misc\lv_area.h **** #ifdef __cplusplus
  10:d:\practise\f407_disc\lvgl\lvgl\src\misc\lv_area.h **** extern "C" {
  11:d:\practise\f407_disc\lvgl\lvgl\src\misc\lv_area.h **** #endif
  12:d:\practise\f407_disc\lvgl\lvgl\src\misc\lv_area.h **** 
  13:d:\practise\f407_disc\lvgl\lvgl\src\misc\lv_area.h **** /*********************
  14:d:\practise\f407_disc\lvgl\lvgl\src\misc\lv_area.h ****  *      INCLUDES
  15:d:\practise\f407_disc\lvgl\lvgl\src\misc\lv_area.h ****  *********************/
  16:d:\practise\f407_disc\lvgl\lvgl\src\misc\lv_area.h **** #include "../lv_conf_internal.h"
  17:d:\practise\f407_disc\lvgl\lvgl\src\misc\lv_area.h **** #include <string.h>
  18:d:\practise\f407_disc\lvgl\lvgl\src\misc\lv_area.h **** #include <stdbool.h>
  19:d:\practise\f407_disc\lvgl\lvgl\src\misc\lv_area.h **** #include <stdint.h>
  20:d:\practise\f407_disc\lvgl\lvgl\src\misc\lv_area.h **** 
  21:d:\practise\f407_disc\lvgl\lvgl\src\misc\lv_area.h **** /*********************
  22:d:\practise\f407_disc\lvgl\lvgl\src\misc\lv_area.h ****  *      DEFINES
  23:d:\practise\f407_disc\lvgl\lvgl\src\misc\lv_area.h ****  *********************/
  24:d:\practise\f407_disc\lvgl\lvgl\src\misc\lv_area.h **** 
  25:d:\practise\f407_disc\lvgl\lvgl\src\misc\lv_area.h **** #define _LV_COORD_MAX_REDUCE    8192
  26:d:\practise\f407_disc\lvgl\lvgl\src\misc\lv_area.h **** 
  27:d:\practise\f407_disc\lvgl\lvgl\src\misc\lv_area.h **** #if LV_USE_LARGE_COORD
  28:d:\practise\f407_disc\lvgl\lvgl\src\misc\lv_area.h **** typedef int32_t lv_coord_t;
  29:d:\practise\f407_disc\lvgl\lvgl\src\misc\lv_area.h **** #else
  30:d:\practise\f407_disc\lvgl\lvgl\src\misc\lv_area.h **** typedef int16_t lv_coord_t;
  31:d:\practise\f407_disc\lvgl\lvgl\src\misc\lv_area.h **** #endif
  32:d:\practise\f407_disc\lvgl\lvgl\src\misc\lv_area.h **** 
  33:d:\practise\f407_disc\lvgl\lvgl\src\misc\lv_area.h **** /*To allow some special values in the end reduce the max value*/
  34:d:\practise\f407_disc\lvgl\lvgl\src\misc\lv_area.h **** #define LV_COORD_MAX ((lv_coord_t)((uint32_t)((uint32_t)1 << (8 * sizeof(lv_coord_t) - 1)) - _LV_CO
  35:d:\practise\f407_disc\lvgl\lvgl\src\misc\lv_area.h **** #define LV_COORD_MIN (-LV_COORD_MAX)
  36:d:\practise\f407_disc\lvgl\lvgl\src\misc\lv_area.h **** 
  37:d:\practise\f407_disc\lvgl\lvgl\src\misc\lv_area.h **** LV_EXPORT_CONST_INT(LV_COORD_MAX);
  38:d:\practise\f407_disc\lvgl\lvgl\src\misc\lv_area.h **** LV_EXPORT_CONST_INT(LV_COORD_MIN);
  39:d:\practise\f407_disc\lvgl\lvgl\src\misc\lv_area.h **** 
  40:d:\practise\f407_disc\lvgl\lvgl\src\misc\lv_area.h **** /**********************
  41:d:\practise\f407_disc\lvgl\lvgl\src\misc\lv_area.h ****  *      TYPEDEFS
  42:d:\practise\f407_disc\lvgl\lvgl\src\misc\lv_area.h ****  **********************/
ARM GAS  C:\Users\gx\AppData\Local\Temp\ccAHLVXI.s 			page 13


  43:d:\practise\f407_disc\lvgl\lvgl\src\misc\lv_area.h **** 
  44:d:\practise\f407_disc\lvgl\lvgl\src\misc\lv_area.h **** /**
  45:d:\practise\f407_disc\lvgl\lvgl\src\misc\lv_area.h ****  * Represents a point on the screen.
  46:d:\practise\f407_disc\lvgl\lvgl\src\misc\lv_area.h ****  */
  47:d:\practise\f407_disc\lvgl\lvgl\src\misc\lv_area.h **** typedef struct {
  48:d:\practise\f407_disc\lvgl\lvgl\src\misc\lv_area.h ****     lv_coord_t x;
  49:d:\practise\f407_disc\lvgl\lvgl\src\misc\lv_area.h ****     lv_coord_t y;
  50:d:\practise\f407_disc\lvgl\lvgl\src\misc\lv_area.h **** } lv_point_t;
  51:d:\practise\f407_disc\lvgl\lvgl\src\misc\lv_area.h **** 
  52:d:\practise\f407_disc\lvgl\lvgl\src\misc\lv_area.h **** /** Represents an area of the screen.*/
  53:d:\practise\f407_disc\lvgl\lvgl\src\misc\lv_area.h **** typedef struct {
  54:d:\practise\f407_disc\lvgl\lvgl\src\misc\lv_area.h ****     lv_coord_t x1;
  55:d:\practise\f407_disc\lvgl\lvgl\src\misc\lv_area.h ****     lv_coord_t y1;
  56:d:\practise\f407_disc\lvgl\lvgl\src\misc\lv_area.h ****     lv_coord_t x2;
  57:d:\practise\f407_disc\lvgl\lvgl\src\misc\lv_area.h ****     lv_coord_t y2;
  58:d:\practise\f407_disc\lvgl\lvgl\src\misc\lv_area.h **** } lv_area_t;
  59:d:\practise\f407_disc\lvgl\lvgl\src\misc\lv_area.h **** 
  60:d:\practise\f407_disc\lvgl\lvgl\src\misc\lv_area.h **** /** Alignments*/
  61:d:\practise\f407_disc\lvgl\lvgl\src\misc\lv_area.h **** enum {
  62:d:\practise\f407_disc\lvgl\lvgl\src\misc\lv_area.h ****     LV_ALIGN_DEFAULT = 0,
  63:d:\practise\f407_disc\lvgl\lvgl\src\misc\lv_area.h ****     LV_ALIGN_TOP_LEFT,
  64:d:\practise\f407_disc\lvgl\lvgl\src\misc\lv_area.h ****     LV_ALIGN_TOP_MID,
  65:d:\practise\f407_disc\lvgl\lvgl\src\misc\lv_area.h ****     LV_ALIGN_TOP_RIGHT,
  66:d:\practise\f407_disc\lvgl\lvgl\src\misc\lv_area.h ****     LV_ALIGN_BOTTOM_LEFT,
  67:d:\practise\f407_disc\lvgl\lvgl\src\misc\lv_area.h ****     LV_ALIGN_BOTTOM_MID,
  68:d:\practise\f407_disc\lvgl\lvgl\src\misc\lv_area.h ****     LV_ALIGN_BOTTOM_RIGHT,
  69:d:\practise\f407_disc\lvgl\lvgl\src\misc\lv_area.h ****     LV_ALIGN_LEFT_MID,
  70:d:\practise\f407_disc\lvgl\lvgl\src\misc\lv_area.h ****     LV_ALIGN_RIGHT_MID,
  71:d:\practise\f407_disc\lvgl\lvgl\src\misc\lv_area.h ****     LV_ALIGN_CENTER,
  72:d:\practise\f407_disc\lvgl\lvgl\src\misc\lv_area.h **** 
  73:d:\practise\f407_disc\lvgl\lvgl\src\misc\lv_area.h ****     LV_ALIGN_OUT_TOP_LEFT,
  74:d:\practise\f407_disc\lvgl\lvgl\src\misc\lv_area.h ****     LV_ALIGN_OUT_TOP_MID,
  75:d:\practise\f407_disc\lvgl\lvgl\src\misc\lv_area.h ****     LV_ALIGN_OUT_TOP_RIGHT,
  76:d:\practise\f407_disc\lvgl\lvgl\src\misc\lv_area.h ****     LV_ALIGN_OUT_BOTTOM_LEFT,
  77:d:\practise\f407_disc\lvgl\lvgl\src\misc\lv_area.h ****     LV_ALIGN_OUT_BOTTOM_MID,
  78:d:\practise\f407_disc\lvgl\lvgl\src\misc\lv_area.h ****     LV_ALIGN_OUT_BOTTOM_RIGHT,
  79:d:\practise\f407_disc\lvgl\lvgl\src\misc\lv_area.h ****     LV_ALIGN_OUT_LEFT_TOP,
  80:d:\practise\f407_disc\lvgl\lvgl\src\misc\lv_area.h ****     LV_ALIGN_OUT_LEFT_MID,
  81:d:\practise\f407_disc\lvgl\lvgl\src\misc\lv_area.h ****     LV_ALIGN_OUT_LEFT_BOTTOM,
  82:d:\practise\f407_disc\lvgl\lvgl\src\misc\lv_area.h ****     LV_ALIGN_OUT_RIGHT_TOP,
  83:d:\practise\f407_disc\lvgl\lvgl\src\misc\lv_area.h ****     LV_ALIGN_OUT_RIGHT_MID,
  84:d:\practise\f407_disc\lvgl\lvgl\src\misc\lv_area.h ****     LV_ALIGN_OUT_RIGHT_BOTTOM,
  85:d:\practise\f407_disc\lvgl\lvgl\src\misc\lv_area.h **** };
  86:d:\practise\f407_disc\lvgl\lvgl\src\misc\lv_area.h **** typedef uint8_t lv_align_t;
  87:d:\practise\f407_disc\lvgl\lvgl\src\misc\lv_area.h **** 
  88:d:\practise\f407_disc\lvgl\lvgl\src\misc\lv_area.h **** enum {
  89:d:\practise\f407_disc\lvgl\lvgl\src\misc\lv_area.h ****     LV_DIR_NONE     = 0x00,
  90:d:\practise\f407_disc\lvgl\lvgl\src\misc\lv_area.h ****     LV_DIR_LEFT     = (1 << 0),
  91:d:\practise\f407_disc\lvgl\lvgl\src\misc\lv_area.h ****     LV_DIR_RIGHT    = (1 << 1),
  92:d:\practise\f407_disc\lvgl\lvgl\src\misc\lv_area.h ****     LV_DIR_TOP      = (1 << 2),
  93:d:\practise\f407_disc\lvgl\lvgl\src\misc\lv_area.h ****     LV_DIR_BOTTOM   = (1 << 3),
  94:d:\practise\f407_disc\lvgl\lvgl\src\misc\lv_area.h ****     LV_DIR_HOR      = LV_DIR_LEFT | LV_DIR_RIGHT,
  95:d:\practise\f407_disc\lvgl\lvgl\src\misc\lv_area.h ****     LV_DIR_VER      = LV_DIR_TOP | LV_DIR_BOTTOM,
  96:d:\practise\f407_disc\lvgl\lvgl\src\misc\lv_area.h ****     LV_DIR_ALL      = LV_DIR_HOR | LV_DIR_VER,
  97:d:\practise\f407_disc\lvgl\lvgl\src\misc\lv_area.h **** };
  98:d:\practise\f407_disc\lvgl\lvgl\src\misc\lv_area.h **** 
  99:d:\practise\f407_disc\lvgl\lvgl\src\misc\lv_area.h **** typedef uint8_t lv_dir_t;
ARM GAS  C:\Users\gx\AppData\Local\Temp\ccAHLVXI.s 			page 14


 100:d:\practise\f407_disc\lvgl\lvgl\src\misc\lv_area.h **** 
 101:d:\practise\f407_disc\lvgl\lvgl\src\misc\lv_area.h **** /**********************
 102:d:\practise\f407_disc\lvgl\lvgl\src\misc\lv_area.h ****  * GLOBAL PROTOTYPES
 103:d:\practise\f407_disc\lvgl\lvgl\src\misc\lv_area.h ****  **********************/
 104:d:\practise\f407_disc\lvgl\lvgl\src\misc\lv_area.h **** 
 105:d:\practise\f407_disc\lvgl\lvgl\src\misc\lv_area.h **** /**
 106:d:\practise\f407_disc\lvgl\lvgl\src\misc\lv_area.h ****  * Initialize an area
 107:d:\practise\f407_disc\lvgl\lvgl\src\misc\lv_area.h ****  * @param area_p pointer to an area
 108:d:\practise\f407_disc\lvgl\lvgl\src\misc\lv_area.h ****  * @param x1 left coordinate of the area
 109:d:\practise\f407_disc\lvgl\lvgl\src\misc\lv_area.h ****  * @param y1 top coordinate of the area
 110:d:\practise\f407_disc\lvgl\lvgl\src\misc\lv_area.h ****  * @param x2 right coordinate of the area
 111:d:\practise\f407_disc\lvgl\lvgl\src\misc\lv_area.h ****  * @param y2 bottom coordinate of the area
 112:d:\practise\f407_disc\lvgl\lvgl\src\misc\lv_area.h ****  */
 113:d:\practise\f407_disc\lvgl\lvgl\src\misc\lv_area.h **** void lv_area_set(lv_area_t * area_p, lv_coord_t x1, lv_coord_t y1, lv_coord_t x2, lv_coord_t y2);
 114:d:\practise\f407_disc\lvgl\lvgl\src\misc\lv_area.h **** 
 115:d:\practise\f407_disc\lvgl\lvgl\src\misc\lv_area.h **** /**
 116:d:\practise\f407_disc\lvgl\lvgl\src\misc\lv_area.h ****  * Copy an area
 117:d:\practise\f407_disc\lvgl\lvgl\src\misc\lv_area.h ****  * @param dest pointer to the destination area
 118:d:\practise\f407_disc\lvgl\lvgl\src\misc\lv_area.h ****  * @param src pointer to the source area
 119:d:\practise\f407_disc\lvgl\lvgl\src\misc\lv_area.h ****  */
 120:d:\practise\f407_disc\lvgl\lvgl\src\misc\lv_area.h **** inline static void lv_area_copy(lv_area_t * dest, const lv_area_t * src)
 121:d:\practise\f407_disc\lvgl\lvgl\src\misc\lv_area.h **** {
 122:d:\practise\f407_disc\lvgl\lvgl\src\misc\lv_area.h ****     dest->x1 = src->x1;
 123:d:\practise\f407_disc\lvgl\lvgl\src\misc\lv_area.h ****     dest->y1 = src->y1;
 124:d:\practise\f407_disc\lvgl\lvgl\src\misc\lv_area.h ****     dest->x2 = src->x2;
 125:d:\practise\f407_disc\lvgl\lvgl\src\misc\lv_area.h ****     dest->y2 = src->y2;
 126:d:\practise\f407_disc\lvgl\lvgl\src\misc\lv_area.h **** }
 127:d:\practise\f407_disc\lvgl\lvgl\src\misc\lv_area.h **** 
 128:d:\practise\f407_disc\lvgl\lvgl\src\misc\lv_area.h **** /**
 129:d:\practise\f407_disc\lvgl\lvgl\src\misc\lv_area.h ****  * Get the width of an area
 130:d:\practise\f407_disc\lvgl\lvgl\src\misc\lv_area.h ****  * @param area_p pointer to an area
 131:d:\practise\f407_disc\lvgl\lvgl\src\misc\lv_area.h ****  * @return the width of the area (if x1 == x2 -> width = 1)
 132:d:\practise\f407_disc\lvgl\lvgl\src\misc\lv_area.h ****  */
 133:d:\practise\f407_disc\lvgl\lvgl\src\misc\lv_area.h **** static inline lv_coord_t lv_area_get_width(const lv_area_t * area_p)
 119              		.loc 3 133 26 view .LVU31
 120              	.LBB88:
 134:d:\practise\f407_disc\lvgl\lvgl\src\misc\lv_area.h **** {
 135:d:\practise\f407_disc\lvgl\lvgl\src\misc\lv_area.h ****     return (lv_coord_t)(area_p->x2 - area_p->x1 + 1);
 121              		.loc 3 135 5 view .LVU32
 122              		.loc 3 135 31 is_stmt 0 view .LVU33
 123 0046 BDF81020 		ldrh	r2, [sp, #16]
 124              		.loc 3 135 44 view .LVU34
 125 004a BDF80C30 		ldrh	r3, [sp, #12]
 126              		.loc 3 135 36 view .LVU35
 127 004e D21A     		subs	r2, r2, r3
 128 0050 92B2     		uxth	r2, r2
 129              	.LVL11:
 130              		.loc 3 135 36 view .LVU36
 131              	.LBE88:
 132              	.LBE87:
 133              	.LBB89:
 134              	.LBI89:
 136:d:\practise\f407_disc\lvgl\lvgl\src\misc\lv_area.h **** }
 137:d:\practise\f407_disc\lvgl\lvgl\src\misc\lv_area.h **** 
 138:d:\practise\f407_disc\lvgl\lvgl\src\misc\lv_area.h **** /**
 139:d:\practise\f407_disc\lvgl\lvgl\src\misc\lv_area.h ****  * Get the height of an area
 140:d:\practise\f407_disc\lvgl\lvgl\src\misc\lv_area.h ****  * @param area_p pointer to an area
ARM GAS  C:\Users\gx\AppData\Local\Temp\ccAHLVXI.s 			page 15


 141:d:\practise\f407_disc\lvgl\lvgl\src\misc\lv_area.h ****  * @return the height of the area (if y1 == y2 -> height = 1)
 142:d:\practise\f407_disc\lvgl\lvgl\src\misc\lv_area.h ****  */
 143:d:\practise\f407_disc\lvgl\lvgl\src\misc\lv_area.h **** static inline lv_coord_t lv_area_get_height(const lv_area_t * area_p)
 135              		.loc 3 143 26 is_stmt 1 view .LVU37
 136              	.LBB90:
 144:d:\practise\f407_disc\lvgl\lvgl\src\misc\lv_area.h **** {
 145:d:\practise\f407_disc\lvgl\lvgl\src\misc\lv_area.h ****     return (lv_coord_t)(area_p->y2 - area_p->y1 + 1);
 137              		.loc 3 145 5 view .LVU38
 138              		.loc 3 145 31 is_stmt 0 view .LVU39
 139 0052 BDF81230 		ldrh	r3, [sp, #18]
 140              		.loc 3 145 44 view .LVU40
 141 0056 BDF80E10 		ldrh	r1, [sp, #14]
 142              		.loc 3 145 36 view .LVU41
 143 005a 5B1A     		subs	r3, r3, r1
 144 005c 9BB2     		uxth	r3, r3
 145              	.LVL12:
 146              		.loc 3 145 36 view .LVU42
 147              	.LBE90:
 148              	.LBE89:
 149              		.loc 1 433 12 view .LVU43
 150 005e 0132     		adds	r2, r2, #1
 151 0060 0133     		adds	r3, r3, #1
 152 0062 0020     		movs	r0, #0
 153 0064 92B2     		uxth	r2, r2
 154 0066 62F30F00 		bfi	r0, r2, #0, #16
 155 006a 9BB2     		uxth	r3, r3
 156 006c 63F31F40 		bfi	r0, r3, #16, #16
 434:lvgl/lvgl/src/widgets/lv_img.c **** }
 157              		.loc 1 434 1 view .LVU44
 158 0070 07B0     		add	sp, sp, #28
 159              	.LCFI2:
 160              		.cfi_def_cfa_offset 12
 161              		@ sp needed
 162 0072 30BD     		pop	{r4, r5, pc}
 163              		.loc 1 434 1 view .LVU45
 164              		.cfi_endproc
 165              	.LFE171:
 167              		.section	.rodata.draw_img.str1.4,"aMS",%progbits,1
 168              		.align	2
 169              	.LC0:
 170 0000 6C76676C 		.ascii	"lvgl/lvgl/src/widgets/lv_img.c\000"
 170      2F6C7667 
 170      6C2F7372 
 170      632F7769 
 170      64676574 
 171 001f 00       		.align	2
 172              	.LC1:
 173 0020 64726177 		.ascii	"draw_img: image source type is unknown\000"
 173      5F696D67 
 173      3A20696D 
 173      61676520 
 173      736F7572 
 174              		.section	.text.draw_img,"ax",%progbits
 175              		.align	1
 176              		.syntax unified
 177              		.thumb
 178              		.thumb_func
ARM GAS  C:\Users\gx\AppData\Local\Temp\ccAHLVXI.s 			page 16


 179              		.fpu fpv4-sp-d16
 181              	draw_img:
 182              	.LVL13:
 183              	.LFB173:
 435:lvgl/lvgl/src/widgets/lv_img.c **** 
 436:lvgl/lvgl/src/widgets/lv_img.c **** static void lv_img_event(const lv_obj_class_t * class_p, lv_event_t * e)
 437:lvgl/lvgl/src/widgets/lv_img.c **** {
 438:lvgl/lvgl/src/widgets/lv_img.c ****     LV_UNUSED(class_p);
 439:lvgl/lvgl/src/widgets/lv_img.c **** 
 440:lvgl/lvgl/src/widgets/lv_img.c ****     lv_event_code_t code = lv_event_get_code(e);
 441:lvgl/lvgl/src/widgets/lv_img.c **** 
 442:lvgl/lvgl/src/widgets/lv_img.c ****     /*Ancestor events will be called during drawing*/
 443:lvgl/lvgl/src/widgets/lv_img.c ****     if(code != LV_EVENT_DRAW_MAIN && code != LV_EVENT_DRAW_POST) {
 444:lvgl/lvgl/src/widgets/lv_img.c ****         /*Call the ancestor's event handler*/
 445:lvgl/lvgl/src/widgets/lv_img.c ****         lv_res_t res = lv_obj_event_base(MY_CLASS, e);
 446:lvgl/lvgl/src/widgets/lv_img.c ****         if(res != LV_RES_OK) return;
 447:lvgl/lvgl/src/widgets/lv_img.c ****     }
 448:lvgl/lvgl/src/widgets/lv_img.c **** 
 449:lvgl/lvgl/src/widgets/lv_img.c ****     lv_obj_t * obj = lv_event_get_target(e);
 450:lvgl/lvgl/src/widgets/lv_img.c ****     lv_img_t * img = (lv_img_t *)obj;
 451:lvgl/lvgl/src/widgets/lv_img.c **** 
 452:lvgl/lvgl/src/widgets/lv_img.c ****     if(code == LV_EVENT_STYLE_CHANGED) {
 453:lvgl/lvgl/src/widgets/lv_img.c ****         /*Refresh the file name to refresh the symbol text size*/
 454:lvgl/lvgl/src/widgets/lv_img.c ****         if(img->src_type == LV_IMG_SRC_SYMBOL) {
 455:lvgl/lvgl/src/widgets/lv_img.c ****             lv_img_set_src(obj, img->src);
 456:lvgl/lvgl/src/widgets/lv_img.c ****         } else {
 457:lvgl/lvgl/src/widgets/lv_img.c ****             /*With transformation it might change*/
 458:lvgl/lvgl/src/widgets/lv_img.c ****             lv_obj_refresh_ext_draw_size(obj);
 459:lvgl/lvgl/src/widgets/lv_img.c ****         }
 460:lvgl/lvgl/src/widgets/lv_img.c ****     }
 461:lvgl/lvgl/src/widgets/lv_img.c ****     else if(code == LV_EVENT_REFR_EXT_DRAW_SIZE) {
 462:lvgl/lvgl/src/widgets/lv_img.c **** 
 463:lvgl/lvgl/src/widgets/lv_img.c ****         lv_coord_t * s = lv_event_get_param(e);
 464:lvgl/lvgl/src/widgets/lv_img.c ****         lv_coord_t transf_zoom = lv_obj_get_style_transform_zoom(obj, LV_PART_MAIN);
 465:lvgl/lvgl/src/widgets/lv_img.c ****         transf_zoom = (transf_zoom * img->zoom) >> 8;
 466:lvgl/lvgl/src/widgets/lv_img.c **** 
 467:lvgl/lvgl/src/widgets/lv_img.c ****         lv_coord_t transf_angle = lv_obj_get_style_transform_angle(obj, LV_PART_MAIN);
 468:lvgl/lvgl/src/widgets/lv_img.c ****         transf_angle += img->angle;
 469:lvgl/lvgl/src/widgets/lv_img.c **** 
 470:lvgl/lvgl/src/widgets/lv_img.c ****         /*If the image has angle provide enough room for the rotated corners*/
 471:lvgl/lvgl/src/widgets/lv_img.c ****         if(transf_angle || transf_zoom != LV_IMG_ZOOM_NONE) {
 472:lvgl/lvgl/src/widgets/lv_img.c ****             lv_area_t a;
 473:lvgl/lvgl/src/widgets/lv_img.c ****             lv_coord_t w = lv_obj_get_width(obj);
 474:lvgl/lvgl/src/widgets/lv_img.c ****             lv_coord_t h = lv_obj_get_height(obj);
 475:lvgl/lvgl/src/widgets/lv_img.c ****             _lv_img_buf_get_transformed_area(&a, w, h, transf_angle, transf_zoom, &img->pivot);
 476:lvgl/lvgl/src/widgets/lv_img.c ****             lv_coord_t pad_ori = *s;
 477:lvgl/lvgl/src/widgets/lv_img.c ****             *s = LV_MAX(*s, pad_ori - a.x1);
 478:lvgl/lvgl/src/widgets/lv_img.c ****             *s = LV_MAX(*s, pad_ori - a.y1);
 479:lvgl/lvgl/src/widgets/lv_img.c ****             *s = LV_MAX(*s, pad_ori + a.x2 - w);
 480:lvgl/lvgl/src/widgets/lv_img.c ****             *s = LV_MAX(*s, pad_ori + a.y2 - h);
 481:lvgl/lvgl/src/widgets/lv_img.c ****         }
 482:lvgl/lvgl/src/widgets/lv_img.c ****     }
 483:lvgl/lvgl/src/widgets/lv_img.c ****     else if(code == LV_EVENT_HIT_TEST) {
 484:lvgl/lvgl/src/widgets/lv_img.c ****         lv_hit_test_info_t * info = lv_event_get_param(e);
 485:lvgl/lvgl/src/widgets/lv_img.c ****         lv_coord_t zoom = lv_obj_get_style_transform_zoom(obj, LV_PART_MAIN);
 486:lvgl/lvgl/src/widgets/lv_img.c ****         zoom = (zoom * img->zoom) >> 8;
 487:lvgl/lvgl/src/widgets/lv_img.c **** 
ARM GAS  C:\Users\gx\AppData\Local\Temp\ccAHLVXI.s 			page 17


 488:lvgl/lvgl/src/widgets/lv_img.c ****         lv_coord_t angle = lv_obj_get_style_transform_angle(obj, LV_PART_MAIN);
 489:lvgl/lvgl/src/widgets/lv_img.c ****         angle += img->angle;
 490:lvgl/lvgl/src/widgets/lv_img.c **** 
 491:lvgl/lvgl/src/widgets/lv_img.c ****         /*If the object is exactly image sized (not cropped, not mosaic) and transformed
 492:lvgl/lvgl/src/widgets/lv_img.c ****          *perform hit test on it's transformed area*/
 493:lvgl/lvgl/src/widgets/lv_img.c ****         if(img->w == lv_obj_get_width(obj) && img->h == lv_obj_get_height(obj) &&
 494:lvgl/lvgl/src/widgets/lv_img.c ****                 (zoom != LV_IMG_ZOOM_NONE || angle != 0 || img->pivot.x != img->w / 2 || img->pivot
 495:lvgl/lvgl/src/widgets/lv_img.c **** 
 496:lvgl/lvgl/src/widgets/lv_img.c ****             lv_coord_t w = lv_obj_get_width(obj);
 497:lvgl/lvgl/src/widgets/lv_img.c ****             lv_coord_t h = lv_obj_get_height(obj);
 498:lvgl/lvgl/src/widgets/lv_img.c ****             lv_area_t coords;
 499:lvgl/lvgl/src/widgets/lv_img.c ****             _lv_img_buf_get_transformed_area(&coords, w, h, angle, zoom, &img->pivot);
 500:lvgl/lvgl/src/widgets/lv_img.c ****             coords.x1 += obj->coords.x1;
 501:lvgl/lvgl/src/widgets/lv_img.c ****             coords.y1 += obj->coords.y1;
 502:lvgl/lvgl/src/widgets/lv_img.c ****             coords.x2 += obj->coords.x1;
 503:lvgl/lvgl/src/widgets/lv_img.c ****             coords.y2 += obj->coords.y1;
 504:lvgl/lvgl/src/widgets/lv_img.c **** 
 505:lvgl/lvgl/src/widgets/lv_img.c ****             info->res = _lv_area_is_point_on(&coords, info->point, 0);
 506:lvgl/lvgl/src/widgets/lv_img.c ****         }
 507:lvgl/lvgl/src/widgets/lv_img.c ****         else {
 508:lvgl/lvgl/src/widgets/lv_img.c ****             lv_area_t a;
 509:lvgl/lvgl/src/widgets/lv_img.c ****             lv_obj_get_click_area(obj, &a);
 510:lvgl/lvgl/src/widgets/lv_img.c ****             info->res = _lv_area_is_point_on(&a, info->point, 0);
 511:lvgl/lvgl/src/widgets/lv_img.c ****         }
 512:lvgl/lvgl/src/widgets/lv_img.c ****     }
 513:lvgl/lvgl/src/widgets/lv_img.c ****     else if(code == LV_EVENT_GET_SELF_SIZE) {
 514:lvgl/lvgl/src/widgets/lv_img.c ****         lv_point_t * p = lv_event_get_param(e);
 515:lvgl/lvgl/src/widgets/lv_img.c ****         if (img->obj_size_mode == LV_IMG_SIZE_MODE_REAL){
 516:lvgl/lvgl/src/widgets/lv_img.c ****             *p = lv_img_get_tranformed_size(obj);
 517:lvgl/lvgl/src/widgets/lv_img.c ****         }
 518:lvgl/lvgl/src/widgets/lv_img.c ****         else {
 519:lvgl/lvgl/src/widgets/lv_img.c ****             p->x = img->w;
 520:lvgl/lvgl/src/widgets/lv_img.c ****             p->y = img->h;
 521:lvgl/lvgl/src/widgets/lv_img.c ****         }
 522:lvgl/lvgl/src/widgets/lv_img.c ****     }
 523:lvgl/lvgl/src/widgets/lv_img.c ****     else if(code == LV_EVENT_DRAW_MAIN || code == LV_EVENT_DRAW_POST || code == LV_EVENT_COVER_CHEC
 524:lvgl/lvgl/src/widgets/lv_img.c ****         draw_img(e);
 525:lvgl/lvgl/src/widgets/lv_img.c ****     }
 526:lvgl/lvgl/src/widgets/lv_img.c **** }
 527:lvgl/lvgl/src/widgets/lv_img.c **** 
 528:lvgl/lvgl/src/widgets/lv_img.c **** static void draw_img(lv_event_t * e)
 529:lvgl/lvgl/src/widgets/lv_img.c **** {
 184              		.loc 1 529 1 is_stmt 1 view -0
 185              		.cfi_startproc
 186              		@ args = 0, pretend = 0, frame = 104
 187              		@ frame_needed = 0, uses_anonymous_args = 0
 188              		.loc 1 529 1 is_stmt 0 view .LVU47
 189 0000 2DE9F04F 		push	{r4, r5, r6, r7, r8, r9, r10, fp, lr}
 190              	.LCFI3:
 191              		.cfi_def_cfa_offset 36
 192              		.cfi_offset 4, -36
 193              		.cfi_offset 5, -32
 194              		.cfi_offset 6, -28
 195              		.cfi_offset 7, -24
 196              		.cfi_offset 8, -20
 197              		.cfi_offset 9, -16
 198              		.cfi_offset 10, -12
ARM GAS  C:\Users\gx\AppData\Local\Temp\ccAHLVXI.s 			page 18


 199              		.cfi_offset 11, -8
 200              		.cfi_offset 14, -4
 201 0004 9DB0     		sub	sp, sp, #116
 202              	.LCFI4:
 203              		.cfi_def_cfa_offset 152
 204 0006 0646     		mov	r6, r0
 530:lvgl/lvgl/src/widgets/lv_img.c ****     lv_event_code_t code = lv_event_get_code(e);
 205              		.loc 1 530 5 is_stmt 1 view .LVU48
 206              		.loc 1 530 28 is_stmt 0 view .LVU49
 207 0008 FFF7FEFF 		bl	lv_event_get_code
 208              	.LVL14:
 209              		.loc 1 530 28 view .LVU50
 210 000c 0546     		mov	r5, r0
 211              	.LVL15:
 531:lvgl/lvgl/src/widgets/lv_img.c ****     lv_obj_t * obj = lv_event_get_target(e);
 212              		.loc 1 531 5 is_stmt 1 view .LVU51
 213              		.loc 1 531 22 is_stmt 0 view .LVU52
 214 000e 3046     		mov	r0, r6
 215 0010 FFF7FEFF 		bl	lv_event_get_target
 216              	.LVL16:
 217 0014 0446     		mov	r4, r0
 218              	.LVL17:
 532:lvgl/lvgl/src/widgets/lv_img.c ****     lv_img_t * img = (lv_img_t *)obj;
 219              		.loc 1 532 5 is_stmt 1 view .LVU53
 533:lvgl/lvgl/src/widgets/lv_img.c ****     if(code == LV_EVENT_COVER_CHECK) {
 220              		.loc 1 533 5 view .LVU54
 221              		.loc 1 533 7 is_stmt 0 view .LVU55
 222 0016 122D     		cmp	r5, #18
 223 0018 08D0     		beq	.L30
 534:lvgl/lvgl/src/widgets/lv_img.c ****         lv_cover_check_info_t * info = lv_event_get_param(e);
 535:lvgl/lvgl/src/widgets/lv_img.c ****         if(info->res == LV_COVER_RES_MASKED) return;
 536:lvgl/lvgl/src/widgets/lv_img.c ****         if(img->src_type == LV_IMG_SRC_UNKNOWN || img->src_type == LV_IMG_SRC_SYMBOL) {
 537:lvgl/lvgl/src/widgets/lv_img.c ****             info->res = LV_COVER_RES_NOT_COVER;
 538:lvgl/lvgl/src/widgets/lv_img.c ****             return;
 539:lvgl/lvgl/src/widgets/lv_img.c ****         }
 540:lvgl/lvgl/src/widgets/lv_img.c **** 
 541:lvgl/lvgl/src/widgets/lv_img.c ****         /*Non true color format might have "holes"*/
 542:lvgl/lvgl/src/widgets/lv_img.c ****         if(img->cf != LV_IMG_CF_TRUE_COLOR && img->cf != LV_IMG_CF_RAW) {
 543:lvgl/lvgl/src/widgets/lv_img.c ****             info->res = LV_COVER_RES_NOT_COVER;
 544:lvgl/lvgl/src/widgets/lv_img.c ****             return;
 545:lvgl/lvgl/src/widgets/lv_img.c ****         }
 546:lvgl/lvgl/src/widgets/lv_img.c **** 
 547:lvgl/lvgl/src/widgets/lv_img.c ****         /*With not LV_OPA_COVER images can't cover an area */
 548:lvgl/lvgl/src/widgets/lv_img.c ****         if(lv_obj_get_style_img_opa(obj, LV_PART_MAIN) != LV_OPA_COVER) {
 549:lvgl/lvgl/src/widgets/lv_img.c ****             info->res = LV_COVER_RES_NOT_COVER;
 550:lvgl/lvgl/src/widgets/lv_img.c ****             return;
 551:lvgl/lvgl/src/widgets/lv_img.c ****         }
 552:lvgl/lvgl/src/widgets/lv_img.c **** 
 553:lvgl/lvgl/src/widgets/lv_img.c ****         int32_t angle_final = lv_obj_get_style_transform_angle(obj, LV_PART_MAIN);
 554:lvgl/lvgl/src/widgets/lv_img.c ****         angle_final += img->angle;
 555:lvgl/lvgl/src/widgets/lv_img.c **** 
 556:lvgl/lvgl/src/widgets/lv_img.c ****         if(angle_final != 0) {
 557:lvgl/lvgl/src/widgets/lv_img.c ****             info->res = LV_COVER_RES_NOT_COVER;
 558:lvgl/lvgl/src/widgets/lv_img.c ****             return;
 559:lvgl/lvgl/src/widgets/lv_img.c ****         }
 560:lvgl/lvgl/src/widgets/lv_img.c **** 
 561:lvgl/lvgl/src/widgets/lv_img.c ****         int32_t zoom_final = lv_obj_get_style_transform_zoom(obj, LV_PART_MAIN);
ARM GAS  C:\Users\gx\AppData\Local\Temp\ccAHLVXI.s 			page 19


 562:lvgl/lvgl/src/widgets/lv_img.c ****         zoom_final = (zoom_final * img->zoom) >> 8;
 563:lvgl/lvgl/src/widgets/lv_img.c **** 
 564:lvgl/lvgl/src/widgets/lv_img.c ****         const lv_area_t * clip_area = lv_event_get_param(e);
 565:lvgl/lvgl/src/widgets/lv_img.c ****         if(zoom_final == LV_IMG_ZOOM_NONE) {
 566:lvgl/lvgl/src/widgets/lv_img.c ****             if(_lv_area_is_in(clip_area, &obj->coords, 0) == false) {
 567:lvgl/lvgl/src/widgets/lv_img.c ****                 info->res = LV_COVER_RES_NOT_COVER;
 568:lvgl/lvgl/src/widgets/lv_img.c ****                 return;
 569:lvgl/lvgl/src/widgets/lv_img.c ****             }
 570:lvgl/lvgl/src/widgets/lv_img.c ****         }
 571:lvgl/lvgl/src/widgets/lv_img.c ****         else {
 572:lvgl/lvgl/src/widgets/lv_img.c ****             lv_area_t a;
 573:lvgl/lvgl/src/widgets/lv_img.c ****             _lv_img_buf_get_transformed_area(&a, lv_obj_get_width(obj), lv_obj_get_height(obj), 0, 
 574:lvgl/lvgl/src/widgets/lv_img.c ****             a.x1 += obj->coords.x1;
 575:lvgl/lvgl/src/widgets/lv_img.c ****             a.y1 += obj->coords.y1;
 576:lvgl/lvgl/src/widgets/lv_img.c ****             a.x2 += obj->coords.x1;
 577:lvgl/lvgl/src/widgets/lv_img.c ****             a.y2 += obj->coords.y1;
 578:lvgl/lvgl/src/widgets/lv_img.c **** 
 579:lvgl/lvgl/src/widgets/lv_img.c ****             if(_lv_area_is_in(clip_area, &a, 0) == false) {
 580:lvgl/lvgl/src/widgets/lv_img.c ****                 info->res = LV_COVER_RES_NOT_COVER;
 581:lvgl/lvgl/src/widgets/lv_img.c ****                 return;
 582:lvgl/lvgl/src/widgets/lv_img.c ****             }
 583:lvgl/lvgl/src/widgets/lv_img.c ****         }
 584:lvgl/lvgl/src/widgets/lv_img.c ****     }
 585:lvgl/lvgl/src/widgets/lv_img.c ****     else if(code == LV_EVENT_DRAW_MAIN || code == LV_EVENT_DRAW_POST) {
 224              		.loc 1 585 10 is_stmt 1 view .LVU56
 225              		.loc 1 585 12 is_stmt 0 view .LVU57
 226 001a 152D     		cmp	r5, #21
 227 001c 00F08480 		beq	.L12
 228              		.loc 1 585 40 discriminator 1 view .LVU58
 229 0020 182D     		cmp	r5, #24
 230 0022 00F08180 		beq	.L12
 231              	.LVL18:
 232              	.L3:
 586:lvgl/lvgl/src/widgets/lv_img.c **** 
 587:lvgl/lvgl/src/widgets/lv_img.c ****         int32_t zoom_final = lv_obj_get_style_transform_zoom(obj, LV_PART_MAIN);
 588:lvgl/lvgl/src/widgets/lv_img.c ****         zoom_final = (zoom_final * img->zoom) >> 8;
 589:lvgl/lvgl/src/widgets/lv_img.c **** 
 590:lvgl/lvgl/src/widgets/lv_img.c ****         int32_t angle_final = lv_obj_get_style_transform_angle(obj, LV_PART_MAIN);
 591:lvgl/lvgl/src/widgets/lv_img.c ****         angle_final += img->angle;
 592:lvgl/lvgl/src/widgets/lv_img.c **** 
 593:lvgl/lvgl/src/widgets/lv_img.c ****         lv_coord_t obj_w = lv_obj_get_width(obj);
 594:lvgl/lvgl/src/widgets/lv_img.c ****         lv_coord_t obj_h = lv_obj_get_height(obj);
 595:lvgl/lvgl/src/widgets/lv_img.c **** 
 596:lvgl/lvgl/src/widgets/lv_img.c ****         lv_coord_t border_width = lv_obj_get_style_border_width(obj, LV_PART_MAIN);
 597:lvgl/lvgl/src/widgets/lv_img.c ****         lv_coord_t pleft = lv_obj_get_style_pad_left(obj, LV_PART_MAIN) + border_width;
 598:lvgl/lvgl/src/widgets/lv_img.c ****         lv_coord_t pright = lv_obj_get_style_pad_right(obj, LV_PART_MAIN) + border_width;
 599:lvgl/lvgl/src/widgets/lv_img.c ****         lv_coord_t ptop = lv_obj_get_style_pad_top(obj, LV_PART_MAIN) + border_width;
 600:lvgl/lvgl/src/widgets/lv_img.c ****         lv_coord_t pbottom = lv_obj_get_style_pad_bottom(obj, LV_PART_MAIN) + border_width;
 601:lvgl/lvgl/src/widgets/lv_img.c **** 
 602:lvgl/lvgl/src/widgets/lv_img.c ****         lv_point_t bg_pivot;
 603:lvgl/lvgl/src/widgets/lv_img.c ****         bg_pivot.x = img->pivot.x + pleft;
 604:lvgl/lvgl/src/widgets/lv_img.c ****         bg_pivot.y = img->pivot.y + ptop;
 605:lvgl/lvgl/src/widgets/lv_img.c ****         lv_area_t bg_coords;
 606:lvgl/lvgl/src/widgets/lv_img.c **** 
 607:lvgl/lvgl/src/widgets/lv_img.c ****         if (img->obj_size_mode == LV_IMG_SIZE_MODE_REAL) {
 608:lvgl/lvgl/src/widgets/lv_img.c ****             /*Object size equals to transformed image size*/
 609:lvgl/lvgl/src/widgets/lv_img.c ****             lv_obj_get_coords(obj, &bg_coords);
ARM GAS  C:\Users\gx\AppData\Local\Temp\ccAHLVXI.s 			page 20


 610:lvgl/lvgl/src/widgets/lv_img.c ****         }
 611:lvgl/lvgl/src/widgets/lv_img.c ****         else {
 612:lvgl/lvgl/src/widgets/lv_img.c ****             _lv_img_buf_get_transformed_area(&bg_coords, obj_w, obj_h,
 613:lvgl/lvgl/src/widgets/lv_img.c ****                     angle_final, zoom_final, &bg_pivot);
 614:lvgl/lvgl/src/widgets/lv_img.c **** 
 615:lvgl/lvgl/src/widgets/lv_img.c ****             /*Modify the coordinates to draw the background for the rotated and scaled coordinates*
 616:lvgl/lvgl/src/widgets/lv_img.c ****             bg_coords.x1 += obj->coords.x1;
 617:lvgl/lvgl/src/widgets/lv_img.c ****             bg_coords.y1 += obj->coords.y1;
 618:lvgl/lvgl/src/widgets/lv_img.c ****             bg_coords.x2 += obj->coords.x1;
 619:lvgl/lvgl/src/widgets/lv_img.c ****             bg_coords.y2 += obj->coords.y1;
 620:lvgl/lvgl/src/widgets/lv_img.c ****         }
 621:lvgl/lvgl/src/widgets/lv_img.c **** 
 622:lvgl/lvgl/src/widgets/lv_img.c ****         lv_area_t ori_coords;
 623:lvgl/lvgl/src/widgets/lv_img.c ****         lv_area_copy(&ori_coords, &obj->coords);
 624:lvgl/lvgl/src/widgets/lv_img.c ****         lv_area_copy(&obj->coords, &bg_coords);
 625:lvgl/lvgl/src/widgets/lv_img.c **** 
 626:lvgl/lvgl/src/widgets/lv_img.c ****         lv_res_t res = lv_obj_event_base(MY_CLASS, e);
 627:lvgl/lvgl/src/widgets/lv_img.c ****         if(res != LV_RES_OK) return;
 628:lvgl/lvgl/src/widgets/lv_img.c **** 
 629:lvgl/lvgl/src/widgets/lv_img.c ****         lv_area_copy(&obj->coords, &ori_coords);
 630:lvgl/lvgl/src/widgets/lv_img.c **** 
 631:lvgl/lvgl/src/widgets/lv_img.c ****         if(code == LV_EVENT_DRAW_MAIN) {
 632:lvgl/lvgl/src/widgets/lv_img.c ****             if(img->h == 0 || img->w == 0) return;
 633:lvgl/lvgl/src/widgets/lv_img.c ****             if(zoom_final == 0) return;
 634:lvgl/lvgl/src/widgets/lv_img.c **** 
 635:lvgl/lvgl/src/widgets/lv_img.c ****             const lv_area_t * clip_area = lv_event_get_param(e);
 636:lvgl/lvgl/src/widgets/lv_img.c **** 
 637:lvgl/lvgl/src/widgets/lv_img.c ****             lv_area_t img_max_area;
 638:lvgl/lvgl/src/widgets/lv_img.c ****             lv_area_copy(&img_max_area, &obj->coords);
 639:lvgl/lvgl/src/widgets/lv_img.c **** 
 640:lvgl/lvgl/src/widgets/lv_img.c ****             lv_point_t img_size_final = lv_img_get_tranformed_size(obj);
 641:lvgl/lvgl/src/widgets/lv_img.c **** 
 642:lvgl/lvgl/src/widgets/lv_img.c ****             if(img->obj_size_mode == LV_IMG_SIZE_MODE_REAL){
 643:lvgl/lvgl/src/widgets/lv_img.c ****                 img_max_area.x1 -= ((img->w - img_size_final.x) + 1) / 2;
 644:lvgl/lvgl/src/widgets/lv_img.c ****                 img_max_area.x2 -= ((img->w - img_size_final.x) + 1) / 2;
 645:lvgl/lvgl/src/widgets/lv_img.c ****                 img_max_area.y1 -= ((img->h - img_size_final.y) + 1) / 2;
 646:lvgl/lvgl/src/widgets/lv_img.c ****                 img_max_area.y2 -= ((img->h - img_size_final.y) + 1) / 2;
 647:lvgl/lvgl/src/widgets/lv_img.c ****             }
 648:lvgl/lvgl/src/widgets/lv_img.c ****             else {
 649:lvgl/lvgl/src/widgets/lv_img.c ****                 img_max_area.x2 = img_max_area.x1 + lv_area_get_width(&bg_coords) - 1;
 650:lvgl/lvgl/src/widgets/lv_img.c ****                 img_max_area.y2 = img_max_area.y1 + lv_area_get_height(&bg_coords) - 1;
 651:lvgl/lvgl/src/widgets/lv_img.c ****             }
 652:lvgl/lvgl/src/widgets/lv_img.c **** 
 653:lvgl/lvgl/src/widgets/lv_img.c ****             img_max_area.x1 += pleft;
 654:lvgl/lvgl/src/widgets/lv_img.c ****             img_max_area.y1 += ptop;
 655:lvgl/lvgl/src/widgets/lv_img.c ****             img_max_area.x2 -= pright;
 656:lvgl/lvgl/src/widgets/lv_img.c ****             img_max_area.y2 -= pbottom;
 657:lvgl/lvgl/src/widgets/lv_img.c **** 
 658:lvgl/lvgl/src/widgets/lv_img.c ****             if(img->src_type == LV_IMG_SRC_FILE || img->src_type == LV_IMG_SRC_VARIABLE) {
 659:lvgl/lvgl/src/widgets/lv_img.c ****                 lv_draw_img_dsc_t img_dsc;
 660:lvgl/lvgl/src/widgets/lv_img.c ****                 lv_draw_img_dsc_init(&img_dsc);
 661:lvgl/lvgl/src/widgets/lv_img.c ****                 lv_obj_init_draw_img_dsc(obj, LV_PART_MAIN, &img_dsc);
 662:lvgl/lvgl/src/widgets/lv_img.c **** 
 663:lvgl/lvgl/src/widgets/lv_img.c ****                 img_dsc.zoom = zoom_final;
 664:lvgl/lvgl/src/widgets/lv_img.c ****                 img_dsc.angle = angle_final;
 665:lvgl/lvgl/src/widgets/lv_img.c ****                 img_dsc.pivot.x = img->pivot.x;
 666:lvgl/lvgl/src/widgets/lv_img.c ****                 img_dsc.pivot.y = img->pivot.y;
ARM GAS  C:\Users\gx\AppData\Local\Temp\ccAHLVXI.s 			page 21


 667:lvgl/lvgl/src/widgets/lv_img.c ****                 img_dsc.antialias = img->antialias;
 668:lvgl/lvgl/src/widgets/lv_img.c **** 
 669:lvgl/lvgl/src/widgets/lv_img.c ****                 lv_area_t img_clip_area;
 670:lvgl/lvgl/src/widgets/lv_img.c ****                 img_clip_area.x1 = bg_coords.x1 + pleft;
 671:lvgl/lvgl/src/widgets/lv_img.c ****                 img_clip_area.y1 = bg_coords.y1 + ptop;
 672:lvgl/lvgl/src/widgets/lv_img.c ****                 img_clip_area.x2 = bg_coords.x2 - pright;
 673:lvgl/lvgl/src/widgets/lv_img.c ****                 img_clip_area.y2 = bg_coords.y2 - pbottom;
 674:lvgl/lvgl/src/widgets/lv_img.c **** 
 675:lvgl/lvgl/src/widgets/lv_img.c ****                 _lv_area_intersect(&img_clip_area, clip_area, &img_clip_area);
 676:lvgl/lvgl/src/widgets/lv_img.c **** 
 677:lvgl/lvgl/src/widgets/lv_img.c ****                 lv_area_t coords_tmp;
 678:lvgl/lvgl/src/widgets/lv_img.c ****                 coords_tmp.y1 = img_max_area.y1 + img->offset.y;
 679:lvgl/lvgl/src/widgets/lv_img.c ****                 if(coords_tmp.y1 > img_max_area.y1) coords_tmp.y1 -= img->h;
 680:lvgl/lvgl/src/widgets/lv_img.c ****                 coords_tmp.y2 = coords_tmp.y1 + img->h - 1;
 681:lvgl/lvgl/src/widgets/lv_img.c **** 
 682:lvgl/lvgl/src/widgets/lv_img.c ****                 for(; coords_tmp.y1 < img_max_area.y2; coords_tmp.y1 += img_size_final.y, coords_tm
 683:lvgl/lvgl/src/widgets/lv_img.c ****                     coords_tmp.x1 = img_max_area.x1 + img->offset.x;
 684:lvgl/lvgl/src/widgets/lv_img.c ****                     if(coords_tmp.x1 > img_max_area.x1) coords_tmp.x1 -= img->w;
 685:lvgl/lvgl/src/widgets/lv_img.c ****                     coords_tmp.x2 = coords_tmp.x1 + img->w - 1;
 686:lvgl/lvgl/src/widgets/lv_img.c **** 
 687:lvgl/lvgl/src/widgets/lv_img.c ****                     for(; coords_tmp.x1 < img_max_area.x2; coords_tmp.x1 += img_size_final.x, coord
 688:lvgl/lvgl/src/widgets/lv_img.c ****                         lv_draw_img(&coords_tmp, &img_clip_area, img->src, &img_dsc);
 689:lvgl/lvgl/src/widgets/lv_img.c ****                     }
 690:lvgl/lvgl/src/widgets/lv_img.c ****                 }
 691:lvgl/lvgl/src/widgets/lv_img.c ****             }
 692:lvgl/lvgl/src/widgets/lv_img.c ****             else if(img->src_type == LV_IMG_SRC_SYMBOL) {
 693:lvgl/lvgl/src/widgets/lv_img.c ****                 lv_draw_label_dsc_t label_dsc;
 694:lvgl/lvgl/src/widgets/lv_img.c ****                 lv_draw_label_dsc_init(&label_dsc);
 695:lvgl/lvgl/src/widgets/lv_img.c ****                 lv_obj_init_draw_label_dsc(obj, LV_PART_MAIN, &label_dsc);
 696:lvgl/lvgl/src/widgets/lv_img.c **** 
 697:lvgl/lvgl/src/widgets/lv_img.c ****                 lv_draw_label(&obj->coords, clip_area, &label_dsc, img->src, NULL);
 698:lvgl/lvgl/src/widgets/lv_img.c ****             }
 699:lvgl/lvgl/src/widgets/lv_img.c ****             else {
 700:lvgl/lvgl/src/widgets/lv_img.c ****                 /*Trigger the error handler of image draw*/
 701:lvgl/lvgl/src/widgets/lv_img.c ****                 LV_LOG_WARN("draw_img: image source type is unknown");
 702:lvgl/lvgl/src/widgets/lv_img.c ****                 lv_draw_img(&obj->coords, clip_area, NULL, NULL);
 703:lvgl/lvgl/src/widgets/lv_img.c ****             }
 704:lvgl/lvgl/src/widgets/lv_img.c ****         }
 705:lvgl/lvgl/src/widgets/lv_img.c ****     }
 706:lvgl/lvgl/src/widgets/lv_img.c **** }
 233              		.loc 1 706 1 view .LVU59
 234 0026 1DB0     		add	sp, sp, #116
 235              	.LCFI5:
 236              		.cfi_remember_state
 237              		.cfi_def_cfa_offset 36
 238              		@ sp needed
 239 0028 BDE8F08F 		pop	{r4, r5, r6, r7, r8, r9, r10, fp, pc}
 240              	.LVL19:
 241              	.L30:
 242              	.LCFI6:
 243              		.cfi_restore_state
 244              	.LBB91:
 534:lvgl/lvgl/src/widgets/lv_img.c ****         lv_cover_check_info_t * info = lv_event_get_param(e);
 245              		.loc 1 534 9 is_stmt 1 view .LVU60
 534:lvgl/lvgl/src/widgets/lv_img.c ****         lv_cover_check_info_t * info = lv_event_get_param(e);
 246              		.loc 1 534 40 is_stmt 0 view .LVU61
 247 002c 3046     		mov	r0, r6
ARM GAS  C:\Users\gx\AppData\Local\Temp\ccAHLVXI.s 			page 22


 248              	.LVL20:
 534:lvgl/lvgl/src/widgets/lv_img.c ****         lv_cover_check_info_t * info = lv_event_get_param(e);
 249              		.loc 1 534 40 view .LVU62
 250 002e FFF7FEFF 		bl	lv_event_get_param
 251              	.LVL21:
 252 0032 0546     		mov	r5, r0
 253              	.LVL22:
 535:lvgl/lvgl/src/widgets/lv_img.c ****         if(img->src_type == LV_IMG_SRC_UNKNOWN || img->src_type == LV_IMG_SRC_SYMBOL) {
 254              		.loc 1 535 9 is_stmt 1 view .LVU63
 535:lvgl/lvgl/src/widgets/lv_img.c ****         if(img->src_type == LV_IMG_SRC_UNKNOWN || img->src_type == LV_IMG_SRC_SYMBOL) {
 255              		.loc 1 535 16 is_stmt 0 view .LVU64
 256 0034 0378     		ldrb	r3, [r0]	@ zero_extendqisi2
 535:lvgl/lvgl/src/widgets/lv_img.c ****         if(img->src_type == LV_IMG_SRC_UNKNOWN || img->src_type == LV_IMG_SRC_SYMBOL) {
 257              		.loc 1 535 11 view .LVU65
 258 0036 022B     		cmp	r3, #2
 259 0038 F5D0     		beq	.L3
 536:lvgl/lvgl/src/widgets/lv_img.c ****             info->res = LV_COVER_RES_NOT_COVER;
 260              		.loc 1 536 9 is_stmt 1 view .LVU66
 536:lvgl/lvgl/src/widgets/lv_img.c ****             info->res = LV_COVER_RES_NOT_COVER;
 261              		.loc 1 536 26 is_stmt 0 view .LVU67
 262 003a 94F83830 		ldrb	r3, [r4, #56]	@ zero_extendqisi2
 536:lvgl/lvgl/src/widgets/lv_img.c ****             info->res = LV_COVER_RES_NOT_COVER;
 263              		.loc 1 536 11 view .LVU68
 264 003e 13F0020F 		tst	r3, #2
 265 0042 08D1     		bne	.L31
 542:lvgl/lvgl/src/widgets/lv_img.c ****             info->res = LV_COVER_RES_NOT_COVER;
 266              		.loc 1 542 9 is_stmt 1 view .LVU69
 542:lvgl/lvgl/src/widgets/lv_img.c ****             info->res = LV_COVER_RES_NOT_COVER;
 267              		.loc 1 542 20 is_stmt 0 view .LVU70
 268 0044 03F07C03 		and	r3, r3, #124
 542:lvgl/lvgl/src/widgets/lv_img.c ****             info->res = LV_COVER_RES_NOT_COVER;
 269              		.loc 1 542 11 view .LVU71
 270 0048 102B     		cmp	r3, #16
 271 004a 07D0     		beq	.L7
 542:lvgl/lvgl/src/widgets/lv_img.c ****             info->res = LV_COVER_RES_NOT_COVER;
 272              		.loc 1 542 44 discriminator 1 view .LVU72
 273 004c 042B     		cmp	r3, #4
 274 004e 05D0     		beq	.L7
 543:lvgl/lvgl/src/widgets/lv_img.c ****             return;
 275              		.loc 1 543 13 is_stmt 1 view .LVU73
 543:lvgl/lvgl/src/widgets/lv_img.c ****             return;
 276              		.loc 1 543 23 is_stmt 0 view .LVU74
 277 0050 0123     		movs	r3, #1
 278 0052 0370     		strb	r3, [r0]
 544:lvgl/lvgl/src/widgets/lv_img.c ****         }
 279              		.loc 1 544 13 is_stmt 1 view .LVU75
 280 0054 E7E7     		b	.L3
 281              	.L31:
 537:lvgl/lvgl/src/widgets/lv_img.c ****             return;
 282              		.loc 1 537 13 view .LVU76
 537:lvgl/lvgl/src/widgets/lv_img.c ****             return;
 283              		.loc 1 537 23 is_stmt 0 view .LVU77
 284 0056 0123     		movs	r3, #1
 285 0058 0370     		strb	r3, [r0]
 538:lvgl/lvgl/src/widgets/lv_img.c ****         }
 286              		.loc 1 538 13 is_stmt 1 view .LVU78
 287 005a E4E7     		b	.L3
ARM GAS  C:\Users\gx\AppData\Local\Temp\ccAHLVXI.s 			page 23


 288              	.L7:
 548:lvgl/lvgl/src/widgets/lv_img.c ****             info->res = LV_COVER_RES_NOT_COVER;
 289              		.loc 1 548 9 view .LVU79
 290              	.LVL23:
 291              	.LBB92:
 292              	.LBI92:
  89:lvgl/lvgl/src/widgets/../core/lv_obj_style_gen.h **** }
  90:lvgl/lvgl/src/widgets/../core/lv_obj_style_gen.h **** 
  91:lvgl/lvgl/src/widgets/../core/lv_obj_style_gen.h **** static inline lv_coord_t lv_obj_get_style_pad_top(const struct _lv_obj_t * obj, uint32_t part)
  92:lvgl/lvgl/src/widgets/../core/lv_obj_style_gen.h **** {
  93:lvgl/lvgl/src/widgets/../core/lv_obj_style_gen.h ****     lv_style_value_t v = lv_obj_get_style_prop(obj, part, LV_STYLE_PAD_TOP);
  94:lvgl/lvgl/src/widgets/../core/lv_obj_style_gen.h ****     return (lv_coord_t)v.num;
  95:lvgl/lvgl/src/widgets/../core/lv_obj_style_gen.h **** }
  96:lvgl/lvgl/src/widgets/../core/lv_obj_style_gen.h **** 
  97:lvgl/lvgl/src/widgets/../core/lv_obj_style_gen.h **** static inline lv_coord_t lv_obj_get_style_pad_bottom(const struct _lv_obj_t * obj, uint32_t part)
  98:lvgl/lvgl/src/widgets/../core/lv_obj_style_gen.h **** {
  99:lvgl/lvgl/src/widgets/../core/lv_obj_style_gen.h ****     lv_style_value_t v = lv_obj_get_style_prop(obj, part, LV_STYLE_PAD_BOTTOM);
 100:lvgl/lvgl/src/widgets/../core/lv_obj_style_gen.h ****     return (lv_coord_t)v.num;
 101:lvgl/lvgl/src/widgets/../core/lv_obj_style_gen.h **** }
 102:lvgl/lvgl/src/widgets/../core/lv_obj_style_gen.h **** 
 103:lvgl/lvgl/src/widgets/../core/lv_obj_style_gen.h **** static inline lv_coord_t lv_obj_get_style_pad_left(const struct _lv_obj_t * obj, uint32_t part)
 104:lvgl/lvgl/src/widgets/../core/lv_obj_style_gen.h **** {
 105:lvgl/lvgl/src/widgets/../core/lv_obj_style_gen.h ****     lv_style_value_t v = lv_obj_get_style_prop(obj, part, LV_STYLE_PAD_LEFT);
 106:lvgl/lvgl/src/widgets/../core/lv_obj_style_gen.h ****     return (lv_coord_t)v.num;
 107:lvgl/lvgl/src/widgets/../core/lv_obj_style_gen.h **** }
 108:lvgl/lvgl/src/widgets/../core/lv_obj_style_gen.h **** 
 109:lvgl/lvgl/src/widgets/../core/lv_obj_style_gen.h **** static inline lv_coord_t lv_obj_get_style_pad_right(const struct _lv_obj_t * obj, uint32_t part)
 110:lvgl/lvgl/src/widgets/../core/lv_obj_style_gen.h **** {
 111:lvgl/lvgl/src/widgets/../core/lv_obj_style_gen.h ****     lv_style_value_t v = lv_obj_get_style_prop(obj, part, LV_STYLE_PAD_RIGHT);
 112:lvgl/lvgl/src/widgets/../core/lv_obj_style_gen.h ****     return (lv_coord_t)v.num;
 113:lvgl/lvgl/src/widgets/../core/lv_obj_style_gen.h **** }
 114:lvgl/lvgl/src/widgets/../core/lv_obj_style_gen.h **** 
 115:lvgl/lvgl/src/widgets/../core/lv_obj_style_gen.h **** static inline lv_coord_t lv_obj_get_style_pad_row(const struct _lv_obj_t * obj, uint32_t part)
 116:lvgl/lvgl/src/widgets/../core/lv_obj_style_gen.h **** {
 117:lvgl/lvgl/src/widgets/../core/lv_obj_style_gen.h ****     lv_style_value_t v = lv_obj_get_style_prop(obj, part, LV_STYLE_PAD_ROW);
 118:lvgl/lvgl/src/widgets/../core/lv_obj_style_gen.h ****     return (lv_coord_t)v.num;
 119:lvgl/lvgl/src/widgets/../core/lv_obj_style_gen.h **** }
 120:lvgl/lvgl/src/widgets/../core/lv_obj_style_gen.h **** 
 121:lvgl/lvgl/src/widgets/../core/lv_obj_style_gen.h **** static inline lv_coord_t lv_obj_get_style_pad_column(const struct _lv_obj_t * obj, uint32_t part)
 122:lvgl/lvgl/src/widgets/../core/lv_obj_style_gen.h **** {
 123:lvgl/lvgl/src/widgets/../core/lv_obj_style_gen.h ****     lv_style_value_t v = lv_obj_get_style_prop(obj, part, LV_STYLE_PAD_COLUMN);
 124:lvgl/lvgl/src/widgets/../core/lv_obj_style_gen.h ****     return (lv_coord_t)v.num;
 125:lvgl/lvgl/src/widgets/../core/lv_obj_style_gen.h **** }
 126:lvgl/lvgl/src/widgets/../core/lv_obj_style_gen.h **** 
 127:lvgl/lvgl/src/widgets/../core/lv_obj_style_gen.h **** static inline lv_coord_t lv_obj_get_style_radius(const struct _lv_obj_t * obj, uint32_t part)
 128:lvgl/lvgl/src/widgets/../core/lv_obj_style_gen.h **** {
 129:lvgl/lvgl/src/widgets/../core/lv_obj_style_gen.h ****     lv_style_value_t v = lv_obj_get_style_prop(obj, part, LV_STYLE_RADIUS);
 130:lvgl/lvgl/src/widgets/../core/lv_obj_style_gen.h ****     return (lv_coord_t)v.num;
 131:lvgl/lvgl/src/widgets/../core/lv_obj_style_gen.h **** }
 132:lvgl/lvgl/src/widgets/../core/lv_obj_style_gen.h **** 
 133:lvgl/lvgl/src/widgets/../core/lv_obj_style_gen.h **** static inline bool lv_obj_get_style_clip_corner(const struct _lv_obj_t * obj, uint32_t part)
 134:lvgl/lvgl/src/widgets/../core/lv_obj_style_gen.h **** {
 135:lvgl/lvgl/src/widgets/../core/lv_obj_style_gen.h ****     lv_style_value_t v = lv_obj_get_style_prop(obj, part, LV_STYLE_CLIP_CORNER);
 136:lvgl/lvgl/src/widgets/../core/lv_obj_style_gen.h ****     return (bool)v.num;
 137:lvgl/lvgl/src/widgets/../core/lv_obj_style_gen.h **** }
 138:lvgl/lvgl/src/widgets/../core/lv_obj_style_gen.h **** 
 139:lvgl/lvgl/src/widgets/../core/lv_obj_style_gen.h **** static inline lv_opa_t lv_obj_get_style_opa(const struct _lv_obj_t * obj, uint32_t part)
ARM GAS  C:\Users\gx\AppData\Local\Temp\ccAHLVXI.s 			page 24


 140:lvgl/lvgl/src/widgets/../core/lv_obj_style_gen.h **** {
 141:lvgl/lvgl/src/widgets/../core/lv_obj_style_gen.h ****     lv_style_value_t v = lv_obj_get_style_prop(obj, part, LV_STYLE_OPA);
 142:lvgl/lvgl/src/widgets/../core/lv_obj_style_gen.h ****     return (lv_opa_t)v.num;
 143:lvgl/lvgl/src/widgets/../core/lv_obj_style_gen.h **** }
 144:lvgl/lvgl/src/widgets/../core/lv_obj_style_gen.h **** 
 145:lvgl/lvgl/src/widgets/../core/lv_obj_style_gen.h **** static inline const lv_color_filter_dsc_t * lv_obj_get_style_color_filter_dsc(const struct _lv_obj_
 146:lvgl/lvgl/src/widgets/../core/lv_obj_style_gen.h **** {
 147:lvgl/lvgl/src/widgets/../core/lv_obj_style_gen.h ****     lv_style_value_t v = lv_obj_get_style_prop(obj, part, LV_STYLE_COLOR_FILTER_DSC);
 148:lvgl/lvgl/src/widgets/../core/lv_obj_style_gen.h ****     return (const lv_color_filter_dsc_t *)v.ptr;
 149:lvgl/lvgl/src/widgets/../core/lv_obj_style_gen.h **** }
 150:lvgl/lvgl/src/widgets/../core/lv_obj_style_gen.h **** 
 151:lvgl/lvgl/src/widgets/../core/lv_obj_style_gen.h **** static inline lv_opa_t lv_obj_get_style_color_filter_opa(const struct _lv_obj_t * obj, uint32_t par
 152:lvgl/lvgl/src/widgets/../core/lv_obj_style_gen.h **** {
 153:lvgl/lvgl/src/widgets/../core/lv_obj_style_gen.h ****     lv_style_value_t v = lv_obj_get_style_prop(obj, part, LV_STYLE_COLOR_FILTER_OPA);
 154:lvgl/lvgl/src/widgets/../core/lv_obj_style_gen.h ****     return (lv_opa_t)v.num;
 155:lvgl/lvgl/src/widgets/../core/lv_obj_style_gen.h **** }
 156:lvgl/lvgl/src/widgets/../core/lv_obj_style_gen.h **** 
 157:lvgl/lvgl/src/widgets/../core/lv_obj_style_gen.h **** static inline uint32_t lv_obj_get_style_anim_time(const struct _lv_obj_t * obj, uint32_t part)
 158:lvgl/lvgl/src/widgets/../core/lv_obj_style_gen.h **** {
 159:lvgl/lvgl/src/widgets/../core/lv_obj_style_gen.h ****     lv_style_value_t v = lv_obj_get_style_prop(obj, part, LV_STYLE_ANIM_TIME);
 160:lvgl/lvgl/src/widgets/../core/lv_obj_style_gen.h ****     return (uint32_t)v.num;
 161:lvgl/lvgl/src/widgets/../core/lv_obj_style_gen.h **** }
 162:lvgl/lvgl/src/widgets/../core/lv_obj_style_gen.h **** 
 163:lvgl/lvgl/src/widgets/../core/lv_obj_style_gen.h **** static inline uint32_t lv_obj_get_style_anim_speed(const struct _lv_obj_t * obj, uint32_t part)
 164:lvgl/lvgl/src/widgets/../core/lv_obj_style_gen.h **** {
 165:lvgl/lvgl/src/widgets/../core/lv_obj_style_gen.h ****     lv_style_value_t v = lv_obj_get_style_prop(obj, part, LV_STYLE_ANIM_SPEED);
 166:lvgl/lvgl/src/widgets/../core/lv_obj_style_gen.h ****     return (uint32_t)v.num;
 167:lvgl/lvgl/src/widgets/../core/lv_obj_style_gen.h **** }
 168:lvgl/lvgl/src/widgets/../core/lv_obj_style_gen.h **** 
 169:lvgl/lvgl/src/widgets/../core/lv_obj_style_gen.h **** static inline const lv_style_transition_dsc_t * lv_obj_get_style_transition(const struct _lv_obj_t 
 170:lvgl/lvgl/src/widgets/../core/lv_obj_style_gen.h **** {
 171:lvgl/lvgl/src/widgets/../core/lv_obj_style_gen.h ****     lv_style_value_t v = lv_obj_get_style_prop(obj, part, LV_STYLE_TRANSITION);
 172:lvgl/lvgl/src/widgets/../core/lv_obj_style_gen.h ****     return (const lv_style_transition_dsc_t *)v.ptr;
 173:lvgl/lvgl/src/widgets/../core/lv_obj_style_gen.h **** }
 174:lvgl/lvgl/src/widgets/../core/lv_obj_style_gen.h **** 
 175:lvgl/lvgl/src/widgets/../core/lv_obj_style_gen.h **** static inline lv_blend_mode_t lv_obj_get_style_blend_mode(const struct _lv_obj_t * obj, uint32_t pa
 176:lvgl/lvgl/src/widgets/../core/lv_obj_style_gen.h **** {
 177:lvgl/lvgl/src/widgets/../core/lv_obj_style_gen.h ****     lv_style_value_t v = lv_obj_get_style_prop(obj, part, LV_STYLE_BLEND_MODE);
 178:lvgl/lvgl/src/widgets/../core/lv_obj_style_gen.h ****     return (lv_blend_mode_t)v.num;
 179:lvgl/lvgl/src/widgets/../core/lv_obj_style_gen.h **** }
 180:lvgl/lvgl/src/widgets/../core/lv_obj_style_gen.h **** 
 181:lvgl/lvgl/src/widgets/../core/lv_obj_style_gen.h **** static inline uint16_t lv_obj_get_style_layout(const struct _lv_obj_t * obj, uint32_t part)
 182:lvgl/lvgl/src/widgets/../core/lv_obj_style_gen.h **** {
 183:lvgl/lvgl/src/widgets/../core/lv_obj_style_gen.h ****     lv_style_value_t v = lv_obj_get_style_prop(obj, part, LV_STYLE_LAYOUT);
 184:lvgl/lvgl/src/widgets/../core/lv_obj_style_gen.h ****     return (uint16_t)v.num;
 185:lvgl/lvgl/src/widgets/../core/lv_obj_style_gen.h **** }
 186:lvgl/lvgl/src/widgets/../core/lv_obj_style_gen.h **** 
 187:lvgl/lvgl/src/widgets/../core/lv_obj_style_gen.h **** static inline lv_base_dir_t lv_obj_get_style_base_dir(const struct _lv_obj_t * obj, uint32_t part)
 188:lvgl/lvgl/src/widgets/../core/lv_obj_style_gen.h **** {
 189:lvgl/lvgl/src/widgets/../core/lv_obj_style_gen.h ****     lv_style_value_t v = lv_obj_get_style_prop(obj, part, LV_STYLE_BASE_DIR);
 190:lvgl/lvgl/src/widgets/../core/lv_obj_style_gen.h ****     return (lv_base_dir_t)v.num;
 191:lvgl/lvgl/src/widgets/../core/lv_obj_style_gen.h **** }
 192:lvgl/lvgl/src/widgets/../core/lv_obj_style_gen.h **** 
 193:lvgl/lvgl/src/widgets/../core/lv_obj_style_gen.h **** static inline lv_color_t lv_obj_get_style_bg_color(const struct _lv_obj_t * obj, uint32_t part)
 194:lvgl/lvgl/src/widgets/../core/lv_obj_style_gen.h **** {
 195:lvgl/lvgl/src/widgets/../core/lv_obj_style_gen.h ****     lv_style_value_t v = lv_obj_get_style_prop(obj, part, LV_STYLE_BG_COLOR);
 196:lvgl/lvgl/src/widgets/../core/lv_obj_style_gen.h ****     return v.color;
ARM GAS  C:\Users\gx\AppData\Local\Temp\ccAHLVXI.s 			page 25


 197:lvgl/lvgl/src/widgets/../core/lv_obj_style_gen.h **** }
 198:lvgl/lvgl/src/widgets/../core/lv_obj_style_gen.h **** 
 199:lvgl/lvgl/src/widgets/../core/lv_obj_style_gen.h **** static inline lv_color_t lv_obj_get_style_bg_color_filtered(const struct _lv_obj_t * obj, uint32_t 
 200:lvgl/lvgl/src/widgets/../core/lv_obj_style_gen.h **** {
 201:lvgl/lvgl/src/widgets/../core/lv_obj_style_gen.h ****     lv_style_value_t v = lv_obj_get_style_prop(obj, part, LV_STYLE_BG_COLOR_FILTERED);
 202:lvgl/lvgl/src/widgets/../core/lv_obj_style_gen.h ****     return v.color;
 203:lvgl/lvgl/src/widgets/../core/lv_obj_style_gen.h **** }
 204:lvgl/lvgl/src/widgets/../core/lv_obj_style_gen.h **** 
 205:lvgl/lvgl/src/widgets/../core/lv_obj_style_gen.h **** static inline lv_opa_t lv_obj_get_style_bg_opa(const struct _lv_obj_t * obj, uint32_t part)
 206:lvgl/lvgl/src/widgets/../core/lv_obj_style_gen.h **** {
 207:lvgl/lvgl/src/widgets/../core/lv_obj_style_gen.h ****     lv_style_value_t v = lv_obj_get_style_prop(obj, part, LV_STYLE_BG_OPA);
 208:lvgl/lvgl/src/widgets/../core/lv_obj_style_gen.h ****     return (lv_opa_t)v.num;
 209:lvgl/lvgl/src/widgets/../core/lv_obj_style_gen.h **** }
 210:lvgl/lvgl/src/widgets/../core/lv_obj_style_gen.h **** 
 211:lvgl/lvgl/src/widgets/../core/lv_obj_style_gen.h **** static inline lv_color_t lv_obj_get_style_bg_grad_color(const struct _lv_obj_t * obj, uint32_t part
 212:lvgl/lvgl/src/widgets/../core/lv_obj_style_gen.h **** {
 213:lvgl/lvgl/src/widgets/../core/lv_obj_style_gen.h ****     lv_style_value_t v = lv_obj_get_style_prop(obj, part, LV_STYLE_BG_GRAD_COLOR);
 214:lvgl/lvgl/src/widgets/../core/lv_obj_style_gen.h ****     return v.color;
 215:lvgl/lvgl/src/widgets/../core/lv_obj_style_gen.h **** }
 216:lvgl/lvgl/src/widgets/../core/lv_obj_style_gen.h **** 
 217:lvgl/lvgl/src/widgets/../core/lv_obj_style_gen.h **** static inline lv_color_t lv_obj_get_style_bg_grad_color_filtered(const struct _lv_obj_t * obj, uint
 218:lvgl/lvgl/src/widgets/../core/lv_obj_style_gen.h **** {
 219:lvgl/lvgl/src/widgets/../core/lv_obj_style_gen.h ****     lv_style_value_t v = lv_obj_get_style_prop(obj, part, LV_STYLE_BG_GRAD_COLOR_FILTERED);
 220:lvgl/lvgl/src/widgets/../core/lv_obj_style_gen.h ****     return v.color;
 221:lvgl/lvgl/src/widgets/../core/lv_obj_style_gen.h **** }
 222:lvgl/lvgl/src/widgets/../core/lv_obj_style_gen.h **** 
 223:lvgl/lvgl/src/widgets/../core/lv_obj_style_gen.h **** static inline lv_grad_dir_t lv_obj_get_style_bg_grad_dir(const struct _lv_obj_t * obj, uint32_t par
 224:lvgl/lvgl/src/widgets/../core/lv_obj_style_gen.h **** {
 225:lvgl/lvgl/src/widgets/../core/lv_obj_style_gen.h ****     lv_style_value_t v = lv_obj_get_style_prop(obj, part, LV_STYLE_BG_GRAD_DIR);
 226:lvgl/lvgl/src/widgets/../core/lv_obj_style_gen.h ****     return (lv_grad_dir_t)v.num;
 227:lvgl/lvgl/src/widgets/../core/lv_obj_style_gen.h **** }
 228:lvgl/lvgl/src/widgets/../core/lv_obj_style_gen.h **** 
 229:lvgl/lvgl/src/widgets/../core/lv_obj_style_gen.h **** static inline lv_coord_t lv_obj_get_style_bg_main_stop(const struct _lv_obj_t * obj, uint32_t part)
 230:lvgl/lvgl/src/widgets/../core/lv_obj_style_gen.h **** {
 231:lvgl/lvgl/src/widgets/../core/lv_obj_style_gen.h ****     lv_style_value_t v = lv_obj_get_style_prop(obj, part, LV_STYLE_BG_MAIN_STOP);
 232:lvgl/lvgl/src/widgets/../core/lv_obj_style_gen.h ****     return (lv_coord_t)v.num;
 233:lvgl/lvgl/src/widgets/../core/lv_obj_style_gen.h **** }
 234:lvgl/lvgl/src/widgets/../core/lv_obj_style_gen.h **** 
 235:lvgl/lvgl/src/widgets/../core/lv_obj_style_gen.h **** static inline lv_coord_t lv_obj_get_style_bg_grad_stop(const struct _lv_obj_t * obj, uint32_t part)
 236:lvgl/lvgl/src/widgets/../core/lv_obj_style_gen.h **** {
 237:lvgl/lvgl/src/widgets/../core/lv_obj_style_gen.h ****     lv_style_value_t v = lv_obj_get_style_prop(obj, part, LV_STYLE_BG_GRAD_STOP);
 238:lvgl/lvgl/src/widgets/../core/lv_obj_style_gen.h ****     return (lv_coord_t)v.num;
 239:lvgl/lvgl/src/widgets/../core/lv_obj_style_gen.h **** }
 240:lvgl/lvgl/src/widgets/../core/lv_obj_style_gen.h **** 
 241:lvgl/lvgl/src/widgets/../core/lv_obj_style_gen.h **** static inline const void * lv_obj_get_style_bg_img_src(const struct _lv_obj_t * obj, uint32_t part)
 242:lvgl/lvgl/src/widgets/../core/lv_obj_style_gen.h **** {
 243:lvgl/lvgl/src/widgets/../core/lv_obj_style_gen.h ****     lv_style_value_t v = lv_obj_get_style_prop(obj, part, LV_STYLE_BG_IMG_SRC);
 244:lvgl/lvgl/src/widgets/../core/lv_obj_style_gen.h ****     return (const void *)v.ptr;
 245:lvgl/lvgl/src/widgets/../core/lv_obj_style_gen.h **** }
 246:lvgl/lvgl/src/widgets/../core/lv_obj_style_gen.h **** 
 247:lvgl/lvgl/src/widgets/../core/lv_obj_style_gen.h **** static inline lv_opa_t lv_obj_get_style_bg_img_opa(const struct _lv_obj_t * obj, uint32_t part)
 248:lvgl/lvgl/src/widgets/../core/lv_obj_style_gen.h **** {
 249:lvgl/lvgl/src/widgets/../core/lv_obj_style_gen.h ****     lv_style_value_t v = lv_obj_get_style_prop(obj, part, LV_STYLE_BG_IMG_OPA);
 250:lvgl/lvgl/src/widgets/../core/lv_obj_style_gen.h ****     return (lv_opa_t)v.num;
 251:lvgl/lvgl/src/widgets/../core/lv_obj_style_gen.h **** }
 252:lvgl/lvgl/src/widgets/../core/lv_obj_style_gen.h **** 
 253:lvgl/lvgl/src/widgets/../core/lv_obj_style_gen.h **** static inline lv_color_t lv_obj_get_style_bg_img_recolor(const struct _lv_obj_t * obj, uint32_t par
ARM GAS  C:\Users\gx\AppData\Local\Temp\ccAHLVXI.s 			page 26


 254:lvgl/lvgl/src/widgets/../core/lv_obj_style_gen.h **** {
 255:lvgl/lvgl/src/widgets/../core/lv_obj_style_gen.h ****     lv_style_value_t v = lv_obj_get_style_prop(obj, part, LV_STYLE_BG_IMG_RECOLOR);
 256:lvgl/lvgl/src/widgets/../core/lv_obj_style_gen.h ****     return v.color;
 257:lvgl/lvgl/src/widgets/../core/lv_obj_style_gen.h **** }
 258:lvgl/lvgl/src/widgets/../core/lv_obj_style_gen.h **** 
 259:lvgl/lvgl/src/widgets/../core/lv_obj_style_gen.h **** static inline lv_color_t lv_obj_get_style_bg_img_recolor_filtered(const struct _lv_obj_t * obj, uin
 260:lvgl/lvgl/src/widgets/../core/lv_obj_style_gen.h **** {
 261:lvgl/lvgl/src/widgets/../core/lv_obj_style_gen.h ****     lv_style_value_t v = lv_obj_get_style_prop(obj, part, LV_STYLE_BG_IMG_RECOLOR_FILTERED);
 262:lvgl/lvgl/src/widgets/../core/lv_obj_style_gen.h ****     return v.color;
 263:lvgl/lvgl/src/widgets/../core/lv_obj_style_gen.h **** }
 264:lvgl/lvgl/src/widgets/../core/lv_obj_style_gen.h **** 
 265:lvgl/lvgl/src/widgets/../core/lv_obj_style_gen.h **** static inline lv_opa_t lv_obj_get_style_bg_img_recolor_opa(const struct _lv_obj_t * obj, uint32_t p
 266:lvgl/lvgl/src/widgets/../core/lv_obj_style_gen.h **** {
 267:lvgl/lvgl/src/widgets/../core/lv_obj_style_gen.h ****     lv_style_value_t v = lv_obj_get_style_prop(obj, part, LV_STYLE_BG_IMG_RECOLOR_OPA);
 268:lvgl/lvgl/src/widgets/../core/lv_obj_style_gen.h ****     return (lv_opa_t)v.num;
 269:lvgl/lvgl/src/widgets/../core/lv_obj_style_gen.h **** }
 270:lvgl/lvgl/src/widgets/../core/lv_obj_style_gen.h **** 
 271:lvgl/lvgl/src/widgets/../core/lv_obj_style_gen.h **** static inline bool lv_obj_get_style_bg_img_tiled(const struct _lv_obj_t * obj, uint32_t part)
 272:lvgl/lvgl/src/widgets/../core/lv_obj_style_gen.h **** {
 273:lvgl/lvgl/src/widgets/../core/lv_obj_style_gen.h ****     lv_style_value_t v = lv_obj_get_style_prop(obj, part, LV_STYLE_BG_IMG_TILED);
 274:lvgl/lvgl/src/widgets/../core/lv_obj_style_gen.h ****     return (bool)v.num;
 275:lvgl/lvgl/src/widgets/../core/lv_obj_style_gen.h **** }
 276:lvgl/lvgl/src/widgets/../core/lv_obj_style_gen.h **** 
 277:lvgl/lvgl/src/widgets/../core/lv_obj_style_gen.h **** static inline lv_color_t lv_obj_get_style_border_color(const struct _lv_obj_t * obj, uint32_t part)
 278:lvgl/lvgl/src/widgets/../core/lv_obj_style_gen.h **** {
 279:lvgl/lvgl/src/widgets/../core/lv_obj_style_gen.h ****     lv_style_value_t v = lv_obj_get_style_prop(obj, part, LV_STYLE_BORDER_COLOR);
 280:lvgl/lvgl/src/widgets/../core/lv_obj_style_gen.h ****     return v.color;
 281:lvgl/lvgl/src/widgets/../core/lv_obj_style_gen.h **** }
 282:lvgl/lvgl/src/widgets/../core/lv_obj_style_gen.h **** 
 283:lvgl/lvgl/src/widgets/../core/lv_obj_style_gen.h **** static inline lv_color_t lv_obj_get_style_border_color_filtered(const struct _lv_obj_t * obj, uint3
 284:lvgl/lvgl/src/widgets/../core/lv_obj_style_gen.h **** {
 285:lvgl/lvgl/src/widgets/../core/lv_obj_style_gen.h ****     lv_style_value_t v = lv_obj_get_style_prop(obj, part, LV_STYLE_BORDER_COLOR_FILTERED);
 286:lvgl/lvgl/src/widgets/../core/lv_obj_style_gen.h ****     return v.color;
 287:lvgl/lvgl/src/widgets/../core/lv_obj_style_gen.h **** }
 288:lvgl/lvgl/src/widgets/../core/lv_obj_style_gen.h **** 
 289:lvgl/lvgl/src/widgets/../core/lv_obj_style_gen.h **** static inline lv_opa_t lv_obj_get_style_border_opa(const struct _lv_obj_t * obj, uint32_t part)
 290:lvgl/lvgl/src/widgets/../core/lv_obj_style_gen.h **** {
 291:lvgl/lvgl/src/widgets/../core/lv_obj_style_gen.h ****     lv_style_value_t v = lv_obj_get_style_prop(obj, part, LV_STYLE_BORDER_OPA);
 292:lvgl/lvgl/src/widgets/../core/lv_obj_style_gen.h ****     return (lv_opa_t)v.num;
 293:lvgl/lvgl/src/widgets/../core/lv_obj_style_gen.h **** }
 294:lvgl/lvgl/src/widgets/../core/lv_obj_style_gen.h **** 
 295:lvgl/lvgl/src/widgets/../core/lv_obj_style_gen.h **** static inline lv_coord_t lv_obj_get_style_border_width(const struct _lv_obj_t * obj, uint32_t part)
 296:lvgl/lvgl/src/widgets/../core/lv_obj_style_gen.h **** {
 297:lvgl/lvgl/src/widgets/../core/lv_obj_style_gen.h ****     lv_style_value_t v = lv_obj_get_style_prop(obj, part, LV_STYLE_BORDER_WIDTH);
 298:lvgl/lvgl/src/widgets/../core/lv_obj_style_gen.h ****     return (lv_coord_t)v.num;
 299:lvgl/lvgl/src/widgets/../core/lv_obj_style_gen.h **** }
 300:lvgl/lvgl/src/widgets/../core/lv_obj_style_gen.h **** 
 301:lvgl/lvgl/src/widgets/../core/lv_obj_style_gen.h **** static inline lv_border_side_t lv_obj_get_style_border_side(const struct _lv_obj_t * obj, uint32_t 
 302:lvgl/lvgl/src/widgets/../core/lv_obj_style_gen.h **** {
 303:lvgl/lvgl/src/widgets/../core/lv_obj_style_gen.h ****     lv_style_value_t v = lv_obj_get_style_prop(obj, part, LV_STYLE_BORDER_SIDE);
 304:lvgl/lvgl/src/widgets/../core/lv_obj_style_gen.h ****     return (lv_border_side_t)v.num;
 305:lvgl/lvgl/src/widgets/../core/lv_obj_style_gen.h **** }
 306:lvgl/lvgl/src/widgets/../core/lv_obj_style_gen.h **** 
 307:lvgl/lvgl/src/widgets/../core/lv_obj_style_gen.h **** static inline bool lv_obj_get_style_border_post(const struct _lv_obj_t * obj, uint32_t part)
 308:lvgl/lvgl/src/widgets/../core/lv_obj_style_gen.h **** {
 309:lvgl/lvgl/src/widgets/../core/lv_obj_style_gen.h ****     lv_style_value_t v = lv_obj_get_style_prop(obj, part, LV_STYLE_BORDER_POST);
 310:lvgl/lvgl/src/widgets/../core/lv_obj_style_gen.h ****     return (bool)v.num;
ARM GAS  C:\Users\gx\AppData\Local\Temp\ccAHLVXI.s 			page 27


 311:lvgl/lvgl/src/widgets/../core/lv_obj_style_gen.h **** }
 312:lvgl/lvgl/src/widgets/../core/lv_obj_style_gen.h **** 
 313:lvgl/lvgl/src/widgets/../core/lv_obj_style_gen.h **** static inline lv_color_t lv_obj_get_style_text_color(const struct _lv_obj_t * obj, uint32_t part)
 314:lvgl/lvgl/src/widgets/../core/lv_obj_style_gen.h **** {
 315:lvgl/lvgl/src/widgets/../core/lv_obj_style_gen.h ****     lv_style_value_t v = lv_obj_get_style_prop(obj, part, LV_STYLE_TEXT_COLOR);
 316:lvgl/lvgl/src/widgets/../core/lv_obj_style_gen.h ****     return v.color;
 317:lvgl/lvgl/src/widgets/../core/lv_obj_style_gen.h **** }
 318:lvgl/lvgl/src/widgets/../core/lv_obj_style_gen.h **** 
 319:lvgl/lvgl/src/widgets/../core/lv_obj_style_gen.h **** static inline lv_color_t lv_obj_get_style_text_color_filtered(const struct _lv_obj_t * obj, uint32_
 320:lvgl/lvgl/src/widgets/../core/lv_obj_style_gen.h **** {
 321:lvgl/lvgl/src/widgets/../core/lv_obj_style_gen.h ****     lv_style_value_t v = lv_obj_get_style_prop(obj, part, LV_STYLE_TEXT_COLOR_FILTERED);
 322:lvgl/lvgl/src/widgets/../core/lv_obj_style_gen.h ****     return v.color;
 323:lvgl/lvgl/src/widgets/../core/lv_obj_style_gen.h **** }
 324:lvgl/lvgl/src/widgets/../core/lv_obj_style_gen.h **** 
 325:lvgl/lvgl/src/widgets/../core/lv_obj_style_gen.h **** static inline lv_opa_t lv_obj_get_style_text_opa(const struct _lv_obj_t * obj, uint32_t part)
 326:lvgl/lvgl/src/widgets/../core/lv_obj_style_gen.h **** {
 327:lvgl/lvgl/src/widgets/../core/lv_obj_style_gen.h ****     lv_style_value_t v = lv_obj_get_style_prop(obj, part, LV_STYLE_TEXT_OPA);
 328:lvgl/lvgl/src/widgets/../core/lv_obj_style_gen.h ****     return (lv_opa_t)v.num;
 329:lvgl/lvgl/src/widgets/../core/lv_obj_style_gen.h **** }
 330:lvgl/lvgl/src/widgets/../core/lv_obj_style_gen.h **** 
 331:lvgl/lvgl/src/widgets/../core/lv_obj_style_gen.h **** static inline const lv_font_t * lv_obj_get_style_text_font(const struct _lv_obj_t * obj, uint32_t p
 332:lvgl/lvgl/src/widgets/../core/lv_obj_style_gen.h **** {
 333:lvgl/lvgl/src/widgets/../core/lv_obj_style_gen.h ****     lv_style_value_t v = lv_obj_get_style_prop(obj, part, LV_STYLE_TEXT_FONT);
 334:lvgl/lvgl/src/widgets/../core/lv_obj_style_gen.h ****     return (const lv_font_t *)v.ptr;
 335:lvgl/lvgl/src/widgets/../core/lv_obj_style_gen.h **** }
 336:lvgl/lvgl/src/widgets/../core/lv_obj_style_gen.h **** 
 337:lvgl/lvgl/src/widgets/../core/lv_obj_style_gen.h **** static inline lv_coord_t lv_obj_get_style_text_letter_space(const struct _lv_obj_t * obj, uint32_t 
 338:lvgl/lvgl/src/widgets/../core/lv_obj_style_gen.h **** {
 339:lvgl/lvgl/src/widgets/../core/lv_obj_style_gen.h ****     lv_style_value_t v = lv_obj_get_style_prop(obj, part, LV_STYLE_TEXT_LETTER_SPACE);
 340:lvgl/lvgl/src/widgets/../core/lv_obj_style_gen.h ****     return (lv_coord_t)v.num;
 341:lvgl/lvgl/src/widgets/../core/lv_obj_style_gen.h **** }
 342:lvgl/lvgl/src/widgets/../core/lv_obj_style_gen.h **** 
 343:lvgl/lvgl/src/widgets/../core/lv_obj_style_gen.h **** static inline lv_coord_t lv_obj_get_style_text_line_space(const struct _lv_obj_t * obj, uint32_t pa
 344:lvgl/lvgl/src/widgets/../core/lv_obj_style_gen.h **** {
 345:lvgl/lvgl/src/widgets/../core/lv_obj_style_gen.h ****     lv_style_value_t v = lv_obj_get_style_prop(obj, part, LV_STYLE_TEXT_LINE_SPACE);
 346:lvgl/lvgl/src/widgets/../core/lv_obj_style_gen.h ****     return (lv_coord_t)v.num;
 347:lvgl/lvgl/src/widgets/../core/lv_obj_style_gen.h **** }
 348:lvgl/lvgl/src/widgets/../core/lv_obj_style_gen.h **** 
 349:lvgl/lvgl/src/widgets/../core/lv_obj_style_gen.h **** static inline lv_text_decor_t lv_obj_get_style_text_decor(const struct _lv_obj_t * obj, uint32_t pa
 350:lvgl/lvgl/src/widgets/../core/lv_obj_style_gen.h **** {
 351:lvgl/lvgl/src/widgets/../core/lv_obj_style_gen.h ****     lv_style_value_t v = lv_obj_get_style_prop(obj, part, LV_STYLE_TEXT_DECOR);
 352:lvgl/lvgl/src/widgets/../core/lv_obj_style_gen.h ****     return (lv_text_decor_t)v.num;
 353:lvgl/lvgl/src/widgets/../core/lv_obj_style_gen.h **** }
 354:lvgl/lvgl/src/widgets/../core/lv_obj_style_gen.h **** 
 355:lvgl/lvgl/src/widgets/../core/lv_obj_style_gen.h **** static inline lv_text_align_t lv_obj_get_style_text_align(const struct _lv_obj_t * obj, uint32_t pa
 356:lvgl/lvgl/src/widgets/../core/lv_obj_style_gen.h **** {
 357:lvgl/lvgl/src/widgets/../core/lv_obj_style_gen.h ****     lv_style_value_t v = lv_obj_get_style_prop(obj, part, LV_STYLE_TEXT_ALIGN);
 358:lvgl/lvgl/src/widgets/../core/lv_obj_style_gen.h ****     return (lv_text_align_t)v.num;
 359:lvgl/lvgl/src/widgets/../core/lv_obj_style_gen.h **** }
 360:lvgl/lvgl/src/widgets/../core/lv_obj_style_gen.h **** 
 361:lvgl/lvgl/src/widgets/../core/lv_obj_style_gen.h **** static inline lv_opa_t lv_obj_get_style_img_opa(const struct _lv_obj_t * obj, uint32_t part)
 293              		.loc 2 361 24 view .LVU80
 294              	.LBB93:
 362:lvgl/lvgl/src/widgets/../core/lv_obj_style_gen.h **** {
 363:lvgl/lvgl/src/widgets/../core/lv_obj_style_gen.h ****     lv_style_value_t v = lv_obj_get_style_prop(obj, part, LV_STYLE_IMG_OPA);
 295              		.loc 2 363 5 view .LVU81
 296              		.loc 2 363 26 is_stmt 0 view .LVU82
ARM GAS  C:\Users\gx\AppData\Local\Temp\ccAHLVXI.s 			page 28


 297 005c 4622     		movs	r2, #70
 298 005e 0021     		movs	r1, #0
 299 0060 2046     		mov	r0, r4
 300              	.LVL24:
 301              		.loc 2 363 26 view .LVU83
 302 0062 FFF7FEFF 		bl	lv_obj_get_style_prop
 303              	.LVL25:
 364:lvgl/lvgl/src/widgets/../core/lv_obj_style_gen.h ****     return (lv_opa_t)v.num;
 304              		.loc 2 364 5 is_stmt 1 view .LVU84
 305              		.loc 2 364 12 is_stmt 0 view .LVU85
 306 0066 C0B2     		uxtb	r0, r0
 307              	.LVL26:
 308              		.loc 2 364 12 view .LVU86
 309              	.LBE93:
 310              	.LBE92:
 548:lvgl/lvgl/src/widgets/lv_img.c ****             info->res = LV_COVER_RES_NOT_COVER;
 311              		.loc 1 548 11 view .LVU87
 312 0068 FF28     		cmp	r0, #255
 313 006a 02D0     		beq	.L8
 549:lvgl/lvgl/src/widgets/lv_img.c ****             return;
 314              		.loc 1 549 13 is_stmt 1 view .LVU88
 549:lvgl/lvgl/src/widgets/lv_img.c ****             return;
 315              		.loc 1 549 23 is_stmt 0 view .LVU89
 316 006c 0123     		movs	r3, #1
 317 006e 2B70     		strb	r3, [r5]
 550:lvgl/lvgl/src/widgets/lv_img.c ****         }
 318              		.loc 1 550 13 is_stmt 1 view .LVU90
 319 0070 D9E7     		b	.L3
 320              	.L8:
 553:lvgl/lvgl/src/widgets/lv_img.c ****         angle_final += img->angle;
 321              		.loc 1 553 9 view .LVU91
 322              	.LVL27:
 323              	.LBB94:
 324              	.LBI94:
  85:lvgl/lvgl/src/widgets/../core/lv_obj_style_gen.h **** {
 325              		.loc 2 85 26 view .LVU92
 326              	.LBB95:
  87:lvgl/lvgl/src/widgets/../core/lv_obj_style_gen.h ****     return (lv_coord_t)v.num;
 327              		.loc 2 87 5 view .LVU93
  87:lvgl/lvgl/src/widgets/../core/lv_obj_style_gen.h ****     return (lv_coord_t)v.num;
 328              		.loc 2 87 26 is_stmt 0 view .LVU94
 329 0072 43F60F02 		movw	r2, #14351
 330 0076 0021     		movs	r1, #0
 331 0078 2046     		mov	r0, r4
 332 007a FFF7FEFF 		bl	lv_obj_get_style_prop
 333              	.LVL28:
  88:lvgl/lvgl/src/widgets/../core/lv_obj_style_gen.h **** }
 334              		.loc 2 88 5 is_stmt 1 view .LVU95
  88:lvgl/lvgl/src/widgets/../core/lv_obj_style_gen.h **** }
 335              		.loc 2 88 5 is_stmt 0 view .LVU96
 336              	.LBE95:
 337              	.LBE94:
 554:lvgl/lvgl/src/widgets/lv_img.c **** 
 338              		.loc 1 554 9 is_stmt 1 view .LVU97
 554:lvgl/lvgl/src/widgets/lv_img.c **** 
 339              		.loc 1 554 27 is_stmt 0 view .LVU98
 340 007e 238E     		ldrh	r3, [r4, #48]
ARM GAS  C:\Users\gx\AppData\Local\Temp\ccAHLVXI.s 			page 29


 554:lvgl/lvgl/src/widgets/lv_img.c **** 
 341              		.loc 1 554 21 view .LVU99
 342 0080 03FA80F0 		sxtah	r0, r3, r0
 343              	.LVL29:
 556:lvgl/lvgl/src/widgets/lv_img.c ****             info->res = LV_COVER_RES_NOT_COVER;
 344              		.loc 1 556 9 is_stmt 1 view .LVU100
 556:lvgl/lvgl/src/widgets/lv_img.c ****             info->res = LV_COVER_RES_NOT_COVER;
 345              		.loc 1 556 11 is_stmt 0 view .LVU101
 346 0084 10B1     		cbz	r0, .L9
 557:lvgl/lvgl/src/widgets/lv_img.c ****             return;
 347              		.loc 1 557 13 is_stmt 1 view .LVU102
 557:lvgl/lvgl/src/widgets/lv_img.c ****             return;
 348              		.loc 1 557 23 is_stmt 0 view .LVU103
 349 0086 0123     		movs	r3, #1
 350 0088 2B70     		strb	r3, [r5]
 558:lvgl/lvgl/src/widgets/lv_img.c ****         }
 351              		.loc 1 558 13 is_stmt 1 view .LVU104
 352 008a CCE7     		b	.L3
 353              	.L9:
 561:lvgl/lvgl/src/widgets/lv_img.c ****         zoom_final = (zoom_final * img->zoom) >> 8;
 354              		.loc 1 561 9 view .LVU105
 355              	.LVL30:
 356              	.LBB96:
 357              	.LBI96:
  79:lvgl/lvgl/src/widgets/../core/lv_obj_style_gen.h **** {
 358              		.loc 2 79 26 view .LVU106
 359              	.LBB97:
  81:lvgl/lvgl/src/widgets/../core/lv_obj_style_gen.h ****     return (lv_coord_t)v.num;
 360              		.loc 2 81 5 view .LVU107
  81:lvgl/lvgl/src/widgets/../core/lv_obj_style_gen.h ****     return (lv_coord_t)v.num;
 361              		.loc 2 81 26 is_stmt 0 view .LVU108
 362 008c 43F60E02 		movw	r2, #14350
 363 0090 0021     		movs	r1, #0
 364 0092 2046     		mov	r0, r4
 365              	.LVL31:
  81:lvgl/lvgl/src/widgets/../core/lv_obj_style_gen.h ****     return (lv_coord_t)v.num;
 366              		.loc 2 81 26 view .LVU109
 367 0094 FFF7FEFF 		bl	lv_obj_get_style_prop
 368              	.LVL32:
  82:lvgl/lvgl/src/widgets/../core/lv_obj_style_gen.h **** }
 369              		.loc 2 82 5 is_stmt 1 view .LVU110
  82:lvgl/lvgl/src/widgets/../core/lv_obj_style_gen.h **** }
 370              		.loc 2 82 12 is_stmt 0 view .LVU111
 371 0098 07B2     		sxth	r7, r0
 372              	.LVL33:
  82:lvgl/lvgl/src/widgets/../core/lv_obj_style_gen.h **** }
 373              		.loc 2 82 12 view .LVU112
 374              	.LBE97:
 375              	.LBE96:
 562:lvgl/lvgl/src/widgets/lv_img.c **** 
 376              		.loc 1 562 9 is_stmt 1 view .LVU113
 562:lvgl/lvgl/src/widgets/lv_img.c **** 
 377              		.loc 1 562 39 is_stmt 0 view .LVU114
 378 009a E38E     		ldrh	r3, [r4, #54]
 562:lvgl/lvgl/src/widgets/lv_img.c **** 
 379              		.loc 1 562 34 view .LVU115
 380 009c 07FB03F7 		mul	r7, r7, r3
ARM GAS  C:\Users\gx\AppData\Local\Temp\ccAHLVXI.s 			page 30


 381              	.LVL34:
 562:lvgl/lvgl/src/widgets/lv_img.c **** 
 382              		.loc 1 562 20 view .LVU116
 383 00a0 3F12     		asrs	r7, r7, #8
 384              	.LVL35:
 564:lvgl/lvgl/src/widgets/lv_img.c ****         if(zoom_final == LV_IMG_ZOOM_NONE) {
 385              		.loc 1 564 9 is_stmt 1 view .LVU117
 564:lvgl/lvgl/src/widgets/lv_img.c ****         if(zoom_final == LV_IMG_ZOOM_NONE) {
 386              		.loc 1 564 39 is_stmt 0 view .LVU118
 387 00a2 3046     		mov	r0, r6
 388 00a4 FFF7FEFF 		bl	lv_event_get_param
 389              	.LVL36:
 390 00a8 0646     		mov	r6, r0
 391              	.LVL37:
 565:lvgl/lvgl/src/widgets/lv_img.c ****             if(_lv_area_is_in(clip_area, &obj->coords, 0) == false) {
 392              		.loc 1 565 9 is_stmt 1 view .LVU119
 565:lvgl/lvgl/src/widgets/lv_img.c ****             if(_lv_area_is_in(clip_area, &obj->coords, 0) == false) {
 393              		.loc 1 565 11 is_stmt 0 view .LVU120
 394 00aa B7F5807F 		cmp	r7, #256
 395 00ae 31D0     		beq	.L32
 396              	.LBB98:
 572:lvgl/lvgl/src/widgets/lv_img.c ****             _lv_img_buf_get_transformed_area(&a, lv_obj_get_width(obj), lv_obj_get_height(obj), 0, 
 397              		.loc 1 572 13 is_stmt 1 view .LVU121
 573:lvgl/lvgl/src/widgets/lv_img.c ****             a.x1 += obj->coords.x1;
 398              		.loc 1 573 13 view .LVU122
 399 00b0 2046     		mov	r0, r4
 400              	.LVL38:
 573:lvgl/lvgl/src/widgets/lv_img.c ****             a.x1 += obj->coords.x1;
 401              		.loc 1 573 13 is_stmt 0 view .LVU123
 402 00b2 FFF7FEFF 		bl	lv_obj_get_width
 403              	.LVL39:
 404 00b6 8046     		mov	r8, r0
 405 00b8 2046     		mov	r0, r4
 406 00ba FFF7FEFF 		bl	lv_obj_get_height
 407              	.LVL40:
 408 00be 0246     		mov	r2, r0
 573:lvgl/lvgl/src/widgets/lv_img.c ****             a.x1 += obj->coords.x1;
 409              		.loc 1 573 112 view .LVU124
 410 00c0 04F13203 		add	r3, r4, #50
 573:lvgl/lvgl/src/widgets/lv_img.c ****             a.x1 += obj->coords.x1;
 411              		.loc 1 573 13 view .LVU125
 412 00c4 0193     		str	r3, [sp, #4]
 413 00c6 BFB2     		uxth	r7, r7
 414              	.LVL41:
 573:lvgl/lvgl/src/widgets/lv_img.c ****             a.x1 += obj->coords.x1;
 415              		.loc 1 573 13 view .LVU126
 416 00c8 0097     		str	r7, [sp]
 417 00ca 0023     		movs	r3, #0
 418 00cc 4146     		mov	r1, r8
 419 00ce 14A8     		add	r0, sp, #80
 420 00d0 FFF7FEFF 		bl	_lv_img_buf_get_transformed_area
 421              	.LVL42:
 574:lvgl/lvgl/src/widgets/lv_img.c ****             a.y1 += obj->coords.y1;
 422              		.loc 1 574 13 is_stmt 1 view .LVU127
 574:lvgl/lvgl/src/widgets/lv_img.c ****             a.y1 += obj->coords.y1;
 423              		.loc 1 574 32 is_stmt 0 view .LVU128
 424 00d4 A28A     		ldrh	r2, [r4, #20]
ARM GAS  C:\Users\gx\AppData\Local\Temp\ccAHLVXI.s 			page 31


 574:lvgl/lvgl/src/widgets/lv_img.c ****             a.y1 += obj->coords.y1;
 425              		.loc 1 574 18 view .LVU129
 426 00d6 BDF85030 		ldrh	r3, [sp, #80]
 427 00da 1344     		add	r3, r3, r2
 428 00dc ADF85030 		strh	r3, [sp, #80]	@ movhi
 575:lvgl/lvgl/src/widgets/lv_img.c ****             a.x2 += obj->coords.x1;
 429              		.loc 1 575 13 is_stmt 1 view .LVU130
 575:lvgl/lvgl/src/widgets/lv_img.c ****             a.x2 += obj->coords.x1;
 430              		.loc 1 575 32 is_stmt 0 view .LVU131
 431 00e0 E38A     		ldrh	r3, [r4, #22]
 575:lvgl/lvgl/src/widgets/lv_img.c ****             a.x2 += obj->coords.x1;
 432              		.loc 1 575 18 view .LVU132
 433 00e2 BDF85210 		ldrh	r1, [sp, #82]
 434 00e6 1944     		add	r1, r1, r3
 435 00e8 ADF85210 		strh	r1, [sp, #82]	@ movhi
 576:lvgl/lvgl/src/widgets/lv_img.c ****             a.y2 += obj->coords.y1;
 436              		.loc 1 576 13 is_stmt 1 view .LVU133
 576:lvgl/lvgl/src/widgets/lv_img.c ****             a.y2 += obj->coords.y1;
 437              		.loc 1 576 18 is_stmt 0 view .LVU134
 438 00ec BDF85410 		ldrh	r1, [sp, #84]
 439 00f0 0A44     		add	r2, r2, r1
 440 00f2 ADF85420 		strh	r2, [sp, #84]	@ movhi
 577:lvgl/lvgl/src/widgets/lv_img.c **** 
 441              		.loc 1 577 13 is_stmt 1 view .LVU135
 577:lvgl/lvgl/src/widgets/lv_img.c **** 
 442              		.loc 1 577 18 is_stmt 0 view .LVU136
 443 00f6 BDF85620 		ldrh	r2, [sp, #86]
 444 00fa 1344     		add	r3, r3, r2
 445 00fc ADF85630 		strh	r3, [sp, #86]	@ movhi
 579:lvgl/lvgl/src/widgets/lv_img.c ****                 info->res = LV_COVER_RES_NOT_COVER;
 446              		.loc 1 579 13 is_stmt 1 view .LVU137
 579:lvgl/lvgl/src/widgets/lv_img.c ****                 info->res = LV_COVER_RES_NOT_COVER;
 447              		.loc 1 579 16 is_stmt 0 view .LVU138
 448 0100 0022     		movs	r2, #0
 449 0102 14A9     		add	r1, sp, #80
 450 0104 3046     		mov	r0, r6
 451 0106 FFF7FEFF 		bl	_lv_area_is_in
 452              	.LVL43:
 579:lvgl/lvgl/src/widgets/lv_img.c ****                 info->res = LV_COVER_RES_NOT_COVER;
 453              		.loc 1 579 15 view .LVU139
 454 010a 0028     		cmp	r0, #0
 455 010c 8BD1     		bne	.L3
 580:lvgl/lvgl/src/widgets/lv_img.c ****                 return;
 456              		.loc 1 580 17 is_stmt 1 view .LVU140
 580:lvgl/lvgl/src/widgets/lv_img.c ****                 return;
 457              		.loc 1 580 27 is_stmt 0 view .LVU141
 458 010e 0123     		movs	r3, #1
 459 0110 2B70     		strb	r3, [r5]
 581:lvgl/lvgl/src/widgets/lv_img.c ****             }
 460              		.loc 1 581 17 is_stmt 1 view .LVU142
 461 0112 88E7     		b	.L3
 462              	.LVL44:
 463              	.L32:
 581:lvgl/lvgl/src/widgets/lv_img.c ****             }
 464              		.loc 1 581 17 is_stmt 0 view .LVU143
 465              	.LBE98:
 566:lvgl/lvgl/src/widgets/lv_img.c ****                 info->res = LV_COVER_RES_NOT_COVER;
ARM GAS  C:\Users\gx\AppData\Local\Temp\ccAHLVXI.s 			page 32


 466              		.loc 1 566 13 is_stmt 1 view .LVU144
 566:lvgl/lvgl/src/widgets/lv_img.c ****                 info->res = LV_COVER_RES_NOT_COVER;
 467              		.loc 1 566 16 is_stmt 0 view .LVU145
 468 0114 0022     		movs	r2, #0
 469 0116 04F11401 		add	r1, r4, #20
 470 011a FFF7FEFF 		bl	_lv_area_is_in
 471              	.LVL45:
 566:lvgl/lvgl/src/widgets/lv_img.c ****                 info->res = LV_COVER_RES_NOT_COVER;
 472              		.loc 1 566 15 view .LVU146
 473 011e 0028     		cmp	r0, #0
 474 0120 81D1     		bne	.L3
 567:lvgl/lvgl/src/widgets/lv_img.c ****                 return;
 475              		.loc 1 567 17 is_stmt 1 view .LVU147
 567:lvgl/lvgl/src/widgets/lv_img.c ****                 return;
 476              		.loc 1 567 27 is_stmt 0 view .LVU148
 477 0122 0123     		movs	r3, #1
 478 0124 2B70     		strb	r3, [r5]
 568:lvgl/lvgl/src/widgets/lv_img.c ****             }
 479              		.loc 1 568 17 is_stmt 1 view .LVU149
 480 0126 7EE7     		b	.L3
 481              	.LVL46:
 482              	.L12:
 568:lvgl/lvgl/src/widgets/lv_img.c ****             }
 483              		.loc 1 568 17 is_stmt 0 view .LVU150
 484              	.LBE91:
 485              	.LBB99:
 587:lvgl/lvgl/src/widgets/lv_img.c ****         zoom_final = (zoom_final * img->zoom) >> 8;
 486              		.loc 1 587 9 is_stmt 1 view .LVU151
 487              	.LBB100:
 488              	.LBI100:
  79:lvgl/lvgl/src/widgets/../core/lv_obj_style_gen.h **** {
 489              		.loc 2 79 26 view .LVU152
 490              	.LBB101:
  81:lvgl/lvgl/src/widgets/../core/lv_obj_style_gen.h ****     return (lv_coord_t)v.num;
 491              		.loc 2 81 5 view .LVU153
  81:lvgl/lvgl/src/widgets/../core/lv_obj_style_gen.h ****     return (lv_coord_t)v.num;
 492              		.loc 2 81 26 is_stmt 0 view .LVU154
 493 0128 43F60E02 		movw	r2, #14350
 494 012c 0021     		movs	r1, #0
 495 012e 2046     		mov	r0, r4
 496              	.LVL47:
  81:lvgl/lvgl/src/widgets/../core/lv_obj_style_gen.h ****     return (lv_coord_t)v.num;
 497              		.loc 2 81 26 view .LVU155
 498 0130 FFF7FEFF 		bl	lv_obj_get_style_prop
 499              	.LVL48:
  82:lvgl/lvgl/src/widgets/../core/lv_obj_style_gen.h **** }
 500              		.loc 2 82 5 is_stmt 1 view .LVU156
  82:lvgl/lvgl/src/widgets/../core/lv_obj_style_gen.h **** }
 501              		.loc 2 82 12 is_stmt 0 view .LVU157
 502 0134 00B2     		sxth	r0, r0
 503              	.LVL49:
  82:lvgl/lvgl/src/widgets/../core/lv_obj_style_gen.h **** }
 504              		.loc 2 82 12 view .LVU158
 505              	.LBE101:
 506              	.LBE100:
 588:lvgl/lvgl/src/widgets/lv_img.c **** 
 507              		.loc 1 588 9 is_stmt 1 view .LVU159
ARM GAS  C:\Users\gx\AppData\Local\Temp\ccAHLVXI.s 			page 33


 588:lvgl/lvgl/src/widgets/lv_img.c **** 
 508              		.loc 1 588 39 is_stmt 0 view .LVU160
 509 0136 E38E     		ldrh	r3, [r4, #54]
 588:lvgl/lvgl/src/widgets/lv_img.c **** 
 510              		.loc 1 588 34 view .LVU161
 511 0138 00FB03F0 		mul	r0, r0, r3
 512              	.LVL50:
 588:lvgl/lvgl/src/widgets/lv_img.c **** 
 513              		.loc 1 588 20 view .LVU162
 514 013c 0312     		asrs	r3, r0, #8
 515 013e 0393     		str	r3, [sp, #12]
 516              	.LVL51:
 590:lvgl/lvgl/src/widgets/lv_img.c ****         angle_final += img->angle;
 517              		.loc 1 590 9 is_stmt 1 view .LVU163
 518              	.LBB102:
 519              	.LBI102:
  85:lvgl/lvgl/src/widgets/../core/lv_obj_style_gen.h **** {
 520              		.loc 2 85 26 view .LVU164
 521              	.LBB103:
  87:lvgl/lvgl/src/widgets/../core/lv_obj_style_gen.h ****     return (lv_coord_t)v.num;
 522              		.loc 2 87 5 view .LVU165
  87:lvgl/lvgl/src/widgets/../core/lv_obj_style_gen.h ****     return (lv_coord_t)v.num;
 523              		.loc 2 87 26 is_stmt 0 view .LVU166
 524 0140 43F60F02 		movw	r2, #14351
 525 0144 0021     		movs	r1, #0
 526 0146 2046     		mov	r0, r4
 527 0148 FFF7FEFF 		bl	lv_obj_get_style_prop
 528              	.LVL52:
  88:lvgl/lvgl/src/widgets/../core/lv_obj_style_gen.h **** }
 529              		.loc 2 88 5 is_stmt 1 view .LVU167
  88:lvgl/lvgl/src/widgets/../core/lv_obj_style_gen.h **** }
 530              		.loc 2 88 5 is_stmt 0 view .LVU168
 531              	.LBE103:
 532              	.LBE102:
 591:lvgl/lvgl/src/widgets/lv_img.c **** 
 533              		.loc 1 591 9 is_stmt 1 view .LVU169
 591:lvgl/lvgl/src/widgets/lv_img.c **** 
 534              		.loc 1 591 27 is_stmt 0 view .LVU170
 535 014c 238E     		ldrh	r3, [r4, #48]
 591:lvgl/lvgl/src/widgets/lv_img.c **** 
 536              		.loc 1 591 21 view .LVU171
 537 014e 03FA80F3 		sxtah	r3, r3, r0
 538 0152 0493     		str	r3, [sp, #16]
 539              	.LVL53:
 593:lvgl/lvgl/src/widgets/lv_img.c ****         lv_coord_t obj_h = lv_obj_get_height(obj);
 540              		.loc 1 593 9 is_stmt 1 view .LVU172
 593:lvgl/lvgl/src/widgets/lv_img.c ****         lv_coord_t obj_h = lv_obj_get_height(obj);
 541              		.loc 1 593 28 is_stmt 0 view .LVU173
 542 0154 2046     		mov	r0, r4
 543 0156 FFF7FEFF 		bl	lv_obj_get_width
 544              	.LVL54:
 593:lvgl/lvgl/src/widgets/lv_img.c ****         lv_coord_t obj_h = lv_obj_get_height(obj);
 545              		.loc 1 593 28 view .LVU174
 546 015a 8146     		mov	r9, r0
 547              	.LVL55:
 594:lvgl/lvgl/src/widgets/lv_img.c **** 
 548              		.loc 1 594 9 is_stmt 1 view .LVU175
ARM GAS  C:\Users\gx\AppData\Local\Temp\ccAHLVXI.s 			page 34


 594:lvgl/lvgl/src/widgets/lv_img.c **** 
 549              		.loc 1 594 28 is_stmt 0 view .LVU176
 550 015c 2046     		mov	r0, r4
 551 015e FFF7FEFF 		bl	lv_obj_get_height
 552              	.LVL56:
 553 0162 8246     		mov	r10, r0
 554              	.LVL57:
 596:lvgl/lvgl/src/widgets/lv_img.c ****         lv_coord_t pleft = lv_obj_get_style_pad_left(obj, LV_PART_MAIN) + border_width;
 555              		.loc 1 596 9 is_stmt 1 view .LVU177
 556              	.LBB104:
 557              	.LBI104:
 295:lvgl/lvgl/src/widgets/../core/lv_obj_style_gen.h **** {
 558              		.loc 2 295 26 view .LVU178
 559              	.LBB105:
 297:lvgl/lvgl/src/widgets/../core/lv_obj_style_gen.h ****     return (lv_coord_t)v.num;
 560              		.loc 2 297 5 view .LVU179
 297:lvgl/lvgl/src/widgets/../core/lv_obj_style_gen.h ****     return (lv_coord_t)v.num;
 561              		.loc 2 297 26 is_stmt 0 view .LVU180
 562 0164 41F23202 		movw	r2, #4146
 563 0168 0021     		movs	r1, #0
 564 016a 2046     		mov	r0, r4
 565 016c FFF7FEFF 		bl	lv_obj_get_style_prop
 566              	.LVL58:
 567 0170 8046     		mov	r8, r0
 568              	.LVL59:
 298:lvgl/lvgl/src/widgets/../core/lv_obj_style_gen.h **** }
 569              		.loc 2 298 5 is_stmt 1 view .LVU181
 298:lvgl/lvgl/src/widgets/../core/lv_obj_style_gen.h **** }
 570              		.loc 2 298 5 is_stmt 0 view .LVU182
 571              	.LBE105:
 572              	.LBE104:
 597:lvgl/lvgl/src/widgets/lv_img.c ****         lv_coord_t pright = lv_obj_get_style_pad_right(obj, LV_PART_MAIN) + border_width;
 573              		.loc 1 597 9 is_stmt 1 view .LVU183
 574              	.LBB106:
 575              	.LBI106:
 103:lvgl/lvgl/src/widgets/../core/lv_obj_style_gen.h **** {
 576              		.loc 2 103 26 view .LVU184
 577              	.LBB107:
 105:lvgl/lvgl/src/widgets/../core/lv_obj_style_gen.h ****     return (lv_coord_t)v.num;
 578              		.loc 2 105 5 view .LVU185
 105:lvgl/lvgl/src/widgets/../core/lv_obj_style_gen.h ****     return (lv_coord_t)v.num;
 579              		.loc 2 105 26 is_stmt 0 view .LVU186
 580 0172 41F21202 		movw	r2, #4114
 581 0176 0021     		movs	r1, #0
 582 0178 2046     		mov	r0, r4
 583 017a FFF7FEFF 		bl	lv_obj_get_style_prop
 584              	.LVL60:
 106:lvgl/lvgl/src/widgets/../core/lv_obj_style_gen.h **** }
 585              		.loc 2 106 5 is_stmt 1 view .LVU187
 106:lvgl/lvgl/src/widgets/../core/lv_obj_style_gen.h **** }
 586              		.loc 2 106 5 is_stmt 0 view .LVU188
 587              	.LBE107:
 588              	.LBE106:
 597:lvgl/lvgl/src/widgets/lv_img.c ****         lv_coord_t pright = lv_obj_get_style_pad_right(obj, LV_PART_MAIN) + border_width;
 589              		.loc 1 597 73 view .LVU189
 590 017e 1FFA88F8 		uxth	r8, r8
 597:lvgl/lvgl/src/widgets/lv_img.c ****         lv_coord_t pright = lv_obj_get_style_pad_right(obj, LV_PART_MAIN) + border_width;
ARM GAS  C:\Users\gx\AppData\Local\Temp\ccAHLVXI.s 			page 35


 591              		.loc 1 597 73 view .LVU190
 592 0182 18FA80F0 		uxtah	r0, r8, r0
 593 0186 1FFA80FB 		uxth	fp, r0
 594              	.LVL61:
 598:lvgl/lvgl/src/widgets/lv_img.c ****         lv_coord_t ptop = lv_obj_get_style_pad_top(obj, LV_PART_MAIN) + border_width;
 595              		.loc 1 598 9 is_stmt 1 view .LVU191
 596              	.LBB108:
 597              	.LBI108:
 109:lvgl/lvgl/src/widgets/../core/lv_obj_style_gen.h **** {
 598              		.loc 2 109 26 view .LVU192
 599              	.LBB109:
 111:lvgl/lvgl/src/widgets/../core/lv_obj_style_gen.h ****     return (lv_coord_t)v.num;
 600              		.loc 2 111 5 view .LVU193
 111:lvgl/lvgl/src/widgets/../core/lv_obj_style_gen.h ****     return (lv_coord_t)v.num;
 601              		.loc 2 111 26 is_stmt 0 view .LVU194
 602 018a 41F21302 		movw	r2, #4115
 603 018e 0021     		movs	r1, #0
 604 0190 2046     		mov	r0, r4
 605 0192 FFF7FEFF 		bl	lv_obj_get_style_prop
 606              	.LVL62:
 112:lvgl/lvgl/src/widgets/../core/lv_obj_style_gen.h **** }
 607              		.loc 2 112 5 is_stmt 1 view .LVU195
 112:lvgl/lvgl/src/widgets/../core/lv_obj_style_gen.h **** }
 608              		.loc 2 112 5 is_stmt 0 view .LVU196
 609              	.LBE109:
 610              	.LBE108:
 598:lvgl/lvgl/src/widgets/lv_img.c ****         lv_coord_t ptop = lv_obj_get_style_pad_top(obj, LV_PART_MAIN) + border_width;
 611              		.loc 1 598 75 view .LVU197
 612 0196 18FA80F0 		uxtah	r0, r8, r0
 613 019a 83B2     		uxth	r3, r0
 614 019c 0693     		str	r3, [sp, #24]
 615              	.LVL63:
 599:lvgl/lvgl/src/widgets/lv_img.c ****         lv_coord_t pbottom = lv_obj_get_style_pad_bottom(obj, LV_PART_MAIN) + border_width;
 616              		.loc 1 599 9 is_stmt 1 view .LVU198
 617              	.LBB110:
 618              	.LBI110:
  91:lvgl/lvgl/src/widgets/../core/lv_obj_style_gen.h **** {
 619              		.loc 2 91 26 view .LVU199
 620              	.LBB111:
  93:lvgl/lvgl/src/widgets/../core/lv_obj_style_gen.h ****     return (lv_coord_t)v.num;
 621              		.loc 2 93 5 view .LVU200
  93:lvgl/lvgl/src/widgets/../core/lv_obj_style_gen.h ****     return (lv_coord_t)v.num;
 622              		.loc 2 93 26 is_stmt 0 view .LVU201
 623 019e 41F21002 		movw	r2, #4112
 624 01a2 0021     		movs	r1, #0
 625 01a4 2046     		mov	r0, r4
 626 01a6 FFF7FEFF 		bl	lv_obj_get_style_prop
 627              	.LVL64:
  94:lvgl/lvgl/src/widgets/../core/lv_obj_style_gen.h **** }
 628              		.loc 2 94 5 is_stmt 1 view .LVU202
  94:lvgl/lvgl/src/widgets/../core/lv_obj_style_gen.h **** }
 629              		.loc 2 94 5 is_stmt 0 view .LVU203
 630              	.LBE111:
 631              	.LBE110:
 599:lvgl/lvgl/src/widgets/lv_img.c ****         lv_coord_t pbottom = lv_obj_get_style_pad_bottom(obj, LV_PART_MAIN) + border_width;
 632              		.loc 1 599 71 view .LVU204
 633 01aa 18FA80F7 		uxtah	r7, r8, r0
ARM GAS  C:\Users\gx\AppData\Local\Temp\ccAHLVXI.s 			page 36


 634 01ae BFB2     		uxth	r7, r7
 635              	.LVL65:
 600:lvgl/lvgl/src/widgets/lv_img.c **** 
 636              		.loc 1 600 9 is_stmt 1 view .LVU205
 637              	.LBB112:
 638              	.LBI112:
  97:lvgl/lvgl/src/widgets/../core/lv_obj_style_gen.h **** {
 639              		.loc 2 97 26 view .LVU206
 640              	.LBB113:
  99:lvgl/lvgl/src/widgets/../core/lv_obj_style_gen.h ****     return (lv_coord_t)v.num;
 641              		.loc 2 99 5 view .LVU207
  99:lvgl/lvgl/src/widgets/../core/lv_obj_style_gen.h ****     return (lv_coord_t)v.num;
 642              		.loc 2 99 26 is_stmt 0 view .LVU208
 643 01b0 41F21102 		movw	r2, #4113
 644 01b4 0021     		movs	r1, #0
 645 01b6 2046     		mov	r0, r4
 646 01b8 FFF7FEFF 		bl	lv_obj_get_style_prop
 647              	.LVL66:
 100:lvgl/lvgl/src/widgets/../core/lv_obj_style_gen.h **** }
 648              		.loc 2 100 5 is_stmt 1 view .LVU209
 100:lvgl/lvgl/src/widgets/../core/lv_obj_style_gen.h **** }
 649              		.loc 2 100 5 is_stmt 0 view .LVU210
 650              	.LBE113:
 651              	.LBE112:
 600:lvgl/lvgl/src/widgets/lv_img.c **** 
 652              		.loc 1 600 77 view .LVU211
 653 01bc 18FA80F8 		uxtah	r8, r8, r0
 654              	.LVL67:
 600:lvgl/lvgl/src/widgets/lv_img.c **** 
 655              		.loc 1 600 77 view .LVU212
 656 01c0 1FFA88F3 		uxth	r3, r8
 657 01c4 0793     		str	r3, [sp, #28]
 658              	.LVL68:
 602:lvgl/lvgl/src/widgets/lv_img.c ****         bg_pivot.x = img->pivot.x + pleft;
 659              		.loc 1 602 9 is_stmt 1 view .LVU213
 603:lvgl/lvgl/src/widgets/lv_img.c ****         bg_pivot.y = img->pivot.y + ptop;
 660              		.loc 1 603 9 view .LVU214
 603:lvgl/lvgl/src/widgets/lv_img.c ****         bg_pivot.y = img->pivot.y + ptop;
 661              		.loc 1 603 32 is_stmt 0 view .LVU215
 662 01c6 638E     		ldrh	r3, [r4, #50]
 603:lvgl/lvgl/src/widgets/lv_img.c ****         bg_pivot.y = img->pivot.y + ptop;
 663              		.loc 1 603 35 view .LVU216
 664 01c8 5B44     		add	r3, r3, fp
 603:lvgl/lvgl/src/widgets/lv_img.c ****         bg_pivot.y = img->pivot.y + ptop;
 665              		.loc 1 603 20 view .LVU217
 666 01ca ADF82830 		strh	r3, [sp, #40]	@ movhi
 604:lvgl/lvgl/src/widgets/lv_img.c ****         lv_area_t bg_coords;
 667              		.loc 1 604 9 is_stmt 1 view .LVU218
 604:lvgl/lvgl/src/widgets/lv_img.c ****         lv_area_t bg_coords;
 668              		.loc 1 604 32 is_stmt 0 view .LVU219
 669 01ce A38E     		ldrh	r3, [r4, #52]
 604:lvgl/lvgl/src/widgets/lv_img.c ****         lv_area_t bg_coords;
 670              		.loc 1 604 35 view .LVU220
 671 01d0 3B44     		add	r3, r3, r7
 604:lvgl/lvgl/src/widgets/lv_img.c ****         lv_area_t bg_coords;
 672              		.loc 1 604 20 view .LVU221
 673 01d2 ADF82A30 		strh	r3, [sp, #42]	@ movhi
ARM GAS  C:\Users\gx\AppData\Local\Temp\ccAHLVXI.s 			page 37


 605:lvgl/lvgl/src/widgets/lv_img.c **** 
 674              		.loc 1 605 9 is_stmt 1 view .LVU222
 607:lvgl/lvgl/src/widgets/lv_img.c ****             /*Object size equals to transformed image size*/
 675              		.loc 1 607 9 view .LVU223
 607:lvgl/lvgl/src/widgets/lv_img.c ****             /*Object size equals to transformed image size*/
 676              		.loc 1 607 32 is_stmt 0 view .LVU224
 677 01d6 94F83930 		ldrb	r3, [r4, #57]	@ zero_extendqisi2
 678 01da 03F00303 		and	r3, r3, #3
 607:lvgl/lvgl/src/widgets/lv_img.c ****             /*Object size equals to transformed image size*/
 679              		.loc 1 607 12 view .LVU225
 680 01de 012B     		cmp	r3, #1
 681 01e0 00F0C280 		beq	.L33
 612:lvgl/lvgl/src/widgets/lv_img.c ****                     angle_final, zoom_final, &bg_pivot);
 682              		.loc 1 612 13 is_stmt 1 view .LVU226
 683 01e4 0AAB     		add	r3, sp, #40
 684 01e6 0193     		str	r3, [sp, #4]
 685 01e8 BDF80C30 		ldrh	r3, [sp, #12]
 686 01ec 0093     		str	r3, [sp]
 687 01ee BDF91030 		ldrsh	r3, [sp, #16]
 688 01f2 5246     		mov	r2, r10
 689 01f4 4946     		mov	r1, r9
 690 01f6 0CA8     		add	r0, sp, #48
 691 01f8 FFF7FEFF 		bl	_lv_img_buf_get_transformed_area
 692              	.LVL69:
 616:lvgl/lvgl/src/widgets/lv_img.c ****             bg_coords.y1 += obj->coords.y1;
 693              		.loc 1 616 13 view .LVU227
 616:lvgl/lvgl/src/widgets/lv_img.c ****             bg_coords.y1 += obj->coords.y1;
 694              		.loc 1 616 40 is_stmt 0 view .LVU228
 695 01fc A28A     		ldrh	r2, [r4, #20]
 616:lvgl/lvgl/src/widgets/lv_img.c ****             bg_coords.y1 += obj->coords.y1;
 696              		.loc 1 616 26 view .LVU229
 697 01fe BDF83030 		ldrh	r3, [sp, #48]
 698 0202 1344     		add	r3, r3, r2
 699 0204 ADF83030 		strh	r3, [sp, #48]	@ movhi
 617:lvgl/lvgl/src/widgets/lv_img.c ****             bg_coords.x2 += obj->coords.x1;
 700              		.loc 1 617 13 is_stmt 1 view .LVU230
 617:lvgl/lvgl/src/widgets/lv_img.c ****             bg_coords.x2 += obj->coords.x1;
 701              		.loc 1 617 40 is_stmt 0 view .LVU231
 702 0208 E38A     		ldrh	r3, [r4, #22]
 617:lvgl/lvgl/src/widgets/lv_img.c ****             bg_coords.x2 += obj->coords.x1;
 703              		.loc 1 617 26 view .LVU232
 704 020a BDF83210 		ldrh	r1, [sp, #50]
 705 020e 1944     		add	r1, r1, r3
 706 0210 ADF83210 		strh	r1, [sp, #50]	@ movhi
 618:lvgl/lvgl/src/widgets/lv_img.c ****             bg_coords.y2 += obj->coords.y1;
 707              		.loc 1 618 13 is_stmt 1 view .LVU233
 618:lvgl/lvgl/src/widgets/lv_img.c ****             bg_coords.y2 += obj->coords.y1;
 708              		.loc 1 618 26 is_stmt 0 view .LVU234
 709 0214 BDF83410 		ldrh	r1, [sp, #52]
 710 0218 0A44     		add	r2, r2, r1
 711 021a ADF83420 		strh	r2, [sp, #52]	@ movhi
 619:lvgl/lvgl/src/widgets/lv_img.c ****         }
 712              		.loc 1 619 13 is_stmt 1 view .LVU235
 619:lvgl/lvgl/src/widgets/lv_img.c ****         }
 713              		.loc 1 619 26 is_stmt 0 view .LVU236
 714 021e BDF83620 		ldrh	r2, [sp, #54]
 715 0222 1344     		add	r3, r3, r2
ARM GAS  C:\Users\gx\AppData\Local\Temp\ccAHLVXI.s 			page 38


 716 0224 ADF83630 		strh	r3, [sp, #54]	@ movhi
 717              	.L14:
 622:lvgl/lvgl/src/widgets/lv_img.c ****         lv_area_copy(&ori_coords, &obj->coords);
 718              		.loc 1 622 9 is_stmt 1 view .LVU237
 623:lvgl/lvgl/src/widgets/lv_img.c ****         lv_area_copy(&obj->coords, &bg_coords);
 719              		.loc 1 623 9 view .LVU238
 720              	.LVL70:
 721              	.LBB114:
 722              	.LBI114:
 120:d:\practise\f407_disc\lvgl\lvgl\src\misc\lv_area.h **** {
 723              		.loc 3 120 20 view .LVU239
 724              	.LBB115:
 122:d:\practise\f407_disc\lvgl\lvgl\src\misc\lv_area.h ****     dest->y1 = src->y1;
 725              		.loc 3 122 5 view .LVU240
 122:d:\practise\f407_disc\lvgl\lvgl\src\misc\lv_area.h ****     dest->y1 = src->y1;
 726              		.loc 3 122 19 is_stmt 0 view .LVU241
 727 0228 B4F91430 		ldrsh	r3, [r4, #20]
 728 022c 0593     		str	r3, [sp, #20]
 123:d:\practise\f407_disc\lvgl\lvgl\src\misc\lv_area.h ****     dest->x2 = src->x2;
 729              		.loc 3 123 5 is_stmt 1 view .LVU242
 123:d:\practise\f407_disc\lvgl\lvgl\src\misc\lv_area.h ****     dest->x2 = src->x2;
 730              		.loc 3 123 19 is_stmt 0 view .LVU243
 731 022e B4F916A0 		ldrsh	r10, [r4, #22]
 732              	.LVL71:
 124:d:\practise\f407_disc\lvgl\lvgl\src\misc\lv_area.h ****     dest->y2 = src->y2;
 733              		.loc 3 124 5 is_stmt 1 view .LVU244
 124:d:\practise\f407_disc\lvgl\lvgl\src\misc\lv_area.h ****     dest->y2 = src->y2;
 734              		.loc 3 124 19 is_stmt 0 view .LVU245
 735 0232 B4F91890 		ldrsh	r9, [r4, #24]
 736              	.LVL72:
 125:d:\practise\f407_disc\lvgl\lvgl\src\misc\lv_area.h **** }
 737              		.loc 3 125 5 is_stmt 1 view .LVU246
 125:d:\practise\f407_disc\lvgl\lvgl\src\misc\lv_area.h **** }
 738              		.loc 3 125 19 is_stmt 0 view .LVU247
 739 0236 B4F91A80 		ldrsh	r8, [r4, #26]
 740              	.LVL73:
 125:d:\practise\f407_disc\lvgl\lvgl\src\misc\lv_area.h **** }
 741              		.loc 3 125 19 view .LVU248
 742              	.LBE115:
 743              	.LBE114:
 624:lvgl/lvgl/src/widgets/lv_img.c **** 
 744              		.loc 1 624 9 is_stmt 1 view .LVU249
 745 023a 04F11402 		add	r2, r4, #20
 746 023e 0892     		str	r2, [sp, #32]
 747              	.LVL74:
 748              	.LBB116:
 749              	.LBI116:
 120:d:\practise\f407_disc\lvgl\lvgl\src\misc\lv_area.h **** {
 750              		.loc 3 120 20 view .LVU250
 751              	.LBB117:
 122:d:\practise\f407_disc\lvgl\lvgl\src\misc\lv_area.h ****     dest->y1 = src->y1;
 752              		.loc 3 122 5 view .LVU251
 122:d:\practise\f407_disc\lvgl\lvgl\src\misc\lv_area.h ****     dest->y1 = src->y1;
 753              		.loc 3 122 19 is_stmt 0 view .LVU252
 754 0240 BDF93030 		ldrsh	r3, [sp, #48]
 122:d:\practise\f407_disc\lvgl\lvgl\src\misc\lv_area.h ****     dest->y1 = src->y1;
 755              		.loc 3 122 14 view .LVU253
ARM GAS  C:\Users\gx\AppData\Local\Temp\ccAHLVXI.s 			page 39


 756 0244 A382     		strh	r3, [r4, #20]	@ movhi
 123:d:\practise\f407_disc\lvgl\lvgl\src\misc\lv_area.h ****     dest->x2 = src->x2;
 757              		.loc 3 123 5 is_stmt 1 view .LVU254
 123:d:\practise\f407_disc\lvgl\lvgl\src\misc\lv_area.h ****     dest->x2 = src->x2;
 758              		.loc 3 123 19 is_stmt 0 view .LVU255
 759 0246 BDF93230 		ldrsh	r3, [sp, #50]
 123:d:\practise\f407_disc\lvgl\lvgl\src\misc\lv_area.h ****     dest->x2 = src->x2;
 760              		.loc 3 123 14 view .LVU256
 761 024a E382     		strh	r3, [r4, #22]	@ movhi
 124:d:\practise\f407_disc\lvgl\lvgl\src\misc\lv_area.h ****     dest->y2 = src->y2;
 762              		.loc 3 124 5 is_stmt 1 view .LVU257
 124:d:\practise\f407_disc\lvgl\lvgl\src\misc\lv_area.h ****     dest->y2 = src->y2;
 763              		.loc 3 124 19 is_stmt 0 view .LVU258
 764 024c BDF93430 		ldrsh	r3, [sp, #52]
 124:d:\practise\f407_disc\lvgl\lvgl\src\misc\lv_area.h ****     dest->y2 = src->y2;
 765              		.loc 3 124 14 view .LVU259
 766 0250 2383     		strh	r3, [r4, #24]	@ movhi
 125:d:\practise\f407_disc\lvgl\lvgl\src\misc\lv_area.h **** }
 767              		.loc 3 125 5 is_stmt 1 view .LVU260
 125:d:\practise\f407_disc\lvgl\lvgl\src\misc\lv_area.h **** }
 768              		.loc 3 125 19 is_stmt 0 view .LVU261
 769 0252 BDF93630 		ldrsh	r3, [sp, #54]
 125:d:\practise\f407_disc\lvgl\lvgl\src\misc\lv_area.h **** }
 770              		.loc 3 125 14 view .LVU262
 771 0256 6383     		strh	r3, [r4, #26]	@ movhi
 772              	.LVL75:
 125:d:\practise\f407_disc\lvgl\lvgl\src\misc\lv_area.h **** }
 773              		.loc 3 125 14 view .LVU263
 774              	.LBE117:
 775              	.LBE116:
 626:lvgl/lvgl/src/widgets/lv_img.c ****         if(res != LV_RES_OK) return;
 776              		.loc 1 626 9 is_stmt 1 view .LVU264
 626:lvgl/lvgl/src/widgets/lv_img.c ****         if(res != LV_RES_OK) return;
 777              		.loc 1 626 24 is_stmt 0 view .LVU265
 778 0258 3146     		mov	r1, r6
 779 025a A648     		ldr	r0, .L37
 780 025c FFF7FEFF 		bl	lv_obj_event_base
 781              	.LVL76:
 627:lvgl/lvgl/src/widgets/lv_img.c **** 
 782              		.loc 1 627 9 is_stmt 1 view .LVU266
 627:lvgl/lvgl/src/widgets/lv_img.c **** 
 783              		.loc 1 627 11 is_stmt 0 view .LVU267
 784 0260 0128     		cmp	r0, #1
 785 0262 7FF4E0AE 		bne	.L3
 629:lvgl/lvgl/src/widgets/lv_img.c **** 
 786              		.loc 1 629 9 is_stmt 1 view .LVU268
 787              	.LVL77:
 788              	.LBB118:
 789              	.LBI118:
 120:d:\practise\f407_disc\lvgl\lvgl\src\misc\lv_area.h **** {
 790              		.loc 3 120 20 view .LVU269
 791              	.LBB119:
 122:d:\practise\f407_disc\lvgl\lvgl\src\misc\lv_area.h ****     dest->y1 = src->y1;
 792              		.loc 3 122 5 view .LVU270
 122:d:\practise\f407_disc\lvgl\lvgl\src\misc\lv_area.h ****     dest->y1 = src->y1;
 793              		.loc 3 122 14 is_stmt 0 view .LVU271
 794 0266 059B     		ldr	r3, [sp, #20]
ARM GAS  C:\Users\gx\AppData\Local\Temp\ccAHLVXI.s 			page 40


 795 0268 A382     		strh	r3, [r4, #20]	@ movhi
 123:d:\practise\f407_disc\lvgl\lvgl\src\misc\lv_area.h ****     dest->x2 = src->x2;
 796              		.loc 3 123 5 is_stmt 1 view .LVU272
 123:d:\practise\f407_disc\lvgl\lvgl\src\misc\lv_area.h ****     dest->x2 = src->x2;
 797              		.loc 3 123 14 is_stmt 0 view .LVU273
 798 026a A4F816A0 		strh	r10, [r4, #22]	@ movhi
 124:d:\practise\f407_disc\lvgl\lvgl\src\misc\lv_area.h ****     dest->y2 = src->y2;
 799              		.loc 3 124 5 is_stmt 1 view .LVU274
 124:d:\practise\f407_disc\lvgl\lvgl\src\misc\lv_area.h ****     dest->y2 = src->y2;
 800              		.loc 3 124 14 is_stmt 0 view .LVU275
 801 026e A4F81890 		strh	r9, [r4, #24]	@ movhi
 125:d:\practise\f407_disc\lvgl\lvgl\src\misc\lv_area.h **** }
 802              		.loc 3 125 5 is_stmt 1 view .LVU276
 125:d:\practise\f407_disc\lvgl\lvgl\src\misc\lv_area.h **** }
 803              		.loc 3 125 14 is_stmt 0 view .LVU277
 804 0272 A4F81A80 		strh	r8, [r4, #26]	@ movhi
 805              	.LVL78:
 125:d:\practise\f407_disc\lvgl\lvgl\src\misc\lv_area.h **** }
 806              		.loc 3 125 14 view .LVU278
 807              	.LBE119:
 808              	.LBE118:
 631:lvgl/lvgl/src/widgets/lv_img.c ****             if(img->h == 0 || img->w == 0) return;
 809              		.loc 1 631 9 is_stmt 1 view .LVU279
 631:lvgl/lvgl/src/widgets/lv_img.c ****             if(img->h == 0 || img->w == 0) return;
 810              		.loc 1 631 11 is_stmt 0 view .LVU280
 811 0276 152D     		cmp	r5, #21
 812 0278 7FF4D5AE 		bne	.L3
 813              	.LBB120:
 632:lvgl/lvgl/src/widgets/lv_img.c ****             if(zoom_final == 0) return;
 814              		.loc 1 632 13 is_stmt 1 view .LVU281
 632:lvgl/lvgl/src/widgets/lv_img.c ****             if(zoom_final == 0) return;
 815              		.loc 1 632 19 is_stmt 0 view .LVU282
 816 027c B4F92E30 		ldrsh	r3, [r4, #46]
 632:lvgl/lvgl/src/widgets/lv_img.c ****             if(zoom_final == 0) return;
 817              		.loc 1 632 15 view .LVU283
 818 0280 002B     		cmp	r3, #0
 819 0282 3FF4D0AE 		beq	.L3
 632:lvgl/lvgl/src/widgets/lv_img.c ****             if(zoom_final == 0) return;
 820              		.loc 1 632 34 discriminator 2 view .LVU284
 821 0286 B4F92C30 		ldrsh	r3, [r4, #44]
 632:lvgl/lvgl/src/widgets/lv_img.c ****             if(zoom_final == 0) return;
 822              		.loc 1 632 28 discriminator 2 view .LVU285
 823 028a 002B     		cmp	r3, #0
 824 028c 3FF4CBAE 		beq	.L3
 633:lvgl/lvgl/src/widgets/lv_img.c **** 
 825              		.loc 1 633 13 is_stmt 1 view .LVU286
 633:lvgl/lvgl/src/widgets/lv_img.c **** 
 826              		.loc 1 633 15 is_stmt 0 view .LVU287
 827 0290 039B     		ldr	r3, [sp, #12]
 828 0292 002B     		cmp	r3, #0
 829 0294 3FF4C7AE 		beq	.L3
 635:lvgl/lvgl/src/widgets/lv_img.c **** 
 830              		.loc 1 635 13 is_stmt 1 view .LVU288
 635:lvgl/lvgl/src/widgets/lv_img.c **** 
 831              		.loc 1 635 43 is_stmt 0 view .LVU289
 832 0298 3046     		mov	r0, r6
 833              	.LVL79:
ARM GAS  C:\Users\gx\AppData\Local\Temp\ccAHLVXI.s 			page 41


 635:lvgl/lvgl/src/widgets/lv_img.c **** 
 834              		.loc 1 635 43 view .LVU290
 835 029a FFF7FEFF 		bl	lv_event_get_param
 836              	.LVL80:
 837 029e 0590     		str	r0, [sp, #20]
 838              	.LVL81:
 637:lvgl/lvgl/src/widgets/lv_img.c ****             lv_area_copy(&img_max_area, &obj->coords);
 839              		.loc 1 637 13 is_stmt 1 view .LVU291
 638:lvgl/lvgl/src/widgets/lv_img.c **** 
 840              		.loc 1 638 13 view .LVU292
 841              	.LBB121:
 842              	.LBI121:
 120:d:\practise\f407_disc\lvgl\lvgl\src\misc\lv_area.h **** {
 843              		.loc 3 120 20 view .LVU293
 844              	.LBB122:
 122:d:\practise\f407_disc\lvgl\lvgl\src\misc\lv_area.h ****     dest->y1 = src->y1;
 845              		.loc 3 122 5 view .LVU294
 122:d:\practise\f407_disc\lvgl\lvgl\src\misc\lv_area.h ****     dest->y1 = src->y1;
 846              		.loc 3 122 19 is_stmt 0 view .LVU295
 847 02a0 B4F91450 		ldrsh	r5, [r4, #20]
 848              	.LVL82:
 122:d:\practise\f407_disc\lvgl\lvgl\src\misc\lv_area.h ****     dest->y1 = src->y1;
 849              		.loc 3 122 14 view .LVU296
 850 02a4 ADF83850 		strh	r5, [sp, #56]	@ movhi
 123:d:\practise\f407_disc\lvgl\lvgl\src\misc\lv_area.h ****     dest->x2 = src->x2;
 851              		.loc 3 123 5 is_stmt 1 view .LVU297
 123:d:\practise\f407_disc\lvgl\lvgl\src\misc\lv_area.h ****     dest->x2 = src->x2;
 852              		.loc 3 123 19 is_stmt 0 view .LVU298
 853 02a8 B4F91660 		ldrsh	r6, [r4, #22]
 854              	.LVL83:
 123:d:\practise\f407_disc\lvgl\lvgl\src\misc\lv_area.h ****     dest->x2 = src->x2;
 855              		.loc 3 123 14 view .LVU299
 856 02ac ADF83A60 		strh	r6, [sp, #58]	@ movhi
 124:d:\practise\f407_disc\lvgl\lvgl\src\misc\lv_area.h ****     dest->y2 = src->y2;
 857              		.loc 3 124 5 is_stmt 1 view .LVU300
 124:d:\practise\f407_disc\lvgl\lvgl\src\misc\lv_area.h ****     dest->y2 = src->y2;
 858              		.loc 3 124 19 is_stmt 0 view .LVU301
 859 02b0 B4F91880 		ldrsh	r8, [r4, #24]
 125:d:\practise\f407_disc\lvgl\lvgl\src\misc\lv_area.h **** }
 860              		.loc 3 125 5 is_stmt 1 view .LVU302
 125:d:\practise\f407_disc\lvgl\lvgl\src\misc\lv_area.h **** }
 861              		.loc 3 125 19 is_stmt 0 view .LVU303
 862 02b4 B4F91A90 		ldrsh	r9, [r4, #26]
 863              	.LVL84:
 125:d:\practise\f407_disc\lvgl\lvgl\src\misc\lv_area.h **** }
 864              		.loc 3 125 19 view .LVU304
 865              	.LBE122:
 866              	.LBE121:
 640:lvgl/lvgl/src/widgets/lv_img.c **** 
 867              		.loc 1 640 13 is_stmt 1 view .LVU305
 640:lvgl/lvgl/src/widgets/lv_img.c **** 
 868              		.loc 1 640 41 is_stmt 0 view .LVU306
 869 02b8 2046     		mov	r0, r4
 870              	.LVL85:
 640:lvgl/lvgl/src/widgets/lv_img.c **** 
 871              		.loc 1 640 41 view .LVU307
 872 02ba FFF7FEFF 		bl	lv_img_get_tranformed_size
ARM GAS  C:\Users\gx\AppData\Local\Temp\ccAHLVXI.s 			page 42


 873              	.LVL86:
 874 02be 0B90     		str	r0, [sp, #44]
 642:lvgl/lvgl/src/widgets/lv_img.c ****                 img_max_area.x1 -= ((img->w - img_size_final.x) + 1) / 2;
 875              		.loc 1 642 13 is_stmt 1 view .LVU308
 642:lvgl/lvgl/src/widgets/lv_img.c ****                 img_max_area.x1 -= ((img->w - img_size_final.x) + 1) / 2;
 876              		.loc 1 642 35 is_stmt 0 view .LVU309
 877 02c0 94F83930 		ldrb	r3, [r4, #57]	@ zero_extendqisi2
 878 02c4 03F00303 		and	r3, r3, #3
 642:lvgl/lvgl/src/widgets/lv_img.c ****                 img_max_area.x1 -= ((img->w - img_size_final.x) + 1) / 2;
 879              		.loc 1 642 15 view .LVU310
 880 02c8 012B     		cmp	r3, #1
 881 02ca 52D0     		beq	.L34
 649:lvgl/lvgl/src/widgets/lv_img.c ****                 img_max_area.y2 = img_max_area.y1 + lv_area_get_height(&bg_coords) - 1;
 882              		.loc 1 649 17 is_stmt 1 view .LVU311
 883              	.LVL87:
 884              	.LBB123:
 885              	.LBI123:
 133:d:\practise\f407_disc\lvgl\lvgl\src\misc\lv_area.h **** {
 886              		.loc 3 133 26 view .LVU312
 887              	.LBB124:
 135:d:\practise\f407_disc\lvgl\lvgl\src\misc\lv_area.h **** }
 888              		.loc 3 135 5 view .LVU313
 135:d:\practise\f407_disc\lvgl\lvgl\src\misc\lv_area.h **** }
 889              		.loc 3 135 31 is_stmt 0 view .LVU314
 890 02cc BDF83430 		ldrh	r3, [sp, #52]
 135:d:\practise\f407_disc\lvgl\lvgl\src\misc\lv_area.h **** }
 891              		.loc 3 135 44 view .LVU315
 892 02d0 BDF83020 		ldrh	r2, [sp, #48]
 135:d:\practise\f407_disc\lvgl\lvgl\src\misc\lv_area.h **** }
 893              		.loc 3 135 36 view .LVU316
 894 02d4 9B1A     		subs	r3, r3, r2
 895 02d6 9BB2     		uxth	r3, r3
 135:d:\practise\f407_disc\lvgl\lvgl\src\misc\lv_area.h **** }
 896              		.loc 3 135 49 view .LVU317
 897 02d8 0133     		adds	r3, r3, #1
 898 02da 9BB2     		uxth	r3, r3
 899              	.LVL88:
 135:d:\practise\f407_disc\lvgl\lvgl\src\misc\lv_area.h **** }
 900              		.loc 3 135 49 view .LVU318
 901              	.LBE124:
 902              	.LBE123:
 649:lvgl/lvgl/src/widgets/lv_img.c ****                 img_max_area.y2 = img_max_area.y1 + lv_area_get_height(&bg_coords) - 1;
 903              		.loc 1 649 51 view .LVU319
 904 02dc 13FA85F3 		uxtah	r3, r3, r5
 905 02e0 9BB2     		uxth	r3, r3
 649:lvgl/lvgl/src/widgets/lv_img.c ****                 img_max_area.y2 = img_max_area.y1 + lv_area_get_height(&bg_coords) - 1;
 906              		.loc 1 649 83 view .LVU320
 907 02e2 013B     		subs	r3, r3, #1
 649:lvgl/lvgl/src/widgets/lv_img.c ****                 img_max_area.y2 = img_max_area.y1 + lv_area_get_height(&bg_coords) - 1;
 908              		.loc 1 649 33 view .LVU321
 909 02e4 ADF83C30 		strh	r3, [sp, #60]	@ movhi
 650:lvgl/lvgl/src/widgets/lv_img.c ****             }
 910              		.loc 1 650 17 is_stmt 1 view .LVU322
 911              	.LVL89:
 912              	.LBB125:
 913              	.LBI125:
 143:d:\practise\f407_disc\lvgl\lvgl\src\misc\lv_area.h **** {
ARM GAS  C:\Users\gx\AppData\Local\Temp\ccAHLVXI.s 			page 43


 914              		.loc 3 143 26 view .LVU323
 915              	.LBB126:
 916              		.loc 3 145 5 view .LVU324
 917              		.loc 3 145 31 is_stmt 0 view .LVU325
 918 02e8 BDF83630 		ldrh	r3, [sp, #54]
 919              		.loc 3 145 44 view .LVU326
 920 02ec BDF83220 		ldrh	r2, [sp, #50]
 921              		.loc 3 145 36 view .LVU327
 922 02f0 9B1A     		subs	r3, r3, r2
 923 02f2 9BB2     		uxth	r3, r3
 924              		.loc 3 145 49 view .LVU328
 925 02f4 0133     		adds	r3, r3, #1
 926 02f6 9BB2     		uxth	r3, r3
 927              	.LVL90:
 928              		.loc 3 145 49 view .LVU329
 929              	.LBE126:
 930              	.LBE125:
 650:lvgl/lvgl/src/widgets/lv_img.c ****             }
 931              		.loc 1 650 51 view .LVU330
 932 02f8 13FA86F3 		uxtah	r3, r3, r6
 933 02fc 9BB2     		uxth	r3, r3
 650:lvgl/lvgl/src/widgets/lv_img.c ****             }
 934              		.loc 1 650 84 view .LVU331
 935 02fe 013B     		subs	r3, r3, #1
 650:lvgl/lvgl/src/widgets/lv_img.c ****             }
 936              		.loc 1 650 33 view .LVU332
 937 0300 ADF83E30 		strh	r3, [sp, #62]	@ movhi
 938              	.L19:
 653:lvgl/lvgl/src/widgets/lv_img.c ****             img_max_area.y1 += ptop;
 939              		.loc 1 653 13 is_stmt 1 view .LVU333
 653:lvgl/lvgl/src/widgets/lv_img.c ****             img_max_area.y1 += ptop;
 940              		.loc 1 653 29 is_stmt 0 view .LVU334
 941 0304 BDF83880 		ldrh	r8, [sp, #56]
 942 0308 D844     		add	r8, r8, fp
 943 030a 1FFA88F9 		uxth	r9, r8
 944 030e 0FFA88F8 		sxth	r8, r8
 654:lvgl/lvgl/src/widgets/lv_img.c ****             img_max_area.x2 -= pright;
 945              		.loc 1 654 13 is_stmt 1 view .LVU335
 654:lvgl/lvgl/src/widgets/lv_img.c ****             img_max_area.x2 -= pright;
 946              		.loc 1 654 29 is_stmt 0 view .LVU336
 947 0312 BDF83A30 		ldrh	r3, [sp, #58]
 948 0316 3B44     		add	r3, r3, r7
 949 0318 1FFA83FA 		uxth	r10, r3
 950 031c 1BB2     		sxth	r3, r3
 951 031e 0993     		str	r3, [sp, #36]
 655:lvgl/lvgl/src/widgets/lv_img.c ****             img_max_area.y2 -= pbottom;
 952              		.loc 1 655 13 is_stmt 1 view .LVU337
 655:lvgl/lvgl/src/widgets/lv_img.c ****             img_max_area.y2 -= pbottom;
 953              		.loc 1 655 29 is_stmt 0 view .LVU338
 954 0320 BDF83C50 		ldrh	r5, [sp, #60]
 955 0324 069B     		ldr	r3, [sp, #24]
 956 0326 ED1A     		subs	r5, r5, r3
 957 0328 2DB2     		sxth	r5, r5
 656:lvgl/lvgl/src/widgets/lv_img.c **** 
 958              		.loc 1 656 13 is_stmt 1 view .LVU339
 656:lvgl/lvgl/src/widgets/lv_img.c **** 
 959              		.loc 1 656 29 is_stmt 0 view .LVU340
ARM GAS  C:\Users\gx\AppData\Local\Temp\ccAHLVXI.s 			page 44


 960 032a BDF83E60 		ldrh	r6, [sp, #62]
 961 032e 079B     		ldr	r3, [sp, #28]
 962 0330 F61A     		subs	r6, r6, r3
 963 0332 36B2     		sxth	r6, r6
 658:lvgl/lvgl/src/widgets/lv_img.c ****                 lv_draw_img_dsc_t img_dsc;
 964              		.loc 1 658 13 is_stmt 1 view .LVU341
 658:lvgl/lvgl/src/widgets/lv_img.c ****                 lv_draw_img_dsc_t img_dsc;
 965              		.loc 1 658 30 is_stmt 0 view .LVU342
 966 0334 94F83830 		ldrb	r3, [r4, #56]	@ zero_extendqisi2
 658:lvgl/lvgl/src/widgets/lv_img.c ****                 lv_draw_img_dsc_t img_dsc;
 967              		.loc 1 658 15 view .LVU343
 968 0338 13F0020F 		tst	r3, #2
 969 033c 3CD0     		beq	.L35
 692:lvgl/lvgl/src/widgets/lv_img.c ****                 lv_draw_label_dsc_t label_dsc;
 970              		.loc 1 692 18 is_stmt 1 view .LVU344
 692:lvgl/lvgl/src/widgets/lv_img.c ****                 lv_draw_label_dsc_t label_dsc;
 971              		.loc 1 692 35 is_stmt 0 view .LVU345
 972 033e 03F00303 		and	r3, r3, #3
 692:lvgl/lvgl/src/widgets/lv_img.c ****                 lv_draw_label_dsc_t label_dsc;
 973              		.loc 1 692 20 view .LVU346
 974 0342 022B     		cmp	r3, #2
 975 0344 00F0C480 		beq	.L36
 701:lvgl/lvgl/src/widgets/lv_img.c ****                 lv_draw_img(&obj->coords, clip_area, NULL, NULL);
 976              		.loc 1 701 17 is_stmt 1 view .LVU347
 977 0348 6B4B     		ldr	r3, .L37+4
 978 034a 0093     		str	r3, [sp]
 979 034c 6B4B     		ldr	r3, .L37+8
 980 034e 40F2BD22 		movw	r2, #701
 981 0352 6B49     		ldr	r1, .L37+12
 982 0354 0220     		movs	r0, #2
 983 0356 FFF7FEFF 		bl	_lv_log_add
 984              	.LVL91:
 701:lvgl/lvgl/src/widgets/lv_img.c ****                 lv_draw_img(&obj->coords, clip_area, NULL, NULL);
 985              		.loc 1 701 70 view .LVU348
 702:lvgl/lvgl/src/widgets/lv_img.c ****             }
 986              		.loc 1 702 17 view .LVU349
 987 035a 0023     		movs	r3, #0
 988 035c 1A46     		mov	r2, r3
 989 035e 0599     		ldr	r1, [sp, #20]
 990 0360 0898     		ldr	r0, [sp, #32]
 991 0362 FFF7FEFF 		bl	lv_draw_img
 992              	.LVL92:
 993 0366 5EE6     		b	.L3
 994              	.LVL93:
 995              	.L33:
 702:lvgl/lvgl/src/widgets/lv_img.c ****             }
 996              		.loc 1 702 17 is_stmt 0 view .LVU350
 997              	.LBE120:
 609:lvgl/lvgl/src/widgets/lv_img.c ****         }
 998              		.loc 1 609 13 is_stmt 1 view .LVU351
 999 0368 0CA9     		add	r1, sp, #48
 1000 036a 2046     		mov	r0, r4
 1001 036c FFF7FEFF 		bl	lv_obj_get_coords
 1002              	.LVL94:
 1003 0370 5AE7     		b	.L14
 1004              	.LVL95:
 1005              	.L34:
ARM GAS  C:\Users\gx\AppData\Local\Temp\ccAHLVXI.s 			page 45


 1006              	.LBB129:
 643:lvgl/lvgl/src/widgets/lv_img.c ****                 img_max_area.x2 -= ((img->w - img_size_final.x) + 1) / 2;
 1007              		.loc 1 643 17 view .LVU352
 643:lvgl/lvgl/src/widgets/lv_img.c ****                 img_max_area.x2 -= ((img->w - img_size_final.x) + 1) / 2;
 1008              		.loc 1 643 41 is_stmt 0 view .LVU353
 1009 0372 B4F92C30 		ldrsh	r3, [r4, #44]
 643:lvgl/lvgl/src/widgets/lv_img.c ****                 img_max_area.x2 -= ((img->w - img_size_final.x) + 1) / 2;
 1010              		.loc 1 643 61 view .LVU354
 1011 0376 BDF92C20 		ldrsh	r2, [sp, #44]
 643:lvgl/lvgl/src/widgets/lv_img.c ****                 img_max_area.x2 -= ((img->w - img_size_final.x) + 1) / 2;
 1012              		.loc 1 643 45 view .LVU355
 1013 037a 9B1A     		subs	r3, r3, r2
 643:lvgl/lvgl/src/widgets/lv_img.c ****                 img_max_area.x2 -= ((img->w - img_size_final.x) + 1) / 2;
 1014              		.loc 1 643 65 view .LVU356
 1015 037c 0133     		adds	r3, r3, #1
 643:lvgl/lvgl/src/widgets/lv_img.c ****                 img_max_area.x2 -= ((img->w - img_size_final.x) + 1) / 2;
 1016              		.loc 1 643 70 view .LVU357
 1017 037e 03EBD373 		add	r3, r3, r3, lsr #31
 1018 0382 5B10     		asrs	r3, r3, #1
 1019 0384 5B42     		rsbs	r3, r3, #0
 643:lvgl/lvgl/src/widgets/lv_img.c ****                 img_max_area.x2 -= ((img->w - img_size_final.x) + 1) / 2;
 1020              		.loc 1 643 33 view .LVU358
 1021 0386 9BB2     		uxth	r3, r3
 1022 0388 1D44     		add	r5, r5, r3
 1023 038a ADF83850 		strh	r5, [sp, #56]	@ movhi
 644:lvgl/lvgl/src/widgets/lv_img.c ****                 img_max_area.y1 -= ((img->h - img_size_final.y) + 1) / 2;
 1024              		.loc 1 644 17 is_stmt 1 view .LVU359
 644:lvgl/lvgl/src/widgets/lv_img.c ****                 img_max_area.y1 -= ((img->h - img_size_final.y) + 1) / 2;
 1025              		.loc 1 644 33 is_stmt 0 view .LVU360
 1026 038e 4344     		add	r3, r3, r8
 1027 0390 ADF83C30 		strh	r3, [sp, #60]	@ movhi
 645:lvgl/lvgl/src/widgets/lv_img.c ****                 img_max_area.y2 -= ((img->h - img_size_final.y) + 1) / 2;
 1028              		.loc 1 645 17 is_stmt 1 view .LVU361
 645:lvgl/lvgl/src/widgets/lv_img.c ****                 img_max_area.y2 -= ((img->h - img_size_final.y) + 1) / 2;
 1029              		.loc 1 645 41 is_stmt 0 view .LVU362
 1030 0394 B4F92E30 		ldrsh	r3, [r4, #46]
 645:lvgl/lvgl/src/widgets/lv_img.c ****                 img_max_area.y2 -= ((img->h - img_size_final.y) + 1) / 2;
 1031              		.loc 1 645 61 view .LVU363
 1032 0398 BDF92E20 		ldrsh	r2, [sp, #46]
 645:lvgl/lvgl/src/widgets/lv_img.c ****                 img_max_area.y2 -= ((img->h - img_size_final.y) + 1) / 2;
 1033              		.loc 1 645 45 view .LVU364
 1034 039c 9B1A     		subs	r3, r3, r2
 645:lvgl/lvgl/src/widgets/lv_img.c ****                 img_max_area.y2 -= ((img->h - img_size_final.y) + 1) / 2;
 1035              		.loc 1 645 65 view .LVU365
 1036 039e 0133     		adds	r3, r3, #1
 645:lvgl/lvgl/src/widgets/lv_img.c ****                 img_max_area.y2 -= ((img->h - img_size_final.y) + 1) / 2;
 1037              		.loc 1 645 70 view .LVU366
 1038 03a0 03EBD373 		add	r3, r3, r3, lsr #31
 1039 03a4 5B10     		asrs	r3, r3, #1
 1040 03a6 5B42     		rsbs	r3, r3, #0
 645:lvgl/lvgl/src/widgets/lv_img.c ****                 img_max_area.y2 -= ((img->h - img_size_final.y) + 1) / 2;
 1041              		.loc 1 645 33 view .LVU367
 1042 03a8 9BB2     		uxth	r3, r3
 1043 03aa 1E44     		add	r6, r6, r3
 1044 03ac ADF83A60 		strh	r6, [sp, #58]	@ movhi
 646:lvgl/lvgl/src/widgets/lv_img.c ****             }
 1045              		.loc 1 646 17 is_stmt 1 view .LVU368
ARM GAS  C:\Users\gx\AppData\Local\Temp\ccAHLVXI.s 			page 46


 646:lvgl/lvgl/src/widgets/lv_img.c ****             }
 1046              		.loc 1 646 33 is_stmt 0 view .LVU369
 1047 03b0 4B44     		add	r3, r3, r9
 1048 03b2 ADF83E30 		strh	r3, [sp, #62]	@ movhi
 1049 03b6 A5E7     		b	.L19
 1050              	.L35:
 1051              	.LBB127:
 659:lvgl/lvgl/src/widgets/lv_img.c ****                 lv_draw_img_dsc_init(&img_dsc);
 1052              		.loc 1 659 17 is_stmt 1 view .LVU370
 660:lvgl/lvgl/src/widgets/lv_img.c ****                 lv_obj_init_draw_img_dsc(obj, LV_PART_MAIN, &img_dsc);
 1053              		.loc 1 660 17 view .LVU371
 1054 03b8 14A8     		add	r0, sp, #80
 1055 03ba FFF7FEFF 		bl	lv_draw_img_dsc_init
 1056              	.LVL96:
 661:lvgl/lvgl/src/widgets/lv_img.c **** 
 1057              		.loc 1 661 17 view .LVU372
 1058 03be 14AA     		add	r2, sp, #80
 1059 03c0 0021     		movs	r1, #0
 1060 03c2 2046     		mov	r0, r4
 1061 03c4 FFF7FEFF 		bl	lv_obj_init_draw_img_dsc
 1062              	.LVL97:
 663:lvgl/lvgl/src/widgets/lv_img.c ****                 img_dsc.angle = angle_final;
 1063              		.loc 1 663 17 view .LVU373
 663:lvgl/lvgl/src/widgets/lv_img.c ****                 img_dsc.angle = angle_final;
 1064              		.loc 1 663 30 is_stmt 0 view .LVU374
 1065 03c8 039B     		ldr	r3, [sp, #12]
 1066 03ca ADF85230 		strh	r3, [sp, #82]	@ movhi
 664:lvgl/lvgl/src/widgets/lv_img.c ****                 img_dsc.pivot.x = img->pivot.x;
 1067              		.loc 1 664 17 is_stmt 1 view .LVU375
 664:lvgl/lvgl/src/widgets/lv_img.c ****                 img_dsc.pivot.x = img->pivot.x;
 1068              		.loc 1 664 31 is_stmt 0 view .LVU376
 1069 03ce 049B     		ldr	r3, [sp, #16]
 1070 03d0 ADF85030 		strh	r3, [sp, #80]	@ movhi
 665:lvgl/lvgl/src/widgets/lv_img.c ****                 img_dsc.pivot.y = img->pivot.y;
 1071              		.loc 1 665 17 is_stmt 1 view .LVU377
 665:lvgl/lvgl/src/widgets/lv_img.c ****                 img_dsc.pivot.y = img->pivot.y;
 1072              		.loc 1 665 45 is_stmt 0 view .LVU378
 1073 03d4 B4F93230 		ldrsh	r3, [r4, #50]
 665:lvgl/lvgl/src/widgets/lv_img.c ****                 img_dsc.pivot.y = img->pivot.y;
 1074              		.loc 1 665 33 view .LVU379
 1075 03d8 ADF85430 		strh	r3, [sp, #84]	@ movhi
 666:lvgl/lvgl/src/widgets/lv_img.c ****                 img_dsc.antialias = img->antialias;
 1076              		.loc 1 666 17 is_stmt 1 view .LVU380
 666:lvgl/lvgl/src/widgets/lv_img.c ****                 img_dsc.antialias = img->antialias;
 1077              		.loc 1 666 45 is_stmt 0 view .LVU381
 1078 03dc B4F93430 		ldrsh	r3, [r4, #52]
 666:lvgl/lvgl/src/widgets/lv_img.c ****                 img_dsc.antialias = img->antialias;
 1079              		.loc 1 666 33 view .LVU382
 1080 03e0 ADF85630 		strh	r3, [sp, #86]	@ movhi
 667:lvgl/lvgl/src/widgets/lv_img.c **** 
 1081              		.loc 1 667 17 is_stmt 1 view .LVU383
 667:lvgl/lvgl/src/widgets/lv_img.c **** 
 1082              		.loc 1 667 40 is_stmt 0 view .LVU384
 1083 03e4 94F83830 		ldrb	r3, [r4, #56]	@ zero_extendqisi2
 1084 03e8 DB09     		lsrs	r3, r3, #7
 667:lvgl/lvgl/src/widgets/lv_img.c **** 
 1085              		.loc 1 667 35 view .LVU385
ARM GAS  C:\Users\gx\AppData\Local\Temp\ccAHLVXI.s 			page 47


 1086 03ea 9DF86420 		ldrb	r2, [sp, #100]	@ zero_extendqisi2
 1087 03ee 63F30002 		bfi	r2, r3, #0, #1
 1088 03f2 8DF86420 		strb	r2, [sp, #100]
 669:lvgl/lvgl/src/widgets/lv_img.c ****                 img_clip_area.x1 = bg_coords.x1 + pleft;
 1089              		.loc 1 669 17 is_stmt 1 view .LVU386
 670:lvgl/lvgl/src/widgets/lv_img.c ****                 img_clip_area.y1 = bg_coords.y1 + ptop;
 1090              		.loc 1 670 17 view .LVU387
 670:lvgl/lvgl/src/widgets/lv_img.c ****                 img_clip_area.y1 = bg_coords.y1 + ptop;
 1091              		.loc 1 670 45 is_stmt 0 view .LVU388
 1092 03f6 BDF83030 		ldrh	r3, [sp, #48]
 670:lvgl/lvgl/src/widgets/lv_img.c ****                 img_clip_area.y1 = bg_coords.y1 + ptop;
 1093              		.loc 1 670 49 view .LVU389
 1094 03fa 5B44     		add	r3, r3, fp
 670:lvgl/lvgl/src/widgets/lv_img.c ****                 img_clip_area.y1 = bg_coords.y1 + ptop;
 1095              		.loc 1 670 34 view .LVU390
 1096 03fc ADF84030 		strh	r3, [sp, #64]	@ movhi
 671:lvgl/lvgl/src/widgets/lv_img.c ****                 img_clip_area.x2 = bg_coords.x2 - pright;
 1097              		.loc 1 671 17 is_stmt 1 view .LVU391
 671:lvgl/lvgl/src/widgets/lv_img.c ****                 img_clip_area.x2 = bg_coords.x2 - pright;
 1098              		.loc 1 671 45 is_stmt 0 view .LVU392
 1099 0400 BDF83230 		ldrh	r3, [sp, #50]
 671:lvgl/lvgl/src/widgets/lv_img.c ****                 img_clip_area.x2 = bg_coords.x2 - pright;
 1100              		.loc 1 671 49 view .LVU393
 1101 0404 1F44     		add	r7, r7, r3
 1102              	.LVL98:
 671:lvgl/lvgl/src/widgets/lv_img.c ****                 img_clip_area.x2 = bg_coords.x2 - pright;
 1103              		.loc 1 671 34 view .LVU394
 1104 0406 ADF84270 		strh	r7, [sp, #66]	@ movhi
 672:lvgl/lvgl/src/widgets/lv_img.c ****                 img_clip_area.y2 = bg_coords.y2 - pbottom;
 1105              		.loc 1 672 17 is_stmt 1 view .LVU395
 672:lvgl/lvgl/src/widgets/lv_img.c ****                 img_clip_area.y2 = bg_coords.y2 - pbottom;
 1106              		.loc 1 672 45 is_stmt 0 view .LVU396
 1107 040a BDF83430 		ldrh	r3, [sp, #52]
 672:lvgl/lvgl/src/widgets/lv_img.c ****                 img_clip_area.y2 = bg_coords.y2 - pbottom;
 1108              		.loc 1 672 49 view .LVU397
 1109 040e 069A     		ldr	r2, [sp, #24]
 1110 0410 9B1A     		subs	r3, r3, r2
 672:lvgl/lvgl/src/widgets/lv_img.c ****                 img_clip_area.y2 = bg_coords.y2 - pbottom;
 1111              		.loc 1 672 34 view .LVU398
 1112 0412 ADF84430 		strh	r3, [sp, #68]	@ movhi
 673:lvgl/lvgl/src/widgets/lv_img.c **** 
 1113              		.loc 1 673 17 is_stmt 1 view .LVU399
 673:lvgl/lvgl/src/widgets/lv_img.c **** 
 1114              		.loc 1 673 45 is_stmt 0 view .LVU400
 1115 0416 BDF83630 		ldrh	r3, [sp, #54]
 673:lvgl/lvgl/src/widgets/lv_img.c **** 
 1116              		.loc 1 673 49 view .LVU401
 1117 041a 079A     		ldr	r2, [sp, #28]
 1118 041c 9B1A     		subs	r3, r3, r2
 673:lvgl/lvgl/src/widgets/lv_img.c **** 
 1119              		.loc 1 673 34 view .LVU402
 1120 041e ADF84630 		strh	r3, [sp, #70]	@ movhi
 675:lvgl/lvgl/src/widgets/lv_img.c **** 
 1121              		.loc 1 675 17 is_stmt 1 view .LVU403
 1122 0422 10AA     		add	r2, sp, #64
 1123 0424 0599     		ldr	r1, [sp, #20]
 1124 0426 1046     		mov	r0, r2
ARM GAS  C:\Users\gx\AppData\Local\Temp\ccAHLVXI.s 			page 48


 1125 0428 FFF7FEFF 		bl	_lv_area_intersect
 1126              	.LVL99:
 677:lvgl/lvgl/src/widgets/lv_img.c ****                 coords_tmp.y1 = img_max_area.y1 + img->offset.y;
 1127              		.loc 1 677 17 view .LVU404
 678:lvgl/lvgl/src/widgets/lv_img.c ****                 if(coords_tmp.y1 > img_max_area.y1) coords_tmp.y1 -= img->h;
 1128              		.loc 1 678 17 view .LVU405
 678:lvgl/lvgl/src/widgets/lv_img.c ****                 if(coords_tmp.y1 > img_max_area.y1) coords_tmp.y1 -= img->h;
 1129              		.loc 1 678 62 is_stmt 0 view .LVU406
 1130 042c 638D     		ldrh	r3, [r4, #42]
 678:lvgl/lvgl/src/widgets/lv_img.c ****                 if(coords_tmp.y1 > img_max_area.y1) coords_tmp.y1 -= img->h;
 1131              		.loc 1 678 49 view .LVU407
 1132 042e 5344     		add	r3, r3, r10
 1133 0430 9AB2     		uxth	r2, r3
 1134 0432 1BB2     		sxth	r3, r3
 678:lvgl/lvgl/src/widgets/lv_img.c ****                 if(coords_tmp.y1 > img_max_area.y1) coords_tmp.y1 -= img->h;
 1135              		.loc 1 678 31 view .LVU408
 1136 0434 ADF84A30 		strh	r3, [sp, #74]	@ movhi
 679:lvgl/lvgl/src/widgets/lv_img.c ****                 coords_tmp.y2 = coords_tmp.y1 + img->h - 1;
 1137              		.loc 1 679 17 is_stmt 1 view .LVU409
 679:lvgl/lvgl/src/widgets/lv_img.c ****                 coords_tmp.y2 = coords_tmp.y1 + img->h - 1;
 1138              		.loc 1 679 19 is_stmt 0 view .LVU410
 1139 0438 0999     		ldr	r1, [sp, #36]
 1140 043a 9942     		cmp	r1, r3
 1141 043c 03DA     		bge	.L21
 679:lvgl/lvgl/src/widgets/lv_img.c ****                 coords_tmp.y2 = coords_tmp.y1 + img->h - 1;
 1142              		.loc 1 679 53 is_stmt 1 discriminator 1 view .LVU411
 679:lvgl/lvgl/src/widgets/lv_img.c ****                 coords_tmp.y2 = coords_tmp.y1 + img->h - 1;
 1143              		.loc 1 679 73 is_stmt 0 discriminator 1 view .LVU412
 1144 043e E38D     		ldrh	r3, [r4, #46]
 679:lvgl/lvgl/src/widgets/lv_img.c ****                 coords_tmp.y2 = coords_tmp.y1 + img->h - 1;
 1145              		.loc 1 679 67 discriminator 1 view .LVU413
 1146 0440 D21A     		subs	r2, r2, r3
 1147 0442 ADF84A20 		strh	r2, [sp, #74]	@ movhi
 1148              	.L21:
 680:lvgl/lvgl/src/widgets/lv_img.c **** 
 1149              		.loc 1 680 17 is_stmt 1 view .LVU414
 680:lvgl/lvgl/src/widgets/lv_img.c **** 
 1150              		.loc 1 680 43 is_stmt 0 view .LVU415
 1151 0446 BDF84A30 		ldrh	r3, [sp, #74]
 680:lvgl/lvgl/src/widgets/lv_img.c **** 
 1152              		.loc 1 680 52 view .LVU416
 1153 044a E28D     		ldrh	r2, [r4, #46]
 680:lvgl/lvgl/src/widgets/lv_img.c **** 
 1154              		.loc 1 680 47 view .LVU417
 1155 044c 1344     		add	r3, r3, r2
 1156 044e 9BB2     		uxth	r3, r3
 680:lvgl/lvgl/src/widgets/lv_img.c **** 
 1157              		.loc 1 680 56 view .LVU418
 1158 0450 013B     		subs	r3, r3, #1
 680:lvgl/lvgl/src/widgets/lv_img.c **** 
 1159              		.loc 1 680 31 view .LVU419
 1160 0452 ADF84E30 		strh	r3, [sp, #78]	@ movhi
 682:lvgl/lvgl/src/widgets/lv_img.c ****                     coords_tmp.x1 = img_max_area.x1 + img->offset.x;
 1161              		.loc 1 682 17 is_stmt 1 view .LVU420
 1162 0456 21E0     		b	.L22
 1163              	.L25:
 688:lvgl/lvgl/src/widgets/lv_img.c ****                     }
ARM GAS  C:\Users\gx\AppData\Local\Temp\ccAHLVXI.s 			page 49


 1164              		.loc 1 688 25 discriminator 2 view .LVU421
 1165 0458 14AB     		add	r3, sp, #80
 1166 045a 626A     		ldr	r2, [r4, #36]
 1167 045c 10A9     		add	r1, sp, #64
 1168 045e 12A8     		add	r0, sp, #72
 1169 0460 FFF7FEFF 		bl	lv_draw_img
 1170              	.LVL100:
 687:lvgl/lvgl/src/widgets/lv_img.c ****                         lv_draw_img(&coords_tmp, &img_clip_area, img->src, &img_dsc);
 1171              		.loc 1 687 60 discriminator 2 view .LVU422
 687:lvgl/lvgl/src/widgets/lv_img.c ****                         lv_draw_img(&coords_tmp, &img_clip_area, img->src, &img_dsc);
 1172              		.loc 1 687 91 is_stmt 0 discriminator 2 view .LVU423
 1173 0464 BDF82C30 		ldrh	r3, [sp, #44]
 687:lvgl/lvgl/src/widgets/lv_img.c ****                         lv_draw_img(&coords_tmp, &img_clip_area, img->src, &img_dsc);
 1174              		.loc 1 687 74 discriminator 2 view .LVU424
 1175 0468 BDF84820 		ldrh	r2, [sp, #72]
 1176 046c 1A44     		add	r2, r2, r3
 1177 046e ADF84820 		strh	r2, [sp, #72]	@ movhi
 687:lvgl/lvgl/src/widgets/lv_img.c ****                         lv_draw_img(&coords_tmp, &img_clip_area, img->src, &img_dsc);
 1178              		.loc 1 687 109 discriminator 2 view .LVU425
 1179 0472 BDF84C20 		ldrh	r2, [sp, #76]
 1180 0476 1344     		add	r3, r3, r2
 1181 0478 ADF84C30 		strh	r3, [sp, #76]	@ movhi
 1182              	.L24:
 687:lvgl/lvgl/src/widgets/lv_img.c ****                         lv_draw_img(&coords_tmp, &img_clip_area, img->src, &img_dsc);
 1183              		.loc 1 687 27 is_stmt 1 discriminator 1 view .LVU426
 687:lvgl/lvgl/src/widgets/lv_img.c ****                         lv_draw_img(&coords_tmp, &img_clip_area, img->src, &img_dsc);
 1184              		.loc 1 687 37 is_stmt 0 discriminator 1 view .LVU427
 1185 047c BDF94830 		ldrsh	r3, [sp, #72]
 687:lvgl/lvgl/src/widgets/lv_img.c ****                         lv_draw_img(&coords_tmp, &img_clip_area, img->src, &img_dsc);
 1186              		.loc 1 687 21 discriminator 1 view .LVU428
 1187 0480 9D42     		cmp	r5, r3
 1188 0482 E9DC     		bgt	.L25
 682:lvgl/lvgl/src/widgets/lv_img.c ****                     coords_tmp.x1 = img_max_area.x1 + img->offset.x;
 1189              		.loc 1 682 56 is_stmt 1 view .LVU429
 682:lvgl/lvgl/src/widgets/lv_img.c ****                     coords_tmp.x1 = img_max_area.x1 + img->offset.x;
 1190              		.loc 1 682 87 is_stmt 0 view .LVU430
 1191 0484 BDF82E30 		ldrh	r3, [sp, #46]
 682:lvgl/lvgl/src/widgets/lv_img.c ****                     coords_tmp.x1 = img_max_area.x1 + img->offset.x;
 1192              		.loc 1 682 70 view .LVU431
 1193 0488 BDF84A20 		ldrh	r2, [sp, #74]
 1194 048c 1A44     		add	r2, r2, r3
 1195 048e ADF84A20 		strh	r2, [sp, #74]	@ movhi
 682:lvgl/lvgl/src/widgets/lv_img.c ****                     coords_tmp.x1 = img_max_area.x1 + img->offset.x;
 1196              		.loc 1 682 105 view .LVU432
 1197 0492 BDF84E20 		ldrh	r2, [sp, #78]
 1198 0496 1344     		add	r3, r3, r2
 1199 0498 ADF84E30 		strh	r3, [sp, #78]	@ movhi
 1200              	.L22:
 682:lvgl/lvgl/src/widgets/lv_img.c ****                     coords_tmp.x1 = img_max_area.x1 + img->offset.x;
 1201              		.loc 1 682 23 is_stmt 1 discriminator 1 view .LVU433
 682:lvgl/lvgl/src/widgets/lv_img.c ****                     coords_tmp.x1 = img_max_area.x1 + img->offset.x;
 1202              		.loc 1 682 33 is_stmt 0 discriminator 1 view .LVU434
 1203 049c BDF94A30 		ldrsh	r3, [sp, #74]
 682:lvgl/lvgl/src/widgets/lv_img.c ****                     coords_tmp.x1 = img_max_area.x1 + img->offset.x;
 1204              		.loc 1 682 17 discriminator 1 view .LVU435
 1205 04a0 9E42     		cmp	r6, r3
 1206 04a2 7FF7C0AD 		ble	.L3
ARM GAS  C:\Users\gx\AppData\Local\Temp\ccAHLVXI.s 			page 50


 683:lvgl/lvgl/src/widgets/lv_img.c ****                     if(coords_tmp.x1 > img_max_area.x1) coords_tmp.x1 -= img->w;
 1207              		.loc 1 683 21 is_stmt 1 view .LVU436
 683:lvgl/lvgl/src/widgets/lv_img.c ****                     if(coords_tmp.x1 > img_max_area.x1) coords_tmp.x1 -= img->w;
 1208              		.loc 1 683 66 is_stmt 0 view .LVU437
 1209 04a6 238D     		ldrh	r3, [r4, #40]
 683:lvgl/lvgl/src/widgets/lv_img.c ****                     if(coords_tmp.x1 > img_max_area.x1) coords_tmp.x1 -= img->w;
 1210              		.loc 1 683 53 view .LVU438
 1211 04a8 4B44     		add	r3, r3, r9
 1212 04aa 9AB2     		uxth	r2, r3
 1213 04ac 1BB2     		sxth	r3, r3
 683:lvgl/lvgl/src/widgets/lv_img.c ****                     if(coords_tmp.x1 > img_max_area.x1) coords_tmp.x1 -= img->w;
 1214              		.loc 1 683 35 view .LVU439
 1215 04ae ADF84830 		strh	r3, [sp, #72]	@ movhi
 684:lvgl/lvgl/src/widgets/lv_img.c ****                     coords_tmp.x2 = coords_tmp.x1 + img->w - 1;
 1216              		.loc 1 684 21 is_stmt 1 view .LVU440
 684:lvgl/lvgl/src/widgets/lv_img.c ****                     coords_tmp.x2 = coords_tmp.x1 + img->w - 1;
 1217              		.loc 1 684 23 is_stmt 0 view .LVU441
 1218 04b2 9845     		cmp	r8, r3
 1219 04b4 03DA     		bge	.L23
 684:lvgl/lvgl/src/widgets/lv_img.c ****                     coords_tmp.x2 = coords_tmp.x1 + img->w - 1;
 1220              		.loc 1 684 57 is_stmt 1 discriminator 1 view .LVU442
 684:lvgl/lvgl/src/widgets/lv_img.c ****                     coords_tmp.x2 = coords_tmp.x1 + img->w - 1;
 1221              		.loc 1 684 77 is_stmt 0 discriminator 1 view .LVU443
 1222 04b6 A38D     		ldrh	r3, [r4, #44]
 684:lvgl/lvgl/src/widgets/lv_img.c ****                     coords_tmp.x2 = coords_tmp.x1 + img->w - 1;
 1223              		.loc 1 684 71 discriminator 1 view .LVU444
 1224 04b8 D21A     		subs	r2, r2, r3
 1225 04ba ADF84820 		strh	r2, [sp, #72]	@ movhi
 1226              	.L23:
 685:lvgl/lvgl/src/widgets/lv_img.c **** 
 1227              		.loc 1 685 21 is_stmt 1 view .LVU445
 685:lvgl/lvgl/src/widgets/lv_img.c **** 
 1228              		.loc 1 685 47 is_stmt 0 view .LVU446
 1229 04be BDF84830 		ldrh	r3, [sp, #72]
 685:lvgl/lvgl/src/widgets/lv_img.c **** 
 1230              		.loc 1 685 56 view .LVU447
 1231 04c2 A28D     		ldrh	r2, [r4, #44]
 685:lvgl/lvgl/src/widgets/lv_img.c **** 
 1232              		.loc 1 685 51 view .LVU448
 1233 04c4 1344     		add	r3, r3, r2
 1234 04c6 9BB2     		uxth	r3, r3
 685:lvgl/lvgl/src/widgets/lv_img.c **** 
 1235              		.loc 1 685 60 view .LVU449
 1236 04c8 013B     		subs	r3, r3, #1
 685:lvgl/lvgl/src/widgets/lv_img.c **** 
 1237              		.loc 1 685 35 view .LVU450
 1238 04ca ADF84C30 		strh	r3, [sp, #76]	@ movhi
 687:lvgl/lvgl/src/widgets/lv_img.c ****                         lv_draw_img(&coords_tmp, &img_clip_area, img->src, &img_dsc);
 1239              		.loc 1 687 21 is_stmt 1 view .LVU451
 1240 04ce D5E7     		b	.L24
 1241              	.LVL101:
 1242              	.L36:
 687:lvgl/lvgl/src/widgets/lv_img.c ****                         lv_draw_img(&coords_tmp, &img_clip_area, img->src, &img_dsc);
 1243              		.loc 1 687 21 is_stmt 0 view .LVU452
 1244              	.LBE127:
 1245              	.LBB128:
 693:lvgl/lvgl/src/widgets/lv_img.c ****                 lv_draw_label_dsc_init(&label_dsc);
ARM GAS  C:\Users\gx\AppData\Local\Temp\ccAHLVXI.s 			page 51


 1246              		.loc 1 693 17 is_stmt 1 discriminator 4 view .LVU453
 694:lvgl/lvgl/src/widgets/lv_img.c ****                 lv_obj_init_draw_label_dsc(obj, LV_PART_MAIN, &label_dsc);
 1247              		.loc 1 694 17 discriminator 4 view .LVU454
 1248 04d0 14A8     		add	r0, sp, #80
 1249 04d2 FFF7FEFF 		bl	lv_draw_label_dsc_init
 1250              	.LVL102:
 695:lvgl/lvgl/src/widgets/lv_img.c **** 
 1251              		.loc 1 695 17 discriminator 4 view .LVU455
 1252 04d6 14AA     		add	r2, sp, #80
 1253 04d8 0021     		movs	r1, #0
 1254 04da 2046     		mov	r0, r4
 1255 04dc FFF7FEFF 		bl	lv_obj_init_draw_label_dsc
 1256              	.LVL103:
 697:lvgl/lvgl/src/widgets/lv_img.c ****             }
 1257              		.loc 1 697 17 discriminator 4 view .LVU456
 697:lvgl/lvgl/src/widgets/lv_img.c ****             }
 1258              		.loc 1 697 71 is_stmt 0 discriminator 4 view .LVU457
 1259 04e0 636A     		ldr	r3, [r4, #36]
 697:lvgl/lvgl/src/widgets/lv_img.c ****             }
 1260              		.loc 1 697 17 discriminator 4 view .LVU458
 1261 04e2 0022     		movs	r2, #0
 1262 04e4 0092     		str	r2, [sp]
 1263 04e6 14AA     		add	r2, sp, #80
 1264 04e8 0599     		ldr	r1, [sp, #20]
 1265 04ea 0898     		ldr	r0, [sp, #32]
 1266 04ec FFF7FEFF 		bl	lv_draw_label
 1267              	.LVL104:
 1268              	.LBE128:
 1269 04f0 99E5     		b	.L3
 1270              	.L38:
 1271 04f2 00BF     		.align	2
 1272              	.L37:
 1273 04f4 00000000 		.word	.LANCHOR0
 1274 04f8 20000000 		.word	.LC1
 1275 04fc 00000000 		.word	.LANCHOR1
 1276 0500 00000000 		.word	.LC0
 1277              	.LBE129:
 1278              	.LBE99:
 1279              		.cfi_endproc
 1280              	.LFE173:
 1282              		.section	.text.lv_img_destructor,"ax",%progbits
 1283              		.align	1
 1284              		.syntax unified
 1285              		.thumb
 1286              		.thumb_func
 1287              		.fpu fpv4-sp-d16
 1289              	lv_img_destructor:
 1290              	.LVL105:
 1291              	.LFB170:
 410:lvgl/lvgl/src/widgets/lv_img.c ****     LV_UNUSED(class_p);
 1292              		.loc 1 410 1 is_stmt 1 view -0
 1293              		.cfi_startproc
 1294              		@ args = 0, pretend = 0, frame = 0
 1295              		@ frame_needed = 0, uses_anonymous_args = 0
 411:lvgl/lvgl/src/widgets/lv_img.c ****     lv_img_t * img = (lv_img_t *)obj;
 1296              		.loc 1 411 5 view .LVU460
 412:lvgl/lvgl/src/widgets/lv_img.c ****     if(img->src_type == LV_IMG_SRC_FILE || img->src_type == LV_IMG_SRC_SYMBOL) {
ARM GAS  C:\Users\gx\AppData\Local\Temp\ccAHLVXI.s 			page 52


 1297              		.loc 1 412 5 view .LVU461
 413:lvgl/lvgl/src/widgets/lv_img.c ****         lv_mem_free((void*)img->src);
 1298              		.loc 1 413 5 view .LVU462
 413:lvgl/lvgl/src/widgets/lv_img.c ****         lv_mem_free((void*)img->src);
 1299              		.loc 1 413 22 is_stmt 0 view .LVU463
 1300 0000 91F83830 		ldrb	r3, [r1, #56]	@ zero_extendqisi2
 413:lvgl/lvgl/src/widgets/lv_img.c ****         lv_mem_free((void*)img->src);
 1301              		.loc 1 413 41 view .LVU464
 1302 0004 03F00303 		and	r3, r3, #3
 1303 0008 013B     		subs	r3, r3, #1
 1304 000a DBB2     		uxtb	r3, r3
 413:lvgl/lvgl/src/widgets/lv_img.c ****         lv_mem_free((void*)img->src);
 1305              		.loc 1 413 7 view .LVU465
 1306 000c 012B     		cmp	r3, #1
 1307 000e 00D9     		bls	.L45
 1308 0010 7047     		bx	lr
 1309              	.L45:
 410:lvgl/lvgl/src/widgets/lv_img.c ****     LV_UNUSED(class_p);
 1310              		.loc 1 410 1 view .LVU466
 1311 0012 10B5     		push	{r4, lr}
 1312              	.LCFI7:
 1313              		.cfi_def_cfa_offset 8
 1314              		.cfi_offset 4, -8
 1315              		.cfi_offset 14, -4
 1316 0014 0C46     		mov	r4, r1
 414:lvgl/lvgl/src/widgets/lv_img.c ****         img->src      = NULL;
 1317              		.loc 1 414 9 is_stmt 1 view .LVU467
 1318 0016 486A     		ldr	r0, [r1, #36]
 1319              	.LVL106:
 414:lvgl/lvgl/src/widgets/lv_img.c ****         img->src      = NULL;
 1320              		.loc 1 414 9 is_stmt 0 view .LVU468
 1321 0018 FFF7FEFF 		bl	lv_mem_free
 1322              	.LVL107:
 415:lvgl/lvgl/src/widgets/lv_img.c ****         img->src_type = LV_IMG_SRC_UNKNOWN;
 1323              		.loc 1 415 9 is_stmt 1 view .LVU469
 415:lvgl/lvgl/src/widgets/lv_img.c ****         img->src_type = LV_IMG_SRC_UNKNOWN;
 1324              		.loc 1 415 23 is_stmt 0 view .LVU470
 1325 001c 0023     		movs	r3, #0
 1326 001e 6362     		str	r3, [r4, #36]
 416:lvgl/lvgl/src/widgets/lv_img.c ****     }
 1327              		.loc 1 416 9 is_stmt 1 view .LVU471
 416:lvgl/lvgl/src/widgets/lv_img.c ****     }
 1328              		.loc 1 416 23 is_stmt 0 view .LVU472
 1329 0020 94F83830 		ldrb	r3, [r4, #56]	@ zero_extendqisi2
 1330 0024 43F00303 		orr	r3, r3, #3
 1331 0028 84F83830 		strb	r3, [r4, #56]
 418:lvgl/lvgl/src/widgets/lv_img.c **** 
 1332              		.loc 1 418 1 view .LVU473
 1333 002c 10BD     		pop	{r4, pc}
 418:lvgl/lvgl/src/widgets/lv_img.c **** 
 1334              		.loc 1 418 1 view .LVU474
 1335              		.cfi_endproc
 1336              	.LFE170:
 1338              		.section	.text.lv_img_constructor,"ax",%progbits
 1339              		.align	1
 1340              		.syntax unified
 1341              		.thumb
ARM GAS  C:\Users\gx\AppData\Local\Temp\ccAHLVXI.s 			page 53


 1342              		.thumb_func
 1343              		.fpu fpv4-sp-d16
 1345              	lv_img_constructor:
 1346              	.LVL108:
 1347              	.LFB169:
 383:lvgl/lvgl/src/widgets/lv_img.c ****     LV_UNUSED(class_p);
 1348              		.loc 1 383 1 is_stmt 1 view -0
 1349              		.cfi_startproc
 1350              		@ args = 0, pretend = 0, frame = 0
 1351              		@ frame_needed = 0, uses_anonymous_args = 0
 383:lvgl/lvgl/src/widgets/lv_img.c ****     LV_UNUSED(class_p);
 1352              		.loc 1 383 1 is_stmt 0 view .LVU476
 1353 0000 38B5     		push	{r3, r4, r5, lr}
 1354              	.LCFI8:
 1355              		.cfi_def_cfa_offset 16
 1356              		.cfi_offset 3, -16
 1357              		.cfi_offset 4, -12
 1358              		.cfi_offset 5, -8
 1359              		.cfi_offset 14, -4
 1360 0002 0C46     		mov	r4, r1
 384:lvgl/lvgl/src/widgets/lv_img.c ****     LV_TRACE_OBJ_CREATE("begin");
 1361              		.loc 1 384 5 is_stmt 1 view .LVU477
 385:lvgl/lvgl/src/widgets/lv_img.c **** 
 1362              		.loc 1 385 5 view .LVU478
 385:lvgl/lvgl/src/widgets/lv_img.c **** 
 1363              		.loc 1 385 5 view .LVU479
 385:lvgl/lvgl/src/widgets/lv_img.c **** 
 1364              		.loc 1 385 5 view .LVU480
 385:lvgl/lvgl/src/widgets/lv_img.c **** 
 1365              		.loc 1 385 33 view .LVU481
 387:lvgl/lvgl/src/widgets/lv_img.c **** 
 1366              		.loc 1 387 5 view .LVU482
 1367              	.LVL109:
 389:lvgl/lvgl/src/widgets/lv_img.c ****     img->src_type  = LV_IMG_SRC_UNKNOWN;
 1368              		.loc 1 389 5 view .LVU483
 389:lvgl/lvgl/src/widgets/lv_img.c ****     img->src_type  = LV_IMG_SRC_UNKNOWN;
 1369              		.loc 1 389 20 is_stmt 0 view .LVU484
 1370 0004 0025     		movs	r5, #0
 1371 0006 4D62     		str	r5, [r1, #36]
 390:lvgl/lvgl/src/widgets/lv_img.c ****     img->cf        = LV_IMG_CF_UNKNOWN;
 1372              		.loc 1 390 5 is_stmt 1 view .LVU485
 390:lvgl/lvgl/src/widgets/lv_img.c ****     img->cf        = LV_IMG_CF_UNKNOWN;
 1373              		.loc 1 390 20 is_stmt 0 view .LVU486
 1374 0008 91F83830 		ldrb	r3, [r1, #56]	@ zero_extendqisi2
 391:lvgl/lvgl/src/widgets/lv_img.c ****     img->w         = lv_obj_get_width(obj);
 1375              		.loc 1 391 5 is_stmt 1 view .LVU487
 391:lvgl/lvgl/src/widgets/lv_img.c ****     img->w         = lv_obj_get_width(obj);
 1376              		.loc 1 391 20 is_stmt 0 view .LVU488
 1377 000c 43F00303 		orr	r3, r3, #3
 1378 0010 65F38603 		bfi	r3, r5, #2, #5
 1379 0014 81F83830 		strb	r3, [r1, #56]
 392:lvgl/lvgl/src/widgets/lv_img.c ****     img->h         = lv_obj_get_height(obj);
 1380              		.loc 1 392 5 is_stmt 1 view .LVU489
 392:lvgl/lvgl/src/widgets/lv_img.c ****     img->h         = lv_obj_get_height(obj);
 1381              		.loc 1 392 22 is_stmt 0 view .LVU490
 1382 0018 0846     		mov	r0, r1
 1383              	.LVL110:
ARM GAS  C:\Users\gx\AppData\Local\Temp\ccAHLVXI.s 			page 54


 392:lvgl/lvgl/src/widgets/lv_img.c ****     img->h         = lv_obj_get_height(obj);
 1384              		.loc 1 392 22 view .LVU491
 1385 001a FFF7FEFF 		bl	lv_obj_get_width
 1386              	.LVL111:
 392:lvgl/lvgl/src/widgets/lv_img.c ****     img->h         = lv_obj_get_height(obj);
 1387              		.loc 1 392 20 view .LVU492
 1388 001e A085     		strh	r0, [r4, #44]	@ movhi
 393:lvgl/lvgl/src/widgets/lv_img.c ****     img->angle = 0;
 1389              		.loc 1 393 5 is_stmt 1 view .LVU493
 393:lvgl/lvgl/src/widgets/lv_img.c ****     img->angle = 0;
 1390              		.loc 1 393 22 is_stmt 0 view .LVU494
 1391 0020 2046     		mov	r0, r4
 1392 0022 FFF7FEFF 		bl	lv_obj_get_height
 1393              	.LVL112:
 393:lvgl/lvgl/src/widgets/lv_img.c ****     img->angle = 0;
 1394              		.loc 1 393 20 view .LVU495
 1395 0026 E085     		strh	r0, [r4, #46]	@ movhi
 394:lvgl/lvgl/src/widgets/lv_img.c ****     img->zoom = LV_IMG_ZOOM_NONE;
 1396              		.loc 1 394 5 is_stmt 1 view .LVU496
 394:lvgl/lvgl/src/widgets/lv_img.c ****     img->zoom = LV_IMG_ZOOM_NONE;
 1397              		.loc 1 394 16 is_stmt 0 view .LVU497
 1398 0028 2586     		strh	r5, [r4, #48]	@ movhi
 395:lvgl/lvgl/src/widgets/lv_img.c ****     img->antialias = LV_COLOR_DEPTH > 8 ? 1 : 0;
 1399              		.loc 1 395 5 is_stmt 1 view .LVU498
 395:lvgl/lvgl/src/widgets/lv_img.c ****     img->antialias = LV_COLOR_DEPTH > 8 ? 1 : 0;
 1400              		.loc 1 395 15 is_stmt 0 view .LVU499
 1401 002a 4FF48073 		mov	r3, #256
 1402 002e E386     		strh	r3, [r4, #54]	@ movhi
 396:lvgl/lvgl/src/widgets/lv_img.c ****     img->offset.x  = 0;
 1403              		.loc 1 396 5 is_stmt 1 view .LVU500
 396:lvgl/lvgl/src/widgets/lv_img.c ****     img->offset.x  = 0;
 1404              		.loc 1 396 20 is_stmt 0 view .LVU501
 1405 0030 94F83830 		ldrb	r3, [r4, #56]	@ zero_extendqisi2
 1406 0034 43F08003 		orr	r3, r3, #128
 1407 0038 84F83830 		strb	r3, [r4, #56]
 397:lvgl/lvgl/src/widgets/lv_img.c ****     img->offset.y  = 0;
 1408              		.loc 1 397 5 is_stmt 1 view .LVU502
 397:lvgl/lvgl/src/widgets/lv_img.c ****     img->offset.y  = 0;
 1409              		.loc 1 397 20 is_stmt 0 view .LVU503
 1410 003c 2585     		strh	r5, [r4, #40]	@ movhi
 398:lvgl/lvgl/src/widgets/lv_img.c ****     img->pivot.x = 0;
 1411              		.loc 1 398 5 is_stmt 1 view .LVU504
 398:lvgl/lvgl/src/widgets/lv_img.c ****     img->pivot.x = 0;
 1412              		.loc 1 398 20 is_stmt 0 view .LVU505
 1413 003e 6585     		strh	r5, [r4, #42]	@ movhi
 399:lvgl/lvgl/src/widgets/lv_img.c ****     img->pivot.y = 0;
 1414              		.loc 1 399 5 is_stmt 1 view .LVU506
 399:lvgl/lvgl/src/widgets/lv_img.c ****     img->pivot.y = 0;
 1415              		.loc 1 399 18 is_stmt 0 view .LVU507
 1416 0040 6586     		strh	r5, [r4, #50]	@ movhi
 400:lvgl/lvgl/src/widgets/lv_img.c ****     img->obj_size_mode = LV_IMG_SIZE_MODE_VIRTUAL;
 1417              		.loc 1 400 5 is_stmt 1 view .LVU508
 400:lvgl/lvgl/src/widgets/lv_img.c ****     img->obj_size_mode = LV_IMG_SIZE_MODE_VIRTUAL;
 1418              		.loc 1 400 18 is_stmt 0 view .LVU509
 1419 0042 A586     		strh	r5, [r4, #52]	@ movhi
 401:lvgl/lvgl/src/widgets/lv_img.c **** 
 1420              		.loc 1 401 5 is_stmt 1 view .LVU510
ARM GAS  C:\Users\gx\AppData\Local\Temp\ccAHLVXI.s 			page 55


 401:lvgl/lvgl/src/widgets/lv_img.c **** 
 1421              		.loc 1 401 24 is_stmt 0 view .LVU511
 1422 0044 94F83930 		ldrb	r3, [r4, #57]	@ zero_extendqisi2
 1423 0048 65F30103 		bfi	r3, r5, #0, #2
 1424 004c 84F83930 		strb	r3, [r4, #57]
 403:lvgl/lvgl/src/widgets/lv_img.c ****     lv_obj_add_flag(obj, LV_OBJ_FLAG_ADV_HITTEST);
 1425              		.loc 1 403 5 is_stmt 1 view .LVU512
 1426 0050 0221     		movs	r1, #2
 1427 0052 2046     		mov	r0, r4
 1428 0054 FFF7FEFF 		bl	lv_obj_clear_flag
 1429              	.LVL113:
 404:lvgl/lvgl/src/widgets/lv_img.c **** 
 1430              		.loc 1 404 5 view .LVU513
 1431 0058 4FF48041 		mov	r1, #16384
 1432 005c 2046     		mov	r0, r4
 1433 005e FFF7FEFF 		bl	lv_obj_add_flag
 1434              	.LVL114:
 406:lvgl/lvgl/src/widgets/lv_img.c **** }
 1435              		.loc 1 406 5 view .LVU514
 406:lvgl/lvgl/src/widgets/lv_img.c **** }
 1436              		.loc 1 406 5 view .LVU515
 406:lvgl/lvgl/src/widgets/lv_img.c **** }
 1437              		.loc 1 406 5 view .LVU516
 406:lvgl/lvgl/src/widgets/lv_img.c **** }
 1438              		.loc 1 406 36 view .LVU517
 407:lvgl/lvgl/src/widgets/lv_img.c **** 
 1439              		.loc 1 407 1 is_stmt 0 view .LVU518
 1440 0062 38BD     		pop	{r3, r4, r5, pc}
 407:lvgl/lvgl/src/widgets/lv_img.c **** 
 1441              		.loc 1 407 1 view .LVU519
 1442              		.cfi_endproc
 1443              	.LFE169:
 1445              		.section	.text.lv_img_create,"ax",%progbits
 1446              		.align	1
 1447              		.global	lv_img_create
 1448              		.syntax unified
 1449              		.thumb
 1450              		.thumb_func
 1451              		.fpu fpv4-sp-d16
 1453              	lv_img_create:
 1454              	.LVL115:
 1455              	.LFB152:
  58:lvgl/lvgl/src/widgets/lv_img.c ****     LV_LOG_INFO("begin")
 1456              		.loc 1 58 1 is_stmt 1 view -0
 1457              		.cfi_startproc
 1458              		@ args = 0, pretend = 0, frame = 0
 1459              		@ frame_needed = 0, uses_anonymous_args = 0
  58:lvgl/lvgl/src/widgets/lv_img.c ****     LV_LOG_INFO("begin")
 1460              		.loc 1 58 1 is_stmt 0 view .LVU521
 1461 0000 10B5     		push	{r4, lr}
 1462              	.LCFI9:
 1463              		.cfi_def_cfa_offset 8
 1464              		.cfi_offset 4, -8
 1465              		.cfi_offset 14, -4
 1466 0002 0146     		mov	r1, r0
  59:lvgl/lvgl/src/widgets/lv_img.c ****     lv_obj_t * obj = lv_obj_class_create_obj(MY_CLASS, parent);
 1467              		.loc 1 59 5 is_stmt 1 view .LVU522
ARM GAS  C:\Users\gx\AppData\Local\Temp\ccAHLVXI.s 			page 56


  59:lvgl/lvgl/src/widgets/lv_img.c ****     lv_obj_t * obj = lv_obj_class_create_obj(MY_CLASS, parent);
 1468              		.loc 1 59 5 view .LVU523
  59:lvgl/lvgl/src/widgets/lv_img.c ****     lv_obj_t * obj = lv_obj_class_create_obj(MY_CLASS, parent);
 1469              		.loc 1 59 5 view .LVU524
  60:lvgl/lvgl/src/widgets/lv_img.c ****     lv_obj_class_init_obj(obj);
 1470              		.loc 1 60 5 view .LVU525
  60:lvgl/lvgl/src/widgets/lv_img.c ****     lv_obj_class_init_obj(obj);
 1471              		.loc 1 60 22 is_stmt 0 view .LVU526
 1472 0004 0348     		ldr	r0, .L50
 1473              	.LVL116:
  60:lvgl/lvgl/src/widgets/lv_img.c ****     lv_obj_class_init_obj(obj);
 1474              		.loc 1 60 22 view .LVU527
 1475 0006 FFF7FEFF 		bl	lv_obj_class_create_obj
 1476              	.LVL117:
  60:lvgl/lvgl/src/widgets/lv_img.c ****     lv_obj_class_init_obj(obj);
 1477              		.loc 1 60 22 view .LVU528
 1478 000a 0446     		mov	r4, r0
 1479              	.LVL118:
  61:lvgl/lvgl/src/widgets/lv_img.c ****     return obj;
 1480              		.loc 1 61 5 is_stmt 1 view .LVU529
 1481 000c FFF7FEFF 		bl	lv_obj_class_init_obj
 1482              	.LVL119:
  62:lvgl/lvgl/src/widgets/lv_img.c **** }
 1483              		.loc 1 62 5 view .LVU530
  63:lvgl/lvgl/src/widgets/lv_img.c **** 
 1484              		.loc 1 63 1 is_stmt 0 view .LVU531
 1485 0010 2046     		mov	r0, r4
 1486 0012 10BD     		pop	{r4, pc}
 1487              	.LVL120:
 1488              	.L51:
  63:lvgl/lvgl/src/widgets/lv_img.c **** 
 1489              		.loc 1 63 1 view .LVU532
 1490              		.align	2
 1491              	.L50:
 1492 0014 00000000 		.word	.LANCHOR0
 1493              		.cfi_endproc
 1494              	.LFE152:
 1496              		.section	.rodata.lv_img_set_src.str1.4,"aMS",%progbits,1
 1497              		.align	2
 1498              	.LC2:
 1499 0000 6C765F69 		.ascii	"lv_img_set_src: unknown type\000"
 1499      6D675F73 
 1499      65745F73 
 1499      72633A20 
 1499      756E6B6E 
 1500 001d 000000   		.align	2
 1501              	.LC3:
 1502 0020 6C765F69 		.ascii	"lv_img_set_src: unknown image type\000"
 1502      6D675F73 
 1502      65745F73 
 1502      72633A20 
 1502      756E6B6E 
 1503 0043 00       		.align	2
 1504              	.LC4:
 1505 0044 4F757420 		.ascii	"Out of memory\000"
 1505      6F66206D 
 1505      656D6F72 
ARM GAS  C:\Users\gx\AppData\Local\Temp\ccAHLVXI.s 			page 57


 1505      7900
 1506 0052 0000     		.align	2
 1507              	.LC5:
 1508 0054 6E65775F 		.ascii	"new_str != NULL\000"
 1508      73747220 
 1508      213D204E 
 1508      554C4C00 
 1509              		.align	2
 1510              	.LC6:
 1511 0064 41737365 		.ascii	"Asserted at expression: %s (%s)\000"
 1511      72746564 
 1511      20617420 
 1511      65787072 
 1511      65737369 
 1512              		.section	.text.lv_img_set_src,"ax",%progbits
 1513              		.align	1
 1514              		.global	lv_img_set_src
 1515              		.syntax unified
 1516              		.thumb
 1517              		.thumb_func
 1518              		.fpu fpv4-sp-d16
 1520              	lv_img_set_src:
 1521              	.LVL121:
 1522              	.LFB153:
  70:lvgl/lvgl/src/widgets/lv_img.c ****     LV_ASSERT_OBJ(obj, MY_CLASS);
 1523              		.loc 1 70 1 is_stmt 1 view -0
 1524              		.cfi_startproc
 1525              		@ args = 0, pretend = 0, frame = 8
 1526              		@ frame_needed = 0, uses_anonymous_args = 0
  70:lvgl/lvgl/src/widgets/lv_img.c ****     LV_ASSERT_OBJ(obj, MY_CLASS);
 1527              		.loc 1 70 1 is_stmt 0 view .LVU534
 1528 0000 2DE9F041 		push	{r4, r5, r6, r7, r8, lr}
 1529              	.LCFI10:
 1530              		.cfi_def_cfa_offset 24
 1531              		.cfi_offset 4, -24
 1532              		.cfi_offset 5, -20
 1533              		.cfi_offset 6, -16
 1534              		.cfi_offset 7, -12
 1535              		.cfi_offset 8, -8
 1536              		.cfi_offset 14, -4
 1537 0004 86B0     		sub	sp, sp, #24
 1538              	.LCFI11:
 1539              		.cfi_def_cfa_offset 48
 1540 0006 0446     		mov	r4, r0
 1541 0008 0E46     		mov	r6, r1
  71:lvgl/lvgl/src/widgets/lv_img.c **** 
 1542              		.loc 1 71 5 is_stmt 1 view .LVU535
  71:lvgl/lvgl/src/widgets/lv_img.c **** 
 1543              		.loc 1 71 5 view .LVU536
  71:lvgl/lvgl/src/widgets/lv_img.c **** 
 1544              		.loc 1 71 5 view .LVU537
  73:lvgl/lvgl/src/widgets/lv_img.c **** 
 1545              		.loc 1 73 5 view .LVU538
 1546 000a FFF7FEFF 		bl	lv_obj_invalidate
 1547              	.LVL122:
  75:lvgl/lvgl/src/widgets/lv_img.c ****     lv_img_t * img = (lv_img_t *)obj;
 1548              		.loc 1 75 5 view .LVU539
ARM GAS  C:\Users\gx\AppData\Local\Temp\ccAHLVXI.s 			page 58


  75:lvgl/lvgl/src/widgets/lv_img.c ****     lv_img_t * img = (lv_img_t *)obj;
 1549              		.loc 1 75 29 is_stmt 0 view .LVU540
 1550 000e 3046     		mov	r0, r6
 1551 0010 FFF7FEFF 		bl	lv_img_src_get_type
 1552              	.LVL123:
 1553 0014 0546     		mov	r5, r0
 1554              	.LVL124:
  76:lvgl/lvgl/src/widgets/lv_img.c **** 
 1555              		.loc 1 76 5 is_stmt 1 view .LVU541
  79:lvgl/lvgl/src/widgets/lv_img.c ****         case LV_IMG_SRC_FILE:
 1556              		.loc 1 79 5 view .LVU542
 1557 0016 0228     		cmp	r0, #2
 1558 0018 3ED8     		bhi	.L67
 1559              	.LVL125:
 1560              	.L53:
  90:lvgl/lvgl/src/widgets/lv_img.c ****     }
 1561              		.loc 1 90 56 discriminator 1 view .LVU543
  95:lvgl/lvgl/src/widgets/lv_img.c ****         LV_LOG_WARN("lv_img_set_src: unknown image type");
 1562              		.loc 1 95 5 discriminator 1 view .LVU544
  95:lvgl/lvgl/src/widgets/lv_img.c ****         LV_LOG_WARN("lv_img_set_src: unknown image type");
 1563              		.loc 1 95 7 is_stmt 0 discriminator 1 view .LVU545
 1564 001a 032D     		cmp	r5, #3
 1565 001c 45D0     		beq	.L68
 105:lvgl/lvgl/src/widgets/lv_img.c ****     lv_img_decoder_get_info(src, &header);
 1566              		.loc 1 105 5 is_stmt 1 view .LVU546
 106:lvgl/lvgl/src/widgets/lv_img.c **** 
 1567              		.loc 1 106 5 view .LVU547
 1568 001e 05A9     		add	r1, sp, #20
 1569 0020 3046     		mov	r0, r6
 1570 0022 FFF7FEFF 		bl	lv_img_decoder_get_info
 1571              	.LVL126:
 109:lvgl/lvgl/src/widgets/lv_img.c ****         /*If memory was allocated because of the previous `src_type` then free it*/
 1572              		.loc 1 109 5 view .LVU548
 109:lvgl/lvgl/src/widgets/lv_img.c ****         /*If memory was allocated because of the previous `src_type` then free it*/
 1573              		.loc 1 109 7 is_stmt 0 view .LVU549
 1574 0026 002D     		cmp	r5, #0
 1575 0028 60D1     		bne	.L57
 111:lvgl/lvgl/src/widgets/lv_img.c ****             lv_mem_free((void*)img->src);
 1576              		.loc 1 111 9 is_stmt 1 view .LVU550
 111:lvgl/lvgl/src/widgets/lv_img.c ****             lv_mem_free((void*)img->src);
 1577              		.loc 1 111 26 is_stmt 0 view .LVU551
 1578 002a 94F83830 		ldrb	r3, [r4, #56]	@ zero_extendqisi2
 111:lvgl/lvgl/src/widgets/lv_img.c ****             lv_mem_free((void*)img->src);
 1579              		.loc 1 111 45 view .LVU552
 1580 002e 03F00303 		and	r3, r3, #3
 1581 0032 013B     		subs	r3, r3, #1
 1582 0034 DBB2     		uxtb	r3, r3
 111:lvgl/lvgl/src/widgets/lv_img.c ****             lv_mem_free((void*)img->src);
 1583              		.loc 1 111 11 view .LVU553
 1584 0036 012B     		cmp	r3, #1
 1585 0038 54D9     		bls	.L69
 1586              	.L58:
 114:lvgl/lvgl/src/widgets/lv_img.c ****     }
 1587              		.loc 1 114 9 is_stmt 1 view .LVU554
 114:lvgl/lvgl/src/widgets/lv_img.c ****     }
 1588              		.loc 1 114 18 is_stmt 0 view .LVU555
 1589 003a 6662     		str	r6, [r4, #36]
ARM GAS  C:\Users\gx\AppData\Local\Temp\ccAHLVXI.s 			page 59


 1590              	.L59:
 136:lvgl/lvgl/src/widgets/lv_img.c ****         /*`lv_img_dsc_get_info` couldn't set the with and height of a font so set it here*/
 1591              		.loc 1 136 5 is_stmt 1 view .LVU556
 136:lvgl/lvgl/src/widgets/lv_img.c ****         /*`lv_img_dsc_get_info` couldn't set the with and height of a font so set it here*/
 1592              		.loc 1 136 7 is_stmt 0 view .LVU557
 1593 003c 022D     		cmp	r5, #2
 1594 003e 00F08580 		beq	.L70
 1595              	.LVL127:
 1596              	.L63:
 147:lvgl/lvgl/src/widgets/lv_img.c ****     img->w        = header.w;
 1597              		.loc 1 147 5 is_stmt 1 view .LVU558
 147:lvgl/lvgl/src/widgets/lv_img.c ****     img->w        = header.w;
 1598              		.loc 1 147 19 is_stmt 0 view .LVU559
 1599 0042 94F83830 		ldrb	r3, [r4, #56]	@ zero_extendqisi2
 1600 0046 65F30103 		bfi	r3, r5, #0, #2
 148:lvgl/lvgl/src/widgets/lv_img.c ****     img->h        = header.h;
 1601              		.loc 1 148 5 is_stmt 1 view .LVU560
 148:lvgl/lvgl/src/widgets/lv_img.c ****     img->h        = header.h;
 1602              		.loc 1 148 27 is_stmt 0 view .LVU561
 1603 004a 0599     		ldr	r1, [sp, #20]
 1604 004c C1F38A22 		ubfx	r2, r1, #10, #11
 148:lvgl/lvgl/src/widgets/lv_img.c ****     img->h        = header.h;
 1605              		.loc 1 148 19 view .LVU562
 1606 0050 A285     		strh	r2, [r4, #44]	@ movhi
 149:lvgl/lvgl/src/widgets/lv_img.c ****     img->cf       = header.cf;
 1607              		.loc 1 149 5 is_stmt 1 view .LVU563
 149:lvgl/lvgl/src/widgets/lv_img.c ****     img->cf       = header.cf;
 1608              		.loc 1 149 27 is_stmt 0 view .LVU564
 1609 0052 BDF81620 		ldrh	r2, [sp, #22]
 1610 0056 C2F34A10 		ubfx	r0, r2, #5, #11
 149:lvgl/lvgl/src/widgets/lv_img.c ****     img->cf       = header.cf;
 1611              		.loc 1 149 19 view .LVU565
 1612 005a E085     		strh	r0, [r4, #46]	@ movhi
 150:lvgl/lvgl/src/widgets/lv_img.c ****     img->pivot.x = header.w / 2;
 1613              		.loc 1 150 5 is_stmt 1 view .LVU566
 150:lvgl/lvgl/src/widgets/lv_img.c ****     img->pivot.x = header.w / 2;
 1614              		.loc 1 150 27 is_stmt 0 view .LVU567
 1615 005c 9DF81400 		ldrb	r0, [sp, #20]	@ zero_extendqisi2
 150:lvgl/lvgl/src/widgets/lv_img.c ****     img->pivot.x = header.w / 2;
 1616              		.loc 1 150 19 view .LVU568
 1617 0060 60F38603 		bfi	r3, r0, #2, #5
 1618 0064 84F83830 		strb	r3, [r4, #56]
 151:lvgl/lvgl/src/widgets/lv_img.c ****     img->pivot.y = header.h / 2;
 1619              		.loc 1 151 5 is_stmt 1 view .LVU569
 151:lvgl/lvgl/src/widgets/lv_img.c ****     img->pivot.y = header.h / 2;
 1620              		.loc 1 151 29 is_stmt 0 view .LVU570
 1621 0068 C1F3C921 		ubfx	r1, r1, #11, #10
 151:lvgl/lvgl/src/widgets/lv_img.c ****     img->pivot.y = header.h / 2;
 1622              		.loc 1 151 18 view .LVU571
 1623 006c 6186     		strh	r1, [r4, #50]	@ movhi
 152:lvgl/lvgl/src/widgets/lv_img.c **** 
 1624              		.loc 1 152 5 is_stmt 1 view .LVU572
 152:lvgl/lvgl/src/widgets/lv_img.c **** 
 1625              		.loc 1 152 29 is_stmt 0 view .LVU573
 1626 006e C2F38912 		ubfx	r2, r2, #6, #10
 152:lvgl/lvgl/src/widgets/lv_img.c **** 
 1627              		.loc 1 152 18 view .LVU574
ARM GAS  C:\Users\gx\AppData\Local\Temp\ccAHLVXI.s 			page 60


 1628 0072 A286     		strh	r2, [r4, #52]	@ movhi
 154:lvgl/lvgl/src/widgets/lv_img.c **** 
 1629              		.loc 1 154 5 is_stmt 1 view .LVU575
 1630 0074 2046     		mov	r0, r4
 1631 0076 FFF7FEFF 		bl	lv_obj_refresh_self_size
 1632              	.LVL128:
 157:lvgl/lvgl/src/widgets/lv_img.c **** 
 1633              		.loc 1 157 5 view .LVU576
 157:lvgl/lvgl/src/widgets/lv_img.c **** 
 1634              		.loc 1 157 11 is_stmt 0 view .LVU577
 1635 007a 238E     		ldrh	r3, [r4, #48]
 157:lvgl/lvgl/src/widgets/lv_img.c **** 
 1636              		.loc 1 157 7 view .LVU578
 1637 007c 1BB9     		cbnz	r3, .L64
 157:lvgl/lvgl/src/widgets/lv_img.c **** 
 1638              		.loc 1 157 25 discriminator 2 view .LVU579
 1639 007e E38E     		ldrh	r3, [r4, #54]
 157:lvgl/lvgl/src/widgets/lv_img.c **** 
 1640              		.loc 1 157 19 discriminator 2 view .LVU580
 1641 0080 B3F5807F 		cmp	r3, #256
 1642 0084 02D0     		beq	.L65
 1643              	.L64:
 157:lvgl/lvgl/src/widgets/lv_img.c **** 
 1644              		.loc 1 157 53 is_stmt 1 discriminator 3 view .LVU581
 1645 0086 2046     		mov	r0, r4
 1646 0088 FFF7FEFF 		bl	lv_obj_refresh_ext_draw_size
 1647              	.LVL129:
 1648              	.L65:
 159:lvgl/lvgl/src/widgets/lv_img.c **** }
 1649              		.loc 1 159 5 view .LVU582
 1650 008c 2046     		mov	r0, r4
 1651 008e FFF7FEFF 		bl	lv_obj_invalidate
 1652              	.LVL130:
 1653              	.L52:
 160:lvgl/lvgl/src/widgets/lv_img.c **** 
 1654              		.loc 1 160 1 is_stmt 0 view .LVU583
 1655 0092 06B0     		add	sp, sp, #24
 1656              	.LCFI12:
 1657              		.cfi_remember_state
 1658              		.cfi_def_cfa_offset 24
 1659              		@ sp needed
 1660 0094 BDE8F081 		pop	{r4, r5, r6, r7, r8, pc}
 1661              	.LVL131:
 1662              	.L67:
 1663              	.LCFI13:
 1664              		.cfi_restore_state
  90:lvgl/lvgl/src/widgets/lv_img.c ****     }
 1665              		.loc 1 90 13 is_stmt 1 view .LVU584
 1666 0098 454B     		ldr	r3, .L73
 1667 009a 0093     		str	r3, [sp]
 1668 009c 454B     		ldr	r3, .L73+4
 1669 009e 5A22     		movs	r2, #90
 1670 00a0 4549     		ldr	r1, .L73+8
 1671 00a2 0220     		movs	r0, #2
 1672              	.LVL132:
  90:lvgl/lvgl/src/widgets/lv_img.c ****     }
 1673              		.loc 1 90 13 is_stmt 0 view .LVU585
ARM GAS  C:\Users\gx\AppData\Local\Temp\ccAHLVXI.s 			page 61


 1674 00a4 FFF7FEFF 		bl	_lv_log_add
 1675              	.LVL133:
 1676 00a8 B7E7     		b	.L53
 1677              	.L68:
  96:lvgl/lvgl/src/widgets/lv_img.c ****         if(img->src_type == LV_IMG_SRC_SYMBOL || img->src_type == LV_IMG_SRC_FILE) {
 1678              		.loc 1 96 9 is_stmt 1 view .LVU586
 1679 00aa 444B     		ldr	r3, .L73+12
 1680 00ac 0093     		str	r3, [sp]
 1681 00ae 414B     		ldr	r3, .L73+4
 1682 00b0 6022     		movs	r2, #96
 1683 00b2 4149     		ldr	r1, .L73+8
 1684 00b4 0220     		movs	r0, #2
 1685 00b6 FFF7FEFF 		bl	_lv_log_add
 1686              	.LVL134:
  96:lvgl/lvgl/src/widgets/lv_img.c ****         if(img->src_type == LV_IMG_SRC_SYMBOL || img->src_type == LV_IMG_SRC_FILE) {
 1687              		.loc 1 96 58 view .LVU587
  97:lvgl/lvgl/src/widgets/lv_img.c ****             lv_mem_free((void*)img->src);
 1688              		.loc 1 97 9 view .LVU588
  97:lvgl/lvgl/src/widgets/lv_img.c ****             lv_mem_free((void*)img->src);
 1689              		.loc 1 97 26 is_stmt 0 view .LVU589
 1690 00ba 94F83830 		ldrb	r3, [r4, #56]	@ zero_extendqisi2
  97:lvgl/lvgl/src/widgets/lv_img.c ****             lv_mem_free((void*)img->src);
 1691              		.loc 1 97 47 view .LVU590
 1692 00be 03F00303 		and	r3, r3, #3
 1693 00c2 013B     		subs	r3, r3, #1
 1694 00c4 DBB2     		uxtb	r3, r3
  97:lvgl/lvgl/src/widgets/lv_img.c ****             lv_mem_free((void*)img->src);
 1695              		.loc 1 97 11 view .LVU591
 1696 00c6 012B     		cmp	r3, #1
 1697 00c8 08D9     		bls	.L71
 1698              	.L55:
 100:lvgl/lvgl/src/widgets/lv_img.c ****         img->src_type = LV_IMG_SRC_UNKNOWN;
 1699              		.loc 1 100 9 is_stmt 1 view .LVU592
 100:lvgl/lvgl/src/widgets/lv_img.c ****         img->src_type = LV_IMG_SRC_UNKNOWN;
 1700              		.loc 1 100 23 is_stmt 0 view .LVU593
 1701 00ca 0023     		movs	r3, #0
 1702 00cc 6362     		str	r3, [r4, #36]
 101:lvgl/lvgl/src/widgets/lv_img.c ****         return;
 1703              		.loc 1 101 9 is_stmt 1 view .LVU594
 101:lvgl/lvgl/src/widgets/lv_img.c ****         return;
 1704              		.loc 1 101 23 is_stmt 0 view .LVU595
 1705 00ce 94F83830 		ldrb	r3, [r4, #56]	@ zero_extendqisi2
 1706 00d2 43F00303 		orr	r3, r3, #3
 1707 00d6 84F83830 		strb	r3, [r4, #56]
 102:lvgl/lvgl/src/widgets/lv_img.c ****     }
 1708              		.loc 1 102 9 is_stmt 1 view .LVU596
 1709 00da DAE7     		b	.L52
 1710              	.L71:
  98:lvgl/lvgl/src/widgets/lv_img.c ****         }
 1711              		.loc 1 98 13 view .LVU597
 1712 00dc 606A     		ldr	r0, [r4, #36]
 1713 00de FFF7FEFF 		bl	lv_mem_free
 1714              	.LVL135:
 1715 00e2 F2E7     		b	.L55
 1716              	.L69:
 112:lvgl/lvgl/src/widgets/lv_img.c ****         }
 1717              		.loc 1 112 13 view .LVU598
ARM GAS  C:\Users\gx\AppData\Local\Temp\ccAHLVXI.s 			page 62


 1718 00e4 606A     		ldr	r0, [r4, #36]
 1719 00e6 FFF7FEFF 		bl	lv_mem_free
 1720              	.LVL136:
 1721 00ea A6E7     		b	.L58
 1722              	.L57:
 116:lvgl/lvgl/src/widgets/lv_img.c ****         /*If the new and the old src are the same then it was only a refresh.*/
 1723              		.loc 1 116 10 view .LVU599
 116:lvgl/lvgl/src/widgets/lv_img.c ****         /*If the new and the old src are the same then it was only a refresh.*/
 1724              		.loc 1 116 41 is_stmt 0 view .LVU600
 1725 00ec 6B1E     		subs	r3, r5, #1
 1726 00ee DBB2     		uxtb	r3, r3
 116:lvgl/lvgl/src/widgets/lv_img.c ****         /*If the new and the old src are the same then it was only a refresh.*/
 1727              		.loc 1 116 12 view .LVU601
 1728 00f0 012B     		cmp	r3, #1
 1729 00f2 A3D8     		bhi	.L59
 118:lvgl/lvgl/src/widgets/lv_img.c ****             const void * old_src = NULL;
 1730              		.loc 1 118 9 is_stmt 1 view .LVU602
 118:lvgl/lvgl/src/widgets/lv_img.c ****             const void * old_src = NULL;
 1731              		.loc 1 118 15 is_stmt 0 view .LVU603
 1732 00f4 676A     		ldr	r7, [r4, #36]
 118:lvgl/lvgl/src/widgets/lv_img.c ****             const void * old_src = NULL;
 1733              		.loc 1 118 11 view .LVU604
 1734 00f6 B742     		cmp	r7, r6
 1735 00f8 A0D0     		beq	.L59
 1736              	.LBB130:
 119:lvgl/lvgl/src/widgets/lv_img.c ****             /*If memory was allocated because of the previous `src_type` then save its pointer and 
 1737              		.loc 1 119 13 is_stmt 1 view .LVU605
 1738              	.LVL137:
 123:lvgl/lvgl/src/widgets/lv_img.c ****                 old_src = img->src;
 1739              		.loc 1 123 13 view .LVU606
 123:lvgl/lvgl/src/widgets/lv_img.c ****                 old_src = img->src;
 1740              		.loc 1 123 30 is_stmt 0 view .LVU607
 1741 00fa 94F83830 		ldrb	r3, [r4, #56]	@ zero_extendqisi2
 123:lvgl/lvgl/src/widgets/lv_img.c ****                 old_src = img->src;
 1742              		.loc 1 123 49 view .LVU608
 1743 00fe 03F00303 		and	r3, r3, #3
 1744 0102 013B     		subs	r3, r3, #1
 1745 0104 DBB2     		uxtb	r3, r3
 123:lvgl/lvgl/src/widgets/lv_img.c ****                 old_src = img->src;
 1746              		.loc 1 123 15 view .LVU609
 1747 0106 012B     		cmp	r3, #1
 1748 0108 00D9     		bls	.L60
 119:lvgl/lvgl/src/widgets/lv_img.c ****             /*If memory was allocated because of the previous `src_type` then save its pointer and 
 1749              		.loc 1 119 26 view .LVU610
 1750 010a 0027     		movs	r7, #0
 1751              	.L60:
 1752              	.LVL138:
 126:lvgl/lvgl/src/widgets/lv_img.c ****             LV_ASSERT_MALLOC(new_str);
 1753              		.loc 1 126 13 is_stmt 1 view .LVU611
 126:lvgl/lvgl/src/widgets/lv_img.c ****             LV_ASSERT_MALLOC(new_str);
 1754              		.loc 1 126 43 is_stmt 0 view .LVU612
 1755 010c 3046     		mov	r0, r6
 1756 010e FFF7FEFF 		bl	strlen
 1757              	.LVL139:
 126:lvgl/lvgl/src/widgets/lv_img.c ****             LV_ASSERT_MALLOC(new_str);
 1758              		.loc 1 126 30 view .LVU613
 1759 0112 0130     		adds	r0, r0, #1
ARM GAS  C:\Users\gx\AppData\Local\Temp\ccAHLVXI.s 			page 63


 1760 0114 FFF7FEFF 		bl	lv_mem_alloc
 1761              	.LVL140:
 127:lvgl/lvgl/src/widgets/lv_img.c ****             if(new_str == NULL) return;
 1762              		.loc 1 127 13 is_stmt 1 view .LVU614
 127:lvgl/lvgl/src/widgets/lv_img.c ****             if(new_str == NULL) return;
 1763              		.loc 1 127 13 view .LVU615
 1764 0118 8046     		mov	r8, r0
 1765 011a 50B1     		cbz	r0, .L72
 127:lvgl/lvgl/src/widgets/lv_img.c ****             if(new_str == NULL) return;
 1766              		.loc 1 127 13 view .LVU616
 127:lvgl/lvgl/src/widgets/lv_img.c ****             if(new_str == NULL) return;
 1767              		.loc 1 127 38 view .LVU617
 128:lvgl/lvgl/src/widgets/lv_img.c ****             strcpy(new_str, src);
 1768              		.loc 1 128 13 view .LVU618
 129:lvgl/lvgl/src/widgets/lv_img.c ****             img->src = new_str;
 1769              		.loc 1 129 13 view .LVU619
 1770 011c 3146     		mov	r1, r6
 1771 011e FFF7FEFF 		bl	strcpy
 1772              	.LVL141:
 130:lvgl/lvgl/src/widgets/lv_img.c **** 
 1773              		.loc 1 130 13 view .LVU620
 130:lvgl/lvgl/src/widgets/lv_img.c **** 
 1774              		.loc 1 130 22 is_stmt 0 view .LVU621
 1775 0122 C4F82480 		str	r8, [r4, #36]
 132:lvgl/lvgl/src/widgets/lv_img.c ****         }
 1776              		.loc 1 132 13 is_stmt 1 view .LVU622
 132:lvgl/lvgl/src/widgets/lv_img.c ****         }
 1777              		.loc 1 132 15 is_stmt 0 view .LVU623
 1778 0126 002F     		cmp	r7, #0
 1779 0128 88D0     		beq	.L59
 132:lvgl/lvgl/src/widgets/lv_img.c ****         }
 1780              		.loc 1 132 25 is_stmt 1 discriminator 1 view .LVU624
 1781 012a 3846     		mov	r0, r7
 1782 012c FFF7FEFF 		bl	lv_mem_free
 1783              	.LVL142:
 1784 0130 84E7     		b	.L59
 1785              	.LVL143:
 1786              	.L72:
 127:lvgl/lvgl/src/widgets/lv_img.c ****             if(new_str == NULL) return;
 1787              		.loc 1 127 13 discriminator 1 view .LVU625
 1788 0132 234B     		ldr	r3, .L73+16
 1789 0134 0293     		str	r3, [sp, #8]
 1790 0136 234B     		ldr	r3, .L73+20
 1791 0138 0193     		str	r3, [sp, #4]
 1792 013a 234B     		ldr	r3, .L73+24
 1793 013c 0093     		str	r3, [sp]
 1794 013e 1D4B     		ldr	r3, .L73+4
 1795 0140 7F22     		movs	r2, #127
 1796 0142 1D49     		ldr	r1, .L73+8
 1797 0144 0320     		movs	r0, #3
 1798              	.LVL144:
 127:lvgl/lvgl/src/widgets/lv_img.c ****             if(new_str == NULL) return;
 1799              		.loc 1 127 13 is_stmt 0 discriminator 1 view .LVU626
 1800 0146 FFF7FEFF 		bl	_lv_log_add
 1801              	.LVL145:
 1802              	.L62:
 127:lvgl/lvgl/src/widgets/lv_img.c ****             if(new_str == NULL) return;
ARM GAS  C:\Users\gx\AppData\Local\Temp\ccAHLVXI.s 			page 64


 1803              		.loc 1 127 13 is_stmt 1 discriminator 1 view .LVU627
 127:lvgl/lvgl/src/widgets/lv_img.c ****             if(new_str == NULL) return;
 1804              		.loc 1 127 13 discriminator 1 view .LVU628
 127:lvgl/lvgl/src/widgets/lv_img.c ****             if(new_str == NULL) return;
 1805              		.loc 1 127 13 discriminator 1 view .LVU629
 127:lvgl/lvgl/src/widgets/lv_img.c ****             if(new_str == NULL) return;
 1806              		.loc 1 127 13 discriminator 1 view .LVU630
 1807 014a FEE7     		b	.L62
 1808              	.LVL146:
 1809              	.L70:
 127:lvgl/lvgl/src/widgets/lv_img.c ****             if(new_str == NULL) return;
 1810              		.loc 1 127 13 is_stmt 0 discriminator 1 view .LVU631
 1811              	.LBE130:
 1812              	.LBB131:
 138:lvgl/lvgl/src/widgets/lv_img.c ****         lv_coord_t letter_space = lv_obj_get_style_text_letter_space(obj, LV_PART_MAIN);
 1813              		.loc 1 138 9 is_stmt 1 view .LVU632
 1814              	.LBB132:
 1815              	.LBI132:
 331:lvgl/lvgl/src/widgets/../core/lv_obj_style_gen.h **** {
 1816              		.loc 2 331 33 view .LVU633
 1817              	.LBB133:
 333:lvgl/lvgl/src/widgets/../core/lv_obj_style_gen.h ****     return (const lv_font_t *)v.ptr;
 1818              		.loc 2 333 5 view .LVU634
 333:lvgl/lvgl/src/widgets/../core/lv_obj_style_gen.h ****     return (const lv_font_t *)v.ptr;
 1819              		.loc 2 333 26 is_stmt 0 view .LVU635
 1820 014c 41F25942 		movw	r2, #5209
 1821 0150 0021     		movs	r1, #0
 1822 0152 2046     		mov	r0, r4
 1823 0154 FFF7FEFF 		bl	lv_obj_get_style_prop
 1824              	.LVL147:
 1825 0158 0746     		mov	r7, r0
 334:lvgl/lvgl/src/widgets/../core/lv_obj_style_gen.h **** }
 1826              		.loc 2 334 5 is_stmt 1 view .LVU636
 1827              	.LVL148:
 334:lvgl/lvgl/src/widgets/../core/lv_obj_style_gen.h **** }
 1828              		.loc 2 334 5 is_stmt 0 view .LVU637
 1829              	.LBE133:
 1830              	.LBE132:
 139:lvgl/lvgl/src/widgets/lv_img.c ****         lv_coord_t line_space = lv_obj_get_style_text_line_space(obj, LV_PART_MAIN);
 1831              		.loc 1 139 9 is_stmt 1 view .LVU638
 1832              	.LBB134:
 1833              	.LBI134:
 337:lvgl/lvgl/src/widgets/../core/lv_obj_style_gen.h **** {
 1834              		.loc 2 337 26 view .LVU639
 1835              	.LBB135:
 339:lvgl/lvgl/src/widgets/../core/lv_obj_style_gen.h ****     return (lv_coord_t)v.num;
 1836              		.loc 2 339 5 view .LVU640
 339:lvgl/lvgl/src/widgets/../core/lv_obj_style_gen.h ****     return (lv_coord_t)v.num;
 1837              		.loc 2 339 26 is_stmt 0 view .LVU641
 1838 015a 41F25A42 		movw	r2, #5210
 1839 015e 0021     		movs	r1, #0
 1840 0160 2046     		mov	r0, r4
 1841              	.LVL149:
 339:lvgl/lvgl/src/widgets/../core/lv_obj_style_gen.h ****     return (lv_coord_t)v.num;
 1842              		.loc 2 339 26 view .LVU642
 1843 0162 FFF7FEFF 		bl	lv_obj_get_style_prop
 1844              	.LVL150:
ARM GAS  C:\Users\gx\AppData\Local\Temp\ccAHLVXI.s 			page 65


 340:lvgl/lvgl/src/widgets/../core/lv_obj_style_gen.h **** }
 1845              		.loc 2 340 5 is_stmt 1 view .LVU643
 340:lvgl/lvgl/src/widgets/../core/lv_obj_style_gen.h **** }
 1846              		.loc 2 340 12 is_stmt 0 view .LVU644
 1847 0166 0FFA80F8 		sxth	r8, r0
 1848              	.LVL151:
 340:lvgl/lvgl/src/widgets/../core/lv_obj_style_gen.h **** }
 1849              		.loc 2 340 12 view .LVU645
 1850              	.LBE135:
 1851              	.LBE134:
 140:lvgl/lvgl/src/widgets/lv_img.c ****         lv_point_t size;
 1852              		.loc 1 140 9 is_stmt 1 view .LVU646
 1853              	.LBB136:
 1854              	.LBI136:
 343:lvgl/lvgl/src/widgets/../core/lv_obj_style_gen.h **** {
 1855              		.loc 2 343 26 view .LVU647
 1856              	.LBB137:
 345:lvgl/lvgl/src/widgets/../core/lv_obj_style_gen.h ****     return (lv_coord_t)v.num;
 1857              		.loc 2 345 5 view .LVU648
 345:lvgl/lvgl/src/widgets/../core/lv_obj_style_gen.h ****     return (lv_coord_t)v.num;
 1858              		.loc 2 345 26 is_stmt 0 view .LVU649
 1859 016a 41F25B42 		movw	r2, #5211
 1860 016e 0021     		movs	r1, #0
 1861 0170 2046     		mov	r0, r4
 1862 0172 FFF7FEFF 		bl	lv_obj_get_style_prop
 1863              	.LVL152:
 346:lvgl/lvgl/src/widgets/../core/lv_obj_style_gen.h **** }
 1864              		.loc 2 346 5 is_stmt 1 view .LVU650
 346:lvgl/lvgl/src/widgets/../core/lv_obj_style_gen.h **** }
 1865              		.loc 2 346 12 is_stmt 0 view .LVU651
 1866 0176 00B2     		sxth	r0, r0
 1867              	.LVL153:
 346:lvgl/lvgl/src/widgets/../core/lv_obj_style_gen.h **** }
 1868              		.loc 2 346 12 view .LVU652
 1869              	.LBE137:
 1870              	.LBE136:
 141:lvgl/lvgl/src/widgets/lv_img.c ****         lv_txt_get_size(&size, src, font, letter_space, line_space, LV_COORD_MAX, LV_TEXT_FLAG_NONE
 1871              		.loc 1 141 9 is_stmt 1 view .LVU653
 142:lvgl/lvgl/src/widgets/lv_img.c ****         header.w = size.x;
 1872              		.loc 1 142 9 view .LVU654
 1873 0178 0022     		movs	r2, #0
 1874 017a 0292     		str	r2, [sp, #8]
 1875 017c 4FF4C042 		mov	r2, #24576
 1876 0180 0192     		str	r2, [sp, #4]
 1877 0182 0090     		str	r0, [sp]
 1878 0184 4346     		mov	r3, r8
 1879 0186 3A46     		mov	r2, r7
 1880 0188 3146     		mov	r1, r6
 1881 018a 04A8     		add	r0, sp, #16
 1882              	.LVL154:
 142:lvgl/lvgl/src/widgets/lv_img.c ****         header.w = size.x;
 1883              		.loc 1 142 9 is_stmt 0 view .LVU655
 1884 018c FFF7FEFF 		bl	lv_txt_get_size
 1885              	.LVL155:
 143:lvgl/lvgl/src/widgets/lv_img.c ****         header.h = size.y;
 1886              		.loc 1 143 9 is_stmt 1 view .LVU656
 143:lvgl/lvgl/src/widgets/lv_img.c ****         header.h = size.y;
ARM GAS  C:\Users\gx\AppData\Local\Temp\ccAHLVXI.s 			page 66


 1887              		.loc 1 143 24 is_stmt 0 view .LVU657
 1888 0190 BDF81020 		ldrh	r2, [sp, #16]
 143:lvgl/lvgl/src/widgets/lv_img.c ****         header.h = size.y;
 1889              		.loc 1 143 18 view .LVU658
 1890 0194 059B     		ldr	r3, [sp, #20]
 1891 0196 62F39423 		bfi	r3, r2, #10, #11
 1892 019a 0593     		str	r3, [sp, #20]
 144:lvgl/lvgl/src/widgets/lv_img.c ****     }
 1893              		.loc 1 144 9 is_stmt 1 view .LVU659
 144:lvgl/lvgl/src/widgets/lv_img.c ****     }
 1894              		.loc 1 144 24 is_stmt 0 view .LVU660
 1895 019c BDF81220 		ldrh	r2, [sp, #18]
 144:lvgl/lvgl/src/widgets/lv_img.c ****     }
 1896              		.loc 1 144 18 view .LVU661
 1897 01a0 C3F30F43 		ubfx	r3, r3, #16, #16
 1898 01a4 62F34F13 		bfi	r3, r2, #5, #11
 1899 01a8 ADF81630 		strh	r3, [sp, #22]	@ movhi
 1900 01ac 49E7     		b	.L63
 1901              	.L74:
 1902 01ae 00BF     		.align	2
 1903              	.L73:
 1904 01b0 00000000 		.word	.LC2
 1905 01b4 00000000 		.word	.LANCHOR2
 1906 01b8 00000000 		.word	.LC0
 1907 01bc 20000000 		.word	.LC3
 1908 01c0 44000000 		.word	.LC4
 1909 01c4 54000000 		.word	.LC5
 1910 01c8 64000000 		.word	.LC6
 1911              	.LBE131:
 1912              		.cfi_endproc
 1913              	.LFE153:
 1915              		.section	.text.lv_img_event,"ax",%progbits
 1916              		.align	1
 1917              		.syntax unified
 1918              		.thumb
 1919              		.thumb_func
 1920              		.fpu fpv4-sp-d16
 1922              	lv_img_event:
 1923              	.LVL156:
 1924              	.LFB172:
 437:lvgl/lvgl/src/widgets/lv_img.c ****     LV_UNUSED(class_p);
 1925              		.loc 1 437 1 is_stmt 1 view -0
 1926              		.cfi_startproc
 1927              		@ args = 0, pretend = 0, frame = 8
 1928              		@ frame_needed = 0, uses_anonymous_args = 0
 437:lvgl/lvgl/src/widgets/lv_img.c ****     LV_UNUSED(class_p);
 1929              		.loc 1 437 1 is_stmt 0 view .LVU663
 1930 0000 2DE9F043 		push	{r4, r5, r6, r7, r8, r9, lr}
 1931              	.LCFI14:
 1932              		.cfi_def_cfa_offset 28
 1933              		.cfi_offset 4, -28
 1934              		.cfi_offset 5, -24
 1935              		.cfi_offset 6, -20
 1936              		.cfi_offset 7, -16
 1937              		.cfi_offset 8, -12
 1938              		.cfi_offset 9, -8
 1939              		.cfi_offset 14, -4
ARM GAS  C:\Users\gx\AppData\Local\Temp\ccAHLVXI.s 			page 67


 1940 0004 85B0     		sub	sp, sp, #20
 1941              	.LCFI15:
 1942              		.cfi_def_cfa_offset 48
 1943 0006 0D46     		mov	r5, r1
 438:lvgl/lvgl/src/widgets/lv_img.c **** 
 1944              		.loc 1 438 5 is_stmt 1 view .LVU664
 440:lvgl/lvgl/src/widgets/lv_img.c **** 
 1945              		.loc 1 440 5 view .LVU665
 440:lvgl/lvgl/src/widgets/lv_img.c **** 
 1946              		.loc 1 440 28 is_stmt 0 view .LVU666
 1947 0008 0846     		mov	r0, r1
 1948              	.LVL157:
 440:lvgl/lvgl/src/widgets/lv_img.c **** 
 1949              		.loc 1 440 28 view .LVU667
 1950 000a FFF7FEFF 		bl	lv_event_get_code
 1951              	.LVL158:
 440:lvgl/lvgl/src/widgets/lv_img.c **** 
 1952              		.loc 1 440 28 view .LVU668
 1953 000e 0446     		mov	r4, r0
 1954              	.LVL159:
 443:lvgl/lvgl/src/widgets/lv_img.c ****         /*Call the ancestor's event handler*/
 1955              		.loc 1 443 5 is_stmt 1 view .LVU669
 443:lvgl/lvgl/src/widgets/lv_img.c ****         /*Call the ancestor's event handler*/
 1956              		.loc 1 443 7 is_stmt 0 view .LVU670
 1957 0010 1528     		cmp	r0, #21
 1958 0012 01D0     		beq	.L76
 443:lvgl/lvgl/src/widgets/lv_img.c ****         /*Call the ancestor's event handler*/
 1959              		.loc 1 443 35 discriminator 1 view .LVU671
 1960 0014 1828     		cmp	r0, #24
 1961 0016 16D1     		bne	.L89
 1962              	.LVL160:
 1963              	.L76:
 449:lvgl/lvgl/src/widgets/lv_img.c ****     lv_img_t * img = (lv_img_t *)obj;
 1964              		.loc 1 449 5 is_stmt 1 view .LVU672
 449:lvgl/lvgl/src/widgets/lv_img.c ****     lv_img_t * img = (lv_img_t *)obj;
 1965              		.loc 1 449 22 is_stmt 0 view .LVU673
 1966 0018 2846     		mov	r0, r5
 1967 001a FFF7FEFF 		bl	lv_event_get_target
 1968              	.LVL161:
 1969 001e 0646     		mov	r6, r0
 1970              	.LVL162:
 450:lvgl/lvgl/src/widgets/lv_img.c **** 
 1971              		.loc 1 450 5 is_stmt 1 view .LVU674
 452:lvgl/lvgl/src/widgets/lv_img.c ****         /*Refresh the file name to refresh the symbol text size*/
 1972              		.loc 1 452 5 view .LVU675
 452:lvgl/lvgl/src/widgets/lv_img.c ****         /*Refresh the file name to refresh the symbol text size*/
 1973              		.loc 1 452 7 is_stmt 0 view .LVU676
 1974 0020 242C     		cmp	r4, #36
 1975 0022 19D0     		beq	.L90
 461:lvgl/lvgl/src/widgets/lv_img.c **** 
 1976              		.loc 1 461 10 is_stmt 1 view .LVU677
 461:lvgl/lvgl/src/widgets/lv_img.c **** 
 1977              		.loc 1 461 12 is_stmt 0 view .LVU678
 1978 0024 132C     		cmp	r4, #19
 1979 0026 24D0     		beq	.L91
 483:lvgl/lvgl/src/widgets/lv_img.c ****         lv_hit_test_info_t * info = lv_event_get_param(e);
 1980              		.loc 1 483 10 is_stmt 1 view .LVU679
ARM GAS  C:\Users\gx\AppData\Local\Temp\ccAHLVXI.s 			page 68


 483:lvgl/lvgl/src/widgets/lv_img.c ****         lv_hit_test_info_t * info = lv_event_get_param(e);
 1981              		.loc 1 483 12 is_stmt 0 view .LVU680
 1982 0028 112C     		cmp	r4, #17
 1983 002a 7CD0     		beq	.L92
 513:lvgl/lvgl/src/widgets/lv_img.c ****         lv_point_t * p = lv_event_get_param(e);
 1984              		.loc 1 513 10 is_stmt 1 view .LVU681
 513:lvgl/lvgl/src/widgets/lv_img.c ****         lv_point_t * p = lv_event_get_param(e);
 1985              		.loc 1 513 12 is_stmt 0 view .LVU682
 1986 002c 262C     		cmp	r4, #38
 1987 002e 00F0F580 		beq	.L93
 523:lvgl/lvgl/src/widgets/lv_img.c ****         draw_img(e);
 1988              		.loc 1 523 10 is_stmt 1 view .LVU683
 523:lvgl/lvgl/src/widgets/lv_img.c ****         draw_img(e);
 1989              		.loc 1 523 12 is_stmt 0 view .LVU684
 1990 0032 152C     		cmp	r4, #21
 1991 0034 03D0     		beq	.L87
 523:lvgl/lvgl/src/widgets/lv_img.c ****         draw_img(e);
 1992              		.loc 1 523 40 discriminator 1 view .LVU685
 1993 0036 182C     		cmp	r4, #24
 1994 0038 01D0     		beq	.L87
 523:lvgl/lvgl/src/widgets/lv_img.c ****         draw_img(e);
 1995              		.loc 1 523 70 discriminator 2 view .LVU686
 1996 003a 122C     		cmp	r4, #18
 1997 003c 09D1     		bne	.L75
 1998              	.L87:
 524:lvgl/lvgl/src/widgets/lv_img.c ****     }
 1999              		.loc 1 524 9 is_stmt 1 view .LVU687
 2000 003e 2846     		mov	r0, r5
 2001              	.LVL163:
 524:lvgl/lvgl/src/widgets/lv_img.c ****     }
 2002              		.loc 1 524 9 is_stmt 0 view .LVU688
 2003 0040 FFF7FEFF 		bl	draw_img
 2004              	.LVL164:
 2005 0044 05E0     		b	.L75
 2006              	.LVL165:
 2007              	.L89:
 2008              	.LBB138:
 445:lvgl/lvgl/src/widgets/lv_img.c ****         if(res != LV_RES_OK) return;
 2009              		.loc 1 445 9 is_stmt 1 view .LVU689
 445:lvgl/lvgl/src/widgets/lv_img.c ****         if(res != LV_RES_OK) return;
 2010              		.loc 1 445 24 is_stmt 0 view .LVU690
 2011 0046 2946     		mov	r1, r5
 2012 0048 8148     		ldr	r0, .L98
 2013              	.LVL166:
 445:lvgl/lvgl/src/widgets/lv_img.c ****         if(res != LV_RES_OK) return;
 2014              		.loc 1 445 24 view .LVU691
 2015 004a FFF7FEFF 		bl	lv_obj_event_base
 2016              	.LVL167:
 446:lvgl/lvgl/src/widgets/lv_img.c ****     }
 2017              		.loc 1 446 9 is_stmt 1 view .LVU692
 446:lvgl/lvgl/src/widgets/lv_img.c ****     }
 2018              		.loc 1 446 11 is_stmt 0 view .LVU693
 2019 004e 0128     		cmp	r0, #1
 2020 0050 E2D0     		beq	.L76
 2021              	.LVL168:
 2022              	.L75:
 446:lvgl/lvgl/src/widgets/lv_img.c ****     }
ARM GAS  C:\Users\gx\AppData\Local\Temp\ccAHLVXI.s 			page 69


 2023              		.loc 1 446 11 view .LVU694
 2024              	.LBE138:
 526:lvgl/lvgl/src/widgets/lv_img.c **** 
 2025              		.loc 1 526 1 view .LVU695
 2026 0052 05B0     		add	sp, sp, #20
 2027              	.LCFI16:
 2028              		.cfi_remember_state
 2029              		.cfi_def_cfa_offset 28
 2030              		@ sp needed
 2031 0054 BDE8F083 		pop	{r4, r5, r6, r7, r8, r9, pc}
 2032              	.LVL169:
 2033              	.L90:
 2034              	.LCFI17:
 2035              		.cfi_restore_state
 454:lvgl/lvgl/src/widgets/lv_img.c ****             lv_img_set_src(obj, img->src);
 2036              		.loc 1 454 9 is_stmt 1 view .LVU696
 454:lvgl/lvgl/src/widgets/lv_img.c ****             lv_img_set_src(obj, img->src);
 2037              		.loc 1 454 26 is_stmt 0 view .LVU697
 2038 0058 90F83830 		ldrb	r3, [r0, #56]	@ zero_extendqisi2
 2039 005c 03F00303 		and	r3, r3, #3
 454:lvgl/lvgl/src/widgets/lv_img.c ****             lv_img_set_src(obj, img->src);
 2040              		.loc 1 454 11 view .LVU698
 2041 0060 022B     		cmp	r3, #2
 2042 0062 02D0     		beq	.L94
 458:lvgl/lvgl/src/widgets/lv_img.c ****         }
 2043              		.loc 1 458 13 is_stmt 1 view .LVU699
 2044 0064 FFF7FEFF 		bl	lv_obj_refresh_ext_draw_size
 2045              	.LVL170:
 458:lvgl/lvgl/src/widgets/lv_img.c ****         }
 2046              		.loc 1 458 13 is_stmt 0 view .LVU700
 2047 0068 F3E7     		b	.L75
 2048              	.LVL171:
 2049              	.L94:
 455:lvgl/lvgl/src/widgets/lv_img.c ****         } else {
 2050              		.loc 1 455 13 is_stmt 1 view .LVU701
 2051 006a 416A     		ldr	r1, [r0, #36]
 2052 006c FFF7FEFF 		bl	lv_img_set_src
 2053              	.LVL172:
 455:lvgl/lvgl/src/widgets/lv_img.c ****         } else {
 2054              		.loc 1 455 13 is_stmt 0 view .LVU702
 2055 0070 EFE7     		b	.L75
 2056              	.LVL173:
 2057              	.L91:
 2058              	.LBB139:
 463:lvgl/lvgl/src/widgets/lv_img.c ****         lv_coord_t transf_zoom = lv_obj_get_style_transform_zoom(obj, LV_PART_MAIN);
 2059              		.loc 1 463 9 is_stmt 1 view .LVU703
 463:lvgl/lvgl/src/widgets/lv_img.c ****         lv_coord_t transf_zoom = lv_obj_get_style_transform_zoom(obj, LV_PART_MAIN);
 2060              		.loc 1 463 26 is_stmt 0 view .LVU704
 2061 0072 2846     		mov	r0, r5
 2062              	.LVL174:
 463:lvgl/lvgl/src/widgets/lv_img.c ****         lv_coord_t transf_zoom = lv_obj_get_style_transform_zoom(obj, LV_PART_MAIN);
 2063              		.loc 1 463 26 view .LVU705
 2064 0074 FFF7FEFF 		bl	lv_event_get_param
 2065              	.LVL175:
 2066 0078 0446     		mov	r4, r0
 2067              	.LVL176:
 464:lvgl/lvgl/src/widgets/lv_img.c ****         transf_zoom = (transf_zoom * img->zoom) >> 8;
ARM GAS  C:\Users\gx\AppData\Local\Temp\ccAHLVXI.s 			page 70


 2068              		.loc 1 464 9 is_stmt 1 view .LVU706
 2069              	.LBB140:
 2070              	.LBI140:
  79:lvgl/lvgl/src/widgets/../core/lv_obj_style_gen.h **** {
 2071              		.loc 2 79 26 view .LVU707
 2072              	.LBB141:
  81:lvgl/lvgl/src/widgets/../core/lv_obj_style_gen.h ****     return (lv_coord_t)v.num;
 2073              		.loc 2 81 5 view .LVU708
  81:lvgl/lvgl/src/widgets/../core/lv_obj_style_gen.h ****     return (lv_coord_t)v.num;
 2074              		.loc 2 81 26 is_stmt 0 view .LVU709
 2075 007a 43F60E02 		movw	r2, #14350
 2076 007e 0021     		movs	r1, #0
 2077 0080 3046     		mov	r0, r6
 2078              	.LVL177:
  81:lvgl/lvgl/src/widgets/../core/lv_obj_style_gen.h ****     return (lv_coord_t)v.num;
 2079              		.loc 2 81 26 view .LVU710
 2080 0082 FFF7FEFF 		bl	lv_obj_get_style_prop
 2081              	.LVL178:
  82:lvgl/lvgl/src/widgets/../core/lv_obj_style_gen.h **** }
 2082              		.loc 2 82 5 is_stmt 1 view .LVU711
  82:lvgl/lvgl/src/widgets/../core/lv_obj_style_gen.h **** }
 2083              		.loc 2 82 12 is_stmt 0 view .LVU712
 2084 0086 03B2     		sxth	r3, r0
 2085              	.LVL179:
  82:lvgl/lvgl/src/widgets/../core/lv_obj_style_gen.h **** }
 2086              		.loc 2 82 12 view .LVU713
 2087              	.LBE141:
 2088              	.LBE140:
 465:lvgl/lvgl/src/widgets/lv_img.c **** 
 2089              		.loc 1 465 9 is_stmt 1 view .LVU714
 465:lvgl/lvgl/src/widgets/lv_img.c **** 
 2090              		.loc 1 465 41 is_stmt 0 view .LVU715
 2091 0088 F08E     		ldrh	r0, [r6, #54]
 465:lvgl/lvgl/src/widgets/lv_img.c **** 
 2092              		.loc 1 465 36 view .LVU716
 2093 008a 00FB03F0 		mul	r0, r0, r3
 465:lvgl/lvgl/src/widgets/lv_img.c **** 
 2094              		.loc 1 465 49 view .LVU717
 2095 008e 4FEA2029 		asr	r9, r0, #8
 465:lvgl/lvgl/src/widgets/lv_img.c **** 
 2096              		.loc 1 465 21 view .LVU718
 2097 0092 40F30F25 		sbfx	r5, r0, #8, #16
 2098              	.LVL180:
 467:lvgl/lvgl/src/widgets/lv_img.c ****         transf_angle += img->angle;
 2099              		.loc 1 467 9 is_stmt 1 view .LVU719
 2100              	.LBB142:
 2101              	.LBI142:
  85:lvgl/lvgl/src/widgets/../core/lv_obj_style_gen.h **** {
 2102              		.loc 2 85 26 view .LVU720
 2103              	.LBB143:
  87:lvgl/lvgl/src/widgets/../core/lv_obj_style_gen.h ****     return (lv_coord_t)v.num;
 2104              		.loc 2 87 5 view .LVU721
  87:lvgl/lvgl/src/widgets/../core/lv_obj_style_gen.h ****     return (lv_coord_t)v.num;
 2105              		.loc 2 87 26 is_stmt 0 view .LVU722
 2106 0096 43F60F02 		movw	r2, #14351
 2107 009a 0021     		movs	r1, #0
 2108 009c 3046     		mov	r0, r6
ARM GAS  C:\Users\gx\AppData\Local\Temp\ccAHLVXI.s 			page 71


 2109 009e FFF7FEFF 		bl	lv_obj_get_style_prop
 2110              	.LVL181:
  88:lvgl/lvgl/src/widgets/../core/lv_obj_style_gen.h **** }
 2111              		.loc 2 88 5 is_stmt 1 view .LVU723
  88:lvgl/lvgl/src/widgets/../core/lv_obj_style_gen.h **** }
 2112              		.loc 2 88 5 is_stmt 0 view .LVU724
 2113              	.LBE143:
 2114              	.LBE142:
 468:lvgl/lvgl/src/widgets/lv_img.c **** 
 2115              		.loc 1 468 9 is_stmt 1 view .LVU725
 468:lvgl/lvgl/src/widgets/lv_img.c **** 
 2116              		.loc 1 468 28 is_stmt 0 view .LVU726
 2117 00a2 B6F83080 		ldrh	r8, [r6, #48]
 468:lvgl/lvgl/src/widgets/lv_img.c **** 
 2118              		.loc 1 468 22 view .LVU727
 2119 00a6 8044     		add	r8, r8, r0
 2120 00a8 0FFA88F8 		sxth	r8, r8
 2121              	.LVL182:
 471:lvgl/lvgl/src/widgets/lv_img.c ****             lv_area_t a;
 2122              		.loc 1 471 9 is_stmt 1 view .LVU728
 471:lvgl/lvgl/src/widgets/lv_img.c ****             lv_area_t a;
 2123              		.loc 1 471 11 is_stmt 0 view .LVU729
 2124 00ac B8F1000F 		cmp	r8, #0
 2125 00b0 02D1     		bne	.L81
 471:lvgl/lvgl/src/widgets/lv_img.c ****             lv_area_t a;
 2126              		.loc 1 471 25 discriminator 1 view .LVU730
 2127 00b2 B5F5807F 		cmp	r5, #256
 2128 00b6 CCD0     		beq	.L75
 2129              	.L81:
 2130              	.LBB144:
 472:lvgl/lvgl/src/widgets/lv_img.c ****             lv_coord_t w = lv_obj_get_width(obj);
 2131              		.loc 1 472 13 is_stmt 1 view .LVU731
 473:lvgl/lvgl/src/widgets/lv_img.c ****             lv_coord_t h = lv_obj_get_height(obj);
 2132              		.loc 1 473 13 view .LVU732
 473:lvgl/lvgl/src/widgets/lv_img.c ****             lv_coord_t h = lv_obj_get_height(obj);
 2133              		.loc 1 473 28 is_stmt 0 view .LVU733
 2134 00b8 3046     		mov	r0, r6
 2135 00ba FFF7FEFF 		bl	lv_obj_get_width
 2136              	.LVL183:
 2137 00be 0746     		mov	r7, r0
 2138              	.LVL184:
 474:lvgl/lvgl/src/widgets/lv_img.c ****             _lv_img_buf_get_transformed_area(&a, w, h, transf_angle, transf_zoom, &img->pivot);
 2139              		.loc 1 474 13 is_stmt 1 view .LVU734
 474:lvgl/lvgl/src/widgets/lv_img.c ****             _lv_img_buf_get_transformed_area(&a, w, h, transf_angle, transf_zoom, &img->pivot);
 2140              		.loc 1 474 28 is_stmt 0 view .LVU735
 2141 00c0 3046     		mov	r0, r6
 2142 00c2 FFF7FEFF 		bl	lv_obj_get_height
 2143              	.LVL185:
 2144 00c6 0546     		mov	r5, r0
 2145              	.LVL186:
 475:lvgl/lvgl/src/widgets/lv_img.c ****             lv_coord_t pad_ori = *s;
 2146              		.loc 1 475 13 is_stmt 1 view .LVU736
 475:lvgl/lvgl/src/widgets/lv_img.c ****             lv_coord_t pad_ori = *s;
 2147              		.loc 1 475 83 is_stmt 0 view .LVU737
 2148 00c8 3236     		adds	r6, r6, #50
 2149              	.LVL187:
 475:lvgl/lvgl/src/widgets/lv_img.c ****             lv_coord_t pad_ori = *s;
ARM GAS  C:\Users\gx\AppData\Local\Temp\ccAHLVXI.s 			page 72


 2150              		.loc 1 475 13 view .LVU738
 2151 00ca 0196     		str	r6, [sp, #4]
 2152 00cc 1FFA89F3 		uxth	r3, r9
 2153 00d0 0093     		str	r3, [sp]
 2154 00d2 4346     		mov	r3, r8
 2155 00d4 0246     		mov	r2, r0
 2156 00d6 3946     		mov	r1, r7
 2157 00d8 02A8     		add	r0, sp, #8
 2158              	.LVL188:
 475:lvgl/lvgl/src/widgets/lv_img.c ****             lv_coord_t pad_ori = *s;
 2159              		.loc 1 475 13 view .LVU739
 2160 00da FFF7FEFF 		bl	_lv_img_buf_get_transformed_area
 2161              	.LVL189:
 476:lvgl/lvgl/src/widgets/lv_img.c ****             *s = LV_MAX(*s, pad_ori - a.x1);
 2162              		.loc 1 476 13 is_stmt 1 view .LVU740
 476:lvgl/lvgl/src/widgets/lv_img.c ****             *s = LV_MAX(*s, pad_ori - a.x1);
 2163              		.loc 1 476 24 is_stmt 0 view .LVU741
 2164 00de B4F90030 		ldrsh	r3, [r4]
 2165              	.LVL190:
 477:lvgl/lvgl/src/widgets/lv_img.c ****             *s = LV_MAX(*s, pad_ori - a.y1);
 2166              		.loc 1 477 13 is_stmt 1 view .LVU742
 477:lvgl/lvgl/src/widgets/lv_img.c ****             *s = LV_MAX(*s, pad_ori - a.y1);
 2167              		.loc 1 477 18 is_stmt 0 view .LVU743
 2168 00e2 BDF90860 		ldrsh	r6, [sp, #8]
 2169              	.LVL191:
 477:lvgl/lvgl/src/widgets/lv_img.c ****             *s = LV_MAX(*s, pad_ori - a.y1);
 2170              		.loc 1 477 18 view .LVU744
 2171 00e6 9E1B     		subs	r6, r3, r6
 2172 00e8 9E42     		cmp	r6, r3
 2173 00ea B8BF     		it	lt
 2174 00ec 1E46     		movlt	r6, r3
 477:lvgl/lvgl/src/widgets/lv_img.c ****             *s = LV_MAX(*s, pad_ori - a.y1);
 2175              		.loc 1 477 16 view .LVU745
 2176 00ee 36B2     		sxth	r6, r6
 2177 00f0 2680     		strh	r6, [r4]	@ movhi
 478:lvgl/lvgl/src/widgets/lv_img.c ****             *s = LV_MAX(*s, pad_ori + a.x2 - w);
 2178              		.loc 1 478 13 is_stmt 1 view .LVU746
 478:lvgl/lvgl/src/widgets/lv_img.c ****             *s = LV_MAX(*s, pad_ori + a.x2 - w);
 2179              		.loc 1 478 18 is_stmt 0 view .LVU747
 2180 00f2 BDF90A10 		ldrsh	r1, [sp, #10]
 2181 00f6 5A1A     		subs	r2, r3, r1
 2182 00f8 B242     		cmp	r2, r6
 2183 00fa B8BF     		it	lt
 2184 00fc 3246     		movlt	r2, r6
 478:lvgl/lvgl/src/widgets/lv_img.c ****             *s = LV_MAX(*s, pad_ori + a.x2 - w);
 2185              		.loc 1 478 16 view .LVU748
 2186 00fe 16B2     		sxth	r6, r2
 2187 0100 2680     		strh	r6, [r4]	@ movhi
 479:lvgl/lvgl/src/widgets/lv_img.c ****             *s = LV_MAX(*s, pad_ori + a.y2 - h);
 2188              		.loc 1 479 13 is_stmt 1 view .LVU749
 479:lvgl/lvgl/src/widgets/lv_img.c ****             *s = LV_MAX(*s, pad_ori + a.y2 - h);
 2189              		.loc 1 479 18 is_stmt 0 view .LVU750
 2190 0102 BDF90C10 		ldrsh	r1, [sp, #12]
 2191 0106 1944     		add	r1, r1, r3
 2192 0108 CA1B     		subs	r2, r1, r7
 2193 010a B242     		cmp	r2, r6
 2194 010c B8BF     		it	lt
ARM GAS  C:\Users\gx\AppData\Local\Temp\ccAHLVXI.s 			page 73


 2195 010e 3246     		movlt	r2, r6
 479:lvgl/lvgl/src/widgets/lv_img.c ****             *s = LV_MAX(*s, pad_ori + a.y2 - h);
 2196              		.loc 1 479 16 view .LVU751
 2197 0110 12B2     		sxth	r2, r2
 2198 0112 2280     		strh	r2, [r4]	@ movhi
 480:lvgl/lvgl/src/widgets/lv_img.c ****         }
 2199              		.loc 1 480 13 is_stmt 1 view .LVU752
 480:lvgl/lvgl/src/widgets/lv_img.c ****         }
 2200              		.loc 1 480 18 is_stmt 0 view .LVU753
 2201 0114 BDF90E10 		ldrsh	r1, [sp, #14]
 2202 0118 0B44     		add	r3, r3, r1
 2203              	.LVL192:
 480:lvgl/lvgl/src/widgets/lv_img.c ****         }
 2204              		.loc 1 480 18 view .LVU754
 2205 011a 5B1B     		subs	r3, r3, r5
 2206 011c 9342     		cmp	r3, r2
 2207 011e B8BF     		it	lt
 2208 0120 1346     		movlt	r3, r2
 480:lvgl/lvgl/src/widgets/lv_img.c ****         }
 2209              		.loc 1 480 16 view .LVU755
 2210 0122 2380     		strh	r3, [r4]	@ movhi
 2211 0124 95E7     		b	.L75
 2212              	.LVL193:
 2213              	.L92:
 480:lvgl/lvgl/src/widgets/lv_img.c ****         }
 2214              		.loc 1 480 16 view .LVU756
 2215              	.LBE144:
 2216              	.LBE139:
 2217              	.LBB145:
 484:lvgl/lvgl/src/widgets/lv_img.c ****         lv_coord_t zoom = lv_obj_get_style_transform_zoom(obj, LV_PART_MAIN);
 2218              		.loc 1 484 9 is_stmt 1 view .LVU757
 484:lvgl/lvgl/src/widgets/lv_img.c ****         lv_coord_t zoom = lv_obj_get_style_transform_zoom(obj, LV_PART_MAIN);
 2219              		.loc 1 484 37 is_stmt 0 view .LVU758
 2220 0126 2846     		mov	r0, r5
 2221              	.LVL194:
 484:lvgl/lvgl/src/widgets/lv_img.c ****         lv_coord_t zoom = lv_obj_get_style_transform_zoom(obj, LV_PART_MAIN);
 2222              		.loc 1 484 37 view .LVU759
 2223 0128 FFF7FEFF 		bl	lv_event_get_param
 2224              	.LVL195:
 2225 012c 0746     		mov	r7, r0
 2226              	.LVL196:
 485:lvgl/lvgl/src/widgets/lv_img.c ****         zoom = (zoom * img->zoom) >> 8;
 2227              		.loc 1 485 9 is_stmt 1 view .LVU760
 2228              	.LBB146:
 2229              	.LBI146:
  79:lvgl/lvgl/src/widgets/../core/lv_obj_style_gen.h **** {
 2230              		.loc 2 79 26 view .LVU761
 2231              	.LBB147:
  81:lvgl/lvgl/src/widgets/../core/lv_obj_style_gen.h ****     return (lv_coord_t)v.num;
 2232              		.loc 2 81 5 view .LVU762
  81:lvgl/lvgl/src/widgets/../core/lv_obj_style_gen.h ****     return (lv_coord_t)v.num;
 2233              		.loc 2 81 26 is_stmt 0 view .LVU763
 2234 012e 43F60E02 		movw	r2, #14350
 2235 0132 0021     		movs	r1, #0
 2236 0134 3046     		mov	r0, r6
 2237              	.LVL197:
  81:lvgl/lvgl/src/widgets/../core/lv_obj_style_gen.h ****     return (lv_coord_t)v.num;
ARM GAS  C:\Users\gx\AppData\Local\Temp\ccAHLVXI.s 			page 74


 2238              		.loc 2 81 26 view .LVU764
 2239 0136 FFF7FEFF 		bl	lv_obj_get_style_prop
 2240              	.LVL198:
  82:lvgl/lvgl/src/widgets/../core/lv_obj_style_gen.h **** }
 2241              		.loc 2 82 5 is_stmt 1 view .LVU765
  82:lvgl/lvgl/src/widgets/../core/lv_obj_style_gen.h **** }
 2242              		.loc 2 82 12 is_stmt 0 view .LVU766
 2243 013a 00B2     		sxth	r0, r0
 2244              	.LVL199:
  82:lvgl/lvgl/src/widgets/../core/lv_obj_style_gen.h **** }
 2245              		.loc 2 82 12 view .LVU767
 2246              	.LBE147:
 2247              	.LBE146:
 486:lvgl/lvgl/src/widgets/lv_img.c **** 
 2248              		.loc 1 486 9 is_stmt 1 view .LVU768
 486:lvgl/lvgl/src/widgets/lv_img.c **** 
 2249              		.loc 1 486 27 is_stmt 0 view .LVU769
 2250 013c F38E     		ldrh	r3, [r6, #54]
 486:lvgl/lvgl/src/widgets/lv_img.c **** 
 2251              		.loc 1 486 22 view .LVU770
 2252 013e 03FB00F3 		mul	r3, r3, r0
 486:lvgl/lvgl/src/widgets/lv_img.c **** 
 2253              		.loc 1 486 35 view .LVU771
 2254 0142 4FEA2328 		asr	r8, r3, #8
 486:lvgl/lvgl/src/widgets/lv_img.c **** 
 2255              		.loc 1 486 14 view .LVU772
 2256 0146 43F30F24 		sbfx	r4, r3, #8, #16
 2257              	.LVL200:
 488:lvgl/lvgl/src/widgets/lv_img.c ****         angle += img->angle;
 2258              		.loc 1 488 9 is_stmt 1 view .LVU773
 2259              	.LBB148:
 2260              	.LBI148:
  85:lvgl/lvgl/src/widgets/../core/lv_obj_style_gen.h **** {
 2261              		.loc 2 85 26 view .LVU774
 2262              	.LBB149:
  87:lvgl/lvgl/src/widgets/../core/lv_obj_style_gen.h ****     return (lv_coord_t)v.num;
 2263              		.loc 2 87 5 view .LVU775
  87:lvgl/lvgl/src/widgets/../core/lv_obj_style_gen.h ****     return (lv_coord_t)v.num;
 2264              		.loc 2 87 26 is_stmt 0 view .LVU776
 2265 014a 43F60F02 		movw	r2, #14351
 2266 014e 0021     		movs	r1, #0
 2267 0150 3046     		mov	r0, r6
 2268 0152 FFF7FEFF 		bl	lv_obj_get_style_prop
 2269              	.LVL201:
  88:lvgl/lvgl/src/widgets/../core/lv_obj_style_gen.h **** }
 2270              		.loc 2 88 5 is_stmt 1 view .LVU777
  88:lvgl/lvgl/src/widgets/../core/lv_obj_style_gen.h **** }
 2271              		.loc 2 88 5 is_stmt 0 view .LVU778
 2272              	.LBE149:
 2273              	.LBE148:
 489:lvgl/lvgl/src/widgets/lv_img.c **** 
 2274              		.loc 1 489 9 is_stmt 1 view .LVU779
 489:lvgl/lvgl/src/widgets/lv_img.c **** 
 2275              		.loc 1 489 21 is_stmt 0 view .LVU780
 2276 0156 338E     		ldrh	r3, [r6, #48]
 489:lvgl/lvgl/src/widgets/lv_img.c **** 
 2277              		.loc 1 489 15 view .LVU781
ARM GAS  C:\Users\gx\AppData\Local\Temp\ccAHLVXI.s 			page 75


 2278 0158 0344     		add	r3, r3, r0
 2279 015a 1DB2     		sxth	r5, r3
 2280              	.LVL202:
 493:lvgl/lvgl/src/widgets/lv_img.c ****                 (zoom != LV_IMG_ZOOM_NONE || angle != 0 || img->pivot.x != img->w / 2 || img->pivot
 2281              		.loc 1 493 9 is_stmt 1 view .LVU782
 493:lvgl/lvgl/src/widgets/lv_img.c ****                 (zoom != LV_IMG_ZOOM_NONE || angle != 0 || img->pivot.x != img->w / 2 || img->pivot
 2282              		.loc 1 493 15 is_stmt 0 view .LVU783
 2283 015c B6F92C90 		ldrsh	r9, [r6, #44]
 493:lvgl/lvgl/src/widgets/lv_img.c ****                 (zoom != LV_IMG_ZOOM_NONE || angle != 0 || img->pivot.x != img->w / 2 || img->pivot
 2284              		.loc 1 493 22 view .LVU784
 2285 0160 3046     		mov	r0, r6
 2286 0162 FFF7FEFF 		bl	lv_obj_get_width
 2287              	.LVL203:
 493:lvgl/lvgl/src/widgets/lv_img.c ****                 (zoom != LV_IMG_ZOOM_NONE || angle != 0 || img->pivot.x != img->w / 2 || img->pivot
 2288              		.loc 1 493 11 view .LVU785
 2289 0166 8145     		cmp	r9, r0
 2290 0168 0AD0     		beq	.L95
 2291              	.L83:
 2292              	.LBB150:
 508:lvgl/lvgl/src/widgets/lv_img.c ****             lv_obj_get_click_area(obj, &a);
 2293              		.loc 1 508 13 is_stmt 1 discriminator 5 view .LVU786
 509:lvgl/lvgl/src/widgets/lv_img.c ****             info->res = _lv_area_is_point_on(&a, info->point, 0);
 2294              		.loc 1 509 13 discriminator 5 view .LVU787
 2295 016a 02A9     		add	r1, sp, #8
 2296 016c 3046     		mov	r0, r6
 2297 016e FFF7FEFF 		bl	lv_obj_get_click_area
 2298              	.LVL204:
 510:lvgl/lvgl/src/widgets/lv_img.c ****         }
 2299              		.loc 1 510 13 discriminator 5 view .LVU788
 510:lvgl/lvgl/src/widgets/lv_img.c ****         }
 2300              		.loc 1 510 25 is_stmt 0 discriminator 5 view .LVU789
 2301 0172 0022     		movs	r2, #0
 2302 0174 3968     		ldr	r1, [r7]
 2303 0176 02A8     		add	r0, sp, #8
 2304 0178 FFF7FEFF 		bl	_lv_area_is_point_on
 2305              	.LVL205:
 510:lvgl/lvgl/src/widgets/lv_img.c ****         }
 2306              		.loc 1 510 23 discriminator 5 view .LVU790
 2307 017c 3871     		strb	r0, [r7, #4]
 2308 017e 68E7     		b	.L75
 2309              	.L95:
 510:lvgl/lvgl/src/widgets/lv_img.c ****         }
 2310              		.loc 1 510 23 discriminator 5 view .LVU791
 2311              	.LBE150:
 493:lvgl/lvgl/src/widgets/lv_img.c ****                 (zoom != LV_IMG_ZOOM_NONE || angle != 0 || img->pivot.x != img->w / 2 || img->pivot
 2312              		.loc 1 493 50 discriminator 1 view .LVU792
 2313 0180 B6F92E90 		ldrsh	r9, [r6, #46]
 493:lvgl/lvgl/src/widgets/lv_img.c ****                 (zoom != LV_IMG_ZOOM_NONE || angle != 0 || img->pivot.x != img->w / 2 || img->pivot
 2314              		.loc 1 493 57 discriminator 1 view .LVU793
 2315 0184 3046     		mov	r0, r6
 2316 0186 FFF7FEFF 		bl	lv_obj_get_height
 2317              	.LVL206:
 493:lvgl/lvgl/src/widgets/lv_img.c ****                 (zoom != LV_IMG_ZOOM_NONE || angle != 0 || img->pivot.x != img->w / 2 || img->pivot
 2318              		.loc 1 493 44 discriminator 1 view .LVU794
 2319 018a 8145     		cmp	r9, r0
 2320 018c EDD1     		bne	.L83
 493:lvgl/lvgl/src/widgets/lv_img.c ****                 (zoom != LV_IMG_ZOOM_NONE || angle != 0 || img->pivot.x != img->w / 2 || img->pivot
ARM GAS  C:\Users\gx\AppData\Local\Temp\ccAHLVXI.s 			page 76


 2321              		.loc 1 493 80 discriminator 2 view .LVU795
 2322 018e B4F5807F 		cmp	r4, #256
 2323 0192 09D1     		bne	.L84
 494:lvgl/lvgl/src/widgets/lv_img.c **** 
 2324              		.loc 1 494 43 view .LVU796
 2325 0194 45B9     		cbnz	r5, .L84
 494:lvgl/lvgl/src/widgets/lv_img.c **** 
 2326              		.loc 1 494 70 discriminator 1 view .LVU797
 2327 0196 B6F93220 		ldrsh	r2, [r6, #50]
 494:lvgl/lvgl/src/widgets/lv_img.c **** 
 2328              		.loc 1 494 79 discriminator 1 view .LVU798
 2329 019a B6F92C30 		ldrsh	r3, [r6, #44]
 494:lvgl/lvgl/src/widgets/lv_img.c **** 
 2330              		.loc 1 494 73 discriminator 1 view .LVU799
 2331 019e 03EBD373 		add	r3, r3, r3, lsr #31
 494:lvgl/lvgl/src/widgets/lv_img.c **** 
 2332              		.loc 1 494 57 discriminator 1 view .LVU800
 2333 01a2 B2EB630F 		cmp	r2, r3, asr #1
 2334 01a6 2FD0     		beq	.L96
 2335              	.L84:
 2336              	.LBB151:
 496:lvgl/lvgl/src/widgets/lv_img.c ****             lv_coord_t h = lv_obj_get_height(obj);
 2337              		.loc 1 496 13 is_stmt 1 view .LVU801
 496:lvgl/lvgl/src/widgets/lv_img.c ****             lv_coord_t h = lv_obj_get_height(obj);
 2338              		.loc 1 496 28 is_stmt 0 view .LVU802
 2339 01a8 3046     		mov	r0, r6
 2340 01aa FFF7FEFF 		bl	lv_obj_get_width
 2341              	.LVL207:
 2342 01ae 0446     		mov	r4, r0
 2343              	.LVL208:
 497:lvgl/lvgl/src/widgets/lv_img.c ****             lv_area_t coords;
 2344              		.loc 1 497 13 is_stmt 1 view .LVU803
 497:lvgl/lvgl/src/widgets/lv_img.c ****             lv_area_t coords;
 2345              		.loc 1 497 28 is_stmt 0 view .LVU804
 2346 01b0 3046     		mov	r0, r6
 2347 01b2 FFF7FEFF 		bl	lv_obj_get_height
 2348              	.LVL209:
 2349 01b6 0246     		mov	r2, r0
 2350              	.LVL210:
 498:lvgl/lvgl/src/widgets/lv_img.c ****             _lv_img_buf_get_transformed_area(&coords, w, h, angle, zoom, &img->pivot);
 2351              		.loc 1 498 13 is_stmt 1 view .LVU805
 499:lvgl/lvgl/src/widgets/lv_img.c ****             coords.x1 += obj->coords.x1;
 2352              		.loc 1 499 13 view .LVU806
 499:lvgl/lvgl/src/widgets/lv_img.c ****             coords.x1 += obj->coords.x1;
 2353              		.loc 1 499 74 is_stmt 0 view .LVU807
 2354 01b8 06F13203 		add	r3, r6, #50
 499:lvgl/lvgl/src/widgets/lv_img.c ****             coords.x1 += obj->coords.x1;
 2355              		.loc 1 499 13 view .LVU808
 2356 01bc 0193     		str	r3, [sp, #4]
 2357 01be 1FFA88F3 		uxth	r3, r8
 2358 01c2 0093     		str	r3, [sp]
 2359 01c4 2B46     		mov	r3, r5
 2360 01c6 2146     		mov	r1, r4
 2361 01c8 02A8     		add	r0, sp, #8
 2362 01ca FFF7FEFF 		bl	_lv_img_buf_get_transformed_area
 2363              	.LVL211:
 500:lvgl/lvgl/src/widgets/lv_img.c ****             coords.y1 += obj->coords.y1;
ARM GAS  C:\Users\gx\AppData\Local\Temp\ccAHLVXI.s 			page 77


 2364              		.loc 1 500 13 is_stmt 1 view .LVU809
 500:lvgl/lvgl/src/widgets/lv_img.c ****             coords.y1 += obj->coords.y1;
 2365              		.loc 1 500 37 is_stmt 0 view .LVU810
 2366 01ce B28A     		ldrh	r2, [r6, #20]
 500:lvgl/lvgl/src/widgets/lv_img.c ****             coords.y1 += obj->coords.y1;
 2367              		.loc 1 500 23 view .LVU811
 2368 01d0 BDF80830 		ldrh	r3, [sp, #8]
 2369 01d4 1344     		add	r3, r3, r2
 2370 01d6 ADF80830 		strh	r3, [sp, #8]	@ movhi
 501:lvgl/lvgl/src/widgets/lv_img.c ****             coords.x2 += obj->coords.x1;
 2371              		.loc 1 501 13 is_stmt 1 view .LVU812
 501:lvgl/lvgl/src/widgets/lv_img.c ****             coords.x2 += obj->coords.x1;
 2372              		.loc 1 501 37 is_stmt 0 view .LVU813
 2373 01da F38A     		ldrh	r3, [r6, #22]
 501:lvgl/lvgl/src/widgets/lv_img.c ****             coords.x2 += obj->coords.x1;
 2374              		.loc 1 501 23 view .LVU814
 2375 01dc BDF80A10 		ldrh	r1, [sp, #10]
 2376 01e0 1944     		add	r1, r1, r3
 2377 01e2 ADF80A10 		strh	r1, [sp, #10]	@ movhi
 502:lvgl/lvgl/src/widgets/lv_img.c ****             coords.y2 += obj->coords.y1;
 2378              		.loc 1 502 13 is_stmt 1 view .LVU815
 502:lvgl/lvgl/src/widgets/lv_img.c ****             coords.y2 += obj->coords.y1;
 2379              		.loc 1 502 23 is_stmt 0 view .LVU816
 2380 01e6 BDF80C10 		ldrh	r1, [sp, #12]
 2381 01ea 0A44     		add	r2, r2, r1
 2382 01ec ADF80C20 		strh	r2, [sp, #12]	@ movhi
 503:lvgl/lvgl/src/widgets/lv_img.c **** 
 2383              		.loc 1 503 13 is_stmt 1 view .LVU817
 503:lvgl/lvgl/src/widgets/lv_img.c **** 
 2384              		.loc 1 503 23 is_stmt 0 view .LVU818
 2385 01f0 BDF80E20 		ldrh	r2, [sp, #14]
 2386 01f4 1344     		add	r3, r3, r2
 2387 01f6 ADF80E30 		strh	r3, [sp, #14]	@ movhi
 505:lvgl/lvgl/src/widgets/lv_img.c ****         }
 2388              		.loc 1 505 13 is_stmt 1 view .LVU819
 505:lvgl/lvgl/src/widgets/lv_img.c ****         }
 2389              		.loc 1 505 25 is_stmt 0 view .LVU820
 2390 01fa 0022     		movs	r2, #0
 2391 01fc 3968     		ldr	r1, [r7]
 2392 01fe 02A8     		add	r0, sp, #8
 2393 0200 FFF7FEFF 		bl	_lv_area_is_point_on
 2394              	.LVL212:
 505:lvgl/lvgl/src/widgets/lv_img.c ****         }
 2395              		.loc 1 505 23 view .LVU821
 2396 0204 3871     		strb	r0, [r7, #4]
 2397              	.LBE151:
 494:lvgl/lvgl/src/widgets/lv_img.c **** 
 2398              		.loc 1 494 119 view .LVU822
 2399 0206 24E7     		b	.L75
 2400              	.LVL213:
 2401              	.L96:
 494:lvgl/lvgl/src/widgets/lv_img.c **** 
 2402              		.loc 1 494 100 discriminator 2 view .LVU823
 2403 0208 B6F93420 		ldrsh	r2, [r6, #52]
 494:lvgl/lvgl/src/widgets/lv_img.c **** 
 2404              		.loc 1 494 109 discriminator 2 view .LVU824
 2405 020c B6F92E30 		ldrsh	r3, [r6, #46]
ARM GAS  C:\Users\gx\AppData\Local\Temp\ccAHLVXI.s 			page 78


 494:lvgl/lvgl/src/widgets/lv_img.c **** 
 2406              		.loc 1 494 103 discriminator 2 view .LVU825
 2407 0210 03EBD373 		add	r3, r3, r3, lsr #31
 494:lvgl/lvgl/src/widgets/lv_img.c **** 
 2408              		.loc 1 494 87 discriminator 2 view .LVU826
 2409 0214 B2EB630F 		cmp	r2, r3, asr #1
 2410 0218 C6D1     		bne	.L84
 2411 021a A6E7     		b	.L83
 2412              	.LVL214:
 2413              	.L93:
 494:lvgl/lvgl/src/widgets/lv_img.c **** 
 2414              		.loc 1 494 87 discriminator 2 view .LVU827
 2415              	.LBE145:
 2416              	.LBB152:
 514:lvgl/lvgl/src/widgets/lv_img.c ****         if (img->obj_size_mode == LV_IMG_SIZE_MODE_REAL){
 2417              		.loc 1 514 9 is_stmt 1 view .LVU828
 514:lvgl/lvgl/src/widgets/lv_img.c ****         if (img->obj_size_mode == LV_IMG_SIZE_MODE_REAL){
 2418              		.loc 1 514 26 is_stmt 0 view .LVU829
 2419 021c 2846     		mov	r0, r5
 2420              	.LVL215:
 514:lvgl/lvgl/src/widgets/lv_img.c ****         if (img->obj_size_mode == LV_IMG_SIZE_MODE_REAL){
 2421              		.loc 1 514 26 view .LVU830
 2422 021e FFF7FEFF 		bl	lv_event_get_param
 2423              	.LVL216:
 2424 0222 0446     		mov	r4, r0
 2425              	.LVL217:
 515:lvgl/lvgl/src/widgets/lv_img.c ****             *p = lv_img_get_tranformed_size(obj);
 2426              		.loc 1 515 9 is_stmt 1 view .LVU831
 515:lvgl/lvgl/src/widgets/lv_img.c ****             *p = lv_img_get_tranformed_size(obj);
 2427              		.loc 1 515 32 is_stmt 0 view .LVU832
 2428 0224 96F83930 		ldrb	r3, [r6, #57]	@ zero_extendqisi2
 2429 0228 03F00303 		and	r3, r3, #3
 515:lvgl/lvgl/src/widgets/lv_img.c ****             *p = lv_img_get_tranformed_size(obj);
 2430              		.loc 1 515 12 view .LVU833
 2431 022c 012B     		cmp	r3, #1
 2432 022e 06D0     		beq	.L97
 519:lvgl/lvgl/src/widgets/lv_img.c ****             p->y = img->h;
 2433              		.loc 1 519 13 is_stmt 1 view .LVU834
 519:lvgl/lvgl/src/widgets/lv_img.c ****             p->y = img->h;
 2434              		.loc 1 519 23 is_stmt 0 view .LVU835
 2435 0230 B6F92C30 		ldrsh	r3, [r6, #44]
 519:lvgl/lvgl/src/widgets/lv_img.c ****             p->y = img->h;
 2436              		.loc 1 519 18 view .LVU836
 2437 0234 0380     		strh	r3, [r0]	@ movhi
 520:lvgl/lvgl/src/widgets/lv_img.c ****         }
 2438              		.loc 1 520 13 is_stmt 1 view .LVU837
 520:lvgl/lvgl/src/widgets/lv_img.c ****         }
 2439              		.loc 1 520 23 is_stmt 0 view .LVU838
 2440 0236 B6F92E30 		ldrsh	r3, [r6, #46]
 520:lvgl/lvgl/src/widgets/lv_img.c ****         }
 2441              		.loc 1 520 18 view .LVU839
 2442 023a 4380     		strh	r3, [r0, #2]	@ movhi
 2443 023c 09E7     		b	.L75
 2444              	.L97:
 516:lvgl/lvgl/src/widgets/lv_img.c ****         }
 2445              		.loc 1 516 13 is_stmt 1 view .LVU840
 516:lvgl/lvgl/src/widgets/lv_img.c ****         }
ARM GAS  C:\Users\gx\AppData\Local\Temp\ccAHLVXI.s 			page 79


 2446              		.loc 1 516 18 is_stmt 0 view .LVU841
 2447 023e 3046     		mov	r0, r6
 2448              	.LVL218:
 516:lvgl/lvgl/src/widgets/lv_img.c ****         }
 2449              		.loc 1 516 18 view .LVU842
 2450 0240 FFF7FEFF 		bl	lv_img_get_tranformed_size
 2451              	.LVL219:
 2452 0244 2080     		strh	r0, [r4]	@ movhi
 2453 0246 C0F30F40 		ubfx	r0, r0, #16, #16
 2454 024a 6080     		strh	r0, [r4, #2]	@ movhi
 2455 024c 01E7     		b	.L75
 2456              	.L99:
 2457 024e 00BF     		.align	2
 2458              	.L98:
 2459 0250 00000000 		.word	.LANCHOR0
 2460              	.LBE152:
 2461              		.cfi_endproc
 2462              	.LFE172:
 2464              		.section	.text.lv_img_set_offset_x,"ax",%progbits
 2465              		.align	1
 2466              		.global	lv_img_set_offset_x
 2467              		.syntax unified
 2468              		.thumb
 2469              		.thumb_func
 2470              		.fpu fpv4-sp-d16
 2472              	lv_img_set_offset_x:
 2473              	.LVL220:
 2474              	.LFB154:
 163:lvgl/lvgl/src/widgets/lv_img.c ****     LV_ASSERT_OBJ(obj, MY_CLASS);
 2475              		.loc 1 163 1 is_stmt 1 view -0
 2476              		.cfi_startproc
 2477              		@ args = 0, pretend = 0, frame = 0
 2478              		@ frame_needed = 0, uses_anonymous_args = 0
 163:lvgl/lvgl/src/widgets/lv_img.c ****     LV_ASSERT_OBJ(obj, MY_CLASS);
 2479              		.loc 1 163 1 is_stmt 0 view .LVU844
 2480 0000 10B5     		push	{r4, lr}
 2481              	.LCFI18:
 2482              		.cfi_def_cfa_offset 8
 2483              		.cfi_offset 4, -8
 2484              		.cfi_offset 14, -4
 164:lvgl/lvgl/src/widgets/lv_img.c **** 
 2485              		.loc 1 164 5 is_stmt 1 view .LVU845
 164:lvgl/lvgl/src/widgets/lv_img.c **** 
 2486              		.loc 1 164 5 view .LVU846
 164:lvgl/lvgl/src/widgets/lv_img.c **** 
 2487              		.loc 1 164 5 view .LVU847
 166:lvgl/lvgl/src/widgets/lv_img.c **** 
 2488              		.loc 1 166 4 view .LVU848
 2489              	.LVL221:
 168:lvgl/lvgl/src/widgets/lv_img.c **** 
 2490              		.loc 1 168 5 view .LVU849
 168:lvgl/lvgl/src/widgets/lv_img.c **** 
 2491              		.loc 1 168 16 is_stmt 0 view .LVU850
 2492 0002 B0F92C40 		ldrsh	r4, [r0, #44]
 168:lvgl/lvgl/src/widgets/lv_img.c **** 
 2493              		.loc 1 168 11 view .LVU851
 2494 0006 91FBF4F2 		sdiv	r2, r1, r4
ARM GAS  C:\Users\gx\AppData\Local\Temp\ccAHLVXI.s 			page 80


 2495 000a 04FB1211 		mls	r1, r4, r2, r1
 2496              	.LVL222:
 170:lvgl/lvgl/src/widgets/lv_img.c ****     lv_obj_invalidate(obj);
 2497              		.loc 1 170 5 is_stmt 1 view .LVU852
 170:lvgl/lvgl/src/widgets/lv_img.c ****     lv_obj_invalidate(obj);
 2498              		.loc 1 170 19 is_stmt 0 view .LVU853
 2499 000e 0185     		strh	r1, [r0, #40]	@ movhi
 171:lvgl/lvgl/src/widgets/lv_img.c **** }
 2500              		.loc 1 171 5 is_stmt 1 view .LVU854
 2501 0010 FFF7FEFF 		bl	lv_obj_invalidate
 2502              	.LVL223:
 172:lvgl/lvgl/src/widgets/lv_img.c **** 
 2503              		.loc 1 172 1 is_stmt 0 view .LVU855
 2504 0014 10BD     		pop	{r4, pc}
 2505              		.cfi_endproc
 2506              	.LFE154:
 2508              		.section	.text.lv_img_set_offset_y,"ax",%progbits
 2509              		.align	1
 2510              		.global	lv_img_set_offset_y
 2511              		.syntax unified
 2512              		.thumb
 2513              		.thumb_func
 2514              		.fpu fpv4-sp-d16
 2516              	lv_img_set_offset_y:
 2517              	.LVL224:
 2518              	.LFB155:
 175:lvgl/lvgl/src/widgets/lv_img.c ****     LV_ASSERT_OBJ(obj, MY_CLASS);
 2519              		.loc 1 175 1 is_stmt 1 view -0
 2520              		.cfi_startproc
 2521              		@ args = 0, pretend = 0, frame = 0
 2522              		@ frame_needed = 0, uses_anonymous_args = 0
 175:lvgl/lvgl/src/widgets/lv_img.c ****     LV_ASSERT_OBJ(obj, MY_CLASS);
 2523              		.loc 1 175 1 is_stmt 0 view .LVU857
 2524 0000 10B5     		push	{r4, lr}
 2525              	.LCFI19:
 2526              		.cfi_def_cfa_offset 8
 2527              		.cfi_offset 4, -8
 2528              		.cfi_offset 14, -4
 176:lvgl/lvgl/src/widgets/lv_img.c **** 
 2529              		.loc 1 176 5 is_stmt 1 view .LVU858
 176:lvgl/lvgl/src/widgets/lv_img.c **** 
 2530              		.loc 1 176 5 view .LVU859
 176:lvgl/lvgl/src/widgets/lv_img.c **** 
 2531              		.loc 1 176 5 view .LVU860
 178:lvgl/lvgl/src/widgets/lv_img.c **** 
 2532              		.loc 1 178 4 view .LVU861
 2533              	.LVL225:
 180:lvgl/lvgl/src/widgets/lv_img.c **** 
 2534              		.loc 1 180 5 view .LVU862
 180:lvgl/lvgl/src/widgets/lv_img.c **** 
 2535              		.loc 1 180 16 is_stmt 0 view .LVU863
 2536 0002 B0F92E40 		ldrsh	r4, [r0, #46]
 180:lvgl/lvgl/src/widgets/lv_img.c **** 
 2537              		.loc 1 180 11 view .LVU864
 2538 0006 91FBF4F2 		sdiv	r2, r1, r4
 2539 000a 04FB1211 		mls	r1, r4, r2, r1
 2540              	.LVL226:
ARM GAS  C:\Users\gx\AppData\Local\Temp\ccAHLVXI.s 			page 81


 182:lvgl/lvgl/src/widgets/lv_img.c ****     lv_obj_invalidate(obj);
 2541              		.loc 1 182 5 is_stmt 1 view .LVU865
 182:lvgl/lvgl/src/widgets/lv_img.c ****     lv_obj_invalidate(obj);
 2542              		.loc 1 182 19 is_stmt 0 view .LVU866
 2543 000e 4185     		strh	r1, [r0, #42]	@ movhi
 183:lvgl/lvgl/src/widgets/lv_img.c **** }
 2544              		.loc 1 183 5 is_stmt 1 view .LVU867
 2545 0010 FFF7FEFF 		bl	lv_obj_invalidate
 2546              	.LVL227:
 184:lvgl/lvgl/src/widgets/lv_img.c **** 
 2547              		.loc 1 184 1 is_stmt 0 view .LVU868
 2548 0014 10BD     		pop	{r4, pc}
 2549              		.cfi_endproc
 2550              	.LFE155:
 2552              		.section	.text.lv_img_set_angle,"ax",%progbits
 2553              		.align	1
 2554              		.global	lv_img_set_angle
 2555              		.syntax unified
 2556              		.thumb
 2557              		.thumb_func
 2558              		.fpu fpv4-sp-d16
 2560              	lv_img_set_angle:
 2561              	.LVL228:
 2562              	.LFB156:
 187:lvgl/lvgl/src/widgets/lv_img.c ****     if(angle < 0 || angle >= 3600) angle = angle % 3600;
 2563              		.loc 1 187 1 is_stmt 1 view -0
 2564              		.cfi_startproc
 2565              		@ args = 0, pretend = 0, frame = 8
 2566              		@ frame_needed = 0, uses_anonymous_args = 0
 187:lvgl/lvgl/src/widgets/lv_img.c ****     if(angle < 0 || angle >= 3600) angle = angle % 3600;
 2567              		.loc 1 187 1 is_stmt 0 view .LVU870
 2568 0000 2DE9F047 		push	{r4, r5, r6, r7, r8, r9, r10, lr}
 2569              	.LCFI20:
 2570              		.cfi_def_cfa_offset 32
 2571              		.cfi_offset 4, -32
 2572              		.cfi_offset 5, -28
 2573              		.cfi_offset 6, -24
 2574              		.cfi_offset 7, -20
 2575              		.cfi_offset 8, -16
 2576              		.cfi_offset 9, -12
 2577              		.cfi_offset 10, -8
 2578              		.cfi_offset 14, -4
 2579 0004 84B0     		sub	sp, sp, #16
 2580              	.LCFI21:
 2581              		.cfi_def_cfa_offset 48
 2582 0006 0446     		mov	r4, r0
 2583 0008 0D46     		mov	r5, r1
 188:lvgl/lvgl/src/widgets/lv_img.c **** 
 2584              		.loc 1 188 5 is_stmt 1 view .LVU871
 188:lvgl/lvgl/src/widgets/lv_img.c **** 
 2585              		.loc 1 188 18 is_stmt 0 view .LVU872
 2586 000a 8BB2     		uxth	r3, r1
 188:lvgl/lvgl/src/widgets/lv_img.c **** 
 2587              		.loc 1 188 7 view .LVU873
 2588 000c B3F5616F 		cmp	r3, #3600
 2589 0010 0BD3     		bcc	.L105
 188:lvgl/lvgl/src/widgets/lv_img.c **** 
ARM GAS  C:\Users\gx\AppData\Local\Temp\ccAHLVXI.s 			page 82


 2590              		.loc 1 188 36 is_stmt 1 discriminator 1 view .LVU874
 188:lvgl/lvgl/src/widgets/lv_img.c **** 
 2591              		.loc 1 188 42 is_stmt 0 discriminator 1 view .LVU875
 2592 0012 3F49     		ldr	r1, .L109
 2593              	.LVL229:
 188:lvgl/lvgl/src/widgets/lv_img.c **** 
 2594              		.loc 1 188 42 discriminator 1 view .LVU876
 2595 0014 81FB0531 		smull	r3, r1, r1, r5
 2596              	.LVL230:
 188:lvgl/lvgl/src/widgets/lv_img.c **** 
 2597              		.loc 1 188 42 discriminator 1 view .LVU877
 2598 0018 4B19     		adds	r3, r1, r5
 2599 001a E917     		asrs	r1, r5, #31
 2600 001c C1EBE321 		rsb	r1, r1, r3, asr #11
 2601 0020 4FF46163 		mov	r3, #3600
 2602 0024 03FB1155 		mls	r5, r3, r1, r5
 2603 0028 2DB2     		sxth	r5, r5
 2604              	.LVL231:
 2605              	.L105:
 190:lvgl/lvgl/src/widgets/lv_img.c ****     if(angle == img->angle) return;
 2606              		.loc 1 190 4 is_stmt 1 view .LVU878
 191:lvgl/lvgl/src/widgets/lv_img.c **** 
 2607              		.loc 1 191 5 view .LVU879
 191:lvgl/lvgl/src/widgets/lv_img.c **** 
 2608              		.loc 1 191 20 is_stmt 0 view .LVU880
 2609 002a 238E     		ldrh	r3, [r4, #48]
 191:lvgl/lvgl/src/widgets/lv_img.c **** 
 2610              		.loc 1 191 7 view .LVU881
 2611 002c 9D42     		cmp	r5, r3
 2612 002e 6BD0     		beq	.L104
 193:lvgl/lvgl/src/widgets/lv_img.c ****     transf_zoom = (transf_zoom * img->zoom) >> 8;
 2613              		.loc 1 193 5 is_stmt 1 view .LVU882
 2614              	.LVL232:
 2615              	.LBB153:
 2616              	.LBI153:
  79:lvgl/lvgl/src/widgets/../core/lv_obj_style_gen.h **** {
 2617              		.loc 2 79 26 view .LVU883
 2618              	.LBB154:
  81:lvgl/lvgl/src/widgets/../core/lv_obj_style_gen.h ****     return (lv_coord_t)v.num;
 2619              		.loc 2 81 5 view .LVU884
  81:lvgl/lvgl/src/widgets/../core/lv_obj_style_gen.h ****     return (lv_coord_t)v.num;
 2620              		.loc 2 81 26 is_stmt 0 view .LVU885
 2621 0030 43F60E02 		movw	r2, #14350
 2622 0034 0021     		movs	r1, #0
 2623 0036 2046     		mov	r0, r4
 2624              	.LVL233:
  81:lvgl/lvgl/src/widgets/../core/lv_obj_style_gen.h ****     return (lv_coord_t)v.num;
 2625              		.loc 2 81 26 view .LVU886
 2626 0038 FFF7FEFF 		bl	lv_obj_get_style_prop
 2627              	.LVL234:
  82:lvgl/lvgl/src/widgets/../core/lv_obj_style_gen.h **** }
 2628              		.loc 2 82 5 is_stmt 1 view .LVU887
  82:lvgl/lvgl/src/widgets/../core/lv_obj_style_gen.h **** }
 2629              		.loc 2 82 12 is_stmt 0 view .LVU888
 2630 003c 00B2     		sxth	r0, r0
 2631              	.LVL235:
  82:lvgl/lvgl/src/widgets/../core/lv_obj_style_gen.h **** }
ARM GAS  C:\Users\gx\AppData\Local\Temp\ccAHLVXI.s 			page 83


 2632              		.loc 2 82 12 view .LVU889
 2633              	.LBE154:
 2634              	.LBE153:
 194:lvgl/lvgl/src/widgets/lv_img.c **** 
 2635              		.loc 1 194 5 is_stmt 1 view .LVU890
 194:lvgl/lvgl/src/widgets/lv_img.c **** 
 2636              		.loc 1 194 37 is_stmt 0 view .LVU891
 2637 003e E78E     		ldrh	r7, [r4, #54]
 194:lvgl/lvgl/src/widgets/lv_img.c **** 
 2638              		.loc 1 194 32 view .LVU892
 2639 0040 07FB00F7 		mul	r7, r7, r0
 194:lvgl/lvgl/src/widgets/lv_img.c **** 
 2640              		.loc 1 194 45 view .LVU893
 2641 0044 3F12     		asrs	r7, r7, #8
 2642              	.LVL236:
 196:lvgl/lvgl/src/widgets/lv_img.c **** 
 2643              		.loc 1 196 5 is_stmt 1 view .LVU894
 2644              	.LBB155:
 2645              	.LBI155:
  85:lvgl/lvgl/src/widgets/../core/lv_obj_style_gen.h **** {
 2646              		.loc 2 85 26 view .LVU895
 2647              	.LBB156:
  87:lvgl/lvgl/src/widgets/../core/lv_obj_style_gen.h ****     return (lv_coord_t)v.num;
 2648              		.loc 2 87 5 view .LVU896
  87:lvgl/lvgl/src/widgets/../core/lv_obj_style_gen.h ****     return (lv_coord_t)v.num;
 2649              		.loc 2 87 26 is_stmt 0 view .LVU897
 2650 0046 43F60F02 		movw	r2, #14351
 2651 004a 0021     		movs	r1, #0
 2652 004c 2046     		mov	r0, r4
 2653 004e FFF7FEFF 		bl	lv_obj_get_style_prop
 2654              	.LVL237:
 2655 0052 0646     		mov	r6, r0
 2656              	.LVL238:
  88:lvgl/lvgl/src/widgets/../core/lv_obj_style_gen.h **** }
 2657              		.loc 2 88 5 is_stmt 1 view .LVU898
  88:lvgl/lvgl/src/widgets/../core/lv_obj_style_gen.h **** }
 2658              		.loc 2 88 5 is_stmt 0 view .LVU899
 2659              	.LBE156:
 2660              	.LBE155:
 198:lvgl/lvgl/src/widgets/lv_img.c ****     lv_coord_t h = lv_obj_get_height(obj);
 2661              		.loc 1 198 5 is_stmt 1 view .LVU900
 198:lvgl/lvgl/src/widgets/lv_img.c ****     lv_coord_t h = lv_obj_get_height(obj);
 2662              		.loc 1 198 20 is_stmt 0 view .LVU901
 2663 0054 2046     		mov	r0, r4
 2664 0056 FFF7FEFF 		bl	lv_obj_get_width
 2665              	.LVL239:
 2666 005a 8046     		mov	r8, r0
 2667              	.LVL240:
 199:lvgl/lvgl/src/widgets/lv_img.c ****     lv_area_t a;
 2668              		.loc 1 199 5 is_stmt 1 view .LVU902
 199:lvgl/lvgl/src/widgets/lv_img.c ****     lv_area_t a;
 2669              		.loc 1 199 20 is_stmt 0 view .LVU903
 2670 005c 2046     		mov	r0, r4
 2671 005e FFF7FEFF 		bl	lv_obj_get_height
 2672              	.LVL241:
 2673 0062 8146     		mov	r9, r0
 2674              	.LVL242:
ARM GAS  C:\Users\gx\AppData\Local\Temp\ccAHLVXI.s 			page 84


 200:lvgl/lvgl/src/widgets/lv_img.c ****     _lv_img_buf_get_transformed_area(&a, w, h, transf_angle + img->angle, transf_zoom, &img->pivot)
 2675              		.loc 1 200 5 is_stmt 1 view .LVU904
 201:lvgl/lvgl/src/widgets/lv_img.c ****     a.x1 += obj->coords.x1;
 2676              		.loc 1 201 5 view .LVU905
 201:lvgl/lvgl/src/widgets/lv_img.c ****     a.x1 += obj->coords.x1;
 2677              		.loc 1 201 66 is_stmt 0 view .LVU906
 2678 0064 238E     		ldrh	r3, [r4, #48]
 201:lvgl/lvgl/src/widgets/lv_img.c ****     a.x1 += obj->coords.x1;
 2679              		.loc 1 201 61 view .LVU907
 2680 0066 B6B2     		uxth	r6, r6
 201:lvgl/lvgl/src/widgets/lv_img.c ****     a.x1 += obj->coords.x1;
 2681              		.loc 1 201 61 view .LVU908
 2682 0068 3344     		add	r3, r3, r6
 201:lvgl/lvgl/src/widgets/lv_img.c ****     a.x1 += obj->coords.x1;
 2683              		.loc 1 201 5 view .LVU909
 2684 006a BFB2     		uxth	r7, r7
 201:lvgl/lvgl/src/widgets/lv_img.c ****     a.x1 += obj->coords.x1;
 2685              		.loc 1 201 88 view .LVU910
 2686 006c 04F1320A 		add	r10, r4, #50
 201:lvgl/lvgl/src/widgets/lv_img.c ****     a.x1 += obj->coords.x1;
 2687              		.loc 1 201 5 view .LVU911
 2688 0070 CDF804A0 		str	r10, [sp, #4]
 2689 0074 0097     		str	r7, [sp]
 2690 0076 1BB2     		sxth	r3, r3
 2691 0078 0246     		mov	r2, r0
 2692 007a 4146     		mov	r1, r8
 2693 007c 02A8     		add	r0, sp, #8
 2694              	.LVL243:
 201:lvgl/lvgl/src/widgets/lv_img.c ****     a.x1 += obj->coords.x1;
 2695              		.loc 1 201 5 view .LVU912
 2696 007e FFF7FEFF 		bl	_lv_img_buf_get_transformed_area
 2697              	.LVL244:
 202:lvgl/lvgl/src/widgets/lv_img.c ****     a.y1 += obj->coords.y1;
 2698              		.loc 1 202 5 is_stmt 1 view .LVU913
 202:lvgl/lvgl/src/widgets/lv_img.c ****     a.y1 += obj->coords.y1;
 2699              		.loc 1 202 24 is_stmt 0 view .LVU914
 2700 0082 A28A     		ldrh	r2, [r4, #20]
 202:lvgl/lvgl/src/widgets/lv_img.c ****     a.y1 += obj->coords.y1;
 2701              		.loc 1 202 10 view .LVU915
 2702 0084 BDF80830 		ldrh	r3, [sp, #8]
 2703 0088 1344     		add	r3, r3, r2
 2704 008a ADF80830 		strh	r3, [sp, #8]	@ movhi
 203:lvgl/lvgl/src/widgets/lv_img.c ****     a.x2 += obj->coords.x1;
 2705              		.loc 1 203 5 is_stmt 1 view .LVU916
 203:lvgl/lvgl/src/widgets/lv_img.c ****     a.x2 += obj->coords.x1;
 2706              		.loc 1 203 24 is_stmt 0 view .LVU917
 2707 008e E38A     		ldrh	r3, [r4, #22]
 203:lvgl/lvgl/src/widgets/lv_img.c ****     a.x2 += obj->coords.x1;
 2708              		.loc 1 203 10 view .LVU918
 2709 0090 BDF80A10 		ldrh	r1, [sp, #10]
 2710 0094 1944     		add	r1, r1, r3
 2711 0096 ADF80A10 		strh	r1, [sp, #10]	@ movhi
 204:lvgl/lvgl/src/widgets/lv_img.c ****     a.y2 += obj->coords.y1;
 2712              		.loc 1 204 5 is_stmt 1 view .LVU919
 204:lvgl/lvgl/src/widgets/lv_img.c ****     a.y2 += obj->coords.y1;
 2713              		.loc 1 204 10 is_stmt 0 view .LVU920
 2714 009a BDF80C10 		ldrh	r1, [sp, #12]
ARM GAS  C:\Users\gx\AppData\Local\Temp\ccAHLVXI.s 			page 85


 2715 009e 0A44     		add	r2, r2, r1
 2716 00a0 ADF80C20 		strh	r2, [sp, #12]	@ movhi
 205:lvgl/lvgl/src/widgets/lv_img.c ****     lv_obj_invalidate_area(obj, &a);
 2717              		.loc 1 205 5 is_stmt 1 view .LVU921
 205:lvgl/lvgl/src/widgets/lv_img.c ****     lv_obj_invalidate_area(obj, &a);
 2718              		.loc 1 205 10 is_stmt 0 view .LVU922
 2719 00a4 BDF80E20 		ldrh	r2, [sp, #14]
 2720 00a8 1344     		add	r3, r3, r2
 2721 00aa ADF80E30 		strh	r3, [sp, #14]	@ movhi
 206:lvgl/lvgl/src/widgets/lv_img.c **** 
 2722              		.loc 1 206 5 is_stmt 1 view .LVU923
 2723 00ae 02A9     		add	r1, sp, #8
 2724 00b0 2046     		mov	r0, r4
 2725 00b2 FFF7FEFF 		bl	lv_obj_invalidate_area
 2726              	.LVL245:
 208:lvgl/lvgl/src/widgets/lv_img.c ****     lv_obj_refresh_ext_draw_size(obj);
 2727              		.loc 1 208 5 view .LVU924
 208:lvgl/lvgl/src/widgets/lv_img.c ****     lv_obj_refresh_ext_draw_size(obj);
 2728              		.loc 1 208 16 is_stmt 0 view .LVU925
 2729 00b6 2586     		strh	r5, [r4, #48]	@ movhi
 209:lvgl/lvgl/src/widgets/lv_img.c **** 
 2730              		.loc 1 209 5 is_stmt 1 view .LVU926
 2731 00b8 2046     		mov	r0, r4
 2732 00ba FFF7FEFF 		bl	lv_obj_refresh_ext_draw_size
 2733              	.LVL246:
 211:lvgl/lvgl/src/widgets/lv_img.c ****     a.x1 += obj->coords.x1;
 2734              		.loc 1 211 5 view .LVU927
 211:lvgl/lvgl/src/widgets/lv_img.c ****     a.x1 += obj->coords.x1;
 2735              		.loc 1 211 66 is_stmt 0 view .LVU928
 2736 00be 238E     		ldrh	r3, [r4, #48]
 211:lvgl/lvgl/src/widgets/lv_img.c ****     a.x1 += obj->coords.x1;
 2737              		.loc 1 211 61 view .LVU929
 2738 00c0 3344     		add	r3, r3, r6
 211:lvgl/lvgl/src/widgets/lv_img.c ****     a.x1 += obj->coords.x1;
 2739              		.loc 1 211 5 view .LVU930
 2740 00c2 CDF804A0 		str	r10, [sp, #4]
 2741 00c6 0097     		str	r7, [sp]
 2742 00c8 1BB2     		sxth	r3, r3
 2743 00ca 4A46     		mov	r2, r9
 2744 00cc 4146     		mov	r1, r8
 2745 00ce 02A8     		add	r0, sp, #8
 2746 00d0 FFF7FEFF 		bl	_lv_img_buf_get_transformed_area
 2747              	.LVL247:
 212:lvgl/lvgl/src/widgets/lv_img.c ****     a.y1 += obj->coords.y1;
 2748              		.loc 1 212 5 is_stmt 1 view .LVU931
 212:lvgl/lvgl/src/widgets/lv_img.c ****     a.y1 += obj->coords.y1;
 2749              		.loc 1 212 24 is_stmt 0 view .LVU932
 2750 00d4 A28A     		ldrh	r2, [r4, #20]
 212:lvgl/lvgl/src/widgets/lv_img.c ****     a.y1 += obj->coords.y1;
 2751              		.loc 1 212 10 view .LVU933
 2752 00d6 BDF80830 		ldrh	r3, [sp, #8]
 2753 00da 1344     		add	r3, r3, r2
 2754 00dc ADF80830 		strh	r3, [sp, #8]	@ movhi
 213:lvgl/lvgl/src/widgets/lv_img.c ****     a.x2 += obj->coords.x1;
 2755              		.loc 1 213 5 is_stmt 1 view .LVU934
 213:lvgl/lvgl/src/widgets/lv_img.c ****     a.x2 += obj->coords.x1;
 2756              		.loc 1 213 24 is_stmt 0 view .LVU935
ARM GAS  C:\Users\gx\AppData\Local\Temp\ccAHLVXI.s 			page 86


 2757 00e0 E38A     		ldrh	r3, [r4, #22]
 213:lvgl/lvgl/src/widgets/lv_img.c ****     a.x2 += obj->coords.x1;
 2758              		.loc 1 213 10 view .LVU936
 2759 00e2 BDF80A10 		ldrh	r1, [sp, #10]
 2760 00e6 1944     		add	r1, r1, r3
 2761 00e8 ADF80A10 		strh	r1, [sp, #10]	@ movhi
 214:lvgl/lvgl/src/widgets/lv_img.c ****     a.y2 += obj->coords.y1;
 2762              		.loc 1 214 5 is_stmt 1 view .LVU937
 214:lvgl/lvgl/src/widgets/lv_img.c ****     a.y2 += obj->coords.y1;
 2763              		.loc 1 214 10 is_stmt 0 view .LVU938
 2764 00ec BDF80C10 		ldrh	r1, [sp, #12]
 2765 00f0 0A44     		add	r2, r2, r1
 2766 00f2 ADF80C20 		strh	r2, [sp, #12]	@ movhi
 215:lvgl/lvgl/src/widgets/lv_img.c ****     lv_obj_invalidate_area(obj, &a);
 2767              		.loc 1 215 5 is_stmt 1 view .LVU939
 215:lvgl/lvgl/src/widgets/lv_img.c ****     lv_obj_invalidate_area(obj, &a);
 2768              		.loc 1 215 10 is_stmt 0 view .LVU940
 2769 00f6 BDF80E20 		ldrh	r2, [sp, #14]
 2770 00fa 1344     		add	r3, r3, r2
 2771 00fc ADF80E30 		strh	r3, [sp, #14]	@ movhi
 216:lvgl/lvgl/src/widgets/lv_img.c **** }
 2772              		.loc 1 216 5 is_stmt 1 view .LVU941
 2773 0100 02A9     		add	r1, sp, #8
 2774 0102 2046     		mov	r0, r4
 2775 0104 FFF7FEFF 		bl	lv_obj_invalidate_area
 2776              	.LVL248:
 2777              	.L104:
 217:lvgl/lvgl/src/widgets/lv_img.c **** 
 2778              		.loc 1 217 1 is_stmt 0 view .LVU942
 2779 0108 04B0     		add	sp, sp, #16
 2780              	.LCFI22:
 2781              		.cfi_def_cfa_offset 32
 2782              		@ sp needed
 2783 010a BDE8F087 		pop	{r4, r5, r6, r7, r8, r9, r10, pc}
 2784              	.LVL249:
 2785              	.L110:
 217:lvgl/lvgl/src/widgets/lv_img.c **** 
 2786              		.loc 1 217 1 view .LVU943
 2787 010e 00BF     		.align	2
 2788              	.L109:
 2789 0110 C5B3A291 		.word	-1851608123
 2790              		.cfi_endproc
 2791              	.LFE156:
 2793              		.section	.text.lv_img_set_pivot,"ax",%progbits
 2794              		.align	1
 2795              		.global	lv_img_set_pivot
 2796              		.syntax unified
 2797              		.thumb
 2798              		.thumb_func
 2799              		.fpu fpv4-sp-d16
 2801              	lv_img_set_pivot:
 2802              	.LVL250:
 2803              	.LFB157:
 220:lvgl/lvgl/src/widgets/lv_img.c ****     lv_img_t * img = (lv_img_t *)obj;
 2804              		.loc 1 220 1 is_stmt 1 view -0
 2805              		.cfi_startproc
 2806              		@ args = 0, pretend = 0, frame = 8
ARM GAS  C:\Users\gx\AppData\Local\Temp\ccAHLVXI.s 			page 87


 2807              		@ frame_needed = 0, uses_anonymous_args = 0
 220:lvgl/lvgl/src/widgets/lv_img.c ****     lv_img_t * img = (lv_img_t *)obj;
 2808              		.loc 1 220 1 is_stmt 0 view .LVU945
 2809 0000 2DE9F04F 		push	{r4, r5, r6, r7, r8, r9, r10, fp, lr}
 2810              	.LCFI23:
 2811              		.cfi_def_cfa_offset 36
 2812              		.cfi_offset 4, -36
 2813              		.cfi_offset 5, -32
 2814              		.cfi_offset 6, -28
 2815              		.cfi_offset 7, -24
 2816              		.cfi_offset 8, -20
 2817              		.cfi_offset 9, -16
 2818              		.cfi_offset 10, -12
 2819              		.cfi_offset 11, -8
 2820              		.cfi_offset 14, -4
 2821 0004 85B0     		sub	sp, sp, #20
 2822              	.LCFI24:
 2823              		.cfi_def_cfa_offset 56
 2824 0006 0446     		mov	r4, r0
 2825 0008 0F46     		mov	r7, r1
 2826 000a 9246     		mov	r10, r2
 221:lvgl/lvgl/src/widgets/lv_img.c ****     if(img->pivot.x == x && img->pivot.y == y) return;
 2827              		.loc 1 221 5 is_stmt 1 view .LVU946
 2828              	.LVL251:
 222:lvgl/lvgl/src/widgets/lv_img.c **** 
 2829              		.loc 1 222 5 view .LVU947
 222:lvgl/lvgl/src/widgets/lv_img.c **** 
 2830              		.loc 1 222 18 is_stmt 0 view .LVU948
 2831 000c B0F93230 		ldrsh	r3, [r0, #50]
 222:lvgl/lvgl/src/widgets/lv_img.c **** 
 2832              		.loc 1 222 7 view .LVU949
 2833 0010 8B42     		cmp	r3, r1
 2834 0012 03D1     		bne	.L112
 222:lvgl/lvgl/src/widgets/lv_img.c **** 
 2835              		.loc 1 222 39 discriminator 1 view .LVU950
 2836 0014 B0F93430 		ldrsh	r3, [r0, #52]
 222:lvgl/lvgl/src/widgets/lv_img.c **** 
 2837              		.loc 1 222 26 discriminator 1 view .LVU951
 2838 0018 9342     		cmp	r3, r2
 2839 001a 6AD0     		beq	.L111
 2840              	.L112:
 224:lvgl/lvgl/src/widgets/lv_img.c ****     transf_zoom = (transf_zoom * img->zoom) >> 8;
 2841              		.loc 1 224 5 is_stmt 1 view .LVU952
 2842              	.LVL252:
 2843              	.LBB157:
 2844              	.LBI157:
  79:lvgl/lvgl/src/widgets/../core/lv_obj_style_gen.h **** {
 2845              		.loc 2 79 26 view .LVU953
 2846              	.LBB158:
  81:lvgl/lvgl/src/widgets/../core/lv_obj_style_gen.h ****     return (lv_coord_t)v.num;
 2847              		.loc 2 81 5 view .LVU954
  81:lvgl/lvgl/src/widgets/../core/lv_obj_style_gen.h ****     return (lv_coord_t)v.num;
 2848              		.loc 2 81 26 is_stmt 0 view .LVU955
 2849 001c 43F60E02 		movw	r2, #14350
 2850              	.LVL253:
  81:lvgl/lvgl/src/widgets/../core/lv_obj_style_gen.h ****     return (lv_coord_t)v.num;
 2851              		.loc 2 81 26 view .LVU956
ARM GAS  C:\Users\gx\AppData\Local\Temp\ccAHLVXI.s 			page 88


 2852 0020 0021     		movs	r1, #0
 2853              	.LVL254:
  81:lvgl/lvgl/src/widgets/../core/lv_obj_style_gen.h ****     return (lv_coord_t)v.num;
 2854              		.loc 2 81 26 view .LVU957
 2855 0022 2046     		mov	r0, r4
 2856              	.LVL255:
  81:lvgl/lvgl/src/widgets/../core/lv_obj_style_gen.h ****     return (lv_coord_t)v.num;
 2857              		.loc 2 81 26 view .LVU958
 2858 0024 FFF7FEFF 		bl	lv_obj_get_style_prop
 2859              	.LVL256:
  82:lvgl/lvgl/src/widgets/../core/lv_obj_style_gen.h **** }
 2860              		.loc 2 82 5 is_stmt 1 view .LVU959
  82:lvgl/lvgl/src/widgets/../core/lv_obj_style_gen.h **** }
 2861              		.loc 2 82 12 is_stmt 0 view .LVU960
 2862 0028 00B2     		sxth	r0, r0
 2863              	.LVL257:
  82:lvgl/lvgl/src/widgets/../core/lv_obj_style_gen.h **** }
 2864              		.loc 2 82 12 view .LVU961
 2865              	.LBE158:
 2866              	.LBE157:
 225:lvgl/lvgl/src/widgets/lv_img.c **** 
 2867              		.loc 1 225 5 is_stmt 1 view .LVU962
 225:lvgl/lvgl/src/widgets/lv_img.c **** 
 2868              		.loc 1 225 37 is_stmt 0 view .LVU963
 2869 002a E58E     		ldrh	r5, [r4, #54]
 225:lvgl/lvgl/src/widgets/lv_img.c **** 
 2870              		.loc 1 225 32 view .LVU964
 2871 002c 05FB00F5 		mul	r5, r5, r0
 225:lvgl/lvgl/src/widgets/lv_img.c **** 
 2872              		.loc 1 225 45 view .LVU965
 2873 0030 2D12     		asrs	r5, r5, #8
 2874              	.LVL258:
 227:lvgl/lvgl/src/widgets/lv_img.c ****     transf_angle += img->angle;
 2875              		.loc 1 227 5 is_stmt 1 view .LVU966
 2876              	.LBB159:
 2877              	.LBI159:
  85:lvgl/lvgl/src/widgets/../core/lv_obj_style_gen.h **** {
 2878              		.loc 2 85 26 view .LVU967
 2879              	.LBB160:
  87:lvgl/lvgl/src/widgets/../core/lv_obj_style_gen.h ****     return (lv_coord_t)v.num;
 2880              		.loc 2 87 5 view .LVU968
  87:lvgl/lvgl/src/widgets/../core/lv_obj_style_gen.h ****     return (lv_coord_t)v.num;
 2881              		.loc 2 87 26 is_stmt 0 view .LVU969
 2882 0032 43F60F02 		movw	r2, #14351
 2883 0036 0021     		movs	r1, #0
 2884 0038 2046     		mov	r0, r4
 2885 003a FFF7FEFF 		bl	lv_obj_get_style_prop
 2886              	.LVL259:
  88:lvgl/lvgl/src/widgets/../core/lv_obj_style_gen.h **** }
 2887              		.loc 2 88 5 is_stmt 1 view .LVU970
  88:lvgl/lvgl/src/widgets/../core/lv_obj_style_gen.h **** }
 2888              		.loc 2 88 5 is_stmt 0 view .LVU971
 2889              	.LBE160:
 2890              	.LBE159:
 228:lvgl/lvgl/src/widgets/lv_img.c **** 
 2891              		.loc 1 228 5 is_stmt 1 view .LVU972
 228:lvgl/lvgl/src/widgets/lv_img.c **** 
ARM GAS  C:\Users\gx\AppData\Local\Temp\ccAHLVXI.s 			page 89


 2892              		.loc 1 228 24 is_stmt 0 view .LVU973
 2893 003e 268E     		ldrh	r6, [r4, #48]
 228:lvgl/lvgl/src/widgets/lv_img.c **** 
 2894              		.loc 1 228 18 view .LVU974
 2895 0040 0644     		add	r6, r6, r0
 2896 0042 36B2     		sxth	r6, r6
 2897              	.LVL260:
 230:lvgl/lvgl/src/widgets/lv_img.c ****     lv_coord_t h = lv_obj_get_height(obj);
 2898              		.loc 1 230 5 is_stmt 1 view .LVU975
 230:lvgl/lvgl/src/widgets/lv_img.c ****     lv_coord_t h = lv_obj_get_height(obj);
 2899              		.loc 1 230 20 is_stmt 0 view .LVU976
 2900 0044 2046     		mov	r0, r4
 2901 0046 FFF7FEFF 		bl	lv_obj_get_width
 2902              	.LVL261:
 2903 004a 8046     		mov	r8, r0
 2904              	.LVL262:
 231:lvgl/lvgl/src/widgets/lv_img.c ****     lv_area_t a;
 2905              		.loc 1 231 5 is_stmt 1 view .LVU977
 231:lvgl/lvgl/src/widgets/lv_img.c ****     lv_area_t a;
 2906              		.loc 1 231 20 is_stmt 0 view .LVU978
 2907 004c 2046     		mov	r0, r4
 2908 004e FFF7FEFF 		bl	lv_obj_get_height
 2909              	.LVL263:
 2910 0052 8146     		mov	r9, r0
 2911              	.LVL264:
 232:lvgl/lvgl/src/widgets/lv_img.c ****     _lv_img_buf_get_transformed_area(&a, w, h, transf_angle, transf_zoom, &img->pivot);
 2912              		.loc 1 232 5 is_stmt 1 view .LVU979
 233:lvgl/lvgl/src/widgets/lv_img.c ****     a.x1 += obj->coords.x1;
 2913              		.loc 1 233 5 view .LVU980
 2914 0054 ADB2     		uxth	r5, r5
 233:lvgl/lvgl/src/widgets/lv_img.c ****     a.x1 += obj->coords.x1;
 2915              		.loc 1 233 75 is_stmt 0 view .LVU981
 2916 0056 04F1320B 		add	fp, r4, #50
 233:lvgl/lvgl/src/widgets/lv_img.c ****     a.x1 += obj->coords.x1;
 2917              		.loc 1 233 5 view .LVU982
 2918 005a CDF804B0 		str	fp, [sp, #4]
 2919 005e 0095     		str	r5, [sp]
 2920 0060 3346     		mov	r3, r6
 2921 0062 0246     		mov	r2, r0
 2922 0064 4146     		mov	r1, r8
 2923 0066 02A8     		add	r0, sp, #8
 2924              	.LVL265:
 233:lvgl/lvgl/src/widgets/lv_img.c ****     a.x1 += obj->coords.x1;
 2925              		.loc 1 233 5 view .LVU983
 2926 0068 FFF7FEFF 		bl	_lv_img_buf_get_transformed_area
 2927              	.LVL266:
 234:lvgl/lvgl/src/widgets/lv_img.c ****     a.y1 += obj->coords.y1;
 2928              		.loc 1 234 5 is_stmt 1 view .LVU984
 234:lvgl/lvgl/src/widgets/lv_img.c ****     a.y1 += obj->coords.y1;
 2929              		.loc 1 234 24 is_stmt 0 view .LVU985
 2930 006c A28A     		ldrh	r2, [r4, #20]
 234:lvgl/lvgl/src/widgets/lv_img.c ****     a.y1 += obj->coords.y1;
 2931              		.loc 1 234 10 view .LVU986
 2932 006e BDF80830 		ldrh	r3, [sp, #8]
 2933 0072 1344     		add	r3, r3, r2
 2934 0074 ADF80830 		strh	r3, [sp, #8]	@ movhi
 235:lvgl/lvgl/src/widgets/lv_img.c ****     a.x2 += obj->coords.x1;
ARM GAS  C:\Users\gx\AppData\Local\Temp\ccAHLVXI.s 			page 90


 2935              		.loc 1 235 5 is_stmt 1 view .LVU987
 235:lvgl/lvgl/src/widgets/lv_img.c ****     a.x2 += obj->coords.x1;
 2936              		.loc 1 235 24 is_stmt 0 view .LVU988
 2937 0078 E38A     		ldrh	r3, [r4, #22]
 235:lvgl/lvgl/src/widgets/lv_img.c ****     a.x2 += obj->coords.x1;
 2938              		.loc 1 235 10 view .LVU989
 2939 007a BDF80A10 		ldrh	r1, [sp, #10]
 2940 007e 1944     		add	r1, r1, r3
 2941 0080 ADF80A10 		strh	r1, [sp, #10]	@ movhi
 236:lvgl/lvgl/src/widgets/lv_img.c ****     a.y2 += obj->coords.y1;
 2942              		.loc 1 236 5 is_stmt 1 view .LVU990
 236:lvgl/lvgl/src/widgets/lv_img.c ****     a.y2 += obj->coords.y1;
 2943              		.loc 1 236 10 is_stmt 0 view .LVU991
 2944 0084 BDF80C10 		ldrh	r1, [sp, #12]
 2945 0088 0A44     		add	r2, r2, r1
 2946 008a ADF80C20 		strh	r2, [sp, #12]	@ movhi
 237:lvgl/lvgl/src/widgets/lv_img.c ****     lv_obj_invalidate_area(obj, &a);
 2947              		.loc 1 237 5 is_stmt 1 view .LVU992
 237:lvgl/lvgl/src/widgets/lv_img.c ****     lv_obj_invalidate_area(obj, &a);
 2948              		.loc 1 237 10 is_stmt 0 view .LVU993
 2949 008e BDF80E20 		ldrh	r2, [sp, #14]
 2950 0092 1344     		add	r3, r3, r2
 2951 0094 ADF80E30 		strh	r3, [sp, #14]	@ movhi
 238:lvgl/lvgl/src/widgets/lv_img.c **** 
 2952              		.loc 1 238 5 is_stmt 1 view .LVU994
 2953 0098 02A9     		add	r1, sp, #8
 2954 009a 2046     		mov	r0, r4
 2955 009c FFF7FEFF 		bl	lv_obj_invalidate_area
 2956              	.LVL267:
 240:lvgl/lvgl/src/widgets/lv_img.c ****     img->pivot.y = y;
 2957              		.loc 1 240 5 view .LVU995
 240:lvgl/lvgl/src/widgets/lv_img.c ****     img->pivot.y = y;
 2958              		.loc 1 240 18 is_stmt 0 view .LVU996
 2959 00a0 6786     		strh	r7, [r4, #50]	@ movhi
 241:lvgl/lvgl/src/widgets/lv_img.c ****     lv_obj_refresh_ext_draw_size(obj);
 2960              		.loc 1 241 5 is_stmt 1 view .LVU997
 241:lvgl/lvgl/src/widgets/lv_img.c ****     lv_obj_refresh_ext_draw_size(obj);
 2961              		.loc 1 241 18 is_stmt 0 view .LVU998
 2962 00a2 A4F834A0 		strh	r10, [r4, #52]	@ movhi
 242:lvgl/lvgl/src/widgets/lv_img.c **** 
 2963              		.loc 1 242 5 is_stmt 1 view .LVU999
 2964 00a6 2046     		mov	r0, r4
 2965 00a8 FFF7FEFF 		bl	lv_obj_refresh_ext_draw_size
 2966              	.LVL268:
 244:lvgl/lvgl/src/widgets/lv_img.c ****     a.x1 += obj->coords.x1;
 2967              		.loc 1 244 5 view .LVU1000
 2968 00ac CDF804B0 		str	fp, [sp, #4]
 2969 00b0 0095     		str	r5, [sp]
 2970 00b2 3346     		mov	r3, r6
 2971 00b4 4A46     		mov	r2, r9
 2972 00b6 4146     		mov	r1, r8
 2973 00b8 02A8     		add	r0, sp, #8
 2974 00ba FFF7FEFF 		bl	_lv_img_buf_get_transformed_area
 2975              	.LVL269:
 245:lvgl/lvgl/src/widgets/lv_img.c ****     a.y1 += obj->coords.y1;
 2976              		.loc 1 245 5 view .LVU1001
 245:lvgl/lvgl/src/widgets/lv_img.c ****     a.y1 += obj->coords.y1;
ARM GAS  C:\Users\gx\AppData\Local\Temp\ccAHLVXI.s 			page 91


 2977              		.loc 1 245 24 is_stmt 0 view .LVU1002
 2978 00be A28A     		ldrh	r2, [r4, #20]
 245:lvgl/lvgl/src/widgets/lv_img.c ****     a.y1 += obj->coords.y1;
 2979              		.loc 1 245 10 view .LVU1003
 2980 00c0 BDF80830 		ldrh	r3, [sp, #8]
 2981 00c4 1344     		add	r3, r3, r2
 2982 00c6 ADF80830 		strh	r3, [sp, #8]	@ movhi
 246:lvgl/lvgl/src/widgets/lv_img.c ****     a.x2 += obj->coords.x1;
 2983              		.loc 1 246 5 is_stmt 1 view .LVU1004
 246:lvgl/lvgl/src/widgets/lv_img.c ****     a.x2 += obj->coords.x1;
 2984              		.loc 1 246 24 is_stmt 0 view .LVU1005
 2985 00ca E38A     		ldrh	r3, [r4, #22]
 246:lvgl/lvgl/src/widgets/lv_img.c ****     a.x2 += obj->coords.x1;
 2986              		.loc 1 246 10 view .LVU1006
 2987 00cc BDF80A10 		ldrh	r1, [sp, #10]
 2988 00d0 1944     		add	r1, r1, r3
 2989 00d2 ADF80A10 		strh	r1, [sp, #10]	@ movhi
 247:lvgl/lvgl/src/widgets/lv_img.c ****     a.y2 += obj->coords.y1;
 2990              		.loc 1 247 5 is_stmt 1 view .LVU1007
 247:lvgl/lvgl/src/widgets/lv_img.c ****     a.y2 += obj->coords.y1;
 2991              		.loc 1 247 10 is_stmt 0 view .LVU1008
 2992 00d6 BDF80C10 		ldrh	r1, [sp, #12]
 2993 00da 0A44     		add	r2, r2, r1
 2994 00dc ADF80C20 		strh	r2, [sp, #12]	@ movhi
 248:lvgl/lvgl/src/widgets/lv_img.c ****     lv_obj_invalidate_area(obj, &a);
 2995              		.loc 1 248 5 is_stmt 1 view .LVU1009
 248:lvgl/lvgl/src/widgets/lv_img.c ****     lv_obj_invalidate_area(obj, &a);
 2996              		.loc 1 248 10 is_stmt 0 view .LVU1010
 2997 00e0 BDF80E20 		ldrh	r2, [sp, #14]
 2998 00e4 1344     		add	r3, r3, r2
 2999 00e6 ADF80E30 		strh	r3, [sp, #14]	@ movhi
 249:lvgl/lvgl/src/widgets/lv_img.c **** }
 3000              		.loc 1 249 5 is_stmt 1 view .LVU1011
 3001 00ea 02A9     		add	r1, sp, #8
 3002 00ec 2046     		mov	r0, r4
 3003 00ee FFF7FEFF 		bl	lv_obj_invalidate_area
 3004              	.LVL270:
 3005              	.L111:
 250:lvgl/lvgl/src/widgets/lv_img.c **** 
 3006              		.loc 1 250 1 is_stmt 0 view .LVU1012
 3007 00f2 05B0     		add	sp, sp, #20
 3008              	.LCFI25:
 3009              		.cfi_def_cfa_offset 36
 3010              		@ sp needed
 3011 00f4 BDE8F08F 		pop	{r4, r5, r6, r7, r8, r9, r10, fp, pc}
 250:lvgl/lvgl/src/widgets/lv_img.c **** 
 3012              		.loc 1 250 1 view .LVU1013
 3013              		.cfi_endproc
 3014              	.LFE157:
 3016              		.section	.text.lv_img_set_zoom,"ax",%progbits
 3017              		.align	1
 3018              		.global	lv_img_set_zoom
 3019              		.syntax unified
 3020              		.thumb
 3021              		.thumb_func
 3022              		.fpu fpv4-sp-d16
 3024              	lv_img_set_zoom:
ARM GAS  C:\Users\gx\AppData\Local\Temp\ccAHLVXI.s 			page 92


 3025              	.LVL271:
 3026              	.LFB158:
 253:lvgl/lvgl/src/widgets/lv_img.c ****    lv_img_t * img = (lv_img_t *)obj;
 3027              		.loc 1 253 1 is_stmt 1 view -0
 3028              		.cfi_startproc
 3029              		@ args = 0, pretend = 0, frame = 8
 3030              		@ frame_needed = 0, uses_anonymous_args = 0
 254:lvgl/lvgl/src/widgets/lv_img.c ****     if(zoom == img->zoom) return;
 3031              		.loc 1 254 4 view .LVU1015
 255:lvgl/lvgl/src/widgets/lv_img.c **** 
 3032              		.loc 1 255 5 view .LVU1016
 255:lvgl/lvgl/src/widgets/lv_img.c **** 
 3033              		.loc 1 255 19 is_stmt 0 view .LVU1017
 3034 0000 C38E     		ldrh	r3, [r0, #54]
 255:lvgl/lvgl/src/widgets/lv_img.c **** 
 3035              		.loc 1 255 7 view .LVU1018
 3036 0002 8B42     		cmp	r3, r1
 3037 0004 00F08180 		beq	.L121
 253:lvgl/lvgl/src/widgets/lv_img.c ****    lv_img_t * img = (lv_img_t *)obj;
 3038              		.loc 1 253 1 view .LVU1019
 3039 0008 2DE9F047 		push	{r4, r5, r6, r7, r8, r9, r10, lr}
 3040              	.LCFI26:
 3041              		.cfi_def_cfa_offset 32
 3042              		.cfi_offset 4, -32
 3043              		.cfi_offset 5, -28
 3044              		.cfi_offset 6, -24
 3045              		.cfi_offset 7, -20
 3046              		.cfi_offset 8, -16
 3047              		.cfi_offset 9, -12
 3048              		.cfi_offset 10, -8
 3049              		.cfi_offset 14, -4
 3050 000c 84B0     		sub	sp, sp, #16
 3051              	.LCFI27:
 3052              		.cfi_def_cfa_offset 48
 3053 000e 0446     		mov	r4, r0
 3054 0010 0D46     		mov	r5, r1
 257:lvgl/lvgl/src/widgets/lv_img.c **** 
 3055              		.loc 1 257 5 is_stmt 1 view .LVU1020
 257:lvgl/lvgl/src/widgets/lv_img.c **** 
 3056              		.loc 1 257 7 is_stmt 0 view .LVU1021
 3057 0012 01B9     		cbnz	r1, .L118
 257:lvgl/lvgl/src/widgets/lv_img.c **** 
 3058              		.loc 1 257 24 view .LVU1022
 3059 0014 0125     		movs	r5, #1
 3060              	.L118:
 3061              	.LVL272:
 259:lvgl/lvgl/src/widgets/lv_img.c **** 
 3062              		.loc 1 259 5 is_stmt 1 view .LVU1023
 3063              	.LBB161:
 3064              	.LBI161:
  79:lvgl/lvgl/src/widgets/../core/lv_obj_style_gen.h **** {
 3065              		.loc 2 79 26 view .LVU1024
 3066              	.LBB162:
  81:lvgl/lvgl/src/widgets/../core/lv_obj_style_gen.h ****     return (lv_coord_t)v.num;
 3067              		.loc 2 81 5 view .LVU1025
  81:lvgl/lvgl/src/widgets/../core/lv_obj_style_gen.h ****     return (lv_coord_t)v.num;
 3068              		.loc 2 81 26 is_stmt 0 view .LVU1026
ARM GAS  C:\Users\gx\AppData\Local\Temp\ccAHLVXI.s 			page 93


 3069 0016 43F60E02 		movw	r2, #14350
 3070 001a 0021     		movs	r1, #0
 3071 001c 2046     		mov	r0, r4
 3072              	.LVL273:
  81:lvgl/lvgl/src/widgets/../core/lv_obj_style_gen.h ****     return (lv_coord_t)v.num;
 3073              		.loc 2 81 26 view .LVU1027
 3074 001e FFF7FEFF 		bl	lv_obj_get_style_prop
 3075              	.LVL274:
  82:lvgl/lvgl/src/widgets/../core/lv_obj_style_gen.h **** }
 3076              		.loc 2 82 5 is_stmt 1 view .LVU1028
  82:lvgl/lvgl/src/widgets/../core/lv_obj_style_gen.h **** }
 3077              		.loc 2 82 12 is_stmt 0 view .LVU1029
 3078 0022 0FFA80F9 		sxth	r9, r0
 3079              	.LVL275:
  82:lvgl/lvgl/src/widgets/../core/lv_obj_style_gen.h **** }
 3080              		.loc 2 82 12 view .LVU1030
 3081              	.LBE162:
 3082              	.LBE161:
 261:lvgl/lvgl/src/widgets/lv_img.c ****     transf_angle += img->angle;
 3083              		.loc 1 261 5 is_stmt 1 view .LVU1031
 3084              	.LBB163:
 3085              	.LBI163:
  85:lvgl/lvgl/src/widgets/../core/lv_obj_style_gen.h **** {
 3086              		.loc 2 85 26 view .LVU1032
 3087              	.LBB164:
  87:lvgl/lvgl/src/widgets/../core/lv_obj_style_gen.h ****     return (lv_coord_t)v.num;
 3088              		.loc 2 87 5 view .LVU1033
  87:lvgl/lvgl/src/widgets/../core/lv_obj_style_gen.h ****     return (lv_coord_t)v.num;
 3089              		.loc 2 87 26 is_stmt 0 view .LVU1034
 3090 0026 43F60F02 		movw	r2, #14351
 3091 002a 0021     		movs	r1, #0
 3092 002c 2046     		mov	r0, r4
 3093 002e FFF7FEFF 		bl	lv_obj_get_style_prop
 3094              	.LVL276:
  88:lvgl/lvgl/src/widgets/../core/lv_obj_style_gen.h **** }
 3095              		.loc 2 88 5 is_stmt 1 view .LVU1035
  88:lvgl/lvgl/src/widgets/../core/lv_obj_style_gen.h **** }
 3096              		.loc 2 88 5 is_stmt 0 view .LVU1036
 3097              	.LBE164:
 3098              	.LBE163:
 262:lvgl/lvgl/src/widgets/lv_img.c **** 
 3099              		.loc 1 262 5 is_stmt 1 view .LVU1037
 262:lvgl/lvgl/src/widgets/lv_img.c **** 
 3100              		.loc 1 262 24 is_stmt 0 view .LVU1038
 3101 0032 268E     		ldrh	r6, [r4, #48]
 262:lvgl/lvgl/src/widgets/lv_img.c **** 
 3102              		.loc 1 262 18 view .LVU1039
 3103 0034 0644     		add	r6, r6, r0
 3104 0036 36B2     		sxth	r6, r6
 3105              	.LVL277:
 264:lvgl/lvgl/src/widgets/lv_img.c ****     lv_coord_t h = lv_obj_get_height(obj);
 3106              		.loc 1 264 5 is_stmt 1 view .LVU1040
 264:lvgl/lvgl/src/widgets/lv_img.c ****     lv_coord_t h = lv_obj_get_height(obj);
 3107              		.loc 1 264 20 is_stmt 0 view .LVU1041
 3108 0038 2046     		mov	r0, r4
 3109 003a FFF7FEFF 		bl	lv_obj_get_width
 3110              	.LVL278:
ARM GAS  C:\Users\gx\AppData\Local\Temp\ccAHLVXI.s 			page 94


 3111 003e 0746     		mov	r7, r0
 3112              	.LVL279:
 265:lvgl/lvgl/src/widgets/lv_img.c ****     lv_area_t a;
 3113              		.loc 1 265 5 is_stmt 1 view .LVU1042
 265:lvgl/lvgl/src/widgets/lv_img.c ****     lv_area_t a;
 3114              		.loc 1 265 20 is_stmt 0 view .LVU1043
 3115 0040 2046     		mov	r0, r4
 3116 0042 FFF7FEFF 		bl	lv_obj_get_height
 3117              	.LVL280:
 3118 0046 8046     		mov	r8, r0
 3119              	.LVL281:
 266:lvgl/lvgl/src/widgets/lv_img.c ****     _lv_img_buf_get_transformed_area(&a, w, h, transf_angle, (transf_zoom * img->zoom) >> 8, &img->
 3120              		.loc 1 266 5 is_stmt 1 view .LVU1044
 267:lvgl/lvgl/src/widgets/lv_img.c ****     a.x1 += obj->coords.x1 - 1;
 3121              		.loc 1 267 5 view .LVU1045
 267:lvgl/lvgl/src/widgets/lv_img.c ****     a.x1 += obj->coords.x1 - 1;
 3122              		.loc 1 267 80 is_stmt 0 view .LVU1046
 3123 0048 E38E     		ldrh	r3, [r4, #54]
 267:lvgl/lvgl/src/widgets/lv_img.c ****     a.x1 += obj->coords.x1 - 1;
 3124              		.loc 1 267 75 view .LVU1047
 3125 004a 03FB09F3 		mul	r3, r3, r9
 267:lvgl/lvgl/src/widgets/lv_img.c ****     a.x1 += obj->coords.x1 - 1;
 3126              		.loc 1 267 94 view .LVU1048
 3127 004e 04F1320A 		add	r10, r4, #50
 267:lvgl/lvgl/src/widgets/lv_img.c ****     a.x1 += obj->coords.x1 - 1;
 3128              		.loc 1 267 5 view .LVU1049
 3129 0052 CDF804A0 		str	r10, [sp, #4]
 3130 0056 C3F30F23 		ubfx	r3, r3, #8, #16
 3131 005a 0093     		str	r3, [sp]
 3132 005c 3346     		mov	r3, r6
 3133 005e 0246     		mov	r2, r0
 3134 0060 3946     		mov	r1, r7
 3135 0062 02A8     		add	r0, sp, #8
 3136              	.LVL282:
 267:lvgl/lvgl/src/widgets/lv_img.c ****     a.x1 += obj->coords.x1 - 1;
 3137              		.loc 1 267 5 view .LVU1050
 3138 0064 FFF7FEFF 		bl	_lv_img_buf_get_transformed_area
 3139              	.LVL283:
 268:lvgl/lvgl/src/widgets/lv_img.c ****     a.y1 += obj->coords.y1 - 1;
 3140              		.loc 1 268 5 is_stmt 1 view .LVU1051
 268:lvgl/lvgl/src/widgets/lv_img.c ****     a.y1 += obj->coords.y1 - 1;
 3141              		.loc 1 268 24 is_stmt 0 view .LVU1052
 3142 0068 A28A     		ldrh	r2, [r4, #20]
 268:lvgl/lvgl/src/widgets/lv_img.c ****     a.y1 += obj->coords.y1 - 1;
 3143              		.loc 1 268 10 view .LVU1053
 3144 006a BDF80830 		ldrh	r3, [sp, #8]
 3145 006e 1344     		add	r3, r3, r2
 3146 0070 013B     		subs	r3, r3, #1
 3147 0072 ADF80830 		strh	r3, [sp, #8]	@ movhi
 269:lvgl/lvgl/src/widgets/lv_img.c ****     a.x2 += obj->coords.x1 + 1;
 3148              		.loc 1 269 5 is_stmt 1 view .LVU1054
 269:lvgl/lvgl/src/widgets/lv_img.c ****     a.x2 += obj->coords.x1 + 1;
 3149              		.loc 1 269 24 is_stmt 0 view .LVU1055
 3150 0076 E38A     		ldrh	r3, [r4, #22]
 269:lvgl/lvgl/src/widgets/lv_img.c ****     a.x2 += obj->coords.x1 + 1;
 3151              		.loc 1 269 10 view .LVU1056
 3152 0078 BDF80A10 		ldrh	r1, [sp, #10]
ARM GAS  C:\Users\gx\AppData\Local\Temp\ccAHLVXI.s 			page 95


 3153 007c 1944     		add	r1, r1, r3
 3154 007e 0139     		subs	r1, r1, #1
 3155 0080 ADF80A10 		strh	r1, [sp, #10]	@ movhi
 270:lvgl/lvgl/src/widgets/lv_img.c ****     a.y2 += obj->coords.y1 + 1;
 3156              		.loc 1 270 5 is_stmt 1 view .LVU1057
 270:lvgl/lvgl/src/widgets/lv_img.c ****     a.y2 += obj->coords.y1 + 1;
 3157              		.loc 1 270 10 is_stmt 0 view .LVU1058
 3158 0084 BDF80C10 		ldrh	r1, [sp, #12]
 3159 0088 0A44     		add	r2, r2, r1
 3160 008a 0132     		adds	r2, r2, #1
 3161 008c ADF80C20 		strh	r2, [sp, #12]	@ movhi
 271:lvgl/lvgl/src/widgets/lv_img.c ****     lv_obj_invalidate_area(obj, &a);
 3162              		.loc 1 271 5 is_stmt 1 view .LVU1059
 271:lvgl/lvgl/src/widgets/lv_img.c ****     lv_obj_invalidate_area(obj, &a);
 3163              		.loc 1 271 10 is_stmt 0 view .LVU1060
 3164 0090 BDF80E20 		ldrh	r2, [sp, #14]
 3165 0094 1344     		add	r3, r3, r2
 3166 0096 0133     		adds	r3, r3, #1
 3167 0098 ADF80E30 		strh	r3, [sp, #14]	@ movhi
 272:lvgl/lvgl/src/widgets/lv_img.c **** 
 3168              		.loc 1 272 5 is_stmt 1 view .LVU1061
 3169 009c 02A9     		add	r1, sp, #8
 3170 009e 2046     		mov	r0, r4
 3171 00a0 FFF7FEFF 		bl	lv_obj_invalidate_area
 3172              	.LVL284:
 274:lvgl/lvgl/src/widgets/lv_img.c ****     lv_obj_refresh_ext_draw_size(obj);
 3173              		.loc 1 274 5 view .LVU1062
 274:lvgl/lvgl/src/widgets/lv_img.c ****     lv_obj_refresh_ext_draw_size(obj);
 3174              		.loc 1 274 15 is_stmt 0 view .LVU1063
 3175 00a4 E586     		strh	r5, [r4, #54]	@ movhi
 275:lvgl/lvgl/src/widgets/lv_img.c **** 
 3176              		.loc 1 275 5 is_stmt 1 view .LVU1064
 3177 00a6 2046     		mov	r0, r4
 3178 00a8 FFF7FEFF 		bl	lv_obj_refresh_ext_draw_size
 3179              	.LVL285:
 277:lvgl/lvgl/src/widgets/lv_img.c ****     a.x1 += obj->coords.x1 - 1;
 3180              		.loc 1 277 5 view .LVU1065
 277:lvgl/lvgl/src/widgets/lv_img.c ****     a.x1 += obj->coords.x1 - 1;
 3181              		.loc 1 277 80 is_stmt 0 view .LVU1066
 3182 00ac E08E     		ldrh	r0, [r4, #54]
 277:lvgl/lvgl/src/widgets/lv_img.c ****     a.x1 += obj->coords.x1 - 1;
 3183              		.loc 1 277 75 view .LVU1067
 3184 00ae 00FB09F0 		mul	r0, r0, r9
 277:lvgl/lvgl/src/widgets/lv_img.c ****     a.x1 += obj->coords.x1 - 1;
 3185              		.loc 1 277 5 view .LVU1068
 3186 00b2 CDF804A0 		str	r10, [sp, #4]
 3187 00b6 C0F30F20 		ubfx	r0, r0, #8, #16
 3188 00ba 0090     		str	r0, [sp]
 3189 00bc 3346     		mov	r3, r6
 3190 00be 4246     		mov	r2, r8
 3191 00c0 3946     		mov	r1, r7
 3192 00c2 02A8     		add	r0, sp, #8
 3193 00c4 FFF7FEFF 		bl	_lv_img_buf_get_transformed_area
 3194              	.LVL286:
 278:lvgl/lvgl/src/widgets/lv_img.c ****     a.y1 += obj->coords.y1 - 1;
 3195              		.loc 1 278 5 is_stmt 1 view .LVU1069
 278:lvgl/lvgl/src/widgets/lv_img.c ****     a.y1 += obj->coords.y1 - 1;
ARM GAS  C:\Users\gx\AppData\Local\Temp\ccAHLVXI.s 			page 96


 3196              		.loc 1 278 24 is_stmt 0 view .LVU1070
 3197 00c8 A28A     		ldrh	r2, [r4, #20]
 278:lvgl/lvgl/src/widgets/lv_img.c ****     a.y1 += obj->coords.y1 - 1;
 3198              		.loc 1 278 10 view .LVU1071
 3199 00ca BDF80830 		ldrh	r3, [sp, #8]
 3200 00ce 1344     		add	r3, r3, r2
 3201 00d0 013B     		subs	r3, r3, #1
 3202 00d2 ADF80830 		strh	r3, [sp, #8]	@ movhi
 279:lvgl/lvgl/src/widgets/lv_img.c ****     a.x2 += obj->coords.x1 + 1;
 3203              		.loc 1 279 5 is_stmt 1 view .LVU1072
 279:lvgl/lvgl/src/widgets/lv_img.c ****     a.x2 += obj->coords.x1 + 1;
 3204              		.loc 1 279 24 is_stmt 0 view .LVU1073
 3205 00d6 E38A     		ldrh	r3, [r4, #22]
 279:lvgl/lvgl/src/widgets/lv_img.c ****     a.x2 += obj->coords.x1 + 1;
 3206              		.loc 1 279 10 view .LVU1074
 3207 00d8 BDF80A10 		ldrh	r1, [sp, #10]
 3208 00dc 1944     		add	r1, r1, r3
 3209 00de 0139     		subs	r1, r1, #1
 3210 00e0 ADF80A10 		strh	r1, [sp, #10]	@ movhi
 280:lvgl/lvgl/src/widgets/lv_img.c ****     a.y2 += obj->coords.y1 + 1;
 3211              		.loc 1 280 5 is_stmt 1 view .LVU1075
 280:lvgl/lvgl/src/widgets/lv_img.c ****     a.y2 += obj->coords.y1 + 1;
 3212              		.loc 1 280 10 is_stmt 0 view .LVU1076
 3213 00e4 BDF80C10 		ldrh	r1, [sp, #12]
 3214 00e8 0A44     		add	r2, r2, r1
 3215 00ea 0132     		adds	r2, r2, #1
 3216 00ec ADF80C20 		strh	r2, [sp, #12]	@ movhi
 281:lvgl/lvgl/src/widgets/lv_img.c ****     lv_obj_invalidate_area(obj, &a);
 3217              		.loc 1 281 5 is_stmt 1 view .LVU1077
 281:lvgl/lvgl/src/widgets/lv_img.c ****     lv_obj_invalidate_area(obj, &a);
 3218              		.loc 1 281 10 is_stmt 0 view .LVU1078
 3219 00f0 BDF80E20 		ldrh	r2, [sp, #14]
 3220 00f4 1344     		add	r3, r3, r2
 3221 00f6 0133     		adds	r3, r3, #1
 3222 00f8 ADF80E30 		strh	r3, [sp, #14]	@ movhi
 282:lvgl/lvgl/src/widgets/lv_img.c **** }
 3223              		.loc 1 282 5 is_stmt 1 view .LVU1079
 3224 00fc 02A9     		add	r1, sp, #8
 3225 00fe 2046     		mov	r0, r4
 3226 0100 FFF7FEFF 		bl	lv_obj_invalidate_area
 3227              	.LVL287:
 283:lvgl/lvgl/src/widgets/lv_img.c **** 
 3228              		.loc 1 283 1 is_stmt 0 view .LVU1080
 3229 0104 04B0     		add	sp, sp, #16
 3230              	.LCFI28:
 3231              		.cfi_def_cfa_offset 32
 3232              		@ sp needed
 3233 0106 BDE8F087 		pop	{r4, r5, r6, r7, r8, r9, r10, pc}
 3234              	.LVL288:
 3235              	.L121:
 3236              	.LCFI29:
 3237              		.cfi_def_cfa_offset 0
 3238              		.cfi_restore 4
 3239              		.cfi_restore 5
 3240              		.cfi_restore 6
 3241              		.cfi_restore 7
 3242              		.cfi_restore 8
ARM GAS  C:\Users\gx\AppData\Local\Temp\ccAHLVXI.s 			page 97


 3243              		.cfi_restore 9
 3244              		.cfi_restore 10
 3245              		.cfi_restore 14
 283:lvgl/lvgl/src/widgets/lv_img.c **** 
 3246              		.loc 1 283 1 view .LVU1081
 3247 010a 7047     		bx	lr
 3248              		.cfi_endproc
 3249              	.LFE158:
 3251              		.section	.text.lv_img_set_antialias,"ax",%progbits
 3252              		.align	1
 3253              		.global	lv_img_set_antialias
 3254              		.syntax unified
 3255              		.thumb
 3256              		.thumb_func
 3257              		.fpu fpv4-sp-d16
 3259              	lv_img_set_antialias:
 3260              	.LVL289:
 3261              	.LFB159:
 286:lvgl/lvgl/src/widgets/lv_img.c ****    lv_img_t * img = (lv_img_t *)obj;
 3262              		.loc 1 286 1 is_stmt 1 view -0
 3263              		.cfi_startproc
 3264              		@ args = 0, pretend = 0, frame = 0
 3265              		@ frame_needed = 0, uses_anonymous_args = 0
 286:lvgl/lvgl/src/widgets/lv_img.c ****    lv_img_t * img = (lv_img_t *)obj;
 3266              		.loc 1 286 1 is_stmt 0 view .LVU1083
 3267 0000 08B5     		push	{r3, lr}
 3268              	.LCFI30:
 3269              		.cfi_def_cfa_offset 8
 3270              		.cfi_offset 3, -8
 3271              		.cfi_offset 14, -4
 287:lvgl/lvgl/src/widgets/lv_img.c ****     if(antialias == img->antialias) return;
 3272              		.loc 1 287 4 is_stmt 1 view .LVU1084
 3273              	.LVL290:
 288:lvgl/lvgl/src/widgets/lv_img.c **** 
 3274              		.loc 1 288 5 view .LVU1085
 288:lvgl/lvgl/src/widgets/lv_img.c **** 
 3275              		.loc 1 288 24 is_stmt 0 view .LVU1086
 3276 0002 90F83830 		ldrb	r3, [r0, #56]	@ zero_extendqisi2
 288:lvgl/lvgl/src/widgets/lv_img.c **** 
 3277              		.loc 1 288 7 view .LVU1087
 3278 0006 B1EBD31F 		cmp	r1, r3, lsr #7
 3279 000a 07D0     		beq	.L124
 290:lvgl/lvgl/src/widgets/lv_img.c ****     lv_obj_invalidate(obj);
 3280              		.loc 1 290 5 is_stmt 1 view .LVU1088
 290:lvgl/lvgl/src/widgets/lv_img.c ****     lv_obj_invalidate(obj);
 3281              		.loc 1 290 20 is_stmt 0 view .LVU1089
 3282 000c 90F83830 		ldrb	r3, [r0, #56]	@ zero_extendqisi2
 3283 0010 61F3C713 		bfi	r3, r1, #7, #1
 3284 0014 80F83830 		strb	r3, [r0, #56]
 291:lvgl/lvgl/src/widgets/lv_img.c **** }
 3285              		.loc 1 291 5 is_stmt 1 view .LVU1090
 3286 0018 FFF7FEFF 		bl	lv_obj_invalidate
 3287              	.LVL291:
 3288              	.L124:
 292:lvgl/lvgl/src/widgets/lv_img.c **** 
 3289              		.loc 1 292 1 is_stmt 0 view .LVU1091
 3290 001c 08BD     		pop	{r3, pc}
ARM GAS  C:\Users\gx\AppData\Local\Temp\ccAHLVXI.s 			page 98


 3291              		.cfi_endproc
 3292              	.LFE159:
 3294              		.section	.text.lv_img_set_size_mode,"ax",%progbits
 3295              		.align	1
 3296              		.global	lv_img_set_size_mode
 3297              		.syntax unified
 3298              		.thumb
 3299              		.thumb_func
 3300              		.fpu fpv4-sp-d16
 3302              	lv_img_set_size_mode:
 3303              	.LVL292:
 3304              	.LFB160:
 295:lvgl/lvgl/src/widgets/lv_img.c ****     LV_ASSERT_OBJ(obj, MY_CLASS);
 3305              		.loc 1 295 1 is_stmt 1 view -0
 3306              		.cfi_startproc
 3307              		@ args = 0, pretend = 0, frame = 0
 3308              		@ frame_needed = 0, uses_anonymous_args = 0
 295:lvgl/lvgl/src/widgets/lv_img.c ****     LV_ASSERT_OBJ(obj, MY_CLASS);
 3309              		.loc 1 295 1 is_stmt 0 view .LVU1093
 3310 0000 08B5     		push	{r3, lr}
 3311              	.LCFI31:
 3312              		.cfi_def_cfa_offset 8
 3313              		.cfi_offset 3, -8
 3314              		.cfi_offset 14, -4
 296:lvgl/lvgl/src/widgets/lv_img.c ****     lv_img_t * img = (lv_img_t *)obj;
 3315              		.loc 1 296 5 is_stmt 1 view .LVU1094
 296:lvgl/lvgl/src/widgets/lv_img.c ****     lv_img_t * img = (lv_img_t *)obj;
 3316              		.loc 1 296 5 view .LVU1095
 296:lvgl/lvgl/src/widgets/lv_img.c ****     lv_img_t * img = (lv_img_t *)obj;
 3317              		.loc 1 296 5 view .LVU1096
 297:lvgl/lvgl/src/widgets/lv_img.c ****     if(mode == img->obj_size_mode) return;
 3318              		.loc 1 297 5 view .LVU1097
 3319              	.LVL293:
 298:lvgl/lvgl/src/widgets/lv_img.c **** 
 3320              		.loc 1 298 5 view .LVU1098
 298:lvgl/lvgl/src/widgets/lv_img.c **** 
 3321              		.loc 1 298 19 is_stmt 0 view .LVU1099
 3322 0002 90F83930 		ldrb	r3, [r0, #57]	@ zero_extendqisi2
 3323 0006 03F00303 		and	r3, r3, #3
 298:lvgl/lvgl/src/widgets/lv_img.c **** 
 3324              		.loc 1 298 7 view .LVU1100
 3325 000a 8B42     		cmp	r3, r1
 3326 000c 07D0     		beq	.L127
 300:lvgl/lvgl/src/widgets/lv_img.c ****     lv_obj_invalidate(obj);
 3327              		.loc 1 300 5 is_stmt 1 view .LVU1101
 300:lvgl/lvgl/src/widgets/lv_img.c ****     lv_obj_invalidate(obj);
 3328              		.loc 1 300 24 is_stmt 0 view .LVU1102
 3329 000e 90F83930 		ldrb	r3, [r0, #57]	@ zero_extendqisi2
 3330 0012 61F30103 		bfi	r3, r1, #0, #2
 3331              	.LVL294:
 300:lvgl/lvgl/src/widgets/lv_img.c ****     lv_obj_invalidate(obj);
 3332              		.loc 1 300 24 view .LVU1103
 3333 0016 80F83930 		strb	r3, [r0, #57]
 301:lvgl/lvgl/src/widgets/lv_img.c **** }
 3334              		.loc 1 301 5 is_stmt 1 view .LVU1104
 3335 001a FFF7FEFF 		bl	lv_obj_invalidate
 3336              	.LVL295:
ARM GAS  C:\Users\gx\AppData\Local\Temp\ccAHLVXI.s 			page 99


 3337              	.L127:
 302:lvgl/lvgl/src/widgets/lv_img.c **** 
 3338              		.loc 1 302 1 is_stmt 0 view .LVU1105
 3339 001e 08BD     		pop	{r3, pc}
 3340              		.cfi_endproc
 3341              	.LFE160:
 3343              		.section	.text.lv_img_get_src,"ax",%progbits
 3344              		.align	1
 3345              		.global	lv_img_get_src
 3346              		.syntax unified
 3347              		.thumb
 3348              		.thumb_func
 3349              		.fpu fpv4-sp-d16
 3351              	lv_img_get_src:
 3352              	.LVL296:
 3353              	.LFB161:
 309:lvgl/lvgl/src/widgets/lv_img.c ****     LV_ASSERT_OBJ(obj, MY_CLASS);
 3354              		.loc 1 309 1 is_stmt 1 view -0
 3355              		.cfi_startproc
 3356              		@ args = 0, pretend = 0, frame = 0
 3357              		@ frame_needed = 0, uses_anonymous_args = 0
 3358              		@ link register save eliminated.
 310:lvgl/lvgl/src/widgets/lv_img.c **** 
 3359              		.loc 1 310 5 view .LVU1107
 310:lvgl/lvgl/src/widgets/lv_img.c **** 
 3360              		.loc 1 310 5 view .LVU1108
 310:lvgl/lvgl/src/widgets/lv_img.c **** 
 3361              		.loc 1 310 5 view .LVU1109
 312:lvgl/lvgl/src/widgets/lv_img.c **** 
 3362              		.loc 1 312 4 view .LVU1110
 314:lvgl/lvgl/src/widgets/lv_img.c **** }
 3363              		.loc 1 314 5 view .LVU1111
 315:lvgl/lvgl/src/widgets/lv_img.c **** 
 3364              		.loc 1 315 1 is_stmt 0 view .LVU1112
 3365 0000 406A     		ldr	r0, [r0, #36]
 3366              	.LVL297:
 315:lvgl/lvgl/src/widgets/lv_img.c **** 
 3367              		.loc 1 315 1 view .LVU1113
 3368 0002 7047     		bx	lr
 3369              		.cfi_endproc
 3370              	.LFE161:
 3372              		.section	.text.lv_img_get_offset_x,"ax",%progbits
 3373              		.align	1
 3374              		.global	lv_img_get_offset_x
 3375              		.syntax unified
 3376              		.thumb
 3377              		.thumb_func
 3378              		.fpu fpv4-sp-d16
 3380              	lv_img_get_offset_x:
 3381              	.LVL298:
 3382              	.LFB162:
 318:lvgl/lvgl/src/widgets/lv_img.c ****     LV_ASSERT_OBJ(obj, MY_CLASS);
 3383              		.loc 1 318 1 is_stmt 1 view -0
 3384              		.cfi_startproc
 3385              		@ args = 0, pretend = 0, frame = 0
 3386              		@ frame_needed = 0, uses_anonymous_args = 0
 3387              		@ link register save eliminated.
ARM GAS  C:\Users\gx\AppData\Local\Temp\ccAHLVXI.s 			page 100


 319:lvgl/lvgl/src/widgets/lv_img.c **** 
 3388              		.loc 1 319 5 view .LVU1115
 319:lvgl/lvgl/src/widgets/lv_img.c **** 
 3389              		.loc 1 319 5 view .LVU1116
 319:lvgl/lvgl/src/widgets/lv_img.c **** 
 3390              		.loc 1 319 5 view .LVU1117
 321:lvgl/lvgl/src/widgets/lv_img.c **** 
 3391              		.loc 1 321 4 view .LVU1118
 323:lvgl/lvgl/src/widgets/lv_img.c **** }
 3392              		.loc 1 323 5 view .LVU1119
 324:lvgl/lvgl/src/widgets/lv_img.c **** 
 3393              		.loc 1 324 1 is_stmt 0 view .LVU1120
 3394 0000 B0F92800 		ldrsh	r0, [r0, #40]
 3395              	.LVL299:
 324:lvgl/lvgl/src/widgets/lv_img.c **** 
 3396              		.loc 1 324 1 view .LVU1121
 3397 0004 7047     		bx	lr
 3398              		.cfi_endproc
 3399              	.LFE162:
 3401              		.section	.text.lv_img_get_offset_y,"ax",%progbits
 3402              		.align	1
 3403              		.global	lv_img_get_offset_y
 3404              		.syntax unified
 3405              		.thumb
 3406              		.thumb_func
 3407              		.fpu fpv4-sp-d16
 3409              	lv_img_get_offset_y:
 3410              	.LVL300:
 3411              	.LFB163:
 327:lvgl/lvgl/src/widgets/lv_img.c ****     LV_ASSERT_OBJ(obj, MY_CLASS);
 3412              		.loc 1 327 1 is_stmt 1 view -0
 3413              		.cfi_startproc
 3414              		@ args = 0, pretend = 0, frame = 0
 3415              		@ frame_needed = 0, uses_anonymous_args = 0
 3416              		@ link register save eliminated.
 328:lvgl/lvgl/src/widgets/lv_img.c **** 
 3417              		.loc 1 328 5 view .LVU1123
 328:lvgl/lvgl/src/widgets/lv_img.c **** 
 3418              		.loc 1 328 5 view .LVU1124
 328:lvgl/lvgl/src/widgets/lv_img.c **** 
 3419              		.loc 1 328 5 view .LVU1125
 330:lvgl/lvgl/src/widgets/lv_img.c **** 
 3420              		.loc 1 330 4 view .LVU1126
 332:lvgl/lvgl/src/widgets/lv_img.c **** }
 3421              		.loc 1 332 5 view .LVU1127
 333:lvgl/lvgl/src/widgets/lv_img.c **** 
 3422              		.loc 1 333 1 is_stmt 0 view .LVU1128
 3423 0000 B0F92A00 		ldrsh	r0, [r0, #42]
 3424              	.LVL301:
 333:lvgl/lvgl/src/widgets/lv_img.c **** 
 3425              		.loc 1 333 1 view .LVU1129
 3426 0004 7047     		bx	lr
 3427              		.cfi_endproc
 3428              	.LFE163:
 3430              		.section	.text.lv_img_get_angle,"ax",%progbits
 3431              		.align	1
 3432              		.global	lv_img_get_angle
ARM GAS  C:\Users\gx\AppData\Local\Temp\ccAHLVXI.s 			page 101


 3433              		.syntax unified
 3434              		.thumb
 3435              		.thumb_func
 3436              		.fpu fpv4-sp-d16
 3438              	lv_img_get_angle:
 3439              	.LVL302:
 3440              	.LFB164:
 336:lvgl/lvgl/src/widgets/lv_img.c ****     LV_ASSERT_OBJ(obj, MY_CLASS);
 3441              		.loc 1 336 1 is_stmt 1 view -0
 3442              		.cfi_startproc
 3443              		@ args = 0, pretend = 0, frame = 0
 3444              		@ frame_needed = 0, uses_anonymous_args = 0
 3445              		@ link register save eliminated.
 337:lvgl/lvgl/src/widgets/lv_img.c **** 
 3446              		.loc 1 337 5 view .LVU1131
 337:lvgl/lvgl/src/widgets/lv_img.c **** 
 3447              		.loc 1 337 5 view .LVU1132
 337:lvgl/lvgl/src/widgets/lv_img.c **** 
 3448              		.loc 1 337 5 view .LVU1133
 339:lvgl/lvgl/src/widgets/lv_img.c **** 
 3449              		.loc 1 339 4 view .LVU1134
 341:lvgl/lvgl/src/widgets/lv_img.c **** }
 3450              		.loc 1 341 5 view .LVU1135
 342:lvgl/lvgl/src/widgets/lv_img.c **** 
 3451              		.loc 1 342 1 is_stmt 0 view .LVU1136
 3452 0000 008E     		ldrh	r0, [r0, #48]
 3453              	.LVL303:
 342:lvgl/lvgl/src/widgets/lv_img.c **** 
 3454              		.loc 1 342 1 view .LVU1137
 3455 0002 7047     		bx	lr
 3456              		.cfi_endproc
 3457              	.LFE164:
 3459              		.section	.text.lv_img_get_pivot,"ax",%progbits
 3460              		.align	1
 3461              		.global	lv_img_get_pivot
 3462              		.syntax unified
 3463              		.thumb
 3464              		.thumb_func
 3465              		.fpu fpv4-sp-d16
 3467              	lv_img_get_pivot:
 3468              	.LVL304:
 3469              	.LFB165:
 345:lvgl/lvgl/src/widgets/lv_img.c ****     LV_ASSERT_OBJ(obj, MY_CLASS);
 3470              		.loc 1 345 1 is_stmt 1 view -0
 3471              		.cfi_startproc
 3472              		@ args = 0, pretend = 0, frame = 0
 3473              		@ frame_needed = 0, uses_anonymous_args = 0
 3474              		@ link register save eliminated.
 346:lvgl/lvgl/src/widgets/lv_img.c **** 
 3475              		.loc 1 346 5 view .LVU1139
 346:lvgl/lvgl/src/widgets/lv_img.c **** 
 3476              		.loc 1 346 5 view .LVU1140
 346:lvgl/lvgl/src/widgets/lv_img.c **** 
 3477              		.loc 1 346 5 view .LVU1141
 348:lvgl/lvgl/src/widgets/lv_img.c **** 
 3478              		.loc 1 348 4 view .LVU1142
 350:lvgl/lvgl/src/widgets/lv_img.c **** }
ARM GAS  C:\Users\gx\AppData\Local\Temp\ccAHLVXI.s 			page 102


 3479              		.loc 1 350 5 view .LVU1143
 350:lvgl/lvgl/src/widgets/lv_img.c **** }
 3480              		.loc 1 350 12 is_stmt 0 view .LVU1144
 3481 0000 D0F83230 		ldr	r3, [r0, #50]	@ unaligned
 3482 0004 0B60     		str	r3, [r1]	@ unaligned
 351:lvgl/lvgl/src/widgets/lv_img.c **** 
 3483              		.loc 1 351 1 view .LVU1145
 3484 0006 7047     		bx	lr
 3485              		.cfi_endproc
 3486              	.LFE165:
 3488              		.section	.text.lv_img_get_zoom,"ax",%progbits
 3489              		.align	1
 3490              		.global	lv_img_get_zoom
 3491              		.syntax unified
 3492              		.thumb
 3493              		.thumb_func
 3494              		.fpu fpv4-sp-d16
 3496              	lv_img_get_zoom:
 3497              	.LVL305:
 3498              	.LFB166:
 354:lvgl/lvgl/src/widgets/lv_img.c ****     LV_ASSERT_OBJ(obj, MY_CLASS);
 3499              		.loc 1 354 1 is_stmt 1 view -0
 3500              		.cfi_startproc
 3501              		@ args = 0, pretend = 0, frame = 0
 3502              		@ frame_needed = 0, uses_anonymous_args = 0
 3503              		@ link register save eliminated.
 355:lvgl/lvgl/src/widgets/lv_img.c **** 
 3504              		.loc 1 355 5 view .LVU1147
 355:lvgl/lvgl/src/widgets/lv_img.c **** 
 3505              		.loc 1 355 5 view .LVU1148
 355:lvgl/lvgl/src/widgets/lv_img.c **** 
 3506              		.loc 1 355 5 view .LVU1149
 357:lvgl/lvgl/src/widgets/lv_img.c **** 
 3507              		.loc 1 357 4 view .LVU1150
 359:lvgl/lvgl/src/widgets/lv_img.c **** }
 3508              		.loc 1 359 5 view .LVU1151
 360:lvgl/lvgl/src/widgets/lv_img.c **** 
 3509              		.loc 1 360 1 is_stmt 0 view .LVU1152
 3510 0000 C08E     		ldrh	r0, [r0, #54]
 3511              	.LVL306:
 360:lvgl/lvgl/src/widgets/lv_img.c **** 
 3512              		.loc 1 360 1 view .LVU1153
 3513 0002 7047     		bx	lr
 3514              		.cfi_endproc
 3515              	.LFE166:
 3517              		.section	.text.lv_img_get_antialias,"ax",%progbits
 3518              		.align	1
 3519              		.global	lv_img_get_antialias
 3520              		.syntax unified
 3521              		.thumb
 3522              		.thumb_func
 3523              		.fpu fpv4-sp-d16
 3525              	lv_img_get_antialias:
 3526              	.LVL307:
 3527              	.LFB167:
 363:lvgl/lvgl/src/widgets/lv_img.c ****     LV_ASSERT_OBJ(obj, MY_CLASS);
 3528              		.loc 1 363 1 is_stmt 1 view -0
ARM GAS  C:\Users\gx\AppData\Local\Temp\ccAHLVXI.s 			page 103


 3529              		.cfi_startproc
 3530              		@ args = 0, pretend = 0, frame = 0
 3531              		@ frame_needed = 0, uses_anonymous_args = 0
 3532              		@ link register save eliminated.
 364:lvgl/lvgl/src/widgets/lv_img.c **** 
 3533              		.loc 1 364 5 view .LVU1155
 364:lvgl/lvgl/src/widgets/lv_img.c **** 
 3534              		.loc 1 364 5 view .LVU1156
 364:lvgl/lvgl/src/widgets/lv_img.c **** 
 3535              		.loc 1 364 5 view .LVU1157
 366:lvgl/lvgl/src/widgets/lv_img.c **** 
 3536              		.loc 1 366 4 view .LVU1158
 368:lvgl/lvgl/src/widgets/lv_img.c **** }
 3537              		.loc 1 368 5 view .LVU1159
 368:lvgl/lvgl/src/widgets/lv_img.c **** }
 3538              		.loc 1 368 27 is_stmt 0 view .LVU1160
 3539 0000 90F83800 		ldrb	r0, [r0, #56]	@ zero_extendqisi2
 3540              	.LVL308:
 369:lvgl/lvgl/src/widgets/lv_img.c **** 
 3541              		.loc 1 369 1 view .LVU1161
 3542 0004 C009     		lsrs	r0, r0, #7
 3543 0006 7047     		bx	lr
 3544              		.cfi_endproc
 3545              	.LFE167:
 3547              		.section	.text.lv_img_get_size_mode,"ax",%progbits
 3548              		.align	1
 3549              		.global	lv_img_get_size_mode
 3550              		.syntax unified
 3551              		.thumb
 3552              		.thumb_func
 3553              		.fpu fpv4-sp-d16
 3555              	lv_img_get_size_mode:
 3556              	.LVL309:
 3557              	.LFB168:
 372:lvgl/lvgl/src/widgets/lv_img.c ****     LV_ASSERT_OBJ(obj, MY_CLASS);
 3558              		.loc 1 372 1 is_stmt 1 view -0
 3559              		.cfi_startproc
 3560              		@ args = 0, pretend = 0, frame = 0
 3561              		@ frame_needed = 0, uses_anonymous_args = 0
 3562              		@ link register save eliminated.
 373:lvgl/lvgl/src/widgets/lv_img.c ****     lv_img_t * img = (lv_img_t *)obj;
 3563              		.loc 1 373 5 view .LVU1163
 373:lvgl/lvgl/src/widgets/lv_img.c ****     lv_img_t * img = (lv_img_t *)obj;
 3564              		.loc 1 373 5 view .LVU1164
 373:lvgl/lvgl/src/widgets/lv_img.c ****     lv_img_t * img = (lv_img_t *)obj;
 3565              		.loc 1 373 5 view .LVU1165
 374:lvgl/lvgl/src/widgets/lv_img.c ****     return img->obj_size_mode;
 3566              		.loc 1 374 5 view .LVU1166
 375:lvgl/lvgl/src/widgets/lv_img.c **** }
 3567              		.loc 1 375 5 view .LVU1167
 375:lvgl/lvgl/src/widgets/lv_img.c **** }
 3568              		.loc 1 375 15 is_stmt 0 view .LVU1168
 3569 0000 90F83900 		ldrb	r0, [r0, #57]	@ zero_extendqisi2
 3570              	.LVL310:
 376:lvgl/lvgl/src/widgets/lv_img.c **** 
 3571              		.loc 1 376 1 view .LVU1169
 3572 0004 00F00300 		and	r0, r0, #3
ARM GAS  C:\Users\gx\AppData\Local\Temp\ccAHLVXI.s 			page 104


 3573 0008 7047     		bx	lr
 3574              		.cfi_endproc
 3575              	.LFE168:
 3577              		.global	lv_img_class
 3578              		.section	.rodata.__func__.10144,"a"
 3579              		.align	2
 3580              		.set	.LANCHOR1,. + 0
 3583              	__func__.10144:
 3584 0000 64726177 		.ascii	"draw_img\000"
 3584      5F696D67 
 3584      00
 3585              		.section	.rodata.__func__.9973,"a"
 3586              		.align	2
 3587              		.set	.LANCHOR2,. + 0
 3590              	__func__.9973:
 3591 0000 6C765F69 		.ascii	"lv_img_set_src\000"
 3591      6D675F73 
 3591      65745F73 
 3591      726300
 3592              		.section	.rodata.lv_img_class,"a"
 3593              		.align	2
 3594              		.set	.LANCHOR0,. + 0
 3597              	lv_img_class:
 3598 0000 00000000 		.word	lv_obj_class
 3599 0004 00000000 		.word	lv_img_constructor
 3600 0008 00000000 		.word	lv_img_destructor
 3601 000c 00000000 		.space	4
 3602 0010 00000000 		.word	lv_img_event
 3603 0014 D127     		.short	10193
 3604 0016 D127     		.short	10193
 3605 0018 C0       		.byte	192
 3606 0019 03       		.byte	3
 3607 001a 00       		.byte	0
 3608 001b 00       		.space	1
 3609              		.text
 3610              	.Letext0:
 3611              		.file 4 "c:\\program files (x86)\\gnu arm embedded toolchain\\9 2020-q2-update\\arm-none-eabi\\inc
 3612              		.file 5 "c:\\program files (x86)\\gnu arm embedded toolchain\\9 2020-q2-update\\arm-none-eabi\\inc
 3613              		.file 6 "c:\\program files (x86)\\gnu arm embedded toolchain\\9 2020-q2-update\\lib\\gcc\\arm-none
 3614              		.file 7 "c:\\program files (x86)\\gnu arm embedded toolchain\\9 2020-q2-update\\arm-none-eabi\\inc
 3615              		.file 8 "c:\\program files (x86)\\gnu arm embedded toolchain\\9 2020-q2-update\\arm-none-eabi\\inc
 3616              		.file 9 "c:\\program files (x86)\\gnu arm embedded toolchain\\9 2020-q2-update\\arm-none-eabi\\inc
 3617              		.file 10 "d:\\practise\\f407_disc\\lvgl\\lvgl\\src\\font\\lv_font.h"
 3618              		.file 11 "lvgl/lvgl/src/widgets/../core/../misc/lv_types.h"
 3619              		.file 12 "lvgl/lvgl/src/widgets/../core/../misc/lv_color.h"
 3620              		.file 13 "lvgl/lvgl/src/widgets/../core/../misc/lv_txt.h"
 3621              		.file 14 "lvgl/lvgl/src/widgets/../core/../misc/lv_bidi.h"
 3622              		.file 15 "lvgl/lvgl/src/widgets/../core/../misc/lv_style.h"
 3623              		.file 16 "d:\\practise\\f407_disc\\lvgl\\lvgl\\src\\draw\\lv_img_buf.h"
 3624              		.file 17 "d:\\practise\\f407_disc\\lvgl\\lvgl\\src\\misc\\lv_ll.h"
 3625              		.file 18 "lvgl/lvgl/src/widgets/../core/lv_obj.h"
 3626              		.file 19 "lvgl/lvgl/src/widgets/../core/lv_group.h"
 3627              		.file 20 "lvgl/lvgl/src/widgets/../core/lv_obj_scroll.h"
 3628              		.file 21 "lvgl/lvgl/src/widgets/../core/lv_obj_style.h"
 3629              		.file 22 "lvgl/lvgl/src/widgets/../core/../draw/lv_img_decoder.h"
 3630              		.file 23 "lvgl/lvgl/src/widgets/../core/../draw/lv_draw_label.h"
 3631              		.file 24 "lvgl/lvgl/src/widgets/../core/../draw/lv_draw_img.h"
ARM GAS  C:\Users\gx\AppData\Local\Temp\ccAHLVXI.s 			page 105


 3632              		.file 25 "lvgl/lvgl/src/widgets/../core/lv_obj_draw.h"
 3633              		.file 26 "lvgl/lvgl/src/widgets/../core/lv_obj_class.h"
 3634              		.file 27 "lvgl/lvgl/src/widgets/../core/lv_event.h"
 3635              		.file 28 "lvgl/lvgl/src/widgets/lv_img.h"
 3636              		.file 29 "lvgl/lvgl/src/widgets/../core/lv_obj_pos.h"
 3637              		.file 30 "d:\\practise\\f407_disc\\lvgl\\lvgl\\src\\misc\\lv_log.h"
 3638              		.file 31 "d:\\practise\\f407_disc\\lvgl\\lvgl\\src\\misc\\lv_mem.h"
 3639              		.file 32 "c:\\program files (x86)\\gnu arm embedded toolchain\\9 2020-q2-update\\arm-none-eabi\\in
ARM GAS  C:\Users\gx\AppData\Local\Temp\ccAHLVXI.s 			page 106


DEFINED SYMBOLS
                            *ABS*:00000000 lv_img.c
C:\Users\gx\AppData\Local\Temp\ccAHLVXI.s:18     .text.lv_img_get_tranformed_size:00000000 $t
C:\Users\gx\AppData\Local\Temp\ccAHLVXI.s:25     .text.lv_img_get_tranformed_size:00000000 lv_img_get_tranformed_size
C:\Users\gx\AppData\Local\Temp\ccAHLVXI.s:168    .rodata.draw_img.str1.4:00000000 $d
C:\Users\gx\AppData\Local\Temp\ccAHLVXI.s:175    .text.draw_img:00000000 $t
C:\Users\gx\AppData\Local\Temp\ccAHLVXI.s:181    .text.draw_img:00000000 draw_img
C:\Users\gx\AppData\Local\Temp\ccAHLVXI.s:1273   .text.draw_img:000004f4 $d
C:\Users\gx\AppData\Local\Temp\ccAHLVXI.s:1283   .text.lv_img_destructor:00000000 $t
C:\Users\gx\AppData\Local\Temp\ccAHLVXI.s:1289   .text.lv_img_destructor:00000000 lv_img_destructor
C:\Users\gx\AppData\Local\Temp\ccAHLVXI.s:1339   .text.lv_img_constructor:00000000 $t
C:\Users\gx\AppData\Local\Temp\ccAHLVXI.s:1345   .text.lv_img_constructor:00000000 lv_img_constructor
C:\Users\gx\AppData\Local\Temp\ccAHLVXI.s:1446   .text.lv_img_create:00000000 $t
C:\Users\gx\AppData\Local\Temp\ccAHLVXI.s:1453   .text.lv_img_create:00000000 lv_img_create
C:\Users\gx\AppData\Local\Temp\ccAHLVXI.s:1492   .text.lv_img_create:00000014 $d
C:\Users\gx\AppData\Local\Temp\ccAHLVXI.s:1497   .rodata.lv_img_set_src.str1.4:00000000 $d
C:\Users\gx\AppData\Local\Temp\ccAHLVXI.s:1513   .text.lv_img_set_src:00000000 $t
C:\Users\gx\AppData\Local\Temp\ccAHLVXI.s:1520   .text.lv_img_set_src:00000000 lv_img_set_src
C:\Users\gx\AppData\Local\Temp\ccAHLVXI.s:1904   .text.lv_img_set_src:000001b0 $d
C:\Users\gx\AppData\Local\Temp\ccAHLVXI.s:1916   .text.lv_img_event:00000000 $t
C:\Users\gx\AppData\Local\Temp\ccAHLVXI.s:1922   .text.lv_img_event:00000000 lv_img_event
C:\Users\gx\AppData\Local\Temp\ccAHLVXI.s:2459   .text.lv_img_event:00000250 $d
C:\Users\gx\AppData\Local\Temp\ccAHLVXI.s:2465   .text.lv_img_set_offset_x:00000000 $t
C:\Users\gx\AppData\Local\Temp\ccAHLVXI.s:2472   .text.lv_img_set_offset_x:00000000 lv_img_set_offset_x
C:\Users\gx\AppData\Local\Temp\ccAHLVXI.s:2509   .text.lv_img_set_offset_y:00000000 $t
C:\Users\gx\AppData\Local\Temp\ccAHLVXI.s:2516   .text.lv_img_set_offset_y:00000000 lv_img_set_offset_y
C:\Users\gx\AppData\Local\Temp\ccAHLVXI.s:2553   .text.lv_img_set_angle:00000000 $t
C:\Users\gx\AppData\Local\Temp\ccAHLVXI.s:2560   .text.lv_img_set_angle:00000000 lv_img_set_angle
C:\Users\gx\AppData\Local\Temp\ccAHLVXI.s:2789   .text.lv_img_set_angle:00000110 $d
C:\Users\gx\AppData\Local\Temp\ccAHLVXI.s:2794   .text.lv_img_set_pivot:00000000 $t
C:\Users\gx\AppData\Local\Temp\ccAHLVXI.s:2801   .text.lv_img_set_pivot:00000000 lv_img_set_pivot
C:\Users\gx\AppData\Local\Temp\ccAHLVXI.s:3017   .text.lv_img_set_zoom:00000000 $t
C:\Users\gx\AppData\Local\Temp\ccAHLVXI.s:3024   .text.lv_img_set_zoom:00000000 lv_img_set_zoom
C:\Users\gx\AppData\Local\Temp\ccAHLVXI.s:3252   .text.lv_img_set_antialias:00000000 $t
C:\Users\gx\AppData\Local\Temp\ccAHLVXI.s:3259   .text.lv_img_set_antialias:00000000 lv_img_set_antialias
C:\Users\gx\AppData\Local\Temp\ccAHLVXI.s:3295   .text.lv_img_set_size_mode:00000000 $t
C:\Users\gx\AppData\Local\Temp\ccAHLVXI.s:3302   .text.lv_img_set_size_mode:00000000 lv_img_set_size_mode
C:\Users\gx\AppData\Local\Temp\ccAHLVXI.s:3344   .text.lv_img_get_src:00000000 $t
C:\Users\gx\AppData\Local\Temp\ccAHLVXI.s:3351   .text.lv_img_get_src:00000000 lv_img_get_src
C:\Users\gx\AppData\Local\Temp\ccAHLVXI.s:3373   .text.lv_img_get_offset_x:00000000 $t
C:\Users\gx\AppData\Local\Temp\ccAHLVXI.s:3380   .text.lv_img_get_offset_x:00000000 lv_img_get_offset_x
C:\Users\gx\AppData\Local\Temp\ccAHLVXI.s:3402   .text.lv_img_get_offset_y:00000000 $t
C:\Users\gx\AppData\Local\Temp\ccAHLVXI.s:3409   .text.lv_img_get_offset_y:00000000 lv_img_get_offset_y
C:\Users\gx\AppData\Local\Temp\ccAHLVXI.s:3431   .text.lv_img_get_angle:00000000 $t
C:\Users\gx\AppData\Local\Temp\ccAHLVXI.s:3438   .text.lv_img_get_angle:00000000 lv_img_get_angle
C:\Users\gx\AppData\Local\Temp\ccAHLVXI.s:3460   .text.lv_img_get_pivot:00000000 $t
C:\Users\gx\AppData\Local\Temp\ccAHLVXI.s:3467   .text.lv_img_get_pivot:00000000 lv_img_get_pivot
C:\Users\gx\AppData\Local\Temp\ccAHLVXI.s:3489   .text.lv_img_get_zoom:00000000 $t
C:\Users\gx\AppData\Local\Temp\ccAHLVXI.s:3496   .text.lv_img_get_zoom:00000000 lv_img_get_zoom
C:\Users\gx\AppData\Local\Temp\ccAHLVXI.s:3518   .text.lv_img_get_antialias:00000000 $t
C:\Users\gx\AppData\Local\Temp\ccAHLVXI.s:3525   .text.lv_img_get_antialias:00000000 lv_img_get_antialias
C:\Users\gx\AppData\Local\Temp\ccAHLVXI.s:3548   .text.lv_img_get_size_mode:00000000 $t
C:\Users\gx\AppData\Local\Temp\ccAHLVXI.s:3555   .text.lv_img_get_size_mode:00000000 lv_img_get_size_mode
C:\Users\gx\AppData\Local\Temp\ccAHLVXI.s:3597   .rodata.lv_img_class:00000000 lv_img_class
C:\Users\gx\AppData\Local\Temp\ccAHLVXI.s:3579   .rodata.__func__.10144:00000000 $d
C:\Users\gx\AppData\Local\Temp\ccAHLVXI.s:3583   .rodata.__func__.10144:00000000 __func__.10144
C:\Users\gx\AppData\Local\Temp\ccAHLVXI.s:3586   .rodata.__func__.9973:00000000 $d
ARM GAS  C:\Users\gx\AppData\Local\Temp\ccAHLVXI.s 			page 107


C:\Users\gx\AppData\Local\Temp\ccAHLVXI.s:3590   .rodata.__func__.9973:00000000 __func__.9973
C:\Users\gx\AppData\Local\Temp\ccAHLVXI.s:3593   .rodata.lv_img_class:00000000 $d

UNDEFINED SYMBOLS
lv_obj_get_style_prop
_lv_img_buf_get_transformed_area
lv_event_get_code
lv_event_get_target
lv_event_get_param
lv_obj_get_width
lv_obj_get_height
_lv_area_is_in
lv_obj_event_base
_lv_log_add
lv_draw_img
lv_obj_get_coords
lv_draw_img_dsc_init
lv_obj_init_draw_img_dsc
_lv_area_intersect
lv_draw_label_dsc_init
lv_obj_init_draw_label_dsc
lv_draw_label
lv_mem_free
lv_obj_clear_flag
lv_obj_add_flag
lv_obj_class_create_obj
lv_obj_class_init_obj
lv_obj_invalidate
lv_img_src_get_type
lv_img_decoder_get_info
lv_obj_refresh_self_size
lv_obj_refresh_ext_draw_size
strlen
lv_mem_alloc
strcpy
lv_txt_get_size
lv_obj_get_click_area
_lv_area_is_point_on
lv_obj_invalidate_area
lv_obj_class
