ARM GAS  C:\Users\gx\AppData\Local\Temp\ccFshBXa.s 			page 1


   1              		.cpu cortex-m4
   2              		.eabi_attribute 27, 1
   3              		.eabi_attribute 28, 1
   4              		.eabi_attribute 20, 1
   5              		.eabi_attribute 21, 1
   6              		.eabi_attribute 23, 3
   7              		.eabi_attribute 24, 1
   8              		.eabi_attribute 25, 1
   9              		.eabi_attribute 26, 1
  10              		.eabi_attribute 30, 1
  11              		.eabi_attribute 34, 1
  12              		.eabi_attribute 18, 4
  13              		.file	"lv_log.c"
  14              		.text
  15              	.Ltext0:
  16              		.cfi_sections	.debug_frame
  17              		.section	.text.lv_log_register_print_cb,"ax",%progbits
  18              		.align	1
  19              		.global	lv_log_register_print_cb
  20              		.arch armv7e-m
  21              		.syntax unified
  22              		.thumb
  23              		.thumb_func
  24              		.fpu fpv4-sp-d16
  26              	lv_log_register_print_cb:
  27              	.LVL0:
  28              	.LFB3:
  29              		.file 1 "lvgl/lvgl/src/misc/lv_log.c"
   1:lvgl/lvgl/src/misc/lv_log.c **** /**
   2:lvgl/lvgl/src/misc/lv_log.c ****  * @file lv_log.c
   3:lvgl/lvgl/src/misc/lv_log.c ****  *
   4:lvgl/lvgl/src/misc/lv_log.c ****  */
   5:lvgl/lvgl/src/misc/lv_log.c **** 
   6:lvgl/lvgl/src/misc/lv_log.c **** /*********************
   7:lvgl/lvgl/src/misc/lv_log.c ****  *      INCLUDES
   8:lvgl/lvgl/src/misc/lv_log.c ****  *********************/
   9:lvgl/lvgl/src/misc/lv_log.c **** #include "lv_log.h"
  10:lvgl/lvgl/src/misc/lv_log.c **** #if LV_USE_LOG
  11:lvgl/lvgl/src/misc/lv_log.c **** 
  12:lvgl/lvgl/src/misc/lv_log.c **** #include <stdarg.h>
  13:lvgl/lvgl/src/misc/lv_log.c **** #include <string.h>
  14:lvgl/lvgl/src/misc/lv_log.c **** #include "lv_printf.h"
  15:lvgl/lvgl/src/misc/lv_log.c **** #include "../hal/lv_hal_tick.h"
  16:lvgl/lvgl/src/misc/lv_log.c **** 
  17:lvgl/lvgl/src/misc/lv_log.c **** #if LV_LOG_PRINTF
  18:lvgl/lvgl/src/misc/lv_log.c ****     #include <stdio.h>
  19:lvgl/lvgl/src/misc/lv_log.c **** #endif
  20:lvgl/lvgl/src/misc/lv_log.c **** 
  21:lvgl/lvgl/src/misc/lv_log.c **** /*********************
  22:lvgl/lvgl/src/misc/lv_log.c ****  *      DEFINES
  23:lvgl/lvgl/src/misc/lv_log.c ****  *********************/
  24:lvgl/lvgl/src/misc/lv_log.c **** 
  25:lvgl/lvgl/src/misc/lv_log.c **** /**********************
  26:lvgl/lvgl/src/misc/lv_log.c ****  *      TYPEDEFS
  27:lvgl/lvgl/src/misc/lv_log.c ****  **********************/
  28:lvgl/lvgl/src/misc/lv_log.c **** 
  29:lvgl/lvgl/src/misc/lv_log.c **** /**********************
ARM GAS  C:\Users\gx\AppData\Local\Temp\ccFshBXa.s 			page 2


  30:lvgl/lvgl/src/misc/lv_log.c ****  *  STATIC PROTOTYPES
  31:lvgl/lvgl/src/misc/lv_log.c ****  **********************/
  32:lvgl/lvgl/src/misc/lv_log.c **** 
  33:lvgl/lvgl/src/misc/lv_log.c **** /**********************
  34:lvgl/lvgl/src/misc/lv_log.c ****  *  STATIC VARIABLES
  35:lvgl/lvgl/src/misc/lv_log.c ****  **********************/
  36:lvgl/lvgl/src/misc/lv_log.c **** static lv_log_print_g_cb_t custom_print_cb;
  37:lvgl/lvgl/src/misc/lv_log.c **** 
  38:lvgl/lvgl/src/misc/lv_log.c **** /**********************
  39:lvgl/lvgl/src/misc/lv_log.c ****  *      MACROS
  40:lvgl/lvgl/src/misc/lv_log.c ****  **********************/
  41:lvgl/lvgl/src/misc/lv_log.c **** 
  42:lvgl/lvgl/src/misc/lv_log.c **** /**********************
  43:lvgl/lvgl/src/misc/lv_log.c ****  *   GLOBAL FUNCTIONS
  44:lvgl/lvgl/src/misc/lv_log.c ****  **********************/
  45:lvgl/lvgl/src/misc/lv_log.c **** 
  46:lvgl/lvgl/src/misc/lv_log.c **** /**
  47:lvgl/lvgl/src/misc/lv_log.c ****  * Register custom print/write function to call when a log is added.
  48:lvgl/lvgl/src/misc/lv_log.c ****  * It can format its "File path", "Line number" and "Description" as required
  49:lvgl/lvgl/src/misc/lv_log.c ****  * and send the formatted log message to a console or serial port.
  50:lvgl/lvgl/src/misc/lv_log.c ****  * @param print_cb a function pointer to print a log
  51:lvgl/lvgl/src/misc/lv_log.c ****  */
  52:lvgl/lvgl/src/misc/lv_log.c **** void lv_log_register_print_cb(lv_log_print_g_cb_t print_cb)
  53:lvgl/lvgl/src/misc/lv_log.c **** {
  30              		.loc 1 53 1 view -0
  31              		.cfi_startproc
  32              		@ args = 0, pretend = 0, frame = 0
  33              		@ frame_needed = 0, uses_anonymous_args = 0
  34              		@ link register save eliminated.
  54:lvgl/lvgl/src/misc/lv_log.c ****     custom_print_cb = print_cb;
  35              		.loc 1 54 5 view .LVU1
  36              		.loc 1 54 21 is_stmt 0 view .LVU2
  37 0000 014B     		ldr	r3, .L2
  38 0002 1860     		str	r0, [r3]
  55:lvgl/lvgl/src/misc/lv_log.c **** }
  39              		.loc 1 55 1 view .LVU3
  40 0004 7047     		bx	lr
  41              	.L3:
  42 0006 00BF     		.align	2
  43              	.L2:
  44 0008 00000000 		.word	.LANCHOR0
  45              		.cfi_endproc
  46              	.LFE3:
  48              		.section	.rodata.lv_log.str1.4,"aMS",%progbits,1
  49              		.align	2
  50              	.LC0:
  51 0000 257300   		.ascii	"%s\000"
  52              		.section	.text.lv_log,"ax",%progbits
  53              		.align	1
  54              		.global	lv_log
  55              		.syntax unified
  56              		.thumb
  57              		.thumb_func
  58              		.fpu fpv4-sp-d16
  60              	lv_log:
  61              	.LVL1:
  62              	.LFB5:
ARM GAS  C:\Users\gx\AppData\Local\Temp\ccFshBXa.s 			page 3


  56:lvgl/lvgl/src/misc/lv_log.c **** 
  57:lvgl/lvgl/src/misc/lv_log.c **** /**
  58:lvgl/lvgl/src/misc/lv_log.c ****  * Add a log
  59:lvgl/lvgl/src/misc/lv_log.c ****  * @param level the level of log. (From `lv_log_level_t` enum)
  60:lvgl/lvgl/src/misc/lv_log.c ****  * @param file name of the file when the log added
  61:lvgl/lvgl/src/misc/lv_log.c ****  * @param line line number in the source code where the log added
  62:lvgl/lvgl/src/misc/lv_log.c ****  * @param func name of the function when the log added
  63:lvgl/lvgl/src/misc/lv_log.c ****  * @param format printf-like format string
  64:lvgl/lvgl/src/misc/lv_log.c ****  * @param ... parameters for `format`
  65:lvgl/lvgl/src/misc/lv_log.c ****  */
  66:lvgl/lvgl/src/misc/lv_log.c **** void _lv_log_add(lv_log_level_t level, const char * file, int line, const char * func, const char *
  67:lvgl/lvgl/src/misc/lv_log.c **** {
  68:lvgl/lvgl/src/misc/lv_log.c ****     if(level >= _LV_LOG_LEVEL_NUM) return; /*Invalid level*/
  69:lvgl/lvgl/src/misc/lv_log.c **** 
  70:lvgl/lvgl/src/misc/lv_log.c ****     static uint32_t last_log_time = 0;
  71:lvgl/lvgl/src/misc/lv_log.c **** 
  72:lvgl/lvgl/src/misc/lv_log.c ****     if(level >= LV_LOG_LEVEL) {
  73:lvgl/lvgl/src/misc/lv_log.c ****         va_list args;
  74:lvgl/lvgl/src/misc/lv_log.c ****         va_start(args, format);
  75:lvgl/lvgl/src/misc/lv_log.c ****         char msg[256];
  76:lvgl/lvgl/src/misc/lv_log.c ****         lv_vsnprintf(msg, sizeof(msg), format, args);
  77:lvgl/lvgl/src/misc/lv_log.c ****         va_end(args);
  78:lvgl/lvgl/src/misc/lv_log.c **** 
  79:lvgl/lvgl/src/misc/lv_log.c ****         /*Use only the file name not the path*/
  80:lvgl/lvgl/src/misc/lv_log.c ****         size_t p;
  81:lvgl/lvgl/src/misc/lv_log.c ****         for(p = strlen(file); p > 0; p--) {
  82:lvgl/lvgl/src/misc/lv_log.c ****             if(file[p] == '/' || file[p] == '\\') {
  83:lvgl/lvgl/src/misc/lv_log.c ****                 p++;    /*Skip the slash*/
  84:lvgl/lvgl/src/misc/lv_log.c ****                 break;
  85:lvgl/lvgl/src/misc/lv_log.c ****             }
  86:lvgl/lvgl/src/misc/lv_log.c ****         }
  87:lvgl/lvgl/src/misc/lv_log.c **** 
  88:lvgl/lvgl/src/misc/lv_log.c ****         char buf[512];
  89:lvgl/lvgl/src/misc/lv_log.c ****         uint32_t t = lv_tick_get();
  90:lvgl/lvgl/src/misc/lv_log.c ****         static const char * lvl_prefix[] = {"Trace", "Info", "Warn", "Error", "User"};
  91:lvgl/lvgl/src/misc/lv_log.c ****         lv_snprintf(buf, sizeof(buf), "[%s]\t(%d.%03d, +%d)\t %s: %s \t(in %s line #%d)\n", lvl_pre
  92:lvgl/lvgl/src/misc/lv_log.c ****         last_log_time = t;
  93:lvgl/lvgl/src/misc/lv_log.c ****         lv_log(buf);
  94:lvgl/lvgl/src/misc/lv_log.c ****     }
  95:lvgl/lvgl/src/misc/lv_log.c **** }
  96:lvgl/lvgl/src/misc/lv_log.c **** 
  97:lvgl/lvgl/src/misc/lv_log.c **** void lv_log(const char * buf)
  98:lvgl/lvgl/src/misc/lv_log.c **** {
  63              		.loc 1 98 1 is_stmt 1 view -0
  64              		.cfi_startproc
  65              		@ args = 0, pretend = 0, frame = 0
  66              		@ frame_needed = 0, uses_anonymous_args = 0
  67              		.loc 1 98 1 is_stmt 0 view .LVU5
  68 0000 10B5     		push	{r4, lr}
  69              	.LCFI0:
  70              		.cfi_def_cfa_offset 8
  71              		.cfi_offset 4, -8
  72              		.cfi_offset 14, -4
  73 0002 0446     		mov	r4, r0
  99:lvgl/lvgl/src/misc/lv_log.c **** #if LV_LOG_PRINTF
 100:lvgl/lvgl/src/misc/lv_log.c ****     printf("%s", buf);
  74              		.loc 1 100 5 is_stmt 1 view .LVU6
ARM GAS  C:\Users\gx\AppData\Local\Temp\ccFshBXa.s 			page 4


  75 0004 0146     		mov	r1, r0
  76 0006 0448     		ldr	r0, .L7
  77              	.LVL2:
  78              		.loc 1 100 5 is_stmt 0 view .LVU7
  79 0008 FFF7FEFF 		bl	printf
  80              	.LVL3:
 101:lvgl/lvgl/src/misc/lv_log.c **** #endif
 102:lvgl/lvgl/src/misc/lv_log.c ****     if(custom_print_cb) custom_print_cb(buf);
  81              		.loc 1 102 5 is_stmt 1 view .LVU8
  82              		.loc 1 102 8 is_stmt 0 view .LVU9
  83 000c 034B     		ldr	r3, .L7+4
  84 000e 1B68     		ldr	r3, [r3]
  85              		.loc 1 102 7 view .LVU10
  86 0010 0BB1     		cbz	r3, .L4
  87              		.loc 1 102 25 is_stmt 1 discriminator 1 view .LVU11
  88 0012 2046     		mov	r0, r4
  89 0014 9847     		blx	r3
  90              	.LVL4:
  91              	.L4:
 103:lvgl/lvgl/src/misc/lv_log.c **** 
 104:lvgl/lvgl/src/misc/lv_log.c **** }
  92              		.loc 1 104 1 is_stmt 0 view .LVU12
  93 0016 10BD     		pop	{r4, pc}
  94              	.LVL5:
  95              	.L8:
  96              		.loc 1 104 1 view .LVU13
  97              		.align	2
  98              	.L7:
  99 0018 00000000 		.word	.LC0
 100 001c 00000000 		.word	.LANCHOR0
 101              		.cfi_endproc
 102              	.LFE5:
 104              		.section	.rodata._lv_log_add.str1.4,"aMS",%progbits,1
 105              		.align	2
 106              	.LC1:
 107 0000 5B25735D 		.ascii	"[%s]\011(%d.%03d, +%d)\011 %s: %s \011(in %s line #"
 107      09282564 
 107      2E253033 
 107      642C202B 
 107      25642909 
 108 002a 2564290A 		.ascii	"%d)\012\000"
 108      00
 109              		.section	.text._lv_log_add,"ax",%progbits
 110              		.align	1
 111              		.global	_lv_log_add
 112              		.syntax unified
 113              		.thumb
 114              		.thumb_func
 115              		.fpu fpv4-sp-d16
 117              	_lv_log_add:
 118              	.LVL6:
 119              	.LFB4:
  67:lvgl/lvgl/src/misc/lv_log.c ****     if(level >= _LV_LOG_LEVEL_NUM) return; /*Invalid level*/
 120              		.loc 1 67 1 is_stmt 1 view -0
 121              		.cfi_startproc
 122              		@ args = 4, pretend = 0, frame = 776
 123              		@ frame_needed = 0, uses_anonymous_args = 1
ARM GAS  C:\Users\gx\AppData\Local\Temp\ccFshBXa.s 			page 5


  68:lvgl/lvgl/src/misc/lv_log.c **** 
 124              		.loc 1 68 5 view .LVU15
  68:lvgl/lvgl/src/misc/lv_log.c **** 
 125              		.loc 1 68 7 is_stmt 0 view .LVU16
 126 0000 0528     		cmp	r0, #5
 127 0002 49DC     		bgt	.L17
  67:lvgl/lvgl/src/misc/lv_log.c ****     if(level >= _LV_LOG_LEVEL_NUM) return; /*Invalid level*/
 128              		.loc 1 67 1 view .LVU17
 129 0004 2DE9F043 		push	{r4, r5, r6, r7, r8, r9, lr}
 130              	.LCFI1:
 131              		.cfi_def_cfa_offset 28
 132              		.cfi_offset 4, -28
 133              		.cfi_offset 5, -24
 134              		.cfi_offset 6, -20
 135              		.cfi_offset 7, -16
 136              		.cfi_offset 8, -12
 137              		.cfi_offset 9, -8
 138              		.cfi_offset 14, -4
 139 0008 ADF54B7D 		sub	sp, sp, #812
 140              	.LCFI2:
 141              		.cfi_def_cfa_offset 840
 142 000c 0746     		mov	r7, r0
 143 000e 0E46     		mov	r6, r1
 144 0010 9146     		mov	r9, r2
 145 0012 9846     		mov	r8, r3
  70:lvgl/lvgl/src/misc/lv_log.c **** 
 146              		.loc 1 70 5 is_stmt 1 view .LVU18
  72:lvgl/lvgl/src/misc/lv_log.c ****         va_list args;
 147              		.loc 1 72 5 view .LVU19
  72:lvgl/lvgl/src/misc/lv_log.c ****         va_list args;
 148              		.loc 1 72 7 is_stmt 0 view .LVU20
 149 0014 0128     		cmp	r0, #1
 150 0016 03DC     		bgt	.L20
 151              	.LVL7:
 152              	.L9:
  95:lvgl/lvgl/src/misc/lv_log.c **** 
 153              		.loc 1 95 1 view .LVU21
 154 0018 0DF54B7D 		add	sp, sp, #812
 155              	.LCFI3:
 156              		.cfi_remember_state
 157              		.cfi_def_cfa_offset 28
 158              		@ sp needed
 159 001c BDE8F083 		pop	{r4, r5, r6, r7, r8, r9, pc}
 160              	.LVL8:
 161              	.L20:
 162              	.LCFI4:
 163              		.cfi_restore_state
 164              	.LBB2:
  73:lvgl/lvgl/src/misc/lv_log.c ****         va_start(args, format);
 165              		.loc 1 73 9 is_stmt 1 view .LVU22
  74:lvgl/lvgl/src/misc/lv_log.c ****         char msg[256];
 166              		.loc 1 74 9 view .LVU23
 167 0020 D3AB     		add	r3, sp, #844
 168              	.LVL9:
  74:lvgl/lvgl/src/misc/lv_log.c ****         char msg[256];
 169              		.loc 1 74 9 is_stmt 0 view .LVU24
 170 0022 0993     		str	r3, [sp, #36]
ARM GAS  C:\Users\gx\AppData\Local\Temp\ccFshBXa.s 			page 6


  75:lvgl/lvgl/src/misc/lv_log.c ****         lv_vsnprintf(msg, sizeof(msg), format, args);
 171              		.loc 1 75 9 is_stmt 1 view .LVU25
  76:lvgl/lvgl/src/misc/lv_log.c ****         va_end(args);
 172              		.loc 1 76 9 view .LVU26
 173 0024 D29A     		ldr	r2, [sp, #840]
 174              	.LVL10:
  76:lvgl/lvgl/src/misc/lv_log.c ****         va_end(args);
 175              		.loc 1 76 9 is_stmt 0 view .LVU27
 176 0026 4FF48071 		mov	r1, #256
 177              	.LVL11:
  76:lvgl/lvgl/src/misc/lv_log.c ****         va_end(args);
 178              		.loc 1 76 9 view .LVU28
 179 002a 0AA8     		add	r0, sp, #40
 180              	.LVL12:
  76:lvgl/lvgl/src/misc/lv_log.c ****         va_end(args);
 181              		.loc 1 76 9 view .LVU29
 182 002c FFF7FEFF 		bl	lv_vsnprintf
 183              	.LVL13:
  77:lvgl/lvgl/src/misc/lv_log.c **** 
 184              		.loc 1 77 9 is_stmt 1 view .LVU30
  80:lvgl/lvgl/src/misc/lv_log.c ****         for(p = strlen(file); p > 0; p--) {
 185              		.loc 1 80 9 view .LVU31
  81:lvgl/lvgl/src/misc/lv_log.c ****             if(file[p] == '/' || file[p] == '\\') {
 186              		.loc 1 81 9 view .LVU32
  81:lvgl/lvgl/src/misc/lv_log.c ****             if(file[p] == '/' || file[p] == '\\') {
 187              		.loc 1 81 17 is_stmt 0 view .LVU33
 188 0030 3046     		mov	r0, r6
 189 0032 FFF7FEFF 		bl	strlen
 190              	.LVL14:
 191 0036 0446     		mov	r4, r0
 192              	.LVL15:
  81:lvgl/lvgl/src/misc/lv_log.c ****             if(file[p] == '/' || file[p] == '\\') {
 193              		.loc 1 81 9 view .LVU34
 194 0038 00E0     		b	.L11
 195              	.LVL16:
 196              	.L13:
  81:lvgl/lvgl/src/misc/lv_log.c ****             if(file[p] == '/' || file[p] == '\\') {
 197              		.loc 1 81 38 is_stmt 1 discriminator 2 view .LVU35
  81:lvgl/lvgl/src/misc/lv_log.c ****             if(file[p] == '/' || file[p] == '\\') {
 198              		.loc 1 81 39 is_stmt 0 discriminator 2 view .LVU36
 199 003a 013C     		subs	r4, r4, #1
 200              	.LVL17:
 201              	.L11:
  81:lvgl/lvgl/src/misc/lv_log.c ****             if(file[p] == '/' || file[p] == '\\') {
 202              		.loc 1 81 31 is_stmt 1 discriminator 1 view .LVU37
  81:lvgl/lvgl/src/misc/lv_log.c ****             if(file[p] == '/' || file[p] == '\\') {
 203              		.loc 1 81 9 is_stmt 0 discriminator 1 view .LVU38
 204 003c 2CB1     		cbz	r4, .L14
  82:lvgl/lvgl/src/misc/lv_log.c ****                 p++;    /*Skip the slash*/
 205              		.loc 1 82 13 is_stmt 1 view .LVU39
  82:lvgl/lvgl/src/misc/lv_log.c ****                 p++;    /*Skip the slash*/
 206              		.loc 1 82 20 is_stmt 0 view .LVU40
 207 003e 355D     		ldrb	r5, [r6, r4]	@ zero_extendqisi2
  82:lvgl/lvgl/src/misc/lv_log.c ****                 p++;    /*Skip the slash*/
 208              		.loc 1 82 15 view .LVU41
 209 0040 2F2D     		cmp	r5, #47
 210 0042 01D0     		beq	.L12
ARM GAS  C:\Users\gx\AppData\Local\Temp\ccFshBXa.s 			page 7


  82:lvgl/lvgl/src/misc/lv_log.c ****                 p++;    /*Skip the slash*/
 211              		.loc 1 82 31 discriminator 1 view .LVU42
 212 0044 5C2D     		cmp	r5, #92
 213 0046 F8D1     		bne	.L13
 214              	.L12:
  83:lvgl/lvgl/src/misc/lv_log.c ****                 break;
 215              		.loc 1 83 17 is_stmt 1 view .LVU43
  83:lvgl/lvgl/src/misc/lv_log.c ****                 break;
 216              		.loc 1 83 18 is_stmt 0 view .LVU44
 217 0048 0134     		adds	r4, r4, #1
 218              	.LVL18:
  84:lvgl/lvgl/src/misc/lv_log.c ****             }
 219              		.loc 1 84 17 is_stmt 1 view .LVU45
 220              	.L14:
  88:lvgl/lvgl/src/misc/lv_log.c ****         uint32_t t = lv_tick_get();
 221              		.loc 1 88 9 view .LVU46
  89:lvgl/lvgl/src/misc/lv_log.c ****         static const char * lvl_prefix[] = {"Trace", "Info", "Warn", "Error", "User"};
 222              		.loc 1 89 9 view .LVU47
  89:lvgl/lvgl/src/misc/lv_log.c ****         static const char * lvl_prefix[] = {"Trace", "Info", "Warn", "Error", "User"};
 223              		.loc 1 89 22 is_stmt 0 view .LVU48
 224 004a FFF7FEFF 		bl	lv_tick_get
 225              	.LVL19:
 226 004e 0546     		mov	r5, r0
 227              	.LVL20:
  90:lvgl/lvgl/src/misc/lv_log.c ****         lv_snprintf(buf, sizeof(buf), "[%s]\t(%d.%03d, +%d)\t %s: %s \t(in %s line #%d)\n", lvl_pre
 228              		.loc 1 90 9 is_stmt 1 view .LVU49
  91:lvgl/lvgl/src/misc/lv_log.c ****         last_log_time = t;
 229              		.loc 1 91 9 view .LVU50
 230 0050 CDF81890 		str	r9, [sp, #24]
 231 0054 3444     		add	r4, r4, r6
 232              	.LVL21:
  91:lvgl/lvgl/src/misc/lv_log.c ****         last_log_time = t;
 233              		.loc 1 91 9 is_stmt 0 view .LVU51
 234 0056 0594     		str	r4, [sp, #20]
 235 0058 0AAB     		add	r3, sp, #40
 236 005a 0493     		str	r3, [sp, #16]
 237 005c CDF80C80 		str	r8, [sp, #12]
 238 0060 0E4C     		ldr	r4, .L21
 239 0062 2368     		ldr	r3, [r4]
 240 0064 C31A     		subs	r3, r0, r3
 241 0066 0293     		str	r3, [sp, #8]
 242 0068 0D4B     		ldr	r3, .L21+4
 243 006a A3FB0023 		umull	r2, r3, r3, r0
 244 006e 9B09     		lsrs	r3, r3, #6
 245 0070 4FF47A72 		mov	r2, #1000
 246 0074 02FB1302 		mls	r2, r2, r3, r0
 247 0078 0192     		str	r2, [sp, #4]
 248 007a 0093     		str	r3, [sp]
 249 007c 094B     		ldr	r3, .L21+8
 250 007e 53F82730 		ldr	r3, [r3, r7, lsl #2]
 251 0082 094A     		ldr	r2, .L21+12
 252 0084 4FF40071 		mov	r1, #512
 253 0088 4AA8     		add	r0, sp, #296
 254              	.LVL22:
  91:lvgl/lvgl/src/misc/lv_log.c ****         last_log_time = t;
 255              		.loc 1 91 9 view .LVU52
 256 008a FFF7FEFF 		bl	lv_snprintf
ARM GAS  C:\Users\gx\AppData\Local\Temp\ccFshBXa.s 			page 8


 257              	.LVL23:
  92:lvgl/lvgl/src/misc/lv_log.c ****         lv_log(buf);
 258              		.loc 1 92 9 is_stmt 1 view .LVU53
  92:lvgl/lvgl/src/misc/lv_log.c ****         lv_log(buf);
 259              		.loc 1 92 23 is_stmt 0 view .LVU54
 260 008e 2560     		str	r5, [r4]
  93:lvgl/lvgl/src/misc/lv_log.c ****     }
 261              		.loc 1 93 9 is_stmt 1 view .LVU55
 262 0090 4AA8     		add	r0, sp, #296
 263 0092 FFF7FEFF 		bl	lv_log
 264              	.LVL24:
 265 0096 BFE7     		b	.L9
 266              	.LVL25:
 267              	.L17:
 268              	.LCFI5:
 269              		.cfi_def_cfa_offset 0
 270              		.cfi_restore 4
 271              		.cfi_restore 5
 272              		.cfi_restore 6
 273              		.cfi_restore 7
 274              		.cfi_restore 8
 275              		.cfi_restore 9
 276              		.cfi_restore 14
  93:lvgl/lvgl/src/misc/lv_log.c ****     }
 277              		.loc 1 93 9 is_stmt 0 view .LVU56
 278 0098 7047     		bx	lr
 279              	.L22:
 280 009a 00BF     		.align	2
 281              	.L21:
 282 009c 00000000 		.word	.LANCHOR2
 283 00a0 D34D6210 		.word	274877907
 284 00a4 00000000 		.word	.LANCHOR1
 285 00a8 00000000 		.word	.LC1
 286              	.LBE2:
 287              		.cfi_endproc
 288              	.LFE4:
 290              		.section	.rodata.str1.4,"aMS",%progbits,1
 291              		.align	2
 292              	.LC2:
 293 0000 54726163 		.ascii	"Trace\000"
 293      6500
 294 0006 0000     		.align	2
 295              	.LC3:
 296 0008 496E666F 		.ascii	"Info\000"
 296      00
 297 000d 000000   		.align	2
 298              	.LC4:
 299 0010 5761726E 		.ascii	"Warn\000"
 299      00
 300 0015 000000   		.align	2
 301              	.LC5:
 302 0018 4572726F 		.ascii	"Error\000"
 302      7200
 303 001e 0000     		.align	2
 304              	.LC6:
 305 0020 55736572 		.ascii	"User\000"
 305      00
ARM GAS  C:\Users\gx\AppData\Local\Temp\ccFshBXa.s 			page 9


 306              		.section	.bss.custom_print_cb,"aw",%nobits
 307              		.align	2
 308              		.set	.LANCHOR0,. + 0
 311              	custom_print_cb:
 312 0000 00000000 		.space	4
 313              		.section	.bss.last_log_time.6817,"aw",%nobits
 314              		.align	2
 315              		.set	.LANCHOR2,. + 0
 318              	last_log_time.6817:
 319 0000 00000000 		.space	4
 320              		.section	.rodata.lvl_prefix.6826,"a"
 321              		.align	2
 322              		.set	.LANCHOR1,. + 0
 325              	lvl_prefix.6826:
 326 0000 00000000 		.word	.LC2
 327 0004 08000000 		.word	.LC3
 328 0008 10000000 		.word	.LC4
 329 000c 18000000 		.word	.LC5
 330 0010 20000000 		.word	.LC6
 331              		.text
 332              	.Letext0:
 333              		.file 2 "c:\\program files (x86)\\gnu arm embedded toolchain\\9 2020-q2-update\\arm-none-eabi\\inc
 334              		.file 3 "c:\\program files (x86)\\gnu arm embedded toolchain\\9 2020-q2-update\\arm-none-eabi\\inc
 335              		.file 4 "lvgl/lvgl/src/misc/lv_log.h"
 336              		.file 5 "c:\\program files (x86)\\gnu arm embedded toolchain\\9 2020-q2-update\\lib\\gcc\\arm-none
 337              		.file 6 "c:\\program files (x86)\\gnu arm embedded toolchain\\9 2020-q2-update\\lib\\gcc\\arm-none
 338              		.file 7 "c:\\program files (x86)\\gnu arm embedded toolchain\\9 2020-q2-update\\arm-none-eabi\\inc
 339              		.file 8 "c:\\program files (x86)\\gnu arm embedded toolchain\\9 2020-q2-update\\arm-none-eabi\\inc
 340              		.file 9 "c:\\program files (x86)\\gnu arm embedded toolchain\\9 2020-q2-update\\arm-none-eabi\\inc
 341              		.file 10 "c:\\program files (x86)\\gnu arm embedded toolchain\\9 2020-q2-update\\arm-none-eabi\\in
 342              		.file 11 "lvgl/lvgl/src/misc/lv_printf.h"
 343              		.file 12 "c:\\program files (x86)\\gnu arm embedded toolchain\\9 2020-q2-update\\arm-none-eabi\\in
 344              		.file 13 "lvgl/lvgl/src/misc/../hal/lv_hal_tick.h"
 345              		.file 14 "<built-in>"
ARM GAS  C:\Users\gx\AppData\Local\Temp\ccFshBXa.s 			page 10

