ARM GAS  C:\Users\gx\AppData\Local\Temp\ccMx9eiJ.s 			page 1


   1              		.cpu cortex-m4
   2              		.eabi_attribute 27, 1
   3              		.eabi_attribute 28, 1
   4              		.eabi_attribute 20, 1
   5              		.eabi_attribute 21, 1
   6              		.eabi_attribute 23, 3
   7              		.eabi_attribute 24, 1
   8              		.eabi_attribute 25, 1
   9              		.eabi_attribute 26, 1
  10              		.eabi_attribute 30, 1
  11              		.eabi_attribute 34, 1
  12              		.eabi_attribute 18, 4
  13              		.file	"lv_ll.c"
  14              		.text
  15              	.Ltext0:
  16              		.cfi_sections	.debug_frame
  17              		.section	.text.node_set_prev,"ax",%progbits
  18              		.align	1
  19              		.arch armv7e-m
  20              		.syntax unified
  21              		.thumb
  22              		.thumb_func
  23              		.fpu fpv4-sp-d16
  25              	node_set_prev:
  26              	.LVL0:
  27              	.LFB15:
  28              		.file 1 "lvgl/lvgl/src/misc/lv_ll.c"
   1:lvgl/lvgl/src/misc/lv_ll.c **** /**
   2:lvgl/lvgl/src/misc/lv_ll.c ****  * @file lv_ll.c
   3:lvgl/lvgl/src/misc/lv_ll.c ****  * Handle linked lists.
   4:lvgl/lvgl/src/misc/lv_ll.c ****  * The nodes are dynamically allocated by the 'lv_mem' module,
   5:lvgl/lvgl/src/misc/lv_ll.c ****  */
   6:lvgl/lvgl/src/misc/lv_ll.c **** 
   7:lvgl/lvgl/src/misc/lv_ll.c **** /*********************
   8:lvgl/lvgl/src/misc/lv_ll.c ****  *      INCLUDES
   9:lvgl/lvgl/src/misc/lv_ll.c ****  *********************/
  10:lvgl/lvgl/src/misc/lv_ll.c **** #include <stdint.h>
  11:lvgl/lvgl/src/misc/lv_ll.c **** #include <string.h>
  12:lvgl/lvgl/src/misc/lv_ll.c **** 
  13:lvgl/lvgl/src/misc/lv_ll.c **** #include "lv_ll.h"
  14:lvgl/lvgl/src/misc/lv_ll.c **** #include "lv_mem.h"
  15:lvgl/lvgl/src/misc/lv_ll.c **** 
  16:lvgl/lvgl/src/misc/lv_ll.c **** /*********************
  17:lvgl/lvgl/src/misc/lv_ll.c ****  *      DEFINES
  18:lvgl/lvgl/src/misc/lv_ll.c ****  *********************/
  19:lvgl/lvgl/src/misc/lv_ll.c **** #define LL_NODE_META_SIZE (sizeof(lv_ll_node_t *) + sizeof(lv_ll_node_t *))
  20:lvgl/lvgl/src/misc/lv_ll.c **** #define LL_PREV_P_OFFSET(ll_p) (ll_p->n_size)
  21:lvgl/lvgl/src/misc/lv_ll.c **** #define LL_NEXT_P_OFFSET(ll_p) (ll_p->n_size + sizeof(lv_ll_node_t *))
  22:lvgl/lvgl/src/misc/lv_ll.c **** 
  23:lvgl/lvgl/src/misc/lv_ll.c **** /**********************
  24:lvgl/lvgl/src/misc/lv_ll.c ****  *      TYPEDEFS
  25:lvgl/lvgl/src/misc/lv_ll.c ****  **********************/
  26:lvgl/lvgl/src/misc/lv_ll.c **** 
  27:lvgl/lvgl/src/misc/lv_ll.c **** /**********************
  28:lvgl/lvgl/src/misc/lv_ll.c ****  *  STATIC PROTOTYPES
  29:lvgl/lvgl/src/misc/lv_ll.c ****  **********************/
  30:lvgl/lvgl/src/misc/lv_ll.c **** static void node_set_prev(lv_ll_t * ll_p, lv_ll_node_t * act, lv_ll_node_t * prev);
ARM GAS  C:\Users\gx\AppData\Local\Temp\ccMx9eiJ.s 			page 2


  31:lvgl/lvgl/src/misc/lv_ll.c **** static void node_set_next(lv_ll_t * ll_p, lv_ll_node_t * act, lv_ll_node_t * next);
  32:lvgl/lvgl/src/misc/lv_ll.c **** 
  33:lvgl/lvgl/src/misc/lv_ll.c **** /**********************
  34:lvgl/lvgl/src/misc/lv_ll.c ****  *  STATIC VARIABLES
  35:lvgl/lvgl/src/misc/lv_ll.c ****  **********************/
  36:lvgl/lvgl/src/misc/lv_ll.c **** 
  37:lvgl/lvgl/src/misc/lv_ll.c **** /**********************
  38:lvgl/lvgl/src/misc/lv_ll.c ****  *      MACROS
  39:lvgl/lvgl/src/misc/lv_ll.c ****  **********************/
  40:lvgl/lvgl/src/misc/lv_ll.c **** 
  41:lvgl/lvgl/src/misc/lv_ll.c **** /**********************
  42:lvgl/lvgl/src/misc/lv_ll.c ****  *   GLOBAL FUNCTIONS
  43:lvgl/lvgl/src/misc/lv_ll.c ****  **********************/
  44:lvgl/lvgl/src/misc/lv_ll.c **** 
  45:lvgl/lvgl/src/misc/lv_ll.c **** /**
  46:lvgl/lvgl/src/misc/lv_ll.c ****  * Initialize linked list
  47:lvgl/lvgl/src/misc/lv_ll.c ****  * @param ll_dsc pointer to ll_dsc variable
  48:lvgl/lvgl/src/misc/lv_ll.c ****  * @param node_size the size of 1 node in bytes
  49:lvgl/lvgl/src/misc/lv_ll.c ****  */
  50:lvgl/lvgl/src/misc/lv_ll.c **** void _lv_ll_init(lv_ll_t * ll_p, uint32_t node_size)
  51:lvgl/lvgl/src/misc/lv_ll.c **** {
  52:lvgl/lvgl/src/misc/lv_ll.c ****     ll_p->head = NULL;
  53:lvgl/lvgl/src/misc/lv_ll.c ****     ll_p->tail = NULL;
  54:lvgl/lvgl/src/misc/lv_ll.c **** #ifdef LV_ARCH_64
  55:lvgl/lvgl/src/misc/lv_ll.c ****     /*Round the size up to 8*/
  56:lvgl/lvgl/src/misc/lv_ll.c ****     node_size = (node_size + 7) & (~0x7);
  57:lvgl/lvgl/src/misc/lv_ll.c **** #else
  58:lvgl/lvgl/src/misc/lv_ll.c ****     /*Round the size up to 4*/
  59:lvgl/lvgl/src/misc/lv_ll.c ****     node_size = (node_size + 3) & (~0x3);
  60:lvgl/lvgl/src/misc/lv_ll.c **** #endif
  61:lvgl/lvgl/src/misc/lv_ll.c **** 
  62:lvgl/lvgl/src/misc/lv_ll.c ****     ll_p->n_size = node_size;
  63:lvgl/lvgl/src/misc/lv_ll.c **** }
  64:lvgl/lvgl/src/misc/lv_ll.c **** 
  65:lvgl/lvgl/src/misc/lv_ll.c **** /**
  66:lvgl/lvgl/src/misc/lv_ll.c ****  * Add a new head to a linked list
  67:lvgl/lvgl/src/misc/lv_ll.c ****  * @param ll_p pointer to linked list
  68:lvgl/lvgl/src/misc/lv_ll.c ****  * @return pointer to the new head
  69:lvgl/lvgl/src/misc/lv_ll.c ****  */
  70:lvgl/lvgl/src/misc/lv_ll.c **** void * _lv_ll_ins_head(lv_ll_t * ll_p)
  71:lvgl/lvgl/src/misc/lv_ll.c **** {
  72:lvgl/lvgl/src/misc/lv_ll.c ****     lv_ll_node_t * n_new;
  73:lvgl/lvgl/src/misc/lv_ll.c **** 
  74:lvgl/lvgl/src/misc/lv_ll.c ****     n_new = lv_mem_alloc(ll_p->n_size + LL_NODE_META_SIZE);
  75:lvgl/lvgl/src/misc/lv_ll.c **** 
  76:lvgl/lvgl/src/misc/lv_ll.c ****     if(n_new != NULL) {
  77:lvgl/lvgl/src/misc/lv_ll.c ****         node_set_prev(ll_p, n_new, NULL);       /*No prev. before the new head*/
  78:lvgl/lvgl/src/misc/lv_ll.c ****         node_set_next(ll_p, n_new, ll_p->head); /*After new comes the old head*/
  79:lvgl/lvgl/src/misc/lv_ll.c **** 
  80:lvgl/lvgl/src/misc/lv_ll.c ****         if(ll_p->head != NULL) { /*If there is old head then before it goes the new*/
  81:lvgl/lvgl/src/misc/lv_ll.c ****             node_set_prev(ll_p, ll_p->head, n_new);
  82:lvgl/lvgl/src/misc/lv_ll.c ****         }
  83:lvgl/lvgl/src/misc/lv_ll.c **** 
  84:lvgl/lvgl/src/misc/lv_ll.c ****         ll_p->head = n_new;      /*Set the new head in the dsc.*/
  85:lvgl/lvgl/src/misc/lv_ll.c ****         if(ll_p->tail == NULL) { /*If there is no tail (1. node) set the tail too*/
  86:lvgl/lvgl/src/misc/lv_ll.c ****             ll_p->tail = n_new;
  87:lvgl/lvgl/src/misc/lv_ll.c ****         }
ARM GAS  C:\Users\gx\AppData\Local\Temp\ccMx9eiJ.s 			page 3


  88:lvgl/lvgl/src/misc/lv_ll.c ****     }
  89:lvgl/lvgl/src/misc/lv_ll.c **** 
  90:lvgl/lvgl/src/misc/lv_ll.c ****     return n_new;
  91:lvgl/lvgl/src/misc/lv_ll.c **** }
  92:lvgl/lvgl/src/misc/lv_ll.c **** 
  93:lvgl/lvgl/src/misc/lv_ll.c **** /**
  94:lvgl/lvgl/src/misc/lv_ll.c ****  * Insert a new node in front of the n_act node
  95:lvgl/lvgl/src/misc/lv_ll.c ****  * @param ll_p pointer to linked list
  96:lvgl/lvgl/src/misc/lv_ll.c ****  * @param n_act pointer a node
  97:lvgl/lvgl/src/misc/lv_ll.c ****  * @return pointer to the new head
  98:lvgl/lvgl/src/misc/lv_ll.c ****  */
  99:lvgl/lvgl/src/misc/lv_ll.c **** void * _lv_ll_ins_prev(lv_ll_t * ll_p, void * n_act)
 100:lvgl/lvgl/src/misc/lv_ll.c **** {
 101:lvgl/lvgl/src/misc/lv_ll.c ****     lv_ll_node_t * n_new;
 102:lvgl/lvgl/src/misc/lv_ll.c **** 
 103:lvgl/lvgl/src/misc/lv_ll.c ****     if(NULL == ll_p || NULL == n_act) return NULL;
 104:lvgl/lvgl/src/misc/lv_ll.c **** 
 105:lvgl/lvgl/src/misc/lv_ll.c ****     if(_lv_ll_get_head(ll_p) == n_act) {
 106:lvgl/lvgl/src/misc/lv_ll.c ****         n_new = _lv_ll_ins_head(ll_p);
 107:lvgl/lvgl/src/misc/lv_ll.c ****         if(n_new == NULL) return NULL;
 108:lvgl/lvgl/src/misc/lv_ll.c ****     }
 109:lvgl/lvgl/src/misc/lv_ll.c ****     else {
 110:lvgl/lvgl/src/misc/lv_ll.c ****         n_new = lv_mem_alloc(ll_p->n_size + LL_NODE_META_SIZE);
 111:lvgl/lvgl/src/misc/lv_ll.c ****         if(n_new == NULL) return NULL;
 112:lvgl/lvgl/src/misc/lv_ll.c **** 
 113:lvgl/lvgl/src/misc/lv_ll.c ****         lv_ll_node_t * n_prev;
 114:lvgl/lvgl/src/misc/lv_ll.c ****         n_prev = _lv_ll_get_prev(ll_p, n_act);
 115:lvgl/lvgl/src/misc/lv_ll.c ****         node_set_next(ll_p, n_prev, n_new);
 116:lvgl/lvgl/src/misc/lv_ll.c ****         node_set_prev(ll_p, n_new, n_prev);
 117:lvgl/lvgl/src/misc/lv_ll.c ****         node_set_prev(ll_p, n_act, n_new);
 118:lvgl/lvgl/src/misc/lv_ll.c ****         node_set_next(ll_p, n_new, n_act);
 119:lvgl/lvgl/src/misc/lv_ll.c ****     }
 120:lvgl/lvgl/src/misc/lv_ll.c **** 
 121:lvgl/lvgl/src/misc/lv_ll.c ****     return n_new;
 122:lvgl/lvgl/src/misc/lv_ll.c **** }
 123:lvgl/lvgl/src/misc/lv_ll.c **** 
 124:lvgl/lvgl/src/misc/lv_ll.c **** /**
 125:lvgl/lvgl/src/misc/lv_ll.c ****  * Add a new tail to a linked list
 126:lvgl/lvgl/src/misc/lv_ll.c ****  * @param ll_p pointer to linked list
 127:lvgl/lvgl/src/misc/lv_ll.c ****  * @return pointer to the new tail
 128:lvgl/lvgl/src/misc/lv_ll.c ****  */
 129:lvgl/lvgl/src/misc/lv_ll.c **** void * _lv_ll_ins_tail(lv_ll_t * ll_p)
 130:lvgl/lvgl/src/misc/lv_ll.c **** {
 131:lvgl/lvgl/src/misc/lv_ll.c ****     lv_ll_node_t * n_new;
 132:lvgl/lvgl/src/misc/lv_ll.c **** 
 133:lvgl/lvgl/src/misc/lv_ll.c ****     n_new = lv_mem_alloc(ll_p->n_size + LL_NODE_META_SIZE);
 134:lvgl/lvgl/src/misc/lv_ll.c **** 
 135:lvgl/lvgl/src/misc/lv_ll.c ****     if(n_new != NULL) {
 136:lvgl/lvgl/src/misc/lv_ll.c ****         node_set_next(ll_p, n_new, NULL);       /*No next after the new tail*/
 137:lvgl/lvgl/src/misc/lv_ll.c ****         node_set_prev(ll_p, n_new, ll_p->tail); /*The prev. before new is the old tail*/
 138:lvgl/lvgl/src/misc/lv_ll.c ****         if(ll_p->tail != NULL) {                /*If there is old tail then the new comes after it*
 139:lvgl/lvgl/src/misc/lv_ll.c ****             node_set_next(ll_p, ll_p->tail, n_new);
 140:lvgl/lvgl/src/misc/lv_ll.c ****         }
 141:lvgl/lvgl/src/misc/lv_ll.c **** 
 142:lvgl/lvgl/src/misc/lv_ll.c ****         ll_p->tail = n_new;      /*Set the new tail in the dsc.*/
 143:lvgl/lvgl/src/misc/lv_ll.c ****         if(ll_p->head == NULL) { /*If there is no head (1. node) set the head too*/
 144:lvgl/lvgl/src/misc/lv_ll.c ****             ll_p->head = n_new;
ARM GAS  C:\Users\gx\AppData\Local\Temp\ccMx9eiJ.s 			page 4


 145:lvgl/lvgl/src/misc/lv_ll.c ****         }
 146:lvgl/lvgl/src/misc/lv_ll.c ****     }
 147:lvgl/lvgl/src/misc/lv_ll.c **** 
 148:lvgl/lvgl/src/misc/lv_ll.c ****     return n_new;
 149:lvgl/lvgl/src/misc/lv_ll.c **** }
 150:lvgl/lvgl/src/misc/lv_ll.c **** 
 151:lvgl/lvgl/src/misc/lv_ll.c **** /**
 152:lvgl/lvgl/src/misc/lv_ll.c ****  * Remove the node 'node_p' from 'll_p' linked list.
 153:lvgl/lvgl/src/misc/lv_ll.c ****  * It does not free the memory of node.
 154:lvgl/lvgl/src/misc/lv_ll.c ****  * @param ll_p pointer to the linked list of 'node_p'
 155:lvgl/lvgl/src/misc/lv_ll.c ****  * @param node_p pointer to node in 'll_p' linked list
 156:lvgl/lvgl/src/misc/lv_ll.c ****  */
 157:lvgl/lvgl/src/misc/lv_ll.c **** void _lv_ll_remove(lv_ll_t * ll_p, void * node_p)
 158:lvgl/lvgl/src/misc/lv_ll.c **** {
 159:lvgl/lvgl/src/misc/lv_ll.c ****     if(ll_p == NULL) return;
 160:lvgl/lvgl/src/misc/lv_ll.c **** 
 161:lvgl/lvgl/src/misc/lv_ll.c ****     if(_lv_ll_get_head(ll_p) == node_p) {
 162:lvgl/lvgl/src/misc/lv_ll.c ****         /*The new head will be the node after 'n_act'*/
 163:lvgl/lvgl/src/misc/lv_ll.c ****         ll_p->head = _lv_ll_get_next(ll_p, node_p);
 164:lvgl/lvgl/src/misc/lv_ll.c ****         if(ll_p->head == NULL) {
 165:lvgl/lvgl/src/misc/lv_ll.c ****             ll_p->tail = NULL;
 166:lvgl/lvgl/src/misc/lv_ll.c ****         }
 167:lvgl/lvgl/src/misc/lv_ll.c ****         else {
 168:lvgl/lvgl/src/misc/lv_ll.c ****             node_set_prev(ll_p, ll_p->head, NULL);
 169:lvgl/lvgl/src/misc/lv_ll.c ****         }
 170:lvgl/lvgl/src/misc/lv_ll.c ****     }
 171:lvgl/lvgl/src/misc/lv_ll.c ****     else if(_lv_ll_get_tail(ll_p) == node_p) {
 172:lvgl/lvgl/src/misc/lv_ll.c ****         /*The new tail will be the node before 'n_act'*/
 173:lvgl/lvgl/src/misc/lv_ll.c ****         ll_p->tail = _lv_ll_get_prev(ll_p, node_p);
 174:lvgl/lvgl/src/misc/lv_ll.c ****         if(ll_p->tail == NULL) {
 175:lvgl/lvgl/src/misc/lv_ll.c ****             ll_p->head = NULL;
 176:lvgl/lvgl/src/misc/lv_ll.c ****         }
 177:lvgl/lvgl/src/misc/lv_ll.c ****         else {
 178:lvgl/lvgl/src/misc/lv_ll.c ****             node_set_next(ll_p, ll_p->tail, NULL);
 179:lvgl/lvgl/src/misc/lv_ll.c ****         }
 180:lvgl/lvgl/src/misc/lv_ll.c ****     }
 181:lvgl/lvgl/src/misc/lv_ll.c ****     else {
 182:lvgl/lvgl/src/misc/lv_ll.c ****         lv_ll_node_t * n_prev = _lv_ll_get_prev(ll_p, node_p);
 183:lvgl/lvgl/src/misc/lv_ll.c ****         lv_ll_node_t * n_next = _lv_ll_get_next(ll_p, node_p);
 184:lvgl/lvgl/src/misc/lv_ll.c **** 
 185:lvgl/lvgl/src/misc/lv_ll.c ****         node_set_next(ll_p, n_prev, n_next);
 186:lvgl/lvgl/src/misc/lv_ll.c ****         node_set_prev(ll_p, n_next, n_prev);
 187:lvgl/lvgl/src/misc/lv_ll.c ****     }
 188:lvgl/lvgl/src/misc/lv_ll.c **** }
 189:lvgl/lvgl/src/misc/lv_ll.c **** 
 190:lvgl/lvgl/src/misc/lv_ll.c **** /**
 191:lvgl/lvgl/src/misc/lv_ll.c ****  * Remove and free all elements from a linked list. The list remain valid but become empty.
 192:lvgl/lvgl/src/misc/lv_ll.c ****  * @param ll_p pointer to linked list
 193:lvgl/lvgl/src/misc/lv_ll.c ****  */
 194:lvgl/lvgl/src/misc/lv_ll.c **** void _lv_ll_clear(lv_ll_t * ll_p)
 195:lvgl/lvgl/src/misc/lv_ll.c **** {
 196:lvgl/lvgl/src/misc/lv_ll.c ****     void * i;
 197:lvgl/lvgl/src/misc/lv_ll.c ****     void * i_next;
 198:lvgl/lvgl/src/misc/lv_ll.c **** 
 199:lvgl/lvgl/src/misc/lv_ll.c ****     i      = _lv_ll_get_head(ll_p);
 200:lvgl/lvgl/src/misc/lv_ll.c ****     i_next = NULL;
 201:lvgl/lvgl/src/misc/lv_ll.c **** 
ARM GAS  C:\Users\gx\AppData\Local\Temp\ccMx9eiJ.s 			page 5


 202:lvgl/lvgl/src/misc/lv_ll.c ****     while(i != NULL) {
 203:lvgl/lvgl/src/misc/lv_ll.c ****         i_next = _lv_ll_get_next(ll_p, i);
 204:lvgl/lvgl/src/misc/lv_ll.c **** 
 205:lvgl/lvgl/src/misc/lv_ll.c ****         _lv_ll_remove(ll_p, i);
 206:lvgl/lvgl/src/misc/lv_ll.c ****         lv_mem_free(i);
 207:lvgl/lvgl/src/misc/lv_ll.c **** 
 208:lvgl/lvgl/src/misc/lv_ll.c ****         i = i_next;
 209:lvgl/lvgl/src/misc/lv_ll.c ****     }
 210:lvgl/lvgl/src/misc/lv_ll.c **** }
 211:lvgl/lvgl/src/misc/lv_ll.c **** 
 212:lvgl/lvgl/src/misc/lv_ll.c **** /**
 213:lvgl/lvgl/src/misc/lv_ll.c ****  * Move a node to a new linked list
 214:lvgl/lvgl/src/misc/lv_ll.c ****  * @param ll_ori_p pointer to the original (old) linked list
 215:lvgl/lvgl/src/misc/lv_ll.c ****  * @param ll_new_p pointer to the new linked list
 216:lvgl/lvgl/src/misc/lv_ll.c ****  * @param node pointer to a node
 217:lvgl/lvgl/src/misc/lv_ll.c ****  * @param head true: be the head in the new list
 218:lvgl/lvgl/src/misc/lv_ll.c ****  *             false be the head in the new list
 219:lvgl/lvgl/src/misc/lv_ll.c ****  */
 220:lvgl/lvgl/src/misc/lv_ll.c **** void _lv_ll_chg_list(lv_ll_t * ll_ori_p, lv_ll_t * ll_new_p, void * node, bool head)
 221:lvgl/lvgl/src/misc/lv_ll.c **** {
 222:lvgl/lvgl/src/misc/lv_ll.c ****     _lv_ll_remove(ll_ori_p, node);
 223:lvgl/lvgl/src/misc/lv_ll.c **** 
 224:lvgl/lvgl/src/misc/lv_ll.c ****     if(head) {
 225:lvgl/lvgl/src/misc/lv_ll.c ****         /*Set node as head*/
 226:lvgl/lvgl/src/misc/lv_ll.c ****         node_set_prev(ll_new_p, node, NULL);
 227:lvgl/lvgl/src/misc/lv_ll.c ****         node_set_next(ll_new_p, node, ll_new_p->head);
 228:lvgl/lvgl/src/misc/lv_ll.c **** 
 229:lvgl/lvgl/src/misc/lv_ll.c ****         if(ll_new_p->head != NULL) { /*If there is old head then before it goes the new*/
 230:lvgl/lvgl/src/misc/lv_ll.c ****             node_set_prev(ll_new_p, ll_new_p->head, node);
 231:lvgl/lvgl/src/misc/lv_ll.c ****         }
 232:lvgl/lvgl/src/misc/lv_ll.c **** 
 233:lvgl/lvgl/src/misc/lv_ll.c ****         ll_new_p->head = node;       /*Set the new head in the dsc.*/
 234:lvgl/lvgl/src/misc/lv_ll.c ****         if(ll_new_p->tail == NULL) { /*If there is no tail (first node) set the tail too*/
 235:lvgl/lvgl/src/misc/lv_ll.c ****             ll_new_p->tail = node;
 236:lvgl/lvgl/src/misc/lv_ll.c ****         }
 237:lvgl/lvgl/src/misc/lv_ll.c ****     }
 238:lvgl/lvgl/src/misc/lv_ll.c ****     else {
 239:lvgl/lvgl/src/misc/lv_ll.c ****         /*Set node as tail*/
 240:lvgl/lvgl/src/misc/lv_ll.c ****         node_set_prev(ll_new_p, node, ll_new_p->tail);
 241:lvgl/lvgl/src/misc/lv_ll.c ****         node_set_next(ll_new_p, node, NULL);
 242:lvgl/lvgl/src/misc/lv_ll.c **** 
 243:lvgl/lvgl/src/misc/lv_ll.c ****         if(ll_new_p->tail != NULL) { /*If there is old tail then after it goes the new*/
 244:lvgl/lvgl/src/misc/lv_ll.c ****             node_set_next(ll_new_p, ll_new_p->tail, node);
 245:lvgl/lvgl/src/misc/lv_ll.c ****         }
 246:lvgl/lvgl/src/misc/lv_ll.c **** 
 247:lvgl/lvgl/src/misc/lv_ll.c ****         ll_new_p->tail = node;       /*Set the new tail in the dsc.*/
 248:lvgl/lvgl/src/misc/lv_ll.c ****         if(ll_new_p->head == NULL) { /*If there is no head (first node) set the head too*/
 249:lvgl/lvgl/src/misc/lv_ll.c ****             ll_new_p->head = node;
 250:lvgl/lvgl/src/misc/lv_ll.c ****         }
 251:lvgl/lvgl/src/misc/lv_ll.c ****     }
 252:lvgl/lvgl/src/misc/lv_ll.c **** }
 253:lvgl/lvgl/src/misc/lv_ll.c **** 
 254:lvgl/lvgl/src/misc/lv_ll.c **** /**
 255:lvgl/lvgl/src/misc/lv_ll.c ****  * Return with head node of the linked list
 256:lvgl/lvgl/src/misc/lv_ll.c ****  * @param ll_p pointer to linked list
 257:lvgl/lvgl/src/misc/lv_ll.c ****  * @return pointer to the head of 'll_p'
 258:lvgl/lvgl/src/misc/lv_ll.c ****  */
ARM GAS  C:\Users\gx\AppData\Local\Temp\ccMx9eiJ.s 			page 6


 259:lvgl/lvgl/src/misc/lv_ll.c **** void * _lv_ll_get_head(const lv_ll_t * ll_p)
 260:lvgl/lvgl/src/misc/lv_ll.c **** {
 261:lvgl/lvgl/src/misc/lv_ll.c ****     if(ll_p == NULL) return NULL;
 262:lvgl/lvgl/src/misc/lv_ll.c ****     return ll_p->head;
 263:lvgl/lvgl/src/misc/lv_ll.c **** }
 264:lvgl/lvgl/src/misc/lv_ll.c **** 
 265:lvgl/lvgl/src/misc/lv_ll.c **** /**
 266:lvgl/lvgl/src/misc/lv_ll.c ****  * Return with tail node of the linked list
 267:lvgl/lvgl/src/misc/lv_ll.c ****  * @param ll_p pointer to linked list
 268:lvgl/lvgl/src/misc/lv_ll.c ****  * @return pointer to the head of 'll_p'
 269:lvgl/lvgl/src/misc/lv_ll.c ****  */
 270:lvgl/lvgl/src/misc/lv_ll.c **** void * _lv_ll_get_tail(const lv_ll_t * ll_p)
 271:lvgl/lvgl/src/misc/lv_ll.c **** {
 272:lvgl/lvgl/src/misc/lv_ll.c ****     if(ll_p == NULL) return NULL;
 273:lvgl/lvgl/src/misc/lv_ll.c ****     return ll_p->tail;
 274:lvgl/lvgl/src/misc/lv_ll.c **** }
 275:lvgl/lvgl/src/misc/lv_ll.c **** 
 276:lvgl/lvgl/src/misc/lv_ll.c **** /**
 277:lvgl/lvgl/src/misc/lv_ll.c ****  * Return with the pointer of the next node after 'n_act'
 278:lvgl/lvgl/src/misc/lv_ll.c ****  * @param ll_p pointer to linked list
 279:lvgl/lvgl/src/misc/lv_ll.c ****  * @param n_act pointer a node
 280:lvgl/lvgl/src/misc/lv_ll.c ****  * @return pointer to the next node
 281:lvgl/lvgl/src/misc/lv_ll.c ****  */
 282:lvgl/lvgl/src/misc/lv_ll.c **** void * _lv_ll_get_next(const lv_ll_t * ll_p, const void * n_act)
 283:lvgl/lvgl/src/misc/lv_ll.c **** {
 284:lvgl/lvgl/src/misc/lv_ll.c ****     /*Pointer to the next node is stored in the end of this node.
 285:lvgl/lvgl/src/misc/lv_ll.c ****      *Go there and return the address found there*/
 286:lvgl/lvgl/src/misc/lv_ll.c ****     const lv_ll_node_t * n_act_d = n_act;
 287:lvgl/lvgl/src/misc/lv_ll.c ****     n_act_d += LL_NEXT_P_OFFSET(ll_p);
 288:lvgl/lvgl/src/misc/lv_ll.c ****     return *((lv_ll_node_t **)n_act_d);
 289:lvgl/lvgl/src/misc/lv_ll.c **** }
 290:lvgl/lvgl/src/misc/lv_ll.c **** 
 291:lvgl/lvgl/src/misc/lv_ll.c **** /**
 292:lvgl/lvgl/src/misc/lv_ll.c ****  * Return with the pointer of the previous node after 'n_act'
 293:lvgl/lvgl/src/misc/lv_ll.c ****  * @param ll_p pointer to linked list
 294:lvgl/lvgl/src/misc/lv_ll.c ****  * @param n_act pointer a node
 295:lvgl/lvgl/src/misc/lv_ll.c ****  * @return pointer to the previous node
 296:lvgl/lvgl/src/misc/lv_ll.c ****  */
 297:lvgl/lvgl/src/misc/lv_ll.c **** void * _lv_ll_get_prev(const lv_ll_t * ll_p, const void * n_act)
 298:lvgl/lvgl/src/misc/lv_ll.c **** {
 299:lvgl/lvgl/src/misc/lv_ll.c ****     /*Pointer to the prev. node is stored in the end of this node.
 300:lvgl/lvgl/src/misc/lv_ll.c ****      *Go there and return the address found there*/
 301:lvgl/lvgl/src/misc/lv_ll.c ****     const lv_ll_node_t * n_act_d = n_act;
 302:lvgl/lvgl/src/misc/lv_ll.c ****     n_act_d += LL_PREV_P_OFFSET(ll_p);
 303:lvgl/lvgl/src/misc/lv_ll.c ****     return *((lv_ll_node_t **)n_act_d);
 304:lvgl/lvgl/src/misc/lv_ll.c **** }
 305:lvgl/lvgl/src/misc/lv_ll.c **** 
 306:lvgl/lvgl/src/misc/lv_ll.c **** /**
 307:lvgl/lvgl/src/misc/lv_ll.c ****  * Return the length of the linked list.
 308:lvgl/lvgl/src/misc/lv_ll.c ****  * @param ll_p pointer to linked list
 309:lvgl/lvgl/src/misc/lv_ll.c ****  * @return length of the linked list
 310:lvgl/lvgl/src/misc/lv_ll.c ****  */
 311:lvgl/lvgl/src/misc/lv_ll.c **** uint32_t _lv_ll_get_len(const lv_ll_t * ll_p)
 312:lvgl/lvgl/src/misc/lv_ll.c **** {
 313:lvgl/lvgl/src/misc/lv_ll.c ****     uint32_t len = 0;
 314:lvgl/lvgl/src/misc/lv_ll.c ****     void * node;
 315:lvgl/lvgl/src/misc/lv_ll.c **** 
ARM GAS  C:\Users\gx\AppData\Local\Temp\ccMx9eiJ.s 			page 7


 316:lvgl/lvgl/src/misc/lv_ll.c ****     for(node = _lv_ll_get_head(ll_p); node != NULL; node = _lv_ll_get_next(ll_p, node)) {
 317:lvgl/lvgl/src/misc/lv_ll.c ****         len++;
 318:lvgl/lvgl/src/misc/lv_ll.c ****     }
 319:lvgl/lvgl/src/misc/lv_ll.c **** 
 320:lvgl/lvgl/src/misc/lv_ll.c ****     return len;
 321:lvgl/lvgl/src/misc/lv_ll.c **** }
 322:lvgl/lvgl/src/misc/lv_ll.c **** 
 323:lvgl/lvgl/src/misc/lv_ll.c **** /**
 324:lvgl/lvgl/src/misc/lv_ll.c ****  * Move a node before an other node in the same linked list
 325:lvgl/lvgl/src/misc/lv_ll.c ****  * @param ll_p pointer to a linked list
 326:lvgl/lvgl/src/misc/lv_ll.c ****  * @param n_act pointer to node to move
 327:lvgl/lvgl/src/misc/lv_ll.c ****  * @param n_after pointer to a node which should be after `n_act`
 328:lvgl/lvgl/src/misc/lv_ll.c ****  */
 329:lvgl/lvgl/src/misc/lv_ll.c **** void _lv_ll_move_before(lv_ll_t * ll_p, void * n_act, void * n_after)
 330:lvgl/lvgl/src/misc/lv_ll.c **** {
 331:lvgl/lvgl/src/misc/lv_ll.c ****     if(n_act == n_after) return; /*Can't move before itself*/
 332:lvgl/lvgl/src/misc/lv_ll.c **** 
 333:lvgl/lvgl/src/misc/lv_ll.c ****     void * n_before;
 334:lvgl/lvgl/src/misc/lv_ll.c ****     if(n_after != NULL)
 335:lvgl/lvgl/src/misc/lv_ll.c ****         n_before = _lv_ll_get_prev(ll_p, n_after);
 336:lvgl/lvgl/src/misc/lv_ll.c ****     else
 337:lvgl/lvgl/src/misc/lv_ll.c ****         n_before = _lv_ll_get_tail(ll_p); /*if `n_after` is NULL `n_act` should be the new tail*/
 338:lvgl/lvgl/src/misc/lv_ll.c **** 
 339:lvgl/lvgl/src/misc/lv_ll.c ****     if(n_act == n_before) return; /*Already before `n_after`*/
 340:lvgl/lvgl/src/misc/lv_ll.c **** 
 341:lvgl/lvgl/src/misc/lv_ll.c ****     /*It's much easier to remove from the list and add again*/
 342:lvgl/lvgl/src/misc/lv_ll.c ****     _lv_ll_remove(ll_p, n_act);
 343:lvgl/lvgl/src/misc/lv_ll.c **** 
 344:lvgl/lvgl/src/misc/lv_ll.c ****     /*Add again by setting the prev. and next nodes*/
 345:lvgl/lvgl/src/misc/lv_ll.c ****     node_set_next(ll_p, n_before, n_act);
 346:lvgl/lvgl/src/misc/lv_ll.c ****     node_set_prev(ll_p, n_act, n_before);
 347:lvgl/lvgl/src/misc/lv_ll.c ****     node_set_prev(ll_p, n_after, n_act);
 348:lvgl/lvgl/src/misc/lv_ll.c ****     node_set_next(ll_p, n_act, n_after);
 349:lvgl/lvgl/src/misc/lv_ll.c **** 
 350:lvgl/lvgl/src/misc/lv_ll.c ****     /*If `n_act` was moved before NULL then it become the new tail*/
 351:lvgl/lvgl/src/misc/lv_ll.c ****     if(n_after == NULL) ll_p->tail = n_act;
 352:lvgl/lvgl/src/misc/lv_ll.c **** 
 353:lvgl/lvgl/src/misc/lv_ll.c ****     /*If `n_act` was moved before `NULL` then it's the new head*/
 354:lvgl/lvgl/src/misc/lv_ll.c ****     if(n_before == NULL) ll_p->head = n_act;
 355:lvgl/lvgl/src/misc/lv_ll.c **** }
 356:lvgl/lvgl/src/misc/lv_ll.c **** 
 357:lvgl/lvgl/src/misc/lv_ll.c **** /**
 358:lvgl/lvgl/src/misc/lv_ll.c ****  * Check if a linked list is empty
 359:lvgl/lvgl/src/misc/lv_ll.c ****  * @param ll_p pointer to a linked list
 360:lvgl/lvgl/src/misc/lv_ll.c ****  * @return true: the linked list is empty; false: not empty
 361:lvgl/lvgl/src/misc/lv_ll.c ****  */
 362:lvgl/lvgl/src/misc/lv_ll.c **** bool _lv_ll_is_empty(lv_ll_t * ll_p)
 363:lvgl/lvgl/src/misc/lv_ll.c **** {
 364:lvgl/lvgl/src/misc/lv_ll.c ****     if(ll_p == NULL) return true;
 365:lvgl/lvgl/src/misc/lv_ll.c **** 
 366:lvgl/lvgl/src/misc/lv_ll.c ****     if(ll_p->head == NULL && ll_p->tail == NULL) return true;
 367:lvgl/lvgl/src/misc/lv_ll.c **** 
 368:lvgl/lvgl/src/misc/lv_ll.c ****     return false;
 369:lvgl/lvgl/src/misc/lv_ll.c **** }
 370:lvgl/lvgl/src/misc/lv_ll.c **** 
 371:lvgl/lvgl/src/misc/lv_ll.c **** /**********************
 372:lvgl/lvgl/src/misc/lv_ll.c ****  *   STATIC FUNCTIONS
ARM GAS  C:\Users\gx\AppData\Local\Temp\ccMx9eiJ.s 			page 8


 373:lvgl/lvgl/src/misc/lv_ll.c ****  **********************/
 374:lvgl/lvgl/src/misc/lv_ll.c **** 
 375:lvgl/lvgl/src/misc/lv_ll.c **** /**
 376:lvgl/lvgl/src/misc/lv_ll.c ****  * Set the previous node pointer of a node
 377:lvgl/lvgl/src/misc/lv_ll.c ****  * @param ll_p pointer to linked list
 378:lvgl/lvgl/src/misc/lv_ll.c ****  * @param act pointer to a node which prev. node pointer should be set
 379:lvgl/lvgl/src/misc/lv_ll.c ****  * @param prev pointer to a node which should be the previous node before 'act'
 380:lvgl/lvgl/src/misc/lv_ll.c ****  */
 381:lvgl/lvgl/src/misc/lv_ll.c **** static void node_set_prev(lv_ll_t * ll_p, lv_ll_node_t * act, lv_ll_node_t * prev)
 382:lvgl/lvgl/src/misc/lv_ll.c **** {
  29              		.loc 1 382 1 view -0
  30              		.cfi_startproc
  31              		@ args = 0, pretend = 0, frame = 0
  32              		@ frame_needed = 0, uses_anonymous_args = 0
  33              		@ link register save eliminated.
 383:lvgl/lvgl/src/misc/lv_ll.c ****     if(act == NULL) return; /*Can't set the prev node of `NULL`*/
  34              		.loc 1 383 5 view .LVU1
  35              		.loc 1 383 7 is_stmt 0 view .LVU2
  36 0000 0B46     		mov	r3, r1
  37 0002 09B1     		cbz	r1, .L1
 384:lvgl/lvgl/src/misc/lv_ll.c **** 
 385:lvgl/lvgl/src/misc/lv_ll.c ****     uint8_t * act8 = (uint8_t *)act;
  38              		.loc 1 385 5 is_stmt 1 view .LVU3
  39              	.LVL1:
 386:lvgl/lvgl/src/misc/lv_ll.c **** 
 387:lvgl/lvgl/src/misc/lv_ll.c ****     act8 += LL_PREV_P_OFFSET(ll_p);
  40              		.loc 1 387 5 view .LVU4
  41              		.loc 1 387 13 is_stmt 0 view .LVU5
  42 0004 0168     		ldr	r1, [r0]
  43              	.LVL2:
 388:lvgl/lvgl/src/misc/lv_ll.c **** 
 389:lvgl/lvgl/src/misc/lv_ll.c ****     lv_ll_node_t ** act_node_p = (lv_ll_node_t **) act8;
  44              		.loc 1 389 5 is_stmt 1 view .LVU6
 390:lvgl/lvgl/src/misc/lv_ll.c ****     lv_ll_node_t ** prev_node_p = (lv_ll_node_t **) &prev;
  45              		.loc 1 390 5 view .LVU7
 391:lvgl/lvgl/src/misc/lv_ll.c **** 
 392:lvgl/lvgl/src/misc/lv_ll.c ****     *act_node_p = *prev_node_p;
  46              		.loc 1 392 5 view .LVU8
  47              		.loc 1 392 17 is_stmt 0 view .LVU9
  48 0006 5A50     		str	r2, [r3, r1]
  49              	.LVL3:
  50              	.L1:
 393:lvgl/lvgl/src/misc/lv_ll.c **** }
  51              		.loc 1 393 1 view .LVU10
  52 0008 7047     		bx	lr
  53              		.cfi_endproc
  54              	.LFE15:
  56              		.section	.text.node_set_next,"ax",%progbits
  57              		.align	1
  58              		.syntax unified
  59              		.thumb
  60              		.thumb_func
  61              		.fpu fpv4-sp-d16
  63              	node_set_next:
  64              	.LVL4:
  65              	.LFB16:
 394:lvgl/lvgl/src/misc/lv_ll.c **** 
ARM GAS  C:\Users\gx\AppData\Local\Temp\ccMx9eiJ.s 			page 9


 395:lvgl/lvgl/src/misc/lv_ll.c **** /**
 396:lvgl/lvgl/src/misc/lv_ll.c ****  * Set the 'next node pointer' of a node
 397:lvgl/lvgl/src/misc/lv_ll.c ****  * @param ll_p pointer to linked list
 398:lvgl/lvgl/src/misc/lv_ll.c ****  * @param act pointer to a node which next node pointer should be set
 399:lvgl/lvgl/src/misc/lv_ll.c ****  * @param next pointer to a node which should be the next node before 'act'
 400:lvgl/lvgl/src/misc/lv_ll.c ****  */
 401:lvgl/lvgl/src/misc/lv_ll.c **** static void node_set_next(lv_ll_t * ll_p, lv_ll_node_t * act, lv_ll_node_t * next)
 402:lvgl/lvgl/src/misc/lv_ll.c **** {
  66              		.loc 1 402 1 is_stmt 1 view -0
  67              		.cfi_startproc
  68              		@ args = 0, pretend = 0, frame = 0
  69              		@ frame_needed = 0, uses_anonymous_args = 0
  70              		@ link register save eliminated.
 403:lvgl/lvgl/src/misc/lv_ll.c ****     if(act == NULL) return; /*Can't set the next node of `NULL`*/
  71              		.loc 1 403 5 view .LVU12
  72              		.loc 1 403 7 is_stmt 0 view .LVU13
  73 0000 31B1     		cbz	r1, .L6
 402:lvgl/lvgl/src/misc/lv_ll.c ****     if(act == NULL) return; /*Can't set the next node of `NULL`*/
  74              		.loc 1 402 1 view .LVU14
  75 0002 10B4     		push	{r4}
  76              	.LCFI0:
  77              		.cfi_def_cfa_offset 4
  78              		.cfi_offset 4, -4
 404:lvgl/lvgl/src/misc/lv_ll.c ****     uint8_t * act8 = (uint8_t *)act;
  79              		.loc 1 404 5 is_stmt 1 view .LVU15
  80              	.LVL5:
 405:lvgl/lvgl/src/misc/lv_ll.c **** 
 406:lvgl/lvgl/src/misc/lv_ll.c ****     act8 += LL_NEXT_P_OFFSET(ll_p);
  81              		.loc 1 406 5 view .LVU16
  82              		.loc 1 406 13 is_stmt 0 view .LVU17
  83 0004 0368     		ldr	r3, [r0]
  84              		.loc 1 406 10 view .LVU18
  85 0006 0433     		adds	r3, r3, #4
  86              	.LVL6:
 407:lvgl/lvgl/src/misc/lv_ll.c ****     lv_ll_node_t ** act_node_p = (lv_ll_node_t **) act8;
  87              		.loc 1 407 5 is_stmt 1 view .LVU19
 408:lvgl/lvgl/src/misc/lv_ll.c ****     lv_ll_node_t ** next_node_p = (lv_ll_node_t **) &next;
  88              		.loc 1 408 5 view .LVU20
 409:lvgl/lvgl/src/misc/lv_ll.c **** 
 410:lvgl/lvgl/src/misc/lv_ll.c ****     *act_node_p = *next_node_p;
  89              		.loc 1 410 5 view .LVU21
  90              		.loc 1 410 17 is_stmt 0 view .LVU22
  91 0008 CA50     		str	r2, [r1, r3]
 411:lvgl/lvgl/src/misc/lv_ll.c **** }
  92              		.loc 1 411 1 view .LVU23
  93 000a 5DF8044B 		ldr	r4, [sp], #4
  94              	.LCFI1:
  95              		.cfi_restore 4
  96              		.cfi_def_cfa_offset 0
  97 000e 7047     		bx	lr
  98              	.LVL7:
  99              	.L6:
 100              		.loc 1 411 1 view .LVU24
 101 0010 7047     		bx	lr
 102              		.cfi_endproc
 103              	.LFE16:
 105              		.section	.text._lv_ll_init,"ax",%progbits
ARM GAS  C:\Users\gx\AppData\Local\Temp\ccMx9eiJ.s 			page 10


 106              		.align	1
 107              		.global	_lv_ll_init
 108              		.syntax unified
 109              		.thumb
 110              		.thumb_func
 111              		.fpu fpv4-sp-d16
 113              	_lv_ll_init:
 114              	.LVL8:
 115              	.LFB1:
  51:lvgl/lvgl/src/misc/lv_ll.c ****     ll_p->head = NULL;
 116              		.loc 1 51 1 is_stmt 1 view -0
 117              		.cfi_startproc
 118              		@ args = 0, pretend = 0, frame = 0
 119              		@ frame_needed = 0, uses_anonymous_args = 0
 120              		@ link register save eliminated.
  52:lvgl/lvgl/src/misc/lv_ll.c ****     ll_p->tail = NULL;
 121              		.loc 1 52 5 view .LVU26
  52:lvgl/lvgl/src/misc/lv_ll.c ****     ll_p->tail = NULL;
 122              		.loc 1 52 16 is_stmt 0 view .LVU27
 123 0000 0023     		movs	r3, #0
 124 0002 4360     		str	r3, [r0, #4]
  53:lvgl/lvgl/src/misc/lv_ll.c **** #ifdef LV_ARCH_64
 125              		.loc 1 53 5 is_stmt 1 view .LVU28
  53:lvgl/lvgl/src/misc/lv_ll.c **** #ifdef LV_ARCH_64
 126              		.loc 1 53 16 is_stmt 0 view .LVU29
 127 0004 8360     		str	r3, [r0, #8]
  59:lvgl/lvgl/src/misc/lv_ll.c **** #endif
 128              		.loc 1 59 5 is_stmt 1 view .LVU30
  59:lvgl/lvgl/src/misc/lv_ll.c **** #endif
 129              		.loc 1 59 28 is_stmt 0 view .LVU31
 130 0006 0331     		adds	r1, r1, #3
 131              	.LVL9:
  59:lvgl/lvgl/src/misc/lv_ll.c **** #endif
 132              		.loc 1 59 15 view .LVU32
 133 0008 21F00301 		bic	r1, r1, #3
 134              	.LVL10:
  62:lvgl/lvgl/src/misc/lv_ll.c **** }
 135              		.loc 1 62 5 is_stmt 1 view .LVU33
  62:lvgl/lvgl/src/misc/lv_ll.c **** }
 136              		.loc 1 62 18 is_stmt 0 view .LVU34
 137 000c 0160     		str	r1, [r0]
  63:lvgl/lvgl/src/misc/lv_ll.c **** 
 138              		.loc 1 63 1 view .LVU35
 139 000e 7047     		bx	lr
 140              		.cfi_endproc
 141              	.LFE1:
 143              		.section	.text._lv_ll_ins_head,"ax",%progbits
 144              		.align	1
 145              		.global	_lv_ll_ins_head
 146              		.syntax unified
 147              		.thumb
 148              		.thumb_func
 149              		.fpu fpv4-sp-d16
 151              	_lv_ll_ins_head:
 152              	.LVL11:
 153              	.LFB2:
  71:lvgl/lvgl/src/misc/lv_ll.c ****     lv_ll_node_t * n_new;
ARM GAS  C:\Users\gx\AppData\Local\Temp\ccMx9eiJ.s 			page 11


 154              		.loc 1 71 1 is_stmt 1 view -0
 155              		.cfi_startproc
 156              		@ args = 0, pretend = 0, frame = 0
 157              		@ frame_needed = 0, uses_anonymous_args = 0
  71:lvgl/lvgl/src/misc/lv_ll.c ****     lv_ll_node_t * n_new;
 158              		.loc 1 71 1 is_stmt 0 view .LVU37
 159 0000 38B5     		push	{r3, r4, r5, lr}
 160              	.LCFI2:
 161              		.cfi_def_cfa_offset 16
 162              		.cfi_offset 3, -16
 163              		.cfi_offset 4, -12
 164              		.cfi_offset 5, -8
 165              		.cfi_offset 14, -4
 166 0002 0446     		mov	r4, r0
  72:lvgl/lvgl/src/misc/lv_ll.c **** 
 167              		.loc 1 72 5 is_stmt 1 view .LVU38
  74:lvgl/lvgl/src/misc/lv_ll.c **** 
 168              		.loc 1 74 5 view .LVU39
  74:lvgl/lvgl/src/misc/lv_ll.c **** 
 169              		.loc 1 74 30 is_stmt 0 view .LVU40
 170 0004 0068     		ldr	r0, [r0]
 171              	.LVL12:
  74:lvgl/lvgl/src/misc/lv_ll.c **** 
 172              		.loc 1 74 13 view .LVU41
 173 0006 0830     		adds	r0, r0, #8
 174 0008 FFF7FEFF 		bl	lv_mem_alloc
 175              	.LVL13:
  76:lvgl/lvgl/src/misc/lv_ll.c ****         node_set_prev(ll_p, n_new, NULL);       /*No prev. before the new head*/
 176              		.loc 1 76 5 is_stmt 1 view .LVU42
  76:lvgl/lvgl/src/misc/lv_ll.c ****         node_set_prev(ll_p, n_new, NULL);       /*No prev. before the new head*/
 177              		.loc 1 76 7 is_stmt 0 view .LVU43
 178 000c 0546     		mov	r5, r0
 179 000e 90B1     		cbz	r0, .L10
  77:lvgl/lvgl/src/misc/lv_ll.c ****         node_set_next(ll_p, n_new, ll_p->head); /*After new comes the old head*/
 180              		.loc 1 77 9 is_stmt 1 view .LVU44
 181 0010 0022     		movs	r2, #0
 182 0012 0146     		mov	r1, r0
 183 0014 2046     		mov	r0, r4
 184              	.LVL14:
  77:lvgl/lvgl/src/misc/lv_ll.c ****         node_set_next(ll_p, n_new, ll_p->head); /*After new comes the old head*/
 185              		.loc 1 77 9 is_stmt 0 view .LVU45
 186 0016 FFF7FEFF 		bl	node_set_prev
 187              	.LVL15:
  78:lvgl/lvgl/src/misc/lv_ll.c **** 
 188              		.loc 1 78 9 is_stmt 1 view .LVU46
 189 001a 6268     		ldr	r2, [r4, #4]
 190 001c 2946     		mov	r1, r5
 191 001e 2046     		mov	r0, r4
 192 0020 FFF7FEFF 		bl	node_set_next
 193              	.LVL16:
  80:lvgl/lvgl/src/misc/lv_ll.c ****             node_set_prev(ll_p, ll_p->head, n_new);
 194              		.loc 1 80 9 view .LVU47
  80:lvgl/lvgl/src/misc/lv_ll.c ****             node_set_prev(ll_p, ll_p->head, n_new);
 195              		.loc 1 80 16 is_stmt 0 view .LVU48
 196 0024 6168     		ldr	r1, [r4, #4]
  80:lvgl/lvgl/src/misc/lv_ll.c ****             node_set_prev(ll_p, ll_p->head, n_new);
 197              		.loc 1 80 11 view .LVU49
ARM GAS  C:\Users\gx\AppData\Local\Temp\ccMx9eiJ.s 			page 12


 198 0026 19B1     		cbz	r1, .L12
  81:lvgl/lvgl/src/misc/lv_ll.c ****         }
 199              		.loc 1 81 13 is_stmt 1 view .LVU50
 200 0028 2A46     		mov	r2, r5
 201 002a 2046     		mov	r0, r4
 202 002c FFF7FEFF 		bl	node_set_prev
 203              	.LVL17:
 204              	.L12:
  84:lvgl/lvgl/src/misc/lv_ll.c ****         if(ll_p->tail == NULL) { /*If there is no tail (1. node) set the tail too*/
 205              		.loc 1 84 9 view .LVU51
  84:lvgl/lvgl/src/misc/lv_ll.c ****         if(ll_p->tail == NULL) { /*If there is no tail (1. node) set the tail too*/
 206              		.loc 1 84 20 is_stmt 0 view .LVU52
 207 0030 6560     		str	r5, [r4, #4]
  85:lvgl/lvgl/src/misc/lv_ll.c ****             ll_p->tail = n_new;
 208              		.loc 1 85 9 is_stmt 1 view .LVU53
  85:lvgl/lvgl/src/misc/lv_ll.c ****             ll_p->tail = n_new;
 209              		.loc 1 85 16 is_stmt 0 view .LVU54
 210 0032 A368     		ldr	r3, [r4, #8]
  85:lvgl/lvgl/src/misc/lv_ll.c ****             ll_p->tail = n_new;
 211              		.loc 1 85 11 view .LVU55
 212 0034 0BB1     		cbz	r3, .L14
 213              	.L10:
  91:lvgl/lvgl/src/misc/lv_ll.c **** 
 214              		.loc 1 91 1 view .LVU56
 215 0036 2846     		mov	r0, r5
 216 0038 38BD     		pop	{r3, r4, r5, pc}
 217              	.LVL18:
 218              	.L14:
  86:lvgl/lvgl/src/misc/lv_ll.c ****         }
 219              		.loc 1 86 13 is_stmt 1 view .LVU57
  86:lvgl/lvgl/src/misc/lv_ll.c ****         }
 220              		.loc 1 86 24 is_stmt 0 view .LVU58
 221 003a A560     		str	r5, [r4, #8]
  90:lvgl/lvgl/src/misc/lv_ll.c **** }
 222              		.loc 1 90 5 is_stmt 1 view .LVU59
  90:lvgl/lvgl/src/misc/lv_ll.c **** }
 223              		.loc 1 90 12 is_stmt 0 view .LVU60
 224 003c FBE7     		b	.L10
 225              		.cfi_endproc
 226              	.LFE2:
 228              		.section	.text._lv_ll_ins_tail,"ax",%progbits
 229              		.align	1
 230              		.global	_lv_ll_ins_tail
 231              		.syntax unified
 232              		.thumb
 233              		.thumb_func
 234              		.fpu fpv4-sp-d16
 236              	_lv_ll_ins_tail:
 237              	.LVL19:
 238              	.LFB4:
 130:lvgl/lvgl/src/misc/lv_ll.c ****     lv_ll_node_t * n_new;
 239              		.loc 1 130 1 is_stmt 1 view -0
 240              		.cfi_startproc
 241              		@ args = 0, pretend = 0, frame = 0
 242              		@ frame_needed = 0, uses_anonymous_args = 0
 130:lvgl/lvgl/src/misc/lv_ll.c ****     lv_ll_node_t * n_new;
 243              		.loc 1 130 1 is_stmt 0 view .LVU62
ARM GAS  C:\Users\gx\AppData\Local\Temp\ccMx9eiJ.s 			page 13


 244 0000 38B5     		push	{r3, r4, r5, lr}
 245              	.LCFI3:
 246              		.cfi_def_cfa_offset 16
 247              		.cfi_offset 3, -16
 248              		.cfi_offset 4, -12
 249              		.cfi_offset 5, -8
 250              		.cfi_offset 14, -4
 251 0002 0446     		mov	r4, r0
 131:lvgl/lvgl/src/misc/lv_ll.c **** 
 252              		.loc 1 131 5 is_stmt 1 view .LVU63
 133:lvgl/lvgl/src/misc/lv_ll.c **** 
 253              		.loc 1 133 5 view .LVU64
 133:lvgl/lvgl/src/misc/lv_ll.c **** 
 254              		.loc 1 133 30 is_stmt 0 view .LVU65
 255 0004 0068     		ldr	r0, [r0]
 256              	.LVL20:
 133:lvgl/lvgl/src/misc/lv_ll.c **** 
 257              		.loc 1 133 13 view .LVU66
 258 0006 0830     		adds	r0, r0, #8
 259 0008 FFF7FEFF 		bl	lv_mem_alloc
 260              	.LVL21:
 135:lvgl/lvgl/src/misc/lv_ll.c ****         node_set_next(ll_p, n_new, NULL);       /*No next after the new tail*/
 261              		.loc 1 135 5 is_stmt 1 view .LVU67
 135:lvgl/lvgl/src/misc/lv_ll.c ****         node_set_next(ll_p, n_new, NULL);       /*No next after the new tail*/
 262              		.loc 1 135 7 is_stmt 0 view .LVU68
 263 000c 0546     		mov	r5, r0
 264 000e 90B1     		cbz	r0, .L15
 136:lvgl/lvgl/src/misc/lv_ll.c ****         node_set_prev(ll_p, n_new, ll_p->tail); /*The prev. before new is the old tail*/
 265              		.loc 1 136 9 is_stmt 1 view .LVU69
 266 0010 0022     		movs	r2, #0
 267 0012 0146     		mov	r1, r0
 268 0014 2046     		mov	r0, r4
 269              	.LVL22:
 136:lvgl/lvgl/src/misc/lv_ll.c ****         node_set_prev(ll_p, n_new, ll_p->tail); /*The prev. before new is the old tail*/
 270              		.loc 1 136 9 is_stmt 0 view .LVU70
 271 0016 FFF7FEFF 		bl	node_set_next
 272              	.LVL23:
 137:lvgl/lvgl/src/misc/lv_ll.c ****         if(ll_p->tail != NULL) {                /*If there is old tail then the new comes after it*
 273              		.loc 1 137 9 is_stmt 1 view .LVU71
 274 001a A268     		ldr	r2, [r4, #8]
 275 001c 2946     		mov	r1, r5
 276 001e 2046     		mov	r0, r4
 277 0020 FFF7FEFF 		bl	node_set_prev
 278              	.LVL24:
 138:lvgl/lvgl/src/misc/lv_ll.c ****             node_set_next(ll_p, ll_p->tail, n_new);
 279              		.loc 1 138 9 view .LVU72
 138:lvgl/lvgl/src/misc/lv_ll.c ****             node_set_next(ll_p, ll_p->tail, n_new);
 280              		.loc 1 138 16 is_stmt 0 view .LVU73
 281 0024 A168     		ldr	r1, [r4, #8]
 138:lvgl/lvgl/src/misc/lv_ll.c ****             node_set_next(ll_p, ll_p->tail, n_new);
 282              		.loc 1 138 11 view .LVU74
 283 0026 19B1     		cbz	r1, .L17
 139:lvgl/lvgl/src/misc/lv_ll.c ****         }
 284              		.loc 1 139 13 is_stmt 1 view .LVU75
 285 0028 2A46     		mov	r2, r5
 286 002a 2046     		mov	r0, r4
 287 002c FFF7FEFF 		bl	node_set_next
ARM GAS  C:\Users\gx\AppData\Local\Temp\ccMx9eiJ.s 			page 14


 288              	.LVL25:
 289              	.L17:
 142:lvgl/lvgl/src/misc/lv_ll.c ****         if(ll_p->head == NULL) { /*If there is no head (1. node) set the head too*/
 290              		.loc 1 142 9 view .LVU76
 142:lvgl/lvgl/src/misc/lv_ll.c ****         if(ll_p->head == NULL) { /*If there is no head (1. node) set the head too*/
 291              		.loc 1 142 20 is_stmt 0 view .LVU77
 292 0030 A560     		str	r5, [r4, #8]
 143:lvgl/lvgl/src/misc/lv_ll.c ****             ll_p->head = n_new;
 293              		.loc 1 143 9 is_stmt 1 view .LVU78
 143:lvgl/lvgl/src/misc/lv_ll.c ****             ll_p->head = n_new;
 294              		.loc 1 143 16 is_stmt 0 view .LVU79
 295 0032 6368     		ldr	r3, [r4, #4]
 143:lvgl/lvgl/src/misc/lv_ll.c ****             ll_p->head = n_new;
 296              		.loc 1 143 11 view .LVU80
 297 0034 0BB1     		cbz	r3, .L19
 298              	.L15:
 149:lvgl/lvgl/src/misc/lv_ll.c **** 
 299              		.loc 1 149 1 view .LVU81
 300 0036 2846     		mov	r0, r5
 301 0038 38BD     		pop	{r3, r4, r5, pc}
 302              	.LVL26:
 303              	.L19:
 144:lvgl/lvgl/src/misc/lv_ll.c ****         }
 304              		.loc 1 144 13 is_stmt 1 view .LVU82
 144:lvgl/lvgl/src/misc/lv_ll.c ****         }
 305              		.loc 1 144 24 is_stmt 0 view .LVU83
 306 003a 6560     		str	r5, [r4, #4]
 148:lvgl/lvgl/src/misc/lv_ll.c **** }
 307              		.loc 1 148 5 is_stmt 1 view .LVU84
 148:lvgl/lvgl/src/misc/lv_ll.c **** }
 308              		.loc 1 148 12 is_stmt 0 view .LVU85
 309 003c FBE7     		b	.L15
 310              		.cfi_endproc
 311              	.LFE4:
 313              		.section	.text._lv_ll_get_head,"ax",%progbits
 314              		.align	1
 315              		.global	_lv_ll_get_head
 316              		.syntax unified
 317              		.thumb
 318              		.thumb_func
 319              		.fpu fpv4-sp-d16
 321              	_lv_ll_get_head:
 322              	.LVL27:
 323              	.LFB8:
 260:lvgl/lvgl/src/misc/lv_ll.c ****     if(ll_p == NULL) return NULL;
 324              		.loc 1 260 1 is_stmt 1 view -0
 325              		.cfi_startproc
 326              		@ args = 0, pretend = 0, frame = 0
 327              		@ frame_needed = 0, uses_anonymous_args = 0
 328              		@ link register save eliminated.
 261:lvgl/lvgl/src/misc/lv_ll.c ****     return ll_p->head;
 329              		.loc 1 261 5 view .LVU87
 261:lvgl/lvgl/src/misc/lv_ll.c ****     return ll_p->head;
 330              		.loc 1 261 7 is_stmt 0 view .LVU88
 331 0000 08B1     		cbz	r0, .L22
 262:lvgl/lvgl/src/misc/lv_ll.c **** }
 332              		.loc 1 262 5 is_stmt 1 view .LVU89
ARM GAS  C:\Users\gx\AppData\Local\Temp\ccMx9eiJ.s 			page 15


 262:lvgl/lvgl/src/misc/lv_ll.c **** }
 333              		.loc 1 262 16 is_stmt 0 view .LVU90
 334 0002 4068     		ldr	r0, [r0, #4]
 335              	.LVL28:
 262:lvgl/lvgl/src/misc/lv_ll.c **** }
 336              		.loc 1 262 16 view .LVU91
 337 0004 7047     		bx	lr
 338              	.LVL29:
 339              	.L22:
 263:lvgl/lvgl/src/misc/lv_ll.c **** 
 340              		.loc 1 263 1 view .LVU92
 341 0006 7047     		bx	lr
 342              		.cfi_endproc
 343              	.LFE8:
 345              		.section	.text._lv_ll_get_tail,"ax",%progbits
 346              		.align	1
 347              		.global	_lv_ll_get_tail
 348              		.syntax unified
 349              		.thumb
 350              		.thumb_func
 351              		.fpu fpv4-sp-d16
 353              	_lv_ll_get_tail:
 354              	.LVL30:
 355              	.LFB9:
 271:lvgl/lvgl/src/misc/lv_ll.c ****     if(ll_p == NULL) return NULL;
 356              		.loc 1 271 1 is_stmt 1 view -0
 357              		.cfi_startproc
 358              		@ args = 0, pretend = 0, frame = 0
 359              		@ frame_needed = 0, uses_anonymous_args = 0
 360              		@ link register save eliminated.
 272:lvgl/lvgl/src/misc/lv_ll.c ****     return ll_p->tail;
 361              		.loc 1 272 5 view .LVU94
 272:lvgl/lvgl/src/misc/lv_ll.c ****     return ll_p->tail;
 362              		.loc 1 272 7 is_stmt 0 view .LVU95
 363 0000 08B1     		cbz	r0, .L25
 273:lvgl/lvgl/src/misc/lv_ll.c **** }
 364              		.loc 1 273 5 is_stmt 1 view .LVU96
 273:lvgl/lvgl/src/misc/lv_ll.c **** }
 365              		.loc 1 273 16 is_stmt 0 view .LVU97
 366 0002 8068     		ldr	r0, [r0, #8]
 367              	.LVL31:
 273:lvgl/lvgl/src/misc/lv_ll.c **** }
 368              		.loc 1 273 16 view .LVU98
 369 0004 7047     		bx	lr
 370              	.LVL32:
 371              	.L25:
 274:lvgl/lvgl/src/misc/lv_ll.c **** 
 372              		.loc 1 274 1 view .LVU99
 373 0006 7047     		bx	lr
 374              		.cfi_endproc
 375              	.LFE9:
 377              		.section	.text._lv_ll_get_next,"ax",%progbits
 378              		.align	1
 379              		.global	_lv_ll_get_next
 380              		.syntax unified
 381              		.thumb
 382              		.thumb_func
ARM GAS  C:\Users\gx\AppData\Local\Temp\ccMx9eiJ.s 			page 16


 383              		.fpu fpv4-sp-d16
 385              	_lv_ll_get_next:
 386              	.LVL33:
 387              	.LFB10:
 283:lvgl/lvgl/src/misc/lv_ll.c ****     /*Pointer to the next node is stored in the end of this node.
 388              		.loc 1 283 1 is_stmt 1 view -0
 389              		.cfi_startproc
 390              		@ args = 0, pretend = 0, frame = 0
 391              		@ frame_needed = 0, uses_anonymous_args = 0
 392              		@ link register save eliminated.
 286:lvgl/lvgl/src/misc/lv_ll.c ****     n_act_d += LL_NEXT_P_OFFSET(ll_p);
 393              		.loc 1 286 5 view .LVU101
 287:lvgl/lvgl/src/misc/lv_ll.c ****     return *((lv_ll_node_t **)n_act_d);
 394              		.loc 1 287 5 view .LVU102
 287:lvgl/lvgl/src/misc/lv_ll.c ****     return *((lv_ll_node_t **)n_act_d);
 395              		.loc 1 287 16 is_stmt 0 view .LVU103
 396 0000 0368     		ldr	r3, [r0]
 287:lvgl/lvgl/src/misc/lv_ll.c ****     return *((lv_ll_node_t **)n_act_d);
 397              		.loc 1 287 13 view .LVU104
 398 0002 0433     		adds	r3, r3, #4
 399              	.LVL34:
 288:lvgl/lvgl/src/misc/lv_ll.c **** }
 400              		.loc 1 288 5 is_stmt 1 view .LVU105
 289:lvgl/lvgl/src/misc/lv_ll.c **** 
 401              		.loc 1 289 1 is_stmt 0 view .LVU106
 402 0004 C858     		ldr	r0, [r1, r3]
 403              	.LVL35:
 289:lvgl/lvgl/src/misc/lv_ll.c **** 
 404              		.loc 1 289 1 view .LVU107
 405 0006 7047     		bx	lr
 406              		.cfi_endproc
 407              	.LFE10:
 409              		.section	.text._lv_ll_get_prev,"ax",%progbits
 410              		.align	1
 411              		.global	_lv_ll_get_prev
 412              		.syntax unified
 413              		.thumb
 414              		.thumb_func
 415              		.fpu fpv4-sp-d16
 417              	_lv_ll_get_prev:
 418              	.LVL36:
 419              	.LFB11:
 298:lvgl/lvgl/src/misc/lv_ll.c ****     /*Pointer to the prev. node is stored in the end of this node.
 420              		.loc 1 298 1 is_stmt 1 view -0
 421              		.cfi_startproc
 422              		@ args = 0, pretend = 0, frame = 0
 423              		@ frame_needed = 0, uses_anonymous_args = 0
 424              		@ link register save eliminated.
 301:lvgl/lvgl/src/misc/lv_ll.c ****     n_act_d += LL_PREV_P_OFFSET(ll_p);
 425              		.loc 1 301 5 view .LVU109
 302:lvgl/lvgl/src/misc/lv_ll.c ****     return *((lv_ll_node_t **)n_act_d);
 426              		.loc 1 302 5 view .LVU110
 302:lvgl/lvgl/src/misc/lv_ll.c ****     return *((lv_ll_node_t **)n_act_d);
 427              		.loc 1 302 16 is_stmt 0 view .LVU111
 428 0000 0368     		ldr	r3, [r0]
 429              	.LVL37:
 303:lvgl/lvgl/src/misc/lv_ll.c **** }
ARM GAS  C:\Users\gx\AppData\Local\Temp\ccMx9eiJ.s 			page 17


 430              		.loc 1 303 5 is_stmt 1 view .LVU112
 304:lvgl/lvgl/src/misc/lv_ll.c **** 
 431              		.loc 1 304 1 is_stmt 0 view .LVU113
 432 0002 C858     		ldr	r0, [r1, r3]
 433              	.LVL38:
 304:lvgl/lvgl/src/misc/lv_ll.c **** 
 434              		.loc 1 304 1 view .LVU114
 435 0004 7047     		bx	lr
 436              		.cfi_endproc
 437              	.LFE11:
 439              		.section	.text._lv_ll_ins_prev,"ax",%progbits
 440              		.align	1
 441              		.global	_lv_ll_ins_prev
 442              		.syntax unified
 443              		.thumb
 444              		.thumb_func
 445              		.fpu fpv4-sp-d16
 447              	_lv_ll_ins_prev:
 448              	.LVL39:
 449              	.LFB3:
 100:lvgl/lvgl/src/misc/lv_ll.c ****     lv_ll_node_t * n_new;
 450              		.loc 1 100 1 is_stmt 1 view -0
 451              		.cfi_startproc
 452              		@ args = 0, pretend = 0, frame = 0
 453              		@ frame_needed = 0, uses_anonymous_args = 0
 100:lvgl/lvgl/src/misc/lv_ll.c ****     lv_ll_node_t * n_new;
 454              		.loc 1 100 1 is_stmt 0 view .LVU116
 455 0000 F8B5     		push	{r3, r4, r5, r6, r7, lr}
 456              	.LCFI4:
 457              		.cfi_def_cfa_offset 24
 458              		.cfi_offset 3, -24
 459              		.cfi_offset 4, -20
 460              		.cfi_offset 5, -16
 461              		.cfi_offset 6, -12
 462              		.cfi_offset 7, -8
 463              		.cfi_offset 14, -4
 101:lvgl/lvgl/src/misc/lv_ll.c **** 
 464              		.loc 1 101 5 is_stmt 1 view .LVU117
 103:lvgl/lvgl/src/misc/lv_ll.c **** 
 465              		.loc 1 103 5 view .LVU118
 103:lvgl/lvgl/src/misc/lv_ll.c **** 
 466              		.loc 1 103 7 is_stmt 0 view .LVU119
 467 0002 0746     		mov	r7, r0
 468 0004 58B3     		cbz	r0, .L31
 469 0006 0C46     		mov	r4, r1
 103:lvgl/lvgl/src/misc/lv_ll.c **** 
 470              		.loc 1 103 21 discriminator 2 view .LVU120
 471 0008 59B3     		cbz	r1, .L32
 105:lvgl/lvgl/src/misc/lv_ll.c ****         n_new = _lv_ll_ins_head(ll_p);
 472              		.loc 1 105 5 is_stmt 1 view .LVU121
 105:lvgl/lvgl/src/misc/lv_ll.c ****         n_new = _lv_ll_ins_head(ll_p);
 473              		.loc 1 105 8 is_stmt 0 view .LVU122
 474 000a FFF7FEFF 		bl	_lv_ll_get_head
 475              	.LVL40:
 105:lvgl/lvgl/src/misc/lv_ll.c ****         n_new = _lv_ll_ins_head(ll_p);
 476              		.loc 1 105 7 view .LVU123
 477 000e 8442     		cmp	r4, r0
ARM GAS  C:\Users\gx\AppData\Local\Temp\ccMx9eiJ.s 			page 18


 478 0010 20D0     		beq	.L34
 479              	.LBB2:
 110:lvgl/lvgl/src/misc/lv_ll.c ****         if(n_new == NULL) return NULL;
 480              		.loc 1 110 9 is_stmt 1 view .LVU124
 110:lvgl/lvgl/src/misc/lv_ll.c ****         if(n_new == NULL) return NULL;
 481              		.loc 1 110 34 is_stmt 0 view .LVU125
 482 0012 3868     		ldr	r0, [r7]
 110:lvgl/lvgl/src/misc/lv_ll.c ****         if(n_new == NULL) return NULL;
 483              		.loc 1 110 17 view .LVU126
 484 0014 0830     		adds	r0, r0, #8
 485 0016 FFF7FEFF 		bl	lv_mem_alloc
 486              	.LVL41:
 111:lvgl/lvgl/src/misc/lv_ll.c **** 
 487              		.loc 1 111 9 is_stmt 1 view .LVU127
 111:lvgl/lvgl/src/misc/lv_ll.c **** 
 488              		.loc 1 111 11 is_stmt 0 view .LVU128
 489 001a 0546     		mov	r5, r0
 490 001c C0B1     		cbz	r0, .L28
 113:lvgl/lvgl/src/misc/lv_ll.c ****         n_prev = _lv_ll_get_prev(ll_p, n_act);
 491              		.loc 1 113 9 is_stmt 1 view .LVU129
 114:lvgl/lvgl/src/misc/lv_ll.c ****         node_set_next(ll_p, n_prev, n_new);
 492              		.loc 1 114 9 view .LVU130
 114:lvgl/lvgl/src/misc/lv_ll.c ****         node_set_next(ll_p, n_prev, n_new);
 493              		.loc 1 114 18 is_stmt 0 view .LVU131
 494 001e 2146     		mov	r1, r4
 495 0020 3846     		mov	r0, r7
 496              	.LVL42:
 114:lvgl/lvgl/src/misc/lv_ll.c ****         node_set_next(ll_p, n_prev, n_new);
 497              		.loc 1 114 18 view .LVU132
 498 0022 FFF7FEFF 		bl	_lv_ll_get_prev
 499              	.LVL43:
 500 0026 0646     		mov	r6, r0
 501              	.LVL44:
 115:lvgl/lvgl/src/misc/lv_ll.c ****         node_set_prev(ll_p, n_new, n_prev);
 502              		.loc 1 115 9 is_stmt 1 view .LVU133
 503 0028 2A46     		mov	r2, r5
 504 002a 0146     		mov	r1, r0
 505 002c 3846     		mov	r0, r7
 506              	.LVL45:
 115:lvgl/lvgl/src/misc/lv_ll.c ****         node_set_prev(ll_p, n_new, n_prev);
 507              		.loc 1 115 9 is_stmt 0 view .LVU134
 508 002e FFF7FEFF 		bl	node_set_next
 509              	.LVL46:
 116:lvgl/lvgl/src/misc/lv_ll.c ****         node_set_prev(ll_p, n_act, n_new);
 510              		.loc 1 116 9 is_stmt 1 view .LVU135
 511 0032 3246     		mov	r2, r6
 512 0034 2946     		mov	r1, r5
 513 0036 3846     		mov	r0, r7
 514 0038 FFF7FEFF 		bl	node_set_prev
 515              	.LVL47:
 117:lvgl/lvgl/src/misc/lv_ll.c ****         node_set_next(ll_p, n_new, n_act);
 516              		.loc 1 117 9 view .LVU136
 517 003c 2A46     		mov	r2, r5
 518 003e 2146     		mov	r1, r4
 519 0040 3846     		mov	r0, r7
 520 0042 FFF7FEFF 		bl	node_set_prev
 521              	.LVL48:
ARM GAS  C:\Users\gx\AppData\Local\Temp\ccMx9eiJ.s 			page 19


 118:lvgl/lvgl/src/misc/lv_ll.c ****     }
 522              		.loc 1 118 9 view .LVU137
 523 0046 2246     		mov	r2, r4
 524 0048 2946     		mov	r1, r5
 525 004a 3846     		mov	r0, r7
 526 004c FFF7FEFF 		bl	node_set_next
 527              	.LVL49:
 528              	.L28:
 118:lvgl/lvgl/src/misc/lv_ll.c ****     }
 529              		.loc 1 118 9 is_stmt 0 view .LVU138
 530              	.LBE2:
 122:lvgl/lvgl/src/misc/lv_ll.c **** 
 531              		.loc 1 122 1 view .LVU139
 532 0050 2846     		mov	r0, r5
 533 0052 F8BD     		pop	{r3, r4, r5, r6, r7, pc}
 534              	.LVL50:
 535              	.L34:
 106:lvgl/lvgl/src/misc/lv_ll.c ****         if(n_new == NULL) return NULL;
 536              		.loc 1 106 9 is_stmt 1 view .LVU140
 106:lvgl/lvgl/src/misc/lv_ll.c ****         if(n_new == NULL) return NULL;
 537              		.loc 1 106 17 is_stmt 0 view .LVU141
 538 0054 3846     		mov	r0, r7
 539 0056 FFF7FEFF 		bl	_lv_ll_ins_head
 540              	.LVL51:
 541 005a 0546     		mov	r5, r0
 542              	.LVL52:
 107:lvgl/lvgl/src/misc/lv_ll.c ****     }
 543              		.loc 1 107 9 is_stmt 1 view .LVU142
 544 005c F8E7     		b	.L28
 545              	.LVL53:
 546              	.L31:
 103:lvgl/lvgl/src/misc/lv_ll.c **** 
 547              		.loc 1 103 46 is_stmt 0 view .LVU143
 548 005e 0546     		mov	r5, r0
 549 0060 F6E7     		b	.L28
 550              	.L32:
 103:lvgl/lvgl/src/misc/lv_ll.c **** 
 551              		.loc 1 103 46 view .LVU144
 552 0062 0D46     		mov	r5, r1
 553 0064 F4E7     		b	.L28
 554              		.cfi_endproc
 555              	.LFE3:
 557              		.section	.text._lv_ll_remove,"ax",%progbits
 558              		.align	1
 559              		.global	_lv_ll_remove
 560              		.syntax unified
 561              		.thumb
 562              		.thumb_func
 563              		.fpu fpv4-sp-d16
 565              	_lv_ll_remove:
 566              	.LVL54:
 567              	.LFB5:
 158:lvgl/lvgl/src/misc/lv_ll.c ****     if(ll_p == NULL) return;
 568              		.loc 1 158 1 is_stmt 1 view -0
 569              		.cfi_startproc
 570              		@ args = 0, pretend = 0, frame = 0
 571              		@ frame_needed = 0, uses_anonymous_args = 0
ARM GAS  C:\Users\gx\AppData\Local\Temp\ccMx9eiJ.s 			page 20


 159:lvgl/lvgl/src/misc/lv_ll.c **** 
 572              		.loc 1 159 5 view .LVU146
 159:lvgl/lvgl/src/misc/lv_ll.c **** 
 573              		.loc 1 159 7 is_stmt 0 view .LVU147
 574 0000 0028     		cmp	r0, #0
 575 0002 3ED0     		beq	.L42
 158:lvgl/lvgl/src/misc/lv_ll.c ****     if(ll_p == NULL) return;
 576              		.loc 1 158 1 view .LVU148
 577 0004 70B5     		push	{r4, r5, r6, lr}
 578              	.LCFI5:
 579              		.cfi_def_cfa_offset 16
 580              		.cfi_offset 4, -16
 581              		.cfi_offset 5, -12
 582              		.cfi_offset 6, -8
 583              		.cfi_offset 14, -4
 584 0006 0C46     		mov	r4, r1
 585 0008 0546     		mov	r5, r0
 161:lvgl/lvgl/src/misc/lv_ll.c ****         /*The new head will be the node after 'n_act'*/
 586              		.loc 1 161 5 is_stmt 1 view .LVU149
 161:lvgl/lvgl/src/misc/lv_ll.c ****         /*The new head will be the node after 'n_act'*/
 587              		.loc 1 161 8 is_stmt 0 view .LVU150
 588 000a FFF7FEFF 		bl	_lv_ll_get_head
 589              	.LVL55:
 161:lvgl/lvgl/src/misc/lv_ll.c ****         /*The new head will be the node after 'n_act'*/
 590              		.loc 1 161 7 view .LVU151
 591 000e 8442     		cmp	r4, r0
 592 0010 19D0     		beq	.L45
 171:lvgl/lvgl/src/misc/lv_ll.c ****         /*The new tail will be the node before 'n_act'*/
 593              		.loc 1 171 10 is_stmt 1 view .LVU152
 171:lvgl/lvgl/src/misc/lv_ll.c ****         /*The new tail will be the node before 'n_act'*/
 594              		.loc 1 171 13 is_stmt 0 view .LVU153
 595 0012 2846     		mov	r0, r5
 596 0014 FFF7FEFF 		bl	_lv_ll_get_tail
 597              	.LVL56:
 171:lvgl/lvgl/src/misc/lv_ll.c ****         /*The new tail will be the node before 'n_act'*/
 598              		.loc 1 171 12 view .LVU154
 599 0018 8442     		cmp	r4, r0
 600 001a 23D0     		beq	.L46
 601              	.LBB3:
 182:lvgl/lvgl/src/misc/lv_ll.c ****         lv_ll_node_t * n_next = _lv_ll_get_next(ll_p, node_p);
 602              		.loc 1 182 9 is_stmt 1 view .LVU155
 182:lvgl/lvgl/src/misc/lv_ll.c ****         lv_ll_node_t * n_next = _lv_ll_get_next(ll_p, node_p);
 603              		.loc 1 182 33 is_stmt 0 view .LVU156
 604 001c 2146     		mov	r1, r4
 605 001e 2846     		mov	r0, r5
 606 0020 FFF7FEFF 		bl	_lv_ll_get_prev
 607              	.LVL57:
 608 0024 0646     		mov	r6, r0
 609              	.LVL58:
 183:lvgl/lvgl/src/misc/lv_ll.c **** 
 610              		.loc 1 183 9 is_stmt 1 view .LVU157
 183:lvgl/lvgl/src/misc/lv_ll.c **** 
 611              		.loc 1 183 33 is_stmt 0 view .LVU158
 612 0026 2146     		mov	r1, r4
 613 0028 2846     		mov	r0, r5
 614              	.LVL59:
 183:lvgl/lvgl/src/misc/lv_ll.c **** 
ARM GAS  C:\Users\gx\AppData\Local\Temp\ccMx9eiJ.s 			page 21


 615              		.loc 1 183 33 view .LVU159
 616 002a FFF7FEFF 		bl	_lv_ll_get_next
 617              	.LVL60:
 618 002e 0446     		mov	r4, r0
 619              	.LVL61:
 185:lvgl/lvgl/src/misc/lv_ll.c ****         node_set_prev(ll_p, n_next, n_prev);
 620              		.loc 1 185 9 is_stmt 1 view .LVU160
 621 0030 0246     		mov	r2, r0
 622 0032 3146     		mov	r1, r6
 623 0034 2846     		mov	r0, r5
 624              	.LVL62:
 185:lvgl/lvgl/src/misc/lv_ll.c ****         node_set_prev(ll_p, n_next, n_prev);
 625              		.loc 1 185 9 is_stmt 0 view .LVU161
 626 0036 FFF7FEFF 		bl	node_set_next
 627              	.LVL63:
 186:lvgl/lvgl/src/misc/lv_ll.c ****     }
 628              		.loc 1 186 9 is_stmt 1 view .LVU162
 629 003a 3246     		mov	r2, r6
 630 003c 2146     		mov	r1, r4
 631 003e 2846     		mov	r0, r5
 632 0040 FFF7FEFF 		bl	node_set_prev
 633              	.LVL64:
 634              	.L35:
 186:lvgl/lvgl/src/misc/lv_ll.c ****     }
 635              		.loc 1 186 9 is_stmt 0 view .LVU163
 636              	.LBE3:
 188:lvgl/lvgl/src/misc/lv_ll.c **** 
 637              		.loc 1 188 1 view .LVU164
 638 0044 70BD     		pop	{r4, r5, r6, pc}
 639              	.LVL65:
 640              	.L45:
 163:lvgl/lvgl/src/misc/lv_ll.c ****         if(ll_p->head == NULL) {
 641              		.loc 1 163 9 is_stmt 1 view .LVU165
 163:lvgl/lvgl/src/misc/lv_ll.c ****         if(ll_p->head == NULL) {
 642              		.loc 1 163 22 is_stmt 0 view .LVU166
 643 0046 2146     		mov	r1, r4
 644 0048 2846     		mov	r0, r5
 645 004a FFF7FEFF 		bl	_lv_ll_get_next
 646              	.LVL66:
 647 004e 0146     		mov	r1, r0
 163:lvgl/lvgl/src/misc/lv_ll.c ****         if(ll_p->head == NULL) {
 648              		.loc 1 163 20 view .LVU167
 649 0050 6860     		str	r0, [r5, #4]
 164:lvgl/lvgl/src/misc/lv_ll.c ****             ll_p->tail = NULL;
 650              		.loc 1 164 9 is_stmt 1 view .LVU168
 164:lvgl/lvgl/src/misc/lv_ll.c ****             ll_p->tail = NULL;
 651              		.loc 1 164 11 is_stmt 0 view .LVU169
 652 0052 20B1     		cbz	r0, .L47
 168:lvgl/lvgl/src/misc/lv_ll.c ****         }
 653              		.loc 1 168 13 is_stmt 1 view .LVU170
 654 0054 0022     		movs	r2, #0
 655 0056 2846     		mov	r0, r5
 656 0058 FFF7FEFF 		bl	node_set_prev
 657              	.LVL67:
 658 005c F2E7     		b	.L35
 659              	.L47:
 165:lvgl/lvgl/src/misc/lv_ll.c ****         }
ARM GAS  C:\Users\gx\AppData\Local\Temp\ccMx9eiJ.s 			page 22


 660              		.loc 1 165 13 view .LVU171
 165:lvgl/lvgl/src/misc/lv_ll.c ****         }
 661              		.loc 1 165 24 is_stmt 0 view .LVU172
 662 005e 0023     		movs	r3, #0
 663 0060 AB60     		str	r3, [r5, #8]
 664 0062 EFE7     		b	.L35
 665              	.L46:
 173:lvgl/lvgl/src/misc/lv_ll.c ****         if(ll_p->tail == NULL) {
 666              		.loc 1 173 9 is_stmt 1 view .LVU173
 173:lvgl/lvgl/src/misc/lv_ll.c ****         if(ll_p->tail == NULL) {
 667              		.loc 1 173 22 is_stmt 0 view .LVU174
 668 0064 2146     		mov	r1, r4
 669 0066 2846     		mov	r0, r5
 670 0068 FFF7FEFF 		bl	_lv_ll_get_prev
 671              	.LVL68:
 672 006c 0146     		mov	r1, r0
 173:lvgl/lvgl/src/misc/lv_ll.c ****         if(ll_p->tail == NULL) {
 673              		.loc 1 173 20 view .LVU175
 674 006e A860     		str	r0, [r5, #8]
 174:lvgl/lvgl/src/misc/lv_ll.c ****             ll_p->head = NULL;
 675              		.loc 1 174 9 is_stmt 1 view .LVU176
 174:lvgl/lvgl/src/misc/lv_ll.c ****             ll_p->head = NULL;
 676              		.loc 1 174 11 is_stmt 0 view .LVU177
 677 0070 20B1     		cbz	r0, .L48
 178:lvgl/lvgl/src/misc/lv_ll.c ****         }
 678              		.loc 1 178 13 is_stmt 1 view .LVU178
 679 0072 0022     		movs	r2, #0
 680 0074 2846     		mov	r0, r5
 681 0076 FFF7FEFF 		bl	node_set_next
 682              	.LVL69:
 683 007a E3E7     		b	.L35
 684              	.L48:
 175:lvgl/lvgl/src/misc/lv_ll.c ****         }
 685              		.loc 1 175 13 view .LVU179
 175:lvgl/lvgl/src/misc/lv_ll.c ****         }
 686              		.loc 1 175 24 is_stmt 0 view .LVU180
 687 007c 0023     		movs	r3, #0
 688 007e 6B60     		str	r3, [r5, #4]
 689 0080 E0E7     		b	.L35
 690              	.LVL70:
 691              	.L42:
 692              	.LCFI6:
 693              		.cfi_def_cfa_offset 0
 694              		.cfi_restore 4
 695              		.cfi_restore 5
 696              		.cfi_restore 6
 697              		.cfi_restore 14
 175:lvgl/lvgl/src/misc/lv_ll.c ****         }
 698              		.loc 1 175 24 view .LVU181
 699 0082 7047     		bx	lr
 700              		.cfi_endproc
 701              	.LFE5:
 703              		.section	.text._lv_ll_clear,"ax",%progbits
 704              		.align	1
 705              		.global	_lv_ll_clear
 706              		.syntax unified
 707              		.thumb
ARM GAS  C:\Users\gx\AppData\Local\Temp\ccMx9eiJ.s 			page 23


 708              		.thumb_func
 709              		.fpu fpv4-sp-d16
 711              	_lv_ll_clear:
 712              	.LVL71:
 713              	.LFB6:
 195:lvgl/lvgl/src/misc/lv_ll.c ****     void * i;
 714              		.loc 1 195 1 is_stmt 1 view -0
 715              		.cfi_startproc
 716              		@ args = 0, pretend = 0, frame = 0
 717              		@ frame_needed = 0, uses_anonymous_args = 0
 195:lvgl/lvgl/src/misc/lv_ll.c ****     void * i;
 718              		.loc 1 195 1 is_stmt 0 view .LVU183
 719 0000 70B5     		push	{r4, r5, r6, lr}
 720              	.LCFI7:
 721              		.cfi_def_cfa_offset 16
 722              		.cfi_offset 4, -16
 723              		.cfi_offset 5, -12
 724              		.cfi_offset 6, -8
 725              		.cfi_offset 14, -4
 726 0002 0646     		mov	r6, r0
 196:lvgl/lvgl/src/misc/lv_ll.c ****     void * i_next;
 727              		.loc 1 196 5 is_stmt 1 view .LVU184
 197:lvgl/lvgl/src/misc/lv_ll.c **** 
 728              		.loc 1 197 5 view .LVU185
 199:lvgl/lvgl/src/misc/lv_ll.c ****     i_next = NULL;
 729              		.loc 1 199 5 view .LVU186
 199:lvgl/lvgl/src/misc/lv_ll.c ****     i_next = NULL;
 730              		.loc 1 199 14 is_stmt 0 view .LVU187
 731 0004 FFF7FEFF 		bl	_lv_ll_get_head
 732              	.LVL72:
 199:lvgl/lvgl/src/misc/lv_ll.c ****     i_next = NULL;
 733              		.loc 1 199 14 view .LVU188
 734 0008 0446     		mov	r4, r0
 735              	.LVL73:
 200:lvgl/lvgl/src/misc/lv_ll.c **** 
 736              		.loc 1 200 5 is_stmt 1 view .LVU189
 202:lvgl/lvgl/src/misc/lv_ll.c ****         i_next = _lv_ll_get_next(ll_p, i);
 737              		.loc 1 202 5 view .LVU190
 738              	.L50:
 202:lvgl/lvgl/src/misc/lv_ll.c ****         i_next = _lv_ll_get_next(ll_p, i);
 739              		.loc 1 202 10 view .LVU191
 740 000a 6CB1     		cbz	r4, .L53
 203:lvgl/lvgl/src/misc/lv_ll.c **** 
 741              		.loc 1 203 9 view .LVU192
 203:lvgl/lvgl/src/misc/lv_ll.c **** 
 742              		.loc 1 203 18 is_stmt 0 view .LVU193
 743 000c 2146     		mov	r1, r4
 744 000e 3046     		mov	r0, r6
 745 0010 FFF7FEFF 		bl	_lv_ll_get_next
 746              	.LVL74:
 747 0014 0546     		mov	r5, r0
 748              	.LVL75:
 205:lvgl/lvgl/src/misc/lv_ll.c ****         lv_mem_free(i);
 749              		.loc 1 205 9 is_stmt 1 view .LVU194
 750 0016 2146     		mov	r1, r4
 751 0018 3046     		mov	r0, r6
 752              	.LVL76:
ARM GAS  C:\Users\gx\AppData\Local\Temp\ccMx9eiJ.s 			page 24


 205:lvgl/lvgl/src/misc/lv_ll.c ****         lv_mem_free(i);
 753              		.loc 1 205 9 is_stmt 0 view .LVU195
 754 001a FFF7FEFF 		bl	_lv_ll_remove
 755              	.LVL77:
 206:lvgl/lvgl/src/misc/lv_ll.c **** 
 756              		.loc 1 206 9 is_stmt 1 view .LVU196
 757 001e 2046     		mov	r0, r4
 758 0020 FFF7FEFF 		bl	lv_mem_free
 759              	.LVL78:
 208:lvgl/lvgl/src/misc/lv_ll.c ****     }
 760              		.loc 1 208 9 view .LVU197
 208:lvgl/lvgl/src/misc/lv_ll.c ****     }
 761              		.loc 1 208 11 is_stmt 0 view .LVU198
 762 0024 2C46     		mov	r4, r5
 763 0026 F0E7     		b	.L50
 764              	.LVL79:
 765              	.L53:
 210:lvgl/lvgl/src/misc/lv_ll.c **** 
 766              		.loc 1 210 1 view .LVU199
 767 0028 70BD     		pop	{r4, r5, r6, pc}
 210:lvgl/lvgl/src/misc/lv_ll.c **** 
 768              		.loc 1 210 1 view .LVU200
 769              		.cfi_endproc
 770              	.LFE6:
 772              		.section	.text._lv_ll_chg_list,"ax",%progbits
 773              		.align	1
 774              		.global	_lv_ll_chg_list
 775              		.syntax unified
 776              		.thumb
 777              		.thumb_func
 778              		.fpu fpv4-sp-d16
 780              	_lv_ll_chg_list:
 781              	.LVL80:
 782              	.LFB7:
 221:lvgl/lvgl/src/misc/lv_ll.c ****     _lv_ll_remove(ll_ori_p, node);
 783              		.loc 1 221 1 is_stmt 1 view -0
 784              		.cfi_startproc
 785              		@ args = 0, pretend = 0, frame = 0
 786              		@ frame_needed = 0, uses_anonymous_args = 0
 221:lvgl/lvgl/src/misc/lv_ll.c ****     _lv_ll_remove(ll_ori_p, node);
 787              		.loc 1 221 1 is_stmt 0 view .LVU202
 788 0000 70B5     		push	{r4, r5, r6, lr}
 789              	.LCFI8:
 790              		.cfi_def_cfa_offset 16
 791              		.cfi_offset 4, -16
 792              		.cfi_offset 5, -12
 793              		.cfi_offset 6, -8
 794              		.cfi_offset 14, -4
 795 0002 0C46     		mov	r4, r1
 796 0004 1546     		mov	r5, r2
 797 0006 1E46     		mov	r6, r3
 222:lvgl/lvgl/src/misc/lv_ll.c **** 
 798              		.loc 1 222 5 is_stmt 1 view .LVU203
 799 0008 1146     		mov	r1, r2
 800              	.LVL81:
 222:lvgl/lvgl/src/misc/lv_ll.c **** 
 801              		.loc 1 222 5 is_stmt 0 view .LVU204
ARM GAS  C:\Users\gx\AppData\Local\Temp\ccMx9eiJ.s 			page 25


 802 000a FFF7FEFF 		bl	_lv_ll_remove
 803              	.LVL82:
 224:lvgl/lvgl/src/misc/lv_ll.c ****         /*Set node as head*/
 804              		.loc 1 224 5 is_stmt 1 view .LVU205
 224:lvgl/lvgl/src/misc/lv_ll.c ****         /*Set node as head*/
 805              		.loc 1 224 7 is_stmt 0 view .LVU206
 806 000e AEB1     		cbz	r6, .L55
 226:lvgl/lvgl/src/misc/lv_ll.c ****         node_set_next(ll_new_p, node, ll_new_p->head);
 807              		.loc 1 226 9 is_stmt 1 view .LVU207
 808 0010 0022     		movs	r2, #0
 809 0012 2946     		mov	r1, r5
 810 0014 2046     		mov	r0, r4
 811 0016 FFF7FEFF 		bl	node_set_prev
 812              	.LVL83:
 227:lvgl/lvgl/src/misc/lv_ll.c **** 
 813              		.loc 1 227 9 view .LVU208
 814 001a 6268     		ldr	r2, [r4, #4]
 815 001c 2946     		mov	r1, r5
 816 001e 2046     		mov	r0, r4
 817 0020 FFF7FEFF 		bl	node_set_next
 818              	.LVL84:
 229:lvgl/lvgl/src/misc/lv_ll.c ****             node_set_prev(ll_new_p, ll_new_p->head, node);
 819              		.loc 1 229 9 view .LVU209
 229:lvgl/lvgl/src/misc/lv_ll.c ****             node_set_prev(ll_new_p, ll_new_p->head, node);
 820              		.loc 1 229 20 is_stmt 0 view .LVU210
 821 0024 6168     		ldr	r1, [r4, #4]
 229:lvgl/lvgl/src/misc/lv_ll.c ****             node_set_prev(ll_new_p, ll_new_p->head, node);
 822              		.loc 1 229 11 view .LVU211
 823 0026 19B1     		cbz	r1, .L56
 230:lvgl/lvgl/src/misc/lv_ll.c ****         }
 824              		.loc 1 230 13 is_stmt 1 view .LVU212
 825 0028 2A46     		mov	r2, r5
 826 002a 2046     		mov	r0, r4
 827 002c FFF7FEFF 		bl	node_set_prev
 828              	.LVL85:
 829              	.L56:
 233:lvgl/lvgl/src/misc/lv_ll.c ****         if(ll_new_p->tail == NULL) { /*If there is no tail (first node) set the tail too*/
 830              		.loc 1 233 9 view .LVU213
 233:lvgl/lvgl/src/misc/lv_ll.c ****         if(ll_new_p->tail == NULL) { /*If there is no tail (first node) set the tail too*/
 831              		.loc 1 233 24 is_stmt 0 view .LVU214
 832 0030 6560     		str	r5, [r4, #4]
 234:lvgl/lvgl/src/misc/lv_ll.c ****             ll_new_p->tail = node;
 833              		.loc 1 234 9 is_stmt 1 view .LVU215
 234:lvgl/lvgl/src/misc/lv_ll.c ****             ll_new_p->tail = node;
 834              		.loc 1 234 20 is_stmt 0 view .LVU216
 835 0032 A368     		ldr	r3, [r4, #8]
 234:lvgl/lvgl/src/misc/lv_ll.c ****             ll_new_p->tail = node;
 836              		.loc 1 234 11 view .LVU217
 837 0034 03B1     		cbz	r3, .L60
 838              	.L54:
 252:lvgl/lvgl/src/misc/lv_ll.c **** 
 839              		.loc 1 252 1 view .LVU218
 840 0036 70BD     		pop	{r4, r5, r6, pc}
 841              	.LVL86:
 842              	.L60:
 235:lvgl/lvgl/src/misc/lv_ll.c ****         }
 843              		.loc 1 235 13 is_stmt 1 view .LVU219
ARM GAS  C:\Users\gx\AppData\Local\Temp\ccMx9eiJ.s 			page 26


 235:lvgl/lvgl/src/misc/lv_ll.c ****         }
 844              		.loc 1 235 28 is_stmt 0 view .LVU220
 845 0038 A560     		str	r5, [r4, #8]
 846 003a FCE7     		b	.L54
 847              	.L55:
 240:lvgl/lvgl/src/misc/lv_ll.c ****         node_set_next(ll_new_p, node, NULL);
 848              		.loc 1 240 9 is_stmt 1 view .LVU221
 849 003c A268     		ldr	r2, [r4, #8]
 850 003e 2946     		mov	r1, r5
 851 0040 2046     		mov	r0, r4
 852 0042 FFF7FEFF 		bl	node_set_prev
 853              	.LVL87:
 241:lvgl/lvgl/src/misc/lv_ll.c **** 
 854              		.loc 1 241 9 view .LVU222
 855 0046 0022     		movs	r2, #0
 856 0048 2946     		mov	r1, r5
 857 004a 2046     		mov	r0, r4
 858 004c FFF7FEFF 		bl	node_set_next
 859              	.LVL88:
 243:lvgl/lvgl/src/misc/lv_ll.c ****             node_set_next(ll_new_p, ll_new_p->tail, node);
 860              		.loc 1 243 9 view .LVU223
 243:lvgl/lvgl/src/misc/lv_ll.c ****             node_set_next(ll_new_p, ll_new_p->tail, node);
 861              		.loc 1 243 20 is_stmt 0 view .LVU224
 862 0050 A168     		ldr	r1, [r4, #8]
 243:lvgl/lvgl/src/misc/lv_ll.c ****             node_set_next(ll_new_p, ll_new_p->tail, node);
 863              		.loc 1 243 11 view .LVU225
 864 0052 19B1     		cbz	r1, .L58
 244:lvgl/lvgl/src/misc/lv_ll.c ****         }
 865              		.loc 1 244 13 is_stmt 1 view .LVU226
 866 0054 2A46     		mov	r2, r5
 867 0056 2046     		mov	r0, r4
 868 0058 FFF7FEFF 		bl	node_set_next
 869              	.LVL89:
 870              	.L58:
 247:lvgl/lvgl/src/misc/lv_ll.c ****         if(ll_new_p->head == NULL) { /*If there is no head (first node) set the head too*/
 871              		.loc 1 247 9 view .LVU227
 247:lvgl/lvgl/src/misc/lv_ll.c ****         if(ll_new_p->head == NULL) { /*If there is no head (first node) set the head too*/
 872              		.loc 1 247 24 is_stmt 0 view .LVU228
 873 005c A560     		str	r5, [r4, #8]
 248:lvgl/lvgl/src/misc/lv_ll.c ****             ll_new_p->head = node;
 874              		.loc 1 248 9 is_stmt 1 view .LVU229
 248:lvgl/lvgl/src/misc/lv_ll.c ****             ll_new_p->head = node;
 875              		.loc 1 248 20 is_stmt 0 view .LVU230
 876 005e 6368     		ldr	r3, [r4, #4]
 248:lvgl/lvgl/src/misc/lv_ll.c ****             ll_new_p->head = node;
 877              		.loc 1 248 11 view .LVU231
 878 0060 002B     		cmp	r3, #0
 879 0062 E8D1     		bne	.L54
 249:lvgl/lvgl/src/misc/lv_ll.c ****         }
 880              		.loc 1 249 13 is_stmt 1 view .LVU232
 249:lvgl/lvgl/src/misc/lv_ll.c ****         }
 881              		.loc 1 249 28 is_stmt 0 view .LVU233
 882 0064 6560     		str	r5, [r4, #4]
 252:lvgl/lvgl/src/misc/lv_ll.c **** 
 883              		.loc 1 252 1 view .LVU234
 884 0066 E6E7     		b	.L54
 885              		.cfi_endproc
ARM GAS  C:\Users\gx\AppData\Local\Temp\ccMx9eiJ.s 			page 27


 886              	.LFE7:
 888              		.section	.text._lv_ll_get_len,"ax",%progbits
 889              		.align	1
 890              		.global	_lv_ll_get_len
 891              		.syntax unified
 892              		.thumb
 893              		.thumb_func
 894              		.fpu fpv4-sp-d16
 896              	_lv_ll_get_len:
 897              	.LVL90:
 898              	.LFB12:
 312:lvgl/lvgl/src/misc/lv_ll.c ****     uint32_t len = 0;
 899              		.loc 1 312 1 is_stmt 1 view -0
 900              		.cfi_startproc
 901              		@ args = 0, pretend = 0, frame = 0
 902              		@ frame_needed = 0, uses_anonymous_args = 0
 312:lvgl/lvgl/src/misc/lv_ll.c ****     uint32_t len = 0;
 903              		.loc 1 312 1 is_stmt 0 view .LVU236
 904 0000 38B5     		push	{r3, r4, r5, lr}
 905              	.LCFI9:
 906              		.cfi_def_cfa_offset 16
 907              		.cfi_offset 3, -16
 908              		.cfi_offset 4, -12
 909              		.cfi_offset 5, -8
 910              		.cfi_offset 14, -4
 911 0002 0546     		mov	r5, r0
 313:lvgl/lvgl/src/misc/lv_ll.c ****     void * node;
 912              		.loc 1 313 5 is_stmt 1 view .LVU237
 913              	.LVL91:
 314:lvgl/lvgl/src/misc/lv_ll.c **** 
 914              		.loc 1 314 5 view .LVU238
 316:lvgl/lvgl/src/misc/lv_ll.c ****         len++;
 915              		.loc 1 316 5 view .LVU239
 316:lvgl/lvgl/src/misc/lv_ll.c ****         len++;
 916              		.loc 1 316 16 is_stmt 0 view .LVU240
 917 0004 FFF7FEFF 		bl	_lv_ll_get_head
 918              	.LVL92:
 316:lvgl/lvgl/src/misc/lv_ll.c ****         len++;
 919              		.loc 1 316 16 view .LVU241
 920 0008 0146     		mov	r1, r0
 921              	.LVL93:
 313:lvgl/lvgl/src/misc/lv_ll.c ****     void * node;
 922              		.loc 1 313 14 view .LVU242
 923 000a 0024     		movs	r4, #0
 924              	.LVL94:
 925              	.L62:
 316:lvgl/lvgl/src/misc/lv_ll.c ****         len++;
 926              		.loc 1 316 39 is_stmt 1 discriminator 1 view .LVU243
 316:lvgl/lvgl/src/misc/lv_ll.c ****         len++;
 927              		.loc 1 316 5 is_stmt 0 discriminator 1 view .LVU244
 928 000c 29B1     		cbz	r1, .L65
 317:lvgl/lvgl/src/misc/lv_ll.c ****     }
 929              		.loc 1 317 9 is_stmt 1 discriminator 3 view .LVU245
 317:lvgl/lvgl/src/misc/lv_ll.c ****     }
 930              		.loc 1 317 12 is_stmt 0 discriminator 3 view .LVU246
 931 000e 0134     		adds	r4, r4, #1
 932              	.LVL95:
ARM GAS  C:\Users\gx\AppData\Local\Temp\ccMx9eiJ.s 			page 28


 316:lvgl/lvgl/src/misc/lv_ll.c ****         len++;
 933              		.loc 1 316 53 is_stmt 1 discriminator 3 view .LVU247
 316:lvgl/lvgl/src/misc/lv_ll.c ****         len++;
 934              		.loc 1 316 60 is_stmt 0 discriminator 3 view .LVU248
 935 0010 2846     		mov	r0, r5
 936              	.LVL96:
 316:lvgl/lvgl/src/misc/lv_ll.c ****         len++;
 937              		.loc 1 316 60 discriminator 3 view .LVU249
 938 0012 FFF7FEFF 		bl	_lv_ll_get_next
 939              	.LVL97:
 316:lvgl/lvgl/src/misc/lv_ll.c ****         len++;
 940              		.loc 1 316 60 discriminator 3 view .LVU250
 941 0016 0146     		mov	r1, r0
 942              	.LVL98:
 316:lvgl/lvgl/src/misc/lv_ll.c ****         len++;
 943              		.loc 1 316 60 discriminator 3 view .LVU251
 944 0018 F8E7     		b	.L62
 945              	.L65:
 320:lvgl/lvgl/src/misc/lv_ll.c **** }
 946              		.loc 1 320 5 is_stmt 1 view .LVU252
 321:lvgl/lvgl/src/misc/lv_ll.c **** 
 947              		.loc 1 321 1 is_stmt 0 view .LVU253
 948 001a 2046     		mov	r0, r4
 949              	.LVL99:
 321:lvgl/lvgl/src/misc/lv_ll.c **** 
 950              		.loc 1 321 1 view .LVU254
 951 001c 38BD     		pop	{r3, r4, r5, pc}
 321:lvgl/lvgl/src/misc/lv_ll.c **** 
 952              		.loc 1 321 1 view .LVU255
 953              		.cfi_endproc
 954              	.LFE12:
 956              		.section	.text._lv_ll_move_before,"ax",%progbits
 957              		.align	1
 958              		.global	_lv_ll_move_before
 959              		.syntax unified
 960              		.thumb
 961              		.thumb_func
 962              		.fpu fpv4-sp-d16
 964              	_lv_ll_move_before:
 965              	.LVL100:
 966              	.LFB13:
 330:lvgl/lvgl/src/misc/lv_ll.c ****     if(n_act == n_after) return; /*Can't move before itself*/
 967              		.loc 1 330 1 is_stmt 1 view -0
 968              		.cfi_startproc
 969              		@ args = 0, pretend = 0, frame = 0
 970              		@ frame_needed = 0, uses_anonymous_args = 0
 331:lvgl/lvgl/src/misc/lv_ll.c **** 
 971              		.loc 1 331 5 view .LVU257
 331:lvgl/lvgl/src/misc/lv_ll.c **** 
 972              		.loc 1 331 7 is_stmt 0 view .LVU258
 973 0000 9142     		cmp	r1, r2
 974 0002 2DD0     		beq	.L72
 330:lvgl/lvgl/src/misc/lv_ll.c ****     if(n_act == n_after) return; /*Can't move before itself*/
 975              		.loc 1 330 1 view .LVU259
 976 0004 F8B5     		push	{r3, r4, r5, r6, r7, lr}
 977              	.LCFI10:
 978              		.cfi_def_cfa_offset 24
ARM GAS  C:\Users\gx\AppData\Local\Temp\ccMx9eiJ.s 			page 29


 979              		.cfi_offset 3, -24
 980              		.cfi_offset 4, -20
 981              		.cfi_offset 5, -16
 982              		.cfi_offset 6, -12
 983              		.cfi_offset 7, -8
 984              		.cfi_offset 14, -4
 985 0006 0646     		mov	r6, r0
 986 0008 0C46     		mov	r4, r1
 987 000a 1546     		mov	r5, r2
 333:lvgl/lvgl/src/misc/lv_ll.c ****     if(n_after != NULL)
 988              		.loc 1 333 5 is_stmt 1 view .LVU260
 334:lvgl/lvgl/src/misc/lv_ll.c ****         n_before = _lv_ll_get_prev(ll_p, n_after);
 989              		.loc 1 334 5 view .LVU261
 334:lvgl/lvgl/src/misc/lv_ll.c ****         n_before = _lv_ll_get_prev(ll_p, n_after);
 990              		.loc 1 334 7 is_stmt 0 view .LVU262
 991 000c 02B3     		cbz	r2, .L68
 335:lvgl/lvgl/src/misc/lv_ll.c ****     else
 992              		.loc 1 335 9 is_stmt 1 view .LVU263
 335:lvgl/lvgl/src/misc/lv_ll.c ****     else
 993              		.loc 1 335 20 is_stmt 0 view .LVU264
 994 000e 1146     		mov	r1, r2
 995              	.LVL101:
 335:lvgl/lvgl/src/misc/lv_ll.c ****     else
 996              		.loc 1 335 20 view .LVU265
 997 0010 FFF7FEFF 		bl	_lv_ll_get_prev
 998              	.LVL102:
 335:lvgl/lvgl/src/misc/lv_ll.c ****     else
 999              		.loc 1 335 20 view .LVU266
 1000 0014 0746     		mov	r7, r0
 1001              	.LVL103:
 1002              	.L69:
 339:lvgl/lvgl/src/misc/lv_ll.c **** 
 1003              		.loc 1 339 5 is_stmt 1 view .LVU267
 339:lvgl/lvgl/src/misc/lv_ll.c **** 
 1004              		.loc 1 339 7 is_stmt 0 view .LVU268
 1005 0016 A742     		cmp	r7, r4
 1006 0018 19D0     		beq	.L66
 342:lvgl/lvgl/src/misc/lv_ll.c **** 
 1007              		.loc 1 342 5 is_stmt 1 view .LVU269
 1008 001a 2146     		mov	r1, r4
 1009 001c 3046     		mov	r0, r6
 1010              	.LVL104:
 342:lvgl/lvgl/src/misc/lv_ll.c **** 
 1011              		.loc 1 342 5 is_stmt 0 view .LVU270
 1012 001e FFF7FEFF 		bl	_lv_ll_remove
 1013              	.LVL105:
 345:lvgl/lvgl/src/misc/lv_ll.c ****     node_set_prev(ll_p, n_act, n_before);
 1014              		.loc 1 345 5 is_stmt 1 view .LVU271
 1015 0022 2246     		mov	r2, r4
 1016 0024 3946     		mov	r1, r7
 1017 0026 3046     		mov	r0, r6
 1018 0028 FFF7FEFF 		bl	node_set_next
 1019              	.LVL106:
 346:lvgl/lvgl/src/misc/lv_ll.c ****     node_set_prev(ll_p, n_after, n_act);
 1020              		.loc 1 346 5 view .LVU272
 1021 002c 3A46     		mov	r2, r7
 1022 002e 2146     		mov	r1, r4
ARM GAS  C:\Users\gx\AppData\Local\Temp\ccMx9eiJ.s 			page 30


 1023 0030 3046     		mov	r0, r6
 1024 0032 FFF7FEFF 		bl	node_set_prev
 1025              	.LVL107:
 347:lvgl/lvgl/src/misc/lv_ll.c ****     node_set_next(ll_p, n_act, n_after);
 1026              		.loc 1 347 5 view .LVU273
 1027 0036 2246     		mov	r2, r4
 1028 0038 2946     		mov	r1, r5
 1029 003a 3046     		mov	r0, r6
 1030 003c FFF7FEFF 		bl	node_set_prev
 1031              	.LVL108:
 348:lvgl/lvgl/src/misc/lv_ll.c **** 
 1032              		.loc 1 348 5 view .LVU274
 1033 0040 2A46     		mov	r2, r5
 1034 0042 2146     		mov	r1, r4
 1035 0044 3046     		mov	r0, r6
 1036 0046 FFF7FEFF 		bl	node_set_next
 1037              	.LVL109:
 351:lvgl/lvgl/src/misc/lv_ll.c **** 
 1038              		.loc 1 351 5 view .LVU275
 351:lvgl/lvgl/src/misc/lv_ll.c **** 
 1039              		.loc 1 351 7 is_stmt 0 view .LVU276
 1040 004a 2DB1     		cbz	r5, .L75
 1041              	.L70:
 354:lvgl/lvgl/src/misc/lv_ll.c **** }
 1042              		.loc 1 354 5 is_stmt 1 view .LVU277
 354:lvgl/lvgl/src/misc/lv_ll.c **** }
 1043              		.loc 1 354 7 is_stmt 0 view .LVU278
 1044 004c 37B1     		cbz	r7, .L76
 1045              	.L66:
 355:lvgl/lvgl/src/misc/lv_ll.c **** 
 1046              		.loc 1 355 1 view .LVU279
 1047 004e F8BD     		pop	{r3, r4, r5, r6, r7, pc}
 1048              	.LVL110:
 1049              	.L68:
 337:lvgl/lvgl/src/misc/lv_ll.c **** 
 1050              		.loc 1 337 9 is_stmt 1 view .LVU280
 337:lvgl/lvgl/src/misc/lv_ll.c **** 
 1051              		.loc 1 337 20 is_stmt 0 view .LVU281
 1052 0050 FFF7FEFF 		bl	_lv_ll_get_tail
 1053              	.LVL111:
 337:lvgl/lvgl/src/misc/lv_ll.c **** 
 1054              		.loc 1 337 20 view .LVU282
 1055 0054 0746     		mov	r7, r0
 1056              	.LVL112:
 337:lvgl/lvgl/src/misc/lv_ll.c **** 
 1057              		.loc 1 337 20 view .LVU283
 1058 0056 DEE7     		b	.L69
 1059              	.LVL113:
 1060              	.L75:
 351:lvgl/lvgl/src/misc/lv_ll.c **** 
 1061              		.loc 1 351 25 is_stmt 1 discriminator 1 view .LVU284
 351:lvgl/lvgl/src/misc/lv_ll.c **** 
 1062              		.loc 1 351 36 is_stmt 0 discriminator 1 view .LVU285
 1063 0058 B460     		str	r4, [r6, #8]
 1064 005a F7E7     		b	.L70
 1065              	.L76:
 354:lvgl/lvgl/src/misc/lv_ll.c **** }
ARM GAS  C:\Users\gx\AppData\Local\Temp\ccMx9eiJ.s 			page 31


 1066              		.loc 1 354 26 is_stmt 1 discriminator 1 view .LVU286
 354:lvgl/lvgl/src/misc/lv_ll.c **** }
 1067              		.loc 1 354 37 is_stmt 0 discriminator 1 view .LVU287
 1068 005c 7460     		str	r4, [r6, #4]
 1069 005e F6E7     		b	.L66
 1070              	.LVL114:
 1071              	.L72:
 1072              	.LCFI11:
 1073              		.cfi_def_cfa_offset 0
 1074              		.cfi_restore 3
 1075              		.cfi_restore 4
 1076              		.cfi_restore 5
 1077              		.cfi_restore 6
 1078              		.cfi_restore 7
 1079              		.cfi_restore 14
 354:lvgl/lvgl/src/misc/lv_ll.c **** }
 1080              		.loc 1 354 37 discriminator 1 view .LVU288
 1081 0060 7047     		bx	lr
 1082              		.cfi_endproc
 1083              	.LFE13:
 1085              		.section	.text._lv_ll_is_empty,"ax",%progbits
 1086              		.align	1
 1087              		.global	_lv_ll_is_empty
 1088              		.syntax unified
 1089              		.thumb
 1090              		.thumb_func
 1091              		.fpu fpv4-sp-d16
 1093              	_lv_ll_is_empty:
 1094              	.LVL115:
 1095              	.LFB14:
 363:lvgl/lvgl/src/misc/lv_ll.c ****     if(ll_p == NULL) return true;
 1096              		.loc 1 363 1 is_stmt 1 view -0
 1097              		.cfi_startproc
 1098              		@ args = 0, pretend = 0, frame = 0
 1099              		@ frame_needed = 0, uses_anonymous_args = 0
 1100              		@ link register save eliminated.
 364:lvgl/lvgl/src/misc/lv_ll.c **** 
 1101              		.loc 1 364 5 view .LVU290
 364:lvgl/lvgl/src/misc/lv_ll.c **** 
 1102              		.loc 1 364 7 is_stmt 0 view .LVU291
 1103 0000 38B1     		cbz	r0, .L79
 366:lvgl/lvgl/src/misc/lv_ll.c **** 
 1104              		.loc 1 366 5 is_stmt 1 view .LVU292
 366:lvgl/lvgl/src/misc/lv_ll.c **** 
 1105              		.loc 1 366 12 is_stmt 0 view .LVU293
 1106 0002 4268     		ldr	r2, [r0, #4]
 366:lvgl/lvgl/src/misc/lv_ll.c **** 
 1107              		.loc 1 366 7 view .LVU294
 1108 0004 0AB1     		cbz	r2, .L82
 368:lvgl/lvgl/src/misc/lv_ll.c **** }
 1109              		.loc 1 368 12 view .LVU295
 1110 0006 0020     		movs	r0, #0
 1111              	.LVL116:
 368:lvgl/lvgl/src/misc/lv_ll.c **** }
 1112              		.loc 1 368 12 view .LVU296
 1113 0008 7047     		bx	lr
 1114              	.LVL117:
ARM GAS  C:\Users\gx\AppData\Local\Temp\ccMx9eiJ.s 			page 32


 1115              	.L82:
 366:lvgl/lvgl/src/misc/lv_ll.c **** 
 1116              		.loc 1 366 34 discriminator 1 view .LVU297
 1117 000a 8368     		ldr	r3, [r0, #8]
 366:lvgl/lvgl/src/misc/lv_ll.c **** 
 1118              		.loc 1 366 27 discriminator 1 view .LVU298
 1119 000c 1BB1     		cbz	r3, .L81
 368:lvgl/lvgl/src/misc/lv_ll.c **** }
 1120              		.loc 1 368 12 view .LVU299
 1121 000e 0020     		movs	r0, #0
 1122              	.LVL118:
 368:lvgl/lvgl/src/misc/lv_ll.c **** }
 1123              		.loc 1 368 12 view .LVU300
 1124 0010 7047     		bx	lr
 1125              	.LVL119:
 1126              	.L79:
 364:lvgl/lvgl/src/misc/lv_ll.c **** 
 1127              		.loc 1 364 29 view .LVU301
 1128 0012 0120     		movs	r0, #1
 1129              	.LVL120:
 364:lvgl/lvgl/src/misc/lv_ll.c **** 
 1130              		.loc 1 364 29 view .LVU302
 1131 0014 7047     		bx	lr
 1132              	.LVL121:
 1133              	.L81:
 366:lvgl/lvgl/src/misc/lv_ll.c **** 
 1134              		.loc 1 366 57 view .LVU303
 1135 0016 0120     		movs	r0, #1
 1136              	.LVL122:
 369:lvgl/lvgl/src/misc/lv_ll.c **** 
 1137              		.loc 1 369 1 view .LVU304
 1138 0018 7047     		bx	lr
 1139              		.cfi_endproc
 1140              	.LFE14:
 1142              		.text
 1143              	.Letext0:
 1144              		.file 2 "c:\\program files (x86)\\gnu arm embedded toolchain\\9 2020-q2-update\\arm-none-eabi\\inc
 1145              		.file 3 "c:\\program files (x86)\\gnu arm embedded toolchain\\9 2020-q2-update\\arm-none-eabi\\inc
 1146              		.file 4 "c:\\program files (x86)\\gnu arm embedded toolchain\\9 2020-q2-update\\lib\\gcc\\arm-none
 1147              		.file 5 "c:\\program files (x86)\\gnu arm embedded toolchain\\9 2020-q2-update\\arm-none-eabi\\inc
 1148              		.file 6 "c:\\program files (x86)\\gnu arm embedded toolchain\\9 2020-q2-update\\arm-none-eabi\\inc
 1149              		.file 7 "c:\\program files (x86)\\gnu arm embedded toolchain\\9 2020-q2-update\\arm-none-eabi\\inc
 1150              		.file 8 "lvgl/lvgl/src/misc/lv_ll.h"
 1151              		.file 9 "lvgl/lvgl/src/misc/lv_mem.h"
ARM GAS  C:\Users\gx\AppData\Local\Temp\ccMx9eiJ.s 			page 33

