ARM GAS  C:\Users\gx\AppData\Local\Temp\ccjvTKB3.s 			page 1


   1              		.cpu cortex-m4
   2              		.eabi_attribute 27, 1
   3              		.eabi_attribute 28, 1
   4              		.eabi_attribute 20, 1
   5              		.eabi_attribute 21, 1
   6              		.eabi_attribute 23, 3
   7              		.eabi_attribute 24, 1
   8              		.eabi_attribute 25, 1
   9              		.eabi_attribute 26, 1
  10              		.eabi_attribute 30, 1
  11              		.eabi_attribute 34, 1
  12              		.eabi_attribute 18, 4
  13              		.file	"lv_msgbox.c"
  14              		.text
  15              	.Ltext0:
  16              		.cfi_sections	.debug_frame
  17              		.section	.rodata.lv_msgbox_create.str1.4,"aMS",%progbits,1
  18              		.align	2
  19              	.LC0:
  20 0000 6C76676C 		.ascii	"lvgl/lvgl/src/extra/widgets/msgbox/lv_msgbox.c\000"
  20      2F6C7667 
  20      6C2F7372 
  20      632F6578 
  20      7472612F 
  21 002f 00       		.align	2
  22              	.LC1:
  23 0030 4F757420 		.ascii	"Out of memory\000"
  23      6F66206D 
  23      656D6F72 
  23      7900
  24 003e 0000     		.align	2
  25              	.LC2:
  26 0040 6D626F78 		.ascii	"mbox != NULL\000"
  26      20213D20 
  26      4E554C4C 
  26      00
  27 004d 000000   		.align	2
  28              	.LC3:
  29 0050 41737365 		.ascii	"Asserted at expression: %s (%s)\000"
  29      72746564 
  29      20617420 
  29      65787072 
  29      65737369 
  30              		.align	2
  31              	.LC4:
  32 0070 EF808D00 		.ascii	"\357\200\215\000"
  33              		.section	.text.lv_msgbox_create,"ax",%progbits
  34              		.align	1
  35              		.global	lv_msgbox_create
  36              		.arch armv7e-m
  37              		.syntax unified
  38              		.thumb
  39              		.thumb_func
  40              		.fpu fpv4-sp-d16
  42              	lv_msgbox_create:
  43              	.LVL0:
  44              	.LFB189:
ARM GAS  C:\Users\gx\AppData\Local\Temp\ccjvTKB3.s 			page 2


  45              		.file 1 "lvgl/lvgl/src/extra/widgets/msgbox/lv_msgbox.c"
   1:lvgl/lvgl/src/extra/widgets/msgbox/lv_msgbox.c **** /**
   2:lvgl/lvgl/src/extra/widgets/msgbox/lv_msgbox.c ****  * @file lv_msgbox.c
   3:lvgl/lvgl/src/extra/widgets/msgbox/lv_msgbox.c ****  *
   4:lvgl/lvgl/src/extra/widgets/msgbox/lv_msgbox.c ****  */
   5:lvgl/lvgl/src/extra/widgets/msgbox/lv_msgbox.c **** 
   6:lvgl/lvgl/src/extra/widgets/msgbox/lv_msgbox.c **** /*********************
   7:lvgl/lvgl/src/extra/widgets/msgbox/lv_msgbox.c ****  *      INCLUDES
   8:lvgl/lvgl/src/extra/widgets/msgbox/lv_msgbox.c ****  *********************/
   9:lvgl/lvgl/src/extra/widgets/msgbox/lv_msgbox.c **** #include "lv_msgbox.h"
  10:lvgl/lvgl/src/extra/widgets/msgbox/lv_msgbox.c **** #if LV_USE_MSGBOX
  11:lvgl/lvgl/src/extra/widgets/msgbox/lv_msgbox.c **** 
  12:lvgl/lvgl/src/extra/widgets/msgbox/lv_msgbox.c **** 
  13:lvgl/lvgl/src/extra/widgets/msgbox/lv_msgbox.c **** /*********************
  14:lvgl/lvgl/src/extra/widgets/msgbox/lv_msgbox.c ****  *      DEFINES
  15:lvgl/lvgl/src/extra/widgets/msgbox/lv_msgbox.c ****  *********************/
  16:lvgl/lvgl/src/extra/widgets/msgbox/lv_msgbox.c **** #define LV_MSGBOX_FLAG_AUTO_PARENT  LV_OBJ_FLAG_WIDGET_1        /*Mark that the parent was automati
  17:lvgl/lvgl/src/extra/widgets/msgbox/lv_msgbox.c **** 
  18:lvgl/lvgl/src/extra/widgets/msgbox/lv_msgbox.c **** /**********************
  19:lvgl/lvgl/src/extra/widgets/msgbox/lv_msgbox.c ****  *      TYPEDEFS
  20:lvgl/lvgl/src/extra/widgets/msgbox/lv_msgbox.c ****  **********************/
  21:lvgl/lvgl/src/extra/widgets/msgbox/lv_msgbox.c **** 
  22:lvgl/lvgl/src/extra/widgets/msgbox/lv_msgbox.c **** /**********************
  23:lvgl/lvgl/src/extra/widgets/msgbox/lv_msgbox.c ****  *  STATIC PROTOTYPES
  24:lvgl/lvgl/src/extra/widgets/msgbox/lv_msgbox.c ****  **********************/
  25:lvgl/lvgl/src/extra/widgets/msgbox/lv_msgbox.c **** static void msgbox_close_click_event_cb(lv_event_t * e);
  26:lvgl/lvgl/src/extra/widgets/msgbox/lv_msgbox.c **** 
  27:lvgl/lvgl/src/extra/widgets/msgbox/lv_msgbox.c **** /**********************
  28:lvgl/lvgl/src/extra/widgets/msgbox/lv_msgbox.c ****  *  STATIC VARIABLES
  29:lvgl/lvgl/src/extra/widgets/msgbox/lv_msgbox.c ****  **********************/
  30:lvgl/lvgl/src/extra/widgets/msgbox/lv_msgbox.c **** const lv_obj_class_t lv_msgbox_class = {.base_class = &lv_obj_class};
  31:lvgl/lvgl/src/extra/widgets/msgbox/lv_msgbox.c **** 
  32:lvgl/lvgl/src/extra/widgets/msgbox/lv_msgbox.c **** /**********************
  33:lvgl/lvgl/src/extra/widgets/msgbox/lv_msgbox.c ****  *      MACROS
  34:lvgl/lvgl/src/extra/widgets/msgbox/lv_msgbox.c ****  **********************/
  35:lvgl/lvgl/src/extra/widgets/msgbox/lv_msgbox.c **** 
  36:lvgl/lvgl/src/extra/widgets/msgbox/lv_msgbox.c **** /**********************
  37:lvgl/lvgl/src/extra/widgets/msgbox/lv_msgbox.c ****  *   GLOBAL FUNCTIONS
  38:lvgl/lvgl/src/extra/widgets/msgbox/lv_msgbox.c ****  **********************/
  39:lvgl/lvgl/src/extra/widgets/msgbox/lv_msgbox.c **** 
  40:lvgl/lvgl/src/extra/widgets/msgbox/lv_msgbox.c **** lv_obj_t * lv_msgbox_create(lv_obj_t * parent, const char * title, const char * txt, const char * b
  41:lvgl/lvgl/src/extra/widgets/msgbox/lv_msgbox.c **** {
  46              		.loc 1 41 1 view -0
  47              		.cfi_startproc
  48              		@ args = 4, pretend = 0, frame = 0
  49              		@ frame_needed = 0, uses_anonymous_args = 0
  50              		.loc 1 41 1 is_stmt 0 view .LVU1
  51 0000 2DE9F043 		push	{r4, r5, r6, r7, r8, r9, lr}
  52              	.LCFI0:
  53              		.cfi_def_cfa_offset 28
  54              		.cfi_offset 4, -28
  55              		.cfi_offset 5, -24
  56              		.cfi_offset 6, -20
  57              		.cfi_offset 7, -16
  58              		.cfi_offset 8, -12
  59              		.cfi_offset 9, -8
  60              		.cfi_offset 14, -4
ARM GAS  C:\Users\gx\AppData\Local\Temp\ccjvTKB3.s 			page 3


  61 0004 85B0     		sub	sp, sp, #20
  62              	.LCFI1:
  63              		.cfi_def_cfa_offset 48
  64 0006 0E46     		mov	r6, r1
  65 0008 9046     		mov	r8, r2
  66 000a 1F46     		mov	r7, r3
  67 000c 9DF83090 		ldrb	r9, [sp, #48]	@ zero_extendqisi2
  42:lvgl/lvgl/src/extra/widgets/msgbox/lv_msgbox.c ****     LV_LOG_INFO("begin")
  68              		.loc 1 42 5 is_stmt 1 view .LVU2
  69              		.loc 1 42 5 view .LVU3
  70              		.loc 1 42 5 view .LVU4
  43:lvgl/lvgl/src/extra/widgets/msgbox/lv_msgbox.c ****     bool auto_parent = false;
  71              		.loc 1 43 5 view .LVU5
  72              	.LVL1:
  44:lvgl/lvgl/src/extra/widgets/msgbox/lv_msgbox.c ****     if(parent == NULL) {
  73              		.loc 1 44 5 view .LVU6
  74              		.loc 1 44 7 is_stmt 0 view .LVU7
  75 0010 0028     		cmp	r0, #0
  76 0012 53D0     		beq	.L19
  77 0014 0446     		mov	r4, r0
  43:lvgl/lvgl/src/extra/widgets/msgbox/lv_msgbox.c ****     bool auto_parent = false;
  78              		.loc 1 43 10 view .LVU8
  79 0016 0025     		movs	r5, #0
  80              	.LVL2:
  81              	.L2:
  45:lvgl/lvgl/src/extra/widgets/msgbox/lv_msgbox.c ****         auto_parent = true;
  46:lvgl/lvgl/src/extra/widgets/msgbox/lv_msgbox.c ****         parent = lv_obj_create(lv_layer_top());
  47:lvgl/lvgl/src/extra/widgets/msgbox/lv_msgbox.c ****         lv_obj_remove_style_all(parent);
  48:lvgl/lvgl/src/extra/widgets/msgbox/lv_msgbox.c ****         lv_obj_clear_flag(parent, LV_OBJ_FLAG_IGNORE_LAYOUT);
  49:lvgl/lvgl/src/extra/widgets/msgbox/lv_msgbox.c ****         lv_obj_set_style_bg_color(parent, lv_palette_main(LV_PALETTE_GREY), 0);
  50:lvgl/lvgl/src/extra/widgets/msgbox/lv_msgbox.c ****         lv_obj_set_style_bg_opa(parent, LV_OPA_50, 0);
  51:lvgl/lvgl/src/extra/widgets/msgbox/lv_msgbox.c ****         lv_obj_set_size(parent, LV_PCT(100), LV_PCT(100));
  52:lvgl/lvgl/src/extra/widgets/msgbox/lv_msgbox.c ****     }
  53:lvgl/lvgl/src/extra/widgets/msgbox/lv_msgbox.c **** 
  54:lvgl/lvgl/src/extra/widgets/msgbox/lv_msgbox.c ****     lv_obj_t * mbox = lv_obj_class_create_obj(&lv_msgbox_class, parent);
  82              		.loc 1 54 5 is_stmt 1 view .LVU9
  83              		.loc 1 54 23 is_stmt 0 view .LVU10
  84 0018 2146     		mov	r1, r4
  85 001a 8748     		ldr	r0, .L25
  86 001c FFF7FEFF 		bl	lv_obj_class_create_obj
  87              	.LVL3:
  88 0020 0446     		mov	r4, r0
  89              	.LVL4:
  55:lvgl/lvgl/src/extra/widgets/msgbox/lv_msgbox.c ****     lv_obj_class_init_obj(mbox);
  90              		.loc 1 55 5 is_stmt 1 view .LVU11
  91 0022 FFF7FEFF 		bl	lv_obj_class_init_obj
  92              	.LVL5:
  56:lvgl/lvgl/src/extra/widgets/msgbox/lv_msgbox.c ****     LV_ASSERT_MALLOC(mbox);
  93              		.loc 1 56 5 view .LVU12
  94              		.loc 1 56 5 view .LVU13
  95 0026 002C     		cmp	r4, #0
  96 0028 6DD0     		beq	.L20
  97              		.loc 1 56 5 view .LVU14
  98              		.loc 1 56 27 view .LVU15
  57:lvgl/lvgl/src/extra/widgets/msgbox/lv_msgbox.c ****     if(mbox == NULL) return NULL;
  99              		.loc 1 57 5 view .LVU16
  58:lvgl/lvgl/src/extra/widgets/msgbox/lv_msgbox.c **** 
ARM GAS  C:\Users\gx\AppData\Local\Temp\ccjvTKB3.s 			page 4


  59:lvgl/lvgl/src/extra/widgets/msgbox/lv_msgbox.c ****     if(auto_parent) lv_obj_add_flag(mbox, LV_MSGBOX_FLAG_AUTO_PARENT);
 100              		.loc 1 59 5 view .LVU17
 101              		.loc 1 59 7 is_stmt 0 view .LVU18
 102 002a 002D     		cmp	r5, #0
 103 002c 78D1     		bne	.L21
 104              	.L5:
  60:lvgl/lvgl/src/extra/widgets/msgbox/lv_msgbox.c **** 
  61:lvgl/lvgl/src/extra/widgets/msgbox/lv_msgbox.c ****     lv_obj_set_size(mbox, LV_DPI_DEF * 2, LV_SIZE_CONTENT);
 105              		.loc 1 61 5 is_stmt 1 view .LVU19
 106 002e 42F2D172 		movw	r2, #10193
 107 0032 4FF48271 		mov	r1, #260
 108 0036 2046     		mov	r0, r4
 109 0038 FFF7FEFF 		bl	lv_obj_set_size
 110              	.LVL6:
  62:lvgl/lvgl/src/extra/widgets/msgbox/lv_msgbox.c ****     lv_obj_set_flex_flow(mbox, LV_FLEX_FLOW_ROW_WRAP);
 111              		.loc 1 62 5 view .LVU20
 112 003c 0421     		movs	r1, #4
 113 003e 2046     		mov	r0, r4
 114 0040 FFF7FEFF 		bl	lv_obj_set_flex_flow
 115              	.LVL7:
  63:lvgl/lvgl/src/extra/widgets/msgbox/lv_msgbox.c ****     lv_obj_set_flex_align(mbox, LV_FLEX_ALIGN_START, LV_FLEX_ALIGN_CENTER, LV_FLEX_ALIGN_START);
 116              		.loc 1 63 5 view .LVU21
 117 0044 0023     		movs	r3, #0
 118 0046 0222     		movs	r2, #2
 119 0048 1946     		mov	r1, r3
 120 004a 2046     		mov	r0, r4
 121 004c FFF7FEFF 		bl	lv_obj_set_flex_align
 122              	.LVL8:
  64:lvgl/lvgl/src/extra/widgets/msgbox/lv_msgbox.c **** 
  65:lvgl/lvgl/src/extra/widgets/msgbox/lv_msgbox.c ****     lv_obj_t * label;
 123              		.loc 1 65 5 view .LVU22
  66:lvgl/lvgl/src/extra/widgets/msgbox/lv_msgbox.c ****     label = lv_label_create(mbox);
 124              		.loc 1 66 5 view .LVU23
 125              		.loc 1 66 13 is_stmt 0 view .LVU24
 126 0050 2046     		mov	r0, r4
 127 0052 FFF7FEFF 		bl	lv_label_create
 128              	.LVL9:
 129 0056 0546     		mov	r5, r0
 130              	.LVL10:
  67:lvgl/lvgl/src/extra/widgets/msgbox/lv_msgbox.c ****     lv_label_set_text(label, title);
 131              		.loc 1 67 5 is_stmt 1 view .LVU25
 132 0058 3146     		mov	r1, r6
 133 005a FFF7FEFF 		bl	lv_label_set_text
 134              	.LVL11:
  68:lvgl/lvgl/src/extra/widgets/msgbox/lv_msgbox.c ****     lv_label_set_long_mode(label, LV_LABEL_LONG_SCROLL_CIRCULAR);
 135              		.loc 1 68 5 view .LVU26
 136 005e 0321     		movs	r1, #3
 137 0060 2846     		mov	r0, r5
 138 0062 FFF7FEFF 		bl	lv_label_set_long_mode
 139              	.LVL12:
  69:lvgl/lvgl/src/extra/widgets/msgbox/lv_msgbox.c ****     if(add_close_btn) lv_obj_set_flex_grow(label, 1);
 140              		.loc 1 69 5 view .LVU27
 141              		.loc 1 69 7 is_stmt 0 view .LVU28
 142 0066 B9F1000F 		cmp	r9, #0
 143 006a 5FD0     		beq	.L6
 144              		.loc 1 69 23 is_stmt 1 discriminator 1 view .LVU29
 145 006c 0121     		movs	r1, #1
ARM GAS  C:\Users\gx\AppData\Local\Temp\ccjvTKB3.s 			page 5


 146 006e 2846     		mov	r0, r5
 147 0070 FFF7FEFF 		bl	lv_obj_set_flex_grow
 148              	.LVL13:
 149              	.L7:
  70:lvgl/lvgl/src/extra/widgets/msgbox/lv_msgbox.c ****     else lv_obj_set_width(label, LV_PCT(100));
  71:lvgl/lvgl/src/extra/widgets/msgbox/lv_msgbox.c **** 
  72:lvgl/lvgl/src/extra/widgets/msgbox/lv_msgbox.c ****     if(add_close_btn) {
 150              		.loc 1 72 5 view .LVU30
 151              		.loc 1 72 7 is_stmt 0 view .LVU31
 152 0074 B9F1000F 		cmp	r9, #0
 153 0078 5ED1     		bne	.L22
 154              	.LVL14:
 155              	.L8:
  73:lvgl/lvgl/src/extra/widgets/msgbox/lv_msgbox.c ****         lv_obj_t * close_btn = lv_btn_create(mbox);
  74:lvgl/lvgl/src/extra/widgets/msgbox/lv_msgbox.c ****         lv_obj_set_ext_click_area(close_btn, LV_DPX(10));
  75:lvgl/lvgl/src/extra/widgets/msgbox/lv_msgbox.c ****         lv_obj_add_event_cb(close_btn, msgbox_close_click_event_cb, LV_EVENT_CLICKED, NULL);
  76:lvgl/lvgl/src/extra/widgets/msgbox/lv_msgbox.c ****         label = lv_label_create(close_btn);
  77:lvgl/lvgl/src/extra/widgets/msgbox/lv_msgbox.c ****         lv_label_set_text(label, LV_SYMBOL_CLOSE);
  78:lvgl/lvgl/src/extra/widgets/msgbox/lv_msgbox.c ****         const lv_font_t * font = lv_obj_get_style_text_font(close_btn, LV_PART_MAIN);
  79:lvgl/lvgl/src/extra/widgets/msgbox/lv_msgbox.c ****         lv_coord_t close_btn_size = lv_font_get_line_height(font) + LV_DPX(10);
  80:lvgl/lvgl/src/extra/widgets/msgbox/lv_msgbox.c ****         lv_obj_set_size(close_btn, close_btn_size, close_btn_size);
  81:lvgl/lvgl/src/extra/widgets/msgbox/lv_msgbox.c ****         lv_obj_align(label, LV_ALIGN_CENTER, 0, 0);
  82:lvgl/lvgl/src/extra/widgets/msgbox/lv_msgbox.c ****     }
  83:lvgl/lvgl/src/extra/widgets/msgbox/lv_msgbox.c **** 
  84:lvgl/lvgl/src/extra/widgets/msgbox/lv_msgbox.c ****     label = lv_label_create(mbox);
 156              		.loc 1 84 5 is_stmt 1 view .LVU32
 157              		.loc 1 84 13 is_stmt 0 view .LVU33
 158 007a 2046     		mov	r0, r4
 159 007c FFF7FEFF 		bl	lv_label_create
 160              	.LVL15:
 161 0080 0546     		mov	r5, r0
 162              	.LVL16:
  85:lvgl/lvgl/src/extra/widgets/msgbox/lv_msgbox.c ****     lv_label_set_text(label, txt);
 163              		.loc 1 85 5 is_stmt 1 view .LVU34
 164 0082 4146     		mov	r1, r8
 165 0084 FFF7FEFF 		bl	lv_label_set_text
 166              	.LVL17:
  86:lvgl/lvgl/src/extra/widgets/msgbox/lv_msgbox.c ****     lv_label_set_long_mode(label, LV_LABEL_LONG_WRAP);
 167              		.loc 1 86 5 view .LVU35
 168 0088 0021     		movs	r1, #0
 169 008a 2846     		mov	r0, r5
 170 008c FFF7FEFF 		bl	lv_label_set_long_mode
 171              	.LVL18:
  87:lvgl/lvgl/src/extra/widgets/msgbox/lv_msgbox.c ****     lv_obj_set_width(label, LV_PCT(100));
 172              		.loc 1 87 5 view .LVU36
 173 0090 42F26401 		movw	r1, #8292
 174 0094 2846     		mov	r0, r5
 175 0096 FFF7FEFF 		bl	lv_obj_set_width
 176              	.LVL19:
  88:lvgl/lvgl/src/extra/widgets/msgbox/lv_msgbox.c **** 
  89:lvgl/lvgl/src/extra/widgets/msgbox/lv_msgbox.c ****     if(btn_txts) {
 177              		.loc 1 89 5 view .LVU37
 178              		.loc 1 89 7 is_stmt 0 view .LVU38
 179 009a 002F     		cmp	r7, #0
 180 009c 00F0C780 		beq	.L1
 181              	.LBB16:
  90:lvgl/lvgl/src/extra/widgets/msgbox/lv_msgbox.c ****         lv_obj_t * btns = lv_btnmatrix_create(mbox);
ARM GAS  C:\Users\gx\AppData\Local\Temp\ccjvTKB3.s 			page 6


 182              		.loc 1 90 9 is_stmt 1 view .LVU39
 183              		.loc 1 90 27 is_stmt 0 view .LVU40
 184 00a0 2046     		mov	r0, r4
 185 00a2 FFF7FEFF 		bl	lv_btnmatrix_create
 186              	.LVL20:
 187 00a6 0646     		mov	r6, r0
 188              	.LVL21:
  91:lvgl/lvgl/src/extra/widgets/msgbox/lv_msgbox.c ****         lv_btnmatrix_set_map(btns, btn_txts);
 189              		.loc 1 91 9 is_stmt 1 view .LVU41
 190 00a8 3946     		mov	r1, r7
 191 00aa FFF7FEFF 		bl	lv_btnmatrix_set_map
 192              	.LVL22:
  92:lvgl/lvgl/src/extra/widgets/msgbox/lv_msgbox.c ****         lv_btnmatrix_set_btn_ctrl_all(btns, LV_BTNMATRIX_CTRL_CLICK_TRIG | LV_BTNMATRIX_CTRL_NO_REP
 193              		.loc 1 92 9 view .LVU42
 194 00ae 4FF48871 		mov	r1, #272
 195 00b2 3046     		mov	r0, r6
 196 00b4 FFF7FEFF 		bl	lv_btnmatrix_set_btn_ctrl_all
 197              	.LVL23:
  93:lvgl/lvgl/src/extra/widgets/msgbox/lv_msgbox.c **** 
  94:lvgl/lvgl/src/extra/widgets/msgbox/lv_msgbox.c ****         uint32_t btn_cnt = 0;
 198              		.loc 1 94 9 view .LVU43
  95:lvgl/lvgl/src/extra/widgets/msgbox/lv_msgbox.c ****         while(btn_txts[btn_cnt] && btn_txts[btn_cnt][0] != '\0') {
 199              		.loc 1 95 9 view .LVU44
  94:lvgl/lvgl/src/extra/widgets/msgbox/lv_msgbox.c ****         while(btn_txts[btn_cnt] && btn_txts[btn_cnt][0] != '\0') {
 200              		.loc 1 94 18 is_stmt 0 view .LVU45
 201 00b8 0025     		movs	r5, #0
 202              	.LVL24:
 203              		.loc 1 95 14 view .LVU46
 204 00ba 98E0     		b	.L12
 205              	.LVL25:
 206              	.L19:
 207              		.loc 1 95 14 view .LVU47
 208              	.LBE16:
  45:lvgl/lvgl/src/extra/widgets/msgbox/lv_msgbox.c ****         parent = lv_obj_create(lv_layer_top());
 209              		.loc 1 45 9 is_stmt 1 view .LVU48
  46:lvgl/lvgl/src/extra/widgets/msgbox/lv_msgbox.c ****         lv_obj_remove_style_all(parent);
 210              		.loc 1 46 9 view .LVU49
 211              	.LBB21:
 212              	.LBI21:
 213              		.file 2 "d:\\practise\\f407_disc\\lvgl\\lvgl\\src/core/lv_disp.h"
   1:d:\practise\f407_disc\lvgl\lvgl\src/core\lv_disp.h **** /**
   2:d:\practise\f407_disc\lvgl\lvgl\src/core\lv_disp.h ****  * @file lv_disp.h
   3:d:\practise\f407_disc\lvgl\lvgl\src/core\lv_disp.h ****  *
   4:d:\practise\f407_disc\lvgl\lvgl\src/core\lv_disp.h ****  */
   5:d:\practise\f407_disc\lvgl\lvgl\src/core\lv_disp.h **** 
   6:d:\practise\f407_disc\lvgl\lvgl\src/core\lv_disp.h **** #ifndef LV_DISP_H
   7:d:\practise\f407_disc\lvgl\lvgl\src/core\lv_disp.h **** #define LV_DISP_H
   8:d:\practise\f407_disc\lvgl\lvgl\src/core\lv_disp.h **** 
   9:d:\practise\f407_disc\lvgl\lvgl\src/core\lv_disp.h **** #ifdef __cplusplus
  10:d:\practise\f407_disc\lvgl\lvgl\src/core\lv_disp.h **** extern "C" {
  11:d:\practise\f407_disc\lvgl\lvgl\src/core\lv_disp.h **** #endif
  12:d:\practise\f407_disc\lvgl\lvgl\src/core\lv_disp.h **** 
  13:d:\practise\f407_disc\lvgl\lvgl\src/core\lv_disp.h **** /*********************
  14:d:\practise\f407_disc\lvgl\lvgl\src/core\lv_disp.h ****  *      INCLUDES
  15:d:\practise\f407_disc\lvgl\lvgl\src/core\lv_disp.h ****  *********************/
  16:d:\practise\f407_disc\lvgl\lvgl\src/core\lv_disp.h **** #include "../hal/lv_hal.h"
  17:d:\practise\f407_disc\lvgl\lvgl\src/core\lv_disp.h **** #include "lv_obj.h"
ARM GAS  C:\Users\gx\AppData\Local\Temp\ccjvTKB3.s 			page 7


  18:d:\practise\f407_disc\lvgl\lvgl\src/core\lv_disp.h **** #include "lv_theme.h"
  19:d:\practise\f407_disc\lvgl\lvgl\src/core\lv_disp.h **** 
  20:d:\practise\f407_disc\lvgl\lvgl\src/core\lv_disp.h **** /*********************
  21:d:\practise\f407_disc\lvgl\lvgl\src/core\lv_disp.h ****  *      DEFINES
  22:d:\practise\f407_disc\lvgl\lvgl\src/core\lv_disp.h ****  *********************/
  23:d:\practise\f407_disc\lvgl\lvgl\src/core\lv_disp.h **** 
  24:d:\practise\f407_disc\lvgl\lvgl\src/core\lv_disp.h **** /**********************
  25:d:\practise\f407_disc\lvgl\lvgl\src/core\lv_disp.h ****  *      TYPEDEFS
  26:d:\practise\f407_disc\lvgl\lvgl\src/core\lv_disp.h ****  **********************/
  27:d:\practise\f407_disc\lvgl\lvgl\src/core\lv_disp.h **** 
  28:d:\practise\f407_disc\lvgl\lvgl\src/core\lv_disp.h **** typedef enum {
  29:d:\practise\f407_disc\lvgl\lvgl\src/core\lv_disp.h ****     LV_SCR_LOAD_ANIM_NONE,
  30:d:\practise\f407_disc\lvgl\lvgl\src/core\lv_disp.h ****     LV_SCR_LOAD_ANIM_OVER_LEFT,
  31:d:\practise\f407_disc\lvgl\lvgl\src/core\lv_disp.h ****     LV_SCR_LOAD_ANIM_OVER_RIGHT,
  32:d:\practise\f407_disc\lvgl\lvgl\src/core\lv_disp.h ****     LV_SCR_LOAD_ANIM_OVER_TOP,
  33:d:\practise\f407_disc\lvgl\lvgl\src/core\lv_disp.h ****     LV_SCR_LOAD_ANIM_OVER_BOTTOM,
  34:d:\practise\f407_disc\lvgl\lvgl\src/core\lv_disp.h ****     LV_SCR_LOAD_ANIM_MOVE_LEFT,
  35:d:\practise\f407_disc\lvgl\lvgl\src/core\lv_disp.h ****     LV_SCR_LOAD_ANIM_MOVE_RIGHT,
  36:d:\practise\f407_disc\lvgl\lvgl\src/core\lv_disp.h ****     LV_SCR_LOAD_ANIM_MOVE_TOP,
  37:d:\practise\f407_disc\lvgl\lvgl\src/core\lv_disp.h ****     LV_SCR_LOAD_ANIM_MOVE_BOTTOM,
  38:d:\practise\f407_disc\lvgl\lvgl\src/core\lv_disp.h ****     LV_SCR_LOAD_ANIM_FADE_ON,
  39:d:\practise\f407_disc\lvgl\lvgl\src/core\lv_disp.h **** } lv_scr_load_anim_t;
  40:d:\practise\f407_disc\lvgl\lvgl\src/core\lv_disp.h **** 
  41:d:\practise\f407_disc\lvgl\lvgl\src/core\lv_disp.h **** /**********************
  42:d:\practise\f407_disc\lvgl\lvgl\src/core\lv_disp.h ****  * GLOBAL PROTOTYPES
  43:d:\practise\f407_disc\lvgl\lvgl\src/core\lv_disp.h ****  **********************/
  44:d:\practise\f407_disc\lvgl\lvgl\src/core\lv_disp.h **** 
  45:d:\practise\f407_disc\lvgl\lvgl\src/core\lv_disp.h **** /**
  46:d:\practise\f407_disc\lvgl\lvgl\src/core\lv_disp.h ****  * Return with a pointer to the active screen
  47:d:\practise\f407_disc\lvgl\lvgl\src/core\lv_disp.h ****  * @param disp pointer to display which active screen should be get. (NULL to use the default
  48:d:\practise\f407_disc\lvgl\lvgl\src/core\lv_disp.h ****  * screen)
  49:d:\practise\f407_disc\lvgl\lvgl\src/core\lv_disp.h ****  * @return pointer to the active screen object (loaded by 'lv_scr_load()')
  50:d:\practise\f407_disc\lvgl\lvgl\src/core\lv_disp.h ****  */
  51:d:\practise\f407_disc\lvgl\lvgl\src/core\lv_disp.h **** lv_obj_t * lv_disp_get_scr_act(lv_disp_t * disp);
  52:d:\practise\f407_disc\lvgl\lvgl\src/core\lv_disp.h **** 
  53:d:\practise\f407_disc\lvgl\lvgl\src/core\lv_disp.h **** /**
  54:d:\practise\f407_disc\lvgl\lvgl\src/core\lv_disp.h ****  * Return with a pointer to the previous screen. Only used during screen transitions.
  55:d:\practise\f407_disc\lvgl\lvgl\src/core\lv_disp.h ****  * @param disp pointer to display which previous screen should be get. (NULL to use the default
  56:d:\practise\f407_disc\lvgl\lvgl\src/core\lv_disp.h ****  * screen)
  57:d:\practise\f407_disc\lvgl\lvgl\src/core\lv_disp.h ****  * @return pointer to the previous screen object or NULL if not used now
  58:d:\practise\f407_disc\lvgl\lvgl\src/core\lv_disp.h ****  */
  59:d:\practise\f407_disc\lvgl\lvgl\src/core\lv_disp.h **** lv_obj_t * lv_disp_get_scr_prev(lv_disp_t * disp);
  60:d:\practise\f407_disc\lvgl\lvgl\src/core\lv_disp.h **** 
  61:d:\practise\f407_disc\lvgl\lvgl\src/core\lv_disp.h **** /**
  62:d:\practise\f407_disc\lvgl\lvgl\src/core\lv_disp.h ****  * Make a screen active
  63:d:\practise\f407_disc\lvgl\lvgl\src/core\lv_disp.h ****  * @param scr pointer to a screen
  64:d:\practise\f407_disc\lvgl\lvgl\src/core\lv_disp.h ****  */
  65:d:\practise\f407_disc\lvgl\lvgl\src/core\lv_disp.h **** void lv_disp_load_scr(lv_obj_t * scr);
  66:d:\practise\f407_disc\lvgl\lvgl\src/core\lv_disp.h **** 
  67:d:\practise\f407_disc\lvgl\lvgl\src/core\lv_disp.h **** /**
  68:d:\practise\f407_disc\lvgl\lvgl\src/core\lv_disp.h ****  * Return with the top layer. (Same on every screen and it is above the normal screen layer)
  69:d:\practise\f407_disc\lvgl\lvgl\src/core\lv_disp.h ****  * @param disp pointer to display which top layer should be get. (NULL to use the default screen)
  70:d:\practise\f407_disc\lvgl\lvgl\src/core\lv_disp.h ****  * @return pointer to the top layer object  (transparent screen sized lv_obj)
  71:d:\practise\f407_disc\lvgl\lvgl\src/core\lv_disp.h ****  */
  72:d:\practise\f407_disc\lvgl\lvgl\src/core\lv_disp.h **** lv_obj_t * lv_disp_get_layer_top(lv_disp_t * disp);
  73:d:\practise\f407_disc\lvgl\lvgl\src/core\lv_disp.h **** 
  74:d:\practise\f407_disc\lvgl\lvgl\src/core\lv_disp.h **** /**
ARM GAS  C:\Users\gx\AppData\Local\Temp\ccjvTKB3.s 			page 8


  75:d:\practise\f407_disc\lvgl\lvgl\src/core\lv_disp.h ****  * Return with the sys. layer. (Same on every screen and it is above the normal screen and the top
  76:d:\practise\f407_disc\lvgl\lvgl\src/core\lv_disp.h ****  * layer)
  77:d:\practise\f407_disc\lvgl\lvgl\src/core\lv_disp.h ****  * @param disp pointer to display which sys. layer  should be get. (NULL to use the default screen)
  78:d:\practise\f407_disc\lvgl\lvgl\src/core\lv_disp.h ****  * @return pointer to the sys layer object  (transparent screen sized lv_obj)
  79:d:\practise\f407_disc\lvgl\lvgl\src/core\lv_disp.h ****  */
  80:d:\practise\f407_disc\lvgl\lvgl\src/core\lv_disp.h **** lv_obj_t * lv_disp_get_layer_sys(lv_disp_t * disp);
  81:d:\practise\f407_disc\lvgl\lvgl\src/core\lv_disp.h **** 
  82:d:\practise\f407_disc\lvgl\lvgl\src/core\lv_disp.h **** /**
  83:d:\practise\f407_disc\lvgl\lvgl\src/core\lv_disp.h ****  * Get the theme of a display
  84:d:\practise\f407_disc\lvgl\lvgl\src/core\lv_disp.h ****  * @param disp pointer to a display
  85:d:\practise\f407_disc\lvgl\lvgl\src/core\lv_disp.h ****  * @return the display's theme (can be NULL)
  86:d:\practise\f407_disc\lvgl\lvgl\src/core\lv_disp.h ****  */
  87:d:\practise\f407_disc\lvgl\lvgl\src/core\lv_disp.h **** void lv_disp_set_theme(lv_disp_t * disp, lv_theme_t * th);
  88:d:\practise\f407_disc\lvgl\lvgl\src/core\lv_disp.h **** 
  89:d:\practise\f407_disc\lvgl\lvgl\src/core\lv_disp.h **** /**
  90:d:\practise\f407_disc\lvgl\lvgl\src/core\lv_disp.h ****  * Get the theme of a display
  91:d:\practise\f407_disc\lvgl\lvgl\src/core\lv_disp.h ****  * @param disp pointer to a display
  92:d:\practise\f407_disc\lvgl\lvgl\src/core\lv_disp.h ****  * @return the display's theme (can be NULL)
  93:d:\practise\f407_disc\lvgl\lvgl\src/core\lv_disp.h ****  */
  94:d:\practise\f407_disc\lvgl\lvgl\src/core\lv_disp.h **** lv_theme_t * lv_disp_get_theme(lv_disp_t * disp);
  95:d:\practise\f407_disc\lvgl\lvgl\src/core\lv_disp.h **** 
  96:d:\practise\f407_disc\lvgl\lvgl\src/core\lv_disp.h **** /**
  97:d:\practise\f407_disc\lvgl\lvgl\src/core\lv_disp.h ****  * Set the background color of a display
  98:d:\practise\f407_disc\lvgl\lvgl\src/core\lv_disp.h ****  * @param disp pointer to a display
  99:d:\practise\f407_disc\lvgl\lvgl\src/core\lv_disp.h ****  * @param color color of the background
 100:d:\practise\f407_disc\lvgl\lvgl\src/core\lv_disp.h ****  */
 101:d:\practise\f407_disc\lvgl\lvgl\src/core\lv_disp.h **** void lv_disp_set_bg_color(lv_disp_t * disp, lv_color_t color);
 102:d:\practise\f407_disc\lvgl\lvgl\src/core\lv_disp.h **** 
 103:d:\practise\f407_disc\lvgl\lvgl\src/core\lv_disp.h **** /**
 104:d:\practise\f407_disc\lvgl\lvgl\src/core\lv_disp.h ****  * Set the background image of a display
 105:d:\practise\f407_disc\lvgl\lvgl\src/core\lv_disp.h ****  * @param disp pointer to a display
 106:d:\practise\f407_disc\lvgl\lvgl\src/core\lv_disp.h ****  * @param img_src path to file or pointer to an `lv_img_dsc_t` variable
 107:d:\practise\f407_disc\lvgl\lvgl\src/core\lv_disp.h ****  */
 108:d:\practise\f407_disc\lvgl\lvgl\src/core\lv_disp.h **** void lv_disp_set_bg_image(lv_disp_t * disp, const void  * img_src);
 109:d:\practise\f407_disc\lvgl\lvgl\src/core\lv_disp.h **** 
 110:d:\practise\f407_disc\lvgl\lvgl\src/core\lv_disp.h **** /**
 111:d:\practise\f407_disc\lvgl\lvgl\src/core\lv_disp.h ****  * Opacity of the background
 112:d:\practise\f407_disc\lvgl\lvgl\src/core\lv_disp.h ****  * @param disp pointer to a display
 113:d:\practise\f407_disc\lvgl\lvgl\src/core\lv_disp.h ****  * @param opa opacity (0..255)
 114:d:\practise\f407_disc\lvgl\lvgl\src/core\lv_disp.h ****  */
 115:d:\practise\f407_disc\lvgl\lvgl\src/core\lv_disp.h **** void lv_disp_set_bg_opa(lv_disp_t * disp, lv_opa_t opa);
 116:d:\practise\f407_disc\lvgl\lvgl\src/core\lv_disp.h **** 
 117:d:\practise\f407_disc\lvgl\lvgl\src/core\lv_disp.h **** /**
 118:d:\practise\f407_disc\lvgl\lvgl\src/core\lv_disp.h ****  * Switch screen with animation
 119:d:\practise\f407_disc\lvgl\lvgl\src/core\lv_disp.h ****  * @param scr pointer to the new screen to load
 120:d:\practise\f407_disc\lvgl\lvgl\src/core\lv_disp.h ****  * @param anim_type type of the animation from `lv_scr_load_anim_t`. E.g.  `LV_SCR_LOAD_ANIM_MOVE_L
 121:d:\practise\f407_disc\lvgl\lvgl\src/core\lv_disp.h ****  * @param time time of the animation
 122:d:\practise\f407_disc\lvgl\lvgl\src/core\lv_disp.h ****  * @param delay delay before the transition
 123:d:\practise\f407_disc\lvgl\lvgl\src/core\lv_disp.h ****  * @param auto_del true: automatically delete the old screen
 124:d:\practise\f407_disc\lvgl\lvgl\src/core\lv_disp.h ****  */
 125:d:\practise\f407_disc\lvgl\lvgl\src/core\lv_disp.h **** void lv_scr_load_anim(lv_obj_t * scr, lv_scr_load_anim_t anim_type, uint32_t time, uint32_t delay, 
 126:d:\practise\f407_disc\lvgl\lvgl\src/core\lv_disp.h **** 
 127:d:\practise\f407_disc\lvgl\lvgl\src/core\lv_disp.h **** /**
 128:d:\practise\f407_disc\lvgl\lvgl\src/core\lv_disp.h ****  * Get elapsed time since last user activity on a display (e.g. click)
 129:d:\practise\f407_disc\lvgl\lvgl\src/core\lv_disp.h ****  * @param disp pointer to an display (NULL to get the overall smallest inactivity)
 130:d:\practise\f407_disc\lvgl\lvgl\src/core\lv_disp.h ****  * @return elapsed ticks (milliseconds) since the last activity
 131:d:\practise\f407_disc\lvgl\lvgl\src/core\lv_disp.h ****  */
ARM GAS  C:\Users\gx\AppData\Local\Temp\ccjvTKB3.s 			page 9


 132:d:\practise\f407_disc\lvgl\lvgl\src/core\lv_disp.h **** uint32_t lv_disp_get_inactive_time(const lv_disp_t * disp);
 133:d:\practise\f407_disc\lvgl\lvgl\src/core\lv_disp.h **** 
 134:d:\practise\f407_disc\lvgl\lvgl\src/core\lv_disp.h **** /**
 135:d:\practise\f407_disc\lvgl\lvgl\src/core\lv_disp.h ****  * Manually trigger an activity on a display
 136:d:\practise\f407_disc\lvgl\lvgl\src/core\lv_disp.h ****  * @param disp pointer to an display (NULL to use the default display)
 137:d:\practise\f407_disc\lvgl\lvgl\src/core\lv_disp.h ****  */
 138:d:\practise\f407_disc\lvgl\lvgl\src/core\lv_disp.h **** void lv_disp_trig_activity(lv_disp_t * disp);
 139:d:\practise\f407_disc\lvgl\lvgl\src/core\lv_disp.h **** 
 140:d:\practise\f407_disc\lvgl\lvgl\src/core\lv_disp.h **** /**
 141:d:\practise\f407_disc\lvgl\lvgl\src/core\lv_disp.h ****  * Clean any CPU cache that is related to the display.
 142:d:\practise\f407_disc\lvgl\lvgl\src/core\lv_disp.h ****  * @param disp pointer to an display (NULL to use the default display)
 143:d:\practise\f407_disc\lvgl\lvgl\src/core\lv_disp.h ****  */
 144:d:\practise\f407_disc\lvgl\lvgl\src/core\lv_disp.h **** void lv_disp_clean_dcache(lv_disp_t * disp);
 145:d:\practise\f407_disc\lvgl\lvgl\src/core\lv_disp.h **** 
 146:d:\practise\f407_disc\lvgl\lvgl\src/core\lv_disp.h **** /**
 147:d:\practise\f407_disc\lvgl\lvgl\src/core\lv_disp.h ****  * Get a pointer to the screen refresher timer to
 148:d:\practise\f407_disc\lvgl\lvgl\src/core\lv_disp.h ****  * modify its parameters with `lv_timer_...` functions.
 149:d:\practise\f407_disc\lvgl\lvgl\src/core\lv_disp.h ****  * @param disp pointer to a display
 150:d:\practise\f407_disc\lvgl\lvgl\src/core\lv_disp.h ****  * @return pointer to the display refresher timer. (NULL on error)
 151:d:\practise\f407_disc\lvgl\lvgl\src/core\lv_disp.h ****  */
 152:d:\practise\f407_disc\lvgl\lvgl\src/core\lv_disp.h **** lv_timer_t * _lv_disp_get_refr_timer(lv_disp_t * disp);
 153:d:\practise\f407_disc\lvgl\lvgl\src/core\lv_disp.h **** 
 154:d:\practise\f407_disc\lvgl\lvgl\src/core\lv_disp.h **** /*------------------------------------------------
 155:d:\practise\f407_disc\lvgl\lvgl\src/core\lv_disp.h ****  * To improve backward compatibility
 156:d:\practise\f407_disc\lvgl\lvgl\src/core\lv_disp.h ****  * Recommended only if you have one display
 157:d:\practise\f407_disc\lvgl\lvgl\src/core\lv_disp.h ****  *------------------------------------------------*/
 158:d:\practise\f407_disc\lvgl\lvgl\src/core\lv_disp.h **** 
 159:d:\practise\f407_disc\lvgl\lvgl\src/core\lv_disp.h **** /**
 160:d:\practise\f407_disc\lvgl\lvgl\src/core\lv_disp.h ****  * Get the active screen of the default display
 161:d:\practise\f407_disc\lvgl\lvgl\src/core\lv_disp.h ****  * @return pointer to the active screen
 162:d:\practise\f407_disc\lvgl\lvgl\src/core\lv_disp.h ****  */
 163:d:\practise\f407_disc\lvgl\lvgl\src/core\lv_disp.h **** static inline lv_obj_t * lv_scr_act(void)
 164:d:\practise\f407_disc\lvgl\lvgl\src/core\lv_disp.h **** {
 165:d:\practise\f407_disc\lvgl\lvgl\src/core\lv_disp.h ****     return lv_disp_get_scr_act(lv_disp_get_default());
 166:d:\practise\f407_disc\lvgl\lvgl\src/core\lv_disp.h **** }
 167:d:\practise\f407_disc\lvgl\lvgl\src/core\lv_disp.h **** 
 168:d:\practise\f407_disc\lvgl\lvgl\src/core\lv_disp.h **** /**
 169:d:\practise\f407_disc\lvgl\lvgl\src/core\lv_disp.h ****  * Get the top layer  of the default display
 170:d:\practise\f407_disc\lvgl\lvgl\src/core\lv_disp.h ****  * @return pointer to the top layer
 171:d:\practise\f407_disc\lvgl\lvgl\src/core\lv_disp.h ****  */
 172:d:\practise\f407_disc\lvgl\lvgl\src/core\lv_disp.h **** static inline lv_obj_t * lv_layer_top(void)
 214              		.loc 2 172 26 view .LVU50
 215              	.LBB22:
 173:d:\practise\f407_disc\lvgl\lvgl\src/core\lv_disp.h **** {
 174:d:\practise\f407_disc\lvgl\lvgl\src/core\lv_disp.h ****     return lv_disp_get_layer_top(lv_disp_get_default());
 216              		.loc 2 174 5 view .LVU51
 217              		.loc 2 174 12 is_stmt 0 view .LVU52
 218 00bc FFF7FEFF 		bl	lv_disp_get_default
 219              	.LVL26:
 220              		.loc 2 174 12 view .LVU53
 221 00c0 FFF7FEFF 		bl	lv_disp_get_layer_top
 222              	.LVL27:
 223              	.LBE22:
 224              	.LBE21:
  46:lvgl/lvgl/src/extra/widgets/msgbox/lv_msgbox.c ****         lv_obj_remove_style_all(parent);
 225              		.loc 1 46 18 view .LVU54
 226 00c4 FFF7FEFF 		bl	lv_obj_create
ARM GAS  C:\Users\gx\AppData\Local\Temp\ccjvTKB3.s 			page 10


 227              	.LVL28:
 228 00c8 0446     		mov	r4, r0
 229              	.LVL29:
  47:lvgl/lvgl/src/extra/widgets/msgbox/lv_msgbox.c ****         lv_obj_clear_flag(parent, LV_OBJ_FLAG_IGNORE_LAYOUT);
 230              		.loc 1 47 9 is_stmt 1 view .LVU55
 231              	.LBB23:
 232              	.LBI23:
 233              		.file 3 "d:\\practise\\f407_disc\\lvgl\\lvgl\\src/core/lv_obj_style.h"
   1:d:\practise\f407_disc\lvgl\lvgl\src/core\lv_obj_style.h **** /**
   2:d:\practise\f407_disc\lvgl\lvgl\src/core\lv_obj_style.h ****  * @file lv_obj_style.h
   3:d:\practise\f407_disc\lvgl\lvgl\src/core\lv_obj_style.h ****  *
   4:d:\practise\f407_disc\lvgl\lvgl\src/core\lv_obj_style.h ****  */
   5:d:\practise\f407_disc\lvgl\lvgl\src/core\lv_obj_style.h **** 
   6:d:\practise\f407_disc\lvgl\lvgl\src/core\lv_obj_style.h **** #ifndef LV_OBJ_STYLE_H
   7:d:\practise\f407_disc\lvgl\lvgl\src/core\lv_obj_style.h **** #define LV_OBJ_STYLE_H
   8:d:\practise\f407_disc\lvgl\lvgl\src/core\lv_obj_style.h **** 
   9:d:\practise\f407_disc\lvgl\lvgl\src/core\lv_obj_style.h **** #ifdef __cplusplus
  10:d:\practise\f407_disc\lvgl\lvgl\src/core\lv_obj_style.h **** extern "C" {
  11:d:\practise\f407_disc\lvgl\lvgl\src/core\lv_obj_style.h **** #endif
  12:d:\practise\f407_disc\lvgl\lvgl\src/core\lv_obj_style.h **** 
  13:d:\practise\f407_disc\lvgl\lvgl\src/core\lv_obj_style.h **** /*********************
  14:d:\practise\f407_disc\lvgl\lvgl\src/core\lv_obj_style.h ****  *      INCLUDES
  15:d:\practise\f407_disc\lvgl\lvgl\src/core\lv_obj_style.h ****  *********************/
  16:d:\practise\f407_disc\lvgl\lvgl\src/core\lv_obj_style.h **** #include <stdint.h>
  17:d:\practise\f407_disc\lvgl\lvgl\src/core\lv_obj_style.h **** #include <stdbool.h>
  18:d:\practise\f407_disc\lvgl\lvgl\src/core\lv_obj_style.h **** #include "../misc/lv_bidi.h"
  19:d:\practise\f407_disc\lvgl\lvgl\src/core\lv_obj_style.h **** 
  20:d:\practise\f407_disc\lvgl\lvgl\src/core\lv_obj_style.h **** /*********************
  21:d:\practise\f407_disc\lvgl\lvgl\src/core\lv_obj_style.h ****  *      DEFINES
  22:d:\practise\f407_disc\lvgl\lvgl\src/core\lv_obj_style.h ****  *********************/
  23:d:\practise\f407_disc\lvgl\lvgl\src/core\lv_obj_style.h **** 
  24:d:\practise\f407_disc\lvgl\lvgl\src/core\lv_obj_style.h **** /**********************
  25:d:\practise\f407_disc\lvgl\lvgl\src/core\lv_obj_style.h ****  *      TYPEDEFS
  26:d:\practise\f407_disc\lvgl\lvgl\src/core\lv_obj_style.h ****  **********************/
  27:d:\practise\f407_disc\lvgl\lvgl\src/core\lv_obj_style.h **** /*Can't include lv_obj.h because it includes this header file*/
  28:d:\practise\f407_disc\lvgl\lvgl\src/core\lv_obj_style.h **** struct _lv_obj_t;
  29:d:\practise\f407_disc\lvgl\lvgl\src/core\lv_obj_style.h **** 
  30:d:\practise\f407_disc\lvgl\lvgl\src/core\lv_obj_style.h **** typedef enum {
  31:d:\practise\f407_disc\lvgl\lvgl\src/core\lv_obj_style.h ****     _LV_STYLE_STATE_CMP_SAME,           /*The style properties in the 2 states are identical*/
  32:d:\practise\f407_disc\lvgl\lvgl\src/core\lv_obj_style.h ****     _LV_STYLE_STATE_CMP_DIFF_REDRAW,    /*The differences can be shown with a simple redraw*/
  33:d:\practise\f407_disc\lvgl\lvgl\src/core\lv_obj_style.h ****     _LV_STYLE_STATE_CMP_DIFF_DRAW_PAD,  /*The differences can be shown with a simple redraw*/
  34:d:\practise\f407_disc\lvgl\lvgl\src/core\lv_obj_style.h ****     _LV_STYLE_STATE_CMP_DIFF_LAYOUT,    /*The differences can be shown with a simple redraw*/
  35:d:\practise\f407_disc\lvgl\lvgl\src/core\lv_obj_style.h **** } _lv_style_state_cmp_t;
  36:d:\practise\f407_disc\lvgl\lvgl\src/core\lv_obj_style.h **** 
  37:d:\practise\f407_disc\lvgl\lvgl\src/core\lv_obj_style.h **** typedef uint32_t lv_style_selector_t;
  38:d:\practise\f407_disc\lvgl\lvgl\src/core\lv_obj_style.h **** 
  39:d:\practise\f407_disc\lvgl\lvgl\src/core\lv_obj_style.h **** typedef struct {
  40:d:\practise\f407_disc\lvgl\lvgl\src/core\lv_obj_style.h ****     lv_style_t * style;
  41:d:\practise\f407_disc\lvgl\lvgl\src/core\lv_obj_style.h ****     uint32_t selector :24;
  42:d:\practise\f407_disc\lvgl\lvgl\src/core\lv_obj_style.h ****     uint32_t is_local :1;
  43:d:\practise\f407_disc\lvgl\lvgl\src/core\lv_obj_style.h ****     uint32_t is_trans :1;
  44:d:\practise\f407_disc\lvgl\lvgl\src/core\lv_obj_style.h **** }_lv_obj_style_t;
  45:d:\practise\f407_disc\lvgl\lvgl\src/core\lv_obj_style.h **** 
  46:d:\practise\f407_disc\lvgl\lvgl\src/core\lv_obj_style.h **** typedef struct {
  47:d:\practise\f407_disc\lvgl\lvgl\src/core\lv_obj_style.h ****     uint16_t time;
  48:d:\practise\f407_disc\lvgl\lvgl\src/core\lv_obj_style.h ****     uint16_t delay;
  49:d:\practise\f407_disc\lvgl\lvgl\src/core\lv_obj_style.h ****     lv_style_selector_t selector;
ARM GAS  C:\Users\gx\AppData\Local\Temp\ccjvTKB3.s 			page 11


  50:d:\practise\f407_disc\lvgl\lvgl\src/core\lv_obj_style.h ****     lv_style_prop_t prop;
  51:d:\practise\f407_disc\lvgl\lvgl\src/core\lv_obj_style.h ****     lv_anim_path_cb_t path_cb;
  52:d:\practise\f407_disc\lvgl\lvgl\src/core\lv_obj_style.h **** #if LV_USE_USER_DATA
  53:d:\practise\f407_disc\lvgl\lvgl\src/core\lv_obj_style.h ****     void * user_data;
  54:d:\practise\f407_disc\lvgl\lvgl\src/core\lv_obj_style.h **** #endif
  55:d:\practise\f407_disc\lvgl\lvgl\src/core\lv_obj_style.h **** }_lv_obj_style_transition_dsc_t;
  56:d:\practise\f407_disc\lvgl\lvgl\src/core\lv_obj_style.h **** 
  57:d:\practise\f407_disc\lvgl\lvgl\src/core\lv_obj_style.h **** /**********************
  58:d:\practise\f407_disc\lvgl\lvgl\src/core\lv_obj_style.h ****  * GLOBAL PROTOTYPES
  59:d:\practise\f407_disc\lvgl\lvgl\src/core\lv_obj_style.h ****  **********************/
  60:d:\practise\f407_disc\lvgl\lvgl\src/core\lv_obj_style.h **** 
  61:d:\practise\f407_disc\lvgl\lvgl\src/core\lv_obj_style.h **** /**
  62:d:\practise\f407_disc\lvgl\lvgl\src/core\lv_obj_style.h ****  * Initialize the object related style manager module.
  63:d:\practise\f407_disc\lvgl\lvgl\src/core\lv_obj_style.h ****  * Called by LVGL in `lv_init()`
  64:d:\practise\f407_disc\lvgl\lvgl\src/core\lv_obj_style.h ****  */
  65:d:\practise\f407_disc\lvgl\lvgl\src/core\lv_obj_style.h **** void _lv_obj_style_init(void);
  66:d:\practise\f407_disc\lvgl\lvgl\src/core\lv_obj_style.h **** 
  67:d:\practise\f407_disc\lvgl\lvgl\src/core\lv_obj_style.h **** /**
  68:d:\practise\f407_disc\lvgl\lvgl\src/core\lv_obj_style.h ****  * Add a style to an object.
  69:d:\practise\f407_disc\lvgl\lvgl\src/core\lv_obj_style.h ****  * @param obj       pointer to an object
  70:d:\practise\f407_disc\lvgl\lvgl\src/core\lv_obj_style.h ****  * @param style     pointer to a style to add
  71:d:\practise\f407_disc\lvgl\lvgl\src/core\lv_obj_style.h ****  * @param selector  OR-ed value of parts and state to which the style should be added
  72:d:\practise\f407_disc\lvgl\lvgl\src/core\lv_obj_style.h ****  * @example         lv_obj_add_style(btn, &style_btn, 0); //Default button style
  73:d:\practise\f407_disc\lvgl\lvgl\src/core\lv_obj_style.h ****  * @example         lv_obj_add_style(btn, &btn_red, LV_STATE_PRESSED); //Overwrite only some colors
  74:d:\practise\f407_disc\lvgl\lvgl\src/core\lv_obj_style.h ****  */
  75:d:\practise\f407_disc\lvgl\lvgl\src/core\lv_obj_style.h **** void lv_obj_add_style(struct _lv_obj_t * obj, lv_style_t * style, lv_style_selector_t selector);
  76:d:\practise\f407_disc\lvgl\lvgl\src/core\lv_obj_style.h **** 
  77:d:\practise\f407_disc\lvgl\lvgl\src/core\lv_obj_style.h **** /**
  78:d:\practise\f407_disc\lvgl\lvgl\src/core\lv_obj_style.h ****  * Add a style to an object.
  79:d:\practise\f407_disc\lvgl\lvgl\src/core\lv_obj_style.h ****  * @param obj       pointer to an object
  80:d:\practise\f407_disc\lvgl\lvgl\src/core\lv_obj_style.h ****  * @param style     pointer to a style to remove. Can be NULL to check only the selector
  81:d:\practise\f407_disc\lvgl\lvgl\src/core\lv_obj_style.h ****  * @param selector  OR-ed values of states and a part to remove only styles with matching selectors
  82:d:\practise\f407_disc\lvgl\lvgl\src/core\lv_obj_style.h ****  * @example lv_obj_remove_style(obj, &style, LV_PART_ANY | LV_STATE_ANY); //Remove a specific style
  83:d:\practise\f407_disc\lvgl\lvgl\src/core\lv_obj_style.h ****  * @example lv_obj_remove_style(obj, NULL, LV_PART_MAIN | LV_STATE_ANY); //Remove all styles from t
  84:d:\practise\f407_disc\lvgl\lvgl\src/core\lv_obj_style.h ****  * @example lv_obj_remove_style(obj, NULL, LV_PART_ANY | LV_STATE_ANY); //Remove all styles
  85:d:\practise\f407_disc\lvgl\lvgl\src/core\lv_obj_style.h ****  */
  86:d:\practise\f407_disc\lvgl\lvgl\src/core\lv_obj_style.h **** void lv_obj_remove_style(struct _lv_obj_t * obj, lv_style_t * style, lv_style_selector_t selector);
  87:d:\practise\f407_disc\lvgl\lvgl\src/core\lv_obj_style.h **** 
  88:d:\practise\f407_disc\lvgl\lvgl\src/core\lv_obj_style.h **** /**
  89:d:\practise\f407_disc\lvgl\lvgl\src/core\lv_obj_style.h ****  * Remove all styles from an object
  90:d:\practise\f407_disc\lvgl\lvgl\src/core\lv_obj_style.h ****  * @param obj       pointer to an object
  91:d:\practise\f407_disc\lvgl\lvgl\src/core\lv_obj_style.h ****  */
  92:d:\practise\f407_disc\lvgl\lvgl\src/core\lv_obj_style.h **** static inline void lv_obj_remove_style_all(struct _lv_obj_t * obj)
 234              		.loc 3 92 20 view .LVU56
 235              	.LBB24:
  93:d:\practise\f407_disc\lvgl\lvgl\src/core\lv_obj_style.h **** {
  94:d:\practise\f407_disc\lvgl\lvgl\src/core\lv_obj_style.h ****     lv_obj_remove_style(obj, NULL, LV_PART_ANY | LV_STATE_ANY);
 236              		.loc 3 94 5 view .LVU57
 237 00ca 5C4A     		ldr	r2, .L25+4
 238 00cc 0021     		movs	r1, #0
 239 00ce FFF7FEFF 		bl	lv_obj_remove_style
 240              	.LVL30:
 241              		.loc 3 94 5 is_stmt 0 view .LVU58
 242              	.LBE24:
 243              	.LBE23:
  48:lvgl/lvgl/src/extra/widgets/msgbox/lv_msgbox.c ****         lv_obj_set_style_bg_color(parent, lv_palette_main(LV_PALETTE_GREY), 0);
 244              		.loc 1 48 9 is_stmt 1 view .LVU59
ARM GAS  C:\Users\gx\AppData\Local\Temp\ccjvTKB3.s 			page 12


 245 00d2 4FF40041 		mov	r1, #32768
 246 00d6 2046     		mov	r0, r4
 247 00d8 FFF7FEFF 		bl	lv_obj_clear_flag
 248              	.LVL31:
  49:lvgl/lvgl/src/extra/widgets/msgbox/lv_msgbox.c ****         lv_obj_set_style_bg_opa(parent, LV_OPA_50, 0);
 249              		.loc 1 49 9 view .LVU60
 250 00dc 1220     		movs	r0, #18
 251 00de FFF7FEFF 		bl	lv_palette_main
 252              	.LVL32:
 253 00e2 0146     		mov	r1, r0	@ movhi
 254 00e4 0022     		movs	r2, #0
 255 00e6 2046     		mov	r0, r4
 256 00e8 FFF7FEFF 		bl	lv_obj_set_style_bg_color
 257              	.LVL33:
  50:lvgl/lvgl/src/extra/widgets/msgbox/lv_msgbox.c ****         lv_obj_set_size(parent, LV_PCT(100), LV_PCT(100));
 258              		.loc 1 50 9 view .LVU61
 259 00ec 0022     		movs	r2, #0
 260 00ee 7F21     		movs	r1, #127
 261 00f0 2046     		mov	r0, r4
 262 00f2 FFF7FEFF 		bl	lv_obj_set_style_bg_opa
 263              	.LVL34:
  51:lvgl/lvgl/src/extra/widgets/msgbox/lv_msgbox.c ****     }
 264              		.loc 1 51 9 view .LVU62
 265 00f6 42F26402 		movw	r2, #8292
 266 00fa 1146     		mov	r1, r2
 267 00fc 2046     		mov	r0, r4
 268 00fe FFF7FEFF 		bl	lv_obj_set_size
 269              	.LVL35:
  45:lvgl/lvgl/src/extra/widgets/msgbox/lv_msgbox.c ****         parent = lv_obj_create(lv_layer_top());
 270              		.loc 1 45 21 is_stmt 0 view .LVU63
 271 0102 0125     		movs	r5, #1
 272 0104 88E7     		b	.L2
 273              	.LVL36:
 274              	.L20:
  56:lvgl/lvgl/src/extra/widgets/msgbox/lv_msgbox.c ****     if(mbox == NULL) return NULL;
 275              		.loc 1 56 5 is_stmt 1 discriminator 1 view .LVU64
 276 0106 4E4B     		ldr	r3, .L25+8
 277 0108 0293     		str	r3, [sp, #8]
 278 010a 4E4B     		ldr	r3, .L25+12
 279 010c 0193     		str	r3, [sp, #4]
 280 010e 4E4B     		ldr	r3, .L25+16
 281 0110 0093     		str	r3, [sp]
 282 0112 4E4B     		ldr	r3, .L25+20
 283 0114 3822     		movs	r2, #56
 284 0116 4E49     		ldr	r1, .L25+24
 285 0118 0320     		movs	r0, #3
 286 011a FFF7FEFF 		bl	_lv_log_add
 287              	.LVL37:
 288              	.L4:
  56:lvgl/lvgl/src/extra/widgets/msgbox/lv_msgbox.c ****     if(mbox == NULL) return NULL;
 289              		.loc 1 56 5 discriminator 1 view .LVU65
  56:lvgl/lvgl/src/extra/widgets/msgbox/lv_msgbox.c ****     if(mbox == NULL) return NULL;
 290              		.loc 1 56 5 discriminator 1 view .LVU66
  56:lvgl/lvgl/src/extra/widgets/msgbox/lv_msgbox.c ****     if(mbox == NULL) return NULL;
 291              		.loc 1 56 5 discriminator 1 view .LVU67
  56:lvgl/lvgl/src/extra/widgets/msgbox/lv_msgbox.c ****     if(mbox == NULL) return NULL;
 292              		.loc 1 56 5 discriminator 1 view .LVU68
ARM GAS  C:\Users\gx\AppData\Local\Temp\ccjvTKB3.s 			page 13


 293 011e FEE7     		b	.L4
 294              	.L21:
  59:lvgl/lvgl/src/extra/widgets/msgbox/lv_msgbox.c **** 
 295              		.loc 1 59 21 discriminator 1 view .LVU69
 296 0120 4FF00071 		mov	r1, #33554432
 297 0124 2046     		mov	r0, r4
 298 0126 FFF7FEFF 		bl	lv_obj_add_flag
 299              	.LVL38:
 300 012a 80E7     		b	.L5
 301              	.LVL39:
 302              	.L6:
  70:lvgl/lvgl/src/extra/widgets/msgbox/lv_msgbox.c **** 
 303              		.loc 1 70 10 view .LVU70
 304 012c 42F26401 		movw	r1, #8292
 305 0130 2846     		mov	r0, r5
 306 0132 FFF7FEFF 		bl	lv_obj_set_width
 307              	.LVL40:
 308 0136 9DE7     		b	.L7
 309              	.L22:
 310              	.LBB25:
  73:lvgl/lvgl/src/extra/widgets/msgbox/lv_msgbox.c ****         lv_obj_set_ext_click_area(close_btn, LV_DPX(10));
 311              		.loc 1 73 9 view .LVU71
  73:lvgl/lvgl/src/extra/widgets/msgbox/lv_msgbox.c ****         lv_obj_set_ext_click_area(close_btn, LV_DPX(10));
 312              		.loc 1 73 32 is_stmt 0 view .LVU72
 313 0138 2046     		mov	r0, r4
 314 013a FFF7FEFF 		bl	lv_btn_create
 315              	.LVL41:
 316 013e 0646     		mov	r6, r0
 317              	.LVL42:
  74:lvgl/lvgl/src/extra/widgets/msgbox/lv_msgbox.c ****         lv_obj_add_event_cb(close_btn, msgbox_close_click_event_cb, LV_EVENT_CLICKED, NULL);
 318              		.loc 1 74 9 is_stmt 1 view .LVU73
  74:lvgl/lvgl/src/extra/widgets/msgbox/lv_msgbox.c ****         lv_obj_add_event_cb(close_btn, msgbox_close_click_event_cb, LV_EVENT_CLICKED, NULL);
 319              		.loc 1 74 46 is_stmt 0 view .LVU74
 320 0140 0020     		movs	r0, #0
 321              	.LVL43:
  74:lvgl/lvgl/src/extra/widgets/msgbox/lv_msgbox.c ****         lv_obj_add_event_cb(close_btn, msgbox_close_click_event_cb, LV_EVENT_CLICKED, NULL);
 322              		.loc 1 74 46 view .LVU75
 323 0142 FFF7FEFF 		bl	lv_disp_get_dpi
 324              	.LVL44:
 325 0146 00EB8000 		add	r0, r0, r0, lsl #2
 326 014a 4300     		lsls	r3, r0, #1
  74:lvgl/lvgl/src/extra/widgets/msgbox/lv_msgbox.c ****         lv_obj_add_event_cb(close_btn, msgbox_close_click_event_cb, LV_EVENT_CLICKED, NULL);
 327              		.loc 1 74 9 view .LVU76
 328 014c EF2B     		cmp	r3, #239
 329 014e 2FDC     		bgt	.L23
 330 0150 0121     		movs	r1, #1
 331              	.L9:
  74:lvgl/lvgl/src/extra/widgets/msgbox/lv_msgbox.c ****         lv_obj_add_event_cb(close_btn, msgbox_close_click_event_cb, LV_EVENT_CLICKED, NULL);
 332              		.loc 1 74 9 discriminator 4 view .LVU77
 333 0152 3046     		mov	r0, r6
 334 0154 FFF7FEFF 		bl	lv_obj_set_ext_click_area
 335              	.LVL45:
  75:lvgl/lvgl/src/extra/widgets/msgbox/lv_msgbox.c ****         label = lv_label_create(close_btn);
 336              		.loc 1 75 9 is_stmt 1 discriminator 4 view .LVU78
 337 0158 0023     		movs	r3, #0
 338 015a 0722     		movs	r2, #7
 339 015c 3D49     		ldr	r1, .L25+28
ARM GAS  C:\Users\gx\AppData\Local\Temp\ccjvTKB3.s 			page 14


 340 015e 3046     		mov	r0, r6
 341 0160 FFF7FEFF 		bl	lv_obj_add_event_cb
 342              	.LVL46:
  76:lvgl/lvgl/src/extra/widgets/msgbox/lv_msgbox.c ****         lv_label_set_text(label, LV_SYMBOL_CLOSE);
 343              		.loc 1 76 9 discriminator 4 view .LVU79
  76:lvgl/lvgl/src/extra/widgets/msgbox/lv_msgbox.c ****         lv_label_set_text(label, LV_SYMBOL_CLOSE);
 344              		.loc 1 76 17 is_stmt 0 discriminator 4 view .LVU80
 345 0164 3046     		mov	r0, r6
 346 0166 FFF7FEFF 		bl	lv_label_create
 347              	.LVL47:
 348 016a 8146     		mov	r9, r0
 349              	.LVL48:
  77:lvgl/lvgl/src/extra/widgets/msgbox/lv_msgbox.c ****         const lv_font_t * font = lv_obj_get_style_text_font(close_btn, LV_PART_MAIN);
 350              		.loc 1 77 9 is_stmt 1 discriminator 4 view .LVU81
 351 016c 3A49     		ldr	r1, .L25+32
 352 016e FFF7FEFF 		bl	lv_label_set_text
 353              	.LVL49:
  78:lvgl/lvgl/src/extra/widgets/msgbox/lv_msgbox.c ****         lv_coord_t close_btn_size = lv_font_get_line_height(font) + LV_DPX(10);
 354              		.loc 1 78 9 discriminator 4 view .LVU82
 355              	.LBB26:
 356              	.LBI26:
 357              		.file 4 "d:\\practise\\f407_disc\\lvgl\\lvgl\\src/core/lv_obj_style_gen.h"
   1:d:\practise\f407_disc\lvgl\lvgl\src/core\lv_obj_style_gen.h **** static inline lv_coord_t lv_obj_get_style_width(const struct _lv_obj_t * obj, uint32_t part)
   2:d:\practise\f407_disc\lvgl\lvgl\src/core\lv_obj_style_gen.h **** {
   3:d:\practise\f407_disc\lvgl\lvgl\src/core\lv_obj_style_gen.h ****     lv_style_value_t v = lv_obj_get_style_prop(obj, part, LV_STYLE_WIDTH);
   4:d:\practise\f407_disc\lvgl\lvgl\src/core\lv_obj_style_gen.h ****     return (lv_coord_t)v.num;
   5:d:\practise\f407_disc\lvgl\lvgl\src/core\lv_obj_style_gen.h **** }
   6:d:\practise\f407_disc\lvgl\lvgl\src/core\lv_obj_style_gen.h **** 
   7:d:\practise\f407_disc\lvgl\lvgl\src/core\lv_obj_style_gen.h **** static inline lv_coord_t lv_obj_get_style_min_width(const struct _lv_obj_t * obj, uint32_t part)
   8:d:\practise\f407_disc\lvgl\lvgl\src/core\lv_obj_style_gen.h **** {
   9:d:\practise\f407_disc\lvgl\lvgl\src/core\lv_obj_style_gen.h ****     lv_style_value_t v = lv_obj_get_style_prop(obj, part, LV_STYLE_MIN_WIDTH);
  10:d:\practise\f407_disc\lvgl\lvgl\src/core\lv_obj_style_gen.h ****     return (lv_coord_t)v.num;
  11:d:\practise\f407_disc\lvgl\lvgl\src/core\lv_obj_style_gen.h **** }
  12:d:\practise\f407_disc\lvgl\lvgl\src/core\lv_obj_style_gen.h **** 
  13:d:\practise\f407_disc\lvgl\lvgl\src/core\lv_obj_style_gen.h **** static inline lv_coord_t lv_obj_get_style_max_width(const struct _lv_obj_t * obj, uint32_t part)
  14:d:\practise\f407_disc\lvgl\lvgl\src/core\lv_obj_style_gen.h **** {
  15:d:\practise\f407_disc\lvgl\lvgl\src/core\lv_obj_style_gen.h ****     lv_style_value_t v = lv_obj_get_style_prop(obj, part, LV_STYLE_MAX_WIDTH);
  16:d:\practise\f407_disc\lvgl\lvgl\src/core\lv_obj_style_gen.h ****     return (lv_coord_t)v.num;
  17:d:\practise\f407_disc\lvgl\lvgl\src/core\lv_obj_style_gen.h **** }
  18:d:\practise\f407_disc\lvgl\lvgl\src/core\lv_obj_style_gen.h **** 
  19:d:\practise\f407_disc\lvgl\lvgl\src/core\lv_obj_style_gen.h **** static inline lv_coord_t lv_obj_get_style_height(const struct _lv_obj_t * obj, uint32_t part)
  20:d:\practise\f407_disc\lvgl\lvgl\src/core\lv_obj_style_gen.h **** {
  21:d:\practise\f407_disc\lvgl\lvgl\src/core\lv_obj_style_gen.h ****     lv_style_value_t v = lv_obj_get_style_prop(obj, part, LV_STYLE_HEIGHT);
  22:d:\practise\f407_disc\lvgl\lvgl\src/core\lv_obj_style_gen.h ****     return (lv_coord_t)v.num;
  23:d:\practise\f407_disc\lvgl\lvgl\src/core\lv_obj_style_gen.h **** }
  24:d:\practise\f407_disc\lvgl\lvgl\src/core\lv_obj_style_gen.h **** 
  25:d:\practise\f407_disc\lvgl\lvgl\src/core\lv_obj_style_gen.h **** static inline lv_coord_t lv_obj_get_style_min_height(const struct _lv_obj_t * obj, uint32_t part)
  26:d:\practise\f407_disc\lvgl\lvgl\src/core\lv_obj_style_gen.h **** {
  27:d:\practise\f407_disc\lvgl\lvgl\src/core\lv_obj_style_gen.h ****     lv_style_value_t v = lv_obj_get_style_prop(obj, part, LV_STYLE_MIN_HEIGHT);
  28:d:\practise\f407_disc\lvgl\lvgl\src/core\lv_obj_style_gen.h ****     return (lv_coord_t)v.num;
  29:d:\practise\f407_disc\lvgl\lvgl\src/core\lv_obj_style_gen.h **** }
  30:d:\practise\f407_disc\lvgl\lvgl\src/core\lv_obj_style_gen.h **** 
  31:d:\practise\f407_disc\lvgl\lvgl\src/core\lv_obj_style_gen.h **** static inline lv_coord_t lv_obj_get_style_max_height(const struct _lv_obj_t * obj, uint32_t part)
  32:d:\practise\f407_disc\lvgl\lvgl\src/core\lv_obj_style_gen.h **** {
  33:d:\practise\f407_disc\lvgl\lvgl\src/core\lv_obj_style_gen.h ****     lv_style_value_t v = lv_obj_get_style_prop(obj, part, LV_STYLE_MAX_HEIGHT);
  34:d:\practise\f407_disc\lvgl\lvgl\src/core\lv_obj_style_gen.h ****     return (lv_coord_t)v.num;
  35:d:\practise\f407_disc\lvgl\lvgl\src/core\lv_obj_style_gen.h **** }
ARM GAS  C:\Users\gx\AppData\Local\Temp\ccjvTKB3.s 			page 15


  36:d:\practise\f407_disc\lvgl\lvgl\src/core\lv_obj_style_gen.h **** 
  37:d:\practise\f407_disc\lvgl\lvgl\src/core\lv_obj_style_gen.h **** static inline lv_coord_t lv_obj_get_style_x(const struct _lv_obj_t * obj, uint32_t part)
  38:d:\practise\f407_disc\lvgl\lvgl\src/core\lv_obj_style_gen.h **** {
  39:d:\practise\f407_disc\lvgl\lvgl\src/core\lv_obj_style_gen.h ****     lv_style_value_t v = lv_obj_get_style_prop(obj, part, LV_STYLE_X);
  40:d:\practise\f407_disc\lvgl\lvgl\src/core\lv_obj_style_gen.h ****     return (lv_coord_t)v.num;
  41:d:\practise\f407_disc\lvgl\lvgl\src/core\lv_obj_style_gen.h **** }
  42:d:\practise\f407_disc\lvgl\lvgl\src/core\lv_obj_style_gen.h **** 
  43:d:\practise\f407_disc\lvgl\lvgl\src/core\lv_obj_style_gen.h **** static inline lv_coord_t lv_obj_get_style_y(const struct _lv_obj_t * obj, uint32_t part)
  44:d:\practise\f407_disc\lvgl\lvgl\src/core\lv_obj_style_gen.h **** {
  45:d:\practise\f407_disc\lvgl\lvgl\src/core\lv_obj_style_gen.h ****     lv_style_value_t v = lv_obj_get_style_prop(obj, part, LV_STYLE_Y);
  46:d:\practise\f407_disc\lvgl\lvgl\src/core\lv_obj_style_gen.h ****     return (lv_coord_t)v.num;
  47:d:\practise\f407_disc\lvgl\lvgl\src/core\lv_obj_style_gen.h **** }
  48:d:\practise\f407_disc\lvgl\lvgl\src/core\lv_obj_style_gen.h **** 
  49:d:\practise\f407_disc\lvgl\lvgl\src/core\lv_obj_style_gen.h **** static inline lv_align_t lv_obj_get_style_align(const struct _lv_obj_t * obj, uint32_t part)
  50:d:\practise\f407_disc\lvgl\lvgl\src/core\lv_obj_style_gen.h **** {
  51:d:\practise\f407_disc\lvgl\lvgl\src/core\lv_obj_style_gen.h ****     lv_style_value_t v = lv_obj_get_style_prop(obj, part, LV_STYLE_ALIGN);
  52:d:\practise\f407_disc\lvgl\lvgl\src/core\lv_obj_style_gen.h ****     return (lv_align_t)v.num;
  53:d:\practise\f407_disc\lvgl\lvgl\src/core\lv_obj_style_gen.h **** }
  54:d:\practise\f407_disc\lvgl\lvgl\src/core\lv_obj_style_gen.h **** 
  55:d:\practise\f407_disc\lvgl\lvgl\src/core\lv_obj_style_gen.h **** static inline lv_coord_t lv_obj_get_style_transform_width(const struct _lv_obj_t * obj, uint32_t pa
  56:d:\practise\f407_disc\lvgl\lvgl\src/core\lv_obj_style_gen.h **** {
  57:d:\practise\f407_disc\lvgl\lvgl\src/core\lv_obj_style_gen.h ****     lv_style_value_t v = lv_obj_get_style_prop(obj, part, LV_STYLE_TRANSFORM_WIDTH);
  58:d:\practise\f407_disc\lvgl\lvgl\src/core\lv_obj_style_gen.h ****     return (lv_coord_t)v.num;
  59:d:\practise\f407_disc\lvgl\lvgl\src/core\lv_obj_style_gen.h **** }
  60:d:\practise\f407_disc\lvgl\lvgl\src/core\lv_obj_style_gen.h **** 
  61:d:\practise\f407_disc\lvgl\lvgl\src/core\lv_obj_style_gen.h **** static inline lv_coord_t lv_obj_get_style_transform_height(const struct _lv_obj_t * obj, uint32_t p
  62:d:\practise\f407_disc\lvgl\lvgl\src/core\lv_obj_style_gen.h **** {
  63:d:\practise\f407_disc\lvgl\lvgl\src/core\lv_obj_style_gen.h ****     lv_style_value_t v = lv_obj_get_style_prop(obj, part, LV_STYLE_TRANSFORM_HEIGHT);
  64:d:\practise\f407_disc\lvgl\lvgl\src/core\lv_obj_style_gen.h ****     return (lv_coord_t)v.num;
  65:d:\practise\f407_disc\lvgl\lvgl\src/core\lv_obj_style_gen.h **** }
  66:d:\practise\f407_disc\lvgl\lvgl\src/core\lv_obj_style_gen.h **** 
  67:d:\practise\f407_disc\lvgl\lvgl\src/core\lv_obj_style_gen.h **** static inline lv_coord_t lv_obj_get_style_translate_x(const struct _lv_obj_t * obj, uint32_t part)
  68:d:\practise\f407_disc\lvgl\lvgl\src/core\lv_obj_style_gen.h **** {
  69:d:\practise\f407_disc\lvgl\lvgl\src/core\lv_obj_style_gen.h ****     lv_style_value_t v = lv_obj_get_style_prop(obj, part, LV_STYLE_TRANSLATE_X);
  70:d:\practise\f407_disc\lvgl\lvgl\src/core\lv_obj_style_gen.h ****     return (lv_coord_t)v.num;
  71:d:\practise\f407_disc\lvgl\lvgl\src/core\lv_obj_style_gen.h **** }
  72:d:\practise\f407_disc\lvgl\lvgl\src/core\lv_obj_style_gen.h **** 
  73:d:\practise\f407_disc\lvgl\lvgl\src/core\lv_obj_style_gen.h **** static inline lv_coord_t lv_obj_get_style_translate_y(const struct _lv_obj_t * obj, uint32_t part)
  74:d:\practise\f407_disc\lvgl\lvgl\src/core\lv_obj_style_gen.h **** {
  75:d:\practise\f407_disc\lvgl\lvgl\src/core\lv_obj_style_gen.h ****     lv_style_value_t v = lv_obj_get_style_prop(obj, part, LV_STYLE_TRANSLATE_Y);
  76:d:\practise\f407_disc\lvgl\lvgl\src/core\lv_obj_style_gen.h ****     return (lv_coord_t)v.num;
  77:d:\practise\f407_disc\lvgl\lvgl\src/core\lv_obj_style_gen.h **** }
  78:d:\practise\f407_disc\lvgl\lvgl\src/core\lv_obj_style_gen.h **** 
  79:d:\practise\f407_disc\lvgl\lvgl\src/core\lv_obj_style_gen.h **** static inline lv_coord_t lv_obj_get_style_transform_zoom(const struct _lv_obj_t * obj, uint32_t par
  80:d:\practise\f407_disc\lvgl\lvgl\src/core\lv_obj_style_gen.h **** {
  81:d:\practise\f407_disc\lvgl\lvgl\src/core\lv_obj_style_gen.h ****     lv_style_value_t v = lv_obj_get_style_prop(obj, part, LV_STYLE_TRANSFORM_ZOOM);
  82:d:\practise\f407_disc\lvgl\lvgl\src/core\lv_obj_style_gen.h ****     return (lv_coord_t)v.num;
  83:d:\practise\f407_disc\lvgl\lvgl\src/core\lv_obj_style_gen.h **** }
  84:d:\practise\f407_disc\lvgl\lvgl\src/core\lv_obj_style_gen.h **** 
  85:d:\practise\f407_disc\lvgl\lvgl\src/core\lv_obj_style_gen.h **** static inline lv_coord_t lv_obj_get_style_transform_angle(const struct _lv_obj_t * obj, uint32_t pa
  86:d:\practise\f407_disc\lvgl\lvgl\src/core\lv_obj_style_gen.h **** {
  87:d:\practise\f407_disc\lvgl\lvgl\src/core\lv_obj_style_gen.h ****     lv_style_value_t v = lv_obj_get_style_prop(obj, part, LV_STYLE_TRANSFORM_ANGLE);
  88:d:\practise\f407_disc\lvgl\lvgl\src/core\lv_obj_style_gen.h ****     return (lv_coord_t)v.num;
  89:d:\practise\f407_disc\lvgl\lvgl\src/core\lv_obj_style_gen.h **** }
  90:d:\practise\f407_disc\lvgl\lvgl\src/core\lv_obj_style_gen.h **** 
  91:d:\practise\f407_disc\lvgl\lvgl\src/core\lv_obj_style_gen.h **** static inline lv_coord_t lv_obj_get_style_pad_top(const struct _lv_obj_t * obj, uint32_t part)
  92:d:\practise\f407_disc\lvgl\lvgl\src/core\lv_obj_style_gen.h **** {
ARM GAS  C:\Users\gx\AppData\Local\Temp\ccjvTKB3.s 			page 16


  93:d:\practise\f407_disc\lvgl\lvgl\src/core\lv_obj_style_gen.h ****     lv_style_value_t v = lv_obj_get_style_prop(obj, part, LV_STYLE_PAD_TOP);
  94:d:\practise\f407_disc\lvgl\lvgl\src/core\lv_obj_style_gen.h ****     return (lv_coord_t)v.num;
  95:d:\practise\f407_disc\lvgl\lvgl\src/core\lv_obj_style_gen.h **** }
  96:d:\practise\f407_disc\lvgl\lvgl\src/core\lv_obj_style_gen.h **** 
  97:d:\practise\f407_disc\lvgl\lvgl\src/core\lv_obj_style_gen.h **** static inline lv_coord_t lv_obj_get_style_pad_bottom(const struct _lv_obj_t * obj, uint32_t part)
  98:d:\practise\f407_disc\lvgl\lvgl\src/core\lv_obj_style_gen.h **** {
  99:d:\practise\f407_disc\lvgl\lvgl\src/core\lv_obj_style_gen.h ****     lv_style_value_t v = lv_obj_get_style_prop(obj, part, LV_STYLE_PAD_BOTTOM);
 100:d:\practise\f407_disc\lvgl\lvgl\src/core\lv_obj_style_gen.h ****     return (lv_coord_t)v.num;
 101:d:\practise\f407_disc\lvgl\lvgl\src/core\lv_obj_style_gen.h **** }
 102:d:\practise\f407_disc\lvgl\lvgl\src/core\lv_obj_style_gen.h **** 
 103:d:\practise\f407_disc\lvgl\lvgl\src/core\lv_obj_style_gen.h **** static inline lv_coord_t lv_obj_get_style_pad_left(const struct _lv_obj_t * obj, uint32_t part)
 104:d:\practise\f407_disc\lvgl\lvgl\src/core\lv_obj_style_gen.h **** {
 105:d:\practise\f407_disc\lvgl\lvgl\src/core\lv_obj_style_gen.h ****     lv_style_value_t v = lv_obj_get_style_prop(obj, part, LV_STYLE_PAD_LEFT);
 106:d:\practise\f407_disc\lvgl\lvgl\src/core\lv_obj_style_gen.h ****     return (lv_coord_t)v.num;
 107:d:\practise\f407_disc\lvgl\lvgl\src/core\lv_obj_style_gen.h **** }
 108:d:\practise\f407_disc\lvgl\lvgl\src/core\lv_obj_style_gen.h **** 
 109:d:\practise\f407_disc\lvgl\lvgl\src/core\lv_obj_style_gen.h **** static inline lv_coord_t lv_obj_get_style_pad_right(const struct _lv_obj_t * obj, uint32_t part)
 110:d:\practise\f407_disc\lvgl\lvgl\src/core\lv_obj_style_gen.h **** {
 111:d:\practise\f407_disc\lvgl\lvgl\src/core\lv_obj_style_gen.h ****     lv_style_value_t v = lv_obj_get_style_prop(obj, part, LV_STYLE_PAD_RIGHT);
 112:d:\practise\f407_disc\lvgl\lvgl\src/core\lv_obj_style_gen.h ****     return (lv_coord_t)v.num;
 113:d:\practise\f407_disc\lvgl\lvgl\src/core\lv_obj_style_gen.h **** }
 114:d:\practise\f407_disc\lvgl\lvgl\src/core\lv_obj_style_gen.h **** 
 115:d:\practise\f407_disc\lvgl\lvgl\src/core\lv_obj_style_gen.h **** static inline lv_coord_t lv_obj_get_style_pad_row(const struct _lv_obj_t * obj, uint32_t part)
 116:d:\practise\f407_disc\lvgl\lvgl\src/core\lv_obj_style_gen.h **** {
 117:d:\practise\f407_disc\lvgl\lvgl\src/core\lv_obj_style_gen.h ****     lv_style_value_t v = lv_obj_get_style_prop(obj, part, LV_STYLE_PAD_ROW);
 118:d:\practise\f407_disc\lvgl\lvgl\src/core\lv_obj_style_gen.h ****     return (lv_coord_t)v.num;
 119:d:\practise\f407_disc\lvgl\lvgl\src/core\lv_obj_style_gen.h **** }
 120:d:\practise\f407_disc\lvgl\lvgl\src/core\lv_obj_style_gen.h **** 
 121:d:\practise\f407_disc\lvgl\lvgl\src/core\lv_obj_style_gen.h **** static inline lv_coord_t lv_obj_get_style_pad_column(const struct _lv_obj_t * obj, uint32_t part)
 122:d:\practise\f407_disc\lvgl\lvgl\src/core\lv_obj_style_gen.h **** {
 123:d:\practise\f407_disc\lvgl\lvgl\src/core\lv_obj_style_gen.h ****     lv_style_value_t v = lv_obj_get_style_prop(obj, part, LV_STYLE_PAD_COLUMN);
 124:d:\practise\f407_disc\lvgl\lvgl\src/core\lv_obj_style_gen.h ****     return (lv_coord_t)v.num;
 125:d:\practise\f407_disc\lvgl\lvgl\src/core\lv_obj_style_gen.h **** }
 126:d:\practise\f407_disc\lvgl\lvgl\src/core\lv_obj_style_gen.h **** 
 127:d:\practise\f407_disc\lvgl\lvgl\src/core\lv_obj_style_gen.h **** static inline lv_coord_t lv_obj_get_style_radius(const struct _lv_obj_t * obj, uint32_t part)
 128:d:\practise\f407_disc\lvgl\lvgl\src/core\lv_obj_style_gen.h **** {
 129:d:\practise\f407_disc\lvgl\lvgl\src/core\lv_obj_style_gen.h ****     lv_style_value_t v = lv_obj_get_style_prop(obj, part, LV_STYLE_RADIUS);
 130:d:\practise\f407_disc\lvgl\lvgl\src/core\lv_obj_style_gen.h ****     return (lv_coord_t)v.num;
 131:d:\practise\f407_disc\lvgl\lvgl\src/core\lv_obj_style_gen.h **** }
 132:d:\practise\f407_disc\lvgl\lvgl\src/core\lv_obj_style_gen.h **** 
 133:d:\practise\f407_disc\lvgl\lvgl\src/core\lv_obj_style_gen.h **** static inline bool lv_obj_get_style_clip_corner(const struct _lv_obj_t * obj, uint32_t part)
 134:d:\practise\f407_disc\lvgl\lvgl\src/core\lv_obj_style_gen.h **** {
 135:d:\practise\f407_disc\lvgl\lvgl\src/core\lv_obj_style_gen.h ****     lv_style_value_t v = lv_obj_get_style_prop(obj, part, LV_STYLE_CLIP_CORNER);
 136:d:\practise\f407_disc\lvgl\lvgl\src/core\lv_obj_style_gen.h ****     return (bool)v.num;
 137:d:\practise\f407_disc\lvgl\lvgl\src/core\lv_obj_style_gen.h **** }
 138:d:\practise\f407_disc\lvgl\lvgl\src/core\lv_obj_style_gen.h **** 
 139:d:\practise\f407_disc\lvgl\lvgl\src/core\lv_obj_style_gen.h **** static inline lv_opa_t lv_obj_get_style_opa(const struct _lv_obj_t * obj, uint32_t part)
 140:d:\practise\f407_disc\lvgl\lvgl\src/core\lv_obj_style_gen.h **** {
 141:d:\practise\f407_disc\lvgl\lvgl\src/core\lv_obj_style_gen.h ****     lv_style_value_t v = lv_obj_get_style_prop(obj, part, LV_STYLE_OPA);
 142:d:\practise\f407_disc\lvgl\lvgl\src/core\lv_obj_style_gen.h ****     return (lv_opa_t)v.num;
 143:d:\practise\f407_disc\lvgl\lvgl\src/core\lv_obj_style_gen.h **** }
 144:d:\practise\f407_disc\lvgl\lvgl\src/core\lv_obj_style_gen.h **** 
 145:d:\practise\f407_disc\lvgl\lvgl\src/core\lv_obj_style_gen.h **** static inline const lv_color_filter_dsc_t * lv_obj_get_style_color_filter_dsc(const struct _lv_obj_
 146:d:\practise\f407_disc\lvgl\lvgl\src/core\lv_obj_style_gen.h **** {
 147:d:\practise\f407_disc\lvgl\lvgl\src/core\lv_obj_style_gen.h ****     lv_style_value_t v = lv_obj_get_style_prop(obj, part, LV_STYLE_COLOR_FILTER_DSC);
 148:d:\practise\f407_disc\lvgl\lvgl\src/core\lv_obj_style_gen.h ****     return (const lv_color_filter_dsc_t *)v.ptr;
 149:d:\practise\f407_disc\lvgl\lvgl\src/core\lv_obj_style_gen.h **** }
ARM GAS  C:\Users\gx\AppData\Local\Temp\ccjvTKB3.s 			page 17


 150:d:\practise\f407_disc\lvgl\lvgl\src/core\lv_obj_style_gen.h **** 
 151:d:\practise\f407_disc\lvgl\lvgl\src/core\lv_obj_style_gen.h **** static inline lv_opa_t lv_obj_get_style_color_filter_opa(const struct _lv_obj_t * obj, uint32_t par
 152:d:\practise\f407_disc\lvgl\lvgl\src/core\lv_obj_style_gen.h **** {
 153:d:\practise\f407_disc\lvgl\lvgl\src/core\lv_obj_style_gen.h ****     lv_style_value_t v = lv_obj_get_style_prop(obj, part, LV_STYLE_COLOR_FILTER_OPA);
 154:d:\practise\f407_disc\lvgl\lvgl\src/core\lv_obj_style_gen.h ****     return (lv_opa_t)v.num;
 155:d:\practise\f407_disc\lvgl\lvgl\src/core\lv_obj_style_gen.h **** }
 156:d:\practise\f407_disc\lvgl\lvgl\src/core\lv_obj_style_gen.h **** 
 157:d:\practise\f407_disc\lvgl\lvgl\src/core\lv_obj_style_gen.h **** static inline uint32_t lv_obj_get_style_anim_time(const struct _lv_obj_t * obj, uint32_t part)
 158:d:\practise\f407_disc\lvgl\lvgl\src/core\lv_obj_style_gen.h **** {
 159:d:\practise\f407_disc\lvgl\lvgl\src/core\lv_obj_style_gen.h ****     lv_style_value_t v = lv_obj_get_style_prop(obj, part, LV_STYLE_ANIM_TIME);
 160:d:\practise\f407_disc\lvgl\lvgl\src/core\lv_obj_style_gen.h ****     return (uint32_t)v.num;
 161:d:\practise\f407_disc\lvgl\lvgl\src/core\lv_obj_style_gen.h **** }
 162:d:\practise\f407_disc\lvgl\lvgl\src/core\lv_obj_style_gen.h **** 
 163:d:\practise\f407_disc\lvgl\lvgl\src/core\lv_obj_style_gen.h **** static inline uint32_t lv_obj_get_style_anim_speed(const struct _lv_obj_t * obj, uint32_t part)
 164:d:\practise\f407_disc\lvgl\lvgl\src/core\lv_obj_style_gen.h **** {
 165:d:\practise\f407_disc\lvgl\lvgl\src/core\lv_obj_style_gen.h ****     lv_style_value_t v = lv_obj_get_style_prop(obj, part, LV_STYLE_ANIM_SPEED);
 166:d:\practise\f407_disc\lvgl\lvgl\src/core\lv_obj_style_gen.h ****     return (uint32_t)v.num;
 167:d:\practise\f407_disc\lvgl\lvgl\src/core\lv_obj_style_gen.h **** }
 168:d:\practise\f407_disc\lvgl\lvgl\src/core\lv_obj_style_gen.h **** 
 169:d:\practise\f407_disc\lvgl\lvgl\src/core\lv_obj_style_gen.h **** static inline const lv_style_transition_dsc_t * lv_obj_get_style_transition(const struct _lv_obj_t 
 170:d:\practise\f407_disc\lvgl\lvgl\src/core\lv_obj_style_gen.h **** {
 171:d:\practise\f407_disc\lvgl\lvgl\src/core\lv_obj_style_gen.h ****     lv_style_value_t v = lv_obj_get_style_prop(obj, part, LV_STYLE_TRANSITION);
 172:d:\practise\f407_disc\lvgl\lvgl\src/core\lv_obj_style_gen.h ****     return (const lv_style_transition_dsc_t *)v.ptr;
 173:d:\practise\f407_disc\lvgl\lvgl\src/core\lv_obj_style_gen.h **** }
 174:d:\practise\f407_disc\lvgl\lvgl\src/core\lv_obj_style_gen.h **** 
 175:d:\practise\f407_disc\lvgl\lvgl\src/core\lv_obj_style_gen.h **** static inline lv_blend_mode_t lv_obj_get_style_blend_mode(const struct _lv_obj_t * obj, uint32_t pa
 176:d:\practise\f407_disc\lvgl\lvgl\src/core\lv_obj_style_gen.h **** {
 177:d:\practise\f407_disc\lvgl\lvgl\src/core\lv_obj_style_gen.h ****     lv_style_value_t v = lv_obj_get_style_prop(obj, part, LV_STYLE_BLEND_MODE);
 178:d:\practise\f407_disc\lvgl\lvgl\src/core\lv_obj_style_gen.h ****     return (lv_blend_mode_t)v.num;
 179:d:\practise\f407_disc\lvgl\lvgl\src/core\lv_obj_style_gen.h **** }
 180:d:\practise\f407_disc\lvgl\lvgl\src/core\lv_obj_style_gen.h **** 
 181:d:\practise\f407_disc\lvgl\lvgl\src/core\lv_obj_style_gen.h **** static inline uint16_t lv_obj_get_style_layout(const struct _lv_obj_t * obj, uint32_t part)
 182:d:\practise\f407_disc\lvgl\lvgl\src/core\lv_obj_style_gen.h **** {
 183:d:\practise\f407_disc\lvgl\lvgl\src/core\lv_obj_style_gen.h ****     lv_style_value_t v = lv_obj_get_style_prop(obj, part, LV_STYLE_LAYOUT);
 184:d:\practise\f407_disc\lvgl\lvgl\src/core\lv_obj_style_gen.h ****     return (uint16_t)v.num;
 185:d:\practise\f407_disc\lvgl\lvgl\src/core\lv_obj_style_gen.h **** }
 186:d:\practise\f407_disc\lvgl\lvgl\src/core\lv_obj_style_gen.h **** 
 187:d:\practise\f407_disc\lvgl\lvgl\src/core\lv_obj_style_gen.h **** static inline lv_base_dir_t lv_obj_get_style_base_dir(const struct _lv_obj_t * obj, uint32_t part)
 188:d:\practise\f407_disc\lvgl\lvgl\src/core\lv_obj_style_gen.h **** {
 189:d:\practise\f407_disc\lvgl\lvgl\src/core\lv_obj_style_gen.h ****     lv_style_value_t v = lv_obj_get_style_prop(obj, part, LV_STYLE_BASE_DIR);
 190:d:\practise\f407_disc\lvgl\lvgl\src/core\lv_obj_style_gen.h ****     return (lv_base_dir_t)v.num;
 191:d:\practise\f407_disc\lvgl\lvgl\src/core\lv_obj_style_gen.h **** }
 192:d:\practise\f407_disc\lvgl\lvgl\src/core\lv_obj_style_gen.h **** 
 193:d:\practise\f407_disc\lvgl\lvgl\src/core\lv_obj_style_gen.h **** static inline lv_color_t lv_obj_get_style_bg_color(const struct _lv_obj_t * obj, uint32_t part)
 194:d:\practise\f407_disc\lvgl\lvgl\src/core\lv_obj_style_gen.h **** {
 195:d:\practise\f407_disc\lvgl\lvgl\src/core\lv_obj_style_gen.h ****     lv_style_value_t v = lv_obj_get_style_prop(obj, part, LV_STYLE_BG_COLOR);
 196:d:\practise\f407_disc\lvgl\lvgl\src/core\lv_obj_style_gen.h ****     return v.color;
 197:d:\practise\f407_disc\lvgl\lvgl\src/core\lv_obj_style_gen.h **** }
 198:d:\practise\f407_disc\lvgl\lvgl\src/core\lv_obj_style_gen.h **** 
 199:d:\practise\f407_disc\lvgl\lvgl\src/core\lv_obj_style_gen.h **** static inline lv_color_t lv_obj_get_style_bg_color_filtered(const struct _lv_obj_t * obj, uint32_t 
 200:d:\practise\f407_disc\lvgl\lvgl\src/core\lv_obj_style_gen.h **** {
 201:d:\practise\f407_disc\lvgl\lvgl\src/core\lv_obj_style_gen.h ****     lv_style_value_t v = lv_obj_get_style_prop(obj, part, LV_STYLE_BG_COLOR_FILTERED);
 202:d:\practise\f407_disc\lvgl\lvgl\src/core\lv_obj_style_gen.h ****     return v.color;
 203:d:\practise\f407_disc\lvgl\lvgl\src/core\lv_obj_style_gen.h **** }
 204:d:\practise\f407_disc\lvgl\lvgl\src/core\lv_obj_style_gen.h **** 
 205:d:\practise\f407_disc\lvgl\lvgl\src/core\lv_obj_style_gen.h **** static inline lv_opa_t lv_obj_get_style_bg_opa(const struct _lv_obj_t * obj, uint32_t part)
 206:d:\practise\f407_disc\lvgl\lvgl\src/core\lv_obj_style_gen.h **** {
ARM GAS  C:\Users\gx\AppData\Local\Temp\ccjvTKB3.s 			page 18


 207:d:\practise\f407_disc\lvgl\lvgl\src/core\lv_obj_style_gen.h ****     lv_style_value_t v = lv_obj_get_style_prop(obj, part, LV_STYLE_BG_OPA);
 208:d:\practise\f407_disc\lvgl\lvgl\src/core\lv_obj_style_gen.h ****     return (lv_opa_t)v.num;
 209:d:\practise\f407_disc\lvgl\lvgl\src/core\lv_obj_style_gen.h **** }
 210:d:\practise\f407_disc\lvgl\lvgl\src/core\lv_obj_style_gen.h **** 
 211:d:\practise\f407_disc\lvgl\lvgl\src/core\lv_obj_style_gen.h **** static inline lv_color_t lv_obj_get_style_bg_grad_color(const struct _lv_obj_t * obj, uint32_t part
 212:d:\practise\f407_disc\lvgl\lvgl\src/core\lv_obj_style_gen.h **** {
 213:d:\practise\f407_disc\lvgl\lvgl\src/core\lv_obj_style_gen.h ****     lv_style_value_t v = lv_obj_get_style_prop(obj, part, LV_STYLE_BG_GRAD_COLOR);
 214:d:\practise\f407_disc\lvgl\lvgl\src/core\lv_obj_style_gen.h ****     return v.color;
 215:d:\practise\f407_disc\lvgl\lvgl\src/core\lv_obj_style_gen.h **** }
 216:d:\practise\f407_disc\lvgl\lvgl\src/core\lv_obj_style_gen.h **** 
 217:d:\practise\f407_disc\lvgl\lvgl\src/core\lv_obj_style_gen.h **** static inline lv_color_t lv_obj_get_style_bg_grad_color_filtered(const struct _lv_obj_t * obj, uint
 218:d:\practise\f407_disc\lvgl\lvgl\src/core\lv_obj_style_gen.h **** {
 219:d:\practise\f407_disc\lvgl\lvgl\src/core\lv_obj_style_gen.h ****     lv_style_value_t v = lv_obj_get_style_prop(obj, part, LV_STYLE_BG_GRAD_COLOR_FILTERED);
 220:d:\practise\f407_disc\lvgl\lvgl\src/core\lv_obj_style_gen.h ****     return v.color;
 221:d:\practise\f407_disc\lvgl\lvgl\src/core\lv_obj_style_gen.h **** }
 222:d:\practise\f407_disc\lvgl\lvgl\src/core\lv_obj_style_gen.h **** 
 223:d:\practise\f407_disc\lvgl\lvgl\src/core\lv_obj_style_gen.h **** static inline lv_grad_dir_t lv_obj_get_style_bg_grad_dir(const struct _lv_obj_t * obj, uint32_t par
 224:d:\practise\f407_disc\lvgl\lvgl\src/core\lv_obj_style_gen.h **** {
 225:d:\practise\f407_disc\lvgl\lvgl\src/core\lv_obj_style_gen.h ****     lv_style_value_t v = lv_obj_get_style_prop(obj, part, LV_STYLE_BG_GRAD_DIR);
 226:d:\practise\f407_disc\lvgl\lvgl\src/core\lv_obj_style_gen.h ****     return (lv_grad_dir_t)v.num;
 227:d:\practise\f407_disc\lvgl\lvgl\src/core\lv_obj_style_gen.h **** }
 228:d:\practise\f407_disc\lvgl\lvgl\src/core\lv_obj_style_gen.h **** 
 229:d:\practise\f407_disc\lvgl\lvgl\src/core\lv_obj_style_gen.h **** static inline lv_coord_t lv_obj_get_style_bg_main_stop(const struct _lv_obj_t * obj, uint32_t part)
 230:d:\practise\f407_disc\lvgl\lvgl\src/core\lv_obj_style_gen.h **** {
 231:d:\practise\f407_disc\lvgl\lvgl\src/core\lv_obj_style_gen.h ****     lv_style_value_t v = lv_obj_get_style_prop(obj, part, LV_STYLE_BG_MAIN_STOP);
 232:d:\practise\f407_disc\lvgl\lvgl\src/core\lv_obj_style_gen.h ****     return (lv_coord_t)v.num;
 233:d:\practise\f407_disc\lvgl\lvgl\src/core\lv_obj_style_gen.h **** }
 234:d:\practise\f407_disc\lvgl\lvgl\src/core\lv_obj_style_gen.h **** 
 235:d:\practise\f407_disc\lvgl\lvgl\src/core\lv_obj_style_gen.h **** static inline lv_coord_t lv_obj_get_style_bg_grad_stop(const struct _lv_obj_t * obj, uint32_t part)
 236:d:\practise\f407_disc\lvgl\lvgl\src/core\lv_obj_style_gen.h **** {
 237:d:\practise\f407_disc\lvgl\lvgl\src/core\lv_obj_style_gen.h ****     lv_style_value_t v = lv_obj_get_style_prop(obj, part, LV_STYLE_BG_GRAD_STOP);
 238:d:\practise\f407_disc\lvgl\lvgl\src/core\lv_obj_style_gen.h ****     return (lv_coord_t)v.num;
 239:d:\practise\f407_disc\lvgl\lvgl\src/core\lv_obj_style_gen.h **** }
 240:d:\practise\f407_disc\lvgl\lvgl\src/core\lv_obj_style_gen.h **** 
 241:d:\practise\f407_disc\lvgl\lvgl\src/core\lv_obj_style_gen.h **** static inline const void * lv_obj_get_style_bg_img_src(const struct _lv_obj_t * obj, uint32_t part)
 242:d:\practise\f407_disc\lvgl\lvgl\src/core\lv_obj_style_gen.h **** {
 243:d:\practise\f407_disc\lvgl\lvgl\src/core\lv_obj_style_gen.h ****     lv_style_value_t v = lv_obj_get_style_prop(obj, part, LV_STYLE_BG_IMG_SRC);
 244:d:\practise\f407_disc\lvgl\lvgl\src/core\lv_obj_style_gen.h ****     return (const void *)v.ptr;
 245:d:\practise\f407_disc\lvgl\lvgl\src/core\lv_obj_style_gen.h **** }
 246:d:\practise\f407_disc\lvgl\lvgl\src/core\lv_obj_style_gen.h **** 
 247:d:\practise\f407_disc\lvgl\lvgl\src/core\lv_obj_style_gen.h **** static inline lv_opa_t lv_obj_get_style_bg_img_opa(const struct _lv_obj_t * obj, uint32_t part)
 248:d:\practise\f407_disc\lvgl\lvgl\src/core\lv_obj_style_gen.h **** {
 249:d:\practise\f407_disc\lvgl\lvgl\src/core\lv_obj_style_gen.h ****     lv_style_value_t v = lv_obj_get_style_prop(obj, part, LV_STYLE_BG_IMG_OPA);
 250:d:\practise\f407_disc\lvgl\lvgl\src/core\lv_obj_style_gen.h ****     return (lv_opa_t)v.num;
 251:d:\practise\f407_disc\lvgl\lvgl\src/core\lv_obj_style_gen.h **** }
 252:d:\practise\f407_disc\lvgl\lvgl\src/core\lv_obj_style_gen.h **** 
 253:d:\practise\f407_disc\lvgl\lvgl\src/core\lv_obj_style_gen.h **** static inline lv_color_t lv_obj_get_style_bg_img_recolor(const struct _lv_obj_t * obj, uint32_t par
 254:d:\practise\f407_disc\lvgl\lvgl\src/core\lv_obj_style_gen.h **** {
 255:d:\practise\f407_disc\lvgl\lvgl\src/core\lv_obj_style_gen.h ****     lv_style_value_t v = lv_obj_get_style_prop(obj, part, LV_STYLE_BG_IMG_RECOLOR);
 256:d:\practise\f407_disc\lvgl\lvgl\src/core\lv_obj_style_gen.h ****     return v.color;
 257:d:\practise\f407_disc\lvgl\lvgl\src/core\lv_obj_style_gen.h **** }
 258:d:\practise\f407_disc\lvgl\lvgl\src/core\lv_obj_style_gen.h **** 
 259:d:\practise\f407_disc\lvgl\lvgl\src/core\lv_obj_style_gen.h **** static inline lv_color_t lv_obj_get_style_bg_img_recolor_filtered(const struct _lv_obj_t * obj, uin
 260:d:\practise\f407_disc\lvgl\lvgl\src/core\lv_obj_style_gen.h **** {
 261:d:\practise\f407_disc\lvgl\lvgl\src/core\lv_obj_style_gen.h ****     lv_style_value_t v = lv_obj_get_style_prop(obj, part, LV_STYLE_BG_IMG_RECOLOR_FILTERED);
 262:d:\practise\f407_disc\lvgl\lvgl\src/core\lv_obj_style_gen.h ****     return v.color;
 263:d:\practise\f407_disc\lvgl\lvgl\src/core\lv_obj_style_gen.h **** }
ARM GAS  C:\Users\gx\AppData\Local\Temp\ccjvTKB3.s 			page 19


 264:d:\practise\f407_disc\lvgl\lvgl\src/core\lv_obj_style_gen.h **** 
 265:d:\practise\f407_disc\lvgl\lvgl\src/core\lv_obj_style_gen.h **** static inline lv_opa_t lv_obj_get_style_bg_img_recolor_opa(const struct _lv_obj_t * obj, uint32_t p
 266:d:\practise\f407_disc\lvgl\lvgl\src/core\lv_obj_style_gen.h **** {
 267:d:\practise\f407_disc\lvgl\lvgl\src/core\lv_obj_style_gen.h ****     lv_style_value_t v = lv_obj_get_style_prop(obj, part, LV_STYLE_BG_IMG_RECOLOR_OPA);
 268:d:\practise\f407_disc\lvgl\lvgl\src/core\lv_obj_style_gen.h ****     return (lv_opa_t)v.num;
 269:d:\practise\f407_disc\lvgl\lvgl\src/core\lv_obj_style_gen.h **** }
 270:d:\practise\f407_disc\lvgl\lvgl\src/core\lv_obj_style_gen.h **** 
 271:d:\practise\f407_disc\lvgl\lvgl\src/core\lv_obj_style_gen.h **** static inline bool lv_obj_get_style_bg_img_tiled(const struct _lv_obj_t * obj, uint32_t part)
 272:d:\practise\f407_disc\lvgl\lvgl\src/core\lv_obj_style_gen.h **** {
 273:d:\practise\f407_disc\lvgl\lvgl\src/core\lv_obj_style_gen.h ****     lv_style_value_t v = lv_obj_get_style_prop(obj, part, LV_STYLE_BG_IMG_TILED);
 274:d:\practise\f407_disc\lvgl\lvgl\src/core\lv_obj_style_gen.h ****     return (bool)v.num;
 275:d:\practise\f407_disc\lvgl\lvgl\src/core\lv_obj_style_gen.h **** }
 276:d:\practise\f407_disc\lvgl\lvgl\src/core\lv_obj_style_gen.h **** 
 277:d:\practise\f407_disc\lvgl\lvgl\src/core\lv_obj_style_gen.h **** static inline lv_color_t lv_obj_get_style_border_color(const struct _lv_obj_t * obj, uint32_t part)
 278:d:\practise\f407_disc\lvgl\lvgl\src/core\lv_obj_style_gen.h **** {
 279:d:\practise\f407_disc\lvgl\lvgl\src/core\lv_obj_style_gen.h ****     lv_style_value_t v = lv_obj_get_style_prop(obj, part, LV_STYLE_BORDER_COLOR);
 280:d:\practise\f407_disc\lvgl\lvgl\src/core\lv_obj_style_gen.h ****     return v.color;
 281:d:\practise\f407_disc\lvgl\lvgl\src/core\lv_obj_style_gen.h **** }
 282:d:\practise\f407_disc\lvgl\lvgl\src/core\lv_obj_style_gen.h **** 
 283:d:\practise\f407_disc\lvgl\lvgl\src/core\lv_obj_style_gen.h **** static inline lv_color_t lv_obj_get_style_border_color_filtered(const struct _lv_obj_t * obj, uint3
 284:d:\practise\f407_disc\lvgl\lvgl\src/core\lv_obj_style_gen.h **** {
 285:d:\practise\f407_disc\lvgl\lvgl\src/core\lv_obj_style_gen.h ****     lv_style_value_t v = lv_obj_get_style_prop(obj, part, LV_STYLE_BORDER_COLOR_FILTERED);
 286:d:\practise\f407_disc\lvgl\lvgl\src/core\lv_obj_style_gen.h ****     return v.color;
 287:d:\practise\f407_disc\lvgl\lvgl\src/core\lv_obj_style_gen.h **** }
 288:d:\practise\f407_disc\lvgl\lvgl\src/core\lv_obj_style_gen.h **** 
 289:d:\practise\f407_disc\lvgl\lvgl\src/core\lv_obj_style_gen.h **** static inline lv_opa_t lv_obj_get_style_border_opa(const struct _lv_obj_t * obj, uint32_t part)
 290:d:\practise\f407_disc\lvgl\lvgl\src/core\lv_obj_style_gen.h **** {
 291:d:\practise\f407_disc\lvgl\lvgl\src/core\lv_obj_style_gen.h ****     lv_style_value_t v = lv_obj_get_style_prop(obj, part, LV_STYLE_BORDER_OPA);
 292:d:\practise\f407_disc\lvgl\lvgl\src/core\lv_obj_style_gen.h ****     return (lv_opa_t)v.num;
 293:d:\practise\f407_disc\lvgl\lvgl\src/core\lv_obj_style_gen.h **** }
 294:d:\practise\f407_disc\lvgl\lvgl\src/core\lv_obj_style_gen.h **** 
 295:d:\practise\f407_disc\lvgl\lvgl\src/core\lv_obj_style_gen.h **** static inline lv_coord_t lv_obj_get_style_border_width(const struct _lv_obj_t * obj, uint32_t part)
 296:d:\practise\f407_disc\lvgl\lvgl\src/core\lv_obj_style_gen.h **** {
 297:d:\practise\f407_disc\lvgl\lvgl\src/core\lv_obj_style_gen.h ****     lv_style_value_t v = lv_obj_get_style_prop(obj, part, LV_STYLE_BORDER_WIDTH);
 298:d:\practise\f407_disc\lvgl\lvgl\src/core\lv_obj_style_gen.h ****     return (lv_coord_t)v.num;
 299:d:\practise\f407_disc\lvgl\lvgl\src/core\lv_obj_style_gen.h **** }
 300:d:\practise\f407_disc\lvgl\lvgl\src/core\lv_obj_style_gen.h **** 
 301:d:\practise\f407_disc\lvgl\lvgl\src/core\lv_obj_style_gen.h **** static inline lv_border_side_t lv_obj_get_style_border_side(const struct _lv_obj_t * obj, uint32_t 
 302:d:\practise\f407_disc\lvgl\lvgl\src/core\lv_obj_style_gen.h **** {
 303:d:\practise\f407_disc\lvgl\lvgl\src/core\lv_obj_style_gen.h ****     lv_style_value_t v = lv_obj_get_style_prop(obj, part, LV_STYLE_BORDER_SIDE);
 304:d:\practise\f407_disc\lvgl\lvgl\src/core\lv_obj_style_gen.h ****     return (lv_border_side_t)v.num;
 305:d:\practise\f407_disc\lvgl\lvgl\src/core\lv_obj_style_gen.h **** }
 306:d:\practise\f407_disc\lvgl\lvgl\src/core\lv_obj_style_gen.h **** 
 307:d:\practise\f407_disc\lvgl\lvgl\src/core\lv_obj_style_gen.h **** static inline bool lv_obj_get_style_border_post(const struct _lv_obj_t * obj, uint32_t part)
 308:d:\practise\f407_disc\lvgl\lvgl\src/core\lv_obj_style_gen.h **** {
 309:d:\practise\f407_disc\lvgl\lvgl\src/core\lv_obj_style_gen.h ****     lv_style_value_t v = lv_obj_get_style_prop(obj, part, LV_STYLE_BORDER_POST);
 310:d:\practise\f407_disc\lvgl\lvgl\src/core\lv_obj_style_gen.h ****     return (bool)v.num;
 311:d:\practise\f407_disc\lvgl\lvgl\src/core\lv_obj_style_gen.h **** }
 312:d:\practise\f407_disc\lvgl\lvgl\src/core\lv_obj_style_gen.h **** 
 313:d:\practise\f407_disc\lvgl\lvgl\src/core\lv_obj_style_gen.h **** static inline lv_color_t lv_obj_get_style_text_color(const struct _lv_obj_t * obj, uint32_t part)
 314:d:\practise\f407_disc\lvgl\lvgl\src/core\lv_obj_style_gen.h **** {
 315:d:\practise\f407_disc\lvgl\lvgl\src/core\lv_obj_style_gen.h ****     lv_style_value_t v = lv_obj_get_style_prop(obj, part, LV_STYLE_TEXT_COLOR);
 316:d:\practise\f407_disc\lvgl\lvgl\src/core\lv_obj_style_gen.h ****     return v.color;
 317:d:\practise\f407_disc\lvgl\lvgl\src/core\lv_obj_style_gen.h **** }
 318:d:\practise\f407_disc\lvgl\lvgl\src/core\lv_obj_style_gen.h **** 
 319:d:\practise\f407_disc\lvgl\lvgl\src/core\lv_obj_style_gen.h **** static inline lv_color_t lv_obj_get_style_text_color_filtered(const struct _lv_obj_t * obj, uint32_
 320:d:\practise\f407_disc\lvgl\lvgl\src/core\lv_obj_style_gen.h **** {
ARM GAS  C:\Users\gx\AppData\Local\Temp\ccjvTKB3.s 			page 20


 321:d:\practise\f407_disc\lvgl\lvgl\src/core\lv_obj_style_gen.h ****     lv_style_value_t v = lv_obj_get_style_prop(obj, part, LV_STYLE_TEXT_COLOR_FILTERED);
 322:d:\practise\f407_disc\lvgl\lvgl\src/core\lv_obj_style_gen.h ****     return v.color;
 323:d:\practise\f407_disc\lvgl\lvgl\src/core\lv_obj_style_gen.h **** }
 324:d:\practise\f407_disc\lvgl\lvgl\src/core\lv_obj_style_gen.h **** 
 325:d:\practise\f407_disc\lvgl\lvgl\src/core\lv_obj_style_gen.h **** static inline lv_opa_t lv_obj_get_style_text_opa(const struct _lv_obj_t * obj, uint32_t part)
 326:d:\practise\f407_disc\lvgl\lvgl\src/core\lv_obj_style_gen.h **** {
 327:d:\practise\f407_disc\lvgl\lvgl\src/core\lv_obj_style_gen.h ****     lv_style_value_t v = lv_obj_get_style_prop(obj, part, LV_STYLE_TEXT_OPA);
 328:d:\practise\f407_disc\lvgl\lvgl\src/core\lv_obj_style_gen.h ****     return (lv_opa_t)v.num;
 329:d:\practise\f407_disc\lvgl\lvgl\src/core\lv_obj_style_gen.h **** }
 330:d:\practise\f407_disc\lvgl\lvgl\src/core\lv_obj_style_gen.h **** 
 331:d:\practise\f407_disc\lvgl\lvgl\src/core\lv_obj_style_gen.h **** static inline const lv_font_t * lv_obj_get_style_text_font(const struct _lv_obj_t * obj, uint32_t p
 358              		.loc 4 331 33 discriminator 4 view .LVU83
 359              	.LBB27:
 332:d:\practise\f407_disc\lvgl\lvgl\src/core\lv_obj_style_gen.h **** {
 333:d:\practise\f407_disc\lvgl\lvgl\src/core\lv_obj_style_gen.h ****     lv_style_value_t v = lv_obj_get_style_prop(obj, part, LV_STYLE_TEXT_FONT);
 360              		.loc 4 333 5 discriminator 4 view .LVU84
 361              		.loc 4 333 26 is_stmt 0 discriminator 4 view .LVU85
 362 0172 41F25942 		movw	r2, #5209
 363 0176 0021     		movs	r1, #0
 364 0178 3046     		mov	r0, r6
 365 017a FFF7FEFF 		bl	lv_obj_get_style_prop
 366              	.LVL50:
 334:d:\practise\f407_disc\lvgl\lvgl\src/core\lv_obj_style_gen.h ****     return (const lv_font_t *)v.ptr;
 367              		.loc 4 334 5 is_stmt 1 discriminator 4 view .LVU86
 368              		.loc 4 334 5 is_stmt 0 discriminator 4 view .LVU87
 369              	.LBE27:
 370              	.LBE26:
  79:lvgl/lvgl/src/extra/widgets/msgbox/lv_msgbox.c ****         lv_obj_set_size(close_btn, close_btn_size, close_btn_size);
 371              		.loc 1 79 9 is_stmt 1 discriminator 4 view .LVU88
 372              	.LBB28:
 373              	.LBI28:
 374              		.file 5 "d:\\practise\\f407_disc\\lvgl\\lvgl\\src\\font\\lv_font.h"
   1:d:\practise\f407_disc\lvgl\lvgl\src\font\lv_font.h **** /**
   2:d:\practise\f407_disc\lvgl\lvgl\src\font\lv_font.h ****  * @file lv_font.h
   3:d:\practise\f407_disc\lvgl\lvgl\src\font\lv_font.h ****  *
   4:d:\practise\f407_disc\lvgl\lvgl\src\font\lv_font.h ****  */
   5:d:\practise\f407_disc\lvgl\lvgl\src\font\lv_font.h **** 
   6:d:\practise\f407_disc\lvgl\lvgl\src\font\lv_font.h **** #ifndef LV_FONT_H
   7:d:\practise\f407_disc\lvgl\lvgl\src\font\lv_font.h **** #define LV_FONT_H
   8:d:\practise\f407_disc\lvgl\lvgl\src\font\lv_font.h **** 
   9:d:\practise\f407_disc\lvgl\lvgl\src\font\lv_font.h **** #ifdef __cplusplus
  10:d:\practise\f407_disc\lvgl\lvgl\src\font\lv_font.h **** extern "C" {
  11:d:\practise\f407_disc\lvgl\lvgl\src\font\lv_font.h **** #endif
  12:d:\practise\f407_disc\lvgl\lvgl\src\font\lv_font.h **** 
  13:d:\practise\f407_disc\lvgl\lvgl\src\font\lv_font.h **** /*********************
  14:d:\practise\f407_disc\lvgl\lvgl\src\font\lv_font.h ****  *      INCLUDES
  15:d:\practise\f407_disc\lvgl\lvgl\src\font\lv_font.h ****  *********************/
  16:d:\practise\f407_disc\lvgl\lvgl\src\font\lv_font.h **** #include "../lv_conf_internal.h"
  17:d:\practise\f407_disc\lvgl\lvgl\src\font\lv_font.h **** #include <stdint.h>
  18:d:\practise\f407_disc\lvgl\lvgl\src\font\lv_font.h **** #include <stddef.h>
  19:d:\practise\f407_disc\lvgl\lvgl\src\font\lv_font.h **** #include <stdbool.h>
  20:d:\practise\f407_disc\lvgl\lvgl\src\font\lv_font.h **** 
  21:d:\practise\f407_disc\lvgl\lvgl\src\font\lv_font.h **** #include "lv_symbol_def.h"
  22:d:\practise\f407_disc\lvgl\lvgl\src\font\lv_font.h **** #include "../misc/lv_area.h"
  23:d:\practise\f407_disc\lvgl\lvgl\src\font\lv_font.h **** 
  24:d:\practise\f407_disc\lvgl\lvgl\src\font\lv_font.h **** /*********************
  25:d:\practise\f407_disc\lvgl\lvgl\src\font\lv_font.h ****  *      DEFINES
ARM GAS  C:\Users\gx\AppData\Local\Temp\ccjvTKB3.s 			page 21


  26:d:\practise\f407_disc\lvgl\lvgl\src\font\lv_font.h ****  *********************/
  27:d:\practise\f407_disc\lvgl\lvgl\src\font\lv_font.h **** 
  28:d:\practise\f407_disc\lvgl\lvgl\src\font\lv_font.h **** /**********************
  29:d:\practise\f407_disc\lvgl\lvgl\src\font\lv_font.h ****  *      TYPEDEFS
  30:d:\practise\f407_disc\lvgl\lvgl\src\font\lv_font.h ****  **********************/
  31:d:\practise\f407_disc\lvgl\lvgl\src\font\lv_font.h **** 
  32:d:\practise\f407_disc\lvgl\lvgl\src\font\lv_font.h **** /*------------------
  33:d:\practise\f407_disc\lvgl\lvgl\src\font\lv_font.h ****  * General types
  34:d:\practise\f407_disc\lvgl\lvgl\src\font\lv_font.h ****  *-----------------*/
  35:d:\practise\f407_disc\lvgl\lvgl\src\font\lv_font.h **** 
  36:d:\practise\f407_disc\lvgl\lvgl\src\font\lv_font.h **** /** Describes the properties of a glyph.*/
  37:d:\practise\f407_disc\lvgl\lvgl\src\font\lv_font.h **** typedef struct {
  38:d:\practise\f407_disc\lvgl\lvgl\src\font\lv_font.h ****     uint16_t adv_w; /**< The glyph needs this space. Draw the next glyph after this width.*/
  39:d:\practise\f407_disc\lvgl\lvgl\src\font\lv_font.h ****     uint16_t box_w;  /**< Width of the glyph's bounding box*/
  40:d:\practise\f407_disc\lvgl\lvgl\src\font\lv_font.h ****     uint16_t box_h;  /**< Height of the glyph's bounding box*/
  41:d:\practise\f407_disc\lvgl\lvgl\src\font\lv_font.h ****     int16_t ofs_x;   /**< x offset of the bounding box*/
  42:d:\practise\f407_disc\lvgl\lvgl\src\font\lv_font.h ****     int16_t ofs_y;  /**< y offset of the bounding box*/
  43:d:\practise\f407_disc\lvgl\lvgl\src\font\lv_font.h ****     uint8_t bpp;   /**< Bit-per-pixel: 1, 2, 4, 8*/
  44:d:\practise\f407_disc\lvgl\lvgl\src\font\lv_font.h **** } lv_font_glyph_dsc_t;
  45:d:\practise\f407_disc\lvgl\lvgl\src\font\lv_font.h **** 
  46:d:\practise\f407_disc\lvgl\lvgl\src\font\lv_font.h **** /** The bitmaps might be upscaled by 3 to achieve subpixel rendering.*/
  47:d:\practise\f407_disc\lvgl\lvgl\src\font\lv_font.h **** enum {
  48:d:\practise\f407_disc\lvgl\lvgl\src\font\lv_font.h ****     LV_FONT_SUBPX_NONE,
  49:d:\practise\f407_disc\lvgl\lvgl\src\font\lv_font.h ****     LV_FONT_SUBPX_HOR,
  50:d:\practise\f407_disc\lvgl\lvgl\src\font\lv_font.h ****     LV_FONT_SUBPX_VER,
  51:d:\practise\f407_disc\lvgl\lvgl\src\font\lv_font.h ****     LV_FONT_SUBPX_BOTH,
  52:d:\practise\f407_disc\lvgl\lvgl\src\font\lv_font.h **** };
  53:d:\practise\f407_disc\lvgl\lvgl\src\font\lv_font.h **** 
  54:d:\practise\f407_disc\lvgl\lvgl\src\font\lv_font.h **** typedef uint8_t lv_font_subpx_t;
  55:d:\practise\f407_disc\lvgl\lvgl\src\font\lv_font.h **** 
  56:d:\practise\f407_disc\lvgl\lvgl\src\font\lv_font.h **** struct _lv_font_t;
  57:d:\practise\f407_disc\lvgl\lvgl\src\font\lv_font.h **** 
  58:d:\practise\f407_disc\lvgl\lvgl\src\font\lv_font.h **** /** Describe the properties of a font*/
  59:d:\practise\f407_disc\lvgl\lvgl\src\font\lv_font.h **** typedef struct _lv_font_t {
  60:d:\practise\f407_disc\lvgl\lvgl\src\font\lv_font.h ****     /** Get a glyph's descriptor from a font*/
  61:d:\practise\f407_disc\lvgl\lvgl\src\font\lv_font.h ****     bool (*get_glyph_dsc)(const struct _lv_font_t *, lv_font_glyph_dsc_t *, uint32_t letter, uint32
  62:d:\practise\f407_disc\lvgl\lvgl\src\font\lv_font.h **** 
  63:d:\practise\f407_disc\lvgl\lvgl\src\font\lv_font.h ****     /** Get a glyph's bitmap from a font*/
  64:d:\practise\f407_disc\lvgl\lvgl\src\font\lv_font.h ****     const uint8_t * (*get_glyph_bitmap)(const struct _lv_font_t *, uint32_t);
  65:d:\practise\f407_disc\lvgl\lvgl\src\font\lv_font.h **** 
  66:d:\practise\f407_disc\lvgl\lvgl\src\font\lv_font.h ****     /*Pointer to the font in a font pack (must have the same line height)*/
  67:d:\practise\f407_disc\lvgl\lvgl\src\font\lv_font.h ****     lv_coord_t line_height;         /**< The real line height where any text fits*/
  68:d:\practise\f407_disc\lvgl\lvgl\src\font\lv_font.h ****     lv_coord_t base_line;           /**< Base line measured from the top of the line_height*/
  69:d:\practise\f407_disc\lvgl\lvgl\src\font\lv_font.h ****     uint8_t subpx  : 2;             /**< An element of `lv_font_subpx_t`*/
  70:d:\practise\f407_disc\lvgl\lvgl\src\font\lv_font.h **** 
  71:d:\practise\f407_disc\lvgl\lvgl\src\font\lv_font.h ****     int8_t underline_position;      /**< Distance between the top of the underline and base line (<
  72:d:\practise\f407_disc\lvgl\lvgl\src\font\lv_font.h ****     int8_t underline_thickness;     /**< Thickness of the underline*/
  73:d:\practise\f407_disc\lvgl\lvgl\src\font\lv_font.h **** 
  74:d:\practise\f407_disc\lvgl\lvgl\src\font\lv_font.h ****     const void * dsc;                     /**< Store implementation specific or run_time data or ca
  75:d:\practise\f407_disc\lvgl\lvgl\src\font\lv_font.h **** #if LV_USE_USER_DATA
  76:d:\practise\f407_disc\lvgl\lvgl\src\font\lv_font.h ****     void * user_data;               /**< Custom user data for font.*/
  77:d:\practise\f407_disc\lvgl\lvgl\src\font\lv_font.h **** #endif
  78:d:\practise\f407_disc\lvgl\lvgl\src\font\lv_font.h **** 
  79:d:\practise\f407_disc\lvgl\lvgl\src\font\lv_font.h **** } lv_font_t;
  80:d:\practise\f407_disc\lvgl\lvgl\src\font\lv_font.h **** 
  81:d:\practise\f407_disc\lvgl\lvgl\src\font\lv_font.h **** /**********************
  82:d:\practise\f407_disc\lvgl\lvgl\src\font\lv_font.h ****  * GLOBAL PROTOTYPES
ARM GAS  C:\Users\gx\AppData\Local\Temp\ccjvTKB3.s 			page 22


  83:d:\practise\f407_disc\lvgl\lvgl\src\font\lv_font.h ****  **********************/
  84:d:\practise\f407_disc\lvgl\lvgl\src\font\lv_font.h **** 
  85:d:\practise\f407_disc\lvgl\lvgl\src\font\lv_font.h **** /**
  86:d:\practise\f407_disc\lvgl\lvgl\src\font\lv_font.h ****  * Return with the bitmap of a font.
  87:d:\practise\f407_disc\lvgl\lvgl\src\font\lv_font.h ****  * @param font_p pointer to a font
  88:d:\practise\f407_disc\lvgl\lvgl\src\font\lv_font.h ****  * @param letter an UNICODE character code
  89:d:\practise\f407_disc\lvgl\lvgl\src\font\lv_font.h ****  * @return pointer to the bitmap of the letter
  90:d:\practise\f407_disc\lvgl\lvgl\src\font\lv_font.h ****  */
  91:d:\practise\f407_disc\lvgl\lvgl\src\font\lv_font.h **** const uint8_t * lv_font_get_glyph_bitmap(const lv_font_t * font_p, uint32_t letter);
  92:d:\practise\f407_disc\lvgl\lvgl\src\font\lv_font.h **** 
  93:d:\practise\f407_disc\lvgl\lvgl\src\font\lv_font.h **** /**
  94:d:\practise\f407_disc\lvgl\lvgl\src\font\lv_font.h ****  * Get the descriptor of a glyph
  95:d:\practise\f407_disc\lvgl\lvgl\src\font\lv_font.h ****  * @param font_p pointer to font
  96:d:\practise\f407_disc\lvgl\lvgl\src\font\lv_font.h ****  * @param dsc_out store the result descriptor here
  97:d:\practise\f407_disc\lvgl\lvgl\src\font\lv_font.h ****  * @param letter an UNICODE letter code
  98:d:\practise\f407_disc\lvgl\lvgl\src\font\lv_font.h ****  * @return true: descriptor is successfully loaded into `dsc_out`.
  99:d:\practise\f407_disc\lvgl\lvgl\src\font\lv_font.h ****  *         false: the letter was not found, no data is loaded to `dsc_out`
 100:d:\practise\f407_disc\lvgl\lvgl\src\font\lv_font.h ****  */
 101:d:\practise\f407_disc\lvgl\lvgl\src\font\lv_font.h **** bool lv_font_get_glyph_dsc(const lv_font_t * font_p, lv_font_glyph_dsc_t * dsc_out, uint32_t letter
 102:d:\practise\f407_disc\lvgl\lvgl\src\font\lv_font.h ****                            uint32_t letter_next);
 103:d:\practise\f407_disc\lvgl\lvgl\src\font\lv_font.h **** 
 104:d:\practise\f407_disc\lvgl\lvgl\src\font\lv_font.h **** /**
 105:d:\practise\f407_disc\lvgl\lvgl\src\font\lv_font.h ****  * Get the width of a glyph with kerning
 106:d:\practise\f407_disc\lvgl\lvgl\src\font\lv_font.h ****  * @param font pointer to a font
 107:d:\practise\f407_disc\lvgl\lvgl\src\font\lv_font.h ****  * @param letter an UNICODE letter
 108:d:\practise\f407_disc\lvgl\lvgl\src\font\lv_font.h ****  * @param letter_next the next letter after `letter`. Used for kerning
 109:d:\practise\f407_disc\lvgl\lvgl\src\font\lv_font.h ****  * @return the width of the glyph
 110:d:\practise\f407_disc\lvgl\lvgl\src\font\lv_font.h ****  */
 111:d:\practise\f407_disc\lvgl\lvgl\src\font\lv_font.h **** uint16_t lv_font_get_glyph_width(const lv_font_t * font, uint32_t letter, uint32_t letter_next);
 112:d:\practise\f407_disc\lvgl\lvgl\src\font\lv_font.h **** 
 113:d:\practise\f407_disc\lvgl\lvgl\src\font\lv_font.h **** /**
 114:d:\practise\f407_disc\lvgl\lvgl\src\font\lv_font.h ****  * Get the line height of a font. All characters fit into this height
 115:d:\practise\f407_disc\lvgl\lvgl\src\font\lv_font.h ****  * @param font_p pointer to a font
 116:d:\practise\f407_disc\lvgl\lvgl\src\font\lv_font.h ****  * @return the height of a font
 117:d:\practise\f407_disc\lvgl\lvgl\src\font\lv_font.h ****  */
 118:d:\practise\f407_disc\lvgl\lvgl\src\font\lv_font.h **** static inline lv_coord_t lv_font_get_line_height(const lv_font_t * font_p)
 375              		.loc 5 118 26 discriminator 4 view .LVU89
 376              	.LBB29:
 119:d:\practise\f407_disc\lvgl\lvgl\src\font\lv_font.h **** {
 120:d:\practise\f407_disc\lvgl\lvgl\src\font\lv_font.h ****     return font_p->line_height;
 377              		.loc 5 120 5 discriminator 4 view .LVU90
 378              		.loc 5 120 18 is_stmt 0 discriminator 4 view .LVU91
 379 017e B0F90850 		ldrsh	r5, [r0, #8]
 380              	.LVL51:
 381              		.loc 5 120 18 discriminator 4 view .LVU92
 382              	.LBE29:
 383              	.LBE28:
  79:lvgl/lvgl/src/extra/widgets/msgbox/lv_msgbox.c ****         lv_obj_set_size(close_btn, close_btn_size, close_btn_size);
 384              		.loc 1 79 37 discriminator 4 view .LVU93
 385 0182 ADB2     		uxth	r5, r5
  79:lvgl/lvgl/src/extra/widgets/msgbox/lv_msgbox.c ****         lv_obj_set_size(close_btn, close_btn_size, close_btn_size);
 386              		.loc 1 79 69 discriminator 4 view .LVU94
 387 0184 0020     		movs	r0, #0
 388              	.LVL52:
  79:lvgl/lvgl/src/extra/widgets/msgbox/lv_msgbox.c ****         lv_obj_set_size(close_btn, close_btn_size, close_btn_size);
 389              		.loc 1 79 69 discriminator 4 view .LVU95
 390 0186 FFF7FEFF 		bl	lv_disp_get_dpi
ARM GAS  C:\Users\gx\AppData\Local\Temp\ccjvTKB3.s 			page 23


 391              	.LVL53:
 392 018a 00EB8000 		add	r0, r0, r0, lsl #2
 393 018e 4300     		lsls	r3, r0, #1
  79:lvgl/lvgl/src/extra/widgets/msgbox/lv_msgbox.c ****         lv_obj_set_size(close_btn, close_btn_size, close_btn_size);
 394              		.loc 1 79 67 discriminator 4 view .LVU96
 395 0190 EF2B     		cmp	r3, #239
 396 0192 1CDC     		bgt	.L24
  79:lvgl/lvgl/src/extra/widgets/msgbox/lv_msgbox.c ****         lv_obj_set_size(close_btn, close_btn_size, close_btn_size);
 397              		.loc 1 79 67 view .LVU97
 398 0194 0123     		movs	r3, #1
 399              	.L10:
  79:lvgl/lvgl/src/extra/widgets/msgbox/lv_msgbox.c ****         lv_obj_set_size(close_btn, close_btn_size, close_btn_size);
 400              		.loc 1 79 67 discriminator 4 view .LVU98
 401 0196 2B44     		add	r3, r3, r5
  79:lvgl/lvgl/src/extra/widgets/msgbox/lv_msgbox.c ****         lv_obj_set_size(close_btn, close_btn_size, close_btn_size);
 402              		.loc 1 79 20 discriminator 4 view .LVU99
 403 0198 19B2     		sxth	r1, r3
 404              	.LVL54:
  80:lvgl/lvgl/src/extra/widgets/msgbox/lv_msgbox.c ****         lv_obj_align(label, LV_ALIGN_CENTER, 0, 0);
 405              		.loc 1 80 9 is_stmt 1 discriminator 4 view .LVU100
 406 019a 0A46     		mov	r2, r1
 407 019c 3046     		mov	r0, r6
 408 019e FFF7FEFF 		bl	lv_obj_set_size
 409              	.LVL55:
  81:lvgl/lvgl/src/extra/widgets/msgbox/lv_msgbox.c ****     }
 410              		.loc 1 81 9 discriminator 4 view .LVU101
 411 01a2 0023     		movs	r3, #0
 412 01a4 1A46     		mov	r2, r3
 413 01a6 0921     		movs	r1, #9
 414 01a8 4846     		mov	r0, r9
 415 01aa FFF7FEFF 		bl	lv_obj_align
 416              	.LVL56:
 417 01ae 64E7     		b	.L8
 418              	.LVL57:
 419              	.L23:
  74:lvgl/lvgl/src/extra/widgets/msgbox/lv_msgbox.c ****         lv_obj_add_event_cb(close_btn, msgbox_close_click_event_cb, LV_EVENT_CLICKED, NULL);
 420              		.loc 1 74 46 is_stmt 0 discriminator 1 view .LVU102
 421 01b0 0020     		movs	r0, #0
 422 01b2 FFF7FEFF 		bl	lv_disp_get_dpi
 423              	.LVL58:
 424 01b6 00EB8000 		add	r0, r0, r0, lsl #2
 425 01ba 4300     		lsls	r3, r0, #1
 426 01bc 5033     		adds	r3, r3, #80
 427 01be 274A     		ldr	r2, .L25+36
 428 01c0 82FB0312 		smull	r1, r2, r2, r3
 429 01c4 D917     		asrs	r1, r3, #31
 430 01c6 C1EBA211 		rsb	r1, r1, r2, asr #6
  74:lvgl/lvgl/src/extra/widgets/msgbox/lv_msgbox.c ****         lv_obj_add_event_cb(close_btn, msgbox_close_click_event_cb, LV_EVENT_CLICKED, NULL);
 431              		.loc 1 74 9 discriminator 1 view .LVU103
 432 01ca 09B2     		sxth	r1, r1
 433 01cc C1E7     		b	.L9
 434              	.LVL59:
 435              	.L24:
  79:lvgl/lvgl/src/extra/widgets/msgbox/lv_msgbox.c ****         lv_obj_set_size(close_btn, close_btn_size, close_btn_size);
 436              		.loc 1 79 69 discriminator 1 view .LVU104
 437 01ce 0020     		movs	r0, #0
 438 01d0 FFF7FEFF 		bl	lv_disp_get_dpi
ARM GAS  C:\Users\gx\AppData\Local\Temp\ccjvTKB3.s 			page 24


 439              	.LVL60:
 440 01d4 00EB8000 		add	r0, r0, r0, lsl #2
 441 01d8 4300     		lsls	r3, r0, #1
 442 01da 5033     		adds	r3, r3, #80
 443 01dc 1F4A     		ldr	r2, .L25+36
 444 01de 82FB0312 		smull	r1, r2, r2, r3
 445 01e2 DB17     		asrs	r3, r3, #31
 446 01e4 C3EBA213 		rsb	r3, r3, r2, asr #6
  79:lvgl/lvgl/src/extra/widgets/msgbox/lv_msgbox.c ****         lv_obj_set_size(close_btn, close_btn_size, close_btn_size);
 447              		.loc 1 79 67 discriminator 1 view .LVU105
 448 01e8 9BB2     		uxth	r3, r3
 449 01ea D4E7     		b	.L10
 450              	.LVL61:
 451              	.L14:
  79:lvgl/lvgl/src/extra/widgets/msgbox/lv_msgbox.c ****         lv_obj_set_size(close_btn, close_btn_size, close_btn_size);
 452              		.loc 1 79 67 discriminator 1 view .LVU106
 453              	.LBE25:
 454              	.LBB30:
  96:lvgl/lvgl/src/extra/widgets/msgbox/lv_msgbox.c ****             btn_cnt++;
 455              		.loc 1 96 13 is_stmt 1 view .LVU107
 456              		.loc 1 96 20 is_stmt 0 view .LVU108
 457 01ec 0135     		adds	r5, r5, #1
 458              	.LVL62:
 459              	.L12:
  95:lvgl/lvgl/src/extra/widgets/msgbox/lv_msgbox.c ****             btn_cnt++;
 460              		.loc 1 95 14 is_stmt 1 view .LVU109
  95:lvgl/lvgl/src/extra/widgets/msgbox/lv_msgbox.c ****             btn_cnt++;
 461              		.loc 1 95 23 is_stmt 0 view .LVU110
 462 01ee 57F82530 		ldr	r3, [r7, r5, lsl #2]
  95:lvgl/lvgl/src/extra/widgets/msgbox/lv_msgbox.c ****             btn_cnt++;
 463              		.loc 1 95 14 view .LVU111
 464 01f2 13B1     		cbz	r3, .L13
  95:lvgl/lvgl/src/extra/widgets/msgbox/lv_msgbox.c ****             btn_cnt++;
 465              		.loc 1 95 53 discriminator 1 view .LVU112
 466 01f4 1B78     		ldrb	r3, [r3]	@ zero_extendqisi2
  95:lvgl/lvgl/src/extra/widgets/msgbox/lv_msgbox.c ****             btn_cnt++;
 467              		.loc 1 95 33 discriminator 1 view .LVU113
 468 01f6 002B     		cmp	r3, #0
 469 01f8 F8D1     		bne	.L14
 470              	.L13:
  97:lvgl/lvgl/src/extra/widgets/msgbox/lv_msgbox.c ****         }
  98:lvgl/lvgl/src/extra/widgets/msgbox/lv_msgbox.c **** 
  99:lvgl/lvgl/src/extra/widgets/msgbox/lv_msgbox.c ****         const lv_font_t * font = lv_obj_get_style_text_font(btns, LV_PART_ITEMS);
 471              		.loc 1 99 9 is_stmt 1 view .LVU114
 472              	.LVL63:
 473              	.LBB17:
 474              	.LBI17:
 331:d:\practise\f407_disc\lvgl\lvgl\src/core\lv_obj_style_gen.h **** {
 475              		.loc 4 331 33 view .LVU115
 476              	.LBB18:
 333:d:\practise\f407_disc\lvgl\lvgl\src/core\lv_obj_style_gen.h ****     return (const lv_font_t *)v.ptr;
 477              		.loc 4 333 5 view .LVU116
 333:d:\practise\f407_disc\lvgl\lvgl\src/core\lv_obj_style_gen.h ****     return (const lv_font_t *)v.ptr;
 478              		.loc 4 333 26 is_stmt 0 view .LVU117
 479 01fa 41F25942 		movw	r2, #5209
 480 01fe 4FF4A021 		mov	r1, #327680
 481 0202 3046     		mov	r0, r6
ARM GAS  C:\Users\gx\AppData\Local\Temp\ccjvTKB3.s 			page 25


 482 0204 FFF7FEFF 		bl	lv_obj_get_style_prop
 483              	.LVL64:
 484              		.loc 4 334 5 is_stmt 1 view .LVU118
 485              		.loc 4 334 5 is_stmt 0 view .LVU119
 486              	.LBE18:
 487              	.LBE17:
 100:lvgl/lvgl/src/extra/widgets/msgbox/lv_msgbox.c ****         lv_coord_t btn_h = lv_font_get_line_height(font) + LV_DPI_DEF / 10;
 488              		.loc 1 100 9 is_stmt 1 view .LVU120
 489              	.LBB19:
 490              	.LBI19:
 118:d:\practise\f407_disc\lvgl\lvgl\src\font\lv_font.h **** {
 491              		.loc 5 118 26 view .LVU121
 492              	.LBB20:
 493              		.loc 5 120 5 view .LVU122
 494              		.loc 5 120 18 is_stmt 0 view .LVU123
 495 0208 B0F90820 		ldrsh	r2, [r0, #8]
 496              	.LVL65:
 497              		.loc 5 120 18 view .LVU124
 498              	.LBE20:
 499              	.LBE19:
 500              		.loc 1 100 28 view .LVU125
 501 020c 92B2     		uxth	r2, r2
 502              		.loc 1 100 58 view .LVU126
 503 020e 0D32     		adds	r2, r2, #13
 504              	.LVL66:
 101:lvgl/lvgl/src/extra/widgets/msgbox/lv_msgbox.c ****         lv_obj_set_size(btns, btn_cnt * (2 * LV_DPI_DEF / 3), btn_h);
 505              		.loc 1 101 9 is_stmt 1 view .LVU127
 506 0210 05EB8501 		add	r1, r5, r5, lsl #2
 507 0214 01EB0111 		add	r1, r1, r1, lsl #4
 508 0218 2944     		add	r1, r1, r5
 509 021a 12B2     		sxth	r2, r2
 510              		.loc 1 101 9 is_stmt 0 view .LVU128
 511 021c 09B2     		sxth	r1, r1
 512 021e 3046     		mov	r0, r6
 513              	.LVL67:
 514              		.loc 1 101 9 view .LVU129
 515 0220 FFF7FEFF 		bl	lv_obj_set_size
 516              	.LVL68:
 102:lvgl/lvgl/src/extra/widgets/msgbox/lv_msgbox.c ****         lv_obj_add_flag(btns, LV_OBJ_FLAG_EVENT_BUBBLE);    /*To see the event directly on the mess
 517              		.loc 1 102 9 is_stmt 1 view .LVU130
 518 0224 4FF48051 		mov	r1, #4096
 519 0228 3046     		mov	r0, r6
 520 022a FFF7FEFF 		bl	lv_obj_add_flag
 521              	.LVL69:
 522              	.LBE30:
 103:lvgl/lvgl/src/extra/widgets/msgbox/lv_msgbox.c ****     }
 104:lvgl/lvgl/src/extra/widgets/msgbox/lv_msgbox.c **** 
 105:lvgl/lvgl/src/extra/widgets/msgbox/lv_msgbox.c ****     return mbox;
 523              		.loc 1 105 5 view .LVU131
 524              	.L1:
 106:lvgl/lvgl/src/extra/widgets/msgbox/lv_msgbox.c **** }
 525              		.loc 1 106 1 is_stmt 0 view .LVU132
 526 022e 2046     		mov	r0, r4
 527 0230 05B0     		add	sp, sp, #20
 528              	.LCFI2:
 529              		.cfi_def_cfa_offset 28
 530              		@ sp needed
ARM GAS  C:\Users\gx\AppData\Local\Temp\ccjvTKB3.s 			page 26


 531 0232 BDE8F083 		pop	{r4, r5, r6, r7, r8, r9, pc}
 532              	.LVL70:
 533              	.L26:
 534              		.loc 1 106 1 view .LVU133
 535 0236 00BF     		.align	2
 536              	.L25:
 537 0238 00000000 		.word	.LANCHOR0
 538 023c FFFF0F00 		.word	1048575
 539 0240 30000000 		.word	.LC1
 540 0244 40000000 		.word	.LC2
 541 0248 50000000 		.word	.LC3
 542 024c 00000000 		.word	.LANCHOR1
 543 0250 00000000 		.word	.LC0
 544 0254 00000000 		.word	msgbox_close_click_event_cb
 545 0258 70000000 		.word	.LC4
 546 025c 67666666 		.word	1717986919
 547              		.cfi_endproc
 548              	.LFE189:
 550              		.section	.text.lv_msgbox_get_title,"ax",%progbits
 551              		.align	1
 552              		.global	lv_msgbox_get_title
 553              		.syntax unified
 554              		.thumb
 555              		.thumb_func
 556              		.fpu fpv4-sp-d16
 558              	lv_msgbox_get_title:
 559              	.LVL71:
 560              	.LFB190:
 107:lvgl/lvgl/src/extra/widgets/msgbox/lv_msgbox.c **** 
 108:lvgl/lvgl/src/extra/widgets/msgbox/lv_msgbox.c **** 
 109:lvgl/lvgl/src/extra/widgets/msgbox/lv_msgbox.c **** lv_obj_t * lv_msgbox_get_title(lv_obj_t * mbox)
 110:lvgl/lvgl/src/extra/widgets/msgbox/lv_msgbox.c **** {
 561              		.loc 1 110 1 is_stmt 1 view -0
 562              		.cfi_startproc
 563              		@ args = 0, pretend = 0, frame = 0
 564              		@ frame_needed = 0, uses_anonymous_args = 0
 565              		.loc 1 110 1 is_stmt 0 view .LVU135
 566 0000 08B5     		push	{r3, lr}
 567              	.LCFI3:
 568              		.cfi_def_cfa_offset 8
 569              		.cfi_offset 3, -8
 570              		.cfi_offset 14, -4
 111:lvgl/lvgl/src/extra/widgets/msgbox/lv_msgbox.c ****     return lv_obj_get_child(mbox, 0);
 571              		.loc 1 111 5 is_stmt 1 view .LVU136
 572              		.loc 1 111 12 is_stmt 0 view .LVU137
 573 0002 0021     		movs	r1, #0
 574 0004 FFF7FEFF 		bl	lv_obj_get_child
 575              	.LVL72:
 112:lvgl/lvgl/src/extra/widgets/msgbox/lv_msgbox.c **** }
 576              		.loc 1 112 1 view .LVU138
 577 0008 08BD     		pop	{r3, pc}
 578              		.cfi_endproc
 579              	.LFE190:
 581              		.section	.text.lv_msgbox_get_close_btn,"ax",%progbits
 582              		.align	1
 583              		.global	lv_msgbox_get_close_btn
 584              		.syntax unified
ARM GAS  C:\Users\gx\AppData\Local\Temp\ccjvTKB3.s 			page 27


 585              		.thumb
 586              		.thumb_func
 587              		.fpu fpv4-sp-d16
 589              	lv_msgbox_get_close_btn:
 590              	.LVL73:
 591              	.LFB191:
 113:lvgl/lvgl/src/extra/widgets/msgbox/lv_msgbox.c **** 
 114:lvgl/lvgl/src/extra/widgets/msgbox/lv_msgbox.c **** lv_obj_t * lv_msgbox_get_close_btn(lv_obj_t * mbox)
 115:lvgl/lvgl/src/extra/widgets/msgbox/lv_msgbox.c **** {
 592              		.loc 1 115 1 is_stmt 1 view -0
 593              		.cfi_startproc
 594              		@ args = 0, pretend = 0, frame = 0
 595              		@ frame_needed = 0, uses_anonymous_args = 0
 596              		.loc 1 115 1 is_stmt 0 view .LVU140
 597 0000 10B5     		push	{r4, lr}
 598              	.LCFI4:
 599              		.cfi_def_cfa_offset 8
 600              		.cfi_offset 4, -8
 601              		.cfi_offset 14, -4
 116:lvgl/lvgl/src/extra/widgets/msgbox/lv_msgbox.c ****     lv_obj_t * obj = lv_obj_get_child(mbox, 1);
 602              		.loc 1 116 5 is_stmt 1 view .LVU141
 603              		.loc 1 116 22 is_stmt 0 view .LVU142
 604 0002 0121     		movs	r1, #1
 605 0004 FFF7FEFF 		bl	lv_obj_get_child
 606              	.LVL74:
 607              		.loc 1 116 22 view .LVU143
 608 0008 0446     		mov	r4, r0
 609              	.LVL75:
 117:lvgl/lvgl/src/extra/widgets/msgbox/lv_msgbox.c ****     if(lv_obj_check_type(obj, &lv_btn_class)) return obj;
 610              		.loc 1 117 5 is_stmt 1 view .LVU144
 611              		.loc 1 117 8 is_stmt 0 view .LVU145
 612 000a 0449     		ldr	r1, .L34
 613 000c FFF7FEFF 		bl	lv_obj_check_type
 614              	.LVL76:
 615              		.loc 1 117 7 view .LVU146
 616 0010 08B1     		cbz	r0, .L33
 617              	.LVL77:
 618              	.L29:
 118:lvgl/lvgl/src/extra/widgets/msgbox/lv_msgbox.c ****     else return NULL;
 119:lvgl/lvgl/src/extra/widgets/msgbox/lv_msgbox.c **** }
 619              		.loc 1 119 1 view .LVU147
 620 0012 2046     		mov	r0, r4
 621 0014 10BD     		pop	{r4, pc}
 622              	.LVL78:
 623              	.L33:
 118:lvgl/lvgl/src/extra/widgets/msgbox/lv_msgbox.c ****     else return NULL;
 624              		.loc 1 118 17 view .LVU148
 625 0016 0024     		movs	r4, #0
 626              	.LVL79:
 118:lvgl/lvgl/src/extra/widgets/msgbox/lv_msgbox.c ****     else return NULL;
 627              		.loc 1 118 17 view .LVU149
 628 0018 FBE7     		b	.L29
 629              	.L35:
 630 001a 00BF     		.align	2
 631              	.L34:
 632 001c 00000000 		.word	lv_btn_class
 633              		.cfi_endproc
ARM GAS  C:\Users\gx\AppData\Local\Temp\ccjvTKB3.s 			page 28


 634              	.LFE191:
 636              		.section	.text.lv_msgbox_get_text,"ax",%progbits
 637              		.align	1
 638              		.global	lv_msgbox_get_text
 639              		.syntax unified
 640              		.thumb
 641              		.thumb_func
 642              		.fpu fpv4-sp-d16
 644              	lv_msgbox_get_text:
 645              	.LVL80:
 646              	.LFB192:
 120:lvgl/lvgl/src/extra/widgets/msgbox/lv_msgbox.c **** 
 121:lvgl/lvgl/src/extra/widgets/msgbox/lv_msgbox.c **** lv_obj_t * lv_msgbox_get_text(lv_obj_t * mbox)
 122:lvgl/lvgl/src/extra/widgets/msgbox/lv_msgbox.c **** {
 647              		.loc 1 122 1 is_stmt 1 view -0
 648              		.cfi_startproc
 649              		@ args = 0, pretend = 0, frame = 0
 650              		@ frame_needed = 0, uses_anonymous_args = 0
 651              		.loc 1 122 1 is_stmt 0 view .LVU151
 652 0000 38B5     		push	{r3, r4, r5, lr}
 653              	.LCFI5:
 654              		.cfi_def_cfa_offset 16
 655              		.cfi_offset 3, -16
 656              		.cfi_offset 4, -12
 657              		.cfi_offset 5, -8
 658              		.cfi_offset 14, -4
 659 0002 0546     		mov	r5, r0
 123:lvgl/lvgl/src/extra/widgets/msgbox/lv_msgbox.c ****     lv_obj_t * guess = lv_obj_get_child(mbox, 1); /*Can be the close button*/
 660              		.loc 1 123 5 is_stmt 1 view .LVU152
 661              		.loc 1 123 24 is_stmt 0 view .LVU153
 662 0004 0121     		movs	r1, #1
 663 0006 FFF7FEFF 		bl	lv_obj_get_child
 664              	.LVL81:
 665              		.loc 1 123 24 view .LVU154
 666 000a 0446     		mov	r4, r0
 667              	.LVL82:
 124:lvgl/lvgl/src/extra/widgets/msgbox/lv_msgbox.c ****     if(lv_obj_get_class(guess) == &lv_btn_class) guess = lv_obj_get_child(mbox, 2);
 668              		.loc 1 124 5 is_stmt 1 view .LVU155
 669              		.loc 1 124 8 is_stmt 0 view .LVU156
 670 000c FFF7FEFF 		bl	lv_obj_get_class
 671              	.LVL83:
 672              		.loc 1 124 7 view .LVU157
 673 0010 054B     		ldr	r3, .L40
 674 0012 8342     		cmp	r3, r0
 675 0014 01D0     		beq	.L39
 676              	.L36:
 125:lvgl/lvgl/src/extra/widgets/msgbox/lv_msgbox.c ****     return guess;
 126:lvgl/lvgl/src/extra/widgets/msgbox/lv_msgbox.c **** }
 677              		.loc 1 126 1 view .LVU158
 678 0016 2046     		mov	r0, r4
 679 0018 38BD     		pop	{r3, r4, r5, pc}
 680              	.LVL84:
 681              	.L39:
 124:lvgl/lvgl/src/extra/widgets/msgbox/lv_msgbox.c ****     if(lv_obj_get_class(guess) == &lv_btn_class) guess = lv_obj_get_child(mbox, 2);
 682              		.loc 1 124 50 is_stmt 1 discriminator 1 view .LVU159
 124:lvgl/lvgl/src/extra/widgets/msgbox/lv_msgbox.c ****     if(lv_obj_get_class(guess) == &lv_btn_class) guess = lv_obj_get_child(mbox, 2);
 683              		.loc 1 124 58 is_stmt 0 discriminator 1 view .LVU160
ARM GAS  C:\Users\gx\AppData\Local\Temp\ccjvTKB3.s 			page 29


 684 001a 0221     		movs	r1, #2
 685 001c 2846     		mov	r0, r5
 686 001e FFF7FEFF 		bl	lv_obj_get_child
 687              	.LVL85:
 688 0022 0446     		mov	r4, r0
 689              	.LVL86:
 125:lvgl/lvgl/src/extra/widgets/msgbox/lv_msgbox.c ****     return guess;
 690              		.loc 1 125 5 is_stmt 1 discriminator 1 view .LVU161
 125:lvgl/lvgl/src/extra/widgets/msgbox/lv_msgbox.c ****     return guess;
 691              		.loc 1 125 12 is_stmt 0 discriminator 1 view .LVU162
 692 0024 F7E7     		b	.L36
 693              	.L41:
 694 0026 00BF     		.align	2
 695              	.L40:
 696 0028 00000000 		.word	lv_btn_class
 697              		.cfi_endproc
 698              	.LFE192:
 700              		.section	.text.lv_msgbox_get_btns,"ax",%progbits
 701              		.align	1
 702              		.global	lv_msgbox_get_btns
 703              		.syntax unified
 704              		.thumb
 705              		.thumb_func
 706              		.fpu fpv4-sp-d16
 708              	lv_msgbox_get_btns:
 709              	.LVL87:
 710              	.LFB193:
 127:lvgl/lvgl/src/extra/widgets/msgbox/lv_msgbox.c **** 
 128:lvgl/lvgl/src/extra/widgets/msgbox/lv_msgbox.c **** lv_obj_t * lv_msgbox_get_btns(lv_obj_t * mbox)
 129:lvgl/lvgl/src/extra/widgets/msgbox/lv_msgbox.c **** {
 711              		.loc 1 129 1 is_stmt 1 view -0
 712              		.cfi_startproc
 713              		@ args = 0, pretend = 0, frame = 0
 714              		@ frame_needed = 0, uses_anonymous_args = 0
 715              		.loc 1 129 1 is_stmt 0 view .LVU164
 716 0000 10B5     		push	{r4, lr}
 717              	.LCFI6:
 718              		.cfi_def_cfa_offset 8
 719              		.cfi_offset 4, -8
 720              		.cfi_offset 14, -4
 721 0002 0446     		mov	r4, r0
 130:lvgl/lvgl/src/extra/widgets/msgbox/lv_msgbox.c ****     return lv_obj_get_child(mbox, lv_obj_get_child_cnt(mbox) - 1);
 722              		.loc 1 130 5 is_stmt 1 view .LVU165
 723              		.loc 1 130 35 is_stmt 0 view .LVU166
 724 0004 FFF7FEFF 		bl	lv_obj_get_child_cnt
 725              	.LVL88:
 726              		.loc 1 130 12 view .LVU167
 727 0008 411E     		subs	r1, r0, #1
 728 000a 2046     		mov	r0, r4
 729 000c FFF7FEFF 		bl	lv_obj_get_child
 730              	.LVL89:
 131:lvgl/lvgl/src/extra/widgets/msgbox/lv_msgbox.c **** }
 731              		.loc 1 131 1 view .LVU168
 732 0010 10BD     		pop	{r4, pc}
 733              		.loc 1 131 1 view .LVU169
 734              		.cfi_endproc
 735              	.LFE193:
ARM GAS  C:\Users\gx\AppData\Local\Temp\ccjvTKB3.s 			page 30


 737              		.section	.text.lv_msgbox_get_active_btn_text,"ax",%progbits
 738              		.align	1
 739              		.global	lv_msgbox_get_active_btn_text
 740              		.syntax unified
 741              		.thumb
 742              		.thumb_func
 743              		.fpu fpv4-sp-d16
 745              	lv_msgbox_get_active_btn_text:
 746              	.LVL90:
 747              	.LFB194:
 132:lvgl/lvgl/src/extra/widgets/msgbox/lv_msgbox.c **** 
 133:lvgl/lvgl/src/extra/widgets/msgbox/lv_msgbox.c **** const char * lv_msgbox_get_active_btn_text(lv_obj_t * mbox)
 134:lvgl/lvgl/src/extra/widgets/msgbox/lv_msgbox.c **** {
 748              		.loc 1 134 1 is_stmt 1 view -0
 749              		.cfi_startproc
 750              		@ args = 0, pretend = 0, frame = 0
 751              		@ frame_needed = 0, uses_anonymous_args = 0
 752              		.loc 1 134 1 is_stmt 0 view .LVU171
 753 0000 10B5     		push	{r4, lr}
 754              	.LCFI7:
 755              		.cfi_def_cfa_offset 8
 756              		.cfi_offset 4, -8
 757              		.cfi_offset 14, -4
 135:lvgl/lvgl/src/extra/widgets/msgbox/lv_msgbox.c ****     lv_obj_t * btnm = lv_msgbox_get_btns(mbox);
 758              		.loc 1 135 5 is_stmt 1 view .LVU172
 759              		.loc 1 135 23 is_stmt 0 view .LVU173
 760 0002 FFF7FEFF 		bl	lv_msgbox_get_btns
 761              	.LVL91:
 762              		.loc 1 135 23 view .LVU174
 763 0006 0446     		mov	r4, r0
 764              	.LVL92:
 136:lvgl/lvgl/src/extra/widgets/msgbox/lv_msgbox.c ****     return lv_btnmatrix_get_btn_text(btnm, lv_btnmatrix_get_selected_btn(btnm));
 765              		.loc 1 136 5 is_stmt 1 view .LVU175
 766              		.loc 1 136 12 is_stmt 0 view .LVU176
 767 0008 FFF7FEFF 		bl	lv_btnmatrix_get_selected_btn
 768              	.LVL93:
 769              		.loc 1 136 12 view .LVU177
 770 000c 0146     		mov	r1, r0
 771 000e 2046     		mov	r0, r4
 772 0010 FFF7FEFF 		bl	lv_btnmatrix_get_btn_text
 773              	.LVL94:
 137:lvgl/lvgl/src/extra/widgets/msgbox/lv_msgbox.c **** }
 774              		.loc 1 137 1 view .LVU178
 775 0014 10BD     		pop	{r4, pc}
 776              		.loc 1 137 1 view .LVU179
 777              		.cfi_endproc
 778              	.LFE194:
 780              		.section	.text.lv_msgbox_close,"ax",%progbits
 781              		.align	1
 782              		.global	lv_msgbox_close
 783              		.syntax unified
 784              		.thumb
 785              		.thumb_func
 786              		.fpu fpv4-sp-d16
 788              	lv_msgbox_close:
 789              	.LVL95:
 790              	.LFB195:
ARM GAS  C:\Users\gx\AppData\Local\Temp\ccjvTKB3.s 			page 31


 138:lvgl/lvgl/src/extra/widgets/msgbox/lv_msgbox.c **** 
 139:lvgl/lvgl/src/extra/widgets/msgbox/lv_msgbox.c **** void lv_msgbox_close(lv_obj_t * mbox)
 140:lvgl/lvgl/src/extra/widgets/msgbox/lv_msgbox.c **** {
 791              		.loc 1 140 1 is_stmt 1 view -0
 792              		.cfi_startproc
 793              		@ args = 0, pretend = 0, frame = 0
 794              		@ frame_needed = 0, uses_anonymous_args = 0
 795              		.loc 1 140 1 is_stmt 0 view .LVU181
 796 0000 10B5     		push	{r4, lr}
 797              	.LCFI8:
 798              		.cfi_def_cfa_offset 8
 799              		.cfi_offset 4, -8
 800              		.cfi_offset 14, -4
 801 0002 0446     		mov	r4, r0
 141:lvgl/lvgl/src/extra/widgets/msgbox/lv_msgbox.c ****     if(lv_obj_has_flag(mbox, LV_MSGBOX_FLAG_AUTO_PARENT)) lv_obj_del(lv_obj_get_parent(mbox));
 802              		.loc 1 141 5 is_stmt 1 view .LVU182
 803              		.loc 1 141 8 is_stmt 0 view .LVU183
 804 0004 4FF00071 		mov	r1, #33554432
 805 0008 FFF7FEFF 		bl	lv_obj_has_flag
 806              	.LVL96:
 807              		.loc 1 141 7 view .LVU184
 808 000c 28B1     		cbz	r0, .L47
 809              		.loc 1 141 59 is_stmt 1 discriminator 1 view .LVU185
 810 000e 2046     		mov	r0, r4
 811 0010 FFF7FEFF 		bl	lv_obj_get_parent
 812              	.LVL97:
 813 0014 FFF7FEFF 		bl	lv_obj_del
 814              	.LVL98:
 815              	.L46:
 142:lvgl/lvgl/src/extra/widgets/msgbox/lv_msgbox.c ****     else lv_obj_del(mbox);
 143:lvgl/lvgl/src/extra/widgets/msgbox/lv_msgbox.c **** }
 816              		.loc 1 143 1 is_stmt 0 view .LVU186
 817 0018 10BD     		pop	{r4, pc}
 818              	.LVL99:
 819              	.L47:
 142:lvgl/lvgl/src/extra/widgets/msgbox/lv_msgbox.c ****     else lv_obj_del(mbox);
 820              		.loc 1 142 10 is_stmt 1 view .LVU187
 821 001a 2046     		mov	r0, r4
 822 001c FFF7FEFF 		bl	lv_obj_del
 823              	.LVL100:
 824              		.loc 1 143 1 is_stmt 0 view .LVU188
 825 0020 FAE7     		b	.L46
 826              		.cfi_endproc
 827              	.LFE195:
 829              		.section	.text.msgbox_close_click_event_cb,"ax",%progbits
 830              		.align	1
 831              		.syntax unified
 832              		.thumb
 833              		.thumb_func
 834              		.fpu fpv4-sp-d16
 836              	msgbox_close_click_event_cb:
 837              	.LVL101:
 838              	.LFB196:
 144:lvgl/lvgl/src/extra/widgets/msgbox/lv_msgbox.c **** 
 145:lvgl/lvgl/src/extra/widgets/msgbox/lv_msgbox.c **** 
 146:lvgl/lvgl/src/extra/widgets/msgbox/lv_msgbox.c **** /**********************
 147:lvgl/lvgl/src/extra/widgets/msgbox/lv_msgbox.c ****  *   STATIC FUNCTIONS
ARM GAS  C:\Users\gx\AppData\Local\Temp\ccjvTKB3.s 			page 32


 148:lvgl/lvgl/src/extra/widgets/msgbox/lv_msgbox.c ****  **********************/
 149:lvgl/lvgl/src/extra/widgets/msgbox/lv_msgbox.c **** 
 150:lvgl/lvgl/src/extra/widgets/msgbox/lv_msgbox.c **** static void msgbox_close_click_event_cb(lv_event_t * e)
 151:lvgl/lvgl/src/extra/widgets/msgbox/lv_msgbox.c **** {
 839              		.loc 1 151 1 is_stmt 1 view -0
 840              		.cfi_startproc
 841              		@ args = 0, pretend = 0, frame = 0
 842              		@ frame_needed = 0, uses_anonymous_args = 0
 843              		.loc 1 151 1 is_stmt 0 view .LVU190
 844 0000 08B5     		push	{r3, lr}
 845              	.LCFI9:
 846              		.cfi_def_cfa_offset 8
 847              		.cfi_offset 3, -8
 848              		.cfi_offset 14, -4
 152:lvgl/lvgl/src/extra/widgets/msgbox/lv_msgbox.c ****     lv_obj_t * btn = lv_event_get_target(e);
 849              		.loc 1 152 5 is_stmt 1 view .LVU191
 850              		.loc 1 152 22 is_stmt 0 view .LVU192
 851 0002 FFF7FEFF 		bl	lv_event_get_target
 852              	.LVL102:
 153:lvgl/lvgl/src/extra/widgets/msgbox/lv_msgbox.c ****     lv_obj_t * mbox = lv_obj_get_parent(btn);
 853              		.loc 1 153 5 is_stmt 1 view .LVU193
 854              		.loc 1 153 23 is_stmt 0 view .LVU194
 855 0006 FFF7FEFF 		bl	lv_obj_get_parent
 856              	.LVL103:
 154:lvgl/lvgl/src/extra/widgets/msgbox/lv_msgbox.c ****     lv_msgbox_close(mbox);
 857              		.loc 1 154 5 is_stmt 1 view .LVU195
 858 000a FFF7FEFF 		bl	lv_msgbox_close
 859              	.LVL104:
 155:lvgl/lvgl/src/extra/widgets/msgbox/lv_msgbox.c **** }
 860              		.loc 1 155 1 is_stmt 0 view .LVU196
 861 000e 08BD     		pop	{r3, pc}
 862              		.cfi_endproc
 863              	.LFE196:
 865              		.global	lv_msgbox_class
 866              		.section	.rodata.__func__.12100,"a"
 867              		.align	2
 868              		.set	.LANCHOR1,. + 0
 871              	__func__.12100:
 872 0000 6C765F6D 		.ascii	"lv_msgbox_create\000"
 872      7367626F 
 872      785F6372 
 872      65617465 
 872      00
 873              		.section	.rodata.lv_msgbox_class,"a"
 874              		.align	2
 875              		.set	.LANCHOR0,. + 0
 878              	lv_msgbox_class:
 879 0000 00000000 		.word	lv_obj_class
 880 0004 00000000 		.space	24
 880      00000000 
 880      00000000 
 880      00000000 
 880      00000000 
 881              		.text
 882              	.Letext0:
 883              		.file 6 "c:\\program files (x86)\\gnu arm embedded toolchain\\9 2020-q2-update\\arm-none-eabi\\inc
 884              		.file 7 "c:\\program files (x86)\\gnu arm embedded toolchain\\9 2020-q2-update\\arm-none-eabi\\inc
ARM GAS  C:\Users\gx\AppData\Local\Temp\ccjvTKB3.s 			page 33


 885              		.file 8 "d:\\practise\\f407_disc\\lvgl\\lvgl\\src/misc/lv_ll.h"
 886              		.file 9 "c:\\program files (x86)\\gnu arm embedded toolchain\\9 2020-q2-update\\lib\\gcc\\arm-none
 887              		.file 10 "c:\\program files (x86)\\gnu arm embedded toolchain\\9 2020-q2-update\\arm-none-eabi\\in
 888              		.file 11 "c:\\program files (x86)\\gnu arm embedded toolchain\\9 2020-q2-update\\arm-none-eabi\\in
 889              		.file 12 "c:\\program files (x86)\\gnu arm embedded toolchain\\9 2020-q2-update\\arm-none-eabi\\in
 890              		.file 13 "d:\\practise\\f407_disc\\lvgl\\lvgl\\src\\misc\\lv_color.h"
 891              		.file 14 "d:\\practise\\f407_disc\\lvgl\\lvgl\\src\\misc\\lv_area.h"
 892              		.file 15 "d:\\practise\\f407_disc\\lvgl\\lvgl\\src/core/lv_obj.h"
 893              		.file 16 "d:\\practise\\f407_disc\\lvgl\\lvgl\\src/core/lv_group.h"
 894              		.file 17 "d:\\practise\\f407_disc\\lvgl\\lvgl\\src\\misc\\lv_txt.h"
 895              		.file 18 "d:\\practise\\f407_disc\\lvgl\\lvgl\\src\\misc\\lv_style.h"
 896              		.file 19 "d:\\practise\\f407_disc\\lvgl\\lvgl\\src/core/lv_obj_scroll.h"
 897              		.file 20 "d:\\practise\\f407_disc\\lvgl\\lvgl\\src\\draw\\lv_draw_label.h"
 898              		.file 21 "d:\\practise\\f407_disc\\lvgl\\lvgl\\src/core/lv_obj_class.h"
 899              		.file 22 "d:\\practise\\f407_disc\\lvgl\\lvgl\\src/core/lv_event.h"
 900              		.file 23 "d:\\practise\\f407_disc\\lvgl\\lvgl\\src/widgets/lv_arc.h"
 901              		.file 24 "d:\\practise\\f407_disc\\lvgl\\lvgl\\src/widgets/lv_btn.h"
 902              		.file 25 "d:\\practise\\f407_disc\\lvgl\\lvgl\\src/widgets/lv_img.h"
 903              		.file 26 "d:\\practise\\f407_disc\\lvgl\\lvgl\\src/widgets/lv_label.h"
 904              		.file 27 "d:\\practise\\f407_disc\\lvgl\\lvgl\\src/widgets/lv_line.h"
 905              		.file 28 "d:\\practise\\f407_disc\\lvgl\\lvgl\\src/widgets/lv_table.h"
 906              		.file 29 "d:\\practise\\f407_disc\\lvgl\\lvgl\\src/widgets/lv_checkbox.h"
 907              		.file 30 "d:\\practise\\f407_disc\\lvgl\\lvgl\\src/widgets/lv_bar.h"
 908              		.file 31 "d:\\practise\\f407_disc\\lvgl\\lvgl\\src/widgets/lv_slider.h"
 909              		.file 32 "d:\\practise\\f407_disc\\lvgl\\lvgl\\src/widgets/lv_btnmatrix.h"
 910              		.file 33 "d:\\practise\\f407_disc\\lvgl\\lvgl\\src/widgets/lv_dropdown.h"
 911              		.file 34 "d:\\practise\\f407_disc\\lvgl\\lvgl\\src/widgets/lv_roller.h"
 912              		.file 35 "d:\\practise\\f407_disc\\lvgl\\lvgl\\src/widgets/lv_textarea.h"
 913              		.file 36 "d:\\practise\\f407_disc\\lvgl\\lvgl\\src/widgets/lv_canvas.h"
 914              		.file 37 "d:\\practise\\f407_disc\\lvgl\\lvgl\\src/widgets/lv_switch.h"
 915              		.file 38 "d:\\practise\\f407_disc\\lvgl\\lvgl\\src/extra/widgets/animimg/lv_animimg.h"
 916              		.file 39 "d:\\practise\\f407_disc\\lvgl\\lvgl\\src/extra/widgets/calendar/lv_calendar.h"
 917              		.file 40 "d:\\practise\\f407_disc\\lvgl\\lvgl\\src/extra/widgets/calendar/lv_calendar_header_arrow
 918              		.file 41 "d:\\practise\\f407_disc\\lvgl\\lvgl\\src/extra/widgets/calendar/lv_calendar_header_dropd
 919              		.file 42 "d:\\practise\\f407_disc\\lvgl\\lvgl\\src/extra/widgets/chart/lv_chart.h"
 920              		.file 43 "d:\\practise\\f407_disc\\lvgl\\lvgl\\src/extra/widgets/keyboard/lv_keyboard.h"
 921              		.file 44 "d:\\practise\\f407_disc\\lvgl\\lvgl\\src\\extra\\layouts\\flex\\lv_flex.h"
 922              		.file 45 "d:\\practise\\f407_disc\\lvgl\\lvgl\\src/extra/widgets/list/lv_list.h"
 923              		.file 46 "d:\\practise\\f407_disc\\lvgl\\lvgl\\src/extra/widgets/meter/lv_meter.h"
 924              		.file 47 "d:\\practise\\f407_disc\\lvgl\\lvgl\\src/extra/widgets/spinbox/lv_spinbox.h"
 925              		.file 48 "d:\\practise\\f407_disc\\lvgl\\lvgl\\src/extra/widgets/spinner/lv_spinner.h"
 926              		.file 49 "d:\\practise\\f407_disc\\lvgl\\lvgl\\src/extra/widgets/tabview/lv_tabview.h"
 927              		.file 50 "d:\\practise\\f407_disc\\lvgl\\lvgl\\src/extra/widgets/tileview/lv_tileview.h"
 928              		.file 51 "d:\\practise\\f407_disc\\lvgl\\lvgl\\src/extra/widgets/win/lv_win.h"
 929              		.file 52 "d:\\practise\\f407_disc\\lvgl\\lvgl\\src/extra/widgets/colorwheel/lv_colorwheel.h"
 930              		.file 53 "d:\\practise\\f407_disc\\lvgl\\lvgl\\src/extra/widgets/led/lv_led.h"
 931              		.file 54 "d:\\practise\\f407_disc\\lvgl\\lvgl\\src/extra/widgets/imgbtn/lv_imgbtn.h"
 932              		.file 55 "d:\\practise\\f407_disc\\lvgl\\lvgl\\src/extra/widgets/span/lv_span.h"
 933              		.file 56 "d:\\practise\\f407_disc\\lvgl\\lvgl\\src/extra/layouts/grid/lv_grid.h"
 934              		.file 57 "lvgl/lvgl/src/extra/widgets/msgbox/lv_msgbox.h"
 935              		.file 58 "d:\\practise\\f407_disc\\lvgl\\lvgl\\src/core/lv_obj_tree.h"
 936              		.file 59 "d:\\practise\\f407_disc\\lvgl\\lvgl\\src/hal/lv_hal_disp.h"
 937              		.file 60 "d:\\practise\\f407_disc\\lvgl\\lvgl\\src/core/lv_obj_pos.h"
 938              		.file 61 "d:\\practise\\f407_disc\\lvgl\\lvgl\\src/misc/lv_log.h"
ARM GAS  C:\Users\gx\AppData\Local\Temp\ccjvTKB3.s 			page 34

