ARM GAS  C:\Users\gx\AppData\Local\Temp\cccIVLs9.s 			page 1


   1              		.cpu cortex-m4
   2              		.eabi_attribute 27, 1
   3              		.eabi_attribute 28, 1
   4              		.eabi_attribute 20, 1
   5              		.eabi_attribute 21, 1
   6              		.eabi_attribute 23, 3
   7              		.eabi_attribute 24, 1
   8              		.eabi_attribute 25, 1
   9              		.eabi_attribute 26, 1
  10              		.eabi_attribute 30, 1
  11              		.eabi_attribute 34, 1
  12              		.eabi_attribute 18, 4
  13              		.file	"lv_obj.c"
  14              		.text
  15              	.Ltext0:
  16              		.cfi_sections	.debug_frame
  17              		.section	.text.obj_valid_child,"ax",%progbits
  18              		.align	1
  19              		.arch armv7e-m
  20              		.syntax unified
  21              		.thumb
  22              		.thumb_func
  23              		.fpu fpv4-sp-d16
  25              	obj_valid_child:
  26              	.LVL0:
  27              	.LFB183:
  28              		.file 1 "lvgl/lvgl/src/core/lv_obj.c"
   1:lvgl/lvgl/src/core/lv_obj.c **** /**
   2:lvgl/lvgl/src/core/lv_obj.c ****  * @file lv_obj.c
   3:lvgl/lvgl/src/core/lv_obj.c ****  *
   4:lvgl/lvgl/src/core/lv_obj.c ****  */
   5:lvgl/lvgl/src/core/lv_obj.c **** 
   6:lvgl/lvgl/src/core/lv_obj.c **** /*********************
   7:lvgl/lvgl/src/core/lv_obj.c ****  *      INCLUDES
   8:lvgl/lvgl/src/core/lv_obj.c ****  *********************/
   9:lvgl/lvgl/src/core/lv_obj.c **** #include "lv_obj.h"
  10:lvgl/lvgl/src/core/lv_obj.c **** #include "lv_indev.h"
  11:lvgl/lvgl/src/core/lv_obj.c **** #include "lv_refr.h"
  12:lvgl/lvgl/src/core/lv_obj.c **** #include "lv_group.h"
  13:lvgl/lvgl/src/core/lv_obj.c **** #include "lv_disp.h"
  14:lvgl/lvgl/src/core/lv_obj.c **** #include "lv_theme.h"
  15:lvgl/lvgl/src/core/lv_obj.c **** #include "../misc/lv_assert.h"
  16:lvgl/lvgl/src/core/lv_obj.c **** #include "../draw/lv_draw.h"
  17:lvgl/lvgl/src/core/lv_obj.c **** #include "../misc/lv_anim.h"
  18:lvgl/lvgl/src/core/lv_obj.c **** #include "../misc/lv_timer.h"
  19:lvgl/lvgl/src/core/lv_obj.c **** #include "../misc/lv_async.h"
  20:lvgl/lvgl/src/core/lv_obj.c **** #include "../misc/lv_fs.h"
  21:lvgl/lvgl/src/core/lv_obj.c **** #include "../misc/lv_gc.h"
  22:lvgl/lvgl/src/core/lv_obj.c **** #include "../misc/lv_math.h"
  23:lvgl/lvgl/src/core/lv_obj.c **** #include "../misc/lv_log.h"
  24:lvgl/lvgl/src/core/lv_obj.c **** #include "../hal/lv_hal.h"
  25:lvgl/lvgl/src/core/lv_obj.c **** #include "../extra/lv_extra.h"
  26:lvgl/lvgl/src/core/lv_obj.c **** #include <stdint.h>
  27:lvgl/lvgl/src/core/lv_obj.c **** #include <string.h>
  28:lvgl/lvgl/src/core/lv_obj.c **** 
  29:lvgl/lvgl/src/core/lv_obj.c **** #if LV_USE_GPU_STM32_DMA2D
  30:lvgl/lvgl/src/core/lv_obj.c ****     #include "../gpu/lv_gpu_stm32_dma2d.h"
ARM GAS  C:\Users\gx\AppData\Local\Temp\cccIVLs9.s 			page 2


  31:lvgl/lvgl/src/core/lv_obj.c **** #endif
  32:lvgl/lvgl/src/core/lv_obj.c **** 
  33:lvgl/lvgl/src/core/lv_obj.c **** #if LV_USE_GPU_NXP_PXP && LV_USE_GPU_NXP_PXP_AUTO_INIT
  34:lvgl/lvgl/src/core/lv_obj.c ****     #include "../gpu/lv_gpu_nxp_pxp.h"
  35:lvgl/lvgl/src/core/lv_obj.c ****     #include "../gpu/lv_gpu_nxp_pxp_osa.h"
  36:lvgl/lvgl/src/core/lv_obj.c **** #endif
  37:lvgl/lvgl/src/core/lv_obj.c **** 
  38:lvgl/lvgl/src/core/lv_obj.c **** /*********************
  39:lvgl/lvgl/src/core/lv_obj.c ****  *      DEFINES
  40:lvgl/lvgl/src/core/lv_obj.c ****  *********************/
  41:lvgl/lvgl/src/core/lv_obj.c **** #define MY_CLASS &lv_obj_class
  42:lvgl/lvgl/src/core/lv_obj.c **** #define LV_OBJ_DEF_WIDTH    (LV_DPX(100))
  43:lvgl/lvgl/src/core/lv_obj.c **** #define LV_OBJ_DEF_HEIGHT   (LV_DPX(50))
  44:lvgl/lvgl/src/core/lv_obj.c **** #define GRID_DEBUG          0   /*Draw rectangles on grid cells*/
  45:lvgl/lvgl/src/core/lv_obj.c **** #define STYLE_TRANSITION_MAX 32
  46:lvgl/lvgl/src/core/lv_obj.c **** 
  47:lvgl/lvgl/src/core/lv_obj.c **** /**********************
  48:lvgl/lvgl/src/core/lv_obj.c ****  *      TYPEDEFS
  49:lvgl/lvgl/src/core/lv_obj.c ****  **********************/
  50:lvgl/lvgl/src/core/lv_obj.c **** 
  51:lvgl/lvgl/src/core/lv_obj.c **** /**********************
  52:lvgl/lvgl/src/core/lv_obj.c ****  *  STATIC PROTOTYPES
  53:lvgl/lvgl/src/core/lv_obj.c ****  **********************/
  54:lvgl/lvgl/src/core/lv_obj.c **** static void lv_obj_constructor(const lv_obj_class_t * class_p, lv_obj_t * obj);
  55:lvgl/lvgl/src/core/lv_obj.c **** static void lv_obj_destructor(const lv_obj_class_t * class_p, lv_obj_t * obj);
  56:lvgl/lvgl/src/core/lv_obj.c **** static void lv_obj_draw(lv_event_t * e);
  57:lvgl/lvgl/src/core/lv_obj.c **** static void lv_obj_event(const lv_obj_class_t * class_p, lv_event_t * e);
  58:lvgl/lvgl/src/core/lv_obj.c **** static void draw_scrollbar(lv_obj_t * obj, const lv_area_t * clip_area);
  59:lvgl/lvgl/src/core/lv_obj.c **** static lv_res_t scrollbar_init_draw_dsc(lv_obj_t * obj, lv_draw_rect_dsc_t * dsc);
  60:lvgl/lvgl/src/core/lv_obj.c **** static bool obj_valid_child(const lv_obj_t * parent, const lv_obj_t * obj_to_find);
  61:lvgl/lvgl/src/core/lv_obj.c **** static void lv_obj_set_state(lv_obj_t * obj, lv_state_t new_state);
  62:lvgl/lvgl/src/core/lv_obj.c **** 
  63:lvgl/lvgl/src/core/lv_obj.c **** /**********************
  64:lvgl/lvgl/src/core/lv_obj.c ****  *  STATIC VARIABLES
  65:lvgl/lvgl/src/core/lv_obj.c ****  **********************/
  66:lvgl/lvgl/src/core/lv_obj.c **** static bool lv_initialized = false;
  67:lvgl/lvgl/src/core/lv_obj.c **** const lv_obj_class_t lv_obj_class = {
  68:lvgl/lvgl/src/core/lv_obj.c ****     .constructor_cb = lv_obj_constructor,
  69:lvgl/lvgl/src/core/lv_obj.c ****     .destructor_cb = lv_obj_destructor,
  70:lvgl/lvgl/src/core/lv_obj.c ****     .event_cb = lv_obj_event,
  71:lvgl/lvgl/src/core/lv_obj.c ****     .width_def = LV_DPI_DEF,
  72:lvgl/lvgl/src/core/lv_obj.c ****     .height_def = LV_DPI_DEF,
  73:lvgl/lvgl/src/core/lv_obj.c ****     .editable = LV_OBJ_CLASS_EDITABLE_FALSE,
  74:lvgl/lvgl/src/core/lv_obj.c ****     .group_def = LV_OBJ_CLASS_GROUP_DEF_FALSE,
  75:lvgl/lvgl/src/core/lv_obj.c ****     .instance_size = (sizeof(lv_obj_t)),
  76:lvgl/lvgl/src/core/lv_obj.c ****     .base_class = NULL,
  77:lvgl/lvgl/src/core/lv_obj.c **** };
  78:lvgl/lvgl/src/core/lv_obj.c **** 
  79:lvgl/lvgl/src/core/lv_obj.c **** /**********************
  80:lvgl/lvgl/src/core/lv_obj.c ****  *      MACROS
  81:lvgl/lvgl/src/core/lv_obj.c ****  **********************/
  82:lvgl/lvgl/src/core/lv_obj.c **** 
  83:lvgl/lvgl/src/core/lv_obj.c **** /**********************
  84:lvgl/lvgl/src/core/lv_obj.c ****  *   GLOBAL FUNCTIONS
  85:lvgl/lvgl/src/core/lv_obj.c ****  **********************/
  86:lvgl/lvgl/src/core/lv_obj.c **** 
  87:lvgl/lvgl/src/core/lv_obj.c **** bool lv_is_initialized(void)
ARM GAS  C:\Users\gx\AppData\Local\Temp\cccIVLs9.s 			page 3


  88:lvgl/lvgl/src/core/lv_obj.c **** {
  89:lvgl/lvgl/src/core/lv_obj.c ****     return lv_initialized;
  90:lvgl/lvgl/src/core/lv_obj.c **** }
  91:lvgl/lvgl/src/core/lv_obj.c **** 
  92:lvgl/lvgl/src/core/lv_obj.c **** void lv_init(void)
  93:lvgl/lvgl/src/core/lv_obj.c **** {
  94:lvgl/lvgl/src/core/lv_obj.c ****     /*Do nothing if already initialized*/
  95:lvgl/lvgl/src/core/lv_obj.c ****     if(lv_initialized) {
  96:lvgl/lvgl/src/core/lv_obj.c ****         LV_LOG_WARN("lv_init: already inited");
  97:lvgl/lvgl/src/core/lv_obj.c ****         return;
  98:lvgl/lvgl/src/core/lv_obj.c ****     }
  99:lvgl/lvgl/src/core/lv_obj.c **** 
 100:lvgl/lvgl/src/core/lv_obj.c ****     LV_LOG_INFO("begin");
 101:lvgl/lvgl/src/core/lv_obj.c **** 
 102:lvgl/lvgl/src/core/lv_obj.c ****     /*Initialize the misc modules*/
 103:lvgl/lvgl/src/core/lv_obj.c ****     lv_mem_init();
 104:lvgl/lvgl/src/core/lv_obj.c **** 
 105:lvgl/lvgl/src/core/lv_obj.c ****     _lv_timer_core_init();
 106:lvgl/lvgl/src/core/lv_obj.c **** 
 107:lvgl/lvgl/src/core/lv_obj.c ****     _lv_fs_init();
 108:lvgl/lvgl/src/core/lv_obj.c **** 
 109:lvgl/lvgl/src/core/lv_obj.c ****     _lv_anim_core_init();
 110:lvgl/lvgl/src/core/lv_obj.c **** 
 111:lvgl/lvgl/src/core/lv_obj.c ****     _lv_group_init();
 112:lvgl/lvgl/src/core/lv_obj.c **** 
 113:lvgl/lvgl/src/core/lv_obj.c **** #if LV_USE_GPU_STM32_DMA2D
 114:lvgl/lvgl/src/core/lv_obj.c ****     /*Initialize DMA2D GPU*/
 115:lvgl/lvgl/src/core/lv_obj.c ****     lv_gpu_stm32_dma2d_init();
 116:lvgl/lvgl/src/core/lv_obj.c **** #endif
 117:lvgl/lvgl/src/core/lv_obj.c **** 
 118:lvgl/lvgl/src/core/lv_obj.c **** #if LV_USE_GPU_NXP_PXP && LV_USE_GPU_NXP_PXP_AUTO_INIT
 119:lvgl/lvgl/src/core/lv_obj.c ****     if(lv_gpu_nxp_pxp_init(&pxp_default_cfg) != LV_RES_OK) {
 120:lvgl/lvgl/src/core/lv_obj.c ****         LV_LOG_ERROR("PXP init error. STOP.\n");
 121:lvgl/lvgl/src/core/lv_obj.c ****         for(; ;) ;
 122:lvgl/lvgl/src/core/lv_obj.c ****     }
 123:lvgl/lvgl/src/core/lv_obj.c **** #endif
 124:lvgl/lvgl/src/core/lv_obj.c **** 
 125:lvgl/lvgl/src/core/lv_obj.c ****     _lv_obj_style_init();
 126:lvgl/lvgl/src/core/lv_obj.c ****     _lv_ll_init(&LV_GC_ROOT(_lv_disp_ll), sizeof(lv_disp_t));
 127:lvgl/lvgl/src/core/lv_obj.c ****     _lv_ll_init(&LV_GC_ROOT(_lv_indev_ll), sizeof(lv_indev_t));
 128:lvgl/lvgl/src/core/lv_obj.c **** 
 129:lvgl/lvgl/src/core/lv_obj.c ****     /*Initialize the screen refresh system*/
 130:lvgl/lvgl/src/core/lv_obj.c ****     _lv_refr_init();
 131:lvgl/lvgl/src/core/lv_obj.c **** 
 132:lvgl/lvgl/src/core/lv_obj.c ****     _lv_img_decoder_init();
 133:lvgl/lvgl/src/core/lv_obj.c **** #if LV_IMG_CACHE_DEF_SIZE
 134:lvgl/lvgl/src/core/lv_obj.c ****     lv_img_cache_set_size(LV_IMG_CACHE_DEF_SIZE);
 135:lvgl/lvgl/src/core/lv_obj.c **** #endif
 136:lvgl/lvgl/src/core/lv_obj.c ****     /*Test if the IDE has UTF-8 encoding*/
 137:lvgl/lvgl/src/core/lv_obj.c ****     char * txt = "Ã";
 138:lvgl/lvgl/src/core/lv_obj.c **** 
 139:lvgl/lvgl/src/core/lv_obj.c ****     uint8_t * txt_u8 = (uint8_t *)txt;
 140:lvgl/lvgl/src/core/lv_obj.c ****     if(txt_u8[0] != 0xc3 || txt_u8[1] != 0x81 || txt_u8[2] != 0x00) {
 141:lvgl/lvgl/src/core/lv_obj.c ****         LV_LOG_WARN("The strings has no UTF-8 encoding. Non-ASCII characters won't be displayed.")
 142:lvgl/lvgl/src/core/lv_obj.c ****     }
 143:lvgl/lvgl/src/core/lv_obj.c **** 
 144:lvgl/lvgl/src/core/lv_obj.c ****     uint32_t endianess_test = 0x11223344;
ARM GAS  C:\Users\gx\AppData\Local\Temp\cccIVLs9.s 			page 4


 145:lvgl/lvgl/src/core/lv_obj.c ****     uint8_t * endianess_test_p = (uint8_t*) &endianess_test;
 146:lvgl/lvgl/src/core/lv_obj.c ****     bool big_endian = endianess_test_p[0] == 0x11 ? true : false;
 147:lvgl/lvgl/src/core/lv_obj.c **** 
 148:lvgl/lvgl/src/core/lv_obj.c ****     if(big_endian) {
 149:lvgl/lvgl/src/core/lv_obj.c ****         LV_ASSERT_MSG(LV_BIG_ENDIAN_SYSTEM == 1, "It's a big endian system but LV_BIG_ENDIAN_SYSTEM
 150:lvgl/lvgl/src/core/lv_obj.c ****     } else {
 151:lvgl/lvgl/src/core/lv_obj.c ****         LV_ASSERT_MSG(LV_BIG_ENDIAN_SYSTEM == 0, "It's a little endian system but LV_BIG_ENDIAN_SYS
 152:lvgl/lvgl/src/core/lv_obj.c ****     }
 153:lvgl/lvgl/src/core/lv_obj.c **** 
 154:lvgl/lvgl/src/core/lv_obj.c **** #if LV_USE_ASSERT_MEM_INTEGRITY
 155:lvgl/lvgl/src/core/lv_obj.c ****     LV_LOG_WARN("Memory integrity checks are enabled via LV_USE_ASSERT_MEM_INTEGRITY which makes LV
 156:lvgl/lvgl/src/core/lv_obj.c **** #endif
 157:lvgl/lvgl/src/core/lv_obj.c **** 
 158:lvgl/lvgl/src/core/lv_obj.c **** #if LV_USE_ASSERT_OBJ
 159:lvgl/lvgl/src/core/lv_obj.c ****     LV_LOG_WARN("Object sanity checks are enabled via LV_USE_ASSERT_OBJ which makes LVGL much slowe
 160:lvgl/lvgl/src/core/lv_obj.c **** #endif
 161:lvgl/lvgl/src/core/lv_obj.c **** 
 162:lvgl/lvgl/src/core/lv_obj.c **** #if LV_USE_ASSERT_STYLE
 163:lvgl/lvgl/src/core/lv_obj.c ****     LV_LOG_WARN("Style sanity checks are enabled that uses more RAM")
 164:lvgl/lvgl/src/core/lv_obj.c **** #endif
 165:lvgl/lvgl/src/core/lv_obj.c **** 
 166:lvgl/lvgl/src/core/lv_obj.c **** #if LV_LOG_LEVEL == LV_LOG_LEVEL_TRACE
 167:lvgl/lvgl/src/core/lv_obj.c ****     LV_LOG_WARN("Log level is set the Trace which makes LVGL much slower")
 168:lvgl/lvgl/src/core/lv_obj.c **** #endif
 169:lvgl/lvgl/src/core/lv_obj.c **** 
 170:lvgl/lvgl/src/core/lv_obj.c ****     lv_extra_init();
 171:lvgl/lvgl/src/core/lv_obj.c **** 
 172:lvgl/lvgl/src/core/lv_obj.c ****     lv_initialized = true;
 173:lvgl/lvgl/src/core/lv_obj.c **** 
 174:lvgl/lvgl/src/core/lv_obj.c ****     LV_LOG_TRACE("finished");
 175:lvgl/lvgl/src/core/lv_obj.c **** }
 176:lvgl/lvgl/src/core/lv_obj.c **** 
 177:lvgl/lvgl/src/core/lv_obj.c **** #if LV_ENABLE_GC || !LV_MEM_CUSTOM
 178:lvgl/lvgl/src/core/lv_obj.c **** 
 179:lvgl/lvgl/src/core/lv_obj.c **** void lv_deinit(void)
 180:lvgl/lvgl/src/core/lv_obj.c **** {
 181:lvgl/lvgl/src/core/lv_obj.c ****     _lv_gc_clear_roots();
 182:lvgl/lvgl/src/core/lv_obj.c **** 
 183:lvgl/lvgl/src/core/lv_obj.c ****     lv_disp_set_default(NULL);
 184:lvgl/lvgl/src/core/lv_obj.c ****     lv_mem_deinit();
 185:lvgl/lvgl/src/core/lv_obj.c ****     lv_initialized = false;
 186:lvgl/lvgl/src/core/lv_obj.c **** 
 187:lvgl/lvgl/src/core/lv_obj.c ****     LV_LOG_INFO("lv_deinit done");
 188:lvgl/lvgl/src/core/lv_obj.c **** 
 189:lvgl/lvgl/src/core/lv_obj.c **** #if LV_USE_LOG
 190:lvgl/lvgl/src/core/lv_obj.c ****     lv_log_register_print_cb(NULL);
 191:lvgl/lvgl/src/core/lv_obj.c **** #endif
 192:lvgl/lvgl/src/core/lv_obj.c **** }
 193:lvgl/lvgl/src/core/lv_obj.c **** #endif
 194:lvgl/lvgl/src/core/lv_obj.c **** 
 195:lvgl/lvgl/src/core/lv_obj.c **** lv_obj_t * lv_obj_create(lv_obj_t * parent)
 196:lvgl/lvgl/src/core/lv_obj.c **** {
 197:lvgl/lvgl/src/core/lv_obj.c ****     LV_LOG_INFO("begin")
 198:lvgl/lvgl/src/core/lv_obj.c ****     lv_obj_t * obj = lv_obj_class_create_obj(MY_CLASS, parent);
 199:lvgl/lvgl/src/core/lv_obj.c ****     lv_obj_class_init_obj(obj);
 200:lvgl/lvgl/src/core/lv_obj.c ****     return obj;
 201:lvgl/lvgl/src/core/lv_obj.c **** }
ARM GAS  C:\Users\gx\AppData\Local\Temp\cccIVLs9.s 			page 5


 202:lvgl/lvgl/src/core/lv_obj.c **** 
 203:lvgl/lvgl/src/core/lv_obj.c **** /*=====================
 204:lvgl/lvgl/src/core/lv_obj.c ****  * Setter functions
 205:lvgl/lvgl/src/core/lv_obj.c ****  *====================*/
 206:lvgl/lvgl/src/core/lv_obj.c **** 
 207:lvgl/lvgl/src/core/lv_obj.c **** /*-----------------
 208:lvgl/lvgl/src/core/lv_obj.c ****  * Attribute set
 209:lvgl/lvgl/src/core/lv_obj.c ****  *----------------*/
 210:lvgl/lvgl/src/core/lv_obj.c **** 
 211:lvgl/lvgl/src/core/lv_obj.c **** void lv_obj_add_flag(lv_obj_t * obj, lv_obj_flag_t f)
 212:lvgl/lvgl/src/core/lv_obj.c **** {
 213:lvgl/lvgl/src/core/lv_obj.c ****     LV_ASSERT_OBJ(obj, MY_CLASS);
 214:lvgl/lvgl/src/core/lv_obj.c **** 
 215:lvgl/lvgl/src/core/lv_obj.c ****     bool was_on_layout = lv_obj_is_layout_positioned(obj);
 216:lvgl/lvgl/src/core/lv_obj.c **** 
 217:lvgl/lvgl/src/core/lv_obj.c ****     if(f & LV_OBJ_FLAG_HIDDEN) lv_obj_invalidate(obj);
 218:lvgl/lvgl/src/core/lv_obj.c **** 
 219:lvgl/lvgl/src/core/lv_obj.c ****     obj->flags |= f;
 220:lvgl/lvgl/src/core/lv_obj.c **** 
 221:lvgl/lvgl/src/core/lv_obj.c ****     if(f & LV_OBJ_FLAG_HIDDEN) {
 222:lvgl/lvgl/src/core/lv_obj.c ****         lv_obj_invalidate(obj);
 223:lvgl/lvgl/src/core/lv_obj.c ****     }
 224:lvgl/lvgl/src/core/lv_obj.c **** 
 225:lvgl/lvgl/src/core/lv_obj.c ****     if((was_on_layout != lv_obj_is_layout_positioned(obj)) || (f & (LV_OBJ_FLAG_LAYOUT_1 |  LV_OBJ_
 226:lvgl/lvgl/src/core/lv_obj.c ****         lv_obj_mark_layout_as_dirty(lv_obj_get_parent(obj));
 227:lvgl/lvgl/src/core/lv_obj.c ****     }
 228:lvgl/lvgl/src/core/lv_obj.c **** }
 229:lvgl/lvgl/src/core/lv_obj.c **** 
 230:lvgl/lvgl/src/core/lv_obj.c **** void lv_obj_clear_flag(lv_obj_t * obj, lv_obj_flag_t f)
 231:lvgl/lvgl/src/core/lv_obj.c **** {
 232:lvgl/lvgl/src/core/lv_obj.c ****     LV_ASSERT_OBJ(obj, MY_CLASS);
 233:lvgl/lvgl/src/core/lv_obj.c **** 
 234:lvgl/lvgl/src/core/lv_obj.c ****     bool was_on_layout = lv_obj_is_layout_positioned(obj);
 235:lvgl/lvgl/src/core/lv_obj.c **** 
 236:lvgl/lvgl/src/core/lv_obj.c ****     obj->flags &= (~f);
 237:lvgl/lvgl/src/core/lv_obj.c **** 
 238:lvgl/lvgl/src/core/lv_obj.c ****     if(f & LV_OBJ_FLAG_HIDDEN) {
 239:lvgl/lvgl/src/core/lv_obj.c ****         lv_obj_invalidate(obj);
 240:lvgl/lvgl/src/core/lv_obj.c ****         if(lv_obj_is_layout_positioned(obj)) {
 241:lvgl/lvgl/src/core/lv_obj.c ****             lv_obj_mark_layout_as_dirty(lv_obj_get_parent(obj));
 242:lvgl/lvgl/src/core/lv_obj.c ****         }
 243:lvgl/lvgl/src/core/lv_obj.c ****     }
 244:lvgl/lvgl/src/core/lv_obj.c **** 
 245:lvgl/lvgl/src/core/lv_obj.c ****     if((was_on_layout != lv_obj_is_layout_positioned(obj)) || (f & (LV_OBJ_FLAG_LAYOUT_1 |  LV_OBJ_
 246:lvgl/lvgl/src/core/lv_obj.c ****         lv_obj_mark_layout_as_dirty(lv_obj_get_parent(obj));
 247:lvgl/lvgl/src/core/lv_obj.c ****     }
 248:lvgl/lvgl/src/core/lv_obj.c **** }
 249:lvgl/lvgl/src/core/lv_obj.c **** 
 250:lvgl/lvgl/src/core/lv_obj.c **** void lv_obj_add_state(lv_obj_t * obj, lv_state_t state)
 251:lvgl/lvgl/src/core/lv_obj.c **** {
 252:lvgl/lvgl/src/core/lv_obj.c ****     LV_ASSERT_OBJ(obj, MY_CLASS);
 253:lvgl/lvgl/src/core/lv_obj.c **** 
 254:lvgl/lvgl/src/core/lv_obj.c ****     lv_state_t new_state = obj->state | state;
 255:lvgl/lvgl/src/core/lv_obj.c ****     if(obj->state != new_state) {
 256:lvgl/lvgl/src/core/lv_obj.c ****         lv_obj_set_state(obj, new_state);
 257:lvgl/lvgl/src/core/lv_obj.c ****     }
 258:lvgl/lvgl/src/core/lv_obj.c **** }
ARM GAS  C:\Users\gx\AppData\Local\Temp\cccIVLs9.s 			page 6


 259:lvgl/lvgl/src/core/lv_obj.c **** 
 260:lvgl/lvgl/src/core/lv_obj.c **** void lv_obj_clear_state(lv_obj_t * obj, lv_state_t state)
 261:lvgl/lvgl/src/core/lv_obj.c **** {
 262:lvgl/lvgl/src/core/lv_obj.c ****     LV_ASSERT_OBJ(obj, MY_CLASS);
 263:lvgl/lvgl/src/core/lv_obj.c **** 
 264:lvgl/lvgl/src/core/lv_obj.c ****     lv_state_t new_state = obj->state & (~state);
 265:lvgl/lvgl/src/core/lv_obj.c ****     if(obj->state != new_state) {
 266:lvgl/lvgl/src/core/lv_obj.c ****         lv_obj_set_state(obj, new_state);
 267:lvgl/lvgl/src/core/lv_obj.c ****     }
 268:lvgl/lvgl/src/core/lv_obj.c **** }
 269:lvgl/lvgl/src/core/lv_obj.c **** 
 270:lvgl/lvgl/src/core/lv_obj.c **** /*=======================
 271:lvgl/lvgl/src/core/lv_obj.c ****  * Getter functions
 272:lvgl/lvgl/src/core/lv_obj.c ****  *======================*/
 273:lvgl/lvgl/src/core/lv_obj.c **** 
 274:lvgl/lvgl/src/core/lv_obj.c **** bool lv_obj_has_flag(const lv_obj_t * obj, lv_obj_flag_t f)
 275:lvgl/lvgl/src/core/lv_obj.c **** {
 276:lvgl/lvgl/src/core/lv_obj.c ****     LV_ASSERT_OBJ(obj, MY_CLASS);
 277:lvgl/lvgl/src/core/lv_obj.c **** 
 278:lvgl/lvgl/src/core/lv_obj.c ****     return (obj->flags & f)  == f ? true : false;
 279:lvgl/lvgl/src/core/lv_obj.c **** }
 280:lvgl/lvgl/src/core/lv_obj.c **** 
 281:lvgl/lvgl/src/core/lv_obj.c **** bool lv_obj_has_flag_any(const lv_obj_t * obj, lv_obj_flag_t f)
 282:lvgl/lvgl/src/core/lv_obj.c **** {
 283:lvgl/lvgl/src/core/lv_obj.c ****     LV_ASSERT_OBJ(obj, MY_CLASS);
 284:lvgl/lvgl/src/core/lv_obj.c **** 
 285:lvgl/lvgl/src/core/lv_obj.c ****     return (obj->flags & f) ? true : false;
 286:lvgl/lvgl/src/core/lv_obj.c **** }
 287:lvgl/lvgl/src/core/lv_obj.c **** 
 288:lvgl/lvgl/src/core/lv_obj.c **** lv_state_t lv_obj_get_state(const lv_obj_t * obj)
 289:lvgl/lvgl/src/core/lv_obj.c **** {
 290:lvgl/lvgl/src/core/lv_obj.c ****     LV_ASSERT_OBJ(obj, MY_CLASS);
 291:lvgl/lvgl/src/core/lv_obj.c **** 
 292:lvgl/lvgl/src/core/lv_obj.c ****     return obj->state;
 293:lvgl/lvgl/src/core/lv_obj.c **** }
 294:lvgl/lvgl/src/core/lv_obj.c **** 
 295:lvgl/lvgl/src/core/lv_obj.c **** bool lv_obj_has_state(const lv_obj_t * obj, lv_state_t state)
 296:lvgl/lvgl/src/core/lv_obj.c **** {
 297:lvgl/lvgl/src/core/lv_obj.c ****     LV_ASSERT_OBJ(obj, MY_CLASS);
 298:lvgl/lvgl/src/core/lv_obj.c **** 
 299:lvgl/lvgl/src/core/lv_obj.c ****     return obj->state & state ? true : false;
 300:lvgl/lvgl/src/core/lv_obj.c **** }
 301:lvgl/lvgl/src/core/lv_obj.c **** 
 302:lvgl/lvgl/src/core/lv_obj.c **** void * lv_obj_get_group(const lv_obj_t * obj)
 303:lvgl/lvgl/src/core/lv_obj.c **** {
 304:lvgl/lvgl/src/core/lv_obj.c ****     LV_ASSERT_OBJ(obj, MY_CLASS);
 305:lvgl/lvgl/src/core/lv_obj.c **** 
 306:lvgl/lvgl/src/core/lv_obj.c ****     if(obj->spec_attr) return obj->spec_attr->group_p;
 307:lvgl/lvgl/src/core/lv_obj.c ****     else return NULL;
 308:lvgl/lvgl/src/core/lv_obj.c **** }
 309:lvgl/lvgl/src/core/lv_obj.c **** 
 310:lvgl/lvgl/src/core/lv_obj.c **** /*-------------------
 311:lvgl/lvgl/src/core/lv_obj.c ****  * OTHER FUNCTIONS
 312:lvgl/lvgl/src/core/lv_obj.c ****  *------------------*/
 313:lvgl/lvgl/src/core/lv_obj.c **** 
 314:lvgl/lvgl/src/core/lv_obj.c **** void lv_obj_allocate_spec_attr(lv_obj_t * obj)
 315:lvgl/lvgl/src/core/lv_obj.c **** {
ARM GAS  C:\Users\gx\AppData\Local\Temp\cccIVLs9.s 			page 7


 316:lvgl/lvgl/src/core/lv_obj.c ****     LV_ASSERT_OBJ(obj, MY_CLASS);
 317:lvgl/lvgl/src/core/lv_obj.c **** 
 318:lvgl/lvgl/src/core/lv_obj.c ****     if(obj->spec_attr == NULL) {
 319:lvgl/lvgl/src/core/lv_obj.c ****         static uint32_t x = 0;
 320:lvgl/lvgl/src/core/lv_obj.c ****         x++;
 321:lvgl/lvgl/src/core/lv_obj.c ****         obj->spec_attr = lv_mem_alloc(sizeof(_lv_obj_spec_attr_t));
 322:lvgl/lvgl/src/core/lv_obj.c ****         LV_ASSERT_MALLOC(obj->spec_attr);
 323:lvgl/lvgl/src/core/lv_obj.c ****         if(obj->spec_attr == NULL) return;
 324:lvgl/lvgl/src/core/lv_obj.c **** 
 325:lvgl/lvgl/src/core/lv_obj.c ****         lv_memset_00(obj->spec_attr, sizeof(_lv_obj_spec_attr_t));
 326:lvgl/lvgl/src/core/lv_obj.c **** 
 327:lvgl/lvgl/src/core/lv_obj.c ****         obj->spec_attr->scroll_dir = LV_DIR_ALL;
 328:lvgl/lvgl/src/core/lv_obj.c ****         obj->spec_attr->scrollbar_mode = LV_SCROLLBAR_MODE_AUTO;
 329:lvgl/lvgl/src/core/lv_obj.c ****     }
 330:lvgl/lvgl/src/core/lv_obj.c **** }
 331:lvgl/lvgl/src/core/lv_obj.c **** 
 332:lvgl/lvgl/src/core/lv_obj.c **** bool lv_obj_check_type(const lv_obj_t * obj, const lv_obj_class_t * class_p)
 333:lvgl/lvgl/src/core/lv_obj.c **** {
 334:lvgl/lvgl/src/core/lv_obj.c ****     if(obj == NULL) return false;
 335:lvgl/lvgl/src/core/lv_obj.c ****     return obj->class_p == class_p ? true : false;
 336:lvgl/lvgl/src/core/lv_obj.c **** }
 337:lvgl/lvgl/src/core/lv_obj.c **** 
 338:lvgl/lvgl/src/core/lv_obj.c **** bool lv_obj_has_class(const lv_obj_t * obj, const lv_obj_class_t * class_p)
 339:lvgl/lvgl/src/core/lv_obj.c **** {
 340:lvgl/lvgl/src/core/lv_obj.c ****     const lv_obj_class_t * obj_class = obj->class_p;
 341:lvgl/lvgl/src/core/lv_obj.c ****     while(obj_class) {
 342:lvgl/lvgl/src/core/lv_obj.c ****         if(obj_class == class_p) return true;
 343:lvgl/lvgl/src/core/lv_obj.c ****         obj_class = obj_class->base_class;
 344:lvgl/lvgl/src/core/lv_obj.c ****     }
 345:lvgl/lvgl/src/core/lv_obj.c **** 
 346:lvgl/lvgl/src/core/lv_obj.c ****     return false;
 347:lvgl/lvgl/src/core/lv_obj.c **** }
 348:lvgl/lvgl/src/core/lv_obj.c **** 
 349:lvgl/lvgl/src/core/lv_obj.c **** const lv_obj_class_t * lv_obj_get_class(const lv_obj_t * obj)
 350:lvgl/lvgl/src/core/lv_obj.c **** {
 351:lvgl/lvgl/src/core/lv_obj.c ****     return obj->class_p;
 352:lvgl/lvgl/src/core/lv_obj.c **** }
 353:lvgl/lvgl/src/core/lv_obj.c **** 
 354:lvgl/lvgl/src/core/lv_obj.c **** bool lv_obj_is_valid(const lv_obj_t * obj)
 355:lvgl/lvgl/src/core/lv_obj.c **** {
 356:lvgl/lvgl/src/core/lv_obj.c ****     lv_disp_t * disp = lv_disp_get_next(NULL);
 357:lvgl/lvgl/src/core/lv_obj.c ****     while(disp) {
 358:lvgl/lvgl/src/core/lv_obj.c ****         uint32_t i;
 359:lvgl/lvgl/src/core/lv_obj.c ****         for(i = 0; i < disp->screen_cnt; i++) {
 360:lvgl/lvgl/src/core/lv_obj.c ****             if(disp->screens[i] == obj) return true;
 361:lvgl/lvgl/src/core/lv_obj.c ****             bool found = obj_valid_child(disp->screens[i], obj);
 362:lvgl/lvgl/src/core/lv_obj.c ****             if(found) return true;
 363:lvgl/lvgl/src/core/lv_obj.c ****         }
 364:lvgl/lvgl/src/core/lv_obj.c **** 
 365:lvgl/lvgl/src/core/lv_obj.c ****         disp = lv_disp_get_next(disp);
 366:lvgl/lvgl/src/core/lv_obj.c ****     }
 367:lvgl/lvgl/src/core/lv_obj.c **** 
 368:lvgl/lvgl/src/core/lv_obj.c ****     return false;
 369:lvgl/lvgl/src/core/lv_obj.c **** }
 370:lvgl/lvgl/src/core/lv_obj.c **** 
 371:lvgl/lvgl/src/core/lv_obj.c **** /**********************
 372:lvgl/lvgl/src/core/lv_obj.c ****  *   STATIC FUNCTIONS
ARM GAS  C:\Users\gx\AppData\Local\Temp\cccIVLs9.s 			page 8


 373:lvgl/lvgl/src/core/lv_obj.c ****  **********************/
 374:lvgl/lvgl/src/core/lv_obj.c **** 
 375:lvgl/lvgl/src/core/lv_obj.c **** static void lv_obj_constructor(const lv_obj_class_t * class_p, lv_obj_t * obj)
 376:lvgl/lvgl/src/core/lv_obj.c **** {
 377:lvgl/lvgl/src/core/lv_obj.c ****     LV_UNUSED(class_p);
 378:lvgl/lvgl/src/core/lv_obj.c ****     LV_TRACE_OBJ_CREATE("begin");
 379:lvgl/lvgl/src/core/lv_obj.c **** 
 380:lvgl/lvgl/src/core/lv_obj.c ****     lv_obj_t * parent = obj->parent;
 381:lvgl/lvgl/src/core/lv_obj.c ****     if(parent) {
 382:lvgl/lvgl/src/core/lv_obj.c ****         lv_coord_t sl = lv_obj_get_scroll_left(parent);
 383:lvgl/lvgl/src/core/lv_obj.c ****         lv_coord_t st = lv_obj_get_scroll_top(parent);
 384:lvgl/lvgl/src/core/lv_obj.c **** 
 385:lvgl/lvgl/src/core/lv_obj.c ****         obj->coords.y1 = parent->coords.y1 + lv_obj_get_style_pad_top(parent, LV_PART_MAIN) - st;
 386:lvgl/lvgl/src/core/lv_obj.c ****         obj->coords.y2 = obj->coords.y1 - 1;
 387:lvgl/lvgl/src/core/lv_obj.c ****         obj->coords.x1  = parent->coords.x1 + lv_obj_get_style_pad_left(parent, LV_PART_MAIN) - sl;
 388:lvgl/lvgl/src/core/lv_obj.c ****         obj->coords.x2  = obj->coords.x1 - 1;
 389:lvgl/lvgl/src/core/lv_obj.c ****     }
 390:lvgl/lvgl/src/core/lv_obj.c **** 
 391:lvgl/lvgl/src/core/lv_obj.c ****     /*Set attributes*/
 392:lvgl/lvgl/src/core/lv_obj.c ****     obj->flags = LV_OBJ_FLAG_CLICKABLE;
 393:lvgl/lvgl/src/core/lv_obj.c ****     obj->flags |= LV_OBJ_FLAG_SNAPPABLE;
 394:lvgl/lvgl/src/core/lv_obj.c ****     if(parent) obj->flags |= LV_OBJ_FLAG_PRESS_LOCK;
 395:lvgl/lvgl/src/core/lv_obj.c ****     if(parent) obj->flags |= LV_OBJ_FLAG_SCROLL_CHAIN;
 396:lvgl/lvgl/src/core/lv_obj.c ****     obj->flags |= LV_OBJ_FLAG_CLICK_FOCUSABLE;
 397:lvgl/lvgl/src/core/lv_obj.c ****     obj->flags |= LV_OBJ_FLAG_SCROLLABLE;
 398:lvgl/lvgl/src/core/lv_obj.c ****     obj->flags |= LV_OBJ_FLAG_SCROLL_ELASTIC;
 399:lvgl/lvgl/src/core/lv_obj.c ****     obj->flags |= LV_OBJ_FLAG_SCROLL_MOMENTUM;
 400:lvgl/lvgl/src/core/lv_obj.c ****     if(parent) obj->flags |= LV_OBJ_FLAG_GESTURE_BUBBLE;
 401:lvgl/lvgl/src/core/lv_obj.c **** 
 402:lvgl/lvgl/src/core/lv_obj.c ****     LV_TRACE_OBJ_CREATE("finished");
 403:lvgl/lvgl/src/core/lv_obj.c **** }
 404:lvgl/lvgl/src/core/lv_obj.c **** 
 405:lvgl/lvgl/src/core/lv_obj.c **** static void lv_obj_destructor(const lv_obj_class_t * class_p, lv_obj_t * obj)
 406:lvgl/lvgl/src/core/lv_obj.c **** {
 407:lvgl/lvgl/src/core/lv_obj.c ****     LV_UNUSED(class_p);
 408:lvgl/lvgl/src/core/lv_obj.c **** 
 409:lvgl/lvgl/src/core/lv_obj.c ****     _lv_event_mark_deleted(obj);
 410:lvgl/lvgl/src/core/lv_obj.c **** 
 411:lvgl/lvgl/src/core/lv_obj.c ****     /*Remove all style*/
 412:lvgl/lvgl/src/core/lv_obj.c ****     lv_obj_enable_style_refresh(false); /*No need to refresh the style because the object will be d
 413:lvgl/lvgl/src/core/lv_obj.c ****     lv_obj_remove_style_all(obj);
 414:lvgl/lvgl/src/core/lv_obj.c ****     lv_obj_enable_style_refresh(true);
 415:lvgl/lvgl/src/core/lv_obj.c **** 
 416:lvgl/lvgl/src/core/lv_obj.c ****     /*Remove the animations from this object*/
 417:lvgl/lvgl/src/core/lv_obj.c ****     lv_anim_del(obj, NULL);
 418:lvgl/lvgl/src/core/lv_obj.c **** 
 419:lvgl/lvgl/src/core/lv_obj.c ****     /*Delete from the group*/
 420:lvgl/lvgl/src/core/lv_obj.c ****     lv_group_t * group = lv_obj_get_group(obj);
 421:lvgl/lvgl/src/core/lv_obj.c ****     if(group) lv_group_remove_obj(obj);
 422:lvgl/lvgl/src/core/lv_obj.c **** 
 423:lvgl/lvgl/src/core/lv_obj.c ****     if(obj->spec_attr) {
 424:lvgl/lvgl/src/core/lv_obj.c ****         if(obj->spec_attr->children) {
 425:lvgl/lvgl/src/core/lv_obj.c ****             lv_mem_free(obj->spec_attr->children);
 426:lvgl/lvgl/src/core/lv_obj.c ****             obj->spec_attr->children = NULL;
 427:lvgl/lvgl/src/core/lv_obj.c ****         }
 428:lvgl/lvgl/src/core/lv_obj.c ****         if(obj->spec_attr->event_dsc) {
 429:lvgl/lvgl/src/core/lv_obj.c ****             lv_mem_free(obj->spec_attr->event_dsc);
ARM GAS  C:\Users\gx\AppData\Local\Temp\cccIVLs9.s 			page 9


 430:lvgl/lvgl/src/core/lv_obj.c ****             obj->spec_attr->event_dsc = NULL;
 431:lvgl/lvgl/src/core/lv_obj.c ****         }
 432:lvgl/lvgl/src/core/lv_obj.c **** 
 433:lvgl/lvgl/src/core/lv_obj.c ****         lv_mem_free(obj->spec_attr);
 434:lvgl/lvgl/src/core/lv_obj.c ****         obj->spec_attr = NULL;
 435:lvgl/lvgl/src/core/lv_obj.c ****     }
 436:lvgl/lvgl/src/core/lv_obj.c **** }
 437:lvgl/lvgl/src/core/lv_obj.c **** 
 438:lvgl/lvgl/src/core/lv_obj.c **** static void lv_obj_draw(lv_event_t * e)
 439:lvgl/lvgl/src/core/lv_obj.c **** {
 440:lvgl/lvgl/src/core/lv_obj.c ****     lv_event_code_t code = lv_event_get_code(e);
 441:lvgl/lvgl/src/core/lv_obj.c ****     lv_obj_t * obj = lv_event_get_target(e);
 442:lvgl/lvgl/src/core/lv_obj.c ****     if(code == LV_EVENT_COVER_CHECK) {
 443:lvgl/lvgl/src/core/lv_obj.c ****         lv_cover_check_info_t * info = lv_event_get_param(e);
 444:lvgl/lvgl/src/core/lv_obj.c ****         if(info->res == LV_COVER_RES_MASKED) return;
 445:lvgl/lvgl/src/core/lv_obj.c ****         if(lv_obj_get_style_clip_corner(obj, LV_PART_MAIN)) {
 446:lvgl/lvgl/src/core/lv_obj.c ****             info->res = LV_COVER_RES_MASKED;
 447:lvgl/lvgl/src/core/lv_obj.c ****             return;
 448:lvgl/lvgl/src/core/lv_obj.c ****         }
 449:lvgl/lvgl/src/core/lv_obj.c **** 
 450:lvgl/lvgl/src/core/lv_obj.c ****         /*Most trivial test. Is the mask fully IN the object? If no it surely doesn't cover it*/
 451:lvgl/lvgl/src/core/lv_obj.c ****         lv_coord_t r = lv_obj_get_style_radius(obj, LV_PART_MAIN);
 452:lvgl/lvgl/src/core/lv_obj.c ****         lv_coord_t w = lv_obj_get_style_transform_width(obj, LV_PART_MAIN);
 453:lvgl/lvgl/src/core/lv_obj.c ****         lv_coord_t h = lv_obj_get_style_transform_height(obj, LV_PART_MAIN);
 454:lvgl/lvgl/src/core/lv_obj.c ****         lv_area_t coords;
 455:lvgl/lvgl/src/core/lv_obj.c ****         lv_area_copy(&coords, &obj->coords);
 456:lvgl/lvgl/src/core/lv_obj.c ****         coords.x1 -= w;
 457:lvgl/lvgl/src/core/lv_obj.c ****         coords.x2 += w;
 458:lvgl/lvgl/src/core/lv_obj.c ****         coords.y1 -= h;
 459:lvgl/lvgl/src/core/lv_obj.c ****         coords.y2 += h;
 460:lvgl/lvgl/src/core/lv_obj.c **** 
 461:lvgl/lvgl/src/core/lv_obj.c ****         if(_lv_area_is_in(info->area, &coords, r) == false) {
 462:lvgl/lvgl/src/core/lv_obj.c ****             info->res = LV_COVER_RES_NOT_COVER;
 463:lvgl/lvgl/src/core/lv_obj.c ****            return;
 464:lvgl/lvgl/src/core/lv_obj.c ****         }
 465:lvgl/lvgl/src/core/lv_obj.c **** 
 466:lvgl/lvgl/src/core/lv_obj.c ****         if(lv_obj_get_style_bg_opa(obj, LV_PART_MAIN) < LV_OPA_MAX) {
 467:lvgl/lvgl/src/core/lv_obj.c ****             info->res = LV_COVER_RES_NOT_COVER;
 468:lvgl/lvgl/src/core/lv_obj.c ****             return;
 469:lvgl/lvgl/src/core/lv_obj.c ****         }
 470:lvgl/lvgl/src/core/lv_obj.c **** 
 471:lvgl/lvgl/src/core/lv_obj.c **** #if LV_DRAW_COMPLEX
 472:lvgl/lvgl/src/core/lv_obj.c ****         if(lv_obj_get_style_blend_mode(obj, LV_PART_MAIN) != LV_BLEND_MODE_NORMAL) {
 473:lvgl/lvgl/src/core/lv_obj.c ****             info->res = LV_COVER_RES_NOT_COVER;
 474:lvgl/lvgl/src/core/lv_obj.c ****             return;
 475:lvgl/lvgl/src/core/lv_obj.c ****         }
 476:lvgl/lvgl/src/core/lv_obj.c **** #endif
 477:lvgl/lvgl/src/core/lv_obj.c ****         if(lv_obj_get_style_opa(obj, LV_PART_MAIN) < LV_OPA_MAX) {
 478:lvgl/lvgl/src/core/lv_obj.c ****             info->res = LV_COVER_RES_NOT_COVER;
 479:lvgl/lvgl/src/core/lv_obj.c ****             return;
 480:lvgl/lvgl/src/core/lv_obj.c ****         }
 481:lvgl/lvgl/src/core/lv_obj.c **** 
 482:lvgl/lvgl/src/core/lv_obj.c ****         info->res = LV_COVER_RES_COVER;
 483:lvgl/lvgl/src/core/lv_obj.c **** 
 484:lvgl/lvgl/src/core/lv_obj.c ****     }
 485:lvgl/lvgl/src/core/lv_obj.c ****     else if(code == LV_EVENT_DRAW_MAIN) {
 486:lvgl/lvgl/src/core/lv_obj.c ****         const lv_area_t * clip_area = lv_event_get_param(e);
ARM GAS  C:\Users\gx\AppData\Local\Temp\cccIVLs9.s 			page 10


 487:lvgl/lvgl/src/core/lv_obj.c ****         lv_draw_rect_dsc_t draw_dsc;
 488:lvgl/lvgl/src/core/lv_obj.c ****         lv_draw_rect_dsc_init(&draw_dsc);
 489:lvgl/lvgl/src/core/lv_obj.c ****         /*If the border is drawn later disable loading its properties*/
 490:lvgl/lvgl/src/core/lv_obj.c ****         if(lv_obj_get_style_border_post(obj, LV_PART_MAIN)) {
 491:lvgl/lvgl/src/core/lv_obj.c ****             draw_dsc.border_post = 1;
 492:lvgl/lvgl/src/core/lv_obj.c ****         }
 493:lvgl/lvgl/src/core/lv_obj.c **** 
 494:lvgl/lvgl/src/core/lv_obj.c ****         lv_obj_init_draw_rect_dsc(obj, LV_PART_MAIN, &draw_dsc);
 495:lvgl/lvgl/src/core/lv_obj.c **** 
 496:lvgl/lvgl/src/core/lv_obj.c ****         lv_coord_t w = lv_obj_get_style_transform_width(obj, LV_PART_MAIN);
 497:lvgl/lvgl/src/core/lv_obj.c ****         lv_coord_t h = lv_obj_get_style_transform_height(obj, LV_PART_MAIN);
 498:lvgl/lvgl/src/core/lv_obj.c ****         lv_area_t coords;
 499:lvgl/lvgl/src/core/lv_obj.c ****         lv_area_copy(&coords, &obj->coords);
 500:lvgl/lvgl/src/core/lv_obj.c ****         coords.x1 -= w;
 501:lvgl/lvgl/src/core/lv_obj.c ****         coords.x2 += w;
 502:lvgl/lvgl/src/core/lv_obj.c ****         coords.y1 -= h;
 503:lvgl/lvgl/src/core/lv_obj.c ****         coords.y2 += h;
 504:lvgl/lvgl/src/core/lv_obj.c **** 
 505:lvgl/lvgl/src/core/lv_obj.c **** 
 506:lvgl/lvgl/src/core/lv_obj.c ****         lv_obj_draw_part_dsc_t part_dsc;
 507:lvgl/lvgl/src/core/lv_obj.c ****         lv_obj_draw_dsc_init(&part_dsc, clip_area);
 508:lvgl/lvgl/src/core/lv_obj.c ****         part_dsc.class_p = MY_CLASS;
 509:lvgl/lvgl/src/core/lv_obj.c ****         part_dsc.type = LV_OBJ_DRAW_PART_RECTANGLE;
 510:lvgl/lvgl/src/core/lv_obj.c ****         part_dsc.rect_dsc = &draw_dsc;
 511:lvgl/lvgl/src/core/lv_obj.c ****         part_dsc.draw_area = &coords;
 512:lvgl/lvgl/src/core/lv_obj.c ****         part_dsc.part = LV_PART_MAIN;
 513:lvgl/lvgl/src/core/lv_obj.c ****         lv_event_send(obj, LV_EVENT_DRAW_PART_BEGIN, &part_dsc);
 514:lvgl/lvgl/src/core/lv_obj.c **** 
 515:lvgl/lvgl/src/core/lv_obj.c ****         lv_draw_rect(&coords, clip_area, &draw_dsc);
 516:lvgl/lvgl/src/core/lv_obj.c **** 
 517:lvgl/lvgl/src/core/lv_obj.c ****         lv_event_send(obj, LV_EVENT_DRAW_PART_END, &part_dsc);
 518:lvgl/lvgl/src/core/lv_obj.c **** 
 519:lvgl/lvgl/src/core/lv_obj.c **** #if LV_DRAW_COMPLEX
 520:lvgl/lvgl/src/core/lv_obj.c ****         if(lv_obj_get_style_clip_corner(obj, LV_PART_MAIN)) {
 521:lvgl/lvgl/src/core/lv_obj.c ****             /*If the radius is 0 the parent's coordinates will clip anyway*/
 522:lvgl/lvgl/src/core/lv_obj.c ****             lv_coord_t r = lv_obj_get_style_radius(obj, LV_PART_MAIN);
 523:lvgl/lvgl/src/core/lv_obj.c ****             if(r != 0) {
 524:lvgl/lvgl/src/core/lv_obj.c ****                 lv_draw_mask_radius_param_t * mp = lv_mem_buf_get(sizeof(lv_draw_mask_radius_param_
 525:lvgl/lvgl/src/core/lv_obj.c ****                 lv_draw_mask_radius_init(mp, &obj->coords, r, false);
 526:lvgl/lvgl/src/core/lv_obj.c ****                 /*Add the mask and use `obj+8` as custom id. Don't use `obj` directly because it mi
 527:lvgl/lvgl/src/core/lv_obj.c ****                 lv_draw_mask_add(mp, obj + 8);
 528:lvgl/lvgl/src/core/lv_obj.c ****             }
 529:lvgl/lvgl/src/core/lv_obj.c ****         }
 530:lvgl/lvgl/src/core/lv_obj.c **** #endif
 531:lvgl/lvgl/src/core/lv_obj.c ****     }
 532:lvgl/lvgl/src/core/lv_obj.c ****     else if(code == LV_EVENT_DRAW_POST) {
 533:lvgl/lvgl/src/core/lv_obj.c ****         const lv_area_t * clip_area = lv_event_get_param(e);
 534:lvgl/lvgl/src/core/lv_obj.c ****         draw_scrollbar(obj, clip_area);
 535:lvgl/lvgl/src/core/lv_obj.c **** 
 536:lvgl/lvgl/src/core/lv_obj.c **** #if LV_DRAW_COMPLEX
 537:lvgl/lvgl/src/core/lv_obj.c ****         if(lv_obj_get_style_clip_corner(obj, LV_PART_MAIN)) {
 538:lvgl/lvgl/src/core/lv_obj.c ****             lv_draw_mask_radius_param_t * param = lv_draw_mask_remove_custom(obj + 8);
 539:lvgl/lvgl/src/core/lv_obj.c ****             if(param) {
 540:lvgl/lvgl/src/core/lv_obj.c ****                 lv_draw_mask_free_param(param);
 541:lvgl/lvgl/src/core/lv_obj.c ****                 lv_mem_buf_release(param);
 542:lvgl/lvgl/src/core/lv_obj.c ****             }
 543:lvgl/lvgl/src/core/lv_obj.c ****         }
ARM GAS  C:\Users\gx\AppData\Local\Temp\cccIVLs9.s 			page 11


 544:lvgl/lvgl/src/core/lv_obj.c **** #endif
 545:lvgl/lvgl/src/core/lv_obj.c **** 
 546:lvgl/lvgl/src/core/lv_obj.c ****         /*If the border is drawn later disable loading other properties*/
 547:lvgl/lvgl/src/core/lv_obj.c ****         if(lv_obj_get_style_border_post(obj, LV_PART_MAIN)) {
 548:lvgl/lvgl/src/core/lv_obj.c ****             lv_draw_rect_dsc_t draw_dsc;
 549:lvgl/lvgl/src/core/lv_obj.c ****             lv_draw_rect_dsc_init(&draw_dsc);
 550:lvgl/lvgl/src/core/lv_obj.c ****             draw_dsc.bg_opa = LV_OPA_TRANSP;
 551:lvgl/lvgl/src/core/lv_obj.c ****             draw_dsc.outline_opa = LV_OPA_TRANSP;
 552:lvgl/lvgl/src/core/lv_obj.c ****             draw_dsc.shadow_opa = LV_OPA_TRANSP;
 553:lvgl/lvgl/src/core/lv_obj.c ****             lv_obj_init_draw_rect_dsc(obj, LV_PART_MAIN, &draw_dsc);
 554:lvgl/lvgl/src/core/lv_obj.c **** 
 555:lvgl/lvgl/src/core/lv_obj.c ****             lv_coord_t w = lv_obj_get_style_transform_width(obj, LV_PART_MAIN);
 556:lvgl/lvgl/src/core/lv_obj.c ****             lv_coord_t h = lv_obj_get_style_transform_height(obj, LV_PART_MAIN);
 557:lvgl/lvgl/src/core/lv_obj.c ****             lv_area_t coords;
 558:lvgl/lvgl/src/core/lv_obj.c ****             lv_area_copy(&coords, &obj->coords);
 559:lvgl/lvgl/src/core/lv_obj.c ****             coords.x1 -= w;
 560:lvgl/lvgl/src/core/lv_obj.c ****             coords.x2 += w;
 561:lvgl/lvgl/src/core/lv_obj.c ****             coords.y1 -= h;
 562:lvgl/lvgl/src/core/lv_obj.c ****             coords.y2 += h;
 563:lvgl/lvgl/src/core/lv_obj.c **** 
 564:lvgl/lvgl/src/core/lv_obj.c ****             lv_obj_draw_part_dsc_t part_dsc;
 565:lvgl/lvgl/src/core/lv_obj.c ****             lv_obj_draw_dsc_init(&part_dsc, clip_area);
 566:lvgl/lvgl/src/core/lv_obj.c ****             part_dsc.class_p = MY_CLASS;
 567:lvgl/lvgl/src/core/lv_obj.c ****             part_dsc.type = LV_OBJ_DRAW_PART_BORDER_POST;
 568:lvgl/lvgl/src/core/lv_obj.c ****             part_dsc.rect_dsc = &draw_dsc;
 569:lvgl/lvgl/src/core/lv_obj.c ****             part_dsc.draw_area = &coords;
 570:lvgl/lvgl/src/core/lv_obj.c ****             part_dsc.part = LV_PART_MAIN;
 571:lvgl/lvgl/src/core/lv_obj.c ****             lv_event_send(obj, LV_EVENT_DRAW_PART_BEGIN, &part_dsc);
 572:lvgl/lvgl/src/core/lv_obj.c **** 
 573:lvgl/lvgl/src/core/lv_obj.c ****             lv_draw_rect(&coords, clip_area, &draw_dsc);
 574:lvgl/lvgl/src/core/lv_obj.c ****             lv_event_send(obj, LV_EVENT_DRAW_PART_END, &part_dsc);
 575:lvgl/lvgl/src/core/lv_obj.c ****         }
 576:lvgl/lvgl/src/core/lv_obj.c ****     }
 577:lvgl/lvgl/src/core/lv_obj.c **** }
 578:lvgl/lvgl/src/core/lv_obj.c **** 
 579:lvgl/lvgl/src/core/lv_obj.c **** static void draw_scrollbar(lv_obj_t * obj, const lv_area_t * clip_area)
 580:lvgl/lvgl/src/core/lv_obj.c **** {
 581:lvgl/lvgl/src/core/lv_obj.c **** 
 582:lvgl/lvgl/src/core/lv_obj.c ****     lv_area_t hor_area;
 583:lvgl/lvgl/src/core/lv_obj.c ****     lv_area_t ver_area;
 584:lvgl/lvgl/src/core/lv_obj.c ****     lv_obj_get_scrollbar_area(obj, &hor_area, &ver_area);
 585:lvgl/lvgl/src/core/lv_obj.c **** 
 586:lvgl/lvgl/src/core/lv_obj.c ****     if(lv_area_get_size(&hor_area) <= 0 && lv_area_get_size(&ver_area) <= 0) return;
 587:lvgl/lvgl/src/core/lv_obj.c **** 
 588:lvgl/lvgl/src/core/lv_obj.c ****     lv_draw_rect_dsc_t draw_dsc;
 589:lvgl/lvgl/src/core/lv_obj.c ****     lv_res_t sb_res = scrollbar_init_draw_dsc(obj, &draw_dsc);
 590:lvgl/lvgl/src/core/lv_obj.c ****     if(sb_res != LV_RES_OK) return;
 591:lvgl/lvgl/src/core/lv_obj.c **** 
 592:lvgl/lvgl/src/core/lv_obj.c ****     lv_obj_draw_part_dsc_t part_dsc;
 593:lvgl/lvgl/src/core/lv_obj.c ****     lv_obj_draw_dsc_init(&part_dsc, clip_area);
 594:lvgl/lvgl/src/core/lv_obj.c ****     part_dsc.class_p = MY_CLASS;
 595:lvgl/lvgl/src/core/lv_obj.c ****     part_dsc.type = LV_OBJ_DRAW_PART_SCROLLBAR;
 596:lvgl/lvgl/src/core/lv_obj.c ****     part_dsc.rect_dsc = &draw_dsc;
 597:lvgl/lvgl/src/core/lv_obj.c ****     part_dsc.part = LV_PART_SCROLLBAR;
 598:lvgl/lvgl/src/core/lv_obj.c **** 
 599:lvgl/lvgl/src/core/lv_obj.c ****     if(lv_area_get_size(&hor_area) > 0) {
 600:lvgl/lvgl/src/core/lv_obj.c ****         part_dsc.draw_area = &hor_area;
ARM GAS  C:\Users\gx\AppData\Local\Temp\cccIVLs9.s 			page 12


 601:lvgl/lvgl/src/core/lv_obj.c ****         lv_event_send(obj, LV_EVENT_DRAW_PART_BEGIN, &part_dsc);
 602:lvgl/lvgl/src/core/lv_obj.c ****         lv_draw_rect(&hor_area, clip_area, &draw_dsc);
 603:lvgl/lvgl/src/core/lv_obj.c ****         lv_event_send(obj, LV_EVENT_DRAW_PART_END, &part_dsc);
 604:lvgl/lvgl/src/core/lv_obj.c ****     }
 605:lvgl/lvgl/src/core/lv_obj.c ****     if(lv_area_get_size(&ver_area) > 0) {
 606:lvgl/lvgl/src/core/lv_obj.c ****         part_dsc.draw_area = &ver_area;
 607:lvgl/lvgl/src/core/lv_obj.c ****         lv_event_send(obj, LV_EVENT_DRAW_PART_BEGIN, &part_dsc);
 608:lvgl/lvgl/src/core/lv_obj.c ****         lv_draw_rect(&ver_area, clip_area, &draw_dsc);
 609:lvgl/lvgl/src/core/lv_obj.c ****         lv_event_send(obj, LV_EVENT_DRAW_PART_END, &part_dsc);
 610:lvgl/lvgl/src/core/lv_obj.c ****     }
 611:lvgl/lvgl/src/core/lv_obj.c **** }
 612:lvgl/lvgl/src/core/lv_obj.c **** 
 613:lvgl/lvgl/src/core/lv_obj.c **** /**
 614:lvgl/lvgl/src/core/lv_obj.c ****  * Initialize the draw descriptor for the scrollbar
 615:lvgl/lvgl/src/core/lv_obj.c ****  * @param obj pointer to an object
 616:lvgl/lvgl/src/core/lv_obj.c ****  * @param dsc the draw descriptor to initialize
 617:lvgl/lvgl/src/core/lv_obj.c ****  * @return LV_RES_OK: the scrollbar is visible; LV_RES_INV: the scrollbar is not visible
 618:lvgl/lvgl/src/core/lv_obj.c ****  */
 619:lvgl/lvgl/src/core/lv_obj.c **** static lv_res_t scrollbar_init_draw_dsc(lv_obj_t * obj, lv_draw_rect_dsc_t * dsc)
 620:lvgl/lvgl/src/core/lv_obj.c **** {
 621:lvgl/lvgl/src/core/lv_obj.c ****     lv_draw_rect_dsc_init(dsc);
 622:lvgl/lvgl/src/core/lv_obj.c ****     dsc->bg_opa = lv_obj_get_style_bg_opa(obj, LV_PART_SCROLLBAR);
 623:lvgl/lvgl/src/core/lv_obj.c ****     if(dsc->bg_opa > LV_OPA_MIN) {
 624:lvgl/lvgl/src/core/lv_obj.c ****         dsc->bg_color = lv_obj_get_style_bg_color(obj, LV_PART_SCROLLBAR);
 625:lvgl/lvgl/src/core/lv_obj.c ****     }
 626:lvgl/lvgl/src/core/lv_obj.c **** 
 627:lvgl/lvgl/src/core/lv_obj.c ****     dsc->border_opa = lv_obj_get_style_border_opa(obj, LV_PART_SCROLLBAR);
 628:lvgl/lvgl/src/core/lv_obj.c ****     if(dsc->border_opa > LV_OPA_MIN) {
 629:lvgl/lvgl/src/core/lv_obj.c ****         dsc->border_width = lv_obj_get_style_border_width(obj, LV_PART_SCROLLBAR);
 630:lvgl/lvgl/src/core/lv_obj.c ****         if(dsc->border_width > 0) {
 631:lvgl/lvgl/src/core/lv_obj.c ****             dsc->border_color = lv_obj_get_style_border_color(obj, LV_PART_SCROLLBAR);
 632:lvgl/lvgl/src/core/lv_obj.c ****         } else {
 633:lvgl/lvgl/src/core/lv_obj.c ****             dsc->border_opa = LV_OPA_TRANSP;
 634:lvgl/lvgl/src/core/lv_obj.c ****         }
 635:lvgl/lvgl/src/core/lv_obj.c ****     }
 636:lvgl/lvgl/src/core/lv_obj.c **** 
 637:lvgl/lvgl/src/core/lv_obj.c **** #if LV_DRAW_COMPLEX
 638:lvgl/lvgl/src/core/lv_obj.c ****     dsc->shadow_opa = lv_obj_get_style_shadow_opa(obj, LV_PART_SCROLLBAR);
 639:lvgl/lvgl/src/core/lv_obj.c ****     if(dsc->shadow_opa > LV_OPA_MIN) {
 640:lvgl/lvgl/src/core/lv_obj.c ****         dsc->shadow_width = lv_obj_get_style_shadow_width(obj, LV_PART_SCROLLBAR);
 641:lvgl/lvgl/src/core/lv_obj.c ****         if(dsc->shadow_width > 0) {
 642:lvgl/lvgl/src/core/lv_obj.c ****             dsc->shadow_spread = lv_obj_get_style_shadow_spread(obj, LV_PART_SCROLLBAR);
 643:lvgl/lvgl/src/core/lv_obj.c ****             dsc->shadow_color = lv_obj_get_style_shadow_color(obj, LV_PART_SCROLLBAR);
 644:lvgl/lvgl/src/core/lv_obj.c ****         } else {
 645:lvgl/lvgl/src/core/lv_obj.c ****             dsc->shadow_opa = LV_OPA_TRANSP;
 646:lvgl/lvgl/src/core/lv_obj.c ****         }
 647:lvgl/lvgl/src/core/lv_obj.c ****     }
 648:lvgl/lvgl/src/core/lv_obj.c **** 
 649:lvgl/lvgl/src/core/lv_obj.c ****     lv_opa_t opa = lv_obj_get_style_opa(obj, LV_PART_SCROLLBAR);
 650:lvgl/lvgl/src/core/lv_obj.c ****     if(opa < LV_OPA_MAX) {
 651:lvgl/lvgl/src/core/lv_obj.c ****         dsc->bg_opa = (dsc->bg_opa * opa) >> 8;
 652:lvgl/lvgl/src/core/lv_obj.c ****         dsc->border_opa = (dsc->bg_opa * opa) >> 8;
 653:lvgl/lvgl/src/core/lv_obj.c ****         dsc->shadow_opa = (dsc->bg_opa * opa) >> 8;
 654:lvgl/lvgl/src/core/lv_obj.c ****     }
 655:lvgl/lvgl/src/core/lv_obj.c **** 
 656:lvgl/lvgl/src/core/lv_obj.c ****     if(dsc->bg_opa != LV_OPA_TRANSP || dsc->border_opa != LV_OPA_TRANSP || dsc->shadow_opa != LV_OP
 657:lvgl/lvgl/src/core/lv_obj.c ****         dsc->radius = lv_obj_get_style_radius(obj, LV_PART_SCROLLBAR);
ARM GAS  C:\Users\gx\AppData\Local\Temp\cccIVLs9.s 			page 13


 658:lvgl/lvgl/src/core/lv_obj.c ****         return LV_RES_OK;
 659:lvgl/lvgl/src/core/lv_obj.c ****     } else {
 660:lvgl/lvgl/src/core/lv_obj.c ****         return LV_RES_INV;
 661:lvgl/lvgl/src/core/lv_obj.c ****     }
 662:lvgl/lvgl/src/core/lv_obj.c **** #else
 663:lvgl/lvgl/src/core/lv_obj.c ****     if(dsc->bg_opa != LV_OPA_TRANSP || dsc->border_opa != LV_OPA_TRANSP) return LV_RES_OK;
 664:lvgl/lvgl/src/core/lv_obj.c ****     else return LV_RES_INV;
 665:lvgl/lvgl/src/core/lv_obj.c **** #endif
 666:lvgl/lvgl/src/core/lv_obj.c **** }
 667:lvgl/lvgl/src/core/lv_obj.c **** 
 668:lvgl/lvgl/src/core/lv_obj.c **** static void lv_obj_event(const lv_obj_class_t * class_p, lv_event_t * e)
 669:lvgl/lvgl/src/core/lv_obj.c **** {
 670:lvgl/lvgl/src/core/lv_obj.c ****     LV_UNUSED(class_p);
 671:lvgl/lvgl/src/core/lv_obj.c **** 
 672:lvgl/lvgl/src/core/lv_obj.c ****     lv_event_code_t code = lv_event_get_code(e);
 673:lvgl/lvgl/src/core/lv_obj.c ****     lv_obj_t * obj = lv_event_get_target(e);
 674:lvgl/lvgl/src/core/lv_obj.c ****     if(code == LV_EVENT_PRESSED) {
 675:lvgl/lvgl/src/core/lv_obj.c ****         lv_obj_add_state(obj, LV_STATE_PRESSED);
 676:lvgl/lvgl/src/core/lv_obj.c ****     }
 677:lvgl/lvgl/src/core/lv_obj.c ****     else if(code == LV_EVENT_RELEASED) {
 678:lvgl/lvgl/src/core/lv_obj.c ****         lv_obj_clear_state(obj, LV_STATE_PRESSED);
 679:lvgl/lvgl/src/core/lv_obj.c ****         void * param = lv_event_get_param(e);
 680:lvgl/lvgl/src/core/lv_obj.c ****         /*Go the checked state if enabled*/
 681:lvgl/lvgl/src/core/lv_obj.c ****         if(lv_indev_get_scroll_obj(param) == NULL && lv_obj_has_flag(obj, LV_OBJ_FLAG_CHECKABLE)) {
 682:lvgl/lvgl/src/core/lv_obj.c ****             if(!(lv_obj_get_state(obj) & LV_STATE_CHECKED)) lv_obj_add_state(obj, LV_STATE_CHECKED)
 683:lvgl/lvgl/src/core/lv_obj.c ****             else lv_obj_clear_state(obj, LV_STATE_CHECKED);
 684:lvgl/lvgl/src/core/lv_obj.c **** 
 685:lvgl/lvgl/src/core/lv_obj.c ****             lv_res_t res = lv_event_send(obj, LV_EVENT_VALUE_CHANGED, NULL);
 686:lvgl/lvgl/src/core/lv_obj.c ****             if(res != LV_RES_OK) return;
 687:lvgl/lvgl/src/core/lv_obj.c ****         }
 688:lvgl/lvgl/src/core/lv_obj.c ****     }
 689:lvgl/lvgl/src/core/lv_obj.c ****     else if(code == LV_EVENT_PRESS_LOST) {
 690:lvgl/lvgl/src/core/lv_obj.c ****         lv_obj_clear_state(obj, LV_STATE_PRESSED);
 691:lvgl/lvgl/src/core/lv_obj.c ****     }
 692:lvgl/lvgl/src/core/lv_obj.c ****     else if(code == LV_EVENT_STYLE_CHANGED) {
 693:lvgl/lvgl/src/core/lv_obj.c ****         uint32_t child_cnt = lv_obj_get_child_cnt(obj);
 694:lvgl/lvgl/src/core/lv_obj.c ****         for(uint32_t i = 0; i < child_cnt; i++) {
 695:lvgl/lvgl/src/core/lv_obj.c ****             lv_obj_t * child = obj->spec_attr->children[i];
 696:lvgl/lvgl/src/core/lv_obj.c ****             lv_obj_mark_layout_as_dirty(child);
 697:lvgl/lvgl/src/core/lv_obj.c ****         }
 698:lvgl/lvgl/src/core/lv_obj.c ****     }
 699:lvgl/lvgl/src/core/lv_obj.c ****     else if(code == LV_EVENT_KEY) {
 700:lvgl/lvgl/src/core/lv_obj.c ****         if(lv_obj_has_flag(obj, LV_OBJ_FLAG_CHECKABLE)) {
 701:lvgl/lvgl/src/core/lv_obj.c ****             char c = *((char *)lv_event_get_param(e));
 702:lvgl/lvgl/src/core/lv_obj.c ****             if(c == LV_KEY_RIGHT || c == LV_KEY_UP) {
 703:lvgl/lvgl/src/core/lv_obj.c ****                 lv_obj_add_state(obj, LV_STATE_CHECKED);
 704:lvgl/lvgl/src/core/lv_obj.c ****             }
 705:lvgl/lvgl/src/core/lv_obj.c ****             else if(c == LV_KEY_LEFT || c == LV_KEY_DOWN) {
 706:lvgl/lvgl/src/core/lv_obj.c ****                 lv_obj_clear_state(obj, LV_STATE_CHECKED);
 707:lvgl/lvgl/src/core/lv_obj.c ****             }
 708:lvgl/lvgl/src/core/lv_obj.c **** 
 709:lvgl/lvgl/src/core/lv_obj.c ****             /*With Enter LV_EVENT_RELEASED will send VALUE_CHANGE event*/
 710:lvgl/lvgl/src/core/lv_obj.c ****             if(c != LV_KEY_ENTER) {
 711:lvgl/lvgl/src/core/lv_obj.c ****                 lv_res_t res = lv_event_send(obj, LV_EVENT_VALUE_CHANGED, NULL);
 712:lvgl/lvgl/src/core/lv_obj.c ****                 if(res != LV_RES_OK) return;
 713:lvgl/lvgl/src/core/lv_obj.c ****             }
 714:lvgl/lvgl/src/core/lv_obj.c ****         }
ARM GAS  C:\Users\gx\AppData\Local\Temp\cccIVLs9.s 			page 14


 715:lvgl/lvgl/src/core/lv_obj.c ****         else if(lv_obj_has_flag(obj, LV_OBJ_FLAG_SCROLLABLE) && !lv_obj_is_editable(obj)) {
 716:lvgl/lvgl/src/core/lv_obj.c ****             /*scroll by keypad or encoder*/
 717:lvgl/lvgl/src/core/lv_obj.c ****             lv_anim_enable_t anim_enable = LV_ANIM_OFF;
 718:lvgl/lvgl/src/core/lv_obj.c ****             lv_coord_t sl = lv_obj_get_scroll_left(obj);
 719:lvgl/lvgl/src/core/lv_obj.c ****             lv_coord_t sr = lv_obj_get_scroll_right(obj);
 720:lvgl/lvgl/src/core/lv_obj.c ****             char c = *((char *)lv_event_get_param(e));
 721:lvgl/lvgl/src/core/lv_obj.c ****             if(c == LV_KEY_DOWN) {
 722:lvgl/lvgl/src/core/lv_obj.c ****                 /*use scroll_to_x/y functions to enforce scroll limits*/
 723:lvgl/lvgl/src/core/lv_obj.c ****                 lv_obj_scroll_to_y(obj, lv_obj_get_scroll_y(obj) + lv_obj_get_height(obj) / 4, anim
 724:lvgl/lvgl/src/core/lv_obj.c ****             }
 725:lvgl/lvgl/src/core/lv_obj.c ****             else if(c == LV_KEY_UP) {
 726:lvgl/lvgl/src/core/lv_obj.c ****                 lv_obj_scroll_to_y(obj, lv_obj_get_scroll_y(obj) - lv_obj_get_height(obj) / 4, anim
 727:lvgl/lvgl/src/core/lv_obj.c ****             }
 728:lvgl/lvgl/src/core/lv_obj.c ****             else if(c == LV_KEY_RIGHT) {
 729:lvgl/lvgl/src/core/lv_obj.c ****                 /*If the object can't be scrolled horizontally then scroll it vertically*/
 730:lvgl/lvgl/src/core/lv_obj.c ****                 if(!((lv_obj_get_scroll_dir(obj) & LV_DIR_HOR) && (sl > 0 || sr > 0)))
 731:lvgl/lvgl/src/core/lv_obj.c ****                     lv_obj_scroll_to_y(obj, lv_obj_get_scroll_y(obj) + lv_obj_get_height(obj) / 4, 
 732:lvgl/lvgl/src/core/lv_obj.c ****                 else
 733:lvgl/lvgl/src/core/lv_obj.c ****                     lv_obj_scroll_to_x(obj, lv_obj_get_scroll_x(obj) + lv_obj_get_width(obj) / 4, a
 734:lvgl/lvgl/src/core/lv_obj.c ****             }
 735:lvgl/lvgl/src/core/lv_obj.c ****             else if(c == LV_KEY_LEFT) {
 736:lvgl/lvgl/src/core/lv_obj.c ****                 /*If the object can't be scrolled horizontally then scroll it vertically*/
 737:lvgl/lvgl/src/core/lv_obj.c ****                 if(!((lv_obj_get_scroll_dir(obj) & LV_DIR_HOR) && (sl > 0 || sr > 0)))
 738:lvgl/lvgl/src/core/lv_obj.c ****                     lv_obj_scroll_to_y(obj, lv_obj_get_scroll_y(obj) - lv_obj_get_height(obj) / 4, 
 739:lvgl/lvgl/src/core/lv_obj.c ****                 else
 740:lvgl/lvgl/src/core/lv_obj.c ****                     lv_obj_scroll_to_x(obj, lv_obj_get_scroll_x(obj) - lv_obj_get_width(obj) / 4, a
 741:lvgl/lvgl/src/core/lv_obj.c ****             }
 742:lvgl/lvgl/src/core/lv_obj.c ****         }
 743:lvgl/lvgl/src/core/lv_obj.c ****     }
 744:lvgl/lvgl/src/core/lv_obj.c ****     else if(code == LV_EVENT_FOCUSED) {
 745:lvgl/lvgl/src/core/lv_obj.c ****         if(lv_obj_has_flag(obj, LV_OBJ_FLAG_SCROLL_ON_FOCUS)) {
 746:lvgl/lvgl/src/core/lv_obj.c ****             lv_obj_scroll_to_view_recursive(obj, LV_ANIM_ON);
 747:lvgl/lvgl/src/core/lv_obj.c ****         }
 748:lvgl/lvgl/src/core/lv_obj.c **** 
 749:lvgl/lvgl/src/core/lv_obj.c ****         bool editing = false;
 750:lvgl/lvgl/src/core/lv_obj.c ****         editing = lv_group_get_editing(lv_obj_get_group(obj));
 751:lvgl/lvgl/src/core/lv_obj.c ****         lv_state_t state = LV_STATE_FOCUSED;
 752:lvgl/lvgl/src/core/lv_obj.c **** 
 753:lvgl/lvgl/src/core/lv_obj.c ****         /* Use the indev for then indev handler.
 754:lvgl/lvgl/src/core/lv_obj.c ****          * But if the obj was focused manually it returns NULL so try to
 755:lvgl/lvgl/src/core/lv_obj.c ****          * use the indev from the event*/
 756:lvgl/lvgl/src/core/lv_obj.c ****         lv_indev_t * indev = lv_indev_get_act();
 757:lvgl/lvgl/src/core/lv_obj.c ****         if(indev == NULL) indev = lv_event_get_indev(e);
 758:lvgl/lvgl/src/core/lv_obj.c **** 
 759:lvgl/lvgl/src/core/lv_obj.c ****         lv_indev_type_t indev_type = lv_indev_get_type(indev);
 760:lvgl/lvgl/src/core/lv_obj.c ****         if(indev_type == LV_INDEV_TYPE_KEYPAD || indev_type == LV_INDEV_TYPE_ENCODER) state |= LV_S
 761:lvgl/lvgl/src/core/lv_obj.c ****         if(editing) {
 762:lvgl/lvgl/src/core/lv_obj.c ****             state |= LV_STATE_EDITED;
 763:lvgl/lvgl/src/core/lv_obj.c ****             lv_obj_add_state(obj, state);
 764:lvgl/lvgl/src/core/lv_obj.c ****         }
 765:lvgl/lvgl/src/core/lv_obj.c ****         else {
 766:lvgl/lvgl/src/core/lv_obj.c ****             lv_obj_add_state(obj, state);
 767:lvgl/lvgl/src/core/lv_obj.c ****             lv_obj_clear_state(obj, LV_STATE_EDITED);
 768:lvgl/lvgl/src/core/lv_obj.c ****         }
 769:lvgl/lvgl/src/core/lv_obj.c ****     }
 770:lvgl/lvgl/src/core/lv_obj.c ****     else if(code == LV_EVENT_SCROLL_BEGIN) {
 771:lvgl/lvgl/src/core/lv_obj.c ****         lv_obj_add_state(obj, LV_STATE_SCROLLED);
ARM GAS  C:\Users\gx\AppData\Local\Temp\cccIVLs9.s 			page 15


 772:lvgl/lvgl/src/core/lv_obj.c ****     }
 773:lvgl/lvgl/src/core/lv_obj.c ****     else if(code == LV_EVENT_SCROLL_END) {
 774:lvgl/lvgl/src/core/lv_obj.c ****         lv_obj_clear_state(obj, LV_STATE_SCROLLED);
 775:lvgl/lvgl/src/core/lv_obj.c ****     }
 776:lvgl/lvgl/src/core/lv_obj.c ****     else if(code == LV_EVENT_DEFOCUSED) {
 777:lvgl/lvgl/src/core/lv_obj.c ****         lv_obj_clear_state(obj, LV_STATE_FOCUSED | LV_STATE_EDITED | LV_STATE_FOCUS_KEY);
 778:lvgl/lvgl/src/core/lv_obj.c ****     }
 779:lvgl/lvgl/src/core/lv_obj.c ****     else if(code == LV_EVENT_SIZE_CHANGED) {
 780:lvgl/lvgl/src/core/lv_obj.c ****         lv_coord_t align = lv_obj_get_style_align(obj, LV_PART_MAIN);
 781:lvgl/lvgl/src/core/lv_obj.c ****         uint16_t layout = lv_obj_get_style_layout(obj, LV_PART_MAIN);
 782:lvgl/lvgl/src/core/lv_obj.c ****         if(layout || align) {
 783:lvgl/lvgl/src/core/lv_obj.c ****             lv_obj_mark_layout_as_dirty(obj);
 784:lvgl/lvgl/src/core/lv_obj.c ****         }
 785:lvgl/lvgl/src/core/lv_obj.c **** 
 786:lvgl/lvgl/src/core/lv_obj.c ****         uint32_t i;
 787:lvgl/lvgl/src/core/lv_obj.c ****         uint32_t child_cnt = lv_obj_get_child_cnt(obj);
 788:lvgl/lvgl/src/core/lv_obj.c ****         for(i = 0; i < child_cnt; i++) {
 789:lvgl/lvgl/src/core/lv_obj.c ****             lv_obj_t * child = obj->spec_attr->children[i];
 790:lvgl/lvgl/src/core/lv_obj.c ****             lv_obj_mark_layout_as_dirty(child);
 791:lvgl/lvgl/src/core/lv_obj.c ****         }
 792:lvgl/lvgl/src/core/lv_obj.c ****     }
 793:lvgl/lvgl/src/core/lv_obj.c ****     else if(code == LV_EVENT_CHILD_CHANGED) {
 794:lvgl/lvgl/src/core/lv_obj.c ****         lv_coord_t w = lv_obj_get_style_width(obj, LV_PART_MAIN);
 795:lvgl/lvgl/src/core/lv_obj.c ****         lv_coord_t h = lv_obj_get_style_height(obj, LV_PART_MAIN);
 796:lvgl/lvgl/src/core/lv_obj.c ****         lv_coord_t align = lv_obj_get_style_align(obj, LV_PART_MAIN);
 797:lvgl/lvgl/src/core/lv_obj.c ****         uint16_t layout = lv_obj_get_style_layout(obj, LV_PART_MAIN);
 798:lvgl/lvgl/src/core/lv_obj.c ****         if(layout || align || w == LV_SIZE_CONTENT || h == LV_SIZE_CONTENT) {
 799:lvgl/lvgl/src/core/lv_obj.c ****             lv_obj_mark_layout_as_dirty(obj);
 800:lvgl/lvgl/src/core/lv_obj.c ****         }
 801:lvgl/lvgl/src/core/lv_obj.c ****     }
 802:lvgl/lvgl/src/core/lv_obj.c ****     else if(code == LV_EVENT_SCROLL_END) {
 803:lvgl/lvgl/src/core/lv_obj.c ****         if(lv_obj_get_scrollbar_mode(obj) == LV_SCROLLBAR_MODE_ACTIVE) {
 804:lvgl/lvgl/src/core/lv_obj.c ****             lv_obj_invalidate(obj);
 805:lvgl/lvgl/src/core/lv_obj.c ****         }
 806:lvgl/lvgl/src/core/lv_obj.c ****     }
 807:lvgl/lvgl/src/core/lv_obj.c ****     else if(code == LV_EVENT_REFR_EXT_DRAW_SIZE) {
 808:lvgl/lvgl/src/core/lv_obj.c ****         lv_coord_t * s = lv_event_get_param(e);
 809:lvgl/lvgl/src/core/lv_obj.c ****         lv_coord_t d = lv_obj_calculate_ext_draw_size(obj, LV_PART_MAIN);
 810:lvgl/lvgl/src/core/lv_obj.c ****         *s = LV_MAX(*s, d);
 811:lvgl/lvgl/src/core/lv_obj.c ****     }
 812:lvgl/lvgl/src/core/lv_obj.c ****     else if(code == LV_EVENT_DRAW_MAIN || code == LV_EVENT_DRAW_POST || code == LV_EVENT_COVER_CHEC
 813:lvgl/lvgl/src/core/lv_obj.c ****         lv_obj_draw(e);
 814:lvgl/lvgl/src/core/lv_obj.c ****     }
 815:lvgl/lvgl/src/core/lv_obj.c **** }
 816:lvgl/lvgl/src/core/lv_obj.c **** 
 817:lvgl/lvgl/src/core/lv_obj.c **** /**
 818:lvgl/lvgl/src/core/lv_obj.c ****  * Set the state (fully overwrite) of an object.
 819:lvgl/lvgl/src/core/lv_obj.c ****  * If specified in the styles, transition animations will be started from the previous state to the
 820:lvgl/lvgl/src/core/lv_obj.c ****  * @param obj       pointer to an object
 821:lvgl/lvgl/src/core/lv_obj.c ****  * @param state     the new state
 822:lvgl/lvgl/src/core/lv_obj.c ****  */
 823:lvgl/lvgl/src/core/lv_obj.c **** static void lv_obj_set_state(lv_obj_t * obj, lv_state_t new_state)
 824:lvgl/lvgl/src/core/lv_obj.c **** {
 825:lvgl/lvgl/src/core/lv_obj.c ****     if(obj->state == new_state) return;
 826:lvgl/lvgl/src/core/lv_obj.c **** 
 827:lvgl/lvgl/src/core/lv_obj.c ****     LV_ASSERT_OBJ(obj, MY_CLASS);
 828:lvgl/lvgl/src/core/lv_obj.c **** 
ARM GAS  C:\Users\gx\AppData\Local\Temp\cccIVLs9.s 			page 16


 829:lvgl/lvgl/src/core/lv_obj.c ****     lv_state_t prev_state = obj->state;
 830:lvgl/lvgl/src/core/lv_obj.c ****     obj->state = new_state;
 831:lvgl/lvgl/src/core/lv_obj.c **** 
 832:lvgl/lvgl/src/core/lv_obj.c ****     _lv_style_state_cmp_t cmp_res = _lv_obj_style_state_compare(obj, prev_state, new_state);
 833:lvgl/lvgl/src/core/lv_obj.c ****     /*If there is no difference in styles there is nothing else to do*/
 834:lvgl/lvgl/src/core/lv_obj.c ****     if(cmp_res == _LV_STYLE_STATE_CMP_SAME) return;
 835:lvgl/lvgl/src/core/lv_obj.c **** 
 836:lvgl/lvgl/src/core/lv_obj.c ****     _lv_obj_style_transition_dsc_t * ts = lv_mem_buf_get(sizeof(_lv_obj_style_transition_dsc_t) * S
 837:lvgl/lvgl/src/core/lv_obj.c ****     lv_memset_00(ts, sizeof(_lv_obj_style_transition_dsc_t) * STYLE_TRANSITION_MAX);
 838:lvgl/lvgl/src/core/lv_obj.c ****     uint32_t tsi = 0;
 839:lvgl/lvgl/src/core/lv_obj.c ****     uint32_t i;
 840:lvgl/lvgl/src/core/lv_obj.c ****     for(i = 0; i < obj->style_cnt && tsi < STYLE_TRANSITION_MAX; i++) {
 841:lvgl/lvgl/src/core/lv_obj.c ****         _lv_obj_style_t * obj_style = &obj->styles[i];
 842:lvgl/lvgl/src/core/lv_obj.c ****         lv_state_t state_act = lv_obj_style_get_selector_state(obj->styles[i].selector);
 843:lvgl/lvgl/src/core/lv_obj.c ****         lv_part_t part_act = lv_obj_style_get_selector_part(obj->styles[i].selector);
 844:lvgl/lvgl/src/core/lv_obj.c ****         if(state_act & (~new_state)) continue; /*Skip unrelated styles*/
 845:lvgl/lvgl/src/core/lv_obj.c ****         if(obj_style->is_trans) continue;
 846:lvgl/lvgl/src/core/lv_obj.c **** 
 847:lvgl/lvgl/src/core/lv_obj.c ****         lv_style_value_t v;
 848:lvgl/lvgl/src/core/lv_obj.c ****         if(lv_style_get_prop_inlined(obj_style->style, LV_STYLE_TRANSITION, &v) == false) continue;
 849:lvgl/lvgl/src/core/lv_obj.c ****         const lv_style_transition_dsc_t * tr = v.ptr;
 850:lvgl/lvgl/src/core/lv_obj.c **** 
 851:lvgl/lvgl/src/core/lv_obj.c ****         /*Add the props to the set if not added yet or added but with smaller weight*/
 852:lvgl/lvgl/src/core/lv_obj.c ****         uint32_t j;
 853:lvgl/lvgl/src/core/lv_obj.c ****         for(j = 0; tr->props[j] != 0 && tsi < STYLE_TRANSITION_MAX; j++) {
 854:lvgl/lvgl/src/core/lv_obj.c ****             uint32_t t;
 855:lvgl/lvgl/src/core/lv_obj.c ****             for(t = 0; t < tsi; t++) {
 856:lvgl/lvgl/src/core/lv_obj.c ****                 lv_style_selector_t selector = ts[t].selector;
 857:lvgl/lvgl/src/core/lv_obj.c ****                 lv_state_t state_ts = lv_obj_style_get_selector_state(selector);
 858:lvgl/lvgl/src/core/lv_obj.c ****                 lv_part_t part_ts = lv_obj_style_get_selector_part(selector);
 859:lvgl/lvgl/src/core/lv_obj.c ****                 if(ts[t].prop == tr->props[j] && part_ts == part_act && state_ts >= state_act) brea
 860:lvgl/lvgl/src/core/lv_obj.c ****             }
 861:lvgl/lvgl/src/core/lv_obj.c **** 
 862:lvgl/lvgl/src/core/lv_obj.c ****             /*If not found  add it*/
 863:lvgl/lvgl/src/core/lv_obj.c ****             if(t == tsi) {
 864:lvgl/lvgl/src/core/lv_obj.c ****                 ts[tsi].time = tr->time;
 865:lvgl/lvgl/src/core/lv_obj.c ****                 ts[tsi].delay = tr->delay;
 866:lvgl/lvgl/src/core/lv_obj.c ****                 ts[tsi].path_cb = tr->path_xcb;
 867:lvgl/lvgl/src/core/lv_obj.c ****                 ts[tsi].prop = tr->props[j];
 868:lvgl/lvgl/src/core/lv_obj.c **** #if LV_USE_USER_DATA
 869:lvgl/lvgl/src/core/lv_obj.c ****                 ts[tsi].user_data = tr->user_data;
 870:lvgl/lvgl/src/core/lv_obj.c **** #endif
 871:lvgl/lvgl/src/core/lv_obj.c ****                 ts[tsi].selector = obj_style->selector;
 872:lvgl/lvgl/src/core/lv_obj.c ****                 tsi++;
 873:lvgl/lvgl/src/core/lv_obj.c ****             }
 874:lvgl/lvgl/src/core/lv_obj.c ****         }
 875:lvgl/lvgl/src/core/lv_obj.c ****     }
 876:lvgl/lvgl/src/core/lv_obj.c **** 
 877:lvgl/lvgl/src/core/lv_obj.c ****     for(i = 0;i < tsi; i++) {
 878:lvgl/lvgl/src/core/lv_obj.c ****         lv_part_t part_act = lv_obj_style_get_selector_part(ts[i].selector);
 879:lvgl/lvgl/src/core/lv_obj.c ****         _lv_obj_style_create_transition(obj, part_act, prev_state, new_state, &ts[i]);
 880:lvgl/lvgl/src/core/lv_obj.c ****     }
 881:lvgl/lvgl/src/core/lv_obj.c **** 
 882:lvgl/lvgl/src/core/lv_obj.c ****     lv_mem_buf_release(ts);
 883:lvgl/lvgl/src/core/lv_obj.c **** 
 884:lvgl/lvgl/src/core/lv_obj.c ****     if(cmp_res == _LV_STYLE_STATE_CMP_DIFF_REDRAW) {
 885:lvgl/lvgl/src/core/lv_obj.c ****         lv_obj_invalidate(obj);
ARM GAS  C:\Users\gx\AppData\Local\Temp\cccIVLs9.s 			page 17


 886:lvgl/lvgl/src/core/lv_obj.c ****     }
 887:lvgl/lvgl/src/core/lv_obj.c ****     else if(cmp_res == _LV_STYLE_STATE_CMP_DIFF_LAYOUT) {
 888:lvgl/lvgl/src/core/lv_obj.c ****         lv_obj_refresh_style(obj, LV_PART_ANY, LV_STYLE_PROP_ANY);
 889:lvgl/lvgl/src/core/lv_obj.c ****     }
 890:lvgl/lvgl/src/core/lv_obj.c ****     else if(cmp_res == _LV_STYLE_STATE_CMP_DIFF_DRAW_PAD) {
 891:lvgl/lvgl/src/core/lv_obj.c ****         lv_obj_invalidate(obj);
 892:lvgl/lvgl/src/core/lv_obj.c ****         lv_obj_refresh_ext_draw_size(obj);
 893:lvgl/lvgl/src/core/lv_obj.c ****     }
 894:lvgl/lvgl/src/core/lv_obj.c **** }
 895:lvgl/lvgl/src/core/lv_obj.c **** 
 896:lvgl/lvgl/src/core/lv_obj.c **** static bool obj_valid_child(const lv_obj_t * parent, const lv_obj_t * obj_to_find)
 897:lvgl/lvgl/src/core/lv_obj.c **** {
  29              		.loc 1 897 1 view -0
  30              		.cfi_startproc
  31              		@ args = 0, pretend = 0, frame = 0
  32              		@ frame_needed = 0, uses_anonymous_args = 0
  33              		.loc 1 897 1 is_stmt 0 view .LVU1
  34 0000 F8B5     		push	{r3, r4, r5, r6, r7, lr}
  35              	.LCFI0:
  36              		.cfi_def_cfa_offset 24
  37              		.cfi_offset 3, -24
  38              		.cfi_offset 4, -20
  39              		.cfi_offset 5, -16
  40              		.cfi_offset 6, -12
  41              		.cfi_offset 7, -8
  42              		.cfi_offset 14, -4
  43 0002 0646     		mov	r6, r0
  44 0004 0D46     		mov	r5, r1
 898:lvgl/lvgl/src/core/lv_obj.c ****     /*Check all children of `parent`*/
 899:lvgl/lvgl/src/core/lv_obj.c ****     uint32_t child_cnt = 0;
  45              		.loc 1 899 5 is_stmt 1 view .LVU2
  46              	.LVL1:
 900:lvgl/lvgl/src/core/lv_obj.c ****     if(parent->spec_attr) child_cnt = parent->spec_attr->child_cnt;
  47              		.loc 1 900 5 view .LVU3
  48              		.loc 1 900 14 is_stmt 0 view .LVU4
  49 0006 8368     		ldr	r3, [r0, #8]
  50              		.loc 1 900 7 view .LVU5
  51 0008 83B1     		cbz	r3, .L6
  52              		.loc 1 900 27 is_stmt 1 discriminator 1 view .LVU6
  53              		.loc 1 900 37 is_stmt 0 discriminator 1 view .LVU7
  54 000a 5F68     		ldr	r7, [r3, #4]
  55              	.LVL2:
  56              	.L2:
 901:lvgl/lvgl/src/core/lv_obj.c ****     uint32_t i;
  57              		.loc 1 901 5 is_stmt 1 view .LVU8
 902:lvgl/lvgl/src/core/lv_obj.c ****     for(i = 0; i < child_cnt; i++) {
  58              		.loc 1 902 5 view .LVU9
  59              		.loc 1 902 11 is_stmt 0 view .LVU10
  60 000c 0024     		movs	r4, #0
  61              	.LVL3:
  62              	.L3:
  63              		.loc 1 902 16 is_stmt 1 discriminator 1 view .LVU11
  64              		.loc 1 902 5 is_stmt 0 discriminator 1 view .LVU12
  65 000e A742     		cmp	r7, r4
  66 0010 0ED9     		bls	.L9
  67              	.LBB101:
 903:lvgl/lvgl/src/core/lv_obj.c ****         lv_obj_t * child = parent->spec_attr->children[i];
ARM GAS  C:\Users\gx\AppData\Local\Temp\cccIVLs9.s 			page 18


  68              		.loc 1 903 9 is_stmt 1 view .LVU13
  69              		.loc 1 903 34 is_stmt 0 view .LVU14
  70 0012 B368     		ldr	r3, [r6, #8]
  71              		.loc 1 903 45 view .LVU15
  72 0014 1B68     		ldr	r3, [r3]
  73              		.loc 1 903 20 view .LVU16
  74 0016 53F82400 		ldr	r0, [r3, r4, lsl #2]
  75              	.LVL4:
 904:lvgl/lvgl/src/core/lv_obj.c ****         if(child == obj_to_find) {
  76              		.loc 1 904 9 is_stmt 1 view .LVU17
  77              		.loc 1 904 11 is_stmt 0 view .LVU18
  78 001a A842     		cmp	r0, r5
  79 001c 0BD0     		beq	.L7
 905:lvgl/lvgl/src/core/lv_obj.c ****             return true;
 906:lvgl/lvgl/src/core/lv_obj.c ****         }
 907:lvgl/lvgl/src/core/lv_obj.c **** 
 908:lvgl/lvgl/src/core/lv_obj.c ****         /*Check the children*/
 909:lvgl/lvgl/src/core/lv_obj.c ****         bool found = obj_valid_child(child, obj_to_find);
  80              		.loc 1 909 9 is_stmt 1 view .LVU19
  81              		.loc 1 909 22 is_stmt 0 view .LVU20
  82 001e 2946     		mov	r1, r5
  83 0020 FFF7EEFF 		bl	obj_valid_child
  84              	.LVL5:
 910:lvgl/lvgl/src/core/lv_obj.c ****         if(found) {
  85              		.loc 1 910 9 is_stmt 1 view .LVU21
  86              		.loc 1 910 11 is_stmt 0 view .LVU22
  87 0024 0346     		mov	r3, r0
  88 0026 20B9     		cbnz	r0, .L4
  89              	.LBE101:
 902:lvgl/lvgl/src/core/lv_obj.c ****         lv_obj_t * child = parent->spec_attr->children[i];
  90              		.loc 1 902 31 is_stmt 1 discriminator 2 view .LVU23
 902:lvgl/lvgl/src/core/lv_obj.c ****         lv_obj_t * child = parent->spec_attr->children[i];
  91              		.loc 1 902 32 is_stmt 0 discriminator 2 view .LVU24
  92 0028 0134     		adds	r4, r4, #1
  93              	.LVL6:
 902:lvgl/lvgl/src/core/lv_obj.c ****         lv_obj_t * child = parent->spec_attr->children[i];
  94              		.loc 1 902 32 discriminator 2 view .LVU25
  95 002a F0E7     		b	.L3
  96              	.LVL7:
  97              	.L6:
 899:lvgl/lvgl/src/core/lv_obj.c ****     if(parent->spec_attr) child_cnt = parent->spec_attr->child_cnt;
  98              		.loc 1 899 14 view .LVU26
  99 002c 0027     		movs	r7, #0
 100 002e EDE7     		b	.L2
 101              	.LVL8:
 102              	.L9:
 911:lvgl/lvgl/src/core/lv_obj.c ****             return true;
 912:lvgl/lvgl/src/core/lv_obj.c ****         }
 913:lvgl/lvgl/src/core/lv_obj.c ****     }
 914:lvgl/lvgl/src/core/lv_obj.c ****     return false;
 103              		.loc 1 914 12 view .LVU27
 104 0030 0023     		movs	r3, #0
 105              	.L4:
 915:lvgl/lvgl/src/core/lv_obj.c **** }
 106              		.loc 1 915 1 view .LVU28
 107 0032 1846     		mov	r0, r3
 108 0034 F8BD     		pop	{r3, r4, r5, r6, r7, pc}
ARM GAS  C:\Users\gx\AppData\Local\Temp\cccIVLs9.s 			page 19


 109              	.LVL9:
 110              	.L7:
 111              	.LBB102:
 905:lvgl/lvgl/src/core/lv_obj.c ****         }
 112              		.loc 1 905 20 view .LVU29
 113 0036 0123     		movs	r3, #1
 114 0038 FBE7     		b	.L4
 115              	.LBE102:
 116              		.cfi_endproc
 117              	.LFE183:
 119              		.section	.text.scrollbar_init_draw_dsc,"ax",%progbits
 120              		.align	1
 121              		.syntax unified
 122              		.thumb
 123              		.thumb_func
 124              		.fpu fpv4-sp-d16
 126              	scrollbar_init_draw_dsc:
 127              	.LVL10:
 128              	.LFB180:
 620:lvgl/lvgl/src/core/lv_obj.c ****     lv_draw_rect_dsc_init(dsc);
 129              		.loc 1 620 1 is_stmt 1 view -0
 130              		.cfi_startproc
 131              		@ args = 0, pretend = 0, frame = 0
 132              		@ frame_needed = 0, uses_anonymous_args = 0
 620:lvgl/lvgl/src/core/lv_obj.c ****     lv_draw_rect_dsc_init(dsc);
 133              		.loc 1 620 1 is_stmt 0 view .LVU31
 134 0000 38B5     		push	{r3, r4, r5, lr}
 135              	.LCFI1:
 136              		.cfi_def_cfa_offset 16
 137              		.cfi_offset 3, -16
 138              		.cfi_offset 4, -12
 139              		.cfi_offset 5, -8
 140              		.cfi_offset 14, -4
 141 0002 0546     		mov	r5, r0
 142 0004 0C46     		mov	r4, r1
 621:lvgl/lvgl/src/core/lv_obj.c ****     dsc->bg_opa = lv_obj_get_style_bg_opa(obj, LV_PART_SCROLLBAR);
 143              		.loc 1 621 5 is_stmt 1 view .LVU32
 144 0006 0846     		mov	r0, r1
 145              	.LVL11:
 621:lvgl/lvgl/src/core/lv_obj.c ****     dsc->bg_opa = lv_obj_get_style_bg_opa(obj, LV_PART_SCROLLBAR);
 146              		.loc 1 621 5 is_stmt 0 view .LVU33
 147 0008 FFF7FEFF 		bl	lv_draw_rect_dsc_init
 148              	.LVL12:
 622:lvgl/lvgl/src/core/lv_obj.c ****     if(dsc->bg_opa > LV_OPA_MIN) {
 149              		.loc 1 622 5 is_stmt 1 view .LVU34
 150              	.LBB103:
 151              	.LBI103:
 152              		.file 2 "lvgl/lvgl/src/core/lv_obj_style_gen.h"
   1:lvgl/lvgl/src/core/lv_obj_style_gen.h **** static inline lv_coord_t lv_obj_get_style_width(const struct _lv_obj_t * obj, uint32_t part)
   2:lvgl/lvgl/src/core/lv_obj_style_gen.h **** {
   3:lvgl/lvgl/src/core/lv_obj_style_gen.h ****     lv_style_value_t v = lv_obj_get_style_prop(obj, part, LV_STYLE_WIDTH);
   4:lvgl/lvgl/src/core/lv_obj_style_gen.h ****     return (lv_coord_t)v.num;
   5:lvgl/lvgl/src/core/lv_obj_style_gen.h **** }
   6:lvgl/lvgl/src/core/lv_obj_style_gen.h **** 
   7:lvgl/lvgl/src/core/lv_obj_style_gen.h **** static inline lv_coord_t lv_obj_get_style_min_width(const struct _lv_obj_t * obj, uint32_t part)
   8:lvgl/lvgl/src/core/lv_obj_style_gen.h **** {
   9:lvgl/lvgl/src/core/lv_obj_style_gen.h ****     lv_style_value_t v = lv_obj_get_style_prop(obj, part, LV_STYLE_MIN_WIDTH);
ARM GAS  C:\Users\gx\AppData\Local\Temp\cccIVLs9.s 			page 20


  10:lvgl/lvgl/src/core/lv_obj_style_gen.h ****     return (lv_coord_t)v.num;
  11:lvgl/lvgl/src/core/lv_obj_style_gen.h **** }
  12:lvgl/lvgl/src/core/lv_obj_style_gen.h **** 
  13:lvgl/lvgl/src/core/lv_obj_style_gen.h **** static inline lv_coord_t lv_obj_get_style_max_width(const struct _lv_obj_t * obj, uint32_t part)
  14:lvgl/lvgl/src/core/lv_obj_style_gen.h **** {
  15:lvgl/lvgl/src/core/lv_obj_style_gen.h ****     lv_style_value_t v = lv_obj_get_style_prop(obj, part, LV_STYLE_MAX_WIDTH);
  16:lvgl/lvgl/src/core/lv_obj_style_gen.h ****     return (lv_coord_t)v.num;
  17:lvgl/lvgl/src/core/lv_obj_style_gen.h **** }
  18:lvgl/lvgl/src/core/lv_obj_style_gen.h **** 
  19:lvgl/lvgl/src/core/lv_obj_style_gen.h **** static inline lv_coord_t lv_obj_get_style_height(const struct _lv_obj_t * obj, uint32_t part)
  20:lvgl/lvgl/src/core/lv_obj_style_gen.h **** {
  21:lvgl/lvgl/src/core/lv_obj_style_gen.h ****     lv_style_value_t v = lv_obj_get_style_prop(obj, part, LV_STYLE_HEIGHT);
  22:lvgl/lvgl/src/core/lv_obj_style_gen.h ****     return (lv_coord_t)v.num;
  23:lvgl/lvgl/src/core/lv_obj_style_gen.h **** }
  24:lvgl/lvgl/src/core/lv_obj_style_gen.h **** 
  25:lvgl/lvgl/src/core/lv_obj_style_gen.h **** static inline lv_coord_t lv_obj_get_style_min_height(const struct _lv_obj_t * obj, uint32_t part)
  26:lvgl/lvgl/src/core/lv_obj_style_gen.h **** {
  27:lvgl/lvgl/src/core/lv_obj_style_gen.h ****     lv_style_value_t v = lv_obj_get_style_prop(obj, part, LV_STYLE_MIN_HEIGHT);
  28:lvgl/lvgl/src/core/lv_obj_style_gen.h ****     return (lv_coord_t)v.num;
  29:lvgl/lvgl/src/core/lv_obj_style_gen.h **** }
  30:lvgl/lvgl/src/core/lv_obj_style_gen.h **** 
  31:lvgl/lvgl/src/core/lv_obj_style_gen.h **** static inline lv_coord_t lv_obj_get_style_max_height(const struct _lv_obj_t * obj, uint32_t part)
  32:lvgl/lvgl/src/core/lv_obj_style_gen.h **** {
  33:lvgl/lvgl/src/core/lv_obj_style_gen.h ****     lv_style_value_t v = lv_obj_get_style_prop(obj, part, LV_STYLE_MAX_HEIGHT);
  34:lvgl/lvgl/src/core/lv_obj_style_gen.h ****     return (lv_coord_t)v.num;
  35:lvgl/lvgl/src/core/lv_obj_style_gen.h **** }
  36:lvgl/lvgl/src/core/lv_obj_style_gen.h **** 
  37:lvgl/lvgl/src/core/lv_obj_style_gen.h **** static inline lv_coord_t lv_obj_get_style_x(const struct _lv_obj_t * obj, uint32_t part)
  38:lvgl/lvgl/src/core/lv_obj_style_gen.h **** {
  39:lvgl/lvgl/src/core/lv_obj_style_gen.h ****     lv_style_value_t v = lv_obj_get_style_prop(obj, part, LV_STYLE_X);
  40:lvgl/lvgl/src/core/lv_obj_style_gen.h ****     return (lv_coord_t)v.num;
  41:lvgl/lvgl/src/core/lv_obj_style_gen.h **** }
  42:lvgl/lvgl/src/core/lv_obj_style_gen.h **** 
  43:lvgl/lvgl/src/core/lv_obj_style_gen.h **** static inline lv_coord_t lv_obj_get_style_y(const struct _lv_obj_t * obj, uint32_t part)
  44:lvgl/lvgl/src/core/lv_obj_style_gen.h **** {
  45:lvgl/lvgl/src/core/lv_obj_style_gen.h ****     lv_style_value_t v = lv_obj_get_style_prop(obj, part, LV_STYLE_Y);
  46:lvgl/lvgl/src/core/lv_obj_style_gen.h ****     return (lv_coord_t)v.num;
  47:lvgl/lvgl/src/core/lv_obj_style_gen.h **** }
  48:lvgl/lvgl/src/core/lv_obj_style_gen.h **** 
  49:lvgl/lvgl/src/core/lv_obj_style_gen.h **** static inline lv_align_t lv_obj_get_style_align(const struct _lv_obj_t * obj, uint32_t part)
  50:lvgl/lvgl/src/core/lv_obj_style_gen.h **** {
  51:lvgl/lvgl/src/core/lv_obj_style_gen.h ****     lv_style_value_t v = lv_obj_get_style_prop(obj, part, LV_STYLE_ALIGN);
  52:lvgl/lvgl/src/core/lv_obj_style_gen.h ****     return (lv_align_t)v.num;
  53:lvgl/lvgl/src/core/lv_obj_style_gen.h **** }
  54:lvgl/lvgl/src/core/lv_obj_style_gen.h **** 
  55:lvgl/lvgl/src/core/lv_obj_style_gen.h **** static inline lv_coord_t lv_obj_get_style_transform_width(const struct _lv_obj_t * obj, uint32_t pa
  56:lvgl/lvgl/src/core/lv_obj_style_gen.h **** {
  57:lvgl/lvgl/src/core/lv_obj_style_gen.h ****     lv_style_value_t v = lv_obj_get_style_prop(obj, part, LV_STYLE_TRANSFORM_WIDTH);
  58:lvgl/lvgl/src/core/lv_obj_style_gen.h ****     return (lv_coord_t)v.num;
  59:lvgl/lvgl/src/core/lv_obj_style_gen.h **** }
  60:lvgl/lvgl/src/core/lv_obj_style_gen.h **** 
  61:lvgl/lvgl/src/core/lv_obj_style_gen.h **** static inline lv_coord_t lv_obj_get_style_transform_height(const struct _lv_obj_t * obj, uint32_t p
  62:lvgl/lvgl/src/core/lv_obj_style_gen.h **** {
  63:lvgl/lvgl/src/core/lv_obj_style_gen.h ****     lv_style_value_t v = lv_obj_get_style_prop(obj, part, LV_STYLE_TRANSFORM_HEIGHT);
  64:lvgl/lvgl/src/core/lv_obj_style_gen.h ****     return (lv_coord_t)v.num;
  65:lvgl/lvgl/src/core/lv_obj_style_gen.h **** }
  66:lvgl/lvgl/src/core/lv_obj_style_gen.h **** 
ARM GAS  C:\Users\gx\AppData\Local\Temp\cccIVLs9.s 			page 21


  67:lvgl/lvgl/src/core/lv_obj_style_gen.h **** static inline lv_coord_t lv_obj_get_style_translate_x(const struct _lv_obj_t * obj, uint32_t part)
  68:lvgl/lvgl/src/core/lv_obj_style_gen.h **** {
  69:lvgl/lvgl/src/core/lv_obj_style_gen.h ****     lv_style_value_t v = lv_obj_get_style_prop(obj, part, LV_STYLE_TRANSLATE_X);
  70:lvgl/lvgl/src/core/lv_obj_style_gen.h ****     return (lv_coord_t)v.num;
  71:lvgl/lvgl/src/core/lv_obj_style_gen.h **** }
  72:lvgl/lvgl/src/core/lv_obj_style_gen.h **** 
  73:lvgl/lvgl/src/core/lv_obj_style_gen.h **** static inline lv_coord_t lv_obj_get_style_translate_y(const struct _lv_obj_t * obj, uint32_t part)
  74:lvgl/lvgl/src/core/lv_obj_style_gen.h **** {
  75:lvgl/lvgl/src/core/lv_obj_style_gen.h ****     lv_style_value_t v = lv_obj_get_style_prop(obj, part, LV_STYLE_TRANSLATE_Y);
  76:lvgl/lvgl/src/core/lv_obj_style_gen.h ****     return (lv_coord_t)v.num;
  77:lvgl/lvgl/src/core/lv_obj_style_gen.h **** }
  78:lvgl/lvgl/src/core/lv_obj_style_gen.h **** 
  79:lvgl/lvgl/src/core/lv_obj_style_gen.h **** static inline lv_coord_t lv_obj_get_style_transform_zoom(const struct _lv_obj_t * obj, uint32_t par
  80:lvgl/lvgl/src/core/lv_obj_style_gen.h **** {
  81:lvgl/lvgl/src/core/lv_obj_style_gen.h ****     lv_style_value_t v = lv_obj_get_style_prop(obj, part, LV_STYLE_TRANSFORM_ZOOM);
  82:lvgl/lvgl/src/core/lv_obj_style_gen.h ****     return (lv_coord_t)v.num;
  83:lvgl/lvgl/src/core/lv_obj_style_gen.h **** }
  84:lvgl/lvgl/src/core/lv_obj_style_gen.h **** 
  85:lvgl/lvgl/src/core/lv_obj_style_gen.h **** static inline lv_coord_t lv_obj_get_style_transform_angle(const struct _lv_obj_t * obj, uint32_t pa
  86:lvgl/lvgl/src/core/lv_obj_style_gen.h **** {
  87:lvgl/lvgl/src/core/lv_obj_style_gen.h ****     lv_style_value_t v = lv_obj_get_style_prop(obj, part, LV_STYLE_TRANSFORM_ANGLE);
  88:lvgl/lvgl/src/core/lv_obj_style_gen.h ****     return (lv_coord_t)v.num;
  89:lvgl/lvgl/src/core/lv_obj_style_gen.h **** }
  90:lvgl/lvgl/src/core/lv_obj_style_gen.h **** 
  91:lvgl/lvgl/src/core/lv_obj_style_gen.h **** static inline lv_coord_t lv_obj_get_style_pad_top(const struct _lv_obj_t * obj, uint32_t part)
  92:lvgl/lvgl/src/core/lv_obj_style_gen.h **** {
  93:lvgl/lvgl/src/core/lv_obj_style_gen.h ****     lv_style_value_t v = lv_obj_get_style_prop(obj, part, LV_STYLE_PAD_TOP);
  94:lvgl/lvgl/src/core/lv_obj_style_gen.h ****     return (lv_coord_t)v.num;
  95:lvgl/lvgl/src/core/lv_obj_style_gen.h **** }
  96:lvgl/lvgl/src/core/lv_obj_style_gen.h **** 
  97:lvgl/lvgl/src/core/lv_obj_style_gen.h **** static inline lv_coord_t lv_obj_get_style_pad_bottom(const struct _lv_obj_t * obj, uint32_t part)
  98:lvgl/lvgl/src/core/lv_obj_style_gen.h **** {
  99:lvgl/lvgl/src/core/lv_obj_style_gen.h ****     lv_style_value_t v = lv_obj_get_style_prop(obj, part, LV_STYLE_PAD_BOTTOM);
 100:lvgl/lvgl/src/core/lv_obj_style_gen.h ****     return (lv_coord_t)v.num;
 101:lvgl/lvgl/src/core/lv_obj_style_gen.h **** }
 102:lvgl/lvgl/src/core/lv_obj_style_gen.h **** 
 103:lvgl/lvgl/src/core/lv_obj_style_gen.h **** static inline lv_coord_t lv_obj_get_style_pad_left(const struct _lv_obj_t * obj, uint32_t part)
 104:lvgl/lvgl/src/core/lv_obj_style_gen.h **** {
 105:lvgl/lvgl/src/core/lv_obj_style_gen.h ****     lv_style_value_t v = lv_obj_get_style_prop(obj, part, LV_STYLE_PAD_LEFT);
 106:lvgl/lvgl/src/core/lv_obj_style_gen.h ****     return (lv_coord_t)v.num;
 107:lvgl/lvgl/src/core/lv_obj_style_gen.h **** }
 108:lvgl/lvgl/src/core/lv_obj_style_gen.h **** 
 109:lvgl/lvgl/src/core/lv_obj_style_gen.h **** static inline lv_coord_t lv_obj_get_style_pad_right(const struct _lv_obj_t * obj, uint32_t part)
 110:lvgl/lvgl/src/core/lv_obj_style_gen.h **** {
 111:lvgl/lvgl/src/core/lv_obj_style_gen.h ****     lv_style_value_t v = lv_obj_get_style_prop(obj, part, LV_STYLE_PAD_RIGHT);
 112:lvgl/lvgl/src/core/lv_obj_style_gen.h ****     return (lv_coord_t)v.num;
 113:lvgl/lvgl/src/core/lv_obj_style_gen.h **** }
 114:lvgl/lvgl/src/core/lv_obj_style_gen.h **** 
 115:lvgl/lvgl/src/core/lv_obj_style_gen.h **** static inline lv_coord_t lv_obj_get_style_pad_row(const struct _lv_obj_t * obj, uint32_t part)
 116:lvgl/lvgl/src/core/lv_obj_style_gen.h **** {
 117:lvgl/lvgl/src/core/lv_obj_style_gen.h ****     lv_style_value_t v = lv_obj_get_style_prop(obj, part, LV_STYLE_PAD_ROW);
 118:lvgl/lvgl/src/core/lv_obj_style_gen.h ****     return (lv_coord_t)v.num;
 119:lvgl/lvgl/src/core/lv_obj_style_gen.h **** }
 120:lvgl/lvgl/src/core/lv_obj_style_gen.h **** 
 121:lvgl/lvgl/src/core/lv_obj_style_gen.h **** static inline lv_coord_t lv_obj_get_style_pad_column(const struct _lv_obj_t * obj, uint32_t part)
 122:lvgl/lvgl/src/core/lv_obj_style_gen.h **** {
 123:lvgl/lvgl/src/core/lv_obj_style_gen.h ****     lv_style_value_t v = lv_obj_get_style_prop(obj, part, LV_STYLE_PAD_COLUMN);
ARM GAS  C:\Users\gx\AppData\Local\Temp\cccIVLs9.s 			page 22


 124:lvgl/lvgl/src/core/lv_obj_style_gen.h ****     return (lv_coord_t)v.num;
 125:lvgl/lvgl/src/core/lv_obj_style_gen.h **** }
 126:lvgl/lvgl/src/core/lv_obj_style_gen.h **** 
 127:lvgl/lvgl/src/core/lv_obj_style_gen.h **** static inline lv_coord_t lv_obj_get_style_radius(const struct _lv_obj_t * obj, uint32_t part)
 128:lvgl/lvgl/src/core/lv_obj_style_gen.h **** {
 129:lvgl/lvgl/src/core/lv_obj_style_gen.h ****     lv_style_value_t v = lv_obj_get_style_prop(obj, part, LV_STYLE_RADIUS);
 130:lvgl/lvgl/src/core/lv_obj_style_gen.h ****     return (lv_coord_t)v.num;
 131:lvgl/lvgl/src/core/lv_obj_style_gen.h **** }
 132:lvgl/lvgl/src/core/lv_obj_style_gen.h **** 
 133:lvgl/lvgl/src/core/lv_obj_style_gen.h **** static inline bool lv_obj_get_style_clip_corner(const struct _lv_obj_t * obj, uint32_t part)
 134:lvgl/lvgl/src/core/lv_obj_style_gen.h **** {
 135:lvgl/lvgl/src/core/lv_obj_style_gen.h ****     lv_style_value_t v = lv_obj_get_style_prop(obj, part, LV_STYLE_CLIP_CORNER);
 136:lvgl/lvgl/src/core/lv_obj_style_gen.h ****     return (bool)v.num;
 137:lvgl/lvgl/src/core/lv_obj_style_gen.h **** }
 138:lvgl/lvgl/src/core/lv_obj_style_gen.h **** 
 139:lvgl/lvgl/src/core/lv_obj_style_gen.h **** static inline lv_opa_t lv_obj_get_style_opa(const struct _lv_obj_t * obj, uint32_t part)
 140:lvgl/lvgl/src/core/lv_obj_style_gen.h **** {
 141:lvgl/lvgl/src/core/lv_obj_style_gen.h ****     lv_style_value_t v = lv_obj_get_style_prop(obj, part, LV_STYLE_OPA);
 142:lvgl/lvgl/src/core/lv_obj_style_gen.h ****     return (lv_opa_t)v.num;
 143:lvgl/lvgl/src/core/lv_obj_style_gen.h **** }
 144:lvgl/lvgl/src/core/lv_obj_style_gen.h **** 
 145:lvgl/lvgl/src/core/lv_obj_style_gen.h **** static inline const lv_color_filter_dsc_t * lv_obj_get_style_color_filter_dsc(const struct _lv_obj_
 146:lvgl/lvgl/src/core/lv_obj_style_gen.h **** {
 147:lvgl/lvgl/src/core/lv_obj_style_gen.h ****     lv_style_value_t v = lv_obj_get_style_prop(obj, part, LV_STYLE_COLOR_FILTER_DSC);
 148:lvgl/lvgl/src/core/lv_obj_style_gen.h ****     return (const lv_color_filter_dsc_t *)v.ptr;
 149:lvgl/lvgl/src/core/lv_obj_style_gen.h **** }
 150:lvgl/lvgl/src/core/lv_obj_style_gen.h **** 
 151:lvgl/lvgl/src/core/lv_obj_style_gen.h **** static inline lv_opa_t lv_obj_get_style_color_filter_opa(const struct _lv_obj_t * obj, uint32_t par
 152:lvgl/lvgl/src/core/lv_obj_style_gen.h **** {
 153:lvgl/lvgl/src/core/lv_obj_style_gen.h ****     lv_style_value_t v = lv_obj_get_style_prop(obj, part, LV_STYLE_COLOR_FILTER_OPA);
 154:lvgl/lvgl/src/core/lv_obj_style_gen.h ****     return (lv_opa_t)v.num;
 155:lvgl/lvgl/src/core/lv_obj_style_gen.h **** }
 156:lvgl/lvgl/src/core/lv_obj_style_gen.h **** 
 157:lvgl/lvgl/src/core/lv_obj_style_gen.h **** static inline uint32_t lv_obj_get_style_anim_time(const struct _lv_obj_t * obj, uint32_t part)
 158:lvgl/lvgl/src/core/lv_obj_style_gen.h **** {
 159:lvgl/lvgl/src/core/lv_obj_style_gen.h ****     lv_style_value_t v = lv_obj_get_style_prop(obj, part, LV_STYLE_ANIM_TIME);
 160:lvgl/lvgl/src/core/lv_obj_style_gen.h ****     return (uint32_t)v.num;
 161:lvgl/lvgl/src/core/lv_obj_style_gen.h **** }
 162:lvgl/lvgl/src/core/lv_obj_style_gen.h **** 
 163:lvgl/lvgl/src/core/lv_obj_style_gen.h **** static inline uint32_t lv_obj_get_style_anim_speed(const struct _lv_obj_t * obj, uint32_t part)
 164:lvgl/lvgl/src/core/lv_obj_style_gen.h **** {
 165:lvgl/lvgl/src/core/lv_obj_style_gen.h ****     lv_style_value_t v = lv_obj_get_style_prop(obj, part, LV_STYLE_ANIM_SPEED);
 166:lvgl/lvgl/src/core/lv_obj_style_gen.h ****     return (uint32_t)v.num;
 167:lvgl/lvgl/src/core/lv_obj_style_gen.h **** }
 168:lvgl/lvgl/src/core/lv_obj_style_gen.h **** 
 169:lvgl/lvgl/src/core/lv_obj_style_gen.h **** static inline const lv_style_transition_dsc_t * lv_obj_get_style_transition(const struct _lv_obj_t 
 170:lvgl/lvgl/src/core/lv_obj_style_gen.h **** {
 171:lvgl/lvgl/src/core/lv_obj_style_gen.h ****     lv_style_value_t v = lv_obj_get_style_prop(obj, part, LV_STYLE_TRANSITION);
 172:lvgl/lvgl/src/core/lv_obj_style_gen.h ****     return (const lv_style_transition_dsc_t *)v.ptr;
 173:lvgl/lvgl/src/core/lv_obj_style_gen.h **** }
 174:lvgl/lvgl/src/core/lv_obj_style_gen.h **** 
 175:lvgl/lvgl/src/core/lv_obj_style_gen.h **** static inline lv_blend_mode_t lv_obj_get_style_blend_mode(const struct _lv_obj_t * obj, uint32_t pa
 176:lvgl/lvgl/src/core/lv_obj_style_gen.h **** {
 177:lvgl/lvgl/src/core/lv_obj_style_gen.h ****     lv_style_value_t v = lv_obj_get_style_prop(obj, part, LV_STYLE_BLEND_MODE);
 178:lvgl/lvgl/src/core/lv_obj_style_gen.h ****     return (lv_blend_mode_t)v.num;
 179:lvgl/lvgl/src/core/lv_obj_style_gen.h **** }
 180:lvgl/lvgl/src/core/lv_obj_style_gen.h **** 
ARM GAS  C:\Users\gx\AppData\Local\Temp\cccIVLs9.s 			page 23


 181:lvgl/lvgl/src/core/lv_obj_style_gen.h **** static inline uint16_t lv_obj_get_style_layout(const struct _lv_obj_t * obj, uint32_t part)
 182:lvgl/lvgl/src/core/lv_obj_style_gen.h **** {
 183:lvgl/lvgl/src/core/lv_obj_style_gen.h ****     lv_style_value_t v = lv_obj_get_style_prop(obj, part, LV_STYLE_LAYOUT);
 184:lvgl/lvgl/src/core/lv_obj_style_gen.h ****     return (uint16_t)v.num;
 185:lvgl/lvgl/src/core/lv_obj_style_gen.h **** }
 186:lvgl/lvgl/src/core/lv_obj_style_gen.h **** 
 187:lvgl/lvgl/src/core/lv_obj_style_gen.h **** static inline lv_base_dir_t lv_obj_get_style_base_dir(const struct _lv_obj_t * obj, uint32_t part)
 188:lvgl/lvgl/src/core/lv_obj_style_gen.h **** {
 189:lvgl/lvgl/src/core/lv_obj_style_gen.h ****     lv_style_value_t v = lv_obj_get_style_prop(obj, part, LV_STYLE_BASE_DIR);
 190:lvgl/lvgl/src/core/lv_obj_style_gen.h ****     return (lv_base_dir_t)v.num;
 191:lvgl/lvgl/src/core/lv_obj_style_gen.h **** }
 192:lvgl/lvgl/src/core/lv_obj_style_gen.h **** 
 193:lvgl/lvgl/src/core/lv_obj_style_gen.h **** static inline lv_color_t lv_obj_get_style_bg_color(const struct _lv_obj_t * obj, uint32_t part)
 194:lvgl/lvgl/src/core/lv_obj_style_gen.h **** {
 195:lvgl/lvgl/src/core/lv_obj_style_gen.h ****     lv_style_value_t v = lv_obj_get_style_prop(obj, part, LV_STYLE_BG_COLOR);
 196:lvgl/lvgl/src/core/lv_obj_style_gen.h ****     return v.color;
 197:lvgl/lvgl/src/core/lv_obj_style_gen.h **** }
 198:lvgl/lvgl/src/core/lv_obj_style_gen.h **** 
 199:lvgl/lvgl/src/core/lv_obj_style_gen.h **** static inline lv_color_t lv_obj_get_style_bg_color_filtered(const struct _lv_obj_t * obj, uint32_t 
 200:lvgl/lvgl/src/core/lv_obj_style_gen.h **** {
 201:lvgl/lvgl/src/core/lv_obj_style_gen.h ****     lv_style_value_t v = lv_obj_get_style_prop(obj, part, LV_STYLE_BG_COLOR_FILTERED);
 202:lvgl/lvgl/src/core/lv_obj_style_gen.h ****     return v.color;
 203:lvgl/lvgl/src/core/lv_obj_style_gen.h **** }
 204:lvgl/lvgl/src/core/lv_obj_style_gen.h **** 
 205:lvgl/lvgl/src/core/lv_obj_style_gen.h **** static inline lv_opa_t lv_obj_get_style_bg_opa(const struct _lv_obj_t * obj, uint32_t part)
 153              		.loc 2 205 24 view .LVU35
 154              	.LBB104:
 206:lvgl/lvgl/src/core/lv_obj_style_gen.h **** {
 207:lvgl/lvgl/src/core/lv_obj_style_gen.h ****     lv_style_value_t v = lv_obj_get_style_prop(obj, part, LV_STYLE_BG_OPA);
 155              		.loc 2 207 5 view .LVU36
 156              		.loc 2 207 26 is_stmt 0 view .LVU37
 157 000c 2122     		movs	r2, #33
 158 000e 4FF48031 		mov	r1, #65536
 159 0012 2846     		mov	r0, r5
 160 0014 FFF7FEFF 		bl	lv_obj_get_style_prop
 161              	.LVL13:
 208:lvgl/lvgl/src/core/lv_obj_style_gen.h ****     return (lv_opa_t)v.num;
 162              		.loc 2 208 5 is_stmt 1 view .LVU38
 163              		.loc 2 208 12 is_stmt 0 view .LVU39
 164 0018 C0B2     		uxtb	r0, r0
 165              	.LVL14:
 166              		.loc 2 208 12 view .LVU40
 167              	.LBE104:
 168              	.LBE103:
 622:lvgl/lvgl/src/core/lv_obj.c ****     if(dsc->bg_opa > LV_OPA_MIN) {
 169              		.loc 1 622 17 view .LVU41
 170 001a A072     		strb	r0, [r4, #10]
 623:lvgl/lvgl/src/core/lv_obj.c ****         dsc->bg_color = lv_obj_get_style_bg_color(obj, LV_PART_SCROLLBAR);
 171              		.loc 1 623 5 is_stmt 1 view .LVU42
 623:lvgl/lvgl/src/core/lv_obj.c ****         dsc->bg_color = lv_obj_get_style_bg_color(obj, LV_PART_SCROLLBAR);
 172              		.loc 1 623 7 is_stmt 0 view .LVU43
 173 001c 0228     		cmp	r0, #2
 174 001e 3BD8     		bhi	.L20
 175              	.L11:
 627:lvgl/lvgl/src/core/lv_obj.c ****     if(dsc->border_opa > LV_OPA_MIN) {
 176              		.loc 1 627 5 is_stmt 1 view .LVU44
 177              	.LVL15:
ARM GAS  C:\Users\gx\AppData\Local\Temp\cccIVLs9.s 			page 24


 178              	.LBB105:
 179              	.LBI105:
 209:lvgl/lvgl/src/core/lv_obj_style_gen.h **** }
 210:lvgl/lvgl/src/core/lv_obj_style_gen.h **** 
 211:lvgl/lvgl/src/core/lv_obj_style_gen.h **** static inline lv_color_t lv_obj_get_style_bg_grad_color(const struct _lv_obj_t * obj, uint32_t part
 212:lvgl/lvgl/src/core/lv_obj_style_gen.h **** {
 213:lvgl/lvgl/src/core/lv_obj_style_gen.h ****     lv_style_value_t v = lv_obj_get_style_prop(obj, part, LV_STYLE_BG_GRAD_COLOR);
 214:lvgl/lvgl/src/core/lv_obj_style_gen.h ****     return v.color;
 215:lvgl/lvgl/src/core/lv_obj_style_gen.h **** }
 216:lvgl/lvgl/src/core/lv_obj_style_gen.h **** 
 217:lvgl/lvgl/src/core/lv_obj_style_gen.h **** static inline lv_color_t lv_obj_get_style_bg_grad_color_filtered(const struct _lv_obj_t * obj, uint
 218:lvgl/lvgl/src/core/lv_obj_style_gen.h **** {
 219:lvgl/lvgl/src/core/lv_obj_style_gen.h ****     lv_style_value_t v = lv_obj_get_style_prop(obj, part, LV_STYLE_BG_GRAD_COLOR_FILTERED);
 220:lvgl/lvgl/src/core/lv_obj_style_gen.h ****     return v.color;
 221:lvgl/lvgl/src/core/lv_obj_style_gen.h **** }
 222:lvgl/lvgl/src/core/lv_obj_style_gen.h **** 
 223:lvgl/lvgl/src/core/lv_obj_style_gen.h **** static inline lv_grad_dir_t lv_obj_get_style_bg_grad_dir(const struct _lv_obj_t * obj, uint32_t par
 224:lvgl/lvgl/src/core/lv_obj_style_gen.h **** {
 225:lvgl/lvgl/src/core/lv_obj_style_gen.h ****     lv_style_value_t v = lv_obj_get_style_prop(obj, part, LV_STYLE_BG_GRAD_DIR);
 226:lvgl/lvgl/src/core/lv_obj_style_gen.h ****     return (lv_grad_dir_t)v.num;
 227:lvgl/lvgl/src/core/lv_obj_style_gen.h **** }
 228:lvgl/lvgl/src/core/lv_obj_style_gen.h **** 
 229:lvgl/lvgl/src/core/lv_obj_style_gen.h **** static inline lv_coord_t lv_obj_get_style_bg_main_stop(const struct _lv_obj_t * obj, uint32_t part)
 230:lvgl/lvgl/src/core/lv_obj_style_gen.h **** {
 231:lvgl/lvgl/src/core/lv_obj_style_gen.h ****     lv_style_value_t v = lv_obj_get_style_prop(obj, part, LV_STYLE_BG_MAIN_STOP);
 232:lvgl/lvgl/src/core/lv_obj_style_gen.h ****     return (lv_coord_t)v.num;
 233:lvgl/lvgl/src/core/lv_obj_style_gen.h **** }
 234:lvgl/lvgl/src/core/lv_obj_style_gen.h **** 
 235:lvgl/lvgl/src/core/lv_obj_style_gen.h **** static inline lv_coord_t lv_obj_get_style_bg_grad_stop(const struct _lv_obj_t * obj, uint32_t part)
 236:lvgl/lvgl/src/core/lv_obj_style_gen.h **** {
 237:lvgl/lvgl/src/core/lv_obj_style_gen.h ****     lv_style_value_t v = lv_obj_get_style_prop(obj, part, LV_STYLE_BG_GRAD_STOP);
 238:lvgl/lvgl/src/core/lv_obj_style_gen.h ****     return (lv_coord_t)v.num;
 239:lvgl/lvgl/src/core/lv_obj_style_gen.h **** }
 240:lvgl/lvgl/src/core/lv_obj_style_gen.h **** 
 241:lvgl/lvgl/src/core/lv_obj_style_gen.h **** static inline const void * lv_obj_get_style_bg_img_src(const struct _lv_obj_t * obj, uint32_t part)
 242:lvgl/lvgl/src/core/lv_obj_style_gen.h **** {
 243:lvgl/lvgl/src/core/lv_obj_style_gen.h ****     lv_style_value_t v = lv_obj_get_style_prop(obj, part, LV_STYLE_BG_IMG_SRC);
 244:lvgl/lvgl/src/core/lv_obj_style_gen.h ****     return (const void *)v.ptr;
 245:lvgl/lvgl/src/core/lv_obj_style_gen.h **** }
 246:lvgl/lvgl/src/core/lv_obj_style_gen.h **** 
 247:lvgl/lvgl/src/core/lv_obj_style_gen.h **** static inline lv_opa_t lv_obj_get_style_bg_img_opa(const struct _lv_obj_t * obj, uint32_t part)
 248:lvgl/lvgl/src/core/lv_obj_style_gen.h **** {
 249:lvgl/lvgl/src/core/lv_obj_style_gen.h ****     lv_style_value_t v = lv_obj_get_style_prop(obj, part, LV_STYLE_BG_IMG_OPA);
 250:lvgl/lvgl/src/core/lv_obj_style_gen.h ****     return (lv_opa_t)v.num;
 251:lvgl/lvgl/src/core/lv_obj_style_gen.h **** }
 252:lvgl/lvgl/src/core/lv_obj_style_gen.h **** 
 253:lvgl/lvgl/src/core/lv_obj_style_gen.h **** static inline lv_color_t lv_obj_get_style_bg_img_recolor(const struct _lv_obj_t * obj, uint32_t par
 254:lvgl/lvgl/src/core/lv_obj_style_gen.h **** {
 255:lvgl/lvgl/src/core/lv_obj_style_gen.h ****     lv_style_value_t v = lv_obj_get_style_prop(obj, part, LV_STYLE_BG_IMG_RECOLOR);
 256:lvgl/lvgl/src/core/lv_obj_style_gen.h ****     return v.color;
 257:lvgl/lvgl/src/core/lv_obj_style_gen.h **** }
 258:lvgl/lvgl/src/core/lv_obj_style_gen.h **** 
 259:lvgl/lvgl/src/core/lv_obj_style_gen.h **** static inline lv_color_t lv_obj_get_style_bg_img_recolor_filtered(const struct _lv_obj_t * obj, uin
 260:lvgl/lvgl/src/core/lv_obj_style_gen.h **** {
 261:lvgl/lvgl/src/core/lv_obj_style_gen.h ****     lv_style_value_t v = lv_obj_get_style_prop(obj, part, LV_STYLE_BG_IMG_RECOLOR_FILTERED);
 262:lvgl/lvgl/src/core/lv_obj_style_gen.h ****     return v.color;
 263:lvgl/lvgl/src/core/lv_obj_style_gen.h **** }
ARM GAS  C:\Users\gx\AppData\Local\Temp\cccIVLs9.s 			page 25


 264:lvgl/lvgl/src/core/lv_obj_style_gen.h **** 
 265:lvgl/lvgl/src/core/lv_obj_style_gen.h **** static inline lv_opa_t lv_obj_get_style_bg_img_recolor_opa(const struct _lv_obj_t * obj, uint32_t p
 266:lvgl/lvgl/src/core/lv_obj_style_gen.h **** {
 267:lvgl/lvgl/src/core/lv_obj_style_gen.h ****     lv_style_value_t v = lv_obj_get_style_prop(obj, part, LV_STYLE_BG_IMG_RECOLOR_OPA);
 268:lvgl/lvgl/src/core/lv_obj_style_gen.h ****     return (lv_opa_t)v.num;
 269:lvgl/lvgl/src/core/lv_obj_style_gen.h **** }
 270:lvgl/lvgl/src/core/lv_obj_style_gen.h **** 
 271:lvgl/lvgl/src/core/lv_obj_style_gen.h **** static inline bool lv_obj_get_style_bg_img_tiled(const struct _lv_obj_t * obj, uint32_t part)
 272:lvgl/lvgl/src/core/lv_obj_style_gen.h **** {
 273:lvgl/lvgl/src/core/lv_obj_style_gen.h ****     lv_style_value_t v = lv_obj_get_style_prop(obj, part, LV_STYLE_BG_IMG_TILED);
 274:lvgl/lvgl/src/core/lv_obj_style_gen.h ****     return (bool)v.num;
 275:lvgl/lvgl/src/core/lv_obj_style_gen.h **** }
 276:lvgl/lvgl/src/core/lv_obj_style_gen.h **** 
 277:lvgl/lvgl/src/core/lv_obj_style_gen.h **** static inline lv_color_t lv_obj_get_style_border_color(const struct _lv_obj_t * obj, uint32_t part)
 278:lvgl/lvgl/src/core/lv_obj_style_gen.h **** {
 279:lvgl/lvgl/src/core/lv_obj_style_gen.h ****     lv_style_value_t v = lv_obj_get_style_prop(obj, part, LV_STYLE_BORDER_COLOR);
 280:lvgl/lvgl/src/core/lv_obj_style_gen.h ****     return v.color;
 281:lvgl/lvgl/src/core/lv_obj_style_gen.h **** }
 282:lvgl/lvgl/src/core/lv_obj_style_gen.h **** 
 283:lvgl/lvgl/src/core/lv_obj_style_gen.h **** static inline lv_color_t lv_obj_get_style_border_color_filtered(const struct _lv_obj_t * obj, uint3
 284:lvgl/lvgl/src/core/lv_obj_style_gen.h **** {
 285:lvgl/lvgl/src/core/lv_obj_style_gen.h ****     lv_style_value_t v = lv_obj_get_style_prop(obj, part, LV_STYLE_BORDER_COLOR_FILTERED);
 286:lvgl/lvgl/src/core/lv_obj_style_gen.h ****     return v.color;
 287:lvgl/lvgl/src/core/lv_obj_style_gen.h **** }
 288:lvgl/lvgl/src/core/lv_obj_style_gen.h **** 
 289:lvgl/lvgl/src/core/lv_obj_style_gen.h **** static inline lv_opa_t lv_obj_get_style_border_opa(const struct _lv_obj_t * obj, uint32_t part)
 180              		.loc 2 289 24 view .LVU45
 181              	.LBB106:
 290:lvgl/lvgl/src/core/lv_obj_style_gen.h **** {
 291:lvgl/lvgl/src/core/lv_obj_style_gen.h ****     lv_style_value_t v = lv_obj_get_style_prop(obj, part, LV_STYLE_BORDER_OPA);
 182              		.loc 2 291 5 view .LVU46
 183              		.loc 2 291 26 is_stmt 0 view .LVU47
 184 0020 3122     		movs	r2, #49
 185 0022 4FF48031 		mov	r1, #65536
 186 0026 2846     		mov	r0, r5
 187 0028 FFF7FEFF 		bl	lv_obj_get_style_prop
 188              	.LVL16:
 292:lvgl/lvgl/src/core/lv_obj_style_gen.h ****     return (lv_opa_t)v.num;
 189              		.loc 2 292 5 is_stmt 1 view .LVU48
 190              		.loc 2 292 12 is_stmt 0 view .LVU49
 191 002c C0B2     		uxtb	r0, r0
 192              	.LVL17:
 193              		.loc 2 292 12 view .LVU50
 194              	.LBE106:
 195              	.LBE105:
 627:lvgl/lvgl/src/core/lv_obj.c ****     if(dsc->border_opa > LV_OPA_MIN) {
 196              		.loc 1 627 21 view .LVU51
 197 002e A077     		strb	r0, [r4, #30]
 628:lvgl/lvgl/src/core/lv_obj.c ****         dsc->border_width = lv_obj_get_style_border_width(obj, LV_PART_SCROLLBAR);
 198              		.loc 1 628 5 is_stmt 1 view .LVU52
 628:lvgl/lvgl/src/core/lv_obj.c ****         dsc->border_width = lv_obj_get_style_border_width(obj, LV_PART_SCROLLBAR);
 199              		.loc 1 628 7 is_stmt 0 view .LVU53
 200 0030 0228     		cmp	r0, #2
 201 0032 39D8     		bhi	.L21
 202              	.L12:
 638:lvgl/lvgl/src/core/lv_obj.c ****     if(dsc->shadow_opa > LV_OPA_MIN) {
 203              		.loc 1 638 5 is_stmt 1 view .LVU54
ARM GAS  C:\Users\gx\AppData\Local\Temp\cccIVLs9.s 			page 26


 204              	.LVL18:
 205              	.LBB107:
 206              	.LBI107:
 293:lvgl/lvgl/src/core/lv_obj_style_gen.h **** }
 294:lvgl/lvgl/src/core/lv_obj_style_gen.h **** 
 295:lvgl/lvgl/src/core/lv_obj_style_gen.h **** static inline lv_coord_t lv_obj_get_style_border_width(const struct _lv_obj_t * obj, uint32_t part)
 296:lvgl/lvgl/src/core/lv_obj_style_gen.h **** {
 297:lvgl/lvgl/src/core/lv_obj_style_gen.h ****     lv_style_value_t v = lv_obj_get_style_prop(obj, part, LV_STYLE_BORDER_WIDTH);
 298:lvgl/lvgl/src/core/lv_obj_style_gen.h ****     return (lv_coord_t)v.num;
 299:lvgl/lvgl/src/core/lv_obj_style_gen.h **** }
 300:lvgl/lvgl/src/core/lv_obj_style_gen.h **** 
 301:lvgl/lvgl/src/core/lv_obj_style_gen.h **** static inline lv_border_side_t lv_obj_get_style_border_side(const struct _lv_obj_t * obj, uint32_t 
 302:lvgl/lvgl/src/core/lv_obj_style_gen.h **** {
 303:lvgl/lvgl/src/core/lv_obj_style_gen.h ****     lv_style_value_t v = lv_obj_get_style_prop(obj, part, LV_STYLE_BORDER_SIDE);
 304:lvgl/lvgl/src/core/lv_obj_style_gen.h ****     return (lv_border_side_t)v.num;
 305:lvgl/lvgl/src/core/lv_obj_style_gen.h **** }
 306:lvgl/lvgl/src/core/lv_obj_style_gen.h **** 
 307:lvgl/lvgl/src/core/lv_obj_style_gen.h **** static inline bool lv_obj_get_style_border_post(const struct _lv_obj_t * obj, uint32_t part)
 308:lvgl/lvgl/src/core/lv_obj_style_gen.h **** {
 309:lvgl/lvgl/src/core/lv_obj_style_gen.h ****     lv_style_value_t v = lv_obj_get_style_prop(obj, part, LV_STYLE_BORDER_POST);
 310:lvgl/lvgl/src/core/lv_obj_style_gen.h ****     return (bool)v.num;
 311:lvgl/lvgl/src/core/lv_obj_style_gen.h **** }
 312:lvgl/lvgl/src/core/lv_obj_style_gen.h **** 
 313:lvgl/lvgl/src/core/lv_obj_style_gen.h **** static inline lv_color_t lv_obj_get_style_text_color(const struct _lv_obj_t * obj, uint32_t part)
 314:lvgl/lvgl/src/core/lv_obj_style_gen.h **** {
 315:lvgl/lvgl/src/core/lv_obj_style_gen.h ****     lv_style_value_t v = lv_obj_get_style_prop(obj, part, LV_STYLE_TEXT_COLOR);
 316:lvgl/lvgl/src/core/lv_obj_style_gen.h ****     return v.color;
 317:lvgl/lvgl/src/core/lv_obj_style_gen.h **** }
 318:lvgl/lvgl/src/core/lv_obj_style_gen.h **** 
 319:lvgl/lvgl/src/core/lv_obj_style_gen.h **** static inline lv_color_t lv_obj_get_style_text_color_filtered(const struct _lv_obj_t * obj, uint32_
 320:lvgl/lvgl/src/core/lv_obj_style_gen.h **** {
 321:lvgl/lvgl/src/core/lv_obj_style_gen.h ****     lv_style_value_t v = lv_obj_get_style_prop(obj, part, LV_STYLE_TEXT_COLOR_FILTERED);
 322:lvgl/lvgl/src/core/lv_obj_style_gen.h ****     return v.color;
 323:lvgl/lvgl/src/core/lv_obj_style_gen.h **** }
 324:lvgl/lvgl/src/core/lv_obj_style_gen.h **** 
 325:lvgl/lvgl/src/core/lv_obj_style_gen.h **** static inline lv_opa_t lv_obj_get_style_text_opa(const struct _lv_obj_t * obj, uint32_t part)
 326:lvgl/lvgl/src/core/lv_obj_style_gen.h **** {
 327:lvgl/lvgl/src/core/lv_obj_style_gen.h ****     lv_style_value_t v = lv_obj_get_style_prop(obj, part, LV_STYLE_TEXT_OPA);
 328:lvgl/lvgl/src/core/lv_obj_style_gen.h ****     return (lv_opa_t)v.num;
 329:lvgl/lvgl/src/core/lv_obj_style_gen.h **** }
 330:lvgl/lvgl/src/core/lv_obj_style_gen.h **** 
 331:lvgl/lvgl/src/core/lv_obj_style_gen.h **** static inline const lv_font_t * lv_obj_get_style_text_font(const struct _lv_obj_t * obj, uint32_t p
 332:lvgl/lvgl/src/core/lv_obj_style_gen.h **** {
 333:lvgl/lvgl/src/core/lv_obj_style_gen.h ****     lv_style_value_t v = lv_obj_get_style_prop(obj, part, LV_STYLE_TEXT_FONT);
 334:lvgl/lvgl/src/core/lv_obj_style_gen.h ****     return (const lv_font_t *)v.ptr;
 335:lvgl/lvgl/src/core/lv_obj_style_gen.h **** }
 336:lvgl/lvgl/src/core/lv_obj_style_gen.h **** 
 337:lvgl/lvgl/src/core/lv_obj_style_gen.h **** static inline lv_coord_t lv_obj_get_style_text_letter_space(const struct _lv_obj_t * obj, uint32_t 
 338:lvgl/lvgl/src/core/lv_obj_style_gen.h **** {
 339:lvgl/lvgl/src/core/lv_obj_style_gen.h ****     lv_style_value_t v = lv_obj_get_style_prop(obj, part, LV_STYLE_TEXT_LETTER_SPACE);
 340:lvgl/lvgl/src/core/lv_obj_style_gen.h ****     return (lv_coord_t)v.num;
 341:lvgl/lvgl/src/core/lv_obj_style_gen.h **** }
 342:lvgl/lvgl/src/core/lv_obj_style_gen.h **** 
 343:lvgl/lvgl/src/core/lv_obj_style_gen.h **** static inline lv_coord_t lv_obj_get_style_text_line_space(const struct _lv_obj_t * obj, uint32_t pa
 344:lvgl/lvgl/src/core/lv_obj_style_gen.h **** {
 345:lvgl/lvgl/src/core/lv_obj_style_gen.h ****     lv_style_value_t v = lv_obj_get_style_prop(obj, part, LV_STYLE_TEXT_LINE_SPACE);
 346:lvgl/lvgl/src/core/lv_obj_style_gen.h ****     return (lv_coord_t)v.num;
ARM GAS  C:\Users\gx\AppData\Local\Temp\cccIVLs9.s 			page 27


 347:lvgl/lvgl/src/core/lv_obj_style_gen.h **** }
 348:lvgl/lvgl/src/core/lv_obj_style_gen.h **** 
 349:lvgl/lvgl/src/core/lv_obj_style_gen.h **** static inline lv_text_decor_t lv_obj_get_style_text_decor(const struct _lv_obj_t * obj, uint32_t pa
 350:lvgl/lvgl/src/core/lv_obj_style_gen.h **** {
 351:lvgl/lvgl/src/core/lv_obj_style_gen.h ****     lv_style_value_t v = lv_obj_get_style_prop(obj, part, LV_STYLE_TEXT_DECOR);
 352:lvgl/lvgl/src/core/lv_obj_style_gen.h ****     return (lv_text_decor_t)v.num;
 353:lvgl/lvgl/src/core/lv_obj_style_gen.h **** }
 354:lvgl/lvgl/src/core/lv_obj_style_gen.h **** 
 355:lvgl/lvgl/src/core/lv_obj_style_gen.h **** static inline lv_text_align_t lv_obj_get_style_text_align(const struct _lv_obj_t * obj, uint32_t pa
 356:lvgl/lvgl/src/core/lv_obj_style_gen.h **** {
 357:lvgl/lvgl/src/core/lv_obj_style_gen.h ****     lv_style_value_t v = lv_obj_get_style_prop(obj, part, LV_STYLE_TEXT_ALIGN);
 358:lvgl/lvgl/src/core/lv_obj_style_gen.h ****     return (lv_text_align_t)v.num;
 359:lvgl/lvgl/src/core/lv_obj_style_gen.h **** }
 360:lvgl/lvgl/src/core/lv_obj_style_gen.h **** 
 361:lvgl/lvgl/src/core/lv_obj_style_gen.h **** static inline lv_opa_t lv_obj_get_style_img_opa(const struct _lv_obj_t * obj, uint32_t part)
 362:lvgl/lvgl/src/core/lv_obj_style_gen.h **** {
 363:lvgl/lvgl/src/core/lv_obj_style_gen.h ****     lv_style_value_t v = lv_obj_get_style_prop(obj, part, LV_STYLE_IMG_OPA);
 364:lvgl/lvgl/src/core/lv_obj_style_gen.h ****     return (lv_opa_t)v.num;
 365:lvgl/lvgl/src/core/lv_obj_style_gen.h **** }
 366:lvgl/lvgl/src/core/lv_obj_style_gen.h **** 
 367:lvgl/lvgl/src/core/lv_obj_style_gen.h **** static inline lv_color_t lv_obj_get_style_img_recolor(const struct _lv_obj_t * obj, uint32_t part)
 368:lvgl/lvgl/src/core/lv_obj_style_gen.h **** {
 369:lvgl/lvgl/src/core/lv_obj_style_gen.h ****     lv_style_value_t v = lv_obj_get_style_prop(obj, part, LV_STYLE_IMG_RECOLOR);
 370:lvgl/lvgl/src/core/lv_obj_style_gen.h ****     return v.color;
 371:lvgl/lvgl/src/core/lv_obj_style_gen.h **** }
 372:lvgl/lvgl/src/core/lv_obj_style_gen.h **** 
 373:lvgl/lvgl/src/core/lv_obj_style_gen.h **** static inline lv_color_t lv_obj_get_style_img_recolor_filtered(const struct _lv_obj_t * obj, uint32
 374:lvgl/lvgl/src/core/lv_obj_style_gen.h **** {
 375:lvgl/lvgl/src/core/lv_obj_style_gen.h ****     lv_style_value_t v = lv_obj_get_style_prop(obj, part, LV_STYLE_IMG_RECOLOR_FILTERED);
 376:lvgl/lvgl/src/core/lv_obj_style_gen.h ****     return v.color;
 377:lvgl/lvgl/src/core/lv_obj_style_gen.h **** }
 378:lvgl/lvgl/src/core/lv_obj_style_gen.h **** 
 379:lvgl/lvgl/src/core/lv_obj_style_gen.h **** static inline lv_opa_t lv_obj_get_style_img_recolor_opa(const struct _lv_obj_t * obj, uint32_t part
 380:lvgl/lvgl/src/core/lv_obj_style_gen.h **** {
 381:lvgl/lvgl/src/core/lv_obj_style_gen.h ****     lv_style_value_t v = lv_obj_get_style_prop(obj, part, LV_STYLE_IMG_RECOLOR_OPA);
 382:lvgl/lvgl/src/core/lv_obj_style_gen.h ****     return (lv_opa_t)v.num;
 383:lvgl/lvgl/src/core/lv_obj_style_gen.h **** }
 384:lvgl/lvgl/src/core/lv_obj_style_gen.h **** 
 385:lvgl/lvgl/src/core/lv_obj_style_gen.h **** static inline lv_coord_t lv_obj_get_style_outline_width(const struct _lv_obj_t * obj, uint32_t part
 386:lvgl/lvgl/src/core/lv_obj_style_gen.h **** {
 387:lvgl/lvgl/src/core/lv_obj_style_gen.h ****     lv_style_value_t v = lv_obj_get_style_prop(obj, part, LV_STYLE_OUTLINE_WIDTH);
 388:lvgl/lvgl/src/core/lv_obj_style_gen.h ****     return (lv_coord_t)v.num;
 389:lvgl/lvgl/src/core/lv_obj_style_gen.h **** }
 390:lvgl/lvgl/src/core/lv_obj_style_gen.h **** 
 391:lvgl/lvgl/src/core/lv_obj_style_gen.h **** static inline lv_color_t lv_obj_get_style_outline_color(const struct _lv_obj_t * obj, uint32_t part
 392:lvgl/lvgl/src/core/lv_obj_style_gen.h **** {
 393:lvgl/lvgl/src/core/lv_obj_style_gen.h ****     lv_style_value_t v = lv_obj_get_style_prop(obj, part, LV_STYLE_OUTLINE_COLOR);
 394:lvgl/lvgl/src/core/lv_obj_style_gen.h ****     return v.color;
 395:lvgl/lvgl/src/core/lv_obj_style_gen.h **** }
 396:lvgl/lvgl/src/core/lv_obj_style_gen.h **** 
 397:lvgl/lvgl/src/core/lv_obj_style_gen.h **** static inline lv_color_t lv_obj_get_style_outline_color_filtered(const struct _lv_obj_t * obj, uint
 398:lvgl/lvgl/src/core/lv_obj_style_gen.h **** {
 399:lvgl/lvgl/src/core/lv_obj_style_gen.h ****     lv_style_value_t v = lv_obj_get_style_prop(obj, part, LV_STYLE_OUTLINE_COLOR_FILTERED);
 400:lvgl/lvgl/src/core/lv_obj_style_gen.h ****     return v.color;
 401:lvgl/lvgl/src/core/lv_obj_style_gen.h **** }
 402:lvgl/lvgl/src/core/lv_obj_style_gen.h **** 
 403:lvgl/lvgl/src/core/lv_obj_style_gen.h **** static inline lv_opa_t lv_obj_get_style_outline_opa(const struct _lv_obj_t * obj, uint32_t part)
ARM GAS  C:\Users\gx\AppData\Local\Temp\cccIVLs9.s 			page 28


 404:lvgl/lvgl/src/core/lv_obj_style_gen.h **** {
 405:lvgl/lvgl/src/core/lv_obj_style_gen.h ****     lv_style_value_t v = lv_obj_get_style_prop(obj, part, LV_STYLE_OUTLINE_OPA);
 406:lvgl/lvgl/src/core/lv_obj_style_gen.h ****     return (lv_opa_t)v.num;
 407:lvgl/lvgl/src/core/lv_obj_style_gen.h **** }
 408:lvgl/lvgl/src/core/lv_obj_style_gen.h **** 
 409:lvgl/lvgl/src/core/lv_obj_style_gen.h **** static inline lv_coord_t lv_obj_get_style_outline_pad(const struct _lv_obj_t * obj, uint32_t part)
 410:lvgl/lvgl/src/core/lv_obj_style_gen.h **** {
 411:lvgl/lvgl/src/core/lv_obj_style_gen.h ****     lv_style_value_t v = lv_obj_get_style_prop(obj, part, LV_STYLE_OUTLINE_PAD);
 412:lvgl/lvgl/src/core/lv_obj_style_gen.h ****     return (lv_coord_t)v.num;
 413:lvgl/lvgl/src/core/lv_obj_style_gen.h **** }
 414:lvgl/lvgl/src/core/lv_obj_style_gen.h **** 
 415:lvgl/lvgl/src/core/lv_obj_style_gen.h **** static inline lv_coord_t lv_obj_get_style_shadow_width(const struct _lv_obj_t * obj, uint32_t part)
 416:lvgl/lvgl/src/core/lv_obj_style_gen.h **** {
 417:lvgl/lvgl/src/core/lv_obj_style_gen.h ****     lv_style_value_t v = lv_obj_get_style_prop(obj, part, LV_STYLE_SHADOW_WIDTH);
 418:lvgl/lvgl/src/core/lv_obj_style_gen.h ****     return (lv_coord_t)v.num;
 419:lvgl/lvgl/src/core/lv_obj_style_gen.h **** }
 420:lvgl/lvgl/src/core/lv_obj_style_gen.h **** 
 421:lvgl/lvgl/src/core/lv_obj_style_gen.h **** static inline lv_coord_t lv_obj_get_style_shadow_ofs_x(const struct _lv_obj_t * obj, uint32_t part)
 422:lvgl/lvgl/src/core/lv_obj_style_gen.h **** {
 423:lvgl/lvgl/src/core/lv_obj_style_gen.h ****     lv_style_value_t v = lv_obj_get_style_prop(obj, part, LV_STYLE_SHADOW_OFS_X);
 424:lvgl/lvgl/src/core/lv_obj_style_gen.h ****     return (lv_coord_t)v.num;
 425:lvgl/lvgl/src/core/lv_obj_style_gen.h **** }
 426:lvgl/lvgl/src/core/lv_obj_style_gen.h **** 
 427:lvgl/lvgl/src/core/lv_obj_style_gen.h **** static inline lv_coord_t lv_obj_get_style_shadow_ofs_y(const struct _lv_obj_t * obj, uint32_t part)
 428:lvgl/lvgl/src/core/lv_obj_style_gen.h **** {
 429:lvgl/lvgl/src/core/lv_obj_style_gen.h ****     lv_style_value_t v = lv_obj_get_style_prop(obj, part, LV_STYLE_SHADOW_OFS_Y);
 430:lvgl/lvgl/src/core/lv_obj_style_gen.h ****     return (lv_coord_t)v.num;
 431:lvgl/lvgl/src/core/lv_obj_style_gen.h **** }
 432:lvgl/lvgl/src/core/lv_obj_style_gen.h **** 
 433:lvgl/lvgl/src/core/lv_obj_style_gen.h **** static inline lv_coord_t lv_obj_get_style_shadow_spread(const struct _lv_obj_t * obj, uint32_t part
 434:lvgl/lvgl/src/core/lv_obj_style_gen.h **** {
 435:lvgl/lvgl/src/core/lv_obj_style_gen.h ****     lv_style_value_t v = lv_obj_get_style_prop(obj, part, LV_STYLE_SHADOW_SPREAD);
 436:lvgl/lvgl/src/core/lv_obj_style_gen.h ****     return (lv_coord_t)v.num;
 437:lvgl/lvgl/src/core/lv_obj_style_gen.h **** }
 438:lvgl/lvgl/src/core/lv_obj_style_gen.h **** 
 439:lvgl/lvgl/src/core/lv_obj_style_gen.h **** static inline lv_color_t lv_obj_get_style_shadow_color(const struct _lv_obj_t * obj, uint32_t part)
 440:lvgl/lvgl/src/core/lv_obj_style_gen.h **** {
 441:lvgl/lvgl/src/core/lv_obj_style_gen.h ****     lv_style_value_t v = lv_obj_get_style_prop(obj, part, LV_STYLE_SHADOW_COLOR);
 442:lvgl/lvgl/src/core/lv_obj_style_gen.h ****     return v.color;
 443:lvgl/lvgl/src/core/lv_obj_style_gen.h **** }
 444:lvgl/lvgl/src/core/lv_obj_style_gen.h **** 
 445:lvgl/lvgl/src/core/lv_obj_style_gen.h **** static inline lv_color_t lv_obj_get_style_shadow_color_filtered(const struct _lv_obj_t * obj, uint3
 446:lvgl/lvgl/src/core/lv_obj_style_gen.h **** {
 447:lvgl/lvgl/src/core/lv_obj_style_gen.h ****     lv_style_value_t v = lv_obj_get_style_prop(obj, part, LV_STYLE_SHADOW_COLOR_FILTERED);
 448:lvgl/lvgl/src/core/lv_obj_style_gen.h ****     return v.color;
 449:lvgl/lvgl/src/core/lv_obj_style_gen.h **** }
 450:lvgl/lvgl/src/core/lv_obj_style_gen.h **** 
 451:lvgl/lvgl/src/core/lv_obj_style_gen.h **** static inline lv_opa_t lv_obj_get_style_shadow_opa(const struct _lv_obj_t * obj, uint32_t part)
 207              		.loc 2 451 24 view .LVU55
 208              	.LBB108:
 452:lvgl/lvgl/src/core/lv_obj_style_gen.h **** {
 453:lvgl/lvgl/src/core/lv_obj_style_gen.h ****     lv_style_value_t v = lv_obj_get_style_prop(obj, part, LV_STYLE_SHADOW_OPA);
 209              		.loc 2 453 5 view .LVU56
 210              		.loc 2 453 26 is_stmt 0 view .LVU57
 211 0034 40F64502 		movw	r2, #2117
 212 0038 4FF48031 		mov	r1, #65536
 213 003c 2846     		mov	r0, r5
ARM GAS  C:\Users\gx\AppData\Local\Temp\cccIVLs9.s 			page 29


 214 003e FFF7FEFF 		bl	lv_obj_get_style_prop
 215              	.LVL19:
 454:lvgl/lvgl/src/core/lv_obj_style_gen.h ****     return (lv_opa_t)v.num;
 216              		.loc 2 454 5 is_stmt 1 view .LVU58
 217              		.loc 2 454 12 is_stmt 0 view .LVU59
 218 0042 C0B2     		uxtb	r0, r0
 219              	.LVL20:
 220              		.loc 2 454 12 view .LVU60
 221              	.LBE108:
 222              	.LBE107:
 638:lvgl/lvgl/src/core/lv_obj.c ****     if(dsc->shadow_opa > LV_OPA_MIN) {
 223              		.loc 1 638 21 view .LVU61
 224 0044 84F83200 		strb	r0, [r4, #50]
 639:lvgl/lvgl/src/core/lv_obj.c ****         dsc->shadow_width = lv_obj_get_style_shadow_width(obj, LV_PART_SCROLLBAR);
 225              		.loc 1 639 5 is_stmt 1 view .LVU62
 639:lvgl/lvgl/src/core/lv_obj.c ****         dsc->shadow_width = lv_obj_get_style_shadow_width(obj, LV_PART_SCROLLBAR);
 226              		.loc 1 639 7 is_stmt 0 view .LVU63
 227 0048 0228     		cmp	r0, #2
 228 004a 43D8     		bhi	.L22
 229              	.L14:
 649:lvgl/lvgl/src/core/lv_obj.c ****     if(opa < LV_OPA_MAX) {
 230              		.loc 1 649 5 is_stmt 1 view .LVU64
 231              	.LVL21:
 232              	.LBB109:
 233              	.LBI109:
 139:lvgl/lvgl/src/core/lv_obj_style_gen.h **** {
 234              		.loc 2 139 24 view .LVU65
 235              	.LBB110:
 141:lvgl/lvgl/src/core/lv_obj_style_gen.h ****     return (lv_opa_t)v.num;
 236              		.loc 2 141 5 view .LVU66
 141:lvgl/lvgl/src/core/lv_obj_style_gen.h ****     return (lv_opa_t)v.num;
 237              		.loc 2 141 26 is_stmt 0 view .LVU67
 238 004c 40F26242 		movw	r2, #1122
 239 0050 4FF48031 		mov	r1, #65536
 240 0054 2846     		mov	r0, r5
 241 0056 FFF7FEFF 		bl	lv_obj_get_style_prop
 242              	.LVL22:
 142:lvgl/lvgl/src/core/lv_obj_style_gen.h **** }
 243              		.loc 2 142 5 is_stmt 1 view .LVU68
 142:lvgl/lvgl/src/core/lv_obj_style_gen.h **** }
 244              		.loc 2 142 12 is_stmt 0 view .LVU69
 245 005a C3B2     		uxtb	r3, r0
 246              	.LVL23:
 142:lvgl/lvgl/src/core/lv_obj_style_gen.h **** }
 247              		.loc 2 142 12 view .LVU70
 248              	.LBE110:
 249              	.LBE109:
 650:lvgl/lvgl/src/core/lv_obj.c ****         dsc->bg_opa = (dsc->bg_opa * opa) >> 8;
 250              		.loc 1 650 5 is_stmt 1 view .LVU71
 650:lvgl/lvgl/src/core/lv_obj.c ****         dsc->bg_opa = (dsc->bg_opa * opa) >> 8;
 251              		.loc 1 650 7 is_stmt 0 view .LVU72
 252 005c FC2B     		cmp	r3, #252
 253 005e 0BD8     		bhi	.L16
 651:lvgl/lvgl/src/core/lv_obj.c ****         dsc->border_opa = (dsc->bg_opa * opa) >> 8;
 254              		.loc 1 651 9 is_stmt 1 view .LVU73
 651:lvgl/lvgl/src/core/lv_obj.c ****         dsc->border_opa = (dsc->bg_opa * opa) >> 8;
 255              		.loc 1 651 27 is_stmt 0 view .LVU74
ARM GAS  C:\Users\gx\AppData\Local\Temp\cccIVLs9.s 			page 30


 256 0060 A37A     		ldrb	r3, [r4, #10]	@ zero_extendqisi2
 257              	.LVL24:
 651:lvgl/lvgl/src/core/lv_obj.c ****         dsc->border_opa = (dsc->bg_opa * opa) >> 8;
 258              		.loc 1 651 27 view .LVU75
 259 0062 C0B2     		uxtb	r0, r0
 651:lvgl/lvgl/src/core/lv_obj.c ****         dsc->border_opa = (dsc->bg_opa * opa) >> 8;
 260              		.loc 1 651 36 view .LVU76
 261 0064 00FB03F3 		mul	r3, r0, r3
 651:lvgl/lvgl/src/core/lv_obj.c ****         dsc->border_opa = (dsc->bg_opa * opa) >> 8;
 262              		.loc 1 651 21 view .LVU77
 263 0068 1B0A     		lsrs	r3, r3, #8
 264 006a A372     		strb	r3, [r4, #10]
 652:lvgl/lvgl/src/core/lv_obj.c ****         dsc->shadow_opa = (dsc->bg_opa * opa) >> 8;
 265              		.loc 1 652 9 is_stmt 1 view .LVU78
 652:lvgl/lvgl/src/core/lv_obj.c ****         dsc->shadow_opa = (dsc->bg_opa * opa) >> 8;
 266              		.loc 1 652 40 is_stmt 0 view .LVU79
 267 006c 00FB03F0 		mul	r0, r0, r3
 268              	.LVL25:
 652:lvgl/lvgl/src/core/lv_obj.c ****         dsc->shadow_opa = (dsc->bg_opa * opa) >> 8;
 269              		.loc 1 652 25 view .LVU80
 270 0070 000A     		lsrs	r0, r0, #8
 271 0072 A077     		strb	r0, [r4, #30]
 653:lvgl/lvgl/src/core/lv_obj.c ****     }
 272              		.loc 1 653 9 is_stmt 1 view .LVU81
 653:lvgl/lvgl/src/core/lv_obj.c ****     }
 273              		.loc 1 653 25 is_stmt 0 view .LVU82
 274 0074 84F83200 		strb	r0, [r4, #50]
 275              	.L16:
 656:lvgl/lvgl/src/core/lv_obj.c ****         dsc->radius = lv_obj_get_style_radius(obj, LV_PART_SCROLLBAR);
 276              		.loc 1 656 5 is_stmt 1 view .LVU83
 656:lvgl/lvgl/src/core/lv_obj.c ****         dsc->radius = lv_obj_get_style_radius(obj, LV_PART_SCROLLBAR);
 277              		.loc 1 656 11 is_stmt 0 view .LVU84
 278 0078 A37A     		ldrb	r3, [r4, #10]	@ zero_extendqisi2
 656:lvgl/lvgl/src/core/lv_obj.c ****         dsc->radius = lv_obj_get_style_radius(obj, LV_PART_SCROLLBAR);
 279              		.loc 1 656 7 view .LVU85
 280 007a 23B9     		cbnz	r3, .L17
 656:lvgl/lvgl/src/core/lv_obj.c ****         dsc->radius = lv_obj_get_style_radius(obj, LV_PART_SCROLLBAR);
 281              		.loc 1 656 43 discriminator 1 view .LVU86
 282 007c A37F     		ldrb	r3, [r4, #30]	@ zero_extendqisi2
 656:lvgl/lvgl/src/core/lv_obj.c ****         dsc->radius = lv_obj_get_style_radius(obj, LV_PART_SCROLLBAR);
 283              		.loc 1 656 37 discriminator 1 view .LVU87
 284 007e 13B9     		cbnz	r3, .L17
 656:lvgl/lvgl/src/core/lv_obj.c ****         dsc->radius = lv_obj_get_style_radius(obj, LV_PART_SCROLLBAR);
 285              		.loc 1 656 79 discriminator 2 view .LVU88
 286 0080 94F83200 		ldrb	r0, [r4, #50]	@ zero_extendqisi2
 656:lvgl/lvgl/src/core/lv_obj.c ****         dsc->radius = lv_obj_get_style_radius(obj, LV_PART_SCROLLBAR);
 287              		.loc 1 656 73 discriminator 2 view .LVU89
 288 0084 38B1     		cbz	r0, .L18
 289              	.L17:
 657:lvgl/lvgl/src/core/lv_obj.c ****         return LV_RES_OK;
 290              		.loc 1 657 9 is_stmt 1 view .LVU90
 291              	.LVL26:
 292              	.LBB111:
 293              	.LBI111:
 127:lvgl/lvgl/src/core/lv_obj_style_gen.h **** {
 294              		.loc 2 127 26 view .LVU91
 295              	.LBB112:
ARM GAS  C:\Users\gx\AppData\Local\Temp\cccIVLs9.s 			page 31


 129:lvgl/lvgl/src/core/lv_obj_style_gen.h ****     return (lv_coord_t)v.num;
 296              		.loc 2 129 5 view .LVU92
 129:lvgl/lvgl/src/core/lv_obj_style_gen.h ****     return (lv_coord_t)v.num;
 297              		.loc 2 129 26 is_stmt 0 view .LVU93
 298 0086 6022     		movs	r2, #96
 299 0088 4FF48031 		mov	r1, #65536
 300 008c 2846     		mov	r0, r5
 301 008e FFF7FEFF 		bl	lv_obj_get_style_prop
 302              	.LVL27:
 130:lvgl/lvgl/src/core/lv_obj_style_gen.h **** }
 303              		.loc 2 130 5 is_stmt 1 view .LVU94
 130:lvgl/lvgl/src/core/lv_obj_style_gen.h **** }
 304              		.loc 2 130 5 is_stmt 0 view .LVU95
 305              	.LBE112:
 306              	.LBE111:
 657:lvgl/lvgl/src/core/lv_obj.c ****         return LV_RES_OK;
 307              		.loc 1 657 21 view .LVU96
 308 0092 2080     		strh	r0, [r4]	@ movhi
 658:lvgl/lvgl/src/core/lv_obj.c ****     } else {
 309              		.loc 1 658 9 is_stmt 1 view .LVU97
 658:lvgl/lvgl/src/core/lv_obj.c ****     } else {
 310              		.loc 1 658 16 is_stmt 0 view .LVU98
 311 0094 0120     		movs	r0, #1
 312              	.L18:
 666:lvgl/lvgl/src/core/lv_obj.c **** 
 313              		.loc 1 666 1 view .LVU99
 314 0096 38BD     		pop	{r3, r4, r5, pc}
 315              	.LVL28:
 316              	.L20:
 624:lvgl/lvgl/src/core/lv_obj.c ****     }
 317              		.loc 1 624 9 is_stmt 1 view .LVU100
 318              	.LBB113:
 319              	.LBI113:
 193:lvgl/lvgl/src/core/lv_obj_style_gen.h **** {
 320              		.loc 2 193 26 view .LVU101
 321              	.LBB114:
 195:lvgl/lvgl/src/core/lv_obj_style_gen.h ****     return v.color;
 322              		.loc 2 195 5 view .LVU102
 195:lvgl/lvgl/src/core/lv_obj_style_gen.h ****     return v.color;
 323              		.loc 2 195 26 is_stmt 0 view .LVU103
 324 0098 2022     		movs	r2, #32
 325 009a 4FF48031 		mov	r1, #65536
 326 009e 2846     		mov	r0, r5
 327 00a0 FFF7FEFF 		bl	lv_obj_get_style_prop
 328              	.LVL29:
 196:lvgl/lvgl/src/core/lv_obj_style_gen.h **** }
 329              		.loc 2 196 5 is_stmt 1 view .LVU104
 196:lvgl/lvgl/src/core/lv_obj_style_gen.h **** }
 330              		.loc 2 196 5 is_stmt 0 view .LVU105
 331              	.LBE114:
 332              	.LBE113:
 624:lvgl/lvgl/src/core/lv_obj.c ****     }
 333              		.loc 1 624 25 view .LVU106
 334 00a4 A080     		strh	r0, [r4, #4]	@ movhi
 335 00a6 BBE7     		b	.L11
 336              	.L21:
 629:lvgl/lvgl/src/core/lv_obj.c ****         if(dsc->border_width > 0) {
ARM GAS  C:\Users\gx\AppData\Local\Temp\cccIVLs9.s 			page 32


 337              		.loc 1 629 9 is_stmt 1 view .LVU107
 338              	.LVL30:
 339              	.LBB115:
 340              	.LBI115:
 295:lvgl/lvgl/src/core/lv_obj_style_gen.h **** {
 341              		.loc 2 295 26 view .LVU108
 342              	.LBB116:
 297:lvgl/lvgl/src/core/lv_obj_style_gen.h ****     return (lv_coord_t)v.num;
 343              		.loc 2 297 5 view .LVU109
 297:lvgl/lvgl/src/core/lv_obj_style_gen.h ****     return (lv_coord_t)v.num;
 344              		.loc 2 297 26 is_stmt 0 view .LVU110
 345 00a8 41F23202 		movw	r2, #4146
 346 00ac 4FF48031 		mov	r1, #65536
 347 00b0 2846     		mov	r0, r5
 348 00b2 FFF7FEFF 		bl	lv_obj_get_style_prop
 349              	.LVL31:
 298:lvgl/lvgl/src/core/lv_obj_style_gen.h **** }
 350              		.loc 2 298 5 is_stmt 1 view .LVU111
 298:lvgl/lvgl/src/core/lv_obj_style_gen.h **** }
 351              		.loc 2 298 12 is_stmt 0 view .LVU112
 352 00b6 00B2     		sxth	r0, r0
 353              	.LVL32:
 298:lvgl/lvgl/src/core/lv_obj_style_gen.h **** }
 354              		.loc 2 298 12 view .LVU113
 355              	.LBE116:
 356              	.LBE115:
 629:lvgl/lvgl/src/core/lv_obj.c ****         if(dsc->border_width > 0) {
 357              		.loc 1 629 27 view .LVU114
 358 00b8 A083     		strh	r0, [r4, #28]	@ movhi
 630:lvgl/lvgl/src/core/lv_obj.c ****             dsc->border_color = lv_obj_get_style_border_color(obj, LV_PART_SCROLLBAR);
 359              		.loc 1 630 9 is_stmt 1 view .LVU115
 630:lvgl/lvgl/src/core/lv_obj.c ****             dsc->border_color = lv_obj_get_style_border_color(obj, LV_PART_SCROLLBAR);
 360              		.loc 1 630 11 is_stmt 0 view .LVU116
 361 00ba 0028     		cmp	r0, #0
 362 00bc 02DC     		bgt	.L23
 633:lvgl/lvgl/src/core/lv_obj.c ****         }
 363              		.loc 1 633 13 is_stmt 1 view .LVU117
 633:lvgl/lvgl/src/core/lv_obj.c ****         }
 364              		.loc 1 633 29 is_stmt 0 view .LVU118
 365 00be 0023     		movs	r3, #0
 366 00c0 A377     		strb	r3, [r4, #30]
 367 00c2 B7E7     		b	.L12
 368              	.L23:
 631:lvgl/lvgl/src/core/lv_obj.c ****         } else {
 369              		.loc 1 631 13 is_stmt 1 view .LVU119
 370              	.LVL33:
 371              	.LBB117:
 372              	.LBI117:
 277:lvgl/lvgl/src/core/lv_obj_style_gen.h **** {
 373              		.loc 2 277 26 view .LVU120
 374              	.LBB118:
 279:lvgl/lvgl/src/core/lv_obj_style_gen.h ****     return v.color;
 375              		.loc 2 279 5 view .LVU121
 279:lvgl/lvgl/src/core/lv_obj_style_gen.h ****     return v.color;
 376              		.loc 2 279 26 is_stmt 0 view .LVU122
 377 00c4 3022     		movs	r2, #48
 378 00c6 4FF48031 		mov	r1, #65536
ARM GAS  C:\Users\gx\AppData\Local\Temp\cccIVLs9.s 			page 33


 379 00ca 2846     		mov	r0, r5
 380 00cc FFF7FEFF 		bl	lv_obj_get_style_prop
 381              	.LVL34:
 280:lvgl/lvgl/src/core/lv_obj_style_gen.h **** }
 382              		.loc 2 280 5 is_stmt 1 view .LVU123
 280:lvgl/lvgl/src/core/lv_obj_style_gen.h **** }
 383              		.loc 2 280 5 is_stmt 0 view .LVU124
 384              	.LBE118:
 385              	.LBE117:
 631:lvgl/lvgl/src/core/lv_obj.c ****         } else {
 386              		.loc 1 631 33 view .LVU125
 387 00d0 6083     		strh	r0, [r4, #26]	@ movhi
 388 00d2 AFE7     		b	.L12
 389              	.L22:
 640:lvgl/lvgl/src/core/lv_obj.c ****         if(dsc->shadow_width > 0) {
 390              		.loc 1 640 9 is_stmt 1 view .LVU126
 391              	.LVL35:
 392              	.LBB119:
 393              	.LBI119:
 415:lvgl/lvgl/src/core/lv_obj_style_gen.h **** {
 394              		.loc 2 415 26 view .LVU127
 395              	.LBB120:
 417:lvgl/lvgl/src/core/lv_obj_style_gen.h ****     return (lv_coord_t)v.num;
 396              		.loc 2 417 5 view .LVU128
 417:lvgl/lvgl/src/core/lv_obj_style_gen.h ****     return (lv_coord_t)v.num;
 397              		.loc 2 417 26 is_stmt 0 view .LVU129
 398 00d4 4FF40462 		mov	r2, #2112
 399 00d8 4FF48031 		mov	r1, #65536
 400 00dc 2846     		mov	r0, r5
 401 00de FFF7FEFF 		bl	lv_obj_get_style_prop
 402              	.LVL36:
 418:lvgl/lvgl/src/core/lv_obj_style_gen.h **** }
 403              		.loc 2 418 5 is_stmt 1 view .LVU130
 418:lvgl/lvgl/src/core/lv_obj_style_gen.h **** }
 404              		.loc 2 418 12 is_stmt 0 view .LVU131
 405 00e2 00B2     		sxth	r0, r0
 406              	.LVL37:
 418:lvgl/lvgl/src/core/lv_obj_style_gen.h **** }
 407              		.loc 2 418 12 view .LVU132
 408              	.LBE120:
 409              	.LBE119:
 640:lvgl/lvgl/src/core/lv_obj.c ****         if(dsc->shadow_width > 0) {
 410              		.loc 1 640 27 view .LVU133
 411 00e4 6085     		strh	r0, [r4, #42]	@ movhi
 641:lvgl/lvgl/src/core/lv_obj.c ****             dsc->shadow_spread = lv_obj_get_style_shadow_spread(obj, LV_PART_SCROLLBAR);
 412              		.loc 1 641 9 is_stmt 1 view .LVU134
 641:lvgl/lvgl/src/core/lv_obj.c ****             dsc->shadow_spread = lv_obj_get_style_shadow_spread(obj, LV_PART_SCROLLBAR);
 413              		.loc 1 641 11 is_stmt 0 view .LVU135
 414 00e6 0028     		cmp	r0, #0
 415 00e8 03DC     		bgt	.L24
 645:lvgl/lvgl/src/core/lv_obj.c ****         }
 416              		.loc 1 645 13 is_stmt 1 view .LVU136
 645:lvgl/lvgl/src/core/lv_obj.c ****         }
 417              		.loc 1 645 29 is_stmt 0 view .LVU137
 418 00ea 0023     		movs	r3, #0
 419 00ec 84F83230 		strb	r3, [r4, #50]
 420 00f0 ACE7     		b	.L14
ARM GAS  C:\Users\gx\AppData\Local\Temp\cccIVLs9.s 			page 34


 421              	.L24:
 642:lvgl/lvgl/src/core/lv_obj.c ****             dsc->shadow_color = lv_obj_get_style_shadow_color(obj, LV_PART_SCROLLBAR);
 422              		.loc 1 642 13 is_stmt 1 view .LVU138
 423              	.LVL38:
 424              	.LBB121:
 425              	.LBI121:
 433:lvgl/lvgl/src/core/lv_obj_style_gen.h **** {
 426              		.loc 2 433 26 view .LVU139
 427              	.LBB122:
 435:lvgl/lvgl/src/core/lv_obj_style_gen.h ****     return (lv_coord_t)v.num;
 428              		.loc 2 435 5 view .LVU140
 435:lvgl/lvgl/src/core/lv_obj_style_gen.h ****     return (lv_coord_t)v.num;
 429              		.loc 2 435 26 is_stmt 0 view .LVU141
 430 00f2 40F64302 		movw	r2, #2115
 431 00f6 4FF48031 		mov	r1, #65536
 432 00fa 2846     		mov	r0, r5
 433 00fc FFF7FEFF 		bl	lv_obj_get_style_prop
 434              	.LVL39:
 436:lvgl/lvgl/src/core/lv_obj_style_gen.h **** }
 435              		.loc 2 436 5 is_stmt 1 view .LVU142
 436:lvgl/lvgl/src/core/lv_obj_style_gen.h **** }
 436              		.loc 2 436 5 is_stmt 0 view .LVU143
 437              	.LBE122:
 438              	.LBE121:
 642:lvgl/lvgl/src/core/lv_obj.c ****             dsc->shadow_color = lv_obj_get_style_shadow_color(obj, LV_PART_SCROLLBAR);
 439              		.loc 1 642 32 view .LVU144
 440 0100 2086     		strh	r0, [r4, #48]	@ movhi
 643:lvgl/lvgl/src/core/lv_obj.c ****         } else {
 441              		.loc 1 643 13 is_stmt 1 view .LVU145
 442              	.LVL40:
 443              	.LBB123:
 444              	.LBI123:
 439:lvgl/lvgl/src/core/lv_obj_style_gen.h **** {
 445              		.loc 2 439 26 view .LVU146
 446              	.LBB124:
 441:lvgl/lvgl/src/core/lv_obj_style_gen.h ****     return v.color;
 447              		.loc 2 441 5 view .LVU147
 441:lvgl/lvgl/src/core/lv_obj_style_gen.h ****     return v.color;
 448              		.loc 2 441 26 is_stmt 0 view .LVU148
 449 0102 4422     		movs	r2, #68
 450 0104 4FF48031 		mov	r1, #65536
 451 0108 2846     		mov	r0, r5
 452 010a FFF7FEFF 		bl	lv_obj_get_style_prop
 453              	.LVL41:
 442:lvgl/lvgl/src/core/lv_obj_style_gen.h **** }
 454              		.loc 2 442 5 is_stmt 1 view .LVU149
 442:lvgl/lvgl/src/core/lv_obj_style_gen.h **** }
 455              		.loc 2 442 5 is_stmt 0 view .LVU150
 456              	.LBE124:
 457              	.LBE123:
 643:lvgl/lvgl/src/core/lv_obj.c ****         } else {
 458              		.loc 1 643 33 view .LVU151
 459 010e 2085     		strh	r0, [r4, #40]	@ movhi
 460 0110 9CE7     		b	.L14
 461              		.cfi_endproc
 462              	.LFE180:
 464              		.section	.text.draw_scrollbar,"ax",%progbits
ARM GAS  C:\Users\gx\AppData\Local\Temp\cccIVLs9.s 			page 35


 465              		.align	1
 466              		.syntax unified
 467              		.thumb
 468              		.thumb_func
 469              		.fpu fpv4-sp-d16
 471              	draw_scrollbar:
 472              	.LVL42:
 473              	.LFB179:
 580:lvgl/lvgl/src/core/lv_obj.c **** 
 474              		.loc 1 580 1 is_stmt 1 view -0
 475              		.cfi_startproc
 476              		@ args = 0, pretend = 0, frame = 136
 477              		@ frame_needed = 0, uses_anonymous_args = 0
 580:lvgl/lvgl/src/core/lv_obj.c **** 
 478              		.loc 1 580 1 is_stmt 0 view .LVU153
 479 0000 70B5     		push	{r4, r5, r6, lr}
 480              	.LCFI2:
 481              		.cfi_def_cfa_offset 16
 482              		.cfi_offset 4, -16
 483              		.cfi_offset 5, -12
 484              		.cfi_offset 6, -8
 485              		.cfi_offset 14, -4
 486 0002 A2B0     		sub	sp, sp, #136
 487              	.LCFI3:
 488              		.cfi_def_cfa_offset 152
 489 0004 0446     		mov	r4, r0
 490 0006 0D46     		mov	r5, r1
 582:lvgl/lvgl/src/core/lv_obj.c ****     lv_area_t ver_area;
 491              		.loc 1 582 5 is_stmt 1 view .LVU154
 583:lvgl/lvgl/src/core/lv_obj.c ****     lv_obj_get_scrollbar_area(obj, &hor_area, &ver_area);
 492              		.loc 1 583 5 view .LVU155
 584:lvgl/lvgl/src/core/lv_obj.c **** 
 493              		.loc 1 584 5 view .LVU156
 494 0008 1EAA     		add	r2, sp, #120
 495 000a 20A9     		add	r1, sp, #128
 496              	.LVL43:
 584:lvgl/lvgl/src/core/lv_obj.c **** 
 497              		.loc 1 584 5 is_stmt 0 view .LVU157
 498 000c FFF7FEFF 		bl	lv_obj_get_scrollbar_area
 499              	.LVL44:
 586:lvgl/lvgl/src/core/lv_obj.c **** 
 500              		.loc 1 586 5 is_stmt 1 view .LVU158
 586:lvgl/lvgl/src/core/lv_obj.c **** 
 501              		.loc 1 586 8 is_stmt 0 view .LVU159
 502 0010 20A8     		add	r0, sp, #128
 503 0012 FFF7FEFF 		bl	lv_area_get_size
 504              	.LVL45:
 586:lvgl/lvgl/src/core/lv_obj.c **** 
 505              		.loc 1 586 7 view .LVU160
 506 0016 18B9     		cbnz	r0, .L26
 586:lvgl/lvgl/src/core/lv_obj.c **** 
 507              		.loc 1 586 44 discriminator 1 view .LVU161
 508 0018 1EA8     		add	r0, sp, #120
 509 001a FFF7FEFF 		bl	lv_area_get_size
 510              	.LVL46:
 586:lvgl/lvgl/src/core/lv_obj.c **** 
 511              		.loc 1 586 41 discriminator 1 view .LVU162
ARM GAS  C:\Users\gx\AppData\Local\Temp\cccIVLs9.s 			page 36


 512 001e 28B1     		cbz	r0, .L25
 513              	.L26:
 588:lvgl/lvgl/src/core/lv_obj.c ****     lv_res_t sb_res = scrollbar_init_draw_dsc(obj, &draw_dsc);
 514              		.loc 1 588 5 is_stmt 1 view .LVU163
 589:lvgl/lvgl/src/core/lv_obj.c ****     if(sb_res != LV_RES_OK) return;
 515              		.loc 1 589 5 view .LVU164
 589:lvgl/lvgl/src/core/lv_obj.c ****     if(sb_res != LV_RES_OK) return;
 516              		.loc 1 589 23 is_stmt 0 view .LVU165
 517 0020 11A9     		add	r1, sp, #68
 518 0022 2046     		mov	r0, r4
 519 0024 FFF7FEFF 		bl	scrollbar_init_draw_dsc
 520              	.LVL47:
 590:lvgl/lvgl/src/core/lv_obj.c **** 
 521              		.loc 1 590 5 is_stmt 1 view .LVU166
 590:lvgl/lvgl/src/core/lv_obj.c **** 
 522              		.loc 1 590 7 is_stmt 0 view .LVU167
 523 0028 0128     		cmp	r0, #1
 524 002a 01D0     		beq	.L32
 525              	.LVL48:
 526              	.L25:
 611:lvgl/lvgl/src/core/lv_obj.c **** 
 527              		.loc 1 611 1 view .LVU168
 528 002c 22B0     		add	sp, sp, #136
 529              	.LCFI4:
 530              		.cfi_remember_state
 531              		.cfi_def_cfa_offset 16
 532              		@ sp needed
 533 002e 70BD     		pop	{r4, r5, r6, pc}
 534              	.LVL49:
 535              	.L32:
 536              	.LCFI5:
 537              		.cfi_restore_state
 592:lvgl/lvgl/src/core/lv_obj.c ****     lv_obj_draw_dsc_init(&part_dsc, clip_area);
 538              		.loc 1 592 5 is_stmt 1 view .LVU169
 593:lvgl/lvgl/src/core/lv_obj.c ****     part_dsc.class_p = MY_CLASS;
 539              		.loc 1 593 5 view .LVU170
 540 0030 2946     		mov	r1, r5
 541 0032 6846     		mov	r0, sp
 542              	.LVL50:
 593:lvgl/lvgl/src/core/lv_obj.c ****     part_dsc.class_p = MY_CLASS;
 543              		.loc 1 593 5 is_stmt 0 view .LVU171
 544 0034 FFF7FEFF 		bl	lv_obj_draw_dsc_init
 545              	.LVL51:
 594:lvgl/lvgl/src/core/lv_obj.c ****     part_dsc.type = LV_OBJ_DRAW_PART_SCROLLBAR;
 546              		.loc 1 594 5 is_stmt 1 view .LVU172
 594:lvgl/lvgl/src/core/lv_obj.c ****     part_dsc.type = LV_OBJ_DRAW_PART_SCROLLBAR;
 547              		.loc 1 594 22 is_stmt 0 view .LVU173
 548 0038 1A4B     		ldr	r3, .L34
 549 003a 0193     		str	r3, [sp, #4]
 595:lvgl/lvgl/src/core/lv_obj.c ****     part_dsc.rect_dsc = &draw_dsc;
 550              		.loc 1 595 5 is_stmt 1 view .LVU174
 595:lvgl/lvgl/src/core/lv_obj.c ****     part_dsc.rect_dsc = &draw_dsc;
 551              		.loc 1 595 19 is_stmt 0 view .LVU175
 552 003c 0223     		movs	r3, #2
 553 003e 0293     		str	r3, [sp, #8]
 596:lvgl/lvgl/src/core/lv_obj.c ****     part_dsc.part = LV_PART_SCROLLBAR;
 554              		.loc 1 596 5 is_stmt 1 view .LVU176
ARM GAS  C:\Users\gx\AppData\Local\Temp\cccIVLs9.s 			page 37


 596:lvgl/lvgl/src/core/lv_obj.c ****     part_dsc.part = LV_PART_SCROLLBAR;
 555              		.loc 1 596 23 is_stmt 0 view .LVU177
 556 0040 11AB     		add	r3, sp, #68
 557 0042 0493     		str	r3, [sp, #16]
 597:lvgl/lvgl/src/core/lv_obj.c **** 
 558              		.loc 1 597 5 is_stmt 1 view .LVU178
 597:lvgl/lvgl/src/core/lv_obj.c **** 
 559              		.loc 1 597 19 is_stmt 0 view .LVU179
 560 0044 4FF48033 		mov	r3, #65536
 561 0048 0C93     		str	r3, [sp, #48]
 599:lvgl/lvgl/src/core/lv_obj.c ****         part_dsc.draw_area = &hor_area;
 562              		.loc 1 599 5 is_stmt 1 view .LVU180
 599:lvgl/lvgl/src/core/lv_obj.c ****         part_dsc.draw_area = &hor_area;
 563              		.loc 1 599 8 is_stmt 0 view .LVU181
 564 004a 20A8     		add	r0, sp, #128
 565 004c FFF7FEFF 		bl	lv_area_get_size
 566              	.LVL52:
 599:lvgl/lvgl/src/core/lv_obj.c ****         part_dsc.draw_area = &hor_area;
 567              		.loc 1 599 7 view .LVU182
 568 0050 B0B9     		cbnz	r0, .L33
 569              	.L28:
 605:lvgl/lvgl/src/core/lv_obj.c ****         part_dsc.draw_area = &ver_area;
 570              		.loc 1 605 5 is_stmt 1 view .LVU183
 605:lvgl/lvgl/src/core/lv_obj.c ****         part_dsc.draw_area = &ver_area;
 571              		.loc 1 605 8 is_stmt 0 view .LVU184
 572 0052 1EA8     		add	r0, sp, #120
 573 0054 FFF7FEFF 		bl	lv_area_get_size
 574              	.LVL53:
 605:lvgl/lvgl/src/core/lv_obj.c ****         part_dsc.draw_area = &ver_area;
 575              		.loc 1 605 7 view .LVU185
 576 0058 0028     		cmp	r0, #0
 577 005a E7D0     		beq	.L25
 606:lvgl/lvgl/src/core/lv_obj.c ****         lv_event_send(obj, LV_EVENT_DRAW_PART_BEGIN, &part_dsc);
 578              		.loc 1 606 9 is_stmt 1 view .LVU186
 606:lvgl/lvgl/src/core/lv_obj.c ****         lv_event_send(obj, LV_EVENT_DRAW_PART_BEGIN, &part_dsc);
 579              		.loc 1 606 28 is_stmt 0 view .LVU187
 580 005c 1EAE     		add	r6, sp, #120
 581 005e 0396     		str	r6, [sp, #12]
 607:lvgl/lvgl/src/core/lv_obj.c ****         lv_draw_rect(&ver_area, clip_area, &draw_dsc);
 582              		.loc 1 607 9 is_stmt 1 view .LVU188
 583 0060 6A46     		mov	r2, sp
 584 0062 1A21     		movs	r1, #26
 585 0064 2046     		mov	r0, r4
 586 0066 FFF7FEFF 		bl	lv_event_send
 587              	.LVL54:
 608:lvgl/lvgl/src/core/lv_obj.c ****         lv_event_send(obj, LV_EVENT_DRAW_PART_END, &part_dsc);
 588              		.loc 1 608 9 view .LVU189
 589 006a 11AA     		add	r2, sp, #68
 590 006c 2946     		mov	r1, r5
 591 006e 3046     		mov	r0, r6
 592 0070 FFF7FEFF 		bl	lv_draw_rect
 593              	.LVL55:
 609:lvgl/lvgl/src/core/lv_obj.c ****     }
 594              		.loc 1 609 9 view .LVU190
 595 0074 6A46     		mov	r2, sp
 596 0076 1B21     		movs	r1, #27
 597 0078 2046     		mov	r0, r4
ARM GAS  C:\Users\gx\AppData\Local\Temp\cccIVLs9.s 			page 38


 598 007a FFF7FEFF 		bl	lv_event_send
 599              	.LVL56:
 600 007e D5E7     		b	.L25
 601              	.L33:
 600:lvgl/lvgl/src/core/lv_obj.c ****         lv_event_send(obj, LV_EVENT_DRAW_PART_BEGIN, &part_dsc);
 602              		.loc 1 600 9 view .LVU191
 600:lvgl/lvgl/src/core/lv_obj.c ****         lv_event_send(obj, LV_EVENT_DRAW_PART_BEGIN, &part_dsc);
 603              		.loc 1 600 28 is_stmt 0 view .LVU192
 604 0080 20AE     		add	r6, sp, #128
 605 0082 0396     		str	r6, [sp, #12]
 601:lvgl/lvgl/src/core/lv_obj.c ****         lv_draw_rect(&hor_area, clip_area, &draw_dsc);
 606              		.loc 1 601 9 is_stmt 1 view .LVU193
 607 0084 6A46     		mov	r2, sp
 608 0086 1A21     		movs	r1, #26
 609 0088 2046     		mov	r0, r4
 610 008a FFF7FEFF 		bl	lv_event_send
 611              	.LVL57:
 602:lvgl/lvgl/src/core/lv_obj.c ****         lv_event_send(obj, LV_EVENT_DRAW_PART_END, &part_dsc);
 612              		.loc 1 602 9 view .LVU194
 613 008e 11AA     		add	r2, sp, #68
 614 0090 2946     		mov	r1, r5
 615 0092 3046     		mov	r0, r6
 616 0094 FFF7FEFF 		bl	lv_draw_rect
 617              	.LVL58:
 603:lvgl/lvgl/src/core/lv_obj.c ****     }
 618              		.loc 1 603 9 view .LVU195
 619 0098 6A46     		mov	r2, sp
 620 009a 1B21     		movs	r1, #27
 621 009c 2046     		mov	r0, r4
 622 009e FFF7FEFF 		bl	lv_event_send
 623              	.LVL59:
 624 00a2 D6E7     		b	.L28
 625              	.L35:
 626              		.align	2
 627              	.L34:
 628 00a4 00000000 		.word	.LANCHOR0
 629              		.cfi_endproc
 630              	.LFE179:
 632              		.section	.text.lv_obj_draw,"ax",%progbits
 633              		.align	1
 634              		.syntax unified
 635              		.thumb
 636              		.thumb_func
 637              		.fpu fpv4-sp-d16
 639              	lv_obj_draw:
 640              	.LVL60:
 641              	.LFB178:
 439:lvgl/lvgl/src/core/lv_obj.c ****     lv_event_code_t code = lv_event_get_code(e);
 642              		.loc 1 439 1 view -0
 643              		.cfi_startproc
 644              		@ args = 0, pretend = 0, frame = 128
 645              		@ frame_needed = 0, uses_anonymous_args = 0
 439:lvgl/lvgl/src/core/lv_obj.c ****     lv_event_code_t code = lv_event_get_code(e);
 646              		.loc 1 439 1 is_stmt 0 view .LVU197
 647 0000 2DE9F041 		push	{r4, r5, r6, r7, r8, lr}
 648              	.LCFI6:
 649              		.cfi_def_cfa_offset 24
ARM GAS  C:\Users\gx\AppData\Local\Temp\cccIVLs9.s 			page 39


 650              		.cfi_offset 4, -24
 651              		.cfi_offset 5, -20
 652              		.cfi_offset 6, -16
 653              		.cfi_offset 7, -12
 654              		.cfi_offset 8, -8
 655              		.cfi_offset 14, -4
 656 0004 A0B0     		sub	sp, sp, #128
 657              	.LCFI7:
 658              		.cfi_def_cfa_offset 152
 659 0006 0646     		mov	r6, r0
 440:lvgl/lvgl/src/core/lv_obj.c ****     lv_obj_t * obj = lv_event_get_target(e);
 660              		.loc 1 440 5 is_stmt 1 view .LVU198
 440:lvgl/lvgl/src/core/lv_obj.c ****     lv_obj_t * obj = lv_event_get_target(e);
 661              		.loc 1 440 28 is_stmt 0 view .LVU199
 662 0008 FFF7FEFF 		bl	lv_event_get_code
 663              	.LVL61:
 440:lvgl/lvgl/src/core/lv_obj.c ****     lv_obj_t * obj = lv_event_get_target(e);
 664              		.loc 1 440 28 view .LVU200
 665 000c 0546     		mov	r5, r0
 666              	.LVL62:
 441:lvgl/lvgl/src/core/lv_obj.c ****     if(code == LV_EVENT_COVER_CHECK) {
 667              		.loc 1 441 5 is_stmt 1 view .LVU201
 441:lvgl/lvgl/src/core/lv_obj.c ****     if(code == LV_EVENT_COVER_CHECK) {
 668              		.loc 1 441 22 is_stmt 0 view .LVU202
 669 000e 3046     		mov	r0, r6
 670 0010 FFF7FEFF 		bl	lv_event_get_target
 671              	.LVL63:
 672 0014 0446     		mov	r4, r0
 673              	.LVL64:
 442:lvgl/lvgl/src/core/lv_obj.c ****         lv_cover_check_info_t * info = lv_event_get_param(e);
 674              		.loc 1 442 5 is_stmt 1 view .LVU203
 442:lvgl/lvgl/src/core/lv_obj.c ****         lv_cover_check_info_t * info = lv_event_get_param(e);
 675              		.loc 1 442 7 is_stmt 0 view .LVU204
 676 0016 122D     		cmp	r5, #18
 677 0018 07D0     		beq	.L50
 485:lvgl/lvgl/src/core/lv_obj.c ****         const lv_area_t * clip_area = lv_event_get_param(e);
 678              		.loc 1 485 10 is_stmt 1 view .LVU205
 485:lvgl/lvgl/src/core/lv_obj.c ****         const lv_area_t * clip_area = lv_event_get_param(e);
 679              		.loc 1 485 12 is_stmt 0 view .LVU206
 680 001a 152D     		cmp	r5, #21
 681 001c 6CD0     		beq	.L51
 532:lvgl/lvgl/src/core/lv_obj.c ****         const lv_area_t * clip_area = lv_event_get_param(e);
 682              		.loc 1 532 10 is_stmt 1 view .LVU207
 532:lvgl/lvgl/src/core/lv_obj.c ****         const lv_area_t * clip_area = lv_event_get_param(e);
 683              		.loc 1 532 12 is_stmt 0 view .LVU208
 684 001e 182D     		cmp	r5, #24
 685 0020 00F0E380 		beq	.L52
 686              	.LVL65:
 687              	.L36:
 577:lvgl/lvgl/src/core/lv_obj.c **** 
 688              		.loc 1 577 1 view .LVU209
 689 0024 20B0     		add	sp, sp, #128
 690              	.LCFI8:
 691              		.cfi_remember_state
 692              		.cfi_def_cfa_offset 24
 693              		@ sp needed
 694 0026 BDE8F081 		pop	{r4, r5, r6, r7, r8, pc}
ARM GAS  C:\Users\gx\AppData\Local\Temp\cccIVLs9.s 			page 40


 695              	.LVL66:
 696              	.L50:
 697              	.LCFI9:
 698              		.cfi_restore_state
 699              	.LBB125:
 443:lvgl/lvgl/src/core/lv_obj.c ****         if(info->res == LV_COVER_RES_MASKED) return;
 700              		.loc 1 443 9 is_stmt 1 view .LVU210
 443:lvgl/lvgl/src/core/lv_obj.c ****         if(info->res == LV_COVER_RES_MASKED) return;
 701              		.loc 1 443 40 is_stmt 0 view .LVU211
 702 002a 3046     		mov	r0, r6
 703              	.LVL67:
 443:lvgl/lvgl/src/core/lv_obj.c ****         if(info->res == LV_COVER_RES_MASKED) return;
 704              		.loc 1 443 40 view .LVU212
 705 002c FFF7FEFF 		bl	lv_event_get_param
 706              	.LVL68:
 707 0030 0546     		mov	r5, r0
 708              	.LVL69:
 444:lvgl/lvgl/src/core/lv_obj.c ****         if(lv_obj_get_style_clip_corner(obj, LV_PART_MAIN)) {
 709              		.loc 1 444 9 is_stmt 1 view .LVU213
 444:lvgl/lvgl/src/core/lv_obj.c ****         if(lv_obj_get_style_clip_corner(obj, LV_PART_MAIN)) {
 710              		.loc 1 444 16 is_stmt 0 view .LVU214
 711 0032 0378     		ldrb	r3, [r0]	@ zero_extendqisi2
 444:lvgl/lvgl/src/core/lv_obj.c ****         if(lv_obj_get_style_clip_corner(obj, LV_PART_MAIN)) {
 712              		.loc 1 444 11 view .LVU215
 713 0034 022B     		cmp	r3, #2
 714 0036 F5D0     		beq	.L36
 445:lvgl/lvgl/src/core/lv_obj.c ****             info->res = LV_COVER_RES_MASKED;
 715              		.loc 1 445 9 is_stmt 1 view .LVU216
 716              	.LVL70:
 717              	.LBB126:
 718              	.LBI126:
 133:lvgl/lvgl/src/core/lv_obj_style_gen.h **** {
 719              		.loc 2 133 20 view .LVU217
 720              	.LBB127:
 135:lvgl/lvgl/src/core/lv_obj_style_gen.h ****     return (bool)v.num;
 721              		.loc 2 135 5 view .LVU218
 135:lvgl/lvgl/src/core/lv_obj_style_gen.h ****     return (bool)v.num;
 722              		.loc 2 135 26 is_stmt 0 view .LVU219
 723 0038 6122     		movs	r2, #97
 724 003a 0021     		movs	r1, #0
 725 003c 2046     		mov	r0, r4
 726              	.LVL71:
 135:lvgl/lvgl/src/core/lv_obj_style_gen.h ****     return (bool)v.num;
 727              		.loc 2 135 26 view .LVU220
 728 003e FFF7FEFF 		bl	lv_obj_get_style_prop
 729              	.LVL72:
 136:lvgl/lvgl/src/core/lv_obj_style_gen.h **** }
 730              		.loc 2 136 5 is_stmt 1 view .LVU221
 136:lvgl/lvgl/src/core/lv_obj_style_gen.h **** }
 731              		.loc 2 136 5 is_stmt 0 view .LVU222
 732              	.LBE127:
 733              	.LBE126:
 445:lvgl/lvgl/src/core/lv_obj.c ****             info->res = LV_COVER_RES_MASKED;
 734              		.loc 1 445 11 view .LVU223
 735 0042 10B1     		cbz	r0, .L39
 446:lvgl/lvgl/src/core/lv_obj.c ****             return;
 736              		.loc 1 446 13 is_stmt 1 view .LVU224
ARM GAS  C:\Users\gx\AppData\Local\Temp\cccIVLs9.s 			page 41


 446:lvgl/lvgl/src/core/lv_obj.c ****             return;
 737              		.loc 1 446 23 is_stmt 0 view .LVU225
 738 0044 0223     		movs	r3, #2
 739 0046 2B70     		strb	r3, [r5]
 447:lvgl/lvgl/src/core/lv_obj.c ****         }
 740              		.loc 1 447 13 is_stmt 1 view .LVU226
 741 0048 ECE7     		b	.L36
 742              	.L39:
 451:lvgl/lvgl/src/core/lv_obj.c ****         lv_coord_t w = lv_obj_get_style_transform_width(obj, LV_PART_MAIN);
 743              		.loc 1 451 9 view .LVU227
 744              	.LVL73:
 745              	.LBB128:
 746              	.LBI128:
 127:lvgl/lvgl/src/core/lv_obj_style_gen.h **** {
 747              		.loc 2 127 26 view .LVU228
 748              	.LBB129:
 129:lvgl/lvgl/src/core/lv_obj_style_gen.h ****     return (lv_coord_t)v.num;
 749              		.loc 2 129 5 view .LVU229
 129:lvgl/lvgl/src/core/lv_obj_style_gen.h ****     return (lv_coord_t)v.num;
 750              		.loc 2 129 26 is_stmt 0 view .LVU230
 751 004a 6022     		movs	r2, #96
 752 004c 0021     		movs	r1, #0
 753 004e 2046     		mov	r0, r4
 754 0050 FFF7FEFF 		bl	lv_obj_get_style_prop
 755              	.LVL74:
 130:lvgl/lvgl/src/core/lv_obj_style_gen.h **** }
 756              		.loc 2 130 5 is_stmt 1 view .LVU231
 130:lvgl/lvgl/src/core/lv_obj_style_gen.h **** }
 757              		.loc 2 130 12 is_stmt 0 view .LVU232
 758 0054 07B2     		sxth	r7, r0
 759              	.LVL75:
 130:lvgl/lvgl/src/core/lv_obj_style_gen.h **** }
 760              		.loc 2 130 12 view .LVU233
 761              	.LBE129:
 762              	.LBE128:
 452:lvgl/lvgl/src/core/lv_obj.c ****         lv_coord_t h = lv_obj_get_style_transform_height(obj, LV_PART_MAIN);
 763              		.loc 1 452 9 is_stmt 1 view .LVU234
 764              	.LBB130:
 765              	.LBI130:
  55:lvgl/lvgl/src/core/lv_obj_style_gen.h **** {
 766              		.loc 2 55 26 view .LVU235
 767              	.LBB131:
  57:lvgl/lvgl/src/core/lv_obj_style_gen.h ****     return (lv_coord_t)v.num;
 768              		.loc 2 57 5 view .LVU236
  57:lvgl/lvgl/src/core/lv_obj_style_gen.h ****     return (lv_coord_t)v.num;
 769              		.loc 2 57 26 is_stmt 0 view .LVU237
 770 0056 40F60A02 		movw	r2, #2058
 771 005a 0021     		movs	r1, #0
 772 005c 2046     		mov	r0, r4
 773 005e FFF7FEFF 		bl	lv_obj_get_style_prop
 774              	.LVL76:
 775 0062 0646     		mov	r6, r0
 776              	.LVL77:
  58:lvgl/lvgl/src/core/lv_obj_style_gen.h **** }
 777              		.loc 2 58 5 is_stmt 1 view .LVU238
  58:lvgl/lvgl/src/core/lv_obj_style_gen.h **** }
 778              		.loc 2 58 5 is_stmt 0 view .LVU239
ARM GAS  C:\Users\gx\AppData\Local\Temp\cccIVLs9.s 			page 42


 779              	.LBE131:
 780              	.LBE130:
 453:lvgl/lvgl/src/core/lv_obj.c ****         lv_area_t coords;
 781              		.loc 1 453 9 is_stmt 1 view .LVU240
 782              	.LBB132:
 783              	.LBI132:
  61:lvgl/lvgl/src/core/lv_obj_style_gen.h **** {
 784              		.loc 2 61 26 view .LVU241
 785              	.LBB133:
  63:lvgl/lvgl/src/core/lv_obj_style_gen.h ****     return (lv_coord_t)v.num;
 786              		.loc 2 63 5 view .LVU242
  63:lvgl/lvgl/src/core/lv_obj_style_gen.h ****     return (lv_coord_t)v.num;
 787              		.loc 2 63 26 is_stmt 0 view .LVU243
 788 0064 40F60B02 		movw	r2, #2059
 789 0068 0021     		movs	r1, #0
 790 006a 2046     		mov	r0, r4
 791 006c FFF7FEFF 		bl	lv_obj_get_style_prop
 792              	.LVL78:
  64:lvgl/lvgl/src/core/lv_obj_style_gen.h **** }
 793              		.loc 2 64 5 is_stmt 1 view .LVU244
  64:lvgl/lvgl/src/core/lv_obj_style_gen.h **** }
 794              		.loc 2 64 5 is_stmt 0 view .LVU245
 795              	.LBE133:
 796              	.LBE132:
 454:lvgl/lvgl/src/core/lv_obj.c ****         lv_area_copy(&coords, &obj->coords);
 797              		.loc 1 454 9 is_stmt 1 view .LVU246
 455:lvgl/lvgl/src/core/lv_obj.c ****         coords.x1 -= w;
 798              		.loc 1 455 9 view .LVU247
 799              	.LBB134:
 800              	.LBI134:
 801              		.file 3 "d:\\practise\\f407_disc\\lvgl\\lvgl\\src\\misc\\lv_area.h"
   1:d:\practise\f407_disc\lvgl\lvgl\src\misc\lv_area.h **** /**
   2:d:\practise\f407_disc\lvgl\lvgl\src\misc\lv_area.h ****  * @file lv_area.h
   3:d:\practise\f407_disc\lvgl\lvgl\src\misc\lv_area.h ****  *
   4:d:\practise\f407_disc\lvgl\lvgl\src\misc\lv_area.h ****  */
   5:d:\practise\f407_disc\lvgl\lvgl\src\misc\lv_area.h **** 
   6:d:\practise\f407_disc\lvgl\lvgl\src\misc\lv_area.h **** #ifndef LV_AREA_H
   7:d:\practise\f407_disc\lvgl\lvgl\src\misc\lv_area.h **** #define LV_AREA_H
   8:d:\practise\f407_disc\lvgl\lvgl\src\misc\lv_area.h **** 
   9:d:\practise\f407_disc\lvgl\lvgl\src\misc\lv_area.h **** #ifdef __cplusplus
  10:d:\practise\f407_disc\lvgl\lvgl\src\misc\lv_area.h **** extern "C" {
  11:d:\practise\f407_disc\lvgl\lvgl\src\misc\lv_area.h **** #endif
  12:d:\practise\f407_disc\lvgl\lvgl\src\misc\lv_area.h **** 
  13:d:\practise\f407_disc\lvgl\lvgl\src\misc\lv_area.h **** /*********************
  14:d:\practise\f407_disc\lvgl\lvgl\src\misc\lv_area.h ****  *      INCLUDES
  15:d:\practise\f407_disc\lvgl\lvgl\src\misc\lv_area.h ****  *********************/
  16:d:\practise\f407_disc\lvgl\lvgl\src\misc\lv_area.h **** #include "../lv_conf_internal.h"
  17:d:\practise\f407_disc\lvgl\lvgl\src\misc\lv_area.h **** #include <string.h>
  18:d:\practise\f407_disc\lvgl\lvgl\src\misc\lv_area.h **** #include <stdbool.h>
  19:d:\practise\f407_disc\lvgl\lvgl\src\misc\lv_area.h **** #include <stdint.h>
  20:d:\practise\f407_disc\lvgl\lvgl\src\misc\lv_area.h **** 
  21:d:\practise\f407_disc\lvgl\lvgl\src\misc\lv_area.h **** /*********************
  22:d:\practise\f407_disc\lvgl\lvgl\src\misc\lv_area.h ****  *      DEFINES
  23:d:\practise\f407_disc\lvgl\lvgl\src\misc\lv_area.h ****  *********************/
  24:d:\practise\f407_disc\lvgl\lvgl\src\misc\lv_area.h **** 
  25:d:\practise\f407_disc\lvgl\lvgl\src\misc\lv_area.h **** #define _LV_COORD_MAX_REDUCE    8192
  26:d:\practise\f407_disc\lvgl\lvgl\src\misc\lv_area.h **** 
ARM GAS  C:\Users\gx\AppData\Local\Temp\cccIVLs9.s 			page 43


  27:d:\practise\f407_disc\lvgl\lvgl\src\misc\lv_area.h **** #if LV_USE_LARGE_COORD
  28:d:\practise\f407_disc\lvgl\lvgl\src\misc\lv_area.h **** typedef int32_t lv_coord_t;
  29:d:\practise\f407_disc\lvgl\lvgl\src\misc\lv_area.h **** #else
  30:d:\practise\f407_disc\lvgl\lvgl\src\misc\lv_area.h **** typedef int16_t lv_coord_t;
  31:d:\practise\f407_disc\lvgl\lvgl\src\misc\lv_area.h **** #endif
  32:d:\practise\f407_disc\lvgl\lvgl\src\misc\lv_area.h **** 
  33:d:\practise\f407_disc\lvgl\lvgl\src\misc\lv_area.h **** /*To allow some special values in the end reduce the max value*/
  34:d:\practise\f407_disc\lvgl\lvgl\src\misc\lv_area.h **** #define LV_COORD_MAX ((lv_coord_t)((uint32_t)((uint32_t)1 << (8 * sizeof(lv_coord_t) - 1)) - _LV_CO
  35:d:\practise\f407_disc\lvgl\lvgl\src\misc\lv_area.h **** #define LV_COORD_MIN (-LV_COORD_MAX)
  36:d:\practise\f407_disc\lvgl\lvgl\src\misc\lv_area.h **** 
  37:d:\practise\f407_disc\lvgl\lvgl\src\misc\lv_area.h **** LV_EXPORT_CONST_INT(LV_COORD_MAX);
  38:d:\practise\f407_disc\lvgl\lvgl\src\misc\lv_area.h **** LV_EXPORT_CONST_INT(LV_COORD_MIN);
  39:d:\practise\f407_disc\lvgl\lvgl\src\misc\lv_area.h **** 
  40:d:\practise\f407_disc\lvgl\lvgl\src\misc\lv_area.h **** /**********************
  41:d:\practise\f407_disc\lvgl\lvgl\src\misc\lv_area.h ****  *      TYPEDEFS
  42:d:\practise\f407_disc\lvgl\lvgl\src\misc\lv_area.h ****  **********************/
  43:d:\practise\f407_disc\lvgl\lvgl\src\misc\lv_area.h **** 
  44:d:\practise\f407_disc\lvgl\lvgl\src\misc\lv_area.h **** /**
  45:d:\practise\f407_disc\lvgl\lvgl\src\misc\lv_area.h ****  * Represents a point on the screen.
  46:d:\practise\f407_disc\lvgl\lvgl\src\misc\lv_area.h ****  */
  47:d:\practise\f407_disc\lvgl\lvgl\src\misc\lv_area.h **** typedef struct {
  48:d:\practise\f407_disc\lvgl\lvgl\src\misc\lv_area.h ****     lv_coord_t x;
  49:d:\practise\f407_disc\lvgl\lvgl\src\misc\lv_area.h ****     lv_coord_t y;
  50:d:\practise\f407_disc\lvgl\lvgl\src\misc\lv_area.h **** } lv_point_t;
  51:d:\practise\f407_disc\lvgl\lvgl\src\misc\lv_area.h **** 
  52:d:\practise\f407_disc\lvgl\lvgl\src\misc\lv_area.h **** /** Represents an area of the screen.*/
  53:d:\practise\f407_disc\lvgl\lvgl\src\misc\lv_area.h **** typedef struct {
  54:d:\practise\f407_disc\lvgl\lvgl\src\misc\lv_area.h ****     lv_coord_t x1;
  55:d:\practise\f407_disc\lvgl\lvgl\src\misc\lv_area.h ****     lv_coord_t y1;
  56:d:\practise\f407_disc\lvgl\lvgl\src\misc\lv_area.h ****     lv_coord_t x2;
  57:d:\practise\f407_disc\lvgl\lvgl\src\misc\lv_area.h ****     lv_coord_t y2;
  58:d:\practise\f407_disc\lvgl\lvgl\src\misc\lv_area.h **** } lv_area_t;
  59:d:\practise\f407_disc\lvgl\lvgl\src\misc\lv_area.h **** 
  60:d:\practise\f407_disc\lvgl\lvgl\src\misc\lv_area.h **** /** Alignments*/
  61:d:\practise\f407_disc\lvgl\lvgl\src\misc\lv_area.h **** enum {
  62:d:\practise\f407_disc\lvgl\lvgl\src\misc\lv_area.h ****     LV_ALIGN_DEFAULT = 0,
  63:d:\practise\f407_disc\lvgl\lvgl\src\misc\lv_area.h ****     LV_ALIGN_TOP_LEFT,
  64:d:\practise\f407_disc\lvgl\lvgl\src\misc\lv_area.h ****     LV_ALIGN_TOP_MID,
  65:d:\practise\f407_disc\lvgl\lvgl\src\misc\lv_area.h ****     LV_ALIGN_TOP_RIGHT,
  66:d:\practise\f407_disc\lvgl\lvgl\src\misc\lv_area.h ****     LV_ALIGN_BOTTOM_LEFT,
  67:d:\practise\f407_disc\lvgl\lvgl\src\misc\lv_area.h ****     LV_ALIGN_BOTTOM_MID,
  68:d:\practise\f407_disc\lvgl\lvgl\src\misc\lv_area.h ****     LV_ALIGN_BOTTOM_RIGHT,
  69:d:\practise\f407_disc\lvgl\lvgl\src\misc\lv_area.h ****     LV_ALIGN_LEFT_MID,
  70:d:\practise\f407_disc\lvgl\lvgl\src\misc\lv_area.h ****     LV_ALIGN_RIGHT_MID,
  71:d:\practise\f407_disc\lvgl\lvgl\src\misc\lv_area.h ****     LV_ALIGN_CENTER,
  72:d:\practise\f407_disc\lvgl\lvgl\src\misc\lv_area.h **** 
  73:d:\practise\f407_disc\lvgl\lvgl\src\misc\lv_area.h ****     LV_ALIGN_OUT_TOP_LEFT,
  74:d:\practise\f407_disc\lvgl\lvgl\src\misc\lv_area.h ****     LV_ALIGN_OUT_TOP_MID,
  75:d:\practise\f407_disc\lvgl\lvgl\src\misc\lv_area.h ****     LV_ALIGN_OUT_TOP_RIGHT,
  76:d:\practise\f407_disc\lvgl\lvgl\src\misc\lv_area.h ****     LV_ALIGN_OUT_BOTTOM_LEFT,
  77:d:\practise\f407_disc\lvgl\lvgl\src\misc\lv_area.h ****     LV_ALIGN_OUT_BOTTOM_MID,
  78:d:\practise\f407_disc\lvgl\lvgl\src\misc\lv_area.h ****     LV_ALIGN_OUT_BOTTOM_RIGHT,
  79:d:\practise\f407_disc\lvgl\lvgl\src\misc\lv_area.h ****     LV_ALIGN_OUT_LEFT_TOP,
  80:d:\practise\f407_disc\lvgl\lvgl\src\misc\lv_area.h ****     LV_ALIGN_OUT_LEFT_MID,
  81:d:\practise\f407_disc\lvgl\lvgl\src\misc\lv_area.h ****     LV_ALIGN_OUT_LEFT_BOTTOM,
  82:d:\practise\f407_disc\lvgl\lvgl\src\misc\lv_area.h ****     LV_ALIGN_OUT_RIGHT_TOP,
  83:d:\practise\f407_disc\lvgl\lvgl\src\misc\lv_area.h ****     LV_ALIGN_OUT_RIGHT_MID,
ARM GAS  C:\Users\gx\AppData\Local\Temp\cccIVLs9.s 			page 44


  84:d:\practise\f407_disc\lvgl\lvgl\src\misc\lv_area.h ****     LV_ALIGN_OUT_RIGHT_BOTTOM,
  85:d:\practise\f407_disc\lvgl\lvgl\src\misc\lv_area.h **** };
  86:d:\practise\f407_disc\lvgl\lvgl\src\misc\lv_area.h **** typedef uint8_t lv_align_t;
  87:d:\practise\f407_disc\lvgl\lvgl\src\misc\lv_area.h **** 
  88:d:\practise\f407_disc\lvgl\lvgl\src\misc\lv_area.h **** enum {
  89:d:\practise\f407_disc\lvgl\lvgl\src\misc\lv_area.h ****     LV_DIR_NONE     = 0x00,
  90:d:\practise\f407_disc\lvgl\lvgl\src\misc\lv_area.h ****     LV_DIR_LEFT     = (1 << 0),
  91:d:\practise\f407_disc\lvgl\lvgl\src\misc\lv_area.h ****     LV_DIR_RIGHT    = (1 << 1),
  92:d:\practise\f407_disc\lvgl\lvgl\src\misc\lv_area.h ****     LV_DIR_TOP      = (1 << 2),
  93:d:\practise\f407_disc\lvgl\lvgl\src\misc\lv_area.h ****     LV_DIR_BOTTOM   = (1 << 3),
  94:d:\practise\f407_disc\lvgl\lvgl\src\misc\lv_area.h ****     LV_DIR_HOR      = LV_DIR_LEFT | LV_DIR_RIGHT,
  95:d:\practise\f407_disc\lvgl\lvgl\src\misc\lv_area.h ****     LV_DIR_VER      = LV_DIR_TOP | LV_DIR_BOTTOM,
  96:d:\practise\f407_disc\lvgl\lvgl\src\misc\lv_area.h ****     LV_DIR_ALL      = LV_DIR_HOR | LV_DIR_VER,
  97:d:\practise\f407_disc\lvgl\lvgl\src\misc\lv_area.h **** };
  98:d:\practise\f407_disc\lvgl\lvgl\src\misc\lv_area.h **** 
  99:d:\practise\f407_disc\lvgl\lvgl\src\misc\lv_area.h **** typedef uint8_t lv_dir_t;
 100:d:\practise\f407_disc\lvgl\lvgl\src\misc\lv_area.h **** 
 101:d:\practise\f407_disc\lvgl\lvgl\src\misc\lv_area.h **** /**********************
 102:d:\practise\f407_disc\lvgl\lvgl\src\misc\lv_area.h ****  * GLOBAL PROTOTYPES
 103:d:\practise\f407_disc\lvgl\lvgl\src\misc\lv_area.h ****  **********************/
 104:d:\practise\f407_disc\lvgl\lvgl\src\misc\lv_area.h **** 
 105:d:\practise\f407_disc\lvgl\lvgl\src\misc\lv_area.h **** /**
 106:d:\practise\f407_disc\lvgl\lvgl\src\misc\lv_area.h ****  * Initialize an area
 107:d:\practise\f407_disc\lvgl\lvgl\src\misc\lv_area.h ****  * @param area_p pointer to an area
 108:d:\practise\f407_disc\lvgl\lvgl\src\misc\lv_area.h ****  * @param x1 left coordinate of the area
 109:d:\practise\f407_disc\lvgl\lvgl\src\misc\lv_area.h ****  * @param y1 top coordinate of the area
 110:d:\practise\f407_disc\lvgl\lvgl\src\misc\lv_area.h ****  * @param x2 right coordinate of the area
 111:d:\practise\f407_disc\lvgl\lvgl\src\misc\lv_area.h ****  * @param y2 bottom coordinate of the area
 112:d:\practise\f407_disc\lvgl\lvgl\src\misc\lv_area.h ****  */
 113:d:\practise\f407_disc\lvgl\lvgl\src\misc\lv_area.h **** void lv_area_set(lv_area_t * area_p, lv_coord_t x1, lv_coord_t y1, lv_coord_t x2, lv_coord_t y2);
 114:d:\practise\f407_disc\lvgl\lvgl\src\misc\lv_area.h **** 
 115:d:\practise\f407_disc\lvgl\lvgl\src\misc\lv_area.h **** /**
 116:d:\practise\f407_disc\lvgl\lvgl\src\misc\lv_area.h ****  * Copy an area
 117:d:\practise\f407_disc\lvgl\lvgl\src\misc\lv_area.h ****  * @param dest pointer to the destination area
 118:d:\practise\f407_disc\lvgl\lvgl\src\misc\lv_area.h ****  * @param src pointer to the source area
 119:d:\practise\f407_disc\lvgl\lvgl\src\misc\lv_area.h ****  */
 120:d:\practise\f407_disc\lvgl\lvgl\src\misc\lv_area.h **** inline static void lv_area_copy(lv_area_t * dest, const lv_area_t * src)
 802              		.loc 3 120 20 view .LVU248
 803              	.LBB135:
 121:d:\practise\f407_disc\lvgl\lvgl\src\misc\lv_area.h **** {
 122:d:\practise\f407_disc\lvgl\lvgl\src\misc\lv_area.h ****     dest->x1 = src->x1;
 804              		.loc 3 122 5 view .LVU249
 805              		.loc 3 122 19 is_stmt 0 view .LVU250
 806 0070 B4F91410 		ldrsh	r1, [r4, #20]
 123:d:\practise\f407_disc\lvgl\lvgl\src\misc\lv_area.h ****     dest->y1 = src->y1;
 807              		.loc 3 123 5 is_stmt 1 view .LVU251
 808              		.loc 3 123 19 is_stmt 0 view .LVU252
 809 0074 B4F91620 		ldrsh	r2, [r4, #22]
 124:d:\practise\f407_disc\lvgl\lvgl\src\misc\lv_area.h ****     dest->x2 = src->x2;
 810              		.loc 3 124 5 is_stmt 1 view .LVU253
 811              		.loc 3 124 19 is_stmt 0 view .LVU254
 812 0078 B4F918E0 		ldrsh	lr, [r4, #24]
 125:d:\practise\f407_disc\lvgl\lvgl\src\misc\lv_area.h ****     dest->y2 = src->y2;
 813              		.loc 3 125 5 is_stmt 1 view .LVU255
 814              		.loc 3 125 19 is_stmt 0 view .LVU256
 815 007c B4F91AC0 		ldrsh	ip, [r4, #26]
 816              	.LVL79:
ARM GAS  C:\Users\gx\AppData\Local\Temp\cccIVLs9.s 			page 45


 817              		.loc 3 125 19 view .LVU257
 818              	.LBE135:
 819              	.LBE134:
 456:lvgl/lvgl/src/core/lv_obj.c ****         coords.x2 += w;
 820              		.loc 1 456 9 is_stmt 1 view .LVU258
 456:lvgl/lvgl/src/core/lv_obj.c ****         coords.x2 += w;
 821              		.loc 1 456 19 is_stmt 0 view .LVU259
 822 0080 B3B2     		uxth	r3, r6
 823 0082 C91A     		subs	r1, r1, r3
 824 0084 ADF83C10 		strh	r1, [sp, #60]	@ movhi
 457:lvgl/lvgl/src/core/lv_obj.c ****         coords.y1 -= h;
 825              		.loc 1 457 9 is_stmt 1 view .LVU260
 457:lvgl/lvgl/src/core/lv_obj.c ****         coords.y1 -= h;
 826              		.loc 1 457 19 is_stmt 0 view .LVU261
 827 0088 7344     		add	r3, r3, lr
 828 008a ADF84030 		strh	r3, [sp, #64]	@ movhi
 458:lvgl/lvgl/src/core/lv_obj.c ****         coords.y2 += h;
 829              		.loc 1 458 9 is_stmt 1 view .LVU262
 458:lvgl/lvgl/src/core/lv_obj.c ****         coords.y2 += h;
 830              		.loc 1 458 19 is_stmt 0 view .LVU263
 831 008e 80B2     		uxth	r0, r0
 458:lvgl/lvgl/src/core/lv_obj.c ****         coords.y2 += h;
 832              		.loc 1 458 19 view .LVU264
 833 0090 121A     		subs	r2, r2, r0
 834 0092 ADF83E20 		strh	r2, [sp, #62]	@ movhi
 459:lvgl/lvgl/src/core/lv_obj.c **** 
 835              		.loc 1 459 9 is_stmt 1 view .LVU265
 459:lvgl/lvgl/src/core/lv_obj.c **** 
 836              		.loc 1 459 19 is_stmt 0 view .LVU266
 837 0096 6044     		add	r0, r0, ip
 838              	.LVL80:
 459:lvgl/lvgl/src/core/lv_obj.c **** 
 839              		.loc 1 459 19 view .LVU267
 840 0098 ADF84200 		strh	r0, [sp, #66]	@ movhi
 461:lvgl/lvgl/src/core/lv_obj.c ****             info->res = LV_COVER_RES_NOT_COVER;
 841              		.loc 1 461 9 is_stmt 1 view .LVU268
 461:lvgl/lvgl/src/core/lv_obj.c ****             info->res = LV_COVER_RES_NOT_COVER;
 842              		.loc 1 461 12 is_stmt 0 view .LVU269
 843 009c 3A46     		mov	r2, r7
 844 009e 0FA9     		add	r1, sp, #60
 845 00a0 6868     		ldr	r0, [r5, #4]
 846 00a2 FFF7FEFF 		bl	_lv_area_is_in
 847              	.LVL81:
 461:lvgl/lvgl/src/core/lv_obj.c ****             info->res = LV_COVER_RES_NOT_COVER;
 848              		.loc 1 461 11 view .LVU270
 849 00a6 10B9     		cbnz	r0, .L40
 462:lvgl/lvgl/src/core/lv_obj.c ****            return;
 850              		.loc 1 462 13 is_stmt 1 view .LVU271
 462:lvgl/lvgl/src/core/lv_obj.c ****            return;
 851              		.loc 1 462 23 is_stmt 0 view .LVU272
 852 00a8 0123     		movs	r3, #1
 853 00aa 2B70     		strb	r3, [r5]
 463:lvgl/lvgl/src/core/lv_obj.c ****         }
 854              		.loc 1 463 12 is_stmt 1 view .LVU273
 855 00ac BAE7     		b	.L36
 856              	.L40:
 466:lvgl/lvgl/src/core/lv_obj.c ****             info->res = LV_COVER_RES_NOT_COVER;
ARM GAS  C:\Users\gx\AppData\Local\Temp\cccIVLs9.s 			page 46


 857              		.loc 1 466 9 view .LVU274
 858              	.LVL82:
 859              	.LBB136:
 860              	.LBI136:
 205:lvgl/lvgl/src/core/lv_obj_style_gen.h **** {
 861              		.loc 2 205 24 view .LVU275
 862              	.LBB137:
 207:lvgl/lvgl/src/core/lv_obj_style_gen.h ****     return (lv_opa_t)v.num;
 863              		.loc 2 207 5 view .LVU276
 207:lvgl/lvgl/src/core/lv_obj_style_gen.h ****     return (lv_opa_t)v.num;
 864              		.loc 2 207 26 is_stmt 0 view .LVU277
 865 00ae 2122     		movs	r2, #33
 866 00b0 0021     		movs	r1, #0
 867 00b2 2046     		mov	r0, r4
 868 00b4 FFF7FEFF 		bl	lv_obj_get_style_prop
 869              	.LVL83:
 208:lvgl/lvgl/src/core/lv_obj_style_gen.h **** }
 870              		.loc 2 208 5 is_stmt 1 view .LVU278
 208:lvgl/lvgl/src/core/lv_obj_style_gen.h **** }
 871              		.loc 2 208 12 is_stmt 0 view .LVU279
 872 00b8 C0B2     		uxtb	r0, r0
 873              	.LVL84:
 208:lvgl/lvgl/src/core/lv_obj_style_gen.h **** }
 874              		.loc 2 208 12 view .LVU280
 875              	.LBE137:
 876              	.LBE136:
 466:lvgl/lvgl/src/core/lv_obj.c ****             info->res = LV_COVER_RES_NOT_COVER;
 877              		.loc 1 466 11 view .LVU281
 878 00ba FC28     		cmp	r0, #252
 879 00bc 02D8     		bhi	.L41
 467:lvgl/lvgl/src/core/lv_obj.c ****             return;
 880              		.loc 1 467 13 is_stmt 1 view .LVU282
 467:lvgl/lvgl/src/core/lv_obj.c ****             return;
 881              		.loc 1 467 23 is_stmt 0 view .LVU283
 882 00be 0123     		movs	r3, #1
 883 00c0 2B70     		strb	r3, [r5]
 468:lvgl/lvgl/src/core/lv_obj.c ****         }
 884              		.loc 1 468 13 is_stmt 1 view .LVU284
 885 00c2 AFE7     		b	.L36
 886              	.L41:
 472:lvgl/lvgl/src/core/lv_obj.c ****             info->res = LV_COVER_RES_NOT_COVER;
 887              		.loc 1 472 9 view .LVU285
 888              	.LVL85:
 889              	.LBB138:
 890              	.LBI138:
 175:lvgl/lvgl/src/core/lv_obj_style_gen.h **** {
 891              		.loc 2 175 31 view .LVU286
 892              	.LBB139:
 177:lvgl/lvgl/src/core/lv_obj_style_gen.h ****     return (lv_blend_mode_t)v.num;
 893              		.loc 2 177 5 view .LVU287
 177:lvgl/lvgl/src/core/lv_obj_style_gen.h ****     return (lv_blend_mode_t)v.num;
 894              		.loc 2 177 26 is_stmt 0 view .LVU288
 895 00c4 6822     		movs	r2, #104
 896 00c6 0021     		movs	r1, #0
 897 00c8 2046     		mov	r0, r4
 898 00ca FFF7FEFF 		bl	lv_obj_get_style_prop
 899              	.LVL86:
ARM GAS  C:\Users\gx\AppData\Local\Temp\cccIVLs9.s 			page 47


 178:lvgl/lvgl/src/core/lv_obj_style_gen.h **** }
 900              		.loc 2 178 5 is_stmt 1 view .LVU289
 178:lvgl/lvgl/src/core/lv_obj_style_gen.h **** }
 901              		.loc 2 178 5 is_stmt 0 view .LVU290
 902              	.LBE139:
 903              	.LBE138:
 472:lvgl/lvgl/src/core/lv_obj.c ****             info->res = LV_COVER_RES_NOT_COVER;
 904              		.loc 1 472 11 view .LVU291
 905 00ce 10F0FF0F 		tst	r0, #255
 906 00d2 02D0     		beq	.L42
 473:lvgl/lvgl/src/core/lv_obj.c ****             return;
 907              		.loc 1 473 13 is_stmt 1 view .LVU292
 473:lvgl/lvgl/src/core/lv_obj.c ****             return;
 908              		.loc 1 473 23 is_stmt 0 view .LVU293
 909 00d4 0123     		movs	r3, #1
 910 00d6 2B70     		strb	r3, [r5]
 474:lvgl/lvgl/src/core/lv_obj.c ****         }
 911              		.loc 1 474 13 is_stmt 1 view .LVU294
 912 00d8 A4E7     		b	.L36
 913              	.L42:
 477:lvgl/lvgl/src/core/lv_obj.c ****             info->res = LV_COVER_RES_NOT_COVER;
 914              		.loc 1 477 9 view .LVU295
 915              	.LVL87:
 916              	.LBB140:
 917              	.LBI140:
 139:lvgl/lvgl/src/core/lv_obj_style_gen.h **** {
 918              		.loc 2 139 24 view .LVU296
 919              	.LBB141:
 141:lvgl/lvgl/src/core/lv_obj_style_gen.h ****     return (lv_opa_t)v.num;
 920              		.loc 2 141 5 view .LVU297
 141:lvgl/lvgl/src/core/lv_obj_style_gen.h ****     return (lv_opa_t)v.num;
 921              		.loc 2 141 26 is_stmt 0 view .LVU298
 922 00da 40F26242 		movw	r2, #1122
 923 00de 0021     		movs	r1, #0
 924 00e0 2046     		mov	r0, r4
 925 00e2 FFF7FEFF 		bl	lv_obj_get_style_prop
 926              	.LVL88:
 142:lvgl/lvgl/src/core/lv_obj_style_gen.h **** }
 927              		.loc 2 142 5 is_stmt 1 view .LVU299
 142:lvgl/lvgl/src/core/lv_obj_style_gen.h **** }
 928              		.loc 2 142 12 is_stmt 0 view .LVU300
 929 00e6 C3B2     		uxtb	r3, r0
 930              	.LVL89:
 142:lvgl/lvgl/src/core/lv_obj_style_gen.h **** }
 931              		.loc 2 142 12 view .LVU301
 932              	.LBE141:
 933              	.LBE140:
 477:lvgl/lvgl/src/core/lv_obj.c ****             info->res = LV_COVER_RES_NOT_COVER;
 934              		.loc 1 477 11 view .LVU302
 935 00e8 FC2B     		cmp	r3, #252
 936 00ea 02D9     		bls	.L53
 482:lvgl/lvgl/src/core/lv_obj.c **** 
 937              		.loc 1 482 9 is_stmt 1 view .LVU303
 482:lvgl/lvgl/src/core/lv_obj.c **** 
 938              		.loc 1 482 19 is_stmt 0 view .LVU304
 939 00ec 0023     		movs	r3, #0
 940 00ee 2B70     		strb	r3, [r5]
ARM GAS  C:\Users\gx\AppData\Local\Temp\cccIVLs9.s 			page 48


 941              	.LBE125:
 942 00f0 98E7     		b	.L36
 943              	.L53:
 944              	.LBB142:
 478:lvgl/lvgl/src/core/lv_obj.c ****             return;
 945              		.loc 1 478 13 is_stmt 1 view .LVU305
 478:lvgl/lvgl/src/core/lv_obj.c ****             return;
 946              		.loc 1 478 23 is_stmt 0 view .LVU306
 947 00f2 0123     		movs	r3, #1
 948 00f4 2B70     		strb	r3, [r5]
 479:lvgl/lvgl/src/core/lv_obj.c ****         }
 949              		.loc 1 479 13 is_stmt 1 view .LVU307
 950 00f6 95E7     		b	.L36
 951              	.LVL90:
 952              	.L51:
 479:lvgl/lvgl/src/core/lv_obj.c ****         }
 953              		.loc 1 479 13 is_stmt 0 view .LVU308
 954              	.LBE142:
 955              	.LBB143:
 486:lvgl/lvgl/src/core/lv_obj.c ****         lv_draw_rect_dsc_t draw_dsc;
 956              		.loc 1 486 9 is_stmt 1 view .LVU309
 486:lvgl/lvgl/src/core/lv_obj.c ****         lv_draw_rect_dsc_t draw_dsc;
 957              		.loc 1 486 39 is_stmt 0 view .LVU310
 958 00f8 3046     		mov	r0, r6
 959              	.LVL91:
 486:lvgl/lvgl/src/core/lv_obj.c ****         lv_draw_rect_dsc_t draw_dsc;
 960              		.loc 1 486 39 view .LVU311
 961 00fa FFF7FEFF 		bl	lv_event_get_param
 962              	.LVL92:
 963 00fe 0646     		mov	r6, r0
 964              	.LVL93:
 487:lvgl/lvgl/src/core/lv_obj.c ****         lv_draw_rect_dsc_init(&draw_dsc);
 965              		.loc 1 487 9 is_stmt 1 view .LVU312
 488:lvgl/lvgl/src/core/lv_obj.c ****         /*If the border is drawn later disable loading its properties*/
 966              		.loc 1 488 9 view .LVU313
 967 0100 02A8     		add	r0, sp, #8
 968              	.LVL94:
 488:lvgl/lvgl/src/core/lv_obj.c ****         /*If the border is drawn later disable loading its properties*/
 969              		.loc 1 488 9 is_stmt 0 view .LVU314
 970 0102 FFF7FEFF 		bl	lv_draw_rect_dsc_init
 971              	.LVL95:
 490:lvgl/lvgl/src/core/lv_obj.c ****             draw_dsc.border_post = 1;
 972              		.loc 1 490 9 is_stmt 1 view .LVU315
 973              	.LBB144:
 974              	.LBI144:
 307:lvgl/lvgl/src/core/lv_obj_style_gen.h **** {
 975              		.loc 2 307 20 view .LVU316
 976              	.LBB145:
 309:lvgl/lvgl/src/core/lv_obj_style_gen.h ****     return (bool)v.num;
 977              		.loc 2 309 5 view .LVU317
 309:lvgl/lvgl/src/core/lv_obj_style_gen.h ****     return (bool)v.num;
 978              		.loc 2 309 26 is_stmt 0 view .LVU318
 979 0106 3422     		movs	r2, #52
 980 0108 0021     		movs	r1, #0
 981 010a 2046     		mov	r0, r4
 982 010c FFF7FEFF 		bl	lv_obj_get_style_prop
 983              	.LVL96:
ARM GAS  C:\Users\gx\AppData\Local\Temp\cccIVLs9.s 			page 49


 310:lvgl/lvgl/src/core/lv_obj_style_gen.h **** }
 984              		.loc 2 310 5 is_stmt 1 view .LVU319
 310:lvgl/lvgl/src/core/lv_obj_style_gen.h **** }
 985              		.loc 2 310 5 is_stmt 0 view .LVU320
 986              	.LBE145:
 987              	.LBE144:
 490:lvgl/lvgl/src/core/lv_obj.c ****             draw_dsc.border_post = 1;
 988              		.loc 1 490 11 view .LVU321
 989 0110 28B1     		cbz	r0, .L46
 491:lvgl/lvgl/src/core/lv_obj.c ****         }
 990              		.loc 1 491 13 is_stmt 1 view .LVU322
 491:lvgl/lvgl/src/core/lv_obj.c ****         }
 991              		.loc 1 491 34 is_stmt 0 view .LVU323
 992 0112 9DF82730 		ldrb	r3, [sp, #39]	@ zero_extendqisi2
 993 0116 43F00103 		orr	r3, r3, #1
 994 011a 8DF82730 		strb	r3, [sp, #39]
 995              	.L46:
 494:lvgl/lvgl/src/core/lv_obj.c **** 
 996              		.loc 1 494 9 is_stmt 1 view .LVU324
 997 011e 02AF     		add	r7, sp, #8
 998 0120 3A46     		mov	r2, r7
 999 0122 0021     		movs	r1, #0
 1000 0124 2046     		mov	r0, r4
 1001 0126 FFF7FEFF 		bl	lv_obj_init_draw_rect_dsc
 1002              	.LVL97:
 496:lvgl/lvgl/src/core/lv_obj.c ****         lv_coord_t h = lv_obj_get_style_transform_height(obj, LV_PART_MAIN);
 1003              		.loc 1 496 9 view .LVU325
 1004              	.LBB146:
 1005              	.LBI146:
  55:lvgl/lvgl/src/core/lv_obj_style_gen.h **** {
 1006              		.loc 2 55 26 view .LVU326
 1007              	.LBB147:
  57:lvgl/lvgl/src/core/lv_obj_style_gen.h ****     return (lv_coord_t)v.num;
 1008              		.loc 2 57 5 view .LVU327
  57:lvgl/lvgl/src/core/lv_obj_style_gen.h ****     return (lv_coord_t)v.num;
 1009              		.loc 2 57 26 is_stmt 0 view .LVU328
 1010 012a 40F60A02 		movw	r2, #2058
 1011 012e 0021     		movs	r1, #0
 1012 0130 2046     		mov	r0, r4
 1013 0132 FFF7FEFF 		bl	lv_obj_get_style_prop
 1014              	.LVL98:
 1015 0136 0546     		mov	r5, r0
 1016              	.LVL99:
  58:lvgl/lvgl/src/core/lv_obj_style_gen.h **** }
 1017              		.loc 2 58 5 is_stmt 1 view .LVU329
  58:lvgl/lvgl/src/core/lv_obj_style_gen.h **** }
 1018              		.loc 2 58 5 is_stmt 0 view .LVU330
 1019              	.LBE147:
 1020              	.LBE146:
 497:lvgl/lvgl/src/core/lv_obj.c ****         lv_area_t coords;
 1021              		.loc 1 497 9 is_stmt 1 view .LVU331
 1022              	.LBB148:
 1023              	.LBI148:
  61:lvgl/lvgl/src/core/lv_obj_style_gen.h **** {
 1024              		.loc 2 61 26 view .LVU332
 1025              	.LBB149:
  63:lvgl/lvgl/src/core/lv_obj_style_gen.h ****     return (lv_coord_t)v.num;
ARM GAS  C:\Users\gx\AppData\Local\Temp\cccIVLs9.s 			page 50


 1026              		.loc 2 63 5 view .LVU333
  63:lvgl/lvgl/src/core/lv_obj_style_gen.h ****     return (lv_coord_t)v.num;
 1027              		.loc 2 63 26 is_stmt 0 view .LVU334
 1028 0138 40F60B02 		movw	r2, #2059
 1029 013c 0021     		movs	r1, #0
 1030 013e 2046     		mov	r0, r4
 1031 0140 FFF7FEFF 		bl	lv_obj_get_style_prop
 1032              	.LVL100:
  64:lvgl/lvgl/src/core/lv_obj_style_gen.h **** }
 1033              		.loc 2 64 5 is_stmt 1 view .LVU335
  64:lvgl/lvgl/src/core/lv_obj_style_gen.h **** }
 1034              		.loc 2 64 5 is_stmt 0 view .LVU336
 1035              	.LBE149:
 1036              	.LBE148:
 498:lvgl/lvgl/src/core/lv_obj.c ****         lv_area_copy(&coords, &obj->coords);
 1037              		.loc 1 498 9 is_stmt 1 view .LVU337
 499:lvgl/lvgl/src/core/lv_obj.c ****         coords.x1 -= w;
 1038              		.loc 1 499 9 view .LVU338
 1039              	.LBB150:
 1040              	.LBI150:
 120:d:\practise\f407_disc\lvgl\lvgl\src\misc\lv_area.h **** {
 1041              		.loc 3 120 20 view .LVU339
 1042              	.LBB151:
 122:d:\practise\f407_disc\lvgl\lvgl\src\misc\lv_area.h ****     dest->y1 = src->y1;
 1043              		.loc 3 122 5 view .LVU340
 122:d:\practise\f407_disc\lvgl\lvgl\src\misc\lv_area.h ****     dest->y1 = src->y1;
 1044              		.loc 3 122 19 is_stmt 0 view .LVU341
 1045 0144 B4F914C0 		ldrsh	ip, [r4, #20]
 123:d:\practise\f407_disc\lvgl\lvgl\src\misc\lv_area.h ****     dest->x2 = src->x2;
 1046              		.loc 3 123 5 is_stmt 1 view .LVU342
 123:d:\practise\f407_disc\lvgl\lvgl\src\misc\lv_area.h ****     dest->x2 = src->x2;
 1047              		.loc 3 123 19 is_stmt 0 view .LVU343
 1048 0148 B4F91610 		ldrsh	r1, [r4, #22]
 124:d:\practise\f407_disc\lvgl\lvgl\src\misc\lv_area.h ****     dest->y2 = src->y2;
 1049              		.loc 3 124 5 is_stmt 1 view .LVU344
 124:d:\practise\f407_disc\lvgl\lvgl\src\misc\lv_area.h ****     dest->y2 = src->y2;
 1050              		.loc 3 124 19 is_stmt 0 view .LVU345
 1051 014c B4F91830 		ldrsh	r3, [r4, #24]
 1052              		.loc 3 125 5 is_stmt 1 view .LVU346
 1053              		.loc 3 125 19 is_stmt 0 view .LVU347
 1054 0150 B4F91AE0 		ldrsh	lr, [r4, #26]
 1055              	.LVL101:
 1056              		.loc 3 125 19 view .LVU348
 1057              	.LBE151:
 1058              	.LBE150:
 500:lvgl/lvgl/src/core/lv_obj.c ****         coords.x2 += w;
 1059              		.loc 1 500 9 is_stmt 1 view .LVU349
 500:lvgl/lvgl/src/core/lv_obj.c ****         coords.x2 += w;
 1060              		.loc 1 500 19 is_stmt 0 view .LVU350
 1061 0154 AAB2     		uxth	r2, r5
 1062 0156 ACEB0205 		sub	r5, ip, r2
 1063              	.LVL102:
 500:lvgl/lvgl/src/core/lv_obj.c ****         coords.x2 += w;
 1064              		.loc 1 500 19 view .LVU351
 1065 015a ADF80050 		strh	r5, [sp]	@ movhi
 501:lvgl/lvgl/src/core/lv_obj.c ****         coords.y1 -= h;
 1066              		.loc 1 501 9 is_stmt 1 view .LVU352
ARM GAS  C:\Users\gx\AppData\Local\Temp\cccIVLs9.s 			page 51


 501:lvgl/lvgl/src/core/lv_obj.c ****         coords.y1 -= h;
 1067              		.loc 1 501 19 is_stmt 0 view .LVU353
 1068 015e 1A44     		add	r2, r2, r3
 1069              	.LVL103:
 501:lvgl/lvgl/src/core/lv_obj.c ****         coords.y1 -= h;
 1070              		.loc 1 501 19 view .LVU354
 1071 0160 ADF80420 		strh	r2, [sp, #4]	@ movhi
 502:lvgl/lvgl/src/core/lv_obj.c ****         coords.y2 += h;
 1072              		.loc 1 502 9 is_stmt 1 view .LVU355
 502:lvgl/lvgl/src/core/lv_obj.c ****         coords.y2 += h;
 1073              		.loc 1 502 19 is_stmt 0 view .LVU356
 1074 0164 83B2     		uxth	r3, r0
 1075 0166 C91A     		subs	r1, r1, r3
 1076 0168 ADF80210 		strh	r1, [sp, #2]	@ movhi
 503:lvgl/lvgl/src/core/lv_obj.c **** 
 1077              		.loc 1 503 9 is_stmt 1 view .LVU357
 503:lvgl/lvgl/src/core/lv_obj.c **** 
 1078              		.loc 1 503 19 is_stmt 0 view .LVU358
 1079 016c 7344     		add	r3, r3, lr
 1080 016e ADF80630 		strh	r3, [sp, #6]	@ movhi
 506:lvgl/lvgl/src/core/lv_obj.c ****         lv_obj_draw_dsc_init(&part_dsc, clip_area);
 1081              		.loc 1 506 9 is_stmt 1 view .LVU359
 507:lvgl/lvgl/src/core/lv_obj.c ****         part_dsc.class_p = MY_CLASS;
 1082              		.loc 1 507 9 view .LVU360
 1083 0172 3146     		mov	r1, r6
 1084 0174 0FA8     		add	r0, sp, #60
 1085              	.LVL104:
 507:lvgl/lvgl/src/core/lv_obj.c ****         part_dsc.class_p = MY_CLASS;
 1086              		.loc 1 507 9 is_stmt 0 view .LVU361
 1087 0176 FFF7FEFF 		bl	lv_obj_draw_dsc_init
 1088              	.LVL105:
 508:lvgl/lvgl/src/core/lv_obj.c ****         part_dsc.type = LV_OBJ_DRAW_PART_RECTANGLE;
 1089              		.loc 1 508 9 is_stmt 1 view .LVU362
 508:lvgl/lvgl/src/core/lv_obj.c ****         part_dsc.type = LV_OBJ_DRAW_PART_RECTANGLE;
 1090              		.loc 1 508 26 is_stmt 0 view .LVU363
 1091 017a 564B     		ldr	r3, .L55
 1092 017c 1093     		str	r3, [sp, #64]
 509:lvgl/lvgl/src/core/lv_obj.c ****         part_dsc.rect_dsc = &draw_dsc;
 1093              		.loc 1 509 9 is_stmt 1 view .LVU364
 509:lvgl/lvgl/src/core/lv_obj.c ****         part_dsc.rect_dsc = &draw_dsc;
 1094              		.loc 1 509 23 is_stmt 0 view .LVU365
 1095 017e 0025     		movs	r5, #0
 1096 0180 1195     		str	r5, [sp, #68]
 510:lvgl/lvgl/src/core/lv_obj.c ****         part_dsc.draw_area = &coords;
 1097              		.loc 1 510 9 is_stmt 1 view .LVU366
 510:lvgl/lvgl/src/core/lv_obj.c ****         part_dsc.draw_area = &coords;
 1098              		.loc 1 510 27 is_stmt 0 view .LVU367
 1099 0182 1397     		str	r7, [sp, #76]
 511:lvgl/lvgl/src/core/lv_obj.c ****         part_dsc.part = LV_PART_MAIN;
 1100              		.loc 1 511 9 is_stmt 1 view .LVU368
 511:lvgl/lvgl/src/core/lv_obj.c ****         part_dsc.part = LV_PART_MAIN;
 1101              		.loc 1 511 28 is_stmt 0 view .LVU369
 1102 0184 CDF848D0 		str	sp, [sp, #72]
 512:lvgl/lvgl/src/core/lv_obj.c ****         lv_event_send(obj, LV_EVENT_DRAW_PART_BEGIN, &part_dsc);
 1103              		.loc 1 512 9 is_stmt 1 view .LVU370
 512:lvgl/lvgl/src/core/lv_obj.c ****         lv_event_send(obj, LV_EVENT_DRAW_PART_BEGIN, &part_dsc);
 1104              		.loc 1 512 23 is_stmt 0 view .LVU371
ARM GAS  C:\Users\gx\AppData\Local\Temp\cccIVLs9.s 			page 52


 1105 0188 1B95     		str	r5, [sp, #108]
 513:lvgl/lvgl/src/core/lv_obj.c **** 
 1106              		.loc 1 513 9 is_stmt 1 view .LVU372
 1107 018a 0FAA     		add	r2, sp, #60
 1108 018c 1A21     		movs	r1, #26
 1109 018e 2046     		mov	r0, r4
 1110 0190 FFF7FEFF 		bl	lv_event_send
 1111              	.LVL106:
 515:lvgl/lvgl/src/core/lv_obj.c **** 
 1112              		.loc 1 515 9 view .LVU373
 1113 0194 3A46     		mov	r2, r7
 1114 0196 3146     		mov	r1, r6
 1115 0198 6846     		mov	r0, sp
 1116 019a FFF7FEFF 		bl	lv_draw_rect
 1117              	.LVL107:
 517:lvgl/lvgl/src/core/lv_obj.c **** 
 1118              		.loc 1 517 9 view .LVU374
 1119 019e 0FAA     		add	r2, sp, #60
 1120 01a0 1B21     		movs	r1, #27
 1121 01a2 2046     		mov	r0, r4
 1122 01a4 FFF7FEFF 		bl	lv_event_send
 1123              	.LVL108:
 520:lvgl/lvgl/src/core/lv_obj.c ****             /*If the radius is 0 the parent's coordinates will clip anyway*/
 1124              		.loc 1 520 9 view .LVU375
 1125              	.LBB152:
 1126              	.LBI152:
 133:lvgl/lvgl/src/core/lv_obj_style_gen.h **** {
 1127              		.loc 2 133 20 view .LVU376
 1128              	.LBB153:
 135:lvgl/lvgl/src/core/lv_obj_style_gen.h ****     return (bool)v.num;
 1129              		.loc 2 135 5 view .LVU377
 135:lvgl/lvgl/src/core/lv_obj_style_gen.h ****     return (bool)v.num;
 1130              		.loc 2 135 26 is_stmt 0 view .LVU378
 1131 01a8 6122     		movs	r2, #97
 1132 01aa 2946     		mov	r1, r5
 1133 01ac 2046     		mov	r0, r4
 1134 01ae FFF7FEFF 		bl	lv_obj_get_style_prop
 1135              	.LVL109:
 136:lvgl/lvgl/src/core/lv_obj_style_gen.h **** }
 1136              		.loc 2 136 5 is_stmt 1 view .LVU379
 136:lvgl/lvgl/src/core/lv_obj_style_gen.h **** }
 1137              		.loc 2 136 5 is_stmt 0 view .LVU380
 1138              	.LBE153:
 1139              	.LBE152:
 520:lvgl/lvgl/src/core/lv_obj.c ****             /*If the radius is 0 the parent's coordinates will clip anyway*/
 1140              		.loc 1 520 11 view .LVU381
 1141 01b2 0028     		cmp	r0, #0
 1142 01b4 3FF436AF 		beq	.L36
 1143              	.LBB154:
 522:lvgl/lvgl/src/core/lv_obj.c ****             if(r != 0) {
 1144              		.loc 1 522 13 is_stmt 1 view .LVU382
 1145              	.LVL110:
 1146              	.LBB155:
 1147              	.LBI155:
 127:lvgl/lvgl/src/core/lv_obj_style_gen.h **** {
 1148              		.loc 2 127 26 view .LVU383
 1149              	.LBB156:
ARM GAS  C:\Users\gx\AppData\Local\Temp\cccIVLs9.s 			page 53


 129:lvgl/lvgl/src/core/lv_obj_style_gen.h ****     return (lv_coord_t)v.num;
 1150              		.loc 2 129 5 view .LVU384
 129:lvgl/lvgl/src/core/lv_obj_style_gen.h ****     return (lv_coord_t)v.num;
 1151              		.loc 2 129 26 is_stmt 0 view .LVU385
 1152 01b8 6022     		movs	r2, #96
 1153 01ba 2946     		mov	r1, r5
 1154 01bc 2046     		mov	r0, r4
 1155 01be FFF7FEFF 		bl	lv_obj_get_style_prop
 1156              	.LVL111:
 130:lvgl/lvgl/src/core/lv_obj_style_gen.h **** }
 1157              		.loc 2 130 5 is_stmt 1 view .LVU386
 130:lvgl/lvgl/src/core/lv_obj_style_gen.h **** }
 1158              		.loc 2 130 12 is_stmt 0 view .LVU387
 1159 01c2 05B2     		sxth	r5, r0
 1160              	.LVL112:
 130:lvgl/lvgl/src/core/lv_obj_style_gen.h **** }
 1161              		.loc 2 130 12 view .LVU388
 1162              	.LBE156:
 1163              	.LBE155:
 523:lvgl/lvgl/src/core/lv_obj.c ****                 lv_draw_mask_radius_param_t * mp = lv_mem_buf_get(sizeof(lv_draw_mask_radius_param_
 1164              		.loc 1 523 13 is_stmt 1 view .LVU389
 523:lvgl/lvgl/src/core/lv_obj.c ****                 lv_draw_mask_radius_param_t * mp = lv_mem_buf_get(sizeof(lv_draw_mask_radius_param_
 1165              		.loc 1 523 15 is_stmt 0 view .LVU390
 1166 01c4 002D     		cmp	r5, #0
 1167 01c6 3FF42DAF 		beq	.L36
 1168              	.LBB157:
 524:lvgl/lvgl/src/core/lv_obj.c ****                 lv_draw_mask_radius_init(mp, &obj->coords, r, false);
 1169              		.loc 1 524 17 is_stmt 1 view .LVU391
 524:lvgl/lvgl/src/core/lv_obj.c ****                 lv_draw_mask_radius_init(mp, &obj->coords, r, false);
 1170              		.loc 1 524 52 is_stmt 0 view .LVU392
 1171 01ca 1820     		movs	r0, #24
 1172 01cc FFF7FEFF 		bl	lv_mem_buf_get
 1173              	.LVL113:
 1174 01d0 0646     		mov	r6, r0
 1175              	.LVL114:
 525:lvgl/lvgl/src/core/lv_obj.c ****                 /*Add the mask and use `obj+8` as custom id. Don't use `obj` directly because it mi
 1176              		.loc 1 525 17 is_stmt 1 view .LVU393
 1177 01d2 0023     		movs	r3, #0
 1178 01d4 2A46     		mov	r2, r5
 1179 01d6 04F11401 		add	r1, r4, #20
 1180 01da FFF7FEFF 		bl	lv_draw_mask_radius_init
 1181              	.LVL115:
 527:lvgl/lvgl/src/core/lv_obj.c ****             }
 1182              		.loc 1 527 17 view .LVU394
 1183 01de 04F59071 		add	r1, r4, #288
 1184 01e2 3046     		mov	r0, r6
 1185 01e4 FFF7FEFF 		bl	lv_draw_mask_add
 1186              	.LVL116:
 1187 01e8 1CE7     		b	.L36
 1188              	.LVL117:
 1189              	.L52:
 527:lvgl/lvgl/src/core/lv_obj.c ****             }
 1190              		.loc 1 527 17 is_stmt 0 view .LVU395
 1191              	.LBE157:
 1192              	.LBE154:
 1193              	.LBE143:
 1194              	.LBB158:
ARM GAS  C:\Users\gx\AppData\Local\Temp\cccIVLs9.s 			page 54


 533:lvgl/lvgl/src/core/lv_obj.c ****         draw_scrollbar(obj, clip_area);
 1195              		.loc 1 533 9 is_stmt 1 view .LVU396
 533:lvgl/lvgl/src/core/lv_obj.c ****         draw_scrollbar(obj, clip_area);
 1196              		.loc 1 533 39 is_stmt 0 view .LVU397
 1197 01ea 3046     		mov	r0, r6
 1198              	.LVL118:
 533:lvgl/lvgl/src/core/lv_obj.c ****         draw_scrollbar(obj, clip_area);
 1199              		.loc 1 533 39 view .LVU398
 1200 01ec FFF7FEFF 		bl	lv_event_get_param
 1201              	.LVL119:
 1202 01f0 0546     		mov	r5, r0
 1203              	.LVL120:
 534:lvgl/lvgl/src/core/lv_obj.c **** 
 1204              		.loc 1 534 9 is_stmt 1 view .LVU399
 1205 01f2 0146     		mov	r1, r0
 1206 01f4 2046     		mov	r0, r4
 1207              	.LVL121:
 534:lvgl/lvgl/src/core/lv_obj.c **** 
 1208              		.loc 1 534 9 is_stmt 0 view .LVU400
 1209 01f6 FFF7FEFF 		bl	draw_scrollbar
 1210              	.LVL122:
 537:lvgl/lvgl/src/core/lv_obj.c ****             lv_draw_mask_radius_param_t * param = lv_draw_mask_remove_custom(obj + 8);
 1211              		.loc 1 537 9 is_stmt 1 view .LVU401
 1212              	.LBB159:
 1213              	.LBI159:
 133:lvgl/lvgl/src/core/lv_obj_style_gen.h **** {
 1214              		.loc 2 133 20 view .LVU402
 1215              	.LBB160:
 135:lvgl/lvgl/src/core/lv_obj_style_gen.h ****     return (bool)v.num;
 1216              		.loc 2 135 5 view .LVU403
 135:lvgl/lvgl/src/core/lv_obj_style_gen.h ****     return (bool)v.num;
 1217              		.loc 2 135 26 is_stmt 0 view .LVU404
 1218 01fa 6122     		movs	r2, #97
 1219 01fc 0021     		movs	r1, #0
 1220 01fe 2046     		mov	r0, r4
 1221 0200 FFF7FEFF 		bl	lv_obj_get_style_prop
 1222              	.LVL123:
 136:lvgl/lvgl/src/core/lv_obj_style_gen.h **** }
 1223              		.loc 2 136 5 is_stmt 1 view .LVU405
 136:lvgl/lvgl/src/core/lv_obj_style_gen.h **** }
 1224              		.loc 2 136 5 is_stmt 0 view .LVU406
 1225              	.LBE160:
 1226              	.LBE159:
 537:lvgl/lvgl/src/core/lv_obj.c ****             lv_draw_mask_radius_param_t * param = lv_draw_mask_remove_custom(obj + 8);
 1227              		.loc 1 537 11 view .LVU407
 1228 0204 0028     		cmp	r0, #0
 1229 0206 57D1     		bne	.L54
 1230              	.LVL124:
 1231              	.L48:
 547:lvgl/lvgl/src/core/lv_obj.c ****             lv_draw_rect_dsc_t draw_dsc;
 1232              		.loc 1 547 9 is_stmt 1 view .LVU408
 1233              	.LBB161:
 1234              	.LBI161:
 307:lvgl/lvgl/src/core/lv_obj_style_gen.h **** {
 1235              		.loc 2 307 20 view .LVU409
 1236              	.LBB162:
 309:lvgl/lvgl/src/core/lv_obj_style_gen.h ****     return (bool)v.num;
ARM GAS  C:\Users\gx\AppData\Local\Temp\cccIVLs9.s 			page 55


 1237              		.loc 2 309 5 view .LVU410
 309:lvgl/lvgl/src/core/lv_obj_style_gen.h ****     return (bool)v.num;
 1238              		.loc 2 309 26 is_stmt 0 view .LVU411
 1239 0208 3422     		movs	r2, #52
 1240 020a 0021     		movs	r1, #0
 1241 020c 2046     		mov	r0, r4
 1242 020e FFF7FEFF 		bl	lv_obj_get_style_prop
 1243              	.LVL125:
 310:lvgl/lvgl/src/core/lv_obj_style_gen.h **** }
 1244              		.loc 2 310 5 is_stmt 1 view .LVU412
 310:lvgl/lvgl/src/core/lv_obj_style_gen.h **** }
 1245              		.loc 2 310 5 is_stmt 0 view .LVU413
 1246              	.LBE162:
 1247              	.LBE161:
 547:lvgl/lvgl/src/core/lv_obj.c ****             lv_draw_rect_dsc_t draw_dsc;
 1248              		.loc 1 547 11 view .LVU414
 1249 0212 0028     		cmp	r0, #0
 1250 0214 3FF406AF 		beq	.L36
 1251              	.LBB163:
 548:lvgl/lvgl/src/core/lv_obj.c ****             lv_draw_rect_dsc_init(&draw_dsc);
 1252              		.loc 1 548 13 is_stmt 1 discriminator 3 view .LVU415
 549:lvgl/lvgl/src/core/lv_obj.c ****             draw_dsc.bg_opa = LV_OPA_TRANSP;
 1253              		.loc 1 549 13 discriminator 3 view .LVU416
 1254 0218 02AF     		add	r7, sp, #8
 1255 021a 3846     		mov	r0, r7
 1256 021c FFF7FEFF 		bl	lv_draw_rect_dsc_init
 1257              	.LVL126:
 550:lvgl/lvgl/src/core/lv_obj.c ****             draw_dsc.outline_opa = LV_OPA_TRANSP;
 1258              		.loc 1 550 13 discriminator 3 view .LVU417
 550:lvgl/lvgl/src/core/lv_obj.c ****             draw_dsc.outline_opa = LV_OPA_TRANSP;
 1259              		.loc 1 550 29 is_stmt 0 discriminator 3 view .LVU418
 1260 0220 0026     		movs	r6, #0
 1261 0222 8DF81260 		strb	r6, [sp, #18]
 551:lvgl/lvgl/src/core/lv_obj.c ****             draw_dsc.shadow_opa = LV_OPA_TRANSP;
 1262              		.loc 1 551 13 is_stmt 1 discriminator 3 view .LVU419
 551:lvgl/lvgl/src/core/lv_obj.c ****             draw_dsc.shadow_opa = LV_OPA_TRANSP;
 1263              		.loc 1 551 34 is_stmt 0 discriminator 3 view .LVU420
 1264 0226 8DF82E60 		strb	r6, [sp, #46]
 552:lvgl/lvgl/src/core/lv_obj.c ****             lv_obj_init_draw_rect_dsc(obj, LV_PART_MAIN, &draw_dsc);
 1265              		.loc 1 552 13 is_stmt 1 discriminator 3 view .LVU421
 552:lvgl/lvgl/src/core/lv_obj.c ****             lv_obj_init_draw_rect_dsc(obj, LV_PART_MAIN, &draw_dsc);
 1266              		.loc 1 552 33 is_stmt 0 discriminator 3 view .LVU422
 1267 022a 8DF83A60 		strb	r6, [sp, #58]
 553:lvgl/lvgl/src/core/lv_obj.c **** 
 1268              		.loc 1 553 13 is_stmt 1 discriminator 3 view .LVU423
 1269 022e 3A46     		mov	r2, r7
 1270 0230 3146     		mov	r1, r6
 1271 0232 2046     		mov	r0, r4
 1272 0234 FFF7FEFF 		bl	lv_obj_init_draw_rect_dsc
 1273              	.LVL127:
 555:lvgl/lvgl/src/core/lv_obj.c ****             lv_coord_t h = lv_obj_get_style_transform_height(obj, LV_PART_MAIN);
 1274              		.loc 1 555 13 discriminator 3 view .LVU424
 1275              	.LBB164:
 1276              	.LBI164:
  55:lvgl/lvgl/src/core/lv_obj_style_gen.h **** {
 1277              		.loc 2 55 26 discriminator 3 view .LVU425
 1278              	.LBB165:
ARM GAS  C:\Users\gx\AppData\Local\Temp\cccIVLs9.s 			page 56


  57:lvgl/lvgl/src/core/lv_obj_style_gen.h ****     return (lv_coord_t)v.num;
 1279              		.loc 2 57 5 discriminator 3 view .LVU426
  57:lvgl/lvgl/src/core/lv_obj_style_gen.h ****     return (lv_coord_t)v.num;
 1280              		.loc 2 57 26 is_stmt 0 discriminator 3 view .LVU427
 1281 0238 40F60A02 		movw	r2, #2058
 1282 023c 3146     		mov	r1, r6
 1283 023e 2046     		mov	r0, r4
 1284 0240 FFF7FEFF 		bl	lv_obj_get_style_prop
 1285              	.LVL128:
 1286 0244 8046     		mov	r8, r0
  58:lvgl/lvgl/src/core/lv_obj_style_gen.h **** }
 1287              		.loc 2 58 5 is_stmt 1 discriminator 3 view .LVU428
 1288              	.LVL129:
  58:lvgl/lvgl/src/core/lv_obj_style_gen.h **** }
 1289              		.loc 2 58 5 is_stmt 0 discriminator 3 view .LVU429
 1290              	.LBE165:
 1291              	.LBE164:
 556:lvgl/lvgl/src/core/lv_obj.c ****             lv_area_t coords;
 1292              		.loc 1 556 13 is_stmt 1 discriminator 3 view .LVU430
 1293              	.LBB166:
 1294              	.LBI166:
  61:lvgl/lvgl/src/core/lv_obj_style_gen.h **** {
 1295              		.loc 2 61 26 discriminator 3 view .LVU431
 1296              	.LBB167:
  63:lvgl/lvgl/src/core/lv_obj_style_gen.h ****     return (lv_coord_t)v.num;
 1297              		.loc 2 63 5 discriminator 3 view .LVU432
  63:lvgl/lvgl/src/core/lv_obj_style_gen.h ****     return (lv_coord_t)v.num;
 1298              		.loc 2 63 26 is_stmt 0 discriminator 3 view .LVU433
 1299 0246 40F60B02 		movw	r2, #2059
 1300 024a 3146     		mov	r1, r6
 1301 024c 2046     		mov	r0, r4
 1302 024e FFF7FEFF 		bl	lv_obj_get_style_prop
 1303              	.LVL130:
  64:lvgl/lvgl/src/core/lv_obj_style_gen.h **** }
 1304              		.loc 2 64 5 is_stmt 1 discriminator 3 view .LVU434
  64:lvgl/lvgl/src/core/lv_obj_style_gen.h **** }
 1305              		.loc 2 64 5 is_stmt 0 discriminator 3 view .LVU435
 1306              	.LBE167:
 1307              	.LBE166:
 557:lvgl/lvgl/src/core/lv_obj.c ****             lv_area_copy(&coords, &obj->coords);
 1308              		.loc 1 557 13 is_stmt 1 discriminator 3 view .LVU436
 558:lvgl/lvgl/src/core/lv_obj.c ****             coords.x1 -= w;
 1309              		.loc 1 558 13 discriminator 3 view .LVU437
 1310              	.LBB168:
 1311              	.LBI168:
 120:d:\practise\f407_disc\lvgl\lvgl\src\misc\lv_area.h **** {
 1312              		.loc 3 120 20 discriminator 3 view .LVU438
 1313              	.LBB169:
 122:d:\practise\f407_disc\lvgl\lvgl\src\misc\lv_area.h ****     dest->y1 = src->y1;
 1314              		.loc 3 122 5 discriminator 3 view .LVU439
 122:d:\practise\f407_disc\lvgl\lvgl\src\misc\lv_area.h ****     dest->y1 = src->y1;
 1315              		.loc 3 122 19 is_stmt 0 discriminator 3 view .LVU440
 1316 0252 B4F91410 		ldrsh	r1, [r4, #20]
 123:d:\practise\f407_disc\lvgl\lvgl\src\misc\lv_area.h ****     dest->x2 = src->x2;
 1317              		.loc 3 123 5 is_stmt 1 discriminator 3 view .LVU441
 123:d:\practise\f407_disc\lvgl\lvgl\src\misc\lv_area.h ****     dest->x2 = src->x2;
 1318              		.loc 3 123 19 is_stmt 0 discriminator 3 view .LVU442
ARM GAS  C:\Users\gx\AppData\Local\Temp\cccIVLs9.s 			page 57


 1319 0256 B4F91620 		ldrsh	r2, [r4, #22]
 124:d:\practise\f407_disc\lvgl\lvgl\src\misc\lv_area.h ****     dest->y2 = src->y2;
 1320              		.loc 3 124 5 is_stmt 1 discriminator 3 view .LVU443
 124:d:\practise\f407_disc\lvgl\lvgl\src\misc\lv_area.h ****     dest->y2 = src->y2;
 1321              		.loc 3 124 19 is_stmt 0 discriminator 3 view .LVU444
 1322 025a B4F918E0 		ldrsh	lr, [r4, #24]
 1323              		.loc 3 125 5 is_stmt 1 discriminator 3 view .LVU445
 1324              		.loc 3 125 19 is_stmt 0 discriminator 3 view .LVU446
 1325 025e B4F91AC0 		ldrsh	ip, [r4, #26]
 1326              	.LVL131:
 1327              		.loc 3 125 19 discriminator 3 view .LVU447
 1328              	.LBE169:
 1329              	.LBE168:
 559:lvgl/lvgl/src/core/lv_obj.c ****             coords.x2 += w;
 1330              		.loc 1 559 13 is_stmt 1 discriminator 3 view .LVU448
 559:lvgl/lvgl/src/core/lv_obj.c ****             coords.x2 += w;
 1331              		.loc 1 559 23 is_stmt 0 discriminator 3 view .LVU449
 1332 0262 1FFA88F3 		uxth	r3, r8
 1333 0266 C91A     		subs	r1, r1, r3
 1334 0268 ADF80010 		strh	r1, [sp]	@ movhi
 560:lvgl/lvgl/src/core/lv_obj.c ****             coords.y1 -= h;
 1335              		.loc 1 560 13 is_stmt 1 discriminator 3 view .LVU450
 560:lvgl/lvgl/src/core/lv_obj.c ****             coords.y1 -= h;
 1336              		.loc 1 560 23 is_stmt 0 discriminator 3 view .LVU451
 1337 026c 7344     		add	r3, r3, lr
 1338 026e ADF80430 		strh	r3, [sp, #4]	@ movhi
 561:lvgl/lvgl/src/core/lv_obj.c ****             coords.y2 += h;
 1339              		.loc 1 561 13 is_stmt 1 discriminator 3 view .LVU452
 561:lvgl/lvgl/src/core/lv_obj.c ****             coords.y2 += h;
 1340              		.loc 1 561 23 is_stmt 0 discriminator 3 view .LVU453
 1341 0272 80B2     		uxth	r0, r0
 561:lvgl/lvgl/src/core/lv_obj.c ****             coords.y2 += h;
 1342              		.loc 1 561 23 discriminator 3 view .LVU454
 1343 0274 121A     		subs	r2, r2, r0
 1344 0276 ADF80220 		strh	r2, [sp, #2]	@ movhi
 562:lvgl/lvgl/src/core/lv_obj.c **** 
 1345              		.loc 1 562 13 is_stmt 1 discriminator 3 view .LVU455
 562:lvgl/lvgl/src/core/lv_obj.c **** 
 1346              		.loc 1 562 23 is_stmt 0 discriminator 3 view .LVU456
 1347 027a 6044     		add	r0, r0, ip
 1348              	.LVL132:
 562:lvgl/lvgl/src/core/lv_obj.c **** 
 1349              		.loc 1 562 23 discriminator 3 view .LVU457
 1350 027c ADF80600 		strh	r0, [sp, #6]	@ movhi
 564:lvgl/lvgl/src/core/lv_obj.c ****             lv_obj_draw_dsc_init(&part_dsc, clip_area);
 1351              		.loc 1 564 13 is_stmt 1 discriminator 3 view .LVU458
 565:lvgl/lvgl/src/core/lv_obj.c ****             part_dsc.class_p = MY_CLASS;
 1352              		.loc 1 565 13 discriminator 3 view .LVU459
 1353 0280 2946     		mov	r1, r5
 1354 0282 0FA8     		add	r0, sp, #60
 1355 0284 FFF7FEFF 		bl	lv_obj_draw_dsc_init
 1356              	.LVL133:
 566:lvgl/lvgl/src/core/lv_obj.c ****             part_dsc.type = LV_OBJ_DRAW_PART_BORDER_POST;
 1357              		.loc 1 566 13 discriminator 3 view .LVU460
 566:lvgl/lvgl/src/core/lv_obj.c ****             part_dsc.type = LV_OBJ_DRAW_PART_BORDER_POST;
 1358              		.loc 1 566 30 is_stmt 0 discriminator 3 view .LVU461
 1359 0288 124B     		ldr	r3, .L55
ARM GAS  C:\Users\gx\AppData\Local\Temp\cccIVLs9.s 			page 58


 1360 028a 1093     		str	r3, [sp, #64]
 567:lvgl/lvgl/src/core/lv_obj.c ****             part_dsc.rect_dsc = &draw_dsc;
 1361              		.loc 1 567 13 is_stmt 1 discriminator 3 view .LVU462
 567:lvgl/lvgl/src/core/lv_obj.c ****             part_dsc.rect_dsc = &draw_dsc;
 1362              		.loc 1 567 27 is_stmt 0 discriminator 3 view .LVU463
 1363 028c 0123     		movs	r3, #1
 1364 028e 1193     		str	r3, [sp, #68]
 568:lvgl/lvgl/src/core/lv_obj.c ****             part_dsc.draw_area = &coords;
 1365              		.loc 1 568 13 is_stmt 1 discriminator 3 view .LVU464
 568:lvgl/lvgl/src/core/lv_obj.c ****             part_dsc.draw_area = &coords;
 1366              		.loc 1 568 31 is_stmt 0 discriminator 3 view .LVU465
 1367 0290 1397     		str	r7, [sp, #76]
 569:lvgl/lvgl/src/core/lv_obj.c ****             part_dsc.part = LV_PART_MAIN;
 1368              		.loc 1 569 13 is_stmt 1 discriminator 3 view .LVU466
 569:lvgl/lvgl/src/core/lv_obj.c ****             part_dsc.part = LV_PART_MAIN;
 1369              		.loc 1 569 32 is_stmt 0 discriminator 3 view .LVU467
 1370 0292 CDF848D0 		str	sp, [sp, #72]
 570:lvgl/lvgl/src/core/lv_obj.c ****             lv_event_send(obj, LV_EVENT_DRAW_PART_BEGIN, &part_dsc);
 1371              		.loc 1 570 13 is_stmt 1 discriminator 3 view .LVU468
 570:lvgl/lvgl/src/core/lv_obj.c ****             lv_event_send(obj, LV_EVENT_DRAW_PART_BEGIN, &part_dsc);
 1372              		.loc 1 570 27 is_stmt 0 discriminator 3 view .LVU469
 1373 0296 1B96     		str	r6, [sp, #108]
 571:lvgl/lvgl/src/core/lv_obj.c **** 
 1374              		.loc 1 571 13 is_stmt 1 discriminator 3 view .LVU470
 1375 0298 0FAA     		add	r2, sp, #60
 1376 029a 1A21     		movs	r1, #26
 1377 029c 2046     		mov	r0, r4
 1378 029e FFF7FEFF 		bl	lv_event_send
 1379              	.LVL134:
 573:lvgl/lvgl/src/core/lv_obj.c ****             lv_event_send(obj, LV_EVENT_DRAW_PART_END, &part_dsc);
 1380              		.loc 1 573 13 discriminator 3 view .LVU471
 1381 02a2 3A46     		mov	r2, r7
 1382 02a4 2946     		mov	r1, r5
 1383 02a6 6846     		mov	r0, sp
 1384 02a8 FFF7FEFF 		bl	lv_draw_rect
 1385              	.LVL135:
 574:lvgl/lvgl/src/core/lv_obj.c ****         }
 1386              		.loc 1 574 13 discriminator 3 view .LVU472
 1387 02ac 0FAA     		add	r2, sp, #60
 1388 02ae 1B21     		movs	r1, #27
 1389 02b0 2046     		mov	r0, r4
 1390 02b2 FFF7FEFF 		bl	lv_event_send
 1391              	.LVL136:
 1392 02b6 B5E6     		b	.L36
 1393              	.LVL137:
 1394              	.L54:
 574:lvgl/lvgl/src/core/lv_obj.c ****         }
 1395              		.loc 1 574 13 is_stmt 0 discriminator 3 view .LVU473
 1396              	.LBE163:
 1397              	.LBB170:
 538:lvgl/lvgl/src/core/lv_obj.c ****             if(param) {
 1398              		.loc 1 538 13 is_stmt 1 view .LVU474
 538:lvgl/lvgl/src/core/lv_obj.c ****             if(param) {
 1399              		.loc 1 538 51 is_stmt 0 view .LVU475
 1400 02b8 04F59070 		add	r0, r4, #288
 1401 02bc FFF7FEFF 		bl	lv_draw_mask_remove_custom
 1402              	.LVL138:
ARM GAS  C:\Users\gx\AppData\Local\Temp\cccIVLs9.s 			page 59


 539:lvgl/lvgl/src/core/lv_obj.c ****                 lv_draw_mask_free_param(param);
 1403              		.loc 1 539 13 is_stmt 1 view .LVU476
 539:lvgl/lvgl/src/core/lv_obj.c ****                 lv_draw_mask_free_param(param);
 1404              		.loc 1 539 15 is_stmt 0 view .LVU477
 1405 02c0 0646     		mov	r6, r0
 1406              	.LVL139:
 539:lvgl/lvgl/src/core/lv_obj.c ****                 lv_draw_mask_free_param(param);
 1407              		.loc 1 539 15 view .LVU478
 1408 02c2 0028     		cmp	r0, #0
 1409 02c4 A0D0     		beq	.L48
 540:lvgl/lvgl/src/core/lv_obj.c ****                 lv_mem_buf_release(param);
 1410              		.loc 1 540 17 is_stmt 1 view .LVU479
 1411 02c6 FFF7FEFF 		bl	lv_draw_mask_free_param
 1412              	.LVL140:
 541:lvgl/lvgl/src/core/lv_obj.c ****             }
 1413              		.loc 1 541 17 view .LVU480
 1414 02ca 3046     		mov	r0, r6
 1415 02cc FFF7FEFF 		bl	lv_mem_buf_release
 1416              	.LVL141:
 1417 02d0 9AE7     		b	.L48
 1418              	.L56:
 1419 02d2 00BF     		.align	2
 1420              	.L55:
 1421 02d4 00000000 		.word	.LANCHOR0
 1422              	.LBE170:
 1423              	.LBE158:
 1424              		.cfi_endproc
 1425              	.LFE178:
 1427              		.section	.text.lv_obj_constructor,"ax",%progbits
 1428              		.align	1
 1429              		.syntax unified
 1430              		.thumb
 1431              		.thumb_func
 1432              		.fpu fpv4-sp-d16
 1434              	lv_obj_constructor:
 1435              	.LVL142:
 1436              	.LFB176:
 376:lvgl/lvgl/src/core/lv_obj.c ****     LV_UNUSED(class_p);
 1437              		.loc 1 376 1 view -0
 1438              		.cfi_startproc
 1439              		@ args = 0, pretend = 0, frame = 0
 1440              		@ frame_needed = 0, uses_anonymous_args = 0
 376:lvgl/lvgl/src/core/lv_obj.c ****     LV_UNUSED(class_p);
 1441              		.loc 1 376 1 is_stmt 0 view .LVU482
 1442 0000 2DE9F041 		push	{r4, r5, r6, r7, r8, lr}
 1443              	.LCFI10:
 1444              		.cfi_def_cfa_offset 24
 1445              		.cfi_offset 4, -24
 1446              		.cfi_offset 5, -20
 1447              		.cfi_offset 6, -16
 1448              		.cfi_offset 7, -12
 1449              		.cfi_offset 8, -8
 1450              		.cfi_offset 14, -4
 1451 0004 0C46     		mov	r4, r1
 377:lvgl/lvgl/src/core/lv_obj.c ****     LV_TRACE_OBJ_CREATE("begin");
 1452              		.loc 1 377 5 is_stmt 1 view .LVU483
 378:lvgl/lvgl/src/core/lv_obj.c **** 
ARM GAS  C:\Users\gx\AppData\Local\Temp\cccIVLs9.s 			page 60


 1453              		.loc 1 378 5 view .LVU484
 378:lvgl/lvgl/src/core/lv_obj.c **** 
 1454              		.loc 1 378 5 view .LVU485
 378:lvgl/lvgl/src/core/lv_obj.c **** 
 1455              		.loc 1 378 5 view .LVU486
 378:lvgl/lvgl/src/core/lv_obj.c **** 
 1456              		.loc 1 378 33 view .LVU487
 380:lvgl/lvgl/src/core/lv_obj.c ****     if(parent) {
 1457              		.loc 1 380 5 view .LVU488
 380:lvgl/lvgl/src/core/lv_obj.c ****     if(parent) {
 1458              		.loc 1 380 16 is_stmt 0 view .LVU489
 1459 0006 4D68     		ldr	r5, [r1, #4]
 1460              	.LVL143:
 381:lvgl/lvgl/src/core/lv_obj.c ****         lv_coord_t sl = lv_obj_get_scroll_left(parent);
 1461              		.loc 1 381 5 is_stmt 1 view .LVU490
 381:lvgl/lvgl/src/core/lv_obj.c ****         lv_coord_t sl = lv_obj_get_scroll_left(parent);
 1462              		.loc 1 381 7 is_stmt 0 view .LVU491
 1463 0008 35B3     		cbz	r5, .L58
 1464              	.LBB171:
 382:lvgl/lvgl/src/core/lv_obj.c ****         lv_coord_t st = lv_obj_get_scroll_top(parent);
 1465              		.loc 1 382 9 is_stmt 1 view .LVU492
 382:lvgl/lvgl/src/core/lv_obj.c ****         lv_coord_t st = lv_obj_get_scroll_top(parent);
 1466              		.loc 1 382 25 is_stmt 0 view .LVU493
 1467 000a 2846     		mov	r0, r5
 1468              	.LVL144:
 382:lvgl/lvgl/src/core/lv_obj.c ****         lv_coord_t st = lv_obj_get_scroll_top(parent);
 1469              		.loc 1 382 25 view .LVU494
 1470 000c FFF7FEFF 		bl	lv_obj_get_scroll_left
 1471              	.LVL145:
 382:lvgl/lvgl/src/core/lv_obj.c ****         lv_coord_t st = lv_obj_get_scroll_top(parent);
 1472              		.loc 1 382 25 view .LVU495
 1473 0010 0646     		mov	r6, r0
 1474              	.LVL146:
 383:lvgl/lvgl/src/core/lv_obj.c **** 
 1475              		.loc 1 383 9 is_stmt 1 view .LVU496
 383:lvgl/lvgl/src/core/lv_obj.c **** 
 1476              		.loc 1 383 25 is_stmt 0 view .LVU497
 1477 0012 2846     		mov	r0, r5
 1478 0014 FFF7FEFF 		bl	lv_obj_get_scroll_top
 1479              	.LVL147:
 1480 0018 0746     		mov	r7, r0
 1481              	.LVL148:
 385:lvgl/lvgl/src/core/lv_obj.c ****         obj->coords.y2 = obj->coords.y1 - 1;
 1482              		.loc 1 385 9 is_stmt 1 view .LVU498
 385:lvgl/lvgl/src/core/lv_obj.c ****         obj->coords.y2 = obj->coords.y1 - 1;
 1483              		.loc 1 385 40 is_stmt 0 view .LVU499
 1484 001a B5F81680 		ldrh	r8, [r5, #22]
 1485              	.LVL149:
 1486              	.LBB172:
 1487              	.LBI172:
  91:lvgl/lvgl/src/core/lv_obj_style_gen.h **** {
 1488              		.loc 2 91 26 is_stmt 1 view .LVU500
 1489              	.LBB173:
  93:lvgl/lvgl/src/core/lv_obj_style_gen.h ****     return (lv_coord_t)v.num;
 1490              		.loc 2 93 5 view .LVU501
  93:lvgl/lvgl/src/core/lv_obj_style_gen.h ****     return (lv_coord_t)v.num;
 1491              		.loc 2 93 26 is_stmt 0 view .LVU502
ARM GAS  C:\Users\gx\AppData\Local\Temp\cccIVLs9.s 			page 61


 1492 001e 41F21002 		movw	r2, #4112
 1493 0022 0021     		movs	r1, #0
 1494 0024 2846     		mov	r0, r5
 1495 0026 FFF7FEFF 		bl	lv_obj_get_style_prop
 1496              	.LVL150:
  94:lvgl/lvgl/src/core/lv_obj_style_gen.h **** }
 1497              		.loc 2 94 5 is_stmt 1 view .LVU503
  94:lvgl/lvgl/src/core/lv_obj_style_gen.h **** }
 1498              		.loc 2 94 5 is_stmt 0 view .LVU504
 1499              	.LBE173:
 1500              	.LBE172:
 385:lvgl/lvgl/src/core/lv_obj.c ****         obj->coords.y2 = obj->coords.y1 - 1;
 1501              		.loc 1 385 44 view .LVU505
 1502 002a 18FA80F3 		uxtah	r3, r8, r0
 1503 002e 9BB2     		uxth	r3, r3
 385:lvgl/lvgl/src/core/lv_obj.c ****         obj->coords.y2 = obj->coords.y1 - 1;
 1504              		.loc 1 385 93 view .LVU506
 1505 0030 DB1B     		subs	r3, r3, r7
 1506 0032 9AB2     		uxth	r2, r3
 385:lvgl/lvgl/src/core/lv_obj.c ****         obj->coords.y2 = obj->coords.y1 - 1;
 1507              		.loc 1 385 24 view .LVU507
 1508 0034 E382     		strh	r3, [r4, #22]	@ movhi
 386:lvgl/lvgl/src/core/lv_obj.c ****         obj->coords.x1  = parent->coords.x1 + lv_obj_get_style_pad_left(parent, LV_PART_MAIN) - sl;
 1509              		.loc 1 386 9 is_stmt 1 view .LVU508
 386:lvgl/lvgl/src/core/lv_obj.c ****         obj->coords.x1  = parent->coords.x1 + lv_obj_get_style_pad_left(parent, LV_PART_MAIN) - sl;
 1510              		.loc 1 386 41 is_stmt 0 view .LVU509
 1511 0036 531E     		subs	r3, r2, #1
 386:lvgl/lvgl/src/core/lv_obj.c ****         obj->coords.x1  = parent->coords.x1 + lv_obj_get_style_pad_left(parent, LV_PART_MAIN) - sl;
 1512              		.loc 1 386 24 view .LVU510
 1513 0038 6383     		strh	r3, [r4, #26]	@ movhi
 387:lvgl/lvgl/src/core/lv_obj.c ****         obj->coords.x2  = obj->coords.x1 - 1;
 1514              		.loc 1 387 9 is_stmt 1 view .LVU511
 387:lvgl/lvgl/src/core/lv_obj.c ****         obj->coords.x2  = obj->coords.x1 - 1;
 1515              		.loc 1 387 41 is_stmt 0 view .LVU512
 1516 003a AF8A     		ldrh	r7, [r5, #20]
 1517              	.LVL151:
 1518              	.LBB174:
 1519              	.LBI174:
 103:lvgl/lvgl/src/core/lv_obj_style_gen.h **** {
 1520              		.loc 2 103 26 is_stmt 1 view .LVU513
 1521              	.LBB175:
 105:lvgl/lvgl/src/core/lv_obj_style_gen.h ****     return (lv_coord_t)v.num;
 1522              		.loc 2 105 5 view .LVU514
 105:lvgl/lvgl/src/core/lv_obj_style_gen.h ****     return (lv_coord_t)v.num;
 1523              		.loc 2 105 26 is_stmt 0 view .LVU515
 1524 003c 41F21202 		movw	r2, #4114
 1525 0040 0021     		movs	r1, #0
 1526 0042 2846     		mov	r0, r5
 1527 0044 FFF7FEFF 		bl	lv_obj_get_style_prop
 1528              	.LVL152:
 106:lvgl/lvgl/src/core/lv_obj_style_gen.h **** }
 1529              		.loc 2 106 5 is_stmt 1 view .LVU516
 106:lvgl/lvgl/src/core/lv_obj_style_gen.h **** }
 1530              		.loc 2 106 5 is_stmt 0 view .LVU517
 1531              	.LBE175:
 1532              	.LBE174:
 387:lvgl/lvgl/src/core/lv_obj.c ****         obj->coords.x2  = obj->coords.x1 - 1;
ARM GAS  C:\Users\gx\AppData\Local\Temp\cccIVLs9.s 			page 62


 1533              		.loc 1 387 45 view .LVU518
 1534 0048 17FA80F3 		uxtah	r3, r7, r0
 1535 004c 9BB2     		uxth	r3, r3
 387:lvgl/lvgl/src/core/lv_obj.c ****         obj->coords.x2  = obj->coords.x1 - 1;
 1536              		.loc 1 387 95 view .LVU519
 1537 004e 981B     		subs	r0, r3, r6
 1538 0050 83B2     		uxth	r3, r0
 387:lvgl/lvgl/src/core/lv_obj.c ****         obj->coords.x2  = obj->coords.x1 - 1;
 1539              		.loc 1 387 25 view .LVU520
 1540 0052 A082     		strh	r0, [r4, #20]	@ movhi
 388:lvgl/lvgl/src/core/lv_obj.c ****     }
 1541              		.loc 1 388 9 is_stmt 1 view .LVU521
 388:lvgl/lvgl/src/core/lv_obj.c ****     }
 1542              		.loc 1 388 42 is_stmt 0 view .LVU522
 1543 0054 013B     		subs	r3, r3, #1
 388:lvgl/lvgl/src/core/lv_obj.c ****     }
 1544              		.loc 1 388 25 view .LVU523
 1545 0056 2383     		strh	r3, [r4, #24]	@ movhi
 1546              	.LVL153:
 1547              	.L58:
 388:lvgl/lvgl/src/core/lv_obj.c ****     }
 1548              		.loc 1 388 25 view .LVU524
 1549              	.LBE171:
 392:lvgl/lvgl/src/core/lv_obj.c ****     obj->flags |= LV_OBJ_FLAG_SNAPPABLE;
 1550              		.loc 1 392 5 is_stmt 1 view .LVU525
 393:lvgl/lvgl/src/core/lv_obj.c ****     if(parent) obj->flags |= LV_OBJ_FLAG_PRESS_LOCK;
 1551              		.loc 1 393 5 view .LVU526
 393:lvgl/lvgl/src/core/lv_obj.c ****     if(parent) obj->flags |= LV_OBJ_FLAG_PRESS_LOCK;
 1552              		.loc 1 393 16 is_stmt 0 view .LVU527
 1553 0058 40F20243 		movw	r3, #1026
 1554 005c E361     		str	r3, [r4, #28]
 394:lvgl/lvgl/src/core/lv_obj.c ****     if(parent) obj->flags |= LV_OBJ_FLAG_SCROLL_CHAIN;
 1555              		.loc 1 394 5 is_stmt 1 view .LVU528
 394:lvgl/lvgl/src/core/lv_obj.c ****     if(parent) obj->flags |= LV_OBJ_FLAG_SCROLL_CHAIN;
 1556              		.loc 1 394 7 is_stmt 0 view .LVU529
 1557 005e 15B1     		cbz	r5, .L59
 394:lvgl/lvgl/src/core/lv_obj.c ****     if(parent) obj->flags |= LV_OBJ_FLAG_SCROLL_CHAIN;
 1558              		.loc 1 394 16 is_stmt 1 discriminator 1 view .LVU530
 394:lvgl/lvgl/src/core/lv_obj.c ****     if(parent) obj->flags |= LV_OBJ_FLAG_SCROLL_CHAIN;
 1559              		.loc 1 394 27 is_stmt 0 discriminator 1 view .LVU531
 1560 0060 40F60243 		movw	r3, #3074
 1561 0064 E361     		str	r3, [r4, #28]
 1562              	.L59:
 395:lvgl/lvgl/src/core/lv_obj.c ****     obj->flags |= LV_OBJ_FLAG_CLICK_FOCUSABLE;
 1563              		.loc 1 395 5 is_stmt 1 view .LVU532
 395:lvgl/lvgl/src/core/lv_obj.c ****     obj->flags |= LV_OBJ_FLAG_CLICK_FOCUSABLE;
 1564              		.loc 1 395 7 is_stmt 0 view .LVU533
 1565 0066 1DB1     		cbz	r5, .L60
 395:lvgl/lvgl/src/core/lv_obj.c ****     obj->flags |= LV_OBJ_FLAG_CLICK_FOCUSABLE;
 1566              		.loc 1 395 16 is_stmt 1 discriminator 1 view .LVU534
 395:lvgl/lvgl/src/core/lv_obj.c ****     obj->flags |= LV_OBJ_FLAG_CLICK_FOCUSABLE;
 1567              		.loc 1 395 27 is_stmt 0 discriminator 1 view .LVU535
 1568 0068 E369     		ldr	r3, [r4, #28]
 1569 006a 43F48073 		orr	r3, r3, #256
 1570 006e E361     		str	r3, [r4, #28]
 1571              	.L60:
 396:lvgl/lvgl/src/core/lv_obj.c ****     obj->flags |= LV_OBJ_FLAG_SCROLLABLE;
ARM GAS  C:\Users\gx\AppData\Local\Temp\cccIVLs9.s 			page 63


 1572              		.loc 1 396 5 is_stmt 1 view .LVU536
 396:lvgl/lvgl/src/core/lv_obj.c ****     obj->flags |= LV_OBJ_FLAG_SCROLLABLE;
 1573              		.loc 1 396 16 is_stmt 0 view .LVU537
 1574 0070 E369     		ldr	r3, [r4, #28]
 397:lvgl/lvgl/src/core/lv_obj.c ****     obj->flags |= LV_OBJ_FLAG_SCROLL_ELASTIC;
 1575              		.loc 1 397 5 is_stmt 1 view .LVU538
 398:lvgl/lvgl/src/core/lv_obj.c ****     obj->flags |= LV_OBJ_FLAG_SCROLL_MOMENTUM;
 1576              		.loc 1 398 5 view .LVU539
 399:lvgl/lvgl/src/core/lv_obj.c ****     if(parent) obj->flags |= LV_OBJ_FLAG_GESTURE_BUBBLE;
 1577              		.loc 1 399 5 view .LVU540
 399:lvgl/lvgl/src/core/lv_obj.c ****     if(parent) obj->flags |= LV_OBJ_FLAG_GESTURE_BUBBLE;
 1578              		.loc 1 399 16 is_stmt 0 view .LVU541
 1579 0072 43F07403 		orr	r3, r3, #116
 1580 0076 E361     		str	r3, [r4, #28]
 400:lvgl/lvgl/src/core/lv_obj.c **** 
 1581              		.loc 1 400 5 is_stmt 1 view .LVU542
 400:lvgl/lvgl/src/core/lv_obj.c **** 
 1582              		.loc 1 400 7 is_stmt 0 view .LVU543
 1583 0078 15B1     		cbz	r5, .L57
 400:lvgl/lvgl/src/core/lv_obj.c **** 
 1584              		.loc 1 400 16 is_stmt 1 discriminator 1 view .LVU544
 400:lvgl/lvgl/src/core/lv_obj.c **** 
 1585              		.loc 1 400 27 is_stmt 0 discriminator 1 view .LVU545
 1586 007a 43F40053 		orr	r3, r3, #8192
 1587 007e E361     		str	r3, [r4, #28]
 402:lvgl/lvgl/src/core/lv_obj.c **** }
 1588              		.loc 1 402 5 is_stmt 1 discriminator 1 view .LVU546
 402:lvgl/lvgl/src/core/lv_obj.c **** }
 1589              		.loc 1 402 5 discriminator 1 view .LVU547
 402:lvgl/lvgl/src/core/lv_obj.c **** }
 1590              		.loc 1 402 5 discriminator 1 view .LVU548
 402:lvgl/lvgl/src/core/lv_obj.c **** }
 1591              		.loc 1 402 36 discriminator 1 view .LVU549
 1592              	.L57:
 403:lvgl/lvgl/src/core/lv_obj.c **** 
 1593              		.loc 1 403 1 is_stmt 0 view .LVU550
 1594 0080 BDE8F081 		pop	{r4, r5, r6, r7, r8, pc}
 403:lvgl/lvgl/src/core/lv_obj.c **** 
 1595              		.loc 1 403 1 view .LVU551
 1596              		.cfi_endproc
 1597              	.LFE176:
 1599              		.section	.text.lv_obj_set_state,"ax",%progbits
 1600              		.align	1
 1601              		.syntax unified
 1602              		.thumb
 1603              		.thumb_func
 1604              		.fpu fpv4-sp-d16
 1606              	lv_obj_set_state:
 1607              	.LVL154:
 1608              	.LFB182:
 824:lvgl/lvgl/src/core/lv_obj.c ****     if(obj->state == new_state) return;
 1609              		.loc 1 824 1 is_stmt 1 view -0
 1610              		.cfi_startproc
 1611              		@ args = 0, pretend = 0, frame = 40
 1612              		@ frame_needed = 0, uses_anonymous_args = 0
 824:lvgl/lvgl/src/core/lv_obj.c ****     if(obj->state == new_state) return;
 1613              		.loc 1 824 1 is_stmt 0 view .LVU553
ARM GAS  C:\Users\gx\AppData\Local\Temp\cccIVLs9.s 			page 64


 1614 0000 2DE9F04F 		push	{r4, r5, r6, r7, r8, r9, r10, fp, lr}
 1615              	.LCFI11:
 1616              		.cfi_def_cfa_offset 36
 1617              		.cfi_offset 4, -36
 1618              		.cfi_offset 5, -32
 1619              		.cfi_offset 6, -28
 1620              		.cfi_offset 7, -24
 1621              		.cfi_offset 8, -20
 1622              		.cfi_offset 9, -16
 1623              		.cfi_offset 10, -12
 1624              		.cfi_offset 11, -8
 1625              		.cfi_offset 14, -4
 1626 0004 8DB0     		sub	sp, sp, #52
 1627              	.LCFI12:
 1628              		.cfi_def_cfa_offset 88
 1629 0006 0690     		str	r0, [sp, #24]
 1630 0008 0791     		str	r1, [sp, #28]
 825:lvgl/lvgl/src/core/lv_obj.c **** 
 1631              		.loc 1 825 5 is_stmt 1 view .LVU554
 825:lvgl/lvgl/src/core/lv_obj.c **** 
 1632              		.loc 1 825 11 is_stmt 0 view .LVU555
 1633 000a 038C     		ldrh	r3, [r0, #32]
 1634 000c 0993     		str	r3, [sp, #36]
 825:lvgl/lvgl/src/core/lv_obj.c **** 
 1635              		.loc 1 825 7 view .LVU556
 1636 000e 8B42     		cmp	r3, r1
 1637 0010 06D0     		beq	.L63
 827:lvgl/lvgl/src/core/lv_obj.c **** 
 1638              		.loc 1 827 5 is_stmt 1 view .LVU557
 827:lvgl/lvgl/src/core/lv_obj.c **** 
 1639              		.loc 1 827 5 view .LVU558
 827:lvgl/lvgl/src/core/lv_obj.c **** 
 1640              		.loc 1 827 5 view .LVU559
 829:lvgl/lvgl/src/core/lv_obj.c ****     obj->state = new_state;
 1641              		.loc 1 829 5 view .LVU560
 1642              	.LVL155:
 830:lvgl/lvgl/src/core/lv_obj.c **** 
 1643              		.loc 1 830 5 view .LVU561
 830:lvgl/lvgl/src/core/lv_obj.c **** 
 1644              		.loc 1 830 16 is_stmt 0 view .LVU562
 1645 0012 0184     		strh	r1, [r0, #32]	@ movhi
 832:lvgl/lvgl/src/core/lv_obj.c ****     /*If there is no difference in styles there is nothing else to do*/
 1646              		.loc 1 832 5 is_stmt 1 view .LVU563
 832:lvgl/lvgl/src/core/lv_obj.c ****     /*If there is no difference in styles there is nothing else to do*/
 1647              		.loc 1 832 37 is_stmt 0 view .LVU564
 1648 0014 0A46     		mov	r2, r1
 1649 0016 1946     		mov	r1, r3
 1650              	.LVL156:
 832:lvgl/lvgl/src/core/lv_obj.c ****     /*If there is no difference in styles there is nothing else to do*/
 1651              		.loc 1 832 37 view .LVU565
 1652 0018 FFF7FEFF 		bl	_lv_obj_style_state_compare
 1653              	.LVL157:
 834:lvgl/lvgl/src/core/lv_obj.c **** 
 1654              		.loc 1 834 5 is_stmt 1 view .LVU566
 834:lvgl/lvgl/src/core/lv_obj.c **** 
 1655              		.loc 1 834 7 is_stmt 0 view .LVU567
 1656 001c 0A90     		str	r0, [sp, #40]
ARM GAS  C:\Users\gx\AppData\Local\Temp\cccIVLs9.s 			page 65


 1657 001e 10B9     		cbnz	r0, .L95
 1658              	.LVL158:
 1659              	.L63:
 894:lvgl/lvgl/src/core/lv_obj.c **** 
 1660              		.loc 1 894 1 view .LVU568
 1661 0020 0DB0     		add	sp, sp, #52
 1662              	.LCFI13:
 1663              		.cfi_remember_state
 1664              		.cfi_def_cfa_offset 36
 1665              		@ sp needed
 1666 0022 BDE8F08F 		pop	{r4, r5, r6, r7, r8, r9, r10, fp, pc}
 1667              	.LVL159:
 1668              	.L95:
 1669              	.LCFI14:
 1670              		.cfi_restore_state
 836:lvgl/lvgl/src/core/lv_obj.c ****     lv_memset_00(ts, sizeof(_lv_obj_style_transition_dsc_t) * STYLE_TRANSITION_MAX);
 1671              		.loc 1 836 5 is_stmt 1 view .LVU569
 836:lvgl/lvgl/src/core/lv_obj.c ****     lv_memset_00(ts, sizeof(_lv_obj_style_transition_dsc_t) * STYLE_TRANSITION_MAX);
 1672              		.loc 1 836 43 is_stmt 0 view .LVU570
 1673 0026 4FF42070 		mov	r0, #640
 1674              	.LVL160:
 836:lvgl/lvgl/src/core/lv_obj.c ****     lv_memset_00(ts, sizeof(_lv_obj_style_transition_dsc_t) * STYLE_TRANSITION_MAX);
 1675              		.loc 1 836 43 view .LVU571
 1676 002a FFF7FEFF 		bl	lv_mem_buf_get
 1677              	.LVL161:
 1678 002e 8246     		mov	r10, r0
 1679              	.LVL162:
 837:lvgl/lvgl/src/core/lv_obj.c ****     uint32_t tsi = 0;
 1680              		.loc 1 837 5 is_stmt 1 view .LVU572
 1681 0030 4FF42071 		mov	r1, #640
 1682 0034 FFF7FEFF 		bl	lv_memset_00
 1683              	.LVL163:
 838:lvgl/lvgl/src/core/lv_obj.c ****     uint32_t i;
 1684              		.loc 1 838 5 view .LVU573
 839:lvgl/lvgl/src/core/lv_obj.c ****     for(i = 0; i < obj->style_cnt && tsi < STYLE_TRANSITION_MAX; i++) {
 1685              		.loc 1 839 5 view .LVU574
 840:lvgl/lvgl/src/core/lv_obj.c ****         _lv_obj_style_t * obj_style = &obj->styles[i];
 1686              		.loc 1 840 5 view .LVU575
 840:lvgl/lvgl/src/core/lv_obj.c ****         _lv_obj_style_t * obj_style = &obj->styles[i];
 1687              		.loc 1 840 11 is_stmt 0 view .LVU576
 1688 0038 0023     		movs	r3, #0
 1689 003a 0393     		str	r3, [sp, #12]
 838:lvgl/lvgl/src/core/lv_obj.c ****     uint32_t i;
 1690              		.loc 1 838 14 view .LVU577
 1691 003c 9B46     		mov	fp, r3
 840:lvgl/lvgl/src/core/lv_obj.c ****         _lv_obj_style_t * obj_style = &obj->styles[i];
 1692              		.loc 1 840 5 view .LVU578
 1693 003e 1EE0     		b	.L65
 1694              	.LVL164:
 1695              	.L98:
 1696              	.LBB185:
 1697              	.LBB186:
 1698              	.LBB187:
 1699              	.LBB188:
 1700              		.file 4 "lvgl/lvgl/src/core/../misc/lv_style.h"
   1:lvgl/lvgl/src/core/../misc/lv_style.h **** /**
   2:lvgl/lvgl/src/core/../misc/lv_style.h ****  * @file lv_style.h
ARM GAS  C:\Users\gx\AppData\Local\Temp\cccIVLs9.s 			page 66


   3:lvgl/lvgl/src/core/../misc/lv_style.h ****  *
   4:lvgl/lvgl/src/core/../misc/lv_style.h ****  */
   5:lvgl/lvgl/src/core/../misc/lv_style.h **** 
   6:lvgl/lvgl/src/core/../misc/lv_style.h **** #ifndef LV_STYLE_H
   7:lvgl/lvgl/src/core/../misc/lv_style.h **** #define LV_STYLE_H
   8:lvgl/lvgl/src/core/../misc/lv_style.h **** 
   9:lvgl/lvgl/src/core/../misc/lv_style.h **** #ifdef __cplusplus
  10:lvgl/lvgl/src/core/../misc/lv_style.h **** extern "C" {
  11:lvgl/lvgl/src/core/../misc/lv_style.h **** #endif
  12:lvgl/lvgl/src/core/../misc/lv_style.h **** 
  13:lvgl/lvgl/src/core/../misc/lv_style.h **** /*********************
  14:lvgl/lvgl/src/core/../misc/lv_style.h ****  *      INCLUDES
  15:lvgl/lvgl/src/core/../misc/lv_style.h ****  *********************/
  16:lvgl/lvgl/src/core/../misc/lv_style.h **** #include <stdbool.h>
  17:lvgl/lvgl/src/core/../misc/lv_style.h **** #include "../font/lv_font.h"
  18:lvgl/lvgl/src/core/../misc/lv_style.h **** #include "lv_color.h"
  19:lvgl/lvgl/src/core/../misc/lv_style.h **** #include "lv_area.h"
  20:lvgl/lvgl/src/core/../misc/lv_style.h **** #include "lv_anim.h"
  21:lvgl/lvgl/src/core/../misc/lv_style.h **** #include "lv_txt.h"
  22:lvgl/lvgl/src/core/../misc/lv_style.h **** #include "lv_types.h"
  23:lvgl/lvgl/src/core/../misc/lv_style.h **** #include "lv_assert.h"
  24:lvgl/lvgl/src/core/../misc/lv_style.h **** #include "lv_bidi.h"
  25:lvgl/lvgl/src/core/../misc/lv_style.h **** 
  26:lvgl/lvgl/src/core/../misc/lv_style.h **** /*********************
  27:lvgl/lvgl/src/core/../misc/lv_style.h ****  *      DEFINES
  28:lvgl/lvgl/src/core/../misc/lv_style.h ****  *********************/
  29:lvgl/lvgl/src/core/../misc/lv_style.h **** 
  30:lvgl/lvgl/src/core/../misc/lv_style.h **** #define LV_STYLE_SENTINEL_VALUE     0xAABBCCDD
  31:lvgl/lvgl/src/core/../misc/lv_style.h **** 
  32:lvgl/lvgl/src/core/../misc/lv_style.h **** /**
  33:lvgl/lvgl/src/core/../misc/lv_style.h ****  * Flags for style properties
  34:lvgl/lvgl/src/core/../misc/lv_style.h ****  */
  35:lvgl/lvgl/src/core/../misc/lv_style.h **** #define LV_STYLE_PROP_INHERIT               (1 << 10)  /*Inherited*/
  36:lvgl/lvgl/src/core/../misc/lv_style.h **** #define LV_STYLE_PROP_EXT_DRAW              (1 << 11)  /*Requires ext. draw size update when change
  37:lvgl/lvgl/src/core/../misc/lv_style.h **** #define LV_STYLE_PROP_LAYOUT_REFR           (1 << 12)  /*Requires layout update when changed*/
  38:lvgl/lvgl/src/core/../misc/lv_style.h **** #define LV_STYLE_PROP_PARENT_LAYOUT_REFR    (1 << 13)  /*Requires layout update on parent when chan
  39:lvgl/lvgl/src/core/../misc/lv_style.h **** #define LV_STYLE_PROP_FILTER                (1 << 14)  /*Apply color filter*/
  40:lvgl/lvgl/src/core/../misc/lv_style.h **** 
  41:lvgl/lvgl/src/core/../misc/lv_style.h **** /**
  42:lvgl/lvgl/src/core/../misc/lv_style.h ****  * Other constants
  43:lvgl/lvgl/src/core/../misc/lv_style.h ****  */
  44:lvgl/lvgl/src/core/../misc/lv_style.h **** #define LV_IMG_ZOOM_NONE            256        /*Value for not zooming the image*/
  45:lvgl/lvgl/src/core/../misc/lv_style.h **** LV_EXPORT_CONST_INT(LV_IMG_ZOOM_NONE);
  46:lvgl/lvgl/src/core/../misc/lv_style.h **** 
  47:lvgl/lvgl/src/core/../misc/lv_style.h **** #if LV_USE_ASSERT_STYLE
  48:lvgl/lvgl/src/core/../misc/lv_style.h **** #define LV_STYLE_CONST_INIT(var_name, prop_array) const lv_style_t var_name = { .sentinel = LV_STYL
  49:lvgl/lvgl/src/core/../misc/lv_style.h **** #else
  50:lvgl/lvgl/src/core/../misc/lv_style.h **** #define LV_STYLE_CONST_INIT(var_name, prop_array) const lv_style_t var_name = { .v_p = { .const_pro
  51:lvgl/lvgl/src/core/../misc/lv_style.h **** #endif
  52:lvgl/lvgl/src/core/../misc/lv_style.h **** 
  53:lvgl/lvgl/src/core/../misc/lv_style.h **** /**********************
  54:lvgl/lvgl/src/core/../misc/lv_style.h ****  *      TYPEDEFS
  55:lvgl/lvgl/src/core/../misc/lv_style.h ****  **********************/
  56:lvgl/lvgl/src/core/../misc/lv_style.h **** 
  57:lvgl/lvgl/src/core/../misc/lv_style.h **** /**
  58:lvgl/lvgl/src/core/../misc/lv_style.h ****  * Possible options how to blend opaque drawings
  59:lvgl/lvgl/src/core/../misc/lv_style.h ****  */
ARM GAS  C:\Users\gx\AppData\Local\Temp\cccIVLs9.s 			page 67


  60:lvgl/lvgl/src/core/../misc/lv_style.h **** enum {
  61:lvgl/lvgl/src/core/../misc/lv_style.h ****     LV_BLEND_MODE_NORMAL,     /**< Simply mix according to the opacity value*/
  62:lvgl/lvgl/src/core/../misc/lv_style.h ****     LV_BLEND_MODE_ADDITIVE,   /**< Add the respective color channels*/
  63:lvgl/lvgl/src/core/../misc/lv_style.h ****     LV_BLEND_MODE_SUBTRACTIVE,/**< Subtract the foreground from the background*/
  64:lvgl/lvgl/src/core/../misc/lv_style.h **** };
  65:lvgl/lvgl/src/core/../misc/lv_style.h **** 
  66:lvgl/lvgl/src/core/../misc/lv_style.h **** typedef uint8_t lv_blend_mode_t;
  67:lvgl/lvgl/src/core/../misc/lv_style.h **** 
  68:lvgl/lvgl/src/core/../misc/lv_style.h **** /**
  69:lvgl/lvgl/src/core/../misc/lv_style.h ****  * Some options to apply decorations on texts.
  70:lvgl/lvgl/src/core/../misc/lv_style.h ****  * 'OR'ed values can be used.
  71:lvgl/lvgl/src/core/../misc/lv_style.h ****  */
  72:lvgl/lvgl/src/core/../misc/lv_style.h **** enum {
  73:lvgl/lvgl/src/core/../misc/lv_style.h ****     LV_TEXT_DECOR_NONE          = 0x00,
  74:lvgl/lvgl/src/core/../misc/lv_style.h ****     LV_TEXT_DECOR_UNDERLINE     = 0x01,
  75:lvgl/lvgl/src/core/../misc/lv_style.h ****     LV_TEXT_DECOR_STRIKETHROUGH = 0x02,
  76:lvgl/lvgl/src/core/../misc/lv_style.h **** };
  77:lvgl/lvgl/src/core/../misc/lv_style.h **** 
  78:lvgl/lvgl/src/core/../misc/lv_style.h **** typedef uint8_t lv_text_decor_t;
  79:lvgl/lvgl/src/core/../misc/lv_style.h **** 
  80:lvgl/lvgl/src/core/../misc/lv_style.h **** /**
  81:lvgl/lvgl/src/core/../misc/lv_style.h ****  * Selects on which sides border should be drawn
  82:lvgl/lvgl/src/core/../misc/lv_style.h ****  * 'OR'ed values can be used.
  83:lvgl/lvgl/src/core/../misc/lv_style.h ****  */
  84:lvgl/lvgl/src/core/../misc/lv_style.h **** enum {
  85:lvgl/lvgl/src/core/../misc/lv_style.h ****     LV_BORDER_SIDE_NONE     = 0x00,
  86:lvgl/lvgl/src/core/../misc/lv_style.h ****     LV_BORDER_SIDE_BOTTOM   = 0x01,
  87:lvgl/lvgl/src/core/../misc/lv_style.h ****     LV_BORDER_SIDE_TOP      = 0x02,
  88:lvgl/lvgl/src/core/../misc/lv_style.h ****     LV_BORDER_SIDE_LEFT     = 0x04,
  89:lvgl/lvgl/src/core/../misc/lv_style.h ****     LV_BORDER_SIDE_RIGHT    = 0x08,
  90:lvgl/lvgl/src/core/../misc/lv_style.h ****     LV_BORDER_SIDE_FULL     = 0x0F,
  91:lvgl/lvgl/src/core/../misc/lv_style.h ****     LV_BORDER_SIDE_INTERNAL = 0x10, /**< FOR matrix-like objects (e.g. Button matrix)*/
  92:lvgl/lvgl/src/core/../misc/lv_style.h **** };
  93:lvgl/lvgl/src/core/../misc/lv_style.h **** typedef uint8_t lv_border_side_t;
  94:lvgl/lvgl/src/core/../misc/lv_style.h **** 
  95:lvgl/lvgl/src/core/../misc/lv_style.h **** /**
  96:lvgl/lvgl/src/core/../misc/lv_style.h ****  * The direction of the gradient.
  97:lvgl/lvgl/src/core/../misc/lv_style.h ****  */
  98:lvgl/lvgl/src/core/../misc/lv_style.h **** enum {
  99:lvgl/lvgl/src/core/../misc/lv_style.h ****     LV_GRAD_DIR_NONE, /**< No gradient (the `grad_color` property is ignored)*/
 100:lvgl/lvgl/src/core/../misc/lv_style.h ****     LV_GRAD_DIR_VER,  /**< Vertical (top to bottom) gradient*/
 101:lvgl/lvgl/src/core/../misc/lv_style.h ****     LV_GRAD_DIR_HOR,  /**< Horizontal (left to right) gradient*/
 102:lvgl/lvgl/src/core/../misc/lv_style.h **** };
 103:lvgl/lvgl/src/core/../misc/lv_style.h **** 
 104:lvgl/lvgl/src/core/../misc/lv_style.h **** typedef uint8_t lv_grad_dir_t;
 105:lvgl/lvgl/src/core/../misc/lv_style.h **** 
 106:lvgl/lvgl/src/core/../misc/lv_style.h **** /**
 107:lvgl/lvgl/src/core/../misc/lv_style.h ****  * A common type to handle all the property types in the same way.
 108:lvgl/lvgl/src/core/../misc/lv_style.h ****  */
 109:lvgl/lvgl/src/core/../misc/lv_style.h **** typedef union {
 110:lvgl/lvgl/src/core/../misc/lv_style.h ****     int32_t num;         /**< Number integer number (opacity, enums, booleans or "normal" numbers)*
 111:lvgl/lvgl/src/core/../misc/lv_style.h ****     const void * ptr;    /**< Constant pointers  (font, cone text, etc)*/
 112:lvgl/lvgl/src/core/../misc/lv_style.h ****     lv_color_t color;    /**< Colors*/
 113:lvgl/lvgl/src/core/../misc/lv_style.h **** }lv_style_value_t;
 114:lvgl/lvgl/src/core/../misc/lv_style.h **** 
 115:lvgl/lvgl/src/core/../misc/lv_style.h **** /**
 116:lvgl/lvgl/src/core/../misc/lv_style.h ****  * Enumeration of all built in style properties
ARM GAS  C:\Users\gx\AppData\Local\Temp\cccIVLs9.s 			page 68


 117:lvgl/lvgl/src/core/../misc/lv_style.h ****  */
 118:lvgl/lvgl/src/core/../misc/lv_style.h **** typedef enum {
 119:lvgl/lvgl/src/core/../misc/lv_style.h ****     LV_STYLE_PROP_INV                = 0,
 120:lvgl/lvgl/src/core/../misc/lv_style.h **** 
 121:lvgl/lvgl/src/core/../misc/lv_style.h ****     /*Group 0*/
 122:lvgl/lvgl/src/core/../misc/lv_style.h ****     LV_STYLE_WIDTH                   = 1 | LV_STYLE_PROP_LAYOUT_REFR,
 123:lvgl/lvgl/src/core/../misc/lv_style.h ****     LV_STYLE_MIN_WIDTH               = 2 | LV_STYLE_PROP_LAYOUT_REFR,
 124:lvgl/lvgl/src/core/../misc/lv_style.h ****     LV_STYLE_MAX_WIDTH               = 3 | LV_STYLE_PROP_LAYOUT_REFR,
 125:lvgl/lvgl/src/core/../misc/lv_style.h ****     LV_STYLE_HEIGHT                  = 4 | LV_STYLE_PROP_LAYOUT_REFR,
 126:lvgl/lvgl/src/core/../misc/lv_style.h ****     LV_STYLE_MIN_HEIGHT              = 5 | LV_STYLE_PROP_LAYOUT_REFR,
 127:lvgl/lvgl/src/core/../misc/lv_style.h ****     LV_STYLE_MAX_HEIGHT              = 6 | LV_STYLE_PROP_LAYOUT_REFR,
 128:lvgl/lvgl/src/core/../misc/lv_style.h ****     LV_STYLE_X                       = 7 | LV_STYLE_PROP_LAYOUT_REFR,
 129:lvgl/lvgl/src/core/../misc/lv_style.h ****     LV_STYLE_Y                       = 8 | LV_STYLE_PROP_LAYOUT_REFR,
 130:lvgl/lvgl/src/core/../misc/lv_style.h ****     LV_STYLE_ALIGN                   = 9 | LV_STYLE_PROP_LAYOUT_REFR,
 131:lvgl/lvgl/src/core/../misc/lv_style.h ****     LV_STYLE_TRANSFORM_WIDTH         = 10 | LV_STYLE_PROP_EXT_DRAW,
 132:lvgl/lvgl/src/core/../misc/lv_style.h ****     LV_STYLE_TRANSFORM_HEIGHT        = 11 | LV_STYLE_PROP_EXT_DRAW,
 133:lvgl/lvgl/src/core/../misc/lv_style.h ****     LV_STYLE_TRANSLATE_X             = 12 | LV_STYLE_PROP_LAYOUT_REFR | LV_STYLE_PROP_PARENT_LAYOUT
 134:lvgl/lvgl/src/core/../misc/lv_style.h ****     LV_STYLE_TRANSLATE_Y             = 13 | LV_STYLE_PROP_LAYOUT_REFR | LV_STYLE_PROP_PARENT_LAYOUT
 135:lvgl/lvgl/src/core/../misc/lv_style.h ****     LV_STYLE_TRANSFORM_ZOOM          = 14 | LV_STYLE_PROP_EXT_DRAW | LV_STYLE_PROP_LAYOUT_REFR | LV
 136:lvgl/lvgl/src/core/../misc/lv_style.h ****     LV_STYLE_TRANSFORM_ANGLE         = 15 | LV_STYLE_PROP_EXT_DRAW | LV_STYLE_PROP_LAYOUT_REFR | LV
 137:lvgl/lvgl/src/core/../misc/lv_style.h **** 
 138:lvgl/lvgl/src/core/../misc/lv_style.h ****     /*Group 1*/
 139:lvgl/lvgl/src/core/../misc/lv_style.h ****     LV_STYLE_PAD_TOP                 = 16 | LV_STYLE_PROP_LAYOUT_REFR,
 140:lvgl/lvgl/src/core/../misc/lv_style.h ****     LV_STYLE_PAD_BOTTOM              = 17 | LV_STYLE_PROP_LAYOUT_REFR,
 141:lvgl/lvgl/src/core/../misc/lv_style.h ****     LV_STYLE_PAD_LEFT                = 18 | LV_STYLE_PROP_LAYOUT_REFR,
 142:lvgl/lvgl/src/core/../misc/lv_style.h ****     LV_STYLE_PAD_RIGHT               = 19 | LV_STYLE_PROP_LAYOUT_REFR,
 143:lvgl/lvgl/src/core/../misc/lv_style.h ****     LV_STYLE_PAD_ROW                 = 20 | LV_STYLE_PROP_LAYOUT_REFR,
 144:lvgl/lvgl/src/core/../misc/lv_style.h ****     LV_STYLE_PAD_COLUMN              = 21 | LV_STYLE_PROP_LAYOUT_REFR,
 145:lvgl/lvgl/src/core/../misc/lv_style.h **** 
 146:lvgl/lvgl/src/core/../misc/lv_style.h ****     /*Group 2*/
 147:lvgl/lvgl/src/core/../misc/lv_style.h ****     LV_STYLE_BG_COLOR                = 32,
 148:lvgl/lvgl/src/core/../misc/lv_style.h ****     LV_STYLE_BG_COLOR_FILTERED       = 32 | LV_STYLE_PROP_FILTER,
 149:lvgl/lvgl/src/core/../misc/lv_style.h ****     LV_STYLE_BG_OPA                  = 33,
 150:lvgl/lvgl/src/core/../misc/lv_style.h ****     LV_STYLE_BG_GRAD_COLOR           = 34,
 151:lvgl/lvgl/src/core/../misc/lv_style.h ****     LV_STYLE_BG_GRAD_COLOR_FILTERED  = 34 | LV_STYLE_PROP_FILTER,
 152:lvgl/lvgl/src/core/../misc/lv_style.h ****     LV_STYLE_BG_GRAD_DIR             = 35,
 153:lvgl/lvgl/src/core/../misc/lv_style.h ****     LV_STYLE_BG_MAIN_STOP            = 36,
 154:lvgl/lvgl/src/core/../misc/lv_style.h ****     LV_STYLE_BG_GRAD_STOP            = 37,
 155:lvgl/lvgl/src/core/../misc/lv_style.h **** 
 156:lvgl/lvgl/src/core/../misc/lv_style.h ****     LV_STYLE_BG_IMG_SRC              = 38,
 157:lvgl/lvgl/src/core/../misc/lv_style.h ****     LV_STYLE_BG_IMG_OPA              = 39,
 158:lvgl/lvgl/src/core/../misc/lv_style.h ****     LV_STYLE_BG_IMG_RECOLOR          = 40,
 159:lvgl/lvgl/src/core/../misc/lv_style.h ****     LV_STYLE_BG_IMG_RECOLOR_FILTERED = 40 | LV_STYLE_PROP_FILTER,
 160:lvgl/lvgl/src/core/../misc/lv_style.h ****     LV_STYLE_BG_IMG_RECOLOR_OPA      = 41,
 161:lvgl/lvgl/src/core/../misc/lv_style.h ****     LV_STYLE_BG_IMG_TILED            = 42,
 162:lvgl/lvgl/src/core/../misc/lv_style.h **** 
 163:lvgl/lvgl/src/core/../misc/lv_style.h ****     /*Group 3*/
 164:lvgl/lvgl/src/core/../misc/lv_style.h ****     LV_STYLE_BORDER_COLOR            = 48,
 165:lvgl/lvgl/src/core/../misc/lv_style.h ****     LV_STYLE_BORDER_COLOR_FILTERED   = 48 | LV_STYLE_PROP_FILTER,
 166:lvgl/lvgl/src/core/../misc/lv_style.h ****     LV_STYLE_BORDER_OPA              = 49,
 167:lvgl/lvgl/src/core/../misc/lv_style.h ****     LV_STYLE_BORDER_WIDTH            = 50 | LV_STYLE_PROP_LAYOUT_REFR,
 168:lvgl/lvgl/src/core/../misc/lv_style.h ****     LV_STYLE_BORDER_SIDE             = 51,
 169:lvgl/lvgl/src/core/../misc/lv_style.h ****     LV_STYLE_BORDER_POST             = 52,
 170:lvgl/lvgl/src/core/../misc/lv_style.h **** 
 171:lvgl/lvgl/src/core/../misc/lv_style.h ****     LV_STYLE_OUTLINE_WIDTH           = 58 | LV_STYLE_PROP_EXT_DRAW,
 172:lvgl/lvgl/src/core/../misc/lv_style.h ****     LV_STYLE_OUTLINE_COLOR           = 59,
 173:lvgl/lvgl/src/core/../misc/lv_style.h ****     LV_STYLE_OUTLINE_COLOR_FILTERED  = 59 | LV_STYLE_PROP_FILTER,
ARM GAS  C:\Users\gx\AppData\Local\Temp\cccIVLs9.s 			page 69


 174:lvgl/lvgl/src/core/../misc/lv_style.h ****     LV_STYLE_OUTLINE_OPA             = 60 | LV_STYLE_PROP_EXT_DRAW,
 175:lvgl/lvgl/src/core/../misc/lv_style.h ****     LV_STYLE_OUTLINE_PAD             = 61 | LV_STYLE_PROP_EXT_DRAW,
 176:lvgl/lvgl/src/core/../misc/lv_style.h **** 
 177:lvgl/lvgl/src/core/../misc/lv_style.h ****     /*Group 4*/
 178:lvgl/lvgl/src/core/../misc/lv_style.h ****     LV_STYLE_SHADOW_WIDTH            = 64 | LV_STYLE_PROP_EXT_DRAW,
 179:lvgl/lvgl/src/core/../misc/lv_style.h ****     LV_STYLE_SHADOW_OFS_X            = 65 | LV_STYLE_PROP_EXT_DRAW,
 180:lvgl/lvgl/src/core/../misc/lv_style.h ****     LV_STYLE_SHADOW_OFS_Y            = 66 | LV_STYLE_PROP_EXT_DRAW,
 181:lvgl/lvgl/src/core/../misc/lv_style.h ****     LV_STYLE_SHADOW_SPREAD           = 67 | LV_STYLE_PROP_EXT_DRAW,
 182:lvgl/lvgl/src/core/../misc/lv_style.h ****     LV_STYLE_SHADOW_COLOR            = 68,
 183:lvgl/lvgl/src/core/../misc/lv_style.h ****     LV_STYLE_SHADOW_COLOR_FILTERED   = 68 | LV_STYLE_PROP_FILTER,
 184:lvgl/lvgl/src/core/../misc/lv_style.h ****     LV_STYLE_SHADOW_OPA              = 69 | LV_STYLE_PROP_EXT_DRAW,
 185:lvgl/lvgl/src/core/../misc/lv_style.h **** 
 186:lvgl/lvgl/src/core/../misc/lv_style.h ****     LV_STYLE_IMG_OPA                 = 70,
 187:lvgl/lvgl/src/core/../misc/lv_style.h ****     LV_STYLE_IMG_RECOLOR             = 71,
 188:lvgl/lvgl/src/core/../misc/lv_style.h ****     LV_STYLE_IMG_RECOLOR_FILTERED    = 71 | LV_STYLE_PROP_FILTER,
 189:lvgl/lvgl/src/core/../misc/lv_style.h ****     LV_STYLE_IMG_RECOLOR_OPA         = 72,
 190:lvgl/lvgl/src/core/../misc/lv_style.h **** 
 191:lvgl/lvgl/src/core/../misc/lv_style.h ****     LV_STYLE_LINE_WIDTH              = 73 | LV_STYLE_PROP_EXT_DRAW,
 192:lvgl/lvgl/src/core/../misc/lv_style.h ****     LV_STYLE_LINE_DASH_WIDTH         = 74,
 193:lvgl/lvgl/src/core/../misc/lv_style.h ****     LV_STYLE_LINE_DASH_GAP           = 75,
 194:lvgl/lvgl/src/core/../misc/lv_style.h ****     LV_STYLE_LINE_ROUNDED            = 76,
 195:lvgl/lvgl/src/core/../misc/lv_style.h ****     LV_STYLE_LINE_COLOR              = 77,
 196:lvgl/lvgl/src/core/../misc/lv_style.h ****     LV_STYLE_LINE_COLOR_FILTERED     = 77 | LV_STYLE_PROP_FILTER,
 197:lvgl/lvgl/src/core/../misc/lv_style.h ****     LV_STYLE_LINE_OPA                = 78,
 198:lvgl/lvgl/src/core/../misc/lv_style.h **** 
 199:lvgl/lvgl/src/core/../misc/lv_style.h ****     /*Group 5*/
 200:lvgl/lvgl/src/core/../misc/lv_style.h ****     LV_STYLE_ARC_WIDTH               = 80 | LV_STYLE_PROP_EXT_DRAW,
 201:lvgl/lvgl/src/core/../misc/lv_style.h ****     LV_STYLE_ARC_ROUNDED             = 81,
 202:lvgl/lvgl/src/core/../misc/lv_style.h ****     LV_STYLE_ARC_COLOR               = 82,
 203:lvgl/lvgl/src/core/../misc/lv_style.h ****     LV_STYLE_ARC_COLOR_FILTERED      = 82 | LV_STYLE_PROP_FILTER,
 204:lvgl/lvgl/src/core/../misc/lv_style.h ****     LV_STYLE_ARC_OPA                 = 83,
 205:lvgl/lvgl/src/core/../misc/lv_style.h ****     LV_STYLE_ARC_IMG_SRC             = 84,
 206:lvgl/lvgl/src/core/../misc/lv_style.h **** 
 207:lvgl/lvgl/src/core/../misc/lv_style.h ****     LV_STYLE_TEXT_COLOR              = 87 | LV_STYLE_PROP_INHERIT,
 208:lvgl/lvgl/src/core/../misc/lv_style.h ****     LV_STYLE_TEXT_COLOR_FILTERED     = 87 | LV_STYLE_PROP_INHERIT | LV_STYLE_PROP_FILTER,
 209:lvgl/lvgl/src/core/../misc/lv_style.h ****     LV_STYLE_TEXT_OPA                = 88 | LV_STYLE_PROP_INHERIT,
 210:lvgl/lvgl/src/core/../misc/lv_style.h ****     LV_STYLE_TEXT_FONT               = 89 | LV_STYLE_PROP_INHERIT | LV_STYLE_PROP_LAYOUT_REFR,
 211:lvgl/lvgl/src/core/../misc/lv_style.h ****     LV_STYLE_TEXT_LETTER_SPACE       = 90 | LV_STYLE_PROP_INHERIT | LV_STYLE_PROP_LAYOUT_REFR,
 212:lvgl/lvgl/src/core/../misc/lv_style.h ****     LV_STYLE_TEXT_LINE_SPACE         = 91 | LV_STYLE_PROP_INHERIT | LV_STYLE_PROP_LAYOUT_REFR,
 213:lvgl/lvgl/src/core/../misc/lv_style.h ****     LV_STYLE_TEXT_DECOR              = 92 | LV_STYLE_PROP_INHERIT,
 214:lvgl/lvgl/src/core/../misc/lv_style.h ****     LV_STYLE_TEXT_ALIGN              = 93 | LV_STYLE_PROP_INHERIT | LV_STYLE_PROP_LAYOUT_REFR,
 215:lvgl/lvgl/src/core/../misc/lv_style.h **** 
 216:lvgl/lvgl/src/core/../misc/lv_style.h ****     /*Group 6*/
 217:lvgl/lvgl/src/core/../misc/lv_style.h ****     LV_STYLE_RADIUS                  = 96,
 218:lvgl/lvgl/src/core/../misc/lv_style.h ****     LV_STYLE_CLIP_CORNER             = 97,
 219:lvgl/lvgl/src/core/../misc/lv_style.h ****     LV_STYLE_OPA                     = 98 | LV_STYLE_PROP_INHERIT,
 220:lvgl/lvgl/src/core/../misc/lv_style.h ****     LV_STYLE_COLOR_FILTER_DSC        = 99,
 221:lvgl/lvgl/src/core/../misc/lv_style.h ****     LV_STYLE_COLOR_FILTER_OPA        = 100,
 222:lvgl/lvgl/src/core/../misc/lv_style.h ****     LV_STYLE_ANIM_TIME               = 101,
 223:lvgl/lvgl/src/core/../misc/lv_style.h ****     LV_STYLE_ANIM_SPEED              = 102,
 224:lvgl/lvgl/src/core/../misc/lv_style.h ****     LV_STYLE_TRANSITION              = 103,
 225:lvgl/lvgl/src/core/../misc/lv_style.h ****     LV_STYLE_BLEND_MODE              = 104,
 226:lvgl/lvgl/src/core/../misc/lv_style.h ****     LV_STYLE_LAYOUT                  = 105 | LV_STYLE_PROP_LAYOUT_REFR,
 227:lvgl/lvgl/src/core/../misc/lv_style.h ****     LV_STYLE_BASE_DIR                = 106 | LV_STYLE_PROP_INHERIT | LV_STYLE_PROP_LAYOUT_REFR,
 228:lvgl/lvgl/src/core/../misc/lv_style.h **** 
 229:lvgl/lvgl/src/core/../misc/lv_style.h ****     _LV_STYLE_LAST_BUILT_IN_PROP     = 111,
 230:lvgl/lvgl/src/core/../misc/lv_style.h **** 
ARM GAS  C:\Users\gx\AppData\Local\Temp\cccIVLs9.s 			page 70


 231:lvgl/lvgl/src/core/../misc/lv_style.h ****     LV_STYLE_PROP_ANY                = 0xFFFF
 232:lvgl/lvgl/src/core/../misc/lv_style.h **** }lv_style_prop_t;
 233:lvgl/lvgl/src/core/../misc/lv_style.h **** 
 234:lvgl/lvgl/src/core/../misc/lv_style.h **** /**
 235:lvgl/lvgl/src/core/../misc/lv_style.h ****  * Descriptor for style transitions
 236:lvgl/lvgl/src/core/../misc/lv_style.h ****  */
 237:lvgl/lvgl/src/core/../misc/lv_style.h **** typedef struct {
 238:lvgl/lvgl/src/core/../misc/lv_style.h ****     const lv_style_prop_t * props; /**< An array with the properties to animate.*/
 239:lvgl/lvgl/src/core/../misc/lv_style.h **** #if LV_USE_USER_DATA
 240:lvgl/lvgl/src/core/../misc/lv_style.h ****     void * user_data;              /**< A custom user data that will be passed to the animation's u
 241:lvgl/lvgl/src/core/../misc/lv_style.h **** #endif
 242:lvgl/lvgl/src/core/../misc/lv_style.h ****     lv_anim_path_cb_t path_xcb;     /**< A path for the animation.*/
 243:lvgl/lvgl/src/core/../misc/lv_style.h ****     uint32_t time;                 /**< Duration of the transition in [ms]*/
 244:lvgl/lvgl/src/core/../misc/lv_style.h ****     uint32_t delay;                /**< Delay before the transition in [ms]*/
 245:lvgl/lvgl/src/core/../misc/lv_style.h **** }lv_style_transition_dsc_t;
 246:lvgl/lvgl/src/core/../misc/lv_style.h **** 
 247:lvgl/lvgl/src/core/../misc/lv_style.h **** /**
 248:lvgl/lvgl/src/core/../misc/lv_style.h ****  * Descriptor of a constant style property.
 249:lvgl/lvgl/src/core/../misc/lv_style.h ****  */
 250:lvgl/lvgl/src/core/../misc/lv_style.h **** typedef struct {
 251:lvgl/lvgl/src/core/../misc/lv_style.h ****     lv_style_prop_t prop;
 252:lvgl/lvgl/src/core/../misc/lv_style.h ****     lv_style_value_t value;
 253:lvgl/lvgl/src/core/../misc/lv_style.h **** } lv_style_const_prop_t;
 254:lvgl/lvgl/src/core/../misc/lv_style.h **** 
 255:lvgl/lvgl/src/core/../misc/lv_style.h **** /**
 256:lvgl/lvgl/src/core/../misc/lv_style.h ****  * Descriptor of a style (a collection of properties and values).
 257:lvgl/lvgl/src/core/../misc/lv_style.h ****  */
 258:lvgl/lvgl/src/core/../misc/lv_style.h **** typedef struct {
 259:lvgl/lvgl/src/core/../misc/lv_style.h **** 
 260:lvgl/lvgl/src/core/../misc/lv_style.h **** #if LV_USE_ASSERT_STYLE
 261:lvgl/lvgl/src/core/../misc/lv_style.h ****     uint32_t sentinel;
 262:lvgl/lvgl/src/core/../misc/lv_style.h **** #endif
 263:lvgl/lvgl/src/core/../misc/lv_style.h **** 
 264:lvgl/lvgl/src/core/../misc/lv_style.h ****     /*If there is only one property store it directly.
 265:lvgl/lvgl/src/core/../misc/lv_style.h ****      *For more properties allocate an array*/
 266:lvgl/lvgl/src/core/../misc/lv_style.h ****     union {
 267:lvgl/lvgl/src/core/../misc/lv_style.h ****         lv_style_value_t value1;
 268:lvgl/lvgl/src/core/../misc/lv_style.h ****         uint8_t * values_and_props;
 269:lvgl/lvgl/src/core/../misc/lv_style.h ****         const lv_style_const_prop_t * const_props;
 270:lvgl/lvgl/src/core/../misc/lv_style.h ****     } v_p;
 271:lvgl/lvgl/src/core/../misc/lv_style.h **** 
 272:lvgl/lvgl/src/core/../misc/lv_style.h ****     uint16_t prop1 :15;
 273:lvgl/lvgl/src/core/../misc/lv_style.h ****     uint16_t is_const :1;
 274:lvgl/lvgl/src/core/../misc/lv_style.h ****     uint8_t has_group;
 275:lvgl/lvgl/src/core/../misc/lv_style.h ****     uint8_t prop_cnt;
 276:lvgl/lvgl/src/core/../misc/lv_style.h **** } lv_style_t;
 277:lvgl/lvgl/src/core/../misc/lv_style.h **** 
 278:lvgl/lvgl/src/core/../misc/lv_style.h **** /**********************
 279:lvgl/lvgl/src/core/../misc/lv_style.h ****  * GLOBAL PROTOTYPES
 280:lvgl/lvgl/src/core/../misc/lv_style.h ****  **********************/
 281:lvgl/lvgl/src/core/../misc/lv_style.h **** 
 282:lvgl/lvgl/src/core/../misc/lv_style.h **** 
 283:lvgl/lvgl/src/core/../misc/lv_style.h **** /**
 284:lvgl/lvgl/src/core/../misc/lv_style.h ****  * Initialize a style
 285:lvgl/lvgl/src/core/../misc/lv_style.h ****  * @param style pointer to a style to initialize
 286:lvgl/lvgl/src/core/../misc/lv_style.h ****  * @note Do not call `lv_style_init` on styles that are already have some properties
 287:lvgl/lvgl/src/core/../misc/lv_style.h ****  *       because this function won't free the used memory just set a default state for the style.
ARM GAS  C:\Users\gx\AppData\Local\Temp\cccIVLs9.s 			page 71


 288:lvgl/lvgl/src/core/../misc/lv_style.h ****  *       In other words be sure to initialize styles only once!
 289:lvgl/lvgl/src/core/../misc/lv_style.h ****  */
 290:lvgl/lvgl/src/core/../misc/lv_style.h **** void lv_style_init(lv_style_t * style);
 291:lvgl/lvgl/src/core/../misc/lv_style.h **** 
 292:lvgl/lvgl/src/core/../misc/lv_style.h **** /**
 293:lvgl/lvgl/src/core/../misc/lv_style.h ****  * Clear all properties from a style and free all allocated memories.
 294:lvgl/lvgl/src/core/../misc/lv_style.h ****  * @param style pointer to a style
 295:lvgl/lvgl/src/core/../misc/lv_style.h ****  */
 296:lvgl/lvgl/src/core/../misc/lv_style.h **** void lv_style_reset(lv_style_t * style);
 297:lvgl/lvgl/src/core/../misc/lv_style.h **** 
 298:lvgl/lvgl/src/core/../misc/lv_style.h **** /**
 299:lvgl/lvgl/src/core/../misc/lv_style.h ****  * Register a new style property for custom usage
 300:lvgl/lvgl/src/core/../misc/lv_style.h ****  * @return a new property ID.
 301:lvgl/lvgl/src/core/../misc/lv_style.h ****  * @example
 302:lvgl/lvgl/src/core/../misc/lv_style.h ****  * lv_style_prop_t MY_PROP;
 303:lvgl/lvgl/src/core/../misc/lv_style.h ****  * static inline void lv_style_set_my_prop(lv_style_t * style, lv_color_t value) {
 304:lvgl/lvgl/src/core/../misc/lv_style.h ****  * lv_style_value_t v = {.color = value}; lv_style_set_prop(style, MY_PROP, v); }
 305:lvgl/lvgl/src/core/../misc/lv_style.h ****  *
