ARM GAS  C:\Users\gx\AppData\Local\Temp\cccIVLs9.s 			page 1


   1              		.cpu cortex-m4
   2              		.eabi_attribute 27, 1
   3              		.eabi_attribute 28, 1
   4              		.eabi_attribute 20, 1
   5              		.eabi_attribute 21, 1
   6              		.eabi_attribute 23, 3
   7              		.eabi_attribute 24, 1
   8              		.eabi_attribute 25, 1
   9              		.eabi_attribute 26, 1
  10              		.eabi_attribute 30, 1
  11              		.eabi_attribute 34, 1
  12              		.eabi_attribute 18, 4
  13              		.file	"lv_obj.c"
  14              		.text
  15              	.Ltext0:
  16              		.cfi_sections	.debug_frame
  17              		.section	.text.obj_valid_child,"ax",%progbits
  18              		.align	1
  19              		.arch armv7e-m
  20              		.syntax unified
  21              		.thumb
  22              		.thumb_func
  23              		.fpu fpv4-sp-d16
  25              	obj_valid_child:
  26              	.LVL0:
  27              	.LFB183:
  28              		.file 1 "lvgl/lvgl/src/core/lv_obj.c"
   1:lvgl/lvgl/src/core/lv_obj.c **** /**
   2:lvgl/lvgl/src/core/lv_obj.c ****  * @file lv_obj.c
   3:lvgl/lvgl/src/core/lv_obj.c ****  *
   4:lvgl/lvgl/src/core/lv_obj.c ****  */
   5:lvgl/lvgl/src/core/lv_obj.c **** 
   6:lvgl/lvgl/src/core/lv_obj.c **** /*********************
   7:lvgl/lvgl/src/core/lv_obj.c ****  *      INCLUDES
   8:lvgl/lvgl/src/core/lv_obj.c ****  *********************/
   9:lvgl/lvgl/src/core/lv_obj.c **** #include "lv_obj.h"
  10:lvgl/lvgl/src/core/lv_obj.c **** #include "lv_indev.h"
  11:lvgl/lvgl/src/core/lv_obj.c **** #include "lv_refr.h"
  12:lvgl/lvgl/src/core/lv_obj.c **** #include "lv_group.h"
  13:lvgl/lvgl/src/core/lv_obj.c **** #include "lv_disp.h"
  14:lvgl/lvgl/src/core/lv_obj.c **** #include "lv_theme.h"
  15:lvgl/lvgl/src/core/lv_obj.c **** #include "../misc/lv_assert.h"
  16:lvgl/lvgl/src/core/lv_obj.c **** #include "../draw/lv_draw.h"
  17:lvgl/lvgl/src/core/lv_obj.c **** #include "../misc/lv_anim.h"
  18:lvgl/lvgl/src/core/lv_obj.c **** #include "../misc/lv_timer.h"
  19:lvgl/lvgl/src/core/lv_obj.c **** #include "../misc/lv_async.h"
  20:lvgl/lvgl/src/core/lv_obj.c **** #include "../misc/lv_fs.h"
  21:lvgl/lvgl/src/core/lv_obj.c **** #include "../misc/lv_gc.h"
  22:lvgl/lvgl/src/core/lv_obj.c **** #include "../misc/lv_math.h"
  23:lvgl/lvgl/src/core/lv_obj.c **** #include "../misc/lv_log.h"
  24:lvgl/lvgl/src/core/lv_obj.c **** #include "../hal/lv_hal.h"
  25:lvgl/lvgl/src/core/lv_obj.c **** #include "../extra/lv_extra.h"
  26:lvgl/lvgl/src/core/lv_obj.c **** #include <stdint.h>
  27:lvgl/lvgl/src/core/lv_obj.c **** #include <string.h>
  28:lvgl/lvgl/src/core/lv_obj.c **** 
  29:lvgl/lvgl/src/core/lv_obj.c **** #if LV_USE_GPU_STM32_DMA2D
  30:lvgl/lvgl/src/core/lv_obj.c ****     #include "../gpu/lv_gpu_stm32_dma2d.h"
ARM GAS  C:\Users\gx\AppData\Local\Temp\cccIVLs9.s 			page 2


  31:lvgl/lvgl/src/core/lv_obj.c **** #endif
  32:lvgl/lvgl/src/core/lv_obj.c **** 
  33:lvgl/lvgl/src/core/lv_obj.c **** #if LV_USE_GPU_NXP_PXP && LV_USE_GPU_NXP_PXP_AUTO_INIT
  34:lvgl/lvgl/src/core/lv_obj.c ****     #include "../gpu/lv_gpu_nxp_pxp.h"
  35:lvgl/lvgl/src/core/lv_obj.c ****     #include "../gpu/lv_gpu_nxp_pxp_osa.h"
  36:lvgl/lvgl/src/core/lv_obj.c **** #endif
  37:lvgl/lvgl/src/core/lv_obj.c **** 
  38:lvgl/lvgl/src/core/lv_obj.c **** /*********************
  39:lvgl/lvgl/src/core/lv_obj.c ****  *      DEFINES
  40:lvgl/lvgl/src/core/lv_obj.c ****  *********************/
  41:lvgl/lvgl/src/core/lv_obj.c **** #define MY_CLASS &lv_obj_class
  42:lvgl/lvgl/src/core/lv_obj.c **** #define LV_OBJ_DEF_WIDTH    (LV_DPX(100))
  43:lvgl/lvgl/src/core/lv_obj.c **** #define LV_OBJ_DEF_HEIGHT   (LV_DPX(50))
  44:lvgl/lvgl/src/core/lv_obj.c **** #define GRID_DEBUG          0   /*Draw rectangles on grid cells*/
  45:lvgl/lvgl/src/core/lv_obj.c **** #define STYLE_TRANSITION_MAX 32
  46:lvgl/lvgl/src/core/lv_obj.c **** 
  47:lvgl/lvgl/src/core/lv_obj.c **** /**********************
  48:lvgl/lvgl/src/core/lv_obj.c ****  *      TYPEDEFS
  49:lvgl/lvgl/src/core/lv_obj.c ****  **********************/
  50:lvgl/lvgl/src/core/lv_obj.c **** 
  51:lvgl/lvgl/src/core/lv_obj.c **** /**********************
  52:lvgl/lvgl/src/core/lv_obj.c ****  *  STATIC PROTOTYPES
  53:lvgl/lvgl/src/core/lv_obj.c ****  **********************/
  54:lvgl/lvgl/src/core/lv_obj.c **** static void lv_obj_constructor(const lv_obj_class_t * class_p, lv_obj_t * obj);
  55:lvgl/lvgl/src/core/lv_obj.c **** static void lv_obj_destructor(const lv_obj_class_t * class_p, lv_obj_t * obj);
  56:lvgl/lvgl/src/core/lv_obj.c **** static void lv_obj_draw(lv_event_t * e);
  57:lvgl/lvgl/src/core/lv_obj.c **** static void lv_obj_event(const lv_obj_class_t * class_p, lv_event_t * e);
  58:lvgl/lvgl/src/core/lv_obj.c **** static void draw_scrollbar(lv_obj_t * obj, const lv_area_t * clip_area);
  59:lvgl/lvgl/src/core/lv_obj.c **** static lv_res_t scrollbar_init_draw_dsc(lv_obj_t * obj, lv_draw_rect_dsc_t * dsc);
  60:lvgl/lvgl/src/core/lv_obj.c **** static bool obj_valid_child(const lv_obj_t * parent, const lv_obj_t * obj_to_find);
  61:lvgl/lvgl/src/core/lv_obj.c **** static void lv_obj_set_state(lv_obj_t * obj, lv_state_t new_state);
  62:lvgl/lvgl/src/core/lv_obj.c **** 
  63:lvgl/lvgl/src/core/lv_obj.c **** /**********************
  64:lvgl/lvgl/src/core/lv_obj.c ****  *  STATIC VARIABLES
  65:lvgl/lvgl/src/core/lv_obj.c ****  **********************/
  66:lvgl/lvgl/src/core/lv_obj.c **** static bool lv_initialized = false;
  67:lvgl/lvgl/src/core/lv_obj.c **** const lv_obj_class_t lv_obj_class = {
  68:lvgl/lvgl/src/core/lv_obj.c ****     .constructor_cb = lv_obj_constructor,
  69:lvgl/lvgl/src/core/lv_obj.c ****     .destructor_cb = lv_obj_destructor,
  70:lvgl/lvgl/src/core/lv_obj.c ****     .event_cb = lv_obj_event,
  71:lvgl/lvgl/src/core/lv_obj.c ****     .width_def = LV_DPI_DEF,
  72:lvgl/lvgl/src/core/lv_obj.c ****     .height_def = LV_DPI_DEF,
  73:lvgl/lvgl/src/core/lv_obj.c ****     .editable = LV_OBJ_CLASS_EDITABLE_FALSE,
  74:lvgl/lvgl/src/core/lv_obj.c ****     .group_def = LV_OBJ_CLASS_GROUP_DEF_FALSE,
  75:lvgl/lvgl/src/core/lv_obj.c ****     .instance_size = (sizeof(lv_obj_t)),
  76:lvgl/lvgl/src/core/lv_obj.c ****     .base_class = NULL,
  77:lvgl/lvgl/src/core/lv_obj.c **** };
  78:lvgl/lvgl/src/core/lv_obj.c **** 
  79:lvgl/lvgl/src/core/lv_obj.c **** /**********************
  80:lvgl/lvgl/src/core/lv_obj.c ****  *      MACROS
  81:lvgl/lvgl/src/core/lv_obj.c ****  **********************/
  82:lvgl/lvgl/src/core/lv_obj.c **** 
  83:lvgl/lvgl/src/core/lv_obj.c **** /**********************
  84:lvgl/lvgl/src/core/lv_obj.c ****  *   GLOBAL FUNCTIONS
  85:lvgl/lvgl/src/core/lv_obj.c ****  **********************/
  86:lvgl/lvgl/src/core/lv_obj.c **** 
  87:lvgl/lvgl/src/core/lv_obj.c **** bool lv_is_initialized(void)
ARM GAS  C:\Users\gx\AppData\Local\Temp\cccIVLs9.s 			page 3


  88:lvgl/lvgl/src/core/lv_obj.c **** {
  89:lvgl/lvgl/src/core/lv_obj.c ****     return lv_initialized;
  90:lvgl/lvgl/src/core/lv_obj.c **** }
  91:lvgl/lvgl/src/core/lv_obj.c **** 
  92:lvgl/lvgl/src/core/lv_obj.c **** void lv_init(void)
  93:lvgl/lvgl/src/core/lv_obj.c **** {
  94:lvgl/lvgl/src/core/lv_obj.c ****     /*Do nothing if already initialized*/
  95:lvgl/lvgl/src/core/lv_obj.c ****     if(lv_initialized) {
  96:lvgl/lvgl/src/core/lv_obj.c ****         LV_LOG_WARN("lv_init: already inited");
  97:lvgl/lvgl/src/core/lv_obj.c ****         return;
  98:lvgl/lvgl/src/core/lv_obj.c ****     }
  99:lvgl/lvgl/src/core/lv_obj.c **** 
 100:lvgl/lvgl/src/core/lv_obj.c ****     LV_LOG_INFO("begin");
 101:lvgl/lvgl/src/core/lv_obj.c **** 
 102:lvgl/lvgl/src/core/lv_obj.c ****     /*Initialize the misc modules*/
 103:lvgl/lvgl/src/core/lv_obj.c ****     lv_mem_init();
 104:lvgl/lvgl/src/core/lv_obj.c **** 
 105:lvgl/lvgl/src/core/lv_obj.c ****     _lv_timer_core_init();
 106:lvgl/lvgl/src/core/lv_obj.c **** 
 107:lvgl/lvgl/src/core/lv_obj.c ****     _lv_fs_init();
 108:lvgl/lvgl/src/core/lv_obj.c **** 
 109:lvgl/lvgl/src/core/lv_obj.c ****     _lv_anim_core_init();
 110:lvgl/lvgl/src/core/lv_obj.c **** 
 111:lvgl/lvgl/src/core/lv_obj.c ****     _lv_group_init();
 112:lvgl/lvgl/src/core/lv_obj.c **** 
 113:lvgl/lvgl/src/core/lv_obj.c **** #if LV_USE_GPU_STM32_DMA2D
 114:lvgl/lvgl/src/core/lv_obj.c ****     /*Initialize DMA2D GPU*/
 115:lvgl/lvgl/src/core/lv_obj.c ****     lv_gpu_stm32_dma2d_init();
 116:lvgl/lvgl/src/core/lv_obj.c **** #endif
 117:lvgl/lvgl/src/core/lv_obj.c **** 
 118:lvgl/lvgl/src/core/lv_obj.c **** #if LV_USE_GPU_NXP_PXP && LV_USE_GPU_NXP_PXP_AUTO_INIT
 119:lvgl/lvgl/src/core/lv_obj.c ****     if(lv_gpu_nxp_pxp_init(&pxp_default_cfg) != LV_RES_OK) {
 120:lvgl/lvgl/src/core/lv_obj.c ****         LV_LOG_ERROR("PXP init error. STOP.\n");
 121:lvgl/lvgl/src/core/lv_obj.c ****         for(; ;) ;
 122:lvgl/lvgl/src/core/lv_obj.c ****     }
 123:lvgl/lvgl/src/core/lv_obj.c **** #endif
 124:lvgl/lvgl/src/core/lv_obj.c **** 
 125:lvgl/lvgl/src/core/lv_obj.c ****     _lv_obj_style_init();
 126:lvgl/lvgl/src/core/lv_obj.c ****     _lv_ll_init(&LV_GC_ROOT(_lv_disp_ll), sizeof(lv_disp_t));
 127:lvgl/lvgl/src/core/lv_obj.c ****     _lv_ll_init(&LV_GC_ROOT(_lv_indev_ll), sizeof(lv_indev_t));
 128:lvgl/lvgl/src/core/lv_obj.c **** 
 129:lvgl/lvgl/src/core/lv_obj.c ****     /*Initialize the screen refresh system*/
 130:lvgl/lvgl/src/core/lv_obj.c ****     _lv_refr_init();
 131:lvgl/lvgl/src/core/lv_obj.c **** 
 132:lvgl/lvgl/src/core/lv_obj.c ****     _lv_img_decoder_init();
 133:lvgl/lvgl/src/core/lv_obj.c **** #if LV_IMG_CACHE_DEF_SIZE
 134:lvgl/lvgl/src/core/lv_obj.c ****     lv_img_cache_set_size(LV_IMG_CACHE_DEF_SIZE);
 135:lvgl/lvgl/src/core/lv_obj.c **** #endif
 136:lvgl/lvgl/src/core/lv_obj.c ****     /*Test if the IDE has UTF-8 encoding*/
 137:lvgl/lvgl/src/core/lv_obj.c ****     char * txt = "Ã";
 138:lvgl/lvgl/src/core/lv_obj.c **** 
 139:lvgl/lvgl/src/core/lv_obj.c ****     uint8_t * txt_u8 = (uint8_t *)txt;
 140:lvgl/lvgl/src/core/lv_obj.c ****     if(txt_u8[0] != 0xc3 || txt_u8[1] != 0x81 || txt_u8[2] != 0x00) {
 141:lvgl/lvgl/src/core/lv_obj.c ****         LV_LOG_WARN("The strings has no UTF-8 encoding. Non-ASCII characters won't be displayed.")
 142:lvgl/lvgl/src/core/lv_obj.c ****     }
 143:lvgl/lvgl/src/core/lv_obj.c **** 
 144:lvgl/lvgl/src/core/lv_obj.c ****     uint32_t endianess_test = 0x11223344;
ARM GAS  C:\Users\gx\AppData\Local\Temp\cccIVLs9.s 			page 4


 145:lvgl/lvgl/src/core/lv_obj.c ****     uint8_t * endianess_test_p = (uint8_t*) &endianess_test;
 146:lvgl/lvgl/src/core/lv_obj.c ****     bool big_endian = endianess_test_p[0] == 0x11 ? true : false;
 147:lvgl/lvgl/src/core/lv_obj.c **** 
 148:lvgl/lvgl/src/core/lv_obj.c ****     if(big_endian) {
 149:lvgl/lvgl/src/core/lv_obj.c ****         LV_ASSERT_MSG(LV_BIG_ENDIAN_SYSTEM == 1, "It's a big endian system but LV_BIG_ENDIAN_SYSTEM
 150:lvgl/lvgl/src/core/lv_obj.c ****     } else {
 151:lvgl/lvgl/src/core/lv_obj.c ****         LV_ASSERT_MSG(LV_BIG_ENDIAN_SYSTEM == 0, "It's a little endian system but LV_BIG_ENDIAN_SYS
 152:lvgl/lvgl/src/core/lv_obj.c ****     }
 153:lvgl/lvgl/src/core/lv_obj.c **** 
 154:lvgl/lvgl/src/core/lv_obj.c **** #if LV_USE_ASSERT_MEM_INTEGRITY
 155:lvgl/lvgl/src/core/lv_obj.c ****     LV_LOG_WARN("Memory integrity checks are enabled via LV_USE_ASSERT_MEM_INTEGRITY which makes LV
 156:lvgl/lvgl/src/core/lv_obj.c **** #endif
 157:lvgl/lvgl/src/core/lv_obj.c **** 
 158:lvgl/lvgl/src/core/lv_obj.c **** #if LV_USE_ASSERT_OBJ
 159:lvgl/lvgl/src/core/lv_obj.c ****     LV_LOG_WARN("Object sanity checks are enabled via LV_USE_ASSERT_OBJ which makes LVGL much slowe
 160:lvgl/lvgl/src/core/lv_obj.c **** #endif
 161:lvgl/lvgl/src/core/lv_obj.c **** 
 162:lvgl/lvgl/src/core/lv_obj.c **** #if LV_USE_ASSERT_STYLE
 163:lvgl/lvgl/src/core/lv_obj.c ****     LV_LOG_WARN("Style sanity checks are enabled that uses more RAM")
 164:lvgl/lvgl/src/core/lv_obj.c **** #endif
 165:lvgl/lvgl/src/core/lv_obj.c **** 
 166:lvgl/lvgl/src/core/lv_obj.c **** #if LV_LOG_LEVEL == LV_LOG_LEVEL_TRACE
 167:lvgl/lvgl/src/core/lv_obj.c ****     LV_LOG_WARN("Log level is set the Trace which makes LVGL much slower")
 168:lvgl/lvgl/src/core/lv_obj.c **** #endif
 169:lvgl/lvgl/src/core/lv_obj.c **** 
 170:lvgl/lvgl/src/core/lv_obj.c ****     lv_extra_init();
 171:lvgl/lvgl/src/core/lv_obj.c **** 
 172:lvgl/lvgl/src/core/lv_obj.c ****     lv_initialized = true;
 173:lvgl/lvgl/src/core/lv_obj.c **** 
 174:lvgl/lvgl/src/core/lv_obj.c ****     LV_LOG_TRACE("finished");
 175:lvgl/lvgl/src/core/lv_obj.c **** }
 176:lvgl/lvgl/src/core/lv_obj.c **** 
 177:lvgl/lvgl/src/core/lv_obj.c **** #if LV_ENABLE_GC || !LV_MEM_CUSTOM
 178:lvgl/lvgl/src/core/lv_obj.c **** 
 179:lvgl/lvgl/src/core/lv_obj.c **** void lv_deinit(void)
 180:lvgl/lvgl/src/core/lv_obj.c **** {
 181:lvgl/lvgl/src/core/lv_obj.c ****     _lv_gc_clear_roots();
 182:lvgl/lvgl/src/core/lv_obj.c **** 
 183:lvgl/lvgl/src/core/lv_obj.c ****     lv_disp_set_default(NULL);
 184:lvgl/lvgl/src/core/lv_obj.c ****     lv_mem_deinit();
 185:lvgl/lvgl/src/core/lv_obj.c ****     lv_initialized = false;
 186:lvgl/lvgl/src/core/lv_obj.c **** 
 187:lvgl/lvgl/src/core/lv_obj.c ****     LV_LOG_INFO("lv_deinit done");
 188:lvgl/lvgl/src/core/lv_obj.c **** 
 189:lvgl/lvgl/src/core/lv_obj.c **** #if LV_USE_LOG
 190:lvgl/lvgl/src/core/lv_obj.c ****     lv_log_register_print_cb(NULL);
 191:lvgl/lvgl/src/core/lv_obj.c **** #endif
 192:lvgl/lvgl/src/core/lv_obj.c **** }
 193:lvgl/lvgl/src/core/lv_obj.c **** #endif
 194:lvgl/lvgl/src/core/lv_obj.c **** 
 195:lvgl/lvgl/src/core/lv_obj.c **** lv_obj_t * lv_obj_create(lv_obj_t * parent)
 196:lvgl/lvgl/src/core/lv_obj.c **** {
 197:lvgl/lvgl/src/core/lv_obj.c ****     LV_LOG_INFO("begin")
 198:lvgl/lvgl/src/core/lv_obj.c ****     lv_obj_t * obj = lv_obj_class_create_obj(MY_CLASS, parent);
 199:lvgl/lvgl/src/core/lv_obj.c ****     lv_obj_class_init_obj(obj);
 200:lvgl/lvgl/src/core/lv_obj.c ****     return obj;
 201:lvgl/lvgl/src/core/lv_obj.c **** }
ARM GAS  C:\Users\gx\AppData\Local\Temp\cccIVLs9.s 			page 5


 202:lvgl/lvgl/src/core/lv_obj.c **** 
 203:lvgl/lvgl/src/core/lv_obj.c **** /*=====================
 204:lvgl/lvgl/src/core/lv_obj.c ****  * Setter functions
 205:lvgl/lvgl/src/core/lv_obj.c ****  *====================*/
 206:lvgl/lvgl/src/core/lv_obj.c **** 
 207:lvgl/lvgl/src/core/lv_obj.c **** /*-----------------
 208:lvgl/lvgl/src/core/lv_obj.c ****  * Attribute set
 209:lvgl/lvgl/src/core/lv_obj.c ****  *----------------*/
 210:lvgl/lvgl/src/core/lv_obj.c **** 
 211:lvgl/lvgl/src/core/lv_obj.c **** void lv_obj_add_flag(lv_obj_t * obj, lv_obj_flag_t f)
 212:lvgl/lvgl/src/core/lv_obj.c **** {
 213:lvgl/lvgl/src/core/lv_obj.c ****     LV_ASSERT_OBJ(obj, MY_CLASS);
 214:lvgl/lvgl/src/core/lv_obj.c **** 
 215:lvgl/lvgl/src/core/lv_obj.c ****     bool was_on_layout = lv_obj_is_layout_positioned(obj);
 216:lvgl/lvgl/src/core/lv_obj.c **** 
 217:lvgl/lvgl/src/core/lv_obj.c ****     if(f & LV_OBJ_FLAG_HIDDEN) lv_obj_invalidate(obj);
 218:lvgl/lvgl/src/core/lv_obj.c **** 
 219:lvgl/lvgl/src/core/lv_obj.c ****     obj->flags |= f;
 220:lvgl/lvgl/src/core/lv_obj.c **** 
 221:lvgl/lvgl/src/core/lv_obj.c ****     if(f & LV_OBJ_FLAG_HIDDEN) {
 222:lvgl/lvgl/src/core/lv_obj.c ****         lv_obj_invalidate(obj);
 223:lvgl/lvgl/src/core/lv_obj.c ****     }
 224:lvgl/lvgl/src/core/lv_obj.c **** 
 225:lvgl/lvgl/src/core/lv_obj.c ****     if((was_on_layout != lv_obj_is_layout_positioned(obj)) || (f & (LV_OBJ_FLAG_LAYOUT_1 |  LV_OBJ_
 226:lvgl/lvgl/src/core/lv_obj.c ****         lv_obj_mark_layout_as_dirty(lv_obj_get_parent(obj));
 227:lvgl/lvgl/src/core/lv_obj.c ****     }
 228:lvgl/lvgl/src/core/lv_obj.c **** }
 229:lvgl/lvgl/src/core/lv_obj.c **** 
 230:lvgl/lvgl/src/core/lv_obj.c **** void lv_obj_clear_flag(lv_obj_t * obj, lv_obj_flag_t f)
 231:lvgl/lvgl/src/core/lv_obj.c **** {
 232:lvgl/lvgl/src/core/lv_obj.c ****     LV_ASSERT_OBJ(obj, MY_CLASS);
 233:lvgl/lvgl/src/core/lv_obj.c **** 
 234:lvgl/lvgl/src/core/lv_obj.c ****     bool was_on_layout = lv_obj_is_layout_positioned(obj);
 235:lvgl/lvgl/src/core/lv_obj.c **** 
 236:lvgl/lvgl/src/core/lv_obj.c ****     obj->flags &= (~f);
 237:lvgl/lvgl/src/core/lv_obj.c **** 
 238:lvgl/lvgl/src/core/lv_obj.c ****     if(f & LV_OBJ_FLAG_HIDDEN) {
 239:lvgl/lvgl/src/core/lv_obj.c ****         lv_obj_invalidate(obj);
 240:lvgl/lvgl/src/core/lv_obj.c ****         if(lv_obj_is_layout_positioned(obj)) {
 241:lvgl/lvgl/src/core/lv_obj.c ****             lv_obj_mark_layout_as_dirty(lv_obj_get_parent(obj));
 242:lvgl/lvgl/src/core/lv_obj.c ****         }
 243:lvgl/lvgl/src/core/lv_obj.c ****     }
 244:lvgl/lvgl/src/core/lv_obj.c **** 
 245:lvgl/lvgl/src/core/lv_obj.c ****     if((was_on_layout != lv_obj_is_layout_positioned(obj)) || (f & (LV_OBJ_FLAG_LAYOUT_1 |  LV_OBJ_
 246:lvgl/lvgl/src/core/lv_obj.c ****         lv_obj_mark_layout_as_dirty(lv_obj_get_parent(obj));
 247:lvgl/lvgl/src/core/lv_obj.c ****     }
 248:lvgl/lvgl/src/core/lv_obj.c **** }
 249:lvgl/lvgl/src/core/lv_obj.c **** 
 250:lvgl/lvgl/src/core/lv_obj.c **** void lv_obj_add_state(lv_obj_t * obj, lv_state_t state)
 251:lvgl/lvgl/src/core/lv_obj.c **** {
 252:lvgl/lvgl/src/core/lv_obj.c ****     LV_ASSERT_OBJ(obj, MY_CLASS);
 253:lvgl/lvgl/src/core/lv_obj.c **** 
 254:lvgl/lvgl/src/core/lv_obj.c ****     lv_state_t new_state = obj->state | state;
 255:lvgl/lvgl/src/core/lv_obj.c ****     if(obj->state != new_state) {
 256:lvgl/lvgl/src/core/lv_obj.c ****         lv_obj_set_state(obj, new_state);
 257:lvgl/lvgl/src/core/lv_obj.c ****     }
 258:lvgl/lvgl/src/core/lv_obj.c **** }
ARM GAS  C:\Users\gx\AppData\Local\Temp\cccIVLs9.s 			page 6


 259:lvgl/lvgl/src/core/lv_obj.c **** 
 260:lvgl/lvgl/src/core/lv_obj.c **** void lv_obj_clear_state(lv_obj_t * obj, lv_state_t state)
 261:lvgl/lvgl/src/core/lv_obj.c **** {
 262:lvgl/lvgl/src/core/lv_obj.c ****     LV_ASSERT_OBJ(obj, MY_CLASS);
 263:lvgl/lvgl/src/core/lv_obj.c **** 
 264:lvgl/lvgl/src/core/lv_obj.c ****     lv_state_t new_state = obj->state & (~state);
 265:lvgl/lvgl/src/core/lv_obj.c ****     if(obj->state != new_state) {
 266:lvgl/lvgl/src/core/lv_obj.c ****         lv_obj_set_state(obj, new_state);
 267:lvgl/lvgl/src/core/lv_obj.c ****     }
 268:lvgl/lvgl/src/core/lv_obj.c **** }
 269:lvgl/lvgl/src/core/lv_obj.c **** 
 270:lvgl/lvgl/src/core/lv_obj.c **** /*=======================
 271:lvgl/lvgl/src/core/lv_obj.c ****  * Getter functions
 272:lvgl/lvgl/src/core/lv_obj.c ****  *======================*/
 273:lvgl/lvgl/src/core/lv_obj.c **** 
 274:lvgl/lvgl/src/core/lv_obj.c **** bool lv_obj_has_flag(const lv_obj_t * obj, lv_obj_flag_t f)
 275:lvgl/lvgl/src/core/lv_obj.c **** {
 276:lvgl/lvgl/src/core/lv_obj.c ****     LV_ASSERT_OBJ(obj, MY_CLASS);
 277:lvgl/lvgl/src/core/lv_obj.c **** 
 278:lvgl/lvgl/src/core/lv_obj.c ****     return (obj->flags & f)  == f ? true : false;
 279:lvgl/lvgl/src/core/lv_obj.c **** }
 280:lvgl/lvgl/src/core/lv_obj.c **** 
 281:lvgl/lvgl/src/core/lv_obj.c **** bool lv_obj_has_flag_any(const lv_obj_t * obj, lv_obj_flag_t f)
 282:lvgl/lvgl/src/core/lv_obj.c **** {
 283:lvgl/lvgl/src/core/lv_obj.c ****     LV_ASSERT_OBJ(obj, MY_CLASS);
 284:lvgl/lvgl/src/core/lv_obj.c **** 
 285:lvgl/lvgl/src/core/lv_obj.c ****     return (obj->flags & f) ? true : false;
 286:lvgl/lvgl/src/core/lv_obj.c **** }
 287:lvgl/lvgl/src/core/lv_obj.c **** 
 288:lvgl/lvgl/src/core/lv_obj.c **** lv_state_t lv_obj_get_state(const lv_obj_t * obj)
 289:lvgl/lvgl/src/core/lv_obj.c **** {
 290:lvgl/lvgl/src/core/lv_obj.c ****     LV_ASSERT_OBJ(obj, MY_CLASS);
 291:lvgl/lvgl/src/core/lv_obj.c **** 
 292:lvgl/lvgl/src/core/lv_obj.c ****     return obj->state;
 293:lvgl/lvgl/src/core/lv_obj.c **** }
 294:lvgl/lvgl/src/core/lv_obj.c **** 
 295:lvgl/lvgl/src/core/lv_obj.c **** bool lv_obj_has_state(const lv_obj_t * obj, lv_state_t state)
 296:lvgl/lvgl/src/core/lv_obj.c **** {
 297:lvgl/lvgl/src/core/lv_obj.c ****     LV_ASSERT_OBJ(obj, MY_CLASS);
 298:lvgl/lvgl/src/core/lv_obj.c **** 
 299:lvgl/lvgl/src/core/lv_obj.c ****     return obj->state & state ? true : false;
 300:lvgl/lvgl/src/core/lv_obj.c **** }
 301:lvgl/lvgl/src/core/lv_obj.c **** 
 302:lvgl/lvgl/src/core/lv_obj.c **** void * lv_obj_get_group(const lv_obj_t * obj)
 303:lvgl/lvgl/src/core/lv_obj.c **** {
 304:lvgl/lvgl/src/core/lv_obj.c ****     LV_ASSERT_OBJ(obj, MY_CLASS);
 305:lvgl/lvgl/src/core/lv_obj.c **** 
 306:lvgl/lvgl/src/core/lv_obj.c ****     if(obj->spec_attr) return obj->spec_attr->group_p;
 307:lvgl/lvgl/src/core/lv_obj.c ****     else return NULL;
 308:lvgl/lvgl/src/core/lv_obj.c **** }
 309:lvgl/lvgl/src/core/lv_obj.c **** 
 310:lvgl/lvgl/src/core/lv_obj.c **** /*-------------------
 311:lvgl/lvgl/src/core/lv_obj.c ****  * OTHER FUNCTIONS
 312:lvgl/lvgl/src/core/lv_obj.c ****  *------------------*/
 313:lvgl/lvgl/src/core/lv_obj.c **** 
 314:lvgl/lvgl/src/core/lv_obj.c **** void lv_obj_allocate_spec_attr(lv_obj_t * obj)
 315:lvgl/lvgl/src/core/lv_obj.c **** {
ARM GAS  C:\Users\gx\AppData\Local\Temp\cccIVLs9.s 			page 7


 316:lvgl/lvgl/src/core/lv_obj.c ****     LV_ASSERT_OBJ(obj, MY_CLASS);
 317:lvgl/lvgl/src/core/lv_obj.c **** 
 318:lvgl/lvgl/src/core/lv_obj.c ****     if(obj->spec_attr == NULL) {
 319:lvgl/lvgl/src/core/lv_obj.c ****         static uint32_t x = 0;
 320:lvgl/lvgl/src/core/lv_obj.c ****         x++;
 321:lvgl/lvgl/src/core/lv_obj.c ****         obj->spec_attr = lv_mem_alloc(sizeof(_lv_obj_spec_attr_t));
 322:lvgl/lvgl/src/core/lv_obj.c ****         LV_ASSERT_MALLOC(obj->spec_attr);
 323:lvgl/lvgl/src/core/lv_obj.c ****         if(obj->spec_attr == NULL) return;
 324:lvgl/lvgl/src/core/lv_obj.c **** 
 325:lvgl/lvgl/src/core/lv_obj.c ****         lv_memset_00(obj->spec_attr, sizeof(_lv_obj_spec_attr_t));
 326:lvgl/lvgl/src/core/lv_obj.c **** 
 327:lvgl/lvgl/src/core/lv_obj.c ****         obj->spec_attr->scroll_dir = LV_DIR_ALL;
 328:lvgl/lvgl/src/core/lv_obj.c ****         obj->spec_attr->scrollbar_mode = LV_SCROLLBAR_MODE_AUTO;
 329:lvgl/lvgl/src/core/lv_obj.c ****     }
 330:lvgl/lvgl/src/core/lv_obj.c **** }
 331:lvgl/lvgl/src/core/lv_obj.c **** 
 332:lvgl/lvgl/src/core/lv_obj.c **** bool lv_obj_check_type(const lv_obj_t * obj, const lv_obj_class_t * class_p)
 333:lvgl/lvgl/src/core/lv_obj.c **** {
 334:lvgl/lvgl/src/core/lv_obj.c ****     if(obj == NULL) return false;
 335:lvgl/lvgl/src/core/lv_obj.c ****     return obj->class_p == class_p ? true : false;
 336:lvgl/lvgl/src/core/lv_obj.c **** }
 337:lvgl/lvgl/src/core/lv_obj.c **** 
 338:lvgl/lvgl/src/core/lv_obj.c **** bool lv_obj_has_class(const lv_obj_t * obj, const lv_obj_class_t * class_p)
 339:lvgl/lvgl/src/core/lv_obj.c **** {
 340:lvgl/lvgl/src/core/lv_obj.c ****     const lv_obj_class_t * obj_class = obj->class_p;
 341:lvgl/lvgl/src/core/lv_obj.c ****     while(obj_class) {
 342:lvgl/lvgl/src/core/lv_obj.c ****         if(obj_class == class_p) return true;
 343:lvgl/lvgl/src/core/lv_obj.c ****         obj_class = obj_class->base_class;
 344:lvgl/lvgl/src/core/lv_obj.c ****     }
 345:lvgl/lvgl/src/core/lv_obj.c **** 
 346:lvgl/lvgl/src/core/lv_obj.c ****     return false;
 347:lvgl/lvgl/src/core/lv_obj.c **** }
 348:lvgl/lvgl/src/core/lv_obj.c **** 
 349:lvgl/lvgl/src/core/lv_obj.c **** const lv_obj_class_t * lv_obj_get_class(const lv_obj_t * obj)
 350:lvgl/lvgl/src/core/lv_obj.c **** {
 351:lvgl/lvgl/src/core/lv_obj.c ****     return obj->class_p;
 352:lvgl/lvgl/src/core/lv_obj.c **** }
 353:lvgl/lvgl/src/core/lv_obj.c **** 
 354:lvgl/lvgl/src/core/lv_obj.c **** bool lv_obj_is_valid(const lv_obj_t * obj)
 355:lvgl/lvgl/src/core/lv_obj.c **** {
 356:lvgl/lvgl/src/core/lv_obj.c ****     lv_disp_t * disp = lv_disp_get_next(NULL);
 357:lvgl/lvgl/src/core/lv_obj.c ****     while(disp) {
 358:lvgl/lvgl/src/core/lv_obj.c ****         uint32_t i;
 359:lvgl/lvgl/src/core/lv_obj.c ****         for(i = 0; i < disp->screen_cnt; i++) {
 360:lvgl/lvgl/src/core/lv_obj.c ****             if(disp->screens[i] == obj) return true;
 361:lvgl/lvgl/src/core/lv_obj.c ****             bool found = obj_valid_child(disp->screens[i], obj);
 362:lvgl/lvgl/src/core/lv_obj.c ****             if(found) return true;
 363:lvgl/lvgl/src/core/lv_obj.c ****         }
 364:lvgl/lvgl/src/core/lv_obj.c **** 
 365:lvgl/lvgl/src/core/lv_obj.c ****         disp = lv_disp_get_next(disp);
 366:lvgl/lvgl/src/core/lv_obj.c ****     }
 367:lvgl/lvgl/src/core/lv_obj.c **** 
 368:lvgl/lvgl/src/core/lv_obj.c ****     return false;
 369:lvgl/lvgl/src/core/lv_obj.c **** }
 370:lvgl/lvgl/src/core/lv_obj.c **** 
 371:lvgl/lvgl/src/core/lv_obj.c **** /**********************
 372:lvgl/lvgl/src/core/lv_obj.c ****  *   STATIC FUNCTIONS
ARM GAS  C:\Users\gx\AppData\Local\Temp\cccIVLs9.s 			page 8


 373:lvgl/lvgl/src/core/lv_obj.c ****  **********************/
 374:lvgl/lvgl/src/core/lv_obj.c **** 
 375:lvgl/lvgl/src/core/lv_obj.c **** static void lv_obj_constructor(const lv_obj_class_t * class_p, lv_obj_t * obj)
 376:lvgl/lvgl/src/core/lv_obj.c **** {
 377:lvgl/lvgl/src/core/lv_obj.c ****     LV_UNUSED(class_p);
 378:lvgl/lvgl/src/core/lv_obj.c ****     LV_TRACE_OBJ_CREATE("begin");
 379:lvgl/lvgl/src/core/lv_obj.c **** 
 380:lvgl/lvgl/src/core/lv_obj.c ****     lv_obj_t * parent = obj->parent;
 381:lvgl/lvgl/src/core/lv_obj.c ****     if(parent) {
 382:lvgl/lvgl/src/core/lv_obj.c ****         lv_coord_t sl = lv_obj_get_scroll_left(parent);
 383:lvgl/lvgl/src/core/lv_obj.c ****         lv_coord_t st = lv_obj_get_scroll_top(parent);
 384:lvgl/lvgl/src/core/lv_obj.c **** 
 385:lvgl/lvgl/src/core/lv_obj.c ****         obj->coords.y1 = parent->coords.y1 + lv_obj_get_style_pad_top(parent, LV_PART_MAIN) - st;
 386:lvgl/lvgl/src/core/lv_obj.c ****         obj->coords.y2 = obj->coords.y1 - 1;
 387:lvgl/lvgl/src/core/lv_obj.c ****         obj->coords.x1  = parent->coords.x1 + lv_obj_get_style_pad_left(parent, LV_PART_MAIN) - sl;
 388:lvgl/lvgl/src/core/lv_obj.c ****         obj->coords.x2  = obj->coords.x1 - 1;
 389:lvgl/lvgl/src/core/lv_obj.c ****     }
 390:lvgl/lvgl/src/core/lv_obj.c **** 
 391:lvgl/lvgl/src/core/lv_obj.c ****     /*Set attributes*/
 392:lvgl/lvgl/src/core/lv_obj.c ****     obj->flags = LV_OBJ_FLAG_CLICKABLE;
 393:lvgl/lvgl/src/core/lv_obj.c ****     obj->flags |= LV_OBJ_FLAG_SNAPPABLE;
 394:lvgl/lvgl/src/core/lv_obj.c ****     if(parent) obj->flags |= LV_OBJ_FLAG_PRESS_LOCK;
 395:lvgl/lvgl/src/core/lv_obj.c ****     if(parent) obj->flags |= LV_OBJ_FLAG_SCROLL_CHAIN;
 396:lvgl/lvgl/src/core/lv_obj.c ****     obj->flags |= LV_OBJ_FLAG_CLICK_FOCUSABLE;
 397:lvgl/lvgl/src/core/lv_obj.c ****     obj->flags |= LV_OBJ_FLAG_SCROLLABLE;
 398:lvgl/lvgl/src/core/lv_obj.c ****     obj->flags |= LV_OBJ_FLAG_SCROLL_ELASTIC;
 399:lvgl/lvgl/src/core/lv_obj.c ****     obj->flags |= LV_OBJ_FLAG_SCROLL_MOMENTUM;
 400:lvgl/lvgl/src/core/lv_obj.c ****     if(parent) obj->flags |= LV_OBJ_FLAG_GESTURE_BUBBLE;
 401:lvgl/lvgl/src/core/lv_obj.c **** 
 402:lvgl/lvgl/src/core/lv_obj.c ****     LV_TRACE_OBJ_CREATE("finished");
 403:lvgl/lvgl/src/core/lv_obj.c **** }
 404:lvgl/lvgl/src/core/lv_obj.c **** 
 405:lvgl/lvgl/src/core/lv_obj.c **** static void lv_obj_destructor(const lv_obj_class_t * class_p, lv_obj_t * obj)
 406:lvgl/lvgl/src/core/lv_obj.c **** {
 407:lvgl/lvgl/src/core/lv_obj.c ****     LV_UNUSED(class_p);
 408:lvgl/lvgl/src/core/lv_obj.c **** 
 409:lvgl/lvgl/src/core/lv_obj.c ****     _lv_event_mark_deleted(obj);
 410:lvgl/lvgl/src/core/lv_obj.c **** 
 411:lvgl/lvgl/src/core/lv_obj.c ****     /*Remove all style*/
 412:lvgl/lvgl/src/core/lv_obj.c ****     lv_obj_enable_style_refresh(false); /*No need to refresh the style because the object will be d
 413:lvgl/lvgl/src/core/lv_obj.c ****     lv_obj_remove_style_all(obj);
 414:lvgl/lvgl/src/core/lv_obj.c ****     lv_obj_enable_style_refresh(true);
 415:lvgl/lvgl/src/core/lv_obj.c **** 
 416:lvgl/lvgl/src/core/lv_obj.c ****     /*Remove the animations from this object*/
 417:lvgl/lvgl/src/core/lv_obj.c ****     lv_anim_del(obj, NULL);
 418:lvgl/lvgl/src/core/lv_obj.c **** 
 419:lvgl/lvgl/src/core/lv_obj.c ****     /*Delete from the group*/
 420:lvgl/lvgl/src/core/lv_obj.c ****     lv_group_t * group = lv_obj_get_group(obj);
 421:lvgl/lvgl/src/core/lv_obj.c ****     if(group) lv_group_remove_obj(obj);
 422:lvgl/lvgl/src/core/lv_obj.c **** 
 423:lvgl/lvgl/src/core/lv_obj.c ****     if(obj->spec_attr) {
 424:lvgl/lvgl/src/core/lv_obj.c ****         if(obj->spec_attr->children) {
 425:lvgl/lvgl/src/core/lv_obj.c ****             lv_mem_free(obj->spec_attr->children);
 426:lvgl/lvgl/src/core/lv_obj.c ****             obj->spec_attr->children = NULL;
 427:lvgl/lvgl/src/core/lv_obj.c ****         }
 428:lvgl/lvgl/src/core/lv_obj.c ****         if(obj->spec_attr->event_dsc) {
 429:lvgl/lvgl/src/core/lv_obj.c ****             lv_mem_free(obj->spec_attr->event_dsc);
ARM GAS  C:\Users\gx\AppData\Local\Temp\cccIVLs9.s 			page 9


 430:lvgl/lvgl/src/core/lv_obj.c ****             obj->spec_attr->event_dsc = NULL;
 431:lvgl/lvgl/src/core/lv_obj.c ****         }
 432:lvgl/lvgl/src/core/lv_obj.c **** 
 433:lvgl/lvgl/src/core/lv_obj.c ****         lv_mem_free(obj->spec_attr);
 434:lvgl/lvgl/src/core/lv_obj.c ****         obj->spec_attr = NULL;
 435:lvgl/lvgl/src/core/lv_obj.c ****     }
 436:lvgl/lvgl/src/core/lv_obj.c **** }
 437:lvgl/lvgl/src/core/lv_obj.c **** 
 438:lvgl/lvgl/src/core/lv_obj.c **** static void lv_obj_draw(lv_event_t * e)
 439:lvgl/lvgl/src/core/lv_obj.c **** {
 440:lvgl/lvgl/src/core/lv_obj.c ****     lv_event_code_t code = lv_event_get_code(e);
 441:lvgl/lvgl/src/core/lv_obj.c ****     lv_obj_t * obj = lv_event_get_target(e);
 442:lvgl/lvgl/src/core/lv_obj.c ****     if(code == LV_EVENT_COVER_CHECK) {
 443:lvgl/lvgl/src/core/lv_obj.c ****         lv_cover_check_info_t * info = lv_event_get_param(e);
 444:lvgl/lvgl/src/core/lv_obj.c ****         if(info->res == LV_COVER_RES_MASKED) return;
 445:lvgl/lvgl/src/core/lv_obj.c ****         if(lv_obj_get_style_clip_corner(obj, LV_PART_MAIN)) {
 446:lvgl/lvgl/src/core/lv_obj.c ****             info->res = LV_COVER_RES_MASKED;
 447:lvgl/lvgl/src/core/lv_obj.c ****             return;
 448:lvgl/lvgl/src/core/lv_obj.c ****         }
 449:lvgl/lvgl/src/core/lv_obj.c **** 
 450:lvgl/lvgl/src/core/lv_obj.c ****         /*Most trivial test. Is the mask fully IN the object? If no it surely doesn't cover it*/
 451:lvgl/lvgl/src/core/lv_obj.c ****         lv_coord_t r = lv_obj_get_style_radius(obj, LV_PART_MAIN);
 452:lvgl/lvgl/src/core/lv_obj.c ****         lv_coord_t w = lv_obj_get_style_transform_width(obj, LV_PART_MAIN);
 453:lvgl/lvgl/src/core/lv_obj.c ****         lv_coord_t h = lv_obj_get_style_transform_height(obj, LV_PART_MAIN);
 454:lvgl/lvgl/src/core/lv_obj.c ****         lv_area_t coords;
 455:lvgl/lvgl/src/core/lv_obj.c ****         lv_area_copy(&coords, &obj->coords);
 456:lvgl/lvgl/src/core/lv_obj.c ****         coords.x1 -= w;
 457:lvgl/lvgl/src/core/lv_obj.c ****         coords.x2 += w;
 458:lvgl/lvgl/src/core/lv_obj.c ****         coords.y1 -= h;
 459:lvgl/lvgl/src/core/lv_obj.c ****         coords.y2 += h;
 460:lvgl/lvgl/src/core/lv_obj.c **** 
 461:lvgl/lvgl/src/core/lv_obj.c ****         if(_lv_area_is_in(info->area, &coords, r) == false) {
 462:lvgl/lvgl/src/core/lv_obj.c ****             info->res = LV_COVER_RES_NOT_COVER;
 463:lvgl/lvgl/src/core/lv_obj.c ****            return;
 464:lvgl/lvgl/src/core/lv_obj.c ****         }
 465:lvgl/lvgl/src/core/lv_obj.c **** 
 466:lvgl/lvgl/src/core/lv_obj.c ****         if(lv_obj_get_style_bg_opa(obj, LV_PART_MAIN) < LV_OPA_MAX) {
 467:lvgl/lvgl/src/core/lv_obj.c ****             info->res = LV_COVER_RES_NOT_COVER;
 468:lvgl/lvgl/src/core/lv_obj.c ****             return;
 469:lvgl/lvgl/src/core/lv_obj.c ****         }
 470:lvgl/lvgl/src/core/lv_obj.c **** 
 471:lvgl/lvgl/src/core/lv_obj.c **** #if LV_DRAW_COMPLEX
 472:lvgl/lvgl/src/core/lv_obj.c ****         if(lv_obj_get_style_blend_mode(obj, LV_PART_MAIN) != LV_BLEND_MODE_NORMAL) {
 473:lvgl/lvgl/src/core/lv_obj.c ****             info->res = LV_COVER_RES_NOT_COVER;
 474:lvgl/lvgl/src/core/lv_obj.c ****             return;
 475:lvgl/lvgl/src/core/lv_obj.c ****         }
 476:lvgl/lvgl/src/core/lv_obj.c **** #endif
 477:lvgl/lvgl/src/core/lv_obj.c ****         if(lv_obj_get_style_opa(obj, LV_PART_MAIN) < LV_OPA_MAX) {
 478:lvgl/lvgl/src/core/lv_obj.c ****             info->res = LV_COVER_RES_NOT_COVER;
 479:lvgl/lvgl/src/core/lv_obj.c ****             return;
 480:lvgl/lvgl/src/core/lv_obj.c ****         }
 481:lvgl/lvgl/src/core/lv_obj.c **** 
 482:lvgl/lvgl/src/core/lv_obj.c ****         info->res = LV_COVER_RES_COVER;
 483:lvgl/lvgl/src/core/lv_obj.c **** 
 484:lvgl/lvgl/src/core/lv_obj.c ****     }
 485:lvgl/lvgl/src/core/lv_obj.c ****     else if(code == LV_EVENT_DRAW_MAIN) {
 486:lvgl/lvgl/src/core/lv_obj.c ****         const lv_area_t * clip_area = lv_event_get_param(e);
ARM GAS  C:\Users\gx\AppData\Local\Temp\cccIVLs9.s 			page 10


 487:lvgl/lvgl/src/core/lv_obj.c ****         lv_draw_rect_dsc_t draw_dsc;
 488:lvgl/lvgl/src/core/lv_obj.c ****         lv_draw_rect_dsc_init(&draw_dsc);
 489:lvgl/lvgl/src/core/lv_obj.c ****         /*If the border is drawn later disable loading its properties*/
 490:lvgl/lvgl/src/core/lv_obj.c ****         if(lv_obj_get_style_border_post(obj, LV_PART_MAIN)) {
 491:lvgl/lvgl/src/core/lv_obj.c ****             draw_dsc.border_post = 1;
 492:lvgl/lvgl/src/core/lv_obj.c ****         }
 493:lvgl/lvgl/src/core/lv_obj.c **** 
 494:lvgl/lvgl/src/core/lv_obj.c ****         lv_obj_init_draw_rect_dsc(obj, LV_PART_MAIN, &draw_dsc);
 495:lvgl/lvgl/src/core/lv_obj.c **** 
 496:lvgl/lvgl/src/core/lv_obj.c ****         lv_coord_t w = lv_obj_get_style_transform_width(obj, LV_PART_MAIN);
 497:lvgl/lvgl/src/core/lv_obj.c ****         lv_coord_t h = lv_obj_get_style_transform_height(obj, LV_PART_MAIN);
 498:lvgl/lvgl/src/core/lv_obj.c ****         lv_area_t coords;
 499:lvgl/lvgl/src/core/lv_obj.c ****         lv_area_copy(&coords, &obj->coords);
 500:lvgl/lvgl/src/core/lv_obj.c ****         coords.x1 -= w;
 501:lvgl/lvgl/src/core/lv_obj.c ****         coords.x2 += w;
 502:lvgl/lvgl/src/core/lv_obj.c ****         coords.y1 -= h;
 503:lvgl/lvgl/src/core/lv_obj.c ****         coords.y2 += h;
 504:lvgl/lvgl/src/core/lv_obj.c **** 
 505:lvgl/lvgl/src/core/lv_obj.c **** 
 506:lvgl/lvgl/src/core/lv_obj.c ****         lv_obj_draw_part_dsc_t part_dsc;
 507:lvgl/lvgl/src/core/lv_obj.c ****         lv_obj_draw_dsc_init(&part_dsc, clip_area);
 508:lvgl/lvgl/src/core/lv_obj.c ****         part_dsc.class_p = MY_CLASS;
 509:lvgl/lvgl/src/core/lv_obj.c ****         part_dsc.type = LV_OBJ_DRAW_PART_RECTANGLE;
 510:lvgl/lvgl/src/core/lv_obj.c ****         part_dsc.rect_dsc = &draw_dsc;
 511:lvgl/lvgl/src/core/lv_obj.c ****         part_dsc.draw_area = &coords;
 512:lvgl/lvgl/src/core/lv_obj.c ****         part_dsc.part = LV_PART_MAIN;
 513:lvgl/lvgl/src/core/lv_obj.c ****         lv_event_send(obj, LV_EVENT_DRAW_PART_BEGIN, &part_dsc);
 514:lvgl/lvgl/src/core/lv_obj.c **** 
 515:lvgl/lvgl/src/core/lv_obj.c ****         lv_draw_rect(&coords, clip_area, &draw_dsc);
 516:lvgl/lvgl/src/core/lv_obj.c **** 
 517:lvgl/lvgl/src/core/lv_obj.c ****         lv_event_send(obj, LV_EVENT_DRAW_PART_END, &part_dsc);
 518:lvgl/lvgl/src/core/lv_obj.c **** 
 519:lvgl/lvgl/src/core/lv_obj.c **** #if LV_DRAW_COMPLEX
 520:lvgl/lvgl/src/core/lv_obj.c ****         if(lv_obj_get_style_clip_corner(obj, LV_PART_MAIN)) {
 521:lvgl/lvgl/src/core/lv_obj.c ****             /*If the radius is 0 the parent's coordinates will clip anyway*/
 522:lvgl/lvgl/src/core/lv_obj.c ****             lv_coord_t r = lv_obj_get_style_radius(obj, LV_PART_MAIN);
 523:lvgl/lvgl/src/core/lv_obj.c ****             if(r != 0) {
 524:lvgl/lvgl/src/core/lv_obj.c ****                 lv_draw_mask_radius_param_t * mp = lv_mem_buf_get(sizeof(lv_draw_mask_radius_param_
 525:lvgl/lvgl/src/core/lv_obj.c ****                 lv_draw_mask_radius_init(mp, &obj->coords, r, false);
 526:lvgl/lvgl/src/core/lv_obj.c ****                 /*Add the mask and use `obj+8` as custom id. Don't use `obj` directly because it mi
 527:lvgl/lvgl/src/core/lv_obj.c ****                 lv_draw_mask_add(mp, obj + 8);
 528:lvgl/lvgl/src/core/lv_obj.c ****             }
 529:lvgl/lvgl/src/core/lv_obj.c ****         }
 530:lvgl/lvgl/src/core/lv_obj.c **** #endif
 531:lvgl/lvgl/src/core/lv_obj.c ****     }
 532:lvgl/lvgl/src/core/lv_obj.c ****     else if(code == LV_EVENT_DRAW_POST) {
 533:lvgl/lvgl/src/core/lv_obj.c ****         const lv_area_t * clip_area = lv_event_get_param(e);
 534:lvgl/lvgl/src/core/lv_obj.c ****         draw_scrollbar(obj, clip_area);
 535:lvgl/lvgl/src/core/lv_obj.c **** 
 536:lvgl/lvgl/src/core/lv_obj.c **** #if LV_DRAW_COMPLEX
 537:lvgl/lvgl/src/core/lv_obj.c ****         if(lv_obj_get_style_clip_corner(obj, LV_PART_MAIN)) {
 538:lvgl/lvgl/src/core/lv_obj.c ****             lv_draw_mask_radius_param_t * param = lv_draw_mask_remove_custom(obj + 8);
 539:lvgl/lvgl/src/core/lv_obj.c ****             if(param) {
 540:lvgl/lvgl/src/core/lv_obj.c ****                 lv_draw_mask_free_param(param);
 541:lvgl/lvgl/src/core/lv_obj.c ****                 lv_mem_buf_release(param);
 542:lvgl/lvgl/src/core/lv_obj.c ****             }
 543:lvgl/lvgl/src/core/lv_obj.c ****         }
ARM GAS  C:\Users\gx\AppData\Local\Temp\cccIVLs9.s 			page 11


 544:lvgl/lvgl/src/core/lv_obj.c **** #endif
 545:lvgl/lvgl/src/core/lv_obj.c **** 
 546:lvgl/lvgl/src/core/lv_obj.c ****         /*If the border is drawn later disable loading other properties*/
 547:lvgl/lvgl/src/core/lv_obj.c ****         if(lv_obj_get_style_border_post(obj, LV_PART_MAIN)) {
 548:lvgl/lvgl/src/core/lv_obj.c ****             lv_draw_rect_dsc_t draw_dsc;
 549:lvgl/lvgl/src/core/lv_obj.c ****             lv_draw_rect_dsc_init(&draw_dsc);
 550:lvgl/lvgl/src/core/lv_obj.c ****             draw_dsc.bg_opa = LV_OPA_TRANSP;
 551:lvgl/lvgl/src/core/lv_obj.c ****             draw_dsc.outline_opa = LV_OPA_TRANSP;
 552:lvgl/lvgl/src/core/lv_obj.c ****             draw_dsc.shadow_opa = LV_OPA_TRANSP;
 553:lvgl/lvgl/src/core/lv_obj.c ****             lv_obj_init_draw_rect_dsc(obj, LV_PART_MAIN, &draw_dsc);
 554:lvgl/lvgl/src/core/lv_obj.c **** 
 555:lvgl/lvgl/src/core/lv_obj.c ****             lv_coord_t w = lv_obj_get_style_transform_width(obj, LV_PART_MAIN);
 556:lvgl/lvgl/src/core/lv_obj.c ****             lv_coord_t h = lv_obj_get_style_transform_height(obj, LV_PART_MAIN);
 557:lvgl/lvgl/src/core/lv_obj.c ****             lv_area_t coords;
 558:lvgl/lvgl/src/core/lv_obj.c ****             lv_area_copy(&coords, &obj->coords);
 559:lvgl/lvgl/src/core/lv_obj.c ****             coords.x1 -= w;
 560:lvgl/lvgl/src/core/lv_obj.c ****             coords.x2 += w;
 561:lvgl/lvgl/src/core/lv_obj.c ****             coords.y1 -= h;
 562:lvgl/lvgl/src/core/lv_obj.c ****             coords.y2 += h;
 563:lvgl/lvgl/src/core/lv_obj.c **** 
 564:lvgl/lvgl/src/core/lv_obj.c ****             lv_obj_draw_part_dsc_t part_dsc;
 565:lvgl/lvgl/src/core/lv_obj.c ****             lv_obj_draw_dsc_init(&part_dsc, clip_area);
 566:lvgl/lvgl/src/core/lv_obj.c ****             part_dsc.class_p = MY_CLASS;
 567:lvgl/lvgl/src/core/lv_obj.c ****             part_dsc.type = LV_OBJ_DRAW_PART_BORDER_POST;
 568:lvgl/lvgl/src/core/lv_obj.c ****             part_dsc.rect_dsc = &draw_dsc;
 569:lvgl/lvgl/src/core/lv_obj.c ****             part_dsc.draw_area = &coords;
 570:lvgl/lvgl/src/core/lv_obj.c ****             part_dsc.part = LV_PART_MAIN;
 571:lvgl/lvgl/src/core/lv_obj.c ****             lv_event_send(obj, LV_EVENT_DRAW_PART_BEGIN, &part_dsc);
 572:lvgl/lvgl/src/core/lv_obj.c **** 
 573:lvgl/lvgl/src/core/lv_obj.c ****             lv_draw_rect(&coords, clip_area, &draw_dsc);
 574:lvgl/lvgl/src/core/lv_obj.c ****             lv_event_send(obj, LV_EVENT_DRAW_PART_END, &part_dsc);
 575:lvgl/lvgl/src/core/lv_obj.c ****         }
 576:lvgl/lvgl/src/core/lv_obj.c ****     }
 577:lvgl/lvgl/src/core/lv_obj.c **** }
 578:lvgl/lvgl/src/core/lv_obj.c **** 
 579:lvgl/lvgl/src/core/lv_obj.c **** static void draw_scrollbar(lv_obj_t * obj, const lv_area_t * clip_area)
 580:lvgl/lvgl/src/core/lv_obj.c **** {
 581:lvgl/lvgl/src/core/lv_obj.c **** 
 582:lvgl/lvgl/src/core/lv_obj.c ****     lv_area_t hor_area;
 583:lvgl/lvgl/src/core/lv_obj.c ****     lv_area_t ver_area;
 584:lvgl/lvgl/src/core/lv_obj.c ****     lv_obj_get_scrollbar_area(obj, &hor_area, &ver_area);
 585:lvgl/lvgl/src/core/lv_obj.c **** 
 586:lvgl/lvgl/src/core/lv_obj.c ****     if(lv_area_get_size(&hor_area) <= 0 && lv_area_get_size(&ver_area) <= 0) return;
 587:lvgl/lvgl/src/core/lv_obj.c **** 
 588:lvgl/lvgl/src/core/lv_obj.c ****     lv_draw_rect_dsc_t draw_dsc;
 589:lvgl/lvgl/src/core/lv_obj.c ****     lv_res_t sb_res = scrollbar_init_draw_dsc(obj, &draw_dsc);
 590:lvgl/lvgl/src/core/lv_obj.c ****     if(sb_res != LV_RES_OK) return;
 591:lvgl/lvgl/src/core/lv_obj.c **** 
 592:lvgl/lvgl/src/core/lv_obj.c ****     lv_obj_draw_part_dsc_t part_dsc;
 593:lvgl/lvgl/src/core/lv_obj.c ****     lv_obj_draw_dsc_init(&part_dsc, clip_area);
 594:lvgl/lvgl/src/core/lv_obj.c ****     part_dsc.class_p = MY_CLASS;
 595:lvgl/lvgl/src/core/lv_obj.c ****     part_dsc.type = LV_OBJ_DRAW_PART_SCROLLBAR;
 596:lvgl/lvgl/src/core/lv_obj.c ****     part_dsc.rect_dsc = &draw_dsc;
 597:lvgl/lvgl/src/core/lv_obj.c ****     part_dsc.part = LV_PART_SCROLLBAR;
 598:lvgl/lvgl/src/core/lv_obj.c **** 
 599:lvgl/lvgl/src/core/lv_obj.c ****     if(lv_area_get_size(&hor_area) > 0) {
 600:lvgl/lvgl/src/core/lv_obj.c ****         part_dsc.draw_area = &hor_area;
ARM GAS  C:\Users\gx\AppData\Local\Temp\cccIVLs9.s 			page 12


 601:lvgl/lvgl/src/core/lv_obj.c ****         lv_event_send(obj, LV_EVENT_DRAW_PART_BEGIN, &part_dsc);
 602:lvgl/lvgl/src/core/lv_obj.c ****         lv_draw_rect(&hor_area, clip_area, &draw_dsc);
 603:lvgl/lvgl/src/core/lv_obj.c ****         lv_event_send(obj, LV_EVENT_DRAW_PART_END, &part_dsc);
 604:lvgl/lvgl/src/core/lv_obj.c ****     }
 605:lvgl/lvgl/src/core/lv_obj.c ****     if(lv_area_get_size(&ver_area) > 0) {
 606:lvgl/lvgl/src/core/lv_obj.c ****         part_dsc.draw_area = &ver_area;
 607:lvgl/lvgl/src/core/lv_obj.c ****         lv_event_send(obj, LV_EVENT_DRAW_PART_BEGIN, &part_dsc);
 608:lvgl/lvgl/src/core/lv_obj.c ****         lv_draw_rect(&ver_area, clip_area, &draw_dsc);
 609:lvgl/lvgl/src/core/lv_obj.c ****         lv_event_send(obj, LV_EVENT_DRAW_PART_END, &part_dsc);
 610:lvgl/lvgl/src/core/lv_obj.c ****     }
 611:lvgl/lvgl/src/core/lv_obj.c **** }
 612:lvgl/lvgl/src/core/lv_obj.c **** 
 613:lvgl/lvgl/src/core/lv_obj.c **** /**
 614:lvgl/lvgl/src/core/lv_obj.c ****  * Initialize the draw descriptor for the scrollbar
 615:lvgl/lvgl/src/core/lv_obj.c ****  * @param obj pointer to an object
 616:lvgl/lvgl/src/core/lv_obj.c ****  * @param dsc the draw descriptor to initialize
 617:lvgl/lvgl/src/core/lv_obj.c ****  * @return LV_RES_OK: the scrollbar is visible; LV_RES_INV: the scrollbar is not visible
 618:lvgl/lvgl/src/core/lv_obj.c ****  */
 619:lvgl/lvgl/src/core/lv_obj.c **** static lv_res_t scrollbar_init_draw_dsc(lv_obj_t * obj, lv_draw_rect_dsc_t * dsc)
 620:lvgl/lvgl/src/core/lv_obj.c **** {
 621:lvgl/lvgl/src/core/lv_obj.c ****     lv_draw_rect_dsc_init(dsc);
 622:lvgl/lvgl/src/core/lv_obj.c ****     dsc->bg_opa = lv_obj_get_style_bg_opa(obj, LV_PART_SCROLLBAR);
 623:lvgl/lvgl/src/core/lv_obj.c ****     if(dsc->bg_opa > LV_OPA_MIN) {
 624:lvgl/lvgl/src/core/lv_obj.c ****         dsc->bg_color = lv_obj_get_style_bg_color(obj, LV_PART_SCROLLBAR);
 625:lvgl/lvgl/src/core/lv_obj.c ****     }
 626:lvgl/lvgl/src/core/lv_obj.c **** 
 627:lvgl/lvgl/src/core/lv_obj.c ****     dsc->border_opa = lv_obj_get_style_border_opa(obj, LV_PART_SCROLLBAR);
 628:lvgl/lvgl/src/core/lv_obj.c ****     if(dsc->border_opa > LV_OPA_MIN) {
 629:lvgl/lvgl/src/core/lv_obj.c ****         dsc->border_width = lv_obj_get_style_border_width(obj, LV_PART_SCROLLBAR);
 630:lvgl/lvgl/src/core/lv_obj.c ****         if(dsc->border_width > 0) {
 631:lvgl/lvgl/src/core/lv_obj.c ****             dsc->border_color = lv_obj_get_style_border_color(obj, LV_PART_SCROLLBAR);
 632:lvgl/lvgl/src/core/lv_obj.c ****         } else {
 633:lvgl/lvgl/src/core/lv_obj.c ****             dsc->border_opa = LV_OPA_TRANSP;
 634:lvgl/lvgl/src/core/lv_obj.c ****         }
 635:lvgl/lvgl/src/core/lv_obj.c ****     }
 636:lvgl/lvgl/src/core/lv_obj.c **** 
 637:lvgl/lvgl/src/core/lv_obj.c **** #if LV_DRAW_COMPLEX
 638:lvgl/lvgl/src/core/lv_obj.c ****     dsc->shadow_opa = lv_obj_get_style_shadow_opa(obj, LV_PART_SCROLLBAR);
 639:lvgl/lvgl/src/core/lv_obj.c ****     if(dsc->shadow_opa > LV_OPA_MIN) {
 640:lvgl/lvgl/src/core/lv_obj.c ****         dsc->shadow_width = lv_obj_get_style_shadow_width(obj, LV_PART_SCROLLBAR);
 641:lvgl/lvgl/src/core/lv_obj.c ****         if(dsc->shadow_width > 0) {
 642:lvgl/lvgl/src/core/lv_obj.c ****             dsc->shadow_spread = lv_obj_get_style_shadow_spread(obj, LV_PART_SCROLLBAR);
 643:lvgl/lvgl/src/core/lv_obj.c ****             dsc->shadow_color = lv_obj_get_style_shadow_color(obj, LV_PART_SCROLLBAR);
 644:lvgl/lvgl/src/core/lv_obj.c ****         } else {
 645:lvgl/lvgl/src/core/lv_obj.c ****             dsc->shadow_opa = LV_OPA_TRANSP;
 646:lvgl/lvgl/src/core/lv_obj.c ****         }
 647:lvgl/lvgl/src/core/lv_obj.c ****     }
 648:lvgl/lvgl/src/core/lv_obj.c **** 
 649:lvgl/lvgl/src/core/lv_obj.c ****     lv_opa_t opa = lv_obj_get_style_opa(obj, LV_PART_SCROLLBAR);
 650:lvgl/lvgl/src/core/lv_obj.c ****     if(opa < LV_OPA_MAX) {
 651:lvgl/lvgl/src/core/lv_obj.c ****         dsc->bg_opa = (dsc->bg_opa * opa) >> 8;
 652:lvgl/lvgl/src/core/lv_obj.c ****         dsc->border_opa = (dsc->bg_opa * opa) >> 8;
 653:lvgl/lvgl/src/core/lv_obj.c ****         dsc->shadow_opa = (dsc->bg_opa * opa) >> 8;
 654:lvgl/lvgl/src/core/lv_obj.c ****     }
 655:lvgl/lvgl/src/core/lv_obj.c **** 
 656:lvgl/lvgl/src/core/lv_obj.c ****     if(dsc->bg_opa != LV_OPA_TRANSP || dsc->border_opa != LV_OPA_TRANSP || dsc->shadow_opa != LV_OP
 657:lvgl/lvgl/src/core/lv_obj.c ****         dsc->radius = lv_obj_get_style_radius(obj, LV_PART_SCROLLBAR);
ARM GAS  C:\Users\gx\AppData\Local\Temp\cccIVLs9.s 			page 13


 658:lvgl/lvgl/src/core/lv_obj.c ****         return LV_RES_OK;
 659:lvgl/lvgl/src/core/lv_obj.c ****     } else {
 660:lvgl/lvgl/src/core/lv_obj.c ****         return LV_RES_INV;
 661:lvgl/lvgl/src/core/lv_obj.c ****     }
 662:lvgl/lvgl/src/core/lv_obj.c **** #else
 663:lvgl/lvgl/src/core/lv_obj.c ****     if(dsc->bg_opa != LV_OPA_TRANSP || dsc->border_opa != LV_OPA_TRANSP) return LV_RES_OK;
 664:lvgl/lvgl/src/core/lv_obj.c ****     else return LV_RES_INV;
 665:lvgl/lvgl/src/core/lv_obj.c **** #endif
 666:lvgl/lvgl/src/core/lv_obj.c **** }
 667:lvgl/lvgl/src/core/lv_obj.c **** 
 668:lvgl/lvgl/src/core/lv_obj.c **** static void lv_obj_event(const lv_obj_class_t * class_p, lv_event_t * e)
 669:lvgl/lvgl/src/core/lv_obj.c **** {
 670:lvgl/lvgl/src/core/lv_obj.c ****     LV_UNUSED(class_p);
 671:lvgl/lvgl/src/core/lv_obj.c **** 
 672:lvgl/lvgl/src/core/lv_obj.c ****     lv_event_code_t code = lv_event_get_code(e);
 673:lvgl/lvgl/src/core/lv_obj.c ****     lv_obj_t * obj = lv_event_get_target(e);
 674:lvgl/lvgl/src/core/lv_obj.c ****     if(code == LV_EVENT_PRESSED) {
 675:lvgl/lvgl/src/core/lv_obj.c ****         lv_obj_add_state(obj, LV_STATE_PRESSED);
 676:lvgl/lvgl/src/core/lv_obj.c ****     }
 677:lvgl/lvgl/src/core/lv_obj.c ****     else if(code == LV_EVENT_RELEASED) {
 678:lvgl/lvgl/src/core/lv_obj.c ****         lv_obj_clear_state(obj, LV_STATE_PRESSED);
 679:lvgl/lvgl/src/core/lv_obj.c ****         void * param = lv_event_get_param(e);
 680:lvgl/lvgl/src/core/lv_obj.c ****         /*Go the checked state if enabled*/
 681:lvgl/lvgl/src/core/lv_obj.c ****         if(lv_indev_get_scroll_obj(param) == NULL && lv_obj_has_flag(obj, LV_OBJ_FLAG_CHECKABLE)) {
 682:lvgl/lvgl/src/core/lv_obj.c ****             if(!(lv_obj_get_state(obj) & LV_STATE_CHECKED)) lv_obj_add_state(obj, LV_STATE_CHECKED)
 683:lvgl/lvgl/src/core/lv_obj.c ****             else lv_obj_clear_state(obj, LV_STATE_CHECKED);
 684:lvgl/lvgl/src/core/lv_obj.c **** 
 685:lvgl/lvgl/src/core/lv_obj.c ****             lv_res_t res = lv_event_send(obj, LV_EVENT_VALUE_CHANGED, NULL);
 686:lvgl/lvgl/src/core/lv_obj.c ****             if(res != LV_RES_OK) return;
 687:lvgl/lvgl/src/core/lv_obj.c ****         }
 688:lvgl/lvgl/src/core/lv_obj.c ****     }
 689:lvgl/lvgl/src/core/lv_obj.c ****     else if(code == LV_EVENT_PRESS_LOST) {
 690:lvgl/lvgl/src/core/lv_obj.c ****         lv_obj_clear_state(obj, LV_STATE_PRESSED);
 691:lvgl/lvgl/src/core/lv_obj.c ****     }
 692:lvgl/lvgl/src/core/lv_obj.c ****     else if(code == LV_EVENT_STYLE_CHANGED) {
 693:lvgl/lvgl/src/core/lv_obj.c ****         uint32_t child_cnt = lv_obj_get_child_cnt(obj);
 694:lvgl/lvgl/src/core/lv_obj.c ****         for(uint32_t i = 0; i < child_cnt; i++) {
 695:lvgl/lvgl/src/core/lv_obj.c ****             lv_obj_t * child = obj->spec_attr->children[i];
 696:lvgl/lvgl/src/core/lv_obj.c ****             lv_obj_mark_layout_as_dirty(child);
 697:lvgl/lvgl/src/core/lv_obj.c ****         }
 698:lvgl/lvgl/src/core/lv_obj.c ****     }
 699:lvgl/lvgl/src/core/lv_obj.c ****     else if(code == LV_EVENT_KEY) {
 700:lvgl/lvgl/src/core/lv_obj.c ****         if(lv_obj_has_flag(obj, LV_OBJ_FLAG_CHECKABLE)) {
 701:lvgl/lvgl/src/core/lv_obj.c ****             char c = *((char *)lv_event_get_param(e));
 702:lvgl/lvgl/src/core/lv_obj.c ****             if(c == LV_KEY_RIGHT || c == LV_KEY_UP) {
 703:lvgl/lvgl/src/core/lv_obj.c ****                 lv_obj_add_state(obj, LV_STATE_CHECKED);
 704:lvgl/lvgl/src/core/lv_obj.c ****             }
 705:lvgl/lvgl/src/core/lv_obj.c ****             else if(c == LV_KEY_LEFT || c == LV_KEY_DOWN) {
 706:lvgl/lvgl/src/core/lv_obj.c ****                 lv_obj_clear_state(obj, LV_STATE_CHECKED);
 707:lvgl/lvgl/src/core/lv_obj.c ****             }
 708:lvgl/lvgl/src/core/lv_obj.c **** 
 709:lvgl/lvgl/src/core/lv_obj.c ****             /*With Enter LV_EVENT_RELEASED will send VALUE_CHANGE event*/
 710:lvgl/lvgl/src/core/lv_obj.c ****             if(c != LV_KEY_ENTER) {
 711:lvgl/lvgl/src/core/lv_obj.c ****                 lv_res_t res = lv_event_send(obj, LV_EVENT_VALUE_CHANGED, NULL);
 712:lvgl/lvgl/src/core/lv_obj.c ****                 if(res != LV_RES_OK) return;
 713:lvgl/lvgl/src/core/lv_obj.c ****             }
 714:lvgl/lvgl/src/core/lv_obj.c ****         }
ARM GAS  C:\Users\gx\AppData\Local\Temp\cccIVLs9.s 			page 14


 715:lvgl/lvgl/src/core/lv_obj.c ****         else if(lv_obj_has_flag(obj, LV_OBJ_FLAG_SCROLLABLE) && !lv_obj_is_editable(obj)) {
 716:lvgl/lvgl/src/core/lv_obj.c ****             /*scroll by keypad or encoder*/
 717:lvgl/lvgl/src/core/lv_obj.c ****             lv_anim_enable_t anim_enable = LV_ANIM_OFF;
 718:lvgl/lvgl/src/core/lv_obj.c ****             lv_coord_t sl = lv_obj_get_scroll_left(obj);
 719:lvgl/lvgl/src/core/lv_obj.c ****             lv_coord_t sr = lv_obj_get_scroll_right(obj);
 720:lvgl/lvgl/src/core/lv_obj.c ****             char c = *((char *)lv_event_get_param(e));
 721:lvgl/lvgl/src/core/lv_obj.c ****             if(c == LV_KEY_DOWN) {
 722:lvgl/lvgl/src/core/lv_obj.c ****                 /*use scroll_to_x/y functions to enforce scroll limits*/
 723:lvgl/lvgl/src/core/lv_obj.c ****                 lv_obj_scroll_to_y(obj, lv_obj_get_scroll_y(obj) + lv_obj_get_height(obj) / 4, anim
 724:lvgl/lvgl/src/core/lv_obj.c ****             }
 725:lvgl/lvgl/src/core/lv_obj.c ****             else if(c == LV_KEY_UP) {
 726:lvgl/lvgl/src/core/lv_obj.c ****                 lv_obj_scroll_to_y(obj, lv_obj_get_scroll_y(obj) - lv_obj_get_height(obj) / 4, anim
 727:lvgl/lvgl/src/core/lv_obj.c ****             }
 728:lvgl/lvgl/src/core/lv_obj.c ****             else if(c == LV_KEY_RIGHT) {
 729:lvgl/lvgl/src/core/lv_obj.c ****                 /*If the object can't be scrolled horizontally then scroll it vertically*/
 730:lvgl/lvgl/src/core/lv_obj.c ****                 if(!((lv_obj_get_scroll_dir(obj) & LV_DIR_HOR) && (sl > 0 || sr > 0)))
 731:lvgl/lvgl/src/core/lv_obj.c ****                     lv_obj_scroll_to_y(obj, lv_obj_get_scroll_y(obj) + lv_obj_get_height(obj) / 4, 
 732:lvgl/lvgl/src/core/lv_obj.c ****                 else
 733:lvgl/lvgl/src/core/lv_obj.c ****                     lv_obj_scroll_to_x(obj, lv_obj_get_scroll_x(obj) + lv_obj_get_width(obj) / 4, a
 734:lvgl/lvgl/src/core/lv_obj.c ****             }
 735:lvgl/lvgl/src/core/lv_obj.c ****             else if(c == LV_KEY_LEFT) {
 736:lvgl/lvgl/src/core/lv_obj.c ****                 /*If the object can't be scrolled horizontally then scroll it vertically*/
 737:lvgl/lvgl/src/core/lv_obj.c ****                 if(!((lv_obj_get_scroll_dir(obj) & LV_DIR_HOR) && (sl > 0 || sr > 0)))
 738:lvgl/lvgl/src/core/lv_obj.c ****                     lv_obj_scroll_to_y(obj, lv_obj_get_scroll_y(obj) - lv_obj_get_height(obj) / 4, 
 739:lvgl/lvgl/src/core/lv_obj.c ****                 else
 740:lvgl/lvgl/src/core/lv_obj.c ****                     lv_obj_scroll_to_x(obj, lv_obj_get_scroll_x(obj) - lv_obj_get_width(obj) / 4, a
 741:lvgl/lvgl/src/core/lv_obj.c ****             }
 742:lvgl/lvgl/src/core/lv_obj.c ****         }
 743:lvgl/lvgl/src/core/lv_obj.c ****     }
 744:lvgl/lvgl/src/core/lv_obj.c ****     else if(code == LV_EVENT_FOCUSED) {
 745:lvgl/lvgl/src/core/lv_obj.c ****         if(lv_obj_has_flag(obj, LV_OBJ_FLAG_SCROLL_ON_FOCUS)) {
 746:lvgl/lvgl/src/core/lv_obj.c ****             lv_obj_scroll_to_view_recursive(obj, LV_ANIM_ON);
 747:lvgl/lvgl/src/core/lv_obj.c ****         }
 748:lvgl/lvgl/src/core/lv_obj.c **** 
 749:lvgl/lvgl/src/core/lv_obj.c ****         bool editing = false;
 750:lvgl/lvgl/src/core/lv_obj.c ****         editing = lv_group_get_editing(lv_obj_get_group(obj));
 751:lvgl/lvgl/src/core/lv_obj.c ****         lv_state_t state = LV_STATE_FOCUSED;
 752:lvgl/lvgl/src/core/lv_obj.c **** 
 753:lvgl/lvgl/src/core/lv_obj.c ****         /* Use the indev for then indev handler.
 754:lvgl/lvgl/src/core/lv_obj.c ****          * But if the obj was focused manually it returns NULL so try to
 755:lvgl/lvgl/src/core/lv_obj.c ****          * use the indev from the event*/
 756:lvgl/lvgl/src/core/lv_obj.c ****         lv_indev_t * indev = lv_indev_get_act();
 757:lvgl/lvgl/src/core/lv_obj.c ****         if(indev == NULL) indev = lv_event_get_indev(e);
 758:lvgl/lvgl/src/core/lv_obj.c **** 
 759:lvgl/lvgl/src/core/lv_obj.c ****         lv_indev_type_t indev_type = lv_indev_get_type(indev);
 760:lvgl/lvgl/src/core/lv_obj.c ****         if(indev_type == LV_INDEV_TYPE_KEYPAD || indev_type == LV_INDEV_TYPE_ENCODER) state |= LV_S
 761:lvgl/lvgl/src/core/lv_obj.c ****         if(editing) {
 762:lvgl/lvgl/src/core/lv_obj.c ****             state |= LV_STATE_EDITED;
 763:lvgl/lvgl/src/core/lv_obj.c ****             lv_obj_add_state(obj, state);
 764:lvgl/lvgl/src/core/lv_obj.c ****         }
 765:lvgl/lvgl/src/core/lv_obj.c ****         else {
 766:lvgl/lvgl/src/core/lv_obj.c ****             lv_obj_add_state(obj, state);
 767:lvgl/lvgl/src/core/lv_obj.c ****             lv_obj_clear_state(obj, LV_STATE_EDITED);
 768:lvgl/lvgl/src/core/lv_obj.c ****         }
 769:lvgl/lvgl/src/core/lv_obj.c ****     }
 770:lvgl/lvgl/src/core/lv_obj.c ****     else if(code == LV_EVENT_SCROLL_BEGIN) {
 771:lvgl/lvgl/src/core/lv_obj.c ****         lv_obj_add_state(obj, LV_STATE_SCROLLED);
ARM GAS  C:\Users\gx\AppData\Local\Temp\cccIVLs9.s 			page 15


 772:lvgl/lvgl/src/core/lv_obj.c ****     }
 773:lvgl/lvgl/src/core/lv_obj.c ****     else if(code == LV_EVENT_SCROLL_END) {
 774:lvgl/lvgl/src/core/lv_obj.c ****         lv_obj_clear_state(obj, LV_STATE_SCROLLED);
 775:lvgl/lvgl/src/core/lv_obj.c ****     }
 776:lvgl/lvgl/src/core/lv_obj.c ****     else if(code == LV_EVENT_DEFOCUSED) {
 777:lvgl/lvgl/src/core/lv_obj.c ****         lv_obj_clear_state(obj, LV_STATE_FOCUSED | LV_STATE_EDITED | LV_STATE_FOCUS_KEY);
 778:lvgl/lvgl/src/core/lv_obj.c ****     }
 779:lvgl/lvgl/src/core/lv_obj.c ****     else if(code == LV_EVENT_SIZE_CHANGED) {
 780:lvgl/lvgl/src/core/lv_obj.c ****         lv_coord_t align = lv_obj_get_style_align(obj, LV_PART_MAIN);
 781:lvgl/lvgl/src/core/lv_obj.c ****         uint16_t layout = lv_obj_get_style_layout(obj, LV_PART_MAIN);
 782:lvgl/lvgl/src/core/lv_obj.c ****         if(layout || align) {
 783:lvgl/lvgl/src/core/lv_obj.c ****             lv_obj_mark_layout_as_dirty(obj);
 784:lvgl/lvgl/src/core/lv_obj.c ****         }
 785:lvgl/lvgl/src/core/lv_obj.c **** 
 786:lvgl/lvgl/src/core/lv_obj.c ****         uint32_t i;
 787:lvgl/lvgl/src/core/lv_obj.c ****         uint32_t child_cnt = lv_obj_get_child_cnt(obj);
 788:lvgl/lvgl/src/core/lv_obj.c ****         for(i = 0; i < child_cnt; i++) {
 789:lvgl/lvgl/src/core/lv_obj.c ****             lv_obj_t * child = obj->spec_attr->children[i];
 790:lvgl/lvgl/src/core/lv_obj.c ****             lv_obj_mark_layout_as_dirty(child);
 791:lvgl/lvgl/src/core/lv_obj.c ****         }
 792:lvgl/lvgl/src/core/lv_obj.c ****     }
 793:lvgl/lvgl/src/core/lv_obj.c ****     else if(code == LV_EVENT_CHILD_CHANGED) {
 794:lvgl/lvgl/src/core/lv_obj.c ****         lv_coord_t w = lv_obj_get_style_width(obj, LV_PART_MAIN);
 795:lvgl/lvgl/src/core/lv_obj.c ****         lv_coord_t h = lv_obj_get_style_height(obj, LV_PART_MAIN);
 796:lvgl/lvgl/src/core/lv_obj.c ****         lv_coord_t align = lv_obj_get_style_align(obj, LV_PART_MAIN);
 797:lvgl/lvgl/src/core/lv_obj.c ****         uint16_t layout = lv_obj_get_style_layout(obj, LV_PART_MAIN);
 798:lvgl/lvgl/src/core/lv_obj.c ****         if(layout || align || w == LV_SIZE_CONTENT || h == LV_SIZE_CONTENT) {
 799:lvgl/lvgl/src/core/lv_obj.c ****             lv_obj_mark_layout_as_dirty(obj);
 800:lvgl/lvgl/src/core/lv_obj.c ****         }
 801:lvgl/lvgl/src/core/lv_obj.c ****     }
 802:lvgl/lvgl/src/core/lv_obj.c ****     else if(code == LV_EVENT_SCROLL_END) {
 803:lvgl/lvgl/src/core/lv_obj.c ****         if(lv_obj_get_scrollbar_mode(obj) == LV_SCROLLBAR_MODE_ACTIVE) {
 804:lvgl/lvgl/src/core/lv_obj.c ****             lv_obj_invalidate(obj);
 805:lvgl/lvgl/src/core/lv_obj.c ****         }
 806:lvgl/lvgl/src/core/lv_obj.c ****     }
 807:lvgl/lvgl/src/core/lv_obj.c ****     else if(code == LV_EVENT_REFR_EXT_DRAW_SIZE) {
 808:lvgl/lvgl/src/core/lv_obj.c ****         lv_coord_t * s = lv_event_get_param(e);
 809:lvgl/lvgl/src/core/lv_obj.c ****         lv_coord_t d = lv_obj_calculate_ext_draw_size(obj, LV_PART_MAIN);
 810:lvgl/lvgl/src/core/lv_obj.c ****         *s = LV_MAX(*s, d);
 811:lvgl/lvgl/src/core/lv_obj.c ****     }
 812:lvgl/lvgl/src/core/lv_obj.c ****     else if(code == LV_EVENT_DRAW_MAIN || code == LV_EVENT_DRAW_POST || code == LV_EVENT_COVER_CHEC
 813:lvgl/lvgl/src/core/lv_obj.c ****         lv_obj_draw(e);
 814:lvgl/lvgl/src/core/lv_obj.c ****     }
 815:lvgl/lvgl/src/core/lv_obj.c **** }
 816:lvgl/lvgl/src/core/lv_obj.c **** 
 817:lvgl/lvgl/src/core/lv_obj.c **** /**
 818:lvgl/lvgl/src/core/lv_obj.c ****  * Set the state (fully overwrite) of an object.
 819:lvgl/lvgl/src/core/lv_obj.c ****  * If specified in the styles, transition animations will be started from the previous state to the
 820:lvgl/lvgl/src/core/lv_obj.c ****  * @param obj       pointer to an object
 821:lvgl/lvgl/src/core/lv_obj.c ****  * @param state     the new state
 822:lvgl/lvgl/src/core/lv_obj.c ****  */
 823:lvgl/lvgl/src/core/lv_obj.c **** static void lv_obj_set_state(lv_obj_t * obj, lv_state_t new_state)
 824:lvgl/lvgl/src/core/lv_obj.c **** {
 825:lvgl/lvgl/src/core/lv_obj.c ****     if(obj->state == new_state) return;
 826:lvgl/lvgl/src/core/lv_obj.c **** 
 827:lvgl/lvgl/src/core/lv_obj.c ****     LV_ASSERT_OBJ(obj, MY_CLASS);
 828:lvgl/lvgl/src/core/lv_obj.c **** 
ARM GAS  C:\Users\gx\AppData\Local\Temp\cccIVLs9.s 			page 16


 829:lvgl/lvgl/src/core/lv_obj.c ****     lv_state_t prev_state = obj->state;
 830:lvgl/lvgl/src/core/lv_obj.c ****     obj->state = new_state;
 831:lvgl/lvgl/src/core/lv_obj.c **** 
 832:lvgl/lvgl/src/core/lv_obj.c ****     _lv_style_state_cmp_t cmp_res = _lv_obj_style_state_compare(obj, prev_state, new_state);
 833:lvgl/lvgl/src/core/lv_obj.c ****     /*If there is no difference in styles there is nothing else to do*/
 834:lvgl/lvgl/src/core/lv_obj.c ****     if(cmp_res == _LV_STYLE_STATE_CMP_SAME) return;
 835:lvgl/lvgl/src/core/lv_obj.c **** 
 836:lvgl/lvgl/src/core/lv_obj.c ****     _lv_obj_style_transition_dsc_t * ts = lv_mem_buf_get(sizeof(_lv_obj_style_transition_dsc_t) * S
 837:lvgl/lvgl/src/core/lv_obj.c ****     lv_memset_00(ts, sizeof(_lv_obj_style_transition_dsc_t) * STYLE_TRANSITION_MAX);
 838:lvgl/lvgl/src/core/lv_obj.c ****     uint32_t tsi = 0;
 839:lvgl/lvgl/src/core/lv_obj.c ****     uint32_t i;
 840:lvgl/lvgl/src/core/lv_obj.c ****     for(i = 0; i < obj->style_cnt && tsi < STYLE_TRANSITION_MAX; i++) {
 841:lvgl/lvgl/src/core/lv_obj.c ****         _lv_obj_style_t * obj_style = &obj->styles[i];
 842:lvgl/lvgl/src/core/lv_obj.c ****         lv_state_t state_act = lv_obj_style_get_selector_state(obj->styles[i].selector);
 843:lvgl/lvgl/src/core/lv_obj.c ****         lv_part_t part_act = lv_obj_style_get_selector_part(obj->styles[i].selector);
 844:lvgl/lvgl/src/core/lv_obj.c ****         if(state_act & (~new_state)) continue; /*Skip unrelated styles*/
 845:lvgl/lvgl/src/core/lv_obj.c ****         if(obj_style->is_trans) continue;
 846:lvgl/lvgl/src/core/lv_obj.c **** 
 847:lvgl/lvgl/src/core/lv_obj.c ****         lv_style_value_t v;
 848:lvgl/lvgl/src/core/lv_obj.c ****         if(lv_style_get_prop_inlined(obj_style->style, LV_STYLE_TRANSITION, &v) == false) continue;
 849:lvgl/lvgl/src/core/lv_obj.c ****         const lv_style_transition_dsc_t * tr = v.ptr;
 850:lvgl/lvgl/src/core/lv_obj.c **** 
 851:lvgl/lvgl/src/core/lv_obj.c ****         /*Add the props to the set if not added yet or added but with smaller weight*/
 852:lvgl/lvgl/src/core/lv_obj.c ****         uint32_t j;
 853:lvgl/lvgl/src/core/lv_obj.c ****         for(j = 0; tr->props[j] != 0 && tsi < STYLE_TRANSITION_MAX; j++) {
 854:lvgl/lvgl/src/core/lv_obj.c ****             uint32_t t;
 855:lvgl/lvgl/src/core/lv_obj.c ****             for(t = 0; t < tsi; t++) {
 856:lvgl/lvgl/src/core/lv_obj.c ****                 lv_style_selector_t selector = ts[t].selector;
 857:lvgl/lvgl/src/core/lv_obj.c ****                 lv_state_t state_ts = lv_obj_style_get_selector_state(selector);
 858:lvgl/lvgl/src/core/lv_obj.c ****                 lv_part_t part_ts = lv_obj_style_get_selector_part(selector);
 859:lvgl/lvgl/src/core/lv_obj.c ****                 if(ts[t].prop == tr->props[j] && part_ts == part_act && state_ts >= state_act) brea
 860:lvgl/lvgl/src/core/lv_obj.c ****             }
 861:lvgl/lvgl/src/core/lv_obj.c **** 
 862:lvgl/lvgl/src/core/lv_obj.c ****             /*If not found  add it*/
 863:lvgl/lvgl/src/core/lv_obj.c ****             if(t == tsi) {
 864:lvgl/lvgl/src/core/lv_obj.c ****                 ts[tsi].time = tr->time;
 865:lvgl/lvgl/src/core/lv_obj.c ****                 ts[tsi].delay = tr->delay;
 866:lvgl/lvgl/src/core/lv_obj.c ****                 ts[tsi].path_cb = tr->path_xcb;
 867:lvgl/lvgl/src/core/lv_obj.c ****                 ts[tsi].prop = tr->props[j];
 868:lvgl/lvgl/src/core/lv_obj.c **** #if LV_USE_USER_DATA
 869:lvgl/lvgl/src/core/lv_obj.c ****                 ts[tsi].user_data = tr->user_data;
 870:lvgl/lvgl/src/core/lv_obj.c **** #endif
 871:lvgl/lvgl/src/core/lv_obj.c ****                 ts[tsi].selector = obj_style->selector;
 872:lvgl/lvgl/src/core/lv_obj.c ****                 tsi++;
 873:lvgl/lvgl/src/core/lv_obj.c ****             }
 874:lvgl/lvgl/src/core/lv_obj.c ****         }
 875:lvgl/lvgl/src/core/lv_obj.c ****     }
 876:lvgl/lvgl/src/core/lv_obj.c **** 
 877:lvgl/lvgl/src/core/lv_obj.c ****     for(i = 0;i < tsi; i++) {
 878:lvgl/lvgl/src/core/lv_obj.c ****         lv_part_t part_act = lv_obj_style_get_selector_part(ts[i].selector);
 879:lvgl/lvgl/src/core/lv_obj.c ****         _lv_obj_style_create_transition(obj, part_act, prev_state, new_state, &ts[i]);
 880:lvgl/lvgl/src/core/lv_obj.c ****     }
 881:lvgl/lvgl/src/core/lv_obj.c **** 
 882:lvgl/lvgl/src/core/lv_obj.c ****     lv_mem_buf_release(ts);
 883:lvgl/lvgl/src/core/lv_obj.c **** 
 884:lvgl/lvgl/src/core/lv_obj.c ****     if(cmp_res == _LV_STYLE_STATE_CMP_DIFF_REDRAW) {
 885:lvgl/lvgl/src/core/lv_obj.c ****         lv_obj_invalidate(obj);
ARM GAS  C:\Users\gx\AppData\Local\Temp\cccIVLs9.s 			page 17


 886:lvgl/lvgl/src/core/lv_obj.c ****     }
 887:lvgl/lvgl/src/core/lv_obj.c ****     else if(cmp_res == _LV_STYLE_STATE_CMP_DIFF_LAYOUT) {
 888:lvgl/lvgl/src/core/lv_obj.c ****         lv_obj_refresh_style(obj, LV_PART_ANY, LV_STYLE_PROP_ANY);
 889:lvgl/lvgl/src/core/lv_obj.c ****     }
 890:lvgl/lvgl/src/core/lv_obj.c ****     else if(cmp_res == _LV_STYLE_STATE_CMP_DIFF_DRAW_PAD) {
 891:lvgl/lvgl/src/core/lv_obj.c ****         lv_obj_invalidate(obj);
 892:lvgl/lvgl/src/core/lv_obj.c ****         lv_obj_refresh_ext_draw_size(obj);
 893:lvgl/lvgl/src/core/lv_obj.c ****     }
 894:lvgl/lvgl/src/core/lv_obj.c **** }
 895:lvgl/lvgl/src/core/lv_obj.c **** 
 896:lvgl/lvgl/src/core/lv_obj.c **** static bool obj_valid_child(const lv_obj_t * parent, const lv_obj_t * obj_to_find)
 897:lvgl/lvgl/src/core/lv_obj.c **** {
  29              		.loc 1 897 1 view -0
  30              		.cfi_startproc
  31              		@ args = 0, pretend = 0, frame = 0
  32              		@ frame_needed = 0, uses_anonymous_args = 0
  33              		.loc 1 897 1 is_stmt 0 view .LVU1
  34 0000 F8B5     		push	{r3, r4, r5, r6, r7, lr}
  35              	.LCFI0:
  36              		.cfi_def_cfa_offset 24
  37              		.cfi_offset 3, -24
  38              		.cfi_offset 4, -20
  39              		.cfi_offset 5, -16
  40              		.cfi_offset 6, -12
  41              		.cfi_offset 7, -8
  42              		.cfi_offset 14, -4
  43 0002 0646     		mov	r6, r0
  44 0004 0D46     		mov	r5, r1
 898:lvgl/lvgl/src/core/lv_obj.c ****     /*Check all children of `parent`*/
 899:lvgl/lvgl/src/core/lv_obj.c ****     uint32_t child_cnt = 0;
  45              		.loc 1 899 5 is_stmt 1 view .LVU2
  46              	.LVL1:
 900:lvgl/lvgl/src/core/lv_obj.c ****     if(parent->spec_attr) child_cnt = parent->spec_attr->child_cnt;
  47              		.loc 1 900 5 view .LVU3
  48              		.loc 1 900 14 is_stmt 0 view .LVU4
  49 0006 8368     		ldr	r3, [r0, #8]
  50              		.loc 1 900 7 view .LVU5
  51 0008 83B1     		cbz	r3, .L6
  52              		.loc 1 900 27 is_stmt 1 discriminator 1 view .LVU6
  53              		.loc 1 900 37 is_stmt 0 discriminator 1 view .LVU7
  54 000a 5F68     		ldr	r7, [r3, #4]
  55              	.LVL2:
  56              	.L2:
 901:lvgl/lvgl/src/core/lv_obj.c ****     uint32_t i;
  57              		.loc 1 901 5 is_stmt 1 view .LVU8
 902:lvgl/lvgl/src/core/lv_obj.c ****     for(i = 0; i < child_cnt; i++) {
  58              		.loc 1 902 5 view .LVU9
  59              		.loc 1 902 11 is_stmt 0 view .LVU10
  60 000c 0024     		movs	r4, #0
  61              	.LVL3:
  62              	.L3:
  63              		.loc 1 902 16 is_stmt 1 discriminator 1 view .LVU11
  64              		.loc 1 902 5 is_stmt 0 discriminator 1 view .LVU12
  65 000e A742     		cmp	r7, r4
  66 0010 0ED9     		bls	.L9
  67              	.LBB101:
 903:lvgl/lvgl/src/core/lv_obj.c ****         lv_obj_t * child = parent->spec_attr->children[i];
ARM GAS  C:\Users\gx\AppData\Local\Temp\cccIVLs9.s 			page 18


  68              		.loc 1 903 9 is_stmt 1 view .LVU13
  69              		.loc 1 903 34 is_stmt 0 view .LVU14
  70 0012 B368     		ldr	r3, [r6, #8]
  71              		.loc 1 903 45 view .LVU15
  72 0014 1B68     		ldr	r3, [r3]
  73              		.loc 1 903 20 view .LVU16
  74 0016 53F82400 		ldr	r0, [r3, r4, lsl #2]
  75              	.LVL4:
 904:lvgl/lvgl/src/core/lv_obj.c ****         if(child == obj_to_find) {
  76              		.loc 1 904 9 is_stmt 1 view .LVU17
  77              		.loc 1 904 11 is_stmt 0 view .LVU18
  78 001a A842     		cmp	r0, r5
  79 001c 0BD0     		beq	.L7
 905:lvgl/lvgl/src/core/lv_obj.c ****             return true;
 906:lvgl/lvgl/src/core/lv_obj.c ****         }
 907:lvgl/lvgl/src/core/lv_obj.c **** 
 908:lvgl/lvgl/src/core/lv_obj.c ****         /*Check the children*/
 909:lvgl/lvgl/src/core/lv_obj.c ****         bool found = obj_valid_child(child, obj_to_find);
  80              		.loc 1 909 9 is_stmt 1 view .LVU19
  81              		.loc 1 909 22 is_stmt 0 view .LVU20
  82 001e 2946     		mov	r1, r5
  83 0020 FFF7EEFF 		bl	obj_valid_child
  84              	.LVL5:
 910:lvgl/lvgl/src/core/lv_obj.c ****         if(found) {
  85              		.loc 1 910 9 is_stmt 1 view .LVU21
  86              		.loc 1 910 11 is_stmt 0 view .LVU22
  87 0024 0346     		mov	r3, r0
  88 0026 20B9     		cbnz	r0, .L4
  89              	.LBE101:
 902:lvgl/lvgl/src/core/lv_obj.c ****         lv_obj_t * child = parent->spec_attr->children[i];
  90              		.loc 1 902 31 is_stmt 1 discriminator 2 view .LVU23
 902:lvgl/lvgl/src/core/lv_obj.c ****         lv_obj_t * child = parent->spec_attr->children[i];
  91              		.loc 1 902 32 is_stmt 0 discriminator 2 view .LVU24
  92 0028 0134     		adds	r4, r4, #1
  93              	.LVL6:
 902:lvgl/lvgl/src/core/lv_obj.c ****         lv_obj_t * child = parent->spec_attr->children[i];
  94              		.loc 1 902 32 discriminator 2 view .LVU25
  95 002a F0E7     		b	.L3
  96              	.LVL7:
  97              	.L6:
 899:lvgl/lvgl/src/core/lv_obj.c ****     if(parent->spec_attr) child_cnt = parent->spec_attr->child_cnt;
  98              		.loc 1 899 14 view .LVU26
  99 002c 0027     		movs	r7, #0
 100 002e EDE7     		b	.L2
 101              	.LVL8:
 102              	.L9:
 911:lvgl/lvgl/src/core/lv_obj.c ****             return true;
 912:lvgl/lvgl/src/core/lv_obj.c ****         }
 913:lvgl/lvgl/src/core/lv_obj.c ****     }
 914:lvgl/lvgl/src/core/lv_obj.c ****     return false;
 103              		.loc 1 914 12 view .LVU27
 104 0030 0023     		movs	r3, #0
 105              	.L4:
 915:lvgl/lvgl/src/core/lv_obj.c **** }
 106              		.loc 1 915 1 view .LVU28
 107 0032 1846     		mov	r0, r3
 108 0034 F8BD     		pop	{r3, r4, r5, r6, r7, pc}
ARM GAS  C:\Users\gx\AppData\Local\Temp\cccIVLs9.s 			page 19


 109              	.LVL9:
 110              	.L7:
 111              	.LBB102:
 905:lvgl/lvgl/src/core/lv_obj.c ****         }
 112              		.loc 1 905 20 view .LVU29
 113 0036 0123     		movs	r3, #1
 114 0038 FBE7     		b	.L4
 115              	.LBE102:
 116              		.cfi_endproc
 117              	.LFE183:
 119              		.section	.text.scrollbar_init_draw_dsc,"ax",%progbits
 120              		.align	1
 121              		.syntax unified
 122              		.thumb
 123              		.thumb_func
 124              		.fpu fpv4-sp-d16
 126              	scrollbar_init_draw_dsc:
 127              	.LVL10:
 128              	.LFB180:
 620:lvgl/lvgl/src/core/lv_obj.c ****     lv_draw_rect_dsc_init(dsc);
 129              		.loc 1 620 1 is_stmt 1 view -0
 130              		.cfi_startproc
 131              		@ args = 0, pretend = 0, frame = 0
 132              		@ frame_needed = 0, uses_anonymous_args = 0
 620:lvgl/lvgl/src/core/lv_obj.c ****     lv_draw_rect_dsc_init(dsc);
 133              		.loc 1 620 1 is_stmt 0 view .LVU31
 134 0000 38B5     		push	{r3, r4, r5, lr}
 135              	.LCFI1:
 136              		.cfi_def_cfa_offset 16
 137              		.cfi_offset 3, -16
 138              		.cfi_offset 4, -12
 139              		.cfi_offset 5, -8
 140              		.cfi_offset 14, -4
 141 0002 0546     		mov	r5, r0
 142 0004 0C46     		mov	r4, r1
 621:lvgl/lvgl/src/core/lv_obj.c ****     dsc->bg_opa = lv_obj_get_style_bg_opa(obj, LV_PART_SCROLLBAR);
 143              		.loc 1 621 5 is_stmt 1 view .LVU32
 144 0006 0846     		mov	r0, r1
 145              	.LVL11:
 621:lvgl/lvgl/src/core/lv_obj.c ****     dsc->bg_opa = lv_obj_get_style_bg_opa(obj, LV_PART_SCROLLBAR);
 146              		.loc 1 621 5 is_stmt 0 view .LVU33
 147 0008 FFF7FEFF 		bl	lv_draw_rect_dsc_init
 148              	.LVL12:
 622:lvgl/lvgl/src/core/lv_obj.c ****     if(dsc->bg_opa > LV_OPA_MIN) {
 149              		.loc 1 622 5 is_stmt 1 view .LVU34
 150              	.LBB103:
 151              	.LBI103:
 152              		.file 2 "lvgl/lvgl/src/core/lv_obj_style_gen.h"
   1:lvgl/lvgl/src/core/lv_obj_style_gen.h **** static inline lv_coord_t lv_obj_get_style_width(const struct _lv_obj_t * obj, uint32_t part)
   2:lvgl/lvgl/src/core/lv_obj_style_gen.h **** {
   3:lvgl/lvgl/src/core/lv_obj_style_gen.h ****     lv_style_value_t v = lv_obj_get_style_prop(obj, part, LV_STYLE_WIDTH);
   4:lvgl/lvgl/src/core/lv_obj_style_gen.h ****     return (lv_coord_t)v.num;
   5:lvgl/lvgl/src/core/lv_obj_style_gen.h **** }
   6:lvgl/lvgl/src/core/lv_obj_style_gen.h **** 
   7:lvgl/lvgl/src/core/lv_obj_style_gen.h **** static inline lv_coord_t lv_obj_get_style_min_width(const struct _lv_obj_t * obj, uint32_t part)
   8:lvgl/lvgl/src/core/lv_obj_style_gen.h **** {
   9:lvgl/lvgl/src/core/lv_obj_style_gen.h ****     lv_style_value_t v = lv_obj_get_style_prop(obj, part, LV_STYLE_MIN_WIDTH);
ARM GAS  C:\Users\gx\AppData\Local\Temp\cccIVLs9.s 			page 20


  10:lvgl/lvgl/src/core/lv_obj_style_gen.h ****     return (lv_coord_t)v.num;
  11:lvgl/lvgl/src/core/lv_obj_style_gen.h **** }
  12:lvgl/lvgl/src/core/lv_obj_style_gen.h **** 
  13:lvgl/lvgl/src/core/lv_obj_style_gen.h **** static inline lv_coord_t lv_obj_get_style_max_width(const struct _lv_obj_t * obj, uint32_t part)
  14:lvgl/lvgl/src/core/lv_obj_style_gen.h **** {
  15:lvgl/lvgl/src/core/lv_obj_style_gen.h ****     lv_style_value_t v = lv_obj_get_style_prop(obj, part, LV_STYLE_MAX_WIDTH);
  16:lvgl/lvgl/src/core/lv_obj_style_gen.h ****     return (lv_coord_t)v.num;
  17:lvgl/lvgl/src/core/lv_obj_style_gen.h **** }
  18:lvgl/lvgl/src/core/lv_obj_style_gen.h **** 
  19:lvgl/lvgl/src/core/lv_obj_style_gen.h **** static inline lv_coord_t lv_obj_get_style_height(const struct _lv_obj_t * obj, uint32_t part)
  20:lvgl/lvgl/src/core/lv_obj_style_gen.h **** {
  21:lvgl/lvgl/src/core/lv_obj_style_gen.h ****     lv_style_value_t v = lv_obj_get_style_prop(obj, part, LV_STYLE_HEIGHT);
  22:lvgl/lvgl/src/core/lv_obj_style_gen.h ****     return (lv_coord_t)v.num;
  23:lvgl/lvgl/src/core/lv_obj_style_gen.h **** }
  24:lvgl/lvgl/src/core/lv_obj_style_gen.h **** 
  25:lvgl/lvgl/src/core/lv_obj_style_gen.h **** static inline lv_coord_t lv_obj_get_style_min_height(const struct _lv_obj_t * obj, uint32_t part)
  26:lvgl/lvgl/src/core/lv_obj_style_gen.h **** {
  27:lvgl/lvgl/src/core/lv_obj_style_gen.h ****     lv_style_value_t v = lv_obj_get_style_prop(obj, part, LV_STYLE_MIN_HEIGHT);
  28:lvgl/lvgl/src/core/lv_obj_style_gen.h ****     return (lv_coord_t)v.num;
  29:lvgl/lvgl/src/core/lv_obj_style_gen.h **** }
  30:lvgl/lvgl/src/core/lv_obj_style_gen.h **** 
  31:lvgl/lvgl/src/core/lv_obj_style_gen.h **** static inline lv_coord_t lv_obj_get_style_max_height(const struct _lv_obj_t * obj, uint32_t part)
  32:lvgl/lvgl/src/core/lv_obj_style_gen.h **** {
  33:lvgl/lvgl/src/core/lv_obj_style_gen.h ****     lv_style_value_t v = lv_obj_get_style_prop(obj, part, LV_STYLE_MAX_HEIGHT);
  34:lvgl/lvgl/src/core/lv_obj_style_gen.h ****     return (lv_coord_t)v.num;
  35:lvgl/lvgl/src/core/lv_obj_style_gen.h **** }
  36:lvgl/lvgl/src/core/lv_obj_style_gen.h **** 
  37:lvgl/lvgl/src/core/lv_obj_style_gen.h **** static inline lv_coord_t lv_obj_get_style_x(const struct _lv_obj_t * obj, uint32_t part)
  38:lvgl/lvgl/src/core/lv_obj_style_gen.h **** {
  39:lvgl/lvgl/src/core/lv_obj_style_gen.h ****     lv_style_value_t v = lv_obj_get_style_prop(obj, part, LV_STYLE_X);
  40:lvgl/lvgl/src/core/lv_obj_style_gen.h ****     return (lv_coord_t)v.num;
  41:lvgl/lvgl/src/core/lv_obj_style_gen.h **** }
  42:lvgl/lvgl/src/core/lv_obj_style_gen.h **** 
  43:lvgl/lvgl/src/core/lv_obj_style_gen.h **** static inline lv_coord_t lv_obj_get_style_y(const struct _lv_obj_t * obj, uint32_t part)
  44:lvgl/lvgl/src/core/lv_obj_style_gen.h **** {
  45:lvgl/lvgl/src/core/lv_obj_style_gen.h ****     lv_style_value_t v = lv_obj_get_style_prop(obj, part, LV_STYLE_Y);
  46:lvgl/lvgl/src/core/lv_obj_style_gen.h ****     return (lv_coord_t)v.num;
  47:lvgl/lvgl/src/core/lv_obj_style_gen.h **** }
  48:lvgl/lvgl/src/core/lv_obj_style_gen.h **** 
  49:lvgl/lvgl/src/core/lv_obj_style_gen.h **** static inline lv_align_t lv_obj_get_style_align(const struct _lv_obj_t * obj, uint32_t part)
  50:lvgl/lvgl/src/core/lv_obj_style_gen.h **** {
  51:lvgl/lvgl/src/core/lv_obj_style_gen.h ****     lv_style_value_t v = lv_obj_get_style_prop(obj, part, LV_STYLE_ALIGN);
  52:lvgl/lvgl/src/core/lv_obj_style_gen.h ****     return (lv_align_t)v.num;
  53:lvgl/lvgl/src/core/lv_obj_style_gen.h **** }
  54:lvgl/lvgl/src/core/lv_obj_style_gen.h **** 
  55:lvgl/lvgl/src/core/lv_obj_style_gen.h **** static inline lv_coord_t lv_obj_get_style_transform_width(const struct _lv_obj_t * obj, uint32_t pa
  56:lvgl/lvgl/src/core/lv_obj_style_gen.h **** {
  57:lvgl/lvgl/src/core/lv_obj_style_gen.h ****     lv_style_value_t v = lv_obj_get_style_prop(obj, part, LV_STYLE_TRANSFORM_WIDTH);
  58:lvgl/lvgl/src/core/lv_obj_style_gen.h ****     return (lv_coord_t)v.num;
  59:lvgl/lvgl/src/core/lv_obj_style_gen.h **** }
  60:lvgl/lvgl/src/core/lv_obj_style_gen.h **** 
  61:lvgl/lvgl/src/core/lv_obj_style_gen.h **** static inline lv_coord_t lv_obj_get_style_transform_height(const struct _lv_obj_t * obj, uint32_t p
  62:lvgl/lvgl/src/core/lv_obj_style_gen.h **** {
  63:lvgl/lvgl/src/core/lv_obj_style_gen.h ****     lv_style_value_t v = lv_obj_get_style_prop(obj, part, LV_STYLE_TRANSFORM_HEIGHT);
  64:lvgl/lvgl/src/core/lv_obj_style_gen.h ****     return (lv_coord_t)v.num;
  65:lvgl/lvgl/src/core/lv_obj_style_gen.h **** }
  66:lvgl/lvgl/src/core/lv_obj_style_gen.h **** 
ARM GAS  C:\Users\gx\AppData\Local\Temp\cccIVLs9.s 			page 21


  67:lvgl/lvgl/src/core/lv_obj_style_gen.h **** static inline lv_coord_t lv_obj_get_style_translate_x(const struct _lv_obj_t * obj, uint32_t part)
  68:lvgl/lvgl/src/core/lv_obj_style_gen.h **** {
  69:lvgl/lvgl/src/core/lv_obj_style_gen.h ****     lv_style_value_t v = lv_obj_get_style_prop(obj, part, LV_STYLE_TRANSLATE_X);
  70:lvgl/lvgl/src/core/lv_obj_style_gen.h ****     return (lv_coord_t)v.num;
  71:lvgl/lvgl/src/core/lv_obj_style_gen.h **** }
  72:lvgl/lvgl/src/core/lv_obj_style_gen.h **** 
  73:lvgl/lvgl/src/core/lv_obj_style_gen.h **** static inline lv_coord_t lv_obj_get_style_translate_y(const struct _lv_obj_t * obj, uint32_t part)
  74:lvgl/lvgl/src/core/lv_obj_style_gen.h **** {
  75:lvgl/lvgl/src/core/lv_obj_style_gen.h ****     lv_style_value_t v = lv_obj_get_style_prop(obj, part, LV_STYLE_TRANSLATE_Y);
  76:lvgl/lvgl/src/core/lv_obj_style_gen.h ****     return (lv_coord_t)v.num;
  77:lvgl/lvgl/src/core/lv_obj_style_gen.h **** }
  78:lvgl/lvgl/src/core/lv_obj_style_gen.h **** 
  79:lvgl/lvgl/src/core/lv_obj_style_gen.h **** static inline lv_coord_t lv_obj_get_style_transform_zoom(const struct _lv_obj_t * obj, uint32_t par
  80:lvgl/lvgl/src/core/lv_obj_style_gen.h **** {
  81:lvgl/lvgl/src/core/lv_obj_style_gen.h ****     lv_style_value_t v = lv_obj_get_style_prop(obj, part, LV_STYLE_TRANSFORM_ZOOM);
  82:lvgl/lvgl/src/core/lv_obj_style_gen.h ****     return (lv_coord_t)v.num;
  83:lvgl/lvgl/src/core/lv_obj_style_gen.h **** }
  84:lvgl/lvgl/src/core/lv_obj_style_gen.h **** 
  85:lvgl/lvgl/src/core/lv_obj_style_gen.h **** static inline lv_coord_t lv_obj_get_style_transform_angle(const struct _lv_obj_t * obj, uint32_t pa
  86:lvgl/lvgl/src/core/lv_obj_style_gen.h **** {
  87:lvgl/lvgl/src/core/lv_obj_style_gen.h ****     lv_style_value_t v = lv_obj_get_style_prop(obj, part, LV_STYLE_TRANSFORM_ANGLE);
  88:lvgl/lvgl/src/core/lv_obj_style_gen.h ****     return (lv_coord_t)v.num;
  89:lvgl/lvgl/src/core/lv_obj_style_gen.h **** }
  90:lvgl/lvgl/src/core/lv_obj_style_gen.h **** 
  91:lvgl/lvgl/src/core/lv_obj_style_gen.h **** static inline lv_coord_t lv_obj_get_style_pad_top(const struct _lv_obj_t * obj, uint32_t part)
  92:lvgl/lvgl/src/core/lv_obj_style_gen.h **** {
  93:lvgl/lvgl/src/core/lv_obj_style_gen.h ****     lv_style_value_t v = lv_obj_get_style_prop(obj, part, LV_STYLE_PAD_TOP);
  94:lvgl/lvgl/src/core/lv_obj_style_gen.h ****     return (lv_coord_t)v.num;
  95:lvgl/lvgl/src/core/lv_obj_style_gen.h **** }
  96:lvgl/lvgl/src/core/lv_obj_style_gen.h **** 
  97:lvgl/lvgl/src/core/lv_obj_style_gen.h **** static inline lv_coord_t lv_obj_get_style_pad_bottom(const struct _lv_obj_t * obj, uint32_t part)
  98:lvgl/lvgl/src/core/lv_obj_style_gen.h **** {
  99:lvgl/lvgl/src/core/lv_obj_style_gen.h ****     lv_style_value_t v = lv_obj_get_style_prop(obj, part, LV_STYLE_PAD_BOTTOM);
 100:lvgl/lvgl/src/core/lv_obj_style_gen.h ****     return (lv_coord_t)v.num;
 101:lvgl/lvgl/src/core/lv_obj_style_gen.h **** }
 102:lvgl/lvgl/src/core/lv_obj_style_gen.h **** 
 103:lvgl/lvgl/src/core/lv_obj_style_gen.h **** static inline lv_coord_t lv_obj_get_style_pad_left(const struct _lv_obj_t * obj, uint32_t part)
 104:lvgl/lvgl/src/core/lv_obj_style_gen.h **** {
 105:lvgl/lvgl/src/core/lv_obj_style_gen.h ****     lv_style_value_t v = lv_obj_get_style_prop(obj, part, LV_STYLE_PAD_LEFT);
 106:lvgl/lvgl/src/core/lv_obj_style_gen.h ****     return (lv_coord_t)v.num;
 107:lvgl/lvgl/src/core/lv_obj_style_gen.h **** }
 108:lvgl/lvgl/src/core/lv_obj_style_gen.h **** 
 109:lvgl/lvgl/src/core/lv_obj_style_gen.h **** static inline lv_coord_t lv_obj_get_style_pad_right(const struct _lv_obj_t * obj, uint32_t part)
 110:lvgl/lvgl/src/core/lv_obj_style_gen.h **** {
 111:lvgl/lvgl/src/core/lv_obj_style_gen.h ****     lv_style_value_t v = lv_obj_get_style_prop(obj, part, LV_STYLE_PAD_RIGHT);
 112:lvgl/lvgl/src/core/lv_obj_style_gen.h ****     return (lv_coord_t)v.num;
 113:lvgl/lvgl/src/core/lv_obj_style_gen.h **** }
 114:lvgl/lvgl/src/core/lv_obj_style_gen.h **** 
 115:lvgl/lvgl/src/core/lv_obj_style_gen.h **** static inline lv_coord_t lv_obj_get_style_pad_row(const struct _lv_obj_t * obj, uint32_t part)
 116:lvgl/lvgl/src/core/lv_obj_style_gen.h **** {
 117:lvgl/lvgl/src/core/lv_obj_style_gen.h ****     lv_style_value_t v = lv_obj_get_style_prop(obj, part, LV_STYLE_PAD_ROW);
 118:lvgl/lvgl/src/core/lv_obj_style_gen.h ****     return (lv_coord_t)v.num;
 119:lvgl/lvgl/src/core/lv_obj_style_gen.h **** }
 120:lvgl/lvgl/src/core/lv_obj_style_gen.h **** 
 121:lvgl/lvgl/src/core/lv_obj_style_gen.h **** static inline lv_coord_t lv_obj_get_style_pad_column(const struct _lv_obj_t * obj, uint32_t part)
 122:lvgl/lvgl/src/core/lv_obj_style_gen.h **** {
 123:lvgl/lvgl/src/core/lv_obj_style_gen.h ****     lv_style_value_t v = lv_obj_get_style_prop(obj, part, LV_STYLE_PAD_COLUMN);
ARM GAS  C:\Users\gx\AppData\Local\Temp\cccIVLs9.s 			page 22


 124:lvgl/lvgl/src/core/lv_obj_style_gen.h ****     return (lv_coord_t)v.num;
 125:lvgl/lvgl/src/core/lv_obj_style_gen.h **** }
 126:lvgl/lvgl/src/core/lv_obj_style_gen.h **** 
 127:lvgl/lvgl/src/core/lv_obj_style_gen.h **** static inline lv_coord_t lv_obj_get_style_radius(const struct _lv_obj_t * obj, uint32_t part)
 128:lvgl/lvgl/src/core/lv_obj_style_gen.h **** {
 129:lvgl/lvgl/src/core/lv_obj_style_gen.h ****     lv_style_value_t v = lv_obj_get_style_prop(obj, part, LV_STYLE_RADIUS);
 130:lvgl/lvgl/src/core/lv_obj_style_gen.h ****     return (lv_coord_t)v.num;
 131:lvgl/lvgl/src/core/lv_obj_style_gen.h **** }
 132:lvgl/lvgl/src/core/lv_obj_style_gen.h **** 
 133:lvgl/lvgl/src/core/lv_obj_style_gen.h **** static inline bool lv_obj_get_style_clip_corner(const struct _lv_obj_t * obj, uint32_t part)
 134:lvgl/lvgl/src/core/lv_obj_style_gen.h **** {
 135:lvgl/lvgl/src/core/lv_obj_style_gen.h ****     lv_style_value_t v = lv_obj_get_style_prop(obj, part, LV_STYLE_CLIP_CORNER);
 136:lvgl/lvgl/src/core/lv_obj_style_gen.h ****     return (bool)v.num;
 137:lvgl/lvgl/src/core/lv_obj_style_gen.h **** }
 138:lvgl/lvgl/src/core/lv_obj_style_gen.h **** 
 139:lvgl/lvgl/src/core/lv_obj_style_gen.h **** static inline lv_opa_t lv_obj_get_style_opa(const struct _lv_obj_t * obj, uint32_t part)
 140:lvgl/lvgl/src/core/lv_obj_style_gen.h **** {
 141:lvgl/lvgl/src/core/lv_obj_style_gen.h ****     lv_style_value_t v = lv_obj_get_style_prop(obj, part, LV_STYLE_OPA);
 142:lvgl/lvgl/src/core/lv_obj_style_gen.h ****     return (lv_opa_t)v.num;
 143:lvgl/lvgl/src/core/lv_obj_style_gen.h **** }
 144:lvgl/lvgl/src/core/lv_obj_style_gen.h **** 
 145:lvgl/lvgl/src/core/lv_obj_style_gen.h **** static inline const lv_color_filter_dsc_t * lv_obj_get_style_color_filter_dsc(const struct _lv_obj_
 146:lvgl/lvgl/src/core/lv_obj_style_gen.h **** {
 147:lvgl/lvgl/src/core/lv_obj_style_gen.h ****     lv_style_value_t v = lv_obj_get_style_prop(obj, part, LV_STYLE_COLOR_FILTER_DSC);
 148:lvgl/lvgl/src/core/lv_obj_style_gen.h ****     return (const lv_color_filter_dsc_t *)v.ptr;
 149:lvgl/lvgl/src/core/lv_obj_style_gen.h **** }
 150:lvgl/lvgl/src/core/lv_obj_style_gen.h **** 
 151:lvgl/lvgl/src/core/lv_obj_style_gen.h **** static inline lv_opa_t lv_obj_get_style_color_filter_opa(const struct _lv_obj_t * obj, uint32_t par
 152:lvgl/lvgl/src/core/lv_obj_style_gen.h **** {
 153:lvgl/lvgl/src/core/lv_obj_style_gen.h ****     lv_style_value_t v = lv_obj_get_style_prop(obj, part, LV_STYLE_COLOR_FILTER_OPA);
 154:lvgl/lvgl/src/core/lv_obj_style_gen.h ****     return (lv_opa_t)v.num;
 155:lvgl/lvgl/src/core/lv_obj_style_gen.h **** }
 156:lvgl/lvgl/src/core/lv_obj_style_gen.h **** 
 157:lvgl/lvgl/src/core/lv_obj_style_gen.h **** static inline uint32_t lv_obj_get_style_anim_time(const struct _lv_obj_t * obj, uint32_t part)
 158:lvgl/lvgl/src/core/lv_obj_style_gen.h **** {
 159:lvgl/lvgl/src/core/lv_obj_style_gen.h ****     lv_style_value_t v = lv_obj_get_style_prop(obj, part, LV_STYLE_ANIM_TIME);
 160:lvgl/lvgl/src/core/lv_obj_style_gen.h ****     return (uint32_t)v.num;
 161:lvgl/lvgl/src/core/lv_obj_style_gen.h **** }
 162:lvgl/lvgl/src/core/lv_obj_style_gen.h **** 
 163:lvgl/lvgl/src/core/lv_obj_style_gen.h **** static inline uint32_t lv_obj_get_style_anim_speed(const struct _lv_obj_t * obj, uint32_t part)
 164:lvgl/lvgl/src/core/lv_obj_style_gen.h **** {
 165:lvgl/lvgl/src/core/lv_obj_style_gen.h ****     lv_style_value_t v = lv_obj_get_style_prop(obj, part, LV_STYLE_ANIM_SPEED);
 166:lvgl/lvgl/src/core/lv_obj_style_gen.h ****     return (uint32_t)v.num;
 167:lvgl/lvgl/src/core/lv_obj_style_gen.h **** }
 168:lvgl/lvgl/src/core/lv_obj_style_gen.h **** 
 169:lvgl/lvgl/src/core/lv_obj_style_gen.h **** static inline const lv_style_transition_dsc_t * lv_obj_get_style_transition(const struct _lv_obj_t 
 170:lvgl/lvgl/src/core/lv_obj_style_gen.h **** {
 171:lvgl/lvgl/src/core/lv_obj_style_gen.h ****     lv_style_value_t v = lv_obj_get_style_prop(obj, part, LV_STYLE_TRANSITION);
 172:lvgl/lvgl/src/core/lv_obj_style_gen.h ****     return (const lv_style_transition_dsc_t *)v.ptr;
 173:lvgl/lvgl/src/core/lv_obj_style_gen.h **** }
 174:lvgl/lvgl/src/core/lv_obj_style_gen.h **** 
 175:lvgl/lvgl/src/core/lv_obj_style_gen.h **** static inline lv_blend_mode_t lv_obj_get_style_blend_mode(const struct _lv_obj_t * obj, uint32_t pa
 176:lvgl/lvgl/src/core/lv_obj_style_gen.h **** {
 177:lvgl/lvgl/src/core/lv_obj_style_gen.h ****     lv_style_value_t v = lv_obj_get_style_prop(obj, part, LV_STYLE_BLEND_MODE);
 178:lvgl/lvgl/src/core/lv_obj_style_gen.h ****     return (lv_blend_mode_t)v.num;
 179:lvgl/lvgl/src/core/lv_obj_style_gen.h **** }
 180:lvgl/lvgl/src/core/lv_obj_style_gen.h **** 
ARM GAS  C:\Users\gx\AppData\Local\Temp\cccIVLs9.s 			page 23


 181:lvgl/lvgl/src/core/lv_obj_style_gen.h **** static inline uint16_t lv_obj_get_style_layout(const struct _lv_obj_t * obj, uint32_t part)
 182:lvgl/lvgl/src/core/lv_obj_style_gen.h **** {
 183:lvgl/lvgl/src/core/lv_obj_style_gen.h ****     lv_style_value_t v = lv_obj_get_style_prop(obj, part, LV_STYLE_LAYOUT);
 184:lvgl/lvgl/src/core/lv_obj_style_gen.h ****     return (uint16_t)v.num;
 185:lvgl/lvgl/src/core/lv_obj_style_gen.h **** }
 186:lvgl/lvgl/src/core/lv_obj_style_gen.h **** 
 187:lvgl/lvgl/src/core/lv_obj_style_gen.h **** static inline lv_base_dir_t lv_obj_get_style_base_dir(const struct _lv_obj_t * obj, uint32_t part)
 188:lvgl/lvgl/src/core/lv_obj_style_gen.h **** {
 189:lvgl/lvgl/src/core/lv_obj_style_gen.h ****     lv_style_value_t v = lv_obj_get_style_prop(obj, part, LV_STYLE_BASE_DIR);
 190:lvgl/lvgl/src/core/lv_obj_style_gen.h ****     return (lv_base_dir_t)v.num;
 191:lvgl/lvgl/src/core/lv_obj_style_gen.h **** }
 192:lvgl/lvgl/src/core/lv_obj_style_gen.h **** 
 193:lvgl/lvgl/src/core/lv_obj_style_gen.h **** static inline lv_color_t lv_obj_get_style_bg_color(const struct _lv_obj_t * obj, uint32_t part)
 194:lvgl/lvgl/src/core/lv_obj_style_gen.h **** {
 195:lvgl/lvgl/src/core/lv_obj_style_gen.h ****     lv_style_value_t v = lv_obj_get_style_prop(obj, part, LV_STYLE_BG_COLOR);
 196:lvgl/lvgl/src/core/lv_obj_style_gen.h ****     return v.color;
 197:lvgl/lvgl/src/core/lv_obj_style_gen.h **** }
 198:lvgl/lvgl/src/core/lv_obj_style_gen.h **** 
 199:lvgl/lvgl/src/core/lv_obj_style_gen.h **** static inline lv_color_t lv_obj_get_style_bg_color_filtered(const struct _lv_obj_t * obj, uint32_t 
 200:lvgl/lvgl/src/core/lv_obj_style_gen.h **** {
 201:lvgl/lvgl/src/core/lv_obj_style_gen.h ****     lv_style_value_t v = lv_obj_get_style_prop(obj, part, LV_STYLE_BG_COLOR_FILTERED);
 202:lvgl/lvgl/src/core/lv_obj_style_gen.h ****     return v.color;
 203:lvgl/lvgl/src/core/lv_obj_style_gen.h **** }
 204:lvgl/lvgl/src/core/lv_obj_style_gen.h **** 
 205:lvgl/lvgl/src/core/lv_obj_style_gen.h **** static inline lv_opa_t lv_obj_get_style_bg_opa(const struct _lv_obj_t * obj, uint32_t part)
 153              		.loc 2 205 24 view .LVU35
 154              	.LBB104:
 206:lvgl/lvgl/src/core/lv_obj_style_gen.h **** {
 207:lvgl/lvgl/src/core/lv_obj_style_gen.h ****     lv_style_value_t v = lv_obj_get_style_prop(obj, part, LV_STYLE_BG_OPA);
 155              		.loc 2 207 5 view .LVU36
 156              		.loc 2 207 26 is_stmt 0 view .LVU37
 157 000c 2122     		movs	r2, #33
 158 000e 4FF48031 		mov	r1, #65536
 159 0012 2846     		mov	r0, r5
 160 0014 FFF7FEFF 		bl	lv_obj_get_style_prop
 161              	.LVL13:
 208:lvgl/lvgl/src/core/lv_obj_style_gen.h ****     return (lv_opa_t)v.num;
 162              		.loc 2 208 5 is_stmt 1 view .LVU38
 163              		.loc 2 208 12 is_stmt 0 view .LVU39
 164 0018 C0B2     		uxtb	r0, r0
 165              	.LVL14:
 166              		.loc 2 208 12 view .LVU40
 167              	.LBE104:
 168              	.LBE103:
 622:lvgl/lvgl/src/core/lv_obj.c ****     if(dsc->bg_opa > LV_OPA_MIN) {
 169              		.loc 1 622 17 view .LVU41
 170 001a A072     		strb	r0, [r4, #10]
 623:lvgl/lvgl/src/core/lv_obj.c ****         dsc->bg_color = lv_obj_get_style_bg_color(obj, LV_PART_SCROLLBAR);
 171              		.loc 1 623 5 is_stmt 1 view .LVU42
 623:lvgl/lvgl/src/core/lv_obj.c ****         dsc->bg_color = lv_obj_get_style_bg_color(obj, LV_PART_SCROLLBAR);
 172              		.loc 1 623 7 is_stmt 0 view .LVU43
 173 001c 0228     		cmp	r0, #2
 174 001e 3BD8     		bhi	.L20
 175              	.L11:
 627:lvgl/lvgl/src/core/lv_obj.c ****     if(dsc->border_opa > LV_OPA_MIN) {
 176              		.loc 1 627 5 is_stmt 1 view .LVU44
 177              	.LVL15:
ARM GAS  C:\Users\gx\AppData\Local\Temp\cccIVLs9.s 			page 24


 178              	.LBB105:
 179              	.LBI105:
 209:lvgl/lvgl/src/core/lv_obj_style_gen.h **** }
 210:lvgl/lvgl/src/core/lv_obj_style_gen.h **** 
 211:lvgl/lvgl/src/core/lv_obj_style_gen.h **** static inline lv_color_t lv_obj_get_style_bg_grad_color(const struct _lv_obj_t * obj, uint32_t part
 212:lvgl/lvgl/src/core/lv_obj_style_gen.h **** {
 213:lvgl/lvgl/src/core/lv_obj_style_gen.h ****     lv_style_value_t v = lv_obj_get_style_prop(obj, part, LV_STYLE_BG_GRAD_COLOR);
 214:lvgl/lvgl/src/core/lv_obj_style_gen.h ****     return v.color;
 215:lvgl/lvgl/src/core/lv_obj_style_gen.h **** }
 216:lvgl/lvgl/src/core/lv_obj_style_gen.h **** 
 217:lvgl/lvgl/src/core/lv_obj_style_gen.h **** static inline lv_color_t lv_obj_get_style_bg_grad_color_filtered(const struct _lv_obj_t * obj, uint
 218:lvgl/lvgl/src/core/lv_obj_style_gen.h **** {
 219:lvgl/lvgl/src/core/lv_obj_style_gen.h ****     lv_style_value_t v = lv_obj_get_style_prop(obj, part, LV_STYLE_BG_GRAD_COLOR_FILTERED);
 220:lvgl/lvgl/src/core/lv_obj_style_gen.h ****     return v.color;
 221:lvgl/lvgl/src/core/lv_obj_style_gen.h **** }
 222:lvgl/lvgl/src/core/lv_obj_style_gen.h **** 
 223:lvgl/lvgl/src/core/lv_obj_style_gen.h **** static inline lv_grad_dir_t lv_obj_get_style_bg_grad_dir(const struct _lv_obj_t * obj, uint32_t par
 224:lvgl/lvgl/src/core/lv_obj_style_gen.h **** {
 225:lvgl/lvgl/src/core/lv_obj_style_gen.h ****     lv_style_value_t v = lv_obj_get_style_prop(obj, part, LV_STYLE_BG_GRAD_DIR);
 226:lvgl/lvgl/src/core/lv_obj_style_gen.h ****     return (lv_grad_dir_t)v.num;
 227:lvgl/lvgl/src/core/lv_obj_style_gen.h **** }
 228:lvgl/lvgl/src/core/lv_obj_style_gen.h **** 
 229:lvgl/lvgl/src/core/lv_obj_style_gen.h **** static inline lv_coord_t lv_obj_get_style_bg_main_stop(const struct _lv_obj_t * obj, uint32_t part)
 230:lvgl/lvgl/src/core/lv_obj_style_gen.h **** {
 231:lvgl/lvgl/src/core/lv_obj_style_gen.h ****     lv_style_value_t v = lv_obj_get_style_prop(obj, part, LV_STYLE_BG_MAIN_STOP);
 232:lvgl/lvgl/src/core/lv_obj_style_gen.h ****     return (lv_coord_t)v.num;
 233:lvgl/lvgl/src/core/lv_obj_style_gen.h **** }
 234:lvgl/lvgl/src/core/lv_obj_style_gen.h **** 
 235:lvgl/lvgl/src/core/lv_obj_style_gen.h **** static inline lv_coord_t lv_obj_get_style_bg_grad_stop(const struct _lv_obj_t * obj, uint32_t part)
 236:lvgl/lvgl/src/core/lv_obj_style_gen.h **** {
 237:lvgl/lvgl/src/core/lv_obj_style_gen.h ****     lv_style_value_t v = lv_obj_get_style_prop(obj, part, LV_STYLE_BG_GRAD_STOP);
 238:lvgl/lvgl/src/core/lv_obj_style_gen.h ****     return (lv_coord_t)v.num;
 239:lvgl/lvgl/src/core/lv_obj_style_gen.h **** }
 240:lvgl/lvgl/src/core/lv_obj_style_gen.h **** 
 241:lvgl/lvgl/src/core/lv_obj_style_gen.h **** static inline const void * lv_obj_get_style_bg_img_src(const struct _lv_obj_t * obj, uint32_t part)
 242:lvgl/lvgl/src/core/lv_obj_style_gen.h **** {
 243:lvgl/lvgl/src/core/lv_obj_style_gen.h ****     lv_style_value_t v = lv_obj_get_style_prop(obj, part, LV_STYLE_BG_IMG_SRC);
 244:lvgl/lvgl/src/core/lv_obj_style_gen.h ****     return (const void *)v.ptr;
 245:lvgl/lvgl/src/core/lv_obj_style_gen.h **** }
 246:lvgl/lvgl/src/core/lv_obj_style_gen.h **** 
 247:lvgl/lvgl/src/core/lv_obj_style_gen.h **** static inline lv_opa_t lv_obj_get_style_bg_img_opa(const struct _lv_obj_t * obj, uint32_t part)
 248:lvgl/lvgl/src/core/lv_obj_style_gen.h **** {
 249:lvgl/lvgl/src/core/lv_obj_style_gen.h ****     lv_style_value_t v = lv_obj_get_style_prop(obj, part, LV_STYLE_BG_IMG_OPA);
 250:lvgl/lvgl/src/core/lv_obj_style_gen.h ****     return (lv_opa_t)v.num;
 251:lvgl/lvgl/src/core/lv_obj_style_gen.h **** }
 252:lvgl/lvgl/src/core/lv_obj_style_gen.h **** 
 253:lvgl/lvgl/src/core/lv_obj_style_gen.h **** static inline lv_color_t lv_obj_get_style_bg_img_recolor(const struct _lv_obj_t * obj, uint32_t par
 254:lvgl/lvgl/src/core/lv_obj_style_gen.h **** {
 255:lvgl/lvgl/src/core/lv_obj_style_gen.h ****     lv_style_value_t v = lv_obj_get_style_prop(obj, part, LV_STYLE_BG_IMG_RECOLOR);
 256:lvgl/lvgl/src/core/lv_obj_style_gen.h ****     return v.color;
 257:lvgl/lvgl/src/core/lv_obj_style_gen.h **** }
 258:lvgl/lvgl/src/core/lv_obj_style_gen.h **** 
 259:lvgl/lvgl/src/core/lv_obj_style_gen.h **** static inline lv_color_t lv_obj_get_style_bg_img_recolor_filtered(const struct _lv_obj_t * obj, uin
 260:lvgl/lvgl/src/core/lv_obj_style_gen.h **** {
 261:lvgl/lvgl/src/core/lv_obj_style_gen.h ****     lv_style_value_t v = lv_obj_get_style_prop(obj, part, LV_STYLE_BG_IMG_RECOLOR_FILTERED);
 262:lvgl/lvgl/src/core/lv_obj_style_gen.h ****     return v.color;
 263:lvgl/lvgl/src/core/lv_obj_style_gen.h **** }
ARM GAS  C:\Users\gx\AppData\Local\Temp\cccIVLs9.s 			page 25


 264:lvgl/lvgl/src/core/lv_obj_style_gen.h **** 
 265:lvgl/lvgl/src/core/lv_obj_style_gen.h **** static inline lv_opa_t lv_obj_get_style_bg_img_recolor_opa(const struct _lv_obj_t * obj, uint32_t p
 266:lvgl/lvgl/src/core/lv_obj_style_gen.h **** {
 267:lvgl/lvgl/src/core/lv_obj_style_gen.h ****     lv_style_value_t v = lv_obj_get_style_prop(obj, part, LV_STYLE_BG_IMG_RECOLOR_OPA);
 268:lvgl/lvgl/src/core/lv_obj_style_gen.h ****     return (lv_opa_t)v.num;
 269:lvgl/lvgl/src/core/lv_obj_style_gen.h **** }
 270:lvgl/lvgl/src/core/lv_obj_style_gen.h **** 
 271:lvgl/lvgl/src/core/lv_obj_style_gen.h **** static inline bool lv_obj_get_style_bg_img_tiled(const struct _lv_obj_t * obj, uint32_t part)
 272:lvgl/lvgl/src/core/lv_obj_style_gen.h **** {
 273:lvgl/lvgl/src/core/lv_obj_style_gen.h ****     lv_style_value_t v = lv_obj_get_style_prop(obj, part, LV_STYLE_BG_IMG_TILED);
 274:lvgl/lvgl/src/core/lv_obj_style_gen.h ****     return (bool)v.num;
 275:lvgl/lvgl/src/core/lv_obj_style_gen.h **** }
 276:lvgl/lvgl/src/core/lv_obj_style_gen.h **** 
 277:lvgl/lvgl/src/core/lv_obj_style_gen.h **** static inline lv_color_t lv_obj_get_style_border_color(const struct _lv_obj_t * obj, uint32_t part)
 278:lvgl/lvgl/src/core/lv_obj_style_gen.h **** {
 279:lvgl/lvgl/src/core/lv_obj_style_gen.h ****     lv_style_value_t v = lv_obj_get_style_prop(obj, part, LV_STYLE_BORDER_COLOR);
 280:lvgl/lvgl/src/core/lv_obj_style_gen.h ****     return v.color;
 281:lvgl/lvgl/src/core/lv_obj_style_gen.h **** }
 282:lvgl/lvgl/src/core/lv_obj_style_gen.h **** 
 283:lvgl/lvgl/src/core/lv_obj_style_gen.h **** static inline lv_color_t lv_obj_get_style_border_color_filtered(const struct _lv_obj_t * obj, uint3
 284:lvgl/lvgl/src/core/lv_obj_style_gen.h **** {
 285:lvgl/lvgl/src/core/lv_obj_style_gen.h ****     lv_style_value_t v = lv_obj_get_style_prop(obj, part, LV_STYLE_BORDER_COLOR_FILTERED);
 286:lvgl/lvgl/src/core/lv_obj_style_gen.h ****     return v.color;
 287:lvgl/lvgl/src/core/lv_obj_style_gen.h **** }
 288:lvgl/lvgl/src/core/lv_obj_style_gen.h **** 
 289:lvgl/lvgl/src/core/lv_obj_style_gen.h **** static inline lv_opa_t lv_obj_get_style_border_opa(const struct _lv_obj_t * obj, uint32_t part)
 180              		.loc 2 289 24 view .LVU45
 181              	.LBB106:
 290:lvgl/lvgl/src/core/lv_obj_style_gen.h **** {
 291:lvgl/lvgl/src/core/lv_obj_style_gen.h ****     lv_style_value_t v = lv_obj_get_style_prop(obj, part, LV_STYLE_BORDER_OPA);
 182              		.loc 2 291 5 view .LVU46
 183              		.loc 2 291 26 is_stmt 0 view .LVU47
 184 0020 3122     		movs	r2, #49
 185 0022 4FF48031 		mov	r1, #65536
 186 0026 2846     		mov	r0, r5
 187 0028 FFF7FEFF 		bl	lv_obj_get_style_prop
 188              	.LVL16:
 292:lvgl/lvgl/src/core/lv_obj_style_gen.h ****     return (lv_opa_t)v.num;
 189              		.loc 2 292 5 is_stmt 1 view .LVU48
 190              		.loc 2 292 12 is_stmt 0 view .LVU49
 191 002c C0B2     		uxtb	r0, r0
 192              	.LVL17:
 193              		.loc 2 292 12 view .LVU50
 194              	.LBE106:
 195              	.LBE105:
 627:lvgl/lvgl/src/core/lv_obj.c ****     if(dsc->border_opa > LV_OPA_MIN) {
 196              		.loc 1 627 21 view .LVU51
 197 002e A077     		strb	r0, [r4, #30]
 628:lvgl/lvgl/src/core/lv_obj.c ****         dsc->border_width = lv_obj_get_style_border_width(obj, LV_PART_SCROLLBAR);
 198              		.loc 1 628 5 is_stmt 1 view .LVU52
 628:lvgl/lvgl/src/core/lv_obj.c ****         dsc->border_width = lv_obj_get_style_border_width(obj, LV_PART_SCROLLBAR);
 199              		.loc 1 628 7 is_stmt 0 view .LVU53
 200 0030 0228     		cmp	r0, #2
 201 0032 39D8     		bhi	.L21
 202              	.L12:
 638:lvgl/lvgl/src/core/lv_obj.c ****     if(dsc->shadow_opa > LV_OPA_MIN) {
 203              		.loc 1 638 5 is_stmt 1 view .LVU54
ARM GAS  C:\Users\gx\AppData\Local\Temp\cccIVLs9.s 			page 26


 204              	.LVL18:
 205              	.LBB107:
 206              	.LBI107:
 293:lvgl/lvgl/src/core/lv_obj_style_gen.h **** }
 294:lvgl/lvgl/src/core/lv_obj_style_gen.h **** 
 295:lvgl/lvgl/src/core/lv_obj_style_gen.h **** static inline lv_coord_t lv_obj_get_style_border_width(const struct _lv_obj_t * obj, uint32_t part)
 296:lvgl/lvgl/src/core/lv_obj_style_gen.h **** {
 297:lvgl/lvgl/src/core/lv_obj_style_gen.h ****     lv_style_value_t v = lv_obj_get_style_prop(obj, part, LV_STYLE_BORDER_WIDTH);
 298:lvgl/lvgl/src/core/lv_obj_style_gen.h ****     return (lv_coord_t)v.num;
 299:lvgl/lvgl/src/core/lv_obj_style_gen.h **** }
 300:lvgl/lvgl/src/core/lv_obj_style_gen.h **** 
 301:lvgl/lvgl/src/core/lv_obj_style_gen.h **** static inline lv_border_side_t lv_obj_get_style_border_side(const struct _lv_obj_t * obj, uint32_t 
 302:lvgl/lvgl/src/core/lv_obj_style_gen.h **** {
 303:lvgl/lvgl/src/core/lv_obj_style_gen.h ****     lv_style_value_t v = lv_obj_get_style_prop(obj, part, LV_STYLE_BORDER_SIDE);
 304:lvgl/lvgl/src/core/lv_obj_style_gen.h ****     return (lv_border_side_t)v.num;
 305:lvgl/lvgl/src/core/lv_obj_style_gen.h **** }
 306:lvgl/lvgl/src/core/lv_obj_style_gen.h **** 
 307:lvgl/lvgl/src/core/lv_obj_style_gen.h **** static inline bool lv_obj_get_style_border_post(const struct _lv_obj_t * obj, uint32_t part)
 308:lvgl/lvgl/src/core/lv_obj_style_gen.h **** {
 309:lvgl/lvgl/src/core/lv_obj_style_gen.h ****     lv_style_value_t v = lv_obj_get_style_prop(obj, part, LV_STYLE_BORDER_POST);
 310:lvgl/lvgl/src/core/lv_obj_style_gen.h ****     return (bool)v.num;
 311:lvgl/lvgl/src/core/lv_obj_style_gen.h **** }
 312:lvgl/lvgl/src/core/lv_obj_style_gen.h **** 
 313:lvgl/lvgl/src/core/lv_obj_style_gen.h **** static inline lv_color_t lv_obj_get_style_text_color(const struct _lv_obj_t * obj, uint32_t part)
 314:lvgl/lvgl/src/core/lv_obj_style_gen.h **** {
 315:lvgl/lvgl/src/core/lv_obj_style_gen.h ****     lv_style_value_t v = lv_obj_get_style_prop(obj, part, LV_STYLE_TEXT_COLOR);
 316:lvgl/lvgl/src/core/lv_obj_style_gen.h ****     return v.color;
 317:lvgl/lvgl/src/core/lv_obj_style_gen.h **** }
 318:lvgl/lvgl/src/core/lv_obj_style_gen.h **** 
 319:lvgl/lvgl/src/core/lv_obj_style_gen.h **** static inline lv_color_t lv_obj_get_style_text_color_filtered(const struct _lv_obj_t * obj, uint32_
 320:lvgl/lvgl/src/core/lv_obj_style_gen.h **** {
 321:lvgl/lvgl/src/core/lv_obj_style_gen.h ****     lv_style_value_t v = lv_obj_get_style_prop(obj, part, LV_STYLE_TEXT_COLOR_FILTERED);
 322:lvgl/lvgl/src/core/lv_obj_style_gen.h ****     return v.color;
 323:lvgl/lvgl/src/core/lv_obj_style_gen.h **** }
 324:lvgl/lvgl/src/core/lv_obj_style_gen.h **** 
 325:lvgl/lvgl/src/core/lv_obj_style_gen.h **** static inline lv_opa_t lv_obj_get_style_text_opa(const struct _lv_obj_t * obj, uint32_t part)
 326:lvgl/lvgl/src/core/lv_obj_style_gen.h **** {
 327:lvgl/lvgl/src/core/lv_obj_style_gen.h ****     lv_style_value_t v = lv_obj_get_style_prop(obj, part, LV_STYLE_TEXT_OPA);
 328:lvgl/lvgl/src/core/lv_obj_style_gen.h ****     return (lv_opa_t)v.num;
 329:lvgl/lvgl/src/core/lv_obj_style_gen.h **** }
 330:lvgl/lvgl/src/core/lv_obj_style_gen.h **** 
 331:lvgl/lvgl/src/core/lv_obj_style_gen.h **** static inline const lv_font_t * lv_obj_get_style_text_font(const struct _lv_obj_t * obj, uint32_t p
 332:lvgl/lvgl/src/core/lv_obj_style_gen.h **** {
 333:lvgl/lvgl/src/core/lv_obj_style_gen.h ****     lv_style_value_t v = lv_obj_get_style_prop(obj, part, LV_STYLE_TEXT_FONT);
 334:lvgl/lvgl/src/core/lv_obj_style_gen.h ****     return (const lv_font_t *)v.ptr;
 335:lvgl/lvgl/src/core/lv_obj_style_gen.h **** }
 336:lvgl/lvgl/src/core/lv_obj_style_gen.h **** 
 337:lvgl/lvgl/src/core/lv_obj_style_gen.h **** static inline lv_coord_t lv_obj_get_style_text_letter_space(const struct _lv_obj_t * obj, uint32_t 
 338:lvgl/lvgl/src/core/lv_obj_style_gen.h **** {
 339:lvgl/lvgl/src/core/lv_obj_style_gen.h ****     lv_style_value_t v = lv_obj_get_style_prop(obj, part, LV_STYLE_TEXT_LETTER_SPACE);
 340:lvgl/lvgl/src/core/lv_obj_style_gen.h ****     return (lv_coord_t)v.num;
 341:lvgl/lvgl/src/core/lv_obj_style_gen.h **** }
 342:lvgl/lvgl/src/core/lv_obj_style_gen.h **** 
 343:lvgl/lvgl/src/core/lv_obj_style_gen.h **** static inline lv_coord_t lv_obj_get_style_text_line_space(const struct _lv_obj_t * obj, uint32_t pa
 344:lvgl/lvgl/src/core/lv_obj_style_gen.h **** {
 345:lvgl/lvgl/src/core/lv_obj_style_gen.h ****     lv_style_value_t v = lv_obj_get_style_prop(obj, part, LV_STYLE_TEXT_LINE_SPACE);
 346:lvgl/lvgl/src/core/lv_obj_style_gen.h ****     return (lv_coord_t)v.num;
ARM GAS  C:\Users\gx\AppData\Local\Temp\cccIVLs9.s 			page 27


 347:lvgl/lvgl/src/core/lv_obj_style_gen.h **** }
 348:lvgl/lvgl/src/core/lv_obj_style_gen.h **** 
 349:lvgl/lvgl/src/core/lv_obj_style_gen.h **** static inline lv_text_decor_t lv_obj_get_style_text_decor(const struct _lv_obj_t * obj, uint32_t pa
 350:lvgl/lvgl/src/core/lv_obj_style_gen.h **** {
 351:lvgl/lvgl/src/core/lv_obj_style_gen.h ****     lv_style_value_t v = lv_obj_get_style_prop(obj, part, LV_STYLE_TEXT_DECOR);
 352:lvgl/lvgl/src/core/lv_obj_style_gen.h ****     return (lv_text_decor_t)v.num;
 353:lvgl/lvgl/src/core/lv_obj_style_gen.h **** }
 354:lvgl/lvgl/src/core/lv_obj_style_gen.h **** 
 355:lvgl/lvgl/src/core/lv_obj_style_gen.h **** static inline lv_text_align_t lv_obj_get_style_text_align(const struct _lv_obj_t * obj, uint32_t pa
 356:lvgl/lvgl/src/core/lv_obj_style_gen.h **** {
 357:lvgl/lvgl/src/core/lv_obj_style_gen.h ****     lv_style_value_t v = lv_obj_get_style_prop(obj, part, LV_STYLE_TEXT_ALIGN);
 358:lvgl/lvgl/src/core/lv_obj_style_gen.h ****     return (lv_text_align_t)v.num;
 359:lvgl/lvgl/src/core/lv_obj_style_gen.h **** }
 360:lvgl/lvgl/src/core/lv_obj_style_gen.h **** 
 361:lvgl/lvgl/src/core/lv_obj_style_gen.h **** static inline lv_opa_t lv_obj_get_style_img_opa(const struct _lv_obj_t * obj, uint32_t part)
 362:lvgl/lvgl/src/core/lv_obj_style_gen.h **** {
 363:lvgl/lvgl/src/core/lv_obj_style_gen.h ****     lv_style_value_t v = lv_obj_get_style_prop(obj, part, LV_STYLE_IMG_OPA);
 364:lvgl/lvgl/src/core/lv_obj_style_gen.h ****     return (lv_opa_t)v.num;
 365:lvgl/lvgl/src/core/lv_obj_style_gen.h **** }
 366:lvgl/lvgl/src/core/lv_obj_style_gen.h **** 
 367:lvgl/lvgl/src/core/lv_obj_style_gen.h **** static inline lv_color_t lv_obj_get_style_img_recolor(const struct _lv_obj_t * obj, uint32_t part)
 368:lvgl/lvgl/src/core/lv_obj_style_gen.h **** {
 369:lvgl/lvgl/src/core/lv_obj_style_gen.h ****     lv_style_value_t v = lv_obj_get_style_prop(obj, part, LV_STYLE_IMG_RECOLOR);
 370:lvgl/lvgl/src/core/lv_obj_style_gen.h ****     return v.color;
 371:lvgl/lvgl/src/core/lv_obj_style_gen.h **** }
 372:lvgl/lvgl/src/core/lv_obj_style_gen.h **** 
 373:lvgl/lvgl/src/core/lv_obj_style_gen.h **** static inline lv_color_t lv_obj_get_style_img_recolor_filtered(const struct _lv_obj_t * obj, uint32
 374:lvgl/lvgl/src/core/lv_obj_style_gen.h **** {
 375:lvgl/lvgl/src/core/lv_obj_style_gen.h ****     lv_style_value_t v = lv_obj_get_style_prop(obj, part, LV_STYLE_IMG_RECOLOR_FILTERED);
 376:lvgl/lvgl/src/core/lv_obj_style_gen.h ****     return v.color;
 377:lvgl/lvgl/src/core/lv_obj_style_gen.h **** }
 378:lvgl/lvgl/src/core/lv_obj_style_gen.h **** 
 379:lvgl/lvgl/src/core/lv_obj_style_gen.h **** static inline lv_opa_t lv_obj_get_style_img_recolor_opa(const struct _lv_obj_t * obj, uint32_t part
 380:lvgl/lvgl/src/core/lv_obj_style_gen.h **** {
 381:lvgl/lvgl/src/core/lv_obj_style_gen.h ****     lv_style_value_t v = lv_obj_get_style_prop(obj, part, LV_STYLE_IMG_RECOLOR_OPA);
 382:lvgl/lvgl/src/core/lv_obj_style_gen.h ****     return (lv_opa_t)v.num;
 383:lvgl/lvgl/src/core/lv_obj_style_gen.h **** }
 384:lvgl/lvgl/src/core/lv_obj_style_gen.h **** 
 385:lvgl/lvgl/src/core/lv_obj_style_gen.h **** static inline lv_coord_t lv_obj_get_style_outline_width(const struct _lv_obj_t * obj, uint32_t part
 386:lvgl/lvgl/src/core/lv_obj_style_gen.h **** {
 387:lvgl/lvgl/src/core/lv_obj_style_gen.h ****     lv_style_value_t v = lv_obj_get_style_prop(obj, part, LV_STYLE_OUTLINE_WIDTH);
 388:lvgl/lvgl/src/core/lv_obj_style_gen.h ****     return (lv_coord_t)v.num;
 389:lvgl/lvgl/src/core/lv_obj_style_gen.h **** }
 390:lvgl/lvgl/src/core/lv_obj_style_gen.h **** 
 391:lvgl/lvgl/src/core/lv_obj_style_gen.h **** static inline lv_color_t lv_obj_get_style_outline_color(const struct _lv_obj_t * obj, uint32_t part
 392:lvgl/lvgl/src/core/lv_obj_style_gen.h **** {
 393:lvgl/lvgl/src/core/lv_obj_style_gen.h ****     lv_style_value_t v = lv_obj_get_style_prop(obj, part, LV_STYLE_OUTLINE_COLOR);
 394:lvgl/lvgl/src/core/lv_obj_style_gen.h ****     return v.color;
 395:lvgl/lvgl/src/core/lv_obj_style_gen.h **** }
 396:lvgl/lvgl/src/core/lv_obj_style_gen.h **** 
 397:lvgl/lvgl/src/core/lv_obj_style_gen.h **** static inline lv_color_t lv_obj_get_style_outline_color_filtered(const struct _lv_obj_t * obj, uint
 398:lvgl/lvgl/src/core/lv_obj_style_gen.h **** {
 399:lvgl/lvgl/src/core/lv_obj_style_gen.h ****     lv_style_value_t v = lv_obj_get_style_prop(obj, part, LV_STYLE_OUTLINE_COLOR_FILTERED);
 400:lvgl/lvgl/src/core/lv_obj_style_gen.h ****     return v.color;
 401:lvgl/lvgl/src/core/lv_obj_style_gen.h **** }
 402:lvgl/lvgl/src/core/lv_obj_style_gen.h **** 
 403:lvgl/lvgl/src/core/lv_obj_style_gen.h **** static inline lv_opa_t lv_obj_get_style_outline_opa(const struct _lv_obj_t * obj, uint32_t part)
ARM GAS  C:\Users\gx\AppData\Local\Temp\cccIVLs9.s 			page 28


 404:lvgl/lvgl/src/core/lv_obj_style_gen.h **** {
 405:lvgl/lvgl/src/core/lv_obj_style_gen.h ****     lv_style_value_t v = lv_obj_get_style_prop(obj, part, LV_STYLE_OUTLINE_OPA);
 406:lvgl/lvgl/src/core/lv_obj_style_gen.h ****     return (lv_opa_t)v.num;
 407:lvgl/lvgl/src/core/lv_obj_style_gen.h **** }
 408:lvgl/lvgl/src/core/lv_obj_style_gen.h **** 
 409:lvgl/lvgl/src/core/lv_obj_style_gen.h **** static inline lv_coord_t lv_obj_get_style_outline_pad(const struct _lv_obj_t * obj, uint32_t part)
 410:lvgl/lvgl/src/core/lv_obj_style_gen.h **** {
 411:lvgl/lvgl/src/core/lv_obj_style_gen.h ****     lv_style_value_t v = lv_obj_get_style_prop(obj, part, LV_STYLE_OUTLINE_PAD);
 412:lvgl/lvgl/src/core/lv_obj_style_gen.h ****     return (lv_coord_t)v.num;
 413:lvgl/lvgl/src/core/lv_obj_style_gen.h **** }
 414:lvgl/lvgl/src/core/lv_obj_style_gen.h **** 
 415:lvgl/lvgl/src/core/lv_obj_style_gen.h **** static inline lv_coord_t lv_obj_get_style_shadow_width(const struct _lv_obj_t * obj, uint32_t part)
 416:lvgl/lvgl/src/core/lv_obj_style_gen.h **** {
 417:lvgl/lvgl/src/core/lv_obj_style_gen.h ****     lv_style_value_t v = lv_obj_get_style_prop(obj, part, LV_STYLE_SHADOW_WIDTH);
 418:lvgl/lvgl/src/core/lv_obj_style_gen.h ****     return (lv_coord_t)v.num;
 419:lvgl/lvgl/src/core/lv_obj_style_gen.h **** }
 420:lvgl/lvgl/src/core/lv_obj_style_gen.h **** 
 421:lvgl/lvgl/src/core/lv_obj_style_gen.h **** static inline lv_coord_t lv_obj_get_style_shadow_ofs_x(const struct _lv_obj_t * obj, uint32_t part)
 422:lvgl/lvgl/src/core/lv_obj_style_gen.h **** {
 423:lvgl/lvgl/src/core/lv_obj_style_gen.h ****     lv_style_value_t v = lv_obj_get_style_prop(obj, part, LV_STYLE_SHADOW_OFS_X);
 424:lvgl/lvgl/src/core/lv_obj_style_gen.h ****     return (lv_coord_t)v.num;
 425:lvgl/lvgl/src/core/lv_obj_style_gen.h **** }
 426:lvgl/lvgl/src/core/lv_obj_style_gen.h **** 
 427:lvgl/lvgl/src/core/lv_obj_style_gen.h **** static inline lv_coord_t lv_obj_get_style_shadow_ofs_y(const struct _lv_obj_t * obj, uint32_t part)
 428:lvgl/lvgl/src/core/lv_obj_style_gen.h **** {
 429:lvgl/lvgl/src/core/lv_obj_style_gen.h ****     lv_style_value_t v = lv_obj_get_style_prop(obj, part, LV_STYLE_SHADOW_OFS_Y);
 430:lvgl/lvgl/src/core/lv_obj_style_gen.h ****     return (lv_coord_t)v.num;
 431:lvgl/lvgl/src/core/lv_obj_style_gen.h **** }
 432:lvgl/lvgl/src/core/lv_obj_style_gen.h **** 
 433:lvgl/lvgl/src/core/lv_obj_style_gen.h **** static inline lv_coord_t lv_obj_get_style_shadow_spread(const struct _lv_obj_t * obj, uint32_t part
 434:lvgl/lvgl/src/core/lv_obj_style_gen.h **** {
 435:lvgl/lvgl/src/core/lv_obj_style_gen.h ****     lv_style_value_t v = lv_obj_get_style_prop(obj, part, LV_STYLE_SHADOW_SPREAD);
 436:lvgl/lvgl/src/core/lv_obj_style_gen.h ****     return (lv_coord_t)v.num;
 437:lvgl/lvgl/src/core/lv_obj_style_gen.h **** }
 438:lvgl/lvgl/src/core/lv_obj_style_gen.h **** 
 439:lvgl/lvgl/src/core/lv_obj_style_gen.h **** static inline lv_color_t lv_obj_get_style_shadow_color(const struct _lv_obj_t * obj, uint32_t part)
 440:lvgl/lvgl/src/core/lv_obj_style_gen.h **** {
 441:lvgl/lvgl/src/core/lv_obj_style_gen.h ****     lv_style_value_t v = lv_obj_get_style_prop(obj, part, LV_STYLE_SHADOW_COLOR);
 442:lvgl/lvgl/src/core/lv_obj_style_gen.h ****     return v.color;
 443:lvgl/lvgl/src/core/lv_obj_style_gen.h **** }
 444:lvgl/lvgl/src/core/lv_obj_style_gen.h **** 
 445:lvgl/lvgl/src/core/lv_obj_style_gen.h **** static inline lv_color_t lv_obj_get_style_shadow_color_filtered(const struct _lv_obj_t * obj, uint3
 446:lvgl/lvgl/src/core/lv_obj_style_gen.h **** {
 447:lvgl/lvgl/src/core/lv_obj_style_gen.h ****     lv_style_value_t v = lv_obj_get_style_prop(obj, part, LV_STYLE_SHADOW_COLOR_FILTERED);
 448:lvgl/lvgl/src/core/lv_obj_style_gen.h ****     return v.color;
 449:lvgl/lvgl/src/core/lv_obj_style_gen.h **** }
 450:lvgl/lvgl/src/core/lv_obj_style_gen.h **** 
 451:lvgl/lvgl/src/core/lv_obj_style_gen.h **** static inline lv_opa_t lv_obj_get_style_shadow_opa(const struct _lv_obj_t * obj, uint32_t part)
 207              		.loc 2 451 24 view .LVU55
 208              	.LBB108:
 452:lvgl/lvgl/src/core/lv_obj_style_gen.h **** {
 453:lvgl/lvgl/src/core/lv_obj_style_gen.h ****     lv_style_value_t v = lv_obj_get_style_prop(obj, part, LV_STYLE_SHADOW_OPA);
 209              		.loc 2 453 5 view .LVU56
 210              		.loc 2 453 26 is_stmt 0 view .LVU57
 211 0034 40F64502 		movw	r2, #2117
 212 0038 4FF48031 		mov	r1, #65536
 213 003c 2846     		mov	r0, r5
ARM GAS  C:\Users\gx\AppData\Local\Temp\cccIVLs9.s 			page 29


 214 003e FFF7FEFF 		bl	lv_obj_get_style_prop
 215              	.LVL19:
 454:lvgl/lvgl/src/core/lv_obj_style_gen.h ****     return (lv_opa_t)v.num;
 216              		.loc 2 454 5 is_stmt 1 view .LVU58
 217              		.loc 2 454 12 is_stmt 0 view .LVU59
 218 0042 C0B2     		uxtb	r0, r0
 219              	.LVL20:
 220              		.loc 2 454 12 view .LVU60
 221              	.LBE108:
 222              	.LBE107:
 638:lvgl/lvgl/src/core/lv_obj.c ****     if(dsc->shadow_opa > LV_OPA_MIN) {
 223              		.loc 1 638 21 view .LVU61
 224 0044 84F83200 		strb	r0, [r4, #50]
 639:lvgl/lvgl/src/core/lv_obj.c ****         dsc->shadow_width = lv_obj_get_style_shadow_width(obj, LV_PART_SCROLLBAR);
 225              		.loc 1 639 5 is_stmt 1 view .LVU62
 639:lvgl/lvgl/src/core/lv_obj.c ****         dsc->shadow_width = lv_obj_get_style_shadow_width(obj, LV_PART_SCROLLBAR);
 226              		.loc 1 639 7 is_stmt 0 view .LVU63
 227 0048 0228     		cmp	r0, #2
 228 004a 43D8     		bhi	.L22
 229              	.L14:
 649:lvgl/lvgl/src/core/lv_obj.c ****     if(opa < LV_OPA_MAX) {
 230              		.loc 1 649 5 is_stmt 1 view .LVU64
 231              	.LVL21:
 232              	.LBB109:
 233              	.LBI109:
 139:lvgl/lvgl/src/core/lv_obj_style_gen.h **** {
 234              		.loc 2 139 24 view .LVU65
 235              	.LBB110:
 141:lvgl/lvgl/src/core/lv_obj_style_gen.h ****     return (lv_opa_t)v.num;
 236              		.loc 2 141 5 view .LVU66
 141:lvgl/lvgl/src/core/lv_obj_style_gen.h ****     return (lv_opa_t)v.num;
 237              		.loc 2 141 26 is_stmt 0 view .LVU67
 238 004c 40F26242 		movw	r2, #1122
 239 0050 4FF48031 		mov	r1, #65536
 240 0054 2846     		mov	r0, r5
 241 0056 FFF7FEFF 		bl	lv_obj_get_style_prop
 242              	.LVL22:
 142:lvgl/lvgl/src/core/lv_obj_style_gen.h **** }
 243              		.loc 2 142 5 is_stmt 1 view .LVU68
 142:lvgl/lvgl/src/core/lv_obj_style_gen.h **** }
 244              		.loc 2 142 12 is_stmt 0 view .LVU69
 245 005a C3B2     		uxtb	r3, r0
 246              	.LVL23:
 142:lvgl/lvgl/src/core/lv_obj_style_gen.h **** }
 247              		.loc 2 142 12 view .LVU70
 248              	.LBE110:
 249              	.LBE109:
 650:lvgl/lvgl/src/core/lv_obj.c ****         dsc->bg_opa = (dsc->bg_opa * opa) >> 8;
 250              		.loc 1 650 5 is_stmt 1 view .LVU71
 650:lvgl/lvgl/src/core/lv_obj.c ****         dsc->bg_opa = (dsc->bg_opa * opa) >> 8;
 251              		.loc 1 650 7 is_stmt 0 view .LVU72
 252 005c FC2B     		cmp	r3, #252
 253 005e 0BD8     		bhi	.L16
 651:lvgl/lvgl/src/core/lv_obj.c ****         dsc->border_opa = (dsc->bg_opa * opa) >> 8;
 254              		.loc 1 651 9 is_stmt 1 view .LVU73
 651:lvgl/lvgl/src/core/lv_obj.c ****         dsc->border_opa = (dsc->bg_opa * opa) >> 8;
 255              		.loc 1 651 27 is_stmt 0 view .LVU74
ARM GAS  C:\Users\gx\AppData\Local\Temp\cccIVLs9.s 			page 30


 256 0060 A37A     		ldrb	r3, [r4, #10]	@ zero_extendqisi2
 257              	.LVL24:
 651:lvgl/lvgl/src/core/lv_obj.c ****         dsc->border_opa = (dsc->bg_opa * opa) >> 8;
 258              		.loc 1 651 27 view .LVU75
 259 0062 C0B2     		uxtb	r0, r0
 651:lvgl/lvgl/src/core/lv_obj.c ****         dsc->border_opa = (dsc->bg_opa * opa) >> 8;
 260              		.loc 1 651 36 view .LVU76
 261 0064 00FB03F3 		mul	r3, r0, r3
 651:lvgl/lvgl/src/core/lv_obj.c ****         dsc->border_opa = (dsc->bg_opa * opa) >> 8;
 262              		.loc 1 651 21 view .LVU77
 263 0068 1B0A     		lsrs	r3, r3, #8
 264 006a A372     		strb	r3, [r4, #10]
 652:lvgl/lvgl/src/core/lv_obj.c ****         dsc->shadow_opa = (dsc->bg_opa * opa) >> 8;
 265              		.loc 1 652 9 is_stmt 1 view .LVU78
 652:lvgl/lvgl/src/core/lv_obj.c ****         dsc->shadow_opa = (dsc->bg_opa * opa) >> 8;
 266              		.loc 1 652 40 is_stmt 0 view .LVU79
 267 006c 00FB03F0 		mul	r0, r0, r3
 268              	.LVL25:
 652:lvgl/lvgl/src/core/lv_obj.c ****         dsc->shadow_opa = (dsc->bg_opa * opa) >> 8;
 269              		.loc 1 652 25 view .LVU80
 270 0070 000A     		lsrs	r0, r0, #8
 271 0072 A077     		strb	r0, [r4, #30]
 653:lvgl/lvgl/src/core/lv_obj.c ****     }
 272              		.loc 1 653 9 is_stmt 1 view .LVU81
 653:lvgl/lvgl/src/core/lv_obj.c ****     }
 273              		.loc 1 653 25 is_stmt 0 view .LVU82
 274 0074 84F83200 		strb	r0, [r4, #50]
 275              	.L16:
 656:lvgl/lvgl/src/core/lv_obj.c ****         dsc->radius = lv_obj_get_style_radius(obj, LV_PART_SCROLLBAR);
 276              		.loc 1 656 5 is_stmt 1 view .LVU83
 656:lvgl/lvgl/src/core/lv_obj.c ****         dsc->radius = lv_obj_get_style_radius(obj, LV_PART_SCROLLBAR);
 277              		.loc 1 656 11 is_stmt 0 view .LVU84
 278 0078 A37A     		ldrb	r3, [r4, #10]	@ zero_extendqisi2
 656:lvgl/lvgl/src/core/lv_obj.c ****         dsc->radius = lv_obj_get_style_radius(obj, LV_PART_SCROLLBAR);
 279              		.loc 1 656 7 view .LVU85
 280 007a 23B9     		cbnz	r3, .L17
 656:lvgl/lvgl/src/core/lv_obj.c ****         dsc->radius = lv_obj_get_style_radius(obj, LV_PART_SCROLLBAR);
 281              		.loc 1 656 43 discriminator 1 view .LVU86
 282 007c A37F     		ldrb	r3, [r4, #30]	@ zero_extendqisi2
 656:lvgl/lvgl/src/core/lv_obj.c ****         dsc->radius = lv_obj_get_style_radius(obj, LV_PART_SCROLLBAR);
 283              		.loc 1 656 37 discriminator 1 view .LVU87
 284 007e 13B9     		cbnz	r3, .L17
 656:lvgl/lvgl/src/core/lv_obj.c ****         dsc->radius = lv_obj_get_style_radius(obj, LV_PART_SCROLLBAR);
 285              		.loc 1 656 79 discriminator 2 view .LVU88
 286 0080 94F83200 		ldrb	r0, [r4, #50]	@ zero_extendqisi2
 656:lvgl/lvgl/src/core/lv_obj.c ****         dsc->radius = lv_obj_get_style_radius(obj, LV_PART_SCROLLBAR);
 287              		.loc 1 656 73 discriminator 2 view .LVU89
 288 0084 38B1     		cbz	r0, .L18
 289              	.L17:
 657:lvgl/lvgl/src/core/lv_obj.c ****         return LV_RES_OK;
 290              		.loc 1 657 9 is_stmt 1 view .LVU90
 291              	.LVL26:
 292              	.LBB111:
 293              	.LBI111:
 127:lvgl/lvgl/src/core/lv_obj_style_gen.h **** {
 294              		.loc 2 127 26 view .LVU91
 295              	.LBB112:
ARM GAS  C:\Users\gx\AppData\Local\Temp\cccIVLs9.s 			page 31


 129:lvgl/lvgl/src/core/lv_obj_style_gen.h ****     return (lv_coord_t)v.num;
 296              		.loc 2 129 5 view .LVU92
 129:lvgl/lvgl/src/core/lv_obj_style_gen.h ****     return (lv_coord_t)v.num;
 297              		.loc 2 129 26 is_stmt 0 view .LVU93
 298 0086 6022     		movs	r2, #96
 299 0088 4FF48031 		mov	r1, #65536
 300 008c 2846     		mov	r0, r5
 301 008e FFF7FEFF 		bl	lv_obj_get_style_prop
 302              	.LVL27:
 130:lvgl/lvgl/src/core/lv_obj_style_gen.h **** }
 303              		.loc 2 130 5 is_stmt 1 view .LVU94
 130:lvgl/lvgl/src/core/lv_obj_style_gen.h **** }
 304              		.loc 2 130 5 is_stmt 0 view .LVU95
 305              	.LBE112:
 306              	.LBE111:
 657:lvgl/lvgl/src/core/lv_obj.c ****         return LV_RES_OK;
 307              		.loc 1 657 21 view .LVU96
 308 0092 2080     		strh	r0, [r4]	@ movhi
 658:lvgl/lvgl/src/core/lv_obj.c ****     } else {
 309              		.loc 1 658 9 is_stmt 1 view .LVU97
 658:lvgl/lvgl/src/core/lv_obj.c ****     } else {
 310              		.loc 1 658 16 is_stmt 0 view .LVU98
 311 0094 0120     		movs	r0, #1
 312              	.L18:
 666:lvgl/lvgl/src/core/lv_obj.c **** 
 313              		.loc 1 666 1 view .LVU99
 314 0096 38BD     		pop	{r3, r4, r5, pc}
 315              	.LVL28:
 316              	.L20:
 624:lvgl/lvgl/src/core/lv_obj.c ****     }
 317              		.loc 1 624 9 is_stmt 1 view .LVU100
 318              	.LBB113:
 319              	.LBI113:
 193:lvgl/lvgl/src/core/lv_obj_style_gen.h **** {
 320              		.loc 2 193 26 view .LVU101
 321              	.LBB114:
 195:lvgl/lvgl/src/core/lv_obj_style_gen.h ****     return v.color;
 322              		.loc 2 195 5 view .LVU102
 195:lvgl/lvgl/src/core/lv_obj_style_gen.h ****     return v.color;
 323              		.loc 2 195 26 is_stmt 0 view .LVU103
 324 0098 2022     		movs	r2, #32
 325 009a 4FF48031 		mov	r1, #65536
 326 009e 2846     		mov	r0, r5
 327 00a0 FFF7FEFF 		bl	lv_obj_get_style_prop
 328              	.LVL29:
 196:lvgl/lvgl/src/core/lv_obj_style_gen.h **** }
 329              		.loc 2 196 5 is_stmt 1 view .LVU104
 196:lvgl/lvgl/src/core/lv_obj_style_gen.h **** }
 330              		.loc 2 196 5 is_stmt 0 view .LVU105
 331              	.LBE114:
 332              	.LBE113:
 624:lvgl/lvgl/src/core/lv_obj.c ****     }
 333              		.loc 1 624 25 view .LVU106
 334 00a4 A080     		strh	r0, [r4, #4]	@ movhi
 335 00a6 BBE7     		b	.L11
 336              	.L21:
 629:lvgl/lvgl/src/core/lv_obj.c ****         if(dsc->border_width > 0) {
ARM GAS  C:\Users\gx\AppData\Local\Temp\cccIVLs9.s 			page 32


 337              		.loc 1 629 9 is_stmt 1 view .LVU107
 338              	.LVL30:
 339              	.LBB115:
 340              	.LBI115:
 295:lvgl/lvgl/src/core/lv_obj_style_gen.h **** {
 341              		.loc 2 295 26 view .LVU108
 342              	.LBB116:
 297:lvgl/lvgl/src/core/lv_obj_style_gen.h ****     return (lv_coord_t)v.num;
 343              		.loc 2 297 5 view .LVU109
 297:lvgl/lvgl/src/core/lv_obj_style_gen.h ****     return (lv_coord_t)v.num;
 344              		.loc 2 297 26 is_stmt 0 view .LVU110
 345 00a8 41F23202 		movw	r2, #4146
 346 00ac 4FF48031 		mov	r1, #65536
 347 00b0 2846     		mov	r0, r5
 348 00b2 FFF7FEFF 		bl	lv_obj_get_style_prop
 349              	.LVL31:
 298:lvgl/lvgl/src/core/lv_obj_style_gen.h **** }
 350              		.loc 2 298 5 is_stmt 1 view .LVU111
 298:lvgl/lvgl/src/core/lv_obj_style_gen.h **** }
 351              		.loc 2 298 12 is_stmt 0 view .LVU112
 352 00b6 00B2     		sxth	r0, r0
 353              	.LVL32:
 298:lvgl/lvgl/src/core/lv_obj_style_gen.h **** }
 354              		.loc 2 298 12 view .LVU113
 355              	.LBE116:
 356              	.LBE115:
 629:lvgl/lvgl/src/core/lv_obj.c ****         if(dsc->border_width > 0) {
 357              		.loc 1 629 27 view .LVU114
 358 00b8 A083     		strh	r0, [r4, #28]	@ movhi
 630:lvgl/lvgl/src/core/lv_obj.c ****             dsc->border_color = lv_obj_get_style_border_color(obj, LV_PART_SCROLLBAR);
 359              		.loc 1 630 9 is_stmt 1 view .LVU115
 630:lvgl/lvgl/src/core/lv_obj.c ****             dsc->border_color = lv_obj_get_style_border_color(obj, LV_PART_SCROLLBAR);
 360              		.loc 1 630 11 is_stmt 0 view .LVU116
 361 00ba 0028     		cmp	r0, #0
 362 00bc 02DC     		bgt	.L23
 633:lvgl/lvgl/src/core/lv_obj.c ****         }
 363              		.loc 1 633 13 is_stmt 1 view .LVU117
 633:lvgl/lvgl/src/core/lv_obj.c ****         }
 364              		.loc 1 633 29 is_stmt 0 view .LVU118
 365 00be 0023     		movs	r3, #0
 366 00c0 A377     		strb	r3, [r4, #30]
 367 00c2 B7E7     		b	.L12
 368              	.L23:
 631:lvgl/lvgl/src/core/lv_obj.c ****         } else {
 369              		.loc 1 631 13 is_stmt 1 view .LVU119
 370              	.LVL33:
 371              	.LBB117:
 372              	.LBI117:
 277:lvgl/lvgl/src/core/lv_obj_style_gen.h **** {
 373              		.loc 2 277 26 view .LVU120
 374              	.LBB118:
 279:lvgl/lvgl/src/core/lv_obj_style_gen.h ****     return v.color;
 375              		.loc 2 279 5 view .LVU121
 279:lvgl/lvgl/src/core/lv_obj_style_gen.h ****     return v.color;
 376              		.loc 2 279 26 is_stmt 0 view .LVU122
 377 00c4 3022     		movs	r2, #48
 378 00c6 4FF48031 		mov	r1, #65536
ARM GAS  C:\Users\gx\AppData\Local\Temp\cccIVLs9.s 			page 33


 379 00ca 2846     		mov	r0, r5
 380 00cc FFF7FEFF 		bl	lv_obj_get_style_prop
 381              	.LVL34:
 280:lvgl/lvgl/src/core/lv_obj_style_gen.h **** }
 382              		.loc 2 280 5 is_stmt 1 view .LVU123
 280:lvgl/lvgl/src/core/lv_obj_style_gen.h **** }
 383              		.loc 2 280 5 is_stmt 0 view .LVU124
 384              	.LBE118:
 385              	.LBE117:
 631:lvgl/lvgl/src/core/lv_obj.c ****         } else {
 386              		.loc 1 631 33 view .LVU125
 387 00d0 6083     		strh	r0, [r4, #26]	@ movhi
 388 00d2 AFE7     		b	.L12
 389              	.L22:
 640:lvgl/lvgl/src/core/lv_obj.c ****         if(dsc->shadow_width > 0) {
 390              		.loc 1 640 9 is_stmt 1 view .LVU126
 391              	.LVL35:
 392              	.LBB119:
 393              	.LBI119:
 415:lvgl/lvgl/src/core/lv_obj_style_gen.h **** {
 394              		.loc 2 415 26 view .LVU127
 395              	.LBB120:
 417:lvgl/lvgl/src/core/lv_obj_style_gen.h ****     return (lv_coord_t)v.num;
 396              		.loc 2 417 5 view .LVU128
 417:lvgl/lvgl/src/core/lv_obj_style_gen.h ****     return (lv_coord_t)v.num;
 397              		.loc 2 417 26 is_stmt 0 view .LVU129
 398 00d4 4FF40462 		mov	r2, #2112
 399 00d8 4FF48031 		mov	r1, #65536
 400 00dc 2846     		mov	r0, r5
 401 00de FFF7FEFF 		bl	lv_obj_get_style_prop
 402              	.LVL36:
 418:lvgl/lvgl/src/core/lv_obj_style_gen.h **** }
 403              		.loc 2 418 5 is_stmt 1 view .LVU130
 418:lvgl/lvgl/src/core/lv_obj_style_gen.h **** }
 404              		.loc 2 418 12 is_stmt 0 view .LVU131
 405 00e2 00B2     		sxth	r0, r0
 406              	.LVL37:
 418:lvgl/lvgl/src/core/lv_obj_style_gen.h **** }
 407              		.loc 2 418 12 view .LVU132
 408              	.LBE120:
 409              	.LBE119:
 640:lvgl/lvgl/src/core/lv_obj.c ****         if(dsc->shadow_width > 0) {
 410              		.loc 1 640 27 view .LVU133
 411 00e4 6085     		strh	r0, [r4, #42]	@ movhi
 641:lvgl/lvgl/src/core/lv_obj.c ****             dsc->shadow_spread = lv_obj_get_style_shadow_spread(obj, LV_PART_SCROLLBAR);
 412              		.loc 1 641 9 is_stmt 1 view .LVU134
 641:lvgl/lvgl/src/core/lv_obj.c ****             dsc->shadow_spread = lv_obj_get_style_shadow_spread(obj, LV_PART_SCROLLBAR);
 413              		.loc 1 641 11 is_stmt 0 view .LVU135
 414 00e6 0028     		cmp	r0, #0
 415 00e8 03DC     		bgt	.L24
 645:lvgl/lvgl/src/core/lv_obj.c ****         }
 416              		.loc 1 645 13 is_stmt 1 view .LVU136
 645:lvgl/lvgl/src/core/lv_obj.c ****         }
 417              		.loc 1 645 29 is_stmt 0 view .LVU137
 418 00ea 0023     		movs	r3, #0
 419 00ec 84F83230 		strb	r3, [r4, #50]
 420 00f0 ACE7     		b	.L14
ARM GAS  C:\Users\gx\AppData\Local\Temp\cccIVLs9.s 			page 34


 421              	.L24:
 642:lvgl/lvgl/src/core/lv_obj.c ****             dsc->shadow_color = lv_obj_get_style_shadow_color(obj, LV_PART_SCROLLBAR);
 422              		.loc 1 642 13 is_stmt 1 view .LVU138
 423              	.LVL38:
 424              	.LBB121:
 425              	.LBI121:
 433:lvgl/lvgl/src/core/lv_obj_style_gen.h **** {
 426              		.loc 2 433 26 view .LVU139
 427              	.LBB122:
 435:lvgl/lvgl/src/core/lv_obj_style_gen.h ****     return (lv_coord_t)v.num;
 428              		.loc 2 435 5 view .LVU140
 435:lvgl/lvgl/src/core/lv_obj_style_gen.h ****     return (lv_coord_t)v.num;
 429              		.loc 2 435 26 is_stmt 0 view .LVU141
 430 00f2 40F64302 		movw	r2, #2115
 431 00f6 4FF48031 		mov	r1, #65536
 432 00fa 2846     		mov	r0, r5
 433 00fc FFF7FEFF 		bl	lv_obj_get_style_prop
 434              	.LVL39:
 436:lvgl/lvgl/src/core/lv_obj_style_gen.h **** }
 435              		.loc 2 436 5 is_stmt 1 view .LVU142
 436:lvgl/lvgl/src/core/lv_obj_style_gen.h **** }
 436              		.loc 2 436 5 is_stmt 0 view .LVU143
 437              	.LBE122:
 438              	.LBE121:
 642:lvgl/lvgl/src/core/lv_obj.c ****             dsc->shadow_color = lv_obj_get_style_shadow_color(obj, LV_PART_SCROLLBAR);
 439              		.loc 1 642 32 view .LVU144
 440 0100 2086     		strh	r0, [r4, #48]	@ movhi
 643:lvgl/lvgl/src/core/lv_obj.c ****         } else {
 441              		.loc 1 643 13 is_stmt 1 view .LVU145
 442              	.LVL40:
 443              	.LBB123:
 444              	.LBI123:
 439:lvgl/lvgl/src/core/lv_obj_style_gen.h **** {
 445              		.loc 2 439 26 view .LVU146
 446              	.LBB124:
 441:lvgl/lvgl/src/core/lv_obj_style_gen.h ****     return v.color;
 447              		.loc 2 441 5 view .LVU147
 441:lvgl/lvgl/src/core/lv_obj_style_gen.h ****     return v.color;
 448              		.loc 2 441 26 is_stmt 0 view .LVU148
 449 0102 4422     		movs	r2, #68
 450 0104 4FF48031 		mov	r1, #65536
 451 0108 2846     		mov	r0, r5
 452 010a FFF7FEFF 		bl	lv_obj_get_style_prop
 453              	.LVL41:
 442:lvgl/lvgl/src/core/lv_obj_style_gen.h **** }
 454              		.loc 2 442 5 is_stmt 1 view .LVU149
 442:lvgl/lvgl/src/core/lv_obj_style_gen.h **** }
 455              		.loc 2 442 5 is_stmt 0 view .LVU150
 456              	.LBE124:
 457              	.LBE123:
 643:lvgl/lvgl/src/core/lv_obj.c ****         } else {
 458              		.loc 1 643 33 view .LVU151
 459 010e 2085     		strh	r0, [r4, #40]	@ movhi
 460 0110 9CE7     		b	.L14
 461              		.cfi_endproc
 462              	.LFE180:
 464              		.section	.text.draw_scrollbar,"ax",%progbits
ARM GAS  C:\Users\gx\AppData\Local\Temp\cccIVLs9.s 			page 35


 465              		.align	1
 466              		.syntax unified
 467              		.thumb
 468              		.thumb_func
 469              		.fpu fpv4-sp-d16
 471              	draw_scrollbar:
 472              	.LVL42:
 473              	.LFB179:
 580:lvgl/lvgl/src/core/lv_obj.c **** 
 474              		.loc 1 580 1 is_stmt 1 view -0
 475              		.cfi_startproc
 476              		@ args = 0, pretend = 0, frame = 136
 477              		@ frame_needed = 0, uses_anonymous_args = 0
 580:lvgl/lvgl/src/core/lv_obj.c **** 
 478              		.loc 1 580 1 is_stmt 0 view .LVU153
 479 0000 70B5     		push	{r4, r5, r6, lr}
 480              	.LCFI2:
 481              		.cfi_def_cfa_offset 16
 482              		.cfi_offset 4, -16
 483              		.cfi_offset 5, -12
 484              		.cfi_offset 6, -8
 485              		.cfi_offset 14, -4
 486 0002 A2B0     		sub	sp, sp, #136
 487              	.LCFI3:
 488              		.cfi_def_cfa_offset 152
 489 0004 0446     		mov	r4, r0
 490 0006 0D46     		mov	r5, r1
 582:lvgl/lvgl/src/core/lv_obj.c ****     lv_area_t ver_area;
 491              		.loc 1 582 5 is_stmt 1 view .LVU154
 583:lvgl/lvgl/src/core/lv_obj.c ****     lv_obj_get_scrollbar_area(obj, &hor_area, &ver_area);
 492              		.loc 1 583 5 view .LVU155
 584:lvgl/lvgl/src/core/lv_obj.c **** 
 493              		.loc 1 584 5 view .LVU156
 494 0008 1EAA     		add	r2, sp, #120
 495 000a 20A9     		add	r1, sp, #128
 496              	.LVL43:
 584:lvgl/lvgl/src/core/lv_obj.c **** 
 497              		.loc 1 584 5 is_stmt 0 view .LVU157
 498 000c FFF7FEFF 		bl	lv_obj_get_scrollbar_area
 499              	.LVL44:
 586:lvgl/lvgl/src/core/lv_obj.c **** 
 500              		.loc 1 586 5 is_stmt 1 view .LVU158
 586:lvgl/lvgl/src/core/lv_obj.c **** 
 501              		.loc 1 586 8 is_stmt 0 view .LVU159
 502 0010 20A8     		add	r0, sp, #128
 503 0012 FFF7FEFF 		bl	lv_area_get_size
 504              	.LVL45:
 586:lvgl/lvgl/src/core/lv_obj.c **** 
 505              		.loc 1 586 7 view .LVU160
 506 0016 18B9     		cbnz	r0, .L26
 586:lvgl/lvgl/src/core/lv_obj.c **** 
 507              		.loc 1 586 44 discriminator 1 view .LVU161
 508 0018 1EA8     		add	r0, sp, #120
 509 001a FFF7FEFF 		bl	lv_area_get_size
 510              	.LVL46:
 586:lvgl/lvgl/src/core/lv_obj.c **** 
 511              		.loc 1 586 41 discriminator 1 view .LVU162
ARM GAS  C:\Users\gx\AppData\Local\Temp\cccIVLs9.s 			page 36


 512 001e 28B1     		cbz	r0, .L25
 513              	.L26:
 588:lvgl/lvgl/src/core/lv_obj.c ****     lv_res_t sb_res = scrollbar_init_draw_dsc(obj, &draw_dsc);
 514              		.loc 1 588 5 is_stmt 1 view .LVU163
 589:lvgl/lvgl/src/core/lv_obj.c ****     if(sb_res != LV_RES_OK) return;
 515              		.loc 1 589 5 view .LVU164
 589:lvgl/lvgl/src/core/lv_obj.c ****     if(sb_res != LV_RES_OK) return;
 516              		.loc 1 589 23 is_stmt 0 view .LVU165
 517 0020 11A9     		add	r1, sp, #68
 518 0022 2046     		mov	r0, r4
 519 0024 FFF7FEFF 		bl	scrollbar_init_draw_dsc
 520              	.LVL47:
 590:lvgl/lvgl/src/core/lv_obj.c **** 
 521              		.loc 1 590 5 is_stmt 1 view .LVU166
 590:lvgl/lvgl/src/core/lv_obj.c **** 
 522              		.loc 1 590 7 is_stmt 0 view .LVU167
 523 0028 0128     		cmp	r0, #1
 524 002a 01D0     		beq	.L32
 525              	.LVL48:
 526              	.L25:
 611:lvgl/lvgl/src/core/lv_obj.c **** 
 527              		.loc 1 611 1 view .LVU168
 528 002c 22B0     		add	sp, sp, #136
 529              	.LCFI4:
 530              		.cfi_remember_state
 531              		.cfi_def_cfa_offset 16
 532              		@ sp needed
 533 002e 70BD     		pop	{r4, r5, r6, pc}
 534              	.LVL49:
 535              	.L32:
 536              	.LCFI5:
 537              		.cfi_restore_state
 592:lvgl/lvgl/src/core/lv_obj.c ****     lv_obj_draw_dsc_init(&part_dsc, clip_area);
 538              		.loc 1 592 5 is_stmt 1 view .LVU169
 593:lvgl/lvgl/src/core/lv_obj.c ****     part_dsc.class_p = MY_CLASS;
 539              		.loc 1 593 5 view .LVU170
 540 0030 2946     		mov	r1, r5
 541 0032 6846     		mov	r0, sp
 542              	.LVL50:
 593:lvgl/lvgl/src/core/lv_obj.c ****     part_dsc.class_p = MY_CLASS;
 543              		.loc 1 593 5 is_stmt 0 view .LVU171
 544 0034 FFF7FEFF 		bl	lv_obj_draw_dsc_init
 545              	.LVL51:
 594:lvgl/lvgl/src/core/lv_obj.c ****     part_dsc.type = LV_OBJ_DRAW_PART_SCROLLBAR;
 546              		.loc 1 594 5 is_stmt 1 view .LVU172
 594:lvgl/lvgl/src/core/lv_obj.c ****     part_dsc.type = LV_OBJ_DRAW_PART_SCROLLBAR;
 547              		.loc 1 594 22 is_stmt 0 view .LVU173
 548 0038 1A4B     		ldr	r3, .L34
 549 003a 0193     		str	r3, [sp, #4]
 595:lvgl/lvgl/src/core/lv_obj.c ****     part_dsc.rect_dsc = &draw_dsc;
 550              		.loc 1 595 5 is_stmt 1 view .LVU174
 595:lvgl/lvgl/src/core/lv_obj.c ****     part_dsc.rect_dsc = &draw_dsc;
 551              		.loc 1 595 19 is_stmt 0 view .LVU175
 552 003c 0223     		movs	r3, #2
 553 003e 0293     		str	r3, [sp, #8]
 596:lvgl/lvgl/src/core/lv_obj.c ****     part_dsc.part = LV_PART_SCROLLBAR;
 554              		.loc 1 596 5 is_stmt 1 view .LVU176
ARM GAS  C:\Users\gx\AppData\Local\Temp\cccIVLs9.s 			page 37


 596:lvgl/lvgl/src/core/lv_obj.c ****     part_dsc.part = LV_PART_SCROLLBAR;
 555              		.loc 1 596 23 is_stmt 0 view .LVU177
 556 0040 11AB     		add	r3, sp, #68
 557 0042 0493     		str	r3, [sp, #16]
 597:lvgl/lvgl/src/core/lv_obj.c **** 
 558              		.loc 1 597 5 is_stmt 1 view .LVU178
 597:lvgl/lvgl/src/core/lv_obj.c **** 
 559              		.loc 1 597 19 is_stmt 0 view .LVU179
 560 0044 4FF48033 		mov	r3, #65536
 561 0048 0C93     		str	r3, [sp, #48]
 599:lvgl/lvgl/src/core/lv_obj.c ****         part_dsc.draw_area = &hor_area;
 562              		.loc 1 599 5 is_stmt 1 view .LVU180
 599:lvgl/lvgl/src/core/lv_obj.c ****         part_dsc.draw_area = &hor_area;
 563              		.loc 1 599 8 is_stmt 0 view .LVU181
 564 004a 20A8     		add	r0, sp, #128
 565 004c FFF7FEFF 		bl	lv_area_get_size
 566              	.LVL52:
 599:lvgl/lvgl/src/core/lv_obj.c ****         part_dsc.draw_area = &hor_area;
 567              		.loc 1 599 7 view .LVU182
 568 0050 B0B9     		cbnz	r0, .L33
 569              	.L28:
 605:lvgl/lvgl/src/core/lv_obj.c ****         part_dsc.draw_area = &ver_area;
 570              		.loc 1 605 5 is_stmt 1 view .LVU183
 605:lvgl/lvgl/src/core/lv_obj.c ****         part_dsc.draw_area = &ver_area;
 571              		.loc 1 605 8 is_stmt 0 view .LVU184
 572 0052 1EA8     		add	r0, sp, #120
 573 0054 FFF7FEFF 		bl	lv_area_get_size
 574              	.LVL53:
 605:lvgl/lvgl/src/core/lv_obj.c ****         part_dsc.draw_area = &ver_area;
 575              		.loc 1 605 7 view .LVU185
 576 0058 0028     		cmp	r0, #0
 577 005a E7D0     		beq	.L25
 606:lvgl/lvgl/src/core/lv_obj.c ****         lv_event_send(obj, LV_EVENT_DRAW_PART_BEGIN, &part_dsc);
 578              		.loc 1 606 9 is_stmt 1 view .LVU186
 606:lvgl/lvgl/src/core/lv_obj.c ****         lv_event_send(obj, LV_EVENT_DRAW_PART_BEGIN, &part_dsc);
 579              		.loc 1 606 28 is_stmt 0 view .LVU187
 580 005c 1EAE     		add	r6, sp, #120
 581 005e 0396     		str	r6, [sp, #12]
 607:lvgl/lvgl/src/core/lv_obj.c ****         lv_draw_rect(&ver_area, clip_area, &draw_dsc);
 582              		.loc 1 607 9 is_stmt 1 view .LVU188
 583 0060 6A46     		mov	r2, sp
 584 0062 1A21     		movs	r1, #26
 585 0064 2046     		mov	r0, r4
 586 0066 FFF7FEFF 		bl	lv_event_send
 587              	.LVL54:
 608:lvgl/lvgl/src/core/lv_obj.c ****         lv_event_send(obj, LV_EVENT_DRAW_PART_END, &part_dsc);
 588              		.loc 1 608 9 view .LVU189
 589 006a 11AA     		add	r2, sp, #68
 590 006c 2946     		mov	r1, r5
 591 006e 3046     		mov	r0, r6
 592 0070 FFF7FEFF 		bl	lv_draw_rect
 593              	.LVL55:
 609:lvgl/lvgl/src/core/lv_obj.c ****     }
 594              		.loc 1 609 9 view .LVU190
 595 0074 6A46     		mov	r2, sp
 596 0076 1B21     		movs	r1, #27
 597 0078 2046     		mov	r0, r4
ARM GAS  C:\Users\gx\AppData\Local\Temp\cccIVLs9.s 			page 38


 598 007a FFF7FEFF 		bl	lv_event_send
 599              	.LVL56:
 600 007e D5E7     		b	.L25
 601              	.L33:
 600:lvgl/lvgl/src/core/lv_obj.c ****         lv_event_send(obj, LV_EVENT_DRAW_PART_BEGIN, &part_dsc);
 602              		.loc 1 600 9 view .LVU191
 600:lvgl/lvgl/src/core/lv_obj.c ****         lv_event_send(obj, LV_EVENT_DRAW_PART_BEGIN, &part_dsc);
 603              		.loc 1 600 28 is_stmt 0 view .LVU192
 604 0080 20AE     		add	r6, sp, #128
 605 0082 0396     		str	r6, [sp, #12]
 601:lvgl/lvgl/src/core/lv_obj.c ****         lv_draw_rect(&hor_area, clip_area, &draw_dsc);
 606              		.loc 1 601 9 is_stmt 1 view .LVU193
 607 0084 6A46     		mov	r2, sp
 608 0086 1A21     		movs	r1, #26
 609 0088 2046     		mov	r0, r4
 610 008a FFF7FEFF 		bl	lv_event_send
 611              	.LVL57:
 602:lvgl/lvgl/src/core/lv_obj.c ****         lv_event_send(obj, LV_EVENT_DRAW_PART_END, &part_dsc);
 612              		.loc 1 602 9 view .LVU194
 613 008e 11AA     		add	r2, sp, #68
 614 0090 2946     		mov	r1, r5
 615 0092 3046     		mov	r0, r6
 616 0094 FFF7FEFF 		bl	lv_draw_rect
 617              	.LVL58:
 603:lvgl/lvgl/src/core/lv_obj.c ****     }
 618              		.loc 1 603 9 view .LVU195
 619 0098 6A46     		mov	r2, sp
 620 009a 1B21     		movs	r1, #27
 621 009c 2046     		mov	r0, r4
 622 009e FFF7FEFF 		bl	lv_event_send
 623              	.LVL59:
 624 00a2 D6E7     		b	.L28
 625              	.L35:
 626              		.align	2
 627              	.L34:
 628 00a4 00000000 		.word	.LANCHOR0
 629              		.cfi_endproc
 630              	.LFE179:
 632              		.section	.text.lv_obj_draw,"ax",%progbits
 633              		.align	1
 634              		.syntax unified
 635              		.thumb
 636              		.thumb_func
 637              		.fpu fpv4-sp-d16
 639              	lv_obj_draw:
 640              	.LVL60:
 641              	.LFB178:
 439:lvgl/lvgl/src/core/lv_obj.c ****     lv_event_code_t code = lv_event_get_code(e);
 642              		.loc 1 439 1 view -0
 643              		.cfi_startproc
 644              		@ args = 0, pretend = 0, frame = 128
 645              		@ frame_needed = 0, uses_anonymous_args = 0
 439:lvgl/lvgl/src/core/lv_obj.c ****     lv_event_code_t code = lv_event_get_code(e);
 646              		.loc 1 439 1 is_stmt 0 view .LVU197
 647 0000 2DE9F041 		push	{r4, r5, r6, r7, r8, lr}
 648              	.LCFI6:
 649              		.cfi_def_cfa_offset 24
ARM GAS  C:\Users\gx\AppData\Local\Temp\cccIVLs9.s 			page 39


 650              		.cfi_offset 4, -24
 651              		.cfi_offset 5, -20
 652              		.cfi_offset 6, -16
 653              		.cfi_offset 7, -12
 654              		.cfi_offset 8, -8
 655              		.cfi_offset 14, -4
 656 0004 A0B0     		sub	sp, sp, #128
 657              	.LCFI7:
 658              		.cfi_def_cfa_offset 152
 659 0006 0646     		mov	r6, r0
 440:lvgl/lvgl/src/core/lv_obj.c ****     lv_obj_t * obj = lv_event_get_target(e);
 660              		.loc 1 440 5 is_stmt 1 view .LVU198
 440:lvgl/lvgl/src/core/lv_obj.c ****     lv_obj_t * obj = lv_event_get_target(e);
 661              		.loc 1 440 28 is_stmt 0 view .LVU199
 662 0008 FFF7FEFF 		bl	lv_event_get_code
 663              	.LVL61:
 440:lvgl/lvgl/src/core/lv_obj.c ****     lv_obj_t * obj = lv_event_get_target(e);
 664              		.loc 1 440 28 view .LVU200
 665 000c 0546     		mov	r5, r0
 666              	.LVL62:
 441:lvgl/lvgl/src/core/lv_obj.c ****     if(code == LV_EVENT_COVER_CHECK) {
 667              		.loc 1 441 5 is_stmt 1 view .LVU201
 441:lvgl/lvgl/src/core/lv_obj.c ****     if(code == LV_EVENT_COVER_CHECK) {
 668              		.loc 1 441 22 is_stmt 0 view .LVU202
 669 000e 3046     		mov	r0, r6
 670 0010 FFF7FEFF 		bl	lv_event_get_target
 671              	.LVL63:
 672 0014 0446     		mov	r4, r0
 673              	.LVL64:
 442:lvgl/lvgl/src/core/lv_obj.c ****         lv_cover_check_info_t * info = lv_event_get_param(e);
 674              		.loc 1 442 5 is_stmt 1 view .LVU203
 442:lvgl/lvgl/src/core/lv_obj.c ****         lv_cover_check_info_t * info = lv_event_get_param(e);
 675              		.loc 1 442 7 is_stmt 0 view .LVU204
 676 0016 122D     		cmp	r5, #18
 677 0018 07D0     		beq	.L50
 485:lvgl/lvgl/src/core/lv_obj.c ****         const lv_area_t * clip_area = lv_event_get_param(e);
 678              		.loc 1 485 10 is_stmt 1 view .LVU205
 485:lvgl/lvgl/src/core/lv_obj.c ****         const lv_area_t * clip_area = lv_event_get_param(e);
 679              		.loc 1 485 12 is_stmt 0 view .LVU206
 680 001a 152D     		cmp	r5, #21
 681 001c 6CD0     		beq	.L51
 532:lvgl/lvgl/src/core/lv_obj.c ****         const lv_area_t * clip_area = lv_event_get_param(e);
 682              		.loc 1 532 10 is_stmt 1 view .LVU207
 532:lvgl/lvgl/src/core/lv_obj.c ****         const lv_area_t * clip_area = lv_event_get_param(e);
 683              		.loc 1 532 12 is_stmt 0 view .LVU208
 684 001e 182D     		cmp	r5, #24
 685 0020 00F0E380 		beq	.L52
 686              	.LVL65:
 687              	.L36:
 577:lvgl/lvgl/src/core/lv_obj.c **** 
 688              		.loc 1 577 1 view .LVU209
 689 0024 20B0     		add	sp, sp, #128
 690              	.LCFI8:
 691              		.cfi_remember_state
 692              		.cfi_def_cfa_offset 24
 693              		@ sp needed
 694 0026 BDE8F081 		pop	{r4, r5, r6, r7, r8, pc}
ARM GAS  C:\Users\gx\AppData\Local\Temp\cccIVLs9.s 			page 40


 695              	.LVL66:
 696              	.L50:
 697              	.LCFI9:
 698              		.cfi_restore_state
 699              	.LBB125:
 443:lvgl/lvgl/src/core/lv_obj.c ****         if(info->res == LV_COVER_RES_MASKED) return;
 700              		.loc 1 443 9 is_stmt 1 view .LVU210
 443:lvgl/lvgl/src/core/lv_obj.c ****         if(info->res == LV_COVER_RES_MASKED) return;
 701              		.loc 1 443 40 is_stmt 0 view .LVU211
 702 002a 3046     		mov	r0, r6
 703              	.LVL67:
 443:lvgl/lvgl/src/core/lv_obj.c ****         if(info->res == LV_COVER_RES_MASKED) return;
 704              		.loc 1 443 40 view .LVU212
 705 002c FFF7FEFF 		bl	lv_event_get_param
 706              	.LVL68:
 707 0030 0546     		mov	r5, r0
 708              	.LVL69:
 444:lvgl/lvgl/src/core/lv_obj.c ****         if(lv_obj_get_style_clip_corner(obj, LV_PART_MAIN)) {
 709              		.loc 1 444 9 is_stmt 1 view .LVU213
 444:lvgl/lvgl/src/core/lv_obj.c ****         if(lv_obj_get_style_clip_corner(obj, LV_PART_MAIN)) {
 710              		.loc 1 444 16 is_stmt 0 view .LVU214
 711 0032 0378     		ldrb	r3, [r0]	@ zero_extendqisi2
 444:lvgl/lvgl/src/core/lv_obj.c ****         if(lv_obj_get_style_clip_corner(obj, LV_PART_MAIN)) {
 712              		.loc 1 444 11 view .LVU215
 713 0034 022B     		cmp	r3, #2
 714 0036 F5D0     		beq	.L36
 445:lvgl/lvgl/src/core/lv_obj.c ****             info->res = LV_COVER_RES_MASKED;
 715              		.loc 1 445 9 is_stmt 1 view .LVU216
 716              	.LVL70:
 717              	.LBB126:
 718              	.LBI126:
 133:lvgl/lvgl/src/core/lv_obj_style_gen.h **** {
 719              		.loc 2 133 20 view .LVU217
 720              	.LBB127:
 135:lvgl/lvgl/src/core/lv_obj_style_gen.h ****     return (bool)v.num;
 721              		.loc 2 135 5 view .LVU218
 135:lvgl/lvgl/src/core/lv_obj_style_gen.h ****     return (bool)v.num;
 722              		.loc 2 135 26 is_stmt 0 view .LVU219
 723 0038 6122     		movs	r2, #97
 724 003a 0021     		movs	r1, #0
 725 003c 2046     		mov	r0, r4
 726              	.LVL71:
 135:lvgl/lvgl/src/core/lv_obj_style_gen.h ****     return (bool)v.num;
 727              		.loc 2 135 26 view .LVU220
 728 003e FFF7FEFF 		bl	lv_obj_get_style_prop
 729              	.LVL72:
 136:lvgl/lvgl/src/core/lv_obj_style_gen.h **** }
 730              		.loc 2 136 5 is_stmt 1 view .LVU221
 136:lvgl/lvgl/src/core/lv_obj_style_gen.h **** }
 731              		.loc 2 136 5 is_stmt 0 view .LVU222
 732              	.LBE127:
 733              	.LBE126:
 445:lvgl/lvgl/src/core/lv_obj.c ****             info->res = LV_COVER_RES_MASKED;
 734              		.loc 1 445 11 view .LVU223
 735 0042 10B1     		cbz	r0, .L39
 446:lvgl/lvgl/src/core/lv_obj.c ****             return;
 736              		.loc 1 446 13 is_stmt 1 view .LVU224
ARM GAS  C:\Users\gx\AppData\Local\Temp\cccIVLs9.s 			page 41


 446:lvgl/lvgl/src/core/lv_obj.c ****             return;
 737              		.loc 1 446 23 is_stmt 0 view .LVU225
 738 0044 0223     		movs	r3, #2
 739 0046 2B70     		strb	r3, [r5]
 447:lvgl/lvgl/src/core/lv_obj.c ****         }
 740              		.loc 1 447 13 is_stmt 1 view .LVU226
 741 0048 ECE7     		b	.L36
 742              	.L39:
 451:lvgl/lvgl/src/core/lv_obj.c ****         lv_coord_t w = lv_obj_get_style_transform_width(obj, LV_PART_MAIN);
 743              		.loc 1 451 9 view .LVU227
 744              	.LVL73:
 745              	.LBB128:
 746              	.LBI128:
 127:lvgl/lvgl/src/core/lv_obj_style_gen.h **** {
 747              		.loc 2 127 26 view .LVU228
 748              	.LBB129:
 129:lvgl/lvgl/src/core/lv_obj_style_gen.h ****     return (lv_coord_t)v.num;
 749              		.loc 2 129 5 view .LVU229
 129:lvgl/lvgl/src/core/lv_obj_style_gen.h ****     return (lv_coord_t)v.num;
 750              		.loc 2 129 26 is_stmt 0 view .LVU230
 751 004a 6022     		movs	r2, #96
 752 004c 0021     		movs	r1, #0
 753 004e 2046     		mov	r0, r4
 754 0050 FFF7FEFF 		bl	lv_obj_get_style_prop
 755              	.LVL74:
 130:lvgl/lvgl/src/core/lv_obj_style_gen.h **** }
 756              		.loc 2 130 5 is_stmt 1 view .LVU231
 130:lvgl/lvgl/src/core/lv_obj_style_gen.h **** }
 757              		.loc 2 130 12 is_stmt 0 view .LVU232
 758 0054 07B2     		sxth	r7, r0
 759              	.LVL75:
 130:lvgl/lvgl/src/core/lv_obj_style_gen.h **** }
 760              		.loc 2 130 12 view .LVU233
 761              	.LBE129:
 762              	.LBE128:
 452:lvgl/lvgl/src/core/lv_obj.c ****         lv_coord_t h = lv_obj_get_style_transform_height(obj, LV_PART_MAIN);
 763              		.loc 1 452 9 is_stmt 1 view .LVU234
 764              	.LBB130:
 765              	.LBI130:
  55:lvgl/lvgl/src/core/lv_obj_style_gen.h **** {
 766              		.loc 2 55 26 view .LVU235
 767              	.LBB131:
  57:lvgl/lvgl/src/core/lv_obj_style_gen.h ****     return (lv_coord_t)v.num;
 768              		.loc 2 57 5 view .LVU236
  57:lvgl/lvgl/src/core/lv_obj_style_gen.h ****     return (lv_coord_t)v.num;
 769              		.loc 2 57 26 is_stmt 0 view .LVU237
 770 0056 40F60A02 		movw	r2, #2058
 771 005a 0021     		movs	r1, #0
 772 005c 2046     		mov	r0, r4
 773 005e FFF7FEFF 		bl	lv_obj_get_style_prop
 774              	.LVL76:
 775 0062 0646     		mov	r6, r0
 776              	.LVL77:
  58:lvgl/lvgl/src/core/lv_obj_style_gen.h **** }
 777              		.loc 2 58 5 is_stmt 1 view .LVU238
  58:lvgl/lvgl/src/core/lv_obj_style_gen.h **** }
 778              		.loc 2 58 5 is_stmt 0 view .LVU239
ARM GAS  C:\Users\gx\AppData\Local\Temp\cccIVLs9.s 			page 42


 779              	.LBE131:
 780              	.LBE130:
 453:lvgl/lvgl/src/core/lv_obj.c ****         lv_area_t coords;
 781              		.loc 1 453 9 is_stmt 1 view .LVU240
 782              	.LBB132:
 783              	.LBI132:
  61:lvgl/lvgl/src/core/lv_obj_style_gen.h **** {
 784              		.loc 2 61 26 view .LVU241
 785              	.LBB133:
  63:lvgl/lvgl/src/core/lv_obj_style_gen.h ****     return (lv_coord_t)v.num;
 786              		.loc 2 63 5 view .LVU242
  63:lvgl/lvgl/src/core/lv_obj_style_gen.h ****     return (lv_coord_t)v.num;
 787              		.loc 2 63 26 is_stmt 0 view .LVU243
 788 0064 40F60B02 		movw	r2, #2059
 789 0068 0021     		movs	r1, #0
 790 006a 2046     		mov	r0, r4
 791 006c FFF7FEFF 		bl	lv_obj_get_style_prop
 792              	.LVL78:
  64:lvgl/lvgl/src/core/lv_obj_style_gen.h **** }
 793              		.loc 2 64 5 is_stmt 1 view .LVU244
  64:lvgl/lvgl/src/core/lv_obj_style_gen.h **** }
 794              		.loc 2 64 5 is_stmt 0 view .LVU245
 795              	.LBE133:
 796              	.LBE132:
 454:lvgl/lvgl/src/core/lv_obj.c ****         lv_area_copy(&coords, &obj->coords);
 797              		.loc 1 454 9 is_stmt 1 view .LVU246
 455:lvgl/lvgl/src/core/lv_obj.c ****         coords.x1 -= w;
 798              		.loc 1 455 9 view .LVU247
 799              	.LBB134:
 800              	.LBI134:
 801              		.file 3 "d:\\practise\\f407_disc\\lvgl\\lvgl\\src\\misc\\lv_area.h"
   1:d:\practise\f407_disc\lvgl\lvgl\src\misc\lv_area.h **** /**
   2:d:\practise\f407_disc\lvgl\lvgl\src\misc\lv_area.h ****  * @file lv_area.h
   3:d:\practise\f407_disc\lvgl\lvgl\src\misc\lv_area.h ****  *
   4:d:\practise\f407_disc\lvgl\lvgl\src\misc\lv_area.h ****  */
   5:d:\practise\f407_disc\lvgl\lvgl\src\misc\lv_area.h **** 
   6:d:\practise\f407_disc\lvgl\lvgl\src\misc\lv_area.h **** #ifndef LV_AREA_H
   7:d:\practise\f407_disc\lvgl\lvgl\src\misc\lv_area.h **** #define LV_AREA_H
   8:d:\practise\f407_disc\lvgl\lvgl\src\misc\lv_area.h **** 
   9:d:\practise\f407_disc\lvgl\lvgl\src\misc\lv_area.h **** #ifdef __cplusplus
  10:d:\practise\f407_disc\lvgl\lvgl\src\misc\lv_area.h **** extern "C" {
  11:d:\practise\f407_disc\lvgl\lvgl\src\misc\lv_area.h **** #endif
  12:d:\practise\f407_disc\lvgl\lvgl\src\misc\lv_area.h **** 
  13:d:\practise\f407_disc\lvgl\lvgl\src\misc\lv_area.h **** /*********************
  14:d:\practise\f407_disc\lvgl\lvgl\src\misc\lv_area.h ****  *      INCLUDES
  15:d:\practise\f407_disc\lvgl\lvgl\src\misc\lv_area.h ****  *********************/
  16:d:\practise\f407_disc\lvgl\lvgl\src\misc\lv_area.h **** #include "../lv_conf_internal.h"
  17:d:\practise\f407_disc\lvgl\lvgl\src\misc\lv_area.h **** #include <string.h>
  18:d:\practise\f407_disc\lvgl\lvgl\src\misc\lv_area.h **** #include <stdbool.h>
  19:d:\practise\f407_disc\lvgl\lvgl\src\misc\lv_area.h **** #include <stdint.h>
  20:d:\practise\f407_disc\lvgl\lvgl\src\misc\lv_area.h **** 
  21:d:\practise\f407_disc\lvgl\lvgl\src\misc\lv_area.h **** /*********************
  22:d:\practise\f407_disc\lvgl\lvgl\src\misc\lv_area.h ****  *      DEFINES
  23:d:\practise\f407_disc\lvgl\lvgl\src\misc\lv_area.h ****  *********************/
  24:d:\practise\f407_disc\lvgl\lvgl\src\misc\lv_area.h **** 
  25:d:\practise\f407_disc\lvgl\lvgl\src\misc\lv_area.h **** #define _LV_COORD_MAX_REDUCE    8192
  26:d:\practise\f407_disc\lvgl\lvgl\src\misc\lv_area.h **** 
ARM GAS  C:\Users\gx\AppData\Local\Temp\cccIVLs9.s 			page 43


  27:d:\practise\f407_disc\lvgl\lvgl\src\misc\lv_area.h **** #if LV_USE_LARGE_COORD
  28:d:\practise\f407_disc\lvgl\lvgl\src\misc\lv_area.h **** typedef int32_t lv_coord_t;
  29:d:\practise\f407_disc\lvgl\lvgl\src\misc\lv_area.h **** #else
  30:d:\practise\f407_disc\lvgl\lvgl\src\misc\lv_area.h **** typedef int16_t lv_coord_t;
  31:d:\practise\f407_disc\lvgl\lvgl\src\misc\lv_area.h **** #endif
  32:d:\practise\f407_disc\lvgl\lvgl\src\misc\lv_area.h **** 
  33:d:\practise\f407_disc\lvgl\lvgl\src\misc\lv_area.h **** /*To allow some special values in the end reduce the max value*/
  34:d:\practise\f407_disc\lvgl\lvgl\src\misc\lv_area.h **** #define LV_COORD_MAX ((lv_coord_t)((uint32_t)((uint32_t)1 << (8 * sizeof(lv_coord_t) - 1)) - _LV_CO
  35:d:\practise\f407_disc\lvgl\lvgl\src\misc\lv_area.h **** #define LV_COORD_MIN (-LV_COORD_MAX)
  36:d:\practise\f407_disc\lvgl\lvgl\src\misc\lv_area.h **** 
  37:d:\practise\f407_disc\lvgl\lvgl\src\misc\lv_area.h **** LV_EXPORT_CONST_INT(LV_COORD_MAX);
  38:d:\practise\f407_disc\lvgl\lvgl\src\misc\lv_area.h **** LV_EXPORT_CONST_INT(LV_COORD_MIN);
  39:d:\practise\f407_disc\lvgl\lvgl\src\misc\lv_area.h **** 
  40:d:\practise\f407_disc\lvgl\lvgl\src\misc\lv_area.h **** /**********************
  41:d:\practise\f407_disc\lvgl\lvgl\src\misc\lv_area.h ****  *      TYPEDEFS
  42:d:\practise\f407_disc\lvgl\lvgl\src\misc\lv_area.h ****  **********************/
  43:d:\practise\f407_disc\lvgl\lvgl\src\misc\lv_area.h **** 
  44:d:\practise\f407_disc\lvgl\lvgl\src\misc\lv_area.h **** /**
  45:d:\practise\f407_disc\lvgl\lvgl\src\misc\lv_area.h ****  * Represents a point on the screen.
  46:d:\practise\f407_disc\lvgl\lvgl\src\misc\lv_area.h ****  */
  47:d:\practise\f407_disc\lvgl\lvgl\src\misc\lv_area.h **** typedef struct {
  48:d:\practise\f407_disc\lvgl\lvgl\src\misc\lv_area.h ****     lv_coord_t x;
  49:d:\practise\f407_disc\lvgl\lvgl\src\misc\lv_area.h ****     lv_coord_t y;
  50:d:\practise\f407_disc\lvgl\lvgl\src\misc\lv_area.h **** } lv_point_t;
  51:d:\practise\f407_disc\lvgl\lvgl\src\misc\lv_area.h **** 
  52:d:\practise\f407_disc\lvgl\lvgl\src\misc\lv_area.h **** /** Represents an area of the screen.*/
  53:d:\practise\f407_disc\lvgl\lvgl\src\misc\lv_area.h **** typedef struct {
  54:d:\practise\f407_disc\lvgl\lvgl\src\misc\lv_area.h ****     lv_coord_t x1;
  55:d:\practise\f407_disc\lvgl\lvgl\src\misc\lv_area.h ****     lv_coord_t y1;
  56:d:\practise\f407_disc\lvgl\lvgl\src\misc\lv_area.h ****     lv_coord_t x2;
  57:d:\practise\f407_disc\lvgl\lvgl\src\misc\lv_area.h ****     lv_coord_t y2;
  58:d:\practise\f407_disc\lvgl\lvgl\src\misc\lv_area.h **** } lv_area_t;
  59:d:\practise\f407_disc\lvgl\lvgl\src\misc\lv_area.h **** 
  60:d:\practise\f407_disc\lvgl\lvgl\src\misc\lv_area.h **** /** Alignments*/
  61:d:\practise\f407_disc\lvgl\lvgl\src\misc\lv_area.h **** enum {
  62:d:\practise\f407_disc\lvgl\lvgl\src\misc\lv_area.h ****     LV_ALIGN_DEFAULT = 0,
  63:d:\practise\f407_disc\lvgl\lvgl\src\misc\lv_area.h ****     LV_ALIGN_TOP_LEFT,
  64:d:\practise\f407_disc\lvgl\lvgl\src\misc\lv_area.h ****     LV_ALIGN_TOP_MID,
  65:d:\practise\f407_disc\lvgl\lvgl\src\misc\lv_area.h ****     LV_ALIGN_TOP_RIGHT,
  66:d:\practise\f407_disc\lvgl\lvgl\src\misc\lv_area.h ****     LV_ALIGN_BOTTOM_LEFT,
  67:d:\practise\f407_disc\lvgl\lvgl\src\misc\lv_area.h ****     LV_ALIGN_BOTTOM_MID,
  68:d:\practise\f407_disc\lvgl\lvgl\src\misc\lv_area.h ****     LV_ALIGN_BOTTOM_RIGHT,
  69:d:\practise\f407_disc\lvgl\lvgl\src\misc\lv_area.h ****     LV_ALIGN_LEFT_MID,
  70:d:\practise\f407_disc\lvgl\lvgl\src\misc\lv_area.h ****     LV_ALIGN_RIGHT_MID,
  71:d:\practise\f407_disc\lvgl\lvgl\src\misc\lv_area.h ****     LV_ALIGN_CENTER,
  72:d:\practise\f407_disc\lvgl\lvgl\src\misc\lv_area.h **** 
  73:d:\practise\f407_disc\lvgl\lvgl\src\misc\lv_area.h ****     LV_ALIGN_OUT_TOP_LEFT,
  74:d:\practise\f407_disc\lvgl\lvgl\src\misc\lv_area.h ****     LV_ALIGN_OUT_TOP_MID,
  75:d:\practise\f407_disc\lvgl\lvgl\src\misc\lv_area.h ****     LV_ALIGN_OUT_TOP_RIGHT,
  76:d:\practise\f407_disc\lvgl\lvgl\src\misc\lv_area.h ****     LV_ALIGN_OUT_BOTTOM_LEFT,
  77:d:\practise\f407_disc\lvgl\lvgl\src\misc\lv_area.h ****     LV_ALIGN_OUT_BOTTOM_MID,
  78:d:\practise\f407_disc\lvgl\lvgl\src\misc\lv_area.h ****     LV_ALIGN_OUT_BOTTOM_RIGHT,
  79:d:\practise\f407_disc\lvgl\lvgl\src\misc\lv_area.h ****     LV_ALIGN_OUT_LEFT_TOP,
  80:d:\practise\f407_disc\lvgl\lvgl\src\misc\lv_area.h ****     LV_ALIGN_OUT_LEFT_MID,
  81:d:\practise\f407_disc\lvgl\lvgl\src\misc\lv_area.h ****     LV_ALIGN_OUT_LEFT_BOTTOM,
  82:d:\practise\f407_disc\lvgl\lvgl\src\misc\lv_area.h ****     LV_ALIGN_OUT_RIGHT_TOP,
  83:d:\practise\f407_disc\lvgl\lvgl\src\misc\lv_area.h ****     LV_ALIGN_OUT_RIGHT_MID,
ARM GAS  C:\Users\gx\AppData\Local\Temp\cccIVLs9.s 			page 44


  84:d:\practise\f407_disc\lvgl\lvgl\src\misc\lv_area.h ****     LV_ALIGN_OUT_RIGHT_BOTTOM,
  85:d:\practise\f407_disc\lvgl\lvgl\src\misc\lv_area.h **** };
  86:d:\practise\f407_disc\lvgl\lvgl\src\misc\lv_area.h **** typedef uint8_t lv_align_t;
  87:d:\practise\f407_disc\lvgl\lvgl\src\misc\lv_area.h **** 
  88:d:\practise\f407_disc\lvgl\lvgl\src\misc\lv_area.h **** enum {
  89:d:\practise\f407_disc\lvgl\lvgl\src\misc\lv_area.h ****     LV_DIR_NONE     = 0x00,
  90:d:\practise\f407_disc\lvgl\lvgl\src\misc\lv_area.h ****     LV_DIR_LEFT     = (1 << 0),
  91:d:\practise\f407_disc\lvgl\lvgl\src\misc\lv_area.h ****     LV_DIR_RIGHT    = (1 << 1),
  92:d:\practise\f407_disc\lvgl\lvgl\src\misc\lv_area.h ****     LV_DIR_TOP      = (1 << 2),
  93:d:\practise\f407_disc\lvgl\lvgl\src\misc\lv_area.h ****     LV_DIR_BOTTOM   = (1 << 3),
  94:d:\practise\f407_disc\lvgl\lvgl\src\misc\lv_area.h ****     LV_DIR_HOR      = LV_DIR_LEFT | LV_DIR_RIGHT,
  95:d:\practise\f407_disc\lvgl\lvgl\src\misc\lv_area.h ****     LV_DIR_VER      = LV_DIR_TOP | LV_DIR_BOTTOM,
  96:d:\practise\f407_disc\lvgl\lvgl\src\misc\lv_area.h ****     LV_DIR_ALL      = LV_DIR_HOR | LV_DIR_VER,
  97:d:\practise\f407_disc\lvgl\lvgl\src\misc\lv_area.h **** };
  98:d:\practise\f407_disc\lvgl\lvgl\src\misc\lv_area.h **** 
  99:d:\practise\f407_disc\lvgl\lvgl\src\misc\lv_area.h **** typedef uint8_t lv_dir_t;
 100:d:\practise\f407_disc\lvgl\lvgl\src\misc\lv_area.h **** 
 101:d:\practise\f407_disc\lvgl\lvgl\src\misc\lv_area.h **** /**********************
 102:d:\practise\f407_disc\lvgl\lvgl\src\misc\lv_area.h ****  * GLOBAL PROTOTYPES
 103:d:\practise\f407_disc\lvgl\lvgl\src\misc\lv_area.h ****  **********************/
 104:d:\practise\f407_disc\lvgl\lvgl\src\misc\lv_area.h **** 
 105:d:\practise\f407_disc\lvgl\lvgl\src\misc\lv_area.h **** /**
 106:d:\practise\f407_disc\lvgl\lvgl\src\misc\lv_area.h ****  * Initialize an area
 107:d:\practise\f407_disc\lvgl\lvgl\src\misc\lv_area.h ****  * @param area_p pointer to an area
 108:d:\practise\f407_disc\lvgl\lvgl\src\misc\lv_area.h ****  * @param x1 left coordinate of the area
 109:d:\practise\f407_disc\lvgl\lvgl\src\misc\lv_area.h ****  * @param y1 top coordinate of the area
 110:d:\practise\f407_disc\lvgl\lvgl\src\misc\lv_area.h ****  * @param x2 right coordinate of the area
 111:d:\practise\f407_disc\lvgl\lvgl\src\misc\lv_area.h ****  * @param y2 bottom coordinate of the area
 112:d:\practise\f407_disc\lvgl\lvgl\src\misc\lv_area.h ****  */
 113:d:\practise\f407_disc\lvgl\lvgl\src\misc\lv_area.h **** void lv_area_set(lv_area_t * area_p, lv_coord_t x1, lv_coord_t y1, lv_coord_t x2, lv_coord_t y2);
 114:d:\practise\f407_disc\lvgl\lvgl\src\misc\lv_area.h **** 
 115:d:\practise\f407_disc\lvgl\lvgl\src\misc\lv_area.h **** /**
 116:d:\practise\f407_disc\lvgl\lvgl\src\misc\lv_area.h ****  * Copy an area
 117:d:\practise\f407_disc\lvgl\lvgl\src\misc\lv_area.h ****  * @param dest pointer to the destination area
 118:d:\practise\f407_disc\lvgl\lvgl\src\misc\lv_area.h ****  * @param src pointer to the source area
 119:d:\practise\f407_disc\lvgl\lvgl\src\misc\lv_area.h ****  */
 120:d:\practise\f407_disc\lvgl\lvgl\src\misc\lv_area.h **** inline static void lv_area_copy(lv_area_t * dest, const lv_area_t * src)
 802              		.loc 3 120 20 view .LVU248
 803              	.LBB135:
 121:d:\practise\f407_disc\lvgl\lvgl\src\misc\lv_area.h **** {
 122:d:\practise\f407_disc\lvgl\lvgl\src\misc\lv_area.h ****     dest->x1 = src->x1;
 804              		.loc 3 122 5 view .LVU249
 805              		.loc 3 122 19 is_stmt 0 view .LVU250
 806 0070 B4F91410 		ldrsh	r1, [r4, #20]
 123:d:\practise\f407_disc\lvgl\lvgl\src\misc\lv_area.h ****     dest->y1 = src->y1;
 807              		.loc 3 123 5 is_stmt 1 view .LVU251
 808              		.loc 3 123 19 is_stmt 0 view .LVU252
 809 0074 B4F91620 		ldrsh	r2, [r4, #22]
 124:d:\practise\f407_disc\lvgl\lvgl\src\misc\lv_area.h ****     dest->x2 = src->x2;
 810              		.loc 3 124 5 is_stmt 1 view .LVU253
 811              		.loc 3 124 19 is_stmt 0 view .LVU254
 812 0078 B4F918E0 		ldrsh	lr, [r4, #24]
 125:d:\practise\f407_disc\lvgl\lvgl\src\misc\lv_area.h ****     dest->y2 = src->y2;
 813              		.loc 3 125 5 is_stmt 1 view .LVU255
 814              		.loc 3 125 19 is_stmt 0 view .LVU256
 815 007c B4F91AC0 		ldrsh	ip, [r4, #26]
 816              	.LVL79:
ARM GAS  C:\Users\gx\AppData\Local\Temp\cccIVLs9.s 			page 45


 817              		.loc 3 125 19 view .LVU257
 818              	.LBE135:
 819              	.LBE134:
 456:lvgl/lvgl/src/core/lv_obj.c ****         coords.x2 += w;
 820              		.loc 1 456 9 is_stmt 1 view .LVU258
 456:lvgl/lvgl/src/core/lv_obj.c ****         coords.x2 += w;
 821              		.loc 1 456 19 is_stmt 0 view .LVU259
 822 0080 B3B2     		uxth	r3, r6
 823 0082 C91A     		subs	r1, r1, r3
 824 0084 ADF83C10 		strh	r1, [sp, #60]	@ movhi
 457:lvgl/lvgl/src/core/lv_obj.c ****         coords.y1 -= h;
 825              		.loc 1 457 9 is_stmt 1 view .LVU260
 457:lvgl/lvgl/src/core/lv_obj.c ****         coords.y1 -= h;
 826              		.loc 1 457 19 is_stmt 0 view .LVU261
 827 0088 7344     		add	r3, r3, lr
 828 008a ADF84030 		strh	r3, [sp, #64]	@ movhi
 458:lvgl/lvgl/src/core/lv_obj.c ****         coords.y2 += h;
 829              		.loc 1 458 9 is_stmt 1 view .LVU262
 458:lvgl/lvgl/src/core/lv_obj.c ****         coords.y2 += h;
 830              		.loc 1 458 19 is_stmt 0 view .LVU263
 831 008e 80B2     		uxth	r0, r0
 458:lvgl/lvgl/src/core/lv_obj.c ****         coords.y2 += h;
 832              		.loc 1 458 19 view .LVU264
 833 0090 121A     		subs	r2, r2, r0
 834 0092 ADF83E20 		strh	r2, [sp, #62]	@ movhi
 459:lvgl/lvgl/src/core/lv_obj.c **** 
 835              		.loc 1 459 9 is_stmt 1 view .LVU265
 459:lvgl/lvgl/src/core/lv_obj.c **** 
 836              		.loc 1 459 19 is_stmt 0 view .LVU266
 837 0096 6044     		add	r0, r0, ip
 838              	.LVL80:
 459:lvgl/lvgl/src/core/lv_obj.c **** 
 839              		.loc 1 459 19 view .LVU267
 840 0098 ADF84200 		strh	r0, [sp, #66]	@ movhi
 461:lvgl/lvgl/src/core/lv_obj.c ****             info->res = LV_COVER_RES_NOT_COVER;
 841              		.loc 1 461 9 is_stmt 1 view .LVU268
 461:lvgl/lvgl/src/core/lv_obj.c ****             info->res = LV_COVER_RES_NOT_COVER;
 842              		.loc 1 461 12 is_stmt 0 view .LVU269
 843 009c 3A46     		mov	r2, r7
 844 009e 0FA9     		add	r1, sp, #60
 845 00a0 6868     		ldr	r0, [r5, #4]
 846 00a2 FFF7FEFF 		bl	_lv_area_is_in
 847              	.LVL81:
 461:lvgl/lvgl/src/core/lv_obj.c ****             info->res = LV_COVER_RES_NOT_COVER;
 848              		.loc 1 461 11 view .LVU270
 849 00a6 10B9     		cbnz	r0, .L40
 462:lvgl/lvgl/src/core/lv_obj.c ****            return;
 850              		.loc 1 462 13 is_stmt 1 view .LVU271
 462:lvgl/lvgl/src/core/lv_obj.c ****            return;
 851              		.loc 1 462 23 is_stmt 0 view .LVU272
 852 00a8 0123     		movs	r3, #1
 853 00aa 2B70     		strb	r3, [r5]
 463:lvgl/lvgl/src/core/lv_obj.c ****         }
 854              		.loc 1 463 12 is_stmt 1 view .LVU273
 855 00ac BAE7     		b	.L36
 856              	.L40:
 466:lvgl/lvgl/src/core/lv_obj.c ****             info->res = LV_COVER_RES_NOT_COVER;
ARM GAS  C:\Users\gx\AppData\Local\Temp\cccIVLs9.s 			page 46


 857              		.loc 1 466 9 view .LVU274
 858              	.LVL82:
 859              	.LBB136:
 860              	.LBI136:
 205:lvgl/lvgl/src/core/lv_obj_style_gen.h **** {
 861              		.loc 2 205 24 view .LVU275
 862              	.LBB137:
 207:lvgl/lvgl/src/core/lv_obj_style_gen.h ****     return (lv_opa_t)v.num;
 863              		.loc 2 207 5 view .LVU276
 207:lvgl/lvgl/src/core/lv_obj_style_gen.h ****     return (lv_opa_t)v.num;
 864              		.loc 2 207 26 is_stmt 0 view .LVU277
 865 00ae 2122     		movs	r2, #33
 866 00b0 0021     		movs	r1, #0
 867 00b2 2046     		mov	r0, r4
 868 00b4 FFF7FEFF 		bl	lv_obj_get_style_prop
 869              	.LVL83:
 208:lvgl/lvgl/src/core/lv_obj_style_gen.h **** }
 870              		.loc 2 208 5 is_stmt 1 view .LVU278
 208:lvgl/lvgl/src/core/lv_obj_style_gen.h **** }
 871              		.loc 2 208 12 is_stmt 0 view .LVU279
 872 00b8 C0B2     		uxtb	r0, r0
 873              	.LVL84:
 208:lvgl/lvgl/src/core/lv_obj_style_gen.h **** }
 874              		.loc 2 208 12 view .LVU280
 875              	.LBE137:
 876              	.LBE136:
 466:lvgl/lvgl/src/core/lv_obj.c ****             info->res = LV_COVER_RES_NOT_COVER;
 877              		.loc 1 466 11 view .LVU281
 878 00ba FC28     		cmp	r0, #252
 879 00bc 02D8     		bhi	.L41
 467:lvgl/lvgl/src/core/lv_obj.c ****             return;
 880              		.loc 1 467 13 is_stmt 1 view .LVU282
 467:lvgl/lvgl/src/core/lv_obj.c ****             return;
 881              		.loc 1 467 23 is_stmt 0 view .LVU283
 882 00be 0123     		movs	r3, #1
 883 00c0 2B70     		strb	r3, [r5]
 468:lvgl/lvgl/src/core/lv_obj.c ****         }
 884              		.loc 1 468 13 is_stmt 1 view .LVU284
 885 00c2 AFE7     		b	.L36
 886              	.L41:
 472:lvgl/lvgl/src/core/lv_obj.c ****             info->res = LV_COVER_RES_NOT_COVER;
 887              		.loc 1 472 9 view .LVU285
 888              	.LVL85:
 889              	.LBB138:
 890              	.LBI138:
 175:lvgl/lvgl/src/core/lv_obj_style_gen.h **** {
 891              		.loc 2 175 31 view .LVU286
 892              	.LBB139:
 177:lvgl/lvgl/src/core/lv_obj_style_gen.h ****     return (lv_blend_mode_t)v.num;
 893              		.loc 2 177 5 view .LVU287
 177:lvgl/lvgl/src/core/lv_obj_style_gen.h ****     return (lv_blend_mode_t)v.num;
 894              		.loc 2 177 26 is_stmt 0 view .LVU288
 895 00c4 6822     		movs	r2, #104
 896 00c6 0021     		movs	r1, #0
 897 00c8 2046     		mov	r0, r4
 898 00ca FFF7FEFF 		bl	lv_obj_get_style_prop
 899              	.LVL86:
ARM GAS  C:\Users\gx\AppData\Local\Temp\cccIVLs9.s 			page 47


 178:lvgl/lvgl/src/core/lv_obj_style_gen.h **** }
 900              		.loc 2 178 5 is_stmt 1 view .LVU289
 178:lvgl/lvgl/src/core/lv_obj_style_gen.h **** }
 901              		.loc 2 178 5 is_stmt 0 view .LVU290
 902              	.LBE139:
 903              	.LBE138:
 472:lvgl/lvgl/src/core/lv_obj.c ****             info->res = LV_COVER_RES_NOT_COVER;
 904              		.loc 1 472 11 view .LVU291
 905 00ce 10F0FF0F 		tst	r0, #255
 906 00d2 02D0     		beq	.L42
 473:lvgl/lvgl/src/core/lv_obj.c ****             return;
 907              		.loc 1 473 13 is_stmt 1 view .LVU292
 473:lvgl/lvgl/src/core/lv_obj.c ****             return;
 908              		.loc 1 473 23 is_stmt 0 view .LVU293
 909 00d4 0123     		movs	r3, #1
 910 00d6 2B70     		strb	r3, [r5]
 474:lvgl/lvgl/src/core/lv_obj.c ****         }
 911              		.loc 1 474 13 is_stmt 1 view .LVU294
 912 00d8 A4E7     		b	.L36
 913              	.L42:
 477:lvgl/lvgl/src/core/lv_obj.c ****             info->res = LV_COVER_RES_NOT_COVER;
 914              		.loc 1 477 9 view .LVU295
 915              	.LVL87:
 916              	.LBB140:
 917              	.LBI140:
 139:lvgl/lvgl/src/core/lv_obj_style_gen.h **** {
 918              		.loc 2 139 24 view .LVU296
 919              	.LBB141:
 141:lvgl/lvgl/src/core/lv_obj_style_gen.h ****     return (lv_opa_t)v.num;
 920              		.loc 2 141 5 view .LVU297
 141:lvgl/lvgl/src/core/lv_obj_style_gen.h ****     return (lv_opa_t)v.num;
 921              		.loc 2 141 26 is_stmt 0 view .LVU298
 922 00da 40F26242 		movw	r2, #1122
 923 00de 0021     		movs	r1, #0
 924 00e0 2046     		mov	r0, r4
 925 00e2 FFF7FEFF 		bl	lv_obj_get_style_prop
 926              	.LVL88:
 142:lvgl/lvgl/src/core/lv_obj_style_gen.h **** }
 927              		.loc 2 142 5 is_stmt 1 view .LVU299
 142:lvgl/lvgl/src/core/lv_obj_style_gen.h **** }
 928              		.loc 2 142 12 is_stmt 0 view .LVU300
 929 00e6 C3B2     		uxtb	r3, r0
 930              	.LVL89:
 142:lvgl/lvgl/src/core/lv_obj_style_gen.h **** }
 931              		.loc 2 142 12 view .LVU301
 932              	.LBE141:
 933              	.LBE140:
 477:lvgl/lvgl/src/core/lv_obj.c ****             info->res = LV_COVER_RES_NOT_COVER;
 934              		.loc 1 477 11 view .LVU302
 935 00e8 FC2B     		cmp	r3, #252
 936 00ea 02D9     		bls	.L53
 482:lvgl/lvgl/src/core/lv_obj.c **** 
 937              		.loc 1 482 9 is_stmt 1 view .LVU303
 482:lvgl/lvgl/src/core/lv_obj.c **** 
 938              		.loc 1 482 19 is_stmt 0 view .LVU304
 939 00ec 0023     		movs	r3, #0
 940 00ee 2B70     		strb	r3, [r5]
ARM GAS  C:\Users\gx\AppData\Local\Temp\cccIVLs9.s 			page 48


 941              	.LBE125:
 942 00f0 98E7     		b	.L36
 943              	.L53:
 944              	.LBB142:
 478:lvgl/lvgl/src/core/lv_obj.c ****             return;
 945              		.loc 1 478 13 is_stmt 1 view .LVU305
 478:lvgl/lvgl/src/core/lv_obj.c ****             return;
 946              		.loc 1 478 23 is_stmt 0 view .LVU306
 947 00f2 0123     		movs	r3, #1
 948 00f4 2B70     		strb	r3, [r5]
 479:lvgl/lvgl/src/core/lv_obj.c ****         }
 949              		.loc 1 479 13 is_stmt 1 view .LVU307
 950 00f6 95E7     		b	.L36
 951              	.LVL90:
 952              	.L51:
 479:lvgl/lvgl/src/core/lv_obj.c ****         }
 953              		.loc 1 479 13 is_stmt 0 view .LVU308
 954              	.LBE142:
 955              	.LBB143:
 486:lvgl/lvgl/src/core/lv_obj.c ****         lv_draw_rect_dsc_t draw_dsc;
 956              		.loc 1 486 9 is_stmt 1 view .LVU309
 486:lvgl/lvgl/src/core/lv_obj.c ****         lv_draw_rect_dsc_t draw_dsc;
 957              		.loc 1 486 39 is_stmt 0 view .LVU310
 958 00f8 3046     		mov	r0, r6
 959              	.LVL91:
 486:lvgl/lvgl/src/core/lv_obj.c ****         lv_draw_rect_dsc_t draw_dsc;
 960              		.loc 1 486 39 view .LVU311
 961 00fa FFF7FEFF 		bl	lv_event_get_param
 962              	.LVL92:
 963 00fe 0646     		mov	r6, r0
 964              	.LVL93:
 487:lvgl/lvgl/src/core/lv_obj.c ****         lv_draw_rect_dsc_init(&draw_dsc);
 965              		.loc 1 487 9 is_stmt 1 view .LVU312
 488:lvgl/lvgl/src/core/lv_obj.c ****         /*If the border is drawn later disable loading its properties*/
 966              		.loc 1 488 9 view .LVU313
 967 0100 02A8     		add	r0, sp, #8
 968              	.LVL94:
 488:lvgl/lvgl/src/core/lv_obj.c ****         /*If the border is drawn later disable loading its properties*/
 969              		.loc 1 488 9 is_stmt 0 view .LVU314
 970 0102 FFF7FEFF 		bl	lv_draw_rect_dsc_init
 971              	.LVL95:
 490:lvgl/lvgl/src/core/lv_obj.c ****             draw_dsc.border_post = 1;
 972              		.loc 1 490 9 is_stmt 1 view .LVU315
 973              	.LBB144:
 974              	.LBI144:
 307:lvgl/lvgl/src/core/lv_obj_style_gen.h **** {
 975              		.loc 2 307 20 view .LVU316
 976              	.LBB145:
 309:lvgl/lvgl/src/core/lv_obj_style_gen.h ****     return (bool)v.num;
 977              		.loc 2 309 5 view .LVU317
 309:lvgl/lvgl/src/core/lv_obj_style_gen.h ****     return (bool)v.num;
 978              		.loc 2 309 26 is_stmt 0 view .LVU318
 979 0106 3422     		movs	r2, #52
 980 0108 0021     		movs	r1, #0
 981 010a 2046     		mov	r0, r4
 982 010c FFF7FEFF 		bl	lv_obj_get_style_prop
 983              	.LVL96:
ARM GAS  C:\Users\gx\AppData\Local\Temp\cccIVLs9.s 			page 49


 310:lvgl/lvgl/src/core/lv_obj_style_gen.h **** }
 984              		.loc 2 310 5 is_stmt 1 view .LVU319
 310:lvgl/lvgl/src/core/lv_obj_style_gen.h **** }
 985              		.loc 2 310 5 is_stmt 0 view .LVU320
 986              	.LBE145:
 987              	.LBE144:
 490:lvgl/lvgl/src/core/lv_obj.c ****             draw_dsc.border_post = 1;
 988              		.loc 1 490 11 view .LVU321
 989 0110 28B1     		cbz	r0, .L46
 491:lvgl/lvgl/src/core/lv_obj.c ****         }
 990              		.loc 1 491 13 is_stmt 1 view .LVU322
 491:lvgl/lvgl/src/core/lv_obj.c ****         }
 991              		.loc 1 491 34 is_stmt 0 view .LVU323
 992 0112 9DF82730 		ldrb	r3, [sp, #39]	@ zero_extendqisi2
 993 0116 43F00103 		orr	r3, r3, #1
 994 011a 8DF82730 		strb	r3, [sp, #39]
 995              	.L46:
 494:lvgl/lvgl/src/core/lv_obj.c **** 
 996              		.loc 1 494 9 is_stmt 1 view .LVU324
 997 011e 02AF     		add	r7, sp, #8
 998 0120 3A46     		mov	r2, r7
 999 0122 0021     		movs	r1, #0
 1000 0124 2046     		mov	r0, r4
 1001 0126 FFF7FEFF 		bl	lv_obj_init_draw_rect_dsc
 1002              	.LVL97:
 496:lvgl/lvgl/src/core/lv_obj.c ****         lv_coord_t h = lv_obj_get_style_transform_height(obj, LV_PART_MAIN);
 1003              		.loc 1 496 9 view .LVU325
 1004              	.LBB146:
 1005              	.LBI146:
  55:lvgl/lvgl/src/core/lv_obj_style_gen.h **** {
 1006              		.loc 2 55 26 view .LVU326
 1007              	.LBB147:
  57:lvgl/lvgl/src/core/lv_obj_style_gen.h ****     return (lv_coord_t)v.num;
 1008              		.loc 2 57 5 view .LVU327
  57:lvgl/lvgl/src/core/lv_obj_style_gen.h ****     return (lv_coord_t)v.num;
 1009              		.loc 2 57 26 is_stmt 0 view .LVU328
 1010 012a 40F60A02 		movw	r2, #2058
 1011 012e 0021     		movs	r1, #0
 1012 0130 2046     		mov	r0, r4
 1013 0132 FFF7FEFF 		bl	lv_obj_get_style_prop
 1014              	.LVL98:
 1015 0136 0546     		mov	r5, r0
 1016              	.LVL99:
  58:lvgl/lvgl/src/core/lv_obj_style_gen.h **** }
 1017              		.loc 2 58 5 is_stmt 1 view .LVU329
  58:lvgl/lvgl/src/core/lv_obj_style_gen.h **** }
 1018              		.loc 2 58 5 is_stmt 0 view .LVU330
 1019              	.LBE147:
 1020              	.LBE146:
 497:lvgl/lvgl/src/core/lv_obj.c ****         lv_area_t coords;
 1021              		.loc 1 497 9 is_stmt 1 view .LVU331
 1022              	.LBB148:
 1023              	.LBI148:
  61:lvgl/lvgl/src/core/lv_obj_style_gen.h **** {
 1024              		.loc 2 61 26 view .LVU332
 1025              	.LBB149:
  63:lvgl/lvgl/src/core/lv_obj_style_gen.h ****     return (lv_coord_t)v.num;
ARM GAS  C:\Users\gx\AppData\Local\Temp\cccIVLs9.s 			page 50


 1026              		.loc 2 63 5 view .LVU333
  63:lvgl/lvgl/src/core/lv_obj_style_gen.h ****     return (lv_coord_t)v.num;
 1027              		.loc 2 63 26 is_stmt 0 view .LVU334
 1028 0138 40F60B02 		movw	r2, #2059
 1029 013c 0021     		movs	r1, #0
 1030 013e 2046     		mov	r0, r4
 1031 0140 FFF7FEFF 		bl	lv_obj_get_style_prop
 1032              	.LVL100:
  64:lvgl/lvgl/src/core/lv_obj_style_gen.h **** }
 1033              		.loc 2 64 5 is_stmt 1 view .LVU335
  64:lvgl/lvgl/src/core/lv_obj_style_gen.h **** }
 1034              		.loc 2 64 5 is_stmt 0 view .LVU336
 1035              	.LBE149:
 1036              	.LBE148:
 498:lvgl/lvgl/src/core/lv_obj.c ****         lv_area_copy(&coords, &obj->coords);
 1037              		.loc 1 498 9 is_stmt 1 view .LVU337
 499:lvgl/lvgl/src/core/lv_obj.c ****         coords.x1 -= w;
 1038              		.loc 1 499 9 view .LVU338
 1039              	.LBB150:
 1040              	.LBI150:
 120:d:\practise\f407_disc\lvgl\lvgl\src\misc\lv_area.h **** {
 1041              		.loc 3 120 20 view .LVU339
 1042              	.LBB151:
 122:d:\practise\f407_disc\lvgl\lvgl\src\misc\lv_area.h ****     dest->y1 = src->y1;
 1043              		.loc 3 122 5 view .LVU340
 122:d:\practise\f407_disc\lvgl\lvgl\src\misc\lv_area.h ****     dest->y1 = src->y1;
 1044              		.loc 3 122 19 is_stmt 0 view .LVU341
 1045 0144 B4F914C0 		ldrsh	ip, [r4, #20]
 123:d:\practise\f407_disc\lvgl\lvgl\src\misc\lv_area.h ****     dest->x2 = src->x2;
 1046              		.loc 3 123 5 is_stmt 1 view .LVU342
 123:d:\practise\f407_disc\lvgl\lvgl\src\misc\lv_area.h ****     dest->x2 = src->x2;
 1047              		.loc 3 123 19 is_stmt 0 view .LVU343
 1048 0148 B4F91610 		ldrsh	r1, [r4, #22]
 124:d:\practise\f407_disc\lvgl\lvgl\src\misc\lv_area.h ****     dest->y2 = src->y2;
 1049              		.loc 3 124 5 is_stmt 1 view .LVU344
 124:d:\practise\f407_disc\lvgl\lvgl\src\misc\lv_area.h ****     dest->y2 = src->y2;
 1050              		.loc 3 124 19 is_stmt 0 view .LVU345
 1051 014c B4F91830 		ldrsh	r3, [r4, #24]
 1052              		.loc 3 125 5 is_stmt 1 view .LVU346
 1053              		.loc 3 125 19 is_stmt 0 view .LVU347
 1054 0150 B4F91AE0 		ldrsh	lr, [r4, #26]
 1055              	.LVL101:
 1056              		.loc 3 125 19 view .LVU348
 1057              	.LBE151:
 1058              	.LBE150:
 500:lvgl/lvgl/src/core/lv_obj.c ****         coords.x2 += w;
 1059              		.loc 1 500 9 is_stmt 1 view .LVU349
 500:lvgl/lvgl/src/core/lv_obj.c ****         coords.x2 += w;
 1060              		.loc 1 500 19 is_stmt 0 view .LVU350
 1061 0154 AAB2     		uxth	r2, r5
 1062 0156 ACEB0205 		sub	r5, ip, r2
 1063              	.LVL102:
 500:lvgl/lvgl/src/core/lv_obj.c ****         coords.x2 += w;
 1064              		.loc 1 500 19 view .LVU351
 1065 015a ADF80050 		strh	r5, [sp]	@ movhi
 501:lvgl/lvgl/src/core/lv_obj.c ****         coords.y1 -= h;
 1066              		.loc 1 501 9 is_stmt 1 view .LVU352
ARM GAS  C:\Users\gx\AppData\Local\Temp\cccIVLs9.s 			page 51


 501:lvgl/lvgl/src/core/lv_obj.c ****         coords.y1 -= h;
 1067              		.loc 1 501 19 is_stmt 0 view .LVU353
 1068 015e 1A44     		add	r2, r2, r3
 1069              	.LVL103:
 501:lvgl/lvgl/src/core/lv_obj.c ****         coords.y1 -= h;
 1070              		.loc 1 501 19 view .LVU354
 1071 0160 ADF80420 		strh	r2, [sp, #4]	@ movhi
 502:lvgl/lvgl/src/core/lv_obj.c ****         coords.y2 += h;
 1072              		.loc 1 502 9 is_stmt 1 view .LVU355
 502:lvgl/lvgl/src/core/lv_obj.c ****         coords.y2 += h;
 1073              		.loc 1 502 19 is_stmt 0 view .LVU356
 1074 0164 83B2     		uxth	r3, r0
 1075 0166 C91A     		subs	r1, r1, r3
 1076 0168 ADF80210 		strh	r1, [sp, #2]	@ movhi
 503:lvgl/lvgl/src/core/lv_obj.c **** 
 1077              		.loc 1 503 9 is_stmt 1 view .LVU357
 503:lvgl/lvgl/src/core/lv_obj.c **** 
 1078              		.loc 1 503 19 is_stmt 0 view .LVU358
 1079 016c 7344     		add	r3, r3, lr
 1080 016e ADF80630 		strh	r3, [sp, #6]	@ movhi
 506:lvgl/lvgl/src/core/lv_obj.c ****         lv_obj_draw_dsc_init(&part_dsc, clip_area);
 1081              		.loc 1 506 9 is_stmt 1 view .LVU359
 507:lvgl/lvgl/src/core/lv_obj.c ****         part_dsc.class_p = MY_CLASS;
 1082              		.loc 1 507 9 view .LVU360
 1083 0172 3146     		mov	r1, r6
 1084 0174 0FA8     		add	r0, sp, #60
 1085              	.LVL104:
 507:lvgl/lvgl/src/core/lv_obj.c ****         part_dsc.class_p = MY_CLASS;
 1086              		.loc 1 507 9 is_stmt 0 view .LVU361
 1087 0176 FFF7FEFF 		bl	lv_obj_draw_dsc_init
 1088              	.LVL105:
 508:lvgl/lvgl/src/core/lv_obj.c ****         part_dsc.type = LV_OBJ_DRAW_PART_RECTANGLE;
 1089              		.loc 1 508 9 is_stmt 1 view .LVU362
 508:lvgl/lvgl/src/core/lv_obj.c ****         part_dsc.type = LV_OBJ_DRAW_PART_RECTANGLE;
 1090              		.loc 1 508 26 is_stmt 0 view .LVU363
 1091 017a 564B     		ldr	r3, .L55
 1092 017c 1093     		str	r3, [sp, #64]
 509:lvgl/lvgl/src/core/lv_obj.c ****         part_dsc.rect_dsc = &draw_dsc;
 1093              		.loc 1 509 9 is_stmt 1 view .LVU364
 509:lvgl/lvgl/src/core/lv_obj.c ****         part_dsc.rect_dsc = &draw_dsc;
 1094              		.loc 1 509 23 is_stmt 0 view .LVU365
 1095 017e 0025     		movs	r5, #0
 1096 0180 1195     		str	r5, [sp, #68]
 510:lvgl/lvgl/src/core/lv_obj.c ****         part_dsc.draw_area = &coords;
 1097              		.loc 1 510 9 is_stmt 1 view .LVU366
 510:lvgl/lvgl/src/core/lv_obj.c ****         part_dsc.draw_area = &coords;
 1098              		.loc 1 510 27 is_stmt 0 view .LVU367
 1099 0182 1397     		str	r7, [sp, #76]
 511:lvgl/lvgl/src/core/lv_obj.c ****         part_dsc.part = LV_PART_MAIN;
 1100              		.loc 1 511 9 is_stmt 1 view .LVU368
 511:lvgl/lvgl/src/core/lv_obj.c ****         part_dsc.part = LV_PART_MAIN;
 1101              		.loc 1 511 28 is_stmt 0 view .LVU369
 1102 0184 CDF848D0 		str	sp, [sp, #72]
 512:lvgl/lvgl/src/core/lv_obj.c ****         lv_event_send(obj, LV_EVENT_DRAW_PART_BEGIN, &part_dsc);
 1103              		.loc 1 512 9 is_stmt 1 view .LVU370
 512:lvgl/lvgl/src/core/lv_obj.c ****         lv_event_send(obj, LV_EVENT_DRAW_PART_BEGIN, &part_dsc);
 1104              		.loc 1 512 23 is_stmt 0 view .LVU371
ARM GAS  C:\Users\gx\AppData\Local\Temp\cccIVLs9.s 			page 52


 1105 0188 1B95     		str	r5, [sp, #108]
 513:lvgl/lvgl/src/core/lv_obj.c **** 
 1106              		.loc 1 513 9 is_stmt 1 view .LVU372
 1107 018a 0FAA     		add	r2, sp, #60
 1108 018c 1A21     		movs	r1, #26
 1109 018e 2046     		mov	r0, r4
 1110 0190 FFF7FEFF 		bl	lv_event_send
 1111              	.LVL106:
 515:lvgl/lvgl/src/core/lv_obj.c **** 
 1112              		.loc 1 515 9 view .LVU373
 1113 0194 3A46     		mov	r2, r7
 1114 0196 3146     		mov	r1, r6
 1115 0198 6846     		mov	r0, sp
 1116 019a FFF7FEFF 		bl	lv_draw_rect
 1117              	.LVL107:
 517:lvgl/lvgl/src/core/lv_obj.c **** 
 1118              		.loc 1 517 9 view .LVU374
 1119 019e 0FAA     		add	r2, sp, #60
 1120 01a0 1B21     		movs	r1, #27
 1121 01a2 2046     		mov	r0, r4
 1122 01a4 FFF7FEFF 		bl	lv_event_send
 1123              	.LVL108:
 520:lvgl/lvgl/src/core/lv_obj.c ****             /*If the radius is 0 the parent's coordinates will clip anyway*/
 1124              		.loc 1 520 9 view .LVU375
 1125              	.LBB152:
 1126              	.LBI152:
 133:lvgl/lvgl/src/core/lv_obj_style_gen.h **** {
 1127              		.loc 2 133 20 view .LVU376
 1128              	.LBB153:
 135:lvgl/lvgl/src/core/lv_obj_style_gen.h ****     return (bool)v.num;
 1129              		.loc 2 135 5 view .LVU377
 135:lvgl/lvgl/src/core/lv_obj_style_gen.h ****     return (bool)v.num;
 1130              		.loc 2 135 26 is_stmt 0 view .LVU378
 1131 01a8 6122     		movs	r2, #97
 1132 01aa 2946     		mov	r1, r5
 1133 01ac 2046     		mov	r0, r4
 1134 01ae FFF7FEFF 		bl	lv_obj_get_style_prop
 1135              	.LVL109:
 136:lvgl/lvgl/src/core/lv_obj_style_gen.h **** }
 1136              		.loc 2 136 5 is_stmt 1 view .LVU379
 136:lvgl/lvgl/src/core/lv_obj_style_gen.h **** }
 1137              		.loc 2 136 5 is_stmt 0 view .LVU380
 1138              	.LBE153:
 1139              	.LBE152:
 520:lvgl/lvgl/src/core/lv_obj.c ****             /*If the radius is 0 the parent's coordinates will clip anyway*/
 1140              		.loc 1 520 11 view .LVU381
 1141 01b2 0028     		cmp	r0, #0
 1142 01b4 3FF436AF 		beq	.L36
 1143              	.LBB154:
 522:lvgl/lvgl/src/core/lv_obj.c ****             if(r != 0) {
 1144              		.loc 1 522 13 is_stmt 1 view .LVU382
 1145              	.LVL110:
 1146              	.LBB155:
 1147              	.LBI155:
 127:lvgl/lvgl/src/core/lv_obj_style_gen.h **** {
 1148              		.loc 2 127 26 view .LVU383
 1149              	.LBB156:
ARM GAS  C:\Users\gx\AppData\Local\Temp\cccIVLs9.s 			page 53


 129:lvgl/lvgl/src/core/lv_obj_style_gen.h ****     return (lv_coord_t)v.num;
 1150              		.loc 2 129 5 view .LVU384
 129:lvgl/lvgl/src/core/lv_obj_style_gen.h ****     return (lv_coord_t)v.num;
 1151              		.loc 2 129 26 is_stmt 0 view .LVU385
 1152 01b8 6022     		movs	r2, #96
 1153 01ba 2946     		mov	r1, r5
 1154 01bc 2046     		mov	r0, r4
 1155 01be FFF7FEFF 		bl	lv_obj_get_style_prop
 1156              	.LVL111:
 130:lvgl/lvgl/src/core/lv_obj_style_gen.h **** }
 1157              		.loc 2 130 5 is_stmt 1 view .LVU386
 130:lvgl/lvgl/src/core/lv_obj_style_gen.h **** }
 1158              		.loc 2 130 12 is_stmt 0 view .LVU387
 1159 01c2 05B2     		sxth	r5, r0
 1160              	.LVL112:
 130:lvgl/lvgl/src/core/lv_obj_style_gen.h **** }
 1161              		.loc 2 130 12 view .LVU388
 1162              	.LBE156:
 1163              	.LBE155:
 523:lvgl/lvgl/src/core/lv_obj.c ****                 lv_draw_mask_radius_param_t * mp = lv_mem_buf_get(sizeof(lv_draw_mask_radius_param_
 1164              		.loc 1 523 13 is_stmt 1 view .LVU389
 523:lvgl/lvgl/src/core/lv_obj.c ****                 lv_draw_mask_radius_param_t * mp = lv_mem_buf_get(sizeof(lv_draw_mask_radius_param_
 1165              		.loc 1 523 15 is_stmt 0 view .LVU390
 1166 01c4 002D     		cmp	r5, #0
 1167 01c6 3FF42DAF 		beq	.L36
 1168              	.LBB157:
 524:lvgl/lvgl/src/core/lv_obj.c ****                 lv_draw_mask_radius_init(mp, &obj->coords, r, false);
 1169              		.loc 1 524 17 is_stmt 1 view .LVU391
 524:lvgl/lvgl/src/core/lv_obj.c ****                 lv_draw_mask_radius_init(mp, &obj->coords, r, false);
 1170              		.loc 1 524 52 is_stmt 0 view .LVU392
 1171 01ca 1820     		movs	r0, #24
 1172 01cc FFF7FEFF 		bl	lv_mem_buf_get
 1173              	.LVL113:
 1174 01d0 0646     		mov	r6, r0
 1175              	.LVL114:
 525:lvgl/lvgl/src/core/lv_obj.c ****                 /*Add the mask and use `obj+8` as custom id. Don't use `obj` directly because it mi
 1176              		.loc 1 525 17 is_stmt 1 view .LVU393
 1177 01d2 0023     		movs	r3, #0
 1178 01d4 2A46     		mov	r2, r5
 1179 01d6 04F11401 		add	r1, r4, #20
 1180 01da FFF7FEFF 		bl	lv_draw_mask_radius_init
 1181              	.LVL115:
 527:lvgl/lvgl/src/core/lv_obj.c ****             }
 1182              		.loc 1 527 17 view .LVU394
 1183 01de 04F59071 		add	r1, r4, #288
 1184 01e2 3046     		mov	r0, r6
 1185 01e4 FFF7FEFF 		bl	lv_draw_mask_add
 1186              	.LVL116:
 1187 01e8 1CE7     		b	.L36
 1188              	.LVL117:
 1189              	.L52:
 527:lvgl/lvgl/src/core/lv_obj.c ****             }
 1190              		.loc 1 527 17 is_stmt 0 view .LVU395
 1191              	.LBE157:
 1192              	.LBE154:
 1193              	.LBE143:
 1194              	.LBB158:
ARM GAS  C:\Users\gx\AppData\Local\Temp\cccIVLs9.s 			page 54


 533:lvgl/lvgl/src/core/lv_obj.c ****         draw_scrollbar(obj, clip_area);
 1195              		.loc 1 533 9 is_stmt 1 view .LVU396
 533:lvgl/lvgl/src/core/lv_obj.c ****         draw_scrollbar(obj, clip_area);
 1196              		.loc 1 533 39 is_stmt 0 view .LVU397
 1197 01ea 3046     		mov	r0, r6
 1198              	.LVL118:
 533:lvgl/lvgl/src/core/lv_obj.c ****         draw_scrollbar(obj, clip_area);
 1199              		.loc 1 533 39 view .LVU398
 1200 01ec FFF7FEFF 		bl	lv_event_get_param
 1201              	.LVL119:
 1202 01f0 0546     		mov	r5, r0
 1203              	.LVL120:
 534:lvgl/lvgl/src/core/lv_obj.c **** 
 1204              		.loc 1 534 9 is_stmt 1 view .LVU399
 1205 01f2 0146     		mov	r1, r0
 1206 01f4 2046     		mov	r0, r4
 1207              	.LVL121:
 534:lvgl/lvgl/src/core/lv_obj.c **** 
 1208              		.loc 1 534 9 is_stmt 0 view .LVU400
 1209 01f6 FFF7FEFF 		bl	draw_scrollbar
 1210              	.LVL122:
 537:lvgl/lvgl/src/core/lv_obj.c ****             lv_draw_mask_radius_param_t * param = lv_draw_mask_remove_custom(obj + 8);
 1211              		.loc 1 537 9 is_stmt 1 view .LVU401
 1212              	.LBB159:
 1213              	.LBI159:
 133:lvgl/lvgl/src/core/lv_obj_style_gen.h **** {
 1214              		.loc 2 133 20 view .LVU402
 1215              	.LBB160:
 135:lvgl/lvgl/src/core/lv_obj_style_gen.h ****     return (bool)v.num;
 1216              		.loc 2 135 5 view .LVU403
 135:lvgl/lvgl/src/core/lv_obj_style_gen.h ****     return (bool)v.num;
 1217              		.loc 2 135 26 is_stmt 0 view .LVU404
 1218 01fa 6122     		movs	r2, #97
 1219 01fc 0021     		movs	r1, #0
 1220 01fe 2046     		mov	r0, r4
 1221 0200 FFF7FEFF 		bl	lv_obj_get_style_prop
 1222              	.LVL123:
 136:lvgl/lvgl/src/core/lv_obj_style_gen.h **** }
 1223              		.loc 2 136 5 is_stmt 1 view .LVU405
 136:lvgl/lvgl/src/core/lv_obj_style_gen.h **** }
 1224              		.loc 2 136 5 is_stmt 0 view .LVU406
 1225              	.LBE160:
 1226              	.LBE159:
 537:lvgl/lvgl/src/core/lv_obj.c ****             lv_draw_mask_radius_param_t * param = lv_draw_mask_remove_custom(obj + 8);
 1227              		.loc 1 537 11 view .LVU407
 1228 0204 0028     		cmp	r0, #0
 1229 0206 57D1     		bne	.L54
 1230              	.LVL124:
 1231              	.L48:
 547:lvgl/lvgl/src/core/lv_obj.c ****             lv_draw_rect_dsc_t draw_dsc;
 1232              		.loc 1 547 9 is_stmt 1 view .LVU408
 1233              	.LBB161:
 1234              	.LBI161:
 307:lvgl/lvgl/src/core/lv_obj_style_gen.h **** {
 1235              		.loc 2 307 20 view .LVU409
 1236              	.LBB162:
 309:lvgl/lvgl/src/core/lv_obj_style_gen.h ****     return (bool)v.num;
ARM GAS  C:\Users\gx\AppData\Local\Temp\cccIVLs9.s 			page 55


 1237              		.loc 2 309 5 view .LVU410
 309:lvgl/lvgl/src/core/lv_obj_style_gen.h ****     return (bool)v.num;
 1238              		.loc 2 309 26 is_stmt 0 view .LVU411
 1239 0208 3422     		movs	r2, #52
 1240 020a 0021     		movs	r1, #0
 1241 020c 2046     		mov	r0, r4
 1242 020e FFF7FEFF 		bl	lv_obj_get_style_prop
 1243              	.LVL125:
 310:lvgl/lvgl/src/core/lv_obj_style_gen.h **** }
 1244              		.loc 2 310 5 is_stmt 1 view .LVU412
 310:lvgl/lvgl/src/core/lv_obj_style_gen.h **** }
 1245              		.loc 2 310 5 is_stmt 0 view .LVU413
 1246              	.LBE162:
 1247              	.LBE161:
 547:lvgl/lvgl/src/core/lv_obj.c ****             lv_draw_rect_dsc_t draw_dsc;
 1248              		.loc 1 547 11 view .LVU414
 1249 0212 0028     		cmp	r0, #0
 1250 0214 3FF406AF 		beq	.L36
 1251              	.LBB163:
 548:lvgl/lvgl/src/core/lv_obj.c ****             lv_draw_rect_dsc_init(&draw_dsc);
 1252              		.loc 1 548 13 is_stmt 1 discriminator 3 view .LVU415
 549:lvgl/lvgl/src/core/lv_obj.c ****             draw_dsc.bg_opa = LV_OPA_TRANSP;
 1253              		.loc 1 549 13 discriminator 3 view .LVU416
 1254 0218 02AF     		add	r7, sp, #8
 1255 021a 3846     		mov	r0, r7
 1256 021c FFF7FEFF 		bl	lv_draw_rect_dsc_init
 1257              	.LVL126:
 550:lvgl/lvgl/src/core/lv_obj.c ****             draw_dsc.outline_opa = LV_OPA_TRANSP;
 1258              		.loc 1 550 13 discriminator 3 view .LVU417
 550:lvgl/lvgl/src/core/lv_obj.c ****             draw_dsc.outline_opa = LV_OPA_TRANSP;
 1259              		.loc 1 550 29 is_stmt 0 discriminator 3 view .LVU418
 1260 0220 0026     		movs	r6, #0
 1261 0222 8DF81260 		strb	r6, [sp, #18]
 551:lvgl/lvgl/src/core/lv_obj.c ****             draw_dsc.shadow_opa = LV_OPA_TRANSP;
 1262              		.loc 1 551 13 is_stmt 1 discriminator 3 view .LVU419
 551:lvgl/lvgl/src/core/lv_obj.c ****             draw_dsc.shadow_opa = LV_OPA_TRANSP;
 1263              		.loc 1 551 34 is_stmt 0 discriminator 3 view .LVU420
 1264 0226 8DF82E60 		strb	r6, [sp, #46]
 552:lvgl/lvgl/src/core/lv_obj.c ****             lv_obj_init_draw_rect_dsc(obj, LV_PART_MAIN, &draw_dsc);
 1265              		.loc 1 552 13 is_stmt 1 discriminator 3 view .LVU421
 552:lvgl/lvgl/src/core/lv_obj.c ****             lv_obj_init_draw_rect_dsc(obj, LV_PART_MAIN, &draw_dsc);
 1266              		.loc 1 552 33 is_stmt 0 discriminator 3 view .LVU422
 1267 022a 8DF83A60 		strb	r6, [sp, #58]
 553:lvgl/lvgl/src/core/lv_obj.c **** 
 1268              		.loc 1 553 13 is_stmt 1 discriminator 3 view .LVU423
 1269 022e 3A46     		mov	r2, r7
 1270 0230 3146     		mov	r1, r6
 1271 0232 2046     		mov	r0, r4
 1272 0234 FFF7FEFF 		bl	lv_obj_init_draw_rect_dsc
 1273              	.LVL127:
 555:lvgl/lvgl/src/core/lv_obj.c ****             lv_coord_t h = lv_obj_get_style_transform_height(obj, LV_PART_MAIN);
 1274              		.loc 1 555 13 discriminator 3 view .LVU424
 1275              	.LBB164:
 1276              	.LBI164:
  55:lvgl/lvgl/src/core/lv_obj_style_gen.h **** {
 1277              		.loc 2 55 26 discriminator 3 view .LVU425
 1278              	.LBB165:
ARM GAS  C:\Users\gx\AppData\Local\Temp\cccIVLs9.s 			page 56


  57:lvgl/lvgl/src/core/lv_obj_style_gen.h ****     return (lv_coord_t)v.num;
 1279              		.loc 2 57 5 discriminator 3 view .LVU426
  57:lvgl/lvgl/src/core/lv_obj_style_gen.h ****     return (lv_coord_t)v.num;
 1280              		.loc 2 57 26 is_stmt 0 discriminator 3 view .LVU427
 1281 0238 40F60A02 		movw	r2, #2058
 1282 023c 3146     		mov	r1, r6
 1283 023e 2046     		mov	r0, r4
 1284 0240 FFF7FEFF 		bl	lv_obj_get_style_prop
 1285              	.LVL128:
 1286 0244 8046     		mov	r8, r0
  58:lvgl/lvgl/src/core/lv_obj_style_gen.h **** }
 1287              		.loc 2 58 5 is_stmt 1 discriminator 3 view .LVU428
 1288              	.LVL129:
  58:lvgl/lvgl/src/core/lv_obj_style_gen.h **** }
 1289              		.loc 2 58 5 is_stmt 0 discriminator 3 view .LVU429
 1290              	.LBE165:
 1291              	.LBE164:
 556:lvgl/lvgl/src/core/lv_obj.c ****             lv_area_t coords;
 1292              		.loc 1 556 13 is_stmt 1 discriminator 3 view .LVU430
 1293              	.LBB166:
 1294              	.LBI166:
  61:lvgl/lvgl/src/core/lv_obj_style_gen.h **** {
 1295              		.loc 2 61 26 discriminator 3 view .LVU431
 1296              	.LBB167:
  63:lvgl/lvgl/src/core/lv_obj_style_gen.h ****     return (lv_coord_t)v.num;
 1297              		.loc 2 63 5 discriminator 3 view .LVU432
  63:lvgl/lvgl/src/core/lv_obj_style_gen.h ****     return (lv_coord_t)v.num;
 1298              		.loc 2 63 26 is_stmt 0 discriminator 3 view .LVU433
 1299 0246 40F60B02 		movw	r2, #2059
 1300 024a 3146     		mov	r1, r6
 1301 024c 2046     		mov	r0, r4
 1302 024e FFF7FEFF 		bl	lv_obj_get_style_prop
 1303              	.LVL130:
  64:lvgl/lvgl/src/core/lv_obj_style_gen.h **** }
 1304              		.loc 2 64 5 is_stmt 1 discriminator 3 view .LVU434
  64:lvgl/lvgl/src/core/lv_obj_style_gen.h **** }
 1305              		.loc 2 64 5 is_stmt 0 discriminator 3 view .LVU435
 1306              	.LBE167:
 1307              	.LBE166:
 557:lvgl/lvgl/src/core/lv_obj.c ****             lv_area_copy(&coords, &obj->coords);
 1308              		.loc 1 557 13 is_stmt 1 discriminator 3 view .LVU436
 558:lvgl/lvgl/src/core/lv_obj.c ****             coords.x1 -= w;
 1309              		.loc 1 558 13 discriminator 3 view .LVU437
 1310              	.LBB168:
 1311              	.LBI168:
 120:d:\practise\f407_disc\lvgl\lvgl\src\misc\lv_area.h **** {
 1312              		.loc 3 120 20 discriminator 3 view .LVU438
 1313              	.LBB169:
 122:d:\practise\f407_disc\lvgl\lvgl\src\misc\lv_area.h ****     dest->y1 = src->y1;
 1314              		.loc 3 122 5 discriminator 3 view .LVU439
 122:d:\practise\f407_disc\lvgl\lvgl\src\misc\lv_area.h ****     dest->y1 = src->y1;
 1315              		.loc 3 122 19 is_stmt 0 discriminator 3 view .LVU440
 1316 0252 B4F91410 		ldrsh	r1, [r4, #20]
 123:d:\practise\f407_disc\lvgl\lvgl\src\misc\lv_area.h ****     dest->x2 = src->x2;
 1317              		.loc 3 123 5 is_stmt 1 discriminator 3 view .LVU441
 123:d:\practise\f407_disc\lvgl\lvgl\src\misc\lv_area.h ****     dest->x2 = src->x2;
 1318              		.loc 3 123 19 is_stmt 0 discriminator 3 view .LVU442
ARM GAS  C:\Users\gx\AppData\Local\Temp\cccIVLs9.s 			page 57


 1319 0256 B4F91620 		ldrsh	r2, [r4, #22]
 124:d:\practise\f407_disc\lvgl\lvgl\src\misc\lv_area.h ****     dest->y2 = src->y2;
 1320              		.loc 3 124 5 is_stmt 1 discriminator 3 view .LVU443
 124:d:\practise\f407_disc\lvgl\lvgl\src\misc\lv_area.h ****     dest->y2 = src->y2;
 1321              		.loc 3 124 19 is_stmt 0 discriminator 3 view .LVU444
 1322 025a B4F918E0 		ldrsh	lr, [r4, #24]
 1323              		.loc 3 125 5 is_stmt 1 discriminator 3 view .LVU445
 1324              		.loc 3 125 19 is_stmt 0 discriminator 3 view .LVU446
 1325 025e B4F91AC0 		ldrsh	ip, [r4, #26]
 1326              	.LVL131:
 1327              		.loc 3 125 19 discriminator 3 view .LVU447
 1328              	.LBE169:
 1329              	.LBE168:
 559:lvgl/lvgl/src/core/lv_obj.c ****             coords.x2 += w;
 1330              		.loc 1 559 13 is_stmt 1 discriminator 3 view .LVU448
 559:lvgl/lvgl/src/core/lv_obj.c ****             coords.x2 += w;
 1331              		.loc 1 559 23 is_stmt 0 discriminator 3 view .LVU449
 1332 0262 1FFA88F3 		uxth	r3, r8
 1333 0266 C91A     		subs	r1, r1, r3
 1334 0268 ADF80010 		strh	r1, [sp]	@ movhi
 560:lvgl/lvgl/src/core/lv_obj.c ****             coords.y1 -= h;
 1335              		.loc 1 560 13 is_stmt 1 discriminator 3 view .LVU450
 560:lvgl/lvgl/src/core/lv_obj.c ****             coords.y1 -= h;
 1336              		.loc 1 560 23 is_stmt 0 discriminator 3 view .LVU451
 1337 026c 7344     		add	r3, r3, lr
 1338 026e ADF80430 		strh	r3, [sp, #4]	@ movhi
 561:lvgl/lvgl/src/core/lv_obj.c ****             coords.y2 += h;
 1339              		.loc 1 561 13 is_stmt 1 discriminator 3 view .LVU452
 561:lvgl/lvgl/src/core/lv_obj.c ****             coords.y2 += h;
 1340              		.loc 1 561 23 is_stmt 0 discriminator 3 view .LVU453
 1341 0272 80B2     		uxth	r0, r0
 561:lvgl/lvgl/src/core/lv_obj.c ****             coords.y2 += h;
 1342              		.loc 1 561 23 discriminator 3 view .LVU454
 1343 0274 121A     		subs	r2, r2, r0
 1344 0276 ADF80220 		strh	r2, [sp, #2]	@ movhi
 562:lvgl/lvgl/src/core/lv_obj.c **** 
 1345              		.loc 1 562 13 is_stmt 1 discriminator 3 view .LVU455
 562:lvgl/lvgl/src/core/lv_obj.c **** 
 1346              		.loc 1 562 23 is_stmt 0 discriminator 3 view .LVU456
 1347 027a 6044     		add	r0, r0, ip
 1348              	.LVL132:
 562:lvgl/lvgl/src/core/lv_obj.c **** 
 1349              		.loc 1 562 23 discriminator 3 view .LVU457
 1350 027c ADF80600 		strh	r0, [sp, #6]	@ movhi
 564:lvgl/lvgl/src/core/lv_obj.c ****             lv_obj_draw_dsc_init(&part_dsc, clip_area);
 1351              		.loc 1 564 13 is_stmt 1 discriminator 3 view .LVU458
 565:lvgl/lvgl/src/core/lv_obj.c ****             part_dsc.class_p = MY_CLASS;
 1352              		.loc 1 565 13 discriminator 3 view .LVU459
 1353 0280 2946     		mov	r1, r5
 1354 0282 0FA8     		add	r0, sp, #60
 1355 0284 FFF7FEFF 		bl	lv_obj_draw_dsc_init
 1356              	.LVL133:
 566:lvgl/lvgl/src/core/lv_obj.c ****             part_dsc.type = LV_OBJ_DRAW_PART_BORDER_POST;
 1357              		.loc 1 566 13 discriminator 3 view .LVU460
 566:lvgl/lvgl/src/core/lv_obj.c ****             part_dsc.type = LV_OBJ_DRAW_PART_BORDER_POST;
 1358              		.loc 1 566 30 is_stmt 0 discriminator 3 view .LVU461
 1359 0288 124B     		ldr	r3, .L55
ARM GAS  C:\Users\gx\AppData\Local\Temp\cccIVLs9.s 			page 58


 1360 028a 1093     		str	r3, [sp, #64]
 567:lvgl/lvgl/src/core/lv_obj.c ****             part_dsc.rect_dsc = &draw_dsc;
 1361              		.loc 1 567 13 is_stmt 1 discriminator 3 view .LVU462
 567:lvgl/lvgl/src/core/lv_obj.c ****             part_dsc.rect_dsc = &draw_dsc;
 1362              		.loc 1 567 27 is_stmt 0 discriminator 3 view .LVU463
 1363 028c 0123     		movs	r3, #1
 1364 028e 1193     		str	r3, [sp, #68]
 568:lvgl/lvgl/src/core/lv_obj.c ****             part_dsc.draw_area = &coords;
 1365              		.loc 1 568 13 is_stmt 1 discriminator 3 view .LVU464
 568:lvgl/lvgl/src/core/lv_obj.c ****             part_dsc.draw_area = &coords;
 1366              		.loc 1 568 31 is_stmt 0 discriminator 3 view .LVU465
 1367 0290 1397     		str	r7, [sp, #76]
 569:lvgl/lvgl/src/core/lv_obj.c ****             part_dsc.part = LV_PART_MAIN;
 1368              		.loc 1 569 13 is_stmt 1 discriminator 3 view .LVU466
 569:lvgl/lvgl/src/core/lv_obj.c ****             part_dsc.part = LV_PART_MAIN;
 1369              		.loc 1 569 32 is_stmt 0 discriminator 3 view .LVU467
 1370 0292 CDF848D0 		str	sp, [sp, #72]
 570:lvgl/lvgl/src/core/lv_obj.c ****             lv_event_send(obj, LV_EVENT_DRAW_PART_BEGIN, &part_dsc);
 1371              		.loc 1 570 13 is_stmt 1 discriminator 3 view .LVU468
 570:lvgl/lvgl/src/core/lv_obj.c ****             lv_event_send(obj, LV_EVENT_DRAW_PART_BEGIN, &part_dsc);
 1372              		.loc 1 570 27 is_stmt 0 discriminator 3 view .LVU469
 1373 0296 1B96     		str	r6, [sp, #108]
 571:lvgl/lvgl/src/core/lv_obj.c **** 
 1374              		.loc 1 571 13 is_stmt 1 discriminator 3 view .LVU470
 1375 0298 0FAA     		add	r2, sp, #60
 1376 029a 1A21     		movs	r1, #26
 1377 029c 2046     		mov	r0, r4
 1378 029e FFF7FEFF 		bl	lv_event_send
 1379              	.LVL134:
 573:lvgl/lvgl/src/core/lv_obj.c ****             lv_event_send(obj, LV_EVENT_DRAW_PART_END, &part_dsc);
 1380              		.loc 1 573 13 discriminator 3 view .LVU471
 1381 02a2 3A46     		mov	r2, r7
 1382 02a4 2946     		mov	r1, r5
 1383 02a6 6846     		mov	r0, sp
 1384 02a8 FFF7FEFF 		bl	lv_draw_rect
 1385              	.LVL135:
 574:lvgl/lvgl/src/core/lv_obj.c ****         }
 1386              		.loc 1 574 13 discriminator 3 view .LVU472
 1387 02ac 0FAA     		add	r2, sp, #60
 1388 02ae 1B21     		movs	r1, #27
 1389 02b0 2046     		mov	r0, r4
 1390 02b2 FFF7FEFF 		bl	lv_event_send
 1391              	.LVL136:
 1392 02b6 B5E6     		b	.L36
 1393              	.LVL137:
 1394              	.L54:
 574:lvgl/lvgl/src/core/lv_obj.c ****         }
 1395              		.loc 1 574 13 is_stmt 0 discriminator 3 view .LVU473
 1396              	.LBE163:
 1397              	.LBB170:
 538:lvgl/lvgl/src/core/lv_obj.c ****             if(param) {
 1398              		.loc 1 538 13 is_stmt 1 view .LVU474
 538:lvgl/lvgl/src/core/lv_obj.c ****             if(param) {
 1399              		.loc 1 538 51 is_stmt 0 view .LVU475
 1400 02b8 04F59070 		add	r0, r4, #288
 1401 02bc FFF7FEFF 		bl	lv_draw_mask_remove_custom
 1402              	.LVL138:
ARM GAS  C:\Users\gx\AppData\Local\Temp\cccIVLs9.s 			page 59


 539:lvgl/lvgl/src/core/lv_obj.c ****                 lv_draw_mask_free_param(param);
 1403              		.loc 1 539 13 is_stmt 1 view .LVU476
 539:lvgl/lvgl/src/core/lv_obj.c ****                 lv_draw_mask_free_param(param);
 1404              		.loc 1 539 15 is_stmt 0 view .LVU477
 1405 02c0 0646     		mov	r6, r0
 1406              	.LVL139:
 539:lvgl/lvgl/src/core/lv_obj.c ****                 lv_draw_mask_free_param(param);
 1407              		.loc 1 539 15 view .LVU478
 1408 02c2 0028     		cmp	r0, #0
 1409 02c4 A0D0     		beq	.L48
 540:lvgl/lvgl/src/core/lv_obj.c ****                 lv_mem_buf_release(param);
 1410              		.loc 1 540 17 is_stmt 1 view .LVU479
 1411 02c6 FFF7FEFF 		bl	lv_draw_mask_free_param
 1412              	.LVL140:
 541:lvgl/lvgl/src/core/lv_obj.c ****             }
 1413              		.loc 1 541 17 view .LVU480
 1414 02ca 3046     		mov	r0, r6
 1415 02cc FFF7FEFF 		bl	lv_mem_buf_release
 1416              	.LVL141:
 1417 02d0 9AE7     		b	.L48
 1418              	.L56:
 1419 02d2 00BF     		.align	2
 1420              	.L55:
 1421 02d4 00000000 		.word	.LANCHOR0
 1422              	.LBE170:
 1423              	.LBE158:
 1424              		.cfi_endproc
 1425              	.LFE178:
 1427              		.section	.text.lv_obj_constructor,"ax",%progbits
 1428              		.align	1
 1429              		.syntax unified
 1430              		.thumb
 1431              		.thumb_func
 1432              		.fpu fpv4-sp-d16
 1434              	lv_obj_constructor:
 1435              	.LVL142:
 1436              	.LFB176:
 376:lvgl/lvgl/src/core/lv_obj.c ****     LV_UNUSED(class_p);
 1437              		.loc 1 376 1 view -0
 1438              		.cfi_startproc
 1439              		@ args = 0, pretend = 0, frame = 0
 1440              		@ frame_needed = 0, uses_anonymous_args = 0
 376:lvgl/lvgl/src/core/lv_obj.c ****     LV_UNUSED(class_p);
 1441              		.loc 1 376 1 is_stmt 0 view .LVU482
 1442 0000 2DE9F041 		push	{r4, r5, r6, r7, r8, lr}
 1443              	.LCFI10:
 1444              		.cfi_def_cfa_offset 24
 1445              		.cfi_offset 4, -24
 1446              		.cfi_offset 5, -20
 1447              		.cfi_offset 6, -16
 1448              		.cfi_offset 7, -12
 1449              		.cfi_offset 8, -8
 1450              		.cfi_offset 14, -4
 1451 0004 0C46     		mov	r4, r1
 377:lvgl/lvgl/src/core/lv_obj.c ****     LV_TRACE_OBJ_CREATE("begin");
 1452              		.loc 1 377 5 is_stmt 1 view .LVU483
 378:lvgl/lvgl/src/core/lv_obj.c **** 
ARM GAS  C:\Users\gx\AppData\Local\Temp\cccIVLs9.s 			page 60


 1453              		.loc 1 378 5 view .LVU484
 378:lvgl/lvgl/src/core/lv_obj.c **** 
 1454              		.loc 1 378 5 view .LVU485
 378:lvgl/lvgl/src/core/lv_obj.c **** 
 1455              		.loc 1 378 5 view .LVU486
 378:lvgl/lvgl/src/core/lv_obj.c **** 
 1456              		.loc 1 378 33 view .LVU487
 380:lvgl/lvgl/src/core/lv_obj.c ****     if(parent) {
 1457              		.loc 1 380 5 view .LVU488
 380:lvgl/lvgl/src/core/lv_obj.c ****     if(parent) {
 1458              		.loc 1 380 16 is_stmt 0 view .LVU489
 1459 0006 4D68     		ldr	r5, [r1, #4]
 1460              	.LVL143:
 381:lvgl/lvgl/src/core/lv_obj.c ****         lv_coord_t sl = lv_obj_get_scroll_left(parent);
 1461              		.loc 1 381 5 is_stmt 1 view .LVU490
 381:lvgl/lvgl/src/core/lv_obj.c ****         lv_coord_t sl = lv_obj_get_scroll_left(parent);
 1462              		.loc 1 381 7 is_stmt 0 view .LVU491
 1463 0008 35B3     		cbz	r5, .L58
 1464              	.LBB171:
 382:lvgl/lvgl/src/core/lv_obj.c ****         lv_coord_t st = lv_obj_get_scroll_top(parent);
 1465              		.loc 1 382 9 is_stmt 1 view .LVU492
 382:lvgl/lvgl/src/core/lv_obj.c ****         lv_coord_t st = lv_obj_get_scroll_top(parent);
 1466              		.loc 1 382 25 is_stmt 0 view .LVU493
 1467 000a 2846     		mov	r0, r5
 1468              	.LVL144:
 382:lvgl/lvgl/src/core/lv_obj.c ****         lv_coord_t st = lv_obj_get_scroll_top(parent);
 1469              		.loc 1 382 25 view .LVU494
 1470 000c FFF7FEFF 		bl	lv_obj_get_scroll_left
 1471              	.LVL145:
 382:lvgl/lvgl/src/core/lv_obj.c ****         lv_coord_t st = lv_obj_get_scroll_top(parent);
 1472              		.loc 1 382 25 view .LVU495
 1473 0010 0646     		mov	r6, r0
 1474              	.LVL146:
 383:lvgl/lvgl/src/core/lv_obj.c **** 
 1475              		.loc 1 383 9 is_stmt 1 view .LVU496
 383:lvgl/lvgl/src/core/lv_obj.c **** 
 1476              		.loc 1 383 25 is_stmt 0 view .LVU497
 1477 0012 2846     		mov	r0, r5
 1478 0014 FFF7FEFF 		bl	lv_obj_get_scroll_top
 1479              	.LVL147:
 1480 0018 0746     		mov	r7, r0
 1481              	.LVL148:
 385:lvgl/lvgl/src/core/lv_obj.c ****         obj->coords.y2 = obj->coords.y1 - 1;
 1482              		.loc 1 385 9 is_stmt 1 view .LVU498
 385:lvgl/lvgl/src/core/lv_obj.c ****         obj->coords.y2 = obj->coords.y1 - 1;
 1483              		.loc 1 385 40 is_stmt 0 view .LVU499
 1484 001a B5F81680 		ldrh	r8, [r5, #22]
 1485              	.LVL149:
 1486              	.LBB172:
 1487              	.LBI172:
  91:lvgl/lvgl/src/core/lv_obj_style_gen.h **** {
 1488              		.loc 2 91 26 is_stmt 1 view .LVU500
 1489              	.LBB173:
  93:lvgl/lvgl/src/core/lv_obj_style_gen.h ****     return (lv_coord_t)v.num;
 1490              		.loc 2 93 5 view .LVU501
  93:lvgl/lvgl/src/core/lv_obj_style_gen.h ****     return (lv_coord_t)v.num;
 1491              		.loc 2 93 26 is_stmt 0 view .LVU502
ARM GAS  C:\Users\gx\AppData\Local\Temp\cccIVLs9.s 			page 61


 1492 001e 41F21002 		movw	r2, #4112
 1493 0022 0021     		movs	r1, #0
 1494 0024 2846     		mov	r0, r5
 1495 0026 FFF7FEFF 		bl	lv_obj_get_style_prop
 1496              	.LVL150:
  94:lvgl/lvgl/src/core/lv_obj_style_gen.h **** }
 1497              		.loc 2 94 5 is_stmt 1 view .LVU503
  94:lvgl/lvgl/src/core/lv_obj_style_gen.h **** }
 1498              		.loc 2 94 5 is_stmt 0 view .LVU504
 1499              	.LBE173:
 1500              	.LBE172:
 385:lvgl/lvgl/src/core/lv_obj.c ****         obj->coords.y2 = obj->coords.y1 - 1;
 1501              		.loc 1 385 44 view .LVU505
 1502 002a 18FA80F3 		uxtah	r3, r8, r0
 1503 002e 9BB2     		uxth	r3, r3
 385:lvgl/lvgl/src/core/lv_obj.c ****         obj->coords.y2 = obj->coords.y1 - 1;
 1504              		.loc 1 385 93 view .LVU506
 1505 0030 DB1B     		subs	r3, r3, r7
 1506 0032 9AB2     		uxth	r2, r3
 385:lvgl/lvgl/src/core/lv_obj.c ****         obj->coords.y2 = obj->coords.y1 - 1;
 1507              		.loc 1 385 24 view .LVU507
 1508 0034 E382     		strh	r3, [r4, #22]	@ movhi
 386:lvgl/lvgl/src/core/lv_obj.c ****         obj->coords.x1  = parent->coords.x1 + lv_obj_get_style_pad_left(parent, LV_PART_MAIN) - sl;
 1509              		.loc 1 386 9 is_stmt 1 view .LVU508
 386:lvgl/lvgl/src/core/lv_obj.c ****         obj->coords.x1  = parent->coords.x1 + lv_obj_get_style_pad_left(parent, LV_PART_MAIN) - sl;
 1510              		.loc 1 386 41 is_stmt 0 view .LVU509
 1511 0036 531E     		subs	r3, r2, #1
 386:lvgl/lvgl/src/core/lv_obj.c ****         obj->coords.x1  = parent->coords.x1 + lv_obj_get_style_pad_left(parent, LV_PART_MAIN) - sl;
 1512              		.loc 1 386 24 view .LVU510
 1513 0038 6383     		strh	r3, [r4, #26]	@ movhi
 387:lvgl/lvgl/src/core/lv_obj.c ****         obj->coords.x2  = obj->coords.x1 - 1;
 1514              		.loc 1 387 9 is_stmt 1 view .LVU511
 387:lvgl/lvgl/src/core/lv_obj.c ****         obj->coords.x2  = obj->coords.x1 - 1;
 1515              		.loc 1 387 41 is_stmt 0 view .LVU512
 1516 003a AF8A     		ldrh	r7, [r5, #20]
 1517              	.LVL151:
 1518              	.LBB174:
 1519              	.LBI174:
 103:lvgl/lvgl/src/core/lv_obj_style_gen.h **** {
 1520              		.loc 2 103 26 is_stmt 1 view .LVU513
 1521              	.LBB175:
 105:lvgl/lvgl/src/core/lv_obj_style_gen.h ****     return (lv_coord_t)v.num;
 1522              		.loc 2 105 5 view .LVU514
 105:lvgl/lvgl/src/core/lv_obj_style_gen.h ****     return (lv_coord_t)v.num;
 1523              		.loc 2 105 26 is_stmt 0 view .LVU515
 1524 003c 41F21202 		movw	r2, #4114
 1525 0040 0021     		movs	r1, #0
 1526 0042 2846     		mov	r0, r5
 1527 0044 FFF7FEFF 		bl	lv_obj_get_style_prop
 1528              	.LVL152:
 106:lvgl/lvgl/src/core/lv_obj_style_gen.h **** }
 1529              		.loc 2 106 5 is_stmt 1 view .LVU516
 106:lvgl/lvgl/src/core/lv_obj_style_gen.h **** }
 1530              		.loc 2 106 5 is_stmt 0 view .LVU517
 1531              	.LBE175:
 1532              	.LBE174:
 387:lvgl/lvgl/src/core/lv_obj.c ****         obj->coords.x2  = obj->coords.x1 - 1;
ARM GAS  C:\Users\gx\AppData\Local\Temp\cccIVLs9.s 			page 62


 1533              		.loc 1 387 45 view .LVU518
 1534 0048 17FA80F3 		uxtah	r3, r7, r0
 1535 004c 9BB2     		uxth	r3, r3
 387:lvgl/lvgl/src/core/lv_obj.c ****         obj->coords.x2  = obj->coords.x1 - 1;
 1536              		.loc 1 387 95 view .LVU519
 1537 004e 981B     		subs	r0, r3, r6
 1538 0050 83B2     		uxth	r3, r0
 387:lvgl/lvgl/src/core/lv_obj.c ****         obj->coords.x2  = obj->coords.x1 - 1;
 1539              		.loc 1 387 25 view .LVU520
 1540 0052 A082     		strh	r0, [r4, #20]	@ movhi
 388:lvgl/lvgl/src/core/lv_obj.c ****     }
 1541              		.loc 1 388 9 is_stmt 1 view .LVU521
 388:lvgl/lvgl/src/core/lv_obj.c ****     }
 1542              		.loc 1 388 42 is_stmt 0 view .LVU522
 1543 0054 013B     		subs	r3, r3, #1
 388:lvgl/lvgl/src/core/lv_obj.c ****     }
 1544              		.loc 1 388 25 view .LVU523
 1545 0056 2383     		strh	r3, [r4, #24]	@ movhi
 1546              	.LVL153:
 1547              	.L58:
 388:lvgl/lvgl/src/core/lv_obj.c ****     }
 1548              		.loc 1 388 25 view .LVU524
 1549              	.LBE171:
 392:lvgl/lvgl/src/core/lv_obj.c ****     obj->flags |= LV_OBJ_FLAG_SNAPPABLE;
 1550              		.loc 1 392 5 is_stmt 1 view .LVU525
 393:lvgl/lvgl/src/core/lv_obj.c ****     if(parent) obj->flags |= LV_OBJ_FLAG_PRESS_LOCK;
 1551              		.loc 1 393 5 view .LVU526
 393:lvgl/lvgl/src/core/lv_obj.c ****     if(parent) obj->flags |= LV_OBJ_FLAG_PRESS_LOCK;
 1552              		.loc 1 393 16 is_stmt 0 view .LVU527
 1553 0058 40F20243 		movw	r3, #1026
 1554 005c E361     		str	r3, [r4, #28]
 394:lvgl/lvgl/src/core/lv_obj.c ****     if(parent) obj->flags |= LV_OBJ_FLAG_SCROLL_CHAIN;
 1555              		.loc 1 394 5 is_stmt 1 view .LVU528
 394:lvgl/lvgl/src/core/lv_obj.c ****     if(parent) obj->flags |= LV_OBJ_FLAG_SCROLL_CHAIN;
 1556              		.loc 1 394 7 is_stmt 0 view .LVU529
 1557 005e 15B1     		cbz	r5, .L59
 394:lvgl/lvgl/src/core/lv_obj.c ****     if(parent) obj->flags |= LV_OBJ_FLAG_SCROLL_CHAIN;
 1558              		.loc 1 394 16 is_stmt 1 discriminator 1 view .LVU530
 394:lvgl/lvgl/src/core/lv_obj.c ****     if(parent) obj->flags |= LV_OBJ_FLAG_SCROLL_CHAIN;
 1559              		.loc 1 394 27 is_stmt 0 discriminator 1 view .LVU531
 1560 0060 40F60243 		movw	r3, #3074
 1561 0064 E361     		str	r3, [r4, #28]
 1562              	.L59:
 395:lvgl/lvgl/src/core/lv_obj.c ****     obj->flags |= LV_OBJ_FLAG_CLICK_FOCUSABLE;
 1563              		.loc 1 395 5 is_stmt 1 view .LVU532
 395:lvgl/lvgl/src/core/lv_obj.c ****     obj->flags |= LV_OBJ_FLAG_CLICK_FOCUSABLE;
 1564              		.loc 1 395 7 is_stmt 0 view .LVU533
 1565 0066 1DB1     		cbz	r5, .L60
 395:lvgl/lvgl/src/core/lv_obj.c ****     obj->flags |= LV_OBJ_FLAG_CLICK_FOCUSABLE;
 1566              		.loc 1 395 16 is_stmt 1 discriminator 1 view .LVU534
 395:lvgl/lvgl/src/core/lv_obj.c ****     obj->flags |= LV_OBJ_FLAG_CLICK_FOCUSABLE;
 1567              		.loc 1 395 27 is_stmt 0 discriminator 1 view .LVU535
 1568 0068 E369     		ldr	r3, [r4, #28]
 1569 006a 43F48073 		orr	r3, r3, #256
 1570 006e E361     		str	r3, [r4, #28]
 1571              	.L60:
 396:lvgl/lvgl/src/core/lv_obj.c ****     obj->flags |= LV_OBJ_FLAG_SCROLLABLE;
ARM GAS  C:\Users\gx\AppData\Local\Temp\cccIVLs9.s 			page 63


 1572              		.loc 1 396 5 is_stmt 1 view .LVU536
 396:lvgl/lvgl/src/core/lv_obj.c ****     obj->flags |= LV_OBJ_FLAG_SCROLLABLE;
 1573              		.loc 1 396 16 is_stmt 0 view .LVU537
 1574 0070 E369     		ldr	r3, [r4, #28]
 397:lvgl/lvgl/src/core/lv_obj.c ****     obj->flags |= LV_OBJ_FLAG_SCROLL_ELASTIC;
 1575              		.loc 1 397 5 is_stmt 1 view .LVU538
 398:lvgl/lvgl/src/core/lv_obj.c ****     obj->flags |= LV_OBJ_FLAG_SCROLL_MOMENTUM;
 1576              		.loc 1 398 5 view .LVU539
 399:lvgl/lvgl/src/core/lv_obj.c ****     if(parent) obj->flags |= LV_OBJ_FLAG_GESTURE_BUBBLE;
 1577              		.loc 1 399 5 view .LVU540
 399:lvgl/lvgl/src/core/lv_obj.c ****     if(parent) obj->flags |= LV_OBJ_FLAG_GESTURE_BUBBLE;
 1578              		.loc 1 399 16 is_stmt 0 view .LVU541
 1579 0072 43F07403 		orr	r3, r3, #116
 1580 0076 E361     		str	r3, [r4, #28]
 400:lvgl/lvgl/src/core/lv_obj.c **** 
 1581              		.loc 1 400 5 is_stmt 1 view .LVU542
 400:lvgl/lvgl/src/core/lv_obj.c **** 
 1582              		.loc 1 400 7 is_stmt 0 view .LVU543
 1583 0078 15B1     		cbz	r5, .L57
 400:lvgl/lvgl/src/core/lv_obj.c **** 
 1584              		.loc 1 400 16 is_stmt 1 discriminator 1 view .LVU544
 400:lvgl/lvgl/src/core/lv_obj.c **** 
 1585              		.loc 1 400 27 is_stmt 0 discriminator 1 view .LVU545
 1586 007a 43F40053 		orr	r3, r3, #8192
 1587 007e E361     		str	r3, [r4, #28]
 402:lvgl/lvgl/src/core/lv_obj.c **** }
 1588              		.loc 1 402 5 is_stmt 1 discriminator 1 view .LVU546
 402:lvgl/lvgl/src/core/lv_obj.c **** }
 1589              		.loc 1 402 5 discriminator 1 view .LVU547
 402:lvgl/lvgl/src/core/lv_obj.c **** }
 1590              		.loc 1 402 5 discriminator 1 view .LVU548
 402:lvgl/lvgl/src/core/lv_obj.c **** }
 1591              		.loc 1 402 36 discriminator 1 view .LVU549
 1592              	.L57:
 403:lvgl/lvgl/src/core/lv_obj.c **** 
 1593              		.loc 1 403 1 is_stmt 0 view .LVU550
 1594 0080 BDE8F081 		pop	{r4, r5, r6, r7, r8, pc}
 403:lvgl/lvgl/src/core/lv_obj.c **** 
 1595              		.loc 1 403 1 view .LVU551
 1596              		.cfi_endproc
 1597              	.LFE176:
 1599              		.section	.text.lv_obj_set_state,"ax",%progbits
 1600              		.align	1
 1601              		.syntax unified
 1602              		.thumb
 1603              		.thumb_func
 1604              		.fpu fpv4-sp-d16
 1606              	lv_obj_set_state:
 1607              	.LVL154:
 1608              	.LFB182:
 824:lvgl/lvgl/src/core/lv_obj.c ****     if(obj->state == new_state) return;
 1609              		.loc 1 824 1 is_stmt 1 view -0
 1610              		.cfi_startproc
 1611              		@ args = 0, pretend = 0, frame = 40
 1612              		@ frame_needed = 0, uses_anonymous_args = 0
 824:lvgl/lvgl/src/core/lv_obj.c ****     if(obj->state == new_state) return;
 1613              		.loc 1 824 1 is_stmt 0 view .LVU553
ARM GAS  C:\Users\gx\AppData\Local\Temp\cccIVLs9.s 			page 64


 1614 0000 2DE9F04F 		push	{r4, r5, r6, r7, r8, r9, r10, fp, lr}
 1615              	.LCFI11:
 1616              		.cfi_def_cfa_offset 36
 1617              		.cfi_offset 4, -36
 1618              		.cfi_offset 5, -32
 1619              		.cfi_offset 6, -28
 1620              		.cfi_offset 7, -24
 1621              		.cfi_offset 8, -20
 1622              		.cfi_offset 9, -16
 1623              		.cfi_offset 10, -12
 1624              		.cfi_offset 11, -8
 1625              		.cfi_offset 14, -4
 1626 0004 8DB0     		sub	sp, sp, #52
 1627              	.LCFI12:
 1628              		.cfi_def_cfa_offset 88
 1629 0006 0690     		str	r0, [sp, #24]
 1630 0008 0791     		str	r1, [sp, #28]
 825:lvgl/lvgl/src/core/lv_obj.c **** 
 1631              		.loc 1 825 5 is_stmt 1 view .LVU554
 825:lvgl/lvgl/src/core/lv_obj.c **** 
 1632              		.loc 1 825 11 is_stmt 0 view .LVU555
 1633 000a 038C     		ldrh	r3, [r0, #32]
 1634 000c 0993     		str	r3, [sp, #36]
 825:lvgl/lvgl/src/core/lv_obj.c **** 
 1635              		.loc 1 825 7 view .LVU556
 1636 000e 8B42     		cmp	r3, r1
 1637 0010 06D0     		beq	.L63
 827:lvgl/lvgl/src/core/lv_obj.c **** 
 1638              		.loc 1 827 5 is_stmt 1 view .LVU557
 827:lvgl/lvgl/src/core/lv_obj.c **** 
 1639              		.loc 1 827 5 view .LVU558
 827:lvgl/lvgl/src/core/lv_obj.c **** 
 1640              		.loc 1 827 5 view .LVU559
 829:lvgl/lvgl/src/core/lv_obj.c ****     obj->state = new_state;
 1641              		.loc 1 829 5 view .LVU560
 1642              	.LVL155:
 830:lvgl/lvgl/src/core/lv_obj.c **** 
 1643              		.loc 1 830 5 view .LVU561
 830:lvgl/lvgl/src/core/lv_obj.c **** 
 1644              		.loc 1 830 16 is_stmt 0 view .LVU562
 1645 0012 0184     		strh	r1, [r0, #32]	@ movhi
 832:lvgl/lvgl/src/core/lv_obj.c ****     /*If there is no difference in styles there is nothing else to do*/
 1646              		.loc 1 832 5 is_stmt 1 view .LVU563
 832:lvgl/lvgl/src/core/lv_obj.c ****     /*If there is no difference in styles there is nothing else to do*/
 1647              		.loc 1 832 37 is_stmt 0 view .LVU564
 1648 0014 0A46     		mov	r2, r1
 1649 0016 1946     		mov	r1, r3
 1650              	.LVL156:
 832:lvgl/lvgl/src/core/lv_obj.c ****     /*If there is no difference in styles there is nothing else to do*/
 1651              		.loc 1 832 37 view .LVU565
 1652 0018 FFF7FEFF 		bl	_lv_obj_style_state_compare
 1653              	.LVL157:
 834:lvgl/lvgl/src/core/lv_obj.c **** 
 1654              		.loc 1 834 5 is_stmt 1 view .LVU566
 834:lvgl/lvgl/src/core/lv_obj.c **** 
 1655              		.loc 1 834 7 is_stmt 0 view .LVU567
 1656 001c 0A90     		str	r0, [sp, #40]
ARM GAS  C:\Users\gx\AppData\Local\Temp\cccIVLs9.s 			page 65


 1657 001e 10B9     		cbnz	r0, .L95
 1658              	.LVL158:
 1659              	.L63:
 894:lvgl/lvgl/src/core/lv_obj.c **** 
 1660              		.loc 1 894 1 view .LVU568
 1661 0020 0DB0     		add	sp, sp, #52
 1662              	.LCFI13:
 1663              		.cfi_remember_state
 1664              		.cfi_def_cfa_offset 36
 1665              		@ sp needed
 1666 0022 BDE8F08F 		pop	{r4, r5, r6, r7, r8, r9, r10, fp, pc}
 1667              	.LVL159:
 1668              	.L95:
 1669              	.LCFI14:
 1670              		.cfi_restore_state
 836:lvgl/lvgl/src/core/lv_obj.c ****     lv_memset_00(ts, sizeof(_lv_obj_style_transition_dsc_t) * STYLE_TRANSITION_MAX);
 1671              		.loc 1 836 5 is_stmt 1 view .LVU569
 836:lvgl/lvgl/src/core/lv_obj.c ****     lv_memset_00(ts, sizeof(_lv_obj_style_transition_dsc_t) * STYLE_TRANSITION_MAX);
 1672              		.loc 1 836 43 is_stmt 0 view .LVU570
 1673 0026 4FF42070 		mov	r0, #640
 1674              	.LVL160:
 836:lvgl/lvgl/src/core/lv_obj.c ****     lv_memset_00(ts, sizeof(_lv_obj_style_transition_dsc_t) * STYLE_TRANSITION_MAX);
 1675              		.loc 1 836 43 view .LVU571
 1676 002a FFF7FEFF 		bl	lv_mem_buf_get
 1677              	.LVL161:
 1678 002e 8246     		mov	r10, r0
 1679              	.LVL162:
 837:lvgl/lvgl/src/core/lv_obj.c ****     uint32_t tsi = 0;
 1680              		.loc 1 837 5 is_stmt 1 view .LVU572
 1681 0030 4FF42071 		mov	r1, #640
 1682 0034 FFF7FEFF 		bl	lv_memset_00
 1683              	.LVL163:
 838:lvgl/lvgl/src/core/lv_obj.c ****     uint32_t i;
 1684              		.loc 1 838 5 view .LVU573
 839:lvgl/lvgl/src/core/lv_obj.c ****     for(i = 0; i < obj->style_cnt && tsi < STYLE_TRANSITION_MAX; i++) {
 1685              		.loc 1 839 5 view .LVU574
 840:lvgl/lvgl/src/core/lv_obj.c ****         _lv_obj_style_t * obj_style = &obj->styles[i];
 1686              		.loc 1 840 5 view .LVU575
 840:lvgl/lvgl/src/core/lv_obj.c ****         _lv_obj_style_t * obj_style = &obj->styles[i];
 1687              		.loc 1 840 11 is_stmt 0 view .LVU576
 1688 0038 0023     		movs	r3, #0
 1689 003a 0393     		str	r3, [sp, #12]
 838:lvgl/lvgl/src/core/lv_obj.c ****     uint32_t i;
 1690              		.loc 1 838 14 view .LVU577
 1691 003c 9B46     		mov	fp, r3
 840:lvgl/lvgl/src/core/lv_obj.c ****         _lv_obj_style_t * obj_style = &obj->styles[i];
 1692              		.loc 1 840 5 view .LVU578
 1693 003e 1EE0     		b	.L65
 1694              	.LVL164:
 1695              	.L98:
 1696              	.LBB185:
 1697              	.LBB186:
 1698              	.LBB187:
 1699              	.LBB188:
 1700              		.file 4 "lvgl/lvgl/src/core/../misc/lv_style.h"
   1:lvgl/lvgl/src/core/../misc/lv_style.h **** /**
   2:lvgl/lvgl/src/core/../misc/lv_style.h ****  * @file lv_style.h
ARM GAS  C:\Users\gx\AppData\Local\Temp\cccIVLs9.s 			page 66


   3:lvgl/lvgl/src/core/../misc/lv_style.h ****  *
   4:lvgl/lvgl/src/core/../misc/lv_style.h ****  */
   5:lvgl/lvgl/src/core/../misc/lv_style.h **** 
   6:lvgl/lvgl/src/core/../misc/lv_style.h **** #ifndef LV_STYLE_H
   7:lvgl/lvgl/src/core/../misc/lv_style.h **** #define LV_STYLE_H
   8:lvgl/lvgl/src/core/../misc/lv_style.h **** 
   9:lvgl/lvgl/src/core/../misc/lv_style.h **** #ifdef __cplusplus
  10:lvgl/lvgl/src/core/../misc/lv_style.h **** extern "C" {
  11:lvgl/lvgl/src/core/../misc/lv_style.h **** #endif
  12:lvgl/lvgl/src/core/../misc/lv_style.h **** 
  13:lvgl/lvgl/src/core/../misc/lv_style.h **** /*********************
  14:lvgl/lvgl/src/core/../misc/lv_style.h ****  *      INCLUDES
  15:lvgl/lvgl/src/core/../misc/lv_style.h ****  *********************/
  16:lvgl/lvgl/src/core/../misc/lv_style.h **** #include <stdbool.h>
  17:lvgl/lvgl/src/core/../misc/lv_style.h **** #include "../font/lv_font.h"
  18:lvgl/lvgl/src/core/../misc/lv_style.h **** #include "lv_color.h"
  19:lvgl/lvgl/src/core/../misc/lv_style.h **** #include "lv_area.h"
  20:lvgl/lvgl/src/core/../misc/lv_style.h **** #include "lv_anim.h"
  21:lvgl/lvgl/src/core/../misc/lv_style.h **** #include "lv_txt.h"
  22:lvgl/lvgl/src/core/../misc/lv_style.h **** #include "lv_types.h"
  23:lvgl/lvgl/src/core/../misc/lv_style.h **** #include "lv_assert.h"
  24:lvgl/lvgl/src/core/../misc/lv_style.h **** #include "lv_bidi.h"
  25:lvgl/lvgl/src/core/../misc/lv_style.h **** 
  26:lvgl/lvgl/src/core/../misc/lv_style.h **** /*********************
  27:lvgl/lvgl/src/core/../misc/lv_style.h ****  *      DEFINES
  28:lvgl/lvgl/src/core/../misc/lv_style.h ****  *********************/
  29:lvgl/lvgl/src/core/../misc/lv_style.h **** 
  30:lvgl/lvgl/src/core/../misc/lv_style.h **** #define LV_STYLE_SENTINEL_VALUE     0xAABBCCDD
  31:lvgl/lvgl/src/core/../misc/lv_style.h **** 
  32:lvgl/lvgl/src/core/../misc/lv_style.h **** /**
  33:lvgl/lvgl/src/core/../misc/lv_style.h ****  * Flags for style properties
  34:lvgl/lvgl/src/core/../misc/lv_style.h ****  */
  35:lvgl/lvgl/src/core/../misc/lv_style.h **** #define LV_STYLE_PROP_INHERIT               (1 << 10)  /*Inherited*/
  36:lvgl/lvgl/src/core/../misc/lv_style.h **** #define LV_STYLE_PROP_EXT_DRAW              (1 << 11)  /*Requires ext. draw size update when change
  37:lvgl/lvgl/src/core/../misc/lv_style.h **** #define LV_STYLE_PROP_LAYOUT_REFR           (1 << 12)  /*Requires layout update when changed*/
  38:lvgl/lvgl/src/core/../misc/lv_style.h **** #define LV_STYLE_PROP_PARENT_LAYOUT_REFR    (1 << 13)  /*Requires layout update on parent when chan
  39:lvgl/lvgl/src/core/../misc/lv_style.h **** #define LV_STYLE_PROP_FILTER                (1 << 14)  /*Apply color filter*/
  40:lvgl/lvgl/src/core/../misc/lv_style.h **** 
  41:lvgl/lvgl/src/core/../misc/lv_style.h **** /**
  42:lvgl/lvgl/src/core/../misc/lv_style.h ****  * Other constants
  43:lvgl/lvgl/src/core/../misc/lv_style.h ****  */
  44:lvgl/lvgl/src/core/../misc/lv_style.h **** #define LV_IMG_ZOOM_NONE            256        /*Value for not zooming the image*/
  45:lvgl/lvgl/src/core/../misc/lv_style.h **** LV_EXPORT_CONST_INT(LV_IMG_ZOOM_NONE);
  46:lvgl/lvgl/src/core/../misc/lv_style.h **** 
  47:lvgl/lvgl/src/core/../misc/lv_style.h **** #if LV_USE_ASSERT_STYLE
  48:lvgl/lvgl/src/core/../misc/lv_style.h **** #define LV_STYLE_CONST_INIT(var_name, prop_array) const lv_style_t var_name = { .sentinel = LV_STYL
  49:lvgl/lvgl/src/core/../misc/lv_style.h **** #else
  50:lvgl/lvgl/src/core/../misc/lv_style.h **** #define LV_STYLE_CONST_INIT(var_name, prop_array) const lv_style_t var_name = { .v_p = { .const_pro
  51:lvgl/lvgl/src/core/../misc/lv_style.h **** #endif
  52:lvgl/lvgl/src/core/../misc/lv_style.h **** 
  53:lvgl/lvgl/src/core/../misc/lv_style.h **** /**********************
  54:lvgl/lvgl/src/core/../misc/lv_style.h ****  *      TYPEDEFS
  55:lvgl/lvgl/src/core/../misc/lv_style.h ****  **********************/
  56:lvgl/lvgl/src/core/../misc/lv_style.h **** 
  57:lvgl/lvgl/src/core/../misc/lv_style.h **** /**
  58:lvgl/lvgl/src/core/../misc/lv_style.h ****  * Possible options how to blend opaque drawings
  59:lvgl/lvgl/src/core/../misc/lv_style.h ****  */
ARM GAS  C:\Users\gx\AppData\Local\Temp\cccIVLs9.s 			page 67


  60:lvgl/lvgl/src/core/../misc/lv_style.h **** enum {
  61:lvgl/lvgl/src/core/../misc/lv_style.h ****     LV_BLEND_MODE_NORMAL,     /**< Simply mix according to the opacity value*/
  62:lvgl/lvgl/src/core/../misc/lv_style.h ****     LV_BLEND_MODE_ADDITIVE,   /**< Add the respective color channels*/
  63:lvgl/lvgl/src/core/../misc/lv_style.h ****     LV_BLEND_MODE_SUBTRACTIVE,/**< Subtract the foreground from the background*/
  64:lvgl/lvgl/src/core/../misc/lv_style.h **** };
  65:lvgl/lvgl/src/core/../misc/lv_style.h **** 
  66:lvgl/lvgl/src/core/../misc/lv_style.h **** typedef uint8_t lv_blend_mode_t;
  67:lvgl/lvgl/src/core/../misc/lv_style.h **** 
  68:lvgl/lvgl/src/core/../misc/lv_style.h **** /**
  69:lvgl/lvgl/src/core/../misc/lv_style.h ****  * Some options to apply decorations on texts.
  70:lvgl/lvgl/src/core/../misc/lv_style.h ****  * 'OR'ed values can be used.
  71:lvgl/lvgl/src/core/../misc/lv_style.h ****  */
  72:lvgl/lvgl/src/core/../misc/lv_style.h **** enum {
  73:lvgl/lvgl/src/core/../misc/lv_style.h ****     LV_TEXT_DECOR_NONE          = 0x00,
  74:lvgl/lvgl/src/core/../misc/lv_style.h ****     LV_TEXT_DECOR_UNDERLINE     = 0x01,
  75:lvgl/lvgl/src/core/../misc/lv_style.h ****     LV_TEXT_DECOR_STRIKETHROUGH = 0x02,
  76:lvgl/lvgl/src/core/../misc/lv_style.h **** };
  77:lvgl/lvgl/src/core/../misc/lv_style.h **** 
  78:lvgl/lvgl/src/core/../misc/lv_style.h **** typedef uint8_t lv_text_decor_t;
  79:lvgl/lvgl/src/core/../misc/lv_style.h **** 
  80:lvgl/lvgl/src/core/../misc/lv_style.h **** /**
  81:lvgl/lvgl/src/core/../misc/lv_style.h ****  * Selects on which sides border should be drawn
  82:lvgl/lvgl/src/core/../misc/lv_style.h ****  * 'OR'ed values can be used.
  83:lvgl/lvgl/src/core/../misc/lv_style.h ****  */
  84:lvgl/lvgl/src/core/../misc/lv_style.h **** enum {
  85:lvgl/lvgl/src/core/../misc/lv_style.h ****     LV_BORDER_SIDE_NONE     = 0x00,
  86:lvgl/lvgl/src/core/../misc/lv_style.h ****     LV_BORDER_SIDE_BOTTOM   = 0x01,
  87:lvgl/lvgl/src/core/../misc/lv_style.h ****     LV_BORDER_SIDE_TOP      = 0x02,
  88:lvgl/lvgl/src/core/../misc/lv_style.h ****     LV_BORDER_SIDE_LEFT     = 0x04,
  89:lvgl/lvgl/src/core/../misc/lv_style.h ****     LV_BORDER_SIDE_RIGHT    = 0x08,
  90:lvgl/lvgl/src/core/../misc/lv_style.h ****     LV_BORDER_SIDE_FULL     = 0x0F,
  91:lvgl/lvgl/src/core/../misc/lv_style.h ****     LV_BORDER_SIDE_INTERNAL = 0x10, /**< FOR matrix-like objects (e.g. Button matrix)*/
  92:lvgl/lvgl/src/core/../misc/lv_style.h **** };
  93:lvgl/lvgl/src/core/../misc/lv_style.h **** typedef uint8_t lv_border_side_t;
  94:lvgl/lvgl/src/core/../misc/lv_style.h **** 
  95:lvgl/lvgl/src/core/../misc/lv_style.h **** /**
  96:lvgl/lvgl/src/core/../misc/lv_style.h ****  * The direction of the gradient.
  97:lvgl/lvgl/src/core/../misc/lv_style.h ****  */
  98:lvgl/lvgl/src/core/../misc/lv_style.h **** enum {
  99:lvgl/lvgl/src/core/../misc/lv_style.h ****     LV_GRAD_DIR_NONE, /**< No gradient (the `grad_color` property is ignored)*/
 100:lvgl/lvgl/src/core/../misc/lv_style.h ****     LV_GRAD_DIR_VER,  /**< Vertical (top to bottom) gradient*/
 101:lvgl/lvgl/src/core/../misc/lv_style.h ****     LV_GRAD_DIR_HOR,  /**< Horizontal (left to right) gradient*/
 102:lvgl/lvgl/src/core/../misc/lv_style.h **** };
 103:lvgl/lvgl/src/core/../misc/lv_style.h **** 
 104:lvgl/lvgl/src/core/../misc/lv_style.h **** typedef uint8_t lv_grad_dir_t;
 105:lvgl/lvgl/src/core/../misc/lv_style.h **** 
 106:lvgl/lvgl/src/core/../misc/lv_style.h **** /**
 107:lvgl/lvgl/src/core/../misc/lv_style.h ****  * A common type to handle all the property types in the same way.
 108:lvgl/lvgl/src/core/../misc/lv_style.h ****  */
 109:lvgl/lvgl/src/core/../misc/lv_style.h **** typedef union {
 110:lvgl/lvgl/src/core/../misc/lv_style.h ****     int32_t num;         /**< Number integer number (opacity, enums, booleans or "normal" numbers)*
 111:lvgl/lvgl/src/core/../misc/lv_style.h ****     const void * ptr;    /**< Constant pointers  (font, cone text, etc)*/
 112:lvgl/lvgl/src/core/../misc/lv_style.h ****     lv_color_t color;    /**< Colors*/
 113:lvgl/lvgl/src/core/../misc/lv_style.h **** }lv_style_value_t;
 114:lvgl/lvgl/src/core/../misc/lv_style.h **** 
 115:lvgl/lvgl/src/core/../misc/lv_style.h **** /**
 116:lvgl/lvgl/src/core/../misc/lv_style.h ****  * Enumeration of all built in style properties
ARM GAS  C:\Users\gx\AppData\Local\Temp\cccIVLs9.s 			page 68


 117:lvgl/lvgl/src/core/../misc/lv_style.h ****  */
 118:lvgl/lvgl/src/core/../misc/lv_style.h **** typedef enum {
 119:lvgl/lvgl/src/core/../misc/lv_style.h ****     LV_STYLE_PROP_INV                = 0,
 120:lvgl/lvgl/src/core/../misc/lv_style.h **** 
 121:lvgl/lvgl/src/core/../misc/lv_style.h ****     /*Group 0*/
 122:lvgl/lvgl/src/core/../misc/lv_style.h ****     LV_STYLE_WIDTH                   = 1 | LV_STYLE_PROP_LAYOUT_REFR,
 123:lvgl/lvgl/src/core/../misc/lv_style.h ****     LV_STYLE_MIN_WIDTH               = 2 | LV_STYLE_PROP_LAYOUT_REFR,
 124:lvgl/lvgl/src/core/../misc/lv_style.h ****     LV_STYLE_MAX_WIDTH               = 3 | LV_STYLE_PROP_LAYOUT_REFR,
 125:lvgl/lvgl/src/core/../misc/lv_style.h ****     LV_STYLE_HEIGHT                  = 4 | LV_STYLE_PROP_LAYOUT_REFR,
 126:lvgl/lvgl/src/core/../misc/lv_style.h ****     LV_STYLE_MIN_HEIGHT              = 5 | LV_STYLE_PROP_LAYOUT_REFR,
 127:lvgl/lvgl/src/core/../misc/lv_style.h ****     LV_STYLE_MAX_HEIGHT              = 6 | LV_STYLE_PROP_LAYOUT_REFR,
 128:lvgl/lvgl/src/core/../misc/lv_style.h ****     LV_STYLE_X                       = 7 | LV_STYLE_PROP_LAYOUT_REFR,
 129:lvgl/lvgl/src/core/../misc/lv_style.h ****     LV_STYLE_Y                       = 8 | LV_STYLE_PROP_LAYOUT_REFR,
 130:lvgl/lvgl/src/core/../misc/lv_style.h ****     LV_STYLE_ALIGN                   = 9 | LV_STYLE_PROP_LAYOUT_REFR,
 131:lvgl/lvgl/src/core/../misc/lv_style.h ****     LV_STYLE_TRANSFORM_WIDTH         = 10 | LV_STYLE_PROP_EXT_DRAW,
 132:lvgl/lvgl/src/core/../misc/lv_style.h ****     LV_STYLE_TRANSFORM_HEIGHT        = 11 | LV_STYLE_PROP_EXT_DRAW,
 133:lvgl/lvgl/src/core/../misc/lv_style.h ****     LV_STYLE_TRANSLATE_X             = 12 | LV_STYLE_PROP_LAYOUT_REFR | LV_STYLE_PROP_PARENT_LAYOUT
 134:lvgl/lvgl/src/core/../misc/lv_style.h ****     LV_STYLE_TRANSLATE_Y             = 13 | LV_STYLE_PROP_LAYOUT_REFR | LV_STYLE_PROP_PARENT_LAYOUT
 135:lvgl/lvgl/src/core/../misc/lv_style.h ****     LV_STYLE_TRANSFORM_ZOOM          = 14 | LV_STYLE_PROP_EXT_DRAW | LV_STYLE_PROP_LAYOUT_REFR | LV
 136:lvgl/lvgl/src/core/../misc/lv_style.h ****     LV_STYLE_TRANSFORM_ANGLE         = 15 | LV_STYLE_PROP_EXT_DRAW | LV_STYLE_PROP_LAYOUT_REFR | LV
 137:lvgl/lvgl/src/core/../misc/lv_style.h **** 
 138:lvgl/lvgl/src/core/../misc/lv_style.h ****     /*Group 1*/
 139:lvgl/lvgl/src/core/../misc/lv_style.h ****     LV_STYLE_PAD_TOP                 = 16 | LV_STYLE_PROP_LAYOUT_REFR,
 140:lvgl/lvgl/src/core/../misc/lv_style.h ****     LV_STYLE_PAD_BOTTOM              = 17 | LV_STYLE_PROP_LAYOUT_REFR,
 141:lvgl/lvgl/src/core/../misc/lv_style.h ****     LV_STYLE_PAD_LEFT                = 18 | LV_STYLE_PROP_LAYOUT_REFR,
 142:lvgl/lvgl/src/core/../misc/lv_style.h ****     LV_STYLE_PAD_RIGHT               = 19 | LV_STYLE_PROP_LAYOUT_REFR,
 143:lvgl/lvgl/src/core/../misc/lv_style.h ****     LV_STYLE_PAD_ROW                 = 20 | LV_STYLE_PROP_LAYOUT_REFR,
 144:lvgl/lvgl/src/core/../misc/lv_style.h ****     LV_STYLE_PAD_COLUMN              = 21 | LV_STYLE_PROP_LAYOUT_REFR,
 145:lvgl/lvgl/src/core/../misc/lv_style.h **** 
 146:lvgl/lvgl/src/core/../misc/lv_style.h ****     /*Group 2*/
 147:lvgl/lvgl/src/core/../misc/lv_style.h ****     LV_STYLE_BG_COLOR                = 32,
 148:lvgl/lvgl/src/core/../misc/lv_style.h ****     LV_STYLE_BG_COLOR_FILTERED       = 32 | LV_STYLE_PROP_FILTER,
 149:lvgl/lvgl/src/core/../misc/lv_style.h ****     LV_STYLE_BG_OPA                  = 33,
 150:lvgl/lvgl/src/core/../misc/lv_style.h ****     LV_STYLE_BG_GRAD_COLOR           = 34,
 151:lvgl/lvgl/src/core/../misc/lv_style.h ****     LV_STYLE_BG_GRAD_COLOR_FILTERED  = 34 | LV_STYLE_PROP_FILTER,
 152:lvgl/lvgl/src/core/../misc/lv_style.h ****     LV_STYLE_BG_GRAD_DIR             = 35,
 153:lvgl/lvgl/src/core/../misc/lv_style.h ****     LV_STYLE_BG_MAIN_STOP            = 36,
 154:lvgl/lvgl/src/core/../misc/lv_style.h ****     LV_STYLE_BG_GRAD_STOP            = 37,
 155:lvgl/lvgl/src/core/../misc/lv_style.h **** 
 156:lvgl/lvgl/src/core/../misc/lv_style.h ****     LV_STYLE_BG_IMG_SRC              = 38,
 157:lvgl/lvgl/src/core/../misc/lv_style.h ****     LV_STYLE_BG_IMG_OPA              = 39,
 158:lvgl/lvgl/src/core/../misc/lv_style.h ****     LV_STYLE_BG_IMG_RECOLOR          = 40,
 159:lvgl/lvgl/src/core/../misc/lv_style.h ****     LV_STYLE_BG_IMG_RECOLOR_FILTERED = 40 | LV_STYLE_PROP_FILTER,
 160:lvgl/lvgl/src/core/../misc/lv_style.h ****     LV_STYLE_BG_IMG_RECOLOR_OPA      = 41,
 161:lvgl/lvgl/src/core/../misc/lv_style.h ****     LV_STYLE_BG_IMG_TILED            = 42,
 162:lvgl/lvgl/src/core/../misc/lv_style.h **** 
 163:lvgl/lvgl/src/core/../misc/lv_style.h ****     /*Group 3*/
 164:lvgl/lvgl/src/core/../misc/lv_style.h ****     LV_STYLE_BORDER_COLOR            = 48,
 165:lvgl/lvgl/src/core/../misc/lv_style.h ****     LV_STYLE_BORDER_COLOR_FILTERED   = 48 | LV_STYLE_PROP_FILTER,
 166:lvgl/lvgl/src/core/../misc/lv_style.h ****     LV_STYLE_BORDER_OPA              = 49,
 167:lvgl/lvgl/src/core/../misc/lv_style.h ****     LV_STYLE_BORDER_WIDTH            = 50 | LV_STYLE_PROP_LAYOUT_REFR,
 168:lvgl/lvgl/src/core/../misc/lv_style.h ****     LV_STYLE_BORDER_SIDE             = 51,
 169:lvgl/lvgl/src/core/../misc/lv_style.h ****     LV_STYLE_BORDER_POST             = 52,
 170:lvgl/lvgl/src/core/../misc/lv_style.h **** 
 171:lvgl/lvgl/src/core/../misc/lv_style.h ****     LV_STYLE_OUTLINE_WIDTH           = 58 | LV_STYLE_PROP_EXT_DRAW,
 172:lvgl/lvgl/src/core/../misc/lv_style.h ****     LV_STYLE_OUTLINE_COLOR           = 59,
 173:lvgl/lvgl/src/core/../misc/lv_style.h ****     LV_STYLE_OUTLINE_COLOR_FILTERED  = 59 | LV_STYLE_PROP_FILTER,
ARM GAS  C:\Users\gx\AppData\Local\Temp\cccIVLs9.s 			page 69


 174:lvgl/lvgl/src/core/../misc/lv_style.h ****     LV_STYLE_OUTLINE_OPA             = 60 | LV_STYLE_PROP_EXT_DRAW,
 175:lvgl/lvgl/src/core/../misc/lv_style.h ****     LV_STYLE_OUTLINE_PAD             = 61 | LV_STYLE_PROP_EXT_DRAW,
 176:lvgl/lvgl/src/core/../misc/lv_style.h **** 
 177:lvgl/lvgl/src/core/../misc/lv_style.h ****     /*Group 4*/
 178:lvgl/lvgl/src/core/../misc/lv_style.h ****     LV_STYLE_SHADOW_WIDTH            = 64 | LV_STYLE_PROP_EXT_DRAW,
 179:lvgl/lvgl/src/core/../misc/lv_style.h ****     LV_STYLE_SHADOW_OFS_X            = 65 | LV_STYLE_PROP_EXT_DRAW,
 180:lvgl/lvgl/src/core/../misc/lv_style.h ****     LV_STYLE_SHADOW_OFS_Y            = 66 | LV_STYLE_PROP_EXT_DRAW,
 181:lvgl/lvgl/src/core/../misc/lv_style.h ****     LV_STYLE_SHADOW_SPREAD           = 67 | LV_STYLE_PROP_EXT_DRAW,
 182:lvgl/lvgl/src/core/../misc/lv_style.h ****     LV_STYLE_SHADOW_COLOR            = 68,
 183:lvgl/lvgl/src/core/../misc/lv_style.h ****     LV_STYLE_SHADOW_COLOR_FILTERED   = 68 | LV_STYLE_PROP_FILTER,
 184:lvgl/lvgl/src/core/../misc/lv_style.h ****     LV_STYLE_SHADOW_OPA              = 69 | LV_STYLE_PROP_EXT_DRAW,
 185:lvgl/lvgl/src/core/../misc/lv_style.h **** 
 186:lvgl/lvgl/src/core/../misc/lv_style.h ****     LV_STYLE_IMG_OPA                 = 70,
 187:lvgl/lvgl/src/core/../misc/lv_style.h ****     LV_STYLE_IMG_RECOLOR             = 71,
 188:lvgl/lvgl/src/core/../misc/lv_style.h ****     LV_STYLE_IMG_RECOLOR_FILTERED    = 71 | LV_STYLE_PROP_FILTER,
 189:lvgl/lvgl/src/core/../misc/lv_style.h ****     LV_STYLE_IMG_RECOLOR_OPA         = 72,
 190:lvgl/lvgl/src/core/../misc/lv_style.h **** 
 191:lvgl/lvgl/src/core/../misc/lv_style.h ****     LV_STYLE_LINE_WIDTH              = 73 | LV_STYLE_PROP_EXT_DRAW,
 192:lvgl/lvgl/src/core/../misc/lv_style.h ****     LV_STYLE_LINE_DASH_WIDTH         = 74,
 193:lvgl/lvgl/src/core/../misc/lv_style.h ****     LV_STYLE_LINE_DASH_GAP           = 75,
 194:lvgl/lvgl/src/core/../misc/lv_style.h ****     LV_STYLE_LINE_ROUNDED            = 76,
 195:lvgl/lvgl/src/core/../misc/lv_style.h ****     LV_STYLE_LINE_COLOR              = 77,
 196:lvgl/lvgl/src/core/../misc/lv_style.h ****     LV_STYLE_LINE_COLOR_FILTERED     = 77 | LV_STYLE_PROP_FILTER,
 197:lvgl/lvgl/src/core/../misc/lv_style.h ****     LV_STYLE_LINE_OPA                = 78,
 198:lvgl/lvgl/src/core/../misc/lv_style.h **** 
 199:lvgl/lvgl/src/core/../misc/lv_style.h ****     /*Group 5*/
 200:lvgl/lvgl/src/core/../misc/lv_style.h ****     LV_STYLE_ARC_WIDTH               = 80 | LV_STYLE_PROP_EXT_DRAW,
 201:lvgl/lvgl/src/core/../misc/lv_style.h ****     LV_STYLE_ARC_ROUNDED             = 81,
 202:lvgl/lvgl/src/core/../misc/lv_style.h ****     LV_STYLE_ARC_COLOR               = 82,
 203:lvgl/lvgl/src/core/../misc/lv_style.h ****     LV_STYLE_ARC_COLOR_FILTERED      = 82 | LV_STYLE_PROP_FILTER,
 204:lvgl/lvgl/src/core/../misc/lv_style.h ****     LV_STYLE_ARC_OPA                 = 83,
 205:lvgl/lvgl/src/core/../misc/lv_style.h ****     LV_STYLE_ARC_IMG_SRC             = 84,
 206:lvgl/lvgl/src/core/../misc/lv_style.h **** 
 207:lvgl/lvgl/src/core/../misc/lv_style.h ****     LV_STYLE_TEXT_COLOR              = 87 | LV_STYLE_PROP_INHERIT,
 208:lvgl/lvgl/src/core/../misc/lv_style.h ****     LV_STYLE_TEXT_COLOR_FILTERED     = 87 | LV_STYLE_PROP_INHERIT | LV_STYLE_PROP_FILTER,
 209:lvgl/lvgl/src/core/../misc/lv_style.h ****     LV_STYLE_TEXT_OPA                = 88 | LV_STYLE_PROP_INHERIT,
 210:lvgl/lvgl/src/core/../misc/lv_style.h ****     LV_STYLE_TEXT_FONT               = 89 | LV_STYLE_PROP_INHERIT | LV_STYLE_PROP_LAYOUT_REFR,
 211:lvgl/lvgl/src/core/../misc/lv_style.h ****     LV_STYLE_TEXT_LETTER_SPACE       = 90 | LV_STYLE_PROP_INHERIT | LV_STYLE_PROP_LAYOUT_REFR,
 212:lvgl/lvgl/src/core/../misc/lv_style.h ****     LV_STYLE_TEXT_LINE_SPACE         = 91 | LV_STYLE_PROP_INHERIT | LV_STYLE_PROP_LAYOUT_REFR,
 213:lvgl/lvgl/src/core/../misc/lv_style.h ****     LV_STYLE_TEXT_DECOR              = 92 | LV_STYLE_PROP_INHERIT,
 214:lvgl/lvgl/src/core/../misc/lv_style.h ****     LV_STYLE_TEXT_ALIGN              = 93 | LV_STYLE_PROP_INHERIT | LV_STYLE_PROP_LAYOUT_REFR,
 215:lvgl/lvgl/src/core/../misc/lv_style.h **** 
 216:lvgl/lvgl/src/core/../misc/lv_style.h ****     /*Group 6*/
 217:lvgl/lvgl/src/core/../misc/lv_style.h ****     LV_STYLE_RADIUS                  = 96,
 218:lvgl/lvgl/src/core/../misc/lv_style.h ****     LV_STYLE_CLIP_CORNER             = 97,
 219:lvgl/lvgl/src/core/../misc/lv_style.h ****     LV_STYLE_OPA                     = 98 | LV_STYLE_PROP_INHERIT,
 220:lvgl/lvgl/src/core/../misc/lv_style.h ****     LV_STYLE_COLOR_FILTER_DSC        = 99,
 221:lvgl/lvgl/src/core/../misc/lv_style.h ****     LV_STYLE_COLOR_FILTER_OPA        = 100,
 222:lvgl/lvgl/src/core/../misc/lv_style.h ****     LV_STYLE_ANIM_TIME               = 101,
 223:lvgl/lvgl/src/core/../misc/lv_style.h ****     LV_STYLE_ANIM_SPEED              = 102,
 224:lvgl/lvgl/src/core/../misc/lv_style.h ****     LV_STYLE_TRANSITION              = 103,
 225:lvgl/lvgl/src/core/../misc/lv_style.h ****     LV_STYLE_BLEND_MODE              = 104,
 226:lvgl/lvgl/src/core/../misc/lv_style.h ****     LV_STYLE_LAYOUT                  = 105 | LV_STYLE_PROP_LAYOUT_REFR,
 227:lvgl/lvgl/src/core/../misc/lv_style.h ****     LV_STYLE_BASE_DIR                = 106 | LV_STYLE_PROP_INHERIT | LV_STYLE_PROP_LAYOUT_REFR,
 228:lvgl/lvgl/src/core/../misc/lv_style.h **** 
 229:lvgl/lvgl/src/core/../misc/lv_style.h ****     _LV_STYLE_LAST_BUILT_IN_PROP     = 111,
 230:lvgl/lvgl/src/core/../misc/lv_style.h **** 
ARM GAS  C:\Users\gx\AppData\Local\Temp\cccIVLs9.s 			page 70


 231:lvgl/lvgl/src/core/../misc/lv_style.h ****     LV_STYLE_PROP_ANY                = 0xFFFF
 232:lvgl/lvgl/src/core/../misc/lv_style.h **** }lv_style_prop_t;
 233:lvgl/lvgl/src/core/../misc/lv_style.h **** 
 234:lvgl/lvgl/src/core/../misc/lv_style.h **** /**
 235:lvgl/lvgl/src/core/../misc/lv_style.h ****  * Descriptor for style transitions
 236:lvgl/lvgl/src/core/../misc/lv_style.h ****  */
 237:lvgl/lvgl/src/core/../misc/lv_style.h **** typedef struct {
 238:lvgl/lvgl/src/core/../misc/lv_style.h ****     const lv_style_prop_t * props; /**< An array with the properties to animate.*/
 239:lvgl/lvgl/src/core/../misc/lv_style.h **** #if LV_USE_USER_DATA
 240:lvgl/lvgl/src/core/../misc/lv_style.h ****     void * user_data;              /**< A custom user data that will be passed to the animation's u
 241:lvgl/lvgl/src/core/../misc/lv_style.h **** #endif
 242:lvgl/lvgl/src/core/../misc/lv_style.h ****     lv_anim_path_cb_t path_xcb;     /**< A path for the animation.*/
 243:lvgl/lvgl/src/core/../misc/lv_style.h ****     uint32_t time;                 /**< Duration of the transition in [ms]*/
 244:lvgl/lvgl/src/core/../misc/lv_style.h ****     uint32_t delay;                /**< Delay before the transition in [ms]*/
 245:lvgl/lvgl/src/core/../misc/lv_style.h **** }lv_style_transition_dsc_t;
 246:lvgl/lvgl/src/core/../misc/lv_style.h **** 
 247:lvgl/lvgl/src/core/../misc/lv_style.h **** /**
 248:lvgl/lvgl/src/core/../misc/lv_style.h ****  * Descriptor of a constant style property.
 249:lvgl/lvgl/src/core/../misc/lv_style.h ****  */
 250:lvgl/lvgl/src/core/../misc/lv_style.h **** typedef struct {
 251:lvgl/lvgl/src/core/../misc/lv_style.h ****     lv_style_prop_t prop;
 252:lvgl/lvgl/src/core/../misc/lv_style.h ****     lv_style_value_t value;
 253:lvgl/lvgl/src/core/../misc/lv_style.h **** } lv_style_const_prop_t;
 254:lvgl/lvgl/src/core/../misc/lv_style.h **** 
 255:lvgl/lvgl/src/core/../misc/lv_style.h **** /**
 256:lvgl/lvgl/src/core/../misc/lv_style.h ****  * Descriptor of a style (a collection of properties and values).
 257:lvgl/lvgl/src/core/../misc/lv_style.h ****  */
 258:lvgl/lvgl/src/core/../misc/lv_style.h **** typedef struct {
 259:lvgl/lvgl/src/core/../misc/lv_style.h **** 
 260:lvgl/lvgl/src/core/../misc/lv_style.h **** #if LV_USE_ASSERT_STYLE
 261:lvgl/lvgl/src/core/../misc/lv_style.h ****     uint32_t sentinel;
 262:lvgl/lvgl/src/core/../misc/lv_style.h **** #endif
 263:lvgl/lvgl/src/core/../misc/lv_style.h **** 
 264:lvgl/lvgl/src/core/../misc/lv_style.h ****     /*If there is only one property store it directly.
 265:lvgl/lvgl/src/core/../misc/lv_style.h ****      *For more properties allocate an array*/
 266:lvgl/lvgl/src/core/../misc/lv_style.h ****     union {
 267:lvgl/lvgl/src/core/../misc/lv_style.h ****         lv_style_value_t value1;
 268:lvgl/lvgl/src/core/../misc/lv_style.h ****         uint8_t * values_and_props;
 269:lvgl/lvgl/src/core/../misc/lv_style.h ****         const lv_style_const_prop_t * const_props;
 270:lvgl/lvgl/src/core/../misc/lv_style.h ****     } v_p;
 271:lvgl/lvgl/src/core/../misc/lv_style.h **** 
 272:lvgl/lvgl/src/core/../misc/lv_style.h ****     uint16_t prop1 :15;
 273:lvgl/lvgl/src/core/../misc/lv_style.h ****     uint16_t is_const :1;
 274:lvgl/lvgl/src/core/../misc/lv_style.h ****     uint8_t has_group;
 275:lvgl/lvgl/src/core/../misc/lv_style.h ****     uint8_t prop_cnt;
 276:lvgl/lvgl/src/core/../misc/lv_style.h **** } lv_style_t;
 277:lvgl/lvgl/src/core/../misc/lv_style.h **** 
 278:lvgl/lvgl/src/core/../misc/lv_style.h **** /**********************
 279:lvgl/lvgl/src/core/../misc/lv_style.h ****  * GLOBAL PROTOTYPES
 280:lvgl/lvgl/src/core/../misc/lv_style.h ****  **********************/
 281:lvgl/lvgl/src/core/../misc/lv_style.h **** 
 282:lvgl/lvgl/src/core/../misc/lv_style.h **** 
 283:lvgl/lvgl/src/core/../misc/lv_style.h **** /**
 284:lvgl/lvgl/src/core/../misc/lv_style.h ****  * Initialize a style
 285:lvgl/lvgl/src/core/../misc/lv_style.h ****  * @param style pointer to a style to initialize
 286:lvgl/lvgl/src/core/../misc/lv_style.h ****  * @note Do not call `lv_style_init` on styles that are already have some properties
 287:lvgl/lvgl/src/core/../misc/lv_style.h ****  *       because this function won't free the used memory just set a default state for the style.
ARM GAS  C:\Users\gx\AppData\Local\Temp\cccIVLs9.s 			page 71


 288:lvgl/lvgl/src/core/../misc/lv_style.h ****  *       In other words be sure to initialize styles only once!
 289:lvgl/lvgl/src/core/../misc/lv_style.h ****  */
 290:lvgl/lvgl/src/core/../misc/lv_style.h **** void lv_style_init(lv_style_t * style);
 291:lvgl/lvgl/src/core/../misc/lv_style.h **** 
 292:lvgl/lvgl/src/core/../misc/lv_style.h **** /**
 293:lvgl/lvgl/src/core/../misc/lv_style.h ****  * Clear all properties from a style and free all allocated memories.
 294:lvgl/lvgl/src/core/../misc/lv_style.h ****  * @param style pointer to a style
 295:lvgl/lvgl/src/core/../misc/lv_style.h ****  */
 296:lvgl/lvgl/src/core/../misc/lv_style.h **** void lv_style_reset(lv_style_t * style);
 297:lvgl/lvgl/src/core/../misc/lv_style.h **** 
 298:lvgl/lvgl/src/core/../misc/lv_style.h **** /**
 299:lvgl/lvgl/src/core/../misc/lv_style.h ****  * Register a new style property for custom usage
 300:lvgl/lvgl/src/core/../misc/lv_style.h ****  * @return a new property ID.
 301:lvgl/lvgl/src/core/../misc/lv_style.h ****  * @example
 302:lvgl/lvgl/src/core/../misc/lv_style.h ****  * lv_style_prop_t MY_PROP;
 303:lvgl/lvgl/src/core/../misc/lv_style.h ****  * static inline void lv_style_set_my_prop(lv_style_t * style, lv_color_t value) {
 304:lvgl/lvgl/src/core/../misc/lv_style.h ****  * lv_style_value_t v = {.color = value}; lv_style_set_prop(style, MY_PROP, v); }
 305:lvgl/lvgl/src/core/../misc/lv_style.h ****  *
 306:lvgl/lvgl/src/core/../misc/lv_style.h ****  * ...
 307:lvgl/lvgl/src/core/../misc/lv_style.h ****  * MY_PROP = lv_style_register_prop();
 308:lvgl/lvgl/src/core/../misc/lv_style.h ****  * ...
 309:lvgl/lvgl/src/core/../misc/lv_style.h ****  * lv_style_set_my_prop(&style1, lv_palette_main(LV_PALETTE_RED));
 310:lvgl/lvgl/src/core/../misc/lv_style.h ****  */
 311:lvgl/lvgl/src/core/../misc/lv_style.h **** lv_style_prop_t lv_style_register_prop(void);
 312:lvgl/lvgl/src/core/../misc/lv_style.h **** 
 313:lvgl/lvgl/src/core/../misc/lv_style.h **** /**
 314:lvgl/lvgl/src/core/../misc/lv_style.h ****  * Remove a property from a style
 315:lvgl/lvgl/src/core/../misc/lv_style.h ****  * @param style pointer to a style
 316:lvgl/lvgl/src/core/../misc/lv_style.h ****  * @param prop  a style property ORed with a state.
 317:lvgl/lvgl/src/core/../misc/lv_style.h ****  * @return true: the property was found and removed; false: the property wasn't found
 318:lvgl/lvgl/src/core/../misc/lv_style.h ****  */
 319:lvgl/lvgl/src/core/../misc/lv_style.h **** bool lv_style_remove_prop(lv_style_t * style, lv_style_prop_t prop);
 320:lvgl/lvgl/src/core/../misc/lv_style.h **** 
 321:lvgl/lvgl/src/core/../misc/lv_style.h **** /**
 322:lvgl/lvgl/src/core/../misc/lv_style.h ****  * Set the value of property in a style.
 323:lvgl/lvgl/src/core/../misc/lv_style.h ****  * This function shouldn't be used directly by the user.
 324:lvgl/lvgl/src/core/../misc/lv_style.h ****  * Instead use `lv_style_set_<prop_name>()`. E.g. `lv_style_set_bg_color()`
 325:lvgl/lvgl/src/core/../misc/lv_style.h ****  * @param style pointer to style
 326:lvgl/lvgl/src/core/../misc/lv_style.h ****  * @param prop the ID of a property (e.g. `LV_STLYE_BG_COLOR`)
 327:lvgl/lvgl/src/core/../misc/lv_style.h ****  * @param value `lv_style_value_t` variable in which a filed is set according to the type of `prop`
 328:lvgl/lvgl/src/core/../misc/lv_style.h ****  */
 329:lvgl/lvgl/src/core/../misc/lv_style.h **** void lv_style_set_prop(lv_style_t * style, lv_style_prop_t prop, lv_style_value_t value);
 330:lvgl/lvgl/src/core/../misc/lv_style.h **** 
 331:lvgl/lvgl/src/core/../misc/lv_style.h **** /**
 332:lvgl/lvgl/src/core/../misc/lv_style.h ****  * Get the value of a property
 333:lvgl/lvgl/src/core/../misc/lv_style.h ****  * @param style pointer to a style
 334:lvgl/lvgl/src/core/../misc/lv_style.h ****  * @param prop  the ID of a property
 335:lvgl/lvgl/src/core/../misc/lv_style.h ****  * @param value pointer to a `lv_style_value_t` variable to store the value
 336:lvgl/lvgl/src/core/../misc/lv_style.h ****  * @return LV_RES_INV: the property wsn't found in the style (`value` is unchanged)
 337:lvgl/lvgl/src/core/../misc/lv_style.h ****  *         LV_RES_OK: the property was fond, and `value` is set accordingly
 338:lvgl/lvgl/src/core/../misc/lv_style.h ****  * @note For performance reasons there are no sanity check on `style`
 339:lvgl/lvgl/src/core/../misc/lv_style.h ****  */
 340:lvgl/lvgl/src/core/../misc/lv_style.h **** lv_res_t lv_style_get_prop(lv_style_t * style, lv_style_prop_t prop, lv_style_value_t * value);
 341:lvgl/lvgl/src/core/../misc/lv_style.h **** 
 342:lvgl/lvgl/src/core/../misc/lv_style.h **** 
 343:lvgl/lvgl/src/core/../misc/lv_style.h **** /**
 344:lvgl/lvgl/src/core/../misc/lv_style.h ****  * Get the value of a property
ARM GAS  C:\Users\gx\AppData\Local\Temp\cccIVLs9.s 			page 72


 345:lvgl/lvgl/src/core/../misc/lv_style.h ****  * @param style pointer to a style
 346:lvgl/lvgl/src/core/../misc/lv_style.h ****  * @param prop  the ID of a property
 347:lvgl/lvgl/src/core/../misc/lv_style.h ****  * @param value pointer to a `lv_style_value_t` variable to store the value
 348:lvgl/lvgl/src/core/../misc/lv_style.h ****  * @return LV_RES_INV: the property wsn't found in the style (`value` is unchanged)
 349:lvgl/lvgl/src/core/../misc/lv_style.h ****  *         LV_RES_OK: the property was fond, and `value` is set accordingly
 350:lvgl/lvgl/src/core/../misc/lv_style.h ****  * @note For performance reasons there are no sanity check on `style`
 351:lvgl/lvgl/src/core/../misc/lv_style.h ****  * @note This function is the same as ::lv_style_get_prop but inlined. Use it only on performance c
 352:lvgl/lvgl/src/core/../misc/lv_style.h ****  */
 353:lvgl/lvgl/src/core/../misc/lv_style.h **** static inline lv_res_t lv_style_get_prop_inlined(lv_style_t * style, lv_style_prop_t prop, lv_style
 354:lvgl/lvgl/src/core/../misc/lv_style.h **** {
 355:lvgl/lvgl/src/core/../misc/lv_style.h ****     if(style->is_const) {
 356:lvgl/lvgl/src/core/../misc/lv_style.h ****         const lv_style_const_prop_t *const_prop;
 1701              		.loc 4 356 9 is_stmt 1 view .LVU579
 357:lvgl/lvgl/src/core/../misc/lv_style.h ****         for(const_prop = style->v_p.const_props; const_prop->prop != LV_STYLE_PROP_INV; const_prop+
 1702              		.loc 4 357 9 view .LVU580
 1703              		.loc 4 357 24 is_stmt 0 view .LVU581
 1704 0040 1B68     		ldr	r3, [r3]
 1705              	.LVL165:
 1706              		.loc 4 357 9 view .LVU582
 1707 0042 00E0     		b	.L68
 1708              	.L69:
 1709              		.loc 4 357 89 is_stmt 1 view .LVU583
 1710              		.loc 4 357 99 is_stmt 0 view .LVU584
 1711 0044 0833     		adds	r3, r3, #8
 1712              	.LVL166:
 1713              	.L68:
 1714              		.loc 4 357 50 is_stmt 1 view .LVU585
 1715              		.loc 4 357 60 is_stmt 0 view .LVU586
 1716 0046 1A88     		ldrh	r2, [r3]
 1717              		.loc 4 357 9 view .LVU587
 1718 0048 A2B1     		cbz	r2, .L70
 358:lvgl/lvgl/src/core/../misc/lv_style.h ****             if(const_prop->prop == prop) {
 1719              		.loc 4 358 13 is_stmt 1 view .LVU588
 1720              		.loc 4 358 15 is_stmt 0 view .LVU589
 1721 004a 672A     		cmp	r2, #103
 1722 004c FAD1     		bne	.L69
 359:lvgl/lvgl/src/core/../misc/lv_style.h ****                 *value = const_prop->value;
 1723              		.loc 4 359 17 is_stmt 1 view .LVU590
 1724              		.loc 4 359 24 is_stmt 0 view .LVU591
 1725 004e 5B68     		ldr	r3, [r3, #4]
 1726              	.LVL167:
 1727              		.loc 4 359 24 view .LVU592
 1728 0050 0B93     		str	r3, [sp, #44]
 360:lvgl/lvgl/src/core/../misc/lv_style.h ****                 return LV_RES_OK;
 1729              		.loc 4 360 17 is_stmt 1 view .LVU593
 1730              		.loc 4 360 24 is_stmt 0 view .LVU594
 1731 0052 0121     		movs	r1, #1
 1732 0054 0EE0     		b	.L70
 1733              	.LVL168:
 1734              	.L99:
 1735              		.loc 4 360 24 view .LVU595
 1736              	.LBE188:
 1737              	.LBB189:
 1738              	.LBB190:
 361:lvgl/lvgl/src/core/../misc/lv_style.h ****             }
 362:lvgl/lvgl/src/core/../misc/lv_style.h ****         }
 363:lvgl/lvgl/src/core/../misc/lv_style.h ****         return LV_RES_INV;
ARM GAS  C:\Users\gx\AppData\Local\Temp\cccIVLs9.s 			page 73


 364:lvgl/lvgl/src/core/../misc/lv_style.h ****     }
 365:lvgl/lvgl/src/core/../misc/lv_style.h **** 
 366:lvgl/lvgl/src/core/../misc/lv_style.h ****     if(style->prop_cnt == 0) return LV_RES_INV;
 367:lvgl/lvgl/src/core/../misc/lv_style.h **** 
 368:lvgl/lvgl/src/core/../misc/lv_style.h ****     if(style->prop_cnt > 1) {
 369:lvgl/lvgl/src/core/../misc/lv_style.h ****         uint8_t * tmp = style->v_p.values_and_props + style->prop_cnt * sizeof(lv_style_value_t);
 370:lvgl/lvgl/src/core/../misc/lv_style.h ****         uint16_t * props = (uint16_t *)tmp;
 371:lvgl/lvgl/src/core/../misc/lv_style.h ****         uint32_t i;
 372:lvgl/lvgl/src/core/../misc/lv_style.h ****         for(i = 0; i < style->prop_cnt; i++) {
 373:lvgl/lvgl/src/core/../misc/lv_style.h ****             if(props[i] == prop) {
 374:lvgl/lvgl/src/core/../misc/lv_style.h ****                 lv_style_value_t * values = (lv_style_value_t *)style->v_p.values_and_props;
 1739              		.loc 4 374 17 is_stmt 1 view .LVU596
 375:lvgl/lvgl/src/core/../misc/lv_style.h ****                 *value = values[i];
 1740              		.loc 4 375 17 view .LVU597
 1741              		.loc 4 375 24 is_stmt 0 view .LVU598
 1742 0056 54F82330 		ldr	r3, [r4, r3, lsl #2]
 1743              	.LVL169:
 1744              		.loc 4 375 24 view .LVU599
 1745 005a 0B93     		str	r3, [sp, #44]
 376:lvgl/lvgl/src/core/../misc/lv_style.h ****                 return LV_RES_OK;
 1746              		.loc 4 376 17 is_stmt 1 view .LVU600
 1747              		.loc 4 376 24 is_stmt 0 view .LVU601
 1748 005c 0121     		movs	r1, #1
 1749 005e 09E0     		b	.L70
 1750              	.LVL170:
 1751              	.L72:
 1752              		.loc 4 376 24 view .LVU602
 1753              	.LBE190:
 1754              	.LBE189:
 377:lvgl/lvgl/src/core/../misc/lv_style.h ****             }
 378:lvgl/lvgl/src/core/../misc/lv_style.h ****         }
 379:lvgl/lvgl/src/core/../misc/lv_style.h ****     } else if(style->prop1 == prop) {
 1755              		.loc 4 379 12 is_stmt 1 view .LVU603
 1756              		.loc 4 379 20 is_stmt 0 view .LVU604
 1757 0060 9A88     		ldrh	r2, [r3, #4]
 1758 0062 C2F30E02 		ubfx	r2, r2, #0, #15
 1759              		.loc 4 379 14 view .LVU605
 1760 0066 672A     		cmp	r2, #103
 1761 0068 04D1     		bne	.L70
 380:lvgl/lvgl/src/core/../misc/lv_style.h ****         *value = style->v_p.value1;
 1762              		.loc 4 380 9 is_stmt 1 view .LVU606
 1763              		.loc 4 380 16 is_stmt 0 view .LVU607
 1764 006a 1B68     		ldr	r3, [r3]
 1765              	.LVL171:
 1766              		.loc 4 380 16 view .LVU608
 1767 006c 0B93     		str	r3, [sp, #44]
 381:lvgl/lvgl/src/core/../misc/lv_style.h ****         return LV_RES_OK;
 1768              		.loc 4 381 9 is_stmt 1 view .LVU609
 1769              		.loc 4 381 16 is_stmt 0 view .LVU610
 1770 006e 0121     		movs	r1, #1
 1771 0070 00E0     		b	.L70
 1772              	.LVL172:
 1773              	.L90:
 366:lvgl/lvgl/src/core/../misc/lv_style.h **** 
 1774              		.loc 4 366 37 view .LVU611
 1775 0072 1146     		mov	r1, r2
 1776              	.LVL173:
ARM GAS  C:\Users\gx\AppData\Local\Temp\cccIVLs9.s 			page 74


 1777              	.L70:
 366:lvgl/lvgl/src/core/../misc/lv_style.h **** 
 1778              		.loc 4 366 37 view .LVU612
 1779              	.LBE187:
 1780              	.LBE186:
 848:lvgl/lvgl/src/core/lv_obj.c ****         const lv_style_transition_dsc_t * tr = v.ptr;
 1781              		.loc 1 848 11 view .LVU613
 1782 0074 0029     		cmp	r1, #0
 1783 0076 43D1     		bne	.L96
 1784              	.LVL174:
 1785              	.L83:
 848:lvgl/lvgl/src/core/lv_obj.c ****         const lv_style_transition_dsc_t * tr = v.ptr;
 1786              		.loc 1 848 11 view .LVU614
 1787              	.LBE185:
 840:lvgl/lvgl/src/core/lv_obj.c ****         _lv_obj_style_t * obj_style = &obj->styles[i];
 1788              		.loc 1 840 66 is_stmt 1 discriminator 2 view .LVU615
 840:lvgl/lvgl/src/core/lv_obj.c ****         _lv_obj_style_t * obj_style = &obj->styles[i];
 1789              		.loc 1 840 67 is_stmt 0 discriminator 2 view .LVU616
 1790 0078 039B     		ldr	r3, [sp, #12]
 1791              	.LVL175:
 840:lvgl/lvgl/src/core/lv_obj.c ****         _lv_obj_style_t * obj_style = &obj->styles[i];
 1792              		.loc 1 840 67 discriminator 2 view .LVU617
 1793 007a 0133     		adds	r3, r3, #1
 1794 007c 0393     		str	r3, [sp, #12]
 1795              	.LVL176:
 1796              	.L65:
 840:lvgl/lvgl/src/core/lv_obj.c ****         _lv_obj_style_t * obj_style = &obj->styles[i];
 1797              		.loc 1 840 16 is_stmt 1 discriminator 1 view .LVU618
 840:lvgl/lvgl/src/core/lv_obj.c ****         _lv_obj_style_t * obj_style = &obj->styles[i];
 1798              		.loc 1 840 23 is_stmt 0 discriminator 1 view .LVU619
 1799 007e 069B     		ldr	r3, [sp, #24]
 1800 0080 5B8C     		ldrh	r3, [r3, #34]
 1801 0082 C3F3C503 		ubfx	r3, r3, #3, #6
 840:lvgl/lvgl/src/core/lv_obj.c ****         _lv_obj_style_t * obj_style = &obj->styles[i];
 1802              		.loc 1 840 5 discriminator 1 view .LVU620
 1803 0086 039A     		ldr	r2, [sp, #12]
 1804 0088 9342     		cmp	r3, r2
 1805 008a 40F2B780 		bls	.L92
 840:lvgl/lvgl/src/core/lv_obj.c ****         _lv_obj_style_t * obj_style = &obj->styles[i];
 1806              		.loc 1 840 35 discriminator 3 view .LVU621
 1807 008e BBF11F0F 		cmp	fp, #31
 1808 0092 00F28780 		bhi	.L97
 1809              	.LBB197:
 841:lvgl/lvgl/src/core/lv_obj.c ****         lv_state_t state_act = lv_obj_style_get_selector_state(obj->styles[i].selector);
 1810              		.loc 1 841 9 is_stmt 1 view .LVU622
 841:lvgl/lvgl/src/core/lv_obj.c ****         lv_state_t state_act = lv_obj_style_get_selector_state(obj->styles[i].selector);
 1811              		.loc 1 841 43 is_stmt 0 view .LVU623
 1812 0096 069E     		ldr	r6, [sp, #24]
 1813 0098 F568     		ldr	r5, [r6, #12]
 841:lvgl/lvgl/src/core/lv_obj.c ****         lv_state_t state_act = lv_obj_style_get_selector_state(obj->styles[i].selector);
 1814              		.loc 1 841 51 view .LVU624
 1815 009a 039B     		ldr	r3, [sp, #12]
 1816 009c DC00     		lsls	r4, r3, #3
 841:lvgl/lvgl/src/core/lv_obj.c ****         lv_state_t state_act = lv_obj_style_get_selector_state(obj->styles[i].selector);
 1817              		.loc 1 841 27 view .LVU625
 1818 009e 05EBC307 		add	r7, r5, r3, lsl #3
 1819 00a2 0897     		str	r7, [sp, #32]
ARM GAS  C:\Users\gx\AppData\Local\Temp\cccIVLs9.s 			page 75


 1820              	.LVL177:
 842:lvgl/lvgl/src/core/lv_obj.c ****         lv_part_t part_act = lv_obj_style_get_selector_part(obj->styles[i].selector);
 1821              		.loc 1 842 9 is_stmt 1 view .LVU626
 842:lvgl/lvgl/src/core/lv_obj.c ****         lv_part_t part_act = lv_obj_style_get_selector_part(obj->styles[i].selector);
 1822              		.loc 1 842 78 is_stmt 0 view .LVU627
 1823 00a4 7868     		ldr	r0, [r7, #4]
 842:lvgl/lvgl/src/core/lv_obj.c ****         lv_part_t part_act = lv_obj_style_get_selector_part(obj->styles[i].selector);
 1824              		.loc 1 842 32 view .LVU628
 1825 00a6 20F07F40 		bic	r0, r0, #-16777216
 1826 00aa FFF7FEFF 		bl	lv_obj_style_get_selector_state
 1827              	.LVL178:
 1828 00ae 8046     		mov	r8, r0
 1829 00b0 0590     		str	r0, [sp, #20]
 1830              	.LVL179:
 843:lvgl/lvgl/src/core/lv_obj.c ****         if(state_act & (~new_state)) continue; /*Skip unrelated styles*/
 1831              		.loc 1 843 9 is_stmt 1 view .LVU629
 843:lvgl/lvgl/src/core/lv_obj.c ****         if(state_act & (~new_state)) continue; /*Skip unrelated styles*/
 1832              		.loc 1 843 64 is_stmt 0 view .LVU630
 1833 00b2 F368     		ldr	r3, [r6, #12]
 843:lvgl/lvgl/src/core/lv_obj.c ****         if(state_act & (~new_state)) continue; /*Skip unrelated styles*/
 1834              		.loc 1 843 72 view .LVU631
 1835 00b4 2344     		add	r3, r3, r4
 843:lvgl/lvgl/src/core/lv_obj.c ****         if(state_act & (~new_state)) continue; /*Skip unrelated styles*/
 1836              		.loc 1 843 75 view .LVU632
 1837 00b6 5868     		ldr	r0, [r3, #4]
 843:lvgl/lvgl/src/core/lv_obj.c ****         if(state_act & (~new_state)) continue; /*Skip unrelated styles*/
 1838              		.loc 1 843 30 view .LVU633
 1839 00b8 20F07F40 		bic	r0, r0, #-16777216
 1840 00bc FFF7FEFF 		bl	lv_obj_style_get_selector_part
 1841              	.LVL180:
 1842 00c0 0646     		mov	r6, r0
 1843              	.LVL181:
 844:lvgl/lvgl/src/core/lv_obj.c ****         if(obj_style->is_trans) continue;
 1844              		.loc 1 844 9 is_stmt 1 view .LVU634
 844:lvgl/lvgl/src/core/lv_obj.c ****         if(obj_style->is_trans) continue;
 1845              		.loc 1 844 11 is_stmt 0 view .LVU635
 1846 00c2 4346     		mov	r3, r8
 1847 00c4 079A     		ldr	r2, [sp, #28]
 1848 00c6 9343     		bics	r3, r3, r2
 1849 00c8 D6D1     		bne	.L83
 845:lvgl/lvgl/src/core/lv_obj.c **** 
 1850              		.loc 1 845 9 is_stmt 1 view .LVU636
 845:lvgl/lvgl/src/core/lv_obj.c **** 
 1851              		.loc 1 845 12 is_stmt 0 view .LVU637
 1852 00ca FB79     		ldrb	r3, [r7, #7]	@ zero_extendqisi2
 845:lvgl/lvgl/src/core/lv_obj.c **** 
 1853              		.loc 1 845 11 view .LVU638
 1854 00cc 13F00201 		ands	r1, r3, #2
 1855 00d0 D2D1     		bne	.L83
 847:lvgl/lvgl/src/core/lv_obj.c ****         if(lv_style_get_prop_inlined(obj_style->style, LV_STYLE_TRANSITION, &v) == false) continue;
 1856              		.loc 1 847 9 is_stmt 1 view .LVU639
 848:lvgl/lvgl/src/core/lv_obj.c ****         const lv_style_transition_dsc_t * tr = v.ptr;
 1857              		.loc 1 848 9 view .LVU640
 848:lvgl/lvgl/src/core/lv_obj.c ****         const lv_style_transition_dsc_t * tr = v.ptr;
 1858              		.loc 1 848 12 is_stmt 0 view .LVU641
 1859 00d2 2B59     		ldr	r3, [r5, r4]
 1860              	.LVL182:
ARM GAS  C:\Users\gx\AppData\Local\Temp\cccIVLs9.s 			page 76


 1861              	.LBB193:
 1862              	.LBI186:
 353:lvgl/lvgl/src/core/../misc/lv_style.h **** {
 1863              		.loc 4 353 24 is_stmt 1 view .LVU642
 1864              	.LBB192:
 355:lvgl/lvgl/src/core/../misc/lv_style.h ****         const lv_style_const_prop_t *const_prop;
 1865              		.loc 4 355 5 view .LVU643
 355:lvgl/lvgl/src/core/../misc/lv_style.h ****         const lv_style_const_prop_t *const_prop;
 1866              		.loc 4 355 7 is_stmt 0 view .LVU644
 1867 00d4 93F90520 		ldrsb	r2, [r3, #5]
 1868 00d8 002A     		cmp	r2, #0
 1869 00da B1DB     		blt	.L98
 366:lvgl/lvgl/src/core/../misc/lv_style.h **** 
 1870              		.loc 4 366 5 is_stmt 1 view .LVU645
 366:lvgl/lvgl/src/core/../misc/lv_style.h **** 
 1871              		.loc 4 366 13 is_stmt 0 view .LVU646
 1872 00dc DA79     		ldrb	r2, [r3, #7]	@ zero_extendqisi2
 366:lvgl/lvgl/src/core/../misc/lv_style.h **** 
 1873              		.loc 4 366 7 view .LVU647
 1874 00de 002A     		cmp	r2, #0
 1875 00e0 C7D0     		beq	.L90
 368:lvgl/lvgl/src/core/../misc/lv_style.h ****         uint8_t * tmp = style->v_p.values_and_props + style->prop_cnt * sizeof(lv_style_value_t);
 1876              		.loc 4 368 5 is_stmt 1 view .LVU648
 368:lvgl/lvgl/src/core/../misc/lv_style.h ****         uint8_t * tmp = style->v_p.values_and_props + style->prop_cnt * sizeof(lv_style_value_t);
 1877              		.loc 4 368 7 is_stmt 0 view .LVU649
 1878 00e2 012A     		cmp	r2, #1
 1879 00e4 BCD9     		bls	.L72
 1880              	.LBB191:
 369:lvgl/lvgl/src/core/../misc/lv_style.h ****         uint16_t * props = (uint16_t *)tmp;
 1881              		.loc 4 369 9 is_stmt 1 view .LVU650
 369:lvgl/lvgl/src/core/../misc/lv_style.h ****         uint16_t * props = (uint16_t *)tmp;
 1882              		.loc 4 369 35 is_stmt 0 view .LVU651
 1883 00e6 1C68     		ldr	r4, [r3]
 369:lvgl/lvgl/src/core/../misc/lv_style.h ****         uint16_t * props = (uint16_t *)tmp;
 1884              		.loc 4 369 60 view .LVU652
 1885 00e8 1046     		mov	r0, r2
 1886              	.LVL183:
 369:lvgl/lvgl/src/core/../misc/lv_style.h ****         uint16_t * props = (uint16_t *)tmp;
 1887              		.loc 4 369 71 view .LVU653
 1888 00ea 9200     		lsls	r2, r2, #2
 1889              	.LVL184:
 370:lvgl/lvgl/src/core/../misc/lv_style.h ****         uint32_t i;
 1890              		.loc 4 370 9 is_stmt 1 view .LVU654
 371:lvgl/lvgl/src/core/../misc/lv_style.h ****         for(i = 0; i < style->prop_cnt; i++) {
 1891              		.loc 4 371 9 view .LVU655
 372:lvgl/lvgl/src/core/../misc/lv_style.h ****             if(props[i] == prop) {
 1892              		.loc 4 372 9 view .LVU656
 372:lvgl/lvgl/src/core/../misc/lv_style.h ****             if(props[i] == prop) {
 1893              		.loc 4 372 15 is_stmt 0 view .LVU657
 1894 00ec 0023     		movs	r3, #0
 1895              	.LVL185:
 1896              	.L73:
 372:lvgl/lvgl/src/core/../misc/lv_style.h ****             if(props[i] == prop) {
 1897              		.loc 4 372 20 is_stmt 1 view .LVU658
 372:lvgl/lvgl/src/core/../misc/lv_style.h ****             if(props[i] == prop) {
 1898              		.loc 4 372 9 is_stmt 0 view .LVU659
 1899 00ee 9842     		cmp	r0, r3
ARM GAS  C:\Users\gx\AppData\Local\Temp\cccIVLs9.s 			page 77


 1900 00f0 C0D9     		bls	.L70
 373:lvgl/lvgl/src/core/../misc/lv_style.h ****                 lv_style_value_t * values = (lv_style_value_t *)style->v_p.values_and_props;
 1901              		.loc 4 373 13 is_stmt 1 view .LVU660
 373:lvgl/lvgl/src/core/../misc/lv_style.h ****                 lv_style_value_t * values = (lv_style_value_t *)style->v_p.values_and_props;
 1902              		.loc 4 373 21 is_stmt 0 view .LVU661
 1903 00f2 A518     		adds	r5, r4, r2
 1904 00f4 35F81350 		ldrh	r5, [r5, r3, lsl #1]
 373:lvgl/lvgl/src/core/../misc/lv_style.h ****                 lv_style_value_t * values = (lv_style_value_t *)style->v_p.values_and_props;
 1905              		.loc 4 373 15 view .LVU662
 1906 00f8 672D     		cmp	r5, #103
 1907 00fa ACD0     		beq	.L99
 372:lvgl/lvgl/src/core/../misc/lv_style.h ****             if(props[i] == prop) {
 1908              		.loc 4 372 41 is_stmt 1 view .LVU663
 372:lvgl/lvgl/src/core/../misc/lv_style.h ****             if(props[i] == prop) {
 1909              		.loc 4 372 42 is_stmt 0 view .LVU664
 1910 00fc 0133     		adds	r3, r3, #1
 1911              	.LVL186:
 372:lvgl/lvgl/src/core/../misc/lv_style.h ****             if(props[i] == prop) {
 1912              		.loc 4 372 42 view .LVU665
 1913 00fe F6E7     		b	.L73
 1914              	.LVL187:
 1915              	.L96:
 372:lvgl/lvgl/src/core/../misc/lv_style.h ****             if(props[i] == prop) {
 1916              		.loc 4 372 42 view .LVU666
 1917              	.LBE191:
 1918              	.LBE192:
 1919              	.LBE193:
 849:lvgl/lvgl/src/core/lv_obj.c **** 
 1920              		.loc 1 849 9 is_stmt 1 view .LVU667
 849:lvgl/lvgl/src/core/lv_obj.c **** 
 1921              		.loc 1 849 43 is_stmt 0 view .LVU668
 1922 0100 DDF82C80 		ldr	r8, [sp, #44]
 1923              	.LVL188:
 852:lvgl/lvgl/src/core/lv_obj.c ****         for(j = 0; tr->props[j] != 0 && tsi < STYLE_TRANSITION_MAX; j++) {
 1924              		.loc 1 852 9 is_stmt 1 view .LVU669
 853:lvgl/lvgl/src/core/lv_obj.c ****             uint32_t t;
 1925              		.loc 1 853 9 view .LVU670
 853:lvgl/lvgl/src/core/lv_obj.c ****             uint32_t t;
 1926              		.loc 1 853 15 is_stmt 0 view .LVU671
 1927 0104 0023     		movs	r3, #0
 1928              	.LVL189:
 853:lvgl/lvgl/src/core/lv_obj.c ****             uint32_t t;
 1929              		.loc 1 853 15 view .LVU672
 1930 0106 0493     		str	r3, [sp, #16]
 853:lvgl/lvgl/src/core/lv_obj.c ****             uint32_t t;
 1931              		.loc 1 853 9 view .LVU673
 1932 0108 20E0     		b	.L76
 1933              	.LVL190:
 1934              	.L77:
 1935              	.LBB194:
 855:lvgl/lvgl/src/core/lv_obj.c ****                 lv_style_selector_t selector = ts[t].selector;
 1936              		.loc 1 855 33 is_stmt 1 discriminator 2 view .LVU674
 855:lvgl/lvgl/src/core/lv_obj.c ****                 lv_style_selector_t selector = ts[t].selector;
 1937              		.loc 1 855 34 is_stmt 0 discriminator 2 view .LVU675
 1938 010a 0134     		adds	r4, r4, #1
 1939              	.LVL191:
 1940              	.L82:
ARM GAS  C:\Users\gx\AppData\Local\Temp\cccIVLs9.s 			page 78


 855:lvgl/lvgl/src/core/lv_obj.c ****                 lv_style_selector_t selector = ts[t].selector;
 1941              		.loc 1 855 24 is_stmt 1 discriminator 1 view .LVU676
 855:lvgl/lvgl/src/core/lv_obj.c ****                 lv_style_selector_t selector = ts[t].selector;
 1942              		.loc 1 855 13 is_stmt 0 discriminator 1 view .LVU677
 1943 010c A345     		cmp	fp, r4
 1944 010e 18D9     		bls	.L78
 1945              	.LBB195:
 856:lvgl/lvgl/src/core/lv_obj.c ****                 lv_state_t state_ts = lv_obj_style_get_selector_state(selector);
 1946              		.loc 1 856 17 is_stmt 1 view .LVU678
 856:lvgl/lvgl/src/core/lv_obj.c ****                 lv_state_t state_ts = lv_obj_style_get_selector_state(selector);
 1947              		.loc 1 856 50 is_stmt 0 view .LVU679
 1948 0110 04EB8405 		add	r5, r4, r4, lsl #2
 1949 0114 0AEB8505 		add	r5, r10, r5, lsl #2
 856:lvgl/lvgl/src/core/lv_obj.c ****                 lv_state_t state_ts = lv_obj_style_get_selector_state(selector);
 1950              		.loc 1 856 37 view .LVU680
 1951 0118 6F68     		ldr	r7, [r5, #4]
 1952              	.LVL192:
 857:lvgl/lvgl/src/core/lv_obj.c ****                 lv_part_t part_ts = lv_obj_style_get_selector_part(selector);
 1953              		.loc 1 857 17 is_stmt 1 view .LVU681
 857:lvgl/lvgl/src/core/lv_obj.c ****                 lv_part_t part_ts = lv_obj_style_get_selector_part(selector);
 1954              		.loc 1 857 39 is_stmt 0 view .LVU682
 1955 011a 3846     		mov	r0, r7
 1956 011c FFF7FEFF 		bl	lv_obj_style_get_selector_state
 1957              	.LVL193:
 1958 0120 0290     		str	r0, [sp, #8]
 1959              	.LVL194:
 858:lvgl/lvgl/src/core/lv_obj.c ****                 if(ts[t].prop == tr->props[j] && part_ts == part_act && state_ts >= state_act) brea
 1960              		.loc 1 858 17 is_stmt 1 view .LVU683
 858:lvgl/lvgl/src/core/lv_obj.c ****                 if(ts[t].prop == tr->props[j] && part_ts == part_act && state_ts >= state_act) brea
 1961              		.loc 1 858 37 is_stmt 0 view .LVU684
 1962 0122 3846     		mov	r0, r7
 1963 0124 FFF7FEFF 		bl	lv_obj_style_get_selector_part
 1964              	.LVL195:
 859:lvgl/lvgl/src/core/lv_obj.c ****             }
 1965              		.loc 1 859 17 is_stmt 1 view .LVU685
 859:lvgl/lvgl/src/core/lv_obj.c ****             }
 1966              		.loc 1 859 25 is_stmt 0 view .LVU686
 1967 0128 2A89     		ldrh	r2, [r5, #8]
 859:lvgl/lvgl/src/core/lv_obj.c ****             }
 1968              		.loc 1 859 36 view .LVU687
 1969 012a D8F80030 		ldr	r3, [r8]
 859:lvgl/lvgl/src/core/lv_obj.c ****             }
 1970              		.loc 1 859 31 view .LVU688
 1971 012e 33F80930 		ldrh	r3, [r3, r9]
 859:lvgl/lvgl/src/core/lv_obj.c ****             }
 1972              		.loc 1 859 19 view .LVU689
 1973 0132 9A42     		cmp	r2, r3
 1974 0134 E9D1     		bne	.L77
 859:lvgl/lvgl/src/core/lv_obj.c ****             }
 1975              		.loc 1 859 47 discriminator 1 view .LVU690
 1976 0136 8642     		cmp	r6, r0
 1977 0138 E7D1     		bne	.L77
 859:lvgl/lvgl/src/core/lv_obj.c ****             }
 1978              		.loc 1 859 70 discriminator 2 view .LVU691
 1979 013a 059B     		ldr	r3, [sp, #20]
 1980 013c 029A     		ldr	r2, [sp, #8]
 1981 013e 9342     		cmp	r3, r2
ARM GAS  C:\Users\gx\AppData\Local\Temp\cccIVLs9.s 			page 79


 1982 0140 E3D8     		bhi	.L77
 1983              	.LVL196:
 1984              	.L78:
 859:lvgl/lvgl/src/core/lv_obj.c ****             }
 1985              		.loc 1 859 70 discriminator 2 view .LVU692
 1986              	.LBE195:
 863:lvgl/lvgl/src/core/lv_obj.c ****                 ts[tsi].time = tr->time;
 1987              		.loc 1 863 13 is_stmt 1 view .LVU693
 863:lvgl/lvgl/src/core/lv_obj.c ****                 ts[tsi].time = tr->time;
 1988              		.loc 1 863 15 is_stmt 0 view .LVU694
 1989 0142 A345     		cmp	fp, r4
 1990 0144 10D0     		beq	.L100
 1991              	.L80:
 863:lvgl/lvgl/src/core/lv_obj.c ****                 ts[tsi].time = tr->time;
 1992              		.loc 1 863 15 view .LVU695
 1993              	.LBE194:
 853:lvgl/lvgl/src/core/lv_obj.c ****             uint32_t t;
 1994              		.loc 1 853 69 is_stmt 1 discriminator 2 view .LVU696
 853:lvgl/lvgl/src/core/lv_obj.c ****             uint32_t t;
 1995              		.loc 1 853 70 is_stmt 0 discriminator 2 view .LVU697
 1996 0146 049B     		ldr	r3, [sp, #16]
 1997 0148 0133     		adds	r3, r3, #1
 1998 014a 0493     		str	r3, [sp, #16]
 1999              	.LVL197:
 2000              	.L76:
 853:lvgl/lvgl/src/core/lv_obj.c ****             uint32_t t;
 2001              		.loc 1 853 20 is_stmt 1 discriminator 1 view .LVU698
 853:lvgl/lvgl/src/core/lv_obj.c ****             uint32_t t;
 2002              		.loc 1 853 22 is_stmt 0 discriminator 1 view .LVU699
 2003 014c D8F80030 		ldr	r3, [r8]
 853:lvgl/lvgl/src/core/lv_obj.c ****             uint32_t t;
 2004              		.loc 1 853 29 discriminator 1 view .LVU700
 2005 0150 049A     		ldr	r2, [sp, #16]
 2006 0152 4FEA4209 		lsl	r9, r2, #1
 2007 0156 33F81230 		ldrh	r3, [r3, r2, lsl #1]
 853:lvgl/lvgl/src/core/lv_obj.c ****             uint32_t t;
 2008              		.loc 1 853 9 discriminator 1 view .LVU701
 2009 015a 002B     		cmp	r3, #0
 2010 015c 8CD0     		beq	.L83
 853:lvgl/lvgl/src/core/lv_obj.c ****             uint32_t t;
 2011              		.loc 1 853 38 discriminator 3 view .LVU702
 2012 015e BBF11F0F 		cmp	fp, #31
 2013 0162 89D8     		bhi	.L83
 2014              	.LBB196:
 855:lvgl/lvgl/src/core/lv_obj.c ****                 lv_style_selector_t selector = ts[t].selector;
 2015              		.loc 1 855 19 view .LVU703
 2016 0164 0024     		movs	r4, #0
 2017 0166 D1E7     		b	.L82
 2018              	.LVL198:
 2019              	.L100:
 864:lvgl/lvgl/src/core/lv_obj.c ****                 ts[tsi].delay = tr->delay;
 2020              		.loc 1 864 17 is_stmt 1 view .LVU704
 864:lvgl/lvgl/src/core/lv_obj.c ****                 ts[tsi].delay = tr->delay;
 2021              		.loc 1 864 34 is_stmt 0 view .LVU705
 2022 0168 D8F80C10 		ldr	r1, [r8, #12]
 864:lvgl/lvgl/src/core/lv_obj.c ****                 ts[tsi].delay = tr->delay;
 2023              		.loc 1 864 19 view .LVU706
ARM GAS  C:\Users\gx\AppData\Local\Temp\cccIVLs9.s 			page 80


 2024 016c 0BEB8B02 		add	r2, fp, fp, lsl #2
 2025 0170 0AEB8203 		add	r3, r10, r2, lsl #2
 864:lvgl/lvgl/src/core/lv_obj.c ****                 ts[tsi].delay = tr->delay;
 2026              		.loc 1 864 30 view .LVU707
 2027 0174 2AF82210 		strh	r1, [r10, r2, lsl #2]	@ movhi
 865:lvgl/lvgl/src/core/lv_obj.c ****                 ts[tsi].path_cb = tr->path_xcb;
 2028              		.loc 1 865 17 is_stmt 1 view .LVU708
 865:lvgl/lvgl/src/core/lv_obj.c ****                 ts[tsi].path_cb = tr->path_xcb;
 2029              		.loc 1 865 35 is_stmt 0 view .LVU709
 2030 0178 D8F81020 		ldr	r2, [r8, #16]
 865:lvgl/lvgl/src/core/lv_obj.c ****                 ts[tsi].path_cb = tr->path_xcb;
 2031              		.loc 1 865 31 view .LVU710
 2032 017c 5A80     		strh	r2, [r3, #2]	@ movhi
 866:lvgl/lvgl/src/core/lv_obj.c ****                 ts[tsi].prop = tr->props[j];
 2033              		.loc 1 866 17 is_stmt 1 view .LVU711
 866:lvgl/lvgl/src/core/lv_obj.c ****                 ts[tsi].prop = tr->props[j];
 2034              		.loc 1 866 37 is_stmt 0 view .LVU712
 2035 017e D8F80820 		ldr	r2, [r8, #8]
 866:lvgl/lvgl/src/core/lv_obj.c ****                 ts[tsi].prop = tr->props[j];
 2036              		.loc 1 866 33 view .LVU713
 2037 0182 DA60     		str	r2, [r3, #12]
 867:lvgl/lvgl/src/core/lv_obj.c **** #if LV_USE_USER_DATA
 2038              		.loc 1 867 17 is_stmt 1 view .LVU714
 867:lvgl/lvgl/src/core/lv_obj.c **** #if LV_USE_USER_DATA
 2039              		.loc 1 867 34 is_stmt 0 view .LVU715
 2040 0184 D8F80020 		ldr	r2, [r8]
 867:lvgl/lvgl/src/core/lv_obj.c **** #if LV_USE_USER_DATA
 2041              		.loc 1 867 41 view .LVU716
 2042 0188 32F80920 		ldrh	r2, [r2, r9]
 867:lvgl/lvgl/src/core/lv_obj.c **** #if LV_USE_USER_DATA
 2043              		.loc 1 867 30 view .LVU717
 2044 018c 1A81     		strh	r2, [r3, #8]	@ movhi
 869:lvgl/lvgl/src/core/lv_obj.c **** #endif
 2045              		.loc 1 869 17 is_stmt 1 view .LVU718
 869:lvgl/lvgl/src/core/lv_obj.c **** #endif
 2046              		.loc 1 869 39 is_stmt 0 view .LVU719
 2047 018e D8F80420 		ldr	r2, [r8, #4]
 869:lvgl/lvgl/src/core/lv_obj.c **** #endif
 2048              		.loc 1 869 35 view .LVU720
 2049 0192 1A61     		str	r2, [r3, #16]
 871:lvgl/lvgl/src/core/lv_obj.c ****                 tsi++;
 2050              		.loc 1 871 17 is_stmt 1 view .LVU721
 871:lvgl/lvgl/src/core/lv_obj.c ****                 tsi++;
 2051              		.loc 1 871 45 is_stmt 0 view .LVU722
 2052 0194 089A     		ldr	r2, [sp, #32]
 2053 0196 5268     		ldr	r2, [r2, #4]
 2054 0198 C2F31702 		ubfx	r2, r2, #0, #24
 871:lvgl/lvgl/src/core/lv_obj.c ****                 tsi++;
 2055              		.loc 1 871 34 view .LVU723
 2056 019c 5A60     		str	r2, [r3, #4]
 872:lvgl/lvgl/src/core/lv_obj.c ****             }
 2057              		.loc 1 872 17 is_stmt 1 view .LVU724
 872:lvgl/lvgl/src/core/lv_obj.c ****             }
 2058              		.loc 1 872 20 is_stmt 0 view .LVU725
 2059 019e 0BF1010B 		add	fp, fp, #1
 2060              	.LVL199:
 872:lvgl/lvgl/src/core/lv_obj.c ****             }
ARM GAS  C:\Users\gx\AppData\Local\Temp\cccIVLs9.s 			page 81


 2061              		.loc 1 872 20 view .LVU726
 2062 01a2 D0E7     		b	.L80
 2063              	.LVL200:
 2064              	.L97:
 872:lvgl/lvgl/src/core/lv_obj.c ****             }
 2065              		.loc 1 872 20 view .LVU727
 2066              	.LBE196:
 2067              	.LBE197:
 2068 01a4 0024     		movs	r4, #0
 2069 01a6 099E     		ldr	r6, [sp, #36]
 2070 01a8 069F     		ldr	r7, [sp, #24]
 2071 01aa DDF81C80 		ldr	r8, [sp, #28]
 2072 01ae 0EE0     		b	.L86
 2073              	.LVL201:
 2074              	.L87:
 2075              	.LBB198:
 878:lvgl/lvgl/src/core/lv_obj.c ****         _lv_obj_style_create_transition(obj, part_act, prev_state, new_state, &ts[i]);
 2076              		.loc 1 878 9 is_stmt 1 discriminator 3 view .LVU728
 878:lvgl/lvgl/src/core/lv_obj.c ****         _lv_obj_style_create_transition(obj, part_act, prev_state, new_state, &ts[i]);
 2077              		.loc 1 878 63 is_stmt 0 discriminator 3 view .LVU729
 2078 01b0 04EB8405 		add	r5, r4, r4, lsl #2
 2079 01b4 0AEB8505 		add	r5, r10, r5, lsl #2
 878:lvgl/lvgl/src/core/lv_obj.c ****         _lv_obj_style_create_transition(obj, part_act, prev_state, new_state, &ts[i]);
 2080              		.loc 1 878 30 discriminator 3 view .LVU730
 2081 01b8 6868     		ldr	r0, [r5, #4]
 2082 01ba FFF7FEFF 		bl	lv_obj_style_get_selector_part
 2083              	.LVL202:
 2084 01be 0146     		mov	r1, r0
 2085              	.LVL203:
 879:lvgl/lvgl/src/core/lv_obj.c ****     }
 2086              		.loc 1 879 9 is_stmt 1 discriminator 3 view .LVU731
 2087 01c0 0095     		str	r5, [sp]
 2088 01c2 4346     		mov	r3, r8
 2089 01c4 3246     		mov	r2, r6
 2090 01c6 3846     		mov	r0, r7
 2091              	.LVL204:
 879:lvgl/lvgl/src/core/lv_obj.c ****     }
 2092              		.loc 1 879 9 is_stmt 0 discriminator 3 view .LVU732
 2093 01c8 FFF7FEFF 		bl	_lv_obj_style_create_transition
 2094              	.LVL205:
 879:lvgl/lvgl/src/core/lv_obj.c ****     }
 2095              		.loc 1 879 9 discriminator 3 view .LVU733
 2096              	.LBE198:
 877:lvgl/lvgl/src/core/lv_obj.c ****         lv_part_t part_act = lv_obj_style_get_selector_part(ts[i].selector);
 2097              		.loc 1 877 24 is_stmt 1 discriminator 3 view .LVU734
 877:lvgl/lvgl/src/core/lv_obj.c ****         lv_part_t part_act = lv_obj_style_get_selector_part(ts[i].selector);
 2098              		.loc 1 877 25 is_stmt 0 discriminator 3 view .LVU735
 2099 01cc 0134     		adds	r4, r4, #1
 2100              	.LVL206:
 2101              	.L86:
 877:lvgl/lvgl/src/core/lv_obj.c ****         lv_part_t part_act = lv_obj_style_get_selector_part(ts[i].selector);
 2102              		.loc 1 877 15 is_stmt 1 discriminator 1 view .LVU736
 877:lvgl/lvgl/src/core/lv_obj.c ****         lv_part_t part_act = lv_obj_style_get_selector_part(ts[i].selector);
 2103              		.loc 1 877 5 is_stmt 0 discriminator 1 view .LVU737
 2104 01ce A345     		cmp	fp, r4
 2105 01d0 EED8     		bhi	.L87
 882:lvgl/lvgl/src/core/lv_obj.c **** 
ARM GAS  C:\Users\gx\AppData\Local\Temp\cccIVLs9.s 			page 82


 2106              		.loc 1 882 5 is_stmt 1 view .LVU738
 2107 01d2 5046     		mov	r0, r10
 2108 01d4 FFF7FEFF 		bl	lv_mem_buf_release
 2109              	.LVL207:
 884:lvgl/lvgl/src/core/lv_obj.c ****         lv_obj_invalidate(obj);
 2110              		.loc 1 884 5 view .LVU739
 884:lvgl/lvgl/src/core/lv_obj.c ****         lv_obj_invalidate(obj);
 2111              		.loc 1 884 7 is_stmt 0 view .LVU740
 2112 01d8 0A9B     		ldr	r3, [sp, #40]
 2113 01da 012B     		cmp	r3, #1
 2114 01dc 14D0     		beq	.L101
 887:lvgl/lvgl/src/core/lv_obj.c ****         lv_obj_refresh_style(obj, LV_PART_ANY, LV_STYLE_PROP_ANY);
 2115              		.loc 1 887 10 is_stmt 1 view .LVU741
 887:lvgl/lvgl/src/core/lv_obj.c ****         lv_obj_refresh_style(obj, LV_PART_ANY, LV_STYLE_PROP_ANY);
 2116              		.loc 1 887 12 is_stmt 0 view .LVU742
 2117 01de 0A9B     		ldr	r3, [sp, #40]
 2118 01e0 032B     		cmp	r3, #3
 2119 01e2 15D0     		beq	.L102
 890:lvgl/lvgl/src/core/lv_obj.c ****         lv_obj_invalidate(obj);
 2120              		.loc 1 890 10 is_stmt 1 view .LVU743
 890:lvgl/lvgl/src/core/lv_obj.c ****         lv_obj_invalidate(obj);
 2121              		.loc 1 890 12 is_stmt 0 view .LVU744
 2122 01e4 0A9B     		ldr	r3, [sp, #40]
 2123 01e6 022B     		cmp	r3, #2
 2124 01e8 7FF41AAF 		bne	.L63
 891:lvgl/lvgl/src/core/lv_obj.c ****         lv_obj_refresh_ext_draw_size(obj);
 2125              		.loc 1 891 9 is_stmt 1 view .LVU745
 2126 01ec 069C     		ldr	r4, [sp, #24]
 2127              	.LVL208:
 891:lvgl/lvgl/src/core/lv_obj.c ****         lv_obj_refresh_ext_draw_size(obj);
 2128              		.loc 1 891 9 is_stmt 0 view .LVU746
 2129 01ee 2046     		mov	r0, r4
 2130 01f0 FFF7FEFF 		bl	lv_obj_invalidate
 2131              	.LVL209:
 892:lvgl/lvgl/src/core/lv_obj.c ****     }
 2132              		.loc 1 892 9 is_stmt 1 view .LVU747
 2133 01f4 2046     		mov	r0, r4
 2134 01f6 FFF7FEFF 		bl	lv_obj_refresh_ext_draw_size
 2135              	.LVL210:
 2136 01fa 11E7     		b	.L63
 2137              	.LVL211:
 2138              	.L92:
 892:lvgl/lvgl/src/core/lv_obj.c ****     }
 2139              		.loc 1 892 9 is_stmt 0 view .LVU748
 2140 01fc 0024     		movs	r4, #0
 2141 01fe 099E     		ldr	r6, [sp, #36]
 2142 0200 069F     		ldr	r7, [sp, #24]
 2143 0202 DDF81C80 		ldr	r8, [sp, #28]
 2144 0206 E2E7     		b	.L86
 2145              	.LVL212:
 2146              	.L101:
 885:lvgl/lvgl/src/core/lv_obj.c ****     }
 2147              		.loc 1 885 9 is_stmt 1 view .LVU749
 2148 0208 0698     		ldr	r0, [sp, #24]
 2149 020a FFF7FEFF 		bl	lv_obj_invalidate
 2150              	.LVL213:
 2151 020e 07E7     		b	.L63
ARM GAS  C:\Users\gx\AppData\Local\Temp\cccIVLs9.s 			page 83


 2152              	.L102:
 888:lvgl/lvgl/src/core/lv_obj.c ****     }
 2153              		.loc 1 888 9 view .LVU750
 2154 0210 4FF6FF72 		movw	r2, #65535
 2155 0214 4FF47021 		mov	r1, #983040
 2156 0218 0698     		ldr	r0, [sp, #24]
 2157 021a FFF7FEFF 		bl	lv_obj_refresh_style
 2158              	.LVL214:
 2159 021e FFE6     		b	.L63
 2160              		.cfi_endproc
 2161              	.LFE182:
 2163              		.section	.text.lv_is_initialized,"ax",%progbits
 2164              		.align	1
 2165              		.global	lv_is_initialized
 2166              		.syntax unified
 2167              		.thumb
 2168              		.thumb_func
 2169              		.fpu fpv4-sp-d16
 2171              	lv_is_initialized:
 2172              	.LFB158:
  88:lvgl/lvgl/src/core/lv_obj.c ****     return lv_initialized;
 2173              		.loc 1 88 1 view -0
 2174              		.cfi_startproc
 2175              		@ args = 0, pretend = 0, frame = 0
 2176              		@ frame_needed = 0, uses_anonymous_args = 0
 2177              		@ link register save eliminated.
  89:lvgl/lvgl/src/core/lv_obj.c **** }
 2178              		.loc 1 89 5 view .LVU752
  90:lvgl/lvgl/src/core/lv_obj.c **** 
 2179              		.loc 1 90 1 is_stmt 0 view .LVU753
 2180 0000 014B     		ldr	r3, .L104
 2181 0002 1878     		ldrb	r0, [r3]	@ zero_extendqisi2
 2182 0004 7047     		bx	lr
 2183              	.L105:
 2184 0006 00BF     		.align	2
 2185              	.L104:
 2186 0008 00000000 		.word	.LANCHOR1
 2187              		.cfi_endproc
 2188              	.LFE158:
 2190              		.section	.rodata.lv_init.str1.4,"aMS",%progbits,1
 2191              		.align	2
 2192              	.LC0:
 2193 0000 6C76676C 		.ascii	"lvgl/lvgl/src/core/lv_obj.c\000"
 2193      2F6C7667 
 2193      6C2F7372 
 2193      632F636F 
 2193      72652F6C 
 2194              		.align	2
 2195              	.LC1:
 2196 001c 6C765F69 		.ascii	"lv_init: already inited\000"
 2196      6E69743A 
 2196      20616C72 
 2196      65616479 
 2196      20696E69 
 2197              		.section	.text.lv_init,"ax",%progbits
 2198              		.align	1
 2199              		.global	lv_init
ARM GAS  C:\Users\gx\AppData\Local\Temp\cccIVLs9.s 			page 84


 2200              		.syntax unified
 2201              		.thumb
 2202              		.thumb_func
 2203              		.fpu fpv4-sp-d16
 2205              	lv_init:
 2206              	.LFB159:
  93:lvgl/lvgl/src/core/lv_obj.c ****     /*Do nothing if already initialized*/
 2207              		.loc 1 93 1 is_stmt 1 view -0
 2208              		.cfi_startproc
 2209              		@ args = 0, pretend = 0, frame = 0
 2210              		@ frame_needed = 0, uses_anonymous_args = 0
 2211 0000 00B5     		push	{lr}
 2212              	.LCFI15:
 2213              		.cfi_def_cfa_offset 4
 2214              		.cfi_offset 14, -4
 2215 0002 83B0     		sub	sp, sp, #12
 2216              	.LCFI16:
 2217              		.cfi_def_cfa_offset 16
  95:lvgl/lvgl/src/core/lv_obj.c ****         LV_LOG_WARN("lv_init: already inited");
 2218              		.loc 1 95 5 view .LVU755
  95:lvgl/lvgl/src/core/lv_obj.c ****         LV_LOG_WARN("lv_init: already inited");
 2219              		.loc 1 95 8 is_stmt 0 view .LVU756
 2220 0004 164B     		ldr	r3, .L111
 2221 0006 1B78     		ldrb	r3, [r3]	@ zero_extendqisi2
  95:lvgl/lvgl/src/core/lv_obj.c ****         LV_LOG_WARN("lv_init: already inited");
 2222              		.loc 1 95 7 view .LVU757
 2223 0008 03BB     		cbnz	r3, .L110
 100:lvgl/lvgl/src/core/lv_obj.c **** 
 2224              		.loc 1 100 5 is_stmt 1 view .LVU758
 100:lvgl/lvgl/src/core/lv_obj.c **** 
 2225              		.loc 1 100 5 view .LVU759
 100:lvgl/lvgl/src/core/lv_obj.c **** 
 2226              		.loc 1 100 5 view .LVU760
 100:lvgl/lvgl/src/core/lv_obj.c **** 
 2227              		.loc 1 100 25 view .LVU761
 103:lvgl/lvgl/src/core/lv_obj.c **** 
 2228              		.loc 1 103 5 view .LVU762
 2229 000a FFF7FEFF 		bl	lv_mem_init
 2230              	.LVL215:
 105:lvgl/lvgl/src/core/lv_obj.c **** 
 2231              		.loc 1 105 5 view .LVU763
 2232 000e FFF7FEFF 		bl	_lv_timer_core_init
 2233              	.LVL216:
 107:lvgl/lvgl/src/core/lv_obj.c **** 
 2234              		.loc 1 107 5 view .LVU764
 2235 0012 FFF7FEFF 		bl	_lv_fs_init
 2236              	.LVL217:
 109:lvgl/lvgl/src/core/lv_obj.c **** 
 2237              		.loc 1 109 5 view .LVU765
 2238 0016 FFF7FEFF 		bl	_lv_anim_core_init
 2239              	.LVL218:
 111:lvgl/lvgl/src/core/lv_obj.c **** 
 2240              		.loc 1 111 5 view .LVU766
 2241 001a FFF7FEFF 		bl	_lv_group_init
 2242              	.LVL219:
 125:lvgl/lvgl/src/core/lv_obj.c ****     _lv_ll_init(&LV_GC_ROOT(_lv_disp_ll), sizeof(lv_disp_t));
 2243              		.loc 1 125 5 view .LVU767
ARM GAS  C:\Users\gx\AppData\Local\Temp\cccIVLs9.s 			page 85


 2244 001e FFF7FEFF 		bl	_lv_obj_style_init
 2245              	.LVL220:
 126:lvgl/lvgl/src/core/lv_obj.c ****     _lv_ll_init(&LV_GC_ROOT(_lv_indev_ll), sizeof(lv_indev_t));
 2246              		.loc 1 126 5 view .LVU768
 2247 0022 4FF4AC71 		mov	r1, #344
 2248 0026 0F48     		ldr	r0, .L111+4
 2249 0028 FFF7FEFF 		bl	_lv_ll_init
 2250              	.LVL221:
 127:lvgl/lvgl/src/core/lv_obj.c **** 
 2251              		.loc 1 127 5 view .LVU769
 2252 002c 5821     		movs	r1, #88
 2253 002e 0E48     		ldr	r0, .L111+8
 2254 0030 FFF7FEFF 		bl	_lv_ll_init
 2255              	.LVL222:
 130:lvgl/lvgl/src/core/lv_obj.c **** 
 2256              		.loc 1 130 5 view .LVU770
 2257 0034 FFF7FEFF 		bl	_lv_refr_init
 2258              	.LVL223:
 132:lvgl/lvgl/src/core/lv_obj.c **** #if LV_IMG_CACHE_DEF_SIZE
 2259              		.loc 1 132 5 view .LVU771
 2260 0038 FFF7FEFF 		bl	_lv_img_decoder_init
 2261              	.LVL224:
 137:lvgl/lvgl/src/core/lv_obj.c **** 
 2262              		.loc 1 137 5 view .LVU772
 139:lvgl/lvgl/src/core/lv_obj.c ****     if(txt_u8[0] != 0xc3 || txt_u8[1] != 0x81 || txt_u8[2] != 0x00) {
 2263              		.loc 1 139 5 view .LVU773
 140:lvgl/lvgl/src/core/lv_obj.c ****         LV_LOG_WARN("The strings has no UTF-8 encoding. Non-ASCII characters won't be displayed.")
 2264              		.loc 1 140 5 view .LVU774
 144:lvgl/lvgl/src/core/lv_obj.c ****     uint8_t * endianess_test_p = (uint8_t*) &endianess_test;
 2265              		.loc 1 144 5 view .LVU775
 145:lvgl/lvgl/src/core/lv_obj.c ****     bool big_endian = endianess_test_p[0] == 0x11 ? true : false;
 2266              		.loc 1 145 5 view .LVU776
 146:lvgl/lvgl/src/core/lv_obj.c **** 
 2267              		.loc 1 146 5 view .LVU777
 148:lvgl/lvgl/src/core/lv_obj.c ****         LV_ASSERT_MSG(LV_BIG_ENDIAN_SYSTEM == 1, "It's a big endian system but LV_BIG_ENDIAN_SYSTEM
 2268              		.loc 1 148 5 view .LVU778
 151:lvgl/lvgl/src/core/lv_obj.c ****     }
 2269              		.loc 1 151 9 view .LVU779
 151:lvgl/lvgl/src/core/lv_obj.c ****     }
 2270              		.loc 1 151 9 view .LVU780
 151:lvgl/lvgl/src/core/lv_obj.c ****     }
 2271              		.loc 1 151 9 view .LVU781
 170:lvgl/lvgl/src/core/lv_obj.c **** 
 2272              		.loc 1 170 5 view .LVU782
 2273 003c FFF7FEFF 		bl	lv_extra_init
 2274              	.LVL225:
 172:lvgl/lvgl/src/core/lv_obj.c **** 
 2275              		.loc 1 172 5 view .LVU783
 172:lvgl/lvgl/src/core/lv_obj.c **** 
 2276              		.loc 1 172 20 is_stmt 0 view .LVU784
 2277 0040 074B     		ldr	r3, .L111
 2278 0042 0122     		movs	r2, #1
 2279 0044 1A70     		strb	r2, [r3]
 174:lvgl/lvgl/src/core/lv_obj.c **** }
 2280              		.loc 1 174 5 is_stmt 1 view .LVU785
 174:lvgl/lvgl/src/core/lv_obj.c **** }
 2281              		.loc 1 174 5 view .LVU786
ARM GAS  C:\Users\gx\AppData\Local\Temp\cccIVLs9.s 			page 86


 174:lvgl/lvgl/src/core/lv_obj.c **** }
 2282              		.loc 1 174 5 view .LVU787
 174:lvgl/lvgl/src/core/lv_obj.c **** }
 2283              		.loc 1 174 29 view .LVU788
 2284              	.LVL226:
 2285              	.L106:
 175:lvgl/lvgl/src/core/lv_obj.c **** 
 2286              		.loc 1 175 1 is_stmt 0 view .LVU789
 2287 0046 03B0     		add	sp, sp, #12
 2288              	.LCFI17:
 2289              		.cfi_remember_state
 2290              		.cfi_def_cfa_offset 4
 2291              		@ sp needed
 2292 0048 5DF804FB 		ldr	pc, [sp], #4
 2293              	.L110:
 2294              	.LCFI18:
 2295              		.cfi_restore_state
  96:lvgl/lvgl/src/core/lv_obj.c ****         return;
 2296              		.loc 1 96 9 is_stmt 1 view .LVU790
 2297 004c 074B     		ldr	r3, .L111+12
 2298 004e 0093     		str	r3, [sp]
 2299 0050 074B     		ldr	r3, .L111+16
 2300 0052 6022     		movs	r2, #96
 2301 0054 0749     		ldr	r1, .L111+20
 2302 0056 0220     		movs	r0, #2
 2303 0058 FFF7FEFF 		bl	_lv_log_add
 2304              	.LVL227:
  96:lvgl/lvgl/src/core/lv_obj.c ****         return;
 2305              		.loc 1 96 47 view .LVU791
  97:lvgl/lvgl/src/core/lv_obj.c ****     }
 2306              		.loc 1 97 9 view .LVU792
  97:lvgl/lvgl/src/core/lv_obj.c ****     }
 2307              		.loc 1 97 9 is_stmt 0 view .LVU793
 2308 005c F3E7     		b	.L106
 2309              	.L112:
 2310 005e 00BF     		.align	2
 2311              	.L111:
 2312 0060 00000000 		.word	.LANCHOR1
 2313 0064 00000000 		.word	_lv_disp_ll
 2314 0068 00000000 		.word	_lv_indev_ll
 2315 006c 1C000000 		.word	.LC1
 2316 0070 00000000 		.word	.LANCHOR2
 2317 0074 00000000 		.word	.LC0
 2318              		.cfi_endproc
 2319              	.LFE159:
 2321              		.section	.text.lv_deinit,"ax",%progbits
 2322              		.align	1
 2323              		.global	lv_deinit
 2324              		.syntax unified
 2325              		.thumb
 2326              		.thumb_func
 2327              		.fpu fpv4-sp-d16
 2329              	lv_deinit:
 2330              	.LFB160:
 180:lvgl/lvgl/src/core/lv_obj.c ****     _lv_gc_clear_roots();
 2331              		.loc 1 180 1 is_stmt 1 view -0
 2332              		.cfi_startproc
ARM GAS  C:\Users\gx\AppData\Local\Temp\cccIVLs9.s 			page 87


 2333              		@ args = 0, pretend = 0, frame = 0
 2334              		@ frame_needed = 0, uses_anonymous_args = 0
 2335 0000 08B5     		push	{r3, lr}
 2336              	.LCFI19:
 2337              		.cfi_def_cfa_offset 8
 2338              		.cfi_offset 3, -8
 2339              		.cfi_offset 14, -4
 181:lvgl/lvgl/src/core/lv_obj.c **** 
 2340              		.loc 1 181 5 view .LVU795
 2341 0002 FFF7FEFF 		bl	_lv_gc_clear_roots
 2342              	.LVL228:
 183:lvgl/lvgl/src/core/lv_obj.c ****     lv_mem_deinit();
 2343              		.loc 1 183 5 view .LVU796
 2344 0006 0020     		movs	r0, #0
 2345 0008 FFF7FEFF 		bl	lv_disp_set_default
 2346              	.LVL229:
 184:lvgl/lvgl/src/core/lv_obj.c ****     lv_initialized = false;
 2347              		.loc 1 184 5 view .LVU797
 2348 000c FFF7FEFF 		bl	lv_mem_deinit
 2349              	.LVL230:
 185:lvgl/lvgl/src/core/lv_obj.c **** 
 2350              		.loc 1 185 5 view .LVU798
 185:lvgl/lvgl/src/core/lv_obj.c **** 
 2351              		.loc 1 185 20 is_stmt 0 view .LVU799
 2352 0010 0020     		movs	r0, #0
 2353 0012 024B     		ldr	r3, .L115
 2354 0014 1870     		strb	r0, [r3]
 187:lvgl/lvgl/src/core/lv_obj.c **** 
 2355              		.loc 1 187 5 is_stmt 1 view .LVU800
 187:lvgl/lvgl/src/core/lv_obj.c **** 
 2356              		.loc 1 187 5 view .LVU801
 187:lvgl/lvgl/src/core/lv_obj.c **** 
 2357              		.loc 1 187 5 view .LVU802
 187:lvgl/lvgl/src/core/lv_obj.c **** 
 2358              		.loc 1 187 34 view .LVU803
 190:lvgl/lvgl/src/core/lv_obj.c **** #endif
 2359              		.loc 1 190 5 view .LVU804
 2360 0016 FFF7FEFF 		bl	lv_log_register_print_cb
 2361              	.LVL231:
 192:lvgl/lvgl/src/core/lv_obj.c **** #endif
 2362              		.loc 1 192 1 is_stmt 0 view .LVU805
 2363 001a 08BD     		pop	{r3, pc}
 2364              	.L116:
 2365              		.align	2
 2366              	.L115:
 2367 001c 00000000 		.word	.LANCHOR1
 2368              		.cfi_endproc
 2369              	.LFE160:
 2371              		.section	.text.lv_obj_create,"ax",%progbits
 2372              		.align	1
 2373              		.global	lv_obj_create
 2374              		.syntax unified
 2375              		.thumb
 2376              		.thumb_func
 2377              		.fpu fpv4-sp-d16
 2379              	lv_obj_create:
 2380              	.LVL232:
ARM GAS  C:\Users\gx\AppData\Local\Temp\cccIVLs9.s 			page 88


 2381              	.LFB161:
 196:lvgl/lvgl/src/core/lv_obj.c ****     LV_LOG_INFO("begin")
 2382              		.loc 1 196 1 is_stmt 1 view -0
 2383              		.cfi_startproc
 2384              		@ args = 0, pretend = 0, frame = 0
 2385              		@ frame_needed = 0, uses_anonymous_args = 0
 196:lvgl/lvgl/src/core/lv_obj.c ****     LV_LOG_INFO("begin")
 2386              		.loc 1 196 1 is_stmt 0 view .LVU807
 2387 0000 10B5     		push	{r4, lr}
 2388              	.LCFI20:
 2389              		.cfi_def_cfa_offset 8
 2390              		.cfi_offset 4, -8
 2391              		.cfi_offset 14, -4
 2392 0002 0146     		mov	r1, r0
 197:lvgl/lvgl/src/core/lv_obj.c ****     lv_obj_t * obj = lv_obj_class_create_obj(MY_CLASS, parent);
 2393              		.loc 1 197 5 is_stmt 1 view .LVU808
 197:lvgl/lvgl/src/core/lv_obj.c ****     lv_obj_t * obj = lv_obj_class_create_obj(MY_CLASS, parent);
 2394              		.loc 1 197 5 view .LVU809
 197:lvgl/lvgl/src/core/lv_obj.c ****     lv_obj_t * obj = lv_obj_class_create_obj(MY_CLASS, parent);
 2395              		.loc 1 197 5 view .LVU810
 198:lvgl/lvgl/src/core/lv_obj.c ****     lv_obj_class_init_obj(obj);
 2396              		.loc 1 198 5 view .LVU811
 198:lvgl/lvgl/src/core/lv_obj.c ****     lv_obj_class_init_obj(obj);
 2397              		.loc 1 198 22 is_stmt 0 view .LVU812
 2398 0004 0348     		ldr	r0, .L119
 2399              	.LVL233:
 198:lvgl/lvgl/src/core/lv_obj.c ****     lv_obj_class_init_obj(obj);
 2400              		.loc 1 198 22 view .LVU813
 2401 0006 FFF7FEFF 		bl	lv_obj_class_create_obj
 2402              	.LVL234:
 198:lvgl/lvgl/src/core/lv_obj.c ****     lv_obj_class_init_obj(obj);
 2403              		.loc 1 198 22 view .LVU814
 2404 000a 0446     		mov	r4, r0
 2405              	.LVL235:
 199:lvgl/lvgl/src/core/lv_obj.c ****     return obj;
 2406              		.loc 1 199 5 is_stmt 1 view .LVU815
 2407 000c FFF7FEFF 		bl	lv_obj_class_init_obj
 2408              	.LVL236:
 200:lvgl/lvgl/src/core/lv_obj.c **** }
 2409              		.loc 1 200 5 view .LVU816
 201:lvgl/lvgl/src/core/lv_obj.c **** 
 2410              		.loc 1 201 1 is_stmt 0 view .LVU817
 2411 0010 2046     		mov	r0, r4
 2412 0012 10BD     		pop	{r4, pc}
 2413              	.LVL237:
 2414              	.L120:
 201:lvgl/lvgl/src/core/lv_obj.c **** 
 2415              		.loc 1 201 1 view .LVU818
 2416              		.align	2
 2417              	.L119:
 2418 0014 00000000 		.word	.LANCHOR0
 2419              		.cfi_endproc
 2420              	.LFE161:
 2422              		.section	.text.lv_obj_add_flag,"ax",%progbits
 2423              		.align	1
 2424              		.global	lv_obj_add_flag
 2425              		.syntax unified
ARM GAS  C:\Users\gx\AppData\Local\Temp\cccIVLs9.s 			page 89


 2426              		.thumb
 2427              		.thumb_func
 2428              		.fpu fpv4-sp-d16
 2430              	lv_obj_add_flag:
 2431              	.LVL238:
 2432              	.LFB162:
 212:lvgl/lvgl/src/core/lv_obj.c ****     LV_ASSERT_OBJ(obj, MY_CLASS);
 2433              		.loc 1 212 1 is_stmt 1 view -0
 2434              		.cfi_startproc
 2435              		@ args = 0, pretend = 0, frame = 0
 2436              		@ frame_needed = 0, uses_anonymous_args = 0
 212:lvgl/lvgl/src/core/lv_obj.c ****     LV_ASSERT_OBJ(obj, MY_CLASS);
 2437              		.loc 1 212 1 is_stmt 0 view .LVU820
 2438 0000 F8B5     		push	{r3, r4, r5, r6, r7, lr}
 2439              	.LCFI21:
 2440              		.cfi_def_cfa_offset 24
 2441              		.cfi_offset 3, -24
 2442              		.cfi_offset 4, -20
 2443              		.cfi_offset 5, -16
 2444              		.cfi_offset 6, -12
 2445              		.cfi_offset 7, -8
 2446              		.cfi_offset 14, -4
 2447 0002 0446     		mov	r4, r0
 2448 0004 0D46     		mov	r5, r1
 213:lvgl/lvgl/src/core/lv_obj.c **** 
 2449              		.loc 1 213 5 is_stmt 1 view .LVU821
 213:lvgl/lvgl/src/core/lv_obj.c **** 
 2450              		.loc 1 213 5 view .LVU822
 213:lvgl/lvgl/src/core/lv_obj.c **** 
 2451              		.loc 1 213 5 view .LVU823
 215:lvgl/lvgl/src/core/lv_obj.c **** 
 2452              		.loc 1 215 5 view .LVU824
 215:lvgl/lvgl/src/core/lv_obj.c **** 
 2453              		.loc 1 215 26 is_stmt 0 view .LVU825
 2454 0006 FFF7FEFF 		bl	lv_obj_is_layout_positioned
 2455              	.LVL239:
 215:lvgl/lvgl/src/core/lv_obj.c **** 
 2456              		.loc 1 215 26 view .LVU826
 2457 000a 0646     		mov	r6, r0
 2458              	.LVL240:
 217:lvgl/lvgl/src/core/lv_obj.c **** 
 2459              		.loc 1 217 5 is_stmt 1 view .LVU827
 217:lvgl/lvgl/src/core/lv_obj.c **** 
 2460              		.loc 1 217 7 is_stmt 0 view .LVU828
 2461 000c 15F00107 		ands	r7, r5, #1
 2462 0010 11D1     		bne	.L127
 2463              	.L122:
 219:lvgl/lvgl/src/core/lv_obj.c **** 
 2464              		.loc 1 219 5 is_stmt 1 view .LVU829
 219:lvgl/lvgl/src/core/lv_obj.c **** 
 2465              		.loc 1 219 16 is_stmt 0 view .LVU830
 2466 0012 E369     		ldr	r3, [r4, #28]
 2467 0014 2B43     		orrs	r3, r3, r5
 2468 0016 E361     		str	r3, [r4, #28]
 221:lvgl/lvgl/src/core/lv_obj.c ****         lv_obj_invalidate(obj);
 2469              		.loc 1 221 5 is_stmt 1 view .LVU831
 221:lvgl/lvgl/src/core/lv_obj.c ****         lv_obj_invalidate(obj);
ARM GAS  C:\Users\gx\AppData\Local\Temp\cccIVLs9.s 			page 90


 2470              		.loc 1 221 7 is_stmt 0 view .LVU832
 2471 0018 8FB9     		cbnz	r7, .L128
 2472              	.L123:
 225:lvgl/lvgl/src/core/lv_obj.c ****         lv_obj_mark_layout_as_dirty(lv_obj_get_parent(obj));
 2473              		.loc 1 225 5 is_stmt 1 view .LVU833
 225:lvgl/lvgl/src/core/lv_obj.c ****         lv_obj_mark_layout_as_dirty(lv_obj_get_parent(obj));
 2474              		.loc 1 225 26 is_stmt 0 view .LVU834
 2475 001a 2046     		mov	r0, r4
 2476 001c FFF7FEFF 		bl	lv_obj_is_layout_positioned
 2477              	.LVL241:
 225:lvgl/lvgl/src/core/lv_obj.c ****         lv_obj_mark_layout_as_dirty(lv_obj_get_parent(obj));
 2478              		.loc 1 225 7 view .LVU835
 2479 0020 B042     		cmp	r0, r6
 2480 0022 02D1     		bne	.L124
 225:lvgl/lvgl/src/core/lv_obj.c ****         lv_obj_mark_layout_as_dirty(lv_obj_get_parent(obj));
 2481              		.loc 1 225 60 discriminator 1 view .LVU836
 2482 0024 15F0C07F 		tst	r5, #25165824
 2483 0028 04D0     		beq	.L121
 2484              	.L124:
 226:lvgl/lvgl/src/core/lv_obj.c ****     }
 2485              		.loc 1 226 9 is_stmt 1 view .LVU837
 2486 002a 2046     		mov	r0, r4
 2487 002c FFF7FEFF 		bl	lv_obj_get_parent
 2488              	.LVL242:
 2489 0030 FFF7FEFF 		bl	lv_obj_mark_layout_as_dirty
 2490              	.LVL243:
 2491              	.L121:
 228:lvgl/lvgl/src/core/lv_obj.c **** 
 2492              		.loc 1 228 1 is_stmt 0 view .LVU838
 2493 0034 F8BD     		pop	{r3, r4, r5, r6, r7, pc}
 2494              	.LVL244:
 2495              	.L127:
 217:lvgl/lvgl/src/core/lv_obj.c **** 
 2496              		.loc 1 217 32 is_stmt 1 discriminator 1 view .LVU839
 2497 0036 2046     		mov	r0, r4
 2498 0038 FFF7FEFF 		bl	lv_obj_invalidate
 2499              	.LVL245:
 2500 003c E9E7     		b	.L122
 2501              	.L128:
 222:lvgl/lvgl/src/core/lv_obj.c ****     }
 2502              		.loc 1 222 9 view .LVU840
 2503 003e 2046     		mov	r0, r4
 2504 0040 FFF7FEFF 		bl	lv_obj_invalidate
 2505              	.LVL246:
 2506 0044 E9E7     		b	.L123
 2507              		.cfi_endproc
 2508              	.LFE162:
 2510              		.section	.text.lv_obj_clear_flag,"ax",%progbits
 2511              		.align	1
 2512              		.global	lv_obj_clear_flag
 2513              		.syntax unified
 2514              		.thumb
 2515              		.thumb_func
 2516              		.fpu fpv4-sp-d16
 2518              	lv_obj_clear_flag:
 2519              	.LVL247:
 2520              	.LFB163:
ARM GAS  C:\Users\gx\AppData\Local\Temp\cccIVLs9.s 			page 91


 231:lvgl/lvgl/src/core/lv_obj.c ****     LV_ASSERT_OBJ(obj, MY_CLASS);
 2521              		.loc 1 231 1 view -0
 2522              		.cfi_startproc
 2523              		@ args = 0, pretend = 0, frame = 0
 2524              		@ frame_needed = 0, uses_anonymous_args = 0
 231:lvgl/lvgl/src/core/lv_obj.c ****     LV_ASSERT_OBJ(obj, MY_CLASS);
 2525              		.loc 1 231 1 is_stmt 0 view .LVU842
 2526 0000 70B5     		push	{r4, r5, r6, lr}
 2527              	.LCFI22:
 2528              		.cfi_def_cfa_offset 16
 2529              		.cfi_offset 4, -16
 2530              		.cfi_offset 5, -12
 2531              		.cfi_offset 6, -8
 2532              		.cfi_offset 14, -4
 2533 0002 0446     		mov	r4, r0
 2534 0004 0D46     		mov	r5, r1
 232:lvgl/lvgl/src/core/lv_obj.c **** 
 2535              		.loc 1 232 5 is_stmt 1 view .LVU843
 232:lvgl/lvgl/src/core/lv_obj.c **** 
 2536              		.loc 1 232 5 view .LVU844
 232:lvgl/lvgl/src/core/lv_obj.c **** 
 2537              		.loc 1 232 5 view .LVU845
 234:lvgl/lvgl/src/core/lv_obj.c **** 
 2538              		.loc 1 234 5 view .LVU846
 234:lvgl/lvgl/src/core/lv_obj.c **** 
 2539              		.loc 1 234 26 is_stmt 0 view .LVU847
 2540 0006 FFF7FEFF 		bl	lv_obj_is_layout_positioned
 2541              	.LVL248:
 234:lvgl/lvgl/src/core/lv_obj.c **** 
 2542              		.loc 1 234 26 view .LVU848
 2543 000a 0646     		mov	r6, r0
 2544              	.LVL249:
 236:lvgl/lvgl/src/core/lv_obj.c **** 
 2545              		.loc 1 236 5 is_stmt 1 view .LVU849
 236:lvgl/lvgl/src/core/lv_obj.c **** 
 2546              		.loc 1 236 16 is_stmt 0 view .LVU850
 2547 000c E369     		ldr	r3, [r4, #28]
 2548 000e 23EA0503 		bic	r3, r3, r5
 2549 0012 E361     		str	r3, [r4, #28]
 238:lvgl/lvgl/src/core/lv_obj.c ****         lv_obj_invalidate(obj);
 2550              		.loc 1 238 5 is_stmt 1 view .LVU851
 238:lvgl/lvgl/src/core/lv_obj.c ****         lv_obj_invalidate(obj);
 2551              		.loc 1 238 7 is_stmt 0 view .LVU852
 2552 0014 15F0010F 		tst	r5, #1
 2553 0018 0DD1     		bne	.L134
 2554              	.L130:
 245:lvgl/lvgl/src/core/lv_obj.c ****         lv_obj_mark_layout_as_dirty(lv_obj_get_parent(obj));
 2555              		.loc 1 245 5 is_stmt 1 view .LVU853
 245:lvgl/lvgl/src/core/lv_obj.c ****         lv_obj_mark_layout_as_dirty(lv_obj_get_parent(obj));
 2556              		.loc 1 245 26 is_stmt 0 view .LVU854
 2557 001a 2046     		mov	r0, r4
 2558 001c FFF7FEFF 		bl	lv_obj_is_layout_positioned
 2559              	.LVL250:
 245:lvgl/lvgl/src/core/lv_obj.c ****         lv_obj_mark_layout_as_dirty(lv_obj_get_parent(obj));
 2560              		.loc 1 245 7 view .LVU855
 2561 0020 B042     		cmp	r0, r6
 2562 0022 02D1     		bne	.L131
ARM GAS  C:\Users\gx\AppData\Local\Temp\cccIVLs9.s 			page 92


 245:lvgl/lvgl/src/core/lv_obj.c ****         lv_obj_mark_layout_as_dirty(lv_obj_get_parent(obj));
 2563              		.loc 1 245 60 discriminator 1 view .LVU856
 2564 0024 15F0C07F 		tst	r5, #25165824
 2565 0028 04D0     		beq	.L129
 2566              	.L131:
 246:lvgl/lvgl/src/core/lv_obj.c ****     }
 2567              		.loc 1 246 9 is_stmt 1 view .LVU857
 2568 002a 2046     		mov	r0, r4
 2569 002c FFF7FEFF 		bl	lv_obj_get_parent
 2570              	.LVL251:
 2571 0030 FFF7FEFF 		bl	lv_obj_mark_layout_as_dirty
 2572              	.LVL252:
 2573              	.L129:
 248:lvgl/lvgl/src/core/lv_obj.c **** 
 2574              		.loc 1 248 1 is_stmt 0 view .LVU858
 2575 0034 70BD     		pop	{r4, r5, r6, pc}
 2576              	.LVL253:
 2577              	.L134:
 239:lvgl/lvgl/src/core/lv_obj.c ****         if(lv_obj_is_layout_positioned(obj)) {
 2578              		.loc 1 239 9 is_stmt 1 view .LVU859
 2579 0036 2046     		mov	r0, r4
 2580 0038 FFF7FEFF 		bl	lv_obj_invalidate
 2581              	.LVL254:
 240:lvgl/lvgl/src/core/lv_obj.c ****             lv_obj_mark_layout_as_dirty(lv_obj_get_parent(obj));
 2582              		.loc 1 240 9 view .LVU860
 240:lvgl/lvgl/src/core/lv_obj.c ****             lv_obj_mark_layout_as_dirty(lv_obj_get_parent(obj));
 2583              		.loc 1 240 12 is_stmt 0 view .LVU861
 2584 003c 2046     		mov	r0, r4
 2585 003e FFF7FEFF 		bl	lv_obj_is_layout_positioned
 2586              	.LVL255:
 240:lvgl/lvgl/src/core/lv_obj.c ****             lv_obj_mark_layout_as_dirty(lv_obj_get_parent(obj));
 2587              		.loc 1 240 11 view .LVU862
 2588 0042 0028     		cmp	r0, #0
 2589 0044 E9D0     		beq	.L130
 241:lvgl/lvgl/src/core/lv_obj.c ****         }
 2590              		.loc 1 241 13 is_stmt 1 view .LVU863
 2591 0046 2046     		mov	r0, r4
 2592 0048 FFF7FEFF 		bl	lv_obj_get_parent
 2593              	.LVL256:
 2594 004c FFF7FEFF 		bl	lv_obj_mark_layout_as_dirty
 2595              	.LVL257:
 2596 0050 E3E7     		b	.L130
 2597              		.cfi_endproc
 2598              	.LFE163:
 2600              		.section	.text.lv_obj_add_state,"ax",%progbits
 2601              		.align	1
 2602              		.global	lv_obj_add_state
 2603              		.syntax unified
 2604              		.thumb
 2605              		.thumb_func
 2606              		.fpu fpv4-sp-d16
 2608              	lv_obj_add_state:
 2609              	.LVL258:
 2610              	.LFB164:
 251:lvgl/lvgl/src/core/lv_obj.c ****     LV_ASSERT_OBJ(obj, MY_CLASS);
 2611              		.loc 1 251 1 view -0
 2612              		.cfi_startproc
ARM GAS  C:\Users\gx\AppData\Local\Temp\cccIVLs9.s 			page 93


 2613              		@ args = 0, pretend = 0, frame = 0
 2614              		@ frame_needed = 0, uses_anonymous_args = 0
 251:lvgl/lvgl/src/core/lv_obj.c ****     LV_ASSERT_OBJ(obj, MY_CLASS);
 2615              		.loc 1 251 1 is_stmt 0 view .LVU865
 2616 0000 08B5     		push	{r3, lr}
 2617              	.LCFI23:
 2618              		.cfi_def_cfa_offset 8
 2619              		.cfi_offset 3, -8
 2620              		.cfi_offset 14, -4
 252:lvgl/lvgl/src/core/lv_obj.c **** 
 2621              		.loc 1 252 5 is_stmt 1 view .LVU866
 252:lvgl/lvgl/src/core/lv_obj.c **** 
 2622              		.loc 1 252 5 view .LVU867
 252:lvgl/lvgl/src/core/lv_obj.c **** 
 2623              		.loc 1 252 5 view .LVU868
 254:lvgl/lvgl/src/core/lv_obj.c ****     if(obj->state != new_state) {
 2624              		.loc 1 254 5 view .LVU869
 254:lvgl/lvgl/src/core/lv_obj.c ****     if(obj->state != new_state) {
 2625              		.loc 1 254 31 is_stmt 0 view .LVU870
 2626 0002 038C     		ldrh	r3, [r0, #32]
 254:lvgl/lvgl/src/core/lv_obj.c ****     if(obj->state != new_state) {
 2627              		.loc 1 254 16 view .LVU871
 2628 0004 43EA0102 		orr	r2, r3, r1
 2629              	.LVL259:
 255:lvgl/lvgl/src/core/lv_obj.c ****         lv_obj_set_state(obj, new_state);
 2630              		.loc 1 255 5 is_stmt 1 view .LVU872
 255:lvgl/lvgl/src/core/lv_obj.c ****         lv_obj_set_state(obj, new_state);
 2631              		.loc 1 255 7 is_stmt 0 view .LVU873
 2632 0008 31EA0303 		bics	r3, r1, r3
 2633 000c 00D1     		bne	.L138
 2634              	.LVL260:
 2635              	.L135:
 258:lvgl/lvgl/src/core/lv_obj.c **** 
 2636              		.loc 1 258 1 view .LVU874
 2637 000e 08BD     		pop	{r3, pc}
 2638              	.LVL261:
 2639              	.L138:
 256:lvgl/lvgl/src/core/lv_obj.c ****     }
 2640              		.loc 1 256 9 is_stmt 1 view .LVU875
 2641 0010 1146     		mov	r1, r2
 2642              	.LVL262:
 256:lvgl/lvgl/src/core/lv_obj.c ****     }
 2643              		.loc 1 256 9 is_stmt 0 view .LVU876
 2644 0012 FFF7FEFF 		bl	lv_obj_set_state
 2645              	.LVL263:
 258:lvgl/lvgl/src/core/lv_obj.c **** 
 2646              		.loc 1 258 1 view .LVU877
 2647 0016 FAE7     		b	.L135
 2648              		.cfi_endproc
 2649              	.LFE164:
 2651              		.section	.text.lv_obj_clear_state,"ax",%progbits
 2652              		.align	1
 2653              		.global	lv_obj_clear_state
 2654              		.syntax unified
 2655              		.thumb
 2656              		.thumb_func
 2657              		.fpu fpv4-sp-d16
ARM GAS  C:\Users\gx\AppData\Local\Temp\cccIVLs9.s 			page 94


 2659              	lv_obj_clear_state:
 2660              	.LVL264:
 2661              	.LFB165:
 261:lvgl/lvgl/src/core/lv_obj.c ****     LV_ASSERT_OBJ(obj, MY_CLASS);
 2662              		.loc 1 261 1 is_stmt 1 view -0
 2663              		.cfi_startproc
 2664              		@ args = 0, pretend = 0, frame = 0
 2665              		@ frame_needed = 0, uses_anonymous_args = 0
 261:lvgl/lvgl/src/core/lv_obj.c ****     LV_ASSERT_OBJ(obj, MY_CLASS);
 2666              		.loc 1 261 1 is_stmt 0 view .LVU879
 2667 0000 08B5     		push	{r3, lr}
 2668              	.LCFI24:
 2669              		.cfi_def_cfa_offset 8
 2670              		.cfi_offset 3, -8
 2671              		.cfi_offset 14, -4
 262:lvgl/lvgl/src/core/lv_obj.c **** 
 2672              		.loc 1 262 5 is_stmt 1 view .LVU880
 262:lvgl/lvgl/src/core/lv_obj.c **** 
 2673              		.loc 1 262 5 view .LVU881
 262:lvgl/lvgl/src/core/lv_obj.c **** 
 2674              		.loc 1 262 5 view .LVU882
 264:lvgl/lvgl/src/core/lv_obj.c ****     if(obj->state != new_state) {
 2675              		.loc 1 264 5 view .LVU883
 264:lvgl/lvgl/src/core/lv_obj.c ****     if(obj->state != new_state) {
 2676              		.loc 1 264 31 is_stmt 0 view .LVU884
 2677 0002 028C     		ldrh	r2, [r0, #32]
 2678 0004 B0F92030 		ldrsh	r3, [r0, #32]
 264:lvgl/lvgl/src/core/lv_obj.c ****     if(obj->state != new_state) {
 2679              		.loc 1 264 39 view .LVU885
 2680 0008 23EA0101 		bic	r1, r3, r1
 2681              	.LVL265:
 264:lvgl/lvgl/src/core/lv_obj.c ****     if(obj->state != new_state) {
 2682              		.loc 1 264 16 view .LVU886
 2683 000c 89B2     		uxth	r1, r1
 2684              	.LVL266:
 265:lvgl/lvgl/src/core/lv_obj.c ****         lv_obj_set_state(obj, new_state);
 2685              		.loc 1 265 5 is_stmt 1 view .LVU887
 265:lvgl/lvgl/src/core/lv_obj.c ****         lv_obj_set_state(obj, new_state);
 2686              		.loc 1 265 7 is_stmt 0 view .LVU888
 2687 000e 8A42     		cmp	r2, r1
 2688 0010 00D1     		bne	.L142
 2689              	.LVL267:
 2690              	.L139:
 268:lvgl/lvgl/src/core/lv_obj.c **** 
 2691              		.loc 1 268 1 view .LVU889
 2692 0012 08BD     		pop	{r3, pc}
 2693              	.LVL268:
 2694              	.L142:
 266:lvgl/lvgl/src/core/lv_obj.c ****     }
 2695              		.loc 1 266 9 is_stmt 1 view .LVU890
 2696 0014 FFF7FEFF 		bl	lv_obj_set_state
 2697              	.LVL269:
 268:lvgl/lvgl/src/core/lv_obj.c **** 
 2698              		.loc 1 268 1 is_stmt 0 view .LVU891
 2699 0018 FBE7     		b	.L139
 2700              		.cfi_endproc
 2701              	.LFE165:
ARM GAS  C:\Users\gx\AppData\Local\Temp\cccIVLs9.s 			page 95


 2703              		.section	.text.lv_obj_has_flag,"ax",%progbits
 2704              		.align	1
 2705              		.global	lv_obj_has_flag
 2706              		.syntax unified
 2707              		.thumb
 2708              		.thumb_func
 2709              		.fpu fpv4-sp-d16
 2711              	lv_obj_has_flag:
 2712              	.LVL270:
 2713              	.LFB166:
 275:lvgl/lvgl/src/core/lv_obj.c ****     LV_ASSERT_OBJ(obj, MY_CLASS);
 2714              		.loc 1 275 1 is_stmt 1 view -0
 2715              		.cfi_startproc
 2716              		@ args = 0, pretend = 0, frame = 0
 2717              		@ frame_needed = 0, uses_anonymous_args = 0
 2718              		@ link register save eliminated.
 276:lvgl/lvgl/src/core/lv_obj.c **** 
 2719              		.loc 1 276 5 view .LVU893
 276:lvgl/lvgl/src/core/lv_obj.c **** 
 2720              		.loc 1 276 5 view .LVU894
 276:lvgl/lvgl/src/core/lv_obj.c **** 
 2721              		.loc 1 276 5 view .LVU895
 278:lvgl/lvgl/src/core/lv_obj.c **** }
 2722              		.loc 1 278 5 view .LVU896
 278:lvgl/lvgl/src/core/lv_obj.c **** }
 2723              		.loc 1 278 16 is_stmt 0 view .LVU897
 2724 0000 C369     		ldr	r3, [r0, #28]
 278:lvgl/lvgl/src/core/lv_obj.c **** }
 2725              		.loc 1 278 42 view .LVU898
 2726 0002 31EA0303 		bics	r3, r1, r3
 279:lvgl/lvgl/src/core/lv_obj.c **** 
 2727              		.loc 1 279 1 view .LVU899
 2728 0006 0CBF     		ite	eq
 2729 0008 0120     		moveq	r0, #1
 2730              	.LVL271:
 279:lvgl/lvgl/src/core/lv_obj.c **** 
 2731              		.loc 1 279 1 view .LVU900
 2732 000a 0020     		movne	r0, #0
 2733 000c 7047     		bx	lr
 2734              		.cfi_endproc
 2735              	.LFE166:
 2737              		.section	.text.lv_obj_has_flag_any,"ax",%progbits
 2738              		.align	1
 2739              		.global	lv_obj_has_flag_any
 2740              		.syntax unified
 2741              		.thumb
 2742              		.thumb_func
 2743              		.fpu fpv4-sp-d16
 2745              	lv_obj_has_flag_any:
 2746              	.LVL272:
 2747              	.LFB167:
 282:lvgl/lvgl/src/core/lv_obj.c ****     LV_ASSERT_OBJ(obj, MY_CLASS);
 2748              		.loc 1 282 1 is_stmt 1 view -0
 2749              		.cfi_startproc
 2750              		@ args = 0, pretend = 0, frame = 0
 2751              		@ frame_needed = 0, uses_anonymous_args = 0
 2752              		@ link register save eliminated.
ARM GAS  C:\Users\gx\AppData\Local\Temp\cccIVLs9.s 			page 96


 283:lvgl/lvgl/src/core/lv_obj.c **** 
 2753              		.loc 1 283 5 view .LVU902
 283:lvgl/lvgl/src/core/lv_obj.c **** 
 2754              		.loc 1 283 5 view .LVU903
 283:lvgl/lvgl/src/core/lv_obj.c **** 
 2755              		.loc 1 283 5 view .LVU904
 285:lvgl/lvgl/src/core/lv_obj.c **** }
 2756              		.loc 1 285 5 view .LVU905
 285:lvgl/lvgl/src/core/lv_obj.c **** }
 2757              		.loc 1 285 16 is_stmt 0 view .LVU906
 2758 0000 C369     		ldr	r3, [r0, #28]
 285:lvgl/lvgl/src/core/lv_obj.c **** }
 2759              		.loc 1 285 36 view .LVU907
 2760 0002 0B42     		tst	r3, r1
 286:lvgl/lvgl/src/core/lv_obj.c **** 
 2761              		.loc 1 286 1 view .LVU908
 2762 0004 14BF     		ite	ne
 2763 0006 0120     		movne	r0, #1
 2764              	.LVL273:
 286:lvgl/lvgl/src/core/lv_obj.c **** 
 2765              		.loc 1 286 1 view .LVU909
 2766 0008 0020     		moveq	r0, #0
 2767 000a 7047     		bx	lr
 2768              		.cfi_endproc
 2769              	.LFE167:
 2771              		.section	.text.lv_obj_get_state,"ax",%progbits
 2772              		.align	1
 2773              		.global	lv_obj_get_state
 2774              		.syntax unified
 2775              		.thumb
 2776              		.thumb_func
 2777              		.fpu fpv4-sp-d16
 2779              	lv_obj_get_state:
 2780              	.LVL274:
 2781              	.LFB168:
 289:lvgl/lvgl/src/core/lv_obj.c ****     LV_ASSERT_OBJ(obj, MY_CLASS);
 2782              		.loc 1 289 1 is_stmt 1 view -0
 2783              		.cfi_startproc
 2784              		@ args = 0, pretend = 0, frame = 0
 2785              		@ frame_needed = 0, uses_anonymous_args = 0
 2786              		@ link register save eliminated.
 290:lvgl/lvgl/src/core/lv_obj.c **** 
 2787              		.loc 1 290 5 view .LVU911
 290:lvgl/lvgl/src/core/lv_obj.c **** 
 2788              		.loc 1 290 5 view .LVU912
 290:lvgl/lvgl/src/core/lv_obj.c **** 
 2789              		.loc 1 290 5 view .LVU913
 292:lvgl/lvgl/src/core/lv_obj.c **** }
 2790              		.loc 1 292 5 view .LVU914
 293:lvgl/lvgl/src/core/lv_obj.c **** 
 2791              		.loc 1 293 1 is_stmt 0 view .LVU915
 2792 0000 008C     		ldrh	r0, [r0, #32]
 2793              	.LVL275:
 293:lvgl/lvgl/src/core/lv_obj.c **** 
 2794              		.loc 1 293 1 view .LVU916
 2795 0002 7047     		bx	lr
 2796              		.cfi_endproc
ARM GAS  C:\Users\gx\AppData\Local\Temp\cccIVLs9.s 			page 97


 2797              	.LFE168:
 2799              		.section	.text.lv_obj_has_state,"ax",%progbits
 2800              		.align	1
 2801              		.global	lv_obj_has_state
 2802              		.syntax unified
 2803              		.thumb
 2804              		.thumb_func
 2805              		.fpu fpv4-sp-d16
 2807              	lv_obj_has_state:
 2808              	.LVL276:
 2809              	.LFB169:
 296:lvgl/lvgl/src/core/lv_obj.c ****     LV_ASSERT_OBJ(obj, MY_CLASS);
 2810              		.loc 1 296 1 is_stmt 1 view -0
 2811              		.cfi_startproc
 2812              		@ args = 0, pretend = 0, frame = 0
 2813              		@ frame_needed = 0, uses_anonymous_args = 0
 2814              		@ link register save eliminated.
 297:lvgl/lvgl/src/core/lv_obj.c **** 
 2815              		.loc 1 297 5 view .LVU918
 297:lvgl/lvgl/src/core/lv_obj.c **** 
 2816              		.loc 1 297 5 view .LVU919
 297:lvgl/lvgl/src/core/lv_obj.c **** 
 2817              		.loc 1 297 5 view .LVU920
 299:lvgl/lvgl/src/core/lv_obj.c **** }
 2818              		.loc 1 299 5 view .LVU921
 299:lvgl/lvgl/src/core/lv_obj.c **** }
 2819              		.loc 1 299 15 is_stmt 0 view .LVU922
 2820 0000 038C     		ldrh	r3, [r0, #32]
 299:lvgl/lvgl/src/core/lv_obj.c **** }
 2821              		.loc 1 299 38 view .LVU923
 2822 0002 0B42     		tst	r3, r1
 300:lvgl/lvgl/src/core/lv_obj.c **** 
 2823              		.loc 1 300 1 view .LVU924
 2824 0004 14BF     		ite	ne
 2825 0006 0120     		movne	r0, #1
 2826              	.LVL277:
 300:lvgl/lvgl/src/core/lv_obj.c **** 
 2827              		.loc 1 300 1 view .LVU925
 2828 0008 0020     		moveq	r0, #0
 2829 000a 7047     		bx	lr
 2830              		.cfi_endproc
 2831              	.LFE169:
 2833              		.section	.text.lv_obj_get_group,"ax",%progbits
 2834              		.align	1
 2835              		.global	lv_obj_get_group
 2836              		.syntax unified
 2837              		.thumb
 2838              		.thumb_func
 2839              		.fpu fpv4-sp-d16
 2841              	lv_obj_get_group:
 2842              	.LVL278:
 2843              	.LFB170:
 303:lvgl/lvgl/src/core/lv_obj.c ****     LV_ASSERT_OBJ(obj, MY_CLASS);
 2844              		.loc 1 303 1 is_stmt 1 view -0
 2845              		.cfi_startproc
 2846              		@ args = 0, pretend = 0, frame = 0
 2847              		@ frame_needed = 0, uses_anonymous_args = 0
ARM GAS  C:\Users\gx\AppData\Local\Temp\cccIVLs9.s 			page 98


 2848              		@ link register save eliminated.
 304:lvgl/lvgl/src/core/lv_obj.c **** 
 2849              		.loc 1 304 5 view .LVU927
 304:lvgl/lvgl/src/core/lv_obj.c **** 
 2850              		.loc 1 304 5 view .LVU928
 304:lvgl/lvgl/src/core/lv_obj.c **** 
 2851              		.loc 1 304 5 view .LVU929
 306:lvgl/lvgl/src/core/lv_obj.c ****     else return NULL;
 2852              		.loc 1 306 5 view .LVU930
 306:lvgl/lvgl/src/core/lv_obj.c ****     else return NULL;
 2853              		.loc 1 306 11 is_stmt 0 view .LVU931
 2854 0000 8068     		ldr	r0, [r0, #8]
 2855              	.LVL279:
 306:lvgl/lvgl/src/core/lv_obj.c ****     else return NULL;
 2856              		.loc 1 306 7 view .LVU932
 2857 0002 00B1     		cbz	r0, .L147
 306:lvgl/lvgl/src/core/lv_obj.c ****     else return NULL;
 2858              		.loc 1 306 24 is_stmt 1 discriminator 1 view .LVU933
 306:lvgl/lvgl/src/core/lv_obj.c ****     else return NULL;
 2859              		.loc 1 306 45 is_stmt 0 discriminator 1 view .LVU934
 2860 0004 8068     		ldr	r0, [r0, #8]
 2861              	.L147:
 308:lvgl/lvgl/src/core/lv_obj.c **** 
 2862              		.loc 1 308 1 view .LVU935
 2863 0006 7047     		bx	lr
 2864              		.cfi_endproc
 2865              	.LFE170:
 2867              		.section	.text.lv_obj_event,"ax",%progbits
 2868              		.align	1
 2869              		.syntax unified
 2870              		.thumb
 2871              		.thumb_func
 2872              		.fpu fpv4-sp-d16
 2874              	lv_obj_event:
 2875              	.LVL280:
 2876              	.LFB181:
 669:lvgl/lvgl/src/core/lv_obj.c ****     LV_UNUSED(class_p);
 2877              		.loc 1 669 1 is_stmt 1 view -0
 2878              		.cfi_startproc
 2879              		@ args = 0, pretend = 0, frame = 0
 2880              		@ frame_needed = 0, uses_anonymous_args = 0
 669:lvgl/lvgl/src/core/lv_obj.c ****     LV_UNUSED(class_p);
 2881              		.loc 1 669 1 is_stmt 0 view .LVU937
 2882 0000 F8B5     		push	{r3, r4, r5, r6, r7, lr}
 2883              	.LCFI25:
 2884              		.cfi_def_cfa_offset 24
 2885              		.cfi_offset 3, -24
 2886              		.cfi_offset 4, -20
 2887              		.cfi_offset 5, -16
 2888              		.cfi_offset 6, -12
 2889              		.cfi_offset 7, -8
 2890              		.cfi_offset 14, -4
 2891 0002 0E46     		mov	r6, r1
 670:lvgl/lvgl/src/core/lv_obj.c **** 
 2892              		.loc 1 670 5 is_stmt 1 view .LVU938
 672:lvgl/lvgl/src/core/lv_obj.c ****     lv_obj_t * obj = lv_event_get_target(e);
 2893              		.loc 1 672 5 view .LVU939
ARM GAS  C:\Users\gx\AppData\Local\Temp\cccIVLs9.s 			page 99


 672:lvgl/lvgl/src/core/lv_obj.c ****     lv_obj_t * obj = lv_event_get_target(e);
 2894              		.loc 1 672 28 is_stmt 0 view .LVU940
 2895 0004 0846     		mov	r0, r1
 2896              	.LVL281:
 672:lvgl/lvgl/src/core/lv_obj.c ****     lv_obj_t * obj = lv_event_get_target(e);
 2897              		.loc 1 672 28 view .LVU941
 2898 0006 FFF7FEFF 		bl	lv_event_get_code
 2899              	.LVL282:
 672:lvgl/lvgl/src/core/lv_obj.c ****     lv_obj_t * obj = lv_event_get_target(e);
 2900              		.loc 1 672 28 view .LVU942
 2901 000a 0446     		mov	r4, r0
 2902              	.LVL283:
 673:lvgl/lvgl/src/core/lv_obj.c ****     if(code == LV_EVENT_PRESSED) {
 2903              		.loc 1 673 5 is_stmt 1 view .LVU943
 673:lvgl/lvgl/src/core/lv_obj.c ****     if(code == LV_EVENT_PRESSED) {
 2904              		.loc 1 673 22 is_stmt 0 view .LVU944
 2905 000c 3046     		mov	r0, r6
 2906 000e FFF7FEFF 		bl	lv_event_get_target
 2907              	.LVL284:
 2908 0012 0546     		mov	r5, r0
 2909              	.LVL285:
 674:lvgl/lvgl/src/core/lv_obj.c ****         lv_obj_add_state(obj, LV_STATE_PRESSED);
 2910              		.loc 1 674 5 is_stmt 1 view .LVU945
 674:lvgl/lvgl/src/core/lv_obj.c ****         lv_obj_add_state(obj, LV_STATE_PRESSED);
 2911              		.loc 1 674 7 is_stmt 0 view .LVU946
 2912 0014 012C     		cmp	r4, #1
 2913 0016 26D0     		beq	.L198
 677:lvgl/lvgl/src/core/lv_obj.c ****         lv_obj_clear_state(obj, LV_STATE_PRESSED);
 2914              		.loc 1 677 10 is_stmt 1 view .LVU947
 677:lvgl/lvgl/src/core/lv_obj.c ****         lv_obj_clear_state(obj, LV_STATE_PRESSED);
 2915              		.loc 1 677 12 is_stmt 0 view .LVU948
 2916 0018 082C     		cmp	r4, #8
 2917 001a 28D0     		beq	.L199
 689:lvgl/lvgl/src/core/lv_obj.c ****         lv_obj_clear_state(obj, LV_STATE_PRESSED);
 2918              		.loc 1 689 10 is_stmt 1 view .LVU949
 689:lvgl/lvgl/src/core/lv_obj.c ****         lv_obj_clear_state(obj, LV_STATE_PRESSED);
 2919              		.loc 1 689 12 is_stmt 0 view .LVU950
 2920 001c 032C     		cmp	r4, #3
 2921 001e 4BD0     		beq	.L200
 692:lvgl/lvgl/src/core/lv_obj.c ****         uint32_t child_cnt = lv_obj_get_child_cnt(obj);
 2922              		.loc 1 692 10 is_stmt 1 view .LVU951
 692:lvgl/lvgl/src/core/lv_obj.c ****         uint32_t child_cnt = lv_obj_get_child_cnt(obj);
 2923              		.loc 1 692 12 is_stmt 0 view .LVU952
 2924 0020 242C     		cmp	r4, #36
 2925 0022 4DD0     		beq	.L201
 699:lvgl/lvgl/src/core/lv_obj.c ****         if(lv_obj_has_flag(obj, LV_OBJ_FLAG_CHECKABLE)) {
 2926              		.loc 1 699 10 is_stmt 1 view .LVU953
 699:lvgl/lvgl/src/core/lv_obj.c ****         if(lv_obj_has_flag(obj, LV_OBJ_FLAG_CHECKABLE)) {
 2927              		.loc 1 699 12 is_stmt 0 view .LVU954
 2928 0024 0D2C     		cmp	r4, #13
 2929 0026 5AD0     		beq	.L202
 744:lvgl/lvgl/src/core/lv_obj.c ****         if(lv_obj_has_flag(obj, LV_OBJ_FLAG_SCROLL_ON_FOCUS)) {
 2930              		.loc 1 744 10 is_stmt 1 view .LVU955
 744:lvgl/lvgl/src/core/lv_obj.c ****         if(lv_obj_has_flag(obj, LV_OBJ_FLAG_SCROLL_ON_FOCUS)) {
 2931              		.loc 1 744 12 is_stmt 0 view .LVU956
 2932 0028 0E2C     		cmp	r4, #14
 2933 002a 00F02981 		beq	.L203
ARM GAS  C:\Users\gx\AppData\Local\Temp\cccIVLs9.s 			page 100


 770:lvgl/lvgl/src/core/lv_obj.c ****         lv_obj_add_state(obj, LV_STATE_SCROLLED);
 2934              		.loc 1 770 10 is_stmt 1 view .LVU957
 770:lvgl/lvgl/src/core/lv_obj.c ****         lv_obj_add_state(obj, LV_STATE_SCROLLED);
 2935              		.loc 1 770 12 is_stmt 0 view .LVU958
 2936 002e 092C     		cmp	r4, #9
 2937 0030 00F05781 		beq	.L204
 773:lvgl/lvgl/src/core/lv_obj.c ****         lv_obj_clear_state(obj, LV_STATE_SCROLLED);
 2938              		.loc 1 773 10 is_stmt 1 view .LVU959
 773:lvgl/lvgl/src/core/lv_obj.c ****         lv_obj_clear_state(obj, LV_STATE_SCROLLED);
 2939              		.loc 1 773 12 is_stmt 0 view .LVU960
 2940 0034 0A2C     		cmp	r4, #10
 2941 0036 00F05881 		beq	.L205
 776:lvgl/lvgl/src/core/lv_obj.c ****         lv_obj_clear_state(obj, LV_STATE_FOCUSED | LV_STATE_EDITED | LV_STATE_FOCUS_KEY);
 2942              		.loc 1 776 10 is_stmt 1 view .LVU961
 776:lvgl/lvgl/src/core/lv_obj.c ****         lv_obj_clear_state(obj, LV_STATE_FOCUSED | LV_STATE_EDITED | LV_STATE_FOCUS_KEY);
 2943              		.loc 1 776 12 is_stmt 0 view .LVU962
 2944 003a 0F2C     		cmp	r4, #15
 2945 003c 00F05981 		beq	.L206
 779:lvgl/lvgl/src/core/lv_obj.c ****         lv_coord_t align = lv_obj_get_style_align(obj, LV_PART_MAIN);
 2946              		.loc 1 779 10 is_stmt 1 view .LVU963
 779:lvgl/lvgl/src/core/lv_obj.c ****         lv_coord_t align = lv_obj_get_style_align(obj, LV_PART_MAIN);
 2947              		.loc 1 779 12 is_stmt 0 view .LVU964
 2948 0040 232C     		cmp	r4, #35
 2949 0042 00F05A81 		beq	.L207
 793:lvgl/lvgl/src/core/lv_obj.c ****         lv_coord_t w = lv_obj_get_style_width(obj, LV_PART_MAIN);
 2950              		.loc 1 793 10 is_stmt 1 view .LVU965
 793:lvgl/lvgl/src/core/lv_obj.c ****         lv_coord_t w = lv_obj_get_style_width(obj, LV_PART_MAIN);
 2951              		.loc 1 793 12 is_stmt 0 view .LVU966
 2952 0046 222C     		cmp	r4, #34
 2953 0048 00F07981 		beq	.L208
 802:lvgl/lvgl/src/core/lv_obj.c ****         if(lv_obj_get_scrollbar_mode(obj) == LV_SCROLLBAR_MODE_ACTIVE) {
 2954              		.loc 1 802 10 is_stmt 1 view .LVU967
 807:lvgl/lvgl/src/core/lv_obj.c ****         lv_coord_t * s = lv_event_get_param(e);
 2955              		.loc 1 807 10 view .LVU968
 807:lvgl/lvgl/src/core/lv_obj.c ****         lv_coord_t * s = lv_event_get_param(e);
 2956              		.loc 1 807 12 is_stmt 0 view .LVU969
 2957 004c 132C     		cmp	r4, #19
 2958 004e 00F09E81 		beq	.L209
 812:lvgl/lvgl/src/core/lv_obj.c ****         lv_obj_draw(e);
 2959              		.loc 1 812 10 is_stmt 1 view .LVU970
 812:lvgl/lvgl/src/core/lv_obj.c ****         lv_obj_draw(e);
 2960              		.loc 1 812 12 is_stmt 0 view .LVU971
 2961 0052 152C     		cmp	r4, #21
 2962 0054 03D0     		beq	.L194
 812:lvgl/lvgl/src/core/lv_obj.c ****         lv_obj_draw(e);
 2963              		.loc 1 812 40 discriminator 1 view .LVU972
 2964 0056 182C     		cmp	r4, #24
 2965 0058 01D0     		beq	.L194
 812:lvgl/lvgl/src/core/lv_obj.c ****         lv_obj_draw(e);
 2966              		.loc 1 812 70 discriminator 2 view .LVU973
 2967 005a 122C     		cmp	r4, #18
 2968 005c 06D1     		bne	.L149
 2969              	.L194:
 813:lvgl/lvgl/src/core/lv_obj.c ****     }
 2970              		.loc 1 813 9 is_stmt 1 view .LVU974
 2971 005e 3046     		mov	r0, r6
 2972              	.LVL286:
ARM GAS  C:\Users\gx\AppData\Local\Temp\cccIVLs9.s 			page 101


 813:lvgl/lvgl/src/core/lv_obj.c ****     }
 2973              		.loc 1 813 9 is_stmt 0 view .LVU975
 2974 0060 FFF7FEFF 		bl	lv_obj_draw
 2975              	.LVL287:
 2976 0064 02E0     		b	.L149
 2977              	.LVL288:
 2978              	.L198:
 675:lvgl/lvgl/src/core/lv_obj.c ****     }
 2979              		.loc 1 675 9 is_stmt 1 view .LVU976
 2980 0066 2021     		movs	r1, #32
 2981 0068 FFF7FEFF 		bl	lv_obj_add_state
 2982              	.LVL289:
 2983              	.L149:
 815:lvgl/lvgl/src/core/lv_obj.c **** 
 2984              		.loc 1 815 1 is_stmt 0 view .LVU977
 2985 006c F8BD     		pop	{r3, r4, r5, r6, r7, pc}
 2986              	.LVL290:
 2987              	.L199:
 2988              	.LBB199:
 678:lvgl/lvgl/src/core/lv_obj.c ****         void * param = lv_event_get_param(e);
 2989              		.loc 1 678 9 is_stmt 1 view .LVU978
 2990 006e 2021     		movs	r1, #32
 2991 0070 FFF7FEFF 		bl	lv_obj_clear_state
 2992              	.LVL291:
 679:lvgl/lvgl/src/core/lv_obj.c ****         /*Go the checked state if enabled*/
 2993              		.loc 1 679 9 view .LVU979
 679:lvgl/lvgl/src/core/lv_obj.c ****         /*Go the checked state if enabled*/
 2994              		.loc 1 679 24 is_stmt 0 view .LVU980
 2995 0074 3046     		mov	r0, r6
 2996 0076 FFF7FEFF 		bl	lv_event_get_param
 2997              	.LVL292:
 681:lvgl/lvgl/src/core/lv_obj.c ****             if(!(lv_obj_get_state(obj) & LV_STATE_CHECKED)) lv_obj_add_state(obj, LV_STATE_CHECKED)
 2998              		.loc 1 681 9 is_stmt 1 view .LVU981
 681:lvgl/lvgl/src/core/lv_obj.c ****             if(!(lv_obj_get_state(obj) & LV_STATE_CHECKED)) lv_obj_add_state(obj, LV_STATE_CHECKED)
 2999              		.loc 1 681 12 is_stmt 0 view .LVU982
 3000 007a FFF7FEFF 		bl	lv_indev_get_scroll_obj
 3001              	.LVL293:
 681:lvgl/lvgl/src/core/lv_obj.c ****             if(!(lv_obj_get_state(obj) & LV_STATE_CHECKED)) lv_obj_add_state(obj, LV_STATE_CHECKED)
 3002              		.loc 1 681 11 view .LVU983
 3003 007e 0028     		cmp	r0, #0
 3004 0080 F4D1     		bne	.L149
 681:lvgl/lvgl/src/core/lv_obj.c ****             if(!(lv_obj_get_state(obj) & LV_STATE_CHECKED)) lv_obj_add_state(obj, LV_STATE_CHECKED)
 3005              		.loc 1 681 54 discriminator 1 view .LVU984
 3006 0082 0821     		movs	r1, #8
 3007 0084 2846     		mov	r0, r5
 3008 0086 FFF7FEFF 		bl	lv_obj_has_flag
 3009              	.LVL294:
 681:lvgl/lvgl/src/core/lv_obj.c ****             if(!(lv_obj_get_state(obj) & LV_STATE_CHECKED)) lv_obj_add_state(obj, LV_STATE_CHECKED)
 3010              		.loc 1 681 51 discriminator 1 view .LVU985
 3011 008a 0028     		cmp	r0, #0
 3012 008c EED0     		beq	.L149
 3013              	.LBB200:
 682:lvgl/lvgl/src/core/lv_obj.c ****             else lv_obj_clear_state(obj, LV_STATE_CHECKED);
 3014              		.loc 1 682 13 is_stmt 1 view .LVU986
 682:lvgl/lvgl/src/core/lv_obj.c ****             else lv_obj_clear_state(obj, LV_STATE_CHECKED);
 3015              		.loc 1 682 18 is_stmt 0 view .LVU987
 3016 008e 2846     		mov	r0, r5
ARM GAS  C:\Users\gx\AppData\Local\Temp\cccIVLs9.s 			page 102


 3017 0090 FFF7FEFF 		bl	lv_obj_get_state
 3018              	.LVL295:
 682:lvgl/lvgl/src/core/lv_obj.c ****             else lv_obj_clear_state(obj, LV_STATE_CHECKED);
 3019              		.loc 1 682 15 view .LVU988
 3020 0094 10F0010F 		tst	r0, #1
 3021 0098 09D1     		bne	.L153
 682:lvgl/lvgl/src/core/lv_obj.c ****             else lv_obj_clear_state(obj, LV_STATE_CHECKED);
 3022              		.loc 1 682 61 is_stmt 1 discriminator 1 view .LVU989
 3023 009a 0121     		movs	r1, #1
 3024 009c 2846     		mov	r0, r5
 3025 009e FFF7FEFF 		bl	lv_obj_add_state
 3026              	.LVL296:
 3027              	.L154:
 685:lvgl/lvgl/src/core/lv_obj.c ****             if(res != LV_RES_OK) return;
 3028              		.loc 1 685 13 view .LVU990
 685:lvgl/lvgl/src/core/lv_obj.c ****             if(res != LV_RES_OK) return;
 3029              		.loc 1 685 28 is_stmt 0 view .LVU991
 3030 00a2 0022     		movs	r2, #0
 3031 00a4 1C21     		movs	r1, #28
 3032 00a6 2846     		mov	r0, r5
 3033 00a8 FFF7FEFF 		bl	lv_event_send
 3034              	.LVL297:
 686:lvgl/lvgl/src/core/lv_obj.c ****         }
 3035              		.loc 1 686 13 is_stmt 1 view .LVU992
 3036 00ac DEE7     		b	.L149
 3037              	.L153:
 683:lvgl/lvgl/src/core/lv_obj.c **** 
 3038              		.loc 1 683 18 view .LVU993
 3039 00ae 0121     		movs	r1, #1
 3040 00b0 2846     		mov	r0, r5
 3041 00b2 FFF7FEFF 		bl	lv_obj_clear_state
 3042              	.LVL298:
 3043 00b6 F4E7     		b	.L154
 3044              	.LVL299:
 3045              	.L200:
 683:lvgl/lvgl/src/core/lv_obj.c **** 
 3046              		.loc 1 683 18 is_stmt 0 view .LVU994
 3047              	.LBE200:
 3048              	.LBE199:
 690:lvgl/lvgl/src/core/lv_obj.c ****     }
 3049              		.loc 1 690 9 is_stmt 1 view .LVU995
 3050 00b8 2021     		movs	r1, #32
 3051 00ba FFF7FEFF 		bl	lv_obj_clear_state
 3052              	.LVL300:
 690:lvgl/lvgl/src/core/lv_obj.c ****     }
 3053              		.loc 1 690 9 is_stmt 0 view .LVU996
 3054 00be D5E7     		b	.L149
 3055              	.LVL301:
 3056              	.L201:
 3057              	.LBB201:
 693:lvgl/lvgl/src/core/lv_obj.c ****         for(uint32_t i = 0; i < child_cnt; i++) {
 3058              		.loc 1 693 9 is_stmt 1 view .LVU997
 693:lvgl/lvgl/src/core/lv_obj.c ****         for(uint32_t i = 0; i < child_cnt; i++) {
 3059              		.loc 1 693 30 is_stmt 0 view .LVU998
 3060 00c0 FFF7FEFF 		bl	lv_obj_get_child_cnt
 3061              	.LVL302:
 693:lvgl/lvgl/src/core/lv_obj.c ****         for(uint32_t i = 0; i < child_cnt; i++) {
ARM GAS  C:\Users\gx\AppData\Local\Temp\cccIVLs9.s 			page 103


 3062              		.loc 1 693 30 view .LVU999
 3063 00c4 0646     		mov	r6, r0
 3064              	.LVL303:
 694:lvgl/lvgl/src/core/lv_obj.c ****             lv_obj_t * child = obj->spec_attr->children[i];
 3065              		.loc 1 694 9 is_stmt 1 view .LVU1000
 3066              	.LBB202:
 694:lvgl/lvgl/src/core/lv_obj.c ****             lv_obj_t * child = obj->spec_attr->children[i];
 3067              		.loc 1 694 13 view .LVU1001
 694:lvgl/lvgl/src/core/lv_obj.c ****             lv_obj_t * child = obj->spec_attr->children[i];
 3068              		.loc 1 694 22 is_stmt 0 view .LVU1002
 3069 00c6 0024     		movs	r4, #0
 3070              	.LVL304:
 694:lvgl/lvgl/src/core/lv_obj.c ****             lv_obj_t * child = obj->spec_attr->children[i];
 3071              		.loc 1 694 9 view .LVU1003
 3072 00c8 06E0     		b	.L157
 3073              	.LVL305:
 3074              	.L158:
 3075              	.LBB203:
 695:lvgl/lvgl/src/core/lv_obj.c ****             lv_obj_mark_layout_as_dirty(child);
 3076              		.loc 1 695 13 is_stmt 1 discriminator 3 view .LVU1004
 695:lvgl/lvgl/src/core/lv_obj.c ****             lv_obj_mark_layout_as_dirty(child);
 3077              		.loc 1 695 35 is_stmt 0 discriminator 3 view .LVU1005
 3078 00ca AB68     		ldr	r3, [r5, #8]
 695:lvgl/lvgl/src/core/lv_obj.c ****             lv_obj_mark_layout_as_dirty(child);
 3079              		.loc 1 695 46 discriminator 3 view .LVU1006
 3080 00cc 1B68     		ldr	r3, [r3]
 3081              	.LVL306:
 696:lvgl/lvgl/src/core/lv_obj.c ****         }
 3082              		.loc 1 696 13 is_stmt 1 discriminator 3 view .LVU1007
 3083 00ce 53F82400 		ldr	r0, [r3, r4, lsl #2]
 3084 00d2 FFF7FEFF 		bl	lv_obj_mark_layout_as_dirty
 3085              	.LVL307:
 696:lvgl/lvgl/src/core/lv_obj.c ****         }
 3086              		.loc 1 696 13 is_stmt 0 discriminator 3 view .LVU1008
 3087              	.LBE203:
 694:lvgl/lvgl/src/core/lv_obj.c ****             lv_obj_t * child = obj->spec_attr->children[i];
 3088              		.loc 1 694 44 is_stmt 1 discriminator 3 view .LVU1009
 694:lvgl/lvgl/src/core/lv_obj.c ****             lv_obj_t * child = obj->spec_attr->children[i];
 3089              		.loc 1 694 45 is_stmt 0 discriminator 3 view .LVU1010
 3090 00d6 0134     		adds	r4, r4, #1
 3091              	.LVL308:
 3092              	.L157:
 694:lvgl/lvgl/src/core/lv_obj.c ****             lv_obj_t * child = obj->spec_attr->children[i];
 3093              		.loc 1 694 29 is_stmt 1 discriminator 1 view .LVU1011
 694:lvgl/lvgl/src/core/lv_obj.c ****             lv_obj_t * child = obj->spec_attr->children[i];
 3094              		.loc 1 694 9 is_stmt 0 discriminator 1 view .LVU1012
 3095 00d8 B442     		cmp	r4, r6
 3096 00da F6D3     		bcc	.L158
 3097 00dc C6E7     		b	.L149
 3098              	.LVL309:
 3099              	.L202:
 694:lvgl/lvgl/src/core/lv_obj.c ****             lv_obj_t * child = obj->spec_attr->children[i];
 3100              		.loc 1 694 9 discriminator 1 view .LVU1013
 3101              	.LBE202:
 3102              	.LBE201:
 700:lvgl/lvgl/src/core/lv_obj.c ****             char c = *((char *)lv_event_get_param(e));
 3103              		.loc 1 700 9 is_stmt 1 view .LVU1014
ARM GAS  C:\Users\gx\AppData\Local\Temp\cccIVLs9.s 			page 104


 700:lvgl/lvgl/src/core/lv_obj.c ****             char c = *((char *)lv_event_get_param(e));
 3104              		.loc 1 700 12 is_stmt 0 view .LVU1015
 3105 00de 0821     		movs	r1, #8
 3106 00e0 FFF7FEFF 		bl	lv_obj_has_flag
 3107              	.LVL310:
 700:lvgl/lvgl/src/core/lv_obj.c ****             char c = *((char *)lv_event_get_param(e));
 3108              		.loc 1 700 11 view .LVU1016
 3109 00e4 0028     		cmp	r0, #0
 3110 00e6 3DD1     		bne	.L210
 715:lvgl/lvgl/src/core/lv_obj.c ****             /*scroll by keypad or encoder*/
 3111              		.loc 1 715 14 is_stmt 1 view .LVU1017
 715:lvgl/lvgl/src/core/lv_obj.c ****             /*scroll by keypad or encoder*/
 3112              		.loc 1 715 17 is_stmt 0 view .LVU1018
 3113 00e8 1021     		movs	r1, #16
 3114 00ea 2846     		mov	r0, r5
 3115 00ec FFF7FEFF 		bl	lv_obj_has_flag
 3116              	.LVL311:
 715:lvgl/lvgl/src/core/lv_obj.c ****             /*scroll by keypad or encoder*/
 3117              		.loc 1 715 16 view .LVU1019
 3118 00f0 0028     		cmp	r0, #0
 3119 00f2 BBD0     		beq	.L149
 715:lvgl/lvgl/src/core/lv_obj.c ****             /*scroll by keypad or encoder*/
 3120              		.loc 1 715 66 discriminator 1 view .LVU1020
 3121 00f4 2846     		mov	r0, r5
 3122 00f6 FFF7FEFF 		bl	lv_obj_is_editable
 3123              	.LVL312:
 715:lvgl/lvgl/src/core/lv_obj.c ****             /*scroll by keypad or encoder*/
 3124              		.loc 1 715 62 discriminator 1 view .LVU1021
 3125 00fa 0028     		cmp	r0, #0
 3126 00fc B6D1     		bne	.L149
 3127              	.LBB204:
 717:lvgl/lvgl/src/core/lv_obj.c ****             lv_coord_t sl = lv_obj_get_scroll_left(obj);
 3128              		.loc 1 717 13 is_stmt 1 view .LVU1022
 3129              	.LVL313:
 718:lvgl/lvgl/src/core/lv_obj.c ****             lv_coord_t sr = lv_obj_get_scroll_right(obj);
 3130              		.loc 1 718 13 view .LVU1023
 718:lvgl/lvgl/src/core/lv_obj.c ****             lv_coord_t sr = lv_obj_get_scroll_right(obj);
 3131              		.loc 1 718 29 is_stmt 0 view .LVU1024
 3132 00fe 2846     		mov	r0, r5
 3133 0100 FFF7FEFF 		bl	lv_obj_get_scroll_left
 3134              	.LVL314:
 3135 0104 0746     		mov	r7, r0
 3136              	.LVL315:
 719:lvgl/lvgl/src/core/lv_obj.c ****             char c = *((char *)lv_event_get_param(e));
 3137              		.loc 1 719 13 is_stmt 1 view .LVU1025
 719:lvgl/lvgl/src/core/lv_obj.c ****             char c = *((char *)lv_event_get_param(e));
 3138              		.loc 1 719 29 is_stmt 0 view .LVU1026
 3139 0106 2846     		mov	r0, r5
 3140 0108 FFF7FEFF 		bl	lv_obj_get_scroll_right
 3141              	.LVL316:
 3142 010c 0446     		mov	r4, r0
 3143              	.LVL317:
 720:lvgl/lvgl/src/core/lv_obj.c ****             if(c == LV_KEY_DOWN) {
 3144              		.loc 1 720 13 is_stmt 1 view .LVU1027
 720:lvgl/lvgl/src/core/lv_obj.c ****             if(c == LV_KEY_DOWN) {
 3145              		.loc 1 720 32 is_stmt 0 view .LVU1028
 3146 010e 3046     		mov	r0, r6
ARM GAS  C:\Users\gx\AppData\Local\Temp\cccIVLs9.s 			page 105


 3147 0110 FFF7FEFF 		bl	lv_event_get_param
 3148              	.LVL318:
 720:lvgl/lvgl/src/core/lv_obj.c ****             if(c == LV_KEY_DOWN) {
 3149              		.loc 1 720 18 view .LVU1029
 3150 0114 0378     		ldrb	r3, [r0]	@ zero_extendqisi2
 3151              	.LVL319:
 721:lvgl/lvgl/src/core/lv_obj.c ****                 /*use scroll_to_x/y functions to enforce scroll limits*/
 3152              		.loc 1 721 13 is_stmt 1 view .LVU1030
 721:lvgl/lvgl/src/core/lv_obj.c ****                 /*use scroll_to_x/y functions to enforce scroll limits*/
 3153              		.loc 1 721 15 is_stmt 0 view .LVU1031
 3154 0116 122B     		cmp	r3, #18
 3155 0118 42D0     		beq	.L211
 725:lvgl/lvgl/src/core/lv_obj.c ****                 lv_obj_scroll_to_y(obj, lv_obj_get_scroll_y(obj) - lv_obj_get_height(obj) / 4, anim
 3156              		.loc 1 725 18 is_stmt 1 view .LVU1032
 725:lvgl/lvgl/src/core/lv_obj.c ****                 lv_obj_scroll_to_y(obj, lv_obj_get_scroll_y(obj) - lv_obj_get_height(obj) / 4, anim
 3157              		.loc 1 725 20 is_stmt 0 view .LVU1033
 3158 011a 112B     		cmp	r3, #17
 3159 011c 54D0     		beq	.L212
 728:lvgl/lvgl/src/core/lv_obj.c ****                 /*If the object can't be scrolled horizontally then scroll it vertically*/
 3160              		.loc 1 728 18 is_stmt 1 view .LVU1034
 728:lvgl/lvgl/src/core/lv_obj.c ****                 /*If the object can't be scrolled horizontally then scroll it vertically*/
 3161              		.loc 1 728 20 is_stmt 0 view .LVU1035
 3162 011e 132B     		cmp	r3, #19
 3163 0120 66D0     		beq	.L213
 735:lvgl/lvgl/src/core/lv_obj.c ****                 /*If the object can't be scrolled horizontally then scroll it vertically*/
 3164              		.loc 1 735 18 is_stmt 1 view .LVU1036
 735:lvgl/lvgl/src/core/lv_obj.c ****                 /*If the object can't be scrolled horizontally then scroll it vertically*/
 3165              		.loc 1 735 20 is_stmt 0 view .LVU1037
 3166 0122 142B     		cmp	r3, #20
 3167 0124 A2D1     		bne	.L149
 737:lvgl/lvgl/src/core/lv_obj.c ****                     lv_obj_scroll_to_y(obj, lv_obj_get_scroll_y(obj) - lv_obj_get_height(obj) / 4, 
 3168              		.loc 1 737 17 is_stmt 1 view .LVU1038
 737:lvgl/lvgl/src/core/lv_obj.c ****                     lv_obj_scroll_to_y(obj, lv_obj_get_scroll_y(obj) - lv_obj_get_height(obj) / 4, 
 3169              		.loc 1 737 23 is_stmt 0 view .LVU1039
 3170 0126 2846     		mov	r0, r5
 3171 0128 FFF7FEFF 		bl	lv_obj_get_scroll_dir
 3172              	.LVL320:
 737:lvgl/lvgl/src/core/lv_obj.c ****                     lv_obj_scroll_to_y(obj, lv_obj_get_scroll_y(obj) - lv_obj_get_height(obj) / 4, 
 3173              		.loc 1 737 19 view .LVU1040
 3174 012c 10F0030F 		tst	r0, #3
 3175 0130 00F09080 		beq	.L174
 737:lvgl/lvgl/src/core/lv_obj.c ****                     lv_obj_scroll_to_y(obj, lv_obj_get_scroll_y(obj) - lv_obj_get_height(obj) / 4, 
 3176              		.loc 1 737 20 discriminator 1 view .LVU1041
 3177 0134 002F     		cmp	r7, #0
 3178 0136 02DC     		bgt	.L175
 737:lvgl/lvgl/src/core/lv_obj.c ****                     lv_obj_scroll_to_y(obj, lv_obj_get_scroll_y(obj) - lv_obj_get_height(obj) / 4, 
 3179              		.loc 1 737 75 discriminator 2 view .LVU1042
 3180 0138 002C     		cmp	r4, #0
 3181 013a 40F38B80 		ble	.L174
 3182              	.L175:
 740:lvgl/lvgl/src/core/lv_obj.c ****             }
 3183              		.loc 1 740 21 is_stmt 1 view .LVU1043
 740:lvgl/lvgl/src/core/lv_obj.c ****             }
 3184              		.loc 1 740 45 is_stmt 0 view .LVU1044
 3185 013e 2846     		mov	r0, r5
 3186 0140 FFF7FEFF 		bl	lv_obj_get_scroll_x
 3187              	.LVL321:
ARM GAS  C:\Users\gx\AppData\Local\Temp\cccIVLs9.s 			page 106


 3188 0144 84B2     		uxth	r4, r0
 3189              	.LVL322:
 740:lvgl/lvgl/src/core/lv_obj.c ****             }
 3190              		.loc 1 740 72 view .LVU1045
 3191 0146 2846     		mov	r0, r5
 3192 0148 FFF7FEFF 		bl	lv_obj_get_width
 3193              	.LVL323:
 740:lvgl/lvgl/src/core/lv_obj.c ****             }
 3194              		.loc 1 740 70 view .LVU1046
 3195 014c 0146     		mov	r1, r0
 3196 014e 0028     		cmp	r0, #0
 3197 0150 C0F29480 		blt	.L214
 3198              	.L177:
 3199 0154 A4EBA101 		sub	r1, r4, r1, asr #2
 740:lvgl/lvgl/src/core/lv_obj.c ****             }
 3200              		.loc 1 740 21 view .LVU1047
 3201 0158 0022     		movs	r2, #0
 3202 015a 09B2     		sxth	r1, r1
 3203 015c 2846     		mov	r0, r5
 3204 015e FFF7FEFF 		bl	lv_obj_scroll_to_x
 3205              	.LVL324:
 3206 0162 83E7     		b	.L149
 3207              	.LVL325:
 3208              	.L210:
 740:lvgl/lvgl/src/core/lv_obj.c ****             }
 3209              		.loc 1 740 21 view .LVU1048
 3210              	.LBE204:
 3211              	.LBB205:
 701:lvgl/lvgl/src/core/lv_obj.c ****             if(c == LV_KEY_RIGHT || c == LV_KEY_UP) {
 3212              		.loc 1 701 13 is_stmt 1 view .LVU1049
 701:lvgl/lvgl/src/core/lv_obj.c ****             if(c == LV_KEY_RIGHT || c == LV_KEY_UP) {
 3213              		.loc 1 701 32 is_stmt 0 view .LVU1050
 3214 0164 3046     		mov	r0, r6
 3215 0166 FFF7FEFF 		bl	lv_event_get_param
 3216              	.LVL326:
 701:lvgl/lvgl/src/core/lv_obj.c ****             if(c == LV_KEY_RIGHT || c == LV_KEY_UP) {
 3217              		.loc 1 701 18 view .LVU1051
 3218 016a 0478     		ldrb	r4, [r0]	@ zero_extendqisi2
 3219              	.LVL327:
 702:lvgl/lvgl/src/core/lv_obj.c ****                 lv_obj_add_state(obj, LV_STATE_CHECKED);
 3220              		.loc 1 702 13 is_stmt 1 view .LVU1052
 702:lvgl/lvgl/src/core/lv_obj.c ****                 lv_obj_add_state(obj, LV_STATE_CHECKED);
 3221              		.loc 1 702 15 is_stmt 0 view .LVU1053
 3222 016c 132C     		cmp	r4, #19
 3223 016e 0AD0     		beq	.L161
 702:lvgl/lvgl/src/core/lv_obj.c ****                 lv_obj_add_state(obj, LV_STATE_CHECKED);
 3224              		.loc 1 702 34 discriminator 1 view .LVU1054
 3225 0170 112C     		cmp	r4, #17
 3226 0172 08D0     		beq	.L161
 705:lvgl/lvgl/src/core/lv_obj.c ****                 lv_obj_clear_state(obj, LV_STATE_CHECKED);
 3227              		.loc 1 705 18 is_stmt 1 view .LVU1055
 705:lvgl/lvgl/src/core/lv_obj.c ****                 lv_obj_clear_state(obj, LV_STATE_CHECKED);
 3228              		.loc 1 705 20 is_stmt 0 view .LVU1056
 3229 0174 142C     		cmp	r4, #20
 3230 0176 01D0     		beq	.L164
 705:lvgl/lvgl/src/core/lv_obj.c ****                 lv_obj_clear_state(obj, LV_STATE_CHECKED);
 3231              		.loc 1 705 38 discriminator 1 view .LVU1057
ARM GAS  C:\Users\gx\AppData\Local\Temp\cccIVLs9.s 			page 107


 3232 0178 122C     		cmp	r4, #18
 3233 017a 08D1     		bne	.L163
 3234              	.L164:
 706:lvgl/lvgl/src/core/lv_obj.c ****             }
 3235              		.loc 1 706 17 is_stmt 1 view .LVU1058
 3236 017c 0121     		movs	r1, #1
 3237 017e 2846     		mov	r0, r5
 3238 0180 FFF7FEFF 		bl	lv_obj_clear_state
 3239              	.LVL328:
 3240 0184 03E0     		b	.L163
 3241              	.L161:
 703:lvgl/lvgl/src/core/lv_obj.c ****             }
 3242              		.loc 1 703 17 view .LVU1059
 3243 0186 0121     		movs	r1, #1
 3244 0188 2846     		mov	r0, r5
 3245 018a FFF7FEFF 		bl	lv_obj_add_state
 3246              	.LVL329:
 3247              	.L163:
 710:lvgl/lvgl/src/core/lv_obj.c ****                 lv_res_t res = lv_event_send(obj, LV_EVENT_VALUE_CHANGED, NULL);
 3248              		.loc 1 710 13 view .LVU1060
 710:lvgl/lvgl/src/core/lv_obj.c ****                 lv_res_t res = lv_event_send(obj, LV_EVENT_VALUE_CHANGED, NULL);
 3249              		.loc 1 710 15 is_stmt 0 view .LVU1061
 3250 018e 0A2C     		cmp	r4, #10
 3251 0190 3FF46CAF 		beq	.L149
 3252              	.LBB206:
 711:lvgl/lvgl/src/core/lv_obj.c ****                 if(res != LV_RES_OK) return;
 3253              		.loc 1 711 17 is_stmt 1 view .LVU1062
 711:lvgl/lvgl/src/core/lv_obj.c ****                 if(res != LV_RES_OK) return;
 3254              		.loc 1 711 32 is_stmt 0 view .LVU1063
 3255 0194 0022     		movs	r2, #0
 3256 0196 1C21     		movs	r1, #28
 3257 0198 2846     		mov	r0, r5
 3258 019a FFF7FEFF 		bl	lv_event_send
 3259              	.LVL330:
 712:lvgl/lvgl/src/core/lv_obj.c ****             }
 3260              		.loc 1 712 17 is_stmt 1 view .LVU1064
 3261 019e 65E7     		b	.L149
 3262              	.LVL331:
 3263              	.L211:
 712:lvgl/lvgl/src/core/lv_obj.c ****             }
 3264              		.loc 1 712 17 is_stmt 0 view .LVU1065
 3265              	.LBE206:
 3266              	.LBE205:
 3267              	.LBB207:
 723:lvgl/lvgl/src/core/lv_obj.c ****             }
 3268              		.loc 1 723 17 is_stmt 1 view .LVU1066
 723:lvgl/lvgl/src/core/lv_obj.c ****             }
 3269              		.loc 1 723 41 is_stmt 0 view .LVU1067
 3270 01a0 2846     		mov	r0, r5
 3271 01a2 FFF7FEFF 		bl	lv_obj_get_scroll_y
 3272              	.LVL332:
 723:lvgl/lvgl/src/core/lv_obj.c ****             }
 3273              		.loc 1 723 41 view .LVU1068
 3274 01a6 84B2     		uxth	r4, r0
 3275              	.LVL333:
 723:lvgl/lvgl/src/core/lv_obj.c ****             }
 3276              		.loc 1 723 68 view .LVU1069
ARM GAS  C:\Users\gx\AppData\Local\Temp\cccIVLs9.s 			page 108


 3277 01a8 2846     		mov	r0, r5
 3278 01aa FFF7FEFF 		bl	lv_obj_get_height
 3279              	.LVL334:
 723:lvgl/lvgl/src/core/lv_obj.c ****             }
 3280              		.loc 1 723 66 view .LVU1070
 3281 01ae 0146     		mov	r1, r0
 3282 01b0 0028     		cmp	r0, #0
 3283 01b2 07DB     		blt	.L215
 3284              	.L166:
 3285 01b4 04EBA101 		add	r1, r4, r1, asr #2
 723:lvgl/lvgl/src/core/lv_obj.c ****             }
 3286              		.loc 1 723 17 view .LVU1071
 3287 01b8 0022     		movs	r2, #0
 3288 01ba 09B2     		sxth	r1, r1
 3289 01bc 2846     		mov	r0, r5
 3290 01be FFF7FEFF 		bl	lv_obj_scroll_to_y
 3291              	.LVL335:
 3292 01c2 53E7     		b	.L149
 3293              	.L215:
 723:lvgl/lvgl/src/core/lv_obj.c ****             }
 3294              		.loc 1 723 66 view .LVU1072
 3295 01c4 C11C     		adds	r1, r0, #3
 3296 01c6 F5E7     		b	.L166
 3297              	.LVL336:
 3298              	.L212:
 726:lvgl/lvgl/src/core/lv_obj.c ****             }
 3299              		.loc 1 726 17 is_stmt 1 view .LVU1073
 726:lvgl/lvgl/src/core/lv_obj.c ****             }
 3300              		.loc 1 726 41 is_stmt 0 view .LVU1074
 3301 01c8 2846     		mov	r0, r5
 3302 01ca FFF7FEFF 		bl	lv_obj_get_scroll_y
 3303              	.LVL337:
 726:lvgl/lvgl/src/core/lv_obj.c ****             }
 3304              		.loc 1 726 41 view .LVU1075
 3305 01ce 84B2     		uxth	r4, r0
 3306              	.LVL338:
 726:lvgl/lvgl/src/core/lv_obj.c ****             }
 3307              		.loc 1 726 68 view .LVU1076
 3308 01d0 2846     		mov	r0, r5
 3309 01d2 FFF7FEFF 		bl	lv_obj_get_height
 3310              	.LVL339:
 726:lvgl/lvgl/src/core/lv_obj.c ****             }
 3311              		.loc 1 726 66 view .LVU1077
 3312 01d6 0146     		mov	r1, r0
 3313 01d8 0028     		cmp	r0, #0
 3314 01da 07DB     		blt	.L216
 3315              	.L168:
 3316 01dc A4EBA101 		sub	r1, r4, r1, asr #2
 726:lvgl/lvgl/src/core/lv_obj.c ****             }
 3317              		.loc 1 726 17 view .LVU1078
 3318 01e0 0022     		movs	r2, #0
 3319 01e2 09B2     		sxth	r1, r1
 3320 01e4 2846     		mov	r0, r5
 3321 01e6 FFF7FEFF 		bl	lv_obj_scroll_to_y
 3322              	.LVL340:
 3323 01ea 3FE7     		b	.L149
 3324              	.L216:
ARM GAS  C:\Users\gx\AppData\Local\Temp\cccIVLs9.s 			page 109


 726:lvgl/lvgl/src/core/lv_obj.c ****             }
 3325              		.loc 1 726 66 view .LVU1079
 3326 01ec C11C     		adds	r1, r0, #3
 3327 01ee F5E7     		b	.L168
 3328              	.LVL341:
 3329              	.L213:
 730:lvgl/lvgl/src/core/lv_obj.c ****                     lv_obj_scroll_to_y(obj, lv_obj_get_scroll_y(obj) + lv_obj_get_height(obj) / 4, 
 3330              		.loc 1 730 17 is_stmt 1 view .LVU1080
 730:lvgl/lvgl/src/core/lv_obj.c ****                     lv_obj_scroll_to_y(obj, lv_obj_get_scroll_y(obj) + lv_obj_get_height(obj) / 4, 
 3331              		.loc 1 730 23 is_stmt 0 view .LVU1081
 3332 01f0 2846     		mov	r0, r5
 3333 01f2 FFF7FEFF 		bl	lv_obj_get_scroll_dir
 3334              	.LVL342:
 730:lvgl/lvgl/src/core/lv_obj.c ****                     lv_obj_scroll_to_y(obj, lv_obj_get_scroll_y(obj) + lv_obj_get_height(obj) / 4, 
 3335              		.loc 1 730 19 view .LVU1082
 3336 01f6 10F0030F 		tst	r0, #3
 3337 01fa 15D0     		beq	.L170
 730:lvgl/lvgl/src/core/lv_obj.c ****                     lv_obj_scroll_to_y(obj, lv_obj_get_scroll_y(obj) + lv_obj_get_height(obj) / 4, 
 3338              		.loc 1 730 20 discriminator 1 view .LVU1083
 3339 01fc 002F     		cmp	r7, #0
 3340 01fe 01DC     		bgt	.L171
 730:lvgl/lvgl/src/core/lv_obj.c ****                     lv_obj_scroll_to_y(obj, lv_obj_get_scroll_y(obj) + lv_obj_get_height(obj) / 4, 
 3341              		.loc 1 730 75 discriminator 2 view .LVU1084
 3342 0200 002C     		cmp	r4, #0
 3343 0202 11DD     		ble	.L170
 3344              	.L171:
 733:lvgl/lvgl/src/core/lv_obj.c ****             }
 3345              		.loc 1 733 21 is_stmt 1 view .LVU1085
 733:lvgl/lvgl/src/core/lv_obj.c ****             }
 3346              		.loc 1 733 45 is_stmt 0 view .LVU1086
 3347 0204 2846     		mov	r0, r5
 3348 0206 FFF7FEFF 		bl	lv_obj_get_scroll_x
 3349              	.LVL343:
 3350 020a 84B2     		uxth	r4, r0
 3351              	.LVL344:
 733:lvgl/lvgl/src/core/lv_obj.c ****             }
 3352              		.loc 1 733 72 view .LVU1087
 3353 020c 2846     		mov	r0, r5
 3354 020e FFF7FEFF 		bl	lv_obj_get_width
 3355              	.LVL345:
 733:lvgl/lvgl/src/core/lv_obj.c ****             }
 3356              		.loc 1 733 70 view .LVU1088
 3357 0212 0146     		mov	r1, r0
 3358 0214 0028     		cmp	r0, #0
 3359 0216 1BDB     		blt	.L217
 3360              	.L173:
 3361 0218 04EBA101 		add	r1, r4, r1, asr #2
 733:lvgl/lvgl/src/core/lv_obj.c ****             }
 3362              		.loc 1 733 21 view .LVU1089
 3363 021c 0022     		movs	r2, #0
 3364 021e 09B2     		sxth	r1, r1
 3365 0220 2846     		mov	r0, r5
 3366 0222 FFF7FEFF 		bl	lv_obj_scroll_to_x
 3367              	.LVL346:
 3368 0226 21E7     		b	.L149
 3369              	.LVL347:
 3370              	.L170:
ARM GAS  C:\Users\gx\AppData\Local\Temp\cccIVLs9.s 			page 110


 731:lvgl/lvgl/src/core/lv_obj.c ****                 else
 3371              		.loc 1 731 21 is_stmt 1 view .LVU1090
 731:lvgl/lvgl/src/core/lv_obj.c ****                 else
 3372              		.loc 1 731 45 is_stmt 0 view .LVU1091
 3373 0228 2846     		mov	r0, r5
 3374 022a FFF7FEFF 		bl	lv_obj_get_scroll_y
 3375              	.LVL348:
 3376 022e 84B2     		uxth	r4, r0
 3377              	.LVL349:
 731:lvgl/lvgl/src/core/lv_obj.c ****                 else
 3378              		.loc 1 731 72 view .LVU1092
 3379 0230 2846     		mov	r0, r5
 3380 0232 FFF7FEFF 		bl	lv_obj_get_height
 3381              	.LVL350:
 731:lvgl/lvgl/src/core/lv_obj.c ****                 else
 3382              		.loc 1 731 70 view .LVU1093
 3383 0236 0146     		mov	r1, r0
 3384 0238 0028     		cmp	r0, #0
 3385 023a 07DB     		blt	.L218
 3386              	.L172:
 3387 023c 04EBA101 		add	r1, r4, r1, asr #2
 731:lvgl/lvgl/src/core/lv_obj.c ****                 else
 3388              		.loc 1 731 21 view .LVU1094
 3389 0240 0022     		movs	r2, #0
 3390 0242 09B2     		sxth	r1, r1
 3391 0244 2846     		mov	r0, r5
 3392 0246 FFF7FEFF 		bl	lv_obj_scroll_to_y
 3393              	.LVL351:
 3394 024a 0FE7     		b	.L149
 3395              	.L218:
 731:lvgl/lvgl/src/core/lv_obj.c ****                 else
 3396              		.loc 1 731 70 view .LVU1095
 3397 024c C11C     		adds	r1, r0, #3
 3398 024e F5E7     		b	.L172
 3399              	.L217:
 733:lvgl/lvgl/src/core/lv_obj.c ****             }
 3400              		.loc 1 733 70 view .LVU1096
 3401 0250 C11C     		adds	r1, r0, #3
 3402 0252 E1E7     		b	.L173
 3403              	.LVL352:
 3404              	.L174:
 738:lvgl/lvgl/src/core/lv_obj.c ****                 else
 3405              		.loc 1 738 21 is_stmt 1 view .LVU1097
 738:lvgl/lvgl/src/core/lv_obj.c ****                 else
 3406              		.loc 1 738 45 is_stmt 0 view .LVU1098
 3407 0254 2846     		mov	r0, r5
 3408 0256 FFF7FEFF 		bl	lv_obj_get_scroll_y
 3409              	.LVL353:
 3410 025a 84B2     		uxth	r4, r0
 3411              	.LVL354:
 738:lvgl/lvgl/src/core/lv_obj.c ****                 else
 3412              		.loc 1 738 72 view .LVU1099
 3413 025c 2846     		mov	r0, r5
 3414 025e FFF7FEFF 		bl	lv_obj_get_height
 3415              	.LVL355:
 738:lvgl/lvgl/src/core/lv_obj.c ****                 else
 3416              		.loc 1 738 70 view .LVU1100
ARM GAS  C:\Users\gx\AppData\Local\Temp\cccIVLs9.s 			page 111


 3417 0262 0146     		mov	r1, r0
 3418 0264 0028     		cmp	r0, #0
 3419 0266 07DB     		blt	.L219
 3420              	.L176:
 3421 0268 A4EBA101 		sub	r1, r4, r1, asr #2
 738:lvgl/lvgl/src/core/lv_obj.c ****                 else
 3422              		.loc 1 738 21 view .LVU1101
 3423 026c 0022     		movs	r2, #0
 3424 026e 09B2     		sxth	r1, r1
 3425 0270 2846     		mov	r0, r5
 3426 0272 FFF7FEFF 		bl	lv_obj_scroll_to_y
 3427              	.LVL356:
 3428 0276 F9E6     		b	.L149
 3429              	.L219:
 738:lvgl/lvgl/src/core/lv_obj.c ****                 else
 3430              		.loc 1 738 70 view .LVU1102
 3431 0278 C11C     		adds	r1, r0, #3
 3432 027a F5E7     		b	.L176
 3433              	.L214:
 740:lvgl/lvgl/src/core/lv_obj.c ****             }
 3434              		.loc 1 740 70 view .LVU1103
 3435 027c C11C     		adds	r1, r0, #3
 3436 027e 69E7     		b	.L177
 3437              	.LVL357:
 3438              	.L203:
 740:lvgl/lvgl/src/core/lv_obj.c ****             }
 3439              		.loc 1 740 70 view .LVU1104
 3440              	.LBE207:
 3441              	.LBB208:
 745:lvgl/lvgl/src/core/lv_obj.c ****             lv_obj_scroll_to_view_recursive(obj, LV_ANIM_ON);
 3442              		.loc 1 745 9 is_stmt 1 view .LVU1105
 745:lvgl/lvgl/src/core/lv_obj.c ****             lv_obj_scroll_to_view_recursive(obj, LV_ANIM_ON);
 3443              		.loc 1 745 12 is_stmt 0 view .LVU1106
 3444 0280 4FF40071 		mov	r1, #512
 3445 0284 FFF7FEFF 		bl	lv_obj_has_flag
 3446              	.LVL358:
 745:lvgl/lvgl/src/core/lv_obj.c ****             lv_obj_scroll_to_view_recursive(obj, LV_ANIM_ON);
 3447              		.loc 1 745 11 view .LVU1107
 3448 0288 B0B9     		cbnz	r0, .L220
 3449              	.L179:
 749:lvgl/lvgl/src/core/lv_obj.c ****         editing = lv_group_get_editing(lv_obj_get_group(obj));
 3450              		.loc 1 749 9 is_stmt 1 view .LVU1108
 3451              	.LVL359:
 750:lvgl/lvgl/src/core/lv_obj.c ****         lv_state_t state = LV_STATE_FOCUSED;
 3452              		.loc 1 750 9 view .LVU1109
 750:lvgl/lvgl/src/core/lv_obj.c ****         lv_state_t state = LV_STATE_FOCUSED;
 3453              		.loc 1 750 40 is_stmt 0 view .LVU1110
 3454 028a 2846     		mov	r0, r5
 3455 028c FFF7FEFF 		bl	lv_obj_get_group
 3456              	.LVL360:
 750:lvgl/lvgl/src/core/lv_obj.c ****         lv_state_t state = LV_STATE_FOCUSED;
 3457              		.loc 1 750 19 view .LVU1111
 3458 0290 FFF7FEFF 		bl	lv_group_get_editing
 3459              	.LVL361:
 3460 0294 0446     		mov	r4, r0
 3461              	.LVL362:
 751:lvgl/lvgl/src/core/lv_obj.c **** 
ARM GAS  C:\Users\gx\AppData\Local\Temp\cccIVLs9.s 			page 112


 3462              		.loc 1 751 9 is_stmt 1 view .LVU1112
 756:lvgl/lvgl/src/core/lv_obj.c ****         if(indev == NULL) indev = lv_event_get_indev(e);
 3463              		.loc 1 756 9 view .LVU1113
 756:lvgl/lvgl/src/core/lv_obj.c ****         if(indev == NULL) indev = lv_event_get_indev(e);
 3464              		.loc 1 756 30 is_stmt 0 view .LVU1114
 3465 0296 FFF7FEFF 		bl	lv_indev_get_act
 3466              	.LVL363:
 757:lvgl/lvgl/src/core/lv_obj.c **** 
 3467              		.loc 1 757 9 is_stmt 1 view .LVU1115
 757:lvgl/lvgl/src/core/lv_obj.c **** 
 3468              		.loc 1 757 11 is_stmt 0 view .LVU1116
 3469 029a 90B1     		cbz	r0, .L221
 3470              	.L180:
 759:lvgl/lvgl/src/core/lv_obj.c ****         if(indev_type == LV_INDEV_TYPE_KEYPAD || indev_type == LV_INDEV_TYPE_ENCODER) state |= LV_S
 3471              		.loc 1 759 9 is_stmt 1 view .LVU1117
 759:lvgl/lvgl/src/core/lv_obj.c ****         if(indev_type == LV_INDEV_TYPE_KEYPAD || indev_type == LV_INDEV_TYPE_ENCODER) state |= LV_S
 3472              		.loc 1 759 38 is_stmt 0 view .LVU1118
 3473 029c FFF7FEFF 		bl	lv_indev_get_type
 3474              	.LVL364:
 760:lvgl/lvgl/src/core/lv_obj.c ****         if(editing) {
 3475              		.loc 1 760 9 is_stmt 1 view .LVU1119
 760:lvgl/lvgl/src/core/lv_obj.c ****         if(editing) {
 3476              		.loc 1 760 11 is_stmt 0 view .LVU1120
 3477 02a0 0228     		cmp	r0, #2
 3478 02a2 12D0     		beq	.L195
 760:lvgl/lvgl/src/core/lv_obj.c ****         if(editing) {
 3479              		.loc 1 760 47 discriminator 2 view .LVU1121
 3480 02a4 0428     		cmp	r0, #4
 3481 02a6 12D0     		beq	.L196
 751:lvgl/lvgl/src/core/lv_obj.c **** 
 3482              		.loc 1 751 20 view .LVU1122
 3483 02a8 0221     		movs	r1, #2
 3484              	.L181:
 3485              	.LVL365:
 761:lvgl/lvgl/src/core/lv_obj.c ****             state |= LV_STATE_EDITED;
 3486              		.loc 1 761 9 is_stmt 1 view .LVU1123
 761:lvgl/lvgl/src/core/lv_obj.c ****             state |= LV_STATE_EDITED;
 3487              		.loc 1 761 11 is_stmt 0 view .LVU1124
 3488 02aa 94B1     		cbz	r4, .L182
 762:lvgl/lvgl/src/core/lv_obj.c ****             lv_obj_add_state(obj, state);
 3489              		.loc 1 762 13 is_stmt 1 view .LVU1125
 3490              	.LVL366:
 763:lvgl/lvgl/src/core/lv_obj.c ****         }
 3491              		.loc 1 763 13 view .LVU1126
 3492 02ac 41F00801 		orr	r1, r1, #8
 3493              	.LVL367:
 763:lvgl/lvgl/src/core/lv_obj.c ****         }
 3494              		.loc 1 763 13 is_stmt 0 view .LVU1127
 3495 02b0 2846     		mov	r0, r5
 3496              	.LVL368:
 763:lvgl/lvgl/src/core/lv_obj.c ****         }
 3497              		.loc 1 763 13 view .LVU1128
 3498 02b2 FFF7FEFF 		bl	lv_obj_add_state
 3499              	.LVL369:
 3500 02b6 D9E6     		b	.L149
 3501              	.LVL370:
 3502              	.L220:
ARM GAS  C:\Users\gx\AppData\Local\Temp\cccIVLs9.s 			page 113


 746:lvgl/lvgl/src/core/lv_obj.c ****         }
 3503              		.loc 1 746 13 is_stmt 1 view .LVU1129
 3504 02b8 0121     		movs	r1, #1
 3505 02ba 2846     		mov	r0, r5
 3506 02bc FFF7FEFF 		bl	lv_obj_scroll_to_view_recursive
 3507              	.LVL371:
 3508 02c0 E3E7     		b	.L179
 3509              	.LVL372:
 3510              	.L221:
 757:lvgl/lvgl/src/core/lv_obj.c **** 
 3511              		.loc 1 757 27 discriminator 1 view .LVU1130
 757:lvgl/lvgl/src/core/lv_obj.c **** 
 3512              		.loc 1 757 35 is_stmt 0 discriminator 1 view .LVU1131
 3513 02c2 3046     		mov	r0, r6
 3514              	.LVL373:
 757:lvgl/lvgl/src/core/lv_obj.c **** 
 3515              		.loc 1 757 35 discriminator 1 view .LVU1132
 3516 02c4 FFF7FEFF 		bl	lv_event_get_indev
 3517              	.LVL374:
 757:lvgl/lvgl/src/core/lv_obj.c **** 
 3518              		.loc 1 757 35 discriminator 1 view .LVU1133
 3519 02c8 E8E7     		b	.L180
 3520              	.LVL375:
 3521              	.L195:
 760:lvgl/lvgl/src/core/lv_obj.c ****         if(editing) {
 3522              		.loc 1 760 93 view .LVU1134
 3523 02ca 0621     		movs	r1, #6
 3524 02cc EDE7     		b	.L181
 3525              	.L196:
 3526 02ce 0621     		movs	r1, #6
 3527 02d0 EBE7     		b	.L181
 3528              	.LVL376:
 3529              	.L182:
 766:lvgl/lvgl/src/core/lv_obj.c ****             lv_obj_clear_state(obj, LV_STATE_EDITED);
 3530              		.loc 1 766 13 is_stmt 1 view .LVU1135
 3531 02d2 2846     		mov	r0, r5
 3532              	.LVL377:
 766:lvgl/lvgl/src/core/lv_obj.c ****             lv_obj_clear_state(obj, LV_STATE_EDITED);
 3533              		.loc 1 766 13 is_stmt 0 view .LVU1136
 3534 02d4 FFF7FEFF 		bl	lv_obj_add_state
 3535              	.LVL378:
 767:lvgl/lvgl/src/core/lv_obj.c ****         }
 3536              		.loc 1 767 13 is_stmt 1 view .LVU1137
 3537 02d8 0821     		movs	r1, #8
 3538 02da 2846     		mov	r0, r5
 3539 02dc FFF7FEFF 		bl	lv_obj_clear_state
 3540              	.LVL379:
 3541 02e0 C4E6     		b	.L149
 3542              	.LVL380:
 3543              	.L204:
 767:lvgl/lvgl/src/core/lv_obj.c ****         }
 3544              		.loc 1 767 13 is_stmt 0 view .LVU1138
 3545              	.LBE208:
 771:lvgl/lvgl/src/core/lv_obj.c ****     }
 3546              		.loc 1 771 9 is_stmt 1 view .LVU1139
 3547 02e2 4021     		movs	r1, #64
 3548 02e4 FFF7FEFF 		bl	lv_obj_add_state
ARM GAS  C:\Users\gx\AppData\Local\Temp\cccIVLs9.s 			page 114


 3549              	.LVL381:
 771:lvgl/lvgl/src/core/lv_obj.c ****     }
 3550              		.loc 1 771 9 is_stmt 0 view .LVU1140
 3551 02e8 C0E6     		b	.L149
 3552              	.LVL382:
 3553              	.L205:
 774:lvgl/lvgl/src/core/lv_obj.c ****     }
 3554              		.loc 1 774 9 is_stmt 1 view .LVU1141
 3555 02ea 4021     		movs	r1, #64
 3556 02ec FFF7FEFF 		bl	lv_obj_clear_state
 3557              	.LVL383:
 774:lvgl/lvgl/src/core/lv_obj.c ****     }
 3558              		.loc 1 774 9 is_stmt 0 view .LVU1142
 3559 02f0 BCE6     		b	.L149
 3560              	.LVL384:
 3561              	.L206:
 777:lvgl/lvgl/src/core/lv_obj.c ****     }
 3562              		.loc 1 777 9 is_stmt 1 view .LVU1143
 3563 02f2 0E21     		movs	r1, #14
 3564 02f4 FFF7FEFF 		bl	lv_obj_clear_state
 3565              	.LVL385:
 777:lvgl/lvgl/src/core/lv_obj.c ****     }
 3566              		.loc 1 777 9 is_stmt 0 view .LVU1144
 3567 02f8 B8E6     		b	.L149
 3568              	.LVL386:
 3569              	.L207:
 3570              	.LBB209:
 780:lvgl/lvgl/src/core/lv_obj.c ****         uint16_t layout = lv_obj_get_style_layout(obj, LV_PART_MAIN);
 3571              		.loc 1 780 9 is_stmt 1 view .LVU1145
 3572              	.LBB210:
 3573              	.LBI210:
  49:lvgl/lvgl/src/core/lv_obj_style_gen.h **** {
 3574              		.loc 2 49 26 view .LVU1146
 3575              	.LBB211:
  51:lvgl/lvgl/src/core/lv_obj_style_gen.h ****     return (lv_align_t)v.num;
 3576              		.loc 2 51 5 view .LVU1147
  51:lvgl/lvgl/src/core/lv_obj_style_gen.h ****     return (lv_align_t)v.num;
 3577              		.loc 2 51 26 is_stmt 0 view .LVU1148
 3578 02fa 41F20902 		movw	r2, #4105
 3579 02fe 0021     		movs	r1, #0
 3580 0300 FFF7FEFF 		bl	lv_obj_get_style_prop
 3581              	.LVL387:
  52:lvgl/lvgl/src/core/lv_obj_style_gen.h **** }
 3582              		.loc 2 52 5 is_stmt 1 view .LVU1149
  52:lvgl/lvgl/src/core/lv_obj_style_gen.h **** }
 3583              		.loc 2 52 12 is_stmt 0 view .LVU1150
 3584 0304 C4B2     		uxtb	r4, r0
 3585              	.LVL388:
  52:lvgl/lvgl/src/core/lv_obj_style_gen.h **** }
 3586              		.loc 2 52 12 view .LVU1151
 3587              	.LBE211:
 3588              	.LBE210:
 781:lvgl/lvgl/src/core/lv_obj.c ****         if(layout || align) {
 3589              		.loc 1 781 9 is_stmt 1 view .LVU1152
 3590              	.LBB212:
 3591              	.LBI212:
 181:lvgl/lvgl/src/core/lv_obj_style_gen.h **** {
ARM GAS  C:\Users\gx\AppData\Local\Temp\cccIVLs9.s 			page 115


 3592              		.loc 2 181 24 view .LVU1153
 3593              	.LBB213:
 183:lvgl/lvgl/src/core/lv_obj_style_gen.h ****     return (uint16_t)v.num;
 3594              		.loc 2 183 5 view .LVU1154
 183:lvgl/lvgl/src/core/lv_obj_style_gen.h ****     return (uint16_t)v.num;
 3595              		.loc 2 183 26 is_stmt 0 view .LVU1155
 3596 0306 41F26902 		movw	r2, #4201
 3597 030a 0021     		movs	r1, #0
 3598 030c 2846     		mov	r0, r5
 3599 030e FFF7FEFF 		bl	lv_obj_get_style_prop
 3600              	.LVL389:
 184:lvgl/lvgl/src/core/lv_obj_style_gen.h **** }
 3601              		.loc 2 184 5 is_stmt 1 view .LVU1156
 184:lvgl/lvgl/src/core/lv_obj_style_gen.h **** }
 3602              		.loc 2 184 12 is_stmt 0 view .LVU1157
 3603 0312 80B2     		uxth	r0, r0
 3604              	.LVL390:
 184:lvgl/lvgl/src/core/lv_obj_style_gen.h **** }
 3605              		.loc 2 184 12 view .LVU1158
 3606              	.LBE213:
 3607              	.LBE212:
 782:lvgl/lvgl/src/core/lv_obj.c ****             lv_obj_mark_layout_as_dirty(obj);
 3608              		.loc 1 782 9 is_stmt 1 view .LVU1159
 782:lvgl/lvgl/src/core/lv_obj.c ****             lv_obj_mark_layout_as_dirty(obj);
 3609              		.loc 1 782 11 is_stmt 0 view .LVU1160
 3610 0314 00B9     		cbnz	r0, .L187
 782:lvgl/lvgl/src/core/lv_obj.c ****             lv_obj_mark_layout_as_dirty(obj);
 3611              		.loc 1 782 19 discriminator 1 view .LVU1161
 3612 0316 14B1     		cbz	r4, .L188
 3613              	.L187:
 783:lvgl/lvgl/src/core/lv_obj.c ****         }
 3614              		.loc 1 783 13 is_stmt 1 view .LVU1162
 3615 0318 2846     		mov	r0, r5
 3616              	.LVL391:
 783:lvgl/lvgl/src/core/lv_obj.c ****         }
 3617              		.loc 1 783 13 is_stmt 0 view .LVU1163
 3618 031a FFF7FEFF 		bl	lv_obj_mark_layout_as_dirty
 3619              	.LVL392:
 3620              	.L188:
 786:lvgl/lvgl/src/core/lv_obj.c ****         uint32_t child_cnt = lv_obj_get_child_cnt(obj);
 3621              		.loc 1 786 9 is_stmt 1 view .LVU1164
 787:lvgl/lvgl/src/core/lv_obj.c ****         for(i = 0; i < child_cnt; i++) {
 3622              		.loc 1 787 9 view .LVU1165
 787:lvgl/lvgl/src/core/lv_obj.c ****         for(i = 0; i < child_cnt; i++) {
 3623              		.loc 1 787 30 is_stmt 0 view .LVU1166
 3624 031e 2846     		mov	r0, r5
 3625 0320 FFF7FEFF 		bl	lv_obj_get_child_cnt
 3626              	.LVL393:
 3627 0324 0646     		mov	r6, r0
 3628              	.LVL394:
 788:lvgl/lvgl/src/core/lv_obj.c ****             lv_obj_t * child = obj->spec_attr->children[i];
 3629              		.loc 1 788 9 is_stmt 1 view .LVU1167
 788:lvgl/lvgl/src/core/lv_obj.c ****             lv_obj_t * child = obj->spec_attr->children[i];
 3630              		.loc 1 788 15 is_stmt 0 view .LVU1168
 3631 0326 0024     		movs	r4, #0
 3632              	.LVL395:
 788:lvgl/lvgl/src/core/lv_obj.c ****             lv_obj_t * child = obj->spec_attr->children[i];
ARM GAS  C:\Users\gx\AppData\Local\Temp\cccIVLs9.s 			page 116


 3633              		.loc 1 788 9 view .LVU1169
 3634 0328 06E0     		b	.L189
 3635              	.LVL396:
 3636              	.L190:
 3637              	.LBB214:
 789:lvgl/lvgl/src/core/lv_obj.c ****             lv_obj_mark_layout_as_dirty(child);
 3638              		.loc 1 789 13 is_stmt 1 discriminator 3 view .LVU1170
 789:lvgl/lvgl/src/core/lv_obj.c ****             lv_obj_mark_layout_as_dirty(child);
 3639              		.loc 1 789 35 is_stmt 0 discriminator 3 view .LVU1171
 3640 032a AB68     		ldr	r3, [r5, #8]
 789:lvgl/lvgl/src/core/lv_obj.c ****             lv_obj_mark_layout_as_dirty(child);
 3641              		.loc 1 789 46 discriminator 3 view .LVU1172
 3642 032c 1B68     		ldr	r3, [r3]
 3643              	.LVL397:
 790:lvgl/lvgl/src/core/lv_obj.c ****         }
 3644              		.loc 1 790 13 is_stmt 1 discriminator 3 view .LVU1173
 3645 032e 53F82400 		ldr	r0, [r3, r4, lsl #2]
 3646 0332 FFF7FEFF 		bl	lv_obj_mark_layout_as_dirty
 3647              	.LVL398:
 790:lvgl/lvgl/src/core/lv_obj.c ****         }
 3648              		.loc 1 790 13 is_stmt 0 discriminator 3 view .LVU1174
 3649              	.LBE214:
 788:lvgl/lvgl/src/core/lv_obj.c ****             lv_obj_t * child = obj->spec_attr->children[i];
 3650              		.loc 1 788 35 is_stmt 1 discriminator 3 view .LVU1175
 788:lvgl/lvgl/src/core/lv_obj.c ****             lv_obj_t * child = obj->spec_attr->children[i];
 3651              		.loc 1 788 36 is_stmt 0 discriminator 3 view .LVU1176
 3652 0336 0134     		adds	r4, r4, #1
 3653              	.LVL399:
 3654              	.L189:
 788:lvgl/lvgl/src/core/lv_obj.c ****             lv_obj_t * child = obj->spec_attr->children[i];
 3655              		.loc 1 788 20 is_stmt 1 discriminator 1 view .LVU1177
 788:lvgl/lvgl/src/core/lv_obj.c ****             lv_obj_t * child = obj->spec_attr->children[i];
 3656              		.loc 1 788 9 is_stmt 0 discriminator 1 view .LVU1178
 3657 0338 B442     		cmp	r4, r6
 3658 033a F6D3     		bcc	.L190
 3659 033c 96E6     		b	.L149
 3660              	.LVL400:
 3661              	.L208:
 788:lvgl/lvgl/src/core/lv_obj.c ****             lv_obj_t * child = obj->spec_attr->children[i];
 3662              		.loc 1 788 9 discriminator 1 view .LVU1179
 3663              	.LBE209:
 3664              	.LBB215:
 794:lvgl/lvgl/src/core/lv_obj.c ****         lv_coord_t h = lv_obj_get_style_height(obj, LV_PART_MAIN);
 3665              		.loc 1 794 9 is_stmt 1 view .LVU1180
 3666              	.LBB216:
 3667              	.LBI216:
   1:lvgl/lvgl/src/core/lv_obj_style_gen.h **** {
 3668              		.loc 2 1 26 view .LVU1181
 3669              	.LBB217:
   3:lvgl/lvgl/src/core/lv_obj_style_gen.h ****     return (lv_coord_t)v.num;
 3670              		.loc 2 3 5 view .LVU1182
   3:lvgl/lvgl/src/core/lv_obj_style_gen.h ****     return (lv_coord_t)v.num;
 3671              		.loc 2 3 26 is_stmt 0 view .LVU1183
 3672 033e 41F20102 		movw	r2, #4097
 3673 0342 0021     		movs	r1, #0
 3674 0344 FFF7FEFF 		bl	lv_obj_get_style_prop
 3675              	.LVL401:
ARM GAS  C:\Users\gx\AppData\Local\Temp\cccIVLs9.s 			page 117


   4:lvgl/lvgl/src/core/lv_obj_style_gen.h **** }
 3676              		.loc 2 4 5 is_stmt 1 view .LVU1184
   4:lvgl/lvgl/src/core/lv_obj_style_gen.h **** }
 3677              		.loc 2 4 12 is_stmt 0 view .LVU1185
 3678 0348 07B2     		sxth	r7, r0
 3679              	.LVL402:
   4:lvgl/lvgl/src/core/lv_obj_style_gen.h **** }
 3680              		.loc 2 4 12 view .LVU1186
 3681              	.LBE217:
 3682              	.LBE216:
 795:lvgl/lvgl/src/core/lv_obj.c ****         lv_coord_t align = lv_obj_get_style_align(obj, LV_PART_MAIN);
 3683              		.loc 1 795 9 is_stmt 1 view .LVU1187
 3684              	.LBB218:
 3685              	.LBI218:
  19:lvgl/lvgl/src/core/lv_obj_style_gen.h **** {
 3686              		.loc 2 19 26 view .LVU1188
 3687              	.LBB219:
  21:lvgl/lvgl/src/core/lv_obj_style_gen.h ****     return (lv_coord_t)v.num;
 3688              		.loc 2 21 5 view .LVU1189
  21:lvgl/lvgl/src/core/lv_obj_style_gen.h ****     return (lv_coord_t)v.num;
 3689              		.loc 2 21 26 is_stmt 0 view .LVU1190
 3690 034a 41F20402 		movw	r2, #4100
 3691 034e 0021     		movs	r1, #0
 3692 0350 2846     		mov	r0, r5
 3693 0352 FFF7FEFF 		bl	lv_obj_get_style_prop
 3694              	.LVL403:
  22:lvgl/lvgl/src/core/lv_obj_style_gen.h **** }
 3695              		.loc 2 22 5 is_stmt 1 view .LVU1191
  22:lvgl/lvgl/src/core/lv_obj_style_gen.h **** }
 3696              		.loc 2 22 12 is_stmt 0 view .LVU1192
 3697 0356 06B2     		sxth	r6, r0
 3698              	.LVL404:
  22:lvgl/lvgl/src/core/lv_obj_style_gen.h **** }
 3699              		.loc 2 22 12 view .LVU1193
 3700              	.LBE219:
 3701              	.LBE218:
 796:lvgl/lvgl/src/core/lv_obj.c ****         uint16_t layout = lv_obj_get_style_layout(obj, LV_PART_MAIN);
 3702              		.loc 1 796 9 is_stmt 1 view .LVU1194
 3703              	.LBB220:
 3704              	.LBI220:
  49:lvgl/lvgl/src/core/lv_obj_style_gen.h **** {
 3705              		.loc 2 49 26 view .LVU1195
 3706              	.LBB221:
  51:lvgl/lvgl/src/core/lv_obj_style_gen.h ****     return (lv_align_t)v.num;
 3707              		.loc 2 51 5 view .LVU1196
  51:lvgl/lvgl/src/core/lv_obj_style_gen.h ****     return (lv_align_t)v.num;
 3708              		.loc 2 51 26 is_stmt 0 view .LVU1197
 3709 0358 41F20902 		movw	r2, #4105
 3710 035c 0021     		movs	r1, #0
 3711 035e 2846     		mov	r0, r5
 3712 0360 FFF7FEFF 		bl	lv_obj_get_style_prop
 3713              	.LVL405:
  52:lvgl/lvgl/src/core/lv_obj_style_gen.h **** }
 3714              		.loc 2 52 5 is_stmt 1 view .LVU1198
  52:lvgl/lvgl/src/core/lv_obj_style_gen.h **** }
 3715              		.loc 2 52 12 is_stmt 0 view .LVU1199
 3716 0364 C4B2     		uxtb	r4, r0
ARM GAS  C:\Users\gx\AppData\Local\Temp\cccIVLs9.s 			page 118


 3717              	.LVL406:
  52:lvgl/lvgl/src/core/lv_obj_style_gen.h **** }
 3718              		.loc 2 52 12 view .LVU1200
 3719              	.LBE221:
 3720              	.LBE220:
 797:lvgl/lvgl/src/core/lv_obj.c ****         if(layout || align || w == LV_SIZE_CONTENT || h == LV_SIZE_CONTENT) {
 3721              		.loc 1 797 9 is_stmt 1 view .LVU1201
 3722              	.LBB222:
 3723              	.LBI222:
 181:lvgl/lvgl/src/core/lv_obj_style_gen.h **** {
 3724              		.loc 2 181 24 view .LVU1202
 3725              	.LBB223:
 183:lvgl/lvgl/src/core/lv_obj_style_gen.h ****     return (uint16_t)v.num;
 3726              		.loc 2 183 5 view .LVU1203
 183:lvgl/lvgl/src/core/lv_obj_style_gen.h ****     return (uint16_t)v.num;
 3727              		.loc 2 183 26 is_stmt 0 view .LVU1204
 3728 0366 41F26902 		movw	r2, #4201
 3729 036a 0021     		movs	r1, #0
 3730 036c 2846     		mov	r0, r5
 3731 036e FFF7FEFF 		bl	lv_obj_get_style_prop
 3732              	.LVL407:
 184:lvgl/lvgl/src/core/lv_obj_style_gen.h **** }
 3733              		.loc 2 184 5 is_stmt 1 view .LVU1205
 184:lvgl/lvgl/src/core/lv_obj_style_gen.h **** }
 3734              		.loc 2 184 12 is_stmt 0 view .LVU1206
 3735 0372 80B2     		uxth	r0, r0
 3736              	.LVL408:
 184:lvgl/lvgl/src/core/lv_obj_style_gen.h **** }
 3737              		.loc 2 184 12 view .LVU1207
 3738              	.LBE223:
 3739              	.LBE222:
 798:lvgl/lvgl/src/core/lv_obj.c ****             lv_obj_mark_layout_as_dirty(obj);
 3740              		.loc 1 798 9 is_stmt 1 view .LVU1208
 798:lvgl/lvgl/src/core/lv_obj.c ****             lv_obj_mark_layout_as_dirty(obj);
 3741              		.loc 1 798 11 is_stmt 0 view .LVU1209
 3742 0374 38B9     		cbnz	r0, .L192
 798:lvgl/lvgl/src/core/lv_obj.c ****             lv_obj_mark_layout_as_dirty(obj);
 3743              		.loc 1 798 19 discriminator 1 view .LVU1210
 3744 0376 34B9     		cbnz	r4, .L192
 798:lvgl/lvgl/src/core/lv_obj.c ****             lv_obj_mark_layout_as_dirty(obj);
 3745              		.loc 1 798 28 discriminator 2 view .LVU1211
 3746 0378 42F2D173 		movw	r3, #10193
 3747 037c 9F42     		cmp	r7, r3
 3748 037e 02D0     		beq	.L192
 798:lvgl/lvgl/src/core/lv_obj.c ****             lv_obj_mark_layout_as_dirty(obj);
 3749              		.loc 1 798 52 discriminator 3 view .LVU1212
 3750 0380 9E42     		cmp	r6, r3
 3751 0382 7FF473AE 		bne	.L149
 3752              	.L192:
 799:lvgl/lvgl/src/core/lv_obj.c ****         }
 3753              		.loc 1 799 13 is_stmt 1 view .LVU1213
 3754 0386 2846     		mov	r0, r5
 3755              	.LVL409:
 799:lvgl/lvgl/src/core/lv_obj.c ****         }
 3756              		.loc 1 799 13 is_stmt 0 view .LVU1214
 3757 0388 FFF7FEFF 		bl	lv_obj_mark_layout_as_dirty
 3758              	.LVL410:
ARM GAS  C:\Users\gx\AppData\Local\Temp\cccIVLs9.s 			page 119


 3759 038c 6EE6     		b	.L149
 3760              	.LVL411:
 3761              	.L209:
 799:lvgl/lvgl/src/core/lv_obj.c ****         }
 3762              		.loc 1 799 13 view .LVU1215
 3763              	.LBE215:
 3764              	.LBB224:
 808:lvgl/lvgl/src/core/lv_obj.c ****         lv_coord_t d = lv_obj_calculate_ext_draw_size(obj, LV_PART_MAIN);
 3765              		.loc 1 808 9 is_stmt 1 view .LVU1216
 808:lvgl/lvgl/src/core/lv_obj.c ****         lv_coord_t d = lv_obj_calculate_ext_draw_size(obj, LV_PART_MAIN);
 3766              		.loc 1 808 26 is_stmt 0 view .LVU1217
 3767 038e 3046     		mov	r0, r6
 3768              	.LVL412:
 808:lvgl/lvgl/src/core/lv_obj.c ****         lv_coord_t d = lv_obj_calculate_ext_draw_size(obj, LV_PART_MAIN);
 3769              		.loc 1 808 26 view .LVU1218
 3770 0390 FFF7FEFF 		bl	lv_event_get_param
 3771              	.LVL413:
 3772 0394 0446     		mov	r4, r0
 3773              	.LVL414:
 809:lvgl/lvgl/src/core/lv_obj.c ****         *s = LV_MAX(*s, d);
 3774              		.loc 1 809 9 is_stmt 1 view .LVU1219
 809:lvgl/lvgl/src/core/lv_obj.c ****         *s = LV_MAX(*s, d);
 3775              		.loc 1 809 24 is_stmt 0 view .LVU1220
 3776 0396 0021     		movs	r1, #0
 3777 0398 2846     		mov	r0, r5
 3778              	.LVL415:
 809:lvgl/lvgl/src/core/lv_obj.c ****         *s = LV_MAX(*s, d);
 3779              		.loc 1 809 24 view .LVU1221
 3780 039a FFF7FEFF 		bl	lv_obj_calculate_ext_draw_size
 3781              	.LVL416:
 810:lvgl/lvgl/src/core/lv_obj.c ****     }
 3782              		.loc 1 810 9 is_stmt 1 view .LVU1222
 810:lvgl/lvgl/src/core/lv_obj.c ****     }
 3783              		.loc 1 810 14 is_stmt 0 view .LVU1223
 3784 039e B4F90030 		ldrsh	r3, [r4]
 3785 03a2 8342     		cmp	r3, r0
 3786 03a4 B8BF     		it	lt
 3787 03a6 0346     		movlt	r3, r0
 810:lvgl/lvgl/src/core/lv_obj.c ****     }
 3788              		.loc 1 810 12 view .LVU1224
 3789 03a8 2380     		strh	r3, [r4]	@ movhi
 3790              	.LBE224:
 3791 03aa 5FE6     		b	.L149
 3792              		.cfi_endproc
 3793              	.LFE181:
 3795              		.section	.text.lv_obj_destructor,"ax",%progbits
 3796              		.align	1
 3797              		.syntax unified
 3798              		.thumb
 3799              		.thumb_func
 3800              		.fpu fpv4-sp-d16
 3802              	lv_obj_destructor:
 3803              	.LVL417:
 3804              	.LFB177:
 406:lvgl/lvgl/src/core/lv_obj.c ****     LV_UNUSED(class_p);
 3805              		.loc 1 406 1 is_stmt 1 view -0
 3806              		.cfi_startproc
ARM GAS  C:\Users\gx\AppData\Local\Temp\cccIVLs9.s 			page 120


 3807              		@ args = 0, pretend = 0, frame = 0
 3808              		@ frame_needed = 0, uses_anonymous_args = 0
 406:lvgl/lvgl/src/core/lv_obj.c ****     LV_UNUSED(class_p);
 3809              		.loc 1 406 1 is_stmt 0 view .LVU1226
 3810 0000 10B5     		push	{r4, lr}
 3811              	.LCFI26:
 3812              		.cfi_def_cfa_offset 8
 3813              		.cfi_offset 4, -8
 3814              		.cfi_offset 14, -4
 3815 0002 0C46     		mov	r4, r1
 407:lvgl/lvgl/src/core/lv_obj.c **** 
 3816              		.loc 1 407 5 is_stmt 1 view .LVU1227
 409:lvgl/lvgl/src/core/lv_obj.c **** 
 3817              		.loc 1 409 5 view .LVU1228
 3818 0004 0846     		mov	r0, r1
 3819              	.LVL418:
 409:lvgl/lvgl/src/core/lv_obj.c **** 
 3820              		.loc 1 409 5 is_stmt 0 view .LVU1229
 3821 0006 FFF7FEFF 		bl	_lv_event_mark_deleted
 3822              	.LVL419:
 412:lvgl/lvgl/src/core/lv_obj.c ****     lv_obj_remove_style_all(obj);
 3823              		.loc 1 412 5 is_stmt 1 view .LVU1230
 3824 000a 0020     		movs	r0, #0
 3825 000c FFF7FEFF 		bl	lv_obj_enable_style_refresh
 3826              	.LVL420:
 413:lvgl/lvgl/src/core/lv_obj.c ****     lv_obj_enable_style_refresh(true);
 3827              		.loc 1 413 5 view .LVU1231
 3828              	.LBB225:
 3829              	.LBI225:
 3830              		.file 5 "lvgl/lvgl/src/core/lv_obj_style.h"
   1:lvgl/lvgl/src/core/lv_obj_style.h **** /**
   2:lvgl/lvgl/src/core/lv_obj_style.h ****  * @file lv_obj_style.h
   3:lvgl/lvgl/src/core/lv_obj_style.h ****  *
   4:lvgl/lvgl/src/core/lv_obj_style.h ****  */
   5:lvgl/lvgl/src/core/lv_obj_style.h **** 
   6:lvgl/lvgl/src/core/lv_obj_style.h **** #ifndef LV_OBJ_STYLE_H
   7:lvgl/lvgl/src/core/lv_obj_style.h **** #define LV_OBJ_STYLE_H
   8:lvgl/lvgl/src/core/lv_obj_style.h **** 
   9:lvgl/lvgl/src/core/lv_obj_style.h **** #ifdef __cplusplus
  10:lvgl/lvgl/src/core/lv_obj_style.h **** extern "C" {
  11:lvgl/lvgl/src/core/lv_obj_style.h **** #endif
  12:lvgl/lvgl/src/core/lv_obj_style.h **** 
  13:lvgl/lvgl/src/core/lv_obj_style.h **** /*********************
  14:lvgl/lvgl/src/core/lv_obj_style.h ****  *      INCLUDES
  15:lvgl/lvgl/src/core/lv_obj_style.h ****  *********************/
  16:lvgl/lvgl/src/core/lv_obj_style.h **** #include <stdint.h>
  17:lvgl/lvgl/src/core/lv_obj_style.h **** #include <stdbool.h>
  18:lvgl/lvgl/src/core/lv_obj_style.h **** #include "../misc/lv_bidi.h"
  19:lvgl/lvgl/src/core/lv_obj_style.h **** 
  20:lvgl/lvgl/src/core/lv_obj_style.h **** /*********************
  21:lvgl/lvgl/src/core/lv_obj_style.h ****  *      DEFINES
  22:lvgl/lvgl/src/core/lv_obj_style.h ****  *********************/
  23:lvgl/lvgl/src/core/lv_obj_style.h **** 
  24:lvgl/lvgl/src/core/lv_obj_style.h **** /**********************
  25:lvgl/lvgl/src/core/lv_obj_style.h ****  *      TYPEDEFS
  26:lvgl/lvgl/src/core/lv_obj_style.h ****  **********************/
  27:lvgl/lvgl/src/core/lv_obj_style.h **** /*Can't include lv_obj.h because it includes this header file*/
ARM GAS  C:\Users\gx\AppData\Local\Temp\cccIVLs9.s 			page 121


  28:lvgl/lvgl/src/core/lv_obj_style.h **** struct _lv_obj_t;
  29:lvgl/lvgl/src/core/lv_obj_style.h **** 
  30:lvgl/lvgl/src/core/lv_obj_style.h **** typedef enum {
  31:lvgl/lvgl/src/core/lv_obj_style.h ****     _LV_STYLE_STATE_CMP_SAME,           /*The style properties in the 2 states are identical*/
  32:lvgl/lvgl/src/core/lv_obj_style.h ****     _LV_STYLE_STATE_CMP_DIFF_REDRAW,    /*The differences can be shown with a simple redraw*/
  33:lvgl/lvgl/src/core/lv_obj_style.h ****     _LV_STYLE_STATE_CMP_DIFF_DRAW_PAD,  /*The differences can be shown with a simple redraw*/
  34:lvgl/lvgl/src/core/lv_obj_style.h ****     _LV_STYLE_STATE_CMP_DIFF_LAYOUT,    /*The differences can be shown with a simple redraw*/
  35:lvgl/lvgl/src/core/lv_obj_style.h **** } _lv_style_state_cmp_t;
  36:lvgl/lvgl/src/core/lv_obj_style.h **** 
  37:lvgl/lvgl/src/core/lv_obj_style.h **** typedef uint32_t lv_style_selector_t;
  38:lvgl/lvgl/src/core/lv_obj_style.h **** 
  39:lvgl/lvgl/src/core/lv_obj_style.h **** typedef struct {
  40:lvgl/lvgl/src/core/lv_obj_style.h ****     lv_style_t * style;
  41:lvgl/lvgl/src/core/lv_obj_style.h ****     uint32_t selector :24;
  42:lvgl/lvgl/src/core/lv_obj_style.h ****     uint32_t is_local :1;
  43:lvgl/lvgl/src/core/lv_obj_style.h ****     uint32_t is_trans :1;
  44:lvgl/lvgl/src/core/lv_obj_style.h **** }_lv_obj_style_t;
  45:lvgl/lvgl/src/core/lv_obj_style.h **** 
  46:lvgl/lvgl/src/core/lv_obj_style.h **** typedef struct {
  47:lvgl/lvgl/src/core/lv_obj_style.h ****     uint16_t time;
  48:lvgl/lvgl/src/core/lv_obj_style.h ****     uint16_t delay;
  49:lvgl/lvgl/src/core/lv_obj_style.h ****     lv_style_selector_t selector;
  50:lvgl/lvgl/src/core/lv_obj_style.h ****     lv_style_prop_t prop;
  51:lvgl/lvgl/src/core/lv_obj_style.h ****     lv_anim_path_cb_t path_cb;
  52:lvgl/lvgl/src/core/lv_obj_style.h **** #if LV_USE_USER_DATA
  53:lvgl/lvgl/src/core/lv_obj_style.h ****     void * user_data;
  54:lvgl/lvgl/src/core/lv_obj_style.h **** #endif
  55:lvgl/lvgl/src/core/lv_obj_style.h **** }_lv_obj_style_transition_dsc_t;
  56:lvgl/lvgl/src/core/lv_obj_style.h **** 
  57:lvgl/lvgl/src/core/lv_obj_style.h **** /**********************
  58:lvgl/lvgl/src/core/lv_obj_style.h ****  * GLOBAL PROTOTYPES
  59:lvgl/lvgl/src/core/lv_obj_style.h ****  **********************/
  60:lvgl/lvgl/src/core/lv_obj_style.h **** 
  61:lvgl/lvgl/src/core/lv_obj_style.h **** /**
  62:lvgl/lvgl/src/core/lv_obj_style.h ****  * Initialize the object related style manager module.
  63:lvgl/lvgl/src/core/lv_obj_style.h ****  * Called by LVGL in `lv_init()`
  64:lvgl/lvgl/src/core/lv_obj_style.h ****  */
  65:lvgl/lvgl/src/core/lv_obj_style.h **** void _lv_obj_style_init(void);
  66:lvgl/lvgl/src/core/lv_obj_style.h **** 
  67:lvgl/lvgl/src/core/lv_obj_style.h **** /**
  68:lvgl/lvgl/src/core/lv_obj_style.h ****  * Add a style to an object.
  69:lvgl/lvgl/src/core/lv_obj_style.h ****  * @param obj       pointer to an object
  70:lvgl/lvgl/src/core/lv_obj_style.h ****  * @param style     pointer to a style to add
  71:lvgl/lvgl/src/core/lv_obj_style.h ****  * @param selector  OR-ed value of parts and state to which the style should be added
  72:lvgl/lvgl/src/core/lv_obj_style.h ****  * @example         lv_obj_add_style(btn, &style_btn, 0); //Default button style
  73:lvgl/lvgl/src/core/lv_obj_style.h ****  * @example         lv_obj_add_style(btn, &btn_red, LV_STATE_PRESSED); //Overwrite only some colors
  74:lvgl/lvgl/src/core/lv_obj_style.h ****  */
  75:lvgl/lvgl/src/core/lv_obj_style.h **** void lv_obj_add_style(struct _lv_obj_t * obj, lv_style_t * style, lv_style_selector_t selector);
  76:lvgl/lvgl/src/core/lv_obj_style.h **** 
  77:lvgl/lvgl/src/core/lv_obj_style.h **** /**
  78:lvgl/lvgl/src/core/lv_obj_style.h ****  * Add a style to an object.
  79:lvgl/lvgl/src/core/lv_obj_style.h ****  * @param obj       pointer to an object
  80:lvgl/lvgl/src/core/lv_obj_style.h ****  * @param style     pointer to a style to remove. Can be NULL to check only the selector
  81:lvgl/lvgl/src/core/lv_obj_style.h ****  * @param selector  OR-ed values of states and a part to remove only styles with matching selectors
  82:lvgl/lvgl/src/core/lv_obj_style.h ****  * @example lv_obj_remove_style(obj, &style, LV_PART_ANY | LV_STATE_ANY); //Remove a specific style
  83:lvgl/lvgl/src/core/lv_obj_style.h ****  * @example lv_obj_remove_style(obj, NULL, LV_PART_MAIN | LV_STATE_ANY); //Remove all styles from t
  84:lvgl/lvgl/src/core/lv_obj_style.h ****  * @example lv_obj_remove_style(obj, NULL, LV_PART_ANY | LV_STATE_ANY); //Remove all styles
ARM GAS  C:\Users\gx\AppData\Local\Temp\cccIVLs9.s 			page 122


  85:lvgl/lvgl/src/core/lv_obj_style.h ****  */
  86:lvgl/lvgl/src/core/lv_obj_style.h **** void lv_obj_remove_style(struct _lv_obj_t * obj, lv_style_t * style, lv_style_selector_t selector);
  87:lvgl/lvgl/src/core/lv_obj_style.h **** 
  88:lvgl/lvgl/src/core/lv_obj_style.h **** /**
  89:lvgl/lvgl/src/core/lv_obj_style.h ****  * Remove all styles from an object
  90:lvgl/lvgl/src/core/lv_obj_style.h ****  * @param obj       pointer to an object
  91:lvgl/lvgl/src/core/lv_obj_style.h ****  */
  92:lvgl/lvgl/src/core/lv_obj_style.h **** static inline void lv_obj_remove_style_all(struct _lv_obj_t * obj)
 3831              		.loc 5 92 20 view .LVU1232
 3832              	.LBB226:
  93:lvgl/lvgl/src/core/lv_obj_style.h **** {
  94:lvgl/lvgl/src/core/lv_obj_style.h ****     lv_obj_remove_style(obj, NULL, LV_PART_ANY | LV_STATE_ANY);
 3833              		.loc 5 94 5 view .LVU1233
 3834 0010 144A     		ldr	r2, .L228
 3835 0012 0021     		movs	r1, #0
 3836 0014 2046     		mov	r0, r4
 3837 0016 FFF7FEFF 		bl	lv_obj_remove_style
 3838              	.LVL421:
 3839              		.loc 5 94 5 is_stmt 0 view .LVU1234
 3840              	.LBE226:
 3841              	.LBE225:
 414:lvgl/lvgl/src/core/lv_obj.c **** 
 3842              		.loc 1 414 5 is_stmt 1 view .LVU1235
 3843 001a 0120     		movs	r0, #1
 3844 001c FFF7FEFF 		bl	lv_obj_enable_style_refresh
 3845              	.LVL422:
 417:lvgl/lvgl/src/core/lv_obj.c **** 
 3846              		.loc 1 417 5 view .LVU1236
 3847 0020 0021     		movs	r1, #0
 3848 0022 2046     		mov	r0, r4
 3849 0024 FFF7FEFF 		bl	lv_anim_del
 3850              	.LVL423:
 420:lvgl/lvgl/src/core/lv_obj.c ****     if(group) lv_group_remove_obj(obj);
 3851              		.loc 1 420 5 view .LVU1237
 420:lvgl/lvgl/src/core/lv_obj.c ****     if(group) lv_group_remove_obj(obj);
 3852              		.loc 1 420 26 is_stmt 0 view .LVU1238
 3853 0028 2046     		mov	r0, r4
 3854 002a FFF7FEFF 		bl	lv_obj_get_group
 3855              	.LVL424:
 421:lvgl/lvgl/src/core/lv_obj.c **** 
 3856              		.loc 1 421 5 is_stmt 1 view .LVU1239
 421:lvgl/lvgl/src/core/lv_obj.c **** 
 3857              		.loc 1 421 7 is_stmt 0 view .LVU1240
 3858 002e 10B1     		cbz	r0, .L223
 421:lvgl/lvgl/src/core/lv_obj.c **** 
 3859              		.loc 1 421 15 is_stmt 1 discriminator 1 view .LVU1241
 3860 0030 2046     		mov	r0, r4
 3861              	.LVL425:
 421:lvgl/lvgl/src/core/lv_obj.c **** 
 3862              		.loc 1 421 15 is_stmt 0 discriminator 1 view .LVU1242
 3863 0032 FFF7FEFF 		bl	lv_group_remove_obj
 3864              	.LVL426:
 3865              	.L223:
 423:lvgl/lvgl/src/core/lv_obj.c ****         if(obj->spec_attr->children) {
 3866              		.loc 1 423 5 is_stmt 1 view .LVU1243
 423:lvgl/lvgl/src/core/lv_obj.c ****         if(obj->spec_attr->children) {
 3867              		.loc 1 423 11 is_stmt 0 view .LVU1244
ARM GAS  C:\Users\gx\AppData\Local\Temp\cccIVLs9.s 			page 123


 3868 0036 A368     		ldr	r3, [r4, #8]
 423:lvgl/lvgl/src/core/lv_obj.c ****         if(obj->spec_attr->children) {
 3869              		.loc 1 423 7 view .LVU1245
 3870 0038 9BB1     		cbz	r3, .L222
 424:lvgl/lvgl/src/core/lv_obj.c ****             lv_mem_free(obj->spec_attr->children);
 3871              		.loc 1 424 9 is_stmt 1 view .LVU1246
 424:lvgl/lvgl/src/core/lv_obj.c ****             lv_mem_free(obj->spec_attr->children);
 3872              		.loc 1 424 26 is_stmt 0 view .LVU1247
 3873 003a 1868     		ldr	r0, [r3]
 424:lvgl/lvgl/src/core/lv_obj.c ****             lv_mem_free(obj->spec_attr->children);
 3874              		.loc 1 424 11 view .LVU1248
 3875 003c 20B1     		cbz	r0, .L225
 425:lvgl/lvgl/src/core/lv_obj.c ****             obj->spec_attr->children = NULL;
 3876              		.loc 1 425 13 is_stmt 1 view .LVU1249
 3877 003e FFF7FEFF 		bl	lv_mem_free
 3878              	.LVL427:
 426:lvgl/lvgl/src/core/lv_obj.c ****         }
 3879              		.loc 1 426 13 view .LVU1250
 426:lvgl/lvgl/src/core/lv_obj.c ****         }
 3880              		.loc 1 426 16 is_stmt 0 view .LVU1251
 3881 0042 A368     		ldr	r3, [r4, #8]
 426:lvgl/lvgl/src/core/lv_obj.c ****         }
 3882              		.loc 1 426 38 view .LVU1252
 3883 0044 0022     		movs	r2, #0
 3884 0046 1A60     		str	r2, [r3]
 3885              	.L225:
 428:lvgl/lvgl/src/core/lv_obj.c ****             lv_mem_free(obj->spec_attr->event_dsc);
 3886              		.loc 1 428 9 is_stmt 1 view .LVU1253
 428:lvgl/lvgl/src/core/lv_obj.c ****             lv_mem_free(obj->spec_attr->event_dsc);
 3887              		.loc 1 428 15 is_stmt 0 view .LVU1254
 3888 0048 A368     		ldr	r3, [r4, #8]
 428:lvgl/lvgl/src/core/lv_obj.c ****             lv_mem_free(obj->spec_attr->event_dsc);
 3889              		.loc 1 428 26 view .LVU1255
 3890 004a D868     		ldr	r0, [r3, #12]
 428:lvgl/lvgl/src/core/lv_obj.c ****             lv_mem_free(obj->spec_attr->event_dsc);
 3891              		.loc 1 428 11 view .LVU1256
 3892 004c 20B1     		cbz	r0, .L226
 429:lvgl/lvgl/src/core/lv_obj.c ****             obj->spec_attr->event_dsc = NULL;
 3893              		.loc 1 429 13 is_stmt 1 view .LVU1257
 3894 004e FFF7FEFF 		bl	lv_mem_free
 3895              	.LVL428:
 430:lvgl/lvgl/src/core/lv_obj.c ****         }
 3896              		.loc 1 430 13 view .LVU1258
 430:lvgl/lvgl/src/core/lv_obj.c ****         }
 3897              		.loc 1 430 16 is_stmt 0 view .LVU1259
 3898 0052 A368     		ldr	r3, [r4, #8]
 430:lvgl/lvgl/src/core/lv_obj.c ****         }
 3899              		.loc 1 430 39 view .LVU1260
 3900 0054 0022     		movs	r2, #0
 3901 0056 DA60     		str	r2, [r3, #12]
 3902              	.L226:
 433:lvgl/lvgl/src/core/lv_obj.c ****         obj->spec_attr = NULL;
 3903              		.loc 1 433 9 is_stmt 1 view .LVU1261
 3904 0058 A068     		ldr	r0, [r4, #8]
 3905 005a FFF7FEFF 		bl	lv_mem_free
 3906              	.LVL429:
 434:lvgl/lvgl/src/core/lv_obj.c ****     }
ARM GAS  C:\Users\gx\AppData\Local\Temp\cccIVLs9.s 			page 124


 3907              		.loc 1 434 9 view .LVU1262
 434:lvgl/lvgl/src/core/lv_obj.c ****     }
 3908              		.loc 1 434 24 is_stmt 0 view .LVU1263
 3909 005e 0023     		movs	r3, #0
 3910 0060 A360     		str	r3, [r4, #8]
 3911              	.L222:
 436:lvgl/lvgl/src/core/lv_obj.c **** 
 3912              		.loc 1 436 1 view .LVU1264
 3913 0062 10BD     		pop	{r4, pc}
 3914              	.LVL430:
 3915              	.L229:
 436:lvgl/lvgl/src/core/lv_obj.c **** 
 3916              		.loc 1 436 1 view .LVU1265
 3917              		.align	2
 3918              	.L228:
 3919 0064 FFFF0F00 		.word	1048575
 3920              		.cfi_endproc
 3921              	.LFE177:
 3923              		.section	.rodata.lv_obj_allocate_spec_attr.str1.4,"aMS",%progbits,1
 3924              		.align	2
 3925              	.LC2:
 3926 0000 4F757420 		.ascii	"Out of memory\000"
 3926      6F66206D 
 3926      656D6F72 
 3926      7900
 3927 000e 0000     		.align	2
 3928              	.LC3:
 3929 0010 6F626A2D 		.ascii	"obj->spec_attr != NULL\000"
 3929      3E737065 
 3929      635F6174 
 3929      74722021 
 3929      3D204E55 
 3930 0027 00       		.align	2
 3931              	.LC4:
 3932 0028 41737365 		.ascii	"Asserted at expression: %s (%s)\000"
 3932      72746564 
 3932      20617420 
 3932      65787072 
 3932      65737369 
 3933              		.section	.text.lv_obj_allocate_spec_attr,"ax",%progbits
 3934              		.align	1
 3935              		.global	lv_obj_allocate_spec_attr
 3936              		.syntax unified
 3937              		.thumb
 3938              		.thumb_func
 3939              		.fpu fpv4-sp-d16
 3941              	lv_obj_allocate_spec_attr:
 3942              	.LVL431:
 3943              	.LFB171:
 315:lvgl/lvgl/src/core/lv_obj.c ****     LV_ASSERT_OBJ(obj, MY_CLASS);
 3944              		.loc 1 315 1 is_stmt 1 view -0
 3945              		.cfi_startproc
 3946              		@ args = 0, pretend = 0, frame = 0
 3947              		@ frame_needed = 0, uses_anonymous_args = 0
 316:lvgl/lvgl/src/core/lv_obj.c **** 
 3948              		.loc 1 316 5 view .LVU1267
 316:lvgl/lvgl/src/core/lv_obj.c **** 
ARM GAS  C:\Users\gx\AppData\Local\Temp\cccIVLs9.s 			page 125


 3949              		.loc 1 316 5 view .LVU1268
 316:lvgl/lvgl/src/core/lv_obj.c **** 
 3950              		.loc 1 316 5 view .LVU1269
 318:lvgl/lvgl/src/core/lv_obj.c ****         static uint32_t x = 0;
 3951              		.loc 1 318 5 view .LVU1270
 318:lvgl/lvgl/src/core/lv_obj.c ****         static uint32_t x = 0;
 3952              		.loc 1 318 11 is_stmt 0 view .LVU1271
 3953 0000 8368     		ldr	r3, [r0, #8]
 318:lvgl/lvgl/src/core/lv_obj.c ****         static uint32_t x = 0;
 3954              		.loc 1 318 7 view .LVU1272
 3955 0002 03B1     		cbz	r3, .L238
 3956 0004 7047     		bx	lr
 3957              	.L238:
 315:lvgl/lvgl/src/core/lv_obj.c ****     LV_ASSERT_OBJ(obj, MY_CLASS);
 3958              		.loc 1 315 1 view .LVU1273
 3959 0006 10B5     		push	{r4, lr}
 3960              	.LCFI27:
 3961              		.cfi_def_cfa_offset 8
 3962              		.cfi_offset 4, -8
 3963              		.cfi_offset 14, -4
 3964 0008 84B0     		sub	sp, sp, #16
 3965              	.LCFI28:
 3966              		.cfi_def_cfa_offset 24
 3967 000a 0446     		mov	r4, r0
 3968              	.LBB227:
 319:lvgl/lvgl/src/core/lv_obj.c ****         x++;
 3969              		.loc 1 319 9 is_stmt 1 view .LVU1274
 320:lvgl/lvgl/src/core/lv_obj.c ****         obj->spec_attr = lv_mem_alloc(sizeof(_lv_obj_spec_attr_t));
 3970              		.loc 1 320 9 view .LVU1275
 320:lvgl/lvgl/src/core/lv_obj.c ****         obj->spec_attr = lv_mem_alloc(sizeof(_lv_obj_spec_attr_t));
 3971              		.loc 1 320 10 is_stmt 0 view .LVU1276
 3972 000c 124A     		ldr	r2, .L240
 3973 000e 1368     		ldr	r3, [r2]
 3974 0010 0133     		adds	r3, r3, #1
 3975 0012 1360     		str	r3, [r2]
 321:lvgl/lvgl/src/core/lv_obj.c ****         LV_ASSERT_MALLOC(obj->spec_attr);
 3976              		.loc 1 321 9 is_stmt 1 view .LVU1277
 321:lvgl/lvgl/src/core/lv_obj.c ****         LV_ASSERT_MALLOC(obj->spec_attr);
 3977              		.loc 1 321 26 is_stmt 0 view .LVU1278
 3978 0014 1C20     		movs	r0, #28
 3979              	.LVL432:
 321:lvgl/lvgl/src/core/lv_obj.c ****         LV_ASSERT_MALLOC(obj->spec_attr);
 3980              		.loc 1 321 26 view .LVU1279
 3981 0016 FFF7FEFF 		bl	lv_mem_alloc
 3982              	.LVL433:
 321:lvgl/lvgl/src/core/lv_obj.c ****         LV_ASSERT_MALLOC(obj->spec_attr);
 3983              		.loc 1 321 24 view .LVU1280
 3984 001a A060     		str	r0, [r4, #8]
 322:lvgl/lvgl/src/core/lv_obj.c ****         if(obj->spec_attr == NULL) return;
 3985              		.loc 1 322 9 is_stmt 1 view .LVU1281
 322:lvgl/lvgl/src/core/lv_obj.c ****         if(obj->spec_attr == NULL) return;
 3986              		.loc 1 322 9 view .LVU1282
 3987 001c 70B1     		cbz	r0, .L239
 322:lvgl/lvgl/src/core/lv_obj.c ****         if(obj->spec_attr == NULL) return;
 3988              		.loc 1 322 9 view .LVU1283
 322:lvgl/lvgl/src/core/lv_obj.c ****         if(obj->spec_attr == NULL) return;
 3989              		.loc 1 322 41 view .LVU1284
ARM GAS  C:\Users\gx\AppData\Local\Temp\cccIVLs9.s 			page 126


 323:lvgl/lvgl/src/core/lv_obj.c **** 
 3990              		.loc 1 323 9 view .LVU1285
 325:lvgl/lvgl/src/core/lv_obj.c **** 
 3991              		.loc 1 325 9 view .LVU1286
 3992 001e 1C21     		movs	r1, #28
 3993 0020 FFF7FEFF 		bl	lv_memset_00
 3994              	.LVL434:
 327:lvgl/lvgl/src/core/lv_obj.c ****         obj->spec_attr->scrollbar_mode = LV_SCROLLBAR_MODE_AUTO;
 3995              		.loc 1 327 9 view .LVU1287
 327:lvgl/lvgl/src/core/lv_obj.c ****         obj->spec_attr->scrollbar_mode = LV_SCROLLBAR_MODE_AUTO;
 3996              		.loc 1 327 12 is_stmt 0 view .LVU1288
 3997 0024 A268     		ldr	r2, [r4, #8]
 327:lvgl/lvgl/src/core/lv_obj.c ****         obj->spec_attr->scrollbar_mode = LV_SCROLLBAR_MODE_AUTO;
 3998              		.loc 1 327 36 view .LVU1289
 3999 0026 537E     		ldrb	r3, [r2, #25]	@ zero_extendqisi2
 4000 0028 43F00F03 		orr	r3, r3, #15
 4001 002c 5376     		strb	r3, [r2, #25]
 328:lvgl/lvgl/src/core/lv_obj.c ****     }
 4002              		.loc 1 328 9 is_stmt 1 view .LVU1290
 328:lvgl/lvgl/src/core/lv_obj.c ****     }
 4003              		.loc 1 328 12 is_stmt 0 view .LVU1291
 4004 002e A268     		ldr	r2, [r4, #8]
 328:lvgl/lvgl/src/core/lv_obj.c ****     }
 4005              		.loc 1 328 40 view .LVU1292
 4006 0030 137E     		ldrb	r3, [r2, #24]	@ zero_extendqisi2
 4007 0032 43F00303 		orr	r3, r3, #3
 4008 0036 1376     		strb	r3, [r2, #24]
 4009              	.LBE227:
 330:lvgl/lvgl/src/core/lv_obj.c **** 
 4010              		.loc 1 330 1 view .LVU1293
 4011 0038 04B0     		add	sp, sp, #16
 4012              	.LCFI29:
 4013              		.cfi_remember_state
 4014              		.cfi_def_cfa_offset 8
 4015              		@ sp needed
 4016 003a 10BD     		pop	{r4, pc}
 4017              	.LVL435:
 4018              	.L239:
 4019              	.LCFI30:
 4020              		.cfi_restore_state
 4021              	.LBB228:
 322:lvgl/lvgl/src/core/lv_obj.c ****         if(obj->spec_attr == NULL) return;
 4022              		.loc 1 322 9 is_stmt 1 discriminator 1 view .LVU1294
 4023 003c 074B     		ldr	r3, .L240+4
 4024 003e 0293     		str	r3, [sp, #8]
 4025 0040 074B     		ldr	r3, .L240+8
 4026 0042 0193     		str	r3, [sp, #4]
 4027 0044 074B     		ldr	r3, .L240+12
 4028 0046 0093     		str	r3, [sp]
 4029 0048 074B     		ldr	r3, .L240+16
 4030 004a 4FF4A172 		mov	r2, #322
 4031 004e 0749     		ldr	r1, .L240+20
 4032 0050 0320     		movs	r0, #3
 4033 0052 FFF7FEFF 		bl	_lv_log_add
 4034              	.LVL436:
 4035              	.L233:
 322:lvgl/lvgl/src/core/lv_obj.c ****         if(obj->spec_attr == NULL) return;
ARM GAS  C:\Users\gx\AppData\Local\Temp\cccIVLs9.s 			page 127


 4036              		.loc 1 322 9 discriminator 1 view .LVU1295
 322:lvgl/lvgl/src/core/lv_obj.c ****         if(obj->spec_attr == NULL) return;
 4037              		.loc 1 322 9 discriminator 1 view .LVU1296
 322:lvgl/lvgl/src/core/lv_obj.c ****         if(obj->spec_attr == NULL) return;
 4038              		.loc 1 322 9 discriminator 1 view .LVU1297
 322:lvgl/lvgl/src/core/lv_obj.c ****         if(obj->spec_attr == NULL) return;
 4039              		.loc 1 322 9 discriminator 1 view .LVU1298
 4040 0056 FEE7     		b	.L233
 4041              	.L241:
 4042              		.align	2
 4043              	.L240:
 4044 0058 00000000 		.word	.LANCHOR3
 4045 005c 00000000 		.word	.LC2
 4046 0060 10000000 		.word	.LC3
 4047 0064 28000000 		.word	.LC4
 4048 0068 00000000 		.word	.LANCHOR4
 4049 006c 00000000 		.word	.LC0
 4050              	.LBE228:
 4051              		.cfi_endproc
 4052              	.LFE171:
 4054              		.section	.text.lv_obj_check_type,"ax",%progbits
 4055              		.align	1
 4056              		.global	lv_obj_check_type
 4057              		.syntax unified
 4058              		.thumb
 4059              		.thumb_func
 4060              		.fpu fpv4-sp-d16
 4062              	lv_obj_check_type:
 4063              	.LVL437:
 4064              	.LFB172:
 333:lvgl/lvgl/src/core/lv_obj.c ****     if(obj == NULL) return false;
 4065              		.loc 1 333 1 view -0
 4066              		.cfi_startproc
 4067              		@ args = 0, pretend = 0, frame = 0
 4068              		@ frame_needed = 0, uses_anonymous_args = 0
 4069              		@ link register save eliminated.
 334:lvgl/lvgl/src/core/lv_obj.c ****     return obj->class_p == class_p ? true : false;
 4070              		.loc 1 334 5 view .LVU1300
 334:lvgl/lvgl/src/core/lv_obj.c ****     return obj->class_p == class_p ? true : false;
 4071              		.loc 1 334 7 is_stmt 0 view .LVU1301
 4072 0000 28B1     		cbz	r0, .L244
 335:lvgl/lvgl/src/core/lv_obj.c **** }
 4073              		.loc 1 335 5 is_stmt 1 view .LVU1302
 335:lvgl/lvgl/src/core/lv_obj.c **** }
 4074              		.loc 1 335 15 is_stmt 0 view .LVU1303
 4075 0002 0068     		ldr	r0, [r0]
 4076              	.LVL438:
 335:lvgl/lvgl/src/core/lv_obj.c **** }
 4077              		.loc 1 335 43 view .LVU1304
 4078 0004 8842     		cmp	r0, r1
 4079 0006 14BF     		ite	ne
 4080 0008 0020     		movne	r0, #0
 4081 000a 0120     		moveq	r0, #1
 4082 000c 7047     		bx	lr
 4083              	.LVL439:
 4084              	.L244:
 334:lvgl/lvgl/src/core/lv_obj.c ****     return obj->class_p == class_p ? true : false;
ARM GAS  C:\Users\gx\AppData\Local\Temp\cccIVLs9.s 			page 128


 4085              		.loc 1 334 28 view .LVU1305
 4086 000e 0020     		movs	r0, #0
 4087              	.LVL440:
 336:lvgl/lvgl/src/core/lv_obj.c **** 
 4088              		.loc 1 336 1 view .LVU1306
 4089 0010 7047     		bx	lr
 4090              		.cfi_endproc
 4091              	.LFE172:
 4093              		.section	.text.lv_obj_has_class,"ax",%progbits
 4094              		.align	1
 4095              		.global	lv_obj_has_class
 4096              		.syntax unified
 4097              		.thumb
 4098              		.thumb_func
 4099              		.fpu fpv4-sp-d16
 4101              	lv_obj_has_class:
 4102              	.LVL441:
 4103              	.LFB173:
 339:lvgl/lvgl/src/core/lv_obj.c ****     const lv_obj_class_t * obj_class = obj->class_p;
 4104              		.loc 1 339 1 is_stmt 1 view -0
 4105              		.cfi_startproc
 4106              		@ args = 0, pretend = 0, frame = 0
 4107              		@ frame_needed = 0, uses_anonymous_args = 0
 4108              		@ link register save eliminated.
 340:lvgl/lvgl/src/core/lv_obj.c ****     while(obj_class) {
 4109              		.loc 1 340 5 view .LVU1308
 340:lvgl/lvgl/src/core/lv_obj.c ****     while(obj_class) {
 4110              		.loc 1 340 28 is_stmt 0 view .LVU1309
 4111 0000 0368     		ldr	r3, [r0]
 4112              	.LVL442:
 341:lvgl/lvgl/src/core/lv_obj.c ****         if(obj_class == class_p) return true;
 4113              		.loc 1 341 5 is_stmt 1 view .LVU1310
 4114              	.L246:
 341:lvgl/lvgl/src/core/lv_obj.c ****         if(obj_class == class_p) return true;
 4115              		.loc 1 341 10 view .LVU1311
 4116 0002 1BB1     		cbz	r3, .L250
 342:lvgl/lvgl/src/core/lv_obj.c ****         obj_class = obj_class->base_class;
 4117              		.loc 1 342 9 view .LVU1312
 342:lvgl/lvgl/src/core/lv_obj.c ****         obj_class = obj_class->base_class;
 4118              		.loc 1 342 11 is_stmt 0 view .LVU1313
 4119 0004 8B42     		cmp	r3, r1
 4120 0006 03D0     		beq	.L249
 343:lvgl/lvgl/src/core/lv_obj.c ****     }
 4121              		.loc 1 343 9 is_stmt 1 view .LVU1314
 343:lvgl/lvgl/src/core/lv_obj.c ****     }
 4122              		.loc 1 343 19 is_stmt 0 view .LVU1315
 4123 0008 1B68     		ldr	r3, [r3]
 4124              	.LVL443:
 343:lvgl/lvgl/src/core/lv_obj.c ****     }
 4125              		.loc 1 343 19 view .LVU1316
 4126 000a FAE7     		b	.L246
 4127              	.L250:
 346:lvgl/lvgl/src/core/lv_obj.c **** }
 4128              		.loc 1 346 12 view .LVU1317
 4129 000c 0020     		movs	r0, #0
 4130              	.LVL444:
 346:lvgl/lvgl/src/core/lv_obj.c **** }
ARM GAS  C:\Users\gx\AppData\Local\Temp\cccIVLs9.s 			page 129


 4131              		.loc 1 346 12 view .LVU1318
 4132 000e 7047     		bx	lr
 4133              	.LVL445:
 4134              	.L249:
 342:lvgl/lvgl/src/core/lv_obj.c ****         obj_class = obj_class->base_class;
 4135              		.loc 1 342 41 view .LVU1319
 4136 0010 0120     		movs	r0, #1
 4137              	.LVL446:
 347:lvgl/lvgl/src/core/lv_obj.c **** 
 4138              		.loc 1 347 1 view .LVU1320
 4139 0012 7047     		bx	lr
 4140              		.cfi_endproc
 4141              	.LFE173:
 4143              		.section	.text.lv_obj_get_class,"ax",%progbits
 4144              		.align	1
 4145              		.global	lv_obj_get_class
 4146              		.syntax unified
 4147              		.thumb
 4148              		.thumb_func
 4149              		.fpu fpv4-sp-d16
 4151              	lv_obj_get_class:
 4152              	.LVL447:
 4153              	.LFB174:
 350:lvgl/lvgl/src/core/lv_obj.c ****     return obj->class_p;
 4154              		.loc 1 350 1 is_stmt 1 view -0
 4155              		.cfi_startproc
 4156              		@ args = 0, pretend = 0, frame = 0
 4157              		@ frame_needed = 0, uses_anonymous_args = 0
 4158              		@ link register save eliminated.
 351:lvgl/lvgl/src/core/lv_obj.c **** }
 4159              		.loc 1 351 5 view .LVU1322
 352:lvgl/lvgl/src/core/lv_obj.c **** 
 4160              		.loc 1 352 1 is_stmt 0 view .LVU1323
 4161 0000 0068     		ldr	r0, [r0]
 4162              	.LVL448:
 352:lvgl/lvgl/src/core/lv_obj.c **** 
 4163              		.loc 1 352 1 view .LVU1324
 4164 0002 7047     		bx	lr
 4165              		.cfi_endproc
 4166              	.LFE174:
 4168              		.section	.text.lv_obj_is_valid,"ax",%progbits
 4169              		.align	1
 4170              		.global	lv_obj_is_valid
 4171              		.syntax unified
 4172              		.thumb
 4173              		.thumb_func
 4174              		.fpu fpv4-sp-d16
 4176              	lv_obj_is_valid:
 4177              	.LVL449:
 4178              	.LFB175:
 355:lvgl/lvgl/src/core/lv_obj.c ****     lv_disp_t * disp = lv_disp_get_next(NULL);
 4179              		.loc 1 355 1 is_stmt 1 view -0
 4180              		.cfi_startproc
 4181              		@ args = 0, pretend = 0, frame = 0
 4182              		@ frame_needed = 0, uses_anonymous_args = 0
 355:lvgl/lvgl/src/core/lv_obj.c ****     lv_disp_t * disp = lv_disp_get_next(NULL);
 4183              		.loc 1 355 1 is_stmt 0 view .LVU1326
ARM GAS  C:\Users\gx\AppData\Local\Temp\cccIVLs9.s 			page 130


 4184 0000 70B5     		push	{r4, r5, r6, lr}
 4185              	.LCFI31:
 4186              		.cfi_def_cfa_offset 16
 4187              		.cfi_offset 4, -16
 4188              		.cfi_offset 5, -12
 4189              		.cfi_offset 6, -8
 4190              		.cfi_offset 14, -4
 4191 0002 0646     		mov	r6, r0
 356:lvgl/lvgl/src/core/lv_obj.c ****     while(disp) {
 4192              		.loc 1 356 5 is_stmt 1 view .LVU1327
 356:lvgl/lvgl/src/core/lv_obj.c ****     while(disp) {
 4193              		.loc 1 356 24 is_stmt 0 view .LVU1328
 4194 0004 0020     		movs	r0, #0
 4195              	.LVL450:
 356:lvgl/lvgl/src/core/lv_obj.c ****     while(disp) {
 4196              		.loc 1 356 24 view .LVU1329
 4197 0006 FFF7FEFF 		bl	lv_disp_get_next
 4198              	.LVL451:
 4199 000a 0546     		mov	r5, r0
 4200              	.LVL452:
 357:lvgl/lvgl/src/core/lv_obj.c ****         uint32_t i;
 4201              		.loc 1 357 5 is_stmt 1 view .LVU1330
 4202              	.L253:
 357:lvgl/lvgl/src/core/lv_obj.c ****         uint32_t i;
 4203              		.loc 1 357 10 view .LVU1331
 4204 000c B5B1     		cbz	r5, .L260
 4205              	.LBB229:
 359:lvgl/lvgl/src/core/lv_obj.c ****             if(disp->screens[i] == obj) return true;
 4206              		.loc 1 359 15 is_stmt 0 view .LVU1332
 4207 000e 0024     		movs	r4, #0
 4208 0010 00E0     		b	.L256
 4209              	.LVL453:
 4210              	.L262:
 359:lvgl/lvgl/src/core/lv_obj.c ****             if(disp->screens[i] == obj) return true;
 4211              		.loc 1 359 42 is_stmt 1 discriminator 2 view .LVU1333
 359:lvgl/lvgl/src/core/lv_obj.c ****             if(disp->screens[i] == obj) return true;
 4212              		.loc 1 359 43 is_stmt 0 discriminator 2 view .LVU1334
 4213 0012 0134     		adds	r4, r4, #1
 4214              	.LVL454:
 4215              	.L256:
 359:lvgl/lvgl/src/core/lv_obj.c ****             if(disp->screens[i] == obj) return true;
 4216              		.loc 1 359 20 is_stmt 1 discriminator 1 view .LVU1335
 359:lvgl/lvgl/src/core/lv_obj.c ****             if(disp->screens[i] == obj) return true;
 4217              		.loc 1 359 28 is_stmt 0 discriminator 1 view .LVU1336
 4218 0014 6B6A     		ldr	r3, [r5, #36]
 359:lvgl/lvgl/src/core/lv_obj.c ****             if(disp->screens[i] == obj) return true;
 4219              		.loc 1 359 9 discriminator 1 view .LVU1337
 4220 0016 A342     		cmp	r3, r4
 4221 0018 0BD9     		bls	.L261
 4222              	.LBB230:
 360:lvgl/lvgl/src/core/lv_obj.c ****             bool found = obj_valid_child(disp->screens[i], obj);
 4223              		.loc 1 360 13 is_stmt 1 view .LVU1338
 360:lvgl/lvgl/src/core/lv_obj.c ****             bool found = obj_valid_child(disp->screens[i], obj);
 4224              		.loc 1 360 20 is_stmt 0 view .LVU1339
 4225 001a EB68     		ldr	r3, [r5, #12]
 360:lvgl/lvgl/src/core/lv_obj.c ****             bool found = obj_valid_child(disp->screens[i], obj);
 4226              		.loc 1 360 29 view .LVU1340
ARM GAS  C:\Users\gx\AppData\Local\Temp\cccIVLs9.s 			page 131


 4227 001c 53F82400 		ldr	r0, [r3, r4, lsl #2]
 360:lvgl/lvgl/src/core/lv_obj.c ****             bool found = obj_valid_child(disp->screens[i], obj);
 4228              		.loc 1 360 15 view .LVU1341
 4229 0020 B042     		cmp	r0, r6
 4230 0022 0DD0     		beq	.L257
 361:lvgl/lvgl/src/core/lv_obj.c ****             if(found) return true;
 4231              		.loc 1 361 13 is_stmt 1 view .LVU1342
 361:lvgl/lvgl/src/core/lv_obj.c ****             if(found) return true;
 4232              		.loc 1 361 26 is_stmt 0 view .LVU1343
 4233 0024 3146     		mov	r1, r6
 4234 0026 FFF7FEFF 		bl	obj_valid_child
 4235              	.LVL455:
 362:lvgl/lvgl/src/core/lv_obj.c ****         }
 4236              		.loc 1 362 13 is_stmt 1 view .LVU1344
 362:lvgl/lvgl/src/core/lv_obj.c ****         }
 4237              		.loc 1 362 15 is_stmt 0 view .LVU1345
 4238 002a 0346     		mov	r3, r0
 4239 002c 0028     		cmp	r0, #0
 4240 002e F0D0     		beq	.L262
 4241 0030 07E0     		b	.L254
 4242              	.LVL456:
 4243              	.L261:
 362:lvgl/lvgl/src/core/lv_obj.c ****         }
 4244              		.loc 1 362 15 view .LVU1346
 4245              	.LBE230:
 365:lvgl/lvgl/src/core/lv_obj.c ****     }
 4246              		.loc 1 365 9 is_stmt 1 view .LVU1347
 365:lvgl/lvgl/src/core/lv_obj.c ****     }
 4247              		.loc 1 365 16 is_stmt 0 view .LVU1348
 4248 0032 2846     		mov	r0, r5
 4249 0034 FFF7FEFF 		bl	lv_disp_get_next
 4250              	.LVL457:
 4251 0038 0546     		mov	r5, r0
 4252              	.LVL458:
 365:lvgl/lvgl/src/core/lv_obj.c ****     }
 4253              		.loc 1 365 16 view .LVU1349
 4254 003a E7E7     		b	.L253
 4255              	.LVL459:
 4256              	.L260:
 365:lvgl/lvgl/src/core/lv_obj.c ****     }
 4257              		.loc 1 365 16 view .LVU1350
 4258              	.LBE229:
 368:lvgl/lvgl/src/core/lv_obj.c **** }
 4259              		.loc 1 368 12 view .LVU1351
 4260 003c 0023     		movs	r3, #0
 4261 003e 00E0     		b	.L254
 4262              	.LVL460:
 4263              	.L257:
 4264              	.LBB232:
 4265              	.LBB231:
 360:lvgl/lvgl/src/core/lv_obj.c ****             bool found = obj_valid_child(disp->screens[i], obj);
 4266              		.loc 1 360 48 view .LVU1352
 4267 0040 0123     		movs	r3, #1
 4268              	.LVL461:
 4269              	.L254:
 360:lvgl/lvgl/src/core/lv_obj.c ****             bool found = obj_valid_child(disp->screens[i], obj);
 4270              		.loc 1 360 48 view .LVU1353
ARM GAS  C:\Users\gx\AppData\Local\Temp\cccIVLs9.s 			page 132


 4271              	.LBE231:
 4272              	.LBE232:
 369:lvgl/lvgl/src/core/lv_obj.c **** 
 4273              		.loc 1 369 1 view .LVU1354
 4274 0042 1846     		mov	r0, r3
 4275 0044 70BD     		pop	{r4, r5, r6, pc}
 369:lvgl/lvgl/src/core/lv_obj.c **** 
 4276              		.loc 1 369 1 view .LVU1355
 4277              		.cfi_endproc
 4278              	.LFE175:
 4280              		.global	lv_obj_class
 4281              		.section	.bss.lv_initialized,"aw",%nobits
 4282              		.set	.LANCHOR1,. + 0
 4285              	lv_initialized:
 4286 0000 00       		.space	1
 4287              		.section	.bss.x.10155,"aw",%nobits
 4288              		.align	2
 4289              		.set	.LANCHOR3,. + 0
 4292              	x.10155:
 4293 0000 00000000 		.space	4
 4294              		.section	.rodata.__func__.10099,"a"
 4295              		.align	2
 4296              		.set	.LANCHOR2,. + 0
 4299              	__func__.10099:
 4300 0000 6C765F69 		.ascii	"lv_init\000"
 4300      6E697400 
 4301              		.section	.rodata.__func__.10156,"a"
 4302              		.align	2
 4303              		.set	.LANCHOR4,. + 0
 4306              	__func__.10156:
 4307 0000 6C765F6F 		.ascii	"lv_obj_allocate_spec_attr\000"
 4307      626A5F61 
 4307      6C6C6F63 
 4307      6174655F 
 4307      73706563 
 4308              		.section	.rodata.lv_obj_class,"a"
 4309              		.align	2
 4310              		.set	.LANCHOR0,. + 0
 4313              	lv_obj_class:
 4314 0000 00000000 		.word	0
 4315 0004 00000000 		.word	lv_obj_constructor
 4316 0008 00000000 		.word	lv_obj_destructor
 4317 000c 00000000 		.space	4
 4318 0010 00000000 		.word	lv_obj_event
 4319 0014 8200     		.short	130
 4320 0016 8200     		.short	130
 4321 0018 4A       		.byte	74
 4322 0019 02       		.byte	2
 4323 001a 00       		.byte	0
 4324 001b 00       		.space	1
 4325              		.text
 4326              	.Letext0:
 4327              		.file 6 "c:\\program files (x86)\\gnu arm embedded toolchain\\9 2020-q2-update\\arm-none-eabi\\inc
 4328              		.file 7 "c:\\program files (x86)\\gnu arm embedded toolchain\\9 2020-q2-update\\arm-none-eabi\\inc
 4329              		.file 8 "c:\\program files (x86)\\gnu arm embedded toolchain\\9 2020-q2-update\\lib\\gcc\\arm-none
 4330              		.file 9 "c:\\program files (x86)\\gnu arm embedded toolchain\\9 2020-q2-update\\arm-none-eabi\\inc
 4331              		.file 10 "c:\\program files (x86)\\gnu arm embedded toolchain\\9 2020-q2-update\\arm-none-eabi\\in
ARM GAS  C:\Users\gx\AppData\Local\Temp\cccIVLs9.s 			page 133


 4332              		.file 11 "c:\\program files (x86)\\gnu arm embedded toolchain\\9 2020-q2-update\\arm-none-eabi\\in
 4333              		.file 12 "lvgl/lvgl/src/core/../misc/../font/lv_font.h"
 4334              		.file 13 "lvgl/lvgl/src/core/../misc/lv_types.h"
 4335              		.file 14 "lvgl/lvgl/src/core/../misc/lv_color.h"
 4336              		.file 15 "lvgl/lvgl/src/core/../misc/lv_anim.h"
 4337              		.file 16 "lvgl/lvgl/src/core/../misc/lv_txt.h"
 4338              		.file 17 "lvgl/lvgl/src/core/../misc/lv_bidi.h"
 4339              		.file 18 "lvgl/lvgl/src/core/../hal/../draw/lv_img_buf.h"
 4340              		.file 19 "lvgl/lvgl/src/core/../hal/../misc/lv_ll.h"
 4341              		.file 20 "lvgl/lvgl/src/core/../hal/../misc/lv_mem.h"
 4342              		.file 21 "lvgl/lvgl/src/core/../hal/../misc/lv_timer.h"
 4343              		.file 22 "lvgl/lvgl/src/core/../hal/lv_hal_disp.h"
 4344              		.file 23 "lvgl/lvgl/src/core/lv_theme.h"
 4345              		.file 24 "lvgl/lvgl/src/core/lv_obj.h"
 4346              		.file 25 "lvgl/lvgl/src/core/../hal/lv_hal_indev.h"
 4347              		.file 26 "lvgl/lvgl/src/core/lv_group.h"
 4348              		.file 27 "lvgl/lvgl/src/core/lv_obj_pos.h"
 4349              		.file 28 "lvgl/lvgl/src/core/lv_obj_scroll.h"
 4350              		.file 29 "lvgl/lvgl/src/core/../draw/lv_img_decoder.h"
 4351              		.file 30 "lvgl/lvgl/src/core/../draw/lv_img_cache.h"
 4352              		.file 31 "lvgl/lvgl/src/core/../draw/lv_draw_mask.h"
 4353              		.file 32 "lvgl/lvgl/src/core/../draw/lv_draw_rect.h"
 4354              		.file 33 "lvgl/lvgl/src/core/../draw/lv_draw_label.h"
 4355              		.file 34 "lvgl/lvgl/src/core/../draw/lv_draw_img.h"
 4356              		.file 35 "lvgl/lvgl/src/core/../draw/lv_draw_line.h"
 4357              		.file 36 "lvgl/lvgl/src/core/../draw/lv_draw_arc.h"
 4358              		.file 37 "lvgl/lvgl/src/core/lv_obj_draw.h"
 4359              		.file 38 "lvgl/lvgl/src/core/lv_obj_class.h"
 4360              		.file 39 "lvgl/lvgl/src/core/lv_event.h"
 4361              		.file 40 "lvgl/lvgl/src/core/../misc/lv_gc.h"
 4362              		.file 41 "lvgl/lvgl/src/core/lv_indev.h"
 4363              		.file 42 "lvgl/lvgl/src/core/lv_obj_tree.h"
 4364              		.file 43 "lvgl/lvgl/src/core/../hal/../misc/lv_log.h"
 4365              		.file 44 "lvgl/lvgl/src/core/../draw/../misc/lv_fs.h"
 4366              		.file 45 "lvgl/lvgl/src/core/lv_refr.h"
 4367              		.file 46 "lvgl/lvgl/src/core/../extra/lv_extra.h"
ARM GAS  C:\Users\gx\AppData\Local\Temp\cccIVLs9.s 			page 134


DEFINED SYMBOLS
                            *ABS*:00000000 lv_obj.c
C:\Users\gx\AppData\Local\Temp\cccIVLs9.s:18     .text.obj_valid_child:00000000 $t
C:\Users\gx\AppData\Local\Temp\cccIVLs9.s:25     .text.obj_valid_child:00000000 obj_valid_child
C:\Users\gx\AppData\Local\Temp\cccIVLs9.s:120    .text.scrollbar_init_draw_dsc:00000000 $t
C:\Users\gx\AppData\Local\Temp\cccIVLs9.s:126    .text.scrollbar_init_draw_dsc:00000000 scrollbar_init_draw_dsc
C:\Users\gx\AppData\Local\Temp\cccIVLs9.s:465    .text.draw_scrollbar:00000000 $t
C:\Users\gx\AppData\Local\Temp\cccIVLs9.s:471    .text.draw_scrollbar:00000000 draw_scrollbar
C:\Users\gx\AppData\Local\Temp\cccIVLs9.s:628    .text.draw_scrollbar:000000a4 $d
C:\Users\gx\AppData\Local\Temp\cccIVLs9.s:633    .text.lv_obj_draw:00000000 $t
C:\Users\gx\AppData\Local\Temp\cccIVLs9.s:639    .text.lv_obj_draw:00000000 lv_obj_draw
C:\Users\gx\AppData\Local\Temp\cccIVLs9.s:1421   .text.lv_obj_draw:000002d4 $d
C:\Users\gx\AppData\Local\Temp\cccIVLs9.s:1428   .text.lv_obj_constructor:00000000 $t
C:\Users\gx\AppData\Local\Temp\cccIVLs9.s:1434   .text.lv_obj_constructor:00000000 lv_obj_constructor
C:\Users\gx\AppData\Local\Temp\cccIVLs9.s:1600   .text.lv_obj_set_state:00000000 $t
C:\Users\gx\AppData\Local\Temp\cccIVLs9.s:1606   .text.lv_obj_set_state:00000000 lv_obj_set_state
C:\Users\gx\AppData\Local\Temp\cccIVLs9.s:2164   .text.lv_is_initialized:00000000 $t
C:\Users\gx\AppData\Local\Temp\cccIVLs9.s:2171   .text.lv_is_initialized:00000000 lv_is_initialized
C:\Users\gx\AppData\Local\Temp\cccIVLs9.s:2186   .text.lv_is_initialized:00000008 $d
C:\Users\gx\AppData\Local\Temp\cccIVLs9.s:2191   .rodata.lv_init.str1.4:00000000 $d
C:\Users\gx\AppData\Local\Temp\cccIVLs9.s:2198   .text.lv_init:00000000 $t
C:\Users\gx\AppData\Local\Temp\cccIVLs9.s:2205   .text.lv_init:00000000 lv_init
C:\Users\gx\AppData\Local\Temp\cccIVLs9.s:2312   .text.lv_init:00000060 $d
C:\Users\gx\AppData\Local\Temp\cccIVLs9.s:2322   .text.lv_deinit:00000000 $t
C:\Users\gx\AppData\Local\Temp\cccIVLs9.s:2329   .text.lv_deinit:00000000 lv_deinit
C:\Users\gx\AppData\Local\Temp\cccIVLs9.s:2367   .text.lv_deinit:0000001c $d
C:\Users\gx\AppData\Local\Temp\cccIVLs9.s:2372   .text.lv_obj_create:00000000 $t
C:\Users\gx\AppData\Local\Temp\cccIVLs9.s:2379   .text.lv_obj_create:00000000 lv_obj_create
C:\Users\gx\AppData\Local\Temp\cccIVLs9.s:2418   .text.lv_obj_create:00000014 $d
C:\Users\gx\AppData\Local\Temp\cccIVLs9.s:2423   .text.lv_obj_add_flag:00000000 $t
C:\Users\gx\AppData\Local\Temp\cccIVLs9.s:2430   .text.lv_obj_add_flag:00000000 lv_obj_add_flag
C:\Users\gx\AppData\Local\Temp\cccIVLs9.s:2511   .text.lv_obj_clear_flag:00000000 $t
C:\Users\gx\AppData\Local\Temp\cccIVLs9.s:2518   .text.lv_obj_clear_flag:00000000 lv_obj_clear_flag
C:\Users\gx\AppData\Local\Temp\cccIVLs9.s:2601   .text.lv_obj_add_state:00000000 $t
C:\Users\gx\AppData\Local\Temp\cccIVLs9.s:2608   .text.lv_obj_add_state:00000000 lv_obj_add_state
C:\Users\gx\AppData\Local\Temp\cccIVLs9.s:2652   .text.lv_obj_clear_state:00000000 $t
C:\Users\gx\AppData\Local\Temp\cccIVLs9.s:2659   .text.lv_obj_clear_state:00000000 lv_obj_clear_state
C:\Users\gx\AppData\Local\Temp\cccIVLs9.s:2704   .text.lv_obj_has_flag:00000000 $t
C:\Users\gx\AppData\Local\Temp\cccIVLs9.s:2711   .text.lv_obj_has_flag:00000000 lv_obj_has_flag
C:\Users\gx\AppData\Local\Temp\cccIVLs9.s:2738   .text.lv_obj_has_flag_any:00000000 $t
C:\Users\gx\AppData\Local\Temp\cccIVLs9.s:2745   .text.lv_obj_has_flag_any:00000000 lv_obj_has_flag_any
C:\Users\gx\AppData\Local\Temp\cccIVLs9.s:2772   .text.lv_obj_get_state:00000000 $t
C:\Users\gx\AppData\Local\Temp\cccIVLs9.s:2779   .text.lv_obj_get_state:00000000 lv_obj_get_state
C:\Users\gx\AppData\Local\Temp\cccIVLs9.s:2800   .text.lv_obj_has_state:00000000 $t
C:\Users\gx\AppData\Local\Temp\cccIVLs9.s:2807   .text.lv_obj_has_state:00000000 lv_obj_has_state
C:\Users\gx\AppData\Local\Temp\cccIVLs9.s:2834   .text.lv_obj_get_group:00000000 $t
C:\Users\gx\AppData\Local\Temp\cccIVLs9.s:2841   .text.lv_obj_get_group:00000000 lv_obj_get_group
C:\Users\gx\AppData\Local\Temp\cccIVLs9.s:2868   .text.lv_obj_event:00000000 $t
C:\Users\gx\AppData\Local\Temp\cccIVLs9.s:2874   .text.lv_obj_event:00000000 lv_obj_event
C:\Users\gx\AppData\Local\Temp\cccIVLs9.s:3796   .text.lv_obj_destructor:00000000 $t
C:\Users\gx\AppData\Local\Temp\cccIVLs9.s:3802   .text.lv_obj_destructor:00000000 lv_obj_destructor
C:\Users\gx\AppData\Local\Temp\cccIVLs9.s:3919   .text.lv_obj_destructor:00000064 $d
C:\Users\gx\AppData\Local\Temp\cccIVLs9.s:3924   .rodata.lv_obj_allocate_spec_attr.str1.4:00000000 $d
C:\Users\gx\AppData\Local\Temp\cccIVLs9.s:3934   .text.lv_obj_allocate_spec_attr:00000000 $t
C:\Users\gx\AppData\Local\Temp\cccIVLs9.s:3941   .text.lv_obj_allocate_spec_attr:00000000 lv_obj_allocate_spec_attr
C:\Users\gx\AppData\Local\Temp\cccIVLs9.s:4044   .text.lv_obj_allocate_spec_attr:00000058 $d
C:\Users\gx\AppData\Local\Temp\cccIVLs9.s:4055   .text.lv_obj_check_type:00000000 $t
ARM GAS  C:\Users\gx\AppData\Local\Temp\cccIVLs9.s 			page 135


C:\Users\gx\AppData\Local\Temp\cccIVLs9.s:4062   .text.lv_obj_check_type:00000000 lv_obj_check_type
C:\Users\gx\AppData\Local\Temp\cccIVLs9.s:4094   .text.lv_obj_has_class:00000000 $t
C:\Users\gx\AppData\Local\Temp\cccIVLs9.s:4101   .text.lv_obj_has_class:00000000 lv_obj_has_class
C:\Users\gx\AppData\Local\Temp\cccIVLs9.s:4144   .text.lv_obj_get_class:00000000 $t
C:\Users\gx\AppData\Local\Temp\cccIVLs9.s:4151   .text.lv_obj_get_class:00000000 lv_obj_get_class
C:\Users\gx\AppData\Local\Temp\cccIVLs9.s:4169   .text.lv_obj_is_valid:00000000 $t
C:\Users\gx\AppData\Local\Temp\cccIVLs9.s:4176   .text.lv_obj_is_valid:00000000 lv_obj_is_valid
C:\Users\gx\AppData\Local\Temp\cccIVLs9.s:4313   .rodata.lv_obj_class:00000000 lv_obj_class
C:\Users\gx\AppData\Local\Temp\cccIVLs9.s:4285   .bss.lv_initialized:00000000 lv_initialized
C:\Users\gx\AppData\Local\Temp\cccIVLs9.s:4286   .bss.lv_initialized:00000000 $d
C:\Users\gx\AppData\Local\Temp\cccIVLs9.s:4288   .bss.x.10155:00000000 $d
C:\Users\gx\AppData\Local\Temp\cccIVLs9.s:4292   .bss.x.10155:00000000 x.10155
C:\Users\gx\AppData\Local\Temp\cccIVLs9.s:4295   .rodata.__func__.10099:00000000 $d
C:\Users\gx\AppData\Local\Temp\cccIVLs9.s:4299   .rodata.__func__.10099:00000000 __func__.10099
C:\Users\gx\AppData\Local\Temp\cccIVLs9.s:4302   .rodata.__func__.10156:00000000 $d
C:\Users\gx\AppData\Local\Temp\cccIVLs9.s:4306   .rodata.__func__.10156:00000000 __func__.10156
C:\Users\gx\AppData\Local\Temp\cccIVLs9.s:4309   .rodata.lv_obj_class:00000000 $d

UNDEFINED SYMBOLS
lv_draw_rect_dsc_init
lv_obj_get_style_prop
lv_obj_get_scrollbar_area
lv_area_get_size
lv_obj_draw_dsc_init
lv_event_send
lv_draw_rect
lv_event_get_code
lv_event_get_target
lv_event_get_param
_lv_area_is_in
lv_obj_init_draw_rect_dsc
lv_mem_buf_get
lv_draw_mask_radius_init
lv_draw_mask_add
lv_draw_mask_remove_custom
lv_draw_mask_free_param
lv_mem_buf_release
lv_obj_get_scroll_left
lv_obj_get_scroll_top
_lv_obj_style_state_compare
lv_memset_00
lv_obj_style_get_selector_state
lv_obj_style_get_selector_part
_lv_obj_style_create_transition
lv_obj_invalidate
lv_obj_refresh_ext_draw_size
lv_obj_refresh_style
lv_mem_init
_lv_timer_core_init
_lv_fs_init
_lv_anim_core_init
_lv_group_init
_lv_obj_style_init
_lv_ll_init
_lv_refr_init
_lv_img_decoder_init
lv_extra_init
ARM GAS  C:\Users\gx\AppData\Local\Temp\cccIVLs9.s 			page 136


_lv_log_add
_lv_disp_ll
_lv_indev_ll
_lv_gc_clear_roots
lv_disp_set_default
lv_mem_deinit
lv_log_register_print_cb
lv_obj_class_create_obj
lv_obj_class_init_obj
lv_obj_is_layout_positioned
lv_obj_get_parent
lv_obj_mark_layout_as_dirty
lv_indev_get_scroll_obj
lv_obj_get_child_cnt
lv_obj_is_editable
lv_obj_get_scroll_right
lv_obj_get_scroll_dir
lv_obj_get_scroll_x
lv_obj_get_width
lv_obj_scroll_to_x
lv_obj_get_scroll_y
lv_obj_get_height
lv_obj_scroll_to_y
lv_group_get_editing
lv_indev_get_act
lv_indev_get_type
lv_obj_scroll_to_view_recursive
lv_event_get_indev
lv_obj_calculate_ext_draw_size
_lv_event_mark_deleted
lv_obj_enable_style_refresh
lv_obj_remove_style
lv_anim_del
lv_group_remove_obj
lv_mem_free
lv_mem_alloc
lv_disp_get_next
