ARM GAS  C:\Users\gx\AppData\Local\Temp\cczBUDp5.s 			page 1


   1              		.cpu cortex-m4
   2              		.eabi_attribute 27, 1
   3              		.eabi_attribute 28, 1
   4              		.eabi_attribute 20, 1
   5              		.eabi_attribute 21, 1
   6              		.eabi_attribute 23, 3
   7              		.eabi_attribute 24, 1
   8              		.eabi_attribute 25, 1
   9              		.eabi_attribute 26, 1
  10              		.eabi_attribute 30, 1
  11              		.eabi_attribute 34, 1
  12              		.eabi_attribute 18, 4
  13              		.file	"lv_obj_draw.c"
  14              		.text
  15              	.Ltext0:
  16              		.cfi_sections	.debug_frame
  17              		.section	.text.lv_obj_init_draw_rect_dsc,"ax",%progbits
  18              		.align	1
  19              		.global	lv_obj_init_draw_rect_dsc
  20              		.arch armv7e-m
  21              		.syntax unified
  22              		.thumb
  23              		.thumb_func
  24              		.fpu fpv4-sp-d16
  26              	lv_obj_init_draw_rect_dsc:
  27              	.LVL0:
  28              	.LFB158:
  29              		.file 1 "lvgl/lvgl/src/core/lv_obj_draw.c"
   1:lvgl/lvgl/src/core/lv_obj_draw.c **** /**
   2:lvgl/lvgl/src/core/lv_obj_draw.c ****  * @file lv_obj_draw.c
   3:lvgl/lvgl/src/core/lv_obj_draw.c ****  *
   4:lvgl/lvgl/src/core/lv_obj_draw.c ****  */
   5:lvgl/lvgl/src/core/lv_obj_draw.c **** 
   6:lvgl/lvgl/src/core/lv_obj_draw.c **** /*********************
   7:lvgl/lvgl/src/core/lv_obj_draw.c ****  *      INCLUDES
   8:lvgl/lvgl/src/core/lv_obj_draw.c ****  *********************/
   9:lvgl/lvgl/src/core/lv_obj_draw.c **** #include "lv_obj_draw.h"
  10:lvgl/lvgl/src/core/lv_obj_draw.c **** #include "lv_obj.h"
  11:lvgl/lvgl/src/core/lv_obj_draw.c **** #include "lv_disp.h"
  12:lvgl/lvgl/src/core/lv_obj_draw.c **** #include "lv_indev.h"
  13:lvgl/lvgl/src/core/lv_obj_draw.c **** 
  14:lvgl/lvgl/src/core/lv_obj_draw.c **** /*********************
  15:lvgl/lvgl/src/core/lv_obj_draw.c ****  *      DEFINES
  16:lvgl/lvgl/src/core/lv_obj_draw.c ****  *********************/
  17:lvgl/lvgl/src/core/lv_obj_draw.c **** #define MY_CLASS &lv_obj_class
  18:lvgl/lvgl/src/core/lv_obj_draw.c **** 
  19:lvgl/lvgl/src/core/lv_obj_draw.c **** /**********************
  20:lvgl/lvgl/src/core/lv_obj_draw.c ****  *      TYPEDEFS
  21:lvgl/lvgl/src/core/lv_obj_draw.c ****  **********************/
  22:lvgl/lvgl/src/core/lv_obj_draw.c **** 
  23:lvgl/lvgl/src/core/lv_obj_draw.c **** /**********************
  24:lvgl/lvgl/src/core/lv_obj_draw.c ****  *  STATIC PROTOTYPES
  25:lvgl/lvgl/src/core/lv_obj_draw.c ****  **********************/
  26:lvgl/lvgl/src/core/lv_obj_draw.c **** 
  27:lvgl/lvgl/src/core/lv_obj_draw.c **** /**********************
  28:lvgl/lvgl/src/core/lv_obj_draw.c ****  *  STATIC VARIABLES
  29:lvgl/lvgl/src/core/lv_obj_draw.c ****  **********************/
ARM GAS  C:\Users\gx\AppData\Local\Temp\cczBUDp5.s 			page 2


  30:lvgl/lvgl/src/core/lv_obj_draw.c **** 
  31:lvgl/lvgl/src/core/lv_obj_draw.c **** /**********************
  32:lvgl/lvgl/src/core/lv_obj_draw.c ****  *      MACROS
  33:lvgl/lvgl/src/core/lv_obj_draw.c ****  **********************/
  34:lvgl/lvgl/src/core/lv_obj_draw.c **** 
  35:lvgl/lvgl/src/core/lv_obj_draw.c **** /**********************
  36:lvgl/lvgl/src/core/lv_obj_draw.c ****  *   GLOBAL FUNCTIONS
  37:lvgl/lvgl/src/core/lv_obj_draw.c ****  **********************/
  38:lvgl/lvgl/src/core/lv_obj_draw.c **** 
  39:lvgl/lvgl/src/core/lv_obj_draw.c **** void lv_obj_init_draw_rect_dsc(lv_obj_t * obj, uint32_t part, lv_draw_rect_dsc_t * draw_dsc)
  40:lvgl/lvgl/src/core/lv_obj_draw.c **** {
  30              		.loc 1 40 1 view -0
  31              		.cfi_startproc
  32              		@ args = 0, pretend = 0, frame = 0
  33              		@ frame_needed = 0, uses_anonymous_args = 0
  34              		.loc 1 40 1 is_stmt 0 view .LVU1
  35 0000 2DE9F041 		push	{r4, r5, r6, r7, r8, lr}
  36              	.LCFI0:
  37              		.cfi_def_cfa_offset 24
  38              		.cfi_offset 4, -24
  39              		.cfi_offset 5, -20
  40              		.cfi_offset 6, -16
  41              		.cfi_offset 7, -12
  42              		.cfi_offset 8, -8
  43              		.cfi_offset 14, -4
  44 0004 0646     		mov	r6, r0
  45 0006 0D46     		mov	r5, r1
  46 0008 1446     		mov	r4, r2
  41:lvgl/lvgl/src/core/lv_obj_draw.c **** 
  42:lvgl/lvgl/src/core/lv_obj_draw.c **** #if LV_DRAW_COMPLEX
  43:lvgl/lvgl/src/core/lv_obj_draw.c ****     draw_dsc->radius = lv_obj_get_style_radius(obj, part);
  47              		.loc 1 43 5 is_stmt 1 view .LVU2
  48              	.LVL1:
  49              	.LBB150:
  50              	.LBI150:
  51              		.file 2 "lvgl/lvgl/src/core/lv_obj_style_gen.h"
   1:lvgl/lvgl/src/core/lv_obj_style_gen.h **** static inline lv_coord_t lv_obj_get_style_width(const struct _lv_obj_t * obj, uint32_t part)
   2:lvgl/lvgl/src/core/lv_obj_style_gen.h **** {
   3:lvgl/lvgl/src/core/lv_obj_style_gen.h ****     lv_style_value_t v = lv_obj_get_style_prop(obj, part, LV_STYLE_WIDTH);
   4:lvgl/lvgl/src/core/lv_obj_style_gen.h ****     return (lv_coord_t)v.num;
   5:lvgl/lvgl/src/core/lv_obj_style_gen.h **** }
   6:lvgl/lvgl/src/core/lv_obj_style_gen.h **** 
   7:lvgl/lvgl/src/core/lv_obj_style_gen.h **** static inline lv_coord_t lv_obj_get_style_min_width(const struct _lv_obj_t * obj, uint32_t part)
   8:lvgl/lvgl/src/core/lv_obj_style_gen.h **** {
   9:lvgl/lvgl/src/core/lv_obj_style_gen.h ****     lv_style_value_t v = lv_obj_get_style_prop(obj, part, LV_STYLE_MIN_WIDTH);
  10:lvgl/lvgl/src/core/lv_obj_style_gen.h ****     return (lv_coord_t)v.num;
  11:lvgl/lvgl/src/core/lv_obj_style_gen.h **** }
  12:lvgl/lvgl/src/core/lv_obj_style_gen.h **** 
  13:lvgl/lvgl/src/core/lv_obj_style_gen.h **** static inline lv_coord_t lv_obj_get_style_max_width(const struct _lv_obj_t * obj, uint32_t part)
  14:lvgl/lvgl/src/core/lv_obj_style_gen.h **** {
  15:lvgl/lvgl/src/core/lv_obj_style_gen.h ****     lv_style_value_t v = lv_obj_get_style_prop(obj, part, LV_STYLE_MAX_WIDTH);
  16:lvgl/lvgl/src/core/lv_obj_style_gen.h ****     return (lv_coord_t)v.num;
  17:lvgl/lvgl/src/core/lv_obj_style_gen.h **** }
  18:lvgl/lvgl/src/core/lv_obj_style_gen.h **** 
  19:lvgl/lvgl/src/core/lv_obj_style_gen.h **** static inline lv_coord_t lv_obj_get_style_height(const struct _lv_obj_t * obj, uint32_t part)
  20:lvgl/lvgl/src/core/lv_obj_style_gen.h **** {
  21:lvgl/lvgl/src/core/lv_obj_style_gen.h ****     lv_style_value_t v = lv_obj_get_style_prop(obj, part, LV_STYLE_HEIGHT);
ARM GAS  C:\Users\gx\AppData\Local\Temp\cczBUDp5.s 			page 3


  22:lvgl/lvgl/src/core/lv_obj_style_gen.h ****     return (lv_coord_t)v.num;
  23:lvgl/lvgl/src/core/lv_obj_style_gen.h **** }
  24:lvgl/lvgl/src/core/lv_obj_style_gen.h **** 
  25:lvgl/lvgl/src/core/lv_obj_style_gen.h **** static inline lv_coord_t lv_obj_get_style_min_height(const struct _lv_obj_t * obj, uint32_t part)
  26:lvgl/lvgl/src/core/lv_obj_style_gen.h **** {
  27:lvgl/lvgl/src/core/lv_obj_style_gen.h ****     lv_style_value_t v = lv_obj_get_style_prop(obj, part, LV_STYLE_MIN_HEIGHT);
  28:lvgl/lvgl/src/core/lv_obj_style_gen.h ****     return (lv_coord_t)v.num;
  29:lvgl/lvgl/src/core/lv_obj_style_gen.h **** }
  30:lvgl/lvgl/src/core/lv_obj_style_gen.h **** 
  31:lvgl/lvgl/src/core/lv_obj_style_gen.h **** static inline lv_coord_t lv_obj_get_style_max_height(const struct _lv_obj_t * obj, uint32_t part)
  32:lvgl/lvgl/src/core/lv_obj_style_gen.h **** {
  33:lvgl/lvgl/src/core/lv_obj_style_gen.h ****     lv_style_value_t v = lv_obj_get_style_prop(obj, part, LV_STYLE_MAX_HEIGHT);
  34:lvgl/lvgl/src/core/lv_obj_style_gen.h ****     return (lv_coord_t)v.num;
  35:lvgl/lvgl/src/core/lv_obj_style_gen.h **** }
  36:lvgl/lvgl/src/core/lv_obj_style_gen.h **** 
  37:lvgl/lvgl/src/core/lv_obj_style_gen.h **** static inline lv_coord_t lv_obj_get_style_x(const struct _lv_obj_t * obj, uint32_t part)
  38:lvgl/lvgl/src/core/lv_obj_style_gen.h **** {
  39:lvgl/lvgl/src/core/lv_obj_style_gen.h ****     lv_style_value_t v = lv_obj_get_style_prop(obj, part, LV_STYLE_X);
  40:lvgl/lvgl/src/core/lv_obj_style_gen.h ****     return (lv_coord_t)v.num;
  41:lvgl/lvgl/src/core/lv_obj_style_gen.h **** }
  42:lvgl/lvgl/src/core/lv_obj_style_gen.h **** 
  43:lvgl/lvgl/src/core/lv_obj_style_gen.h **** static inline lv_coord_t lv_obj_get_style_y(const struct _lv_obj_t * obj, uint32_t part)
  44:lvgl/lvgl/src/core/lv_obj_style_gen.h **** {
  45:lvgl/lvgl/src/core/lv_obj_style_gen.h ****     lv_style_value_t v = lv_obj_get_style_prop(obj, part, LV_STYLE_Y);
  46:lvgl/lvgl/src/core/lv_obj_style_gen.h ****     return (lv_coord_t)v.num;
  47:lvgl/lvgl/src/core/lv_obj_style_gen.h **** }
  48:lvgl/lvgl/src/core/lv_obj_style_gen.h **** 
  49:lvgl/lvgl/src/core/lv_obj_style_gen.h **** static inline lv_align_t lv_obj_get_style_align(const struct _lv_obj_t * obj, uint32_t part)
  50:lvgl/lvgl/src/core/lv_obj_style_gen.h **** {
  51:lvgl/lvgl/src/core/lv_obj_style_gen.h ****     lv_style_value_t v = lv_obj_get_style_prop(obj, part, LV_STYLE_ALIGN);
  52:lvgl/lvgl/src/core/lv_obj_style_gen.h ****     return (lv_align_t)v.num;
  53:lvgl/lvgl/src/core/lv_obj_style_gen.h **** }
  54:lvgl/lvgl/src/core/lv_obj_style_gen.h **** 
  55:lvgl/lvgl/src/core/lv_obj_style_gen.h **** static inline lv_coord_t lv_obj_get_style_transform_width(const struct _lv_obj_t * obj, uint32_t pa
  56:lvgl/lvgl/src/core/lv_obj_style_gen.h **** {
  57:lvgl/lvgl/src/core/lv_obj_style_gen.h ****     lv_style_value_t v = lv_obj_get_style_prop(obj, part, LV_STYLE_TRANSFORM_WIDTH);
  58:lvgl/lvgl/src/core/lv_obj_style_gen.h ****     return (lv_coord_t)v.num;
  59:lvgl/lvgl/src/core/lv_obj_style_gen.h **** }
  60:lvgl/lvgl/src/core/lv_obj_style_gen.h **** 
  61:lvgl/lvgl/src/core/lv_obj_style_gen.h **** static inline lv_coord_t lv_obj_get_style_transform_height(const struct _lv_obj_t * obj, uint32_t p
  62:lvgl/lvgl/src/core/lv_obj_style_gen.h **** {
  63:lvgl/lvgl/src/core/lv_obj_style_gen.h ****     lv_style_value_t v = lv_obj_get_style_prop(obj, part, LV_STYLE_TRANSFORM_HEIGHT);
  64:lvgl/lvgl/src/core/lv_obj_style_gen.h ****     return (lv_coord_t)v.num;
  65:lvgl/lvgl/src/core/lv_obj_style_gen.h **** }
  66:lvgl/lvgl/src/core/lv_obj_style_gen.h **** 
  67:lvgl/lvgl/src/core/lv_obj_style_gen.h **** static inline lv_coord_t lv_obj_get_style_translate_x(const struct _lv_obj_t * obj, uint32_t part)
  68:lvgl/lvgl/src/core/lv_obj_style_gen.h **** {
  69:lvgl/lvgl/src/core/lv_obj_style_gen.h ****     lv_style_value_t v = lv_obj_get_style_prop(obj, part, LV_STYLE_TRANSLATE_X);
  70:lvgl/lvgl/src/core/lv_obj_style_gen.h ****     return (lv_coord_t)v.num;
  71:lvgl/lvgl/src/core/lv_obj_style_gen.h **** }
  72:lvgl/lvgl/src/core/lv_obj_style_gen.h **** 
  73:lvgl/lvgl/src/core/lv_obj_style_gen.h **** static inline lv_coord_t lv_obj_get_style_translate_y(const struct _lv_obj_t * obj, uint32_t part)
  74:lvgl/lvgl/src/core/lv_obj_style_gen.h **** {
  75:lvgl/lvgl/src/core/lv_obj_style_gen.h ****     lv_style_value_t v = lv_obj_get_style_prop(obj, part, LV_STYLE_TRANSLATE_Y);
  76:lvgl/lvgl/src/core/lv_obj_style_gen.h ****     return (lv_coord_t)v.num;
  77:lvgl/lvgl/src/core/lv_obj_style_gen.h **** }
  78:lvgl/lvgl/src/core/lv_obj_style_gen.h **** 
ARM GAS  C:\Users\gx\AppData\Local\Temp\cczBUDp5.s 			page 4


  79:lvgl/lvgl/src/core/lv_obj_style_gen.h **** static inline lv_coord_t lv_obj_get_style_transform_zoom(const struct _lv_obj_t * obj, uint32_t par
  80:lvgl/lvgl/src/core/lv_obj_style_gen.h **** {
  81:lvgl/lvgl/src/core/lv_obj_style_gen.h ****     lv_style_value_t v = lv_obj_get_style_prop(obj, part, LV_STYLE_TRANSFORM_ZOOM);
  82:lvgl/lvgl/src/core/lv_obj_style_gen.h ****     return (lv_coord_t)v.num;
  83:lvgl/lvgl/src/core/lv_obj_style_gen.h **** }
  84:lvgl/lvgl/src/core/lv_obj_style_gen.h **** 
  85:lvgl/lvgl/src/core/lv_obj_style_gen.h **** static inline lv_coord_t lv_obj_get_style_transform_angle(const struct _lv_obj_t * obj, uint32_t pa
  86:lvgl/lvgl/src/core/lv_obj_style_gen.h **** {
  87:lvgl/lvgl/src/core/lv_obj_style_gen.h ****     lv_style_value_t v = lv_obj_get_style_prop(obj, part, LV_STYLE_TRANSFORM_ANGLE);
  88:lvgl/lvgl/src/core/lv_obj_style_gen.h ****     return (lv_coord_t)v.num;
  89:lvgl/lvgl/src/core/lv_obj_style_gen.h **** }
  90:lvgl/lvgl/src/core/lv_obj_style_gen.h **** 
  91:lvgl/lvgl/src/core/lv_obj_style_gen.h **** static inline lv_coord_t lv_obj_get_style_pad_top(const struct _lv_obj_t * obj, uint32_t part)
  92:lvgl/lvgl/src/core/lv_obj_style_gen.h **** {
  93:lvgl/lvgl/src/core/lv_obj_style_gen.h ****     lv_style_value_t v = lv_obj_get_style_prop(obj, part, LV_STYLE_PAD_TOP);
  94:lvgl/lvgl/src/core/lv_obj_style_gen.h ****     return (lv_coord_t)v.num;
  95:lvgl/lvgl/src/core/lv_obj_style_gen.h **** }
  96:lvgl/lvgl/src/core/lv_obj_style_gen.h **** 
  97:lvgl/lvgl/src/core/lv_obj_style_gen.h **** static inline lv_coord_t lv_obj_get_style_pad_bottom(const struct _lv_obj_t * obj, uint32_t part)
  98:lvgl/lvgl/src/core/lv_obj_style_gen.h **** {
  99:lvgl/lvgl/src/core/lv_obj_style_gen.h ****     lv_style_value_t v = lv_obj_get_style_prop(obj, part, LV_STYLE_PAD_BOTTOM);
 100:lvgl/lvgl/src/core/lv_obj_style_gen.h ****     return (lv_coord_t)v.num;
 101:lvgl/lvgl/src/core/lv_obj_style_gen.h **** }
 102:lvgl/lvgl/src/core/lv_obj_style_gen.h **** 
 103:lvgl/lvgl/src/core/lv_obj_style_gen.h **** static inline lv_coord_t lv_obj_get_style_pad_left(const struct _lv_obj_t * obj, uint32_t part)
 104:lvgl/lvgl/src/core/lv_obj_style_gen.h **** {
 105:lvgl/lvgl/src/core/lv_obj_style_gen.h ****     lv_style_value_t v = lv_obj_get_style_prop(obj, part, LV_STYLE_PAD_LEFT);
 106:lvgl/lvgl/src/core/lv_obj_style_gen.h ****     return (lv_coord_t)v.num;
 107:lvgl/lvgl/src/core/lv_obj_style_gen.h **** }
 108:lvgl/lvgl/src/core/lv_obj_style_gen.h **** 
 109:lvgl/lvgl/src/core/lv_obj_style_gen.h **** static inline lv_coord_t lv_obj_get_style_pad_right(const struct _lv_obj_t * obj, uint32_t part)
 110:lvgl/lvgl/src/core/lv_obj_style_gen.h **** {
 111:lvgl/lvgl/src/core/lv_obj_style_gen.h ****     lv_style_value_t v = lv_obj_get_style_prop(obj, part, LV_STYLE_PAD_RIGHT);
 112:lvgl/lvgl/src/core/lv_obj_style_gen.h ****     return (lv_coord_t)v.num;
 113:lvgl/lvgl/src/core/lv_obj_style_gen.h **** }
 114:lvgl/lvgl/src/core/lv_obj_style_gen.h **** 
 115:lvgl/lvgl/src/core/lv_obj_style_gen.h **** static inline lv_coord_t lv_obj_get_style_pad_row(const struct _lv_obj_t * obj, uint32_t part)
 116:lvgl/lvgl/src/core/lv_obj_style_gen.h **** {
 117:lvgl/lvgl/src/core/lv_obj_style_gen.h ****     lv_style_value_t v = lv_obj_get_style_prop(obj, part, LV_STYLE_PAD_ROW);
 118:lvgl/lvgl/src/core/lv_obj_style_gen.h ****     return (lv_coord_t)v.num;
 119:lvgl/lvgl/src/core/lv_obj_style_gen.h **** }
 120:lvgl/lvgl/src/core/lv_obj_style_gen.h **** 
 121:lvgl/lvgl/src/core/lv_obj_style_gen.h **** static inline lv_coord_t lv_obj_get_style_pad_column(const struct _lv_obj_t * obj, uint32_t part)
 122:lvgl/lvgl/src/core/lv_obj_style_gen.h **** {
 123:lvgl/lvgl/src/core/lv_obj_style_gen.h ****     lv_style_value_t v = lv_obj_get_style_prop(obj, part, LV_STYLE_PAD_COLUMN);
 124:lvgl/lvgl/src/core/lv_obj_style_gen.h ****     return (lv_coord_t)v.num;
 125:lvgl/lvgl/src/core/lv_obj_style_gen.h **** }
 126:lvgl/lvgl/src/core/lv_obj_style_gen.h **** 
 127:lvgl/lvgl/src/core/lv_obj_style_gen.h **** static inline lv_coord_t lv_obj_get_style_radius(const struct _lv_obj_t * obj, uint32_t part)
  52              		.loc 2 127 26 view .LVU3
  53              	.LBB151:
 128:lvgl/lvgl/src/core/lv_obj_style_gen.h **** {
 129:lvgl/lvgl/src/core/lv_obj_style_gen.h ****     lv_style_value_t v = lv_obj_get_style_prop(obj, part, LV_STYLE_RADIUS);
  54              		.loc 2 129 5 view .LVU4
  55              		.loc 2 129 26 is_stmt 0 view .LVU5
  56 000a 6022     		movs	r2, #96
  57              	.LVL2:
ARM GAS  C:\Users\gx\AppData\Local\Temp\cczBUDp5.s 			page 5


  58              		.loc 2 129 26 view .LVU6
  59 000c FFF7FEFF 		bl	lv_obj_get_style_prop
  60              	.LVL3:
 130:lvgl/lvgl/src/core/lv_obj_style_gen.h ****     return (lv_coord_t)v.num;
  61              		.loc 2 130 5 is_stmt 1 view .LVU7
  62              		.loc 2 130 5 is_stmt 0 view .LVU8
  63              	.LBE151:
  64              	.LBE150:
  65              		.loc 1 43 22 view .LVU9
  66 0010 2080     		strh	r0, [r4]	@ movhi
  44:lvgl/lvgl/src/core/lv_obj_draw.c **** 
  45:lvgl/lvgl/src/core/lv_obj_draw.c ****     lv_opa_t main_opa = part != LV_PART_MAIN ? lv_obj_get_style_opa(obj, part) : LV_OPA_COVER;
  67              		.loc 1 45 5 is_stmt 1 view .LVU10
  68              		.loc 1 45 14 is_stmt 0 view .LVU11
  69 0012 B5B9     		cbnz	r5, .L15
  70 0014 4FF0FF08 		mov	r8, #255
  71              	.L2:
  72              	.LVL4:
  46:lvgl/lvgl/src/core/lv_obj_draw.c ****     lv_opa_t opa = lv_obj_get_style_opa(obj, part);
  73              		.loc 1 46 5 is_stmt 1 discriminator 4 view .LVU12
  74              	.LBB152:
  75              	.LBI152:
 131:lvgl/lvgl/src/core/lv_obj_style_gen.h **** }
 132:lvgl/lvgl/src/core/lv_obj_style_gen.h **** 
 133:lvgl/lvgl/src/core/lv_obj_style_gen.h **** static inline bool lv_obj_get_style_clip_corner(const struct _lv_obj_t * obj, uint32_t part)
 134:lvgl/lvgl/src/core/lv_obj_style_gen.h **** {
 135:lvgl/lvgl/src/core/lv_obj_style_gen.h ****     lv_style_value_t v = lv_obj_get_style_prop(obj, part, LV_STYLE_CLIP_CORNER);
 136:lvgl/lvgl/src/core/lv_obj_style_gen.h ****     return (bool)v.num;
 137:lvgl/lvgl/src/core/lv_obj_style_gen.h **** }
 138:lvgl/lvgl/src/core/lv_obj_style_gen.h **** 
 139:lvgl/lvgl/src/core/lv_obj_style_gen.h **** static inline lv_opa_t lv_obj_get_style_opa(const struct _lv_obj_t * obj, uint32_t part)
  76              		.loc 2 139 24 discriminator 4 view .LVU13
  77              	.LBB153:
 140:lvgl/lvgl/src/core/lv_obj_style_gen.h **** {
 141:lvgl/lvgl/src/core/lv_obj_style_gen.h ****     lv_style_value_t v = lv_obj_get_style_prop(obj, part, LV_STYLE_OPA);
  78              		.loc 2 141 5 discriminator 4 view .LVU14
  79              		.loc 2 141 26 is_stmt 0 discriminator 4 view .LVU15
  80 0018 40F26242 		movw	r2, #1122
  81 001c 2946     		mov	r1, r5
  82 001e 3046     		mov	r0, r6
  83 0020 FFF7FEFF 		bl	lv_obj_get_style_prop
  84              	.LVL5:
 142:lvgl/lvgl/src/core/lv_obj_style_gen.h ****     return (lv_opa_t)v.num;
  85              		.loc 2 142 5 is_stmt 1 discriminator 4 view .LVU16
  86              		.loc 2 142 12 is_stmt 0 discriminator 4 view .LVU17
  87 0024 C7B2     		uxtb	r7, r0
  88              	.LVL6:
  89              		.loc 2 142 12 discriminator 4 view .LVU18
  90              	.LBE153:
  91              	.LBE152:
  47:lvgl/lvgl/src/core/lv_obj_draw.c ****     if(opa <= LV_OPA_MIN || main_opa <= LV_OPA_MIN) {
  92              		.loc 1 47 5 is_stmt 1 discriminator 4 view .LVU19
  93              		.loc 1 47 7 is_stmt 0 discriminator 4 view .LVU20
  94 0026 022F     		cmp	r7, #2
  95 0028 02D9     		bls	.L3
  96              		.loc 1 47 26 discriminator 1 view .LVU21
  97 002a B8F1020F 		cmp	r8, #2
ARM GAS  C:\Users\gx\AppData\Local\Temp\cczBUDp5.s 			page 6


  98 002e 11D8     		bhi	.L4
  99              	.L3:
  48:lvgl/lvgl/src/core/lv_obj_draw.c ****         draw_dsc->bg_opa = LV_OPA_TRANSP;
 100              		.loc 1 48 9 is_stmt 1 view .LVU22
 101              		.loc 1 48 26 is_stmt 0 view .LVU23
 102 0030 0023     		movs	r3, #0
 103 0032 A372     		strb	r3, [r4, #10]
  49:lvgl/lvgl/src/core/lv_obj_draw.c ****         draw_dsc->border_opa = LV_OPA_TRANSP;
 104              		.loc 1 49 9 is_stmt 1 view .LVU24
 105              		.loc 1 49 30 is_stmt 0 view .LVU25
 106 0034 A377     		strb	r3, [r4, #30]
  50:lvgl/lvgl/src/core/lv_obj_draw.c ****         draw_dsc->shadow_opa = LV_OPA_TRANSP;
 107              		.loc 1 50 9 is_stmt 1 view .LVU26
 108              		.loc 1 50 30 is_stmt 0 view .LVU27
 109 0036 84F83230 		strb	r3, [r4, #50]
  51:lvgl/lvgl/src/core/lv_obj_draw.c ****         draw_dsc->outline_opa = LV_OPA_TRANSP;
 110              		.loc 1 51 9 is_stmt 1 view .LVU28
 111              		.loc 1 51 31 is_stmt 0 view .LVU29
 112 003a 84F82630 		strb	r3, [r4, #38]
  52:lvgl/lvgl/src/core/lv_obj_draw.c ****         return;
 113              		.loc 1 52 9 is_stmt 1 view .LVU30
 114              	.LVL7:
 115              	.L1:
  53:lvgl/lvgl/src/core/lv_obj_draw.c ****     }
  54:lvgl/lvgl/src/core/lv_obj_draw.c **** 
  55:lvgl/lvgl/src/core/lv_obj_draw.c ****     draw_dsc->blend_mode = lv_obj_get_style_blend_mode(obj, part);
  56:lvgl/lvgl/src/core/lv_obj_draw.c **** 
  57:lvgl/lvgl/src/core/lv_obj_draw.c ****     if(draw_dsc->bg_opa != LV_OPA_TRANSP) {
  58:lvgl/lvgl/src/core/lv_obj_draw.c ****         draw_dsc->bg_opa = lv_obj_get_style_bg_opa(obj, part);
  59:lvgl/lvgl/src/core/lv_obj_draw.c ****         if(draw_dsc->bg_opa > LV_OPA_MIN) {
  60:lvgl/lvgl/src/core/lv_obj_draw.c ****             draw_dsc->bg_color = lv_obj_get_style_bg_color_filtered(obj, part);
  61:lvgl/lvgl/src/core/lv_obj_draw.c ****             draw_dsc->bg_grad_dir =  lv_obj_get_style_bg_grad_dir(obj, part);
  62:lvgl/lvgl/src/core/lv_obj_draw.c ****             if(draw_dsc->bg_grad_dir != LV_GRAD_DIR_NONE) {
  63:lvgl/lvgl/src/core/lv_obj_draw.c ****                 draw_dsc->bg_grad_color = lv_obj_get_style_bg_grad_color_filtered(obj, part);
  64:lvgl/lvgl/src/core/lv_obj_draw.c ****                 draw_dsc->bg_main_color_stop =  lv_obj_get_style_bg_main_stop(obj, part);
  65:lvgl/lvgl/src/core/lv_obj_draw.c ****                 draw_dsc->bg_grad_color_stop =  lv_obj_get_style_bg_grad_stop(obj, part);
  66:lvgl/lvgl/src/core/lv_obj_draw.c ****             }
  67:lvgl/lvgl/src/core/lv_obj_draw.c ****         }
  68:lvgl/lvgl/src/core/lv_obj_draw.c ****     }
  69:lvgl/lvgl/src/core/lv_obj_draw.c **** 
  70:lvgl/lvgl/src/core/lv_obj_draw.c ****     draw_dsc->border_width = lv_obj_get_style_border_width(obj, part);
  71:lvgl/lvgl/src/core/lv_obj_draw.c ****     if(draw_dsc->border_width) {
  72:lvgl/lvgl/src/core/lv_obj_draw.c ****         if(draw_dsc->border_opa != LV_OPA_TRANSP) {
  73:lvgl/lvgl/src/core/lv_obj_draw.c ****             draw_dsc->border_opa = lv_obj_get_style_border_opa(obj, part);
  74:lvgl/lvgl/src/core/lv_obj_draw.c ****             if(draw_dsc->border_opa > LV_OPA_MIN) {
  75:lvgl/lvgl/src/core/lv_obj_draw.c ****                 draw_dsc->border_side = lv_obj_get_style_border_side(obj, part);
  76:lvgl/lvgl/src/core/lv_obj_draw.c ****                 draw_dsc->border_color = lv_obj_get_style_border_color_filtered(obj, part);
  77:lvgl/lvgl/src/core/lv_obj_draw.c ****             }
  78:lvgl/lvgl/src/core/lv_obj_draw.c ****         }
  79:lvgl/lvgl/src/core/lv_obj_draw.c ****     }
  80:lvgl/lvgl/src/core/lv_obj_draw.c **** 
  81:lvgl/lvgl/src/core/lv_obj_draw.c ****     draw_dsc->outline_width = lv_obj_get_style_outline_width(obj, part);
  82:lvgl/lvgl/src/core/lv_obj_draw.c ****     if(draw_dsc->outline_width) {
  83:lvgl/lvgl/src/core/lv_obj_draw.c ****         if(draw_dsc->outline_opa != LV_OPA_TRANSP) {
  84:lvgl/lvgl/src/core/lv_obj_draw.c ****             draw_dsc->outline_opa = lv_obj_get_style_outline_opa(obj, part);
  85:lvgl/lvgl/src/core/lv_obj_draw.c ****             if(draw_dsc->outline_opa > LV_OPA_MIN) {
  86:lvgl/lvgl/src/core/lv_obj_draw.c ****                 draw_dsc->outline_pad = lv_obj_get_style_outline_pad(obj, part);
ARM GAS  C:\Users\gx\AppData\Local\Temp\cczBUDp5.s 			page 7


  87:lvgl/lvgl/src/core/lv_obj_draw.c ****                 draw_dsc->outline_color = lv_obj_get_style_outline_color(obj, part);
  88:lvgl/lvgl/src/core/lv_obj_draw.c ****             }
  89:lvgl/lvgl/src/core/lv_obj_draw.c ****         }
  90:lvgl/lvgl/src/core/lv_obj_draw.c ****     }
  91:lvgl/lvgl/src/core/lv_obj_draw.c **** 
  92:lvgl/lvgl/src/core/lv_obj_draw.c ****     if(draw_dsc->bg_img_opa != LV_OPA_TRANSP) {
  93:lvgl/lvgl/src/core/lv_obj_draw.c ****         draw_dsc->bg_img_src = lv_obj_get_style_bg_img_src(obj, part);
  94:lvgl/lvgl/src/core/lv_obj_draw.c ****         if(draw_dsc->bg_img_src) {
  95:lvgl/lvgl/src/core/lv_obj_draw.c ****             draw_dsc->bg_img_opa = lv_obj_get_style_bg_img_opa(obj, part);
  96:lvgl/lvgl/src/core/lv_obj_draw.c ****             if(draw_dsc->bg_img_opa > LV_OPA_MIN) {
  97:lvgl/lvgl/src/core/lv_obj_draw.c ****                 if(lv_img_src_get_type(draw_dsc->bg_img_src) == LV_IMG_SRC_SYMBOL) {
  98:lvgl/lvgl/src/core/lv_obj_draw.c ****                     draw_dsc->bg_img_symbol_font= lv_obj_get_style_text_font(obj, part);
  99:lvgl/lvgl/src/core/lv_obj_draw.c ****                     draw_dsc->bg_img_recolor = lv_obj_get_style_text_color(obj, part);
 100:lvgl/lvgl/src/core/lv_obj_draw.c ****                 } else {
 101:lvgl/lvgl/src/core/lv_obj_draw.c ****                     draw_dsc->bg_img_recolor = lv_obj_get_style_bg_img_recolor(obj, part);
 102:lvgl/lvgl/src/core/lv_obj_draw.c ****                     draw_dsc->bg_img_recolor_opa = lv_obj_get_style_bg_img_recolor_opa(obj, part);
 103:lvgl/lvgl/src/core/lv_obj_draw.c ****                     draw_dsc->bg_img_tiled = lv_obj_get_style_bg_img_tiled(obj, part);
 104:lvgl/lvgl/src/core/lv_obj_draw.c ****                 }
 105:lvgl/lvgl/src/core/lv_obj_draw.c ****             }
 106:lvgl/lvgl/src/core/lv_obj_draw.c ****         }
 107:lvgl/lvgl/src/core/lv_obj_draw.c ****     }
 108:lvgl/lvgl/src/core/lv_obj_draw.c **** 
 109:lvgl/lvgl/src/core/lv_obj_draw.c ****     if(draw_dsc->shadow_opa) {
 110:lvgl/lvgl/src/core/lv_obj_draw.c ****         draw_dsc->shadow_width = lv_obj_get_style_shadow_width(obj, part);
 111:lvgl/lvgl/src/core/lv_obj_draw.c ****         if(draw_dsc->shadow_width) {
 112:lvgl/lvgl/src/core/lv_obj_draw.c ****             if(draw_dsc->shadow_opa > LV_OPA_MIN) {
 113:lvgl/lvgl/src/core/lv_obj_draw.c ****                 draw_dsc->shadow_opa = lv_obj_get_style_shadow_opa(obj, part);
 114:lvgl/lvgl/src/core/lv_obj_draw.c ****                 if(draw_dsc->shadow_opa > LV_OPA_MIN) {
 115:lvgl/lvgl/src/core/lv_obj_draw.c ****                     draw_dsc->shadow_ofs_x = lv_obj_get_style_shadow_ofs_x(obj, part);
 116:lvgl/lvgl/src/core/lv_obj_draw.c ****                     draw_dsc->shadow_ofs_y = lv_obj_get_style_shadow_ofs_y(obj, part);
 117:lvgl/lvgl/src/core/lv_obj_draw.c ****                     draw_dsc->shadow_spread = lv_obj_get_style_shadow_spread(obj, part);
 118:lvgl/lvgl/src/core/lv_obj_draw.c ****                     draw_dsc->shadow_color = lv_obj_get_style_shadow_color_filtered(obj, part);
 119:lvgl/lvgl/src/core/lv_obj_draw.c ****                 }
 120:lvgl/lvgl/src/core/lv_obj_draw.c ****             }
 121:lvgl/lvgl/src/core/lv_obj_draw.c ****         }
 122:lvgl/lvgl/src/core/lv_obj_draw.c ****     }
 123:lvgl/lvgl/src/core/lv_obj_draw.c **** 
 124:lvgl/lvgl/src/core/lv_obj_draw.c ****     if(main_opa < LV_OPA_MAX) {
 125:lvgl/lvgl/src/core/lv_obj_draw.c ****         opa = (uint16_t)((uint16_t) main_opa * opa) >> 8;
 126:lvgl/lvgl/src/core/lv_obj_draw.c ****     }
 127:lvgl/lvgl/src/core/lv_obj_draw.c **** 
 128:lvgl/lvgl/src/core/lv_obj_draw.c ****     if(opa < LV_OPA_MAX) {
 129:lvgl/lvgl/src/core/lv_obj_draw.c ****         draw_dsc->bg_opa = (uint16_t)((uint16_t)draw_dsc->bg_opa * opa) >> 8;
 130:lvgl/lvgl/src/core/lv_obj_draw.c ****         draw_dsc->border_opa = (uint16_t)((uint16_t)draw_dsc->border_opa * opa) >> 8;
 131:lvgl/lvgl/src/core/lv_obj_draw.c ****         draw_dsc->shadow_opa = (uint16_t)((uint16_t)draw_dsc->shadow_opa * opa) >> 8;
 132:lvgl/lvgl/src/core/lv_obj_draw.c ****         draw_dsc->outline_opa = (uint16_t)((uint16_t)draw_dsc->outline_opa * opa) >> 8;
 133:lvgl/lvgl/src/core/lv_obj_draw.c ****     }
 134:lvgl/lvgl/src/core/lv_obj_draw.c **** #else /*LV_DRAW_COMPLEX*/
 135:lvgl/lvgl/src/core/lv_obj_draw.c ****     if(draw_dsc->bg_opa != LV_OPA_TRANSP) {
 136:lvgl/lvgl/src/core/lv_obj_draw.c ****         draw_dsc->bg_opa = lv_obj_get_style_bg_opa(obj, part);
 137:lvgl/lvgl/src/core/lv_obj_draw.c ****         if(draw_dsc->bg_opa > LV_OPA_MIN) {
 138:lvgl/lvgl/src/core/lv_obj_draw.c ****             draw_dsc->bg_color = lv_obj_get_style_bg_color_filtered(obj, part);
 139:lvgl/lvgl/src/core/lv_obj_draw.c ****         }
 140:lvgl/lvgl/src/core/lv_obj_draw.c ****     }
 141:lvgl/lvgl/src/core/lv_obj_draw.c **** 
 142:lvgl/lvgl/src/core/lv_obj_draw.c ****     draw_dsc->border_width = lv_obj_get_style_border_width(obj, part);
 143:lvgl/lvgl/src/core/lv_obj_draw.c ****     if(draw_dsc->border_width) {
ARM GAS  C:\Users\gx\AppData\Local\Temp\cczBUDp5.s 			page 8


 144:lvgl/lvgl/src/core/lv_obj_draw.c ****         if(draw_dsc->border_opa != LV_OPA_TRANSP) {
 145:lvgl/lvgl/src/core/lv_obj_draw.c ****             draw_dsc->border_opa = lv_obj_get_style_border_opa(obj, part);
 146:lvgl/lvgl/src/core/lv_obj_draw.c ****             if(draw_dsc->border_opa > LV_OPA_MIN) {
 147:lvgl/lvgl/src/core/lv_obj_draw.c ****                 draw_dsc->border_color = lv_obj_get_style_border_color_filtered(obj, part);
 148:lvgl/lvgl/src/core/lv_obj_draw.c ****                 draw_dsc->border_side = lv_obj_get_style_border_side(obj, part);
 149:lvgl/lvgl/src/core/lv_obj_draw.c ****             }
 150:lvgl/lvgl/src/core/lv_obj_draw.c ****         }
 151:lvgl/lvgl/src/core/lv_obj_draw.c ****     }
 152:lvgl/lvgl/src/core/lv_obj_draw.c **** 
 153:lvgl/lvgl/src/core/lv_obj_draw.c ****     draw_dsc->outline_width = lv_obj_get_style_outline_width(obj, part);
 154:lvgl/lvgl/src/core/lv_obj_draw.c ****     if(draw_dsc->outline_width) {
 155:lvgl/lvgl/src/core/lv_obj_draw.c ****         if(draw_dsc->outline_opa != LV_OPA_TRANSP) {
 156:lvgl/lvgl/src/core/lv_obj_draw.c ****             draw_dsc->outline_opa = lv_obj_get_style_outline_opa(obj, part);
 157:lvgl/lvgl/src/core/lv_obj_draw.c ****             if(draw_dsc->outline_opa > LV_OPA_MIN) {
 158:lvgl/lvgl/src/core/lv_obj_draw.c ****                 draw_dsc->outline_pad = lv_obj_get_style_outline_pad(obj, part);
 159:lvgl/lvgl/src/core/lv_obj_draw.c ****                 draw_dsc->outline_color = lv_obj_get_style_outline_color(obj, part);
 160:lvgl/lvgl/src/core/lv_obj_draw.c ****             }
 161:lvgl/lvgl/src/core/lv_obj_draw.c ****         }
 162:lvgl/lvgl/src/core/lv_obj_draw.c ****     }
 163:lvgl/lvgl/src/core/lv_obj_draw.c **** 
 164:lvgl/lvgl/src/core/lv_obj_draw.c ****     if(draw_dsc->bg_img_opa != LV_OPA_TRANSP) {
 165:lvgl/lvgl/src/core/lv_obj_draw.c ****         draw_dsc->bg_img_src = lv_obj_get_style_bg_img_src(obj, part);
 166:lvgl/lvgl/src/core/lv_obj_draw.c ****         if(draw_dsc->bg_img_src) {
 167:lvgl/lvgl/src/core/lv_obj_draw.c ****             draw_dsc->bg_img_opa = lv_obj_get_style_bg_img_opa(obj, part);
 168:lvgl/lvgl/src/core/lv_obj_draw.c ****             if(draw_dsc->bg_img_opa > LV_OPA_MIN) {
 169:lvgl/lvgl/src/core/lv_obj_draw.c ****                 if(lv_img_src_get_type(draw_dsc->bg_img_src) == LV_IMG_SRC_SYMBOL) {
 170:lvgl/lvgl/src/core/lv_obj_draw.c ****                    draw_dsc->bg_img_symbol_font= lv_obj_get_style_text_font(obj, part);
 171:lvgl/lvgl/src/core/lv_obj_draw.c ****                    draw_dsc->bg_img_recolor = lv_obj_get_style_text_color(obj, part);
 172:lvgl/lvgl/src/core/lv_obj_draw.c ****                } else {
 173:lvgl/lvgl/src/core/lv_obj_draw.c ****                    draw_dsc->bg_img_recolor = lv_obj_get_style_bg_img_recolor(obj, part);
 174:lvgl/lvgl/src/core/lv_obj_draw.c ****                    draw_dsc->bg_img_recolor_opa = lv_obj_get_style_bg_img_recolor_opa(obj, part);
 175:lvgl/lvgl/src/core/lv_obj_draw.c ****                    draw_dsc->bg_img_tiled = lv_obj_get_style_bg_img_tiled(obj, part);
 176:lvgl/lvgl/src/core/lv_obj_draw.c ****                }
 177:lvgl/lvgl/src/core/lv_obj_draw.c ****             }
 178:lvgl/lvgl/src/core/lv_obj_draw.c ****         }
 179:lvgl/lvgl/src/core/lv_obj_draw.c ****     }
 180:lvgl/lvgl/src/core/lv_obj_draw.c **** #endif
 181:lvgl/lvgl/src/core/lv_obj_draw.c **** }
 116              		.loc 1 181 1 is_stmt 0 view .LVU31
 117 003e BDE8F081 		pop	{r4, r5, r6, r7, r8, pc}
 118              	.LVL8:
 119              	.L15:
 120              	.LBB154:
 121              	.LBI154:
 139:lvgl/lvgl/src/core/lv_obj_style_gen.h **** {
 122              		.loc 2 139 24 is_stmt 1 view .LVU32
 123              	.LBB155:
 141:lvgl/lvgl/src/core/lv_obj_style_gen.h ****     return (lv_opa_t)v.num;
 124              		.loc 2 141 5 view .LVU33
 141:lvgl/lvgl/src/core/lv_obj_style_gen.h ****     return (lv_opa_t)v.num;
 125              		.loc 2 141 26 is_stmt 0 view .LVU34
 126 0042 40F26242 		movw	r2, #1122
 127 0046 2946     		mov	r1, r5
 128 0048 3046     		mov	r0, r6
 129 004a FFF7FEFF 		bl	lv_obj_get_style_prop
 130              	.LVL9:
 131              		.loc 2 142 5 is_stmt 1 view .LVU35
ARM GAS  C:\Users\gx\AppData\Local\Temp\cczBUDp5.s 			page 9


 132              		.loc 2 142 12 is_stmt 0 view .LVU36
 133 004e 5FFA80F8 		uxtb	r8, r0
 134              	.LVL10:
 135              		.loc 2 142 12 view .LVU37
 136              	.LBE155:
 137              	.LBE154:
 138 0052 E1E7     		b	.L2
 139              	.LVL11:
 140              	.L4:
  55:lvgl/lvgl/src/core/lv_obj_draw.c **** 
 141              		.loc 1 55 5 is_stmt 1 view .LVU38
 142              	.LBB156:
 143              	.LBI156:
 143:lvgl/lvgl/src/core/lv_obj_style_gen.h **** }
 144:lvgl/lvgl/src/core/lv_obj_style_gen.h **** 
 145:lvgl/lvgl/src/core/lv_obj_style_gen.h **** static inline const lv_color_filter_dsc_t * lv_obj_get_style_color_filter_dsc(const struct _lv_obj_
 146:lvgl/lvgl/src/core/lv_obj_style_gen.h **** {
 147:lvgl/lvgl/src/core/lv_obj_style_gen.h ****     lv_style_value_t v = lv_obj_get_style_prop(obj, part, LV_STYLE_COLOR_FILTER_DSC);
 148:lvgl/lvgl/src/core/lv_obj_style_gen.h ****     return (const lv_color_filter_dsc_t *)v.ptr;
 149:lvgl/lvgl/src/core/lv_obj_style_gen.h **** }
 150:lvgl/lvgl/src/core/lv_obj_style_gen.h **** 
 151:lvgl/lvgl/src/core/lv_obj_style_gen.h **** static inline lv_opa_t lv_obj_get_style_color_filter_opa(const struct _lv_obj_t * obj, uint32_t par
 152:lvgl/lvgl/src/core/lv_obj_style_gen.h **** {
 153:lvgl/lvgl/src/core/lv_obj_style_gen.h ****     lv_style_value_t v = lv_obj_get_style_prop(obj, part, LV_STYLE_COLOR_FILTER_OPA);
 154:lvgl/lvgl/src/core/lv_obj_style_gen.h ****     return (lv_opa_t)v.num;
 155:lvgl/lvgl/src/core/lv_obj_style_gen.h **** }
 156:lvgl/lvgl/src/core/lv_obj_style_gen.h **** 
 157:lvgl/lvgl/src/core/lv_obj_style_gen.h **** static inline uint32_t lv_obj_get_style_anim_time(const struct _lv_obj_t * obj, uint32_t part)
 158:lvgl/lvgl/src/core/lv_obj_style_gen.h **** {
 159:lvgl/lvgl/src/core/lv_obj_style_gen.h ****     lv_style_value_t v = lv_obj_get_style_prop(obj, part, LV_STYLE_ANIM_TIME);
 160:lvgl/lvgl/src/core/lv_obj_style_gen.h ****     return (uint32_t)v.num;
 161:lvgl/lvgl/src/core/lv_obj_style_gen.h **** }
 162:lvgl/lvgl/src/core/lv_obj_style_gen.h **** 
 163:lvgl/lvgl/src/core/lv_obj_style_gen.h **** static inline uint32_t lv_obj_get_style_anim_speed(const struct _lv_obj_t * obj, uint32_t part)
 164:lvgl/lvgl/src/core/lv_obj_style_gen.h **** {
 165:lvgl/lvgl/src/core/lv_obj_style_gen.h ****     lv_style_value_t v = lv_obj_get_style_prop(obj, part, LV_STYLE_ANIM_SPEED);
 166:lvgl/lvgl/src/core/lv_obj_style_gen.h ****     return (uint32_t)v.num;
 167:lvgl/lvgl/src/core/lv_obj_style_gen.h **** }
 168:lvgl/lvgl/src/core/lv_obj_style_gen.h **** 
 169:lvgl/lvgl/src/core/lv_obj_style_gen.h **** static inline const lv_style_transition_dsc_t * lv_obj_get_style_transition(const struct _lv_obj_t 
 170:lvgl/lvgl/src/core/lv_obj_style_gen.h **** {
 171:lvgl/lvgl/src/core/lv_obj_style_gen.h ****     lv_style_value_t v = lv_obj_get_style_prop(obj, part, LV_STYLE_TRANSITION);
 172:lvgl/lvgl/src/core/lv_obj_style_gen.h ****     return (const lv_style_transition_dsc_t *)v.ptr;
 173:lvgl/lvgl/src/core/lv_obj_style_gen.h **** }
 174:lvgl/lvgl/src/core/lv_obj_style_gen.h **** 
 175:lvgl/lvgl/src/core/lv_obj_style_gen.h **** static inline lv_blend_mode_t lv_obj_get_style_blend_mode(const struct _lv_obj_t * obj, uint32_t pa
 144              		.loc 2 175 31 view .LVU39
 145              	.LBB157:
 176:lvgl/lvgl/src/core/lv_obj_style_gen.h **** {
 177:lvgl/lvgl/src/core/lv_obj_style_gen.h ****     lv_style_value_t v = lv_obj_get_style_prop(obj, part, LV_STYLE_BLEND_MODE);
 146              		.loc 2 177 5 view .LVU40
 147              		.loc 2 177 26 is_stmt 0 view .LVU41
 148 0054 6822     		movs	r2, #104
 149 0056 2946     		mov	r1, r5
 150 0058 3046     		mov	r0, r6
 151 005a FFF7FEFF 		bl	lv_obj_get_style_prop
 152              	.LVL12:
ARM GAS  C:\Users\gx\AppData\Local\Temp\cczBUDp5.s 			page 10


 178:lvgl/lvgl/src/core/lv_obj_style_gen.h ****     return (lv_blend_mode_t)v.num;
 153              		.loc 2 178 5 is_stmt 1 view .LVU42
 154              		.loc 2 178 5 is_stmt 0 view .LVU43
 155              	.LBE157:
 156              	.LBE156:
  55:lvgl/lvgl/src/core/lv_obj_draw.c **** 
 157              		.loc 1 55 26 view .LVU44
 158 005e A070     		strb	r0, [r4, #2]
  57:lvgl/lvgl/src/core/lv_obj_draw.c ****         draw_dsc->bg_opa = lv_obj_get_style_bg_opa(obj, part);
 159              		.loc 1 57 5 is_stmt 1 view .LVU45
  57:lvgl/lvgl/src/core/lv_obj_draw.c ****         draw_dsc->bg_opa = lv_obj_get_style_bg_opa(obj, part);
 160              		.loc 1 57 16 is_stmt 0 view .LVU46
 161 0060 A37A     		ldrb	r3, [r4, #10]	@ zero_extendqisi2
  57:lvgl/lvgl/src/core/lv_obj_draw.c ****         draw_dsc->bg_opa = lv_obj_get_style_bg_opa(obj, part);
 162              		.loc 1 57 7 view .LVU47
 163 0062 002B     		cmp	r3, #0
 164 0064 43D1     		bne	.L16
 165              	.L6:
  70:lvgl/lvgl/src/core/lv_obj_draw.c ****     if(draw_dsc->border_width) {
 166              		.loc 1 70 5 is_stmt 1 view .LVU48
 167              	.LVL13:
 168              	.LBB158:
 169              	.LBI158:
 179:lvgl/lvgl/src/core/lv_obj_style_gen.h **** }
 180:lvgl/lvgl/src/core/lv_obj_style_gen.h **** 
 181:lvgl/lvgl/src/core/lv_obj_style_gen.h **** static inline uint16_t lv_obj_get_style_layout(const struct _lv_obj_t * obj, uint32_t part)
 182:lvgl/lvgl/src/core/lv_obj_style_gen.h **** {
 183:lvgl/lvgl/src/core/lv_obj_style_gen.h ****     lv_style_value_t v = lv_obj_get_style_prop(obj, part, LV_STYLE_LAYOUT);
 184:lvgl/lvgl/src/core/lv_obj_style_gen.h ****     return (uint16_t)v.num;
 185:lvgl/lvgl/src/core/lv_obj_style_gen.h **** }
 186:lvgl/lvgl/src/core/lv_obj_style_gen.h **** 
 187:lvgl/lvgl/src/core/lv_obj_style_gen.h **** static inline lv_base_dir_t lv_obj_get_style_base_dir(const struct _lv_obj_t * obj, uint32_t part)
 188:lvgl/lvgl/src/core/lv_obj_style_gen.h **** {
 189:lvgl/lvgl/src/core/lv_obj_style_gen.h ****     lv_style_value_t v = lv_obj_get_style_prop(obj, part, LV_STYLE_BASE_DIR);
 190:lvgl/lvgl/src/core/lv_obj_style_gen.h ****     return (lv_base_dir_t)v.num;
 191:lvgl/lvgl/src/core/lv_obj_style_gen.h **** }
 192:lvgl/lvgl/src/core/lv_obj_style_gen.h **** 
 193:lvgl/lvgl/src/core/lv_obj_style_gen.h **** static inline lv_color_t lv_obj_get_style_bg_color(const struct _lv_obj_t * obj, uint32_t part)
 194:lvgl/lvgl/src/core/lv_obj_style_gen.h **** {
 195:lvgl/lvgl/src/core/lv_obj_style_gen.h ****     lv_style_value_t v = lv_obj_get_style_prop(obj, part, LV_STYLE_BG_COLOR);
 196:lvgl/lvgl/src/core/lv_obj_style_gen.h ****     return v.color;
 197:lvgl/lvgl/src/core/lv_obj_style_gen.h **** }
 198:lvgl/lvgl/src/core/lv_obj_style_gen.h **** 
 199:lvgl/lvgl/src/core/lv_obj_style_gen.h **** static inline lv_color_t lv_obj_get_style_bg_color_filtered(const struct _lv_obj_t * obj, uint32_t 
 200:lvgl/lvgl/src/core/lv_obj_style_gen.h **** {
 201:lvgl/lvgl/src/core/lv_obj_style_gen.h ****     lv_style_value_t v = lv_obj_get_style_prop(obj, part, LV_STYLE_BG_COLOR_FILTERED);
 202:lvgl/lvgl/src/core/lv_obj_style_gen.h ****     return v.color;
 203:lvgl/lvgl/src/core/lv_obj_style_gen.h **** }
 204:lvgl/lvgl/src/core/lv_obj_style_gen.h **** 
 205:lvgl/lvgl/src/core/lv_obj_style_gen.h **** static inline lv_opa_t lv_obj_get_style_bg_opa(const struct _lv_obj_t * obj, uint32_t part)
 206:lvgl/lvgl/src/core/lv_obj_style_gen.h **** {
 207:lvgl/lvgl/src/core/lv_obj_style_gen.h ****     lv_style_value_t v = lv_obj_get_style_prop(obj, part, LV_STYLE_BG_OPA);
 208:lvgl/lvgl/src/core/lv_obj_style_gen.h ****     return (lv_opa_t)v.num;
 209:lvgl/lvgl/src/core/lv_obj_style_gen.h **** }
 210:lvgl/lvgl/src/core/lv_obj_style_gen.h **** 
 211:lvgl/lvgl/src/core/lv_obj_style_gen.h **** static inline lv_color_t lv_obj_get_style_bg_grad_color(const struct _lv_obj_t * obj, uint32_t part
 212:lvgl/lvgl/src/core/lv_obj_style_gen.h **** {
ARM GAS  C:\Users\gx\AppData\Local\Temp\cczBUDp5.s 			page 11


 213:lvgl/lvgl/src/core/lv_obj_style_gen.h ****     lv_style_value_t v = lv_obj_get_style_prop(obj, part, LV_STYLE_BG_GRAD_COLOR);
 214:lvgl/lvgl/src/core/lv_obj_style_gen.h ****     return v.color;
 215:lvgl/lvgl/src/core/lv_obj_style_gen.h **** }
 216:lvgl/lvgl/src/core/lv_obj_style_gen.h **** 
 217:lvgl/lvgl/src/core/lv_obj_style_gen.h **** static inline lv_color_t lv_obj_get_style_bg_grad_color_filtered(const struct _lv_obj_t * obj, uint
 218:lvgl/lvgl/src/core/lv_obj_style_gen.h **** {
 219:lvgl/lvgl/src/core/lv_obj_style_gen.h ****     lv_style_value_t v = lv_obj_get_style_prop(obj, part, LV_STYLE_BG_GRAD_COLOR_FILTERED);
 220:lvgl/lvgl/src/core/lv_obj_style_gen.h ****     return v.color;
 221:lvgl/lvgl/src/core/lv_obj_style_gen.h **** }
 222:lvgl/lvgl/src/core/lv_obj_style_gen.h **** 
 223:lvgl/lvgl/src/core/lv_obj_style_gen.h **** static inline lv_grad_dir_t lv_obj_get_style_bg_grad_dir(const struct _lv_obj_t * obj, uint32_t par
 224:lvgl/lvgl/src/core/lv_obj_style_gen.h **** {
 225:lvgl/lvgl/src/core/lv_obj_style_gen.h ****     lv_style_value_t v = lv_obj_get_style_prop(obj, part, LV_STYLE_BG_GRAD_DIR);
 226:lvgl/lvgl/src/core/lv_obj_style_gen.h ****     return (lv_grad_dir_t)v.num;
 227:lvgl/lvgl/src/core/lv_obj_style_gen.h **** }
 228:lvgl/lvgl/src/core/lv_obj_style_gen.h **** 
 229:lvgl/lvgl/src/core/lv_obj_style_gen.h **** static inline lv_coord_t lv_obj_get_style_bg_main_stop(const struct _lv_obj_t * obj, uint32_t part)
 230:lvgl/lvgl/src/core/lv_obj_style_gen.h **** {
 231:lvgl/lvgl/src/core/lv_obj_style_gen.h ****     lv_style_value_t v = lv_obj_get_style_prop(obj, part, LV_STYLE_BG_MAIN_STOP);
 232:lvgl/lvgl/src/core/lv_obj_style_gen.h ****     return (lv_coord_t)v.num;
 233:lvgl/lvgl/src/core/lv_obj_style_gen.h **** }
 234:lvgl/lvgl/src/core/lv_obj_style_gen.h **** 
 235:lvgl/lvgl/src/core/lv_obj_style_gen.h **** static inline lv_coord_t lv_obj_get_style_bg_grad_stop(const struct _lv_obj_t * obj, uint32_t part)
 236:lvgl/lvgl/src/core/lv_obj_style_gen.h **** {
 237:lvgl/lvgl/src/core/lv_obj_style_gen.h ****     lv_style_value_t v = lv_obj_get_style_prop(obj, part, LV_STYLE_BG_GRAD_STOP);
 238:lvgl/lvgl/src/core/lv_obj_style_gen.h ****     return (lv_coord_t)v.num;
 239:lvgl/lvgl/src/core/lv_obj_style_gen.h **** }
 240:lvgl/lvgl/src/core/lv_obj_style_gen.h **** 
 241:lvgl/lvgl/src/core/lv_obj_style_gen.h **** static inline const void * lv_obj_get_style_bg_img_src(const struct _lv_obj_t * obj, uint32_t part)
 242:lvgl/lvgl/src/core/lv_obj_style_gen.h **** {
 243:lvgl/lvgl/src/core/lv_obj_style_gen.h ****     lv_style_value_t v = lv_obj_get_style_prop(obj, part, LV_STYLE_BG_IMG_SRC);
 244:lvgl/lvgl/src/core/lv_obj_style_gen.h ****     return (const void *)v.ptr;
 245:lvgl/lvgl/src/core/lv_obj_style_gen.h **** }
 246:lvgl/lvgl/src/core/lv_obj_style_gen.h **** 
 247:lvgl/lvgl/src/core/lv_obj_style_gen.h **** static inline lv_opa_t lv_obj_get_style_bg_img_opa(const struct _lv_obj_t * obj, uint32_t part)
 248:lvgl/lvgl/src/core/lv_obj_style_gen.h **** {
 249:lvgl/lvgl/src/core/lv_obj_style_gen.h ****     lv_style_value_t v = lv_obj_get_style_prop(obj, part, LV_STYLE_BG_IMG_OPA);
 250:lvgl/lvgl/src/core/lv_obj_style_gen.h ****     return (lv_opa_t)v.num;
 251:lvgl/lvgl/src/core/lv_obj_style_gen.h **** }
 252:lvgl/lvgl/src/core/lv_obj_style_gen.h **** 
 253:lvgl/lvgl/src/core/lv_obj_style_gen.h **** static inline lv_color_t lv_obj_get_style_bg_img_recolor(const struct _lv_obj_t * obj, uint32_t par
 254:lvgl/lvgl/src/core/lv_obj_style_gen.h **** {
 255:lvgl/lvgl/src/core/lv_obj_style_gen.h ****     lv_style_value_t v = lv_obj_get_style_prop(obj, part, LV_STYLE_BG_IMG_RECOLOR);
 256:lvgl/lvgl/src/core/lv_obj_style_gen.h ****     return v.color;
 257:lvgl/lvgl/src/core/lv_obj_style_gen.h **** }
 258:lvgl/lvgl/src/core/lv_obj_style_gen.h **** 
 259:lvgl/lvgl/src/core/lv_obj_style_gen.h **** static inline lv_color_t lv_obj_get_style_bg_img_recolor_filtered(const struct _lv_obj_t * obj, uin
 260:lvgl/lvgl/src/core/lv_obj_style_gen.h **** {
 261:lvgl/lvgl/src/core/lv_obj_style_gen.h ****     lv_style_value_t v = lv_obj_get_style_prop(obj, part, LV_STYLE_BG_IMG_RECOLOR_FILTERED);
 262:lvgl/lvgl/src/core/lv_obj_style_gen.h ****     return v.color;
 263:lvgl/lvgl/src/core/lv_obj_style_gen.h **** }
 264:lvgl/lvgl/src/core/lv_obj_style_gen.h **** 
 265:lvgl/lvgl/src/core/lv_obj_style_gen.h **** static inline lv_opa_t lv_obj_get_style_bg_img_recolor_opa(const struct _lv_obj_t * obj, uint32_t p
 266:lvgl/lvgl/src/core/lv_obj_style_gen.h **** {
 267:lvgl/lvgl/src/core/lv_obj_style_gen.h ****     lv_style_value_t v = lv_obj_get_style_prop(obj, part, LV_STYLE_BG_IMG_RECOLOR_OPA);
 268:lvgl/lvgl/src/core/lv_obj_style_gen.h ****     return (lv_opa_t)v.num;
 269:lvgl/lvgl/src/core/lv_obj_style_gen.h **** }
ARM GAS  C:\Users\gx\AppData\Local\Temp\cczBUDp5.s 			page 12


 270:lvgl/lvgl/src/core/lv_obj_style_gen.h **** 
 271:lvgl/lvgl/src/core/lv_obj_style_gen.h **** static inline bool lv_obj_get_style_bg_img_tiled(const struct _lv_obj_t * obj, uint32_t part)
 272:lvgl/lvgl/src/core/lv_obj_style_gen.h **** {
 273:lvgl/lvgl/src/core/lv_obj_style_gen.h ****     lv_style_value_t v = lv_obj_get_style_prop(obj, part, LV_STYLE_BG_IMG_TILED);
 274:lvgl/lvgl/src/core/lv_obj_style_gen.h ****     return (bool)v.num;
 275:lvgl/lvgl/src/core/lv_obj_style_gen.h **** }
 276:lvgl/lvgl/src/core/lv_obj_style_gen.h **** 
 277:lvgl/lvgl/src/core/lv_obj_style_gen.h **** static inline lv_color_t lv_obj_get_style_border_color(const struct _lv_obj_t * obj, uint32_t part)
 278:lvgl/lvgl/src/core/lv_obj_style_gen.h **** {
 279:lvgl/lvgl/src/core/lv_obj_style_gen.h ****     lv_style_value_t v = lv_obj_get_style_prop(obj, part, LV_STYLE_BORDER_COLOR);
 280:lvgl/lvgl/src/core/lv_obj_style_gen.h ****     return v.color;
 281:lvgl/lvgl/src/core/lv_obj_style_gen.h **** }
 282:lvgl/lvgl/src/core/lv_obj_style_gen.h **** 
 283:lvgl/lvgl/src/core/lv_obj_style_gen.h **** static inline lv_color_t lv_obj_get_style_border_color_filtered(const struct _lv_obj_t * obj, uint3
 284:lvgl/lvgl/src/core/lv_obj_style_gen.h **** {
 285:lvgl/lvgl/src/core/lv_obj_style_gen.h ****     lv_style_value_t v = lv_obj_get_style_prop(obj, part, LV_STYLE_BORDER_COLOR_FILTERED);
 286:lvgl/lvgl/src/core/lv_obj_style_gen.h ****     return v.color;
 287:lvgl/lvgl/src/core/lv_obj_style_gen.h **** }
 288:lvgl/lvgl/src/core/lv_obj_style_gen.h **** 
 289:lvgl/lvgl/src/core/lv_obj_style_gen.h **** static inline lv_opa_t lv_obj_get_style_border_opa(const struct _lv_obj_t * obj, uint32_t part)
 290:lvgl/lvgl/src/core/lv_obj_style_gen.h **** {
 291:lvgl/lvgl/src/core/lv_obj_style_gen.h ****     lv_style_value_t v = lv_obj_get_style_prop(obj, part, LV_STYLE_BORDER_OPA);
 292:lvgl/lvgl/src/core/lv_obj_style_gen.h ****     return (lv_opa_t)v.num;
 293:lvgl/lvgl/src/core/lv_obj_style_gen.h **** }
 294:lvgl/lvgl/src/core/lv_obj_style_gen.h **** 
 295:lvgl/lvgl/src/core/lv_obj_style_gen.h **** static inline lv_coord_t lv_obj_get_style_border_width(const struct _lv_obj_t * obj, uint32_t part)
 170              		.loc 2 295 26 view .LVU49
 171              	.LBB159:
 296:lvgl/lvgl/src/core/lv_obj_style_gen.h **** {
 297:lvgl/lvgl/src/core/lv_obj_style_gen.h ****     lv_style_value_t v = lv_obj_get_style_prop(obj, part, LV_STYLE_BORDER_WIDTH);
 172              		.loc 2 297 5 view .LVU50
 173              		.loc 2 297 26 is_stmt 0 view .LVU51
 174 0066 41F23202 		movw	r2, #4146
 175 006a 2946     		mov	r1, r5
 176 006c 3046     		mov	r0, r6
 177 006e FFF7FEFF 		bl	lv_obj_get_style_prop
 178              	.LVL14:
 298:lvgl/lvgl/src/core/lv_obj_style_gen.h ****     return (lv_coord_t)v.num;
 179              		.loc 2 298 5 is_stmt 1 view .LVU52
 180              		.loc 2 298 12 is_stmt 0 view .LVU53
 181 0072 00B2     		sxth	r0, r0
 182              	.LVL15:
 183              		.loc 2 298 12 view .LVU54
 184              	.LBE159:
 185              	.LBE158:
  70:lvgl/lvgl/src/core/lv_obj_draw.c ****     if(draw_dsc->border_width) {
 186              		.loc 1 70 28 view .LVU55
 187 0074 A083     		strh	r0, [r4, #28]	@ movhi
  71:lvgl/lvgl/src/core/lv_obj_draw.c ****         if(draw_dsc->border_opa != LV_OPA_TRANSP) {
 188              		.loc 1 71 5 is_stmt 1 view .LVU56
  71:lvgl/lvgl/src/core/lv_obj_draw.c ****         if(draw_dsc->border_opa != LV_OPA_TRANSP) {
 189              		.loc 1 71 7 is_stmt 0 view .LVU57
 190 0076 10B1     		cbz	r0, .L7
  72:lvgl/lvgl/src/core/lv_obj_draw.c ****             draw_dsc->border_opa = lv_obj_get_style_border_opa(obj, part);
 191              		.loc 1 72 9 is_stmt 1 view .LVU58
  72:lvgl/lvgl/src/core/lv_obj_draw.c ****             draw_dsc->border_opa = lv_obj_get_style_border_opa(obj, part);
 192              		.loc 1 72 20 is_stmt 0 view .LVU59
ARM GAS  C:\Users\gx\AppData\Local\Temp\cczBUDp5.s 			page 13


 193 0078 A37F     		ldrb	r3, [r4, #30]	@ zero_extendqisi2
  72:lvgl/lvgl/src/core/lv_obj_draw.c ****             draw_dsc->border_opa = lv_obj_get_style_border_opa(obj, part);
 194              		.loc 1 72 11 view .LVU60
 195 007a 002B     		cmp	r3, #0
 196 007c 67D1     		bne	.L17
 197              	.L7:
  81:lvgl/lvgl/src/core/lv_obj_draw.c ****     if(draw_dsc->outline_width) {
 198              		.loc 1 81 5 is_stmt 1 view .LVU61
 199              	.LVL16:
 200              	.LBB160:
 201              	.LBI160:
 299:lvgl/lvgl/src/core/lv_obj_style_gen.h **** }
 300:lvgl/lvgl/src/core/lv_obj_style_gen.h **** 
 301:lvgl/lvgl/src/core/lv_obj_style_gen.h **** static inline lv_border_side_t lv_obj_get_style_border_side(const struct _lv_obj_t * obj, uint32_t 
 302:lvgl/lvgl/src/core/lv_obj_style_gen.h **** {
 303:lvgl/lvgl/src/core/lv_obj_style_gen.h ****     lv_style_value_t v = lv_obj_get_style_prop(obj, part, LV_STYLE_BORDER_SIDE);
 304:lvgl/lvgl/src/core/lv_obj_style_gen.h ****     return (lv_border_side_t)v.num;
 305:lvgl/lvgl/src/core/lv_obj_style_gen.h **** }
 306:lvgl/lvgl/src/core/lv_obj_style_gen.h **** 
 307:lvgl/lvgl/src/core/lv_obj_style_gen.h **** static inline bool lv_obj_get_style_border_post(const struct _lv_obj_t * obj, uint32_t part)
 308:lvgl/lvgl/src/core/lv_obj_style_gen.h **** {
 309:lvgl/lvgl/src/core/lv_obj_style_gen.h ****     lv_style_value_t v = lv_obj_get_style_prop(obj, part, LV_STYLE_BORDER_POST);
 310:lvgl/lvgl/src/core/lv_obj_style_gen.h ****     return (bool)v.num;
 311:lvgl/lvgl/src/core/lv_obj_style_gen.h **** }
 312:lvgl/lvgl/src/core/lv_obj_style_gen.h **** 
 313:lvgl/lvgl/src/core/lv_obj_style_gen.h **** static inline lv_color_t lv_obj_get_style_text_color(const struct _lv_obj_t * obj, uint32_t part)
 314:lvgl/lvgl/src/core/lv_obj_style_gen.h **** {
 315:lvgl/lvgl/src/core/lv_obj_style_gen.h ****     lv_style_value_t v = lv_obj_get_style_prop(obj, part, LV_STYLE_TEXT_COLOR);
 316:lvgl/lvgl/src/core/lv_obj_style_gen.h ****     return v.color;
 317:lvgl/lvgl/src/core/lv_obj_style_gen.h **** }
 318:lvgl/lvgl/src/core/lv_obj_style_gen.h **** 
 319:lvgl/lvgl/src/core/lv_obj_style_gen.h **** static inline lv_color_t lv_obj_get_style_text_color_filtered(const struct _lv_obj_t * obj, uint32_
 320:lvgl/lvgl/src/core/lv_obj_style_gen.h **** {
 321:lvgl/lvgl/src/core/lv_obj_style_gen.h ****     lv_style_value_t v = lv_obj_get_style_prop(obj, part, LV_STYLE_TEXT_COLOR_FILTERED);
 322:lvgl/lvgl/src/core/lv_obj_style_gen.h ****     return v.color;
 323:lvgl/lvgl/src/core/lv_obj_style_gen.h **** }
 324:lvgl/lvgl/src/core/lv_obj_style_gen.h **** 
 325:lvgl/lvgl/src/core/lv_obj_style_gen.h **** static inline lv_opa_t lv_obj_get_style_text_opa(const struct _lv_obj_t * obj, uint32_t part)
 326:lvgl/lvgl/src/core/lv_obj_style_gen.h **** {
 327:lvgl/lvgl/src/core/lv_obj_style_gen.h ****     lv_style_value_t v = lv_obj_get_style_prop(obj, part, LV_STYLE_TEXT_OPA);
 328:lvgl/lvgl/src/core/lv_obj_style_gen.h ****     return (lv_opa_t)v.num;
 329:lvgl/lvgl/src/core/lv_obj_style_gen.h **** }
 330:lvgl/lvgl/src/core/lv_obj_style_gen.h **** 
 331:lvgl/lvgl/src/core/lv_obj_style_gen.h **** static inline const lv_font_t * lv_obj_get_style_text_font(const struct _lv_obj_t * obj, uint32_t p
 332:lvgl/lvgl/src/core/lv_obj_style_gen.h **** {
 333:lvgl/lvgl/src/core/lv_obj_style_gen.h ****     lv_style_value_t v = lv_obj_get_style_prop(obj, part, LV_STYLE_TEXT_FONT);
 334:lvgl/lvgl/src/core/lv_obj_style_gen.h ****     return (const lv_font_t *)v.ptr;
 335:lvgl/lvgl/src/core/lv_obj_style_gen.h **** }
 336:lvgl/lvgl/src/core/lv_obj_style_gen.h **** 
 337:lvgl/lvgl/src/core/lv_obj_style_gen.h **** static inline lv_coord_t lv_obj_get_style_text_letter_space(const struct _lv_obj_t * obj, uint32_t 
 338:lvgl/lvgl/src/core/lv_obj_style_gen.h **** {
 339:lvgl/lvgl/src/core/lv_obj_style_gen.h ****     lv_style_value_t v = lv_obj_get_style_prop(obj, part, LV_STYLE_TEXT_LETTER_SPACE);
 340:lvgl/lvgl/src/core/lv_obj_style_gen.h ****     return (lv_coord_t)v.num;
 341:lvgl/lvgl/src/core/lv_obj_style_gen.h **** }
 342:lvgl/lvgl/src/core/lv_obj_style_gen.h **** 
 343:lvgl/lvgl/src/core/lv_obj_style_gen.h **** static inline lv_coord_t lv_obj_get_style_text_line_space(const struct _lv_obj_t * obj, uint32_t pa
 344:lvgl/lvgl/src/core/lv_obj_style_gen.h **** {
ARM GAS  C:\Users\gx\AppData\Local\Temp\cczBUDp5.s 			page 14


 345:lvgl/lvgl/src/core/lv_obj_style_gen.h ****     lv_style_value_t v = lv_obj_get_style_prop(obj, part, LV_STYLE_TEXT_LINE_SPACE);
 346:lvgl/lvgl/src/core/lv_obj_style_gen.h ****     return (lv_coord_t)v.num;
 347:lvgl/lvgl/src/core/lv_obj_style_gen.h **** }
 348:lvgl/lvgl/src/core/lv_obj_style_gen.h **** 
 349:lvgl/lvgl/src/core/lv_obj_style_gen.h **** static inline lv_text_decor_t lv_obj_get_style_text_decor(const struct _lv_obj_t * obj, uint32_t pa
 350:lvgl/lvgl/src/core/lv_obj_style_gen.h **** {
 351:lvgl/lvgl/src/core/lv_obj_style_gen.h ****     lv_style_value_t v = lv_obj_get_style_prop(obj, part, LV_STYLE_TEXT_DECOR);
 352:lvgl/lvgl/src/core/lv_obj_style_gen.h ****     return (lv_text_decor_t)v.num;
 353:lvgl/lvgl/src/core/lv_obj_style_gen.h **** }
 354:lvgl/lvgl/src/core/lv_obj_style_gen.h **** 
 355:lvgl/lvgl/src/core/lv_obj_style_gen.h **** static inline lv_text_align_t lv_obj_get_style_text_align(const struct _lv_obj_t * obj, uint32_t pa
 356:lvgl/lvgl/src/core/lv_obj_style_gen.h **** {
 357:lvgl/lvgl/src/core/lv_obj_style_gen.h ****     lv_style_value_t v = lv_obj_get_style_prop(obj, part, LV_STYLE_TEXT_ALIGN);
 358:lvgl/lvgl/src/core/lv_obj_style_gen.h ****     return (lv_text_align_t)v.num;
 359:lvgl/lvgl/src/core/lv_obj_style_gen.h **** }
 360:lvgl/lvgl/src/core/lv_obj_style_gen.h **** 
 361:lvgl/lvgl/src/core/lv_obj_style_gen.h **** static inline lv_opa_t lv_obj_get_style_img_opa(const struct _lv_obj_t * obj, uint32_t part)
 362:lvgl/lvgl/src/core/lv_obj_style_gen.h **** {
 363:lvgl/lvgl/src/core/lv_obj_style_gen.h ****     lv_style_value_t v = lv_obj_get_style_prop(obj, part, LV_STYLE_IMG_OPA);
 364:lvgl/lvgl/src/core/lv_obj_style_gen.h ****     return (lv_opa_t)v.num;
 365:lvgl/lvgl/src/core/lv_obj_style_gen.h **** }
 366:lvgl/lvgl/src/core/lv_obj_style_gen.h **** 
 367:lvgl/lvgl/src/core/lv_obj_style_gen.h **** static inline lv_color_t lv_obj_get_style_img_recolor(const struct _lv_obj_t * obj, uint32_t part)
 368:lvgl/lvgl/src/core/lv_obj_style_gen.h **** {
 369:lvgl/lvgl/src/core/lv_obj_style_gen.h ****     lv_style_value_t v = lv_obj_get_style_prop(obj, part, LV_STYLE_IMG_RECOLOR);
 370:lvgl/lvgl/src/core/lv_obj_style_gen.h ****     return v.color;
 371:lvgl/lvgl/src/core/lv_obj_style_gen.h **** }
 372:lvgl/lvgl/src/core/lv_obj_style_gen.h **** 
 373:lvgl/lvgl/src/core/lv_obj_style_gen.h **** static inline lv_color_t lv_obj_get_style_img_recolor_filtered(const struct _lv_obj_t * obj, uint32
 374:lvgl/lvgl/src/core/lv_obj_style_gen.h **** {
 375:lvgl/lvgl/src/core/lv_obj_style_gen.h ****     lv_style_value_t v = lv_obj_get_style_prop(obj, part, LV_STYLE_IMG_RECOLOR_FILTERED);
 376:lvgl/lvgl/src/core/lv_obj_style_gen.h ****     return v.color;
 377:lvgl/lvgl/src/core/lv_obj_style_gen.h **** }
 378:lvgl/lvgl/src/core/lv_obj_style_gen.h **** 
 379:lvgl/lvgl/src/core/lv_obj_style_gen.h **** static inline lv_opa_t lv_obj_get_style_img_recolor_opa(const struct _lv_obj_t * obj, uint32_t part
 380:lvgl/lvgl/src/core/lv_obj_style_gen.h **** {
 381:lvgl/lvgl/src/core/lv_obj_style_gen.h ****     lv_style_value_t v = lv_obj_get_style_prop(obj, part, LV_STYLE_IMG_RECOLOR_OPA);
 382:lvgl/lvgl/src/core/lv_obj_style_gen.h ****     return (lv_opa_t)v.num;
 383:lvgl/lvgl/src/core/lv_obj_style_gen.h **** }
 384:lvgl/lvgl/src/core/lv_obj_style_gen.h **** 
 385:lvgl/lvgl/src/core/lv_obj_style_gen.h **** static inline lv_coord_t lv_obj_get_style_outline_width(const struct _lv_obj_t * obj, uint32_t part
 202              		.loc 2 385 26 view .LVU62
 203              	.LBB161:
 386:lvgl/lvgl/src/core/lv_obj_style_gen.h **** {
 387:lvgl/lvgl/src/core/lv_obj_style_gen.h ****     lv_style_value_t v = lv_obj_get_style_prop(obj, part, LV_STYLE_OUTLINE_WIDTH);
 204              		.loc 2 387 5 view .LVU63
 205              		.loc 2 387 26 is_stmt 0 view .LVU64
 206 007e 40F63A02 		movw	r2, #2106
 207 0082 2946     		mov	r1, r5
 208 0084 3046     		mov	r0, r6
 209 0086 FFF7FEFF 		bl	lv_obj_get_style_prop
 210              	.LVL17:
 388:lvgl/lvgl/src/core/lv_obj_style_gen.h ****     return (lv_coord_t)v.num;
 211              		.loc 2 388 5 is_stmt 1 view .LVU65
 212              		.loc 2 388 12 is_stmt 0 view .LVU66
 213 008a 00B2     		sxth	r0, r0
 214              	.LVL18:
ARM GAS  C:\Users\gx\AppData\Local\Temp\cczBUDp5.s 			page 15


 215              		.loc 2 388 12 view .LVU67
 216              	.LBE161:
 217              	.LBE160:
  81:lvgl/lvgl/src/core/lv_obj_draw.c ****     if(draw_dsc->outline_width) {
 218              		.loc 1 81 29 view .LVU68
 219 008c 6084     		strh	r0, [r4, #34]	@ movhi
  82:lvgl/lvgl/src/core/lv_obj_draw.c ****         if(draw_dsc->outline_opa != LV_OPA_TRANSP) {
 220              		.loc 1 82 5 is_stmt 1 view .LVU69
  82:lvgl/lvgl/src/core/lv_obj_draw.c ****         if(draw_dsc->outline_opa != LV_OPA_TRANSP) {
 221              		.loc 1 82 7 is_stmt 0 view .LVU70
 222 008e 18B1     		cbz	r0, .L8
  83:lvgl/lvgl/src/core/lv_obj_draw.c ****             draw_dsc->outline_opa = lv_obj_get_style_outline_opa(obj, part);
 223              		.loc 1 83 9 is_stmt 1 view .LVU71
  83:lvgl/lvgl/src/core/lv_obj_draw.c ****             draw_dsc->outline_opa = lv_obj_get_style_outline_opa(obj, part);
 224              		.loc 1 83 20 is_stmt 0 view .LVU72
 225 0090 94F82630 		ldrb	r3, [r4, #38]	@ zero_extendqisi2
  83:lvgl/lvgl/src/core/lv_obj_draw.c ****             draw_dsc->outline_opa = lv_obj_get_style_outline_opa(obj, part);
 226              		.loc 1 83 11 view .LVU73
 227 0094 002B     		cmp	r3, #0
 228 0096 74D1     		bne	.L18
 229              	.L8:
  92:lvgl/lvgl/src/core/lv_obj_draw.c ****         draw_dsc->bg_img_src = lv_obj_get_style_bg_img_src(obj, part);
 230              		.loc 1 92 5 is_stmt 1 view .LVU74
  92:lvgl/lvgl/src/core/lv_obj_draw.c ****         draw_dsc->bg_img_src = lv_obj_get_style_bg_img_src(obj, part);
 231              		.loc 1 92 16 is_stmt 0 view .LVU75
 232 0098 A37D     		ldrb	r3, [r4, #22]	@ zero_extendqisi2
  92:lvgl/lvgl/src/core/lv_obj_draw.c ****         draw_dsc->bg_img_src = lv_obj_get_style_bg_img_src(obj, part);
 233              		.loc 1 92 7 view .LVU76
 234 009a 002B     		cmp	r3, #0
 235 009c 40F08B80 		bne	.L19
 236              	.LVL19:
 237              	.L9:
 109:lvgl/lvgl/src/core/lv_obj_draw.c ****         draw_dsc->shadow_width = lv_obj_get_style_shadow_width(obj, part);
 238              		.loc 1 109 5 is_stmt 1 view .LVU77
 109:lvgl/lvgl/src/core/lv_obj_draw.c ****         draw_dsc->shadow_width = lv_obj_get_style_shadow_width(obj, part);
 239              		.loc 1 109 16 is_stmt 0 view .LVU78
 240 00a0 94F83230 		ldrb	r3, [r4, #50]	@ zero_extendqisi2
 109:lvgl/lvgl/src/core/lv_obj_draw.c ****         draw_dsc->shadow_width = lv_obj_get_style_shadow_width(obj, part);
 241              		.loc 1 109 7 view .LVU79
 242 00a4 002B     		cmp	r3, #0
 243 00a6 40F0C380 		bne	.L20
 244              	.L11:
 124:lvgl/lvgl/src/core/lv_obj_draw.c ****         opa = (uint16_t)((uint16_t) main_opa * opa) >> 8;
 245              		.loc 1 124 5 is_stmt 1 view .LVU80
 124:lvgl/lvgl/src/core/lv_obj_draw.c ****         opa = (uint16_t)((uint16_t) main_opa * opa) >> 8;
 246              		.loc 1 124 7 is_stmt 0 view .LVU81
 247 00aa B8F1FC0F 		cmp	r8, #252
 248 00ae 03D8     		bhi	.L12
 125:lvgl/lvgl/src/core/lv_obj_draw.c ****     }
 249              		.loc 1 125 9 is_stmt 1 view .LVU82
 125:lvgl/lvgl/src/core/lv_obj_draw.c ****     }
 250              		.loc 1 125 15 is_stmt 0 view .LVU83
 251 00b0 08FB07F7 		mul	r7, r8, r7
 252              	.LVL20:
 125:lvgl/lvgl/src/core/lv_obj_draw.c ****     }
 253              		.loc 1 125 13 view .LVU84
 254 00b4 C7F30727 		ubfx	r7, r7, #8, #8
ARM GAS  C:\Users\gx\AppData\Local\Temp\cczBUDp5.s 			page 16


 255              	.LVL21:
 256              	.L12:
 128:lvgl/lvgl/src/core/lv_obj_draw.c ****         draw_dsc->bg_opa = (uint16_t)((uint16_t)draw_dsc->bg_opa * opa) >> 8;
 257              		.loc 1 128 5 is_stmt 1 view .LVU85
 128:lvgl/lvgl/src/core/lv_obj_draw.c ****         draw_dsc->bg_opa = (uint16_t)((uint16_t)draw_dsc->bg_opa * opa) >> 8;
 258              		.loc 1 128 7 is_stmt 0 view .LVU86
 259 00b8 FC2F     		cmp	r7, #252
 260 00ba C0D8     		bhi	.L1
 129:lvgl/lvgl/src/core/lv_obj_draw.c ****         draw_dsc->border_opa = (uint16_t)((uint16_t)draw_dsc->border_opa * opa) >> 8;
 261              		.loc 1 129 9 is_stmt 1 view .LVU87
 129:lvgl/lvgl/src/core/lv_obj_draw.c ****         draw_dsc->border_opa = (uint16_t)((uint16_t)draw_dsc->border_opa * opa) >> 8;
 262              		.loc 1 129 57 is_stmt 0 view .LVU88
 263 00bc A37A     		ldrb	r3, [r4, #10]	@ zero_extendqisi2
 129:lvgl/lvgl/src/core/lv_obj_draw.c ****         draw_dsc->border_opa = (uint16_t)((uint16_t)draw_dsc->border_opa * opa) >> 8;
 264              		.loc 1 129 28 view .LVU89
 265 00be 03FB07F3 		mul	r3, r3, r7
 129:lvgl/lvgl/src/core/lv_obj_draw.c ****         draw_dsc->border_opa = (uint16_t)((uint16_t)draw_dsc->border_opa * opa) >> 8;
 266              		.loc 1 129 26 view .LVU90
 267 00c2 1B0A     		lsrs	r3, r3, #8
 268 00c4 A372     		strb	r3, [r4, #10]
 130:lvgl/lvgl/src/core/lv_obj_draw.c ****         draw_dsc->shadow_opa = (uint16_t)((uint16_t)draw_dsc->shadow_opa * opa) >> 8;
 269              		.loc 1 130 9 is_stmt 1 view .LVU91
 130:lvgl/lvgl/src/core/lv_obj_draw.c ****         draw_dsc->shadow_opa = (uint16_t)((uint16_t)draw_dsc->shadow_opa * opa) >> 8;
 270              		.loc 1 130 61 is_stmt 0 view .LVU92
 271 00c6 A37F     		ldrb	r3, [r4, #30]	@ zero_extendqisi2
 130:lvgl/lvgl/src/core/lv_obj_draw.c ****         draw_dsc->shadow_opa = (uint16_t)((uint16_t)draw_dsc->shadow_opa * opa) >> 8;
 272              		.loc 1 130 32 view .LVU93
 273 00c8 07FB03F3 		mul	r3, r7, r3
 130:lvgl/lvgl/src/core/lv_obj_draw.c ****         draw_dsc->shadow_opa = (uint16_t)((uint16_t)draw_dsc->shadow_opa * opa) >> 8;
 274              		.loc 1 130 30 view .LVU94
 275 00cc 1B0A     		lsrs	r3, r3, #8
 276 00ce A377     		strb	r3, [r4, #30]
 131:lvgl/lvgl/src/core/lv_obj_draw.c ****         draw_dsc->outline_opa = (uint16_t)((uint16_t)draw_dsc->outline_opa * opa) >> 8;
 277              		.loc 1 131 9 is_stmt 1 view .LVU95
 131:lvgl/lvgl/src/core/lv_obj_draw.c ****         draw_dsc->outline_opa = (uint16_t)((uint16_t)draw_dsc->outline_opa * opa) >> 8;
 278              		.loc 1 131 61 is_stmt 0 view .LVU96
 279 00d0 94F83230 		ldrb	r3, [r4, #50]	@ zero_extendqisi2
 131:lvgl/lvgl/src/core/lv_obj_draw.c ****         draw_dsc->outline_opa = (uint16_t)((uint16_t)draw_dsc->outline_opa * opa) >> 8;
 280              		.loc 1 131 32 view .LVU97
 281 00d4 07FB03F3 		mul	r3, r7, r3
 131:lvgl/lvgl/src/core/lv_obj_draw.c ****         draw_dsc->outline_opa = (uint16_t)((uint16_t)draw_dsc->outline_opa * opa) >> 8;
 282              		.loc 1 131 30 view .LVU98
 283 00d8 1B0A     		lsrs	r3, r3, #8
 284 00da 84F83230 		strb	r3, [r4, #50]
 132:lvgl/lvgl/src/core/lv_obj_draw.c ****     }
 285              		.loc 1 132 9 is_stmt 1 view .LVU99
 132:lvgl/lvgl/src/core/lv_obj_draw.c ****     }
 286              		.loc 1 132 62 is_stmt 0 view .LVU100
 287 00de 94F82600 		ldrb	r0, [r4, #38]	@ zero_extendqisi2
 288              	.LVL22:
 132:lvgl/lvgl/src/core/lv_obj_draw.c ****     }
 289              		.loc 1 132 33 view .LVU101
 290 00e2 07FB00F7 		mul	r7, r7, r0
 291              	.LVL23:
 132:lvgl/lvgl/src/core/lv_obj_draw.c ****     }
 292              		.loc 1 132 31 view .LVU102
 293 00e6 3F0A     		lsrs	r7, r7, #8
ARM GAS  C:\Users\gx\AppData\Local\Temp\cczBUDp5.s 			page 17


 294 00e8 84F82670 		strb	r7, [r4, #38]
 295 00ec A7E7     		b	.L1
 296              	.LVL24:
 297              	.L16:
  58:lvgl/lvgl/src/core/lv_obj_draw.c ****         if(draw_dsc->bg_opa > LV_OPA_MIN) {
 298              		.loc 1 58 9 is_stmt 1 view .LVU103
 299              	.LBB162:
 300              	.LBI162:
 205:lvgl/lvgl/src/core/lv_obj_style_gen.h **** {
 301              		.loc 2 205 24 view .LVU104
 302              	.LBB163:
 207:lvgl/lvgl/src/core/lv_obj_style_gen.h ****     return (lv_opa_t)v.num;
 303              		.loc 2 207 5 view .LVU105
 207:lvgl/lvgl/src/core/lv_obj_style_gen.h ****     return (lv_opa_t)v.num;
 304              		.loc 2 207 26 is_stmt 0 view .LVU106
 305 00ee 2122     		movs	r2, #33
 306 00f0 2946     		mov	r1, r5
 307 00f2 3046     		mov	r0, r6
 308 00f4 FFF7FEFF 		bl	lv_obj_get_style_prop
 309              	.LVL25:
 208:lvgl/lvgl/src/core/lv_obj_style_gen.h **** }
 310              		.loc 2 208 5 is_stmt 1 view .LVU107
 208:lvgl/lvgl/src/core/lv_obj_style_gen.h **** }
 311              		.loc 2 208 12 is_stmt 0 view .LVU108
 312 00f8 C0B2     		uxtb	r0, r0
 313              	.LVL26:
 208:lvgl/lvgl/src/core/lv_obj_style_gen.h **** }
 314              		.loc 2 208 12 view .LVU109
 315              	.LBE163:
 316              	.LBE162:
  58:lvgl/lvgl/src/core/lv_obj_draw.c ****         if(draw_dsc->bg_opa > LV_OPA_MIN) {
 317              		.loc 1 58 26 view .LVU110
 318 00fa A072     		strb	r0, [r4, #10]
  59:lvgl/lvgl/src/core/lv_obj_draw.c ****             draw_dsc->bg_color = lv_obj_get_style_bg_color_filtered(obj, part);
 319              		.loc 1 59 9 is_stmt 1 view .LVU111
  59:lvgl/lvgl/src/core/lv_obj_draw.c ****             draw_dsc->bg_color = lv_obj_get_style_bg_color_filtered(obj, part);
 320              		.loc 1 59 11 is_stmt 0 view .LVU112
 321 00fc 0228     		cmp	r0, #2
 322 00fe B2D9     		bls	.L6
  60:lvgl/lvgl/src/core/lv_obj_draw.c ****             draw_dsc->bg_grad_dir =  lv_obj_get_style_bg_grad_dir(obj, part);
 323              		.loc 1 60 13 is_stmt 1 view .LVU113
 324              	.LVL27:
 325              	.LBB164:
 326              	.LBI164:
 199:lvgl/lvgl/src/core/lv_obj_style_gen.h **** {
 327              		.loc 2 199 26 view .LVU114
 328              	.LBB165:
 201:lvgl/lvgl/src/core/lv_obj_style_gen.h ****     return v.color;
 329              		.loc 2 201 5 view .LVU115
 201:lvgl/lvgl/src/core/lv_obj_style_gen.h ****     return v.color;
 330              		.loc 2 201 26 is_stmt 0 view .LVU116
 331 0100 44F22002 		movw	r2, #16416
 332 0104 2946     		mov	r1, r5
 333 0106 3046     		mov	r0, r6
 334 0108 FFF7FEFF 		bl	lv_obj_get_style_prop
 335              	.LVL28:
 202:lvgl/lvgl/src/core/lv_obj_style_gen.h **** }
ARM GAS  C:\Users\gx\AppData\Local\Temp\cczBUDp5.s 			page 18


 336              		.loc 2 202 5 is_stmt 1 view .LVU117
 202:lvgl/lvgl/src/core/lv_obj_style_gen.h **** }
 337              		.loc 2 202 5 is_stmt 0 view .LVU118
 338              	.LBE165:
 339              	.LBE164:
  60:lvgl/lvgl/src/core/lv_obj_draw.c ****             draw_dsc->bg_grad_dir =  lv_obj_get_style_bg_grad_dir(obj, part);
 340              		.loc 1 60 34 view .LVU119
 341 010c A080     		strh	r0, [r4, #4]	@ movhi
  61:lvgl/lvgl/src/core/lv_obj_draw.c ****             if(draw_dsc->bg_grad_dir != LV_GRAD_DIR_NONE) {
 342              		.loc 1 61 13 is_stmt 1 view .LVU120
 343              	.LVL29:
 344              	.LBB166:
 345              	.LBI166:
 223:lvgl/lvgl/src/core/lv_obj_style_gen.h **** {
 346              		.loc 2 223 29 view .LVU121
 347              	.LBB167:
 225:lvgl/lvgl/src/core/lv_obj_style_gen.h ****     return (lv_grad_dir_t)v.num;
 348              		.loc 2 225 5 view .LVU122
 225:lvgl/lvgl/src/core/lv_obj_style_gen.h ****     return (lv_grad_dir_t)v.num;
 349              		.loc 2 225 26 is_stmt 0 view .LVU123
 350 010e 2322     		movs	r2, #35
 351 0110 2946     		mov	r1, r5
 352 0112 3046     		mov	r0, r6
 353 0114 FFF7FEFF 		bl	lv_obj_get_style_prop
 354              	.LVL30:
 226:lvgl/lvgl/src/core/lv_obj_style_gen.h **** }
 355              		.loc 2 226 5 is_stmt 1 view .LVU124
 226:lvgl/lvgl/src/core/lv_obj_style_gen.h **** }
 356              		.loc 2 226 5 is_stmt 0 view .LVU125
 357              	.LBE167:
 358              	.LBE166:
  61:lvgl/lvgl/src/core/lv_obj_draw.c ****             if(draw_dsc->bg_grad_dir != LV_GRAD_DIR_NONE) {
 359              		.loc 1 61 35 view .LVU126
 360 0118 E37A     		ldrb	r3, [r4, #11]	@ zero_extendqisi2
 361 011a 60F30203 		bfi	r3, r0, #0, #3
 362 011e E372     		strb	r3, [r4, #11]
  62:lvgl/lvgl/src/core/lv_obj_draw.c ****                 draw_dsc->bg_grad_color = lv_obj_get_style_bg_grad_color_filtered(obj, part);
 363              		.loc 1 62 13 is_stmt 1 view .LVU127
  62:lvgl/lvgl/src/core/lv_obj_draw.c ****                 draw_dsc->bg_grad_color = lv_obj_get_style_bg_grad_color_filtered(obj, part);
 364              		.loc 1 62 15 is_stmt 0 view .LVU128
 365 0120 13F0070F 		tst	r3, #7
 366 0124 9FD0     		beq	.L6
  63:lvgl/lvgl/src/core/lv_obj_draw.c ****                 draw_dsc->bg_main_color_stop =  lv_obj_get_style_bg_main_stop(obj, part);
 367              		.loc 1 63 17 is_stmt 1 view .LVU129
 368              	.LVL31:
 369              	.LBB168:
 370              	.LBI168:
 217:lvgl/lvgl/src/core/lv_obj_style_gen.h **** {
 371              		.loc 2 217 26 view .LVU130
 372              	.LBB169:
 219:lvgl/lvgl/src/core/lv_obj_style_gen.h ****     return v.color;
 373              		.loc 2 219 5 view .LVU131
 219:lvgl/lvgl/src/core/lv_obj_style_gen.h ****     return v.color;
 374              		.loc 2 219 26 is_stmt 0 view .LVU132
 375 0126 44F22202 		movw	r2, #16418
 376 012a 2946     		mov	r1, r5
 377 012c 3046     		mov	r0, r6
ARM GAS  C:\Users\gx\AppData\Local\Temp\cczBUDp5.s 			page 19


 378 012e FFF7FEFF 		bl	lv_obj_get_style_prop
 379              	.LVL32:
 220:lvgl/lvgl/src/core/lv_obj_style_gen.h **** }
 380              		.loc 2 220 5 is_stmt 1 view .LVU133
 220:lvgl/lvgl/src/core/lv_obj_style_gen.h **** }
 381              		.loc 2 220 5 is_stmt 0 view .LVU134
 382              	.LBE169:
 383              	.LBE168:
  63:lvgl/lvgl/src/core/lv_obj_draw.c ****                 draw_dsc->bg_main_color_stop =  lv_obj_get_style_bg_main_stop(obj, part);
 384              		.loc 1 63 43 view .LVU135
 385 0132 E080     		strh	r0, [r4, #6]	@ movhi
  64:lvgl/lvgl/src/core/lv_obj_draw.c ****                 draw_dsc->bg_grad_color_stop =  lv_obj_get_style_bg_grad_stop(obj, part);
 386              		.loc 1 64 17 is_stmt 1 view .LVU136
 387              	.LVL33:
 388              	.LBB170:
 389              	.LBI170:
 229:lvgl/lvgl/src/core/lv_obj_style_gen.h **** {
 390              		.loc 2 229 26 view .LVU137
 391              	.LBB171:
 231:lvgl/lvgl/src/core/lv_obj_style_gen.h ****     return (lv_coord_t)v.num;
 392              		.loc 2 231 5 view .LVU138
 231:lvgl/lvgl/src/core/lv_obj_style_gen.h ****     return (lv_coord_t)v.num;
 393              		.loc 2 231 26 is_stmt 0 view .LVU139
 394 0134 2422     		movs	r2, #36
 395 0136 2946     		mov	r1, r5
 396 0138 3046     		mov	r0, r6
 397 013a FFF7FEFF 		bl	lv_obj_get_style_prop
 398              	.LVL34:
 232:lvgl/lvgl/src/core/lv_obj_style_gen.h **** }
 399              		.loc 2 232 5 is_stmt 1 view .LVU140
 232:lvgl/lvgl/src/core/lv_obj_style_gen.h **** }
 400              		.loc 2 232 5 is_stmt 0 view .LVU141
 401              	.LBE171:
 402              	.LBE170:
  64:lvgl/lvgl/src/core/lv_obj_draw.c ****                 draw_dsc->bg_grad_color_stop =  lv_obj_get_style_bg_grad_stop(obj, part);
 403              		.loc 1 64 46 view .LVU142
 404 013e 2072     		strb	r0, [r4, #8]
  65:lvgl/lvgl/src/core/lv_obj_draw.c ****             }
 405              		.loc 1 65 17 is_stmt 1 view .LVU143
 406              	.LVL35:
 407              	.LBB172:
 408              	.LBI172:
 235:lvgl/lvgl/src/core/lv_obj_style_gen.h **** {
 409              		.loc 2 235 26 view .LVU144
 410              	.LBB173:
 237:lvgl/lvgl/src/core/lv_obj_style_gen.h ****     return (lv_coord_t)v.num;
 411              		.loc 2 237 5 view .LVU145
 237:lvgl/lvgl/src/core/lv_obj_style_gen.h ****     return (lv_coord_t)v.num;
 412              		.loc 2 237 26 is_stmt 0 view .LVU146
 413 0140 2522     		movs	r2, #37
 414 0142 2946     		mov	r1, r5
 415 0144 3046     		mov	r0, r6
 416 0146 FFF7FEFF 		bl	lv_obj_get_style_prop
 417              	.LVL36:
 238:lvgl/lvgl/src/core/lv_obj_style_gen.h **** }
 418              		.loc 2 238 5 is_stmt 1 view .LVU147
 238:lvgl/lvgl/src/core/lv_obj_style_gen.h **** }
ARM GAS  C:\Users\gx\AppData\Local\Temp\cczBUDp5.s 			page 20


 419              		.loc 2 238 5 is_stmt 0 view .LVU148
 420              	.LBE173:
 421              	.LBE172:
  65:lvgl/lvgl/src/core/lv_obj_draw.c ****             }
 422              		.loc 1 65 46 view .LVU149
 423 014a 6072     		strb	r0, [r4, #9]
 424 014c 8BE7     		b	.L6
 425              	.L17:
  73:lvgl/lvgl/src/core/lv_obj_draw.c ****             if(draw_dsc->border_opa > LV_OPA_MIN) {
 426              		.loc 1 73 13 is_stmt 1 view .LVU150
 427              	.LVL37:
 428              	.LBB174:
 429              	.LBI174:
 289:lvgl/lvgl/src/core/lv_obj_style_gen.h **** {
 430              		.loc 2 289 24 view .LVU151
 431              	.LBB175:
 291:lvgl/lvgl/src/core/lv_obj_style_gen.h ****     return (lv_opa_t)v.num;
 432              		.loc 2 291 5 view .LVU152
 291:lvgl/lvgl/src/core/lv_obj_style_gen.h ****     return (lv_opa_t)v.num;
 433              		.loc 2 291 26 is_stmt 0 view .LVU153
 434 014e 3122     		movs	r2, #49
 435 0150 2946     		mov	r1, r5
 436 0152 3046     		mov	r0, r6
 437 0154 FFF7FEFF 		bl	lv_obj_get_style_prop
 438              	.LVL38:
 292:lvgl/lvgl/src/core/lv_obj_style_gen.h **** }
 439              		.loc 2 292 5 is_stmt 1 view .LVU154
 292:lvgl/lvgl/src/core/lv_obj_style_gen.h **** }
 440              		.loc 2 292 12 is_stmt 0 view .LVU155
 441 0158 C0B2     		uxtb	r0, r0
 442              	.LVL39:
 292:lvgl/lvgl/src/core/lv_obj_style_gen.h **** }
 443              		.loc 2 292 12 view .LVU156
 444              	.LBE175:
 445              	.LBE174:
  73:lvgl/lvgl/src/core/lv_obj_draw.c ****             if(draw_dsc->border_opa > LV_OPA_MIN) {
 446              		.loc 1 73 34 view .LVU157
 447 015a A077     		strb	r0, [r4, #30]
  74:lvgl/lvgl/src/core/lv_obj_draw.c ****                 draw_dsc->border_side = lv_obj_get_style_border_side(obj, part);
 448              		.loc 1 74 13 is_stmt 1 view .LVU158
  74:lvgl/lvgl/src/core/lv_obj_draw.c ****                 draw_dsc->border_side = lv_obj_get_style_border_side(obj, part);
 449              		.loc 1 74 15 is_stmt 0 view .LVU159
 450 015c 0228     		cmp	r0, #2
 451 015e 8ED9     		bls	.L7
  75:lvgl/lvgl/src/core/lv_obj_draw.c ****                 draw_dsc->border_color = lv_obj_get_style_border_color_filtered(obj, part);
 452              		.loc 1 75 17 is_stmt 1 view .LVU160
 453              	.LVL40:
 454              	.LBB176:
 455              	.LBI176:
 301:lvgl/lvgl/src/core/lv_obj_style_gen.h **** {
 456              		.loc 2 301 32 view .LVU161
 457              	.LBB177:
 303:lvgl/lvgl/src/core/lv_obj_style_gen.h ****     return (lv_border_side_t)v.num;
 458              		.loc 2 303 5 view .LVU162
 303:lvgl/lvgl/src/core/lv_obj_style_gen.h ****     return (lv_border_side_t)v.num;
 459              		.loc 2 303 26 is_stmt 0 view .LVU163
 460 0160 3322     		movs	r2, #51
ARM GAS  C:\Users\gx\AppData\Local\Temp\cczBUDp5.s 			page 21


 461 0162 2946     		mov	r1, r5
 462 0164 3046     		mov	r0, r6
 463 0166 FFF7FEFF 		bl	lv_obj_get_style_prop
 464              	.LVL41:
 304:lvgl/lvgl/src/core/lv_obj_style_gen.h **** }
 465              		.loc 2 304 5 is_stmt 1 view .LVU164
 304:lvgl/lvgl/src/core/lv_obj_style_gen.h **** }
 466              		.loc 2 304 5 is_stmt 0 view .LVU165
 467              	.LBE177:
 468              	.LBE176:
  75:lvgl/lvgl/src/core/lv_obj_draw.c ****                 draw_dsc->border_color = lv_obj_get_style_border_color_filtered(obj, part);
 469              		.loc 1 75 39 view .LVU166
 470 016a E37F     		ldrb	r3, [r4, #31]	@ zero_extendqisi2
 471 016c 60F34503 		bfi	r3, r0, #1, #5
 472 0170 E377     		strb	r3, [r4, #31]
  76:lvgl/lvgl/src/core/lv_obj_draw.c ****             }
 473              		.loc 1 76 17 is_stmt 1 view .LVU167
 474              	.LVL42:
 475              	.LBB178:
 476              	.LBI178:
 283:lvgl/lvgl/src/core/lv_obj_style_gen.h **** {
 477              		.loc 2 283 26 view .LVU168
 478              	.LBB179:
 285:lvgl/lvgl/src/core/lv_obj_style_gen.h ****     return v.color;
 479              		.loc 2 285 5 view .LVU169
 285:lvgl/lvgl/src/core/lv_obj_style_gen.h ****     return v.color;
 480              		.loc 2 285 26 is_stmt 0 view .LVU170
 481 0172 44F23002 		movw	r2, #16432
 482 0176 2946     		mov	r1, r5
 483 0178 3046     		mov	r0, r6
 484 017a FFF7FEFF 		bl	lv_obj_get_style_prop
 485              	.LVL43:
 286:lvgl/lvgl/src/core/lv_obj_style_gen.h **** }
 486              		.loc 2 286 5 is_stmt 1 view .LVU171
 286:lvgl/lvgl/src/core/lv_obj_style_gen.h **** }
 487              		.loc 2 286 5 is_stmt 0 view .LVU172
 488              	.LBE179:
 489              	.LBE178:
  76:lvgl/lvgl/src/core/lv_obj_draw.c ****             }
 490              		.loc 1 76 42 view .LVU173
 491 017e 6083     		strh	r0, [r4, #26]	@ movhi
 492 0180 7DE7     		b	.L7
 493              	.L18:
  84:lvgl/lvgl/src/core/lv_obj_draw.c ****             if(draw_dsc->outline_opa > LV_OPA_MIN) {
 494              		.loc 1 84 13 is_stmt 1 view .LVU174
 495              	.LVL44:
 496              	.LBB180:
 497              	.LBI180:
 389:lvgl/lvgl/src/core/lv_obj_style_gen.h **** }
 390:lvgl/lvgl/src/core/lv_obj_style_gen.h **** 
 391:lvgl/lvgl/src/core/lv_obj_style_gen.h **** static inline lv_color_t lv_obj_get_style_outline_color(const struct _lv_obj_t * obj, uint32_t part
 392:lvgl/lvgl/src/core/lv_obj_style_gen.h **** {
 393:lvgl/lvgl/src/core/lv_obj_style_gen.h ****     lv_style_value_t v = lv_obj_get_style_prop(obj, part, LV_STYLE_OUTLINE_COLOR);
 394:lvgl/lvgl/src/core/lv_obj_style_gen.h ****     return v.color;
 395:lvgl/lvgl/src/core/lv_obj_style_gen.h **** }
 396:lvgl/lvgl/src/core/lv_obj_style_gen.h **** 
 397:lvgl/lvgl/src/core/lv_obj_style_gen.h **** static inline lv_color_t lv_obj_get_style_outline_color_filtered(const struct _lv_obj_t * obj, uint
ARM GAS  C:\Users\gx\AppData\Local\Temp\cczBUDp5.s 			page 22


 398:lvgl/lvgl/src/core/lv_obj_style_gen.h **** {
 399:lvgl/lvgl/src/core/lv_obj_style_gen.h ****     lv_style_value_t v = lv_obj_get_style_prop(obj, part, LV_STYLE_OUTLINE_COLOR_FILTERED);
 400:lvgl/lvgl/src/core/lv_obj_style_gen.h ****     return v.color;
 401:lvgl/lvgl/src/core/lv_obj_style_gen.h **** }
 402:lvgl/lvgl/src/core/lv_obj_style_gen.h **** 
 403:lvgl/lvgl/src/core/lv_obj_style_gen.h **** static inline lv_opa_t lv_obj_get_style_outline_opa(const struct _lv_obj_t * obj, uint32_t part)
 498              		.loc 2 403 24 view .LVU175
 499              	.LBB181:
 404:lvgl/lvgl/src/core/lv_obj_style_gen.h **** {
 405:lvgl/lvgl/src/core/lv_obj_style_gen.h ****     lv_style_value_t v = lv_obj_get_style_prop(obj, part, LV_STYLE_OUTLINE_OPA);
 500              		.loc 2 405 5 view .LVU176
 501              		.loc 2 405 26 is_stmt 0 view .LVU177
 502 0182 40F63C02 		movw	r2, #2108
 503 0186 2946     		mov	r1, r5
 504 0188 3046     		mov	r0, r6
 505 018a FFF7FEFF 		bl	lv_obj_get_style_prop
 506              	.LVL45:
 406:lvgl/lvgl/src/core/lv_obj_style_gen.h ****     return (lv_opa_t)v.num;
 507              		.loc 2 406 5 is_stmt 1 view .LVU178
 508              		.loc 2 406 12 is_stmt 0 view .LVU179
 509 018e C0B2     		uxtb	r0, r0
 510              	.LVL46:
 511              		.loc 2 406 12 view .LVU180
 512              	.LBE181:
 513              	.LBE180:
  84:lvgl/lvgl/src/core/lv_obj_draw.c ****             if(draw_dsc->outline_opa > LV_OPA_MIN) {
 514              		.loc 1 84 35 view .LVU181
 515 0190 84F82600 		strb	r0, [r4, #38]
  85:lvgl/lvgl/src/core/lv_obj_draw.c ****                 draw_dsc->outline_pad = lv_obj_get_style_outline_pad(obj, part);
 516              		.loc 1 85 13 is_stmt 1 view .LVU182
  85:lvgl/lvgl/src/core/lv_obj_draw.c ****                 draw_dsc->outline_pad = lv_obj_get_style_outline_pad(obj, part);
 517              		.loc 1 85 15 is_stmt 0 view .LVU183
 518 0194 0228     		cmp	r0, #2
 519 0196 7FF67FAF 		bls	.L8
  86:lvgl/lvgl/src/core/lv_obj_draw.c ****                 draw_dsc->outline_color = lv_obj_get_style_outline_color(obj, part);
 520              		.loc 1 86 17 is_stmt 1 view .LVU184
 521              	.LVL47:
 522              	.LBB182:
 523              	.LBI182:
 407:lvgl/lvgl/src/core/lv_obj_style_gen.h **** }
 408:lvgl/lvgl/src/core/lv_obj_style_gen.h **** 
 409:lvgl/lvgl/src/core/lv_obj_style_gen.h **** static inline lv_coord_t lv_obj_get_style_outline_pad(const struct _lv_obj_t * obj, uint32_t part)
 524              		.loc 2 409 26 view .LVU185
 525              	.LBB183:
 410:lvgl/lvgl/src/core/lv_obj_style_gen.h **** {
 411:lvgl/lvgl/src/core/lv_obj_style_gen.h ****     lv_style_value_t v = lv_obj_get_style_prop(obj, part, LV_STYLE_OUTLINE_PAD);
 526              		.loc 2 411 5 view .LVU186
 527              		.loc 2 411 26 is_stmt 0 view .LVU187
 528 019a 40F63D02 		movw	r2, #2109
 529 019e 2946     		mov	r1, r5
 530 01a0 3046     		mov	r0, r6
 531 01a2 FFF7FEFF 		bl	lv_obj_get_style_prop
 532              	.LVL48:
 412:lvgl/lvgl/src/core/lv_obj_style_gen.h ****     return (lv_coord_t)v.num;
 533              		.loc 2 412 5 is_stmt 1 view .LVU188
 534              		.loc 2 412 5 is_stmt 0 view .LVU189
 535              	.LBE183:
ARM GAS  C:\Users\gx\AppData\Local\Temp\cczBUDp5.s 			page 23


 536              	.LBE182:
  86:lvgl/lvgl/src/core/lv_obj_draw.c ****                 draw_dsc->outline_color = lv_obj_get_style_outline_color(obj, part);
 537              		.loc 1 86 39 view .LVU190
 538 01a6 A084     		strh	r0, [r4, #36]	@ movhi
  87:lvgl/lvgl/src/core/lv_obj_draw.c ****             }
 539              		.loc 1 87 17 is_stmt 1 view .LVU191
 540              	.LVL49:
 541              	.LBB184:
 542              	.LBI184:
 391:lvgl/lvgl/src/core/lv_obj_style_gen.h **** {
 543              		.loc 2 391 26 view .LVU192
 544              	.LBB185:
 393:lvgl/lvgl/src/core/lv_obj_style_gen.h ****     return v.color;
 545              		.loc 2 393 5 view .LVU193
 393:lvgl/lvgl/src/core/lv_obj_style_gen.h ****     return v.color;
 546              		.loc 2 393 26 is_stmt 0 view .LVU194
 547 01a8 3B22     		movs	r2, #59
 548 01aa 2946     		mov	r1, r5
 549 01ac 3046     		mov	r0, r6
 550 01ae FFF7FEFF 		bl	lv_obj_get_style_prop
 551              	.LVL50:
 394:lvgl/lvgl/src/core/lv_obj_style_gen.h **** }
 552              		.loc 2 394 5 is_stmt 1 view .LVU195
 394:lvgl/lvgl/src/core/lv_obj_style_gen.h **** }
 553              		.loc 2 394 5 is_stmt 0 view .LVU196
 554              	.LBE185:
 555              	.LBE184:
  87:lvgl/lvgl/src/core/lv_obj_draw.c ****             }
 556              		.loc 1 87 43 view .LVU197
 557 01b2 2084     		strh	r0, [r4, #32]	@ movhi
 558 01b4 70E7     		b	.L8
 559              	.L19:
  93:lvgl/lvgl/src/core/lv_obj_draw.c ****         if(draw_dsc->bg_img_src) {
 560              		.loc 1 93 9 is_stmt 1 view .LVU198
 561              	.LVL51:
 562              	.LBB186:
 563              	.LBI186:
 241:lvgl/lvgl/src/core/lv_obj_style_gen.h **** {
 564              		.loc 2 241 28 view .LVU199
 565              	.LBB187:
 243:lvgl/lvgl/src/core/lv_obj_style_gen.h ****     return (const void *)v.ptr;
 566              		.loc 2 243 5 view .LVU200
 243:lvgl/lvgl/src/core/lv_obj_style_gen.h ****     return (const void *)v.ptr;
 567              		.loc 2 243 26 is_stmt 0 view .LVU201
 568 01b6 2622     		movs	r2, #38
 569 01b8 2946     		mov	r1, r5
 570 01ba 3046     		mov	r0, r6
 571 01bc FFF7FEFF 		bl	lv_obj_get_style_prop
 572              	.LVL52:
 244:lvgl/lvgl/src/core/lv_obj_style_gen.h **** }
 573              		.loc 2 244 5 is_stmt 1 view .LVU202
 244:lvgl/lvgl/src/core/lv_obj_style_gen.h **** }
 574              		.loc 2 244 5 is_stmt 0 view .LVU203
 575              	.LBE187:
 576              	.LBE186:
  93:lvgl/lvgl/src/core/lv_obj_draw.c ****         if(draw_dsc->bg_img_src) {
 577              		.loc 1 93 30 view .LVU204
ARM GAS  C:\Users\gx\AppData\Local\Temp\cczBUDp5.s 			page 24


 578 01c0 E060     		str	r0, [r4, #12]
  94:lvgl/lvgl/src/core/lv_obj_draw.c ****             draw_dsc->bg_img_opa = lv_obj_get_style_bg_img_opa(obj, part);
 579              		.loc 1 94 9 is_stmt 1 view .LVU205
  94:lvgl/lvgl/src/core/lv_obj_draw.c ****             draw_dsc->bg_img_opa = lv_obj_get_style_bg_img_opa(obj, part);
 580              		.loc 1 94 11 is_stmt 0 view .LVU206
 581 01c2 0028     		cmp	r0, #0
 582 01c4 3FF46CAF 		beq	.L9
  95:lvgl/lvgl/src/core/lv_obj_draw.c ****             if(draw_dsc->bg_img_opa > LV_OPA_MIN) {
 583              		.loc 1 95 13 is_stmt 1 view .LVU207
 584              	.LVL53:
 585              	.LBB188:
 586              	.LBI188:
 247:lvgl/lvgl/src/core/lv_obj_style_gen.h **** {
 587              		.loc 2 247 24 view .LVU208
 588              	.LBB189:
 249:lvgl/lvgl/src/core/lv_obj_style_gen.h ****     return (lv_opa_t)v.num;
 589              		.loc 2 249 5 view .LVU209
 249:lvgl/lvgl/src/core/lv_obj_style_gen.h ****     return (lv_opa_t)v.num;
 590              		.loc 2 249 26 is_stmt 0 view .LVU210
 591 01c8 2722     		movs	r2, #39
 592 01ca 2946     		mov	r1, r5
 593 01cc 3046     		mov	r0, r6
 594              	.LVL54:
 249:lvgl/lvgl/src/core/lv_obj_style_gen.h ****     return (lv_opa_t)v.num;
 595              		.loc 2 249 26 view .LVU211
 596 01ce FFF7FEFF 		bl	lv_obj_get_style_prop
 597              	.LVL55:
 250:lvgl/lvgl/src/core/lv_obj_style_gen.h **** }
 598              		.loc 2 250 5 is_stmt 1 view .LVU212
 250:lvgl/lvgl/src/core/lv_obj_style_gen.h **** }
 599              		.loc 2 250 12 is_stmt 0 view .LVU213
 600 01d2 C0B2     		uxtb	r0, r0
 601              	.LVL56:
 250:lvgl/lvgl/src/core/lv_obj_style_gen.h **** }
 602              		.loc 2 250 12 view .LVU214
 603              	.LBE189:
 604              	.LBE188:
  95:lvgl/lvgl/src/core/lv_obj_draw.c ****             if(draw_dsc->bg_img_opa > LV_OPA_MIN) {
 605              		.loc 1 95 34 view .LVU215
 606 01d4 A075     		strb	r0, [r4, #22]
  96:lvgl/lvgl/src/core/lv_obj_draw.c ****                 if(lv_img_src_get_type(draw_dsc->bg_img_src) == LV_IMG_SRC_SYMBOL) {
 607              		.loc 1 96 13 is_stmt 1 view .LVU216
  96:lvgl/lvgl/src/core/lv_obj_draw.c ****                 if(lv_img_src_get_type(draw_dsc->bg_img_src) == LV_IMG_SRC_SYMBOL) {
 608              		.loc 1 96 15 is_stmt 0 view .LVU217
 609 01d6 0228     		cmp	r0, #2
 610 01d8 7FF662AF 		bls	.L9
  97:lvgl/lvgl/src/core/lv_obj_draw.c ****                     draw_dsc->bg_img_symbol_font= lv_obj_get_style_text_font(obj, part);
 611              		.loc 1 97 17 is_stmt 1 view .LVU218
  97:lvgl/lvgl/src/core/lv_obj_draw.c ****                     draw_dsc->bg_img_symbol_font= lv_obj_get_style_text_font(obj, part);
 612              		.loc 1 97 20 is_stmt 0 view .LVU219
 613 01dc E068     		ldr	r0, [r4, #12]
 614 01de FFF7FEFF 		bl	lv_img_src_get_type
 615              	.LVL57:
  97:lvgl/lvgl/src/core/lv_obj_draw.c ****                     draw_dsc->bg_img_symbol_font= lv_obj_get_style_text_font(obj, part);
 616              		.loc 1 97 19 view .LVU220
 617 01e2 0228     		cmp	r0, #2
 618 01e4 15D0     		beq	.L21
ARM GAS  C:\Users\gx\AppData\Local\Temp\cczBUDp5.s 			page 25


 101:lvgl/lvgl/src/core/lv_obj_draw.c ****                     draw_dsc->bg_img_recolor_opa = lv_obj_get_style_bg_img_recolor_opa(obj, part);
 619              		.loc 1 101 21 is_stmt 1 view .LVU221
 620              	.LVL58:
 621              	.LBB190:
 622              	.LBI190:
 253:lvgl/lvgl/src/core/lv_obj_style_gen.h **** {
 623              		.loc 2 253 26 view .LVU222
 624              	.LBB191:
 255:lvgl/lvgl/src/core/lv_obj_style_gen.h ****     return v.color;
 625              		.loc 2 255 5 view .LVU223
 255:lvgl/lvgl/src/core/lv_obj_style_gen.h ****     return v.color;
 626              		.loc 2 255 26 is_stmt 0 view .LVU224
 627 01e6 2822     		movs	r2, #40
 628 01e8 2946     		mov	r1, r5
 629 01ea 3046     		mov	r0, r6
 630 01ec FFF7FEFF 		bl	lv_obj_get_style_prop
 631              	.LVL59:
 256:lvgl/lvgl/src/core/lv_obj_style_gen.h **** }
 632              		.loc 2 256 5 is_stmt 1 view .LVU225
 256:lvgl/lvgl/src/core/lv_obj_style_gen.h **** }
 633              		.loc 2 256 5 is_stmt 0 view .LVU226
 634              	.LBE191:
 635              	.LBE190:
 101:lvgl/lvgl/src/core/lv_obj_draw.c ****                     draw_dsc->bg_img_recolor_opa = lv_obj_get_style_bg_img_recolor_opa(obj, part);
 636              		.loc 1 101 48 view .LVU227
 637 01f0 A082     		strh	r0, [r4, #20]	@ movhi
 102:lvgl/lvgl/src/core/lv_obj_draw.c ****                     draw_dsc->bg_img_tiled = lv_obj_get_style_bg_img_tiled(obj, part);
 638              		.loc 1 102 21 is_stmt 1 view .LVU228
 639              	.LVL60:
 640              	.LBB192:
 641              	.LBI192:
 265:lvgl/lvgl/src/core/lv_obj_style_gen.h **** {
 642              		.loc 2 265 24 view .LVU229
 643              	.LBB193:
 267:lvgl/lvgl/src/core/lv_obj_style_gen.h ****     return (lv_opa_t)v.num;
 644              		.loc 2 267 5 view .LVU230
 267:lvgl/lvgl/src/core/lv_obj_style_gen.h ****     return (lv_opa_t)v.num;
 645              		.loc 2 267 26 is_stmt 0 view .LVU231
 646 01f2 2922     		movs	r2, #41
 647 01f4 2946     		mov	r1, r5
 648 01f6 3046     		mov	r0, r6
 649 01f8 FFF7FEFF 		bl	lv_obj_get_style_prop
 650              	.LVL61:
 268:lvgl/lvgl/src/core/lv_obj_style_gen.h **** }
 651              		.loc 2 268 5 is_stmt 1 view .LVU232
 268:lvgl/lvgl/src/core/lv_obj_style_gen.h **** }
 652              		.loc 2 268 5 is_stmt 0 view .LVU233
 653              	.LBE193:
 654              	.LBE192:
 102:lvgl/lvgl/src/core/lv_obj_draw.c ****                     draw_dsc->bg_img_tiled = lv_obj_get_style_bg_img_tiled(obj, part);
 655              		.loc 1 102 50 view .LVU234
 656 01fc E075     		strb	r0, [r4, #23]
 103:lvgl/lvgl/src/core/lv_obj_draw.c ****                 }
 657              		.loc 1 103 21 is_stmt 1 view .LVU235
 658              	.LVL62:
 659              	.LBB194:
 660              	.LBI194:
ARM GAS  C:\Users\gx\AppData\Local\Temp\cczBUDp5.s 			page 26


 271:lvgl/lvgl/src/core/lv_obj_style_gen.h **** {
 661              		.loc 2 271 20 view .LVU236
 662              	.LBB195:
 273:lvgl/lvgl/src/core/lv_obj_style_gen.h ****     return (bool)v.num;
 663              		.loc 2 273 5 view .LVU237
 273:lvgl/lvgl/src/core/lv_obj_style_gen.h ****     return (bool)v.num;
 664              		.loc 2 273 26 is_stmt 0 view .LVU238
 665 01fe 2A22     		movs	r2, #42
 666 0200 2946     		mov	r1, r5
 667 0202 3046     		mov	r0, r6
 668 0204 FFF7FEFF 		bl	lv_obj_get_style_prop
 669              	.LVL63:
 274:lvgl/lvgl/src/core/lv_obj_style_gen.h **** }
 670              		.loc 2 274 5 is_stmt 1 view .LVU239
 274:lvgl/lvgl/src/core/lv_obj_style_gen.h **** }
 671              		.loc 2 274 12 is_stmt 0 view .LVU240
 672 0208 031E     		subs	r3, r0, #0
 673 020a 18BF     		it	ne
 674 020c 0123     		movne	r3, #1
 675              	.LVL64:
 274:lvgl/lvgl/src/core/lv_obj_style_gen.h **** }
 676              		.loc 2 274 12 view .LVU241
 677              	.LBE195:
 678              	.LBE194:
 103:lvgl/lvgl/src/core/lv_obj_draw.c ****                 }
 679              		.loc 1 103 44 view .LVU242
 680 020e 2376     		strb	r3, [r4, #24]
 681 0210 46E7     		b	.L9
 682              	.L21:
  98:lvgl/lvgl/src/core/lv_obj_draw.c ****                     draw_dsc->bg_img_recolor = lv_obj_get_style_text_color(obj, part);
 683              		.loc 1 98 21 is_stmt 1 view .LVU243
 684              	.LVL65:
 685              	.LBB196:
 686              	.LBI196:
 331:lvgl/lvgl/src/core/lv_obj_style_gen.h **** {
 687              		.loc 2 331 33 view .LVU244
 688              	.LBB197:
 333:lvgl/lvgl/src/core/lv_obj_style_gen.h ****     return (const lv_font_t *)v.ptr;
 689              		.loc 2 333 5 view .LVU245
 333:lvgl/lvgl/src/core/lv_obj_style_gen.h ****     return (const lv_font_t *)v.ptr;
 690              		.loc 2 333 26 is_stmt 0 view .LVU246
 691 0212 41F25942 		movw	r2, #5209
 692 0216 2946     		mov	r1, r5
 693 0218 3046     		mov	r0, r6
 694 021a FFF7FEFF 		bl	lv_obj_get_style_prop
 695              	.LVL66:
 334:lvgl/lvgl/src/core/lv_obj_style_gen.h **** }
 696              		.loc 2 334 5 is_stmt 1 view .LVU247
 334:lvgl/lvgl/src/core/lv_obj_style_gen.h **** }
 697              		.loc 2 334 5 is_stmt 0 view .LVU248
 698              	.LBE197:
 699              	.LBE196:
  98:lvgl/lvgl/src/core/lv_obj_draw.c ****                     draw_dsc->bg_img_recolor = lv_obj_get_style_text_color(obj, part);
 700              		.loc 1 98 49 view .LVU249
 701 021e 2061     		str	r0, [r4, #16]
  99:lvgl/lvgl/src/core/lv_obj_draw.c ****                 } else {
 702              		.loc 1 99 21 is_stmt 1 view .LVU250
ARM GAS  C:\Users\gx\AppData\Local\Temp\cczBUDp5.s 			page 27


 703              	.LVL67:
 704              	.LBB198:
 705              	.LBI198:
 313:lvgl/lvgl/src/core/lv_obj_style_gen.h **** {
 706              		.loc 2 313 26 view .LVU251
 707              	.LBB199:
 315:lvgl/lvgl/src/core/lv_obj_style_gen.h ****     return v.color;
 708              		.loc 2 315 5 view .LVU252
 315:lvgl/lvgl/src/core/lv_obj_style_gen.h ****     return v.color;
 709              		.loc 2 315 26 is_stmt 0 view .LVU253
 710 0220 40F25742 		movw	r2, #1111
 711 0224 2946     		mov	r1, r5
 712 0226 3046     		mov	r0, r6
 713 0228 FFF7FEFF 		bl	lv_obj_get_style_prop
 714              	.LVL68:
 316:lvgl/lvgl/src/core/lv_obj_style_gen.h **** }
 715              		.loc 2 316 5 is_stmt 1 view .LVU254
 316:lvgl/lvgl/src/core/lv_obj_style_gen.h **** }
 716              		.loc 2 316 5 is_stmt 0 view .LVU255
 717              	.LBE199:
 718              	.LBE198:
  99:lvgl/lvgl/src/core/lv_obj_draw.c ****                 } else {
 719              		.loc 1 99 48 view .LVU256
 720 022c A082     		strh	r0, [r4, #20]	@ movhi
 721 022e 37E7     		b	.L9
 722              	.LVL69:
 723              	.L20:
 110:lvgl/lvgl/src/core/lv_obj_draw.c ****         if(draw_dsc->shadow_width) {
 724              		.loc 1 110 9 is_stmt 1 view .LVU257
 725              	.LBB200:
 726              	.LBI200:
 413:lvgl/lvgl/src/core/lv_obj_style_gen.h **** }
 414:lvgl/lvgl/src/core/lv_obj_style_gen.h **** 
 415:lvgl/lvgl/src/core/lv_obj_style_gen.h **** static inline lv_coord_t lv_obj_get_style_shadow_width(const struct _lv_obj_t * obj, uint32_t part)
 727              		.loc 2 415 26 view .LVU258
 728              	.LBB201:
 416:lvgl/lvgl/src/core/lv_obj_style_gen.h **** {
 417:lvgl/lvgl/src/core/lv_obj_style_gen.h ****     lv_style_value_t v = lv_obj_get_style_prop(obj, part, LV_STYLE_SHADOW_WIDTH);
 729              		.loc 2 417 5 view .LVU259
 730              		.loc 2 417 26 is_stmt 0 view .LVU260
 731 0230 4FF40462 		mov	r2, #2112
 732 0234 2946     		mov	r1, r5
 733 0236 3046     		mov	r0, r6
 734              	.LVL70:
 735              		.loc 2 417 26 view .LVU261
 736 0238 FFF7FEFF 		bl	lv_obj_get_style_prop
 737              	.LVL71:
 418:lvgl/lvgl/src/core/lv_obj_style_gen.h ****     return (lv_coord_t)v.num;
 738              		.loc 2 418 5 is_stmt 1 view .LVU262
 739              		.loc 2 418 12 is_stmt 0 view .LVU263
 740 023c 00B2     		sxth	r0, r0
 741              	.LVL72:
 742              		.loc 2 418 12 view .LVU264
 743              	.LBE201:
 744              	.LBE200:
 110:lvgl/lvgl/src/core/lv_obj_draw.c ****         if(draw_dsc->shadow_width) {
 745              		.loc 1 110 32 view .LVU265
ARM GAS  C:\Users\gx\AppData\Local\Temp\cczBUDp5.s 			page 28


 746 023e 6085     		strh	r0, [r4, #42]	@ movhi
 111:lvgl/lvgl/src/core/lv_obj_draw.c ****             if(draw_dsc->shadow_opa > LV_OPA_MIN) {
 747              		.loc 1 111 9 is_stmt 1 view .LVU266
 111:lvgl/lvgl/src/core/lv_obj_draw.c ****             if(draw_dsc->shadow_opa > LV_OPA_MIN) {
 748              		.loc 1 111 11 is_stmt 0 view .LVU267
 749 0240 0028     		cmp	r0, #0
 750 0242 3FF432AF 		beq	.L11
 112:lvgl/lvgl/src/core/lv_obj_draw.c ****                 draw_dsc->shadow_opa = lv_obj_get_style_shadow_opa(obj, part);
 751              		.loc 1 112 13 is_stmt 1 view .LVU268
 112:lvgl/lvgl/src/core/lv_obj_draw.c ****                 draw_dsc->shadow_opa = lv_obj_get_style_shadow_opa(obj, part);
 752              		.loc 1 112 24 is_stmt 0 view .LVU269
 753 0246 94F83230 		ldrb	r3, [r4, #50]	@ zero_extendqisi2
 112:lvgl/lvgl/src/core/lv_obj_draw.c ****                 draw_dsc->shadow_opa = lv_obj_get_style_shadow_opa(obj, part);
 754              		.loc 1 112 15 view .LVU270
 755 024a 022B     		cmp	r3, #2
 756 024c 7FF62DAF 		bls	.L11
 113:lvgl/lvgl/src/core/lv_obj_draw.c ****                 if(draw_dsc->shadow_opa > LV_OPA_MIN) {
 757              		.loc 1 113 17 is_stmt 1 view .LVU271
 758              	.LVL73:
 759              	.LBB202:
 760              	.LBI202:
 419:lvgl/lvgl/src/core/lv_obj_style_gen.h **** }
 420:lvgl/lvgl/src/core/lv_obj_style_gen.h **** 
 421:lvgl/lvgl/src/core/lv_obj_style_gen.h **** static inline lv_coord_t lv_obj_get_style_shadow_ofs_x(const struct _lv_obj_t * obj, uint32_t part)
 422:lvgl/lvgl/src/core/lv_obj_style_gen.h **** {
 423:lvgl/lvgl/src/core/lv_obj_style_gen.h ****     lv_style_value_t v = lv_obj_get_style_prop(obj, part, LV_STYLE_SHADOW_OFS_X);
 424:lvgl/lvgl/src/core/lv_obj_style_gen.h ****     return (lv_coord_t)v.num;
 425:lvgl/lvgl/src/core/lv_obj_style_gen.h **** }
 426:lvgl/lvgl/src/core/lv_obj_style_gen.h **** 
 427:lvgl/lvgl/src/core/lv_obj_style_gen.h **** static inline lv_coord_t lv_obj_get_style_shadow_ofs_y(const struct _lv_obj_t * obj, uint32_t part)
 428:lvgl/lvgl/src/core/lv_obj_style_gen.h **** {
 429:lvgl/lvgl/src/core/lv_obj_style_gen.h ****     lv_style_value_t v = lv_obj_get_style_prop(obj, part, LV_STYLE_SHADOW_OFS_Y);
 430:lvgl/lvgl/src/core/lv_obj_style_gen.h ****     return (lv_coord_t)v.num;
 431:lvgl/lvgl/src/core/lv_obj_style_gen.h **** }
 432:lvgl/lvgl/src/core/lv_obj_style_gen.h **** 
 433:lvgl/lvgl/src/core/lv_obj_style_gen.h **** static inline lv_coord_t lv_obj_get_style_shadow_spread(const struct _lv_obj_t * obj, uint32_t part
 434:lvgl/lvgl/src/core/lv_obj_style_gen.h **** {
 435:lvgl/lvgl/src/core/lv_obj_style_gen.h ****     lv_style_value_t v = lv_obj_get_style_prop(obj, part, LV_STYLE_SHADOW_SPREAD);
 436:lvgl/lvgl/src/core/lv_obj_style_gen.h ****     return (lv_coord_t)v.num;
 437:lvgl/lvgl/src/core/lv_obj_style_gen.h **** }
 438:lvgl/lvgl/src/core/lv_obj_style_gen.h **** 
 439:lvgl/lvgl/src/core/lv_obj_style_gen.h **** static inline lv_color_t lv_obj_get_style_shadow_color(const struct _lv_obj_t * obj, uint32_t part)
 440:lvgl/lvgl/src/core/lv_obj_style_gen.h **** {
 441:lvgl/lvgl/src/core/lv_obj_style_gen.h ****     lv_style_value_t v = lv_obj_get_style_prop(obj, part, LV_STYLE_SHADOW_COLOR);
 442:lvgl/lvgl/src/core/lv_obj_style_gen.h ****     return v.color;
 443:lvgl/lvgl/src/core/lv_obj_style_gen.h **** }
 444:lvgl/lvgl/src/core/lv_obj_style_gen.h **** 
 445:lvgl/lvgl/src/core/lv_obj_style_gen.h **** static inline lv_color_t lv_obj_get_style_shadow_color_filtered(const struct _lv_obj_t * obj, uint3
 446:lvgl/lvgl/src/core/lv_obj_style_gen.h **** {
 447:lvgl/lvgl/src/core/lv_obj_style_gen.h ****     lv_style_value_t v = lv_obj_get_style_prop(obj, part, LV_STYLE_SHADOW_COLOR_FILTERED);
 448:lvgl/lvgl/src/core/lv_obj_style_gen.h ****     return v.color;
 449:lvgl/lvgl/src/core/lv_obj_style_gen.h **** }
 450:lvgl/lvgl/src/core/lv_obj_style_gen.h **** 
 451:lvgl/lvgl/src/core/lv_obj_style_gen.h **** static inline lv_opa_t lv_obj_get_style_shadow_opa(const struct _lv_obj_t * obj, uint32_t part)
 761              		.loc 2 451 24 view .LVU272
 762              	.LBB203:
 452:lvgl/lvgl/src/core/lv_obj_style_gen.h **** {
ARM GAS  C:\Users\gx\AppData\Local\Temp\cczBUDp5.s 			page 29


 453:lvgl/lvgl/src/core/lv_obj_style_gen.h ****     lv_style_value_t v = lv_obj_get_style_prop(obj, part, LV_STYLE_SHADOW_OPA);
 763              		.loc 2 453 5 view .LVU273
 764              		.loc 2 453 26 is_stmt 0 view .LVU274
 765 0250 40F64502 		movw	r2, #2117
 766 0254 2946     		mov	r1, r5
 767 0256 3046     		mov	r0, r6
 768 0258 FFF7FEFF 		bl	lv_obj_get_style_prop
 769              	.LVL74:
 454:lvgl/lvgl/src/core/lv_obj_style_gen.h ****     return (lv_opa_t)v.num;
 770              		.loc 2 454 5 is_stmt 1 view .LVU275
 771              		.loc 2 454 12 is_stmt 0 view .LVU276
 772 025c C0B2     		uxtb	r0, r0
 773              	.LVL75:
 774              		.loc 2 454 12 view .LVU277
 775              	.LBE203:
 776              	.LBE202:
 113:lvgl/lvgl/src/core/lv_obj_draw.c ****                 if(draw_dsc->shadow_opa > LV_OPA_MIN) {
 777              		.loc 1 113 38 view .LVU278
 778 025e 84F83200 		strb	r0, [r4, #50]
 114:lvgl/lvgl/src/core/lv_obj_draw.c ****                     draw_dsc->shadow_ofs_x = lv_obj_get_style_shadow_ofs_x(obj, part);
 779              		.loc 1 114 17 is_stmt 1 view .LVU279
 114:lvgl/lvgl/src/core/lv_obj_draw.c ****                     draw_dsc->shadow_ofs_x = lv_obj_get_style_shadow_ofs_x(obj, part);
 780              		.loc 1 114 19 is_stmt 0 view .LVU280
 781 0262 0228     		cmp	r0, #2
 782 0264 7FF621AF 		bls	.L11
 115:lvgl/lvgl/src/core/lv_obj_draw.c ****                     draw_dsc->shadow_ofs_y = lv_obj_get_style_shadow_ofs_y(obj, part);
 783              		.loc 1 115 21 is_stmt 1 view .LVU281
 784              	.LVL76:
 785              	.LBB204:
 786              	.LBI204:
 421:lvgl/lvgl/src/core/lv_obj_style_gen.h **** {
 787              		.loc 2 421 26 view .LVU282
 788              	.LBB205:
 423:lvgl/lvgl/src/core/lv_obj_style_gen.h ****     return (lv_coord_t)v.num;
 789              		.loc 2 423 5 view .LVU283
 423:lvgl/lvgl/src/core/lv_obj_style_gen.h ****     return (lv_coord_t)v.num;
 790              		.loc 2 423 26 is_stmt 0 view .LVU284
 791 0268 40F64102 		movw	r2, #2113
 792 026c 2946     		mov	r1, r5
 793 026e 3046     		mov	r0, r6
 794 0270 FFF7FEFF 		bl	lv_obj_get_style_prop
 795              	.LVL77:
 424:lvgl/lvgl/src/core/lv_obj_style_gen.h **** }
 796              		.loc 2 424 5 is_stmt 1 view .LVU285
 424:lvgl/lvgl/src/core/lv_obj_style_gen.h **** }
 797              		.loc 2 424 5 is_stmt 0 view .LVU286
 798              	.LBE205:
 799              	.LBE204:
 115:lvgl/lvgl/src/core/lv_obj_draw.c ****                     draw_dsc->shadow_ofs_y = lv_obj_get_style_shadow_ofs_y(obj, part);
 800              		.loc 1 115 44 view .LVU287
 801 0274 A085     		strh	r0, [r4, #44]	@ movhi
 116:lvgl/lvgl/src/core/lv_obj_draw.c ****                     draw_dsc->shadow_spread = lv_obj_get_style_shadow_spread(obj, part);
 802              		.loc 1 116 21 is_stmt 1 view .LVU288
 803              	.LVL78:
 804              	.LBB206:
 805              	.LBI206:
 427:lvgl/lvgl/src/core/lv_obj_style_gen.h **** {
ARM GAS  C:\Users\gx\AppData\Local\Temp\cczBUDp5.s 			page 30


 806              		.loc 2 427 26 view .LVU289
 807              	.LBB207:
 429:lvgl/lvgl/src/core/lv_obj_style_gen.h ****     return (lv_coord_t)v.num;
 808              		.loc 2 429 5 view .LVU290
 429:lvgl/lvgl/src/core/lv_obj_style_gen.h ****     return (lv_coord_t)v.num;
 809              		.loc 2 429 26 is_stmt 0 view .LVU291
 810 0276 40F64202 		movw	r2, #2114
 811 027a 2946     		mov	r1, r5
 812 027c 3046     		mov	r0, r6
 813 027e FFF7FEFF 		bl	lv_obj_get_style_prop
 814              	.LVL79:
 430:lvgl/lvgl/src/core/lv_obj_style_gen.h **** }
 815              		.loc 2 430 5 is_stmt 1 view .LVU292
 430:lvgl/lvgl/src/core/lv_obj_style_gen.h **** }
 816              		.loc 2 430 5 is_stmt 0 view .LVU293
 817              	.LBE207:
 818              	.LBE206:
 116:lvgl/lvgl/src/core/lv_obj_draw.c ****                     draw_dsc->shadow_spread = lv_obj_get_style_shadow_spread(obj, part);
 819              		.loc 1 116 44 view .LVU294
 820 0282 E085     		strh	r0, [r4, #46]	@ movhi
 117:lvgl/lvgl/src/core/lv_obj_draw.c ****                     draw_dsc->shadow_color = lv_obj_get_style_shadow_color_filtered(obj, part);
 821              		.loc 1 117 21 is_stmt 1 view .LVU295
 822              	.LVL80:
 823              	.LBB208:
 824              	.LBI208:
 433:lvgl/lvgl/src/core/lv_obj_style_gen.h **** {
 825              		.loc 2 433 26 view .LVU296
 826              	.LBB209:
 435:lvgl/lvgl/src/core/lv_obj_style_gen.h ****     return (lv_coord_t)v.num;
 827              		.loc 2 435 5 view .LVU297
 435:lvgl/lvgl/src/core/lv_obj_style_gen.h ****     return (lv_coord_t)v.num;
 828              		.loc 2 435 26 is_stmt 0 view .LVU298
 829 0284 40F64302 		movw	r2, #2115
 830 0288 2946     		mov	r1, r5
 831 028a 3046     		mov	r0, r6
 832 028c FFF7FEFF 		bl	lv_obj_get_style_prop
 833              	.LVL81:
 436:lvgl/lvgl/src/core/lv_obj_style_gen.h **** }
 834              		.loc 2 436 5 is_stmt 1 view .LVU299
 436:lvgl/lvgl/src/core/lv_obj_style_gen.h **** }
 835              		.loc 2 436 5 is_stmt 0 view .LVU300
 836              	.LBE209:
 837              	.LBE208:
 117:lvgl/lvgl/src/core/lv_obj_draw.c ****                     draw_dsc->shadow_color = lv_obj_get_style_shadow_color_filtered(obj, part);
 838              		.loc 1 117 45 view .LVU301
 839 0290 2086     		strh	r0, [r4, #48]	@ movhi
 118:lvgl/lvgl/src/core/lv_obj_draw.c ****                 }
 840              		.loc 1 118 21 is_stmt 1 view .LVU302
 841              	.LVL82:
 842              	.LBB210:
 843              	.LBI210:
 445:lvgl/lvgl/src/core/lv_obj_style_gen.h **** {
 844              		.loc 2 445 26 view .LVU303
 845              	.LBB211:
 447:lvgl/lvgl/src/core/lv_obj_style_gen.h ****     return v.color;
 846              		.loc 2 447 5 view .LVU304
 447:lvgl/lvgl/src/core/lv_obj_style_gen.h ****     return v.color;
ARM GAS  C:\Users\gx\AppData\Local\Temp\cczBUDp5.s 			page 31


 847              		.loc 2 447 26 is_stmt 0 view .LVU305
 848 0292 44F24402 		movw	r2, #16452
 849 0296 2946     		mov	r1, r5
 850 0298 3046     		mov	r0, r6
 851 029a FFF7FEFF 		bl	lv_obj_get_style_prop
 852              	.LVL83:
 448:lvgl/lvgl/src/core/lv_obj_style_gen.h **** }
 853              		.loc 2 448 5 is_stmt 1 view .LVU306
 448:lvgl/lvgl/src/core/lv_obj_style_gen.h **** }
 854              		.loc 2 448 5 is_stmt 0 view .LVU307
 855              	.LBE211:
 856              	.LBE210:
 118:lvgl/lvgl/src/core/lv_obj_draw.c ****                 }
 857              		.loc 1 118 46 view .LVU308
 858 029e 2085     		strh	r0, [r4, #40]	@ movhi
 859 02a0 03E7     		b	.L11
 860              		.cfi_endproc
 861              	.LFE158:
 863              		.section	.text.lv_obj_init_draw_label_dsc,"ax",%progbits
 864              		.align	1
 865              		.global	lv_obj_init_draw_label_dsc
 866              		.syntax unified
 867              		.thumb
 868              		.thumb_func
 869              		.fpu fpv4-sp-d16
 871              	lv_obj_init_draw_label_dsc:
 872              	.LVL84:
 873              	.LFB159:
 182:lvgl/lvgl/src/core/lv_obj_draw.c **** 
 183:lvgl/lvgl/src/core/lv_obj_draw.c **** void lv_obj_init_draw_label_dsc(lv_obj_t * obj, uint32_t part, lv_draw_label_dsc_t * draw_dsc)
 184:lvgl/lvgl/src/core/lv_obj_draw.c **** {
 874              		.loc 1 184 1 is_stmt 1 view -0
 875              		.cfi_startproc
 876              		@ args = 0, pretend = 0, frame = 0
 877              		@ frame_needed = 0, uses_anonymous_args = 0
 878              		.loc 1 184 1 is_stmt 0 view .LVU310
 879 0000 70B5     		push	{r4, r5, r6, lr}
 880              	.LCFI1:
 881              		.cfi_def_cfa_offset 16
 882              		.cfi_offset 4, -16
 883              		.cfi_offset 5, -12
 884              		.cfi_offset 6, -8
 885              		.cfi_offset 14, -4
 886 0002 0546     		mov	r5, r0
 887 0004 0E46     		mov	r6, r1
 888 0006 1446     		mov	r4, r2
 185:lvgl/lvgl/src/core/lv_obj_draw.c ****     draw_dsc->opa = lv_obj_get_style_text_opa(obj, part);
 889              		.loc 1 185 5 is_stmt 1 view .LVU311
 890              	.LVL85:
 891              	.LBB212:
 892              	.LBI212:
 325:lvgl/lvgl/src/core/lv_obj_style_gen.h **** {
 893              		.loc 2 325 24 view .LVU312
 894              	.LBB213:
 327:lvgl/lvgl/src/core/lv_obj_style_gen.h ****     return (lv_opa_t)v.num;
 895              		.loc 2 327 5 view .LVU313
 327:lvgl/lvgl/src/core/lv_obj_style_gen.h ****     return (lv_opa_t)v.num;
ARM GAS  C:\Users\gx\AppData\Local\Temp\cczBUDp5.s 			page 32


 896              		.loc 2 327 26 is_stmt 0 view .LVU314
 897 0008 4FF48B62 		mov	r2, #1112
 898              	.LVL86:
 327:lvgl/lvgl/src/core/lv_obj_style_gen.h ****     return (lv_opa_t)v.num;
 899              		.loc 2 327 26 view .LVU315
 900 000c FFF7FEFF 		bl	lv_obj_get_style_prop
 901              	.LVL87:
 328:lvgl/lvgl/src/core/lv_obj_style_gen.h **** }
 902              		.loc 2 328 5 is_stmt 1 view .LVU316
 328:lvgl/lvgl/src/core/lv_obj_style_gen.h **** }
 903              		.loc 2 328 12 is_stmt 0 view .LVU317
 904 0010 C0B2     		uxtb	r0, r0
 905              	.LVL88:
 328:lvgl/lvgl/src/core/lv_obj_style_gen.h **** }
 906              		.loc 2 328 12 view .LVU318
 907              	.LBE213:
 908              	.LBE212:
 909              		.loc 1 185 19 view .LVU319
 910 0012 A076     		strb	r0, [r4, #26]
 186:lvgl/lvgl/src/core/lv_obj_draw.c ****     if(draw_dsc->opa <= LV_OPA_MIN) return;
 911              		.loc 1 186 5 is_stmt 1 view .LVU320
 912              		.loc 1 186 7 is_stmt 0 view .LVU321
 913 0014 0228     		cmp	r0, #2
 914 0016 00D8     		bhi	.L26
 915              	.L22:
 187:lvgl/lvgl/src/core/lv_obj_draw.c **** 
 188:lvgl/lvgl/src/core/lv_obj_draw.c ****     lv_opa_t opa = lv_obj_get_style_opa(obj, part);
 189:lvgl/lvgl/src/core/lv_obj_draw.c ****     if(opa < LV_OPA_MAX) {
 190:lvgl/lvgl/src/core/lv_obj_draw.c ****         draw_dsc->opa = (uint16_t)((uint16_t)draw_dsc->opa * opa) >> 8;
 191:lvgl/lvgl/src/core/lv_obj_draw.c ****     }
 192:lvgl/lvgl/src/core/lv_obj_draw.c ****     if(draw_dsc->opa <= LV_OPA_MIN) return;
 193:lvgl/lvgl/src/core/lv_obj_draw.c **** 
 194:lvgl/lvgl/src/core/lv_obj_draw.c ****     draw_dsc->color = lv_obj_get_style_text_color_filtered(obj, part);
 195:lvgl/lvgl/src/core/lv_obj_draw.c ****     draw_dsc->letter_space = lv_obj_get_style_text_letter_space(obj, part);
 196:lvgl/lvgl/src/core/lv_obj_draw.c ****     draw_dsc->line_space = lv_obj_get_style_text_line_space(obj, part);
 197:lvgl/lvgl/src/core/lv_obj_draw.c ****     draw_dsc->decor = lv_obj_get_style_text_decor(obj, part);
 198:lvgl/lvgl/src/core/lv_obj_draw.c **** #if LV_DRAW_COMPLEX
 199:lvgl/lvgl/src/core/lv_obj_draw.c ****     draw_dsc->blend_mode = lv_obj_get_style_blend_mode(obj, part);
 200:lvgl/lvgl/src/core/lv_obj_draw.c **** #endif
 201:lvgl/lvgl/src/core/lv_obj_draw.c **** 
 202:lvgl/lvgl/src/core/lv_obj_draw.c ****     draw_dsc->font = lv_obj_get_style_text_font(obj, part);
 203:lvgl/lvgl/src/core/lv_obj_draw.c **** 
 204:lvgl/lvgl/src/core/lv_obj_draw.c **** #if LV_USE_BIDI
 205:lvgl/lvgl/src/core/lv_obj_draw.c ****     draw_dsc->bidi_dir = lv_obj_get_style_base_dir(obj, LV_PART_MAIN);
 206:lvgl/lvgl/src/core/lv_obj_draw.c **** #endif
 207:lvgl/lvgl/src/core/lv_obj_draw.c **** 
 208:lvgl/lvgl/src/core/lv_obj_draw.c ****     draw_dsc->align = lv_obj_get_style_text_align(obj, part);
 209:lvgl/lvgl/src/core/lv_obj_draw.c **** }
 916              		.loc 1 209 1 view .LVU322
 917 0018 70BD     		pop	{r4, r5, r6, pc}
 918              	.LVL89:
 919              	.L26:
 188:lvgl/lvgl/src/core/lv_obj_draw.c ****     if(opa < LV_OPA_MAX) {
 920              		.loc 1 188 5 is_stmt 1 view .LVU323
 921              	.LBB214:
 922              	.LBI214:
 139:lvgl/lvgl/src/core/lv_obj_style_gen.h **** {
ARM GAS  C:\Users\gx\AppData\Local\Temp\cczBUDp5.s 			page 33


 923              		.loc 2 139 24 view .LVU324
 924              	.LBB215:
 141:lvgl/lvgl/src/core/lv_obj_style_gen.h ****     return (lv_opa_t)v.num;
 925              		.loc 2 141 5 view .LVU325
 141:lvgl/lvgl/src/core/lv_obj_style_gen.h ****     return (lv_opa_t)v.num;
 926              		.loc 2 141 26 is_stmt 0 view .LVU326
 927 001a 40F26242 		movw	r2, #1122
 928 001e 3146     		mov	r1, r6
 929 0020 2846     		mov	r0, r5
 930 0022 FFF7FEFF 		bl	lv_obj_get_style_prop
 931              	.LVL90:
 142:lvgl/lvgl/src/core/lv_obj_style_gen.h **** }
 932              		.loc 2 142 5 is_stmt 1 view .LVU327
 142:lvgl/lvgl/src/core/lv_obj_style_gen.h **** }
 933              		.loc 2 142 12 is_stmt 0 view .LVU328
 934 0026 C0B2     		uxtb	r0, r0
 935              	.LVL91:
 142:lvgl/lvgl/src/core/lv_obj_style_gen.h **** }
 936              		.loc 2 142 12 view .LVU329
 937              	.LBE215:
 938              	.LBE214:
 189:lvgl/lvgl/src/core/lv_obj_draw.c ****         draw_dsc->opa = (uint16_t)((uint16_t)draw_dsc->opa * opa) >> 8;
 939              		.loc 1 189 5 is_stmt 1 view .LVU330
 189:lvgl/lvgl/src/core/lv_obj_draw.c ****         draw_dsc->opa = (uint16_t)((uint16_t)draw_dsc->opa * opa) >> 8;
 940              		.loc 1 189 7 is_stmt 0 view .LVU331
 941 0028 FC28     		cmp	r0, #252
 942 002a 04D8     		bhi	.L24
 190:lvgl/lvgl/src/core/lv_obj_draw.c ****     }
 943              		.loc 1 190 9 is_stmt 1 view .LVU332
 190:lvgl/lvgl/src/core/lv_obj_draw.c ****     }
 944              		.loc 1 190 54 is_stmt 0 view .LVU333
 945 002c A37E     		ldrb	r3, [r4, #26]	@ zero_extendqisi2
 190:lvgl/lvgl/src/core/lv_obj_draw.c ****     }
 946              		.loc 1 190 25 view .LVU334
 947 002e 00FB03F0 		mul	r0, r0, r3
 948              	.LVL92:
 190:lvgl/lvgl/src/core/lv_obj_draw.c ****     }
 949              		.loc 1 190 23 view .LVU335
 950 0032 000A     		lsrs	r0, r0, #8
 951 0034 A076     		strb	r0, [r4, #26]
 952              	.L24:
 192:lvgl/lvgl/src/core/lv_obj_draw.c **** 
 953              		.loc 1 192 5 is_stmt 1 view .LVU336
 192:lvgl/lvgl/src/core/lv_obj_draw.c **** 
 954              		.loc 1 192 16 is_stmt 0 view .LVU337
 955 0036 A37E     		ldrb	r3, [r4, #26]	@ zero_extendqisi2
 192:lvgl/lvgl/src/core/lv_obj_draw.c **** 
 956              		.loc 1 192 7 view .LVU338
 957 0038 022B     		cmp	r3, #2
 958 003a EDD9     		bls	.L22
 194:lvgl/lvgl/src/core/lv_obj_draw.c ****     draw_dsc->letter_space = lv_obj_get_style_text_letter_space(obj, part);
 959              		.loc 1 194 5 is_stmt 1 view .LVU339
 960              	.LVL93:
 961              	.LBB216:
 962              	.LBI216:
 319:lvgl/lvgl/src/core/lv_obj_style_gen.h **** {
 963              		.loc 2 319 26 view .LVU340
ARM GAS  C:\Users\gx\AppData\Local\Temp\cczBUDp5.s 			page 34


 964              	.LBB217:
 321:lvgl/lvgl/src/core/lv_obj_style_gen.h ****     return v.color;
 965              		.loc 2 321 5 view .LVU341
 321:lvgl/lvgl/src/core/lv_obj_style_gen.h ****     return v.color;
 966              		.loc 2 321 26 is_stmt 0 view .LVU342
 967 003c 44F25742 		movw	r2, #17495
 968 0040 3146     		mov	r1, r6
 969 0042 2846     		mov	r0, r5
 970 0044 FFF7FEFF 		bl	lv_obj_get_style_prop
 971              	.LVL94:
 322:lvgl/lvgl/src/core/lv_obj_style_gen.h **** }
 972              		.loc 2 322 5 is_stmt 1 view .LVU343
 322:lvgl/lvgl/src/core/lv_obj_style_gen.h **** }
 973              		.loc 2 322 5 is_stmt 0 view .LVU344
 974              	.LBE217:
 975              	.LBE216:
 194:lvgl/lvgl/src/core/lv_obj_draw.c ****     draw_dsc->letter_space = lv_obj_get_style_text_letter_space(obj, part);
 976              		.loc 1 194 23 view .LVU345
 977 0048 A081     		strh	r0, [r4, #12]	@ movhi
 195:lvgl/lvgl/src/core/lv_obj_draw.c ****     draw_dsc->line_space = lv_obj_get_style_text_line_space(obj, part);
 978              		.loc 1 195 5 is_stmt 1 view .LVU346
 979              	.LVL95:
 980              	.LBB218:
 981              	.LBI218:
 337:lvgl/lvgl/src/core/lv_obj_style_gen.h **** {
 982              		.loc 2 337 26 view .LVU347
 983              	.LBB219:
 339:lvgl/lvgl/src/core/lv_obj_style_gen.h ****     return (lv_coord_t)v.num;
 984              		.loc 2 339 5 view .LVU348
 339:lvgl/lvgl/src/core/lv_obj_style_gen.h ****     return (lv_coord_t)v.num;
 985              		.loc 2 339 26 is_stmt 0 view .LVU349
 986 004a 41F25A42 		movw	r2, #5210
 987 004e 3146     		mov	r1, r6
 988 0050 2846     		mov	r0, r5
 989 0052 FFF7FEFF 		bl	lv_obj_get_style_prop
 990              	.LVL96:
 340:lvgl/lvgl/src/core/lv_obj_style_gen.h **** }
 991              		.loc 2 340 5 is_stmt 1 view .LVU350
 340:lvgl/lvgl/src/core/lv_obj_style_gen.h **** }
 992              		.loc 2 340 5 is_stmt 0 view .LVU351
 993              	.LBE219:
 994              	.LBE218:
 195:lvgl/lvgl/src/core/lv_obj_draw.c ****     draw_dsc->line_space = lv_obj_get_style_text_line_space(obj, part);
 995              		.loc 1 195 28 view .LVU352
 996 0056 A082     		strh	r0, [r4, #20]	@ movhi
 196:lvgl/lvgl/src/core/lv_obj_draw.c ****     draw_dsc->decor = lv_obj_get_style_text_decor(obj, part);
 997              		.loc 1 196 5 is_stmt 1 view .LVU353
 998              	.LVL97:
 999              	.LBB220:
 1000              	.LBI220:
 343:lvgl/lvgl/src/core/lv_obj_style_gen.h **** {
 1001              		.loc 2 343 26 view .LVU354
 1002              	.LBB221:
 345:lvgl/lvgl/src/core/lv_obj_style_gen.h ****     return (lv_coord_t)v.num;
 1003              		.loc 2 345 5 view .LVU355
 345:lvgl/lvgl/src/core/lv_obj_style_gen.h ****     return (lv_coord_t)v.num;
 1004              		.loc 2 345 26 is_stmt 0 view .LVU356
ARM GAS  C:\Users\gx\AppData\Local\Temp\cczBUDp5.s 			page 35


 1005 0058 41F25B42 		movw	r2, #5211
 1006 005c 3146     		mov	r1, r6
 1007 005e 2846     		mov	r0, r5
 1008 0060 FFF7FEFF 		bl	lv_obj_get_style_prop
 1009              	.LVL98:
 346:lvgl/lvgl/src/core/lv_obj_style_gen.h **** }
 1010              		.loc 2 346 5 is_stmt 1 view .LVU357
 346:lvgl/lvgl/src/core/lv_obj_style_gen.h **** }
 1011              		.loc 2 346 5 is_stmt 0 view .LVU358
 1012              	.LBE221:
 1013              	.LBE220:
 196:lvgl/lvgl/src/core/lv_obj_draw.c ****     draw_dsc->decor = lv_obj_get_style_text_decor(obj, part);
 1014              		.loc 1 196 26 view .LVU359
 1015 0064 6082     		strh	r0, [r4, #18]	@ movhi
 197:lvgl/lvgl/src/core/lv_obj_draw.c **** #if LV_DRAW_COMPLEX
 1016              		.loc 1 197 5 is_stmt 1 view .LVU360
 1017              	.LVL99:
 1018              	.LBB222:
 1019              	.LBI222:
 349:lvgl/lvgl/src/core/lv_obj_style_gen.h **** {
 1020              		.loc 2 349 31 view .LVU361
 1021              	.LBB223:
 351:lvgl/lvgl/src/core/lv_obj_style_gen.h ****     return (lv_text_decor_t)v.num;
 1022              		.loc 2 351 5 view .LVU362
 351:lvgl/lvgl/src/core/lv_obj_style_gen.h ****     return (lv_text_decor_t)v.num;
 1023              		.loc 2 351 26 is_stmt 0 view .LVU363
 1024 0066 40F25C42 		movw	r2, #1116
 1025 006a 3146     		mov	r1, r6
 1026 006c 2846     		mov	r0, r5
 1027 006e FFF7FEFF 		bl	lv_obj_get_style_prop
 1028              	.LVL100:
 352:lvgl/lvgl/src/core/lv_obj_style_gen.h **** }
 1029              		.loc 2 352 5 is_stmt 1 view .LVU364
 352:lvgl/lvgl/src/core/lv_obj_style_gen.h **** }
 1030              		.loc 2 352 5 is_stmt 0 view .LVU365
 1031              	.LBE223:
 1032              	.LBE222:
 197:lvgl/lvgl/src/core/lv_obj_draw.c **** #if LV_DRAW_COMPLEX
 1033              		.loc 1 197 21 view .LVU366
 1034 0072 A37F     		ldrb	r3, [r4, #30]	@ zero_extendqisi2
 1035 0074 60F30203 		bfi	r3, r0, #0, #3
 1036 0078 A377     		strb	r3, [r4, #30]
 199:lvgl/lvgl/src/core/lv_obj_draw.c **** #endif
 1037              		.loc 1 199 5 is_stmt 1 view .LVU367
 1038              	.LVL101:
 1039              	.LBB224:
 1040              	.LBI224:
 175:lvgl/lvgl/src/core/lv_obj_style_gen.h **** {
 1041              		.loc 2 175 31 view .LVU368
 1042              	.LBB225:
 177:lvgl/lvgl/src/core/lv_obj_style_gen.h ****     return (lv_blend_mode_t)v.num;
 1043              		.loc 2 177 5 view .LVU369
 177:lvgl/lvgl/src/core/lv_obj_style_gen.h ****     return (lv_blend_mode_t)v.num;
 1044              		.loc 2 177 26 is_stmt 0 view .LVU370
 1045 007a 6822     		movs	r2, #104
 1046 007c 3146     		mov	r1, r6
 1047 007e 2846     		mov	r0, r5
ARM GAS  C:\Users\gx\AppData\Local\Temp\cczBUDp5.s 			page 36


 1048 0080 FFF7FEFF 		bl	lv_obj_get_style_prop
 1049              	.LVL102:
 178:lvgl/lvgl/src/core/lv_obj_style_gen.h **** }
 1050              		.loc 2 178 5 is_stmt 1 view .LVU371
 178:lvgl/lvgl/src/core/lv_obj_style_gen.h **** }
 1051              		.loc 2 178 5 is_stmt 0 view .LVU372
 1052              	.LBE225:
 1053              	.LBE224:
 199:lvgl/lvgl/src/core/lv_obj_draw.c **** #endif
 1054              		.loc 1 199 26 view .LVU373
 1055 0084 A37F     		ldrb	r3, [r4, #30]	@ zero_extendqisi2
 1056 0086 60F3C503 		bfi	r3, r0, #3, #3
 1057 008a A377     		strb	r3, [r4, #30]
 202:lvgl/lvgl/src/core/lv_obj_draw.c **** 
 1058              		.loc 1 202 5 is_stmt 1 view .LVU374
 1059              	.LVL103:
 1060              	.LBB226:
 1061              	.LBI226:
 331:lvgl/lvgl/src/core/lv_obj_style_gen.h **** {
 1062              		.loc 2 331 33 view .LVU375
 1063              	.LBB227:
 333:lvgl/lvgl/src/core/lv_obj_style_gen.h ****     return (const lv_font_t *)v.ptr;
 1064              		.loc 2 333 5 view .LVU376
 333:lvgl/lvgl/src/core/lv_obj_style_gen.h ****     return (const lv_font_t *)v.ptr;
 1065              		.loc 2 333 26 is_stmt 0 view .LVU377
 1066 008c 41F25942 		movw	r2, #5209
 1067 0090 3146     		mov	r1, r6
 1068 0092 2846     		mov	r0, r5
 1069 0094 FFF7FEFF 		bl	lv_obj_get_style_prop
 1070              	.LVL104:
 334:lvgl/lvgl/src/core/lv_obj_style_gen.h **** }
 1071              		.loc 2 334 5 is_stmt 1 view .LVU378
 334:lvgl/lvgl/src/core/lv_obj_style_gen.h **** }
 1072              		.loc 2 334 5 is_stmt 0 view .LVU379
 1073              	.LBE227:
 1074              	.LBE226:
 202:lvgl/lvgl/src/core/lv_obj_draw.c **** 
 1075              		.loc 1 202 20 view .LVU380
 1076 0098 2060     		str	r0, [r4]
 208:lvgl/lvgl/src/core/lv_obj_draw.c **** }
 1077              		.loc 1 208 5 is_stmt 1 view .LVU381
 1078              	.LVL105:
 1079              	.LBB228:
 1080              	.LBI228:
 355:lvgl/lvgl/src/core/lv_obj_style_gen.h **** {
 1081              		.loc 2 355 31 view .LVU382
 1082              	.LBB229:
 357:lvgl/lvgl/src/core/lv_obj_style_gen.h ****     return (lv_text_align_t)v.num;
 1083              		.loc 2 357 5 view .LVU383
 357:lvgl/lvgl/src/core/lv_obj_style_gen.h ****     return (lv_text_align_t)v.num;
 1084              		.loc 2 357 26 is_stmt 0 view .LVU384
 1085 009a 41F25D42 		movw	r2, #5213
 1086 009e 3146     		mov	r1, r6
 1087 00a0 2846     		mov	r0, r5
 1088 00a2 FFF7FEFF 		bl	lv_obj_get_style_prop
 1089              	.LVL106:
 358:lvgl/lvgl/src/core/lv_obj_style_gen.h **** }
ARM GAS  C:\Users\gx\AppData\Local\Temp\cczBUDp5.s 			page 37


 1090              		.loc 2 358 5 is_stmt 1 view .LVU385
 358:lvgl/lvgl/src/core/lv_obj_style_gen.h **** }
 1091              		.loc 2 358 5 is_stmt 0 view .LVU386
 1092              	.LBE229:
 1093              	.LBE228:
 208:lvgl/lvgl/src/core/lv_obj_draw.c **** }
 1094              		.loc 1 208 21 view .LVU387
 1095 00a6 2077     		strb	r0, [r4, #28]
 1096 00a8 B6E7     		b	.L22
 1097              		.cfi_endproc
 1098              	.LFE159:
 1100              		.section	.text.lv_obj_init_draw_img_dsc,"ax",%progbits
 1101              		.align	1
 1102              		.global	lv_obj_init_draw_img_dsc
 1103              		.syntax unified
 1104              		.thumb
 1105              		.thumb_func
 1106              		.fpu fpv4-sp-d16
 1108              	lv_obj_init_draw_img_dsc:
 1109              	.LVL107:
 1110              	.LFB160:
 210:lvgl/lvgl/src/core/lv_obj_draw.c **** 
 211:lvgl/lvgl/src/core/lv_obj_draw.c **** void lv_obj_init_draw_img_dsc(lv_obj_t * obj, uint32_t part, lv_draw_img_dsc_t * draw_dsc)
 212:lvgl/lvgl/src/core/lv_obj_draw.c **** {
 1111              		.loc 1 212 1 is_stmt 1 view -0
 1112              		.cfi_startproc
 1113              		@ args = 0, pretend = 0, frame = 0
 1114              		@ frame_needed = 0, uses_anonymous_args = 0
 1115              		.loc 1 212 1 is_stmt 0 view .LVU389
 1116 0000 70B5     		push	{r4, r5, r6, lr}
 1117              	.LCFI2:
 1118              		.cfi_def_cfa_offset 16
 1119              		.cfi_offset 4, -16
 1120              		.cfi_offset 5, -12
 1121              		.cfi_offset 6, -8
 1122              		.cfi_offset 14, -4
 1123 0002 0546     		mov	r5, r0
 1124 0004 0E46     		mov	r6, r1
 1125 0006 1446     		mov	r4, r2
 213:lvgl/lvgl/src/core/lv_obj_draw.c ****     draw_dsc->opa = lv_obj_get_style_img_opa(obj, part);
 1126              		.loc 1 213 5 is_stmt 1 view .LVU390
 1127              	.LVL108:
 1128              	.LBB230:
 1129              	.LBI230:
 361:lvgl/lvgl/src/core/lv_obj_style_gen.h **** {
 1130              		.loc 2 361 24 view .LVU391
 1131              	.LBB231:
 363:lvgl/lvgl/src/core/lv_obj_style_gen.h ****     return (lv_opa_t)v.num;
 1132              		.loc 2 363 5 view .LVU392
 363:lvgl/lvgl/src/core/lv_obj_style_gen.h ****     return (lv_opa_t)v.num;
 1133              		.loc 2 363 26 is_stmt 0 view .LVU393
 1134 0008 4622     		movs	r2, #70
 1135              	.LVL109:
 363:lvgl/lvgl/src/core/lv_obj_style_gen.h ****     return (lv_opa_t)v.num;
 1136              		.loc 2 363 26 view .LVU394
 1137 000a FFF7FEFF 		bl	lv_obj_get_style_prop
 1138              	.LVL110:
ARM GAS  C:\Users\gx\AppData\Local\Temp\cczBUDp5.s 			page 38


 364:lvgl/lvgl/src/core/lv_obj_style_gen.h **** }
 1139              		.loc 2 364 5 is_stmt 1 view .LVU395
 364:lvgl/lvgl/src/core/lv_obj_style_gen.h **** }
 1140              		.loc 2 364 12 is_stmt 0 view .LVU396
 1141 000e C3B2     		uxtb	r3, r0
 1142              	.LVL111:
 364:lvgl/lvgl/src/core/lv_obj_style_gen.h **** }
 1143              		.loc 2 364 12 view .LVU397
 1144              	.LBE231:
 1145              	.LBE230:
 1146              		.loc 1 213 19 view .LVU398
 1147 0010 E372     		strb	r3, [r4, #11]
 214:lvgl/lvgl/src/core/lv_obj_draw.c ****     if(draw_dsc->opa <= LV_OPA_MIN)  return;
 1148              		.loc 1 214 5 is_stmt 1 view .LVU399
 1149              		.loc 1 214 7 is_stmt 0 view .LVU400
 1150 0012 022B     		cmp	r3, #2
 1151 0014 00D8     		bhi	.L32
 1152              	.L27:
 215:lvgl/lvgl/src/core/lv_obj_draw.c **** 
 216:lvgl/lvgl/src/core/lv_obj_draw.c ****     lv_opa_t opa_scale = lv_obj_get_style_opa(obj, part);
 217:lvgl/lvgl/src/core/lv_obj_draw.c ****     if(opa_scale < LV_OPA_MAX) {
 218:lvgl/lvgl/src/core/lv_obj_draw.c ****         draw_dsc->opa = (uint16_t)((uint16_t)draw_dsc->opa * opa_scale) >> 8;
 219:lvgl/lvgl/src/core/lv_obj_draw.c ****     }
 220:lvgl/lvgl/src/core/lv_obj_draw.c ****     if(draw_dsc->opa <= LV_OPA_MIN)  return;
 221:lvgl/lvgl/src/core/lv_obj_draw.c **** 
 222:lvgl/lvgl/src/core/lv_obj_draw.c ****     draw_dsc->angle = 0;
 223:lvgl/lvgl/src/core/lv_obj_draw.c ****     draw_dsc->zoom = LV_IMG_ZOOM_NONE;
 224:lvgl/lvgl/src/core/lv_obj_draw.c ****     draw_dsc->pivot.x = lv_area_get_width(&obj->coords) / 2;
 225:lvgl/lvgl/src/core/lv_obj_draw.c ****     draw_dsc->pivot.y = lv_area_get_height(&obj->coords) / 2;
 226:lvgl/lvgl/src/core/lv_obj_draw.c **** 
 227:lvgl/lvgl/src/core/lv_obj_draw.c ****     draw_dsc->recolor_opa = lv_obj_get_style_img_recolor_opa(obj, part);
 228:lvgl/lvgl/src/core/lv_obj_draw.c ****     if(draw_dsc->recolor_opa > 0) {
 229:lvgl/lvgl/src/core/lv_obj_draw.c ****         draw_dsc->recolor = lv_obj_get_style_img_recolor(obj, part);
 230:lvgl/lvgl/src/core/lv_obj_draw.c ****     }
 231:lvgl/lvgl/src/core/lv_obj_draw.c **** #if LV_DRAW_COMPLEX
 232:lvgl/lvgl/src/core/lv_obj_draw.c ****     draw_dsc->blend_mode = lv_obj_get_style_blend_mode(obj, part);
 233:lvgl/lvgl/src/core/lv_obj_draw.c **** #endif
 234:lvgl/lvgl/src/core/lv_obj_draw.c **** }
 1153              		.loc 1 234 1 view .LVU401
 1154 0016 70BD     		pop	{r4, r5, r6, pc}
 1155              	.LVL112:
 1156              	.L32:
 216:lvgl/lvgl/src/core/lv_obj_draw.c ****     if(opa_scale < LV_OPA_MAX) {
 1157              		.loc 1 216 5 is_stmt 1 view .LVU402
 1158              	.LBB232:
 1159              	.LBI232:
 139:lvgl/lvgl/src/core/lv_obj_style_gen.h **** {
 1160              		.loc 2 139 24 view .LVU403
 1161              	.LBB233:
 141:lvgl/lvgl/src/core/lv_obj_style_gen.h ****     return (lv_opa_t)v.num;
 1162              		.loc 2 141 5 view .LVU404
 141:lvgl/lvgl/src/core/lv_obj_style_gen.h ****     return (lv_opa_t)v.num;
 1163              		.loc 2 141 26 is_stmt 0 view .LVU405
 1164 0018 40F26242 		movw	r2, #1122
 1165 001c 3146     		mov	r1, r6
 1166 001e 2846     		mov	r0, r5
 1167 0020 FFF7FEFF 		bl	lv_obj_get_style_prop
ARM GAS  C:\Users\gx\AppData\Local\Temp\cczBUDp5.s 			page 39


 1168              	.LVL113:
 142:lvgl/lvgl/src/core/lv_obj_style_gen.h **** }
 1169              		.loc 2 142 5 is_stmt 1 view .LVU406
 142:lvgl/lvgl/src/core/lv_obj_style_gen.h **** }
 1170              		.loc 2 142 12 is_stmt 0 view .LVU407
 1171 0024 C0B2     		uxtb	r0, r0
 1172              	.LVL114:
 142:lvgl/lvgl/src/core/lv_obj_style_gen.h **** }
 1173              		.loc 2 142 12 view .LVU408
 1174              	.LBE233:
 1175              	.LBE232:
 217:lvgl/lvgl/src/core/lv_obj_draw.c ****         draw_dsc->opa = (uint16_t)((uint16_t)draw_dsc->opa * opa_scale) >> 8;
 1176              		.loc 1 217 5 is_stmt 1 view .LVU409
 217:lvgl/lvgl/src/core/lv_obj_draw.c ****         draw_dsc->opa = (uint16_t)((uint16_t)draw_dsc->opa * opa_scale) >> 8;
 1177              		.loc 1 217 7 is_stmt 0 view .LVU410
 1178 0026 FC28     		cmp	r0, #252
 1179 0028 04D8     		bhi	.L29
 218:lvgl/lvgl/src/core/lv_obj_draw.c ****     }
 1180              		.loc 1 218 9 is_stmt 1 view .LVU411
 218:lvgl/lvgl/src/core/lv_obj_draw.c ****     }
 1181              		.loc 1 218 54 is_stmt 0 view .LVU412
 1182 002a E37A     		ldrb	r3, [r4, #11]	@ zero_extendqisi2
 218:lvgl/lvgl/src/core/lv_obj_draw.c ****     }
 1183              		.loc 1 218 25 view .LVU413
 1184 002c 00FB03F0 		mul	r0, r0, r3
 1185              	.LVL115:
 218:lvgl/lvgl/src/core/lv_obj_draw.c ****     }
 1186              		.loc 1 218 23 view .LVU414
 1187 0030 000A     		lsrs	r0, r0, #8
 1188 0032 E072     		strb	r0, [r4, #11]
 1189              	.L29:
 220:lvgl/lvgl/src/core/lv_obj_draw.c **** 
 1190              		.loc 1 220 5 is_stmt 1 view .LVU415
 220:lvgl/lvgl/src/core/lv_obj_draw.c **** 
 1191              		.loc 1 220 16 is_stmt 0 view .LVU416
 1192 0034 E37A     		ldrb	r3, [r4, #11]	@ zero_extendqisi2
 220:lvgl/lvgl/src/core/lv_obj_draw.c **** 
 1193              		.loc 1 220 7 view .LVU417
 1194 0036 022B     		cmp	r3, #2
 1195 0038 EDD9     		bls	.L27
 222:lvgl/lvgl/src/core/lv_obj_draw.c ****     draw_dsc->zoom = LV_IMG_ZOOM_NONE;
 1196              		.loc 1 222 5 is_stmt 1 view .LVU418
 222:lvgl/lvgl/src/core/lv_obj_draw.c ****     draw_dsc->zoom = LV_IMG_ZOOM_NONE;
 1197              		.loc 1 222 21 is_stmt 0 view .LVU419
 1198 003a 0023     		movs	r3, #0
 1199 003c 2380     		strh	r3, [r4]	@ movhi
 223:lvgl/lvgl/src/core/lv_obj_draw.c ****     draw_dsc->pivot.x = lv_area_get_width(&obj->coords) / 2;
 1200              		.loc 1 223 5 is_stmt 1 view .LVU420
 223:lvgl/lvgl/src/core/lv_obj_draw.c ****     draw_dsc->pivot.x = lv_area_get_width(&obj->coords) / 2;
 1201              		.loc 1 223 20 is_stmt 0 view .LVU421
 1202 003e 4FF48073 		mov	r3, #256
 1203 0042 6380     		strh	r3, [r4, #2]	@ movhi
 224:lvgl/lvgl/src/core/lv_obj_draw.c ****     draw_dsc->pivot.y = lv_area_get_height(&obj->coords) / 2;
 1204              		.loc 1 224 5 is_stmt 1 view .LVU422
 1205              	.LVL116:
 1206              	.LBB234:
 1207              	.LBI234:
ARM GAS  C:\Users\gx\AppData\Local\Temp\cczBUDp5.s 			page 40


 1208              		.file 3 "d:\\practise\\f407_disc\\lvgl\\lvgl\\src\\misc\\lv_area.h"
   1:d:\practise\f407_disc\lvgl\lvgl\src\misc\lv_area.h **** /**
   2:d:\practise\f407_disc\lvgl\lvgl\src\misc\lv_area.h ****  * @file lv_area.h
   3:d:\practise\f407_disc\lvgl\lvgl\src\misc\lv_area.h ****  *
   4:d:\practise\f407_disc\lvgl\lvgl\src\misc\lv_area.h ****  */
   5:d:\practise\f407_disc\lvgl\lvgl\src\misc\lv_area.h **** 
   6:d:\practise\f407_disc\lvgl\lvgl\src\misc\lv_area.h **** #ifndef LV_AREA_H
   7:d:\practise\f407_disc\lvgl\lvgl\src\misc\lv_area.h **** #define LV_AREA_H
   8:d:\practise\f407_disc\lvgl\lvgl\src\misc\lv_area.h **** 
   9:d:\practise\f407_disc\lvgl\lvgl\src\misc\lv_area.h **** #ifdef __cplusplus
  10:d:\practise\f407_disc\lvgl\lvgl\src\misc\lv_area.h **** extern "C" {
  11:d:\practise\f407_disc\lvgl\lvgl\src\misc\lv_area.h **** #endif
  12:d:\practise\f407_disc\lvgl\lvgl\src\misc\lv_area.h **** 
  13:d:\practise\f407_disc\lvgl\lvgl\src\misc\lv_area.h **** /*********************
  14:d:\practise\f407_disc\lvgl\lvgl\src\misc\lv_area.h ****  *      INCLUDES
  15:d:\practise\f407_disc\lvgl\lvgl\src\misc\lv_area.h ****  *********************/
  16:d:\practise\f407_disc\lvgl\lvgl\src\misc\lv_area.h **** #include "../lv_conf_internal.h"
  17:d:\practise\f407_disc\lvgl\lvgl\src\misc\lv_area.h **** #include <string.h>
  18:d:\practise\f407_disc\lvgl\lvgl\src\misc\lv_area.h **** #include <stdbool.h>
  19:d:\practise\f407_disc\lvgl\lvgl\src\misc\lv_area.h **** #include <stdint.h>
  20:d:\practise\f407_disc\lvgl\lvgl\src\misc\lv_area.h **** 
  21:d:\practise\f407_disc\lvgl\lvgl\src\misc\lv_area.h **** /*********************
  22:d:\practise\f407_disc\lvgl\lvgl\src\misc\lv_area.h ****  *      DEFINES
  23:d:\practise\f407_disc\lvgl\lvgl\src\misc\lv_area.h ****  *********************/
  24:d:\practise\f407_disc\lvgl\lvgl\src\misc\lv_area.h **** 
  25:d:\practise\f407_disc\lvgl\lvgl\src\misc\lv_area.h **** #define _LV_COORD_MAX_REDUCE    8192
  26:d:\practise\f407_disc\lvgl\lvgl\src\misc\lv_area.h **** 
  27:d:\practise\f407_disc\lvgl\lvgl\src\misc\lv_area.h **** #if LV_USE_LARGE_COORD
  28:d:\practise\f407_disc\lvgl\lvgl\src\misc\lv_area.h **** typedef int32_t lv_coord_t;
  29:d:\practise\f407_disc\lvgl\lvgl\src\misc\lv_area.h **** #else
  30:d:\practise\f407_disc\lvgl\lvgl\src\misc\lv_area.h **** typedef int16_t lv_coord_t;
  31:d:\practise\f407_disc\lvgl\lvgl\src\misc\lv_area.h **** #endif
  32:d:\practise\f407_disc\lvgl\lvgl\src\misc\lv_area.h **** 
  33:d:\practise\f407_disc\lvgl\lvgl\src\misc\lv_area.h **** /*To allow some special values in the end reduce the max value*/
  34:d:\practise\f407_disc\lvgl\lvgl\src\misc\lv_area.h **** #define LV_COORD_MAX ((lv_coord_t)((uint32_t)((uint32_t)1 << (8 * sizeof(lv_coord_t) - 1)) - _LV_CO
  35:d:\practise\f407_disc\lvgl\lvgl\src\misc\lv_area.h **** #define LV_COORD_MIN (-LV_COORD_MAX)
  36:d:\practise\f407_disc\lvgl\lvgl\src\misc\lv_area.h **** 
  37:d:\practise\f407_disc\lvgl\lvgl\src\misc\lv_area.h **** LV_EXPORT_CONST_INT(LV_COORD_MAX);
  38:d:\practise\f407_disc\lvgl\lvgl\src\misc\lv_area.h **** LV_EXPORT_CONST_INT(LV_COORD_MIN);
  39:d:\practise\f407_disc\lvgl\lvgl\src\misc\lv_area.h **** 
  40:d:\practise\f407_disc\lvgl\lvgl\src\misc\lv_area.h **** /**********************
  41:d:\practise\f407_disc\lvgl\lvgl\src\misc\lv_area.h ****  *      TYPEDEFS
  42:d:\practise\f407_disc\lvgl\lvgl\src\misc\lv_area.h ****  **********************/
  43:d:\practise\f407_disc\lvgl\lvgl\src\misc\lv_area.h **** 
  44:d:\practise\f407_disc\lvgl\lvgl\src\misc\lv_area.h **** /**
  45:d:\practise\f407_disc\lvgl\lvgl\src\misc\lv_area.h ****  * Represents a point on the screen.
  46:d:\practise\f407_disc\lvgl\lvgl\src\misc\lv_area.h ****  */
  47:d:\practise\f407_disc\lvgl\lvgl\src\misc\lv_area.h **** typedef struct {
  48:d:\practise\f407_disc\lvgl\lvgl\src\misc\lv_area.h ****     lv_coord_t x;
  49:d:\practise\f407_disc\lvgl\lvgl\src\misc\lv_area.h ****     lv_coord_t y;
  50:d:\practise\f407_disc\lvgl\lvgl\src\misc\lv_area.h **** } lv_point_t;
  51:d:\practise\f407_disc\lvgl\lvgl\src\misc\lv_area.h **** 
  52:d:\practise\f407_disc\lvgl\lvgl\src\misc\lv_area.h **** /** Represents an area of the screen.*/
  53:d:\practise\f407_disc\lvgl\lvgl\src\misc\lv_area.h **** typedef struct {
  54:d:\practise\f407_disc\lvgl\lvgl\src\misc\lv_area.h ****     lv_coord_t x1;
  55:d:\practise\f407_disc\lvgl\lvgl\src\misc\lv_area.h ****     lv_coord_t y1;
  56:d:\practise\f407_disc\lvgl\lvgl\src\misc\lv_area.h ****     lv_coord_t x2;
ARM GAS  C:\Users\gx\AppData\Local\Temp\cczBUDp5.s 			page 41


  57:d:\practise\f407_disc\lvgl\lvgl\src\misc\lv_area.h ****     lv_coord_t y2;
  58:d:\practise\f407_disc\lvgl\lvgl\src\misc\lv_area.h **** } lv_area_t;
  59:d:\practise\f407_disc\lvgl\lvgl\src\misc\lv_area.h **** 
  60:d:\practise\f407_disc\lvgl\lvgl\src\misc\lv_area.h **** /** Alignments*/
  61:d:\practise\f407_disc\lvgl\lvgl\src\misc\lv_area.h **** enum {
  62:d:\practise\f407_disc\lvgl\lvgl\src\misc\lv_area.h ****     LV_ALIGN_DEFAULT = 0,
  63:d:\practise\f407_disc\lvgl\lvgl\src\misc\lv_area.h ****     LV_ALIGN_TOP_LEFT,
  64:d:\practise\f407_disc\lvgl\lvgl\src\misc\lv_area.h ****     LV_ALIGN_TOP_MID,
  65:d:\practise\f407_disc\lvgl\lvgl\src\misc\lv_area.h ****     LV_ALIGN_TOP_RIGHT,
  66:d:\practise\f407_disc\lvgl\lvgl\src\misc\lv_area.h ****     LV_ALIGN_BOTTOM_LEFT,
  67:d:\practise\f407_disc\lvgl\lvgl\src\misc\lv_area.h ****     LV_ALIGN_BOTTOM_MID,
  68:d:\practise\f407_disc\lvgl\lvgl\src\misc\lv_area.h ****     LV_ALIGN_BOTTOM_RIGHT,
  69:d:\practise\f407_disc\lvgl\lvgl\src\misc\lv_area.h ****     LV_ALIGN_LEFT_MID,
  70:d:\practise\f407_disc\lvgl\lvgl\src\misc\lv_area.h ****     LV_ALIGN_RIGHT_MID,
  71:d:\practise\f407_disc\lvgl\lvgl\src\misc\lv_area.h ****     LV_ALIGN_CENTER,
  72:d:\practise\f407_disc\lvgl\lvgl\src\misc\lv_area.h **** 
  73:d:\practise\f407_disc\lvgl\lvgl\src\misc\lv_area.h ****     LV_ALIGN_OUT_TOP_LEFT,
  74:d:\practise\f407_disc\lvgl\lvgl\src\misc\lv_area.h ****     LV_ALIGN_OUT_TOP_MID,
  75:d:\practise\f407_disc\lvgl\lvgl\src\misc\lv_area.h ****     LV_ALIGN_OUT_TOP_RIGHT,
  76:d:\practise\f407_disc\lvgl\lvgl\src\misc\lv_area.h ****     LV_ALIGN_OUT_BOTTOM_LEFT,
  77:d:\practise\f407_disc\lvgl\lvgl\src\misc\lv_area.h ****     LV_ALIGN_OUT_BOTTOM_MID,
  78:d:\practise\f407_disc\lvgl\lvgl\src\misc\lv_area.h ****     LV_ALIGN_OUT_BOTTOM_RIGHT,
  79:d:\practise\f407_disc\lvgl\lvgl\src\misc\lv_area.h ****     LV_ALIGN_OUT_LEFT_TOP,
  80:d:\practise\f407_disc\lvgl\lvgl\src\misc\lv_area.h ****     LV_ALIGN_OUT_LEFT_MID,
  81:d:\practise\f407_disc\lvgl\lvgl\src\misc\lv_area.h ****     LV_ALIGN_OUT_LEFT_BOTTOM,
  82:d:\practise\f407_disc\lvgl\lvgl\src\misc\lv_area.h ****     LV_ALIGN_OUT_RIGHT_TOP,
  83:d:\practise\f407_disc\lvgl\lvgl\src\misc\lv_area.h ****     LV_ALIGN_OUT_RIGHT_MID,
  84:d:\practise\f407_disc\lvgl\lvgl\src\misc\lv_area.h ****     LV_ALIGN_OUT_RIGHT_BOTTOM,
  85:d:\practise\f407_disc\lvgl\lvgl\src\misc\lv_area.h **** };
  86:d:\practise\f407_disc\lvgl\lvgl\src\misc\lv_area.h **** typedef uint8_t lv_align_t;
  87:d:\practise\f407_disc\lvgl\lvgl\src\misc\lv_area.h **** 
  88:d:\practise\f407_disc\lvgl\lvgl\src\misc\lv_area.h **** enum {
  89:d:\practise\f407_disc\lvgl\lvgl\src\misc\lv_area.h ****     LV_DIR_NONE     = 0x00,
  90:d:\practise\f407_disc\lvgl\lvgl\src\misc\lv_area.h ****     LV_DIR_LEFT     = (1 << 0),
  91:d:\practise\f407_disc\lvgl\lvgl\src\misc\lv_area.h ****     LV_DIR_RIGHT    = (1 << 1),
  92:d:\practise\f407_disc\lvgl\lvgl\src\misc\lv_area.h ****     LV_DIR_TOP      = (1 << 2),
  93:d:\practise\f407_disc\lvgl\lvgl\src\misc\lv_area.h ****     LV_DIR_BOTTOM   = (1 << 3),
  94:d:\practise\f407_disc\lvgl\lvgl\src\misc\lv_area.h ****     LV_DIR_HOR      = LV_DIR_LEFT | LV_DIR_RIGHT,
  95:d:\practise\f407_disc\lvgl\lvgl\src\misc\lv_area.h ****     LV_DIR_VER      = LV_DIR_TOP | LV_DIR_BOTTOM,
  96:d:\practise\f407_disc\lvgl\lvgl\src\misc\lv_area.h ****     LV_DIR_ALL      = LV_DIR_HOR | LV_DIR_VER,
  97:d:\practise\f407_disc\lvgl\lvgl\src\misc\lv_area.h **** };
  98:d:\practise\f407_disc\lvgl\lvgl\src\misc\lv_area.h **** 
  99:d:\practise\f407_disc\lvgl\lvgl\src\misc\lv_area.h **** typedef uint8_t lv_dir_t;
 100:d:\practise\f407_disc\lvgl\lvgl\src\misc\lv_area.h **** 
 101:d:\practise\f407_disc\lvgl\lvgl\src\misc\lv_area.h **** /**********************
 102:d:\practise\f407_disc\lvgl\lvgl\src\misc\lv_area.h ****  * GLOBAL PROTOTYPES
 103:d:\practise\f407_disc\lvgl\lvgl\src\misc\lv_area.h ****  **********************/
 104:d:\practise\f407_disc\lvgl\lvgl\src\misc\lv_area.h **** 
 105:d:\practise\f407_disc\lvgl\lvgl\src\misc\lv_area.h **** /**
 106:d:\practise\f407_disc\lvgl\lvgl\src\misc\lv_area.h ****  * Initialize an area
 107:d:\practise\f407_disc\lvgl\lvgl\src\misc\lv_area.h ****  * @param area_p pointer to an area
 108:d:\practise\f407_disc\lvgl\lvgl\src\misc\lv_area.h ****  * @param x1 left coordinate of the area
 109:d:\practise\f407_disc\lvgl\lvgl\src\misc\lv_area.h ****  * @param y1 top coordinate of the area
 110:d:\practise\f407_disc\lvgl\lvgl\src\misc\lv_area.h ****  * @param x2 right coordinate of the area
 111:d:\practise\f407_disc\lvgl\lvgl\src\misc\lv_area.h ****  * @param y2 bottom coordinate of the area
 112:d:\practise\f407_disc\lvgl\lvgl\src\misc\lv_area.h ****  */
 113:d:\practise\f407_disc\lvgl\lvgl\src\misc\lv_area.h **** void lv_area_set(lv_area_t * area_p, lv_coord_t x1, lv_coord_t y1, lv_coord_t x2, lv_coord_t y2);
ARM GAS  C:\Users\gx\AppData\Local\Temp\cczBUDp5.s 			page 42


 114:d:\practise\f407_disc\lvgl\lvgl\src\misc\lv_area.h **** 
 115:d:\practise\f407_disc\lvgl\lvgl\src\misc\lv_area.h **** /**
 116:d:\practise\f407_disc\lvgl\lvgl\src\misc\lv_area.h ****  * Copy an area
 117:d:\practise\f407_disc\lvgl\lvgl\src\misc\lv_area.h ****  * @param dest pointer to the destination area
 118:d:\practise\f407_disc\lvgl\lvgl\src\misc\lv_area.h ****  * @param src pointer to the source area
 119:d:\practise\f407_disc\lvgl\lvgl\src\misc\lv_area.h ****  */
 120:d:\practise\f407_disc\lvgl\lvgl\src\misc\lv_area.h **** inline static void lv_area_copy(lv_area_t * dest, const lv_area_t * src)
 121:d:\practise\f407_disc\lvgl\lvgl\src\misc\lv_area.h **** {
 122:d:\practise\f407_disc\lvgl\lvgl\src\misc\lv_area.h ****     dest->x1 = src->x1;
 123:d:\practise\f407_disc\lvgl\lvgl\src\misc\lv_area.h ****     dest->y1 = src->y1;
 124:d:\practise\f407_disc\lvgl\lvgl\src\misc\lv_area.h ****     dest->x2 = src->x2;
 125:d:\practise\f407_disc\lvgl\lvgl\src\misc\lv_area.h ****     dest->y2 = src->y2;
 126:d:\practise\f407_disc\lvgl\lvgl\src\misc\lv_area.h **** }
 127:d:\practise\f407_disc\lvgl\lvgl\src\misc\lv_area.h **** 
 128:d:\practise\f407_disc\lvgl\lvgl\src\misc\lv_area.h **** /**
 129:d:\practise\f407_disc\lvgl\lvgl\src\misc\lv_area.h ****  * Get the width of an area
 130:d:\practise\f407_disc\lvgl\lvgl\src\misc\lv_area.h ****  * @param area_p pointer to an area
 131:d:\practise\f407_disc\lvgl\lvgl\src\misc\lv_area.h ****  * @return the width of the area (if x1 == x2 -> width = 1)
 132:d:\practise\f407_disc\lvgl\lvgl\src\misc\lv_area.h ****  */
 133:d:\practise\f407_disc\lvgl\lvgl\src\misc\lv_area.h **** static inline lv_coord_t lv_area_get_width(const lv_area_t * area_p)
 1209              		.loc 3 133 26 view .LVU423
 1210              	.LBB235:
 134:d:\practise\f407_disc\lvgl\lvgl\src\misc\lv_area.h **** {
 135:d:\practise\f407_disc\lvgl\lvgl\src\misc\lv_area.h ****     return (lv_coord_t)(area_p->x2 - area_p->x1 + 1);
 1211              		.loc 3 135 5 view .LVU424
 1212              		.loc 3 135 31 is_stmt 0 view .LVU425
 1213 0044 2B8B     		ldrh	r3, [r5, #24]
 1214              		.loc 3 135 44 view .LVU426
 1215 0046 AA8A     		ldrh	r2, [r5, #20]
 1216              		.loc 3 135 36 view .LVU427
 1217 0048 9B1A     		subs	r3, r3, r2
 1218 004a 9BB2     		uxth	r3, r3
 1219              		.loc 3 135 49 view .LVU428
 1220 004c 0133     		adds	r3, r3, #1
 1221              	.LVL117:
 1222              		.loc 3 135 49 view .LVU429
 1223              	.LBE235:
 1224              	.LBE234:
 224:lvgl/lvgl/src/core/lv_obj_draw.c ****     draw_dsc->pivot.y = lv_area_get_height(&obj->coords) / 2;
 1225              		.loc 1 224 23 view .LVU430
 1226 004e C3F3C032 		ubfx	r2, r3, #15, #1
 1227 0052 02FA83F3 		sxtah	r3, r2, r3
 1228 0056 5B10     		asrs	r3, r3, #1
 1229 0058 A380     		strh	r3, [r4, #4]	@ movhi
 225:lvgl/lvgl/src/core/lv_obj_draw.c **** 
 1230              		.loc 1 225 5 is_stmt 1 view .LVU431
 1231              	.LVL118:
 1232              	.LBB236:
 1233              	.LBI236:
 136:d:\practise\f407_disc\lvgl\lvgl\src\misc\lv_area.h **** }
 137:d:\practise\f407_disc\lvgl\lvgl\src\misc\lv_area.h **** 
 138:d:\practise\f407_disc\lvgl\lvgl\src\misc\lv_area.h **** /**
 139:d:\practise\f407_disc\lvgl\lvgl\src\misc\lv_area.h ****  * Get the height of an area
 140:d:\practise\f407_disc\lvgl\lvgl\src\misc\lv_area.h ****  * @param area_p pointer to an area
 141:d:\practise\f407_disc\lvgl\lvgl\src\misc\lv_area.h ****  * @return the height of the area (if y1 == y2 -> height = 1)
 142:d:\practise\f407_disc\lvgl\lvgl\src\misc\lv_area.h ****  */
 143:d:\practise\f407_disc\lvgl\lvgl\src\misc\lv_area.h **** static inline lv_coord_t lv_area_get_height(const lv_area_t * area_p)
ARM GAS  C:\Users\gx\AppData\Local\Temp\cczBUDp5.s 			page 43


 1234              		.loc 3 143 26 view .LVU432
 1235              	.LBB237:
 144:d:\practise\f407_disc\lvgl\lvgl\src\misc\lv_area.h **** {
 145:d:\practise\f407_disc\lvgl\lvgl\src\misc\lv_area.h ****     return (lv_coord_t)(area_p->y2 - area_p->y1 + 1);
 1236              		.loc 3 145 5 view .LVU433
 1237              		.loc 3 145 31 is_stmt 0 view .LVU434
 1238 005a 6B8B     		ldrh	r3, [r5, #26]
 1239              		.loc 3 145 44 view .LVU435
 1240 005c EA8A     		ldrh	r2, [r5, #22]
 1241              		.loc 3 145 36 view .LVU436
 1242 005e 9B1A     		subs	r3, r3, r2
 1243 0060 9BB2     		uxth	r3, r3
 1244              		.loc 3 145 49 view .LVU437
 1245 0062 0133     		adds	r3, r3, #1
 1246              	.LVL119:
 1247              		.loc 3 145 49 view .LVU438
 1248              	.LBE237:
 1249              	.LBE236:
 225:lvgl/lvgl/src/core/lv_obj_draw.c **** 
 1250              		.loc 1 225 23 view .LVU439
 1251 0064 C3F3C032 		ubfx	r2, r3, #15, #1
 1252 0068 02FA83F3 		sxtah	r3, r2, r3
 1253 006c 5B10     		asrs	r3, r3, #1
 1254 006e E380     		strh	r3, [r4, #6]	@ movhi
 227:lvgl/lvgl/src/core/lv_obj_draw.c ****     if(draw_dsc->recolor_opa > 0) {
 1255              		.loc 1 227 5 is_stmt 1 view .LVU440
 1256              	.LVL120:
 1257              	.LBB238:
 1258              	.LBI238:
 379:lvgl/lvgl/src/core/lv_obj_style_gen.h **** {
 1259              		.loc 2 379 24 view .LVU441
 1260              	.LBB239:
 381:lvgl/lvgl/src/core/lv_obj_style_gen.h ****     return (lv_opa_t)v.num;
 1261              		.loc 2 381 5 view .LVU442
 381:lvgl/lvgl/src/core/lv_obj_style_gen.h ****     return (lv_opa_t)v.num;
 1262              		.loc 2 381 26 is_stmt 0 view .LVU443
 1263 0070 4822     		movs	r2, #72
 1264 0072 3146     		mov	r1, r6
 1265 0074 2846     		mov	r0, r5
 1266 0076 FFF7FEFF 		bl	lv_obj_get_style_prop
 1267              	.LVL121:
 382:lvgl/lvgl/src/core/lv_obj_style_gen.h **** }
 1268              		.loc 2 382 5 is_stmt 1 view .LVU444
 382:lvgl/lvgl/src/core/lv_obj_style_gen.h **** }
 1269              		.loc 2 382 12 is_stmt 0 view .LVU445
 1270 007a C0B2     		uxtb	r0, r0
 1271              	.LVL122:
 382:lvgl/lvgl/src/core/lv_obj_style_gen.h **** }
 1272              		.loc 2 382 12 view .LVU446
 1273              	.LBE239:
 1274              	.LBE238:
 227:lvgl/lvgl/src/core/lv_obj_draw.c ****     if(draw_dsc->recolor_opa > 0) {
 1275              		.loc 1 227 27 view .LVU447
 1276 007c A072     		strb	r0, [r4, #10]
 228:lvgl/lvgl/src/core/lv_obj_draw.c ****         draw_dsc->recolor = lv_obj_get_style_img_recolor(obj, part);
 1277              		.loc 1 228 5 is_stmt 1 view .LVU448
 228:lvgl/lvgl/src/core/lv_obj_draw.c ****         draw_dsc->recolor = lv_obj_get_style_img_recolor(obj, part);
ARM GAS  C:\Users\gx\AppData\Local\Temp\cczBUDp5.s 			page 44


 1278              		.loc 1 228 7 is_stmt 0 view .LVU449
 1279 007e 48B9     		cbnz	r0, .L33
 1280              	.L30:
 232:lvgl/lvgl/src/core/lv_obj_draw.c **** #endif
 1281              		.loc 1 232 5 is_stmt 1 view .LVU450
 1282              	.LVL123:
 1283              	.LBB240:
 1284              	.LBI240:
 175:lvgl/lvgl/src/core/lv_obj_style_gen.h **** {
 1285              		.loc 2 175 31 view .LVU451
 1286              	.LBB241:
 177:lvgl/lvgl/src/core/lv_obj_style_gen.h ****     return (lv_blend_mode_t)v.num;
 1287              		.loc 2 177 5 view .LVU452
 177:lvgl/lvgl/src/core/lv_obj_style_gen.h ****     return (lv_blend_mode_t)v.num;
 1288              		.loc 2 177 26 is_stmt 0 view .LVU453
 1289 0080 6822     		movs	r2, #104
 1290 0082 3146     		mov	r1, r6
 1291 0084 2846     		mov	r0, r5
 1292 0086 FFF7FEFF 		bl	lv_obj_get_style_prop
 1293              	.LVL124:
 178:lvgl/lvgl/src/core/lv_obj_style_gen.h **** }
 1294              		.loc 2 178 5 is_stmt 1 view .LVU454
 178:lvgl/lvgl/src/core/lv_obj_style_gen.h **** }
 1295              		.loc 2 178 5 is_stmt 0 view .LVU455
 1296              	.LBE241:
 1297              	.LBE240:
 232:lvgl/lvgl/src/core/lv_obj_draw.c **** #endif
 1298              		.loc 1 232 26 view .LVU456
 1299 008a 237B     		ldrb	r3, [r4, #12]	@ zero_extendqisi2
 1300 008c 60F30303 		bfi	r3, r0, #0, #4
 1301 0090 2373     		strb	r3, [r4, #12]
 1302 0092 C0E7     		b	.L27
 1303              	.L33:
 229:lvgl/lvgl/src/core/lv_obj_draw.c ****     }
 1304              		.loc 1 229 9 is_stmt 1 view .LVU457
 1305              	.LVL125:
 1306              	.LBB242:
 1307              	.LBI242:
 367:lvgl/lvgl/src/core/lv_obj_style_gen.h **** {
 1308              		.loc 2 367 26 view .LVU458
 1309              	.LBB243:
 369:lvgl/lvgl/src/core/lv_obj_style_gen.h ****     return v.color;
 1310              		.loc 2 369 5 view .LVU459
 369:lvgl/lvgl/src/core/lv_obj_style_gen.h ****     return v.color;
 1311              		.loc 2 369 26 is_stmt 0 view .LVU460
 1312 0094 4722     		movs	r2, #71
 1313 0096 3146     		mov	r1, r6
 1314 0098 2846     		mov	r0, r5
 1315 009a FFF7FEFF 		bl	lv_obj_get_style_prop
 1316              	.LVL126:
 370:lvgl/lvgl/src/core/lv_obj_style_gen.h **** }
 1317              		.loc 2 370 5 is_stmt 1 view .LVU461
 370:lvgl/lvgl/src/core/lv_obj_style_gen.h **** }
 1318              		.loc 2 370 5 is_stmt 0 view .LVU462
 1319              	.LBE243:
 1320              	.LBE242:
 229:lvgl/lvgl/src/core/lv_obj_draw.c ****     }
ARM GAS  C:\Users\gx\AppData\Local\Temp\cczBUDp5.s 			page 45


 1321              		.loc 1 229 29 view .LVU463
 1322 009e 2081     		strh	r0, [r4, #8]	@ movhi
 1323 00a0 EEE7     		b	.L30
 1324              		.cfi_endproc
 1325              	.LFE160:
 1327              		.section	.text.lv_obj_init_draw_line_dsc,"ax",%progbits
 1328              		.align	1
 1329              		.global	lv_obj_init_draw_line_dsc
 1330              		.syntax unified
 1331              		.thumb
 1332              		.thumb_func
 1333              		.fpu fpv4-sp-d16
 1335              	lv_obj_init_draw_line_dsc:
 1336              	.LVL127:
 1337              	.LFB161:
 235:lvgl/lvgl/src/core/lv_obj_draw.c **** 
 236:lvgl/lvgl/src/core/lv_obj_draw.c **** void lv_obj_init_draw_line_dsc(lv_obj_t * obj, uint32_t part, lv_draw_line_dsc_t * draw_dsc)
 237:lvgl/lvgl/src/core/lv_obj_draw.c **** {
 1338              		.loc 1 237 1 is_stmt 1 view -0
 1339              		.cfi_startproc
 1340              		@ args = 0, pretend = 0, frame = 0
 1341              		@ frame_needed = 0, uses_anonymous_args = 0
 1342              		.loc 1 237 1 is_stmt 0 view .LVU465
 1343 0000 70B5     		push	{r4, r5, r6, lr}
 1344              	.LCFI3:
 1345              		.cfi_def_cfa_offset 16
 1346              		.cfi_offset 4, -16
 1347              		.cfi_offset 5, -12
 1348              		.cfi_offset 6, -8
 1349              		.cfi_offset 14, -4
 1350 0002 0546     		mov	r5, r0
 1351 0004 0E46     		mov	r6, r1
 1352 0006 1446     		mov	r4, r2
 238:lvgl/lvgl/src/core/lv_obj_draw.c ****     draw_dsc->width = lv_obj_get_style_line_width(obj, part);
 1353              		.loc 1 238 5 is_stmt 1 view .LVU466
 1354              	.LVL128:
 1355              	.LBB244:
 1356              	.LBI244:
 455:lvgl/lvgl/src/core/lv_obj_style_gen.h **** }
 456:lvgl/lvgl/src/core/lv_obj_style_gen.h **** 
 457:lvgl/lvgl/src/core/lv_obj_style_gen.h **** static inline lv_coord_t lv_obj_get_style_line_width(const struct _lv_obj_t * obj, uint32_t part)
 1357              		.loc 2 457 26 view .LVU467
 1358              	.LBB245:
 458:lvgl/lvgl/src/core/lv_obj_style_gen.h **** {
 459:lvgl/lvgl/src/core/lv_obj_style_gen.h ****     lv_style_value_t v = lv_obj_get_style_prop(obj, part, LV_STYLE_LINE_WIDTH);
 1359              		.loc 2 459 5 view .LVU468
 1360              		.loc 2 459 26 is_stmt 0 view .LVU469
 1361 0008 40F64902 		movw	r2, #2121
 1362              	.LVL129:
 1363              		.loc 2 459 26 view .LVU470
 1364 000c FFF7FEFF 		bl	lv_obj_get_style_prop
 1365              	.LVL130:
 460:lvgl/lvgl/src/core/lv_obj_style_gen.h ****     return (lv_coord_t)v.num;
 1366              		.loc 2 460 5 is_stmt 1 view .LVU471
 1367              		.loc 2 460 12 is_stmt 0 view .LVU472
 1368 0010 00B2     		sxth	r0, r0
 1369              	.LVL131:
ARM GAS  C:\Users\gx\AppData\Local\Temp\cczBUDp5.s 			page 46


 1370              		.loc 2 460 12 view .LVU473
 1371              	.LBE245:
 1372              	.LBE244:
 1373              		.loc 1 238 21 view .LVU474
 1374 0012 6080     		strh	r0, [r4, #2]	@ movhi
 239:lvgl/lvgl/src/core/lv_obj_draw.c ****     if(draw_dsc->width == 0) return;
 1375              		.loc 1 239 5 is_stmt 1 view .LVU475
 1376              		.loc 1 239 7 is_stmt 0 view .LVU476
 1377 0014 00B9     		cbnz	r0, .L39
 1378              	.L34:
 240:lvgl/lvgl/src/core/lv_obj_draw.c **** 
 241:lvgl/lvgl/src/core/lv_obj_draw.c ****     draw_dsc->opa = lv_obj_get_style_line_opa(obj, part);
 242:lvgl/lvgl/src/core/lv_obj_draw.c ****     if(draw_dsc->opa <= LV_OPA_MIN)  return;
 243:lvgl/lvgl/src/core/lv_obj_draw.c **** 
 244:lvgl/lvgl/src/core/lv_obj_draw.c ****     lv_opa_t opa = lv_obj_get_style_opa(obj, part);
 245:lvgl/lvgl/src/core/lv_obj_draw.c ****     if(opa < LV_OPA_MAX) {
 246:lvgl/lvgl/src/core/lv_obj_draw.c ****         draw_dsc->opa = (uint16_t)((uint16_t)draw_dsc->opa * opa) >> 8;
 247:lvgl/lvgl/src/core/lv_obj_draw.c ****     }
 248:lvgl/lvgl/src/core/lv_obj_draw.c ****     if(draw_dsc->opa <= LV_OPA_MIN)  return;
 249:lvgl/lvgl/src/core/lv_obj_draw.c **** 
 250:lvgl/lvgl/src/core/lv_obj_draw.c ****     draw_dsc->color = lv_obj_get_style_line_color(obj, part);
 251:lvgl/lvgl/src/core/lv_obj_draw.c **** 
 252:lvgl/lvgl/src/core/lv_obj_draw.c ****     draw_dsc->dash_width = lv_obj_get_style_line_dash_width(obj, part);
 253:lvgl/lvgl/src/core/lv_obj_draw.c ****     if(draw_dsc->dash_width) {
 254:lvgl/lvgl/src/core/lv_obj_draw.c ****         draw_dsc->dash_gap = lv_obj_get_style_line_dash_gap(obj, part);
 255:lvgl/lvgl/src/core/lv_obj_draw.c ****     }
 256:lvgl/lvgl/src/core/lv_obj_draw.c **** 
 257:lvgl/lvgl/src/core/lv_obj_draw.c ****     draw_dsc->round_start = lv_obj_get_style_line_rounded(obj, part);
 258:lvgl/lvgl/src/core/lv_obj_draw.c ****     draw_dsc->round_end = draw_dsc->round_start;
 259:lvgl/lvgl/src/core/lv_obj_draw.c **** 
 260:lvgl/lvgl/src/core/lv_obj_draw.c **** #if LV_DRAW_COMPLEX
 261:lvgl/lvgl/src/core/lv_obj_draw.c ****     draw_dsc->blend_mode = lv_obj_get_style_blend_mode(obj, part);
 262:lvgl/lvgl/src/core/lv_obj_draw.c **** #endif
 263:lvgl/lvgl/src/core/lv_obj_draw.c **** }
 1379              		.loc 1 263 1 view .LVU477
 1380 0016 70BD     		pop	{r4, r5, r6, pc}
 1381              	.LVL132:
 1382              	.L39:
 241:lvgl/lvgl/src/core/lv_obj_draw.c ****     if(draw_dsc->opa <= LV_OPA_MIN)  return;
 1383              		.loc 1 241 5 is_stmt 1 view .LVU478
 1384              	.LBB246:
 1385              	.LBI246:
 461:lvgl/lvgl/src/core/lv_obj_style_gen.h **** }
 462:lvgl/lvgl/src/core/lv_obj_style_gen.h **** 
 463:lvgl/lvgl/src/core/lv_obj_style_gen.h **** static inline lv_coord_t lv_obj_get_style_line_dash_width(const struct _lv_obj_t * obj, uint32_t pa
 464:lvgl/lvgl/src/core/lv_obj_style_gen.h **** {
 465:lvgl/lvgl/src/core/lv_obj_style_gen.h ****     lv_style_value_t v = lv_obj_get_style_prop(obj, part, LV_STYLE_LINE_DASH_WIDTH);
 466:lvgl/lvgl/src/core/lv_obj_style_gen.h ****     return (lv_coord_t)v.num;
 467:lvgl/lvgl/src/core/lv_obj_style_gen.h **** }
 468:lvgl/lvgl/src/core/lv_obj_style_gen.h **** 
 469:lvgl/lvgl/src/core/lv_obj_style_gen.h **** static inline lv_coord_t lv_obj_get_style_line_dash_gap(const struct _lv_obj_t * obj, uint32_t part
 470:lvgl/lvgl/src/core/lv_obj_style_gen.h **** {
 471:lvgl/lvgl/src/core/lv_obj_style_gen.h ****     lv_style_value_t v = lv_obj_get_style_prop(obj, part, LV_STYLE_LINE_DASH_GAP);
 472:lvgl/lvgl/src/core/lv_obj_style_gen.h ****     return (lv_coord_t)v.num;
 473:lvgl/lvgl/src/core/lv_obj_style_gen.h **** }
 474:lvgl/lvgl/src/core/lv_obj_style_gen.h **** 
 475:lvgl/lvgl/src/core/lv_obj_style_gen.h **** static inline lv_coord_t lv_obj_get_style_line_rounded(const struct _lv_obj_t * obj, uint32_t part)
ARM GAS  C:\Users\gx\AppData\Local\Temp\cczBUDp5.s 			page 47


 476:lvgl/lvgl/src/core/lv_obj_style_gen.h **** {
 477:lvgl/lvgl/src/core/lv_obj_style_gen.h ****     lv_style_value_t v = lv_obj_get_style_prop(obj, part, LV_STYLE_LINE_ROUNDED);
 478:lvgl/lvgl/src/core/lv_obj_style_gen.h ****     return (lv_coord_t)v.num;
 479:lvgl/lvgl/src/core/lv_obj_style_gen.h **** }
 480:lvgl/lvgl/src/core/lv_obj_style_gen.h **** 
 481:lvgl/lvgl/src/core/lv_obj_style_gen.h **** static inline lv_color_t lv_obj_get_style_line_color(const struct _lv_obj_t * obj, uint32_t part)
 482:lvgl/lvgl/src/core/lv_obj_style_gen.h **** {
 483:lvgl/lvgl/src/core/lv_obj_style_gen.h ****     lv_style_value_t v = lv_obj_get_style_prop(obj, part, LV_STYLE_LINE_COLOR);
 484:lvgl/lvgl/src/core/lv_obj_style_gen.h ****     return v.color;
 485:lvgl/lvgl/src/core/lv_obj_style_gen.h **** }
 486:lvgl/lvgl/src/core/lv_obj_style_gen.h **** 
 487:lvgl/lvgl/src/core/lv_obj_style_gen.h **** static inline lv_color_t lv_obj_get_style_line_color_filtered(const struct _lv_obj_t * obj, uint32_
 488:lvgl/lvgl/src/core/lv_obj_style_gen.h **** {
 489:lvgl/lvgl/src/core/lv_obj_style_gen.h ****     lv_style_value_t v = lv_obj_get_style_prop(obj, part, LV_STYLE_LINE_COLOR_FILTERED);
 490:lvgl/lvgl/src/core/lv_obj_style_gen.h ****     return v.color;
 491:lvgl/lvgl/src/core/lv_obj_style_gen.h **** }
 492:lvgl/lvgl/src/core/lv_obj_style_gen.h **** 
 493:lvgl/lvgl/src/core/lv_obj_style_gen.h **** static inline lv_opa_t lv_obj_get_style_line_opa(const struct _lv_obj_t * obj, uint32_t part)
 1386              		.loc 2 493 24 view .LVU479
 1387              	.LBB247:
 494:lvgl/lvgl/src/core/lv_obj_style_gen.h **** {
 495:lvgl/lvgl/src/core/lv_obj_style_gen.h ****     lv_style_value_t v = lv_obj_get_style_prop(obj, part, LV_STYLE_LINE_OPA);
 1388              		.loc 2 495 5 view .LVU480
 1389              		.loc 2 495 26 is_stmt 0 view .LVU481
 1390 0018 4E22     		movs	r2, #78
 1391 001a 3146     		mov	r1, r6
 1392 001c 2846     		mov	r0, r5
 1393 001e FFF7FEFF 		bl	lv_obj_get_style_prop
 1394              	.LVL133:
 496:lvgl/lvgl/src/core/lv_obj_style_gen.h ****     return (lv_opa_t)v.num;
 1395              		.loc 2 496 5 is_stmt 1 view .LVU482
 1396              		.loc 2 496 12 is_stmt 0 view .LVU483
 1397 0022 C3B2     		uxtb	r3, r0
 1398              	.LVL134:
 1399              		.loc 2 496 12 view .LVU484
 1400              	.LBE247:
 1401              	.LBE246:
 241:lvgl/lvgl/src/core/lv_obj_draw.c ****     if(draw_dsc->opa <= LV_OPA_MIN)  return;
 1402              		.loc 1 241 19 view .LVU485
 1403 0024 2372     		strb	r3, [r4, #8]
 242:lvgl/lvgl/src/core/lv_obj_draw.c **** 
 1404              		.loc 1 242 5 is_stmt 1 view .LVU486
 242:lvgl/lvgl/src/core/lv_obj_draw.c **** 
 1405              		.loc 1 242 7 is_stmt 0 view .LVU487
 1406 0026 022B     		cmp	r3, #2
 1407 0028 F5D9     		bls	.L34
 244:lvgl/lvgl/src/core/lv_obj_draw.c ****     if(opa < LV_OPA_MAX) {
 1408              		.loc 1 244 5 is_stmt 1 view .LVU488
 1409              	.LVL135:
 1410              	.LBB248:
 1411              	.LBI248:
 139:lvgl/lvgl/src/core/lv_obj_style_gen.h **** {
 1412              		.loc 2 139 24 view .LVU489
 1413              	.LBB249:
 141:lvgl/lvgl/src/core/lv_obj_style_gen.h ****     return (lv_opa_t)v.num;
 1414              		.loc 2 141 5 view .LVU490
 141:lvgl/lvgl/src/core/lv_obj_style_gen.h ****     return (lv_opa_t)v.num;
ARM GAS  C:\Users\gx\AppData\Local\Temp\cczBUDp5.s 			page 48


 1415              		.loc 2 141 26 is_stmt 0 view .LVU491
 1416 002a 40F26242 		movw	r2, #1122
 1417 002e 3146     		mov	r1, r6
 1418 0030 2846     		mov	r0, r5
 1419 0032 FFF7FEFF 		bl	lv_obj_get_style_prop
 1420              	.LVL136:
 142:lvgl/lvgl/src/core/lv_obj_style_gen.h **** }
 1421              		.loc 2 142 5 is_stmt 1 view .LVU492
 142:lvgl/lvgl/src/core/lv_obj_style_gen.h **** }
 1422              		.loc 2 142 12 is_stmt 0 view .LVU493
 1423 0036 C0B2     		uxtb	r0, r0
 1424              	.LVL137:
 142:lvgl/lvgl/src/core/lv_obj_style_gen.h **** }
 1425              		.loc 2 142 12 view .LVU494
 1426              	.LBE249:
 1427              	.LBE248:
 245:lvgl/lvgl/src/core/lv_obj_draw.c ****         draw_dsc->opa = (uint16_t)((uint16_t)draw_dsc->opa * opa) >> 8;
 1428              		.loc 1 245 5 is_stmt 1 view .LVU495
 245:lvgl/lvgl/src/core/lv_obj_draw.c ****         draw_dsc->opa = (uint16_t)((uint16_t)draw_dsc->opa * opa) >> 8;
 1429              		.loc 1 245 7 is_stmt 0 view .LVU496
 1430 0038 FC28     		cmp	r0, #252
 1431 003a 04D8     		bhi	.L36
 246:lvgl/lvgl/src/core/lv_obj_draw.c ****     }
 1432              		.loc 1 246 9 is_stmt 1 view .LVU497
 246:lvgl/lvgl/src/core/lv_obj_draw.c ****     }
 1433              		.loc 1 246 54 is_stmt 0 view .LVU498
 1434 003c 237A     		ldrb	r3, [r4, #8]	@ zero_extendqisi2
 246:lvgl/lvgl/src/core/lv_obj_draw.c ****     }
 1435              		.loc 1 246 25 view .LVU499
 1436 003e 00FB03F0 		mul	r0, r0, r3
 1437              	.LVL138:
 246:lvgl/lvgl/src/core/lv_obj_draw.c ****     }
 1438              		.loc 1 246 23 view .LVU500
 1439 0042 000A     		lsrs	r0, r0, #8
 1440 0044 2072     		strb	r0, [r4, #8]
 1441              	.L36:
 248:lvgl/lvgl/src/core/lv_obj_draw.c **** 
 1442              		.loc 1 248 5 is_stmt 1 view .LVU501
 248:lvgl/lvgl/src/core/lv_obj_draw.c **** 
 1443              		.loc 1 248 16 is_stmt 0 view .LVU502
 1444 0046 237A     		ldrb	r3, [r4, #8]	@ zero_extendqisi2
 248:lvgl/lvgl/src/core/lv_obj_draw.c **** 
 1445              		.loc 1 248 7 view .LVU503
 1446 0048 022B     		cmp	r3, #2
 1447 004a E4D9     		bls	.L34
 250:lvgl/lvgl/src/core/lv_obj_draw.c **** 
 1448              		.loc 1 250 5 is_stmt 1 view .LVU504
 1449              	.LVL139:
 1450              	.LBB250:
 1451              	.LBI250:
 481:lvgl/lvgl/src/core/lv_obj_style_gen.h **** {
 1452              		.loc 2 481 26 view .LVU505
 1453              	.LBB251:
 483:lvgl/lvgl/src/core/lv_obj_style_gen.h ****     return v.color;
 1454              		.loc 2 483 5 view .LVU506
 483:lvgl/lvgl/src/core/lv_obj_style_gen.h ****     return v.color;
 1455              		.loc 2 483 26 is_stmt 0 view .LVU507
ARM GAS  C:\Users\gx\AppData\Local\Temp\cczBUDp5.s 			page 49


 1456 004c 4D22     		movs	r2, #77
 1457 004e 3146     		mov	r1, r6
 1458 0050 2846     		mov	r0, r5
 1459 0052 FFF7FEFF 		bl	lv_obj_get_style_prop
 1460              	.LVL140:
 484:lvgl/lvgl/src/core/lv_obj_style_gen.h **** }
 1461              		.loc 2 484 5 is_stmt 1 view .LVU508
 484:lvgl/lvgl/src/core/lv_obj_style_gen.h **** }
 1462              		.loc 2 484 5 is_stmt 0 view .LVU509
 1463              	.LBE251:
 1464              	.LBE250:
 250:lvgl/lvgl/src/core/lv_obj_draw.c **** 
 1465              		.loc 1 250 23 view .LVU510
 1466 0056 2080     		strh	r0, [r4]	@ movhi
 252:lvgl/lvgl/src/core/lv_obj_draw.c ****     if(draw_dsc->dash_width) {
 1467              		.loc 1 252 5 is_stmt 1 view .LVU511
 1468              	.LVL141:
 1469              	.LBB252:
 1470              	.LBI252:
 463:lvgl/lvgl/src/core/lv_obj_style_gen.h **** {
 1471              		.loc 2 463 26 view .LVU512
 1472              	.LBB253:
 465:lvgl/lvgl/src/core/lv_obj_style_gen.h ****     return (lv_coord_t)v.num;
 1473              		.loc 2 465 5 view .LVU513
 465:lvgl/lvgl/src/core/lv_obj_style_gen.h ****     return (lv_coord_t)v.num;
 1474              		.loc 2 465 26 is_stmt 0 view .LVU514
 1475 0058 4A22     		movs	r2, #74
 1476 005a 3146     		mov	r1, r6
 1477 005c 2846     		mov	r0, r5
 1478 005e FFF7FEFF 		bl	lv_obj_get_style_prop
 1479              	.LVL142:
 466:lvgl/lvgl/src/core/lv_obj_style_gen.h **** }
 1480              		.loc 2 466 5 is_stmt 1 view .LVU515
 466:lvgl/lvgl/src/core/lv_obj_style_gen.h **** }
 1481              		.loc 2 466 12 is_stmt 0 view .LVU516
 1482 0062 00B2     		sxth	r0, r0
 1483              	.LVL143:
 466:lvgl/lvgl/src/core/lv_obj_style_gen.h **** }
 1484              		.loc 2 466 12 view .LVU517
 1485              	.LBE253:
 1486              	.LBE252:
 252:lvgl/lvgl/src/core/lv_obj_draw.c ****     if(draw_dsc->dash_width) {
 1487              		.loc 1 252 26 view .LVU518
 1488 0064 A080     		strh	r0, [r4, #4]	@ movhi
 253:lvgl/lvgl/src/core/lv_obj_draw.c ****         draw_dsc->dash_gap = lv_obj_get_style_line_dash_gap(obj, part);
 1489              		.loc 1 253 5 is_stmt 1 view .LVU519
 253:lvgl/lvgl/src/core/lv_obj_draw.c ****         draw_dsc->dash_gap = lv_obj_get_style_line_dash_gap(obj, part);
 1490              		.loc 1 253 7 is_stmt 0 view .LVU520
 1491 0066 B0B9     		cbnz	r0, .L40
 1492              	.L37:
 257:lvgl/lvgl/src/core/lv_obj_draw.c ****     draw_dsc->round_end = draw_dsc->round_start;
 1493              		.loc 1 257 5 is_stmt 1 view .LVU521
 1494              	.LVL144:
 1495              	.LBB254:
 1496              	.LBI254:
 475:lvgl/lvgl/src/core/lv_obj_style_gen.h **** {
 1497              		.loc 2 475 26 view .LVU522
ARM GAS  C:\Users\gx\AppData\Local\Temp\cczBUDp5.s 			page 50


 1498              	.LBB255:
 477:lvgl/lvgl/src/core/lv_obj_style_gen.h ****     return (lv_coord_t)v.num;
 1499              		.loc 2 477 5 view .LVU523
 477:lvgl/lvgl/src/core/lv_obj_style_gen.h ****     return (lv_coord_t)v.num;
 1500              		.loc 2 477 26 is_stmt 0 view .LVU524
 1501 0068 4C22     		movs	r2, #76
 1502 006a 3146     		mov	r1, r6
 1503 006c 2846     		mov	r0, r5
 1504 006e FFF7FEFF 		bl	lv_obj_get_style_prop
 1505              	.LVL145:
 478:lvgl/lvgl/src/core/lv_obj_style_gen.h **** }
 1506              		.loc 2 478 5 is_stmt 1 view .LVU525
 478:lvgl/lvgl/src/core/lv_obj_style_gen.h **** }
 1507              		.loc 2 478 5 is_stmt 0 view .LVU526
 1508              	.LBE255:
 1509              	.LBE254:
 257:lvgl/lvgl/src/core/lv_obj_draw.c ****     draw_dsc->round_end = draw_dsc->round_start;
 1510              		.loc 1 257 29 view .LVU527
 1511 0072 00F00100 		and	r0, r0, #1
 257:lvgl/lvgl/src/core/lv_obj_draw.c ****     draw_dsc->round_end = draw_dsc->round_start;
 1512              		.loc 1 257 27 view .LVU528
 1513 0076 637A     		ldrb	r3, [r4, #9]	@ zero_extendqisi2
 1514 0078 60F38203 		bfi	r3, r0, #2, #1
 258:lvgl/lvgl/src/core/lv_obj_draw.c **** 
 1515              		.loc 1 258 5 is_stmt 1 view .LVU529
 258:lvgl/lvgl/src/core/lv_obj_draw.c **** 
 1516              		.loc 1 258 25 is_stmt 0 view .LVU530
 1517 007c 60F3C303 		bfi	r3, r0, #3, #1
 1518 0080 6372     		strb	r3, [r4, #9]
 261:lvgl/lvgl/src/core/lv_obj_draw.c **** #endif
 1519              		.loc 1 261 5 is_stmt 1 view .LVU531
 1520              	.LVL146:
 1521              	.LBB256:
 1522              	.LBI256:
 175:lvgl/lvgl/src/core/lv_obj_style_gen.h **** {
 1523              		.loc 2 175 31 view .LVU532
 1524              	.LBB257:
 177:lvgl/lvgl/src/core/lv_obj_style_gen.h ****     return (lv_blend_mode_t)v.num;
 1525              		.loc 2 177 5 view .LVU533
 177:lvgl/lvgl/src/core/lv_obj_style_gen.h ****     return (lv_blend_mode_t)v.num;
 1526              		.loc 2 177 26 is_stmt 0 view .LVU534
 1527 0082 6822     		movs	r2, #104
 1528 0084 3146     		mov	r1, r6
 1529 0086 2846     		mov	r0, r5
 1530 0088 FFF7FEFF 		bl	lv_obj_get_style_prop
 1531              	.LVL147:
 178:lvgl/lvgl/src/core/lv_obj_style_gen.h **** }
 1532              		.loc 2 178 5 is_stmt 1 view .LVU535
 178:lvgl/lvgl/src/core/lv_obj_style_gen.h **** }
 1533              		.loc 2 178 5 is_stmt 0 view .LVU536
 1534              	.LBE257:
 1535              	.LBE256:
 261:lvgl/lvgl/src/core/lv_obj_draw.c **** #endif
 1536              		.loc 1 261 26 view .LVU537
 1537 008c 637A     		ldrb	r3, [r4, #9]	@ zero_extendqisi2
 1538 008e 60F30103 		bfi	r3, r0, #0, #2
 1539 0092 6372     		strb	r3, [r4, #9]
ARM GAS  C:\Users\gx\AppData\Local\Temp\cczBUDp5.s 			page 51


 1540 0094 BFE7     		b	.L34
 1541              	.L40:
 254:lvgl/lvgl/src/core/lv_obj_draw.c ****     }
 1542              		.loc 1 254 9 is_stmt 1 view .LVU538
 1543              	.LVL148:
 1544              	.LBB258:
 1545              	.LBI258:
 469:lvgl/lvgl/src/core/lv_obj_style_gen.h **** {
 1546              		.loc 2 469 26 view .LVU539
 1547              	.LBB259:
 471:lvgl/lvgl/src/core/lv_obj_style_gen.h ****     return (lv_coord_t)v.num;
 1548              		.loc 2 471 5 view .LVU540
 471:lvgl/lvgl/src/core/lv_obj_style_gen.h ****     return (lv_coord_t)v.num;
 1549              		.loc 2 471 26 is_stmt 0 view .LVU541
 1550 0096 4B22     		movs	r2, #75
 1551 0098 3146     		mov	r1, r6
 1552 009a 2846     		mov	r0, r5
 1553 009c FFF7FEFF 		bl	lv_obj_get_style_prop
 1554              	.LVL149:
 472:lvgl/lvgl/src/core/lv_obj_style_gen.h **** }
 1555              		.loc 2 472 5 is_stmt 1 view .LVU542
 472:lvgl/lvgl/src/core/lv_obj_style_gen.h **** }
 1556              		.loc 2 472 5 is_stmt 0 view .LVU543
 1557              	.LBE259:
 1558              	.LBE258:
 254:lvgl/lvgl/src/core/lv_obj_draw.c ****     }
 1559              		.loc 1 254 28 view .LVU544
 1560 00a0 E080     		strh	r0, [r4, #6]	@ movhi
 1561 00a2 E1E7     		b	.L37
 1562              		.cfi_endproc
 1563              	.LFE161:
 1565              		.section	.text.lv_obj_init_draw_arc_dsc,"ax",%progbits
 1566              		.align	1
 1567              		.global	lv_obj_init_draw_arc_dsc
 1568              		.syntax unified
 1569              		.thumb
 1570              		.thumb_func
 1571              		.fpu fpv4-sp-d16
 1573              	lv_obj_init_draw_arc_dsc:
 1574              	.LVL150:
 1575              	.LFB162:
 264:lvgl/lvgl/src/core/lv_obj_draw.c **** 
 265:lvgl/lvgl/src/core/lv_obj_draw.c **** void lv_obj_init_draw_arc_dsc(lv_obj_t * obj, uint32_t part, lv_draw_arc_dsc_t * draw_dsc)
 266:lvgl/lvgl/src/core/lv_obj_draw.c **** {
 1576              		.loc 1 266 1 is_stmt 1 view -0
 1577              		.cfi_startproc
 1578              		@ args = 0, pretend = 0, frame = 0
 1579              		@ frame_needed = 0, uses_anonymous_args = 0
 1580              		.loc 1 266 1 is_stmt 0 view .LVU546
 1581 0000 70B5     		push	{r4, r5, r6, lr}
 1582              	.LCFI4:
 1583              		.cfi_def_cfa_offset 16
 1584              		.cfi_offset 4, -16
 1585              		.cfi_offset 5, -12
 1586              		.cfi_offset 6, -8
 1587              		.cfi_offset 14, -4
 1588 0002 0546     		mov	r5, r0
ARM GAS  C:\Users\gx\AppData\Local\Temp\cczBUDp5.s 			page 52


 1589 0004 0E46     		mov	r6, r1
 1590 0006 1446     		mov	r4, r2
 267:lvgl/lvgl/src/core/lv_obj_draw.c ****     draw_dsc->width = lv_obj_get_style_arc_width(obj, part);
 1591              		.loc 1 267 5 is_stmt 1 view .LVU547
 1592              	.LVL151:
 1593              	.LBB260:
 1594              	.LBI260:
 497:lvgl/lvgl/src/core/lv_obj_style_gen.h **** }
 498:lvgl/lvgl/src/core/lv_obj_style_gen.h **** 
 499:lvgl/lvgl/src/core/lv_obj_style_gen.h **** static inline lv_coord_t lv_obj_get_style_arc_width(const struct _lv_obj_t * obj, uint32_t part)
 1595              		.loc 2 499 26 view .LVU548
 1596              	.LBB261:
 500:lvgl/lvgl/src/core/lv_obj_style_gen.h **** {
 501:lvgl/lvgl/src/core/lv_obj_style_gen.h ****     lv_style_value_t v = lv_obj_get_style_prop(obj, part, LV_STYLE_ARC_WIDTH);
 1597              		.loc 2 501 5 view .LVU549
 1598              		.loc 2 501 26 is_stmt 0 view .LVU550
 1599 0008 4FF40562 		mov	r2, #2128
 1600              	.LVL152:
 1601              		.loc 2 501 26 view .LVU551
 1602 000c FFF7FEFF 		bl	lv_obj_get_style_prop
 1603              	.LVL153:
 502:lvgl/lvgl/src/core/lv_obj_style_gen.h ****     return (lv_coord_t)v.num;
 1604              		.loc 2 502 5 is_stmt 1 view .LVU552
 1605              		.loc 2 502 12 is_stmt 0 view .LVU553
 1606 0010 00B2     		sxth	r0, r0
 1607              	.LVL154:
 1608              		.loc 2 502 12 view .LVU554
 1609              	.LBE261:
 1610              	.LBE260:
 1611              		.loc 1 267 21 view .LVU555
 1612 0012 6080     		strh	r0, [r4, #2]	@ movhi
 268:lvgl/lvgl/src/core/lv_obj_draw.c ****     if(draw_dsc->width == 0) return;
 1613              		.loc 1 268 5 is_stmt 1 view .LVU556
 1614              		.loc 1 268 7 is_stmt 0 view .LVU557
 1615 0014 00B9     		cbnz	r0, .L45
 1616              	.L41:
 269:lvgl/lvgl/src/core/lv_obj_draw.c **** 
 270:lvgl/lvgl/src/core/lv_obj_draw.c ****     draw_dsc->opa = lv_obj_get_style_arc_opa(obj, part);
 271:lvgl/lvgl/src/core/lv_obj_draw.c ****     if(draw_dsc->opa <= LV_OPA_MIN)  return;
 272:lvgl/lvgl/src/core/lv_obj_draw.c **** 
 273:lvgl/lvgl/src/core/lv_obj_draw.c ****     lv_opa_t opa = lv_obj_get_style_opa(obj, part);
 274:lvgl/lvgl/src/core/lv_obj_draw.c ****     if(opa < LV_OPA_MAX) {
 275:lvgl/lvgl/src/core/lv_obj_draw.c ****         draw_dsc->opa = (uint16_t)((uint16_t)draw_dsc->opa * opa) >> 8;
 276:lvgl/lvgl/src/core/lv_obj_draw.c ****     }
 277:lvgl/lvgl/src/core/lv_obj_draw.c ****     if(draw_dsc->opa <= LV_OPA_MIN)  return;
 278:lvgl/lvgl/src/core/lv_obj_draw.c **** 
 279:lvgl/lvgl/src/core/lv_obj_draw.c ****     draw_dsc->color = lv_obj_get_style_arc_color(obj, part);
 280:lvgl/lvgl/src/core/lv_obj_draw.c ****     draw_dsc->img_src = lv_obj_get_style_arc_img_src(obj, part);
 281:lvgl/lvgl/src/core/lv_obj_draw.c **** 
 282:lvgl/lvgl/src/core/lv_obj_draw.c ****     draw_dsc->rounded = lv_obj_get_style_arc_rounded(obj, part);
 283:lvgl/lvgl/src/core/lv_obj_draw.c **** 
 284:lvgl/lvgl/src/core/lv_obj_draw.c **** #if LV_DRAW_COMPLEX
 285:lvgl/lvgl/src/core/lv_obj_draw.c ****     draw_dsc->blend_mode = lv_obj_get_style_blend_mode(obj, part);
 286:lvgl/lvgl/src/core/lv_obj_draw.c **** #endif
 287:lvgl/lvgl/src/core/lv_obj_draw.c **** }
 1617              		.loc 1 287 1 view .LVU558
 1618 0016 70BD     		pop	{r4, r5, r6, pc}
ARM GAS  C:\Users\gx\AppData\Local\Temp\cczBUDp5.s 			page 53


 1619              	.LVL155:
 1620              	.L45:
 270:lvgl/lvgl/src/core/lv_obj_draw.c ****     if(draw_dsc->opa <= LV_OPA_MIN)  return;
 1621              		.loc 1 270 5 is_stmt 1 view .LVU559
 1622              	.LBB262:
 1623              	.LBI262:
 503:lvgl/lvgl/src/core/lv_obj_style_gen.h **** }
 504:lvgl/lvgl/src/core/lv_obj_style_gen.h **** 
 505:lvgl/lvgl/src/core/lv_obj_style_gen.h **** static inline lv_coord_t lv_obj_get_style_arc_rounded(const struct _lv_obj_t * obj, uint32_t part)
 506:lvgl/lvgl/src/core/lv_obj_style_gen.h **** {
 507:lvgl/lvgl/src/core/lv_obj_style_gen.h ****     lv_style_value_t v = lv_obj_get_style_prop(obj, part, LV_STYLE_ARC_ROUNDED);
 508:lvgl/lvgl/src/core/lv_obj_style_gen.h ****     return (lv_coord_t)v.num;
 509:lvgl/lvgl/src/core/lv_obj_style_gen.h **** }
 510:lvgl/lvgl/src/core/lv_obj_style_gen.h **** 
 511:lvgl/lvgl/src/core/lv_obj_style_gen.h **** static inline lv_color_t lv_obj_get_style_arc_color(const struct _lv_obj_t * obj, uint32_t part)
 512:lvgl/lvgl/src/core/lv_obj_style_gen.h **** {
 513:lvgl/lvgl/src/core/lv_obj_style_gen.h ****     lv_style_value_t v = lv_obj_get_style_prop(obj, part, LV_STYLE_ARC_COLOR);
 514:lvgl/lvgl/src/core/lv_obj_style_gen.h ****     return v.color;
 515:lvgl/lvgl/src/core/lv_obj_style_gen.h **** }
 516:lvgl/lvgl/src/core/lv_obj_style_gen.h **** 
 517:lvgl/lvgl/src/core/lv_obj_style_gen.h **** static inline lv_color_t lv_obj_get_style_arc_color_filtered(const struct _lv_obj_t * obj, uint32_t
 518:lvgl/lvgl/src/core/lv_obj_style_gen.h **** {
 519:lvgl/lvgl/src/core/lv_obj_style_gen.h ****     lv_style_value_t v = lv_obj_get_style_prop(obj, part, LV_STYLE_ARC_COLOR_FILTERED);
 520:lvgl/lvgl/src/core/lv_obj_style_gen.h ****     return v.color;
 521:lvgl/lvgl/src/core/lv_obj_style_gen.h **** }
 522:lvgl/lvgl/src/core/lv_obj_style_gen.h **** 
 523:lvgl/lvgl/src/core/lv_obj_style_gen.h **** static inline lv_opa_t lv_obj_get_style_arc_opa(const struct _lv_obj_t * obj, uint32_t part)
 1624              		.loc 2 523 24 view .LVU560
 1625              	.LBB263:
 524:lvgl/lvgl/src/core/lv_obj_style_gen.h **** {
 525:lvgl/lvgl/src/core/lv_obj_style_gen.h ****     lv_style_value_t v = lv_obj_get_style_prop(obj, part, LV_STYLE_ARC_OPA);
 1626              		.loc 2 525 5 view .LVU561
 1627              		.loc 2 525 26 is_stmt 0 view .LVU562
 1628 0018 5322     		movs	r2, #83
 1629 001a 3146     		mov	r1, r6
 1630 001c 2846     		mov	r0, r5
 1631 001e FFF7FEFF 		bl	lv_obj_get_style_prop
 1632              	.LVL156:
 526:lvgl/lvgl/src/core/lv_obj_style_gen.h ****     return (lv_opa_t)v.num;
 1633              		.loc 2 526 5 is_stmt 1 view .LVU563
 1634              		.loc 2 526 12 is_stmt 0 view .LVU564
 1635 0022 C3B2     		uxtb	r3, r0
 1636              	.LVL157:
 1637              		.loc 2 526 12 view .LVU565
 1638              	.LBE263:
 1639              	.LBE262:
 270:lvgl/lvgl/src/core/lv_obj_draw.c ****     if(draw_dsc->opa <= LV_OPA_MIN)  return;
 1640              		.loc 1 270 19 view .LVU566
 1641 0024 2372     		strb	r3, [r4, #8]
 271:lvgl/lvgl/src/core/lv_obj_draw.c **** 
 1642              		.loc 1 271 5 is_stmt 1 view .LVU567
 271:lvgl/lvgl/src/core/lv_obj_draw.c **** 
 1643              		.loc 1 271 7 is_stmt 0 view .LVU568
 1644 0026 022B     		cmp	r3, #2
 1645 0028 F5D9     		bls	.L41
 273:lvgl/lvgl/src/core/lv_obj_draw.c ****     if(opa < LV_OPA_MAX) {
 1646              		.loc 1 273 5 is_stmt 1 view .LVU569
ARM GAS  C:\Users\gx\AppData\Local\Temp\cczBUDp5.s 			page 54


 1647              	.LVL158:
 1648              	.LBB264:
 1649              	.LBI264:
 139:lvgl/lvgl/src/core/lv_obj_style_gen.h **** {
 1650              		.loc 2 139 24 view .LVU570
 1651              	.LBB265:
 141:lvgl/lvgl/src/core/lv_obj_style_gen.h ****     return (lv_opa_t)v.num;
 1652              		.loc 2 141 5 view .LVU571
 141:lvgl/lvgl/src/core/lv_obj_style_gen.h ****     return (lv_opa_t)v.num;
 1653              		.loc 2 141 26 is_stmt 0 view .LVU572
 1654 002a 40F26242 		movw	r2, #1122
 1655 002e 3146     		mov	r1, r6
 1656 0030 2846     		mov	r0, r5
 1657 0032 FFF7FEFF 		bl	lv_obj_get_style_prop
 1658              	.LVL159:
 142:lvgl/lvgl/src/core/lv_obj_style_gen.h **** }
 1659              		.loc 2 142 5 is_stmt 1 view .LVU573
 142:lvgl/lvgl/src/core/lv_obj_style_gen.h **** }
 1660              		.loc 2 142 12 is_stmt 0 view .LVU574
 1661 0036 C0B2     		uxtb	r0, r0
 1662              	.LVL160:
 142:lvgl/lvgl/src/core/lv_obj_style_gen.h **** }
 1663              		.loc 2 142 12 view .LVU575
 1664              	.LBE265:
 1665              	.LBE264:
 274:lvgl/lvgl/src/core/lv_obj_draw.c ****         draw_dsc->opa = (uint16_t)((uint16_t)draw_dsc->opa * opa) >> 8;
 1666              		.loc 1 274 5 is_stmt 1 view .LVU576
 274:lvgl/lvgl/src/core/lv_obj_draw.c ****         draw_dsc->opa = (uint16_t)((uint16_t)draw_dsc->opa * opa) >> 8;
 1667              		.loc 1 274 7 is_stmt 0 view .LVU577
 1668 0038 FC28     		cmp	r0, #252
 1669 003a 04D8     		bhi	.L43
 275:lvgl/lvgl/src/core/lv_obj_draw.c ****     }
 1670              		.loc 1 275 9 is_stmt 1 view .LVU578
 275:lvgl/lvgl/src/core/lv_obj_draw.c ****     }
 1671              		.loc 1 275 54 is_stmt 0 view .LVU579
 1672 003c 237A     		ldrb	r3, [r4, #8]	@ zero_extendqisi2
 275:lvgl/lvgl/src/core/lv_obj_draw.c ****     }
 1673              		.loc 1 275 25 view .LVU580
 1674 003e 00FB03F0 		mul	r0, r0, r3
 1675              	.LVL161:
 275:lvgl/lvgl/src/core/lv_obj_draw.c ****     }
 1676              		.loc 1 275 23 view .LVU581
 1677 0042 000A     		lsrs	r0, r0, #8
 1678 0044 2072     		strb	r0, [r4, #8]
 1679              	.L43:
 277:lvgl/lvgl/src/core/lv_obj_draw.c **** 
 1680              		.loc 1 277 5 is_stmt 1 view .LVU582
 277:lvgl/lvgl/src/core/lv_obj_draw.c **** 
 1681              		.loc 1 277 16 is_stmt 0 view .LVU583
 1682 0046 237A     		ldrb	r3, [r4, #8]	@ zero_extendqisi2
 277:lvgl/lvgl/src/core/lv_obj_draw.c **** 
 1683              		.loc 1 277 7 view .LVU584
 1684 0048 022B     		cmp	r3, #2
 1685 004a E4D9     		bls	.L41
 279:lvgl/lvgl/src/core/lv_obj_draw.c ****     draw_dsc->img_src = lv_obj_get_style_arc_img_src(obj, part);
 1686              		.loc 1 279 5 is_stmt 1 view .LVU585
 1687              	.LVL162:
ARM GAS  C:\Users\gx\AppData\Local\Temp\cczBUDp5.s 			page 55


 1688              	.LBB266:
 1689              	.LBI266:
 511:lvgl/lvgl/src/core/lv_obj_style_gen.h **** {
 1690              		.loc 2 511 26 view .LVU586
 1691              	.LBB267:
 513:lvgl/lvgl/src/core/lv_obj_style_gen.h ****     return v.color;
 1692              		.loc 2 513 5 view .LVU587
 513:lvgl/lvgl/src/core/lv_obj_style_gen.h ****     return v.color;
 1693              		.loc 2 513 26 is_stmt 0 view .LVU588
 1694 004c 5222     		movs	r2, #82
 1695 004e 3146     		mov	r1, r6
 1696 0050 2846     		mov	r0, r5
 1697 0052 FFF7FEFF 		bl	lv_obj_get_style_prop
 1698              	.LVL163:
 514:lvgl/lvgl/src/core/lv_obj_style_gen.h **** }
 1699              		.loc 2 514 5 is_stmt 1 view .LVU589
 514:lvgl/lvgl/src/core/lv_obj_style_gen.h **** }
 1700              		.loc 2 514 5 is_stmt 0 view .LVU590
 1701              	.LBE267:
 1702              	.LBE266:
 279:lvgl/lvgl/src/core/lv_obj_draw.c ****     draw_dsc->img_src = lv_obj_get_style_arc_img_src(obj, part);
 1703              		.loc 1 279 23 view .LVU591
 1704 0056 2080     		strh	r0, [r4]	@ movhi
 280:lvgl/lvgl/src/core/lv_obj_draw.c **** 
 1705              		.loc 1 280 5 is_stmt 1 view .LVU592
 1706              	.LVL164:
 1707              	.LBB268:
 1708              	.LBI268:
 527:lvgl/lvgl/src/core/lv_obj_style_gen.h **** }
 528:lvgl/lvgl/src/core/lv_obj_style_gen.h **** 
 529:lvgl/lvgl/src/core/lv_obj_style_gen.h **** static inline const void * lv_obj_get_style_arc_img_src(const struct _lv_obj_t * obj, uint32_t part
 1709              		.loc 2 529 28 view .LVU593
 1710              	.LBB269:
 530:lvgl/lvgl/src/core/lv_obj_style_gen.h **** {
 531:lvgl/lvgl/src/core/lv_obj_style_gen.h ****     lv_style_value_t v = lv_obj_get_style_prop(obj, part, LV_STYLE_ARC_IMG_SRC);
 1711              		.loc 2 531 5 view .LVU594
 1712              		.loc 2 531 26 is_stmt 0 view .LVU595
 1713 0058 5422     		movs	r2, #84
 1714 005a 3146     		mov	r1, r6
 1715 005c 2846     		mov	r0, r5
 1716 005e FFF7FEFF 		bl	lv_obj_get_style_prop
 1717              	.LVL165:
 532:lvgl/lvgl/src/core/lv_obj_style_gen.h ****     return (const void *)v.ptr;
 1718              		.loc 2 532 5 is_stmt 1 view .LVU596
 1719              		.loc 2 532 5 is_stmt 0 view .LVU597
 1720              	.LBE269:
 1721              	.LBE268:
 280:lvgl/lvgl/src/core/lv_obj_draw.c **** 
 1722              		.loc 1 280 23 view .LVU598
 1723 0062 6060     		str	r0, [r4, #4]
 282:lvgl/lvgl/src/core/lv_obj_draw.c **** 
 1724              		.loc 1 282 5 is_stmt 1 view .LVU599
 1725              	.LVL166:
 1726              	.LBB270:
 1727              	.LBI270:
 505:lvgl/lvgl/src/core/lv_obj_style_gen.h **** {
 1728              		.loc 2 505 26 view .LVU600
ARM GAS  C:\Users\gx\AppData\Local\Temp\cczBUDp5.s 			page 56


 1729              	.LBB271:
 507:lvgl/lvgl/src/core/lv_obj_style_gen.h ****     return (lv_coord_t)v.num;
 1730              		.loc 2 507 5 view .LVU601
 507:lvgl/lvgl/src/core/lv_obj_style_gen.h ****     return (lv_coord_t)v.num;
 1731              		.loc 2 507 26 is_stmt 0 view .LVU602
 1732 0064 5122     		movs	r2, #81
 1733 0066 3146     		mov	r1, r6
 1734 0068 2846     		mov	r0, r5
 1735 006a FFF7FEFF 		bl	lv_obj_get_style_prop
 1736              	.LVL167:
 508:lvgl/lvgl/src/core/lv_obj_style_gen.h **** }
 1737              		.loc 2 508 5 is_stmt 1 view .LVU603
 508:lvgl/lvgl/src/core/lv_obj_style_gen.h **** }
 1738              		.loc 2 508 5 is_stmt 0 view .LVU604
 1739              	.LBE271:
 1740              	.LBE270:
 282:lvgl/lvgl/src/core/lv_obj_draw.c **** 
 1741              		.loc 1 282 23 view .LVU605
 1742 006e 637A     		ldrb	r3, [r4, #9]	@ zero_extendqisi2
 1743 0070 60F38203 		bfi	r3, r0, #2, #1
 1744 0074 6372     		strb	r3, [r4, #9]
 285:lvgl/lvgl/src/core/lv_obj_draw.c **** #endif
 1745              		.loc 1 285 5 is_stmt 1 view .LVU606
 1746              	.LVL168:
 1747              	.LBB272:
 1748              	.LBI272:
 175:lvgl/lvgl/src/core/lv_obj_style_gen.h **** {
 1749              		.loc 2 175 31 view .LVU607
 1750              	.LBB273:
 177:lvgl/lvgl/src/core/lv_obj_style_gen.h ****     return (lv_blend_mode_t)v.num;
 1751              		.loc 2 177 5 view .LVU608
 177:lvgl/lvgl/src/core/lv_obj_style_gen.h ****     return (lv_blend_mode_t)v.num;
 1752              		.loc 2 177 26 is_stmt 0 view .LVU609
 1753 0076 6822     		movs	r2, #104
 1754 0078 3146     		mov	r1, r6
 1755 007a 2846     		mov	r0, r5
 1756 007c FFF7FEFF 		bl	lv_obj_get_style_prop
 1757              	.LVL169:
 178:lvgl/lvgl/src/core/lv_obj_style_gen.h **** }
 1758              		.loc 2 178 5 is_stmt 1 view .LVU610
 178:lvgl/lvgl/src/core/lv_obj_style_gen.h **** }
 1759              		.loc 2 178 5 is_stmt 0 view .LVU611
 1760              	.LBE273:
 1761              	.LBE272:
 285:lvgl/lvgl/src/core/lv_obj_draw.c **** #endif
 1762              		.loc 1 285 26 view .LVU612
 1763 0080 637A     		ldrb	r3, [r4, #9]	@ zero_extendqisi2
 1764 0082 60F30103 		bfi	r3, r0, #0, #2
 1765 0086 6372     		strb	r3, [r4, #9]
 1766 0088 C5E7     		b	.L41
 1767              		.cfi_endproc
 1768              	.LFE162:
 1770              		.section	.text.lv_obj_calculate_ext_draw_size,"ax",%progbits
 1771              		.align	1
 1772              		.global	lv_obj_calculate_ext_draw_size
 1773              		.syntax unified
 1774              		.thumb
ARM GAS  C:\Users\gx\AppData\Local\Temp\cczBUDp5.s 			page 57


 1775              		.thumb_func
 1776              		.fpu fpv4-sp-d16
 1778              	lv_obj_calculate_ext_draw_size:
 1779              	.LVL170:
 1780              	.LFB163:
 288:lvgl/lvgl/src/core/lv_obj_draw.c **** 
 289:lvgl/lvgl/src/core/lv_obj_draw.c **** lv_coord_t lv_obj_calculate_ext_draw_size(lv_obj_t * obj, uint32_t part)
 290:lvgl/lvgl/src/core/lv_obj_draw.c **** {
 1781              		.loc 1 290 1 is_stmt 1 view -0
 1782              		.cfi_startproc
 1783              		@ args = 0, pretend = 0, frame = 0
 1784              		@ frame_needed = 0, uses_anonymous_args = 0
 1785              		.loc 1 290 1 is_stmt 0 view .LVU614
 1786 0000 F8B5     		push	{r3, r4, r5, r6, r7, lr}
 1787              	.LCFI5:
 1788              		.cfi_def_cfa_offset 24
 1789              		.cfi_offset 3, -24
 1790              		.cfi_offset 4, -20
 1791              		.cfi_offset 5, -16
 1792              		.cfi_offset 6, -12
 1793              		.cfi_offset 7, -8
 1794              		.cfi_offset 14, -4
 1795 0002 0546     		mov	r5, r0
 1796 0004 0E46     		mov	r6, r1
 291:lvgl/lvgl/src/core/lv_obj_draw.c ****     lv_coord_t s = 0;
 1797              		.loc 1 291 5 is_stmt 1 view .LVU615
 1798              	.LVL171:
 292:lvgl/lvgl/src/core/lv_obj_draw.c **** 
 293:lvgl/lvgl/src/core/lv_obj_draw.c ****     lv_coord_t sh_width = lv_obj_get_style_shadow_width(obj, part);
 1799              		.loc 1 293 5 view .LVU616
 1800              	.LBB274:
 1801              	.LBI274:
 415:lvgl/lvgl/src/core/lv_obj_style_gen.h **** {
 1802              		.loc 2 415 26 view .LVU617
 1803              	.LBB275:
 417:lvgl/lvgl/src/core/lv_obj_style_gen.h ****     return (lv_coord_t)v.num;
 1804              		.loc 2 417 5 view .LVU618
 417:lvgl/lvgl/src/core/lv_obj_style_gen.h ****     return (lv_coord_t)v.num;
 1805              		.loc 2 417 26 is_stmt 0 view .LVU619
 1806 0006 4FF40462 		mov	r2, #2112
 1807 000a FFF7FEFF 		bl	lv_obj_get_style_prop
 1808              	.LVL172:
 418:lvgl/lvgl/src/core/lv_obj_style_gen.h **** }
 1809              		.loc 2 418 5 is_stmt 1 view .LVU620
 418:lvgl/lvgl/src/core/lv_obj_style_gen.h **** }
 1810              		.loc 2 418 12 is_stmt 0 view .LVU621
 1811 000e 04B2     		sxth	r4, r0
 1812              	.LVL173:
 418:lvgl/lvgl/src/core/lv_obj_style_gen.h **** }
 1813              		.loc 2 418 12 view .LVU622
 1814              	.LBE275:
 1815              	.LBE274:
 294:lvgl/lvgl/src/core/lv_obj_draw.c ****     if(sh_width) {
 1816              		.loc 1 294 5 is_stmt 1 view .LVU623
 1817              		.loc 1 294 7 is_stmt 0 view .LVU624
 1818 0010 FCB9     		cbnz	r4, .L52
 1819              	.LVL174:
ARM GAS  C:\Users\gx\AppData\Local\Temp\cczBUDp5.s 			page 58


 1820              	.L47:
 295:lvgl/lvgl/src/core/lv_obj_draw.c ****         lv_opa_t sh_opa = lv_obj_get_style_shadow_opa(obj, part);
 296:lvgl/lvgl/src/core/lv_obj_draw.c ****         if(sh_opa > LV_OPA_MIN) {
 297:lvgl/lvgl/src/core/lv_obj_draw.c ****             sh_width = sh_width / 2 + 1;    /*The blur adds only half width*/
 298:lvgl/lvgl/src/core/lv_obj_draw.c ****             sh_width += lv_obj_get_style_shadow_spread(obj, part);
 299:lvgl/lvgl/src/core/lv_obj_draw.c ****             lv_coord_t sh_ofs_x = lv_obj_get_style_shadow_ofs_x(obj, part);
 300:lvgl/lvgl/src/core/lv_obj_draw.c ****             lv_coord_t sh_ofs_y = lv_obj_get_style_shadow_ofs_y(obj, part);
 301:lvgl/lvgl/src/core/lv_obj_draw.c ****             sh_width += LV_MAX(LV_ABS(sh_ofs_x), LV_ABS(sh_ofs_y));
 302:lvgl/lvgl/src/core/lv_obj_draw.c ****             s = LV_MAX(s, sh_width);
 303:lvgl/lvgl/src/core/lv_obj_draw.c ****         }
 304:lvgl/lvgl/src/core/lv_obj_draw.c ****     }
 305:lvgl/lvgl/src/core/lv_obj_draw.c **** 
 306:lvgl/lvgl/src/core/lv_obj_draw.c ****     lv_coord_t outline_width = lv_obj_get_style_outline_width(obj, part);
 1821              		.loc 1 306 5 is_stmt 1 view .LVU625
 1822              	.LBB276:
 1823              	.LBI276:
 385:lvgl/lvgl/src/core/lv_obj_style_gen.h **** {
 1824              		.loc 2 385 26 view .LVU626
 1825              	.LBB277:
 387:lvgl/lvgl/src/core/lv_obj_style_gen.h ****     return (lv_coord_t)v.num;
 1826              		.loc 2 387 5 view .LVU627
 387:lvgl/lvgl/src/core/lv_obj_style_gen.h ****     return (lv_coord_t)v.num;
 1827              		.loc 2 387 26 is_stmt 0 view .LVU628
 1828 0012 40F63A02 		movw	r2, #2106
 1829 0016 3146     		mov	r1, r6
 1830 0018 2846     		mov	r0, r5
 1831 001a FFF7FEFF 		bl	lv_obj_get_style_prop
 1832              	.LVL175:
 388:lvgl/lvgl/src/core/lv_obj_style_gen.h **** }
 1833              		.loc 2 388 5 is_stmt 1 view .LVU629
 388:lvgl/lvgl/src/core/lv_obj_style_gen.h **** }
 1834              		.loc 2 388 12 is_stmt 0 view .LVU630
 1835 001e 07B2     		sxth	r7, r0
 1836              	.LVL176:
 388:lvgl/lvgl/src/core/lv_obj_style_gen.h **** }
 1837              		.loc 2 388 12 view .LVU631
 1838              	.LBE277:
 1839              	.LBE276:
 307:lvgl/lvgl/src/core/lv_obj_draw.c ****     if(outline_width) {
 1840              		.loc 1 307 5 is_stmt 1 view .LVU632
 1841              		.loc 1 307 7 is_stmt 0 view .LVU633
 1842 0020 002F     		cmp	r7, #0
 1843 0022 4DD1     		bne	.L53
 1844              	.LVL177:
 1845              	.L48:
 308:lvgl/lvgl/src/core/lv_obj_draw.c ****         lv_opa_t outline_opa = lv_obj_get_style_outline_opa(obj, part);
 309:lvgl/lvgl/src/core/lv_obj_draw.c ****         if(outline_opa > LV_OPA_MIN) {
 310:lvgl/lvgl/src/core/lv_obj_draw.c ****             lv_coord_t outline_pad = lv_obj_get_style_outline_pad(obj, part);
 311:lvgl/lvgl/src/core/lv_obj_draw.c ****             s = LV_MAX(s, outline_pad + outline_width);
 312:lvgl/lvgl/src/core/lv_obj_draw.c ****         }
 313:lvgl/lvgl/src/core/lv_obj_draw.c ****     }
 314:lvgl/lvgl/src/core/lv_obj_draw.c **** 
 315:lvgl/lvgl/src/core/lv_obj_draw.c ****     lv_coord_t w = lv_obj_get_style_transform_width(obj, part);
 1846              		.loc 1 315 5 is_stmt 1 view .LVU634
 1847              	.LBB278:
 1848              	.LBI278:
  55:lvgl/lvgl/src/core/lv_obj_style_gen.h **** {
ARM GAS  C:\Users\gx\AppData\Local\Temp\cczBUDp5.s 			page 59


 1849              		.loc 2 55 26 view .LVU635
 1850              	.LBB279:
  57:lvgl/lvgl/src/core/lv_obj_style_gen.h ****     return (lv_coord_t)v.num;
 1851              		.loc 2 57 5 view .LVU636
  57:lvgl/lvgl/src/core/lv_obj_style_gen.h ****     return (lv_coord_t)v.num;
 1852              		.loc 2 57 26 is_stmt 0 view .LVU637
 1853 0024 40F60A02 		movw	r2, #2058
 1854 0028 3146     		mov	r1, r6
 1855 002a 2846     		mov	r0, r5
 1856 002c FFF7FEFF 		bl	lv_obj_get_style_prop
 1857              	.LVL178:
  58:lvgl/lvgl/src/core/lv_obj_style_gen.h **** }
 1858              		.loc 2 58 5 is_stmt 1 view .LVU638
  58:lvgl/lvgl/src/core/lv_obj_style_gen.h **** }
 1859              		.loc 2 58 12 is_stmt 0 view .LVU639
 1860 0030 07B2     		sxth	r7, r0
 1861              	.LVL179:
  58:lvgl/lvgl/src/core/lv_obj_style_gen.h **** }
 1862              		.loc 2 58 12 view .LVU640
 1863              	.LBE279:
 1864              	.LBE278:
 316:lvgl/lvgl/src/core/lv_obj_draw.c ****     lv_coord_t h = lv_obj_get_style_transform_height(obj, part);
 1865              		.loc 1 316 5 is_stmt 1 view .LVU641
 1866              	.LBB280:
 1867              	.LBI280:
  61:lvgl/lvgl/src/core/lv_obj_style_gen.h **** {
 1868              		.loc 2 61 26 view .LVU642
 1869              	.LBB281:
  63:lvgl/lvgl/src/core/lv_obj_style_gen.h ****     return (lv_coord_t)v.num;
 1870              		.loc 2 63 5 view .LVU643
  63:lvgl/lvgl/src/core/lv_obj_style_gen.h ****     return (lv_coord_t)v.num;
 1871              		.loc 2 63 26 is_stmt 0 view .LVU644
 1872 0032 40F60B02 		movw	r2, #2059
 1873 0036 3146     		mov	r1, r6
 1874 0038 2846     		mov	r0, r5
 1875 003a FFF7FEFF 		bl	lv_obj_get_style_prop
 1876              	.LVL180:
  64:lvgl/lvgl/src/core/lv_obj_style_gen.h **** }
 1877              		.loc 2 64 5 is_stmt 1 view .LVU645
  64:lvgl/lvgl/src/core/lv_obj_style_gen.h **** }
 1878              		.loc 2 64 12 is_stmt 0 view .LVU646
 1879 003e 00B2     		sxth	r0, r0
 1880              	.LVL181:
  64:lvgl/lvgl/src/core/lv_obj_style_gen.h **** }
 1881              		.loc 2 64 12 view .LVU647
 1882              	.LBE281:
 1883              	.LBE280:
 317:lvgl/lvgl/src/core/lv_obj_draw.c ****     lv_coord_t wh = LV_MAX(w, h);
 1884              		.loc 1 317 5 is_stmt 1 view .LVU648
 1885              		.loc 1 317 16 is_stmt 0 view .LVU649
 1886 0040 B842     		cmp	r0, r7
 1887 0042 B8BF     		it	lt
 1888 0044 3846     		movlt	r0, r7
 1889              	.LVL182:
 318:lvgl/lvgl/src/core/lv_obj_draw.c ****     if(wh > 0) s += wh;
 1890              		.loc 1 318 5 is_stmt 1 view .LVU650
 1891              		.loc 1 318 7 is_stmt 0 view .LVU651
ARM GAS  C:\Users\gx\AppData\Local\Temp\cczBUDp5.s 			page 60


 1892 0046 0028     		cmp	r0, #0
 1893 0048 01DD     		ble	.L49
 1894              		.loc 1 318 16 is_stmt 1 discriminator 1 view .LVU652
 1895              		.loc 1 318 18 is_stmt 0 discriminator 1 view .LVU653
 1896 004a 0444     		add	r4, r4, r0
 1897              	.LVL183:
 1898              		.loc 1 318 18 discriminator 1 view .LVU654
 1899 004c 24B2     		sxth	r4, r4
 1900              	.LVL184:
 1901              	.L49:
 319:lvgl/lvgl/src/core/lv_obj_draw.c **** 
 320:lvgl/lvgl/src/core/lv_obj_draw.c ****     return s;
 1902              		.loc 1 320 5 is_stmt 1 view .LVU655
 321:lvgl/lvgl/src/core/lv_obj_draw.c **** }
 1903              		.loc 1 321 1 is_stmt 0 view .LVU656
 1904 004e 2046     		mov	r0, r4
 1905              	.LVL185:
 1906              		.loc 1 321 1 view .LVU657
 1907 0050 F8BD     		pop	{r3, r4, r5, r6, r7, pc}
 1908              	.LVL186:
 1909              	.L52:
 1910              	.LBB282:
 295:lvgl/lvgl/src/core/lv_obj_draw.c ****         if(sh_opa > LV_OPA_MIN) {
 1911              		.loc 1 295 9 is_stmt 1 view .LVU658
 1912              	.LBB283:
 1913              	.LBI283:
 451:lvgl/lvgl/src/core/lv_obj_style_gen.h **** {
 1914              		.loc 2 451 24 view .LVU659
 1915              	.LBB284:
 453:lvgl/lvgl/src/core/lv_obj_style_gen.h ****     return (lv_opa_t)v.num;
 1916              		.loc 2 453 5 view .LVU660
 453:lvgl/lvgl/src/core/lv_obj_style_gen.h ****     return (lv_opa_t)v.num;
 1917              		.loc 2 453 26 is_stmt 0 view .LVU661
 1918 0052 40F64502 		movw	r2, #2117
 1919 0056 3146     		mov	r1, r6
 1920 0058 2846     		mov	r0, r5
 1921 005a FFF7FEFF 		bl	lv_obj_get_style_prop
 1922              	.LVL187:
 454:lvgl/lvgl/src/core/lv_obj_style_gen.h **** }
 1923              		.loc 2 454 5 is_stmt 1 view .LVU662
 454:lvgl/lvgl/src/core/lv_obj_style_gen.h **** }
 1924              		.loc 2 454 12 is_stmt 0 view .LVU663
 1925 005e C0B2     		uxtb	r0, r0
 1926              	.LVL188:
 454:lvgl/lvgl/src/core/lv_obj_style_gen.h **** }
 1927              		.loc 2 454 12 view .LVU664
 1928              	.LBE284:
 1929              	.LBE283:
 296:lvgl/lvgl/src/core/lv_obj_draw.c ****             sh_width = sh_width / 2 + 1;    /*The blur adds only half width*/
 1930              		.loc 1 296 9 is_stmt 1 view .LVU665
 296:lvgl/lvgl/src/core/lv_obj_draw.c ****             sh_width = sh_width / 2 + 1;    /*The blur adds only half width*/
 1931              		.loc 1 296 11 is_stmt 0 view .LVU666
 1932 0060 0228     		cmp	r0, #2
 1933 0062 01D8     		bhi	.L54
 1934              	.LBE282:
 291:lvgl/lvgl/src/core/lv_obj_draw.c **** 
 1935              		.loc 1 291 16 view .LVU667
ARM GAS  C:\Users\gx\AppData\Local\Temp\cczBUDp5.s 			page 61


 1936 0064 0024     		movs	r4, #0
 1937              	.LVL189:
 291:lvgl/lvgl/src/core/lv_obj_draw.c **** 
 1938              		.loc 1 291 16 view .LVU668
 1939 0066 D4E7     		b	.L47
 1940              	.LVL190:
 1941              	.L54:
 1942              	.LBB292:
 1943              	.LBB285:
 297:lvgl/lvgl/src/core/lv_obj_draw.c ****             sh_width += lv_obj_get_style_shadow_spread(obj, part);
 1944              		.loc 1 297 13 is_stmt 1 view .LVU669
 297:lvgl/lvgl/src/core/lv_obj_draw.c ****             sh_width += lv_obj_get_style_shadow_spread(obj, part);
 1945              		.loc 1 297 37 is_stmt 0 view .LVU670
 1946 0068 04EBD474 		add	r4, r4, r4, lsr #31
 1947              	.LVL191:
 297:lvgl/lvgl/src/core/lv_obj_draw.c ****             sh_width += lv_obj_get_style_shadow_spread(obj, part);
 1948              		.loc 1 297 37 view .LVU671
 1949 006c 6410     		asrs	r4, r4, #1
 1950 006e 0134     		adds	r4, r4, #1
 1951 0070 A4B2     		uxth	r4, r4
 1952              	.LVL192:
 298:lvgl/lvgl/src/core/lv_obj_draw.c ****             lv_coord_t sh_ofs_x = lv_obj_get_style_shadow_ofs_x(obj, part);
 1953              		.loc 1 298 13 is_stmt 1 view .LVU672
 1954              	.LBB286:
 1955              	.LBI286:
 433:lvgl/lvgl/src/core/lv_obj_style_gen.h **** {
 1956              		.loc 2 433 26 view .LVU673
 1957              	.LBB287:
 435:lvgl/lvgl/src/core/lv_obj_style_gen.h ****     return (lv_coord_t)v.num;
 1958              		.loc 2 435 5 view .LVU674
 435:lvgl/lvgl/src/core/lv_obj_style_gen.h ****     return (lv_coord_t)v.num;
 1959              		.loc 2 435 26 is_stmt 0 view .LVU675
 1960 0072 40F64302 		movw	r2, #2115
 1961 0076 3146     		mov	r1, r6
 1962 0078 2846     		mov	r0, r5
 1963              	.LVL193:
 435:lvgl/lvgl/src/core/lv_obj_style_gen.h ****     return (lv_coord_t)v.num;
 1964              		.loc 2 435 26 view .LVU676
 1965 007a FFF7FEFF 		bl	lv_obj_get_style_prop
 1966              	.LVL194:
 436:lvgl/lvgl/src/core/lv_obj_style_gen.h **** }
 1967              		.loc 2 436 5 is_stmt 1 view .LVU677
 436:lvgl/lvgl/src/core/lv_obj_style_gen.h **** }
 1968              		.loc 2 436 5 is_stmt 0 view .LVU678
 1969              	.LBE287:
 1970              	.LBE286:
 298:lvgl/lvgl/src/core/lv_obj_draw.c ****             lv_coord_t sh_ofs_x = lv_obj_get_style_shadow_ofs_x(obj, part);
 1971              		.loc 1 298 22 view .LVU679
 1972 007e 14FA80F4 		uxtah	r4, r4, r0
 1973              	.LVL195:
 298:lvgl/lvgl/src/core/lv_obj_draw.c ****             lv_coord_t sh_ofs_x = lv_obj_get_style_shadow_ofs_x(obj, part);
 1974              		.loc 1 298 22 view .LVU680
 1975 0082 A4B2     		uxth	r4, r4
 1976              	.LVL196:
 299:lvgl/lvgl/src/core/lv_obj_draw.c ****             lv_coord_t sh_ofs_y = lv_obj_get_style_shadow_ofs_y(obj, part);
 1977              		.loc 1 299 13 is_stmt 1 view .LVU681
 1978              	.LBB288:
ARM GAS  C:\Users\gx\AppData\Local\Temp\cczBUDp5.s 			page 62


 1979              	.LBI288:
 421:lvgl/lvgl/src/core/lv_obj_style_gen.h **** {
 1980              		.loc 2 421 26 view .LVU682
 1981              	.LBB289:
 423:lvgl/lvgl/src/core/lv_obj_style_gen.h ****     return (lv_coord_t)v.num;
 1982              		.loc 2 423 5 view .LVU683
 423:lvgl/lvgl/src/core/lv_obj_style_gen.h ****     return (lv_coord_t)v.num;
 1983              		.loc 2 423 26 is_stmt 0 view .LVU684
 1984 0084 40F64102 		movw	r2, #2113
 1985 0088 3146     		mov	r1, r6
 1986 008a 2846     		mov	r0, r5
 1987 008c FFF7FEFF 		bl	lv_obj_get_style_prop
 1988              	.LVL197:
 424:lvgl/lvgl/src/core/lv_obj_style_gen.h **** }
 1989              		.loc 2 424 5 is_stmt 1 view .LVU685
 424:lvgl/lvgl/src/core/lv_obj_style_gen.h **** }
 1990              		.loc 2 424 12 is_stmt 0 view .LVU686
 1991 0090 07B2     		sxth	r7, r0
 1992              	.LVL198:
 424:lvgl/lvgl/src/core/lv_obj_style_gen.h **** }
 1993              		.loc 2 424 12 view .LVU687
 1994              	.LBE289:
 1995              	.LBE288:
 300:lvgl/lvgl/src/core/lv_obj_draw.c ****             sh_width += LV_MAX(LV_ABS(sh_ofs_x), LV_ABS(sh_ofs_y));
 1996              		.loc 1 300 13 is_stmt 1 view .LVU688
 1997              	.LBB290:
 1998              	.LBI290:
 427:lvgl/lvgl/src/core/lv_obj_style_gen.h **** {
 1999              		.loc 2 427 26 view .LVU689
 2000              	.LBB291:
 429:lvgl/lvgl/src/core/lv_obj_style_gen.h ****     return (lv_coord_t)v.num;
 2001              		.loc 2 429 5 view .LVU690
 429:lvgl/lvgl/src/core/lv_obj_style_gen.h ****     return (lv_coord_t)v.num;
 2002              		.loc 2 429 26 is_stmt 0 view .LVU691
 2003 0092 40F64202 		movw	r2, #2114
 2004 0096 3146     		mov	r1, r6
 2005 0098 2846     		mov	r0, r5
 2006 009a FFF7FEFF 		bl	lv_obj_get_style_prop
 2007              	.LVL199:
 430:lvgl/lvgl/src/core/lv_obj_style_gen.h **** }
 2008              		.loc 2 430 5 is_stmt 1 view .LVU692
 430:lvgl/lvgl/src/core/lv_obj_style_gen.h **** }
 2009              		.loc 2 430 12 is_stmt 0 view .LVU693
 2010 009e 03B2     		sxth	r3, r0
 2011              	.LVL200:
 430:lvgl/lvgl/src/core/lv_obj_style_gen.h **** }
 2012              		.loc 2 430 12 view .LVU694
 2013              	.LBE291:
 2014              	.LBE290:
 301:lvgl/lvgl/src/core/lv_obj_draw.c ****             s = LV_MAX(s, sh_width);
 2015              		.loc 1 301 13 is_stmt 1 view .LVU695
 301:lvgl/lvgl/src/core/lv_obj_draw.c ****             s = LV_MAX(s, sh_width);
 2016              		.loc 1 301 25 is_stmt 0 view .LVU696
 2017 00a0 002B     		cmp	r3, #0
 2018 00a2 B8BF     		it	lt
 2019 00a4 5B42     		rsblt	r3, r3, #0
 2020              	.LVL201:
ARM GAS  C:\Users\gx\AppData\Local\Temp\cczBUDp5.s 			page 63


 301:lvgl/lvgl/src/core/lv_obj_draw.c ****             s = LV_MAX(s, sh_width);
 2021              		.loc 1 301 25 view .LVU697
 2022 00a6 9BB2     		uxth	r3, r3
 2023 00a8 002F     		cmp	r7, #0
 2024 00aa B8BF     		it	lt
 2025 00ac 7F42     		rsblt	r7, r7, #0
 2026              	.LVL202:
 301:lvgl/lvgl/src/core/lv_obj_draw.c ****             s = LV_MAX(s, sh_width);
 2027              		.loc 1 301 25 view .LVU698
 2028 00ae BFB2     		uxth	r7, r7
 301:lvgl/lvgl/src/core/lv_obj_draw.c ****             s = LV_MAX(s, sh_width);
 2029              		.loc 1 301 22 view .LVU699
 2030 00b0 BB42     		cmp	r3, r7
 2031 00b2 2CBF     		ite	cs
 2032 00b4 E418     		addcs	r4, r4, r3
 2033 00b6 E419     		addcc	r4, r4, r7
 2034              	.LVL203:
 301:lvgl/lvgl/src/core/lv_obj_draw.c ****             s = LV_MAX(s, sh_width);
 2035              		.loc 1 301 22 view .LVU700
 2036 00b8 24B2     		sxth	r4, r4
 2037              	.LVL204:
 302:lvgl/lvgl/src/core/lv_obj_draw.c ****         }
 2038              		.loc 1 302 13 is_stmt 1 view .LVU701
 302:lvgl/lvgl/src/core/lv_obj_draw.c ****         }
 2039              		.loc 1 302 15 is_stmt 0 view .LVU702
 2040 00ba 24EAE474 		bic	r4, r4, r4, asr #31
 2041              	.LVL205:
 302:lvgl/lvgl/src/core/lv_obj_draw.c ****         }
 2042              		.loc 1 302 15 view .LVU703
 2043 00be A8E7     		b	.L47
 2044              	.LVL206:
 2045              	.L53:
 302:lvgl/lvgl/src/core/lv_obj_draw.c ****         }
 2046              		.loc 1 302 15 view .LVU704
 2047              	.LBE285:
 2048              	.LBE292:
 2049              	.LBB293:
 308:lvgl/lvgl/src/core/lv_obj_draw.c ****         if(outline_opa > LV_OPA_MIN) {
 2050              		.loc 1 308 9 is_stmt 1 view .LVU705
 2051              	.LBB294:
 2052              	.LBI294:
 403:lvgl/lvgl/src/core/lv_obj_style_gen.h **** {
 2053              		.loc 2 403 24 view .LVU706
 2054              	.LBB295:
 405:lvgl/lvgl/src/core/lv_obj_style_gen.h ****     return (lv_opa_t)v.num;
 2055              		.loc 2 405 5 view .LVU707
 405:lvgl/lvgl/src/core/lv_obj_style_gen.h ****     return (lv_opa_t)v.num;
 2056              		.loc 2 405 26 is_stmt 0 view .LVU708
 2057 00c0 40F63C02 		movw	r2, #2108
 2058 00c4 3146     		mov	r1, r6
 2059 00c6 2846     		mov	r0, r5
 2060 00c8 FFF7FEFF 		bl	lv_obj_get_style_prop
 2061              	.LVL207:
 406:lvgl/lvgl/src/core/lv_obj_style_gen.h **** }
 2062              		.loc 2 406 5 is_stmt 1 view .LVU709
 406:lvgl/lvgl/src/core/lv_obj_style_gen.h **** }
 2063              		.loc 2 406 12 is_stmt 0 view .LVU710
ARM GAS  C:\Users\gx\AppData\Local\Temp\cczBUDp5.s 			page 64


 2064 00cc C0B2     		uxtb	r0, r0
 2065              	.LVL208:
 406:lvgl/lvgl/src/core/lv_obj_style_gen.h **** }
 2066              		.loc 2 406 12 view .LVU711
 2067              	.LBE295:
 2068              	.LBE294:
 309:lvgl/lvgl/src/core/lv_obj_draw.c ****             lv_coord_t outline_pad = lv_obj_get_style_outline_pad(obj, part);
 2069              		.loc 1 309 9 is_stmt 1 view .LVU712
 309:lvgl/lvgl/src/core/lv_obj_draw.c ****             lv_coord_t outline_pad = lv_obj_get_style_outline_pad(obj, part);
 2070              		.loc 1 309 11 is_stmt 0 view .LVU713
 2071 00ce 0228     		cmp	r0, #2
 2072 00d0 A8D9     		bls	.L48
 2073              	.LBB296:
 310:lvgl/lvgl/src/core/lv_obj_draw.c ****             s = LV_MAX(s, outline_pad + outline_width);
 2074              		.loc 1 310 13 is_stmt 1 view .LVU714
 2075              	.LVL209:
 2076              	.LBB297:
 2077              	.LBI297:
 409:lvgl/lvgl/src/core/lv_obj_style_gen.h **** {
 2078              		.loc 2 409 26 view .LVU715
 2079              	.LBB298:
 411:lvgl/lvgl/src/core/lv_obj_style_gen.h ****     return (lv_coord_t)v.num;
 2080              		.loc 2 411 5 view .LVU716
 411:lvgl/lvgl/src/core/lv_obj_style_gen.h ****     return (lv_coord_t)v.num;
 2081              		.loc 2 411 26 is_stmt 0 view .LVU717
 2082 00d2 40F63D02 		movw	r2, #2109
 2083 00d6 3146     		mov	r1, r6
 2084 00d8 2846     		mov	r0, r5
 2085              	.LVL210:
 411:lvgl/lvgl/src/core/lv_obj_style_gen.h ****     return (lv_coord_t)v.num;
 2086              		.loc 2 411 26 view .LVU718
 2087 00da FFF7FEFF 		bl	lv_obj_get_style_prop
 2088              	.LVL211:
 412:lvgl/lvgl/src/core/lv_obj_style_gen.h **** }
 2089              		.loc 2 412 5 is_stmt 1 view .LVU719
 412:lvgl/lvgl/src/core/lv_obj_style_gen.h **** }
 2090              		.loc 2 412 5 is_stmt 0 view .LVU720
 2091              	.LBE298:
 2092              	.LBE297:
 311:lvgl/lvgl/src/core/lv_obj_draw.c ****         }
 2093              		.loc 1 311 13 is_stmt 1 view .LVU721
 311:lvgl/lvgl/src/core/lv_obj_draw.c ****         }
 2094              		.loc 1 311 17 is_stmt 0 view .LVU722
 2095 00de 07FA80F7 		sxtah	r7, r7, r0
 2096              	.LVL212:
 311:lvgl/lvgl/src/core/lv_obj_draw.c ****         }
 2097              		.loc 1 311 17 view .LVU723
 2098 00e2 BC42     		cmp	r4, r7
 2099 00e4 B8BF     		it	lt
 2100 00e6 3C46     		movlt	r4, r7
 2101              	.LVL213:
 311:lvgl/lvgl/src/core/lv_obj_draw.c ****         }
 2102              		.loc 1 311 15 view .LVU724
 2103 00e8 24B2     		sxth	r4, r4
 2104              	.LVL214:
 311:lvgl/lvgl/src/core/lv_obj_draw.c ****         }
 2105              		.loc 1 311 15 view .LVU725
ARM GAS  C:\Users\gx\AppData\Local\Temp\cczBUDp5.s 			page 65


 2106 00ea 9BE7     		b	.L48
 2107              	.LBE296:
 2108              	.LBE293:
 2109              		.cfi_endproc
 2110              	.LFE163:
 2112              		.section	.text.lv_obj_draw_dsc_init,"ax",%progbits
 2113              		.align	1
 2114              		.global	lv_obj_draw_dsc_init
 2115              		.syntax unified
 2116              		.thumb
 2117              		.thumb_func
 2118              		.fpu fpv4-sp-d16
 2120              	lv_obj_draw_dsc_init:
 2121              	.LVL215:
 2122              	.LFB164:
 322:lvgl/lvgl/src/core/lv_obj_draw.c **** 
 323:lvgl/lvgl/src/core/lv_obj_draw.c **** void lv_obj_draw_dsc_init(lv_obj_draw_part_dsc_t * dsc, const lv_area_t * clip_area)
 324:lvgl/lvgl/src/core/lv_obj_draw.c **** {
 2123              		.loc 1 324 1 is_stmt 1 view -0
 2124              		.cfi_startproc
 2125              		@ args = 0, pretend = 0, frame = 0
 2126              		@ frame_needed = 0, uses_anonymous_args = 0
 2127              		.loc 1 324 1 is_stmt 0 view .LVU727
 2128 0000 38B5     		push	{r3, r4, r5, lr}
 2129              	.LCFI6:
 2130              		.cfi_def_cfa_offset 16
 2131              		.cfi_offset 3, -16
 2132              		.cfi_offset 4, -12
 2133              		.cfi_offset 5, -8
 2134              		.cfi_offset 14, -4
 2135 0002 0446     		mov	r4, r0
 2136 0004 0D46     		mov	r5, r1
 325:lvgl/lvgl/src/core/lv_obj_draw.c ****     lv_memset_00(dsc, sizeof(lv_obj_draw_part_dsc_t));
 2137              		.loc 1 325 5 is_stmt 1 view .LVU728
 2138 0006 4421     		movs	r1, #68
 2139              	.LVL216:
 2140              		.loc 1 325 5 is_stmt 0 view .LVU729
 2141 0008 FFF7FEFF 		bl	lv_memset_00
 2142              	.LVL217:
 326:lvgl/lvgl/src/core/lv_obj_draw.c ****     dsc->clip_area = clip_area;
 2143              		.loc 1 326 5 is_stmt 1 view .LVU730
 2144              		.loc 1 326 20 is_stmt 0 view .LVU731
 2145 000c 2560     		str	r5, [r4]
 327:lvgl/lvgl/src/core/lv_obj_draw.c **** }
 2146              		.loc 1 327 1 view .LVU732
 2147 000e 38BD     		pop	{r3, r4, r5, pc}
 2148              		.loc 1 327 1 view .LVU733
 2149              		.cfi_endproc
 2150              	.LFE164:
 2152              		.section	.text.lv_obj_draw_part_check_type,"ax",%progbits
 2153              		.align	1
 2154              		.global	lv_obj_draw_part_check_type
 2155              		.syntax unified
 2156              		.thumb
 2157              		.thumb_func
 2158              		.fpu fpv4-sp-d16
 2160              	lv_obj_draw_part_check_type:
ARM GAS  C:\Users\gx\AppData\Local\Temp\cczBUDp5.s 			page 66


 2161              	.LVL218:
 2162              	.LFB165:
 328:lvgl/lvgl/src/core/lv_obj_draw.c **** 
 329:lvgl/lvgl/src/core/lv_obj_draw.c **** bool lv_obj_draw_part_check_type(lv_obj_draw_part_dsc_t * dsc, const lv_obj_class_t * class_p, uint
 330:lvgl/lvgl/src/core/lv_obj_draw.c **** {
 2163              		.loc 1 330 1 is_stmt 1 view -0
 2164              		.cfi_startproc
 2165              		@ args = 0, pretend = 0, frame = 0
 2166              		@ frame_needed = 0, uses_anonymous_args = 0
 2167              		@ link register save eliminated.
 331:lvgl/lvgl/src/core/lv_obj_draw.c ****     if(dsc->class_p == class_p && dsc->type == type) return true;
 2168              		.loc 1 331 5 view .LVU735
 2169              		.loc 1 331 11 is_stmt 0 view .LVU736
 2170 0000 4368     		ldr	r3, [r0, #4]
 2171              		.loc 1 331 7 view .LVU737
 2172 0002 8B42     		cmp	r3, r1
 2173 0004 01D0     		beq	.L61
 332:lvgl/lvgl/src/core/lv_obj_draw.c ****     else return false;
 2174              		.loc 1 332 17 view .LVU738
 2175 0006 0020     		movs	r0, #0
 2176              	.LVL219:
 2177              		.loc 1 332 17 view .LVU739
 2178 0008 7047     		bx	lr
 2179              	.LVL220:
 2180              	.L61:
 331:lvgl/lvgl/src/core/lv_obj_draw.c ****     if(dsc->class_p == class_p && dsc->type == type) return true;
 2181              		.loc 1 331 38 discriminator 1 view .LVU740
 2182 000a 8368     		ldr	r3, [r0, #8]
 331:lvgl/lvgl/src/core/lv_obj_draw.c ****     if(dsc->class_p == class_p && dsc->type == type) return true;
 2183              		.loc 1 331 32 discriminator 1 view .LVU741
 2184 000c 9342     		cmp	r3, r2
 2185 000e 01D0     		beq	.L60
 2186              		.loc 1 332 17 view .LVU742
 2187 0010 0020     		movs	r0, #0
 2188              	.LVL221:
 2189              		.loc 1 332 17 view .LVU743
 2190 0012 7047     		bx	lr
 2191              	.LVL222:
 2192              	.L60:
 331:lvgl/lvgl/src/core/lv_obj_draw.c ****     if(dsc->class_p == class_p && dsc->type == type) return true;
 2193              		.loc 1 331 61 view .LVU744
 2194 0014 0120     		movs	r0, #1
 2195              	.LVL223:
 333:lvgl/lvgl/src/core/lv_obj_draw.c **** }
 2196              		.loc 1 333 1 view .LVU745
 2197 0016 7047     		bx	lr
 2198              		.cfi_endproc
 2199              	.LFE165:
 2201              		.section	.text._lv_obj_get_ext_draw_size,"ax",%progbits
 2202              		.align	1
 2203              		.global	_lv_obj_get_ext_draw_size
 2204              		.syntax unified
 2205              		.thumb
 2206              		.thumb_func
 2207              		.fpu fpv4-sp-d16
 2209              	_lv_obj_get_ext_draw_size:
 2210              	.LVL224:
ARM GAS  C:\Users\gx\AppData\Local\Temp\cczBUDp5.s 			page 67


 2211              	.LFB167:
 334:lvgl/lvgl/src/core/lv_obj_draw.c **** 
 335:lvgl/lvgl/src/core/lv_obj_draw.c **** void lv_obj_refresh_ext_draw_size(lv_obj_t * obj)
 336:lvgl/lvgl/src/core/lv_obj_draw.c **** {
 337:lvgl/lvgl/src/core/lv_obj_draw.c ****     LV_ASSERT_OBJ(obj, MY_CLASS);
 338:lvgl/lvgl/src/core/lv_obj_draw.c **** 
 339:lvgl/lvgl/src/core/lv_obj_draw.c ****     lv_coord_t s_old = _lv_obj_get_ext_draw_size(obj);
 340:lvgl/lvgl/src/core/lv_obj_draw.c ****     lv_coord_t s_new = 0;
 341:lvgl/lvgl/src/core/lv_obj_draw.c ****     lv_event_send(obj, LV_EVENT_REFR_EXT_DRAW_SIZE, &s_new);
 342:lvgl/lvgl/src/core/lv_obj_draw.c **** 
 343:lvgl/lvgl/src/core/lv_obj_draw.c ****     if(s_new != s_old) lv_obj_invalidate(obj);
 344:lvgl/lvgl/src/core/lv_obj_draw.c **** 
 345:lvgl/lvgl/src/core/lv_obj_draw.c ****     /*Store the result if the special attrs already allocated*/
 346:lvgl/lvgl/src/core/lv_obj_draw.c ****     if(obj->spec_attr) {
 347:lvgl/lvgl/src/core/lv_obj_draw.c ****         obj->spec_attr->ext_draw_size = s_new;
 348:lvgl/lvgl/src/core/lv_obj_draw.c ****     }
 349:lvgl/lvgl/src/core/lv_obj_draw.c ****     /*Allocate spec. attrs. only if the result is not zero.
 350:lvgl/lvgl/src/core/lv_obj_draw.c ****      *Zero is the default value if the spec. attr. are not defined.*/
 351:lvgl/lvgl/src/core/lv_obj_draw.c ****     else if(s_new != 0) {
 352:lvgl/lvgl/src/core/lv_obj_draw.c ****         lv_obj_allocate_spec_attr(obj);
 353:lvgl/lvgl/src/core/lv_obj_draw.c ****         obj->spec_attr->ext_draw_size = s_new;
 354:lvgl/lvgl/src/core/lv_obj_draw.c ****     }
 355:lvgl/lvgl/src/core/lv_obj_draw.c **** 
 356:lvgl/lvgl/src/core/lv_obj_draw.c ****     if(s_new != s_old) lv_obj_invalidate(obj);
 357:lvgl/lvgl/src/core/lv_obj_draw.c **** }
 358:lvgl/lvgl/src/core/lv_obj_draw.c **** 
 359:lvgl/lvgl/src/core/lv_obj_draw.c **** lv_coord_t _lv_obj_get_ext_draw_size(const lv_obj_t * obj)
 360:lvgl/lvgl/src/core/lv_obj_draw.c **** {
 2212              		.loc 1 360 1 is_stmt 1 view -0
 2213              		.cfi_startproc
 2214              		@ args = 0, pretend = 0, frame = 0
 2215              		@ frame_needed = 0, uses_anonymous_args = 0
 2216              		@ link register save eliminated.
 361:lvgl/lvgl/src/core/lv_obj_draw.c ****     if(obj->spec_attr) return obj->spec_attr->ext_draw_size;
 2217              		.loc 1 361 5 view .LVU747
 2218              		.loc 1 361 11 is_stmt 0 view .LVU748
 2219 0000 8368     		ldr	r3, [r0, #8]
 2220              		.loc 1 361 7 view .LVU749
 2221 0002 13B1     		cbz	r3, .L64
 2222              		.loc 1 361 24 is_stmt 1 discriminator 1 view .LVU750
 2223              		.loc 1 361 45 is_stmt 0 discriminator 1 view .LVU751
 2224 0004 B3F91600 		ldrsh	r0, [r3, #22]
 2225              	.LVL225:
 2226              		.loc 1 361 45 discriminator 1 view .LVU752
 2227 0008 7047     		bx	lr
 2228              	.LVL226:
 2229              	.L64:
 362:lvgl/lvgl/src/core/lv_obj_draw.c ****     else return 0;
 2230              		.loc 1 362 17 view .LVU753
 2231 000a 0020     		movs	r0, #0
 2232              	.LVL227:
 363:lvgl/lvgl/src/core/lv_obj_draw.c **** }
 2233              		.loc 1 363 1 view .LVU754
 2234 000c 7047     		bx	lr
 2235              		.cfi_endproc
 2236              	.LFE167:
 2238              		.section	.text.lv_obj_refresh_ext_draw_size,"ax",%progbits
ARM GAS  C:\Users\gx\AppData\Local\Temp\cczBUDp5.s 			page 68


 2239              		.align	1
 2240              		.global	lv_obj_refresh_ext_draw_size
 2241              		.syntax unified
 2242              		.thumb
 2243              		.thumb_func
 2244              		.fpu fpv4-sp-d16
 2246              	lv_obj_refresh_ext_draw_size:
 2247              	.LVL228:
 2248              	.LFB166:
 336:lvgl/lvgl/src/core/lv_obj_draw.c ****     LV_ASSERT_OBJ(obj, MY_CLASS);
 2249              		.loc 1 336 1 is_stmt 1 view -0
 2250              		.cfi_startproc
 2251              		@ args = 0, pretend = 0, frame = 8
 2252              		@ frame_needed = 0, uses_anonymous_args = 0
 336:lvgl/lvgl/src/core/lv_obj_draw.c ****     LV_ASSERT_OBJ(obj, MY_CLASS);
 2253              		.loc 1 336 1 is_stmt 0 view .LVU756
 2254 0000 30B5     		push	{r4, r5, lr}
 2255              	.LCFI7:
 2256              		.cfi_def_cfa_offset 12
 2257              		.cfi_offset 4, -12
 2258              		.cfi_offset 5, -8
 2259              		.cfi_offset 14, -4
 2260 0002 83B0     		sub	sp, sp, #12
 2261              	.LCFI8:
 2262              		.cfi_def_cfa_offset 24
 2263 0004 0446     		mov	r4, r0
 337:lvgl/lvgl/src/core/lv_obj_draw.c **** 
 2264              		.loc 1 337 5 is_stmt 1 view .LVU757
 337:lvgl/lvgl/src/core/lv_obj_draw.c **** 
 2265              		.loc 1 337 5 view .LVU758
 337:lvgl/lvgl/src/core/lv_obj_draw.c **** 
 2266              		.loc 1 337 5 view .LVU759
 339:lvgl/lvgl/src/core/lv_obj_draw.c ****     lv_coord_t s_new = 0;
 2267              		.loc 1 339 5 view .LVU760
 339:lvgl/lvgl/src/core/lv_obj_draw.c ****     lv_coord_t s_new = 0;
 2268              		.loc 1 339 24 is_stmt 0 view .LVU761
 2269 0006 FFF7FEFF 		bl	_lv_obj_get_ext_draw_size
 2270              	.LVL229:
 339:lvgl/lvgl/src/core/lv_obj_draw.c ****     lv_coord_t s_new = 0;
 2271              		.loc 1 339 24 view .LVU762
 2272 000a 0546     		mov	r5, r0
 2273              	.LVL230:
 340:lvgl/lvgl/src/core/lv_obj_draw.c ****     lv_event_send(obj, LV_EVENT_REFR_EXT_DRAW_SIZE, &s_new);
 2274              		.loc 1 340 5 is_stmt 1 view .LVU763
 340:lvgl/lvgl/src/core/lv_obj_draw.c ****     lv_event_send(obj, LV_EVENT_REFR_EXT_DRAW_SIZE, &s_new);
 2275              		.loc 1 340 16 is_stmt 0 view .LVU764
 2276 000c 0023     		movs	r3, #0
 2277 000e ADF80630 		strh	r3, [sp, #6]	@ movhi
 341:lvgl/lvgl/src/core/lv_obj_draw.c **** 
 2278              		.loc 1 341 5 is_stmt 1 view .LVU765
 2279 0012 0DF10602 		add	r2, sp, #6
 2280 0016 1321     		movs	r1, #19
 2281 0018 2046     		mov	r0, r4
 2282 001a FFF7FEFF 		bl	lv_event_send
 2283              	.LVL231:
 343:lvgl/lvgl/src/core/lv_obj_draw.c **** 
 2284              		.loc 1 343 5 view .LVU766
ARM GAS  C:\Users\gx\AppData\Local\Temp\cczBUDp5.s 			page 69


 343:lvgl/lvgl/src/core/lv_obj_draw.c **** 
 2285              		.loc 1 343 14 is_stmt 0 view .LVU767
 2286 001e BDF90630 		ldrsh	r3, [sp, #6]
 343:lvgl/lvgl/src/core/lv_obj_draw.c **** 
 2287              		.loc 1 343 7 view .LVU768
 2288 0022 AB42     		cmp	r3, r5
 2289 0024 0AD1     		bne	.L71
 2290              	.L66:
 346:lvgl/lvgl/src/core/lv_obj_draw.c ****         obj->spec_attr->ext_draw_size = s_new;
 2291              		.loc 1 346 5 is_stmt 1 view .LVU769
 346:lvgl/lvgl/src/core/lv_obj_draw.c ****         obj->spec_attr->ext_draw_size = s_new;
 2292              		.loc 1 346 11 is_stmt 0 view .LVU770
 2293 0026 A368     		ldr	r3, [r4, #8]
 346:lvgl/lvgl/src/core/lv_obj_draw.c ****         obj->spec_attr->ext_draw_size = s_new;
 2294              		.loc 1 346 7 view .LVU771
 2295 0028 63B1     		cbz	r3, .L67
 347:lvgl/lvgl/src/core/lv_obj_draw.c ****     }
 2296              		.loc 1 347 9 is_stmt 1 view .LVU772
 347:lvgl/lvgl/src/core/lv_obj_draw.c ****     }
 2297              		.loc 1 347 39 is_stmt 0 view .LVU773
 2298 002a BDF80620 		ldrh	r2, [sp, #6]
 2299 002e DA82     		strh	r2, [r3, #22]	@ movhi
 2300              	.L68:
 356:lvgl/lvgl/src/core/lv_obj_draw.c **** }
 2301              		.loc 1 356 5 is_stmt 1 view .LVU774
 356:lvgl/lvgl/src/core/lv_obj_draw.c **** }
 2302              		.loc 1 356 14 is_stmt 0 view .LVU775
 2303 0030 BDF90630 		ldrsh	r3, [sp, #6]
 356:lvgl/lvgl/src/core/lv_obj_draw.c **** }
 2304              		.loc 1 356 7 view .LVU776
 2305 0034 AB42     		cmp	r3, r5
 2306 0036 11D1     		bne	.L72
 2307              	.L65:
 357:lvgl/lvgl/src/core/lv_obj_draw.c **** 
 2308              		.loc 1 357 1 view .LVU777
 2309 0038 03B0     		add	sp, sp, #12
 2310              	.LCFI9:
 2311              		.cfi_remember_state
 2312              		.cfi_def_cfa_offset 12
 2313              		@ sp needed
 2314 003a 30BD     		pop	{r4, r5, pc}
 2315              	.LVL232:
 2316              	.L71:
 2317              	.LCFI10:
 2318              		.cfi_restore_state
 343:lvgl/lvgl/src/core/lv_obj_draw.c **** 
 2319              		.loc 1 343 24 is_stmt 1 discriminator 1 view .LVU778
 2320 003c 2046     		mov	r0, r4
 2321 003e FFF7FEFF 		bl	lv_obj_invalidate
 2322              	.LVL233:
 2323 0042 F0E7     		b	.L66
 2324              	.L67:
 351:lvgl/lvgl/src/core/lv_obj_draw.c ****         lv_obj_allocate_spec_attr(obj);
 2325              		.loc 1 351 10 view .LVU779
 351:lvgl/lvgl/src/core/lv_obj_draw.c ****         lv_obj_allocate_spec_attr(obj);
 2326              		.loc 1 351 19 is_stmt 0 view .LVU780
 2327 0044 BDF90630 		ldrsh	r3, [sp, #6]
ARM GAS  C:\Users\gx\AppData\Local\Temp\cczBUDp5.s 			page 70


 351:lvgl/lvgl/src/core/lv_obj_draw.c ****         lv_obj_allocate_spec_attr(obj);
 2328              		.loc 1 351 12 view .LVU781
 2329 0048 002B     		cmp	r3, #0
 2330 004a F1D0     		beq	.L68
 352:lvgl/lvgl/src/core/lv_obj_draw.c ****         obj->spec_attr->ext_draw_size = s_new;
 2331              		.loc 1 352 9 is_stmt 1 view .LVU782
 2332 004c 2046     		mov	r0, r4
 2333 004e FFF7FEFF 		bl	lv_obj_allocate_spec_attr
 2334              	.LVL234:
 353:lvgl/lvgl/src/core/lv_obj_draw.c ****     }
 2335              		.loc 1 353 9 view .LVU783
 353:lvgl/lvgl/src/core/lv_obj_draw.c ****     }
 2336              		.loc 1 353 12 is_stmt 0 view .LVU784
 2337 0052 A368     		ldr	r3, [r4, #8]
 353:lvgl/lvgl/src/core/lv_obj_draw.c ****     }
 2338              		.loc 1 353 39 view .LVU785
 2339 0054 BDF80620 		ldrh	r2, [sp, #6]
 2340 0058 DA82     		strh	r2, [r3, #22]	@ movhi
 2341 005a E9E7     		b	.L68
 2342              	.L72:
 356:lvgl/lvgl/src/core/lv_obj_draw.c **** }
 2343              		.loc 1 356 24 is_stmt 1 discriminator 1 view .LVU786
 2344 005c 2046     		mov	r0, r4
 2345 005e FFF7FEFF 		bl	lv_obj_invalidate
 2346              	.LVL235:
 357:lvgl/lvgl/src/core/lv_obj_draw.c **** 
 2347              		.loc 1 357 1 is_stmt 0 discriminator 1 view .LVU787
 2348 0062 E9E7     		b	.L65
 2349              		.cfi_endproc
 2350              	.LFE166:
 2352              		.text
 2353              	.Letext0:
 2354              		.file 4 "c:\\program files (x86)\\gnu arm embedded toolchain\\9 2020-q2-update\\arm-none-eabi\\inc
 2355              		.file 5 "c:\\program files (x86)\\gnu arm embedded toolchain\\9 2020-q2-update\\arm-none-eabi\\inc
 2356              		.file 6 "c:\\program files (x86)\\gnu arm embedded toolchain\\9 2020-q2-update\\lib\\gcc\\arm-none
 2357              		.file 7 "c:\\program files (x86)\\gnu arm embedded toolchain\\9 2020-q2-update\\arm-none-eabi\\inc
 2358              		.file 8 "c:\\program files (x86)\\gnu arm embedded toolchain\\9 2020-q2-update\\arm-none-eabi\\inc
 2359              		.file 9 "c:\\program files (x86)\\gnu arm embedded toolchain\\9 2020-q2-update\\arm-none-eabi\\inc
 2360              		.file 10 "d:\\practise\\f407_disc\\lvgl\\lvgl\\src\\font\\lv_font.h"
 2361              		.file 11 "lvgl/lvgl/src/core/../draw/../misc/lv_color.h"
 2362              		.file 12 "lvgl/lvgl/src/core/../draw/../misc/lv_txt.h"
 2363              		.file 13 "lvgl/lvgl/src/core/../draw/../misc/lv_bidi.h"
 2364              		.file 14 "lvgl/lvgl/src/core/../draw/../misc/lv_style.h"
 2365              		.file 15 "lvgl/lvgl/src/core/../draw/lv_img_decoder.h"
 2366              		.file 16 "lvgl/lvgl/src/core/../draw/lv_draw_rect.h"
 2367              		.file 17 "lvgl/lvgl/src/core/../draw/lv_draw_label.h"
 2368              		.file 18 "lvgl/lvgl/src/core/../draw/lv_draw_img.h"
 2369              		.file 19 "lvgl/lvgl/src/core/../draw/lv_draw_line.h"
 2370              		.file 20 "lvgl/lvgl/src/core/../draw/lv_draw_arc.h"
 2371              		.file 21 "lvgl/lvgl/src/core/lv_obj_draw.h"
 2372              		.file 22 "lvgl/lvgl/src/core/lv_obj_class.h"
 2373              		.file 23 "lvgl/lvgl/src/core/../hal/../misc/lv_ll.h"
 2374              		.file 24 "lvgl/lvgl/src/core/lv_obj.h"
 2375              		.file 25 "lvgl/lvgl/src/core/lv_group.h"
 2376              		.file 26 "lvgl/lvgl/src/core/lv_obj_scroll.h"
 2377              		.file 27 "lvgl/lvgl/src/core/lv_obj_style.h"
 2378              		.file 28 "lvgl/lvgl/src/core/lv_event.h"
ARM GAS  C:\Users\gx\AppData\Local\Temp\cczBUDp5.s 			page 71


 2379              		.file 29 "lvgl/lvgl/src/core/lv_obj_pos.h"
 2380              		.file 30 "lvgl/lvgl/src/core/../hal/../misc/lv_mem.h"
ARM GAS  C:\Users\gx\AppData\Local\Temp\cczBUDp5.s 			page 72

