ARM GAS  C:\Users\gx\AppData\Local\Temp\ccBEEQee.s 			page 1


   1              		.cpu cortex-m4
   2              		.eabi_attribute 27, 1
   3              		.eabi_attribute 28, 1
   4              		.eabi_attribute 20, 1
   5              		.eabi_attribute 21, 1
   6              		.eabi_attribute 23, 3
   7              		.eabi_attribute 24, 1
   8              		.eabi_attribute 25, 1
   9              		.eabi_attribute 26, 1
  10              		.eabi_attribute 30, 1
  11              		.eabi_attribute 34, 1
  12              		.eabi_attribute 18, 4
  13              		.file	"lv_obj_style_gen.c"
  14              		.text
  15              	.Ltext0:
  16              		.cfi_sections	.debug_frame
  17              		.section	.text.lv_obj_set_style_width,"ax",%progbits
  18              		.align	1
  19              		.global	lv_obj_set_style_width
  20              		.arch armv7e-m
  21              		.syntax unified
  22              		.thumb
  23              		.thumb_func
  24              		.fpu fpv4-sp-d16
  26              	lv_obj_set_style_width:
  27              	.LVL0:
  28              	.LFB152:
  29              		.file 1 "lvgl/lvgl/src/core/lv_obj_style_gen.c"
   1:lvgl/lvgl/src/core/lv_obj_style_gen.c **** #include "lv_obj.h"
   2:lvgl/lvgl/src/core/lv_obj_style_gen.c **** void lv_obj_set_style_width(struct _lv_obj_t * obj, lv_coord_t value, lv_style_selector_t selector)
   3:lvgl/lvgl/src/core/lv_obj_style_gen.c **** {
  30              		.loc 1 3 1 view -0
  31              		.cfi_startproc
  32              		@ args = 0, pretend = 0, frame = 0
  33              		@ frame_needed = 0, uses_anonymous_args = 0
  34              		.loc 1 3 1 is_stmt 0 view .LVU1
  35 0000 08B5     		push	{r3, lr}
  36              	.LCFI0:
  37              		.cfi_def_cfa_offset 8
  38              		.cfi_offset 3, -8
  39              		.cfi_offset 14, -4
  40 0002 1346     		mov	r3, r2
   4:lvgl/lvgl/src/core/lv_obj_style_gen.c ****     lv_style_value_t v = {
  41              		.loc 1 4 5 is_stmt 1 view .LVU2
   5:lvgl/lvgl/src/core/lv_obj_style_gen.c ****         .num = (int32_t)value
   6:lvgl/lvgl/src/core/lv_obj_style_gen.c ****     };
   7:lvgl/lvgl/src/core/lv_obj_style_gen.c ****     lv_obj_set_local_style_prop(obj, LV_STYLE_WIDTH, v, selector);
  42              		.loc 1 7 5 view .LVU3
  43 0004 0A46     		mov	r2, r1
  44              	.LVL1:
  45              		.loc 1 7 5 is_stmt 0 view .LVU4
  46 0006 41F20101 		movw	r1, #4097
  47              	.LVL2:
  48              		.loc 1 7 5 view .LVU5
  49 000a FFF7FEFF 		bl	lv_obj_set_local_style_prop
  50              	.LVL3:
   8:lvgl/lvgl/src/core/lv_obj_style_gen.c **** }
ARM GAS  C:\Users\gx\AppData\Local\Temp\ccBEEQee.s 			page 2


  51              		.loc 1 8 1 view .LVU6
  52 000e 08BD     		pop	{r3, pc}
  53              		.cfi_endproc
  54              	.LFE152:
  56              		.section	.text.lv_obj_set_style_min_width,"ax",%progbits
  57              		.align	1
  58              		.global	lv_obj_set_style_min_width
  59              		.syntax unified
  60              		.thumb
  61              		.thumb_func
  62              		.fpu fpv4-sp-d16
  64              	lv_obj_set_style_min_width:
  65              	.LVL4:
  66              	.LFB153:
   9:lvgl/lvgl/src/core/lv_obj_style_gen.c **** 
  10:lvgl/lvgl/src/core/lv_obj_style_gen.c **** void lv_obj_set_style_min_width(struct _lv_obj_t * obj, lv_coord_t value, lv_style_selector_t selec
  11:lvgl/lvgl/src/core/lv_obj_style_gen.c **** {
  67              		.loc 1 11 1 is_stmt 1 view -0
  68              		.cfi_startproc
  69              		@ args = 0, pretend = 0, frame = 0
  70              		@ frame_needed = 0, uses_anonymous_args = 0
  71              		.loc 1 11 1 is_stmt 0 view .LVU8
  72 0000 08B5     		push	{r3, lr}
  73              	.LCFI1:
  74              		.cfi_def_cfa_offset 8
  75              		.cfi_offset 3, -8
  76              		.cfi_offset 14, -4
  77 0002 1346     		mov	r3, r2
  12:lvgl/lvgl/src/core/lv_obj_style_gen.c ****     lv_style_value_t v = {
  78              		.loc 1 12 5 is_stmt 1 view .LVU9
  13:lvgl/lvgl/src/core/lv_obj_style_gen.c ****         .num = (int32_t)value
  14:lvgl/lvgl/src/core/lv_obj_style_gen.c ****     };
  15:lvgl/lvgl/src/core/lv_obj_style_gen.c ****     lv_obj_set_local_style_prop(obj, LV_STYLE_MIN_WIDTH, v, selector);
  79              		.loc 1 15 5 view .LVU10
  80 0004 0A46     		mov	r2, r1
  81              	.LVL5:
  82              		.loc 1 15 5 is_stmt 0 view .LVU11
  83 0006 41F20201 		movw	r1, #4098
  84              	.LVL6:
  85              		.loc 1 15 5 view .LVU12
  86 000a FFF7FEFF 		bl	lv_obj_set_local_style_prop
  87              	.LVL7:
  16:lvgl/lvgl/src/core/lv_obj_style_gen.c **** }
  88              		.loc 1 16 1 view .LVU13
  89 000e 08BD     		pop	{r3, pc}
  90              		.cfi_endproc
  91              	.LFE153:
  93              		.section	.text.lv_obj_set_style_max_width,"ax",%progbits
  94              		.align	1
  95              		.global	lv_obj_set_style_max_width
  96              		.syntax unified
  97              		.thumb
  98              		.thumb_func
  99              		.fpu fpv4-sp-d16
 101              	lv_obj_set_style_max_width:
 102              	.LVL8:
 103              	.LFB154:
ARM GAS  C:\Users\gx\AppData\Local\Temp\ccBEEQee.s 			page 3


  17:lvgl/lvgl/src/core/lv_obj_style_gen.c **** 
  18:lvgl/lvgl/src/core/lv_obj_style_gen.c **** void lv_obj_set_style_max_width(struct _lv_obj_t * obj, lv_coord_t value, lv_style_selector_t selec
  19:lvgl/lvgl/src/core/lv_obj_style_gen.c **** {
 104              		.loc 1 19 1 is_stmt 1 view -0
 105              		.cfi_startproc
 106              		@ args = 0, pretend = 0, frame = 0
 107              		@ frame_needed = 0, uses_anonymous_args = 0
 108              		.loc 1 19 1 is_stmt 0 view .LVU15
 109 0000 08B5     		push	{r3, lr}
 110              	.LCFI2:
 111              		.cfi_def_cfa_offset 8
 112              		.cfi_offset 3, -8
 113              		.cfi_offset 14, -4
 114 0002 1346     		mov	r3, r2
  20:lvgl/lvgl/src/core/lv_obj_style_gen.c ****     lv_style_value_t v = {
 115              		.loc 1 20 5 is_stmt 1 view .LVU16
  21:lvgl/lvgl/src/core/lv_obj_style_gen.c ****         .num = (int32_t)value
  22:lvgl/lvgl/src/core/lv_obj_style_gen.c ****     };
  23:lvgl/lvgl/src/core/lv_obj_style_gen.c ****     lv_obj_set_local_style_prop(obj, LV_STYLE_MAX_WIDTH, v, selector);
 116              		.loc 1 23 5 view .LVU17
 117 0004 0A46     		mov	r2, r1
 118              	.LVL9:
 119              		.loc 1 23 5 is_stmt 0 view .LVU18
 120 0006 41F20301 		movw	r1, #4099
 121              	.LVL10:
 122              		.loc 1 23 5 view .LVU19
 123 000a FFF7FEFF 		bl	lv_obj_set_local_style_prop
 124              	.LVL11:
  24:lvgl/lvgl/src/core/lv_obj_style_gen.c **** }
 125              		.loc 1 24 1 view .LVU20
 126 000e 08BD     		pop	{r3, pc}
 127              		.cfi_endproc
 128              	.LFE154:
 130              		.section	.text.lv_obj_set_style_height,"ax",%progbits
 131              		.align	1
 132              		.global	lv_obj_set_style_height
 133              		.syntax unified
 134              		.thumb
 135              		.thumb_func
 136              		.fpu fpv4-sp-d16
 138              	lv_obj_set_style_height:
 139              	.LVL12:
 140              	.LFB155:
  25:lvgl/lvgl/src/core/lv_obj_style_gen.c **** 
  26:lvgl/lvgl/src/core/lv_obj_style_gen.c **** void lv_obj_set_style_height(struct _lv_obj_t * obj, lv_coord_t value, lv_style_selector_t selector
  27:lvgl/lvgl/src/core/lv_obj_style_gen.c **** {
 141              		.loc 1 27 1 is_stmt 1 view -0
 142              		.cfi_startproc
 143              		@ args = 0, pretend = 0, frame = 0
 144              		@ frame_needed = 0, uses_anonymous_args = 0
 145              		.loc 1 27 1 is_stmt 0 view .LVU22
 146 0000 08B5     		push	{r3, lr}
 147              	.LCFI3:
 148              		.cfi_def_cfa_offset 8
 149              		.cfi_offset 3, -8
 150              		.cfi_offset 14, -4
 151 0002 1346     		mov	r3, r2
ARM GAS  C:\Users\gx\AppData\Local\Temp\ccBEEQee.s 			page 4


  28:lvgl/lvgl/src/core/lv_obj_style_gen.c ****     lv_style_value_t v = {
 152              		.loc 1 28 5 is_stmt 1 view .LVU23
  29:lvgl/lvgl/src/core/lv_obj_style_gen.c ****         .num = (int32_t)value
  30:lvgl/lvgl/src/core/lv_obj_style_gen.c ****     };
  31:lvgl/lvgl/src/core/lv_obj_style_gen.c ****     lv_obj_set_local_style_prop(obj, LV_STYLE_HEIGHT, v, selector);
 153              		.loc 1 31 5 view .LVU24
 154 0004 0A46     		mov	r2, r1
 155              	.LVL13:
 156              		.loc 1 31 5 is_stmt 0 view .LVU25
 157 0006 41F20401 		movw	r1, #4100
 158              	.LVL14:
 159              		.loc 1 31 5 view .LVU26
 160 000a FFF7FEFF 		bl	lv_obj_set_local_style_prop
 161              	.LVL15:
  32:lvgl/lvgl/src/core/lv_obj_style_gen.c **** }
 162              		.loc 1 32 1 view .LVU27
 163 000e 08BD     		pop	{r3, pc}
 164              		.cfi_endproc
 165              	.LFE155:
 167              		.section	.text.lv_obj_set_style_min_height,"ax",%progbits
 168              		.align	1
 169              		.global	lv_obj_set_style_min_height
 170              		.syntax unified
 171              		.thumb
 172              		.thumb_func
 173              		.fpu fpv4-sp-d16
 175              	lv_obj_set_style_min_height:
 176              	.LVL16:
 177              	.LFB156:
  33:lvgl/lvgl/src/core/lv_obj_style_gen.c **** 
  34:lvgl/lvgl/src/core/lv_obj_style_gen.c **** void lv_obj_set_style_min_height(struct _lv_obj_t * obj, lv_coord_t value, lv_style_selector_t sele
  35:lvgl/lvgl/src/core/lv_obj_style_gen.c **** {
 178              		.loc 1 35 1 is_stmt 1 view -0
 179              		.cfi_startproc
 180              		@ args = 0, pretend = 0, frame = 0
 181              		@ frame_needed = 0, uses_anonymous_args = 0
 182              		.loc 1 35 1 is_stmt 0 view .LVU29
 183 0000 08B5     		push	{r3, lr}
 184              	.LCFI4:
 185              		.cfi_def_cfa_offset 8
 186              		.cfi_offset 3, -8
 187              		.cfi_offset 14, -4
 188 0002 1346     		mov	r3, r2
  36:lvgl/lvgl/src/core/lv_obj_style_gen.c ****     lv_style_value_t v = {
 189              		.loc 1 36 5 is_stmt 1 view .LVU30
  37:lvgl/lvgl/src/core/lv_obj_style_gen.c ****         .num = (int32_t)value
  38:lvgl/lvgl/src/core/lv_obj_style_gen.c ****     };
  39:lvgl/lvgl/src/core/lv_obj_style_gen.c ****     lv_obj_set_local_style_prop(obj, LV_STYLE_MIN_HEIGHT, v, selector);
 190              		.loc 1 39 5 view .LVU31
 191 0004 0A46     		mov	r2, r1
 192              	.LVL17:
 193              		.loc 1 39 5 is_stmt 0 view .LVU32
 194 0006 41F20501 		movw	r1, #4101
 195              	.LVL18:
 196              		.loc 1 39 5 view .LVU33
 197 000a FFF7FEFF 		bl	lv_obj_set_local_style_prop
 198              	.LVL19:
ARM GAS  C:\Users\gx\AppData\Local\Temp\ccBEEQee.s 			page 5


  40:lvgl/lvgl/src/core/lv_obj_style_gen.c **** }
 199              		.loc 1 40 1 view .LVU34
 200 000e 08BD     		pop	{r3, pc}
 201              		.cfi_endproc
 202              	.LFE156:
 204              		.section	.text.lv_obj_set_style_max_height,"ax",%progbits
 205              		.align	1
 206              		.global	lv_obj_set_style_max_height
 207              		.syntax unified
 208              		.thumb
 209              		.thumb_func
 210              		.fpu fpv4-sp-d16
 212              	lv_obj_set_style_max_height:
 213              	.LVL20:
 214              	.LFB157:
  41:lvgl/lvgl/src/core/lv_obj_style_gen.c **** 
  42:lvgl/lvgl/src/core/lv_obj_style_gen.c **** void lv_obj_set_style_max_height(struct _lv_obj_t * obj, lv_coord_t value, lv_style_selector_t sele
  43:lvgl/lvgl/src/core/lv_obj_style_gen.c **** {
 215              		.loc 1 43 1 is_stmt 1 view -0
 216              		.cfi_startproc
 217              		@ args = 0, pretend = 0, frame = 0
 218              		@ frame_needed = 0, uses_anonymous_args = 0
 219              		.loc 1 43 1 is_stmt 0 view .LVU36
 220 0000 08B5     		push	{r3, lr}
 221              	.LCFI5:
 222              		.cfi_def_cfa_offset 8
 223              		.cfi_offset 3, -8
 224              		.cfi_offset 14, -4
 225 0002 1346     		mov	r3, r2
  44:lvgl/lvgl/src/core/lv_obj_style_gen.c ****     lv_style_value_t v = {
 226              		.loc 1 44 5 is_stmt 1 view .LVU37
  45:lvgl/lvgl/src/core/lv_obj_style_gen.c ****         .num = (int32_t)value
  46:lvgl/lvgl/src/core/lv_obj_style_gen.c ****     };
  47:lvgl/lvgl/src/core/lv_obj_style_gen.c ****     lv_obj_set_local_style_prop(obj, LV_STYLE_MAX_HEIGHT, v, selector);
 227              		.loc 1 47 5 view .LVU38
 228 0004 0A46     		mov	r2, r1
 229              	.LVL21:
 230              		.loc 1 47 5 is_stmt 0 view .LVU39
 231 0006 41F20601 		movw	r1, #4102
 232              	.LVL22:
 233              		.loc 1 47 5 view .LVU40
 234 000a FFF7FEFF 		bl	lv_obj_set_local_style_prop
 235              	.LVL23:
  48:lvgl/lvgl/src/core/lv_obj_style_gen.c **** }
 236              		.loc 1 48 1 view .LVU41
 237 000e 08BD     		pop	{r3, pc}
 238              		.cfi_endproc
 239              	.LFE157:
 241              		.section	.text.lv_obj_set_style_x,"ax",%progbits
 242              		.align	1
 243              		.global	lv_obj_set_style_x
 244              		.syntax unified
 245              		.thumb
 246              		.thumb_func
 247              		.fpu fpv4-sp-d16
 249              	lv_obj_set_style_x:
 250              	.LVL24:
ARM GAS  C:\Users\gx\AppData\Local\Temp\ccBEEQee.s 			page 6


 251              	.LFB158:
  49:lvgl/lvgl/src/core/lv_obj_style_gen.c **** 
  50:lvgl/lvgl/src/core/lv_obj_style_gen.c **** void lv_obj_set_style_x(struct _lv_obj_t * obj, lv_coord_t value, lv_style_selector_t selector)
  51:lvgl/lvgl/src/core/lv_obj_style_gen.c **** {
 252              		.loc 1 51 1 is_stmt 1 view -0
 253              		.cfi_startproc
 254              		@ args = 0, pretend = 0, frame = 0
 255              		@ frame_needed = 0, uses_anonymous_args = 0
 256              		.loc 1 51 1 is_stmt 0 view .LVU43
 257 0000 08B5     		push	{r3, lr}
 258              	.LCFI6:
 259              		.cfi_def_cfa_offset 8
 260              		.cfi_offset 3, -8
 261              		.cfi_offset 14, -4
 262 0002 1346     		mov	r3, r2
  52:lvgl/lvgl/src/core/lv_obj_style_gen.c ****     lv_style_value_t v = {
 263              		.loc 1 52 5 is_stmt 1 view .LVU44
  53:lvgl/lvgl/src/core/lv_obj_style_gen.c ****         .num = (int32_t)value
  54:lvgl/lvgl/src/core/lv_obj_style_gen.c ****     };
  55:lvgl/lvgl/src/core/lv_obj_style_gen.c ****     lv_obj_set_local_style_prop(obj, LV_STYLE_X, v, selector);
 264              		.loc 1 55 5 view .LVU45
 265 0004 0A46     		mov	r2, r1
 266              	.LVL25:
 267              		.loc 1 55 5 is_stmt 0 view .LVU46
 268 0006 41F20701 		movw	r1, #4103
 269              	.LVL26:
 270              		.loc 1 55 5 view .LVU47
 271 000a FFF7FEFF 		bl	lv_obj_set_local_style_prop
 272              	.LVL27:
  56:lvgl/lvgl/src/core/lv_obj_style_gen.c **** }
 273              		.loc 1 56 1 view .LVU48
 274 000e 08BD     		pop	{r3, pc}
 275              		.cfi_endproc
 276              	.LFE158:
 278              		.section	.text.lv_obj_set_style_y,"ax",%progbits
 279              		.align	1
 280              		.global	lv_obj_set_style_y
 281              		.syntax unified
 282              		.thumb
 283              		.thumb_func
 284              		.fpu fpv4-sp-d16
 286              	lv_obj_set_style_y:
 287              	.LVL28:
 288              	.LFB159:
  57:lvgl/lvgl/src/core/lv_obj_style_gen.c **** 
  58:lvgl/lvgl/src/core/lv_obj_style_gen.c **** void lv_obj_set_style_y(struct _lv_obj_t * obj, lv_coord_t value, lv_style_selector_t selector)
  59:lvgl/lvgl/src/core/lv_obj_style_gen.c **** {
 289              		.loc 1 59 1 is_stmt 1 view -0
 290              		.cfi_startproc
 291              		@ args = 0, pretend = 0, frame = 0
 292              		@ frame_needed = 0, uses_anonymous_args = 0
 293              		.loc 1 59 1 is_stmt 0 view .LVU50
 294 0000 08B5     		push	{r3, lr}
 295              	.LCFI7:
 296              		.cfi_def_cfa_offset 8
 297              		.cfi_offset 3, -8
 298              		.cfi_offset 14, -4
ARM GAS  C:\Users\gx\AppData\Local\Temp\ccBEEQee.s 			page 7


 299 0002 1346     		mov	r3, r2
  60:lvgl/lvgl/src/core/lv_obj_style_gen.c ****     lv_style_value_t v = {
 300              		.loc 1 60 5 is_stmt 1 view .LVU51
  61:lvgl/lvgl/src/core/lv_obj_style_gen.c ****         .num = (int32_t)value
  62:lvgl/lvgl/src/core/lv_obj_style_gen.c ****     };
  63:lvgl/lvgl/src/core/lv_obj_style_gen.c ****     lv_obj_set_local_style_prop(obj, LV_STYLE_Y, v, selector);
 301              		.loc 1 63 5 view .LVU52
 302 0004 0A46     		mov	r2, r1
 303              	.LVL29:
 304              		.loc 1 63 5 is_stmt 0 view .LVU53
 305 0006 41F20801 		movw	r1, #4104
 306              	.LVL30:
 307              		.loc 1 63 5 view .LVU54
 308 000a FFF7FEFF 		bl	lv_obj_set_local_style_prop
 309              	.LVL31:
  64:lvgl/lvgl/src/core/lv_obj_style_gen.c **** }
 310              		.loc 1 64 1 view .LVU55
 311 000e 08BD     		pop	{r3, pc}
 312              		.cfi_endproc
 313              	.LFE159:
 315              		.section	.text.lv_obj_set_style_align,"ax",%progbits
 316              		.align	1
 317              		.global	lv_obj_set_style_align
 318              		.syntax unified
 319              		.thumb
 320              		.thumb_func
 321              		.fpu fpv4-sp-d16
 323              	lv_obj_set_style_align:
 324              	.LVL32:
 325              	.LFB160:
  65:lvgl/lvgl/src/core/lv_obj_style_gen.c **** 
  66:lvgl/lvgl/src/core/lv_obj_style_gen.c **** void lv_obj_set_style_align(struct _lv_obj_t * obj, lv_align_t value, lv_style_selector_t selector)
  67:lvgl/lvgl/src/core/lv_obj_style_gen.c **** {
 326              		.loc 1 67 1 is_stmt 1 view -0
 327              		.cfi_startproc
 328              		@ args = 0, pretend = 0, frame = 0
 329              		@ frame_needed = 0, uses_anonymous_args = 0
 330              		.loc 1 67 1 is_stmt 0 view .LVU57
 331 0000 08B5     		push	{r3, lr}
 332              	.LCFI8:
 333              		.cfi_def_cfa_offset 8
 334              		.cfi_offset 3, -8
 335              		.cfi_offset 14, -4
 336 0002 1346     		mov	r3, r2
  68:lvgl/lvgl/src/core/lv_obj_style_gen.c ****     lv_style_value_t v = {
 337              		.loc 1 68 5 is_stmt 1 view .LVU58
  69:lvgl/lvgl/src/core/lv_obj_style_gen.c ****         .num = (int32_t)value
  70:lvgl/lvgl/src/core/lv_obj_style_gen.c ****     };
  71:lvgl/lvgl/src/core/lv_obj_style_gen.c ****     lv_obj_set_local_style_prop(obj, LV_STYLE_ALIGN, v, selector);
 338              		.loc 1 71 5 view .LVU59
 339 0004 0A46     		mov	r2, r1
 340              	.LVL33:
 341              		.loc 1 71 5 is_stmt 0 view .LVU60
 342 0006 41F20901 		movw	r1, #4105
 343              	.LVL34:
 344              		.loc 1 71 5 view .LVU61
 345 000a FFF7FEFF 		bl	lv_obj_set_local_style_prop
ARM GAS  C:\Users\gx\AppData\Local\Temp\ccBEEQee.s 			page 8


 346              	.LVL35:
  72:lvgl/lvgl/src/core/lv_obj_style_gen.c **** }
 347              		.loc 1 72 1 view .LVU62
 348 000e 08BD     		pop	{r3, pc}
 349              		.cfi_endproc
 350              	.LFE160:
 352              		.section	.text.lv_obj_set_style_transform_width,"ax",%progbits
 353              		.align	1
 354              		.global	lv_obj_set_style_transform_width
 355              		.syntax unified
 356              		.thumb
 357              		.thumb_func
 358              		.fpu fpv4-sp-d16
 360              	lv_obj_set_style_transform_width:
 361              	.LVL36:
 362              	.LFB161:
  73:lvgl/lvgl/src/core/lv_obj_style_gen.c **** 
  74:lvgl/lvgl/src/core/lv_obj_style_gen.c **** void lv_obj_set_style_transform_width(struct _lv_obj_t * obj, lv_coord_t value, lv_style_selector_t
  75:lvgl/lvgl/src/core/lv_obj_style_gen.c **** {
 363              		.loc 1 75 1 is_stmt 1 view -0
 364              		.cfi_startproc
 365              		@ args = 0, pretend = 0, frame = 0
 366              		@ frame_needed = 0, uses_anonymous_args = 0
 367              		.loc 1 75 1 is_stmt 0 view .LVU64
 368 0000 08B5     		push	{r3, lr}
 369              	.LCFI9:
 370              		.cfi_def_cfa_offset 8
 371              		.cfi_offset 3, -8
 372              		.cfi_offset 14, -4
 373 0002 1346     		mov	r3, r2
  76:lvgl/lvgl/src/core/lv_obj_style_gen.c ****     lv_style_value_t v = {
 374              		.loc 1 76 5 is_stmt 1 view .LVU65
  77:lvgl/lvgl/src/core/lv_obj_style_gen.c ****         .num = (int32_t)value
  78:lvgl/lvgl/src/core/lv_obj_style_gen.c ****     };
  79:lvgl/lvgl/src/core/lv_obj_style_gen.c ****     lv_obj_set_local_style_prop(obj, LV_STYLE_TRANSFORM_WIDTH, v, selector);
 375              		.loc 1 79 5 view .LVU66
 376 0004 0A46     		mov	r2, r1
 377              	.LVL37:
 378              		.loc 1 79 5 is_stmt 0 view .LVU67
 379 0006 40F60A01 		movw	r1, #2058
 380              	.LVL38:
 381              		.loc 1 79 5 view .LVU68
 382 000a FFF7FEFF 		bl	lv_obj_set_local_style_prop
 383              	.LVL39:
  80:lvgl/lvgl/src/core/lv_obj_style_gen.c **** }
 384              		.loc 1 80 1 view .LVU69
 385 000e 08BD     		pop	{r3, pc}
 386              		.cfi_endproc
 387              	.LFE161:
 389              		.section	.text.lv_obj_set_style_transform_height,"ax",%progbits
 390              		.align	1
 391              		.global	lv_obj_set_style_transform_height
 392              		.syntax unified
 393              		.thumb
 394              		.thumb_func
 395              		.fpu fpv4-sp-d16
 397              	lv_obj_set_style_transform_height:
ARM GAS  C:\Users\gx\AppData\Local\Temp\ccBEEQee.s 			page 9


 398              	.LVL40:
 399              	.LFB162:
  81:lvgl/lvgl/src/core/lv_obj_style_gen.c **** 
  82:lvgl/lvgl/src/core/lv_obj_style_gen.c **** void lv_obj_set_style_transform_height(struct _lv_obj_t * obj, lv_coord_t value, lv_style_selector_
  83:lvgl/lvgl/src/core/lv_obj_style_gen.c **** {
 400              		.loc 1 83 1 is_stmt 1 view -0
 401              		.cfi_startproc
 402              		@ args = 0, pretend = 0, frame = 0
 403              		@ frame_needed = 0, uses_anonymous_args = 0
 404              		.loc 1 83 1 is_stmt 0 view .LVU71
 405 0000 08B5     		push	{r3, lr}
 406              	.LCFI10:
 407              		.cfi_def_cfa_offset 8
 408              		.cfi_offset 3, -8
 409              		.cfi_offset 14, -4
 410 0002 1346     		mov	r3, r2
  84:lvgl/lvgl/src/core/lv_obj_style_gen.c ****     lv_style_value_t v = {
 411              		.loc 1 84 5 is_stmt 1 view .LVU72
  85:lvgl/lvgl/src/core/lv_obj_style_gen.c ****         .num = (int32_t)value
  86:lvgl/lvgl/src/core/lv_obj_style_gen.c ****     };
  87:lvgl/lvgl/src/core/lv_obj_style_gen.c ****     lv_obj_set_local_style_prop(obj, LV_STYLE_TRANSFORM_HEIGHT, v, selector);
 412              		.loc 1 87 5 view .LVU73
 413 0004 0A46     		mov	r2, r1
 414              	.LVL41:
 415              		.loc 1 87 5 is_stmt 0 view .LVU74
 416 0006 40F60B01 		movw	r1, #2059
 417              	.LVL42:
 418              		.loc 1 87 5 view .LVU75
 419 000a FFF7FEFF 		bl	lv_obj_set_local_style_prop
 420              	.LVL43:
  88:lvgl/lvgl/src/core/lv_obj_style_gen.c **** }
 421              		.loc 1 88 1 view .LVU76
 422 000e 08BD     		pop	{r3, pc}
 423              		.cfi_endproc
 424              	.LFE162:
 426              		.section	.text.lv_obj_set_style_translate_x,"ax",%progbits
 427              		.align	1
 428              		.global	lv_obj_set_style_translate_x
 429              		.syntax unified
 430              		.thumb
 431              		.thumb_func
 432              		.fpu fpv4-sp-d16
 434              	lv_obj_set_style_translate_x:
 435              	.LVL44:
 436              	.LFB163:
  89:lvgl/lvgl/src/core/lv_obj_style_gen.c **** 
  90:lvgl/lvgl/src/core/lv_obj_style_gen.c **** void lv_obj_set_style_translate_x(struct _lv_obj_t * obj, lv_coord_t value, lv_style_selector_t sel
  91:lvgl/lvgl/src/core/lv_obj_style_gen.c **** {
 437              		.loc 1 91 1 is_stmt 1 view -0
 438              		.cfi_startproc
 439              		@ args = 0, pretend = 0, frame = 0
 440              		@ frame_needed = 0, uses_anonymous_args = 0
 441              		.loc 1 91 1 is_stmt 0 view .LVU78
 442 0000 08B5     		push	{r3, lr}
 443              	.LCFI11:
 444              		.cfi_def_cfa_offset 8
 445              		.cfi_offset 3, -8
ARM GAS  C:\Users\gx\AppData\Local\Temp\ccBEEQee.s 			page 10


 446              		.cfi_offset 14, -4
 447 0002 1346     		mov	r3, r2
  92:lvgl/lvgl/src/core/lv_obj_style_gen.c ****     lv_style_value_t v = {
 448              		.loc 1 92 5 is_stmt 1 view .LVU79
  93:lvgl/lvgl/src/core/lv_obj_style_gen.c ****         .num = (int32_t)value
  94:lvgl/lvgl/src/core/lv_obj_style_gen.c ****     };
  95:lvgl/lvgl/src/core/lv_obj_style_gen.c ****     lv_obj_set_local_style_prop(obj, LV_STYLE_TRANSLATE_X, v, selector);
 449              		.loc 1 95 5 view .LVU80
 450 0004 0A46     		mov	r2, r1
 451              	.LVL45:
 452              		.loc 1 95 5 is_stmt 0 view .LVU81
 453 0006 43F20C01 		movw	r1, #12300
 454              	.LVL46:
 455              		.loc 1 95 5 view .LVU82
 456 000a FFF7FEFF 		bl	lv_obj_set_local_style_prop
 457              	.LVL47:
  96:lvgl/lvgl/src/core/lv_obj_style_gen.c **** }
 458              		.loc 1 96 1 view .LVU83
 459 000e 08BD     		pop	{r3, pc}
 460              		.cfi_endproc
 461              	.LFE163:
 463              		.section	.text.lv_obj_set_style_translate_y,"ax",%progbits
 464              		.align	1
 465              		.global	lv_obj_set_style_translate_y
 466              		.syntax unified
 467              		.thumb
 468              		.thumb_func
 469              		.fpu fpv4-sp-d16
 471              	lv_obj_set_style_translate_y:
 472              	.LVL48:
 473              	.LFB164:
  97:lvgl/lvgl/src/core/lv_obj_style_gen.c **** 
  98:lvgl/lvgl/src/core/lv_obj_style_gen.c **** void lv_obj_set_style_translate_y(struct _lv_obj_t * obj, lv_coord_t value, lv_style_selector_t sel
  99:lvgl/lvgl/src/core/lv_obj_style_gen.c **** {
 474              		.loc 1 99 1 is_stmt 1 view -0
 475              		.cfi_startproc
 476              		@ args = 0, pretend = 0, frame = 0
 477              		@ frame_needed = 0, uses_anonymous_args = 0
 478              		.loc 1 99 1 is_stmt 0 view .LVU85
 479 0000 08B5     		push	{r3, lr}
 480              	.LCFI12:
 481              		.cfi_def_cfa_offset 8
 482              		.cfi_offset 3, -8
 483              		.cfi_offset 14, -4
 484 0002 1346     		mov	r3, r2
 100:lvgl/lvgl/src/core/lv_obj_style_gen.c ****     lv_style_value_t v = {
 485              		.loc 1 100 5 is_stmt 1 view .LVU86
 101:lvgl/lvgl/src/core/lv_obj_style_gen.c ****         .num = (int32_t)value
 102:lvgl/lvgl/src/core/lv_obj_style_gen.c ****     };
 103:lvgl/lvgl/src/core/lv_obj_style_gen.c ****     lv_obj_set_local_style_prop(obj, LV_STYLE_TRANSLATE_Y, v, selector);
 486              		.loc 1 103 5 view .LVU87
 487 0004 0A46     		mov	r2, r1
 488              	.LVL49:
 489              		.loc 1 103 5 is_stmt 0 view .LVU88
 490 0006 43F20D01 		movw	r1, #12301
 491              	.LVL50:
 492              		.loc 1 103 5 view .LVU89
ARM GAS  C:\Users\gx\AppData\Local\Temp\ccBEEQee.s 			page 11


 493 000a FFF7FEFF 		bl	lv_obj_set_local_style_prop
 494              	.LVL51:
 104:lvgl/lvgl/src/core/lv_obj_style_gen.c **** }
 495              		.loc 1 104 1 view .LVU90
 496 000e 08BD     		pop	{r3, pc}
 497              		.cfi_endproc
 498              	.LFE164:
 500              		.section	.text.lv_obj_set_style_transform_zoom,"ax",%progbits
 501              		.align	1
 502              		.global	lv_obj_set_style_transform_zoom
 503              		.syntax unified
 504              		.thumb
 505              		.thumb_func
 506              		.fpu fpv4-sp-d16
 508              	lv_obj_set_style_transform_zoom:
 509              	.LVL52:
 510              	.LFB165:
 105:lvgl/lvgl/src/core/lv_obj_style_gen.c **** 
 106:lvgl/lvgl/src/core/lv_obj_style_gen.c **** void lv_obj_set_style_transform_zoom(struct _lv_obj_t * obj, lv_coord_t value, lv_style_selector_t 
 107:lvgl/lvgl/src/core/lv_obj_style_gen.c **** {
 511              		.loc 1 107 1 is_stmt 1 view -0
 512              		.cfi_startproc
 513              		@ args = 0, pretend = 0, frame = 0
 514              		@ frame_needed = 0, uses_anonymous_args = 0
 515              		.loc 1 107 1 is_stmt 0 view .LVU92
 516 0000 08B5     		push	{r3, lr}
 517              	.LCFI13:
 518              		.cfi_def_cfa_offset 8
 519              		.cfi_offset 3, -8
 520              		.cfi_offset 14, -4
 521 0002 1346     		mov	r3, r2
 108:lvgl/lvgl/src/core/lv_obj_style_gen.c ****     lv_style_value_t v = {
 522              		.loc 1 108 5 is_stmt 1 view .LVU93
 109:lvgl/lvgl/src/core/lv_obj_style_gen.c ****         .num = (int32_t)value
 110:lvgl/lvgl/src/core/lv_obj_style_gen.c ****     };
 111:lvgl/lvgl/src/core/lv_obj_style_gen.c ****     lv_obj_set_local_style_prop(obj, LV_STYLE_TRANSFORM_ZOOM, v, selector);
 523              		.loc 1 111 5 view .LVU94
 524 0004 0A46     		mov	r2, r1
 525              	.LVL53:
 526              		.loc 1 111 5 is_stmt 0 view .LVU95
 527 0006 43F60E01 		movw	r1, #14350
 528              	.LVL54:
 529              		.loc 1 111 5 view .LVU96
 530 000a FFF7FEFF 		bl	lv_obj_set_local_style_prop
 531              	.LVL55:
 112:lvgl/lvgl/src/core/lv_obj_style_gen.c **** }
 532              		.loc 1 112 1 view .LVU97
 533 000e 08BD     		pop	{r3, pc}
 534              		.cfi_endproc
 535              	.LFE165:
 537              		.section	.text.lv_obj_set_style_transform_angle,"ax",%progbits
 538              		.align	1
 539              		.global	lv_obj_set_style_transform_angle
 540              		.syntax unified
 541              		.thumb
 542              		.thumb_func
 543              		.fpu fpv4-sp-d16
ARM GAS  C:\Users\gx\AppData\Local\Temp\ccBEEQee.s 			page 12


 545              	lv_obj_set_style_transform_angle:
 546              	.LVL56:
 547              	.LFB166:
 113:lvgl/lvgl/src/core/lv_obj_style_gen.c **** 
 114:lvgl/lvgl/src/core/lv_obj_style_gen.c **** void lv_obj_set_style_transform_angle(struct _lv_obj_t * obj, lv_coord_t value, lv_style_selector_t
 115:lvgl/lvgl/src/core/lv_obj_style_gen.c **** {
 548              		.loc 1 115 1 is_stmt 1 view -0
 549              		.cfi_startproc
 550              		@ args = 0, pretend = 0, frame = 0
 551              		@ frame_needed = 0, uses_anonymous_args = 0
 552              		.loc 1 115 1 is_stmt 0 view .LVU99
 553 0000 08B5     		push	{r3, lr}
 554              	.LCFI14:
 555              		.cfi_def_cfa_offset 8
 556              		.cfi_offset 3, -8
 557              		.cfi_offset 14, -4
 558 0002 1346     		mov	r3, r2
 116:lvgl/lvgl/src/core/lv_obj_style_gen.c ****     lv_style_value_t v = {
 559              		.loc 1 116 5 is_stmt 1 view .LVU100
 117:lvgl/lvgl/src/core/lv_obj_style_gen.c ****         .num = (int32_t)value
 118:lvgl/lvgl/src/core/lv_obj_style_gen.c ****     };
 119:lvgl/lvgl/src/core/lv_obj_style_gen.c ****     lv_obj_set_local_style_prop(obj, LV_STYLE_TRANSFORM_ANGLE, v, selector);
 560              		.loc 1 119 5 view .LVU101
 561 0004 0A46     		mov	r2, r1
 562              	.LVL57:
 563              		.loc 1 119 5 is_stmt 0 view .LVU102
 564 0006 43F60F01 		movw	r1, #14351
 565              	.LVL58:
 566              		.loc 1 119 5 view .LVU103
 567 000a FFF7FEFF 		bl	lv_obj_set_local_style_prop
 568              	.LVL59:
 120:lvgl/lvgl/src/core/lv_obj_style_gen.c **** }
 569              		.loc 1 120 1 view .LVU104
 570 000e 08BD     		pop	{r3, pc}
 571              		.cfi_endproc
 572              	.LFE166:
 574              		.section	.text.lv_obj_set_style_pad_top,"ax",%progbits
 575              		.align	1
 576              		.global	lv_obj_set_style_pad_top
 577              		.syntax unified
 578              		.thumb
 579              		.thumb_func
 580              		.fpu fpv4-sp-d16
 582              	lv_obj_set_style_pad_top:
 583              	.LVL60:
 584              	.LFB167:
 121:lvgl/lvgl/src/core/lv_obj_style_gen.c **** 
 122:lvgl/lvgl/src/core/lv_obj_style_gen.c **** void lv_obj_set_style_pad_top(struct _lv_obj_t * obj, lv_coord_t value, lv_style_selector_t selecto
 123:lvgl/lvgl/src/core/lv_obj_style_gen.c **** {
 585              		.loc 1 123 1 is_stmt 1 view -0
 586              		.cfi_startproc
 587              		@ args = 0, pretend = 0, frame = 0
 588              		@ frame_needed = 0, uses_anonymous_args = 0
 589              		.loc 1 123 1 is_stmt 0 view .LVU106
 590 0000 08B5     		push	{r3, lr}
 591              	.LCFI15:
 592              		.cfi_def_cfa_offset 8
ARM GAS  C:\Users\gx\AppData\Local\Temp\ccBEEQee.s 			page 13


 593              		.cfi_offset 3, -8
 594              		.cfi_offset 14, -4
 595 0002 1346     		mov	r3, r2
 124:lvgl/lvgl/src/core/lv_obj_style_gen.c ****     lv_style_value_t v = {
 596              		.loc 1 124 5 is_stmt 1 view .LVU107
 125:lvgl/lvgl/src/core/lv_obj_style_gen.c ****         .num = (int32_t)value
 126:lvgl/lvgl/src/core/lv_obj_style_gen.c ****     };
 127:lvgl/lvgl/src/core/lv_obj_style_gen.c ****     lv_obj_set_local_style_prop(obj, LV_STYLE_PAD_TOP, v, selector);
 597              		.loc 1 127 5 view .LVU108
 598 0004 0A46     		mov	r2, r1
 599              	.LVL61:
 600              		.loc 1 127 5 is_stmt 0 view .LVU109
 601 0006 41F21001 		movw	r1, #4112
 602              	.LVL62:
 603              		.loc 1 127 5 view .LVU110
 604 000a FFF7FEFF 		bl	lv_obj_set_local_style_prop
 605              	.LVL63:
 128:lvgl/lvgl/src/core/lv_obj_style_gen.c **** }
 606              		.loc 1 128 1 view .LVU111
 607 000e 08BD     		pop	{r3, pc}
 608              		.cfi_endproc
 609              	.LFE167:
 611              		.section	.text.lv_obj_set_style_pad_bottom,"ax",%progbits
 612              		.align	1
 613              		.global	lv_obj_set_style_pad_bottom
 614              		.syntax unified
 615              		.thumb
 616              		.thumb_func
 617              		.fpu fpv4-sp-d16
 619              	lv_obj_set_style_pad_bottom:
 620              	.LVL64:
 621              	.LFB168:
 129:lvgl/lvgl/src/core/lv_obj_style_gen.c **** 
 130:lvgl/lvgl/src/core/lv_obj_style_gen.c **** void lv_obj_set_style_pad_bottom(struct _lv_obj_t * obj, lv_coord_t value, lv_style_selector_t sele
 131:lvgl/lvgl/src/core/lv_obj_style_gen.c **** {
 622              		.loc 1 131 1 is_stmt 1 view -0
 623              		.cfi_startproc
 624              		@ args = 0, pretend = 0, frame = 0
 625              		@ frame_needed = 0, uses_anonymous_args = 0
 626              		.loc 1 131 1 is_stmt 0 view .LVU113
 627 0000 08B5     		push	{r3, lr}
 628              	.LCFI16:
 629              		.cfi_def_cfa_offset 8
 630              		.cfi_offset 3, -8
 631              		.cfi_offset 14, -4
 632 0002 1346     		mov	r3, r2
 132:lvgl/lvgl/src/core/lv_obj_style_gen.c ****     lv_style_value_t v = {
 633              		.loc 1 132 5 is_stmt 1 view .LVU114
 133:lvgl/lvgl/src/core/lv_obj_style_gen.c ****         .num = (int32_t)value
 134:lvgl/lvgl/src/core/lv_obj_style_gen.c ****     };
 135:lvgl/lvgl/src/core/lv_obj_style_gen.c ****     lv_obj_set_local_style_prop(obj, LV_STYLE_PAD_BOTTOM, v, selector);
 634              		.loc 1 135 5 view .LVU115
 635 0004 0A46     		mov	r2, r1
 636              	.LVL65:
 637              		.loc 1 135 5 is_stmt 0 view .LVU116
 638 0006 41F21101 		movw	r1, #4113
 639              	.LVL66:
ARM GAS  C:\Users\gx\AppData\Local\Temp\ccBEEQee.s 			page 14


 640              		.loc 1 135 5 view .LVU117
 641 000a FFF7FEFF 		bl	lv_obj_set_local_style_prop
 642              	.LVL67:
 136:lvgl/lvgl/src/core/lv_obj_style_gen.c **** }
 643              		.loc 1 136 1 view .LVU118
 644 000e 08BD     		pop	{r3, pc}
 645              		.cfi_endproc
 646              	.LFE168:
 648              		.section	.text.lv_obj_set_style_pad_left,"ax",%progbits
 649              		.align	1
 650              		.global	lv_obj_set_style_pad_left
 651              		.syntax unified
 652              		.thumb
 653              		.thumb_func
 654              		.fpu fpv4-sp-d16
 656              	lv_obj_set_style_pad_left:
 657              	.LVL68:
 658              	.LFB169:
 137:lvgl/lvgl/src/core/lv_obj_style_gen.c **** 
 138:lvgl/lvgl/src/core/lv_obj_style_gen.c **** void lv_obj_set_style_pad_left(struct _lv_obj_t * obj, lv_coord_t value, lv_style_selector_t select
 139:lvgl/lvgl/src/core/lv_obj_style_gen.c **** {
 659              		.loc 1 139 1 is_stmt 1 view -0
 660              		.cfi_startproc
 661              		@ args = 0, pretend = 0, frame = 0
 662              		@ frame_needed = 0, uses_anonymous_args = 0
 663              		.loc 1 139 1 is_stmt 0 view .LVU120
 664 0000 08B5     		push	{r3, lr}
 665              	.LCFI17:
 666              		.cfi_def_cfa_offset 8
 667              		.cfi_offset 3, -8
 668              		.cfi_offset 14, -4
 669 0002 1346     		mov	r3, r2
 140:lvgl/lvgl/src/core/lv_obj_style_gen.c ****     lv_style_value_t v = {
 670              		.loc 1 140 5 is_stmt 1 view .LVU121
 141:lvgl/lvgl/src/core/lv_obj_style_gen.c ****         .num = (int32_t)value
 142:lvgl/lvgl/src/core/lv_obj_style_gen.c ****     };
 143:lvgl/lvgl/src/core/lv_obj_style_gen.c ****     lv_obj_set_local_style_prop(obj, LV_STYLE_PAD_LEFT, v, selector);
 671              		.loc 1 143 5 view .LVU122
 672 0004 0A46     		mov	r2, r1
 673              	.LVL69:
 674              		.loc 1 143 5 is_stmt 0 view .LVU123
 675 0006 41F21201 		movw	r1, #4114
 676              	.LVL70:
 677              		.loc 1 143 5 view .LVU124
 678 000a FFF7FEFF 		bl	lv_obj_set_local_style_prop
 679              	.LVL71:
 144:lvgl/lvgl/src/core/lv_obj_style_gen.c **** }
 680              		.loc 1 144 1 view .LVU125
 681 000e 08BD     		pop	{r3, pc}
 682              		.cfi_endproc
 683              	.LFE169:
 685              		.section	.text.lv_obj_set_style_pad_right,"ax",%progbits
 686              		.align	1
 687              		.global	lv_obj_set_style_pad_right
 688              		.syntax unified
 689              		.thumb
 690              		.thumb_func
ARM GAS  C:\Users\gx\AppData\Local\Temp\ccBEEQee.s 			page 15


 691              		.fpu fpv4-sp-d16
 693              	lv_obj_set_style_pad_right:
 694              	.LVL72:
 695              	.LFB170:
 145:lvgl/lvgl/src/core/lv_obj_style_gen.c **** 
 146:lvgl/lvgl/src/core/lv_obj_style_gen.c **** void lv_obj_set_style_pad_right(struct _lv_obj_t * obj, lv_coord_t value, lv_style_selector_t selec
 147:lvgl/lvgl/src/core/lv_obj_style_gen.c **** {
 696              		.loc 1 147 1 is_stmt 1 view -0
 697              		.cfi_startproc
 698              		@ args = 0, pretend = 0, frame = 0
 699              		@ frame_needed = 0, uses_anonymous_args = 0
 700              		.loc 1 147 1 is_stmt 0 view .LVU127
 701 0000 08B5     		push	{r3, lr}
 702              	.LCFI18:
 703              		.cfi_def_cfa_offset 8
 704              		.cfi_offset 3, -8
 705              		.cfi_offset 14, -4
 706 0002 1346     		mov	r3, r2
 148:lvgl/lvgl/src/core/lv_obj_style_gen.c ****     lv_style_value_t v = {
 707              		.loc 1 148 5 is_stmt 1 view .LVU128
 149:lvgl/lvgl/src/core/lv_obj_style_gen.c ****         .num = (int32_t)value
 150:lvgl/lvgl/src/core/lv_obj_style_gen.c ****     };
 151:lvgl/lvgl/src/core/lv_obj_style_gen.c ****     lv_obj_set_local_style_prop(obj, LV_STYLE_PAD_RIGHT, v, selector);
 708              		.loc 1 151 5 view .LVU129
 709 0004 0A46     		mov	r2, r1
 710              	.LVL73:
 711              		.loc 1 151 5 is_stmt 0 view .LVU130
 712 0006 41F21301 		movw	r1, #4115
 713              	.LVL74:
 714              		.loc 1 151 5 view .LVU131
 715 000a FFF7FEFF 		bl	lv_obj_set_local_style_prop
 716              	.LVL75:
 152:lvgl/lvgl/src/core/lv_obj_style_gen.c **** }
 717              		.loc 1 152 1 view .LVU132
 718 000e 08BD     		pop	{r3, pc}
 719              		.cfi_endproc
 720              	.LFE170:
 722              		.section	.text.lv_obj_set_style_pad_row,"ax",%progbits
 723              		.align	1
 724              		.global	lv_obj_set_style_pad_row
 725              		.syntax unified
 726              		.thumb
 727              		.thumb_func
 728              		.fpu fpv4-sp-d16
 730              	lv_obj_set_style_pad_row:
 731              	.LVL76:
 732              	.LFB171:
 153:lvgl/lvgl/src/core/lv_obj_style_gen.c **** 
 154:lvgl/lvgl/src/core/lv_obj_style_gen.c **** void lv_obj_set_style_pad_row(struct _lv_obj_t * obj, lv_coord_t value, lv_style_selector_t selecto
 155:lvgl/lvgl/src/core/lv_obj_style_gen.c **** {
 733              		.loc 1 155 1 is_stmt 1 view -0
 734              		.cfi_startproc
 735              		@ args = 0, pretend = 0, frame = 0
 736              		@ frame_needed = 0, uses_anonymous_args = 0
 737              		.loc 1 155 1 is_stmt 0 view .LVU134
 738 0000 08B5     		push	{r3, lr}
 739              	.LCFI19:
ARM GAS  C:\Users\gx\AppData\Local\Temp\ccBEEQee.s 			page 16


 740              		.cfi_def_cfa_offset 8
 741              		.cfi_offset 3, -8
 742              		.cfi_offset 14, -4
 743 0002 1346     		mov	r3, r2
 156:lvgl/lvgl/src/core/lv_obj_style_gen.c ****     lv_style_value_t v = {
 744              		.loc 1 156 5 is_stmt 1 view .LVU135
 157:lvgl/lvgl/src/core/lv_obj_style_gen.c ****         .num = (int32_t)value
 158:lvgl/lvgl/src/core/lv_obj_style_gen.c ****     };
 159:lvgl/lvgl/src/core/lv_obj_style_gen.c ****     lv_obj_set_local_style_prop(obj, LV_STYLE_PAD_ROW, v, selector);
 745              		.loc 1 159 5 view .LVU136
 746 0004 0A46     		mov	r2, r1
 747              	.LVL77:
 748              		.loc 1 159 5 is_stmt 0 view .LVU137
 749 0006 41F21401 		movw	r1, #4116
 750              	.LVL78:
 751              		.loc 1 159 5 view .LVU138
 752 000a FFF7FEFF 		bl	lv_obj_set_local_style_prop
 753              	.LVL79:
 160:lvgl/lvgl/src/core/lv_obj_style_gen.c **** }
 754              		.loc 1 160 1 view .LVU139
 755 000e 08BD     		pop	{r3, pc}
 756              		.cfi_endproc
 757              	.LFE171:
 759              		.section	.text.lv_obj_set_style_pad_column,"ax",%progbits
 760              		.align	1
 761              		.global	lv_obj_set_style_pad_column
 762              		.syntax unified
 763              		.thumb
 764              		.thumb_func
 765              		.fpu fpv4-sp-d16
 767              	lv_obj_set_style_pad_column:
 768              	.LVL80:
 769              	.LFB172:
 161:lvgl/lvgl/src/core/lv_obj_style_gen.c **** 
 162:lvgl/lvgl/src/core/lv_obj_style_gen.c **** void lv_obj_set_style_pad_column(struct _lv_obj_t * obj, lv_coord_t value, lv_style_selector_t sele
 163:lvgl/lvgl/src/core/lv_obj_style_gen.c **** {
 770              		.loc 1 163 1 is_stmt 1 view -0
 771              		.cfi_startproc
 772              		@ args = 0, pretend = 0, frame = 0
 773              		@ frame_needed = 0, uses_anonymous_args = 0
 774              		.loc 1 163 1 is_stmt 0 view .LVU141
 775 0000 08B5     		push	{r3, lr}
 776              	.LCFI20:
 777              		.cfi_def_cfa_offset 8
 778              		.cfi_offset 3, -8
 779              		.cfi_offset 14, -4
 780 0002 1346     		mov	r3, r2
 164:lvgl/lvgl/src/core/lv_obj_style_gen.c ****     lv_style_value_t v = {
 781              		.loc 1 164 5 is_stmt 1 view .LVU142
 165:lvgl/lvgl/src/core/lv_obj_style_gen.c ****         .num = (int32_t)value
 166:lvgl/lvgl/src/core/lv_obj_style_gen.c ****     };
 167:lvgl/lvgl/src/core/lv_obj_style_gen.c ****     lv_obj_set_local_style_prop(obj, LV_STYLE_PAD_COLUMN, v, selector);
 782              		.loc 1 167 5 view .LVU143
 783 0004 0A46     		mov	r2, r1
 784              	.LVL81:
 785              		.loc 1 167 5 is_stmt 0 view .LVU144
 786 0006 41F21501 		movw	r1, #4117
ARM GAS  C:\Users\gx\AppData\Local\Temp\ccBEEQee.s 			page 17


 787              	.LVL82:
 788              		.loc 1 167 5 view .LVU145
 789 000a FFF7FEFF 		bl	lv_obj_set_local_style_prop
 790              	.LVL83:
 168:lvgl/lvgl/src/core/lv_obj_style_gen.c **** }
 791              		.loc 1 168 1 view .LVU146
 792 000e 08BD     		pop	{r3, pc}
 793              		.cfi_endproc
 794              	.LFE172:
 796              		.section	.text.lv_obj_set_style_radius,"ax",%progbits
 797              		.align	1
 798              		.global	lv_obj_set_style_radius
 799              		.syntax unified
 800              		.thumb
 801              		.thumb_func
 802              		.fpu fpv4-sp-d16
 804              	lv_obj_set_style_radius:
 805              	.LVL84:
 806              	.LFB173:
 169:lvgl/lvgl/src/core/lv_obj_style_gen.c **** 
 170:lvgl/lvgl/src/core/lv_obj_style_gen.c **** void lv_obj_set_style_radius(struct _lv_obj_t * obj, lv_coord_t value, lv_style_selector_t selector
 171:lvgl/lvgl/src/core/lv_obj_style_gen.c **** {
 807              		.loc 1 171 1 is_stmt 1 view -0
 808              		.cfi_startproc
 809              		@ args = 0, pretend = 0, frame = 0
 810              		@ frame_needed = 0, uses_anonymous_args = 0
 811              		.loc 1 171 1 is_stmt 0 view .LVU148
 812 0000 08B5     		push	{r3, lr}
 813              	.LCFI21:
 814              		.cfi_def_cfa_offset 8
 815              		.cfi_offset 3, -8
 816              		.cfi_offset 14, -4
 817 0002 1346     		mov	r3, r2
 172:lvgl/lvgl/src/core/lv_obj_style_gen.c ****     lv_style_value_t v = {
 818              		.loc 1 172 5 is_stmt 1 view .LVU149
 173:lvgl/lvgl/src/core/lv_obj_style_gen.c ****         .num = (int32_t)value
 174:lvgl/lvgl/src/core/lv_obj_style_gen.c ****     };
 175:lvgl/lvgl/src/core/lv_obj_style_gen.c ****     lv_obj_set_local_style_prop(obj, LV_STYLE_RADIUS, v, selector);
 819              		.loc 1 175 5 view .LVU150
 820 0004 0A46     		mov	r2, r1
 821              	.LVL85:
 822              		.loc 1 175 5 is_stmt 0 view .LVU151
 823 0006 6021     		movs	r1, #96
 824              	.LVL86:
 825              		.loc 1 175 5 view .LVU152
 826 0008 FFF7FEFF 		bl	lv_obj_set_local_style_prop
 827              	.LVL87:
 176:lvgl/lvgl/src/core/lv_obj_style_gen.c **** }
 828              		.loc 1 176 1 view .LVU153
 829 000c 08BD     		pop	{r3, pc}
 830              		.cfi_endproc
 831              	.LFE173:
 833              		.section	.text.lv_obj_set_style_clip_corner,"ax",%progbits
 834              		.align	1
 835              		.global	lv_obj_set_style_clip_corner
 836              		.syntax unified
 837              		.thumb
ARM GAS  C:\Users\gx\AppData\Local\Temp\ccBEEQee.s 			page 18


 838              		.thumb_func
 839              		.fpu fpv4-sp-d16
 841              	lv_obj_set_style_clip_corner:
 842              	.LVL88:
 843              	.LFB174:
 177:lvgl/lvgl/src/core/lv_obj_style_gen.c **** 
 178:lvgl/lvgl/src/core/lv_obj_style_gen.c **** void lv_obj_set_style_clip_corner(struct _lv_obj_t * obj, bool value, lv_style_selector_t selector)
 179:lvgl/lvgl/src/core/lv_obj_style_gen.c **** {
 844              		.loc 1 179 1 is_stmt 1 view -0
 845              		.cfi_startproc
 846              		@ args = 0, pretend = 0, frame = 0
 847              		@ frame_needed = 0, uses_anonymous_args = 0
 848              		.loc 1 179 1 is_stmt 0 view .LVU155
 849 0000 08B5     		push	{r3, lr}
 850              	.LCFI22:
 851              		.cfi_def_cfa_offset 8
 852              		.cfi_offset 3, -8
 853              		.cfi_offset 14, -4
 854 0002 1346     		mov	r3, r2
 180:lvgl/lvgl/src/core/lv_obj_style_gen.c ****     lv_style_value_t v = {
 855              		.loc 1 180 5 is_stmt 1 view .LVU156
 181:lvgl/lvgl/src/core/lv_obj_style_gen.c ****         .num = (int32_t)value
 182:lvgl/lvgl/src/core/lv_obj_style_gen.c ****     };
 183:lvgl/lvgl/src/core/lv_obj_style_gen.c ****     lv_obj_set_local_style_prop(obj, LV_STYLE_CLIP_CORNER, v, selector);
 856              		.loc 1 183 5 view .LVU157
 857 0004 0A46     		mov	r2, r1
 858              	.LVL89:
 859              		.loc 1 183 5 is_stmt 0 view .LVU158
 860 0006 6121     		movs	r1, #97
 861              	.LVL90:
 862              		.loc 1 183 5 view .LVU159
 863 0008 FFF7FEFF 		bl	lv_obj_set_local_style_prop
 864              	.LVL91:
 184:lvgl/lvgl/src/core/lv_obj_style_gen.c **** }
 865              		.loc 1 184 1 view .LVU160
 866 000c 08BD     		pop	{r3, pc}
 867              		.cfi_endproc
 868              	.LFE174:
 870              		.section	.text.lv_obj_set_style_opa,"ax",%progbits
 871              		.align	1
 872              		.global	lv_obj_set_style_opa
 873              		.syntax unified
 874              		.thumb
 875              		.thumb_func
 876              		.fpu fpv4-sp-d16
 878              	lv_obj_set_style_opa:
 879              	.LVL92:
 880              	.LFB175:
 185:lvgl/lvgl/src/core/lv_obj_style_gen.c **** 
 186:lvgl/lvgl/src/core/lv_obj_style_gen.c **** void lv_obj_set_style_opa(struct _lv_obj_t * obj, lv_opa_t value, lv_style_selector_t selector)
 187:lvgl/lvgl/src/core/lv_obj_style_gen.c **** {
 881              		.loc 1 187 1 is_stmt 1 view -0
 882              		.cfi_startproc
 883              		@ args = 0, pretend = 0, frame = 0
 884              		@ frame_needed = 0, uses_anonymous_args = 0
 885              		.loc 1 187 1 is_stmt 0 view .LVU162
 886 0000 08B5     		push	{r3, lr}
ARM GAS  C:\Users\gx\AppData\Local\Temp\ccBEEQee.s 			page 19


 887              	.LCFI23:
 888              		.cfi_def_cfa_offset 8
 889              		.cfi_offset 3, -8
 890              		.cfi_offset 14, -4
 891 0002 1346     		mov	r3, r2
 188:lvgl/lvgl/src/core/lv_obj_style_gen.c ****     lv_style_value_t v = {
 892              		.loc 1 188 5 is_stmt 1 view .LVU163
 189:lvgl/lvgl/src/core/lv_obj_style_gen.c ****         .num = (int32_t)value
 190:lvgl/lvgl/src/core/lv_obj_style_gen.c ****     };
 191:lvgl/lvgl/src/core/lv_obj_style_gen.c ****     lv_obj_set_local_style_prop(obj, LV_STYLE_OPA, v, selector);
 893              		.loc 1 191 5 view .LVU164
 894 0004 0A46     		mov	r2, r1
 895              	.LVL93:
 896              		.loc 1 191 5 is_stmt 0 view .LVU165
 897 0006 40F26241 		movw	r1, #1122
 898              	.LVL94:
 899              		.loc 1 191 5 view .LVU166
 900 000a FFF7FEFF 		bl	lv_obj_set_local_style_prop
 901              	.LVL95:
 192:lvgl/lvgl/src/core/lv_obj_style_gen.c **** }
 902              		.loc 1 192 1 view .LVU167
 903 000e 08BD     		pop	{r3, pc}
 904              		.cfi_endproc
 905              	.LFE175:
 907              		.section	.text.lv_obj_set_style_color_filter_dsc,"ax",%progbits
 908              		.align	1
 909              		.global	lv_obj_set_style_color_filter_dsc
 910              		.syntax unified
 911              		.thumb
 912              		.thumb_func
 913              		.fpu fpv4-sp-d16
 915              	lv_obj_set_style_color_filter_dsc:
 916              	.LVL96:
 917              	.LFB176:
 193:lvgl/lvgl/src/core/lv_obj_style_gen.c **** 
 194:lvgl/lvgl/src/core/lv_obj_style_gen.c **** void lv_obj_set_style_color_filter_dsc(struct _lv_obj_t * obj, const lv_color_filter_dsc_t * value,
 195:lvgl/lvgl/src/core/lv_obj_style_gen.c **** {
 918              		.loc 1 195 1 is_stmt 1 view -0
 919              		.cfi_startproc
 920              		@ args = 0, pretend = 0, frame = 0
 921              		@ frame_needed = 0, uses_anonymous_args = 0
 922              		.loc 1 195 1 is_stmt 0 view .LVU169
 923 0000 08B5     		push	{r3, lr}
 924              	.LCFI24:
 925              		.cfi_def_cfa_offset 8
 926              		.cfi_offset 3, -8
 927              		.cfi_offset 14, -4
 928 0002 1346     		mov	r3, r2
 196:lvgl/lvgl/src/core/lv_obj_style_gen.c ****     lv_style_value_t v = {
 929              		.loc 1 196 5 is_stmt 1 view .LVU170
 197:lvgl/lvgl/src/core/lv_obj_style_gen.c ****         .ptr = value
 198:lvgl/lvgl/src/core/lv_obj_style_gen.c ****     };
 199:lvgl/lvgl/src/core/lv_obj_style_gen.c ****     lv_obj_set_local_style_prop(obj, LV_STYLE_COLOR_FILTER_DSC, v, selector);
 930              		.loc 1 199 5 view .LVU171
 931 0004 0A46     		mov	r2, r1
 932              	.LVL97:
 933              		.loc 1 199 5 is_stmt 0 view .LVU172
ARM GAS  C:\Users\gx\AppData\Local\Temp\ccBEEQee.s 			page 20


 934 0006 6321     		movs	r1, #99
 935              	.LVL98:
 936              		.loc 1 199 5 view .LVU173
 937 0008 FFF7FEFF 		bl	lv_obj_set_local_style_prop
 938              	.LVL99:
 200:lvgl/lvgl/src/core/lv_obj_style_gen.c **** }
 939              		.loc 1 200 1 view .LVU174
 940 000c 08BD     		pop	{r3, pc}
 941              		.cfi_endproc
 942              	.LFE176:
 944              		.section	.text.lv_obj_set_style_color_filter_opa,"ax",%progbits
 945              		.align	1
 946              		.global	lv_obj_set_style_color_filter_opa
 947              		.syntax unified
 948              		.thumb
 949              		.thumb_func
 950              		.fpu fpv4-sp-d16
 952              	lv_obj_set_style_color_filter_opa:
 953              	.LVL100:
 954              	.LFB177:
 201:lvgl/lvgl/src/core/lv_obj_style_gen.c **** 
 202:lvgl/lvgl/src/core/lv_obj_style_gen.c **** void lv_obj_set_style_color_filter_opa(struct _lv_obj_t * obj, lv_opa_t value, lv_style_selector_t 
 203:lvgl/lvgl/src/core/lv_obj_style_gen.c **** {
 955              		.loc 1 203 1 is_stmt 1 view -0
 956              		.cfi_startproc
 957              		@ args = 0, pretend = 0, frame = 0
 958              		@ frame_needed = 0, uses_anonymous_args = 0
 959              		.loc 1 203 1 is_stmt 0 view .LVU176
 960 0000 08B5     		push	{r3, lr}
 961              	.LCFI25:
 962              		.cfi_def_cfa_offset 8
 963              		.cfi_offset 3, -8
 964              		.cfi_offset 14, -4
 965 0002 1346     		mov	r3, r2
 204:lvgl/lvgl/src/core/lv_obj_style_gen.c ****     lv_style_value_t v = {
 966              		.loc 1 204 5 is_stmt 1 view .LVU177
 205:lvgl/lvgl/src/core/lv_obj_style_gen.c ****         .num = (int32_t)value
 206:lvgl/lvgl/src/core/lv_obj_style_gen.c ****     };
 207:lvgl/lvgl/src/core/lv_obj_style_gen.c ****     lv_obj_set_local_style_prop(obj, LV_STYLE_COLOR_FILTER_OPA, v, selector);
 967              		.loc 1 207 5 view .LVU178
 968 0004 0A46     		mov	r2, r1
 969              	.LVL101:
 970              		.loc 1 207 5 is_stmt 0 view .LVU179
 971 0006 6421     		movs	r1, #100
 972              	.LVL102:
 973              		.loc 1 207 5 view .LVU180
 974 0008 FFF7FEFF 		bl	lv_obj_set_local_style_prop
 975              	.LVL103:
 208:lvgl/lvgl/src/core/lv_obj_style_gen.c **** }
 976              		.loc 1 208 1 view .LVU181
 977 000c 08BD     		pop	{r3, pc}
 978              		.cfi_endproc
 979              	.LFE177:
 981              		.section	.text.lv_obj_set_style_anim_time,"ax",%progbits
 982              		.align	1
 983              		.global	lv_obj_set_style_anim_time
 984              		.syntax unified
ARM GAS  C:\Users\gx\AppData\Local\Temp\ccBEEQee.s 			page 21


 985              		.thumb
 986              		.thumb_func
 987              		.fpu fpv4-sp-d16
 989              	lv_obj_set_style_anim_time:
 990              	.LVL104:
 991              	.LFB178:
 209:lvgl/lvgl/src/core/lv_obj_style_gen.c **** 
 210:lvgl/lvgl/src/core/lv_obj_style_gen.c **** void lv_obj_set_style_anim_time(struct _lv_obj_t * obj, uint32_t value, lv_style_selector_t selecto
 211:lvgl/lvgl/src/core/lv_obj_style_gen.c **** {
 992              		.loc 1 211 1 is_stmt 1 view -0
 993              		.cfi_startproc
 994              		@ args = 0, pretend = 0, frame = 0
 995              		@ frame_needed = 0, uses_anonymous_args = 0
 996              		.loc 1 211 1 is_stmt 0 view .LVU183
 997 0000 08B5     		push	{r3, lr}
 998              	.LCFI26:
 999              		.cfi_def_cfa_offset 8
 1000              		.cfi_offset 3, -8
 1001              		.cfi_offset 14, -4
 1002 0002 1346     		mov	r3, r2
 212:lvgl/lvgl/src/core/lv_obj_style_gen.c ****     lv_style_value_t v = {
 1003              		.loc 1 212 5 is_stmt 1 view .LVU184
 213:lvgl/lvgl/src/core/lv_obj_style_gen.c ****         .num = (int32_t)value
 214:lvgl/lvgl/src/core/lv_obj_style_gen.c ****     };
 215:lvgl/lvgl/src/core/lv_obj_style_gen.c ****     lv_obj_set_local_style_prop(obj, LV_STYLE_ANIM_TIME, v, selector);
 1004              		.loc 1 215 5 view .LVU185
 1005 0004 0A46     		mov	r2, r1
 1006              	.LVL105:
 1007              		.loc 1 215 5 is_stmt 0 view .LVU186
 1008 0006 6521     		movs	r1, #101
 1009              	.LVL106:
 1010              		.loc 1 215 5 view .LVU187
 1011 0008 FFF7FEFF 		bl	lv_obj_set_local_style_prop
 1012              	.LVL107:
 216:lvgl/lvgl/src/core/lv_obj_style_gen.c **** }
 1013              		.loc 1 216 1 view .LVU188
 1014 000c 08BD     		pop	{r3, pc}
 1015              		.cfi_endproc
 1016              	.LFE178:
 1018              		.section	.text.lv_obj_set_style_anim_speed,"ax",%progbits
 1019              		.align	1
 1020              		.global	lv_obj_set_style_anim_speed
 1021              		.syntax unified
 1022              		.thumb
 1023              		.thumb_func
 1024              		.fpu fpv4-sp-d16
 1026              	lv_obj_set_style_anim_speed:
 1027              	.LVL108:
 1028              	.LFB179:
 217:lvgl/lvgl/src/core/lv_obj_style_gen.c **** 
 218:lvgl/lvgl/src/core/lv_obj_style_gen.c **** void lv_obj_set_style_anim_speed(struct _lv_obj_t * obj, uint32_t value, lv_style_selector_t select
 219:lvgl/lvgl/src/core/lv_obj_style_gen.c **** {
 1029              		.loc 1 219 1 is_stmt 1 view -0
 1030              		.cfi_startproc
 1031              		@ args = 0, pretend = 0, frame = 0
 1032              		@ frame_needed = 0, uses_anonymous_args = 0
 1033              		.loc 1 219 1 is_stmt 0 view .LVU190
ARM GAS  C:\Users\gx\AppData\Local\Temp\ccBEEQee.s 			page 22


 1034 0000 08B5     		push	{r3, lr}
 1035              	.LCFI27:
 1036              		.cfi_def_cfa_offset 8
 1037              		.cfi_offset 3, -8
 1038              		.cfi_offset 14, -4
 1039 0002 1346     		mov	r3, r2
 220:lvgl/lvgl/src/core/lv_obj_style_gen.c ****     lv_style_value_t v = {
 1040              		.loc 1 220 5 is_stmt 1 view .LVU191
 221:lvgl/lvgl/src/core/lv_obj_style_gen.c ****         .num = (int32_t)value
 222:lvgl/lvgl/src/core/lv_obj_style_gen.c ****     };
 223:lvgl/lvgl/src/core/lv_obj_style_gen.c ****     lv_obj_set_local_style_prop(obj, LV_STYLE_ANIM_SPEED, v, selector);
 1041              		.loc 1 223 5 view .LVU192
 1042 0004 0A46     		mov	r2, r1
 1043              	.LVL109:
 1044              		.loc 1 223 5 is_stmt 0 view .LVU193
 1045 0006 6621     		movs	r1, #102
 1046              	.LVL110:
 1047              		.loc 1 223 5 view .LVU194
 1048 0008 FFF7FEFF 		bl	lv_obj_set_local_style_prop
 1049              	.LVL111:
 224:lvgl/lvgl/src/core/lv_obj_style_gen.c **** }
 1050              		.loc 1 224 1 view .LVU195
 1051 000c 08BD     		pop	{r3, pc}
 1052              		.cfi_endproc
 1053              	.LFE179:
 1055              		.section	.text.lv_obj_set_style_transition,"ax",%progbits
 1056              		.align	1
 1057              		.global	lv_obj_set_style_transition
 1058              		.syntax unified
 1059              		.thumb
 1060              		.thumb_func
 1061              		.fpu fpv4-sp-d16
 1063              	lv_obj_set_style_transition:
 1064              	.LVL112:
 1065              	.LFB180:
 225:lvgl/lvgl/src/core/lv_obj_style_gen.c **** 
 226:lvgl/lvgl/src/core/lv_obj_style_gen.c **** void lv_obj_set_style_transition(struct _lv_obj_t * obj, const lv_style_transition_dsc_t * value, l
 227:lvgl/lvgl/src/core/lv_obj_style_gen.c **** {
 1066              		.loc 1 227 1 is_stmt 1 view -0
 1067              		.cfi_startproc
 1068              		@ args = 0, pretend = 0, frame = 0
 1069              		@ frame_needed = 0, uses_anonymous_args = 0
 1070              		.loc 1 227 1 is_stmt 0 view .LVU197
 1071 0000 08B5     		push	{r3, lr}
 1072              	.LCFI28:
 1073              		.cfi_def_cfa_offset 8
 1074              		.cfi_offset 3, -8
 1075              		.cfi_offset 14, -4
 1076 0002 1346     		mov	r3, r2
 228:lvgl/lvgl/src/core/lv_obj_style_gen.c ****     lv_style_value_t v = {
 1077              		.loc 1 228 5 is_stmt 1 view .LVU198
 229:lvgl/lvgl/src/core/lv_obj_style_gen.c ****         .ptr = value
 230:lvgl/lvgl/src/core/lv_obj_style_gen.c ****     };
 231:lvgl/lvgl/src/core/lv_obj_style_gen.c ****     lv_obj_set_local_style_prop(obj, LV_STYLE_TRANSITION, v, selector);
 1078              		.loc 1 231 5 view .LVU199
 1079 0004 0A46     		mov	r2, r1
 1080              	.LVL113:
ARM GAS  C:\Users\gx\AppData\Local\Temp\ccBEEQee.s 			page 23


 1081              		.loc 1 231 5 is_stmt 0 view .LVU200
 1082 0006 6721     		movs	r1, #103
 1083              	.LVL114:
 1084              		.loc 1 231 5 view .LVU201
 1085 0008 FFF7FEFF 		bl	lv_obj_set_local_style_prop
 1086              	.LVL115:
 232:lvgl/lvgl/src/core/lv_obj_style_gen.c **** }
 1087              		.loc 1 232 1 view .LVU202
 1088 000c 08BD     		pop	{r3, pc}
 1089              		.cfi_endproc
 1090              	.LFE180:
 1092              		.section	.text.lv_obj_set_style_blend_mode,"ax",%progbits
 1093              		.align	1
 1094              		.global	lv_obj_set_style_blend_mode
 1095              		.syntax unified
 1096              		.thumb
 1097              		.thumb_func
 1098              		.fpu fpv4-sp-d16
 1100              	lv_obj_set_style_blend_mode:
 1101              	.LVL116:
 1102              	.LFB181:
 233:lvgl/lvgl/src/core/lv_obj_style_gen.c **** 
 234:lvgl/lvgl/src/core/lv_obj_style_gen.c **** void lv_obj_set_style_blend_mode(struct _lv_obj_t * obj, lv_blend_mode_t value, lv_style_selector_t
 235:lvgl/lvgl/src/core/lv_obj_style_gen.c **** {
 1103              		.loc 1 235 1 is_stmt 1 view -0
 1104              		.cfi_startproc
 1105              		@ args = 0, pretend = 0, frame = 0
 1106              		@ frame_needed = 0, uses_anonymous_args = 0
 1107              		.loc 1 235 1 is_stmt 0 view .LVU204
 1108 0000 08B5     		push	{r3, lr}
 1109              	.LCFI29:
 1110              		.cfi_def_cfa_offset 8
 1111              		.cfi_offset 3, -8
 1112              		.cfi_offset 14, -4
 1113 0002 1346     		mov	r3, r2
 236:lvgl/lvgl/src/core/lv_obj_style_gen.c ****     lv_style_value_t v = {
 1114              		.loc 1 236 5 is_stmt 1 view .LVU205
 237:lvgl/lvgl/src/core/lv_obj_style_gen.c ****         .num = (int32_t)value
 238:lvgl/lvgl/src/core/lv_obj_style_gen.c ****     };
 239:lvgl/lvgl/src/core/lv_obj_style_gen.c ****     lv_obj_set_local_style_prop(obj, LV_STYLE_BLEND_MODE, v, selector);
 1115              		.loc 1 239 5 view .LVU206
 1116 0004 0A46     		mov	r2, r1
 1117              	.LVL117:
 1118              		.loc 1 239 5 is_stmt 0 view .LVU207
 1119 0006 6821     		movs	r1, #104
 1120              	.LVL118:
 1121              		.loc 1 239 5 view .LVU208
 1122 0008 FFF7FEFF 		bl	lv_obj_set_local_style_prop
 1123              	.LVL119:
 240:lvgl/lvgl/src/core/lv_obj_style_gen.c **** }
 1124              		.loc 1 240 1 view .LVU209
 1125 000c 08BD     		pop	{r3, pc}
 1126              		.cfi_endproc
 1127              	.LFE181:
 1129              		.section	.text.lv_obj_set_style_layout,"ax",%progbits
 1130              		.align	1
 1131              		.global	lv_obj_set_style_layout
ARM GAS  C:\Users\gx\AppData\Local\Temp\ccBEEQee.s 			page 24


 1132              		.syntax unified
 1133              		.thumb
 1134              		.thumb_func
 1135              		.fpu fpv4-sp-d16
 1137              	lv_obj_set_style_layout:
 1138              	.LVL120:
 1139              	.LFB182:
 241:lvgl/lvgl/src/core/lv_obj_style_gen.c **** 
 242:lvgl/lvgl/src/core/lv_obj_style_gen.c **** void lv_obj_set_style_layout(struct _lv_obj_t * obj, uint16_t value, lv_style_selector_t selector)
 243:lvgl/lvgl/src/core/lv_obj_style_gen.c **** {
 1140              		.loc 1 243 1 is_stmt 1 view -0
 1141              		.cfi_startproc
 1142              		@ args = 0, pretend = 0, frame = 0
 1143              		@ frame_needed = 0, uses_anonymous_args = 0
 1144              		.loc 1 243 1 is_stmt 0 view .LVU211
 1145 0000 08B5     		push	{r3, lr}
 1146              	.LCFI30:
 1147              		.cfi_def_cfa_offset 8
 1148              		.cfi_offset 3, -8
 1149              		.cfi_offset 14, -4
 1150 0002 1346     		mov	r3, r2
 244:lvgl/lvgl/src/core/lv_obj_style_gen.c ****     lv_style_value_t v = {
 1151              		.loc 1 244 5 is_stmt 1 view .LVU212
 245:lvgl/lvgl/src/core/lv_obj_style_gen.c ****         .num = (int32_t)value
 246:lvgl/lvgl/src/core/lv_obj_style_gen.c ****     };
 247:lvgl/lvgl/src/core/lv_obj_style_gen.c ****     lv_obj_set_local_style_prop(obj, LV_STYLE_LAYOUT, v, selector);
 1152              		.loc 1 247 5 view .LVU213
 1153 0004 0A46     		mov	r2, r1
 1154              	.LVL121:
 1155              		.loc 1 247 5 is_stmt 0 view .LVU214
 1156 0006 41F26901 		movw	r1, #4201
 1157              	.LVL122:
 1158              		.loc 1 247 5 view .LVU215
 1159 000a FFF7FEFF 		bl	lv_obj_set_local_style_prop
 1160              	.LVL123:
 248:lvgl/lvgl/src/core/lv_obj_style_gen.c **** }
 1161              		.loc 1 248 1 view .LVU216
 1162 000e 08BD     		pop	{r3, pc}
 1163              		.cfi_endproc
 1164              	.LFE182:
 1166              		.section	.text.lv_obj_set_style_base_dir,"ax",%progbits
 1167              		.align	1
 1168              		.global	lv_obj_set_style_base_dir
 1169              		.syntax unified
 1170              		.thumb
 1171              		.thumb_func
 1172              		.fpu fpv4-sp-d16
 1174              	lv_obj_set_style_base_dir:
 1175              	.LVL124:
 1176              	.LFB183:
 249:lvgl/lvgl/src/core/lv_obj_style_gen.c **** 
 250:lvgl/lvgl/src/core/lv_obj_style_gen.c **** void lv_obj_set_style_base_dir(struct _lv_obj_t * obj, lv_base_dir_t value, lv_style_selector_t sel
 251:lvgl/lvgl/src/core/lv_obj_style_gen.c **** {
 1177              		.loc 1 251 1 is_stmt 1 view -0
 1178              		.cfi_startproc
 1179              		@ args = 0, pretend = 0, frame = 0
 1180              		@ frame_needed = 0, uses_anonymous_args = 0
ARM GAS  C:\Users\gx\AppData\Local\Temp\ccBEEQee.s 			page 25


 1181              		.loc 1 251 1 is_stmt 0 view .LVU218
 1182 0000 08B5     		push	{r3, lr}
 1183              	.LCFI31:
 1184              		.cfi_def_cfa_offset 8
 1185              		.cfi_offset 3, -8
 1186              		.cfi_offset 14, -4
 1187 0002 1346     		mov	r3, r2
 252:lvgl/lvgl/src/core/lv_obj_style_gen.c ****     lv_style_value_t v = {
 1188              		.loc 1 252 5 is_stmt 1 view .LVU219
 253:lvgl/lvgl/src/core/lv_obj_style_gen.c ****         .num = (int32_t)value
 254:lvgl/lvgl/src/core/lv_obj_style_gen.c ****     };
 255:lvgl/lvgl/src/core/lv_obj_style_gen.c ****     lv_obj_set_local_style_prop(obj, LV_STYLE_BASE_DIR, v, selector);
 1189              		.loc 1 255 5 view .LVU220
 1190 0004 0A46     		mov	r2, r1
 1191              	.LVL125:
 1192              		.loc 1 255 5 is_stmt 0 view .LVU221
 1193 0006 41F26A41 		movw	r1, #5226
 1194              	.LVL126:
 1195              		.loc 1 255 5 view .LVU222
 1196 000a FFF7FEFF 		bl	lv_obj_set_local_style_prop
 1197              	.LVL127:
 256:lvgl/lvgl/src/core/lv_obj_style_gen.c **** }
 1198              		.loc 1 256 1 view .LVU223
 1199 000e 08BD     		pop	{r3, pc}
 1200              		.cfi_endproc
 1201              	.LFE183:
 1203              		.section	.text.lv_obj_set_style_bg_color,"ax",%progbits
 1204              		.align	1
 1205              		.global	lv_obj_set_style_bg_color
 1206              		.syntax unified
 1207              		.thumb
 1208              		.thumb_func
 1209              		.fpu fpv4-sp-d16
 1211              	lv_obj_set_style_bg_color:
 1212              	.LVL128:
 1213              	.LFB184:
 257:lvgl/lvgl/src/core/lv_obj_style_gen.c **** 
 258:lvgl/lvgl/src/core/lv_obj_style_gen.c **** void lv_obj_set_style_bg_color(struct _lv_obj_t * obj, lv_color_t value, lv_style_selector_t select
 259:lvgl/lvgl/src/core/lv_obj_style_gen.c **** {
 1214              		.loc 1 259 1 is_stmt 1 view -0
 1215              		.cfi_startproc
 1216              		@ args = 0, pretend = 0, frame = 8
 1217              		@ frame_needed = 0, uses_anonymous_args = 0
 1218              		.loc 1 259 1 is_stmt 0 view .LVU225
 1219 0000 10B5     		push	{r4, lr}
 1220              	.LCFI32:
 1221              		.cfi_def_cfa_offset 8
 1222              		.cfi_offset 4, -8
 1223              		.cfi_offset 14, -4
 1224 0002 82B0     		sub	sp, sp, #8
 1225              	.LCFI33:
 1226              		.cfi_def_cfa_offset 16
 1227 0004 1346     		mov	r3, r2
 260:lvgl/lvgl/src/core/lv_obj_style_gen.c ****     lv_style_value_t v = {
 1228              		.loc 1 260 5 is_stmt 1 view .LVU226
 1229              		.loc 1 260 22 is_stmt 0 view .LVU227
 1230 0006 0024     		movs	r4, #0
ARM GAS  C:\Users\gx\AppData\Local\Temp\ccBEEQee.s 			page 26


 1231 0008 ADF80040 		strh	r4, [sp]	@ movhi
 1232 000c 2246     		mov	r2, r4
 1233              	.LVL129:
 1234              		.loc 1 260 22 view .LVU228
 1235 000e 64F31F42 		bfi	r2, r4, #16, #16
 1236              	.LVL130:
 1237              		.loc 1 260 22 view .LVU229
 1238 0012 61F30F02 		bfi	r2, r1, #0, #16
 1239              	.LVL131:
 261:lvgl/lvgl/src/core/lv_obj_style_gen.c ****         .color = value
 262:lvgl/lvgl/src/core/lv_obj_style_gen.c ****     };
 263:lvgl/lvgl/src/core/lv_obj_style_gen.c ****     lv_obj_set_local_style_prop(obj, LV_STYLE_BG_COLOR, v, selector);
 1240              		.loc 1 263 5 is_stmt 1 view .LVU230
 1241 0016 2021     		movs	r1, #32
 1242 0018 FFF7FEFF 		bl	lv_obj_set_local_style_prop
 1243              	.LVL132:
 264:lvgl/lvgl/src/core/lv_obj_style_gen.c **** }
 1244              		.loc 1 264 1 is_stmt 0 view .LVU231
 1245 001c 02B0     		add	sp, sp, #8
 1246              	.LCFI34:
 1247              		.cfi_def_cfa_offset 8
 1248              		@ sp needed
 1249 001e 10BD     		pop	{r4, pc}
 1250              		.cfi_endproc
 1251              	.LFE184:
 1253              		.section	.text.lv_obj_set_style_bg_color_filtered,"ax",%progbits
 1254              		.align	1
 1255              		.global	lv_obj_set_style_bg_color_filtered
 1256              		.syntax unified
 1257              		.thumb
 1258              		.thumb_func
 1259              		.fpu fpv4-sp-d16
 1261              	lv_obj_set_style_bg_color_filtered:
 1262              	.LVL133:
 1263              	.LFB185:
 265:lvgl/lvgl/src/core/lv_obj_style_gen.c **** 
 266:lvgl/lvgl/src/core/lv_obj_style_gen.c **** void lv_obj_set_style_bg_color_filtered(struct _lv_obj_t * obj, lv_color_t value, lv_style_selector
 267:lvgl/lvgl/src/core/lv_obj_style_gen.c **** {
 1264              		.loc 1 267 1 is_stmt 1 view -0
 1265              		.cfi_startproc
 1266              		@ args = 0, pretend = 0, frame = 8
 1267              		@ frame_needed = 0, uses_anonymous_args = 0
 1268              		.loc 1 267 1 is_stmt 0 view .LVU233
 1269 0000 10B5     		push	{r4, lr}
 1270              	.LCFI35:
 1271              		.cfi_def_cfa_offset 8
 1272              		.cfi_offset 4, -8
 1273              		.cfi_offset 14, -4
 1274 0002 82B0     		sub	sp, sp, #8
 1275              	.LCFI36:
 1276              		.cfi_def_cfa_offset 16
 1277 0004 1346     		mov	r3, r2
 268:lvgl/lvgl/src/core/lv_obj_style_gen.c ****     lv_style_value_t v = {
 1278              		.loc 1 268 5 is_stmt 1 view .LVU234
 1279              		.loc 1 268 22 is_stmt 0 view .LVU235
 1280 0006 0024     		movs	r4, #0
 1281 0008 ADF80040 		strh	r4, [sp]	@ movhi
ARM GAS  C:\Users\gx\AppData\Local\Temp\ccBEEQee.s 			page 27


 1282 000c 2246     		mov	r2, r4
 1283              	.LVL134:
 1284              		.loc 1 268 22 view .LVU236
 1285 000e 64F31F42 		bfi	r2, r4, #16, #16
 1286              	.LVL135:
 1287              		.loc 1 268 22 view .LVU237
 1288 0012 61F30F02 		bfi	r2, r1, #0, #16
 1289              	.LVL136:
 269:lvgl/lvgl/src/core/lv_obj_style_gen.c ****         .color = value
 270:lvgl/lvgl/src/core/lv_obj_style_gen.c ****     };
 271:lvgl/lvgl/src/core/lv_obj_style_gen.c ****     lv_obj_set_local_style_prop(obj, LV_STYLE_BG_COLOR_FILTERED, v, selector);
 1290              		.loc 1 271 5 is_stmt 1 view .LVU238
 1291 0016 44F22001 		movw	r1, #16416
 1292 001a FFF7FEFF 		bl	lv_obj_set_local_style_prop
 1293              	.LVL137:
 272:lvgl/lvgl/src/core/lv_obj_style_gen.c **** }
 1294              		.loc 1 272 1 is_stmt 0 view .LVU239
 1295 001e 02B0     		add	sp, sp, #8
 1296              	.LCFI37:
 1297              		.cfi_def_cfa_offset 8
 1298              		@ sp needed
 1299 0020 10BD     		pop	{r4, pc}
 1300              		.cfi_endproc
 1301              	.LFE185:
 1303              		.section	.text.lv_obj_set_style_bg_opa,"ax",%progbits
 1304              		.align	1
 1305              		.global	lv_obj_set_style_bg_opa
 1306              		.syntax unified
 1307              		.thumb
 1308              		.thumb_func
 1309              		.fpu fpv4-sp-d16
 1311              	lv_obj_set_style_bg_opa:
 1312              	.LVL138:
 1313              	.LFB186:
 273:lvgl/lvgl/src/core/lv_obj_style_gen.c **** 
 274:lvgl/lvgl/src/core/lv_obj_style_gen.c **** void lv_obj_set_style_bg_opa(struct _lv_obj_t * obj, lv_opa_t value, lv_style_selector_t selector)
 275:lvgl/lvgl/src/core/lv_obj_style_gen.c **** {
 1314              		.loc 1 275 1 is_stmt 1 view -0
 1315              		.cfi_startproc
 1316              		@ args = 0, pretend = 0, frame = 0
 1317              		@ frame_needed = 0, uses_anonymous_args = 0
 1318              		.loc 1 275 1 is_stmt 0 view .LVU241
 1319 0000 08B5     		push	{r3, lr}
 1320              	.LCFI38:
 1321              		.cfi_def_cfa_offset 8
 1322              		.cfi_offset 3, -8
 1323              		.cfi_offset 14, -4
 1324 0002 1346     		mov	r3, r2
 276:lvgl/lvgl/src/core/lv_obj_style_gen.c ****     lv_style_value_t v = {
 1325              		.loc 1 276 5 is_stmt 1 view .LVU242
 277:lvgl/lvgl/src/core/lv_obj_style_gen.c ****         .num = (int32_t)value
 278:lvgl/lvgl/src/core/lv_obj_style_gen.c ****     };
 279:lvgl/lvgl/src/core/lv_obj_style_gen.c ****     lv_obj_set_local_style_prop(obj, LV_STYLE_BG_OPA, v, selector);
 1326              		.loc 1 279 5 view .LVU243
 1327 0004 0A46     		mov	r2, r1
 1328              	.LVL139:
 1329              		.loc 1 279 5 is_stmt 0 view .LVU244
ARM GAS  C:\Users\gx\AppData\Local\Temp\ccBEEQee.s 			page 28


 1330 0006 2121     		movs	r1, #33
 1331              	.LVL140:
 1332              		.loc 1 279 5 view .LVU245
 1333 0008 FFF7FEFF 		bl	lv_obj_set_local_style_prop
 1334              	.LVL141:
 280:lvgl/lvgl/src/core/lv_obj_style_gen.c **** }
 1335              		.loc 1 280 1 view .LVU246
 1336 000c 08BD     		pop	{r3, pc}
 1337              		.cfi_endproc
 1338              	.LFE186:
 1340              		.section	.text.lv_obj_set_style_bg_grad_color,"ax",%progbits
 1341              		.align	1
 1342              		.global	lv_obj_set_style_bg_grad_color
 1343              		.syntax unified
 1344              		.thumb
 1345              		.thumb_func
 1346              		.fpu fpv4-sp-d16
 1348              	lv_obj_set_style_bg_grad_color:
 1349              	.LVL142:
 1350              	.LFB187:
 281:lvgl/lvgl/src/core/lv_obj_style_gen.c **** 
 282:lvgl/lvgl/src/core/lv_obj_style_gen.c **** void lv_obj_set_style_bg_grad_color(struct _lv_obj_t * obj, lv_color_t value, lv_style_selector_t s
 283:lvgl/lvgl/src/core/lv_obj_style_gen.c **** {
 1351              		.loc 1 283 1 is_stmt 1 view -0
 1352              		.cfi_startproc
 1353              		@ args = 0, pretend = 0, frame = 8
 1354              		@ frame_needed = 0, uses_anonymous_args = 0
 1355              		.loc 1 283 1 is_stmt 0 view .LVU248
 1356 0000 10B5     		push	{r4, lr}
 1357              	.LCFI39:
 1358              		.cfi_def_cfa_offset 8
 1359              		.cfi_offset 4, -8
 1360              		.cfi_offset 14, -4
 1361 0002 82B0     		sub	sp, sp, #8
 1362              	.LCFI40:
 1363              		.cfi_def_cfa_offset 16
 1364 0004 1346     		mov	r3, r2
 284:lvgl/lvgl/src/core/lv_obj_style_gen.c ****     lv_style_value_t v = {
 1365              		.loc 1 284 5 is_stmt 1 view .LVU249
 1366              		.loc 1 284 22 is_stmt 0 view .LVU250
 1367 0006 0024     		movs	r4, #0
 1368 0008 ADF80040 		strh	r4, [sp]	@ movhi
 1369 000c 2246     		mov	r2, r4
 1370              	.LVL143:
 1371              		.loc 1 284 22 view .LVU251
 1372 000e 64F31F42 		bfi	r2, r4, #16, #16
 1373              	.LVL144:
 1374              		.loc 1 284 22 view .LVU252
 1375 0012 61F30F02 		bfi	r2, r1, #0, #16
 1376              	.LVL145:
 285:lvgl/lvgl/src/core/lv_obj_style_gen.c ****         .color = value
 286:lvgl/lvgl/src/core/lv_obj_style_gen.c ****     };
 287:lvgl/lvgl/src/core/lv_obj_style_gen.c ****     lv_obj_set_local_style_prop(obj, LV_STYLE_BG_GRAD_COLOR, v, selector);
 1377              		.loc 1 287 5 is_stmt 1 view .LVU253
 1378 0016 2221     		movs	r1, #34
 1379 0018 FFF7FEFF 		bl	lv_obj_set_local_style_prop
 1380              	.LVL146:
ARM GAS  C:\Users\gx\AppData\Local\Temp\ccBEEQee.s 			page 29


 288:lvgl/lvgl/src/core/lv_obj_style_gen.c **** }
 1381              		.loc 1 288 1 is_stmt 0 view .LVU254
 1382 001c 02B0     		add	sp, sp, #8
 1383              	.LCFI41:
 1384              		.cfi_def_cfa_offset 8
 1385              		@ sp needed
 1386 001e 10BD     		pop	{r4, pc}
 1387              		.cfi_endproc
 1388              	.LFE187:
 1390              		.section	.text.lv_obj_set_style_bg_grad_color_filtered,"ax",%progbits
 1391              		.align	1
 1392              		.global	lv_obj_set_style_bg_grad_color_filtered
 1393              		.syntax unified
 1394              		.thumb
 1395              		.thumb_func
 1396              		.fpu fpv4-sp-d16
 1398              	lv_obj_set_style_bg_grad_color_filtered:
 1399              	.LVL147:
 1400              	.LFB188:
 289:lvgl/lvgl/src/core/lv_obj_style_gen.c **** 
 290:lvgl/lvgl/src/core/lv_obj_style_gen.c **** void lv_obj_set_style_bg_grad_color_filtered(struct _lv_obj_t * obj, lv_color_t value, lv_style_sel
 291:lvgl/lvgl/src/core/lv_obj_style_gen.c **** {
 1401              		.loc 1 291 1 is_stmt 1 view -0
 1402              		.cfi_startproc
 1403              		@ args = 0, pretend = 0, frame = 8
 1404              		@ frame_needed = 0, uses_anonymous_args = 0
 1405              		.loc 1 291 1 is_stmt 0 view .LVU256
 1406 0000 10B5     		push	{r4, lr}
 1407              	.LCFI42:
 1408              		.cfi_def_cfa_offset 8
 1409              		.cfi_offset 4, -8
 1410              		.cfi_offset 14, -4
 1411 0002 82B0     		sub	sp, sp, #8
 1412              	.LCFI43:
 1413              		.cfi_def_cfa_offset 16
 1414 0004 1346     		mov	r3, r2
 292:lvgl/lvgl/src/core/lv_obj_style_gen.c ****     lv_style_value_t v = {
 1415              		.loc 1 292 5 is_stmt 1 view .LVU257
 1416              		.loc 1 292 22 is_stmt 0 view .LVU258
 1417 0006 0024     		movs	r4, #0
 1418 0008 ADF80040 		strh	r4, [sp]	@ movhi
 1419 000c 2246     		mov	r2, r4
 1420              	.LVL148:
 1421              		.loc 1 292 22 view .LVU259
 1422 000e 64F31F42 		bfi	r2, r4, #16, #16
 1423              	.LVL149:
 1424              		.loc 1 292 22 view .LVU260
 1425 0012 61F30F02 		bfi	r2, r1, #0, #16
 1426              	.LVL150:
 293:lvgl/lvgl/src/core/lv_obj_style_gen.c ****         .color = value
 294:lvgl/lvgl/src/core/lv_obj_style_gen.c ****     };
 295:lvgl/lvgl/src/core/lv_obj_style_gen.c ****     lv_obj_set_local_style_prop(obj, LV_STYLE_BG_GRAD_COLOR_FILTERED, v, selector);
 1427              		.loc 1 295 5 is_stmt 1 view .LVU261
 1428 0016 44F22201 		movw	r1, #16418
 1429 001a FFF7FEFF 		bl	lv_obj_set_local_style_prop
 1430              	.LVL151:
 296:lvgl/lvgl/src/core/lv_obj_style_gen.c **** }
ARM GAS  C:\Users\gx\AppData\Local\Temp\ccBEEQee.s 			page 30


 1431              		.loc 1 296 1 is_stmt 0 view .LVU262
 1432 001e 02B0     		add	sp, sp, #8
 1433              	.LCFI44:
 1434              		.cfi_def_cfa_offset 8
 1435              		@ sp needed
 1436 0020 10BD     		pop	{r4, pc}
 1437              		.cfi_endproc
 1438              	.LFE188:
 1440              		.section	.text.lv_obj_set_style_bg_grad_dir,"ax",%progbits
 1441              		.align	1
 1442              		.global	lv_obj_set_style_bg_grad_dir
 1443              		.syntax unified
 1444              		.thumb
 1445              		.thumb_func
 1446              		.fpu fpv4-sp-d16
 1448              	lv_obj_set_style_bg_grad_dir:
 1449              	.LVL152:
 1450              	.LFB189:
 297:lvgl/lvgl/src/core/lv_obj_style_gen.c **** 
 298:lvgl/lvgl/src/core/lv_obj_style_gen.c **** void lv_obj_set_style_bg_grad_dir(struct _lv_obj_t * obj, lv_grad_dir_t value, lv_style_selector_t 
 299:lvgl/lvgl/src/core/lv_obj_style_gen.c **** {
 1451              		.loc 1 299 1 is_stmt 1 view -0
 1452              		.cfi_startproc
 1453              		@ args = 0, pretend = 0, frame = 0
 1454              		@ frame_needed = 0, uses_anonymous_args = 0
 1455              		.loc 1 299 1 is_stmt 0 view .LVU264
 1456 0000 08B5     		push	{r3, lr}
 1457              	.LCFI45:
 1458              		.cfi_def_cfa_offset 8
 1459              		.cfi_offset 3, -8
 1460              		.cfi_offset 14, -4
 1461 0002 1346     		mov	r3, r2
 300:lvgl/lvgl/src/core/lv_obj_style_gen.c ****     lv_style_value_t v = {
 1462              		.loc 1 300 5 is_stmt 1 view .LVU265
 301:lvgl/lvgl/src/core/lv_obj_style_gen.c ****         .num = (int32_t)value
 302:lvgl/lvgl/src/core/lv_obj_style_gen.c ****     };
 303:lvgl/lvgl/src/core/lv_obj_style_gen.c ****     lv_obj_set_local_style_prop(obj, LV_STYLE_BG_GRAD_DIR, v, selector);
 1463              		.loc 1 303 5 view .LVU266
 1464 0004 0A46     		mov	r2, r1
 1465              	.LVL153:
 1466              		.loc 1 303 5 is_stmt 0 view .LVU267
 1467 0006 2321     		movs	r1, #35
 1468              	.LVL154:
 1469              		.loc 1 303 5 view .LVU268
 1470 0008 FFF7FEFF 		bl	lv_obj_set_local_style_prop
 1471              	.LVL155:
 304:lvgl/lvgl/src/core/lv_obj_style_gen.c **** }
 1472              		.loc 1 304 1 view .LVU269
 1473 000c 08BD     		pop	{r3, pc}
 1474              		.cfi_endproc
 1475              	.LFE189:
 1477              		.section	.text.lv_obj_set_style_bg_main_stop,"ax",%progbits
 1478              		.align	1
 1479              		.global	lv_obj_set_style_bg_main_stop
 1480              		.syntax unified
 1481              		.thumb
 1482              		.thumb_func
ARM GAS  C:\Users\gx\AppData\Local\Temp\ccBEEQee.s 			page 31


 1483              		.fpu fpv4-sp-d16
 1485              	lv_obj_set_style_bg_main_stop:
 1486              	.LVL156:
 1487              	.LFB190:
 305:lvgl/lvgl/src/core/lv_obj_style_gen.c **** 
 306:lvgl/lvgl/src/core/lv_obj_style_gen.c **** void lv_obj_set_style_bg_main_stop(struct _lv_obj_t * obj, lv_coord_t value, lv_style_selector_t se
 307:lvgl/lvgl/src/core/lv_obj_style_gen.c **** {
 1488              		.loc 1 307 1 is_stmt 1 view -0
 1489              		.cfi_startproc
 1490              		@ args = 0, pretend = 0, frame = 0
 1491              		@ frame_needed = 0, uses_anonymous_args = 0
 1492              		.loc 1 307 1 is_stmt 0 view .LVU271
 1493 0000 08B5     		push	{r3, lr}
 1494              	.LCFI46:
 1495              		.cfi_def_cfa_offset 8
 1496              		.cfi_offset 3, -8
 1497              		.cfi_offset 14, -4
 1498 0002 1346     		mov	r3, r2
 308:lvgl/lvgl/src/core/lv_obj_style_gen.c ****     lv_style_value_t v = {
 1499              		.loc 1 308 5 is_stmt 1 view .LVU272
 309:lvgl/lvgl/src/core/lv_obj_style_gen.c ****         .num = (int32_t)value
 310:lvgl/lvgl/src/core/lv_obj_style_gen.c ****     };
 311:lvgl/lvgl/src/core/lv_obj_style_gen.c ****     lv_obj_set_local_style_prop(obj, LV_STYLE_BG_MAIN_STOP, v, selector);
 1500              		.loc 1 311 5 view .LVU273
 1501 0004 0A46     		mov	r2, r1
 1502              	.LVL157:
 1503              		.loc 1 311 5 is_stmt 0 view .LVU274
 1504 0006 2421     		movs	r1, #36
 1505              	.LVL158:
 1506              		.loc 1 311 5 view .LVU275
 1507 0008 FFF7FEFF 		bl	lv_obj_set_local_style_prop
 1508              	.LVL159:
 312:lvgl/lvgl/src/core/lv_obj_style_gen.c **** }
 1509              		.loc 1 312 1 view .LVU276
 1510 000c 08BD     		pop	{r3, pc}
 1511              		.cfi_endproc
 1512              	.LFE190:
 1514              		.section	.text.lv_obj_set_style_bg_grad_stop,"ax",%progbits
 1515              		.align	1
 1516              		.global	lv_obj_set_style_bg_grad_stop
 1517              		.syntax unified
 1518              		.thumb
 1519              		.thumb_func
 1520              		.fpu fpv4-sp-d16
 1522              	lv_obj_set_style_bg_grad_stop:
 1523              	.LVL160:
 1524              	.LFB191:
 313:lvgl/lvgl/src/core/lv_obj_style_gen.c **** 
 314:lvgl/lvgl/src/core/lv_obj_style_gen.c **** void lv_obj_set_style_bg_grad_stop(struct _lv_obj_t * obj, lv_coord_t value, lv_style_selector_t se
 315:lvgl/lvgl/src/core/lv_obj_style_gen.c **** {
 1525              		.loc 1 315 1 is_stmt 1 view -0
 1526              		.cfi_startproc
 1527              		@ args = 0, pretend = 0, frame = 0
 1528              		@ frame_needed = 0, uses_anonymous_args = 0
 1529              		.loc 1 315 1 is_stmt 0 view .LVU278
 1530 0000 08B5     		push	{r3, lr}
 1531              	.LCFI47:
ARM GAS  C:\Users\gx\AppData\Local\Temp\ccBEEQee.s 			page 32


 1532              		.cfi_def_cfa_offset 8
 1533              		.cfi_offset 3, -8
 1534              		.cfi_offset 14, -4
 1535 0002 1346     		mov	r3, r2
 316:lvgl/lvgl/src/core/lv_obj_style_gen.c ****     lv_style_value_t v = {
 1536              		.loc 1 316 5 is_stmt 1 view .LVU279
 317:lvgl/lvgl/src/core/lv_obj_style_gen.c ****         .num = (int32_t)value
 318:lvgl/lvgl/src/core/lv_obj_style_gen.c ****     };
 319:lvgl/lvgl/src/core/lv_obj_style_gen.c ****     lv_obj_set_local_style_prop(obj, LV_STYLE_BG_GRAD_STOP, v, selector);
 1537              		.loc 1 319 5 view .LVU280
 1538 0004 0A46     		mov	r2, r1
 1539              	.LVL161:
 1540              		.loc 1 319 5 is_stmt 0 view .LVU281
 1541 0006 2521     		movs	r1, #37
 1542              	.LVL162:
 1543              		.loc 1 319 5 view .LVU282
 1544 0008 FFF7FEFF 		bl	lv_obj_set_local_style_prop
 1545              	.LVL163:
 320:lvgl/lvgl/src/core/lv_obj_style_gen.c **** }
 1546              		.loc 1 320 1 view .LVU283
 1547 000c 08BD     		pop	{r3, pc}
 1548              		.cfi_endproc
 1549              	.LFE191:
 1551              		.section	.text.lv_obj_set_style_bg_img_src,"ax",%progbits
 1552              		.align	1
 1553              		.global	lv_obj_set_style_bg_img_src
 1554              		.syntax unified
 1555              		.thumb
 1556              		.thumb_func
 1557              		.fpu fpv4-sp-d16
 1559              	lv_obj_set_style_bg_img_src:
 1560              	.LVL164:
 1561              	.LFB192:
 321:lvgl/lvgl/src/core/lv_obj_style_gen.c **** 
 322:lvgl/lvgl/src/core/lv_obj_style_gen.c **** void lv_obj_set_style_bg_img_src(struct _lv_obj_t * obj, const void * value, lv_style_selector_t se
 323:lvgl/lvgl/src/core/lv_obj_style_gen.c **** {
 1562              		.loc 1 323 1 is_stmt 1 view -0
 1563              		.cfi_startproc
 1564              		@ args = 0, pretend = 0, frame = 0
 1565              		@ frame_needed = 0, uses_anonymous_args = 0
 1566              		.loc 1 323 1 is_stmt 0 view .LVU285
 1567 0000 08B5     		push	{r3, lr}
 1568              	.LCFI48:
 1569              		.cfi_def_cfa_offset 8
 1570              		.cfi_offset 3, -8
 1571              		.cfi_offset 14, -4
 1572 0002 1346     		mov	r3, r2
 324:lvgl/lvgl/src/core/lv_obj_style_gen.c ****     lv_style_value_t v = {
 1573              		.loc 1 324 5 is_stmt 1 view .LVU286
 325:lvgl/lvgl/src/core/lv_obj_style_gen.c ****         .ptr = value
 326:lvgl/lvgl/src/core/lv_obj_style_gen.c ****     };
 327:lvgl/lvgl/src/core/lv_obj_style_gen.c ****     lv_obj_set_local_style_prop(obj, LV_STYLE_BG_IMG_SRC, v, selector);
 1574              		.loc 1 327 5 view .LVU287
 1575 0004 0A46     		mov	r2, r1
 1576              	.LVL165:
 1577              		.loc 1 327 5 is_stmt 0 view .LVU288
 1578 0006 2621     		movs	r1, #38
ARM GAS  C:\Users\gx\AppData\Local\Temp\ccBEEQee.s 			page 33


 1579              	.LVL166:
 1580              		.loc 1 327 5 view .LVU289
 1581 0008 FFF7FEFF 		bl	lv_obj_set_local_style_prop
 1582              	.LVL167:
 328:lvgl/lvgl/src/core/lv_obj_style_gen.c **** }
 1583              		.loc 1 328 1 view .LVU290
 1584 000c 08BD     		pop	{r3, pc}
 1585              		.cfi_endproc
 1586              	.LFE192:
 1588              		.section	.text.lv_obj_set_style_bg_img_opa,"ax",%progbits
 1589              		.align	1
 1590              		.global	lv_obj_set_style_bg_img_opa
 1591              		.syntax unified
 1592              		.thumb
 1593              		.thumb_func
 1594              		.fpu fpv4-sp-d16
 1596              	lv_obj_set_style_bg_img_opa:
 1597              	.LVL168:
 1598              	.LFB193:
 329:lvgl/lvgl/src/core/lv_obj_style_gen.c **** 
 330:lvgl/lvgl/src/core/lv_obj_style_gen.c **** void lv_obj_set_style_bg_img_opa(struct _lv_obj_t * obj, lv_opa_t value, lv_style_selector_t select
 331:lvgl/lvgl/src/core/lv_obj_style_gen.c **** {
 1599              		.loc 1 331 1 is_stmt 1 view -0
 1600              		.cfi_startproc
 1601              		@ args = 0, pretend = 0, frame = 0
 1602              		@ frame_needed = 0, uses_anonymous_args = 0
 1603              		.loc 1 331 1 is_stmt 0 view .LVU292
 1604 0000 08B5     		push	{r3, lr}
 1605              	.LCFI49:
 1606              		.cfi_def_cfa_offset 8
 1607              		.cfi_offset 3, -8
 1608              		.cfi_offset 14, -4
 1609 0002 1346     		mov	r3, r2
 332:lvgl/lvgl/src/core/lv_obj_style_gen.c ****     lv_style_value_t v = {
 1610              		.loc 1 332 5 is_stmt 1 view .LVU293
 333:lvgl/lvgl/src/core/lv_obj_style_gen.c ****         .num = (int32_t)value
 334:lvgl/lvgl/src/core/lv_obj_style_gen.c ****     };
 335:lvgl/lvgl/src/core/lv_obj_style_gen.c ****     lv_obj_set_local_style_prop(obj, LV_STYLE_BG_IMG_OPA, v, selector);
 1611              		.loc 1 335 5 view .LVU294
 1612 0004 0A46     		mov	r2, r1
 1613              	.LVL169:
 1614              		.loc 1 335 5 is_stmt 0 view .LVU295
 1615 0006 2721     		movs	r1, #39
 1616              	.LVL170:
 1617              		.loc 1 335 5 view .LVU296
 1618 0008 FFF7FEFF 		bl	lv_obj_set_local_style_prop
 1619              	.LVL171:
 336:lvgl/lvgl/src/core/lv_obj_style_gen.c **** }
 1620              		.loc 1 336 1 view .LVU297
 1621 000c 08BD     		pop	{r3, pc}
 1622              		.cfi_endproc
 1623              	.LFE193:
 1625              		.section	.text.lv_obj_set_style_bg_img_recolor,"ax",%progbits
 1626              		.align	1
 1627              		.global	lv_obj_set_style_bg_img_recolor
 1628              		.syntax unified
 1629              		.thumb
ARM GAS  C:\Users\gx\AppData\Local\Temp\ccBEEQee.s 			page 34


 1630              		.thumb_func
 1631              		.fpu fpv4-sp-d16
 1633              	lv_obj_set_style_bg_img_recolor:
 1634              	.LVL172:
 1635              	.LFB194:
 337:lvgl/lvgl/src/core/lv_obj_style_gen.c **** 
 338:lvgl/lvgl/src/core/lv_obj_style_gen.c **** void lv_obj_set_style_bg_img_recolor(struct _lv_obj_t * obj, lv_color_t value, lv_style_selector_t 
 339:lvgl/lvgl/src/core/lv_obj_style_gen.c **** {
 1636              		.loc 1 339 1 is_stmt 1 view -0
 1637              		.cfi_startproc
 1638              		@ args = 0, pretend = 0, frame = 8
 1639              		@ frame_needed = 0, uses_anonymous_args = 0
 1640              		.loc 1 339 1 is_stmt 0 view .LVU299
 1641 0000 10B5     		push	{r4, lr}
 1642              	.LCFI50:
 1643              		.cfi_def_cfa_offset 8
 1644              		.cfi_offset 4, -8
 1645              		.cfi_offset 14, -4
 1646 0002 82B0     		sub	sp, sp, #8
 1647              	.LCFI51:
 1648              		.cfi_def_cfa_offset 16
 1649 0004 1346     		mov	r3, r2
 340:lvgl/lvgl/src/core/lv_obj_style_gen.c ****     lv_style_value_t v = {
 1650              		.loc 1 340 5 is_stmt 1 view .LVU300
 1651              		.loc 1 340 22 is_stmt 0 view .LVU301
 1652 0006 0024     		movs	r4, #0
 1653 0008 ADF80040 		strh	r4, [sp]	@ movhi
 1654 000c 2246     		mov	r2, r4
 1655              	.LVL173:
 1656              		.loc 1 340 22 view .LVU302
 1657 000e 64F31F42 		bfi	r2, r4, #16, #16
 1658              	.LVL174:
 1659              		.loc 1 340 22 view .LVU303
 1660 0012 61F30F02 		bfi	r2, r1, #0, #16
 1661              	.LVL175:
 341:lvgl/lvgl/src/core/lv_obj_style_gen.c ****         .color = value
 342:lvgl/lvgl/src/core/lv_obj_style_gen.c ****     };
 343:lvgl/lvgl/src/core/lv_obj_style_gen.c ****     lv_obj_set_local_style_prop(obj, LV_STYLE_BG_IMG_RECOLOR, v, selector);
 1662              		.loc 1 343 5 is_stmt 1 view .LVU304
 1663 0016 2821     		movs	r1, #40
 1664 0018 FFF7FEFF 		bl	lv_obj_set_local_style_prop
 1665              	.LVL176:
 344:lvgl/lvgl/src/core/lv_obj_style_gen.c **** }
 1666              		.loc 1 344 1 is_stmt 0 view .LVU305
 1667 001c 02B0     		add	sp, sp, #8
 1668              	.LCFI52:
 1669              		.cfi_def_cfa_offset 8
 1670              		@ sp needed
 1671 001e 10BD     		pop	{r4, pc}
 1672              		.cfi_endproc
 1673              	.LFE194:
 1675              		.section	.text.lv_obj_set_style_bg_img_recolor_filtered,"ax",%progbits
 1676              		.align	1
 1677              		.global	lv_obj_set_style_bg_img_recolor_filtered
 1678              		.syntax unified
 1679              		.thumb
 1680              		.thumb_func
ARM GAS  C:\Users\gx\AppData\Local\Temp\ccBEEQee.s 			page 35


 1681              		.fpu fpv4-sp-d16
 1683              	lv_obj_set_style_bg_img_recolor_filtered:
 1684              	.LVL177:
 1685              	.LFB195:
 345:lvgl/lvgl/src/core/lv_obj_style_gen.c **** 
 346:lvgl/lvgl/src/core/lv_obj_style_gen.c **** void lv_obj_set_style_bg_img_recolor_filtered(struct _lv_obj_t * obj, lv_color_t value, lv_style_se
 347:lvgl/lvgl/src/core/lv_obj_style_gen.c **** {
 1686              		.loc 1 347 1 is_stmt 1 view -0
 1687              		.cfi_startproc
 1688              		@ args = 0, pretend = 0, frame = 8
 1689              		@ frame_needed = 0, uses_anonymous_args = 0
 1690              		.loc 1 347 1 is_stmt 0 view .LVU307
 1691 0000 10B5     		push	{r4, lr}
 1692              	.LCFI53:
 1693              		.cfi_def_cfa_offset 8
 1694              		.cfi_offset 4, -8
 1695              		.cfi_offset 14, -4
 1696 0002 82B0     		sub	sp, sp, #8
 1697              	.LCFI54:
 1698              		.cfi_def_cfa_offset 16
 1699 0004 1346     		mov	r3, r2
 348:lvgl/lvgl/src/core/lv_obj_style_gen.c ****     lv_style_value_t v = {
 1700              		.loc 1 348 5 is_stmt 1 view .LVU308
 1701              		.loc 1 348 22 is_stmt 0 view .LVU309
 1702 0006 0024     		movs	r4, #0
 1703 0008 ADF80040 		strh	r4, [sp]	@ movhi
 1704 000c 2246     		mov	r2, r4
 1705              	.LVL178:
 1706              		.loc 1 348 22 view .LVU310
 1707 000e 64F31F42 		bfi	r2, r4, #16, #16
 1708              	.LVL179:
 1709              		.loc 1 348 22 view .LVU311
 1710 0012 61F30F02 		bfi	r2, r1, #0, #16
 1711              	.LVL180:
 349:lvgl/lvgl/src/core/lv_obj_style_gen.c ****         .color = value
 350:lvgl/lvgl/src/core/lv_obj_style_gen.c ****     };
 351:lvgl/lvgl/src/core/lv_obj_style_gen.c ****     lv_obj_set_local_style_prop(obj, LV_STYLE_BG_IMG_RECOLOR_FILTERED, v, selector);
 1712              		.loc 1 351 5 is_stmt 1 view .LVU312
 1713 0016 44F22801 		movw	r1, #16424
 1714 001a FFF7FEFF 		bl	lv_obj_set_local_style_prop
 1715              	.LVL181:
 352:lvgl/lvgl/src/core/lv_obj_style_gen.c **** }
 1716              		.loc 1 352 1 is_stmt 0 view .LVU313
 1717 001e 02B0     		add	sp, sp, #8
 1718              	.LCFI55:
 1719              		.cfi_def_cfa_offset 8
 1720              		@ sp needed
 1721 0020 10BD     		pop	{r4, pc}
 1722              		.cfi_endproc
 1723              	.LFE195:
 1725              		.section	.text.lv_obj_set_style_bg_img_recolor_opa,"ax",%progbits
 1726              		.align	1
 1727              		.global	lv_obj_set_style_bg_img_recolor_opa
 1728              		.syntax unified
 1729              		.thumb
 1730              		.thumb_func
 1731              		.fpu fpv4-sp-d16
ARM GAS  C:\Users\gx\AppData\Local\Temp\ccBEEQee.s 			page 36


 1733              	lv_obj_set_style_bg_img_recolor_opa:
 1734              	.LVL182:
 1735              	.LFB196:
 353:lvgl/lvgl/src/core/lv_obj_style_gen.c **** 
 354:lvgl/lvgl/src/core/lv_obj_style_gen.c **** void lv_obj_set_style_bg_img_recolor_opa(struct _lv_obj_t * obj, lv_opa_t value, lv_style_selector_
 355:lvgl/lvgl/src/core/lv_obj_style_gen.c **** {
 1736              		.loc 1 355 1 is_stmt 1 view -0
 1737              		.cfi_startproc
 1738              		@ args = 0, pretend = 0, frame = 0
 1739              		@ frame_needed = 0, uses_anonymous_args = 0
 1740              		.loc 1 355 1 is_stmt 0 view .LVU315
 1741 0000 08B5     		push	{r3, lr}
 1742              	.LCFI56:
 1743              		.cfi_def_cfa_offset 8
 1744              		.cfi_offset 3, -8
 1745              		.cfi_offset 14, -4
 1746 0002 1346     		mov	r3, r2
 356:lvgl/lvgl/src/core/lv_obj_style_gen.c ****     lv_style_value_t v = {
 1747              		.loc 1 356 5 is_stmt 1 view .LVU316
 357:lvgl/lvgl/src/core/lv_obj_style_gen.c ****         .num = (int32_t)value
 358:lvgl/lvgl/src/core/lv_obj_style_gen.c ****     };
 359:lvgl/lvgl/src/core/lv_obj_style_gen.c ****     lv_obj_set_local_style_prop(obj, LV_STYLE_BG_IMG_RECOLOR_OPA, v, selector);
 1748              		.loc 1 359 5 view .LVU317
 1749 0004 0A46     		mov	r2, r1
 1750              	.LVL183:
 1751              		.loc 1 359 5 is_stmt 0 view .LVU318
 1752 0006 2921     		movs	r1, #41
 1753              	.LVL184:
 1754              		.loc 1 359 5 view .LVU319
 1755 0008 FFF7FEFF 		bl	lv_obj_set_local_style_prop
 1756              	.LVL185:
 360:lvgl/lvgl/src/core/lv_obj_style_gen.c **** }
 1757              		.loc 1 360 1 view .LVU320
 1758 000c 08BD     		pop	{r3, pc}
 1759              		.cfi_endproc
 1760              	.LFE196:
 1762              		.section	.text.lv_obj_set_style_bg_img_tiled,"ax",%progbits
 1763              		.align	1
 1764              		.global	lv_obj_set_style_bg_img_tiled
 1765              		.syntax unified
 1766              		.thumb
 1767              		.thumb_func
 1768              		.fpu fpv4-sp-d16
 1770              	lv_obj_set_style_bg_img_tiled:
 1771              	.LVL186:
 1772              	.LFB197:
 361:lvgl/lvgl/src/core/lv_obj_style_gen.c **** 
 362:lvgl/lvgl/src/core/lv_obj_style_gen.c **** void lv_obj_set_style_bg_img_tiled(struct _lv_obj_t * obj, bool value, lv_style_selector_t selector
 363:lvgl/lvgl/src/core/lv_obj_style_gen.c **** {
 1773              		.loc 1 363 1 is_stmt 1 view -0
 1774              		.cfi_startproc
 1775              		@ args = 0, pretend = 0, frame = 0
 1776              		@ frame_needed = 0, uses_anonymous_args = 0
 1777              		.loc 1 363 1 is_stmt 0 view .LVU322
 1778 0000 08B5     		push	{r3, lr}
 1779              	.LCFI57:
 1780              		.cfi_def_cfa_offset 8
ARM GAS  C:\Users\gx\AppData\Local\Temp\ccBEEQee.s 			page 37


 1781              		.cfi_offset 3, -8
 1782              		.cfi_offset 14, -4
 1783 0002 1346     		mov	r3, r2
 364:lvgl/lvgl/src/core/lv_obj_style_gen.c ****     lv_style_value_t v = {
 1784              		.loc 1 364 5 is_stmt 1 view .LVU323
 365:lvgl/lvgl/src/core/lv_obj_style_gen.c ****         .num = (int32_t)value
 366:lvgl/lvgl/src/core/lv_obj_style_gen.c ****     };
 367:lvgl/lvgl/src/core/lv_obj_style_gen.c ****     lv_obj_set_local_style_prop(obj, LV_STYLE_BG_IMG_TILED, v, selector);
 1785              		.loc 1 367 5 view .LVU324
 1786 0004 0A46     		mov	r2, r1
 1787              	.LVL187:
 1788              		.loc 1 367 5 is_stmt 0 view .LVU325
 1789 0006 2A21     		movs	r1, #42
 1790              	.LVL188:
 1791              		.loc 1 367 5 view .LVU326
 1792 0008 FFF7FEFF 		bl	lv_obj_set_local_style_prop
 1793              	.LVL189:
 368:lvgl/lvgl/src/core/lv_obj_style_gen.c **** }
 1794              		.loc 1 368 1 view .LVU327
 1795 000c 08BD     		pop	{r3, pc}
 1796              		.cfi_endproc
 1797              	.LFE197:
 1799              		.section	.text.lv_obj_set_style_border_color,"ax",%progbits
 1800              		.align	1
 1801              		.global	lv_obj_set_style_border_color
 1802              		.syntax unified
 1803              		.thumb
 1804              		.thumb_func
 1805              		.fpu fpv4-sp-d16
 1807              	lv_obj_set_style_border_color:
 1808              	.LVL190:
 1809              	.LFB198:
 369:lvgl/lvgl/src/core/lv_obj_style_gen.c **** 
 370:lvgl/lvgl/src/core/lv_obj_style_gen.c **** void lv_obj_set_style_border_color(struct _lv_obj_t * obj, lv_color_t value, lv_style_selector_t se
 371:lvgl/lvgl/src/core/lv_obj_style_gen.c **** {
 1810              		.loc 1 371 1 is_stmt 1 view -0
 1811              		.cfi_startproc
 1812              		@ args = 0, pretend = 0, frame = 8
 1813              		@ frame_needed = 0, uses_anonymous_args = 0
 1814              		.loc 1 371 1 is_stmt 0 view .LVU329
 1815 0000 10B5     		push	{r4, lr}
 1816              	.LCFI58:
 1817              		.cfi_def_cfa_offset 8
 1818              		.cfi_offset 4, -8
 1819              		.cfi_offset 14, -4
 1820 0002 82B0     		sub	sp, sp, #8
 1821              	.LCFI59:
 1822              		.cfi_def_cfa_offset 16
 1823 0004 1346     		mov	r3, r2
 372:lvgl/lvgl/src/core/lv_obj_style_gen.c ****     lv_style_value_t v = {
 1824              		.loc 1 372 5 is_stmt 1 view .LVU330
 1825              		.loc 1 372 22 is_stmt 0 view .LVU331
 1826 0006 0024     		movs	r4, #0
 1827 0008 ADF80040 		strh	r4, [sp]	@ movhi
 1828 000c 2246     		mov	r2, r4
 1829              	.LVL191:
 1830              		.loc 1 372 22 view .LVU332
ARM GAS  C:\Users\gx\AppData\Local\Temp\ccBEEQee.s 			page 38


 1831 000e 64F31F42 		bfi	r2, r4, #16, #16
 1832              	.LVL192:
 1833              		.loc 1 372 22 view .LVU333
 1834 0012 61F30F02 		bfi	r2, r1, #0, #16
 1835              	.LVL193:
 373:lvgl/lvgl/src/core/lv_obj_style_gen.c ****         .color = value
 374:lvgl/lvgl/src/core/lv_obj_style_gen.c ****     };
 375:lvgl/lvgl/src/core/lv_obj_style_gen.c ****     lv_obj_set_local_style_prop(obj, LV_STYLE_BORDER_COLOR, v, selector);
 1836              		.loc 1 375 5 is_stmt 1 view .LVU334
 1837 0016 3021     		movs	r1, #48
 1838 0018 FFF7FEFF 		bl	lv_obj_set_local_style_prop
 1839              	.LVL194:
 376:lvgl/lvgl/src/core/lv_obj_style_gen.c **** }
 1840              		.loc 1 376 1 is_stmt 0 view .LVU335
 1841 001c 02B0     		add	sp, sp, #8
 1842              	.LCFI60:
 1843              		.cfi_def_cfa_offset 8
 1844              		@ sp needed
 1845 001e 10BD     		pop	{r4, pc}
 1846              		.cfi_endproc
 1847              	.LFE198:
 1849              		.section	.text.lv_obj_set_style_border_color_filtered,"ax",%progbits
 1850              		.align	1
 1851              		.global	lv_obj_set_style_border_color_filtered
 1852              		.syntax unified
 1853              		.thumb
 1854              		.thumb_func
 1855              		.fpu fpv4-sp-d16
 1857              	lv_obj_set_style_border_color_filtered:
 1858              	.LVL195:
 1859              	.LFB199:
 377:lvgl/lvgl/src/core/lv_obj_style_gen.c **** 
 378:lvgl/lvgl/src/core/lv_obj_style_gen.c **** void lv_obj_set_style_border_color_filtered(struct _lv_obj_t * obj, lv_color_t value, lv_style_sele
 379:lvgl/lvgl/src/core/lv_obj_style_gen.c **** {
 1860              		.loc 1 379 1 is_stmt 1 view -0
 1861              		.cfi_startproc
 1862              		@ args = 0, pretend = 0, frame = 8
 1863              		@ frame_needed = 0, uses_anonymous_args = 0
 1864              		.loc 1 379 1 is_stmt 0 view .LVU337
 1865 0000 10B5     		push	{r4, lr}
 1866              	.LCFI61:
 1867              		.cfi_def_cfa_offset 8
 1868              		.cfi_offset 4, -8
 1869              		.cfi_offset 14, -4
 1870 0002 82B0     		sub	sp, sp, #8
 1871              	.LCFI62:
 1872              		.cfi_def_cfa_offset 16
 1873 0004 1346     		mov	r3, r2
 380:lvgl/lvgl/src/core/lv_obj_style_gen.c ****     lv_style_value_t v = {
 1874              		.loc 1 380 5 is_stmt 1 view .LVU338
 1875              		.loc 1 380 22 is_stmt 0 view .LVU339
 1876 0006 0024     		movs	r4, #0
 1877 0008 ADF80040 		strh	r4, [sp]	@ movhi
 1878 000c 2246     		mov	r2, r4
 1879              	.LVL196:
 1880              		.loc 1 380 22 view .LVU340
 1881 000e 64F31F42 		bfi	r2, r4, #16, #16
ARM GAS  C:\Users\gx\AppData\Local\Temp\ccBEEQee.s 			page 39


 1882              	.LVL197:
 1883              		.loc 1 380 22 view .LVU341
 1884 0012 61F30F02 		bfi	r2, r1, #0, #16
 1885              	.LVL198:
 381:lvgl/lvgl/src/core/lv_obj_style_gen.c ****         .color = value
 382:lvgl/lvgl/src/core/lv_obj_style_gen.c ****     };
 383:lvgl/lvgl/src/core/lv_obj_style_gen.c ****     lv_obj_set_local_style_prop(obj, LV_STYLE_BORDER_COLOR_FILTERED, v, selector);
 1886              		.loc 1 383 5 is_stmt 1 view .LVU342
 1887 0016 44F23001 		movw	r1, #16432
 1888 001a FFF7FEFF 		bl	lv_obj_set_local_style_prop
 1889              	.LVL199:
 384:lvgl/lvgl/src/core/lv_obj_style_gen.c **** }
 1890              		.loc 1 384 1 is_stmt 0 view .LVU343
 1891 001e 02B0     		add	sp, sp, #8
 1892              	.LCFI63:
 1893              		.cfi_def_cfa_offset 8
 1894              		@ sp needed
 1895 0020 10BD     		pop	{r4, pc}
 1896              		.cfi_endproc
 1897              	.LFE199:
 1899              		.section	.text.lv_obj_set_style_border_opa,"ax",%progbits
 1900              		.align	1
 1901              		.global	lv_obj_set_style_border_opa
 1902              		.syntax unified
 1903              		.thumb
 1904              		.thumb_func
 1905              		.fpu fpv4-sp-d16
 1907              	lv_obj_set_style_border_opa:
 1908              	.LVL200:
 1909              	.LFB200:
 385:lvgl/lvgl/src/core/lv_obj_style_gen.c **** 
 386:lvgl/lvgl/src/core/lv_obj_style_gen.c **** void lv_obj_set_style_border_opa(struct _lv_obj_t * obj, lv_opa_t value, lv_style_selector_t select
 387:lvgl/lvgl/src/core/lv_obj_style_gen.c **** {
 1910              		.loc 1 387 1 is_stmt 1 view -0
 1911              		.cfi_startproc
 1912              		@ args = 0, pretend = 0, frame = 0
 1913              		@ frame_needed = 0, uses_anonymous_args = 0
 1914              		.loc 1 387 1 is_stmt 0 view .LVU345
 1915 0000 08B5     		push	{r3, lr}
 1916              	.LCFI64:
 1917              		.cfi_def_cfa_offset 8
 1918              		.cfi_offset 3, -8
 1919              		.cfi_offset 14, -4
 1920 0002 1346     		mov	r3, r2
 388:lvgl/lvgl/src/core/lv_obj_style_gen.c ****     lv_style_value_t v = {
 1921              		.loc 1 388 5 is_stmt 1 view .LVU346
 389:lvgl/lvgl/src/core/lv_obj_style_gen.c ****         .num = (int32_t)value
 390:lvgl/lvgl/src/core/lv_obj_style_gen.c ****     };
 391:lvgl/lvgl/src/core/lv_obj_style_gen.c ****     lv_obj_set_local_style_prop(obj, LV_STYLE_BORDER_OPA, v, selector);
 1922              		.loc 1 391 5 view .LVU347
 1923 0004 0A46     		mov	r2, r1
 1924              	.LVL201:
 1925              		.loc 1 391 5 is_stmt 0 view .LVU348
 1926 0006 3121     		movs	r1, #49
 1927              	.LVL202:
 1928              		.loc 1 391 5 view .LVU349
 1929 0008 FFF7FEFF 		bl	lv_obj_set_local_style_prop
ARM GAS  C:\Users\gx\AppData\Local\Temp\ccBEEQee.s 			page 40


 1930              	.LVL203:
 392:lvgl/lvgl/src/core/lv_obj_style_gen.c **** }
 1931              		.loc 1 392 1 view .LVU350
 1932 000c 08BD     		pop	{r3, pc}
 1933              		.cfi_endproc
 1934              	.LFE200:
 1936              		.section	.text.lv_obj_set_style_border_width,"ax",%progbits
 1937              		.align	1
 1938              		.global	lv_obj_set_style_border_width
 1939              		.syntax unified
 1940              		.thumb
 1941              		.thumb_func
 1942              		.fpu fpv4-sp-d16
 1944              	lv_obj_set_style_border_width:
 1945              	.LVL204:
 1946              	.LFB201:
 393:lvgl/lvgl/src/core/lv_obj_style_gen.c **** 
 394:lvgl/lvgl/src/core/lv_obj_style_gen.c **** void lv_obj_set_style_border_width(struct _lv_obj_t * obj, lv_coord_t value, lv_style_selector_t se
 395:lvgl/lvgl/src/core/lv_obj_style_gen.c **** {
 1947              		.loc 1 395 1 is_stmt 1 view -0
 1948              		.cfi_startproc
 1949              		@ args = 0, pretend = 0, frame = 0
 1950              		@ frame_needed = 0, uses_anonymous_args = 0
 1951              		.loc 1 395 1 is_stmt 0 view .LVU352
 1952 0000 08B5     		push	{r3, lr}
 1953              	.LCFI65:
 1954              		.cfi_def_cfa_offset 8
 1955              		.cfi_offset 3, -8
 1956              		.cfi_offset 14, -4
 1957 0002 1346     		mov	r3, r2
 396:lvgl/lvgl/src/core/lv_obj_style_gen.c ****     lv_style_value_t v = {
 1958              		.loc 1 396 5 is_stmt 1 view .LVU353
 397:lvgl/lvgl/src/core/lv_obj_style_gen.c ****         .num = (int32_t)value
 398:lvgl/lvgl/src/core/lv_obj_style_gen.c ****     };
 399:lvgl/lvgl/src/core/lv_obj_style_gen.c ****     lv_obj_set_local_style_prop(obj, LV_STYLE_BORDER_WIDTH, v, selector);
 1959              		.loc 1 399 5 view .LVU354
 1960 0004 0A46     		mov	r2, r1
 1961              	.LVL205:
 1962              		.loc 1 399 5 is_stmt 0 view .LVU355
 1963 0006 41F23201 		movw	r1, #4146
 1964              	.LVL206:
 1965              		.loc 1 399 5 view .LVU356
 1966 000a FFF7FEFF 		bl	lv_obj_set_local_style_prop
 1967              	.LVL207:
 400:lvgl/lvgl/src/core/lv_obj_style_gen.c **** }
 1968              		.loc 1 400 1 view .LVU357
 1969 000e 08BD     		pop	{r3, pc}
 1970              		.cfi_endproc
 1971              	.LFE201:
 1973              		.section	.text.lv_obj_set_style_border_side,"ax",%progbits
 1974              		.align	1
 1975              		.global	lv_obj_set_style_border_side
 1976              		.syntax unified
 1977              		.thumb
 1978              		.thumb_func
 1979              		.fpu fpv4-sp-d16
 1981              	lv_obj_set_style_border_side:
ARM GAS  C:\Users\gx\AppData\Local\Temp\ccBEEQee.s 			page 41


 1982              	.LVL208:
 1983              	.LFB202:
 401:lvgl/lvgl/src/core/lv_obj_style_gen.c **** 
 402:lvgl/lvgl/src/core/lv_obj_style_gen.c **** void lv_obj_set_style_border_side(struct _lv_obj_t * obj, lv_border_side_t value, lv_style_selector
 403:lvgl/lvgl/src/core/lv_obj_style_gen.c **** {
 1984              		.loc 1 403 1 is_stmt 1 view -0
 1985              		.cfi_startproc
 1986              		@ args = 0, pretend = 0, frame = 0
 1987              		@ frame_needed = 0, uses_anonymous_args = 0
 1988              		.loc 1 403 1 is_stmt 0 view .LVU359
 1989 0000 08B5     		push	{r3, lr}
 1990              	.LCFI66:
 1991              		.cfi_def_cfa_offset 8
 1992              		.cfi_offset 3, -8
 1993              		.cfi_offset 14, -4
 1994 0002 1346     		mov	r3, r2
 404:lvgl/lvgl/src/core/lv_obj_style_gen.c ****     lv_style_value_t v = {
 1995              		.loc 1 404 5 is_stmt 1 view .LVU360
 405:lvgl/lvgl/src/core/lv_obj_style_gen.c ****         .num = (int32_t)value
 406:lvgl/lvgl/src/core/lv_obj_style_gen.c ****     };
 407:lvgl/lvgl/src/core/lv_obj_style_gen.c ****     lv_obj_set_local_style_prop(obj, LV_STYLE_BORDER_SIDE, v, selector);
 1996              		.loc 1 407 5 view .LVU361
 1997 0004 0A46     		mov	r2, r1
 1998              	.LVL209:
 1999              		.loc 1 407 5 is_stmt 0 view .LVU362
 2000 0006 3321     		movs	r1, #51
 2001              	.LVL210:
 2002              		.loc 1 407 5 view .LVU363
 2003 0008 FFF7FEFF 		bl	lv_obj_set_local_style_prop
 2004              	.LVL211:
 408:lvgl/lvgl/src/core/lv_obj_style_gen.c **** }
 2005              		.loc 1 408 1 view .LVU364
 2006 000c 08BD     		pop	{r3, pc}
 2007              		.cfi_endproc
 2008              	.LFE202:
 2010              		.section	.text.lv_obj_set_style_border_post,"ax",%progbits
 2011              		.align	1
 2012              		.global	lv_obj_set_style_border_post
 2013              		.syntax unified
 2014              		.thumb
 2015              		.thumb_func
 2016              		.fpu fpv4-sp-d16
 2018              	lv_obj_set_style_border_post:
 2019              	.LVL212:
 2020              	.LFB203:
 409:lvgl/lvgl/src/core/lv_obj_style_gen.c **** 
 410:lvgl/lvgl/src/core/lv_obj_style_gen.c **** void lv_obj_set_style_border_post(struct _lv_obj_t * obj, bool value, lv_style_selector_t selector)
 411:lvgl/lvgl/src/core/lv_obj_style_gen.c **** {
 2021              		.loc 1 411 1 is_stmt 1 view -0
 2022              		.cfi_startproc
 2023              		@ args = 0, pretend = 0, frame = 0
 2024              		@ frame_needed = 0, uses_anonymous_args = 0
 2025              		.loc 1 411 1 is_stmt 0 view .LVU366
 2026 0000 08B5     		push	{r3, lr}
 2027              	.LCFI67:
 2028              		.cfi_def_cfa_offset 8
 2029              		.cfi_offset 3, -8
ARM GAS  C:\Users\gx\AppData\Local\Temp\ccBEEQee.s 			page 42


 2030              		.cfi_offset 14, -4
 2031 0002 1346     		mov	r3, r2
 412:lvgl/lvgl/src/core/lv_obj_style_gen.c ****     lv_style_value_t v = {
 2032              		.loc 1 412 5 is_stmt 1 view .LVU367
 413:lvgl/lvgl/src/core/lv_obj_style_gen.c ****         .num = (int32_t)value
 414:lvgl/lvgl/src/core/lv_obj_style_gen.c ****     };
 415:lvgl/lvgl/src/core/lv_obj_style_gen.c ****     lv_obj_set_local_style_prop(obj, LV_STYLE_BORDER_POST, v, selector);
 2033              		.loc 1 415 5 view .LVU368
 2034 0004 0A46     		mov	r2, r1
 2035              	.LVL213:
 2036              		.loc 1 415 5 is_stmt 0 view .LVU369
 2037 0006 3421     		movs	r1, #52
 2038              	.LVL214:
 2039              		.loc 1 415 5 view .LVU370
 2040 0008 FFF7FEFF 		bl	lv_obj_set_local_style_prop
 2041              	.LVL215:
 416:lvgl/lvgl/src/core/lv_obj_style_gen.c **** }
 2042              		.loc 1 416 1 view .LVU371
 2043 000c 08BD     		pop	{r3, pc}
 2044              		.cfi_endproc
 2045              	.LFE203:
 2047              		.section	.text.lv_obj_set_style_text_color,"ax",%progbits
 2048              		.align	1
 2049              		.global	lv_obj_set_style_text_color
 2050              		.syntax unified
 2051              		.thumb
 2052              		.thumb_func
 2053              		.fpu fpv4-sp-d16
 2055              	lv_obj_set_style_text_color:
 2056              	.LVL216:
 2057              	.LFB204:
 417:lvgl/lvgl/src/core/lv_obj_style_gen.c **** 
 418:lvgl/lvgl/src/core/lv_obj_style_gen.c **** void lv_obj_set_style_text_color(struct _lv_obj_t * obj, lv_color_t value, lv_style_selector_t sele
 419:lvgl/lvgl/src/core/lv_obj_style_gen.c **** {
 2058              		.loc 1 419 1 is_stmt 1 view -0
 2059              		.cfi_startproc
 2060              		@ args = 0, pretend = 0, frame = 8
 2061              		@ frame_needed = 0, uses_anonymous_args = 0
 2062              		.loc 1 419 1 is_stmt 0 view .LVU373
 2063 0000 10B5     		push	{r4, lr}
 2064              	.LCFI68:
 2065              		.cfi_def_cfa_offset 8
 2066              		.cfi_offset 4, -8
 2067              		.cfi_offset 14, -4
 2068 0002 82B0     		sub	sp, sp, #8
 2069              	.LCFI69:
 2070              		.cfi_def_cfa_offset 16
 2071 0004 1346     		mov	r3, r2
 420:lvgl/lvgl/src/core/lv_obj_style_gen.c ****     lv_style_value_t v = {
 2072              		.loc 1 420 5 is_stmt 1 view .LVU374
 2073              		.loc 1 420 22 is_stmt 0 view .LVU375
 2074 0006 0024     		movs	r4, #0
 2075 0008 ADF80040 		strh	r4, [sp]	@ movhi
 2076 000c 2246     		mov	r2, r4
 2077              	.LVL217:
 2078              		.loc 1 420 22 view .LVU376
 2079 000e 64F31F42 		bfi	r2, r4, #16, #16
ARM GAS  C:\Users\gx\AppData\Local\Temp\ccBEEQee.s 			page 43


 2080              	.LVL218:
 2081              		.loc 1 420 22 view .LVU377
 2082 0012 61F30F02 		bfi	r2, r1, #0, #16
 2083              	.LVL219:
 421:lvgl/lvgl/src/core/lv_obj_style_gen.c ****         .color = value
 422:lvgl/lvgl/src/core/lv_obj_style_gen.c ****     };
 423:lvgl/lvgl/src/core/lv_obj_style_gen.c ****     lv_obj_set_local_style_prop(obj, LV_STYLE_TEXT_COLOR, v, selector);
 2084              		.loc 1 423 5 is_stmt 1 view .LVU378
 2085 0016 40F25741 		movw	r1, #1111
 2086 001a FFF7FEFF 		bl	lv_obj_set_local_style_prop
 2087              	.LVL220:
 424:lvgl/lvgl/src/core/lv_obj_style_gen.c **** }
 2088              		.loc 1 424 1 is_stmt 0 view .LVU379
 2089 001e 02B0     		add	sp, sp, #8
 2090              	.LCFI70:
 2091              		.cfi_def_cfa_offset 8
 2092              		@ sp needed
 2093 0020 10BD     		pop	{r4, pc}
 2094              		.cfi_endproc
 2095              	.LFE204:
 2097              		.section	.text.lv_obj_set_style_text_color_filtered,"ax",%progbits
 2098              		.align	1
 2099              		.global	lv_obj_set_style_text_color_filtered
 2100              		.syntax unified
 2101              		.thumb
 2102              		.thumb_func
 2103              		.fpu fpv4-sp-d16
 2105              	lv_obj_set_style_text_color_filtered:
 2106              	.LVL221:
 2107              	.LFB205:
 425:lvgl/lvgl/src/core/lv_obj_style_gen.c **** 
 426:lvgl/lvgl/src/core/lv_obj_style_gen.c **** void lv_obj_set_style_text_color_filtered(struct _lv_obj_t * obj, lv_color_t value, lv_style_select
 427:lvgl/lvgl/src/core/lv_obj_style_gen.c **** {
 2108              		.loc 1 427 1 is_stmt 1 view -0
 2109              		.cfi_startproc
 2110              		@ args = 0, pretend = 0, frame = 8
 2111              		@ frame_needed = 0, uses_anonymous_args = 0
 2112              		.loc 1 427 1 is_stmt 0 view .LVU381
 2113 0000 10B5     		push	{r4, lr}
 2114              	.LCFI71:
 2115              		.cfi_def_cfa_offset 8
 2116              		.cfi_offset 4, -8
 2117              		.cfi_offset 14, -4
 2118 0002 82B0     		sub	sp, sp, #8
 2119              	.LCFI72:
 2120              		.cfi_def_cfa_offset 16
 2121 0004 1346     		mov	r3, r2
 428:lvgl/lvgl/src/core/lv_obj_style_gen.c ****     lv_style_value_t v = {
 2122              		.loc 1 428 5 is_stmt 1 view .LVU382
 2123              		.loc 1 428 22 is_stmt 0 view .LVU383
 2124 0006 0024     		movs	r4, #0
 2125 0008 ADF80040 		strh	r4, [sp]	@ movhi
 2126 000c 2246     		mov	r2, r4
 2127              	.LVL222:
 2128              		.loc 1 428 22 view .LVU384
 2129 000e 64F31F42 		bfi	r2, r4, #16, #16
 2130              	.LVL223:
ARM GAS  C:\Users\gx\AppData\Local\Temp\ccBEEQee.s 			page 44


 2131              		.loc 1 428 22 view .LVU385
 2132 0012 61F30F02 		bfi	r2, r1, #0, #16
 2133              	.LVL224:
 429:lvgl/lvgl/src/core/lv_obj_style_gen.c ****         .color = value
 430:lvgl/lvgl/src/core/lv_obj_style_gen.c ****     };
 431:lvgl/lvgl/src/core/lv_obj_style_gen.c ****     lv_obj_set_local_style_prop(obj, LV_STYLE_TEXT_COLOR_FILTERED, v, selector);
 2134              		.loc 1 431 5 is_stmt 1 view .LVU386
 2135 0016 44F25741 		movw	r1, #17495
 2136 001a FFF7FEFF 		bl	lv_obj_set_local_style_prop
 2137              	.LVL225:
 432:lvgl/lvgl/src/core/lv_obj_style_gen.c **** }
 2138              		.loc 1 432 1 is_stmt 0 view .LVU387
 2139 001e 02B0     		add	sp, sp, #8
 2140              	.LCFI73:
 2141              		.cfi_def_cfa_offset 8
 2142              		@ sp needed
 2143 0020 10BD     		pop	{r4, pc}
 2144              		.cfi_endproc
 2145              	.LFE205:
 2147              		.section	.text.lv_obj_set_style_text_opa,"ax",%progbits
 2148              		.align	1
 2149              		.global	lv_obj_set_style_text_opa
 2150              		.syntax unified
 2151              		.thumb
 2152              		.thumb_func
 2153              		.fpu fpv4-sp-d16
 2155              	lv_obj_set_style_text_opa:
 2156              	.LVL226:
 2157              	.LFB206:
 433:lvgl/lvgl/src/core/lv_obj_style_gen.c **** 
 434:lvgl/lvgl/src/core/lv_obj_style_gen.c **** void lv_obj_set_style_text_opa(struct _lv_obj_t * obj, lv_opa_t value, lv_style_selector_t selector
 435:lvgl/lvgl/src/core/lv_obj_style_gen.c **** {
 2158              		.loc 1 435 1 is_stmt 1 view -0
 2159              		.cfi_startproc
 2160              		@ args = 0, pretend = 0, frame = 0
 2161              		@ frame_needed = 0, uses_anonymous_args = 0
 2162              		.loc 1 435 1 is_stmt 0 view .LVU389
 2163 0000 08B5     		push	{r3, lr}
 2164              	.LCFI74:
 2165              		.cfi_def_cfa_offset 8
 2166              		.cfi_offset 3, -8
 2167              		.cfi_offset 14, -4
 2168 0002 1346     		mov	r3, r2
 436:lvgl/lvgl/src/core/lv_obj_style_gen.c ****     lv_style_value_t v = {
 2169              		.loc 1 436 5 is_stmt 1 view .LVU390
 437:lvgl/lvgl/src/core/lv_obj_style_gen.c ****         .num = (int32_t)value
 438:lvgl/lvgl/src/core/lv_obj_style_gen.c ****     };
 439:lvgl/lvgl/src/core/lv_obj_style_gen.c ****     lv_obj_set_local_style_prop(obj, LV_STYLE_TEXT_OPA, v, selector);
 2170              		.loc 1 439 5 view .LVU391
 2171 0004 0A46     		mov	r2, r1
 2172              	.LVL227:
 2173              		.loc 1 439 5 is_stmt 0 view .LVU392
 2174 0006 4FF48B61 		mov	r1, #1112
 2175              	.LVL228:
 2176              		.loc 1 439 5 view .LVU393
 2177 000a FFF7FEFF 		bl	lv_obj_set_local_style_prop
 2178              	.LVL229:
ARM GAS  C:\Users\gx\AppData\Local\Temp\ccBEEQee.s 			page 45


 440:lvgl/lvgl/src/core/lv_obj_style_gen.c **** }
 2179              		.loc 1 440 1 view .LVU394
 2180 000e 08BD     		pop	{r3, pc}
 2181              		.cfi_endproc
 2182              	.LFE206:
 2184              		.section	.text.lv_obj_set_style_text_font,"ax",%progbits
 2185              		.align	1
 2186              		.global	lv_obj_set_style_text_font
 2187              		.syntax unified
 2188              		.thumb
 2189              		.thumb_func
 2190              		.fpu fpv4-sp-d16
 2192              	lv_obj_set_style_text_font:
 2193              	.LVL230:
 2194              	.LFB207:
 441:lvgl/lvgl/src/core/lv_obj_style_gen.c **** 
 442:lvgl/lvgl/src/core/lv_obj_style_gen.c **** void lv_obj_set_style_text_font(struct _lv_obj_t * obj, const lv_font_t * value, lv_style_selector_
 443:lvgl/lvgl/src/core/lv_obj_style_gen.c **** {
 2195              		.loc 1 443 1 is_stmt 1 view -0
 2196              		.cfi_startproc
 2197              		@ args = 0, pretend = 0, frame = 0
 2198              		@ frame_needed = 0, uses_anonymous_args = 0
 2199              		.loc 1 443 1 is_stmt 0 view .LVU396
 2200 0000 08B5     		push	{r3, lr}
 2201              	.LCFI75:
 2202              		.cfi_def_cfa_offset 8
 2203              		.cfi_offset 3, -8
 2204              		.cfi_offset 14, -4
 2205 0002 1346     		mov	r3, r2
 444:lvgl/lvgl/src/core/lv_obj_style_gen.c ****     lv_style_value_t v = {
 2206              		.loc 1 444 5 is_stmt 1 view .LVU397
 445:lvgl/lvgl/src/core/lv_obj_style_gen.c ****         .ptr = value
 446:lvgl/lvgl/src/core/lv_obj_style_gen.c ****     };
 447:lvgl/lvgl/src/core/lv_obj_style_gen.c ****     lv_obj_set_local_style_prop(obj, LV_STYLE_TEXT_FONT, v, selector);
 2207              		.loc 1 447 5 view .LVU398
 2208 0004 0A46     		mov	r2, r1
 2209              	.LVL231:
 2210              		.loc 1 447 5 is_stmt 0 view .LVU399
 2211 0006 41F25941 		movw	r1, #5209
 2212              	.LVL232:
 2213              		.loc 1 447 5 view .LVU400
 2214 000a FFF7FEFF 		bl	lv_obj_set_local_style_prop
 2215              	.LVL233:
 448:lvgl/lvgl/src/core/lv_obj_style_gen.c **** }
 2216              		.loc 1 448 1 view .LVU401
 2217 000e 08BD     		pop	{r3, pc}
 2218              		.cfi_endproc
 2219              	.LFE207:
 2221              		.section	.text.lv_obj_set_style_text_letter_space,"ax",%progbits
 2222              		.align	1
 2223              		.global	lv_obj_set_style_text_letter_space
 2224              		.syntax unified
 2225              		.thumb
 2226              		.thumb_func
 2227              		.fpu fpv4-sp-d16
 2229              	lv_obj_set_style_text_letter_space:
 2230              	.LVL234:
ARM GAS  C:\Users\gx\AppData\Local\Temp\ccBEEQee.s 			page 46


 2231              	.LFB208:
 449:lvgl/lvgl/src/core/lv_obj_style_gen.c **** 
 450:lvgl/lvgl/src/core/lv_obj_style_gen.c **** void lv_obj_set_style_text_letter_space(struct _lv_obj_t * obj, lv_coord_t value, lv_style_selector
 451:lvgl/lvgl/src/core/lv_obj_style_gen.c **** {
 2232              		.loc 1 451 1 is_stmt 1 view -0
 2233              		.cfi_startproc
 2234              		@ args = 0, pretend = 0, frame = 0
 2235              		@ frame_needed = 0, uses_anonymous_args = 0
 2236              		.loc 1 451 1 is_stmt 0 view .LVU403
 2237 0000 08B5     		push	{r3, lr}
 2238              	.LCFI76:
 2239              		.cfi_def_cfa_offset 8
 2240              		.cfi_offset 3, -8
 2241              		.cfi_offset 14, -4
 2242 0002 1346     		mov	r3, r2
 452:lvgl/lvgl/src/core/lv_obj_style_gen.c ****     lv_style_value_t v = {
 2243              		.loc 1 452 5 is_stmt 1 view .LVU404
 453:lvgl/lvgl/src/core/lv_obj_style_gen.c ****         .num = (int32_t)value
 454:lvgl/lvgl/src/core/lv_obj_style_gen.c ****     };
 455:lvgl/lvgl/src/core/lv_obj_style_gen.c ****     lv_obj_set_local_style_prop(obj, LV_STYLE_TEXT_LETTER_SPACE, v, selector);
 2244              		.loc 1 455 5 view .LVU405
 2245 0004 0A46     		mov	r2, r1
 2246              	.LVL235:
 2247              		.loc 1 455 5 is_stmt 0 view .LVU406
 2248 0006 41F25A41 		movw	r1, #5210
 2249              	.LVL236:
 2250              		.loc 1 455 5 view .LVU407
 2251 000a FFF7FEFF 		bl	lv_obj_set_local_style_prop
 2252              	.LVL237:
 456:lvgl/lvgl/src/core/lv_obj_style_gen.c **** }
 2253              		.loc 1 456 1 view .LVU408
 2254 000e 08BD     		pop	{r3, pc}
 2255              		.cfi_endproc
 2256              	.LFE208:
 2258              		.section	.text.lv_obj_set_style_text_line_space,"ax",%progbits
 2259              		.align	1
 2260              		.global	lv_obj_set_style_text_line_space
 2261              		.syntax unified
 2262              		.thumb
 2263              		.thumb_func
 2264              		.fpu fpv4-sp-d16
 2266              	lv_obj_set_style_text_line_space:
 2267              	.LVL238:
 2268              	.LFB209:
 457:lvgl/lvgl/src/core/lv_obj_style_gen.c **** 
 458:lvgl/lvgl/src/core/lv_obj_style_gen.c **** void lv_obj_set_style_text_line_space(struct _lv_obj_t * obj, lv_coord_t value, lv_style_selector_t
 459:lvgl/lvgl/src/core/lv_obj_style_gen.c **** {
 2269              		.loc 1 459 1 is_stmt 1 view -0
 2270              		.cfi_startproc
 2271              		@ args = 0, pretend = 0, frame = 0
 2272              		@ frame_needed = 0, uses_anonymous_args = 0
 2273              		.loc 1 459 1 is_stmt 0 view .LVU410
 2274 0000 08B5     		push	{r3, lr}
 2275              	.LCFI77:
 2276              		.cfi_def_cfa_offset 8
 2277              		.cfi_offset 3, -8
 2278              		.cfi_offset 14, -4
ARM GAS  C:\Users\gx\AppData\Local\Temp\ccBEEQee.s 			page 47


 2279 0002 1346     		mov	r3, r2
 460:lvgl/lvgl/src/core/lv_obj_style_gen.c ****     lv_style_value_t v = {
 2280              		.loc 1 460 5 is_stmt 1 view .LVU411
 461:lvgl/lvgl/src/core/lv_obj_style_gen.c ****         .num = (int32_t)value
 462:lvgl/lvgl/src/core/lv_obj_style_gen.c ****     };
 463:lvgl/lvgl/src/core/lv_obj_style_gen.c ****     lv_obj_set_local_style_prop(obj, LV_STYLE_TEXT_LINE_SPACE, v, selector);
 2281              		.loc 1 463 5 view .LVU412
 2282 0004 0A46     		mov	r2, r1
 2283              	.LVL239:
 2284              		.loc 1 463 5 is_stmt 0 view .LVU413
 2285 0006 41F25B41 		movw	r1, #5211
 2286              	.LVL240:
 2287              		.loc 1 463 5 view .LVU414
 2288 000a FFF7FEFF 		bl	lv_obj_set_local_style_prop
 2289              	.LVL241:
 464:lvgl/lvgl/src/core/lv_obj_style_gen.c **** }
 2290              		.loc 1 464 1 view .LVU415
 2291 000e 08BD     		pop	{r3, pc}
 2292              		.cfi_endproc
 2293              	.LFE209:
 2295              		.section	.text.lv_obj_set_style_text_decor,"ax",%progbits
 2296              		.align	1
 2297              		.global	lv_obj_set_style_text_decor
 2298              		.syntax unified
 2299              		.thumb
 2300              		.thumb_func
 2301              		.fpu fpv4-sp-d16
 2303              	lv_obj_set_style_text_decor:
 2304              	.LVL242:
 2305              	.LFB210:
 465:lvgl/lvgl/src/core/lv_obj_style_gen.c **** 
 466:lvgl/lvgl/src/core/lv_obj_style_gen.c **** void lv_obj_set_style_text_decor(struct _lv_obj_t * obj, lv_text_decor_t value, lv_style_selector_t
 467:lvgl/lvgl/src/core/lv_obj_style_gen.c **** {
 2306              		.loc 1 467 1 is_stmt 1 view -0
 2307              		.cfi_startproc
 2308              		@ args = 0, pretend = 0, frame = 0
 2309              		@ frame_needed = 0, uses_anonymous_args = 0
 2310              		.loc 1 467 1 is_stmt 0 view .LVU417
 2311 0000 08B5     		push	{r3, lr}
 2312              	.LCFI78:
 2313              		.cfi_def_cfa_offset 8
 2314              		.cfi_offset 3, -8
 2315              		.cfi_offset 14, -4
 2316 0002 1346     		mov	r3, r2
 468:lvgl/lvgl/src/core/lv_obj_style_gen.c ****     lv_style_value_t v = {
 2317              		.loc 1 468 5 is_stmt 1 view .LVU418
 469:lvgl/lvgl/src/core/lv_obj_style_gen.c ****         .num = (int32_t)value
 470:lvgl/lvgl/src/core/lv_obj_style_gen.c ****     };
 471:lvgl/lvgl/src/core/lv_obj_style_gen.c ****     lv_obj_set_local_style_prop(obj, LV_STYLE_TEXT_DECOR, v, selector);
 2318              		.loc 1 471 5 view .LVU419
 2319 0004 0A46     		mov	r2, r1
 2320              	.LVL243:
 2321              		.loc 1 471 5 is_stmt 0 view .LVU420
 2322 0006 40F25C41 		movw	r1, #1116
 2323              	.LVL244:
 2324              		.loc 1 471 5 view .LVU421
 2325 000a FFF7FEFF 		bl	lv_obj_set_local_style_prop
ARM GAS  C:\Users\gx\AppData\Local\Temp\ccBEEQee.s 			page 48


 2326              	.LVL245:
 472:lvgl/lvgl/src/core/lv_obj_style_gen.c **** }
 2327              		.loc 1 472 1 view .LVU422
 2328 000e 08BD     		pop	{r3, pc}
 2329              		.cfi_endproc
 2330              	.LFE210:
 2332              		.section	.text.lv_obj_set_style_text_align,"ax",%progbits
 2333              		.align	1
 2334              		.global	lv_obj_set_style_text_align
 2335              		.syntax unified
 2336              		.thumb
 2337              		.thumb_func
 2338              		.fpu fpv4-sp-d16
 2340              	lv_obj_set_style_text_align:
 2341              	.LVL246:
 2342              	.LFB211:
 473:lvgl/lvgl/src/core/lv_obj_style_gen.c **** 
 474:lvgl/lvgl/src/core/lv_obj_style_gen.c **** void lv_obj_set_style_text_align(struct _lv_obj_t * obj, lv_text_align_t value, lv_style_selector_t
 475:lvgl/lvgl/src/core/lv_obj_style_gen.c **** {
 2343              		.loc 1 475 1 is_stmt 1 view -0
 2344              		.cfi_startproc
 2345              		@ args = 0, pretend = 0, frame = 0
 2346              		@ frame_needed = 0, uses_anonymous_args = 0
 2347              		.loc 1 475 1 is_stmt 0 view .LVU424
 2348 0000 08B5     		push	{r3, lr}
 2349              	.LCFI79:
 2350              		.cfi_def_cfa_offset 8
 2351              		.cfi_offset 3, -8
 2352              		.cfi_offset 14, -4
 2353 0002 1346     		mov	r3, r2
 476:lvgl/lvgl/src/core/lv_obj_style_gen.c ****     lv_style_value_t v = {
 2354              		.loc 1 476 5 is_stmt 1 view .LVU425
 477:lvgl/lvgl/src/core/lv_obj_style_gen.c ****         .num = (int32_t)value
 478:lvgl/lvgl/src/core/lv_obj_style_gen.c ****     };
 479:lvgl/lvgl/src/core/lv_obj_style_gen.c ****     lv_obj_set_local_style_prop(obj, LV_STYLE_TEXT_ALIGN, v, selector);
 2355              		.loc 1 479 5 view .LVU426
 2356 0004 0A46     		mov	r2, r1
 2357              	.LVL247:
 2358              		.loc 1 479 5 is_stmt 0 view .LVU427
 2359 0006 41F25D41 		movw	r1, #5213
 2360              	.LVL248:
 2361              		.loc 1 479 5 view .LVU428
 2362 000a FFF7FEFF 		bl	lv_obj_set_local_style_prop
 2363              	.LVL249:
 480:lvgl/lvgl/src/core/lv_obj_style_gen.c **** }
 2364              		.loc 1 480 1 view .LVU429
 2365 000e 08BD     		pop	{r3, pc}
 2366              		.cfi_endproc
 2367              	.LFE211:
 2369              		.section	.text.lv_obj_set_style_img_opa,"ax",%progbits
 2370              		.align	1
 2371              		.global	lv_obj_set_style_img_opa
 2372              		.syntax unified
 2373              		.thumb
 2374              		.thumb_func
 2375              		.fpu fpv4-sp-d16
 2377              	lv_obj_set_style_img_opa:
ARM GAS  C:\Users\gx\AppData\Local\Temp\ccBEEQee.s 			page 49


 2378              	.LVL250:
 2379              	.LFB212:
 481:lvgl/lvgl/src/core/lv_obj_style_gen.c **** 
 482:lvgl/lvgl/src/core/lv_obj_style_gen.c **** void lv_obj_set_style_img_opa(struct _lv_obj_t * obj, lv_opa_t value, lv_style_selector_t selector)
 483:lvgl/lvgl/src/core/lv_obj_style_gen.c **** {
 2380              		.loc 1 483 1 is_stmt 1 view -0
 2381              		.cfi_startproc
 2382              		@ args = 0, pretend = 0, frame = 0
 2383              		@ frame_needed = 0, uses_anonymous_args = 0
 2384              		.loc 1 483 1 is_stmt 0 view .LVU431
 2385 0000 08B5     		push	{r3, lr}
 2386              	.LCFI80:
 2387              		.cfi_def_cfa_offset 8
 2388              		.cfi_offset 3, -8
 2389              		.cfi_offset 14, -4
 2390 0002 1346     		mov	r3, r2
 484:lvgl/lvgl/src/core/lv_obj_style_gen.c ****     lv_style_value_t v = {
 2391              		.loc 1 484 5 is_stmt 1 view .LVU432
 485:lvgl/lvgl/src/core/lv_obj_style_gen.c ****         .num = (int32_t)value
 486:lvgl/lvgl/src/core/lv_obj_style_gen.c ****     };
 487:lvgl/lvgl/src/core/lv_obj_style_gen.c ****     lv_obj_set_local_style_prop(obj, LV_STYLE_IMG_OPA, v, selector);
 2392              		.loc 1 487 5 view .LVU433
 2393 0004 0A46     		mov	r2, r1
 2394              	.LVL251:
 2395              		.loc 1 487 5 is_stmt 0 view .LVU434
 2396 0006 4621     		movs	r1, #70
 2397              	.LVL252:
 2398              		.loc 1 487 5 view .LVU435
 2399 0008 FFF7FEFF 		bl	lv_obj_set_local_style_prop
 2400              	.LVL253:
 488:lvgl/lvgl/src/core/lv_obj_style_gen.c **** }
 2401              		.loc 1 488 1 view .LVU436
 2402 000c 08BD     		pop	{r3, pc}
 2403              		.cfi_endproc
 2404              	.LFE212:
 2406              		.section	.text.lv_obj_set_style_img_recolor,"ax",%progbits
 2407              		.align	1
 2408              		.global	lv_obj_set_style_img_recolor
 2409              		.syntax unified
 2410              		.thumb
 2411              		.thumb_func
 2412              		.fpu fpv4-sp-d16
 2414              	lv_obj_set_style_img_recolor:
 2415              	.LVL254:
 2416              	.LFB213:
 489:lvgl/lvgl/src/core/lv_obj_style_gen.c **** 
 490:lvgl/lvgl/src/core/lv_obj_style_gen.c **** void lv_obj_set_style_img_recolor(struct _lv_obj_t * obj, lv_color_t value, lv_style_selector_t sel
 491:lvgl/lvgl/src/core/lv_obj_style_gen.c **** {
 2417              		.loc 1 491 1 is_stmt 1 view -0
 2418              		.cfi_startproc
 2419              		@ args = 0, pretend = 0, frame = 8
 2420              		@ frame_needed = 0, uses_anonymous_args = 0
 2421              		.loc 1 491 1 is_stmt 0 view .LVU438
 2422 0000 10B5     		push	{r4, lr}
 2423              	.LCFI81:
 2424              		.cfi_def_cfa_offset 8
 2425              		.cfi_offset 4, -8
ARM GAS  C:\Users\gx\AppData\Local\Temp\ccBEEQee.s 			page 50


 2426              		.cfi_offset 14, -4
 2427 0002 82B0     		sub	sp, sp, #8
 2428              	.LCFI82:
 2429              		.cfi_def_cfa_offset 16
 2430 0004 1346     		mov	r3, r2
 492:lvgl/lvgl/src/core/lv_obj_style_gen.c ****     lv_style_value_t v = {
 2431              		.loc 1 492 5 is_stmt 1 view .LVU439
 2432              		.loc 1 492 22 is_stmt 0 view .LVU440
 2433 0006 0024     		movs	r4, #0
 2434 0008 ADF80040 		strh	r4, [sp]	@ movhi
 2435 000c 2246     		mov	r2, r4
 2436              	.LVL255:
 2437              		.loc 1 492 22 view .LVU441
 2438 000e 64F31F42 		bfi	r2, r4, #16, #16
 2439              	.LVL256:
 2440              		.loc 1 492 22 view .LVU442
 2441 0012 61F30F02 		bfi	r2, r1, #0, #16
 2442              	.LVL257:
 493:lvgl/lvgl/src/core/lv_obj_style_gen.c ****         .color = value
 494:lvgl/lvgl/src/core/lv_obj_style_gen.c ****     };
 495:lvgl/lvgl/src/core/lv_obj_style_gen.c ****     lv_obj_set_local_style_prop(obj, LV_STYLE_IMG_RECOLOR, v, selector);
 2443              		.loc 1 495 5 is_stmt 1 view .LVU443
 2444 0016 4721     		movs	r1, #71
 2445 0018 FFF7FEFF 		bl	lv_obj_set_local_style_prop
 2446              	.LVL258:
 496:lvgl/lvgl/src/core/lv_obj_style_gen.c **** }
 2447              		.loc 1 496 1 is_stmt 0 view .LVU444
 2448 001c 02B0     		add	sp, sp, #8
 2449              	.LCFI83:
 2450              		.cfi_def_cfa_offset 8
 2451              		@ sp needed
 2452 001e 10BD     		pop	{r4, pc}
 2453              		.cfi_endproc
 2454              	.LFE213:
 2456              		.section	.text.lv_obj_set_style_img_recolor_filtered,"ax",%progbits
 2457              		.align	1
 2458              		.global	lv_obj_set_style_img_recolor_filtered
 2459              		.syntax unified
 2460              		.thumb
 2461              		.thumb_func
 2462              		.fpu fpv4-sp-d16
 2464              	lv_obj_set_style_img_recolor_filtered:
 2465              	.LVL259:
 2466              	.LFB214:
 497:lvgl/lvgl/src/core/lv_obj_style_gen.c **** 
 498:lvgl/lvgl/src/core/lv_obj_style_gen.c **** void lv_obj_set_style_img_recolor_filtered(struct _lv_obj_t * obj, lv_color_t value, lv_style_selec
 499:lvgl/lvgl/src/core/lv_obj_style_gen.c **** {
 2467              		.loc 1 499 1 is_stmt 1 view -0
 2468              		.cfi_startproc
 2469              		@ args = 0, pretend = 0, frame = 8
 2470              		@ frame_needed = 0, uses_anonymous_args = 0
 2471              		.loc 1 499 1 is_stmt 0 view .LVU446
 2472 0000 10B5     		push	{r4, lr}
 2473              	.LCFI84:
 2474              		.cfi_def_cfa_offset 8
 2475              		.cfi_offset 4, -8
 2476              		.cfi_offset 14, -4
ARM GAS  C:\Users\gx\AppData\Local\Temp\ccBEEQee.s 			page 51


 2477 0002 82B0     		sub	sp, sp, #8
 2478              	.LCFI85:
 2479              		.cfi_def_cfa_offset 16
 2480 0004 1346     		mov	r3, r2
 500:lvgl/lvgl/src/core/lv_obj_style_gen.c ****     lv_style_value_t v = {
 2481              		.loc 1 500 5 is_stmt 1 view .LVU447
 2482              		.loc 1 500 22 is_stmt 0 view .LVU448
 2483 0006 0024     		movs	r4, #0
 2484 0008 ADF80040 		strh	r4, [sp]	@ movhi
 2485 000c 2246     		mov	r2, r4
 2486              	.LVL260:
 2487              		.loc 1 500 22 view .LVU449
 2488 000e 64F31F42 		bfi	r2, r4, #16, #16
 2489              	.LVL261:
 2490              		.loc 1 500 22 view .LVU450
 2491 0012 61F30F02 		bfi	r2, r1, #0, #16
 2492              	.LVL262:
 501:lvgl/lvgl/src/core/lv_obj_style_gen.c ****         .color = value
 502:lvgl/lvgl/src/core/lv_obj_style_gen.c ****     };
 503:lvgl/lvgl/src/core/lv_obj_style_gen.c ****     lv_obj_set_local_style_prop(obj, LV_STYLE_IMG_RECOLOR_FILTERED, v, selector);
 2493              		.loc 1 503 5 is_stmt 1 view .LVU451
 2494 0016 44F24701 		movw	r1, #16455
 2495 001a FFF7FEFF 		bl	lv_obj_set_local_style_prop
 2496              	.LVL263:
 504:lvgl/lvgl/src/core/lv_obj_style_gen.c **** }
 2497              		.loc 1 504 1 is_stmt 0 view .LVU452
 2498 001e 02B0     		add	sp, sp, #8
 2499              	.LCFI86:
 2500              		.cfi_def_cfa_offset 8
 2501              		@ sp needed
 2502 0020 10BD     		pop	{r4, pc}
 2503              		.cfi_endproc
 2504              	.LFE214:
 2506              		.section	.text.lv_obj_set_style_img_recolor_opa,"ax",%progbits
 2507              		.align	1
 2508              		.global	lv_obj_set_style_img_recolor_opa
 2509              		.syntax unified
 2510              		.thumb
 2511              		.thumb_func
 2512              		.fpu fpv4-sp-d16
 2514              	lv_obj_set_style_img_recolor_opa:
 2515              	.LVL264:
 2516              	.LFB215:
 505:lvgl/lvgl/src/core/lv_obj_style_gen.c **** 
 506:lvgl/lvgl/src/core/lv_obj_style_gen.c **** void lv_obj_set_style_img_recolor_opa(struct _lv_obj_t * obj, lv_opa_t value, lv_style_selector_t s
 507:lvgl/lvgl/src/core/lv_obj_style_gen.c **** {
 2517              		.loc 1 507 1 is_stmt 1 view -0
 2518              		.cfi_startproc
 2519              		@ args = 0, pretend = 0, frame = 0
 2520              		@ frame_needed = 0, uses_anonymous_args = 0
 2521              		.loc 1 507 1 is_stmt 0 view .LVU454
 2522 0000 08B5     		push	{r3, lr}
 2523              	.LCFI87:
 2524              		.cfi_def_cfa_offset 8
 2525              		.cfi_offset 3, -8
 2526              		.cfi_offset 14, -4
 2527 0002 1346     		mov	r3, r2
ARM GAS  C:\Users\gx\AppData\Local\Temp\ccBEEQee.s 			page 52


 508:lvgl/lvgl/src/core/lv_obj_style_gen.c ****     lv_style_value_t v = {
 2528              		.loc 1 508 5 is_stmt 1 view .LVU455
 509:lvgl/lvgl/src/core/lv_obj_style_gen.c ****         .num = (int32_t)value
 510:lvgl/lvgl/src/core/lv_obj_style_gen.c ****     };
 511:lvgl/lvgl/src/core/lv_obj_style_gen.c ****     lv_obj_set_local_style_prop(obj, LV_STYLE_IMG_RECOLOR_OPA, v, selector);
 2529              		.loc 1 511 5 view .LVU456
 2530 0004 0A46     		mov	r2, r1
 2531              	.LVL265:
 2532              		.loc 1 511 5 is_stmt 0 view .LVU457
 2533 0006 4821     		movs	r1, #72
 2534              	.LVL266:
 2535              		.loc 1 511 5 view .LVU458
 2536 0008 FFF7FEFF 		bl	lv_obj_set_local_style_prop
 2537              	.LVL267:
 512:lvgl/lvgl/src/core/lv_obj_style_gen.c **** }
 2538              		.loc 1 512 1 view .LVU459
 2539 000c 08BD     		pop	{r3, pc}
 2540              		.cfi_endproc
 2541              	.LFE215:
 2543              		.section	.text.lv_obj_set_style_outline_width,"ax",%progbits
 2544              		.align	1
 2545              		.global	lv_obj_set_style_outline_width
 2546              		.syntax unified
 2547              		.thumb
 2548              		.thumb_func
 2549              		.fpu fpv4-sp-d16
 2551              	lv_obj_set_style_outline_width:
 2552              	.LVL268:
 2553              	.LFB216:
 513:lvgl/lvgl/src/core/lv_obj_style_gen.c **** 
 514:lvgl/lvgl/src/core/lv_obj_style_gen.c **** void lv_obj_set_style_outline_width(struct _lv_obj_t * obj, lv_coord_t value, lv_style_selector_t s
 515:lvgl/lvgl/src/core/lv_obj_style_gen.c **** {
 2554              		.loc 1 515 1 is_stmt 1 view -0
 2555              		.cfi_startproc
 2556              		@ args = 0, pretend = 0, frame = 0
 2557              		@ frame_needed = 0, uses_anonymous_args = 0
 2558              		.loc 1 515 1 is_stmt 0 view .LVU461
 2559 0000 08B5     		push	{r3, lr}
 2560              	.LCFI88:
 2561              		.cfi_def_cfa_offset 8
 2562              		.cfi_offset 3, -8
 2563              		.cfi_offset 14, -4
 2564 0002 1346     		mov	r3, r2
 516:lvgl/lvgl/src/core/lv_obj_style_gen.c ****     lv_style_value_t v = {
 2565              		.loc 1 516 5 is_stmt 1 view .LVU462
 517:lvgl/lvgl/src/core/lv_obj_style_gen.c ****         .num = (int32_t)value
 518:lvgl/lvgl/src/core/lv_obj_style_gen.c ****     };
 519:lvgl/lvgl/src/core/lv_obj_style_gen.c ****     lv_obj_set_local_style_prop(obj, LV_STYLE_OUTLINE_WIDTH, v, selector);
 2566              		.loc 1 519 5 view .LVU463
 2567 0004 0A46     		mov	r2, r1
 2568              	.LVL269:
 2569              		.loc 1 519 5 is_stmt 0 view .LVU464
 2570 0006 40F63A01 		movw	r1, #2106
 2571              	.LVL270:
 2572              		.loc 1 519 5 view .LVU465
 2573 000a FFF7FEFF 		bl	lv_obj_set_local_style_prop
 2574              	.LVL271:
ARM GAS  C:\Users\gx\AppData\Local\Temp\ccBEEQee.s 			page 53


 520:lvgl/lvgl/src/core/lv_obj_style_gen.c **** }
 2575              		.loc 1 520 1 view .LVU466
 2576 000e 08BD     		pop	{r3, pc}
 2577              		.cfi_endproc
 2578              	.LFE216:
 2580              		.section	.text.lv_obj_set_style_outline_color,"ax",%progbits
 2581              		.align	1
 2582              		.global	lv_obj_set_style_outline_color
 2583              		.syntax unified
 2584              		.thumb
 2585              		.thumb_func
 2586              		.fpu fpv4-sp-d16
 2588              	lv_obj_set_style_outline_color:
 2589              	.LVL272:
 2590              	.LFB217:
 521:lvgl/lvgl/src/core/lv_obj_style_gen.c **** 
 522:lvgl/lvgl/src/core/lv_obj_style_gen.c **** void lv_obj_set_style_outline_color(struct _lv_obj_t * obj, lv_color_t value, lv_style_selector_t s
 523:lvgl/lvgl/src/core/lv_obj_style_gen.c **** {
 2591              		.loc 1 523 1 is_stmt 1 view -0
 2592              		.cfi_startproc
 2593              		@ args = 0, pretend = 0, frame = 8
 2594              		@ frame_needed = 0, uses_anonymous_args = 0
 2595              		.loc 1 523 1 is_stmt 0 view .LVU468
 2596 0000 10B5     		push	{r4, lr}
 2597              	.LCFI89:
 2598              		.cfi_def_cfa_offset 8
 2599              		.cfi_offset 4, -8
 2600              		.cfi_offset 14, -4
 2601 0002 82B0     		sub	sp, sp, #8
 2602              	.LCFI90:
 2603              		.cfi_def_cfa_offset 16
 2604 0004 1346     		mov	r3, r2
 524:lvgl/lvgl/src/core/lv_obj_style_gen.c ****     lv_style_value_t v = {
 2605              		.loc 1 524 5 is_stmt 1 view .LVU469
 2606              		.loc 1 524 22 is_stmt 0 view .LVU470
 2607 0006 0024     		movs	r4, #0
 2608 0008 ADF80040 		strh	r4, [sp]	@ movhi
 2609 000c 2246     		mov	r2, r4
 2610              	.LVL273:
 2611              		.loc 1 524 22 view .LVU471
 2612 000e 64F31F42 		bfi	r2, r4, #16, #16
 2613              	.LVL274:
 2614              		.loc 1 524 22 view .LVU472
 2615 0012 61F30F02 		bfi	r2, r1, #0, #16
 2616              	.LVL275:
 525:lvgl/lvgl/src/core/lv_obj_style_gen.c ****         .color = value
 526:lvgl/lvgl/src/core/lv_obj_style_gen.c ****     };
 527:lvgl/lvgl/src/core/lv_obj_style_gen.c ****     lv_obj_set_local_style_prop(obj, LV_STYLE_OUTLINE_COLOR, v, selector);
 2617              		.loc 1 527 5 is_stmt 1 view .LVU473
 2618 0016 3B21     		movs	r1, #59
 2619 0018 FFF7FEFF 		bl	lv_obj_set_local_style_prop
 2620              	.LVL276:
 528:lvgl/lvgl/src/core/lv_obj_style_gen.c **** }
 2621              		.loc 1 528 1 is_stmt 0 view .LVU474
 2622 001c 02B0     		add	sp, sp, #8
 2623              	.LCFI91:
 2624              		.cfi_def_cfa_offset 8
ARM GAS  C:\Users\gx\AppData\Local\Temp\ccBEEQee.s 			page 54


 2625              		@ sp needed
 2626 001e 10BD     		pop	{r4, pc}
 2627              		.cfi_endproc
 2628              	.LFE217:
 2630              		.section	.text.lv_obj_set_style_outline_color_filtered,"ax",%progbits
 2631              		.align	1
 2632              		.global	lv_obj_set_style_outline_color_filtered
 2633              		.syntax unified
 2634              		.thumb
 2635              		.thumb_func
 2636              		.fpu fpv4-sp-d16
 2638              	lv_obj_set_style_outline_color_filtered:
 2639              	.LVL277:
 2640              	.LFB218:
 529:lvgl/lvgl/src/core/lv_obj_style_gen.c **** 
 530:lvgl/lvgl/src/core/lv_obj_style_gen.c **** void lv_obj_set_style_outline_color_filtered(struct _lv_obj_t * obj, lv_color_t value, lv_style_sel
 531:lvgl/lvgl/src/core/lv_obj_style_gen.c **** {
 2641              		.loc 1 531 1 is_stmt 1 view -0
 2642              		.cfi_startproc
 2643              		@ args = 0, pretend = 0, frame = 8
 2644              		@ frame_needed = 0, uses_anonymous_args = 0
 2645              		.loc 1 531 1 is_stmt 0 view .LVU476
 2646 0000 10B5     		push	{r4, lr}
 2647              	.LCFI92:
 2648              		.cfi_def_cfa_offset 8
 2649              		.cfi_offset 4, -8
 2650              		.cfi_offset 14, -4
 2651 0002 82B0     		sub	sp, sp, #8
 2652              	.LCFI93:
 2653              		.cfi_def_cfa_offset 16
 2654 0004 1346     		mov	r3, r2
 532:lvgl/lvgl/src/core/lv_obj_style_gen.c ****     lv_style_value_t v = {
 2655              		.loc 1 532 5 is_stmt 1 view .LVU477
 2656              		.loc 1 532 22 is_stmt 0 view .LVU478
 2657 0006 0024     		movs	r4, #0
 2658 0008 ADF80040 		strh	r4, [sp]	@ movhi
 2659 000c 2246     		mov	r2, r4
 2660              	.LVL278:
 2661              		.loc 1 532 22 view .LVU479
 2662 000e 64F31F42 		bfi	r2, r4, #16, #16
 2663              	.LVL279:
 2664              		.loc 1 532 22 view .LVU480
 2665 0012 61F30F02 		bfi	r2, r1, #0, #16
 2666              	.LVL280:
 533:lvgl/lvgl/src/core/lv_obj_style_gen.c ****         .color = value
 534:lvgl/lvgl/src/core/lv_obj_style_gen.c ****     };
 535:lvgl/lvgl/src/core/lv_obj_style_gen.c ****     lv_obj_set_local_style_prop(obj, LV_STYLE_OUTLINE_COLOR_FILTERED, v, selector);
 2667              		.loc 1 535 5 is_stmt 1 view .LVU481
 2668 0016 44F23B01 		movw	r1, #16443
 2669 001a FFF7FEFF 		bl	lv_obj_set_local_style_prop
 2670              	.LVL281:
 536:lvgl/lvgl/src/core/lv_obj_style_gen.c **** }
 2671              		.loc 1 536 1 is_stmt 0 view .LVU482
 2672 001e 02B0     		add	sp, sp, #8
 2673              	.LCFI94:
 2674              		.cfi_def_cfa_offset 8
 2675              		@ sp needed
ARM GAS  C:\Users\gx\AppData\Local\Temp\ccBEEQee.s 			page 55


 2676 0020 10BD     		pop	{r4, pc}
 2677              		.cfi_endproc
 2678              	.LFE218:
 2680              		.section	.text.lv_obj_set_style_outline_opa,"ax",%progbits
 2681              		.align	1
 2682              		.global	lv_obj_set_style_outline_opa
 2683              		.syntax unified
 2684              		.thumb
 2685              		.thumb_func
 2686              		.fpu fpv4-sp-d16
 2688              	lv_obj_set_style_outline_opa:
 2689              	.LVL282:
 2690              	.LFB219:
 537:lvgl/lvgl/src/core/lv_obj_style_gen.c **** 
 538:lvgl/lvgl/src/core/lv_obj_style_gen.c **** void lv_obj_set_style_outline_opa(struct _lv_obj_t * obj, lv_opa_t value, lv_style_selector_t selec
 539:lvgl/lvgl/src/core/lv_obj_style_gen.c **** {
 2691              		.loc 1 539 1 is_stmt 1 view -0
 2692              		.cfi_startproc
 2693              		@ args = 0, pretend = 0, frame = 0
 2694              		@ frame_needed = 0, uses_anonymous_args = 0
 2695              		.loc 1 539 1 is_stmt 0 view .LVU484
 2696 0000 08B5     		push	{r3, lr}
 2697              	.LCFI95:
 2698              		.cfi_def_cfa_offset 8
 2699              		.cfi_offset 3, -8
 2700              		.cfi_offset 14, -4
 2701 0002 1346     		mov	r3, r2
 540:lvgl/lvgl/src/core/lv_obj_style_gen.c ****     lv_style_value_t v = {
 2702              		.loc 1 540 5 is_stmt 1 view .LVU485
 541:lvgl/lvgl/src/core/lv_obj_style_gen.c ****         .num = (int32_t)value
 542:lvgl/lvgl/src/core/lv_obj_style_gen.c ****     };
 543:lvgl/lvgl/src/core/lv_obj_style_gen.c ****     lv_obj_set_local_style_prop(obj, LV_STYLE_OUTLINE_OPA, v, selector);
 2703              		.loc 1 543 5 view .LVU486
 2704 0004 0A46     		mov	r2, r1
 2705              	.LVL283:
 2706              		.loc 1 543 5 is_stmt 0 view .LVU487
 2707 0006 40F63C01 		movw	r1, #2108
 2708              	.LVL284:
 2709              		.loc 1 543 5 view .LVU488
 2710 000a FFF7FEFF 		bl	lv_obj_set_local_style_prop
 2711              	.LVL285:
 544:lvgl/lvgl/src/core/lv_obj_style_gen.c **** }
 2712              		.loc 1 544 1 view .LVU489
 2713 000e 08BD     		pop	{r3, pc}
 2714              		.cfi_endproc
 2715              	.LFE219:
 2717              		.section	.text.lv_obj_set_style_outline_pad,"ax",%progbits
 2718              		.align	1
 2719              		.global	lv_obj_set_style_outline_pad
 2720              		.syntax unified
 2721              		.thumb
 2722              		.thumb_func
 2723              		.fpu fpv4-sp-d16
 2725              	lv_obj_set_style_outline_pad:
 2726              	.LVL286:
 2727              	.LFB220:
 545:lvgl/lvgl/src/core/lv_obj_style_gen.c **** 
ARM GAS  C:\Users\gx\AppData\Local\Temp\ccBEEQee.s 			page 56


 546:lvgl/lvgl/src/core/lv_obj_style_gen.c **** void lv_obj_set_style_outline_pad(struct _lv_obj_t * obj, lv_coord_t value, lv_style_selector_t sel
 547:lvgl/lvgl/src/core/lv_obj_style_gen.c **** {
 2728              		.loc 1 547 1 is_stmt 1 view -0
 2729              		.cfi_startproc
 2730              		@ args = 0, pretend = 0, frame = 0
 2731              		@ frame_needed = 0, uses_anonymous_args = 0
 2732              		.loc 1 547 1 is_stmt 0 view .LVU491
 2733 0000 08B5     		push	{r3, lr}
 2734              	.LCFI96:
 2735              		.cfi_def_cfa_offset 8
 2736              		.cfi_offset 3, -8
 2737              		.cfi_offset 14, -4
 2738 0002 1346     		mov	r3, r2
 548:lvgl/lvgl/src/core/lv_obj_style_gen.c ****     lv_style_value_t v = {
 2739              		.loc 1 548 5 is_stmt 1 view .LVU492
 549:lvgl/lvgl/src/core/lv_obj_style_gen.c ****         .num = (int32_t)value
 550:lvgl/lvgl/src/core/lv_obj_style_gen.c ****     };
 551:lvgl/lvgl/src/core/lv_obj_style_gen.c ****     lv_obj_set_local_style_prop(obj, LV_STYLE_OUTLINE_PAD, v, selector);
 2740              		.loc 1 551 5 view .LVU493
 2741 0004 0A46     		mov	r2, r1
 2742              	.LVL287:
 2743              		.loc 1 551 5 is_stmt 0 view .LVU494
 2744 0006 40F63D01 		movw	r1, #2109
 2745              	.LVL288:
 2746              		.loc 1 551 5 view .LVU495
 2747 000a FFF7FEFF 		bl	lv_obj_set_local_style_prop
 2748              	.LVL289:
 552:lvgl/lvgl/src/core/lv_obj_style_gen.c **** }
 2749              		.loc 1 552 1 view .LVU496
 2750 000e 08BD     		pop	{r3, pc}
 2751              		.cfi_endproc
 2752              	.LFE220:
 2754              		.section	.text.lv_obj_set_style_shadow_width,"ax",%progbits
 2755              		.align	1
 2756              		.global	lv_obj_set_style_shadow_width
 2757              		.syntax unified
 2758              		.thumb
 2759              		.thumb_func
 2760              		.fpu fpv4-sp-d16
 2762              	lv_obj_set_style_shadow_width:
 2763              	.LVL290:
 2764              	.LFB221:
 553:lvgl/lvgl/src/core/lv_obj_style_gen.c **** 
 554:lvgl/lvgl/src/core/lv_obj_style_gen.c **** void lv_obj_set_style_shadow_width(struct _lv_obj_t * obj, lv_coord_t value, lv_style_selector_t se
 555:lvgl/lvgl/src/core/lv_obj_style_gen.c **** {
 2765              		.loc 1 555 1 is_stmt 1 view -0
 2766              		.cfi_startproc
 2767              		@ args = 0, pretend = 0, frame = 0
 2768              		@ frame_needed = 0, uses_anonymous_args = 0
 2769              		.loc 1 555 1 is_stmt 0 view .LVU498
 2770 0000 08B5     		push	{r3, lr}
 2771              	.LCFI97:
 2772              		.cfi_def_cfa_offset 8
 2773              		.cfi_offset 3, -8
 2774              		.cfi_offset 14, -4
 2775 0002 1346     		mov	r3, r2
 556:lvgl/lvgl/src/core/lv_obj_style_gen.c ****     lv_style_value_t v = {
ARM GAS  C:\Users\gx\AppData\Local\Temp\ccBEEQee.s 			page 57


 2776              		.loc 1 556 5 is_stmt 1 view .LVU499
 557:lvgl/lvgl/src/core/lv_obj_style_gen.c ****         .num = (int32_t)value
 558:lvgl/lvgl/src/core/lv_obj_style_gen.c ****     };
 559:lvgl/lvgl/src/core/lv_obj_style_gen.c ****     lv_obj_set_local_style_prop(obj, LV_STYLE_SHADOW_WIDTH, v, selector);
 2777              		.loc 1 559 5 view .LVU500
 2778 0004 0A46     		mov	r2, r1
 2779              	.LVL291:
 2780              		.loc 1 559 5 is_stmt 0 view .LVU501
 2781 0006 4FF40461 		mov	r1, #2112
 2782              	.LVL292:
 2783              		.loc 1 559 5 view .LVU502
 2784 000a FFF7FEFF 		bl	lv_obj_set_local_style_prop
 2785              	.LVL293:
 560:lvgl/lvgl/src/core/lv_obj_style_gen.c **** }
 2786              		.loc 1 560 1 view .LVU503
 2787 000e 08BD     		pop	{r3, pc}
 2788              		.cfi_endproc
 2789              	.LFE221:
 2791              		.section	.text.lv_obj_set_style_shadow_ofs_x,"ax",%progbits
 2792              		.align	1
 2793              		.global	lv_obj_set_style_shadow_ofs_x
 2794              		.syntax unified
 2795              		.thumb
 2796              		.thumb_func
 2797              		.fpu fpv4-sp-d16
 2799              	lv_obj_set_style_shadow_ofs_x:
 2800              	.LVL294:
 2801              	.LFB222:
 561:lvgl/lvgl/src/core/lv_obj_style_gen.c **** 
 562:lvgl/lvgl/src/core/lv_obj_style_gen.c **** void lv_obj_set_style_shadow_ofs_x(struct _lv_obj_t * obj, lv_coord_t value, lv_style_selector_t se
 563:lvgl/lvgl/src/core/lv_obj_style_gen.c **** {
 2802              		.loc 1 563 1 is_stmt 1 view -0
 2803              		.cfi_startproc
 2804              		@ args = 0, pretend = 0, frame = 0
 2805              		@ frame_needed = 0, uses_anonymous_args = 0
 2806              		.loc 1 563 1 is_stmt 0 view .LVU505
 2807 0000 08B5     		push	{r3, lr}
 2808              	.LCFI98:
 2809              		.cfi_def_cfa_offset 8
 2810              		.cfi_offset 3, -8
 2811              		.cfi_offset 14, -4
 2812 0002 1346     		mov	r3, r2
 564:lvgl/lvgl/src/core/lv_obj_style_gen.c ****     lv_style_value_t v = {
 2813              		.loc 1 564 5 is_stmt 1 view .LVU506
 565:lvgl/lvgl/src/core/lv_obj_style_gen.c ****         .num = (int32_t)value
 566:lvgl/lvgl/src/core/lv_obj_style_gen.c ****     };
 567:lvgl/lvgl/src/core/lv_obj_style_gen.c ****     lv_obj_set_local_style_prop(obj, LV_STYLE_SHADOW_OFS_X, v, selector);
 2814              		.loc 1 567 5 view .LVU507
 2815 0004 0A46     		mov	r2, r1
 2816              	.LVL295:
 2817              		.loc 1 567 5 is_stmt 0 view .LVU508
 2818 0006 40F64101 		movw	r1, #2113
 2819              	.LVL296:
 2820              		.loc 1 567 5 view .LVU509
 2821 000a FFF7FEFF 		bl	lv_obj_set_local_style_prop
 2822              	.LVL297:
 568:lvgl/lvgl/src/core/lv_obj_style_gen.c **** }
ARM GAS  C:\Users\gx\AppData\Local\Temp\ccBEEQee.s 			page 58


 2823              		.loc 1 568 1 view .LVU510
 2824 000e 08BD     		pop	{r3, pc}
 2825              		.cfi_endproc
 2826              	.LFE222:
 2828              		.section	.text.lv_obj_set_style_shadow_ofs_y,"ax",%progbits
 2829              		.align	1
 2830              		.global	lv_obj_set_style_shadow_ofs_y
 2831              		.syntax unified
 2832              		.thumb
 2833              		.thumb_func
 2834              		.fpu fpv4-sp-d16
 2836              	lv_obj_set_style_shadow_ofs_y:
 2837              	.LVL298:
 2838              	.LFB223:
 569:lvgl/lvgl/src/core/lv_obj_style_gen.c **** 
 570:lvgl/lvgl/src/core/lv_obj_style_gen.c **** void lv_obj_set_style_shadow_ofs_y(struct _lv_obj_t * obj, lv_coord_t value, lv_style_selector_t se
 571:lvgl/lvgl/src/core/lv_obj_style_gen.c **** {
 2839              		.loc 1 571 1 is_stmt 1 view -0
 2840              		.cfi_startproc
 2841              		@ args = 0, pretend = 0, frame = 0
 2842              		@ frame_needed = 0, uses_anonymous_args = 0
 2843              		.loc 1 571 1 is_stmt 0 view .LVU512
 2844 0000 08B5     		push	{r3, lr}
 2845              	.LCFI99:
 2846              		.cfi_def_cfa_offset 8
 2847              		.cfi_offset 3, -8
 2848              		.cfi_offset 14, -4
 2849 0002 1346     		mov	r3, r2
 572:lvgl/lvgl/src/core/lv_obj_style_gen.c ****     lv_style_value_t v = {
 2850              		.loc 1 572 5 is_stmt 1 view .LVU513
 573:lvgl/lvgl/src/core/lv_obj_style_gen.c ****         .num = (int32_t)value
 574:lvgl/lvgl/src/core/lv_obj_style_gen.c ****     };
 575:lvgl/lvgl/src/core/lv_obj_style_gen.c ****     lv_obj_set_local_style_prop(obj, LV_STYLE_SHADOW_OFS_Y, v, selector);
 2851              		.loc 1 575 5 view .LVU514
 2852 0004 0A46     		mov	r2, r1
 2853              	.LVL299:
 2854              		.loc 1 575 5 is_stmt 0 view .LVU515
 2855 0006 40F64201 		movw	r1, #2114
 2856              	.LVL300:
 2857              		.loc 1 575 5 view .LVU516
 2858 000a FFF7FEFF 		bl	lv_obj_set_local_style_prop
 2859              	.LVL301:
 576:lvgl/lvgl/src/core/lv_obj_style_gen.c **** }
 2860              		.loc 1 576 1 view .LVU517
 2861 000e 08BD     		pop	{r3, pc}
 2862              		.cfi_endproc
 2863              	.LFE223:
 2865              		.section	.text.lv_obj_set_style_shadow_spread,"ax",%progbits
 2866              		.align	1
 2867              		.global	lv_obj_set_style_shadow_spread
 2868              		.syntax unified
 2869              		.thumb
 2870              		.thumb_func
 2871              		.fpu fpv4-sp-d16
 2873              	lv_obj_set_style_shadow_spread:
 2874              	.LVL302:
 2875              	.LFB224:
ARM GAS  C:\Users\gx\AppData\Local\Temp\ccBEEQee.s 			page 59


 577:lvgl/lvgl/src/core/lv_obj_style_gen.c **** 
 578:lvgl/lvgl/src/core/lv_obj_style_gen.c **** void lv_obj_set_style_shadow_spread(struct _lv_obj_t * obj, lv_coord_t value, lv_style_selector_t s
 579:lvgl/lvgl/src/core/lv_obj_style_gen.c **** {
 2876              		.loc 1 579 1 is_stmt 1 view -0
 2877              		.cfi_startproc
 2878              		@ args = 0, pretend = 0, frame = 0
 2879              		@ frame_needed = 0, uses_anonymous_args = 0
 2880              		.loc 1 579 1 is_stmt 0 view .LVU519
 2881 0000 08B5     		push	{r3, lr}
 2882              	.LCFI100:
 2883              		.cfi_def_cfa_offset 8
 2884              		.cfi_offset 3, -8
 2885              		.cfi_offset 14, -4
 2886 0002 1346     		mov	r3, r2
 580:lvgl/lvgl/src/core/lv_obj_style_gen.c ****     lv_style_value_t v = {
 2887              		.loc 1 580 5 is_stmt 1 view .LVU520
 581:lvgl/lvgl/src/core/lv_obj_style_gen.c ****         .num = (int32_t)value
 582:lvgl/lvgl/src/core/lv_obj_style_gen.c ****     };
 583:lvgl/lvgl/src/core/lv_obj_style_gen.c ****     lv_obj_set_local_style_prop(obj, LV_STYLE_SHADOW_SPREAD, v, selector);
 2888              		.loc 1 583 5 view .LVU521
 2889 0004 0A46     		mov	r2, r1
 2890              	.LVL303:
 2891              		.loc 1 583 5 is_stmt 0 view .LVU522
 2892 0006 40F64301 		movw	r1, #2115
 2893              	.LVL304:
 2894              		.loc 1 583 5 view .LVU523
 2895 000a FFF7FEFF 		bl	lv_obj_set_local_style_prop
 2896              	.LVL305:
 584:lvgl/lvgl/src/core/lv_obj_style_gen.c **** }
 2897              		.loc 1 584 1 view .LVU524
 2898 000e 08BD     		pop	{r3, pc}
 2899              		.cfi_endproc
 2900              	.LFE224:
 2902              		.section	.text.lv_obj_set_style_shadow_color,"ax",%progbits
 2903              		.align	1
 2904              		.global	lv_obj_set_style_shadow_color
 2905              		.syntax unified
 2906              		.thumb
 2907              		.thumb_func
 2908              		.fpu fpv4-sp-d16
 2910              	lv_obj_set_style_shadow_color:
 2911              	.LVL306:
 2912              	.LFB225:
 585:lvgl/lvgl/src/core/lv_obj_style_gen.c **** 
 586:lvgl/lvgl/src/core/lv_obj_style_gen.c **** void lv_obj_set_style_shadow_color(struct _lv_obj_t * obj, lv_color_t value, lv_style_selector_t se
 587:lvgl/lvgl/src/core/lv_obj_style_gen.c **** {
 2913              		.loc 1 587 1 is_stmt 1 view -0
 2914              		.cfi_startproc
 2915              		@ args = 0, pretend = 0, frame = 8
 2916              		@ frame_needed = 0, uses_anonymous_args = 0
 2917              		.loc 1 587 1 is_stmt 0 view .LVU526
 2918 0000 10B5     		push	{r4, lr}
 2919              	.LCFI101:
 2920              		.cfi_def_cfa_offset 8
 2921              		.cfi_offset 4, -8
 2922              		.cfi_offset 14, -4
 2923 0002 82B0     		sub	sp, sp, #8
ARM GAS  C:\Users\gx\AppData\Local\Temp\ccBEEQee.s 			page 60


 2924              	.LCFI102:
 2925              		.cfi_def_cfa_offset 16
 2926 0004 1346     		mov	r3, r2
 588:lvgl/lvgl/src/core/lv_obj_style_gen.c ****     lv_style_value_t v = {
 2927              		.loc 1 588 5 is_stmt 1 view .LVU527
 2928              		.loc 1 588 22 is_stmt 0 view .LVU528
 2929 0006 0024     		movs	r4, #0
 2930 0008 ADF80040 		strh	r4, [sp]	@ movhi
 2931 000c 2246     		mov	r2, r4
 2932              	.LVL307:
 2933              		.loc 1 588 22 view .LVU529
 2934 000e 64F31F42 		bfi	r2, r4, #16, #16
 2935              	.LVL308:
 2936              		.loc 1 588 22 view .LVU530
 2937 0012 61F30F02 		bfi	r2, r1, #0, #16
 2938              	.LVL309:
 589:lvgl/lvgl/src/core/lv_obj_style_gen.c ****         .color = value
 590:lvgl/lvgl/src/core/lv_obj_style_gen.c ****     };
 591:lvgl/lvgl/src/core/lv_obj_style_gen.c ****     lv_obj_set_local_style_prop(obj, LV_STYLE_SHADOW_COLOR, v, selector);
 2939              		.loc 1 591 5 is_stmt 1 view .LVU531
 2940 0016 4421     		movs	r1, #68
 2941 0018 FFF7FEFF 		bl	lv_obj_set_local_style_prop
 2942              	.LVL310:
 592:lvgl/lvgl/src/core/lv_obj_style_gen.c **** }
 2943              		.loc 1 592 1 is_stmt 0 view .LVU532
 2944 001c 02B0     		add	sp, sp, #8
 2945              	.LCFI103:
 2946              		.cfi_def_cfa_offset 8
 2947              		@ sp needed
 2948 001e 10BD     		pop	{r4, pc}
 2949              		.cfi_endproc
 2950              	.LFE225:
 2952              		.section	.text.lv_obj_set_style_shadow_color_filtered,"ax",%progbits
 2953              		.align	1
 2954              		.global	lv_obj_set_style_shadow_color_filtered
 2955              		.syntax unified
 2956              		.thumb
 2957              		.thumb_func
 2958              		.fpu fpv4-sp-d16
 2960              	lv_obj_set_style_shadow_color_filtered:
 2961              	.LVL311:
 2962              	.LFB226:
 593:lvgl/lvgl/src/core/lv_obj_style_gen.c **** 
 594:lvgl/lvgl/src/core/lv_obj_style_gen.c **** void lv_obj_set_style_shadow_color_filtered(struct _lv_obj_t * obj, lv_color_t value, lv_style_sele
 595:lvgl/lvgl/src/core/lv_obj_style_gen.c **** {
 2963              		.loc 1 595 1 is_stmt 1 view -0
 2964              		.cfi_startproc
 2965              		@ args = 0, pretend = 0, frame = 8
 2966              		@ frame_needed = 0, uses_anonymous_args = 0
 2967              		.loc 1 595 1 is_stmt 0 view .LVU534
 2968 0000 10B5     		push	{r4, lr}
 2969              	.LCFI104:
 2970              		.cfi_def_cfa_offset 8
 2971              		.cfi_offset 4, -8
 2972              		.cfi_offset 14, -4
 2973 0002 82B0     		sub	sp, sp, #8
 2974              	.LCFI105:
ARM GAS  C:\Users\gx\AppData\Local\Temp\ccBEEQee.s 			page 61


 2975              		.cfi_def_cfa_offset 16
 2976 0004 1346     		mov	r3, r2
 596:lvgl/lvgl/src/core/lv_obj_style_gen.c ****     lv_style_value_t v = {
 2977              		.loc 1 596 5 is_stmt 1 view .LVU535
 2978              		.loc 1 596 22 is_stmt 0 view .LVU536
 2979 0006 0024     		movs	r4, #0
 2980 0008 ADF80040 		strh	r4, [sp]	@ movhi
 2981 000c 2246     		mov	r2, r4
 2982              	.LVL312:
 2983              		.loc 1 596 22 view .LVU537
 2984 000e 64F31F42 		bfi	r2, r4, #16, #16
 2985              	.LVL313:
 2986              		.loc 1 596 22 view .LVU538
 2987 0012 61F30F02 		bfi	r2, r1, #0, #16
 2988              	.LVL314:
 597:lvgl/lvgl/src/core/lv_obj_style_gen.c ****         .color = value
 598:lvgl/lvgl/src/core/lv_obj_style_gen.c ****     };
 599:lvgl/lvgl/src/core/lv_obj_style_gen.c ****     lv_obj_set_local_style_prop(obj, LV_STYLE_SHADOW_COLOR_FILTERED, v, selector);
 2989              		.loc 1 599 5 is_stmt 1 view .LVU539
 2990 0016 44F24401 		movw	r1, #16452
 2991 001a FFF7FEFF 		bl	lv_obj_set_local_style_prop
 2992              	.LVL315:
 600:lvgl/lvgl/src/core/lv_obj_style_gen.c **** }
 2993              		.loc 1 600 1 is_stmt 0 view .LVU540
 2994 001e 02B0     		add	sp, sp, #8
 2995              	.LCFI106:
 2996              		.cfi_def_cfa_offset 8
 2997              		@ sp needed
 2998 0020 10BD     		pop	{r4, pc}
 2999              		.cfi_endproc
 3000              	.LFE226:
 3002              		.section	.text.lv_obj_set_style_shadow_opa,"ax",%progbits
 3003              		.align	1
 3004              		.global	lv_obj_set_style_shadow_opa
 3005              		.syntax unified
 3006              		.thumb
 3007              		.thumb_func
 3008              		.fpu fpv4-sp-d16
 3010              	lv_obj_set_style_shadow_opa:
 3011              	.LVL316:
 3012              	.LFB227:
 601:lvgl/lvgl/src/core/lv_obj_style_gen.c **** 
 602:lvgl/lvgl/src/core/lv_obj_style_gen.c **** void lv_obj_set_style_shadow_opa(struct _lv_obj_t * obj, lv_opa_t value, lv_style_selector_t select
 603:lvgl/lvgl/src/core/lv_obj_style_gen.c **** {
 3013              		.loc 1 603 1 is_stmt 1 view -0
 3014              		.cfi_startproc
 3015              		@ args = 0, pretend = 0, frame = 0
 3016              		@ frame_needed = 0, uses_anonymous_args = 0
 3017              		.loc 1 603 1 is_stmt 0 view .LVU542
 3018 0000 08B5     		push	{r3, lr}
 3019              	.LCFI107:
 3020              		.cfi_def_cfa_offset 8
 3021              		.cfi_offset 3, -8
 3022              		.cfi_offset 14, -4
 3023 0002 1346     		mov	r3, r2
 604:lvgl/lvgl/src/core/lv_obj_style_gen.c ****     lv_style_value_t v = {
 3024              		.loc 1 604 5 is_stmt 1 view .LVU543
ARM GAS  C:\Users\gx\AppData\Local\Temp\ccBEEQee.s 			page 62


 605:lvgl/lvgl/src/core/lv_obj_style_gen.c ****         .num = (int32_t)value
 606:lvgl/lvgl/src/core/lv_obj_style_gen.c ****     };
 607:lvgl/lvgl/src/core/lv_obj_style_gen.c ****     lv_obj_set_local_style_prop(obj, LV_STYLE_SHADOW_OPA, v, selector);
 3025              		.loc 1 607 5 view .LVU544
 3026 0004 0A46     		mov	r2, r1
 3027              	.LVL317:
 3028              		.loc 1 607 5 is_stmt 0 view .LVU545
 3029 0006 40F64501 		movw	r1, #2117
 3030              	.LVL318:
 3031              		.loc 1 607 5 view .LVU546
 3032 000a FFF7FEFF 		bl	lv_obj_set_local_style_prop
 3033              	.LVL319:
 608:lvgl/lvgl/src/core/lv_obj_style_gen.c **** }
 3034              		.loc 1 608 1 view .LVU547
 3035 000e 08BD     		pop	{r3, pc}
 3036              		.cfi_endproc
 3037              	.LFE227:
 3039              		.section	.text.lv_obj_set_style_line_width,"ax",%progbits
 3040              		.align	1
 3041              		.global	lv_obj_set_style_line_width
 3042              		.syntax unified
 3043              		.thumb
 3044              		.thumb_func
 3045              		.fpu fpv4-sp-d16
 3047              	lv_obj_set_style_line_width:
 3048              	.LVL320:
 3049              	.LFB228:
 609:lvgl/lvgl/src/core/lv_obj_style_gen.c **** 
 610:lvgl/lvgl/src/core/lv_obj_style_gen.c **** void lv_obj_set_style_line_width(struct _lv_obj_t * obj, lv_coord_t value, lv_style_selector_t sele
 611:lvgl/lvgl/src/core/lv_obj_style_gen.c **** {
 3050              		.loc 1 611 1 is_stmt 1 view -0
 3051              		.cfi_startproc
 3052              		@ args = 0, pretend = 0, frame = 0
 3053              		@ frame_needed = 0, uses_anonymous_args = 0
 3054              		.loc 1 611 1 is_stmt 0 view .LVU549
 3055 0000 08B5     		push	{r3, lr}
 3056              	.LCFI108:
 3057              		.cfi_def_cfa_offset 8
 3058              		.cfi_offset 3, -8
 3059              		.cfi_offset 14, -4
 3060 0002 1346     		mov	r3, r2
 612:lvgl/lvgl/src/core/lv_obj_style_gen.c ****     lv_style_value_t v = {
 3061              		.loc 1 612 5 is_stmt 1 view .LVU550
 613:lvgl/lvgl/src/core/lv_obj_style_gen.c ****         .num = (int32_t)value
 614:lvgl/lvgl/src/core/lv_obj_style_gen.c ****     };
 615:lvgl/lvgl/src/core/lv_obj_style_gen.c ****     lv_obj_set_local_style_prop(obj, LV_STYLE_LINE_WIDTH, v, selector);
 3062              		.loc 1 615 5 view .LVU551
 3063 0004 0A46     		mov	r2, r1
 3064              	.LVL321:
 3065              		.loc 1 615 5 is_stmt 0 view .LVU552
 3066 0006 40F64901 		movw	r1, #2121
 3067              	.LVL322:
 3068              		.loc 1 615 5 view .LVU553
 3069 000a FFF7FEFF 		bl	lv_obj_set_local_style_prop
 3070              	.LVL323:
 616:lvgl/lvgl/src/core/lv_obj_style_gen.c **** }
 3071              		.loc 1 616 1 view .LVU554
ARM GAS  C:\Users\gx\AppData\Local\Temp\ccBEEQee.s 			page 63


 3072 000e 08BD     		pop	{r3, pc}
 3073              		.cfi_endproc
 3074              	.LFE228:
 3076              		.section	.text.lv_obj_set_style_line_dash_width,"ax",%progbits
 3077              		.align	1
 3078              		.global	lv_obj_set_style_line_dash_width
 3079              		.syntax unified
 3080              		.thumb
 3081              		.thumb_func
 3082              		.fpu fpv4-sp-d16
 3084              	lv_obj_set_style_line_dash_width:
 3085              	.LVL324:
 3086              	.LFB229:
 617:lvgl/lvgl/src/core/lv_obj_style_gen.c **** 
 618:lvgl/lvgl/src/core/lv_obj_style_gen.c **** void lv_obj_set_style_line_dash_width(struct _lv_obj_t * obj, lv_coord_t value, lv_style_selector_t
 619:lvgl/lvgl/src/core/lv_obj_style_gen.c **** {
 3087              		.loc 1 619 1 is_stmt 1 view -0
 3088              		.cfi_startproc
 3089              		@ args = 0, pretend = 0, frame = 0
 3090              		@ frame_needed = 0, uses_anonymous_args = 0
 3091              		.loc 1 619 1 is_stmt 0 view .LVU556
 3092 0000 08B5     		push	{r3, lr}
 3093              	.LCFI109:
 3094              		.cfi_def_cfa_offset 8
 3095              		.cfi_offset 3, -8
 3096              		.cfi_offset 14, -4
 3097 0002 1346     		mov	r3, r2
 620:lvgl/lvgl/src/core/lv_obj_style_gen.c ****     lv_style_value_t v = {
 3098              		.loc 1 620 5 is_stmt 1 view .LVU557
 621:lvgl/lvgl/src/core/lv_obj_style_gen.c ****         .num = (int32_t)value
 622:lvgl/lvgl/src/core/lv_obj_style_gen.c ****     };
 623:lvgl/lvgl/src/core/lv_obj_style_gen.c ****     lv_obj_set_local_style_prop(obj, LV_STYLE_LINE_DASH_WIDTH, v, selector);
 3099              		.loc 1 623 5 view .LVU558
 3100 0004 0A46     		mov	r2, r1
 3101              	.LVL325:
 3102              		.loc 1 623 5 is_stmt 0 view .LVU559
 3103 0006 4A21     		movs	r1, #74
 3104              	.LVL326:
 3105              		.loc 1 623 5 view .LVU560
 3106 0008 FFF7FEFF 		bl	lv_obj_set_local_style_prop
 3107              	.LVL327:
 624:lvgl/lvgl/src/core/lv_obj_style_gen.c **** }
 3108              		.loc 1 624 1 view .LVU561
 3109 000c 08BD     		pop	{r3, pc}
 3110              		.cfi_endproc
 3111              	.LFE229:
 3113              		.section	.text.lv_obj_set_style_line_dash_gap,"ax",%progbits
 3114              		.align	1
 3115              		.global	lv_obj_set_style_line_dash_gap
 3116              		.syntax unified
 3117              		.thumb
 3118              		.thumb_func
 3119              		.fpu fpv4-sp-d16
 3121              	lv_obj_set_style_line_dash_gap:
 3122              	.LVL328:
 3123              	.LFB230:
 625:lvgl/lvgl/src/core/lv_obj_style_gen.c **** 
ARM GAS  C:\Users\gx\AppData\Local\Temp\ccBEEQee.s 			page 64


 626:lvgl/lvgl/src/core/lv_obj_style_gen.c **** void lv_obj_set_style_line_dash_gap(struct _lv_obj_t * obj, lv_coord_t value, lv_style_selector_t s
 627:lvgl/lvgl/src/core/lv_obj_style_gen.c **** {
 3124              		.loc 1 627 1 is_stmt 1 view -0
 3125              		.cfi_startproc
 3126              		@ args = 0, pretend = 0, frame = 0
 3127              		@ frame_needed = 0, uses_anonymous_args = 0
 3128              		.loc 1 627 1 is_stmt 0 view .LVU563
 3129 0000 08B5     		push	{r3, lr}
 3130              	.LCFI110:
 3131              		.cfi_def_cfa_offset 8
 3132              		.cfi_offset 3, -8
 3133              		.cfi_offset 14, -4
 3134 0002 1346     		mov	r3, r2
 628:lvgl/lvgl/src/core/lv_obj_style_gen.c ****     lv_style_value_t v = {
 3135              		.loc 1 628 5 is_stmt 1 view .LVU564
 629:lvgl/lvgl/src/core/lv_obj_style_gen.c ****         .num = (int32_t)value
 630:lvgl/lvgl/src/core/lv_obj_style_gen.c ****     };
 631:lvgl/lvgl/src/core/lv_obj_style_gen.c ****     lv_obj_set_local_style_prop(obj, LV_STYLE_LINE_DASH_GAP, v, selector);
 3136              		.loc 1 631 5 view .LVU565
 3137 0004 0A46     		mov	r2, r1
 3138              	.LVL329:
 3139              		.loc 1 631 5 is_stmt 0 view .LVU566
 3140 0006 4B21     		movs	r1, #75
 3141              	.LVL330:
 3142              		.loc 1 631 5 view .LVU567
 3143 0008 FFF7FEFF 		bl	lv_obj_set_local_style_prop
 3144              	.LVL331:
 632:lvgl/lvgl/src/core/lv_obj_style_gen.c **** }
 3145              		.loc 1 632 1 view .LVU568
 3146 000c 08BD     		pop	{r3, pc}
 3147              		.cfi_endproc
 3148              	.LFE230:
 3150              		.section	.text.lv_obj_set_style_line_rounded,"ax",%progbits
 3151              		.align	1
 3152              		.global	lv_obj_set_style_line_rounded
 3153              		.syntax unified
 3154              		.thumb
 3155              		.thumb_func
 3156              		.fpu fpv4-sp-d16
 3158              	lv_obj_set_style_line_rounded:
 3159              	.LVL332:
 3160              	.LFB231:
 633:lvgl/lvgl/src/core/lv_obj_style_gen.c **** 
 634:lvgl/lvgl/src/core/lv_obj_style_gen.c **** void lv_obj_set_style_line_rounded(struct _lv_obj_t * obj, lv_coord_t value, lv_style_selector_t se
 635:lvgl/lvgl/src/core/lv_obj_style_gen.c **** {
 3161              		.loc 1 635 1 is_stmt 1 view -0
 3162              		.cfi_startproc
 3163              		@ args = 0, pretend = 0, frame = 0
 3164              		@ frame_needed = 0, uses_anonymous_args = 0
 3165              		.loc 1 635 1 is_stmt 0 view .LVU570
 3166 0000 08B5     		push	{r3, lr}
 3167              	.LCFI111:
 3168              		.cfi_def_cfa_offset 8
 3169              		.cfi_offset 3, -8
 3170              		.cfi_offset 14, -4
 3171 0002 1346     		mov	r3, r2
 636:lvgl/lvgl/src/core/lv_obj_style_gen.c ****     lv_style_value_t v = {
ARM GAS  C:\Users\gx\AppData\Local\Temp\ccBEEQee.s 			page 65


 3172              		.loc 1 636 5 is_stmt 1 view .LVU571
 637:lvgl/lvgl/src/core/lv_obj_style_gen.c ****         .num = (int32_t)value
 638:lvgl/lvgl/src/core/lv_obj_style_gen.c ****     };
 639:lvgl/lvgl/src/core/lv_obj_style_gen.c ****     lv_obj_set_local_style_prop(obj, LV_STYLE_LINE_ROUNDED, v, selector);
 3173              		.loc 1 639 5 view .LVU572
 3174 0004 0A46     		mov	r2, r1
 3175              	.LVL333:
 3176              		.loc 1 639 5 is_stmt 0 view .LVU573
 3177 0006 4C21     		movs	r1, #76
 3178              	.LVL334:
 3179              		.loc 1 639 5 view .LVU574
 3180 0008 FFF7FEFF 		bl	lv_obj_set_local_style_prop
 3181              	.LVL335:
 640:lvgl/lvgl/src/core/lv_obj_style_gen.c **** }
 3182              		.loc 1 640 1 view .LVU575
 3183 000c 08BD     		pop	{r3, pc}
 3184              		.cfi_endproc
 3185              	.LFE231:
 3187              		.section	.text.lv_obj_set_style_line_color,"ax",%progbits
 3188              		.align	1
 3189              		.global	lv_obj_set_style_line_color
 3190              		.syntax unified
 3191              		.thumb
 3192              		.thumb_func
 3193              		.fpu fpv4-sp-d16
 3195              	lv_obj_set_style_line_color:
 3196              	.LVL336:
 3197              	.LFB232:
 641:lvgl/lvgl/src/core/lv_obj_style_gen.c **** 
 642:lvgl/lvgl/src/core/lv_obj_style_gen.c **** void lv_obj_set_style_line_color(struct _lv_obj_t * obj, lv_color_t value, lv_style_selector_t sele
 643:lvgl/lvgl/src/core/lv_obj_style_gen.c **** {
 3198              		.loc 1 643 1 is_stmt 1 view -0
 3199              		.cfi_startproc
 3200              		@ args = 0, pretend = 0, frame = 8
 3201              		@ frame_needed = 0, uses_anonymous_args = 0
 3202              		.loc 1 643 1 is_stmt 0 view .LVU577
 3203 0000 10B5     		push	{r4, lr}
 3204              	.LCFI112:
 3205              		.cfi_def_cfa_offset 8
 3206              		.cfi_offset 4, -8
 3207              		.cfi_offset 14, -4
 3208 0002 82B0     		sub	sp, sp, #8
 3209              	.LCFI113:
 3210              		.cfi_def_cfa_offset 16
 3211 0004 1346     		mov	r3, r2
 644:lvgl/lvgl/src/core/lv_obj_style_gen.c ****     lv_style_value_t v = {
 3212              		.loc 1 644 5 is_stmt 1 view .LVU578
 3213              		.loc 1 644 22 is_stmt 0 view .LVU579
 3214 0006 0024     		movs	r4, #0
 3215 0008 ADF80040 		strh	r4, [sp]	@ movhi
 3216 000c 2246     		mov	r2, r4
 3217              	.LVL337:
 3218              		.loc 1 644 22 view .LVU580
 3219 000e 64F31F42 		bfi	r2, r4, #16, #16
 3220              	.LVL338:
 3221              		.loc 1 644 22 view .LVU581
 3222 0012 61F30F02 		bfi	r2, r1, #0, #16
ARM GAS  C:\Users\gx\AppData\Local\Temp\ccBEEQee.s 			page 66


 3223              	.LVL339:
 645:lvgl/lvgl/src/core/lv_obj_style_gen.c ****         .color = value
 646:lvgl/lvgl/src/core/lv_obj_style_gen.c ****     };
 647:lvgl/lvgl/src/core/lv_obj_style_gen.c ****     lv_obj_set_local_style_prop(obj, LV_STYLE_LINE_COLOR, v, selector);
 3224              		.loc 1 647 5 is_stmt 1 view .LVU582
 3225 0016 4D21     		movs	r1, #77
 3226 0018 FFF7FEFF 		bl	lv_obj_set_local_style_prop
 3227              	.LVL340:
 648:lvgl/lvgl/src/core/lv_obj_style_gen.c **** }
 3228              		.loc 1 648 1 is_stmt 0 view .LVU583
 3229 001c 02B0     		add	sp, sp, #8
 3230              	.LCFI114:
 3231              		.cfi_def_cfa_offset 8
 3232              		@ sp needed
 3233 001e 10BD     		pop	{r4, pc}
 3234              		.cfi_endproc
 3235              	.LFE232:
 3237              		.section	.text.lv_obj_set_style_line_color_filtered,"ax",%progbits
 3238              		.align	1
 3239              		.global	lv_obj_set_style_line_color_filtered
 3240              		.syntax unified
 3241              		.thumb
 3242              		.thumb_func
 3243              		.fpu fpv4-sp-d16
 3245              	lv_obj_set_style_line_color_filtered:
 3246              	.LVL341:
 3247              	.LFB233:
 649:lvgl/lvgl/src/core/lv_obj_style_gen.c **** 
 650:lvgl/lvgl/src/core/lv_obj_style_gen.c **** void lv_obj_set_style_line_color_filtered(struct _lv_obj_t * obj, lv_color_t value, lv_style_select
 651:lvgl/lvgl/src/core/lv_obj_style_gen.c **** {
 3248              		.loc 1 651 1 is_stmt 1 view -0
 3249              		.cfi_startproc
 3250              		@ args = 0, pretend = 0, frame = 8
 3251              		@ frame_needed = 0, uses_anonymous_args = 0
 3252              		.loc 1 651 1 is_stmt 0 view .LVU585
 3253 0000 10B5     		push	{r4, lr}
 3254              	.LCFI115:
 3255              		.cfi_def_cfa_offset 8
 3256              		.cfi_offset 4, -8
 3257              		.cfi_offset 14, -4
 3258 0002 82B0     		sub	sp, sp, #8
 3259              	.LCFI116:
 3260              		.cfi_def_cfa_offset 16
 3261 0004 1346     		mov	r3, r2
 652:lvgl/lvgl/src/core/lv_obj_style_gen.c ****     lv_style_value_t v = {
 3262              		.loc 1 652 5 is_stmt 1 view .LVU586
 3263              		.loc 1 652 22 is_stmt 0 view .LVU587
 3264 0006 0024     		movs	r4, #0
 3265 0008 ADF80040 		strh	r4, [sp]	@ movhi
 3266 000c 2246     		mov	r2, r4
 3267              	.LVL342:
 3268              		.loc 1 652 22 view .LVU588
 3269 000e 64F31F42 		bfi	r2, r4, #16, #16
 3270              	.LVL343:
 3271              		.loc 1 652 22 view .LVU589
 3272 0012 61F30F02 		bfi	r2, r1, #0, #16
 3273              	.LVL344:
ARM GAS  C:\Users\gx\AppData\Local\Temp\ccBEEQee.s 			page 67


 653:lvgl/lvgl/src/core/lv_obj_style_gen.c ****         .color = value
 654:lvgl/lvgl/src/core/lv_obj_style_gen.c ****     };
 655:lvgl/lvgl/src/core/lv_obj_style_gen.c ****     lv_obj_set_local_style_prop(obj, LV_STYLE_LINE_COLOR_FILTERED, v, selector);
 3274              		.loc 1 655 5 is_stmt 1 view .LVU590
 3275 0016 44F24D01 		movw	r1, #16461
 3276 001a FFF7FEFF 		bl	lv_obj_set_local_style_prop
 3277              	.LVL345:
 656:lvgl/lvgl/src/core/lv_obj_style_gen.c **** }
 3278              		.loc 1 656 1 is_stmt 0 view .LVU591
 3279 001e 02B0     		add	sp, sp, #8
 3280              	.LCFI117:
 3281              		.cfi_def_cfa_offset 8
 3282              		@ sp needed
 3283 0020 10BD     		pop	{r4, pc}
 3284              		.cfi_endproc
 3285              	.LFE233:
 3287              		.section	.text.lv_obj_set_style_line_opa,"ax",%progbits
 3288              		.align	1
 3289              		.global	lv_obj_set_style_line_opa
 3290              		.syntax unified
 3291              		.thumb
 3292              		.thumb_func
 3293              		.fpu fpv4-sp-d16
 3295              	lv_obj_set_style_line_opa:
 3296              	.LVL346:
 3297              	.LFB234:
 657:lvgl/lvgl/src/core/lv_obj_style_gen.c **** 
 658:lvgl/lvgl/src/core/lv_obj_style_gen.c **** void lv_obj_set_style_line_opa(struct _lv_obj_t * obj, lv_opa_t value, lv_style_selector_t selector
 659:lvgl/lvgl/src/core/lv_obj_style_gen.c **** {
 3298              		.loc 1 659 1 is_stmt 1 view -0
 3299              		.cfi_startproc
 3300              		@ args = 0, pretend = 0, frame = 0
 3301              		@ frame_needed = 0, uses_anonymous_args = 0
 3302              		.loc 1 659 1 is_stmt 0 view .LVU593
 3303 0000 08B5     		push	{r3, lr}
 3304              	.LCFI118:
 3305              		.cfi_def_cfa_offset 8
 3306              		.cfi_offset 3, -8
 3307              		.cfi_offset 14, -4
 3308 0002 1346     		mov	r3, r2
 660:lvgl/lvgl/src/core/lv_obj_style_gen.c ****     lv_style_value_t v = {
 3309              		.loc 1 660 5 is_stmt 1 view .LVU594
 661:lvgl/lvgl/src/core/lv_obj_style_gen.c ****         .num = (int32_t)value
 662:lvgl/lvgl/src/core/lv_obj_style_gen.c ****     };
 663:lvgl/lvgl/src/core/lv_obj_style_gen.c ****     lv_obj_set_local_style_prop(obj, LV_STYLE_LINE_OPA, v, selector);
 3310              		.loc 1 663 5 view .LVU595
 3311 0004 0A46     		mov	r2, r1
 3312              	.LVL347:
 3313              		.loc 1 663 5 is_stmt 0 view .LVU596
 3314 0006 4E21     		movs	r1, #78
 3315              	.LVL348:
 3316              		.loc 1 663 5 view .LVU597
 3317 0008 FFF7FEFF 		bl	lv_obj_set_local_style_prop
 3318              	.LVL349:
 664:lvgl/lvgl/src/core/lv_obj_style_gen.c **** }
 3319              		.loc 1 664 1 view .LVU598
 3320 000c 08BD     		pop	{r3, pc}
ARM GAS  C:\Users\gx\AppData\Local\Temp\ccBEEQee.s 			page 68


 3321              		.cfi_endproc
 3322              	.LFE234:
 3324              		.section	.text.lv_obj_set_style_arc_width,"ax",%progbits
 3325              		.align	1
 3326              		.global	lv_obj_set_style_arc_width
 3327              		.syntax unified
 3328              		.thumb
 3329              		.thumb_func
 3330              		.fpu fpv4-sp-d16
 3332              	lv_obj_set_style_arc_width:
 3333              	.LVL350:
 3334              	.LFB235:
 665:lvgl/lvgl/src/core/lv_obj_style_gen.c **** 
 666:lvgl/lvgl/src/core/lv_obj_style_gen.c **** void lv_obj_set_style_arc_width(struct _lv_obj_t * obj, lv_coord_t value, lv_style_selector_t selec
 667:lvgl/lvgl/src/core/lv_obj_style_gen.c **** {
 3335              		.loc 1 667 1 is_stmt 1 view -0
 3336              		.cfi_startproc
 3337              		@ args = 0, pretend = 0, frame = 0
 3338              		@ frame_needed = 0, uses_anonymous_args = 0
 3339              		.loc 1 667 1 is_stmt 0 view .LVU600
 3340 0000 08B5     		push	{r3, lr}
 3341              	.LCFI119:
 3342              		.cfi_def_cfa_offset 8
 3343              		.cfi_offset 3, -8
 3344              		.cfi_offset 14, -4
 3345 0002 1346     		mov	r3, r2
 668:lvgl/lvgl/src/core/lv_obj_style_gen.c ****     lv_style_value_t v = {
 3346              		.loc 1 668 5 is_stmt 1 view .LVU601
 669:lvgl/lvgl/src/core/lv_obj_style_gen.c ****         .num = (int32_t)value
 670:lvgl/lvgl/src/core/lv_obj_style_gen.c ****     };
 671:lvgl/lvgl/src/core/lv_obj_style_gen.c ****     lv_obj_set_local_style_prop(obj, LV_STYLE_ARC_WIDTH, v, selector);
 3347              		.loc 1 671 5 view .LVU602
 3348 0004 0A46     		mov	r2, r1
 3349              	.LVL351:
 3350              		.loc 1 671 5 is_stmt 0 view .LVU603
 3351 0006 4FF40561 		mov	r1, #2128
 3352              	.LVL352:
 3353              		.loc 1 671 5 view .LVU604
 3354 000a FFF7FEFF 		bl	lv_obj_set_local_style_prop
 3355              	.LVL353:
 672:lvgl/lvgl/src/core/lv_obj_style_gen.c **** }
 3356              		.loc 1 672 1 view .LVU605
 3357 000e 08BD     		pop	{r3, pc}
 3358              		.cfi_endproc
 3359              	.LFE235:
 3361              		.section	.text.lv_obj_set_style_arc_rounded,"ax",%progbits
 3362              		.align	1
 3363              		.global	lv_obj_set_style_arc_rounded
 3364              		.syntax unified
 3365              		.thumb
 3366              		.thumb_func
 3367              		.fpu fpv4-sp-d16
 3369              	lv_obj_set_style_arc_rounded:
 3370              	.LVL354:
 3371              	.LFB236:
 673:lvgl/lvgl/src/core/lv_obj_style_gen.c **** 
 674:lvgl/lvgl/src/core/lv_obj_style_gen.c **** void lv_obj_set_style_arc_rounded(struct _lv_obj_t * obj, lv_coord_t value, lv_style_selector_t sel
ARM GAS  C:\Users\gx\AppData\Local\Temp\ccBEEQee.s 			page 69


 675:lvgl/lvgl/src/core/lv_obj_style_gen.c **** {
 3372              		.loc 1 675 1 is_stmt 1 view -0
 3373              		.cfi_startproc
 3374              		@ args = 0, pretend = 0, frame = 0
 3375              		@ frame_needed = 0, uses_anonymous_args = 0
 3376              		.loc 1 675 1 is_stmt 0 view .LVU607
 3377 0000 08B5     		push	{r3, lr}
 3378              	.LCFI120:
 3379              		.cfi_def_cfa_offset 8
 3380              		.cfi_offset 3, -8
 3381              		.cfi_offset 14, -4
 3382 0002 1346     		mov	r3, r2
 676:lvgl/lvgl/src/core/lv_obj_style_gen.c ****     lv_style_value_t v = {
 3383              		.loc 1 676 5 is_stmt 1 view .LVU608
 677:lvgl/lvgl/src/core/lv_obj_style_gen.c ****         .num = (int32_t)value
 678:lvgl/lvgl/src/core/lv_obj_style_gen.c ****     };
 679:lvgl/lvgl/src/core/lv_obj_style_gen.c ****     lv_obj_set_local_style_prop(obj, LV_STYLE_ARC_ROUNDED, v, selector);
 3384              		.loc 1 679 5 view .LVU609
 3385 0004 0A46     		mov	r2, r1
 3386              	.LVL355:
 3387              		.loc 1 679 5 is_stmt 0 view .LVU610
 3388 0006 5121     		movs	r1, #81
 3389              	.LVL356:
 3390              		.loc 1 679 5 view .LVU611
 3391 0008 FFF7FEFF 		bl	lv_obj_set_local_style_prop
 3392              	.LVL357:
 680:lvgl/lvgl/src/core/lv_obj_style_gen.c **** }
 3393              		.loc 1 680 1 view .LVU612
 3394 000c 08BD     		pop	{r3, pc}
 3395              		.cfi_endproc
 3396              	.LFE236:
 3398              		.section	.text.lv_obj_set_style_arc_color,"ax",%progbits
 3399              		.align	1
 3400              		.global	lv_obj_set_style_arc_color
 3401              		.syntax unified
 3402              		.thumb
 3403              		.thumb_func
 3404              		.fpu fpv4-sp-d16
 3406              	lv_obj_set_style_arc_color:
 3407              	.LVL358:
 3408              	.LFB237:
 681:lvgl/lvgl/src/core/lv_obj_style_gen.c **** 
 682:lvgl/lvgl/src/core/lv_obj_style_gen.c **** void lv_obj_set_style_arc_color(struct _lv_obj_t * obj, lv_color_t value, lv_style_selector_t selec
 683:lvgl/lvgl/src/core/lv_obj_style_gen.c **** {
 3409              		.loc 1 683 1 is_stmt 1 view -0
 3410              		.cfi_startproc
 3411              		@ args = 0, pretend = 0, frame = 8
 3412              		@ frame_needed = 0, uses_anonymous_args = 0
 3413              		.loc 1 683 1 is_stmt 0 view .LVU614
 3414 0000 10B5     		push	{r4, lr}
 3415              	.LCFI121:
 3416              		.cfi_def_cfa_offset 8
 3417              		.cfi_offset 4, -8
 3418              		.cfi_offset 14, -4
 3419 0002 82B0     		sub	sp, sp, #8
 3420              	.LCFI122:
 3421              		.cfi_def_cfa_offset 16
ARM GAS  C:\Users\gx\AppData\Local\Temp\ccBEEQee.s 			page 70


 3422 0004 1346     		mov	r3, r2
 684:lvgl/lvgl/src/core/lv_obj_style_gen.c ****     lv_style_value_t v = {
 3423              		.loc 1 684 5 is_stmt 1 view .LVU615
 3424              		.loc 1 684 22 is_stmt 0 view .LVU616
 3425 0006 0024     		movs	r4, #0
 3426 0008 ADF80040 		strh	r4, [sp]	@ movhi
 3427 000c 2246     		mov	r2, r4
 3428              	.LVL359:
 3429              		.loc 1 684 22 view .LVU617
 3430 000e 64F31F42 		bfi	r2, r4, #16, #16
 3431              	.LVL360:
 3432              		.loc 1 684 22 view .LVU618
 3433 0012 61F30F02 		bfi	r2, r1, #0, #16
 3434              	.LVL361:
 685:lvgl/lvgl/src/core/lv_obj_style_gen.c ****         .color = value
 686:lvgl/lvgl/src/core/lv_obj_style_gen.c ****     };
 687:lvgl/lvgl/src/core/lv_obj_style_gen.c ****     lv_obj_set_local_style_prop(obj, LV_STYLE_ARC_COLOR, v, selector);
 3435              		.loc 1 687 5 is_stmt 1 view .LVU619
 3436 0016 5221     		movs	r1, #82
 3437 0018 FFF7FEFF 		bl	lv_obj_set_local_style_prop
 3438              	.LVL362:
 688:lvgl/lvgl/src/core/lv_obj_style_gen.c **** }
 3439              		.loc 1 688 1 is_stmt 0 view .LVU620
 3440 001c 02B0     		add	sp, sp, #8
 3441              	.LCFI123:
 3442              		.cfi_def_cfa_offset 8
 3443              		@ sp needed
 3444 001e 10BD     		pop	{r4, pc}
 3445              		.cfi_endproc
 3446              	.LFE237:
 3448              		.section	.text.lv_obj_set_style_arc_color_filtered,"ax",%progbits
 3449              		.align	1
 3450              		.global	lv_obj_set_style_arc_color_filtered
 3451              		.syntax unified
 3452              		.thumb
 3453              		.thumb_func
 3454              		.fpu fpv4-sp-d16
 3456              	lv_obj_set_style_arc_color_filtered:
 3457              	.LVL363:
 3458              	.LFB238:
 689:lvgl/lvgl/src/core/lv_obj_style_gen.c **** 
 690:lvgl/lvgl/src/core/lv_obj_style_gen.c **** void lv_obj_set_style_arc_color_filtered(struct _lv_obj_t * obj, lv_color_t value, lv_style_selecto
 691:lvgl/lvgl/src/core/lv_obj_style_gen.c **** {
 3459              		.loc 1 691 1 is_stmt 1 view -0
 3460              		.cfi_startproc
 3461              		@ args = 0, pretend = 0, frame = 8
 3462              		@ frame_needed = 0, uses_anonymous_args = 0
 3463              		.loc 1 691 1 is_stmt 0 view .LVU622
 3464 0000 10B5     		push	{r4, lr}
 3465              	.LCFI124:
 3466              		.cfi_def_cfa_offset 8
 3467              		.cfi_offset 4, -8
 3468              		.cfi_offset 14, -4
 3469 0002 82B0     		sub	sp, sp, #8
 3470              	.LCFI125:
 3471              		.cfi_def_cfa_offset 16
 3472 0004 1346     		mov	r3, r2
ARM GAS  C:\Users\gx\AppData\Local\Temp\ccBEEQee.s 			page 71


 692:lvgl/lvgl/src/core/lv_obj_style_gen.c ****     lv_style_value_t v = {
 3473              		.loc 1 692 5 is_stmt 1 view .LVU623
 3474              		.loc 1 692 22 is_stmt 0 view .LVU624
 3475 0006 0024     		movs	r4, #0
 3476 0008 ADF80040 		strh	r4, [sp]	@ movhi
 3477 000c 2246     		mov	r2, r4
 3478              	.LVL364:
 3479              		.loc 1 692 22 view .LVU625
 3480 000e 64F31F42 		bfi	r2, r4, #16, #16
 3481              	.LVL365:
 3482              		.loc 1 692 22 view .LVU626
 3483 0012 61F30F02 		bfi	r2, r1, #0, #16
 3484              	.LVL366:
 693:lvgl/lvgl/src/core/lv_obj_style_gen.c ****         .color = value
 694:lvgl/lvgl/src/core/lv_obj_style_gen.c ****     };
 695:lvgl/lvgl/src/core/lv_obj_style_gen.c ****     lv_obj_set_local_style_prop(obj, LV_STYLE_ARC_COLOR_FILTERED, v, selector);
 3485              		.loc 1 695 5 is_stmt 1 view .LVU627
 3486 0016 44F25201 		movw	r1, #16466
 3487 001a FFF7FEFF 		bl	lv_obj_set_local_style_prop
 3488              	.LVL367:
 696:lvgl/lvgl/src/core/lv_obj_style_gen.c **** }
 3489              		.loc 1 696 1 is_stmt 0 view .LVU628
 3490 001e 02B0     		add	sp, sp, #8
 3491              	.LCFI126:
 3492              		.cfi_def_cfa_offset 8
 3493              		@ sp needed
 3494 0020 10BD     		pop	{r4, pc}
 3495              		.cfi_endproc
 3496              	.LFE238:
 3498              		.section	.text.lv_obj_set_style_arc_opa,"ax",%progbits
 3499              		.align	1
 3500              		.global	lv_obj_set_style_arc_opa
 3501              		.syntax unified
 3502              		.thumb
 3503              		.thumb_func
 3504              		.fpu fpv4-sp-d16
 3506              	lv_obj_set_style_arc_opa:
 3507              	.LVL368:
 3508              	.LFB239:
 697:lvgl/lvgl/src/core/lv_obj_style_gen.c **** 
 698:lvgl/lvgl/src/core/lv_obj_style_gen.c **** void lv_obj_set_style_arc_opa(struct _lv_obj_t * obj, lv_opa_t value, lv_style_selector_t selector)
 699:lvgl/lvgl/src/core/lv_obj_style_gen.c **** {
 3509              		.loc 1 699 1 is_stmt 1 view -0
 3510              		.cfi_startproc
 3511              		@ args = 0, pretend = 0, frame = 0
 3512              		@ frame_needed = 0, uses_anonymous_args = 0
 3513              		.loc 1 699 1 is_stmt 0 view .LVU630
 3514 0000 08B5     		push	{r3, lr}
 3515              	.LCFI127:
 3516              		.cfi_def_cfa_offset 8
 3517              		.cfi_offset 3, -8
 3518              		.cfi_offset 14, -4
 3519 0002 1346     		mov	r3, r2
 700:lvgl/lvgl/src/core/lv_obj_style_gen.c ****     lv_style_value_t v = {
 3520              		.loc 1 700 5 is_stmt 1 view .LVU631
 701:lvgl/lvgl/src/core/lv_obj_style_gen.c ****         .num = (int32_t)value
 702:lvgl/lvgl/src/core/lv_obj_style_gen.c ****     };
ARM GAS  C:\Users\gx\AppData\Local\Temp\ccBEEQee.s 			page 72


 703:lvgl/lvgl/src/core/lv_obj_style_gen.c ****     lv_obj_set_local_style_prop(obj, LV_STYLE_ARC_OPA, v, selector);
 3521              		.loc 1 703 5 view .LVU632
 3522 0004 0A46     		mov	r2, r1
 3523              	.LVL369:
 3524              		.loc 1 703 5 is_stmt 0 view .LVU633
 3525 0006 5321     		movs	r1, #83
 3526              	.LVL370:
 3527              		.loc 1 703 5 view .LVU634
 3528 0008 FFF7FEFF 		bl	lv_obj_set_local_style_prop
 3529              	.LVL371:
 704:lvgl/lvgl/src/core/lv_obj_style_gen.c **** }
 3530              		.loc 1 704 1 view .LVU635
 3531 000c 08BD     		pop	{r3, pc}
 3532              		.cfi_endproc
 3533              	.LFE239:
 3535              		.section	.text.lv_obj_set_style_arc_img_src,"ax",%progbits
 3536              		.align	1
 3537              		.global	lv_obj_set_style_arc_img_src
 3538              		.syntax unified
 3539              		.thumb
 3540              		.thumb_func
 3541              		.fpu fpv4-sp-d16
 3543              	lv_obj_set_style_arc_img_src:
 3544              	.LVL372:
 3545              	.LFB240:
 705:lvgl/lvgl/src/core/lv_obj_style_gen.c **** 
 706:lvgl/lvgl/src/core/lv_obj_style_gen.c **** void lv_obj_set_style_arc_img_src(struct _lv_obj_t * obj, const void * value, lv_style_selector_t s
 707:lvgl/lvgl/src/core/lv_obj_style_gen.c **** {
 3546              		.loc 1 707 1 is_stmt 1 view -0
 3547              		.cfi_startproc
 3548              		@ args = 0, pretend = 0, frame = 0
 3549              		@ frame_needed = 0, uses_anonymous_args = 0
 3550              		.loc 1 707 1 is_stmt 0 view .LVU637
 3551 0000 08B5     		push	{r3, lr}
 3552              	.LCFI128:
 3553              		.cfi_def_cfa_offset 8
 3554              		.cfi_offset 3, -8
 3555              		.cfi_offset 14, -4
 3556 0002 1346     		mov	r3, r2
 708:lvgl/lvgl/src/core/lv_obj_style_gen.c ****     lv_style_value_t v = {
 3557              		.loc 1 708 5 is_stmt 1 view .LVU638
 709:lvgl/lvgl/src/core/lv_obj_style_gen.c ****         .ptr = value
 710:lvgl/lvgl/src/core/lv_obj_style_gen.c ****     };
 711:lvgl/lvgl/src/core/lv_obj_style_gen.c ****     lv_obj_set_local_style_prop(obj, LV_STYLE_ARC_IMG_SRC, v, selector);
 3558              		.loc 1 711 5 view .LVU639
 3559 0004 0A46     		mov	r2, r1
 3560              	.LVL373:
 3561              		.loc 1 711 5 is_stmt 0 view .LVU640
 3562 0006 5421     		movs	r1, #84
 3563              	.LVL374:
 3564              		.loc 1 711 5 view .LVU641
 3565 0008 FFF7FEFF 		bl	lv_obj_set_local_style_prop
 3566              	.LVL375:
 712:lvgl/lvgl/src/core/lv_obj_style_gen.c **** }
 3567              		.loc 1 712 1 view .LVU642
 3568 000c 08BD     		pop	{r3, pc}
 3569              		.cfi_endproc
ARM GAS  C:\Users\gx\AppData\Local\Temp\ccBEEQee.s 			page 73


 3570              	.LFE240:
 3572              		.text
 3573              	.Letext0:
 3574              		.file 2 "c:\\program files (x86)\\gnu arm embedded toolchain\\9 2020-q2-update\\arm-none-eabi\\inc
 3575              		.file 3 "c:\\program files (x86)\\gnu arm embedded toolchain\\9 2020-q2-update\\arm-none-eabi\\inc
 3576              		.file 4 "c:\\program files (x86)\\gnu arm embedded toolchain\\9 2020-q2-update\\lib\\gcc\\arm-none
 3577              		.file 5 "c:\\program files (x86)\\gnu arm embedded toolchain\\9 2020-q2-update\\arm-none-eabi\\inc
 3578              		.file 6 "c:\\program files (x86)\\gnu arm embedded toolchain\\9 2020-q2-update\\arm-none-eabi\\inc
 3579              		.file 7 "c:\\program files (x86)\\gnu arm embedded toolchain\\9 2020-q2-update\\arm-none-eabi\\inc
 3580              		.file 8 "d:\\practise\\f407_disc\\lvgl\\lvgl\\src\\misc\\lv_area.h"
 3581              		.file 9 "lvgl/lvgl/src/core/../misc/../font/lv_font.h"
 3582              		.file 10 "lvgl/lvgl/src/core/../misc/lv_color.h"
 3583              		.file 11 "lvgl/lvgl/src/core/../misc/lv_anim.h"
 3584              		.file 12 "lvgl/lvgl/src/core/../misc/lv_txt.h"
 3585              		.file 13 "lvgl/lvgl/src/core/../misc/lv_bidi.h"
 3586              		.file 14 "lvgl/lvgl/src/core/../misc/lv_style.h"
 3587              		.file 15 "lvgl/lvgl/src/core/../hal/../misc/lv_ll.h"
 3588              		.file 16 "lvgl/lvgl/src/core/lv_obj.h"
 3589              		.file 17 "lvgl/lvgl/src/core/lv_group.h"
 3590              		.file 18 "lvgl/lvgl/src/core/lv_obj_scroll.h"
 3591              		.file 19 "lvgl/lvgl/src/core/lv_obj_style.h"
 3592              		.file 20 "lvgl/lvgl/src/core/../draw/lv_draw_label.h"
 3593              		.file 21 "lvgl/lvgl/src/core/lv_obj_class.h"
 3594              		.file 22 "lvgl/lvgl/src/core/lv_event.h"
ARM GAS  C:\Users\gx\AppData\Local\Temp\ccBEEQee.s 			page 74

