ARM GAS  C:\Users\gx\AppData\Local\Temp\cc2sgWsf.s 			page 1


   1              		.cpu cortex-m4
   2              		.eabi_attribute 27, 1
   3              		.eabi_attribute 28, 1
   4              		.eabi_attribute 20, 1
   5              		.eabi_attribute 21, 1
   6              		.eabi_attribute 23, 3
   7              		.eabi_attribute 24, 1
   8              		.eabi_attribute 25, 1
   9              		.eabi_attribute 26, 1
  10              		.eabi_attribute 30, 1
  11              		.eabi_attribute 34, 1
  12              		.eabi_attribute 18, 4
  13              		.file	"lv_obj_style.c"
  14              		.text
  15              	.Ltext0:
  16              		.cfi_sections	.debug_frame
  17              		.section	.text.trans_del,"ax",%progbits
  18              		.align	1
  19              		.arch armv7e-m
  20              		.syntax unified
  21              		.thumb
  22              		.thumb_func
  23              		.fpu fpv4-sp-d16
  25              	trans_del:
  26              	.LVL0:
  27              	.LFB181:
  28              		.file 1 "lvgl/lvgl/src/core/lv_obj_style.c"
   1:lvgl/lvgl/src/core/lv_obj_style.c **** /**
   2:lvgl/lvgl/src/core/lv_obj_style.c ****  * @file lv_obj_style.c
   3:lvgl/lvgl/src/core/lv_obj_style.c ****  *
   4:lvgl/lvgl/src/core/lv_obj_style.c ****  */
   5:lvgl/lvgl/src/core/lv_obj_style.c **** 
   6:lvgl/lvgl/src/core/lv_obj_style.c **** /*********************
   7:lvgl/lvgl/src/core/lv_obj_style.c ****  *      INCLUDES
   8:lvgl/lvgl/src/core/lv_obj_style.c ****  *********************/
   9:lvgl/lvgl/src/core/lv_obj_style.c **** #include "lv_obj.h"
  10:lvgl/lvgl/src/core/lv_obj_style.c **** #include "lv_disp.h"
  11:lvgl/lvgl/src/core/lv_obj_style.c **** #include "../misc/lv_gc.h"
  12:lvgl/lvgl/src/core/lv_obj_style.c **** 
  13:lvgl/lvgl/src/core/lv_obj_style.c **** /*********************
  14:lvgl/lvgl/src/core/lv_obj_style.c ****  *      DEFINES
  15:lvgl/lvgl/src/core/lv_obj_style.c ****  *********************/
  16:lvgl/lvgl/src/core/lv_obj_style.c **** #define MY_CLASS &lv_obj_class
  17:lvgl/lvgl/src/core/lv_obj_style.c **** 
  18:lvgl/lvgl/src/core/lv_obj_style.c **** /**********************
  19:lvgl/lvgl/src/core/lv_obj_style.c ****  *      TYPEDEFS
  20:lvgl/lvgl/src/core/lv_obj_style.c ****  **********************/
  21:lvgl/lvgl/src/core/lv_obj_style.c **** 
  22:lvgl/lvgl/src/core/lv_obj_style.c **** typedef struct {
  23:lvgl/lvgl/src/core/lv_obj_style.c ****     lv_obj_t * obj;
  24:lvgl/lvgl/src/core/lv_obj_style.c ****     lv_style_prop_t prop;
  25:lvgl/lvgl/src/core/lv_obj_style.c ****     lv_style_selector_t selector;
  26:lvgl/lvgl/src/core/lv_obj_style.c ****     lv_style_value_t start_value;
  27:lvgl/lvgl/src/core/lv_obj_style.c ****     lv_style_value_t end_value;
  28:lvgl/lvgl/src/core/lv_obj_style.c **** } trans_t;
  29:lvgl/lvgl/src/core/lv_obj_style.c **** 
  30:lvgl/lvgl/src/core/lv_obj_style.c **** typedef enum {
ARM GAS  C:\Users\gx\AppData\Local\Temp\cc2sgWsf.s 			page 2


  31:lvgl/lvgl/src/core/lv_obj_style.c ****     CACHE_ZERO = 0,
  32:lvgl/lvgl/src/core/lv_obj_style.c ****     CACHE_TRUE = 1,
  33:lvgl/lvgl/src/core/lv_obj_style.c ****     CACHE_UNSET = 2,
  34:lvgl/lvgl/src/core/lv_obj_style.c ****     CACHE_255 = 3,
  35:lvgl/lvgl/src/core/lv_obj_style.c ****     CACHE_NEED_CHECK = 4,
  36:lvgl/lvgl/src/core/lv_obj_style.c **** }cache_t;
  37:lvgl/lvgl/src/core/lv_obj_style.c **** 
  38:lvgl/lvgl/src/core/lv_obj_style.c **** /**********************
  39:lvgl/lvgl/src/core/lv_obj_style.c ****  *  GLOBAL PROTOTYPES
  40:lvgl/lvgl/src/core/lv_obj_style.c ****  **********************/
  41:lvgl/lvgl/src/core/lv_obj_style.c **** 
  42:lvgl/lvgl/src/core/lv_obj_style.c **** /**********************
  43:lvgl/lvgl/src/core/lv_obj_style.c ****  *  STATIC PROTOTYPES
  44:lvgl/lvgl/src/core/lv_obj_style.c ****  **********************/
  45:lvgl/lvgl/src/core/lv_obj_style.c **** static lv_style_t * get_local_style(lv_obj_t * obj, lv_style_selector_t selector);
  46:lvgl/lvgl/src/core/lv_obj_style.c **** static _lv_obj_style_t * get_trans_style(lv_obj_t * obj, uint32_t part);
  47:lvgl/lvgl/src/core/lv_obj_style.c **** static bool get_prop_core(const lv_obj_t * obj, lv_part_t part, lv_style_prop_t prop, lv_style_valu
  48:lvgl/lvgl/src/core/lv_obj_style.c **** static lv_style_value_t apply_color_filter(const lv_obj_t * obj, uint32_t part, lv_style_value_t v)
  49:lvgl/lvgl/src/core/lv_obj_style.c **** static void report_style_change_core(void * style, lv_obj_t * obj);
  50:lvgl/lvgl/src/core/lv_obj_style.c **** static void refresh_children_style(lv_obj_t * obj);
  51:lvgl/lvgl/src/core/lv_obj_style.c **** static bool trans_del(lv_obj_t * obj, lv_part_t part, lv_style_prop_t prop, trans_t * tr_limit);
  52:lvgl/lvgl/src/core/lv_obj_style.c **** static void trans_anim_cb(void * _tr, int32_t v);
  53:lvgl/lvgl/src/core/lv_obj_style.c **** static void trans_anim_start_cb(lv_anim_t * a);
  54:lvgl/lvgl/src/core/lv_obj_style.c **** static void trans_anim_ready_cb(lv_anim_t * a);
  55:lvgl/lvgl/src/core/lv_obj_style.c **** static void fade_anim_cb(void * obj, int32_t v);
  56:lvgl/lvgl/src/core/lv_obj_style.c **** static void fade_in_anim_ready(lv_anim_t * a);
  57:lvgl/lvgl/src/core/lv_obj_style.c **** 
  58:lvgl/lvgl/src/core/lv_obj_style.c **** /**********************
  59:lvgl/lvgl/src/core/lv_obj_style.c ****  *  STATIC VARIABLES
  60:lvgl/lvgl/src/core/lv_obj_style.c ****  **********************/
  61:lvgl/lvgl/src/core/lv_obj_style.c **** static bool style_refr = true;
  62:lvgl/lvgl/src/core/lv_obj_style.c **** 
  63:lvgl/lvgl/src/core/lv_obj_style.c **** /**********************
  64:lvgl/lvgl/src/core/lv_obj_style.c ****  *      MACROS
  65:lvgl/lvgl/src/core/lv_obj_style.c ****  **********************/
  66:lvgl/lvgl/src/core/lv_obj_style.c **** 
  67:lvgl/lvgl/src/core/lv_obj_style.c **** /**********************
  68:lvgl/lvgl/src/core/lv_obj_style.c ****  *   GLOBAL FUNCTIONS
  69:lvgl/lvgl/src/core/lv_obj_style.c ****  **********************/
  70:lvgl/lvgl/src/core/lv_obj_style.c **** 
  71:lvgl/lvgl/src/core/lv_obj_style.c **** void _lv_obj_style_init(void)
  72:lvgl/lvgl/src/core/lv_obj_style.c **** {
  73:lvgl/lvgl/src/core/lv_obj_style.c ****     _lv_ll_init(&LV_GC_ROOT(_lv_obj_style_trans_ll), sizeof(trans_t));
  74:lvgl/lvgl/src/core/lv_obj_style.c **** }
  75:lvgl/lvgl/src/core/lv_obj_style.c **** 
  76:lvgl/lvgl/src/core/lv_obj_style.c **** void lv_obj_add_style(lv_obj_t * obj, lv_style_t * style, lv_style_selector_t selector)
  77:lvgl/lvgl/src/core/lv_obj_style.c **** {
  78:lvgl/lvgl/src/core/lv_obj_style.c ****     trans_del(obj, selector, LV_STYLE_PROP_ANY, NULL);
  79:lvgl/lvgl/src/core/lv_obj_style.c **** 
  80:lvgl/lvgl/src/core/lv_obj_style.c ****     uint32_t i;
  81:lvgl/lvgl/src/core/lv_obj_style.c ****     /*Go after the transition and local styles*/
  82:lvgl/lvgl/src/core/lv_obj_style.c ****     for(i = 0; i < obj->style_cnt; i++) {
  83:lvgl/lvgl/src/core/lv_obj_style.c ****         if(obj->styles[i].is_trans) continue;
  84:lvgl/lvgl/src/core/lv_obj_style.c ****         if(obj->styles[i].is_local) continue;
  85:lvgl/lvgl/src/core/lv_obj_style.c ****         break;
  86:lvgl/lvgl/src/core/lv_obj_style.c ****     }
  87:lvgl/lvgl/src/core/lv_obj_style.c **** 
ARM GAS  C:\Users\gx\AppData\Local\Temp\cc2sgWsf.s 			page 3


  88:lvgl/lvgl/src/core/lv_obj_style.c ****     /*Now `i` is at the first normal style. Insert the new style before this*/
  89:lvgl/lvgl/src/core/lv_obj_style.c **** 
  90:lvgl/lvgl/src/core/lv_obj_style.c ****     /*Allocate space for the new style and shift the rest of the style to the end*/
  91:lvgl/lvgl/src/core/lv_obj_style.c ****     obj->style_cnt++;
  92:lvgl/lvgl/src/core/lv_obj_style.c ****     obj->styles = lv_mem_realloc(obj->styles, obj->style_cnt * sizeof(_lv_obj_style_t));
  93:lvgl/lvgl/src/core/lv_obj_style.c **** 
  94:lvgl/lvgl/src/core/lv_obj_style.c ****     uint32_t j;
  95:lvgl/lvgl/src/core/lv_obj_style.c ****     for(j = obj->style_cnt - 1; j > i ; j--) {
  96:lvgl/lvgl/src/core/lv_obj_style.c ****         obj->styles[j] = obj->styles[j - 1];
  97:lvgl/lvgl/src/core/lv_obj_style.c ****     }
  98:lvgl/lvgl/src/core/lv_obj_style.c **** 
  99:lvgl/lvgl/src/core/lv_obj_style.c ****     lv_memset_00(&obj->styles[i], sizeof(_lv_obj_style_t));
 100:lvgl/lvgl/src/core/lv_obj_style.c ****     obj->styles[i].style = style;
 101:lvgl/lvgl/src/core/lv_obj_style.c ****     obj->styles[i].selector = selector;
 102:lvgl/lvgl/src/core/lv_obj_style.c **** 
 103:lvgl/lvgl/src/core/lv_obj_style.c ****     lv_obj_refresh_style(obj, selector, LV_STYLE_PROP_ANY);
 104:lvgl/lvgl/src/core/lv_obj_style.c **** }
 105:lvgl/lvgl/src/core/lv_obj_style.c **** 
 106:lvgl/lvgl/src/core/lv_obj_style.c **** void lv_obj_remove_style(lv_obj_t * obj, lv_style_t * style, lv_style_selector_t selector)
 107:lvgl/lvgl/src/core/lv_obj_style.c **** {
 108:lvgl/lvgl/src/core/lv_obj_style.c ****     lv_state_t state = lv_obj_style_get_selector_state(selector);
 109:lvgl/lvgl/src/core/lv_obj_style.c ****     lv_part_t part = lv_obj_style_get_selector_part(selector);
 110:lvgl/lvgl/src/core/lv_obj_style.c ****     lv_style_prop_t prop = LV_STYLE_PROP_ANY;
 111:lvgl/lvgl/src/core/lv_obj_style.c ****     if(style && style->prop_cnt == 0) prop = LV_STYLE_PROP_INV;
 112:lvgl/lvgl/src/core/lv_obj_style.c **** 
 113:lvgl/lvgl/src/core/lv_obj_style.c ****     uint32_t i = 0;
 114:lvgl/lvgl/src/core/lv_obj_style.c ****     bool deleted = false;
 115:lvgl/lvgl/src/core/lv_obj_style.c ****     while(i <  obj->style_cnt) {
 116:lvgl/lvgl/src/core/lv_obj_style.c ****         lv_state_t state_act = lv_obj_style_get_selector_state(obj->styles[i].selector);
 117:lvgl/lvgl/src/core/lv_obj_style.c ****         lv_part_t part_act = lv_obj_style_get_selector_part(obj->styles[i].selector);
 118:lvgl/lvgl/src/core/lv_obj_style.c ****         if((state != LV_STATE_ANY && state_act != state) ||
 119:lvgl/lvgl/src/core/lv_obj_style.c ****            (part != LV_PART_ANY && part_act != part) ||
 120:lvgl/lvgl/src/core/lv_obj_style.c ****            (style != NULL && style != obj->styles[i].style))
 121:lvgl/lvgl/src/core/lv_obj_style.c ****         {
 122:lvgl/lvgl/src/core/lv_obj_style.c ****             i++;
 123:lvgl/lvgl/src/core/lv_obj_style.c ****             continue;
 124:lvgl/lvgl/src/core/lv_obj_style.c ****         }
 125:lvgl/lvgl/src/core/lv_obj_style.c **** 
 126:lvgl/lvgl/src/core/lv_obj_style.c ****         if(obj->styles[i].is_trans) {
 127:lvgl/lvgl/src/core/lv_obj_style.c ****             trans_del(obj, part, LV_STYLE_PROP_ANY, NULL);
 128:lvgl/lvgl/src/core/lv_obj_style.c ****         }
 129:lvgl/lvgl/src/core/lv_obj_style.c **** 
 130:lvgl/lvgl/src/core/lv_obj_style.c ****         if(obj->styles[i].is_local || obj->styles[i].is_trans) {
 131:lvgl/lvgl/src/core/lv_obj_style.c ****             lv_style_reset(obj->styles[i].style);
 132:lvgl/lvgl/src/core/lv_obj_style.c ****             lv_mem_free(obj->styles[i].style);
 133:lvgl/lvgl/src/core/lv_obj_style.c ****             obj->styles[i].style = NULL;
 134:lvgl/lvgl/src/core/lv_obj_style.c ****         }
 135:lvgl/lvgl/src/core/lv_obj_style.c **** 
 136:lvgl/lvgl/src/core/lv_obj_style.c ****         /*Shift the styles after `i` by one*/
 137:lvgl/lvgl/src/core/lv_obj_style.c ****         uint32_t j;
 138:lvgl/lvgl/src/core/lv_obj_style.c ****         for(j = i; j < (uint32_t)obj->style_cnt - 1 ; j++) {
 139:lvgl/lvgl/src/core/lv_obj_style.c ****             obj->styles[j] = obj->styles[j + 1];
 140:lvgl/lvgl/src/core/lv_obj_style.c ****         }
 141:lvgl/lvgl/src/core/lv_obj_style.c **** 
 142:lvgl/lvgl/src/core/lv_obj_style.c ****         obj->style_cnt--;
 143:lvgl/lvgl/src/core/lv_obj_style.c ****         obj->styles = lv_mem_realloc(obj->styles, obj->style_cnt * sizeof(_lv_obj_style_t));
 144:lvgl/lvgl/src/core/lv_obj_style.c **** 
ARM GAS  C:\Users\gx\AppData\Local\Temp\cc2sgWsf.s 			page 4


 145:lvgl/lvgl/src/core/lv_obj_style.c ****         deleted = true;
 146:lvgl/lvgl/src/core/lv_obj_style.c ****         /*The style from the current `i` index is removed, so `i` points to the next style.
 147:lvgl/lvgl/src/core/lv_obj_style.c ****          *Therefore it doesn't needs to be incremented*/
 148:lvgl/lvgl/src/core/lv_obj_style.c ****     }
 149:lvgl/lvgl/src/core/lv_obj_style.c ****     if(deleted && prop != LV_STYLE_PROP_INV) {
 150:lvgl/lvgl/src/core/lv_obj_style.c ****         lv_obj_refresh_style(obj, part, prop);
 151:lvgl/lvgl/src/core/lv_obj_style.c ****     }
 152:lvgl/lvgl/src/core/lv_obj_style.c **** }
 153:lvgl/lvgl/src/core/lv_obj_style.c **** 
 154:lvgl/lvgl/src/core/lv_obj_style.c **** void lv_obj_report_style_change(lv_style_t * style)
 155:lvgl/lvgl/src/core/lv_obj_style.c **** {
 156:lvgl/lvgl/src/core/lv_obj_style.c ****     if(!style_refr) return;
 157:lvgl/lvgl/src/core/lv_obj_style.c ****     lv_disp_t * d = lv_disp_get_next(NULL);
 158:lvgl/lvgl/src/core/lv_obj_style.c **** 
 159:lvgl/lvgl/src/core/lv_obj_style.c ****     while(d) {
 160:lvgl/lvgl/src/core/lv_obj_style.c ****         uint32_t i;
 161:lvgl/lvgl/src/core/lv_obj_style.c ****         for(i = 0; i < d->screen_cnt; i++) {
 162:lvgl/lvgl/src/core/lv_obj_style.c ****             report_style_change_core(style, d->screens[i]);
 163:lvgl/lvgl/src/core/lv_obj_style.c ****         }
 164:lvgl/lvgl/src/core/lv_obj_style.c ****         d = lv_disp_get_next(d);
 165:lvgl/lvgl/src/core/lv_obj_style.c ****     }
 166:lvgl/lvgl/src/core/lv_obj_style.c **** }
 167:lvgl/lvgl/src/core/lv_obj_style.c **** 
 168:lvgl/lvgl/src/core/lv_obj_style.c **** void lv_obj_refresh_style(lv_obj_t * obj, lv_style_selector_t selector, lv_style_prop_t prop)
 169:lvgl/lvgl/src/core/lv_obj_style.c **** {
 170:lvgl/lvgl/src/core/lv_obj_style.c ****     LV_ASSERT_OBJ(obj, MY_CLASS);
 171:lvgl/lvgl/src/core/lv_obj_style.c **** 
 172:lvgl/lvgl/src/core/lv_obj_style.c ****     if(!style_refr) return;
 173:lvgl/lvgl/src/core/lv_obj_style.c **** 
 174:lvgl/lvgl/src/core/lv_obj_style.c ****     lv_obj_invalidate(obj);
 175:lvgl/lvgl/src/core/lv_obj_style.c **** 
 176:lvgl/lvgl/src/core/lv_obj_style.c ****     lv_part_t part = lv_obj_style_get_selector_part(selector);
 177:lvgl/lvgl/src/core/lv_obj_style.c **** 
 178:lvgl/lvgl/src/core/lv_obj_style.c ****     if(prop & LV_STYLE_PROP_LAYOUT_REFR) {
 179:lvgl/lvgl/src/core/lv_obj_style.c ****         if(part == LV_PART_ANY ||
 180:lvgl/lvgl/src/core/lv_obj_style.c ****            part == LV_PART_MAIN ||
 181:lvgl/lvgl/src/core/lv_obj_style.c ****            lv_obj_get_style_height(obj, 0) == LV_SIZE_CONTENT ||
 182:lvgl/lvgl/src/core/lv_obj_style.c ****            lv_obj_get_style_width(obj, 0) == LV_SIZE_CONTENT)
 183:lvgl/lvgl/src/core/lv_obj_style.c ****         {
 184:lvgl/lvgl/src/core/lv_obj_style.c ****             lv_event_send(obj, LV_EVENT_STYLE_CHANGED, NULL);
 185:lvgl/lvgl/src/core/lv_obj_style.c ****             lv_obj_mark_layout_as_dirty(obj);
 186:lvgl/lvgl/src/core/lv_obj_style.c ****         }
 187:lvgl/lvgl/src/core/lv_obj_style.c ****     }
 188:lvgl/lvgl/src/core/lv_obj_style.c ****     if((part == LV_PART_ANY || part == LV_PART_MAIN) && (prop == LV_STYLE_PROP_ANY || (prop & LV_ST
 189:lvgl/lvgl/src/core/lv_obj_style.c ****         lv_obj_t * parent = lv_obj_get_parent(obj);
 190:lvgl/lvgl/src/core/lv_obj_style.c ****         if(parent) lv_obj_mark_layout_as_dirty(parent);
 191:lvgl/lvgl/src/core/lv_obj_style.c ****     }
 192:lvgl/lvgl/src/core/lv_obj_style.c **** 
 193:lvgl/lvgl/src/core/lv_obj_style.c ****     if(prop == LV_STYLE_PROP_ANY || (prop & LV_STYLE_PROP_EXT_DRAW)) {
 194:lvgl/lvgl/src/core/lv_obj_style.c ****         lv_obj_refresh_ext_draw_size(obj);
 195:lvgl/lvgl/src/core/lv_obj_style.c ****     }
 196:lvgl/lvgl/src/core/lv_obj_style.c ****     lv_obj_invalidate(obj);
 197:lvgl/lvgl/src/core/lv_obj_style.c **** 
 198:lvgl/lvgl/src/core/lv_obj_style.c ****     if(prop == LV_STYLE_PROP_ANY ||
 199:lvgl/lvgl/src/core/lv_obj_style.c ****       ((prop & LV_STYLE_PROP_INHERIT) && ((prop & LV_STYLE_PROP_EXT_DRAW) || (prop & LV_STYLE_PROP_
 200:lvgl/lvgl/src/core/lv_obj_style.c ****     {
 201:lvgl/lvgl/src/core/lv_obj_style.c ****         if(part != LV_PART_SCROLLBAR) {
ARM GAS  C:\Users\gx\AppData\Local\Temp\cc2sgWsf.s 			page 5


 202:lvgl/lvgl/src/core/lv_obj_style.c ****             refresh_children_style(obj);
 203:lvgl/lvgl/src/core/lv_obj_style.c ****         }
 204:lvgl/lvgl/src/core/lv_obj_style.c ****     }
 205:lvgl/lvgl/src/core/lv_obj_style.c **** }
 206:lvgl/lvgl/src/core/lv_obj_style.c **** 
 207:lvgl/lvgl/src/core/lv_obj_style.c **** void lv_obj_enable_style_refresh(bool en)
 208:lvgl/lvgl/src/core/lv_obj_style.c **** {
 209:lvgl/lvgl/src/core/lv_obj_style.c ****     style_refr = en;
 210:lvgl/lvgl/src/core/lv_obj_style.c **** }
 211:lvgl/lvgl/src/core/lv_obj_style.c **** 
 212:lvgl/lvgl/src/core/lv_obj_style.c **** lv_style_value_t lv_obj_get_style_prop(const lv_obj_t * obj, lv_part_t part, lv_style_prop_t prop)
 213:lvgl/lvgl/src/core/lv_obj_style.c **** {
 214:lvgl/lvgl/src/core/lv_obj_style.c ****     lv_style_value_t value_act;
 215:lvgl/lvgl/src/core/lv_obj_style.c ****     bool inherit = prop & LV_STYLE_PROP_INHERIT ? true : false;
 216:lvgl/lvgl/src/core/lv_obj_style.c ****     bool filter = prop & LV_STYLE_PROP_FILTER ? true : false;
 217:lvgl/lvgl/src/core/lv_obj_style.c ****     if(filter) {
 218:lvgl/lvgl/src/core/lv_obj_style.c ****         prop &= ~LV_STYLE_PROP_FILTER;
 219:lvgl/lvgl/src/core/lv_obj_style.c ****     }
 220:lvgl/lvgl/src/core/lv_obj_style.c ****     bool found = false;
 221:lvgl/lvgl/src/core/lv_obj_style.c ****     while(obj) {
 222:lvgl/lvgl/src/core/lv_obj_style.c ****         found = get_prop_core(obj, part, prop, &value_act);
 223:lvgl/lvgl/src/core/lv_obj_style.c ****         if(found) break;
 224:lvgl/lvgl/src/core/lv_obj_style.c ****         if(!inherit) break;
 225:lvgl/lvgl/src/core/lv_obj_style.c **** 
 226:lvgl/lvgl/src/core/lv_obj_style.c ****         /*If not found, check the `MAIN` style first*/
 227:lvgl/lvgl/src/core/lv_obj_style.c ****         if(part != LV_PART_MAIN) {
 228:lvgl/lvgl/src/core/lv_obj_style.c ****             part = LV_PART_MAIN;
 229:lvgl/lvgl/src/core/lv_obj_style.c ****             continue;
 230:lvgl/lvgl/src/core/lv_obj_style.c ****         }
 231:lvgl/lvgl/src/core/lv_obj_style.c **** 
 232:lvgl/lvgl/src/core/lv_obj_style.c ****         /*Check the parent too.*/
 233:lvgl/lvgl/src/core/lv_obj_style.c ****         obj = lv_obj_get_parent(obj);
 234:lvgl/lvgl/src/core/lv_obj_style.c ****     }
 235:lvgl/lvgl/src/core/lv_obj_style.c **** 
 236:lvgl/lvgl/src/core/lv_obj_style.c ****     if(!found) {
 237:lvgl/lvgl/src/core/lv_obj_style.c ****         if(part == LV_PART_MAIN && (prop == LV_STYLE_WIDTH || prop == LV_STYLE_HEIGHT)) {
 238:lvgl/lvgl/src/core/lv_obj_style.c ****             const lv_obj_class_t * cls = obj->class_p;
 239:lvgl/lvgl/src/core/lv_obj_style.c ****             while(cls) {
 240:lvgl/lvgl/src/core/lv_obj_style.c ****                 if(prop == LV_STYLE_WIDTH) {
 241:lvgl/lvgl/src/core/lv_obj_style.c ****                     if(cls->width_def != 0) break;
 242:lvgl/lvgl/src/core/lv_obj_style.c ****                 } else {
 243:lvgl/lvgl/src/core/lv_obj_style.c ****                     if(cls->height_def != 0) break;
 244:lvgl/lvgl/src/core/lv_obj_style.c ****                 }
 245:lvgl/lvgl/src/core/lv_obj_style.c ****                 cls = cls->base_class;
 246:lvgl/lvgl/src/core/lv_obj_style.c ****             }
 247:lvgl/lvgl/src/core/lv_obj_style.c **** 
 248:lvgl/lvgl/src/core/lv_obj_style.c ****             value_act.num = prop == LV_STYLE_WIDTH ? cls->width_def : cls->height_def;
 249:lvgl/lvgl/src/core/lv_obj_style.c ****         } else {
 250:lvgl/lvgl/src/core/lv_obj_style.c ****             value_act = lv_style_prop_get_default(prop);
 251:lvgl/lvgl/src/core/lv_obj_style.c ****         }
 252:lvgl/lvgl/src/core/lv_obj_style.c ****     }
 253:lvgl/lvgl/src/core/lv_obj_style.c ****     if(filter) value_act = apply_color_filter(obj, part, value_act);
 254:lvgl/lvgl/src/core/lv_obj_style.c ****     return value_act;
 255:lvgl/lvgl/src/core/lv_obj_style.c **** }
 256:lvgl/lvgl/src/core/lv_obj_style.c **** 
 257:lvgl/lvgl/src/core/lv_obj_style.c **** void lv_obj_set_local_style_prop(lv_obj_t * obj, lv_style_prop_t prop, lv_style_value_t value, lv_s
 258:lvgl/lvgl/src/core/lv_obj_style.c **** {
ARM GAS  C:\Users\gx\AppData\Local\Temp\cc2sgWsf.s 			page 6


 259:lvgl/lvgl/src/core/lv_obj_style.c ****     lv_style_t * style = get_local_style(obj, selector);
 260:lvgl/lvgl/src/core/lv_obj_style.c ****     lv_style_set_prop(style, prop, value);
 261:lvgl/lvgl/src/core/lv_obj_style.c ****     lv_obj_refresh_style(obj, selector, prop);
 262:lvgl/lvgl/src/core/lv_obj_style.c **** }
 263:lvgl/lvgl/src/core/lv_obj_style.c **** 
 264:lvgl/lvgl/src/core/lv_obj_style.c **** 
 265:lvgl/lvgl/src/core/lv_obj_style.c **** lv_res_t lv_obj_get_local_style_prop(lv_obj_t * obj, lv_style_prop_t prop, lv_style_value_t * value
 266:lvgl/lvgl/src/core/lv_obj_style.c **** {
 267:lvgl/lvgl/src/core/lv_obj_style.c ****     uint32_t i;
 268:lvgl/lvgl/src/core/lv_obj_style.c ****     for(i = 0; i < obj->style_cnt; i++) {
 269:lvgl/lvgl/src/core/lv_obj_style.c ****         if(obj->styles[i].is_local &&
 270:lvgl/lvgl/src/core/lv_obj_style.c ****            obj->styles[i].selector ==  selector)
 271:lvgl/lvgl/src/core/lv_obj_style.c ****         {
 272:lvgl/lvgl/src/core/lv_obj_style.c ****             return lv_style_get_prop(obj->styles[i].style, prop, value);
 273:lvgl/lvgl/src/core/lv_obj_style.c ****         }
 274:lvgl/lvgl/src/core/lv_obj_style.c ****     }
 275:lvgl/lvgl/src/core/lv_obj_style.c **** 
 276:lvgl/lvgl/src/core/lv_obj_style.c ****     return LV_RES_INV;
 277:lvgl/lvgl/src/core/lv_obj_style.c **** }
 278:lvgl/lvgl/src/core/lv_obj_style.c **** 
 279:lvgl/lvgl/src/core/lv_obj_style.c **** bool lv_obj_remove_local_style_prop(lv_obj_t * obj, lv_style_prop_t prop, lv_style_selector_t selec
 280:lvgl/lvgl/src/core/lv_obj_style.c **** {
 281:lvgl/lvgl/src/core/lv_obj_style.c ****     LV_ASSERT_OBJ(obj, MY_CLASS);
 282:lvgl/lvgl/src/core/lv_obj_style.c **** 
 283:lvgl/lvgl/src/core/lv_obj_style.c ****     uint32_t i;
 284:lvgl/lvgl/src/core/lv_obj_style.c ****     /*Find the style*/
 285:lvgl/lvgl/src/core/lv_obj_style.c ****     for(i = 0; i < obj->style_cnt; i++) {
 286:lvgl/lvgl/src/core/lv_obj_style.c ****         if(obj->styles[i].is_local &&
 287:lvgl/lvgl/src/core/lv_obj_style.c ****            obj->styles[i].selector == selector) {
 288:lvgl/lvgl/src/core/lv_obj_style.c ****             break;
 289:lvgl/lvgl/src/core/lv_obj_style.c ****         }
 290:lvgl/lvgl/src/core/lv_obj_style.c ****     }
 291:lvgl/lvgl/src/core/lv_obj_style.c **** 
 292:lvgl/lvgl/src/core/lv_obj_style.c ****     /*The style is not found*/
 293:lvgl/lvgl/src/core/lv_obj_style.c ****     if(i == obj->style_cnt) return false;
 294:lvgl/lvgl/src/core/lv_obj_style.c **** 
 295:lvgl/lvgl/src/core/lv_obj_style.c ****     return lv_style_remove_prop(obj->styles[i].style, prop);
 296:lvgl/lvgl/src/core/lv_obj_style.c **** }
 297:lvgl/lvgl/src/core/lv_obj_style.c **** 
 298:lvgl/lvgl/src/core/lv_obj_style.c **** void _lv_obj_style_create_transition(lv_obj_t * obj, lv_part_t part, lv_state_t prev_state, lv_stat
 299:lvgl/lvgl/src/core/lv_obj_style.c **** {
 300:lvgl/lvgl/src/core/lv_obj_style.c ****     trans_t * tr;
 301:lvgl/lvgl/src/core/lv_obj_style.c **** 
 302:lvgl/lvgl/src/core/lv_obj_style.c ****     /*Get the previous and current values*/
 303:lvgl/lvgl/src/core/lv_obj_style.c ****     obj->skip_trans = 1;
 304:lvgl/lvgl/src/core/lv_obj_style.c ****     obj->state = prev_state;
 305:lvgl/lvgl/src/core/lv_obj_style.c ****     lv_style_value_t v1 = lv_obj_get_style_prop(obj, part, tr_dsc->prop);
 306:lvgl/lvgl/src/core/lv_obj_style.c ****     obj->state = new_state;
 307:lvgl/lvgl/src/core/lv_obj_style.c ****     lv_style_value_t v2 = lv_obj_get_style_prop(obj, part, tr_dsc->prop);
 308:lvgl/lvgl/src/core/lv_obj_style.c ****     obj->skip_trans = 0;
 309:lvgl/lvgl/src/core/lv_obj_style.c **** 
 310:lvgl/lvgl/src/core/lv_obj_style.c ****     if(v1.ptr == v2.ptr && v1.num == v2.num && v1.color.full == v2.color.full)  return;
 311:lvgl/lvgl/src/core/lv_obj_style.c ****     obj->state = prev_state;
 312:lvgl/lvgl/src/core/lv_obj_style.c ****     v1 = lv_obj_get_style_prop(obj, part, tr_dsc->prop);
 313:lvgl/lvgl/src/core/lv_obj_style.c ****     obj->state = new_state;
 314:lvgl/lvgl/src/core/lv_obj_style.c **** 
 315:lvgl/lvgl/src/core/lv_obj_style.c ****     _lv_obj_style_t * style_trans = get_trans_style(obj, part);
ARM GAS  C:\Users\gx\AppData\Local\Temp\cc2sgWsf.s 			page 7


 316:lvgl/lvgl/src/core/lv_obj_style.c ****     lv_style_set_prop(style_trans->style, tr_dsc->prop, v1);   /*Be sure `trans_style` has a valid 
 317:lvgl/lvgl/src/core/lv_obj_style.c **** 
 318:lvgl/lvgl/src/core/lv_obj_style.c ****     if(tr_dsc->prop == LV_STYLE_RADIUS) {
 319:lvgl/lvgl/src/core/lv_obj_style.c ****         if(v1.num == LV_RADIUS_CIRCLE || v2.num == LV_RADIUS_CIRCLE) {
 320:lvgl/lvgl/src/core/lv_obj_style.c ****             lv_coord_t whalf = lv_obj_get_width(obj) / 2;
 321:lvgl/lvgl/src/core/lv_obj_style.c ****             lv_coord_t hhalf = lv_obj_get_width(obj) / 2;
 322:lvgl/lvgl/src/core/lv_obj_style.c ****             if(v1.num == LV_RADIUS_CIRCLE) v1.num = LV_MIN(whalf + 1, hhalf + 1);
 323:lvgl/lvgl/src/core/lv_obj_style.c ****             if(v2.num == LV_RADIUS_CIRCLE) v2.num = LV_MIN(whalf + 1, hhalf + 1);
 324:lvgl/lvgl/src/core/lv_obj_style.c ****         }
 325:lvgl/lvgl/src/core/lv_obj_style.c ****     }
 326:lvgl/lvgl/src/core/lv_obj_style.c **** 
 327:lvgl/lvgl/src/core/lv_obj_style.c ****     tr = _lv_ll_ins_head(&LV_GC_ROOT(_lv_obj_style_trans_ll));
 328:lvgl/lvgl/src/core/lv_obj_style.c ****     LV_ASSERT_MALLOC(tr);
 329:lvgl/lvgl/src/core/lv_obj_style.c ****     if(tr == NULL) return;
 330:lvgl/lvgl/src/core/lv_obj_style.c ****     tr->start_value = v1;
 331:lvgl/lvgl/src/core/lv_obj_style.c ****     tr->end_value = v2;
 332:lvgl/lvgl/src/core/lv_obj_style.c **** 
 333:lvgl/lvgl/src/core/lv_obj_style.c ****     if(tr) {
 334:lvgl/lvgl/src/core/lv_obj_style.c ****         tr->obj = obj;
 335:lvgl/lvgl/src/core/lv_obj_style.c ****         tr->prop = tr_dsc->prop;
 336:lvgl/lvgl/src/core/lv_obj_style.c ****         tr->selector = part;
 337:lvgl/lvgl/src/core/lv_obj_style.c **** 
 338:lvgl/lvgl/src/core/lv_obj_style.c ****         lv_anim_t a;
 339:lvgl/lvgl/src/core/lv_obj_style.c ****         lv_anim_init(&a);
 340:lvgl/lvgl/src/core/lv_obj_style.c ****         lv_anim_set_var(&a, tr);
 341:lvgl/lvgl/src/core/lv_obj_style.c ****         lv_anim_set_exec_cb(&a, trans_anim_cb);
 342:lvgl/lvgl/src/core/lv_obj_style.c ****         lv_anim_set_start_cb(&a, trans_anim_start_cb);
 343:lvgl/lvgl/src/core/lv_obj_style.c ****         lv_anim_set_ready_cb(&a, trans_anim_ready_cb);
 344:lvgl/lvgl/src/core/lv_obj_style.c ****         lv_anim_set_values(&a, 0x00, 0xFF);
 345:lvgl/lvgl/src/core/lv_obj_style.c ****         lv_anim_set_time(&a, tr_dsc->time);
 346:lvgl/lvgl/src/core/lv_obj_style.c ****         lv_anim_set_delay(&a, tr_dsc->delay);
 347:lvgl/lvgl/src/core/lv_obj_style.c ****         lv_anim_set_path_cb(&a, tr_dsc->path_cb);
 348:lvgl/lvgl/src/core/lv_obj_style.c ****         lv_anim_set_early_apply(&a, false);
 349:lvgl/lvgl/src/core/lv_obj_style.c **** #if LV_USE_USER_DATA
 350:lvgl/lvgl/src/core/lv_obj_style.c ****         a.user_data = tr_dsc->user_data;
 351:lvgl/lvgl/src/core/lv_obj_style.c **** #endif
 352:lvgl/lvgl/src/core/lv_obj_style.c ****         lv_anim_start(&a);
 353:lvgl/lvgl/src/core/lv_obj_style.c ****     }
 354:lvgl/lvgl/src/core/lv_obj_style.c **** }
 355:lvgl/lvgl/src/core/lv_obj_style.c **** 
 356:lvgl/lvgl/src/core/lv_obj_style.c **** _lv_style_state_cmp_t _lv_obj_style_state_compare(lv_obj_t * obj, lv_state_t state1, lv_state_t sta
 357:lvgl/lvgl/src/core/lv_obj_style.c **** {
 358:lvgl/lvgl/src/core/lv_obj_style.c ****     _lv_style_state_cmp_t res = _LV_STYLE_STATE_CMP_SAME;
 359:lvgl/lvgl/src/core/lv_obj_style.c **** 
 360:lvgl/lvgl/src/core/lv_obj_style.c ****     /*Are there any new styles for the new state?*/
 361:lvgl/lvgl/src/core/lv_obj_style.c ****     uint32_t i;
 362:lvgl/lvgl/src/core/lv_obj_style.c ****     for(i = 0; i < obj->style_cnt; i++) {
 363:lvgl/lvgl/src/core/lv_obj_style.c ****         if(obj->styles[i].is_trans) continue;
 364:lvgl/lvgl/src/core/lv_obj_style.c **** 
 365:lvgl/lvgl/src/core/lv_obj_style.c ****         lv_state_t state_act = lv_obj_style_get_selector_state(obj->styles[i].selector);
 366:lvgl/lvgl/src/core/lv_obj_style.c ****         lv_part_t part_act = lv_obj_style_get_selector_part(obj->styles[i].selector);
 367:lvgl/lvgl/src/core/lv_obj_style.c ****         /*The style is valid for a stat but not the other*/
 368:lvgl/lvgl/src/core/lv_obj_style.c ****         bool valid1 = state_act & (~state1) ? false : true;
 369:lvgl/lvgl/src/core/lv_obj_style.c ****         bool valid2 = state_act & (~state2) ? false : true;
 370:lvgl/lvgl/src/core/lv_obj_style.c ****         if(valid1 != valid2) {
 371:lvgl/lvgl/src/core/lv_obj_style.c ****             lv_style_t * style = obj->styles[i].style;
 372:lvgl/lvgl/src/core/lv_obj_style.c ****             lv_style_value_t v;
ARM GAS  C:\Users\gx\AppData\Local\Temp\cc2sgWsf.s 			page 8


 373:lvgl/lvgl/src/core/lv_obj_style.c ****             /*If there is layout difference on the main part, return immediately. There is no more 
 374:lvgl/lvgl/src/core/lv_obj_style.c ****             bool layout_diff = false;
 375:lvgl/lvgl/src/core/lv_obj_style.c ****             if(lv_style_get_prop(style, LV_STYLE_PAD_TOP, &v))layout_diff = true;
 376:lvgl/lvgl/src/core/lv_obj_style.c ****             else if(lv_style_get_prop(style, LV_STYLE_PAD_BOTTOM, &v)) layout_diff = true;
 377:lvgl/lvgl/src/core/lv_obj_style.c ****             else if(lv_style_get_prop(style, LV_STYLE_PAD_LEFT, &v)) layout_diff = true;
 378:lvgl/lvgl/src/core/lv_obj_style.c ****             else if(lv_style_get_prop(style, LV_STYLE_PAD_RIGHT, &v)) layout_diff = true;
 379:lvgl/lvgl/src/core/lv_obj_style.c ****             else if(lv_style_get_prop(style, LV_STYLE_PAD_COLUMN, &v)) layout_diff = true;
 380:lvgl/lvgl/src/core/lv_obj_style.c ****             else if(lv_style_get_prop(style, LV_STYLE_PAD_ROW, &v)) layout_diff = true;
 381:lvgl/lvgl/src/core/lv_obj_style.c ****             else if(lv_style_get_prop(style, LV_STYLE_LAYOUT, &v)) layout_diff = true;
 382:lvgl/lvgl/src/core/lv_obj_style.c ****             else if(lv_style_get_prop(style, LV_STYLE_TRANSLATE_X, &v)) layout_diff = true;
 383:lvgl/lvgl/src/core/lv_obj_style.c ****             else if(lv_style_get_prop(style, LV_STYLE_TRANSLATE_Y, &v)) layout_diff = true;
 384:lvgl/lvgl/src/core/lv_obj_style.c ****             else if(lv_style_get_prop(style, LV_STYLE_WIDTH, &v)) layout_diff = true;
 385:lvgl/lvgl/src/core/lv_obj_style.c ****             else if(lv_style_get_prop(style, LV_STYLE_HEIGHT, &v)) layout_diff = true;
 386:lvgl/lvgl/src/core/lv_obj_style.c ****             else if(lv_style_get_prop(style, LV_STYLE_MIN_WIDTH, &v)) layout_diff = true;
 387:lvgl/lvgl/src/core/lv_obj_style.c ****             else if(lv_style_get_prop(style, LV_STYLE_MAX_WIDTH, &v)) layout_diff = true;
 388:lvgl/lvgl/src/core/lv_obj_style.c ****             else if(lv_style_get_prop(style, LV_STYLE_MIN_HEIGHT, &v)) layout_diff = true;
 389:lvgl/lvgl/src/core/lv_obj_style.c ****             else if(lv_style_get_prop(style, LV_STYLE_MAX_HEIGHT, &v)) layout_diff = true;
 390:lvgl/lvgl/src/core/lv_obj_style.c ****             else if(lv_style_get_prop(style, LV_STYLE_BORDER_WIDTH, &v)) layout_diff = true;
 391:lvgl/lvgl/src/core/lv_obj_style.c ****             else if(lv_style_get_prop(style, LV_STYLE_TRANSFORM_ANGLE, &v)) layout_diff = true;
 392:lvgl/lvgl/src/core/lv_obj_style.c ****             else if(lv_style_get_prop(style, LV_STYLE_TRANSFORM_ZOOM, &v)) layout_diff = true;
 393:lvgl/lvgl/src/core/lv_obj_style.c **** 
 394:lvgl/lvgl/src/core/lv_obj_style.c ****             if(layout_diff) {
 395:lvgl/lvgl/src/core/lv_obj_style.c ****                 if(part_act == LV_PART_MAIN) {
 396:lvgl/lvgl/src/core/lv_obj_style.c ****                     return _LV_STYLE_STATE_CMP_DIFF_LAYOUT;
 397:lvgl/lvgl/src/core/lv_obj_style.c ****                 }
 398:lvgl/lvgl/src/core/lv_obj_style.c ****                 else {
 399:lvgl/lvgl/src/core/lv_obj_style.c ****                     res = _LV_STYLE_STATE_CMP_DIFF_DRAW_PAD;
 400:lvgl/lvgl/src/core/lv_obj_style.c ****                     continue;
 401:lvgl/lvgl/src/core/lv_obj_style.c ****                 }
 402:lvgl/lvgl/src/core/lv_obj_style.c ****             }
 403:lvgl/lvgl/src/core/lv_obj_style.c **** 
 404:lvgl/lvgl/src/core/lv_obj_style.c ****             /*Check for draw pad changes*/
 405:lvgl/lvgl/src/core/lv_obj_style.c ****             if(lv_style_get_prop(style, LV_STYLE_TRANSFORM_WIDTH, &v)) res = _LV_STYLE_STATE_CMP_DI
 406:lvgl/lvgl/src/core/lv_obj_style.c ****             else if(lv_style_get_prop(style, LV_STYLE_TRANSFORM_HEIGHT, &v)) res = _LV_STYLE_STATE_
 407:lvgl/lvgl/src/core/lv_obj_style.c ****             else if(lv_style_get_prop(style, LV_STYLE_TRANSFORM_ANGLE, &v)) res = _LV_STYLE_STATE_C
 408:lvgl/lvgl/src/core/lv_obj_style.c ****             else if(lv_style_get_prop(style, LV_STYLE_TRANSFORM_ZOOM, &v)) res = _LV_STYLE_STATE_CM
 409:lvgl/lvgl/src/core/lv_obj_style.c ****             else if(lv_style_get_prop(style, LV_STYLE_OUTLINE_OPA, &v)) res = _LV_STYLE_STATE_CMP_D
 410:lvgl/lvgl/src/core/lv_obj_style.c ****             else if(lv_style_get_prop(style, LV_STYLE_OUTLINE_PAD, &v)) res = _LV_STYLE_STATE_CMP_D
 411:lvgl/lvgl/src/core/lv_obj_style.c ****             else if(lv_style_get_prop(style, LV_STYLE_OUTLINE_WIDTH, &v)) res = _LV_STYLE_STATE_CMP
 412:lvgl/lvgl/src/core/lv_obj_style.c ****             else if(lv_style_get_prop(style, LV_STYLE_SHADOW_WIDTH, &v)) res = _LV_STYLE_STATE_CMP_
 413:lvgl/lvgl/src/core/lv_obj_style.c ****             else if(lv_style_get_prop(style, LV_STYLE_SHADOW_OPA, &v)) res = _LV_STYLE_STATE_CMP_DI
 414:lvgl/lvgl/src/core/lv_obj_style.c ****             else if(lv_style_get_prop(style, LV_STYLE_SHADOW_OFS_X, &v)) res = _LV_STYLE_STATE_CMP_
 415:lvgl/lvgl/src/core/lv_obj_style.c ****             else if(lv_style_get_prop(style, LV_STYLE_SHADOW_OFS_Y, &v)) res = _LV_STYLE_STATE_CMP_
 416:lvgl/lvgl/src/core/lv_obj_style.c ****             else if(lv_style_get_prop(style, LV_STYLE_SHADOW_SPREAD, &v)) res = _LV_STYLE_STATE_CMP
 417:lvgl/lvgl/src/core/lv_obj_style.c ****             else if(lv_style_get_prop(style, LV_STYLE_LINE_WIDTH, &v)) res = _LV_STYLE_STATE_CMP_DI
 418:lvgl/lvgl/src/core/lv_obj_style.c ****             else if(res == _LV_STYLE_STATE_CMP_SAME) res = _LV_STYLE_STATE_CMP_DIFF_REDRAW;
 419:lvgl/lvgl/src/core/lv_obj_style.c ****         }
 420:lvgl/lvgl/src/core/lv_obj_style.c ****     }
 421:lvgl/lvgl/src/core/lv_obj_style.c **** 
 422:lvgl/lvgl/src/core/lv_obj_style.c ****     return res;
 423:lvgl/lvgl/src/core/lv_obj_style.c **** }
 424:lvgl/lvgl/src/core/lv_obj_style.c **** 
 425:lvgl/lvgl/src/core/lv_obj_style.c **** void lv_obj_fade_in(lv_obj_t * obj, uint32_t time, uint32_t delay)
 426:lvgl/lvgl/src/core/lv_obj_style.c **** {
 427:lvgl/lvgl/src/core/lv_obj_style.c ****     lv_anim_t a;
 428:lvgl/lvgl/src/core/lv_obj_style.c ****     lv_anim_init(&a);
 429:lvgl/lvgl/src/core/lv_obj_style.c ****     lv_anim_set_var(&a, obj);
ARM GAS  C:\Users\gx\AppData\Local\Temp\cc2sgWsf.s 			page 9


 430:lvgl/lvgl/src/core/lv_obj_style.c ****     lv_anim_set_values(&a, LV_OPA_TRANSP, LV_OPA_COVER);
 431:lvgl/lvgl/src/core/lv_obj_style.c ****     lv_anim_set_exec_cb(&a, fade_anim_cb);
 432:lvgl/lvgl/src/core/lv_obj_style.c ****     lv_anim_set_ready_cb(&a, fade_in_anim_ready);
 433:lvgl/lvgl/src/core/lv_obj_style.c ****     lv_anim_set_time(&a, time);
 434:lvgl/lvgl/src/core/lv_obj_style.c ****     lv_anim_set_delay(&a, delay);
 435:lvgl/lvgl/src/core/lv_obj_style.c ****     lv_anim_start(&a);
 436:lvgl/lvgl/src/core/lv_obj_style.c **** }
 437:lvgl/lvgl/src/core/lv_obj_style.c **** 
 438:lvgl/lvgl/src/core/lv_obj_style.c **** void lv_obj_fade_out(lv_obj_t * obj, uint32_t time, uint32_t delay)
 439:lvgl/lvgl/src/core/lv_obj_style.c **** {
 440:lvgl/lvgl/src/core/lv_obj_style.c ****     lv_anim_t a;
 441:lvgl/lvgl/src/core/lv_obj_style.c ****     lv_anim_init(&a);
 442:lvgl/lvgl/src/core/lv_obj_style.c ****     lv_anim_set_var(&a, obj);
 443:lvgl/lvgl/src/core/lv_obj_style.c ****     lv_anim_set_values(&a, LV_OPA_COVER, LV_OPA_TRANSP);
 444:lvgl/lvgl/src/core/lv_obj_style.c ****     lv_anim_set_exec_cb(&a, fade_anim_cb);
 445:lvgl/lvgl/src/core/lv_obj_style.c ****     lv_anim_set_time(&a, time);
 446:lvgl/lvgl/src/core/lv_obj_style.c ****     lv_anim_set_delay(&a, delay);
 447:lvgl/lvgl/src/core/lv_obj_style.c ****     lv_anim_start(&a);
 448:lvgl/lvgl/src/core/lv_obj_style.c **** }
 449:lvgl/lvgl/src/core/lv_obj_style.c **** 
 450:lvgl/lvgl/src/core/lv_obj_style.c **** lv_state_t lv_obj_style_get_selector_state(lv_style_selector_t selector)
 451:lvgl/lvgl/src/core/lv_obj_style.c **** {
 452:lvgl/lvgl/src/core/lv_obj_style.c ****     return selector & 0xFFFF;
 453:lvgl/lvgl/src/core/lv_obj_style.c **** }
 454:lvgl/lvgl/src/core/lv_obj_style.c **** 
 455:lvgl/lvgl/src/core/lv_obj_style.c **** lv_part_t lv_obj_style_get_selector_part(lv_style_selector_t selector)
 456:lvgl/lvgl/src/core/lv_obj_style.c **** {
 457:lvgl/lvgl/src/core/lv_obj_style.c ****     return selector & 0xFF0000;
 458:lvgl/lvgl/src/core/lv_obj_style.c **** }
 459:lvgl/lvgl/src/core/lv_obj_style.c **** 
 460:lvgl/lvgl/src/core/lv_obj_style.c **** 
 461:lvgl/lvgl/src/core/lv_obj_style.c **** lv_text_align_t lv_obj_calculate_style_text_align(const struct _lv_obj_t * obj, lv_part_t part, con
 462:lvgl/lvgl/src/core/lv_obj_style.c **** {
 463:lvgl/lvgl/src/core/lv_obj_style.c ****     lv_text_align_t align = lv_obj_get_style_text_align(obj, part);
 464:lvgl/lvgl/src/core/lv_obj_style.c ****     lv_base_dir_t base_dir = lv_obj_get_style_base_dir(obj, part);
 465:lvgl/lvgl/src/core/lv_obj_style.c ****     lv_bidi_calculate_align(&align, &base_dir, txt);
 466:lvgl/lvgl/src/core/lv_obj_style.c ****     return align;
 467:lvgl/lvgl/src/core/lv_obj_style.c **** }
 468:lvgl/lvgl/src/core/lv_obj_style.c **** 
 469:lvgl/lvgl/src/core/lv_obj_style.c **** /**********************
 470:lvgl/lvgl/src/core/lv_obj_style.c ****  *   STATIC FUNCTIONS
 471:lvgl/lvgl/src/core/lv_obj_style.c ****  **********************/
 472:lvgl/lvgl/src/core/lv_obj_style.c **** 
 473:lvgl/lvgl/src/core/lv_obj_style.c **** /**
 474:lvgl/lvgl/src/core/lv_obj_style.c ****  * Get the local style of an object for a given part and for a given state.
 475:lvgl/lvgl/src/core/lv_obj_style.c ****  * If the local style for the part-state pair doesn't exist allocate and return it.
 476:lvgl/lvgl/src/core/lv_obj_style.c ****  * @param obj   pointer to an object
 477:lvgl/lvgl/src/core/lv_obj_style.c ****  * @param part  the part in whose local style to get
 478:lvgl/lvgl/src/core/lv_obj_style.c ****  * @param state the state in whose local style to get
 479:lvgl/lvgl/src/core/lv_obj_style.c ****  * @return pointer to the local style
 480:lvgl/lvgl/src/core/lv_obj_style.c ****  */
 481:lvgl/lvgl/src/core/lv_obj_style.c **** static lv_style_t * get_local_style(lv_obj_t * obj,  lv_style_selector_t selector)
 482:lvgl/lvgl/src/core/lv_obj_style.c **** {
 483:lvgl/lvgl/src/core/lv_obj_style.c ****     uint32_t i;
 484:lvgl/lvgl/src/core/lv_obj_style.c ****     for(i = 0; i < obj->style_cnt; i++) {
 485:lvgl/lvgl/src/core/lv_obj_style.c ****         if(obj->styles[i].is_local &&
 486:lvgl/lvgl/src/core/lv_obj_style.c ****            obj->styles[i].selector == selector)
ARM GAS  C:\Users\gx\AppData\Local\Temp\cc2sgWsf.s 			page 10


 487:lvgl/lvgl/src/core/lv_obj_style.c ****         {
 488:lvgl/lvgl/src/core/lv_obj_style.c ****             return obj->styles[i].style;
 489:lvgl/lvgl/src/core/lv_obj_style.c ****         }
 490:lvgl/lvgl/src/core/lv_obj_style.c ****     }
 491:lvgl/lvgl/src/core/lv_obj_style.c **** 
 492:lvgl/lvgl/src/core/lv_obj_style.c ****     obj->style_cnt++;
 493:lvgl/lvgl/src/core/lv_obj_style.c ****     obj->styles = lv_mem_realloc(obj->styles, obj->style_cnt * sizeof(_lv_obj_style_t));
 494:lvgl/lvgl/src/core/lv_obj_style.c ****     LV_ASSERT_MALLOC(obj->styles);
 495:lvgl/lvgl/src/core/lv_obj_style.c **** 
 496:lvgl/lvgl/src/core/lv_obj_style.c ****     for(i = obj->style_cnt - 1; i > 0 ; i--) {
 497:lvgl/lvgl/src/core/lv_obj_style.c ****         /*Copy only normal styles (not local and transition).
 498:lvgl/lvgl/src/core/lv_obj_style.c ****          *The new local style will be added as the last local style*/
 499:lvgl/lvgl/src/core/lv_obj_style.c ****         if(obj->styles[i - 1].is_local || obj->styles[i - 1].is_trans) break;
 500:lvgl/lvgl/src/core/lv_obj_style.c ****         obj->styles[i] = obj->styles[i - 1];
 501:lvgl/lvgl/src/core/lv_obj_style.c ****     }
 502:lvgl/lvgl/src/core/lv_obj_style.c **** 
 503:lvgl/lvgl/src/core/lv_obj_style.c ****     lv_memset_00(&obj->styles[i], sizeof(_lv_obj_style_t));
 504:lvgl/lvgl/src/core/lv_obj_style.c ****     obj->styles[i].style = lv_mem_alloc(sizeof(lv_style_t));
 505:lvgl/lvgl/src/core/lv_obj_style.c ****     lv_style_init(obj->styles[i].style);
 506:lvgl/lvgl/src/core/lv_obj_style.c ****     obj->styles[i].is_local = 1;
 507:lvgl/lvgl/src/core/lv_obj_style.c ****     obj->styles[i].selector = selector;
 508:lvgl/lvgl/src/core/lv_obj_style.c ****     return obj->styles[i].style;
 509:lvgl/lvgl/src/core/lv_obj_style.c **** }
 510:lvgl/lvgl/src/core/lv_obj_style.c **** 
 511:lvgl/lvgl/src/core/lv_obj_style.c **** /**
 512:lvgl/lvgl/src/core/lv_obj_style.c ****  * Get the transition style of an object for a given part and for a given state.
 513:lvgl/lvgl/src/core/lv_obj_style.c ****  * If the transition style for the part-state pair doesn't exist allocate and return it.
 514:lvgl/lvgl/src/core/lv_obj_style.c ****  * @param obj   pointer to an object
 515:lvgl/lvgl/src/core/lv_obj_style.c ****  * @param part  the part in whose local style to get
 516:lvgl/lvgl/src/core/lv_obj_style.c ****  * @param state the state in whose local style to get
 517:lvgl/lvgl/src/core/lv_obj_style.c ****  * @return pointer to the transition style
 518:lvgl/lvgl/src/core/lv_obj_style.c ****  */
 519:lvgl/lvgl/src/core/lv_obj_style.c **** static _lv_obj_style_t * get_trans_style(lv_obj_t * obj,  lv_style_selector_t selector)
 520:lvgl/lvgl/src/core/lv_obj_style.c **** {
 521:lvgl/lvgl/src/core/lv_obj_style.c ****     uint32_t i;
 522:lvgl/lvgl/src/core/lv_obj_style.c ****     for(i = 0; i < obj->style_cnt; i++) {
 523:lvgl/lvgl/src/core/lv_obj_style.c ****         if(obj->styles[i].is_trans && obj->styles[i].selector == selector) break;
 524:lvgl/lvgl/src/core/lv_obj_style.c ****     }
 525:lvgl/lvgl/src/core/lv_obj_style.c **** 
 526:lvgl/lvgl/src/core/lv_obj_style.c ****     /*Already have a transition style for it*/
 527:lvgl/lvgl/src/core/lv_obj_style.c ****     if(i != obj->style_cnt) return &obj->styles[i];
 528:lvgl/lvgl/src/core/lv_obj_style.c **** 
 529:lvgl/lvgl/src/core/lv_obj_style.c ****     obj->style_cnt++;
 530:lvgl/lvgl/src/core/lv_obj_style.c ****     obj->styles = lv_mem_realloc(obj->styles, obj->style_cnt * sizeof(_lv_obj_style_t));
 531:lvgl/lvgl/src/core/lv_obj_style.c **** 
 532:lvgl/lvgl/src/core/lv_obj_style.c ****     for(i = obj->style_cnt - 1; i > 0 ; i--) {
 533:lvgl/lvgl/src/core/lv_obj_style.c ****         obj->styles[i] = obj->styles[i - 1];
 534:lvgl/lvgl/src/core/lv_obj_style.c ****     }
 535:lvgl/lvgl/src/core/lv_obj_style.c **** 
 536:lvgl/lvgl/src/core/lv_obj_style.c ****     lv_memset_00(&obj->styles[0], sizeof(_lv_obj_style_t));
 537:lvgl/lvgl/src/core/lv_obj_style.c ****     obj->styles[0].style = lv_mem_alloc(sizeof(lv_style_t));
 538:lvgl/lvgl/src/core/lv_obj_style.c ****     lv_style_init(obj->styles[0].style);
 539:lvgl/lvgl/src/core/lv_obj_style.c ****     obj->styles[0].is_trans = 1;
 540:lvgl/lvgl/src/core/lv_obj_style.c ****     obj->styles[0].selector = selector;
 541:lvgl/lvgl/src/core/lv_obj_style.c ****     return &obj->styles[0];
 542:lvgl/lvgl/src/core/lv_obj_style.c **** }
 543:lvgl/lvgl/src/core/lv_obj_style.c **** 
ARM GAS  C:\Users\gx\AppData\Local\Temp\cc2sgWsf.s 			page 11


 544:lvgl/lvgl/src/core/lv_obj_style.c **** 
 545:lvgl/lvgl/src/core/lv_obj_style.c **** static bool get_prop_core(const lv_obj_t * obj, lv_part_t part, lv_style_prop_t prop, lv_style_valu
 546:lvgl/lvgl/src/core/lv_obj_style.c **** {
 547:lvgl/lvgl/src/core/lv_obj_style.c ****     uint8_t group = 1 << _lv_style_get_prop_group(prop);
 548:lvgl/lvgl/src/core/lv_obj_style.c ****     int32_t weight = -1;
 549:lvgl/lvgl/src/core/lv_obj_style.c ****     lv_state_t state = obj->state;
 550:lvgl/lvgl/src/core/lv_obj_style.c ****     lv_state_t state_inv = ~state;
 551:lvgl/lvgl/src/core/lv_obj_style.c ****     lv_style_value_t value_tmp;
 552:lvgl/lvgl/src/core/lv_obj_style.c ****     bool skip_trans = obj->skip_trans;
 553:lvgl/lvgl/src/core/lv_obj_style.c ****     uint32_t i;
 554:lvgl/lvgl/src/core/lv_obj_style.c ****     bool found;
 555:lvgl/lvgl/src/core/lv_obj_style.c ****     for(i = 0; i < obj->style_cnt; i++) {
 556:lvgl/lvgl/src/core/lv_obj_style.c ****         _lv_obj_style_t * obj_style = &obj->styles[i];
 557:lvgl/lvgl/src/core/lv_obj_style.c ****         if(obj_style->is_trans == false) break;
 558:lvgl/lvgl/src/core/lv_obj_style.c ****         if(skip_trans) continue;
 559:lvgl/lvgl/src/core/lv_obj_style.c **** 
 560:lvgl/lvgl/src/core/lv_obj_style.c ****         lv_part_t part_act = lv_obj_style_get_selector_part(obj->styles[i].selector);
 561:lvgl/lvgl/src/core/lv_obj_style.c **** 
 562:lvgl/lvgl/src/core/lv_obj_style.c ****         if(part_act != part) continue;
 563:lvgl/lvgl/src/core/lv_obj_style.c ****         if((obj_style->style->has_group & group) == 0) continue;
 564:lvgl/lvgl/src/core/lv_obj_style.c ****         found = lv_style_get_prop(obj_style->style, prop, &value_tmp);
 565:lvgl/lvgl/src/core/lv_obj_style.c ****         if(found) {
 566:lvgl/lvgl/src/core/lv_obj_style.c ****             *v = value_tmp;
 567:lvgl/lvgl/src/core/lv_obj_style.c ****             return true;
 568:lvgl/lvgl/src/core/lv_obj_style.c ****         }
 569:lvgl/lvgl/src/core/lv_obj_style.c ****     }
 570:lvgl/lvgl/src/core/lv_obj_style.c **** 
 571:lvgl/lvgl/src/core/lv_obj_style.c ****     for(; i < obj->style_cnt; i++) {
 572:lvgl/lvgl/src/core/lv_obj_style.c ****         _lv_obj_style_t * obj_style = &obj->styles[i];
 573:lvgl/lvgl/src/core/lv_obj_style.c ****         lv_part_t part_act = lv_obj_style_get_selector_part(obj->styles[i].selector);
 574:lvgl/lvgl/src/core/lv_obj_style.c ****         lv_state_t state_act = lv_obj_style_get_selector_state(obj->styles[i].selector);
 575:lvgl/lvgl/src/core/lv_obj_style.c ****         if(part_act != part) continue;
 576:lvgl/lvgl/src/core/lv_obj_style.c **** 
 577:lvgl/lvgl/src/core/lv_obj_style.c ****         if((obj_style->style->has_group & group) == 0) continue;
 578:lvgl/lvgl/src/core/lv_obj_style.c **** 
 579:lvgl/lvgl/src/core/lv_obj_style.c ****         /*Be sure the style not specifies other state than the requested.
 580:lvgl/lvgl/src/core/lv_obj_style.c ****          *E.g. For HOVER+PRESS object state, HOVER style only is OK, but HOVER+FOCUS style is not*/
 581:lvgl/lvgl/src/core/lv_obj_style.c ****         if((state_act & state_inv)) continue;
 582:lvgl/lvgl/src/core/lv_obj_style.c **** 
 583:lvgl/lvgl/src/core/lv_obj_style.c ****         /*Check only better candidates*/
 584:lvgl/lvgl/src/core/lv_obj_style.c ****         if(state_act <= weight) continue;
 585:lvgl/lvgl/src/core/lv_obj_style.c **** 
 586:lvgl/lvgl/src/core/lv_obj_style.c ****         found = lv_style_get_prop(obj_style->style, prop, &value_tmp);
 587:lvgl/lvgl/src/core/lv_obj_style.c **** 
 588:lvgl/lvgl/src/core/lv_obj_style.c ****         if(found) {
 589:lvgl/lvgl/src/core/lv_obj_style.c ****             if(state_act == state) {
 590:lvgl/lvgl/src/core/lv_obj_style.c ****                 *v = value_tmp;
 591:lvgl/lvgl/src/core/lv_obj_style.c ****                 return true;
 592:lvgl/lvgl/src/core/lv_obj_style.c ****             }
 593:lvgl/lvgl/src/core/lv_obj_style.c ****             if(weight < state_act) {
 594:lvgl/lvgl/src/core/lv_obj_style.c ****                 weight = state_act;
 595:lvgl/lvgl/src/core/lv_obj_style.c ****                 *v = value_tmp;
 596:lvgl/lvgl/src/core/lv_obj_style.c ****             }
 597:lvgl/lvgl/src/core/lv_obj_style.c ****         }
 598:lvgl/lvgl/src/core/lv_obj_style.c ****     }
 599:lvgl/lvgl/src/core/lv_obj_style.c **** 
 600:lvgl/lvgl/src/core/lv_obj_style.c ****     if(weight >= 0) {
ARM GAS  C:\Users\gx\AppData\Local\Temp\cc2sgWsf.s 			page 12


 601:lvgl/lvgl/src/core/lv_obj_style.c ****         *v = value_tmp;
 602:lvgl/lvgl/src/core/lv_obj_style.c ****         return true;
 603:lvgl/lvgl/src/core/lv_obj_style.c ****     }
 604:lvgl/lvgl/src/core/lv_obj_style.c ****     else return false;
 605:lvgl/lvgl/src/core/lv_obj_style.c **** }
 606:lvgl/lvgl/src/core/lv_obj_style.c **** 
 607:lvgl/lvgl/src/core/lv_obj_style.c **** static lv_style_value_t apply_color_filter(const lv_obj_t * obj, uint32_t part, lv_style_value_t v)
 608:lvgl/lvgl/src/core/lv_obj_style.c **** {
 609:lvgl/lvgl/src/core/lv_obj_style.c ****     if(obj == NULL) return v;
 610:lvgl/lvgl/src/core/lv_obj_style.c ****     const lv_color_filter_dsc_t * f = lv_obj_get_style_color_filter_dsc(obj, part);
 611:lvgl/lvgl/src/core/lv_obj_style.c ****     if(f && f->filter_cb) {
 612:lvgl/lvgl/src/core/lv_obj_style.c ****         lv_opa_t f_opa = lv_obj_get_style_color_filter_opa(obj, part);
 613:lvgl/lvgl/src/core/lv_obj_style.c ****         if(f_opa != 0) v.color = f->filter_cb(f, v.color, f_opa);
 614:lvgl/lvgl/src/core/lv_obj_style.c ****     }
 615:lvgl/lvgl/src/core/lv_obj_style.c ****     return v;
 616:lvgl/lvgl/src/core/lv_obj_style.c **** }
 617:lvgl/lvgl/src/core/lv_obj_style.c **** 
 618:lvgl/lvgl/src/core/lv_obj_style.c **** /**
 619:lvgl/lvgl/src/core/lv_obj_style.c ****  * Refresh the style of all children of an object. (Called recursively)
 620:lvgl/lvgl/src/core/lv_obj_style.c ****  * @param style refresh objects only with this
 621:lvgl/lvgl/src/core/lv_obj_style.c ****  * @param obj pointer to an object
 622:lvgl/lvgl/src/core/lv_obj_style.c ****  */
 623:lvgl/lvgl/src/core/lv_obj_style.c **** static void report_style_change_core(void * style, lv_obj_t * obj)
 624:lvgl/lvgl/src/core/lv_obj_style.c **** {
 625:lvgl/lvgl/src/core/lv_obj_style.c ****     uint32_t i;
 626:lvgl/lvgl/src/core/lv_obj_style.c ****     for(i = 0; i < obj->style_cnt; i++) {
 627:lvgl/lvgl/src/core/lv_obj_style.c ****         if(style == NULL || obj->styles[i].style == style) {
 628:lvgl/lvgl/src/core/lv_obj_style.c ****             lv_obj_refresh_style(obj, LV_PART_ANY, LV_STYLE_PROP_ANY);
 629:lvgl/lvgl/src/core/lv_obj_style.c ****             break;
 630:lvgl/lvgl/src/core/lv_obj_style.c ****         }
 631:lvgl/lvgl/src/core/lv_obj_style.c ****     }
 632:lvgl/lvgl/src/core/lv_obj_style.c **** 
 633:lvgl/lvgl/src/core/lv_obj_style.c ****     uint32_t child_cnt = lv_obj_get_child_cnt(obj);
 634:lvgl/lvgl/src/core/lv_obj_style.c ****     for(i = 0; i < child_cnt; i++) {
 635:lvgl/lvgl/src/core/lv_obj_style.c ****         report_style_change_core(style, obj->spec_attr->children[i]);
 636:lvgl/lvgl/src/core/lv_obj_style.c ****     }
 637:lvgl/lvgl/src/core/lv_obj_style.c **** }
 638:lvgl/lvgl/src/core/lv_obj_style.c **** 
 639:lvgl/lvgl/src/core/lv_obj_style.c **** /**
 640:lvgl/lvgl/src/core/lv_obj_style.c ****  * Recursively refresh the style of the children. Go deeper until a not NULL style is found
 641:lvgl/lvgl/src/core/lv_obj_style.c ****  * because the NULL styles are inherited from the parent
 642:lvgl/lvgl/src/core/lv_obj_style.c ****  * @param obj pointer to an object
 643:lvgl/lvgl/src/core/lv_obj_style.c ****  */
 644:lvgl/lvgl/src/core/lv_obj_style.c **** static void refresh_children_style(lv_obj_t * obj)
 645:lvgl/lvgl/src/core/lv_obj_style.c **** {
 646:lvgl/lvgl/src/core/lv_obj_style.c ****     uint32_t i;
 647:lvgl/lvgl/src/core/lv_obj_style.c ****     uint32_t child_cnt = lv_obj_get_child_cnt(obj);
 648:lvgl/lvgl/src/core/lv_obj_style.c ****     for(i = 0; i < child_cnt; i++) {
 649:lvgl/lvgl/src/core/lv_obj_style.c ****         lv_obj_t * child = obj->spec_attr->children[i];
 650:lvgl/lvgl/src/core/lv_obj_style.c ****         lv_obj_invalidate(child);
 651:lvgl/lvgl/src/core/lv_obj_style.c ****         lv_event_send(child, LV_EVENT_STYLE_CHANGED, NULL);
 652:lvgl/lvgl/src/core/lv_obj_style.c ****         lv_obj_invalidate(child);
 653:lvgl/lvgl/src/core/lv_obj_style.c **** 
 654:lvgl/lvgl/src/core/lv_obj_style.c ****         refresh_children_style(child); /*Check children too*/
 655:lvgl/lvgl/src/core/lv_obj_style.c ****     }
 656:lvgl/lvgl/src/core/lv_obj_style.c **** }
 657:lvgl/lvgl/src/core/lv_obj_style.c **** 
ARM GAS  C:\Users\gx\AppData\Local\Temp\cc2sgWsf.s 			page 13


 658:lvgl/lvgl/src/core/lv_obj_style.c **** /**
 659:lvgl/lvgl/src/core/lv_obj_style.c ****  * Remove the transition from object's part's property.
 660:lvgl/lvgl/src/core/lv_obj_style.c ****  * - Remove the transition from `_lv_obj_style_trans_ll` and free it
 661:lvgl/lvgl/src/core/lv_obj_style.c ****  * - Delete pending transitions
 662:lvgl/lvgl/src/core/lv_obj_style.c ****  * @param obj pointer to an object which transition(s) should be removed
 663:lvgl/lvgl/src/core/lv_obj_style.c ****  * @param part a part of object or 0xFF to remove from all parts
 664:lvgl/lvgl/src/core/lv_obj_style.c ****  * @param prop a property or 0xFF to remove all properties
 665:lvgl/lvgl/src/core/lv_obj_style.c ****  * @param tr_limit delete transitions only "older" than this. `NULL` if not used
 666:lvgl/lvgl/src/core/lv_obj_style.c ****  */
 667:lvgl/lvgl/src/core/lv_obj_style.c **** static bool trans_del(lv_obj_t * obj, lv_part_t part, lv_style_prop_t prop, trans_t * tr_limit)
 668:lvgl/lvgl/src/core/lv_obj_style.c **** {
  29              		.loc 1 668 1 view -0
  30              		.cfi_startproc
  31              		@ args = 0, pretend = 0, frame = 0
  32              		@ frame_needed = 0, uses_anonymous_args = 0
  33              		.loc 1 668 1 is_stmt 0 view .LVU1
  34 0000 2DE9F84F 		push	{r3, r4, r5, r6, r7, r8, r9, r10, fp, lr}
  35              	.LCFI0:
  36              		.cfi_def_cfa_offset 40
  37              		.cfi_offset 3, -40
  38              		.cfi_offset 4, -36
  39              		.cfi_offset 5, -32
  40              		.cfi_offset 6, -28
  41              		.cfi_offset 7, -24
  42              		.cfi_offset 8, -20
  43              		.cfi_offset 9, -16
  44              		.cfi_offset 10, -12
  45              		.cfi_offset 11, -8
  46              		.cfi_offset 14, -4
  47 0004 0646     		mov	r6, r0
  48 0006 8946     		mov	r9, r1
  49 0008 9246     		mov	r10, r2
  50 000a 9846     		mov	r8, r3
 669:lvgl/lvgl/src/core/lv_obj_style.c ****     trans_t * tr;
  51              		.loc 1 669 5 is_stmt 1 view .LVU2
 670:lvgl/lvgl/src/core/lv_obj_style.c ****     trans_t * tr_prev;
  52              		.loc 1 670 5 view .LVU3
 671:lvgl/lvgl/src/core/lv_obj_style.c ****     bool removed = false;
  53              		.loc 1 671 5 view .LVU4
  54              	.LVL1:
 672:lvgl/lvgl/src/core/lv_obj_style.c ****     tr = _lv_ll_get_tail(&LV_GC_ROOT(_lv_obj_style_trans_ll));
  55              		.loc 1 672 5 view .LVU5
  56              		.loc 1 672 10 is_stmt 0 view .LVU6
  57 000c 2848     		ldr	r0, .L16
  58              	.LVL2:
  59              		.loc 1 672 10 view .LVU7
  60 000e FFF7FEFF 		bl	_lv_ll_get_tail
  61              	.LVL3:
  62              		.loc 1 672 10 view .LVU8
  63 0012 0446     		mov	r4, r0
  64              	.LVL4:
 673:lvgl/lvgl/src/core/lv_obj_style.c ****     while(tr != NULL) {
  65              		.loc 1 673 5 is_stmt 1 view .LVU9
 671:lvgl/lvgl/src/core/lv_obj_style.c ****     bool removed = false;
  66              		.loc 1 671 10 is_stmt 0 view .LVU10
  67 0014 4FF0000B 		mov	fp, #0
  68              		.loc 1 673 10 view .LVU11
ARM GAS  C:\Users\gx\AppData\Local\Temp\cc2sgWsf.s 			page 14


  69 0018 07E0     		b	.L2
  70              	.LVL5:
  71              	.L5:
 674:lvgl/lvgl/src/core/lv_obj_style.c ****         if(tr == tr_limit) break;
 675:lvgl/lvgl/src/core/lv_obj_style.c **** 
 676:lvgl/lvgl/src/core/lv_obj_style.c ****         /*'tr' might be deleted, so get the next object while 'tr' is valid*/
 677:lvgl/lvgl/src/core/lv_obj_style.c ****         tr_prev = _lv_ll_get_prev(&LV_GC_ROOT(_lv_obj_style_trans_ll), tr);
 678:lvgl/lvgl/src/core/lv_obj_style.c **** 
 679:lvgl/lvgl/src/core/lv_obj_style.c ****         if(tr->obj == obj && (part == tr->selector || part == LV_PART_ANY) && (prop == tr->prop || 
  72              		.loc 1 679 90 discriminator 4 view .LVU12
  73 001a A388     		ldrh	r3, [r4, #4]
  74              		.loc 1 679 76 discriminator 4 view .LVU13
  75 001c 5345     		cmp	r3, r10
  76 001e 3FD0     		beq	.L12
  77              		.loc 1 679 97 discriminator 5 view .LVU14
  78 0020 4FF6FF73 		movw	r3, #65535
  79 0024 9A45     		cmp	r10, r3
  80 0026 3DD0     		beq	.L15
  81              	.LVL6:
  82              	.L4:
  83              		.loc 1 679 97 discriminator 5 view .LVU15
  84 0028 2C46     		mov	r4, r5
  85              	.LVL7:
  86              	.L2:
 673:lvgl/lvgl/src/core/lv_obj_style.c ****     while(tr != NULL) {
  87              		.loc 1 673 10 is_stmt 1 view .LVU16
  88 002a 002C     		cmp	r4, #0
  89 002c 3CD0     		beq	.L3
 674:lvgl/lvgl/src/core/lv_obj_style.c ****         if(tr == tr_limit) break;
  90              		.loc 1 674 9 view .LVU17
 674:lvgl/lvgl/src/core/lv_obj_style.c ****         if(tr == tr_limit) break;
  91              		.loc 1 674 11 is_stmt 0 view .LVU18
  92 002e 4445     		cmp	r4, r8
  93 0030 3AD0     		beq	.L3
 677:lvgl/lvgl/src/core/lv_obj_style.c **** 
  94              		.loc 1 677 9 is_stmt 1 view .LVU19
 677:lvgl/lvgl/src/core/lv_obj_style.c **** 
  95              		.loc 1 677 19 is_stmt 0 view .LVU20
  96 0032 2146     		mov	r1, r4
  97 0034 1E48     		ldr	r0, .L16
  98 0036 FFF7FEFF 		bl	_lv_ll_get_prev
  99              	.LVL8:
 100 003a 0546     		mov	r5, r0
 101              	.LVL9:
 102              		.loc 1 679 9 is_stmt 1 view .LVU21
 103              		.loc 1 679 14 is_stmt 0 view .LVU22
 104 003c 2368     		ldr	r3, [r4]
 105              		.loc 1 679 11 view .LVU23
 106 003e B342     		cmp	r3, r6
 107 0040 F2D1     		bne	.L4
 108              		.loc 1 679 41 discriminator 1 view .LVU24
 109 0042 A368     		ldr	r3, [r4, #8]
 110              		.loc 1 679 27 discriminator 1 view .LVU25
 111 0044 4B45     		cmp	r3, r9
 112 0046 E8D0     		beq	.L5
 113              		.loc 1 679 52 discriminator 3 view .LVU26
 114 0048 B9F5702F 		cmp	r9, #983040
ARM GAS  C:\Users\gx\AppData\Local\Temp\cc2sgWsf.s 			page 15


 115 004c ECD1     		bne	.L4
 116 004e E4E7     		b	.L5
 117              	.LVL10:
 118              	.L8:
 119              	.LBB63:
 680:lvgl/lvgl/src/core/lv_obj_style.c ****             /*Remove the transitioned property from trans. style
 681:lvgl/lvgl/src/core/lv_obj_style.c ****              *to allow changing it by normal styles*/
 682:lvgl/lvgl/src/core/lv_obj_style.c ****             uint32_t i;
 683:lvgl/lvgl/src/core/lv_obj_style.c ****             for(i = 0; i < obj->style_cnt; i++) {
 684:lvgl/lvgl/src/core/lv_obj_style.c ****                 if(obj->styles[i].is_trans && (part == LV_PART_ANY || obj->styles[i].selector == pa
 685:lvgl/lvgl/src/core/lv_obj_style.c ****                     lv_style_remove_prop(obj->styles[i].style, tr->prop);
 120              		.loc 1 685 21 is_stmt 1 view .LVU27
 121 0050 A188     		ldrh	r1, [r4, #4]
 122 0052 1058     		ldr	r0, [r2, r0]
 123 0054 FFF7FEFF 		bl	lv_style_remove_prop
 124              	.LVL11:
 686:lvgl/lvgl/src/core/lv_obj_style.c ****                     lv_anim_del(tr, NULL);
 125              		.loc 1 686 21 view .LVU28
 126 0058 0021     		movs	r1, #0
 127 005a 2046     		mov	r0, r4
 128 005c FFF7FEFF 		bl	lv_anim_del
 129              	.LVL12:
 687:lvgl/lvgl/src/core/lv_obj_style.c ****                     _lv_ll_remove(&LV_GC_ROOT(_lv_obj_style_trans_ll), tr);
 130              		.loc 1 687 21 view .LVU29
 131 0060 2146     		mov	r1, r4
 132 0062 1348     		ldr	r0, .L16
 133 0064 FFF7FEFF 		bl	_lv_ll_remove
 134              	.LVL13:
 688:lvgl/lvgl/src/core/lv_obj_style.c ****                     lv_mem_free(tr);
 135              		.loc 1 688 21 view .LVU30
 136 0068 2046     		mov	r0, r4
 137 006a FFF7FEFF 		bl	lv_mem_free
 138              	.LVL14:
 689:lvgl/lvgl/src/core/lv_obj_style.c ****                     removed = true;
 139              		.loc 1 689 21 view .LVU31
 140              		.loc 1 689 29 is_stmt 0 view .LVU32
 141 006e 4FF0010B 		mov	fp, #1
 142              	.LVL15:
 143              	.L7:
 683:lvgl/lvgl/src/core/lv_obj_style.c ****                 if(obj->styles[i].is_trans && (part == LV_PART_ANY || obj->styles[i].selector == pa
 144              		.loc 1 683 44 is_stmt 1 discriminator 2 view .LVU33
 683:lvgl/lvgl/src/core/lv_obj_style.c ****                 if(obj->styles[i].is_trans && (part == LV_PART_ANY || obj->styles[i].selector == pa
 145              		.loc 1 683 45 is_stmt 0 discriminator 2 view .LVU34
 146 0072 0137     		adds	r7, r7, #1
 147              	.LVL16:
 148              	.L9:
 683:lvgl/lvgl/src/core/lv_obj_style.c ****                 if(obj->styles[i].is_trans && (part == LV_PART_ANY || obj->styles[i].selector == pa
 149              		.loc 1 683 24 is_stmt 1 discriminator 1 view .LVU35
 683:lvgl/lvgl/src/core/lv_obj_style.c ****                 if(obj->styles[i].is_trans && (part == LV_PART_ANY || obj->styles[i].selector == pa
 150              		.loc 1 683 31 is_stmt 0 discriminator 1 view .LVU36
 151 0074 738C     		ldrh	r3, [r6, #34]
 152 0076 C3F3C503 		ubfx	r3, r3, #3, #6
 683:lvgl/lvgl/src/core/lv_obj_style.c ****                 if(obj->styles[i].is_trans && (part == LV_PART_ANY || obj->styles[i].selector == pa
 153              		.loc 1 683 13 discriminator 1 view .LVU37
 154 007a BB42     		cmp	r3, r7
 155 007c D4D9     		bls	.L4
 684:lvgl/lvgl/src/core/lv_obj_style.c ****                     lv_style_remove_prop(obj->styles[i].style, tr->prop);
ARM GAS  C:\Users\gx\AppData\Local\Temp\cc2sgWsf.s 			page 16


 156              		.loc 1 684 17 is_stmt 1 view .LVU38
 684:lvgl/lvgl/src/core/lv_obj_style.c ****                     lv_style_remove_prop(obj->styles[i].style, tr->prop);
 157              		.loc 1 684 23 is_stmt 0 view .LVU39
 158 007e F268     		ldr	r2, [r6, #12]
 684:lvgl/lvgl/src/core/lv_obj_style.c ****                     lv_style_remove_prop(obj->styles[i].style, tr->prop);
 159              		.loc 1 684 31 view .LVU40
 160 0080 F800     		lsls	r0, r7, #3
 161 0082 02EBC703 		add	r3, r2, r7, lsl #3
 684:lvgl/lvgl/src/core/lv_obj_style.c ****                     lv_style_remove_prop(obj->styles[i].style, tr->prop);
 162              		.loc 1 684 20 view .LVU41
 163 0086 D979     		ldrb	r1, [r3, #7]	@ zero_extendqisi2
 684:lvgl/lvgl/src/core/lv_obj_style.c ****                     lv_style_remove_prop(obj->styles[i].style, tr->prop);
 164              		.loc 1 684 19 view .LVU42
 165 0088 11F0020F 		tst	r1, #2
 166 008c F1D0     		beq	.L7
 684:lvgl/lvgl/src/core/lv_obj_style.c ****                     lv_style_remove_prop(obj->styles[i].style, tr->prop);
 167              		.loc 1 684 44 discriminator 1 view .LVU43
 168 008e B9F5702F 		cmp	r9, #983040
 169 0092 DDD0     		beq	.L8
 684:lvgl/lvgl/src/core/lv_obj_style.c ****                     lv_style_remove_prop(obj->styles[i].style, tr->prop);
 170              		.loc 1 684 85 discriminator 2 view .LVU44
 171 0094 5B68     		ldr	r3, [r3, #4]
 172 0096 C3F31703 		ubfx	r3, r3, #0, #24
 684:lvgl/lvgl/src/core/lv_obj_style.c ****                     lv_style_remove_prop(obj->styles[i].style, tr->prop);
 173              		.loc 1 684 68 discriminator 2 view .LVU45
 174 009a 4B45     		cmp	r3, r9
 175 009c E9D1     		bne	.L7
 176 009e D7E7     		b	.L8
 177              	.LVL17:
 178              	.L12:
 684:lvgl/lvgl/src/core/lv_obj_style.c ****                     lv_style_remove_prop(obj->styles[i].style, tr->prop);
 179              		.loc 1 684 68 discriminator 2 view .LVU46
 180              	.LBE63:
 181 00a0 0027     		movs	r7, #0
 182 00a2 E7E7     		b	.L9
 183              	.L15:
 184 00a4 0027     		movs	r7, #0
 185 00a6 E5E7     		b	.L9
 186              	.LVL18:
 187              	.L3:
 690:lvgl/lvgl/src/core/lv_obj_style.c ****                 }
 691:lvgl/lvgl/src/core/lv_obj_style.c ****             }
 692:lvgl/lvgl/src/core/lv_obj_style.c **** 
 693:lvgl/lvgl/src/core/lv_obj_style.c ****         }
 694:lvgl/lvgl/src/core/lv_obj_style.c ****         tr = tr_prev;
 695:lvgl/lvgl/src/core/lv_obj_style.c ****     }
 696:lvgl/lvgl/src/core/lv_obj_style.c ****     return removed;
 188              		.loc 1 696 5 is_stmt 1 view .LVU47
 697:lvgl/lvgl/src/core/lv_obj_style.c **** }
 189              		.loc 1 697 1 is_stmt 0 view .LVU48
 190 00a8 5846     		mov	r0, fp
 191 00aa BDE8F88F 		pop	{r3, r4, r5, r6, r7, r8, r9, r10, fp, pc}
 192              	.LVL19:
 193              	.L17:
 194              		.loc 1 697 1 view .LVU49
 195 00ae 00BF     		.align	2
 196              	.L16:
ARM GAS  C:\Users\gx\AppData\Local\Temp\cc2sgWsf.s 			page 17


 197 00b0 00000000 		.word	_lv_obj_style_trans_ll
 198              		.cfi_endproc
 199              	.LFE181:
 201              		.section	.text.refresh_children_style,"ax",%progbits
 202              		.align	1
 203              		.syntax unified
 204              		.thumb
 205              		.thumb_func
 206              		.fpu fpv4-sp-d16
 208              	refresh_children_style:
 209              	.LVL20:
 210              	.LFB180:
 645:lvgl/lvgl/src/core/lv_obj_style.c ****     uint32_t i;
 211              		.loc 1 645 1 is_stmt 1 view -0
 212              		.cfi_startproc
 213              		@ args = 0, pretend = 0, frame = 0
 214              		@ frame_needed = 0, uses_anonymous_args = 0
 645:lvgl/lvgl/src/core/lv_obj_style.c ****     uint32_t i;
 215              		.loc 1 645 1 is_stmt 0 view .LVU51
 216 0000 F8B5     		push	{r3, r4, r5, r6, r7, lr}
 217              	.LCFI1:
 218              		.cfi_def_cfa_offset 24
 219              		.cfi_offset 3, -24
 220              		.cfi_offset 4, -20
 221              		.cfi_offset 5, -16
 222              		.cfi_offset 6, -12
 223              		.cfi_offset 7, -8
 224              		.cfi_offset 14, -4
 225 0002 0746     		mov	r7, r0
 646:lvgl/lvgl/src/core/lv_obj_style.c ****     uint32_t child_cnt = lv_obj_get_child_cnt(obj);
 226              		.loc 1 646 5 is_stmt 1 view .LVU52
 647:lvgl/lvgl/src/core/lv_obj_style.c ****     for(i = 0; i < child_cnt; i++) {
 227              		.loc 1 647 5 view .LVU53
 647:lvgl/lvgl/src/core/lv_obj_style.c ****     for(i = 0; i < child_cnt; i++) {
 228              		.loc 1 647 26 is_stmt 0 view .LVU54
 229 0004 FFF7FEFF 		bl	lv_obj_get_child_cnt
 230              	.LVL21:
 647:lvgl/lvgl/src/core/lv_obj_style.c ****     for(i = 0; i < child_cnt; i++) {
 231              		.loc 1 647 26 view .LVU55
 232 0008 0646     		mov	r6, r0
 233              	.LVL22:
 648:lvgl/lvgl/src/core/lv_obj_style.c ****         lv_obj_t * child = obj->spec_attr->children[i];
 234              		.loc 1 648 5 is_stmt 1 view .LVU56
 648:lvgl/lvgl/src/core/lv_obj_style.c ****         lv_obj_t * child = obj->spec_attr->children[i];
 235              		.loc 1 648 11 is_stmt 0 view .LVU57
 236 000a 0025     		movs	r5, #0
 648:lvgl/lvgl/src/core/lv_obj_style.c ****         lv_obj_t * child = obj->spec_attr->children[i];
 237              		.loc 1 648 5 view .LVU58
 238 000c 12E0     		b	.L19
 239              	.LVL23:
 240              	.L20:
 241              	.LBB64:
 649:lvgl/lvgl/src/core/lv_obj_style.c ****         lv_obj_invalidate(child);
 242              		.loc 1 649 9 is_stmt 1 discriminator 3 view .LVU59
 649:lvgl/lvgl/src/core/lv_obj_style.c ****         lv_obj_invalidate(child);
 243              		.loc 1 649 31 is_stmt 0 discriminator 3 view .LVU60
 244 000e BB68     		ldr	r3, [r7, #8]
ARM GAS  C:\Users\gx\AppData\Local\Temp\cc2sgWsf.s 			page 18


 649:lvgl/lvgl/src/core/lv_obj_style.c ****         lv_obj_invalidate(child);
 245              		.loc 1 649 42 discriminator 3 view .LVU61
 246 0010 1B68     		ldr	r3, [r3]
 649:lvgl/lvgl/src/core/lv_obj_style.c ****         lv_obj_invalidate(child);
 247              		.loc 1 649 20 discriminator 3 view .LVU62
 248 0012 53F82540 		ldr	r4, [r3, r5, lsl #2]
 249              	.LVL24:
 650:lvgl/lvgl/src/core/lv_obj_style.c ****         lv_event_send(child, LV_EVENT_STYLE_CHANGED, NULL);
 250              		.loc 1 650 9 is_stmt 1 discriminator 3 view .LVU63
 251 0016 2046     		mov	r0, r4
 252 0018 FFF7FEFF 		bl	lv_obj_invalidate
 253              	.LVL25:
 651:lvgl/lvgl/src/core/lv_obj_style.c ****         lv_obj_invalidate(child);
 254              		.loc 1 651 9 discriminator 3 view .LVU64
 255 001c 0022     		movs	r2, #0
 256 001e 2421     		movs	r1, #36
 257 0020 2046     		mov	r0, r4
 258 0022 FFF7FEFF 		bl	lv_event_send
 259              	.LVL26:
 652:lvgl/lvgl/src/core/lv_obj_style.c **** 
 260              		.loc 1 652 9 discriminator 3 view .LVU65
 261 0026 2046     		mov	r0, r4
 262 0028 FFF7FEFF 		bl	lv_obj_invalidate
 263              	.LVL27:
 654:lvgl/lvgl/src/core/lv_obj_style.c ****     }
 264              		.loc 1 654 9 discriminator 3 view .LVU66
 265 002c 2046     		mov	r0, r4
 266 002e FFF7E7FF 		bl	refresh_children_style
 267              	.LVL28:
 268              	.LBE64:
 648:lvgl/lvgl/src/core/lv_obj_style.c ****         lv_obj_t * child = obj->spec_attr->children[i];
 269              		.loc 1 648 31 discriminator 3 view .LVU67
 648:lvgl/lvgl/src/core/lv_obj_style.c ****         lv_obj_t * child = obj->spec_attr->children[i];
 270              		.loc 1 648 32 is_stmt 0 discriminator 3 view .LVU68
 271 0032 0135     		adds	r5, r5, #1
 272              	.LVL29:
 273              	.L19:
 648:lvgl/lvgl/src/core/lv_obj_style.c ****         lv_obj_t * child = obj->spec_attr->children[i];
 274              		.loc 1 648 16 is_stmt 1 discriminator 1 view .LVU69
 648:lvgl/lvgl/src/core/lv_obj_style.c ****         lv_obj_t * child = obj->spec_attr->children[i];
 275              		.loc 1 648 5 is_stmt 0 discriminator 1 view .LVU70
 276 0034 B542     		cmp	r5, r6
 277 0036 EAD3     		bcc	.L20
 656:lvgl/lvgl/src/core/lv_obj_style.c **** 
 278              		.loc 1 656 1 view .LVU71
 279 0038 F8BD     		pop	{r3, r4, r5, r6, r7, pc}
 656:lvgl/lvgl/src/core/lv_obj_style.c **** 
 280              		.loc 1 656 1 view .LVU72
 281              		.cfi_endproc
 282              	.LFE180:
 284              		.section	.rodata.get_local_style.str1.4,"aMS",%progbits,1
 285              		.align	2
 286              	.LC0:
 287 0000 6C76676C 		.ascii	"lvgl/lvgl/src/core/lv_obj_style.c\000"
 287      2F6C7667 
 287      6C2F7372 
 287      632F636F 
ARM GAS  C:\Users\gx\AppData\Local\Temp\cc2sgWsf.s 			page 19


 287      72652F6C 
 288 0022 0000     		.align	2
 289              	.LC1:
 290 0024 4F757420 		.ascii	"Out of memory\000"
 290      6F66206D 
 290      656D6F72 
 290      7900
 291 0032 0000     		.align	2
 292              	.LC2:
 293 0034 6F626A2D 		.ascii	"obj->styles != NULL\000"
 293      3E737479 
 293      6C657320 
 293      213D204E 
 293      554C4C00 
 294              		.align	2
 295              	.LC3:
 296 0048 41737365 		.ascii	"Asserted at expression: %s (%s)\000"
 296      72746564 
 296      20617420 
 296      65787072 
 296      65737369 
 297              		.section	.text.get_local_style,"ax",%progbits
 298              		.align	1
 299              		.syntax unified
 300              		.thumb
 301              		.thumb_func
 302              		.fpu fpv4-sp-d16
 304              	get_local_style:
 305              	.LVL30:
 306              	.LFB175:
 482:lvgl/lvgl/src/core/lv_obj_style.c ****     uint32_t i;
 307              		.loc 1 482 1 is_stmt 1 view -0
 308              		.cfi_startproc
 309              		@ args = 0, pretend = 0, frame = 0
 310              		@ frame_needed = 0, uses_anonymous_args = 0
 482:lvgl/lvgl/src/core/lv_obj_style.c ****     uint32_t i;
 311              		.loc 1 482 1 is_stmt 0 view .LVU74
 312 0000 2DE9F041 		push	{r4, r5, r6, r7, r8, lr}
 313              	.LCFI2:
 314              		.cfi_def_cfa_offset 24
 315              		.cfi_offset 4, -24
 316              		.cfi_offset 5, -20
 317              		.cfi_offset 6, -16
 318              		.cfi_offset 7, -12
 319              		.cfi_offset 8, -8
 320              		.cfi_offset 14, -4
 321 0004 84B0     		sub	sp, sp, #16
 322              	.LCFI3:
 323              		.cfi_def_cfa_offset 40
 324 0006 0446     		mov	r4, r0
 325 0008 0D46     		mov	r5, r1
 483:lvgl/lvgl/src/core/lv_obj_style.c ****     for(i = 0; i < obj->style_cnt; i++) {
 326              		.loc 1 483 5 is_stmt 1 view .LVU75
 484:lvgl/lvgl/src/core/lv_obj_style.c ****         if(obj->styles[i].is_local &&
 327              		.loc 1 484 5 view .LVU76
 328              	.LVL31:
 484:lvgl/lvgl/src/core/lv_obj_style.c ****         if(obj->styles[i].is_local &&
ARM GAS  C:\Users\gx\AppData\Local\Temp\cc2sgWsf.s 			page 20


 329              		.loc 1 484 11 is_stmt 0 view .LVU77
 330 000a 0022     		movs	r2, #0
 484:lvgl/lvgl/src/core/lv_obj_style.c ****         if(obj->styles[i].is_local &&
 331              		.loc 1 484 5 view .LVU78
 332 000c 00E0     		b	.L23
 333              	.LVL32:
 334              	.L24:
 484:lvgl/lvgl/src/core/lv_obj_style.c ****         if(obj->styles[i].is_local &&
 335              		.loc 1 484 36 is_stmt 1 discriminator 2 view .LVU79
 484:lvgl/lvgl/src/core/lv_obj_style.c ****         if(obj->styles[i].is_local &&
 336              		.loc 1 484 37 is_stmt 0 discriminator 2 view .LVU80
 337 000e 0132     		adds	r2, r2, #1
 338              	.LVL33:
 339              	.L23:
 484:lvgl/lvgl/src/core/lv_obj_style.c ****         if(obj->styles[i].is_local &&
 340              		.loc 1 484 16 is_stmt 1 discriminator 1 view .LVU81
 484:lvgl/lvgl/src/core/lv_obj_style.c ****         if(obj->styles[i].is_local &&
 341              		.loc 1 484 23 is_stmt 0 discriminator 1 view .LVU82
 342 0010 638C     		ldrh	r3, [r4, #34]
 343 0012 C3F3C503 		ubfx	r3, r3, #3, #6
 484:lvgl/lvgl/src/core/lv_obj_style.c ****         if(obj->styles[i].is_local &&
 344              		.loc 1 484 5 discriminator 1 view .LVU83
 345 0016 9342     		cmp	r3, r2
 346 0018 0DD9     		bls	.L33
 485:lvgl/lvgl/src/core/lv_obj_style.c ****            obj->styles[i].selector == selector)
 347              		.loc 1 485 9 is_stmt 1 view .LVU84
 485:lvgl/lvgl/src/core/lv_obj_style.c ****            obj->styles[i].selector == selector)
 348              		.loc 1 485 15 is_stmt 0 view .LVU85
 349 001a E368     		ldr	r3, [r4, #12]
 485:lvgl/lvgl/src/core/lv_obj_style.c ****            obj->styles[i].selector == selector)
 350              		.loc 1 485 23 view .LVU86
 351 001c 03EBC203 		add	r3, r3, r2, lsl #3
 485:lvgl/lvgl/src/core/lv_obj_style.c ****            obj->styles[i].selector == selector)
 352              		.loc 1 485 12 view .LVU87
 353 0020 D979     		ldrb	r1, [r3, #7]	@ zero_extendqisi2
 485:lvgl/lvgl/src/core/lv_obj_style.c ****            obj->styles[i].selector == selector)
 354              		.loc 1 485 11 view .LVU88
 355 0022 11F0010F 		tst	r1, #1
 356 0026 F2D0     		beq	.L24
 486:lvgl/lvgl/src/core/lv_obj_style.c ****         {
 357              		.loc 1 486 26 discriminator 1 view .LVU89
 358 0028 5968     		ldr	r1, [r3, #4]
 359 002a C1F31701 		ubfx	r1, r1, #0, #24
 485:lvgl/lvgl/src/core/lv_obj_style.c ****            obj->styles[i].selector == selector)
 360              		.loc 1 485 36 discriminator 1 view .LVU90
 361 002e A942     		cmp	r1, r5
 362 0030 EDD1     		bne	.L24
 488:lvgl/lvgl/src/core/lv_obj_style.c ****         }
 363              		.loc 1 488 13 is_stmt 1 view .LVU91
 488:lvgl/lvgl/src/core/lv_obj_style.c ****         }
 364              		.loc 1 488 34 is_stmt 0 view .LVU92
 365 0032 1868     		ldr	r0, [r3]
 366              	.LVL34:
 488:lvgl/lvgl/src/core/lv_obj_style.c ****         }
 367              		.loc 1 488 34 view .LVU93
 368 0034 53E0     		b	.L22
 369              	.LVL35:
ARM GAS  C:\Users\gx\AppData\Local\Temp\cc2sgWsf.s 			page 21


 370              	.L33:
 492:lvgl/lvgl/src/core/lv_obj_style.c ****     obj->styles = lv_mem_realloc(obj->styles, obj->style_cnt * sizeof(_lv_obj_style_t));
 371              		.loc 1 492 5 is_stmt 1 view .LVU94
 492:lvgl/lvgl/src/core/lv_obj_style.c ****     obj->styles = lv_mem_realloc(obj->styles, obj->style_cnt * sizeof(_lv_obj_style_t));
 372              		.loc 1 492 19 is_stmt 0 view .LVU95
 373 0036 0133     		adds	r3, r3, #1
 374 0038 03F03F01 		and	r1, r3, #63
 375 003c 638C     		ldrh	r3, [r4, #34]
 376 003e 61F3C803 		bfi	r3, r1, #3, #6
 377 0042 6384     		strh	r3, [r4, #34]	@ movhi
 493:lvgl/lvgl/src/core/lv_obj_style.c ****     LV_ASSERT_MALLOC(obj->styles);
 378              		.loc 1 493 5 is_stmt 1 view .LVU96
 493:lvgl/lvgl/src/core/lv_obj_style.c ****     LV_ASSERT_MALLOC(obj->styles);
 379              		.loc 1 493 19 is_stmt 0 view .LVU97
 380 0044 C900     		lsls	r1, r1, #3
 381 0046 E068     		ldr	r0, [r4, #12]
 382              	.LVL36:
 493:lvgl/lvgl/src/core/lv_obj_style.c ****     LV_ASSERT_MALLOC(obj->styles);
 383              		.loc 1 493 19 view .LVU98
 384 0048 FFF7FEFF 		bl	lv_mem_realloc
 385              	.LVL37:
 493:lvgl/lvgl/src/core/lv_obj_style.c ****     LV_ASSERT_MALLOC(obj->styles);
 386              		.loc 1 493 17 view .LVU99
 387 004c E060     		str	r0, [r4, #12]
 494:lvgl/lvgl/src/core/lv_obj_style.c **** 
 388              		.loc 1 494 5 is_stmt 1 view .LVU100
 494:lvgl/lvgl/src/core/lv_obj_style.c **** 
 389              		.loc 1 494 5 view .LVU101
 390 004e B0B1     		cbz	r0, .L34
 494:lvgl/lvgl/src/core/lv_obj_style.c **** 
 391              		.loc 1 494 5 discriminator 2 view .LVU102
 494:lvgl/lvgl/src/core/lv_obj_style.c **** 
 392              		.loc 1 494 34 discriminator 2 view .LVU103
 496:lvgl/lvgl/src/core/lv_obj_style.c ****         /*Copy only normal styles (not local and transition).
 393              		.loc 1 496 5 discriminator 2 view .LVU104
 496:lvgl/lvgl/src/core/lv_obj_style.c ****         /*Copy only normal styles (not local and transition).
 394              		.loc 1 496 16 is_stmt 0 discriminator 2 view .LVU105
 395 0050 668C     		ldrh	r6, [r4, #34]
 396 0052 C6F3C506 		ubfx	r6, r6, #3, #6
 496:lvgl/lvgl/src/core/lv_obj_style.c ****         /*Copy only normal styles (not local and transition).
 397              		.loc 1 496 28 discriminator 2 view .LVU106
 398 0056 013E     		subs	r6, r6, #1
 399              	.LVL38:
 400              	.L29:
 496:lvgl/lvgl/src/core/lv_obj_style.c ****         /*Copy only normal styles (not local and transition).
 401              		.loc 1 496 33 is_stmt 1 discriminator 1 view .LVU107
 496:lvgl/lvgl/src/core/lv_obj_style.c ****         /*Copy only normal styles (not local and transition).
 402              		.loc 1 496 5 is_stmt 0 discriminator 1 view .LVU108
 403 0058 FEB1     		cbz	r6, .L30
 499:lvgl/lvgl/src/core/lv_obj_style.c ****         obj->styles[i] = obj->styles[i - 1];
 404              		.loc 1 499 9 is_stmt 1 view .LVU109
 499:lvgl/lvgl/src/core/lv_obj_style.c ****         obj->styles[i] = obj->styles[i - 1];
 405              		.loc 1 499 15 is_stmt 0 view .LVU110
 406 005a E268     		ldr	r2, [r4, #12]
 499:lvgl/lvgl/src/core/lv_obj_style.c ****         obj->styles[i] = obj->styles[i - 1];
 407              		.loc 1 499 23 view .LVU111
 408 005c 06F10053 		add	r3, r6, #536870912
ARM GAS  C:\Users\gx\AppData\Local\Temp\cc2sgWsf.s 			page 22


 409 0060 013B     		subs	r3, r3, #1
 410 0062 02EBC303 		add	r3, r2, r3, lsl #3
 499:lvgl/lvgl/src/core/lv_obj_style.c ****         obj->styles[i] = obj->styles[i - 1];
 411              		.loc 1 499 40 view .LVU112
 412 0066 D979     		ldrb	r1, [r3, #7]	@ zero_extendqisi2
 499:lvgl/lvgl/src/core/lv_obj_style.c ****         obj->styles[i] = obj->styles[i - 1];
 413              		.loc 1 499 11 view .LVU113
 414 0068 11F0030F 		tst	r1, #3
 415 006c 15D1     		bne	.L30
 500:lvgl/lvgl/src/core/lv_obj_style.c ****     }
 416              		.loc 1 500 9 is_stmt 1 discriminator 2 view .LVU114
 500:lvgl/lvgl/src/core/lv_obj_style.c ****     }
 417              		.loc 1 500 20 is_stmt 0 discriminator 2 view .LVU115
 418 006e 02EBC602 		add	r2, r2, r6, lsl #3
 500:lvgl/lvgl/src/core/lv_obj_style.c ****     }
 419              		.loc 1 500 24 discriminator 2 view .LVU116
 420 0072 93E80300 		ldm	r3, {r0, r1}
 421 0076 82E80300 		stm	r2, {r0, r1}
 496:lvgl/lvgl/src/core/lv_obj_style.c ****         /*Copy only normal styles (not local and transition).
 422              		.loc 1 496 41 is_stmt 1 discriminator 2 view .LVU117
 496:lvgl/lvgl/src/core/lv_obj_style.c ****         /*Copy only normal styles (not local and transition).
 423              		.loc 1 496 42 is_stmt 0 discriminator 2 view .LVU118
 424 007a 013E     		subs	r6, r6, #1
 425              	.LVL39:
 496:lvgl/lvgl/src/core/lv_obj_style.c ****         /*Copy only normal styles (not local and transition).
 426              		.loc 1 496 42 discriminator 2 view .LVU119
 427 007c ECE7     		b	.L29
 428              	.LVL40:
 429              	.L34:
 494:lvgl/lvgl/src/core/lv_obj_style.c **** 
 430              		.loc 1 494 5 is_stmt 1 discriminator 1 view .LVU120
 431 007e 194B     		ldr	r3, .L35
 432 0080 0293     		str	r3, [sp, #8]
 433 0082 194B     		ldr	r3, .L35+4
 434 0084 0193     		str	r3, [sp, #4]
 435 0086 194B     		ldr	r3, .L35+8
 436 0088 0093     		str	r3, [sp]
 437 008a 194B     		ldr	r3, .L35+12
 438 008c 4FF4F772 		mov	r2, #494
 439 0090 1849     		ldr	r1, .L35+16
 440 0092 0320     		movs	r0, #3
 441 0094 FFF7FEFF 		bl	_lv_log_add
 442              	.LVL41:
 443              	.L28:
 494:lvgl/lvgl/src/core/lv_obj_style.c **** 
 444              		.loc 1 494 5 discriminator 1 view .LVU121
 494:lvgl/lvgl/src/core/lv_obj_style.c **** 
 445              		.loc 1 494 5 discriminator 1 view .LVU122
 494:lvgl/lvgl/src/core/lv_obj_style.c **** 
 446              		.loc 1 494 5 discriminator 1 view .LVU123
 494:lvgl/lvgl/src/core/lv_obj_style.c **** 
 447              		.loc 1 494 5 discriminator 1 view .LVU124
 448 0098 FEE7     		b	.L28
 449              	.LVL42:
 450              	.L30:
 503:lvgl/lvgl/src/core/lv_obj_style.c ****     obj->styles[i].style = lv_mem_alloc(sizeof(lv_style_t));
 451              		.loc 1 503 5 view .LVU125
ARM GAS  C:\Users\gx\AppData\Local\Temp\cc2sgWsf.s 			page 23


 503:lvgl/lvgl/src/core/lv_obj_style.c ****     obj->styles[i].style = lv_mem_alloc(sizeof(lv_style_t));
 452              		.loc 1 503 22 is_stmt 0 view .LVU126
 453 009a E068     		ldr	r0, [r4, #12]
 503:lvgl/lvgl/src/core/lv_obj_style.c ****     obj->styles[i].style = lv_mem_alloc(sizeof(lv_style_t));
 454              		.loc 1 503 30 view .LVU127
 455 009c F700     		lsls	r7, r6, #3
 503:lvgl/lvgl/src/core/lv_obj_style.c ****     obj->styles[i].style = lv_mem_alloc(sizeof(lv_style_t));
 456              		.loc 1 503 5 view .LVU128
 457 009e 0821     		movs	r1, #8
 458 00a0 00EBC600 		add	r0, r0, r6, lsl #3
 459 00a4 FFF7FEFF 		bl	lv_memset_00
 460              	.LVL43:
 504:lvgl/lvgl/src/core/lv_obj_style.c ****     lv_style_init(obj->styles[i].style);
 461              		.loc 1 504 5 is_stmt 1 view .LVU129
 504:lvgl/lvgl/src/core/lv_obj_style.c ****     lv_style_init(obj->styles[i].style);
 462              		.loc 1 504 8 is_stmt 0 view .LVU130
 463 00a8 D4F80C80 		ldr	r8, [r4, #12]
 504:lvgl/lvgl/src/core/lv_obj_style.c ****     lv_style_init(obj->styles[i].style);
 464              		.loc 1 504 28 view .LVU131
 465 00ac 0820     		movs	r0, #8
 466 00ae FFF7FEFF 		bl	lv_mem_alloc
 467              	.LVL44:
 504:lvgl/lvgl/src/core/lv_obj_style.c ****     lv_style_init(obj->styles[i].style);
 468              		.loc 1 504 26 view .LVU132
 469 00b2 48F83600 		str	r0, [r8, r6, lsl #3]
 505:lvgl/lvgl/src/core/lv_obj_style.c ****     obj->styles[i].is_local = 1;
 470              		.loc 1 505 5 is_stmt 1 view .LVU133
 505:lvgl/lvgl/src/core/lv_obj_style.c ****     obj->styles[i].is_local = 1;
 471              		.loc 1 505 22 is_stmt 0 view .LVU134
 472 00b6 E368     		ldr	r3, [r4, #12]
 505:lvgl/lvgl/src/core/lv_obj_style.c ****     obj->styles[i].is_local = 1;
 473              		.loc 1 505 5 view .LVU135
 474 00b8 53F83600 		ldr	r0, [r3, r6, lsl #3]
 475 00bc FFF7FEFF 		bl	lv_style_init
 476              	.LVL45:
 506:lvgl/lvgl/src/core/lv_obj_style.c ****     obj->styles[i].selector = selector;
 477              		.loc 1 506 5 is_stmt 1 view .LVU136
 506:lvgl/lvgl/src/core/lv_obj_style.c ****     obj->styles[i].selector = selector;
 478              		.loc 1 506 8 is_stmt 0 view .LVU137
 479 00c0 E368     		ldr	r3, [r4, #12]
 506:lvgl/lvgl/src/core/lv_obj_style.c ****     obj->styles[i].selector = selector;
 480              		.loc 1 506 16 view .LVU138
 481 00c2 3B44     		add	r3, r3, r7
 506:lvgl/lvgl/src/core/lv_obj_style.c ****     obj->styles[i].selector = selector;
 482              		.loc 1 506 29 view .LVU139
 483 00c4 DA79     		ldrb	r2, [r3, #7]	@ zero_extendqisi2
 484 00c6 42F00102 		orr	r2, r2, #1
 485 00ca DA71     		strb	r2, [r3, #7]
 507:lvgl/lvgl/src/core/lv_obj_style.c ****     return obj->styles[i].style;
 486              		.loc 1 507 5 is_stmt 1 view .LVU140
 507:lvgl/lvgl/src/core/lv_obj_style.c ****     return obj->styles[i].style;
 487              		.loc 1 507 8 is_stmt 0 view .LVU141
 488 00cc E368     		ldr	r3, [r4, #12]
 507:lvgl/lvgl/src/core/lv_obj_style.c ****     return obj->styles[i].style;
 489              		.loc 1 507 16 view .LVU142
 490 00ce 3B44     		add	r3, r3, r7
 507:lvgl/lvgl/src/core/lv_obj_style.c ****     return obj->styles[i].style;
ARM GAS  C:\Users\gx\AppData\Local\Temp\cc2sgWsf.s 			page 24


 491              		.loc 1 507 29 view .LVU143
 492 00d0 5A68     		ldr	r2, [r3, #4]
 493 00d2 65F31702 		bfi	r2, r5, #0, #24
 494              	.LVL46:
 507:lvgl/lvgl/src/core/lv_obj_style.c ****     return obj->styles[i].style;
 495              		.loc 1 507 29 view .LVU144
 496 00d6 5A60     		str	r2, [r3, #4]
 508:lvgl/lvgl/src/core/lv_obj_style.c **** }
 497              		.loc 1 508 5 is_stmt 1 view .LVU145
 508:lvgl/lvgl/src/core/lv_obj_style.c **** }
 498              		.loc 1 508 15 is_stmt 0 view .LVU146
 499 00d8 E368     		ldr	r3, [r4, #12]
 508:lvgl/lvgl/src/core/lv_obj_style.c **** }
 500              		.loc 1 508 26 view .LVU147
 501 00da 53F83600 		ldr	r0, [r3, r6, lsl #3]
 502              	.LVL47:
 503              	.L22:
 509:lvgl/lvgl/src/core/lv_obj_style.c **** 
 504              		.loc 1 509 1 view .LVU148
 505 00de 04B0     		add	sp, sp, #16
 506              	.LCFI4:
 507              		.cfi_def_cfa_offset 24
 508              		@ sp needed
 509 00e0 BDE8F081 		pop	{r4, r5, r6, r7, r8, pc}
 510              	.LVL48:
 511              	.L36:
 509:lvgl/lvgl/src/core/lv_obj_style.c **** 
 512              		.loc 1 509 1 view .LVU149
 513              		.align	2
 514              	.L35:
 515 00e4 24000000 		.word	.LC1
 516 00e8 34000000 		.word	.LC2
 517 00ec 48000000 		.word	.LC3
 518 00f0 00000000 		.word	.LANCHOR0
 519 00f4 00000000 		.word	.LC0
 520              		.cfi_endproc
 521              	.LFE175:
 523              		.section	.text.get_trans_style,"ax",%progbits
 524              		.align	1
 525              		.syntax unified
 526              		.thumb
 527              		.thumb_func
 528              		.fpu fpv4-sp-d16
 530              	get_trans_style:
 531              	.LVL49:
 532              	.LFB176:
 520:lvgl/lvgl/src/core/lv_obj_style.c ****     uint32_t i;
 533              		.loc 1 520 1 is_stmt 1 view -0
 534              		.cfi_startproc
 535              		@ args = 0, pretend = 0, frame = 0
 536              		@ frame_needed = 0, uses_anonymous_args = 0
 520:lvgl/lvgl/src/core/lv_obj_style.c ****     uint32_t i;
 537              		.loc 1 520 1 is_stmt 0 view .LVU151
 538 0000 70B5     		push	{r4, r5, r6, lr}
 539              	.LCFI5:
 540              		.cfi_def_cfa_offset 16
 541              		.cfi_offset 4, -16
ARM GAS  C:\Users\gx\AppData\Local\Temp\cc2sgWsf.s 			page 25


 542              		.cfi_offset 5, -12
 543              		.cfi_offset 6, -8
 544              		.cfi_offset 14, -4
 545 0002 0446     		mov	r4, r0
 546 0004 0D46     		mov	r5, r1
 521:lvgl/lvgl/src/core/lv_obj_style.c ****     for(i = 0; i < obj->style_cnt; i++) {
 547              		.loc 1 521 5 is_stmt 1 view .LVU152
 522:lvgl/lvgl/src/core/lv_obj_style.c ****         if(obj->styles[i].is_trans && obj->styles[i].selector == selector) break;
 548              		.loc 1 522 5 view .LVU153
 549              	.LVL50:
 522:lvgl/lvgl/src/core/lv_obj_style.c ****         if(obj->styles[i].is_trans && obj->styles[i].selector == selector) break;
 550              		.loc 1 522 11 is_stmt 0 view .LVU154
 551 0006 0020     		movs	r0, #0
 552              	.LVL51:
 522:lvgl/lvgl/src/core/lv_obj_style.c ****         if(obj->styles[i].is_trans && obj->styles[i].selector == selector) break;
 553              		.loc 1 522 5 view .LVU155
 554 0008 00E0     		b	.L38
 555              	.LVL52:
 556              	.L39:
 522:lvgl/lvgl/src/core/lv_obj_style.c ****         if(obj->styles[i].is_trans && obj->styles[i].selector == selector) break;
 557              		.loc 1 522 36 is_stmt 1 discriminator 2 view .LVU156
 522:lvgl/lvgl/src/core/lv_obj_style.c ****         if(obj->styles[i].is_trans && obj->styles[i].selector == selector) break;
 558              		.loc 1 522 37 is_stmt 0 discriminator 2 view .LVU157
 559 000a 0130     		adds	r0, r0, #1
 560              	.LVL53:
 561              	.L38:
 522:lvgl/lvgl/src/core/lv_obj_style.c ****         if(obj->styles[i].is_trans && obj->styles[i].selector == selector) break;
 562              		.loc 1 522 16 is_stmt 1 discriminator 1 view .LVU158
 522:lvgl/lvgl/src/core/lv_obj_style.c ****         if(obj->styles[i].is_trans && obj->styles[i].selector == selector) break;
 563              		.loc 1 522 23 is_stmt 0 discriminator 1 view .LVU159
 564 000c 638C     		ldrh	r3, [r4, #34]
 565 000e C3F3C503 		ubfx	r3, r3, #3, #6
 566 0012 1E46     		mov	r6, r3
 522:lvgl/lvgl/src/core/lv_obj_style.c ****         if(obj->styles[i].is_trans && obj->styles[i].selector == selector) break;
 567              		.loc 1 522 5 discriminator 1 view .LVU160
 568 0014 8342     		cmp	r3, r0
 569 0016 0BD9     		bls	.L40
 523:lvgl/lvgl/src/core/lv_obj_style.c ****     }
 570              		.loc 1 523 9 is_stmt 1 view .LVU161
 523:lvgl/lvgl/src/core/lv_obj_style.c ****     }
 571              		.loc 1 523 15 is_stmt 0 view .LVU162
 572 0018 E268     		ldr	r2, [r4, #12]
 523:lvgl/lvgl/src/core/lv_obj_style.c ****     }
 573              		.loc 1 523 23 view .LVU163
 574 001a 02EBC002 		add	r2, r2, r0, lsl #3
 523:lvgl/lvgl/src/core/lv_obj_style.c ****     }
 575              		.loc 1 523 12 view .LVU164
 576 001e D179     		ldrb	r1, [r2, #7]	@ zero_extendqisi2
 523:lvgl/lvgl/src/core/lv_obj_style.c ****     }
 577              		.loc 1 523 11 view .LVU165
 578 0020 11F0020F 		tst	r1, #2
 579 0024 F1D0     		beq	.L39
 523:lvgl/lvgl/src/core/lv_obj_style.c ****     }
 580              		.loc 1 523 53 discriminator 1 view .LVU166
 581 0026 5268     		ldr	r2, [r2, #4]
 582 0028 C2F31702 		ubfx	r2, r2, #0, #24
 523:lvgl/lvgl/src/core/lv_obj_style.c ****     }
ARM GAS  C:\Users\gx\AppData\Local\Temp\cc2sgWsf.s 			page 26


 583              		.loc 1 523 36 discriminator 1 view .LVU167
 584 002c AA42     		cmp	r2, r5
 585 002e ECD1     		bne	.L39
 586              	.L40:
 527:lvgl/lvgl/src/core/lv_obj_style.c **** 
 587              		.loc 1 527 5 is_stmt 1 view .LVU168
 527:lvgl/lvgl/src/core/lv_obj_style.c **** 
 588              		.loc 1 527 7 is_stmt 0 view .LVU169
 589 0030 8642     		cmp	r6, r0
 590 0032 03D0     		beq	.L42
 527:lvgl/lvgl/src/core/lv_obj_style.c **** 
 591              		.loc 1 527 29 is_stmt 1 discriminator 1 view .LVU170
 527:lvgl/lvgl/src/core/lv_obj_style.c **** 
 592              		.loc 1 527 40 is_stmt 0 discriminator 1 view .LVU171
 593 0034 E368     		ldr	r3, [r4, #12]
 527:lvgl/lvgl/src/core/lv_obj_style.c **** 
 594              		.loc 1 527 36 discriminator 1 view .LVU172
 595 0036 03EBC000 		add	r0, r3, r0, lsl #3
 596              	.LVL54:
 597              	.L37:
 542:lvgl/lvgl/src/core/lv_obj_style.c **** 
 598              		.loc 1 542 1 view .LVU173
 599 003a 70BD     		pop	{r4, r5, r6, pc}
 600              	.LVL55:
 601              	.L42:
 529:lvgl/lvgl/src/core/lv_obj_style.c ****     obj->styles = lv_mem_realloc(obj->styles, obj->style_cnt * sizeof(_lv_obj_style_t));
 602              		.loc 1 529 5 is_stmt 1 view .LVU174
 529:lvgl/lvgl/src/core/lv_obj_style.c ****     obj->styles = lv_mem_realloc(obj->styles, obj->style_cnt * sizeof(_lv_obj_style_t));
 603              		.loc 1 529 19 is_stmt 0 view .LVU175
 604 003c 0133     		adds	r3, r3, #1
 605 003e 03F03F03 		and	r3, r3, #63
 606 0042 628C     		ldrh	r2, [r4, #34]
 607 0044 63F3C802 		bfi	r2, r3, #3, #6
 608 0048 6284     		strh	r2, [r4, #34]	@ movhi
 530:lvgl/lvgl/src/core/lv_obj_style.c **** 
 609              		.loc 1 530 5 is_stmt 1 view .LVU176
 530:lvgl/lvgl/src/core/lv_obj_style.c **** 
 610              		.loc 1 530 19 is_stmt 0 view .LVU177
 611 004a D900     		lsls	r1, r3, #3
 612 004c E068     		ldr	r0, [r4, #12]
 613              	.LVL56:
 530:lvgl/lvgl/src/core/lv_obj_style.c **** 
 614              		.loc 1 530 19 view .LVU178
 615 004e FFF7FEFF 		bl	lv_mem_realloc
 616              	.LVL57:
 530:lvgl/lvgl/src/core/lv_obj_style.c **** 
 617              		.loc 1 530 17 view .LVU179
 618 0052 E060     		str	r0, [r4, #12]
 532:lvgl/lvgl/src/core/lv_obj_style.c ****         obj->styles[i] = obj->styles[i - 1];
 619              		.loc 1 532 5 is_stmt 1 view .LVU180
 532:lvgl/lvgl/src/core/lv_obj_style.c ****         obj->styles[i] = obj->styles[i - 1];
 620              		.loc 1 532 16 is_stmt 0 view .LVU181
 621 0054 668C     		ldrh	r6, [r4, #34]
 622 0056 C6F3C506 		ubfx	r6, r6, #3, #6
 532:lvgl/lvgl/src/core/lv_obj_style.c ****         obj->styles[i] = obj->styles[i - 1];
 623              		.loc 1 532 28 view .LVU182
 624 005a 013E     		subs	r6, r6, #1
ARM GAS  C:\Users\gx\AppData\Local\Temp\cc2sgWsf.s 			page 27


 625              	.LVL58:
 626              	.L44:
 532:lvgl/lvgl/src/core/lv_obj_style.c ****         obj->styles[i] = obj->styles[i - 1];
 627              		.loc 1 532 33 is_stmt 1 discriminator 1 view .LVU183
 532:lvgl/lvgl/src/core/lv_obj_style.c ****         obj->styles[i] = obj->styles[i - 1];
 628              		.loc 1 532 5 is_stmt 0 discriminator 1 view .LVU184
 629 005c 6EB1     		cbz	r6, .L47
 533:lvgl/lvgl/src/core/lv_obj_style.c ****     }
 630              		.loc 1 533 9 is_stmt 1 discriminator 3 view .LVU185
 533:lvgl/lvgl/src/core/lv_obj_style.c ****     }
 631              		.loc 1 533 29 is_stmt 0 discriminator 3 view .LVU186
 632 005e E268     		ldr	r2, [r4, #12]
 533:lvgl/lvgl/src/core/lv_obj_style.c ****     }
 633              		.loc 1 533 37 discriminator 3 view .LVU187
 634 0060 06F10053 		add	r3, r6, #536870912
 635 0064 013B     		subs	r3, r3, #1
 636 0066 02EBC303 		add	r3, r2, r3, lsl #3
 533:lvgl/lvgl/src/core/lv_obj_style.c ****     }
 637              		.loc 1 533 20 discriminator 3 view .LVU188
 638 006a 02EBC602 		add	r2, r2, r6, lsl #3
 533:lvgl/lvgl/src/core/lv_obj_style.c ****     }
 639              		.loc 1 533 24 discriminator 3 view .LVU189
 640 006e 93E80300 		ldm	r3, {r0, r1}
 641 0072 82E80300 		stm	r2, {r0, r1}
 532:lvgl/lvgl/src/core/lv_obj_style.c ****         obj->styles[i] = obj->styles[i - 1];
 642              		.loc 1 532 41 is_stmt 1 discriminator 3 view .LVU190
 532:lvgl/lvgl/src/core/lv_obj_style.c ****         obj->styles[i] = obj->styles[i - 1];
 643              		.loc 1 532 42 is_stmt 0 discriminator 3 view .LVU191
 644 0076 013E     		subs	r6, r6, #1
 645              	.LVL59:
 532:lvgl/lvgl/src/core/lv_obj_style.c ****         obj->styles[i] = obj->styles[i - 1];
 646              		.loc 1 532 42 discriminator 3 view .LVU192
 647 0078 F0E7     		b	.L44
 648              	.L47:
 536:lvgl/lvgl/src/core/lv_obj_style.c ****     obj->styles[0].style = lv_mem_alloc(sizeof(lv_style_t));
 649              		.loc 1 536 5 is_stmt 1 view .LVU193
 650 007a 0821     		movs	r1, #8
 651 007c E068     		ldr	r0, [r4, #12]
 652 007e FFF7FEFF 		bl	lv_memset_00
 653              	.LVL60:
 537:lvgl/lvgl/src/core/lv_obj_style.c ****     lv_style_init(obj->styles[0].style);
 654              		.loc 1 537 5 view .LVU194
 537:lvgl/lvgl/src/core/lv_obj_style.c ****     lv_style_init(obj->styles[0].style);
 655              		.loc 1 537 8 is_stmt 0 view .LVU195
 656 0082 E668     		ldr	r6, [r4, #12]
 657              	.LVL61:
 537:lvgl/lvgl/src/core/lv_obj_style.c ****     lv_style_init(obj->styles[0].style);
 658              		.loc 1 537 28 view .LVU196
 659 0084 0820     		movs	r0, #8
 660 0086 FFF7FEFF 		bl	lv_mem_alloc
 661              	.LVL62:
 537:lvgl/lvgl/src/core/lv_obj_style.c ****     lv_style_init(obj->styles[0].style);
 662              		.loc 1 537 26 view .LVU197
 663 008a 3060     		str	r0, [r6]
 538:lvgl/lvgl/src/core/lv_obj_style.c ****     obj->styles[0].is_trans = 1;
 664              		.loc 1 538 5 is_stmt 1 view .LVU198
 538:lvgl/lvgl/src/core/lv_obj_style.c ****     obj->styles[0].is_trans = 1;
ARM GAS  C:\Users\gx\AppData\Local\Temp\cc2sgWsf.s 			page 28


 665              		.loc 1 538 22 is_stmt 0 view .LVU199
 666 008c E368     		ldr	r3, [r4, #12]
 538:lvgl/lvgl/src/core/lv_obj_style.c ****     obj->styles[0].is_trans = 1;
 667              		.loc 1 538 5 view .LVU200
 668 008e 1868     		ldr	r0, [r3]
 669 0090 FFF7FEFF 		bl	lv_style_init
 670              	.LVL63:
 539:lvgl/lvgl/src/core/lv_obj_style.c ****     obj->styles[0].selector = selector;
 671              		.loc 1 539 5 is_stmt 1 view .LVU201
 539:lvgl/lvgl/src/core/lv_obj_style.c ****     obj->styles[0].selector = selector;
 672              		.loc 1 539 8 is_stmt 0 view .LVU202
 673 0094 E268     		ldr	r2, [r4, #12]
 539:lvgl/lvgl/src/core/lv_obj_style.c ****     obj->styles[0].selector = selector;
 674              		.loc 1 539 29 view .LVU203
 675 0096 D379     		ldrb	r3, [r2, #7]	@ zero_extendqisi2
 676 0098 43F00203 		orr	r3, r3, #2
 677 009c D371     		strb	r3, [r2, #7]
 540:lvgl/lvgl/src/core/lv_obj_style.c ****     return &obj->styles[0];
 678              		.loc 1 540 5 is_stmt 1 view .LVU204
 540:lvgl/lvgl/src/core/lv_obj_style.c ****     return &obj->styles[0];
 679              		.loc 1 540 8 is_stmt 0 view .LVU205
 680 009e E368     		ldr	r3, [r4, #12]
 540:lvgl/lvgl/src/core/lv_obj_style.c ****     return &obj->styles[0];
 681              		.loc 1 540 29 view .LVU206
 682 00a0 5A68     		ldr	r2, [r3, #4]
 683 00a2 65F31702 		bfi	r2, r5, #0, #24
 684              	.LVL64:
 540:lvgl/lvgl/src/core/lv_obj_style.c ****     return &obj->styles[0];
 685              		.loc 1 540 29 view .LVU207
 686 00a6 5A60     		str	r2, [r3, #4]
 541:lvgl/lvgl/src/core/lv_obj_style.c **** }
 687              		.loc 1 541 5 is_stmt 1 view .LVU208
 541:lvgl/lvgl/src/core/lv_obj_style.c **** }
 688              		.loc 1 541 12 is_stmt 0 view .LVU209
 689 00a8 E068     		ldr	r0, [r4, #12]
 690 00aa C6E7     		b	.L37
 691              		.cfi_endproc
 692              	.LFE176:
 694              		.section	.text.fade_anim_cb,"ax",%progbits
 695              		.align	1
 696              		.syntax unified
 697              		.thumb
 698              		.thumb_func
 699              		.fpu fpv4-sp-d16
 701              	fade_anim_cb:
 702              	.LVL65:
 703              	.LFB185:
 698:lvgl/lvgl/src/core/lv_obj_style.c **** 
 699:lvgl/lvgl/src/core/lv_obj_style.c **** static void trans_anim_cb(void * _tr, int32_t v)
 700:lvgl/lvgl/src/core/lv_obj_style.c **** {
 701:lvgl/lvgl/src/core/lv_obj_style.c ****     trans_t * tr = _tr;
 702:lvgl/lvgl/src/core/lv_obj_style.c ****     lv_obj_t * obj = tr->obj;
 703:lvgl/lvgl/src/core/lv_obj_style.c **** 
 704:lvgl/lvgl/src/core/lv_obj_style.c ****     uint32_t i;
 705:lvgl/lvgl/src/core/lv_obj_style.c ****     for(i = 0; i < obj->style_cnt; i++) {
 706:lvgl/lvgl/src/core/lv_obj_style.c ****         if(obj->styles[i].is_trans == 0 || obj->styles[i].selector != tr->selector) continue;
 707:lvgl/lvgl/src/core/lv_obj_style.c **** 
ARM GAS  C:\Users\gx\AppData\Local\Temp\cc2sgWsf.s 			page 29


 708:lvgl/lvgl/src/core/lv_obj_style.c ****         lv_style_value_t value_final;
 709:lvgl/lvgl/src/core/lv_obj_style.c ****         switch (tr->prop) {
 710:lvgl/lvgl/src/core/lv_obj_style.c **** 
 711:lvgl/lvgl/src/core/lv_obj_style.c ****             case LV_STYLE_BORDER_SIDE:
 712:lvgl/lvgl/src/core/lv_obj_style.c ****             case LV_STYLE_BORDER_POST:
 713:lvgl/lvgl/src/core/lv_obj_style.c ****             case LV_STYLE_BLEND_MODE:
 714:lvgl/lvgl/src/core/lv_obj_style.c ****                 if(v < 255) value_final.num = tr->start_value.num;
 715:lvgl/lvgl/src/core/lv_obj_style.c ****                 else value_final.num = tr->end_value.num;
 716:lvgl/lvgl/src/core/lv_obj_style.c ****                 break;
 717:lvgl/lvgl/src/core/lv_obj_style.c ****             case LV_STYLE_TRANSITION:
 718:lvgl/lvgl/src/core/lv_obj_style.c ****             case LV_STYLE_TEXT_FONT:
 719:lvgl/lvgl/src/core/lv_obj_style.c ****                 if(v < 255) value_final.ptr = tr->start_value.ptr;
 720:lvgl/lvgl/src/core/lv_obj_style.c ****                 else value_final.ptr = tr->end_value.ptr;
 721:lvgl/lvgl/src/core/lv_obj_style.c ****                 break;
 722:lvgl/lvgl/src/core/lv_obj_style.c ****             case LV_STYLE_COLOR_FILTER_DSC:
 723:lvgl/lvgl/src/core/lv_obj_style.c ****                 if(tr->start_value.ptr == NULL) value_final.ptr = tr->end_value.ptr;
 724:lvgl/lvgl/src/core/lv_obj_style.c ****                 else if(tr->end_value.ptr == NULL) value_final.ptr = tr->start_value.ptr;
 725:lvgl/lvgl/src/core/lv_obj_style.c ****                 else if(v < 128) value_final.ptr = tr->start_value.ptr;
 726:lvgl/lvgl/src/core/lv_obj_style.c ****                 else value_final.ptr = tr->end_value.ptr;
 727:lvgl/lvgl/src/core/lv_obj_style.c ****                 break;
 728:lvgl/lvgl/src/core/lv_obj_style.c ****             case LV_STYLE_BG_COLOR:
 729:lvgl/lvgl/src/core/lv_obj_style.c ****             case LV_STYLE_BORDER_COLOR:
 730:lvgl/lvgl/src/core/lv_obj_style.c ****             case LV_STYLE_TEXT_COLOR:
 731:lvgl/lvgl/src/core/lv_obj_style.c ****             case LV_STYLE_SHADOW_COLOR:
 732:lvgl/lvgl/src/core/lv_obj_style.c ****             case LV_STYLE_OUTLINE_COLOR:
 733:lvgl/lvgl/src/core/lv_obj_style.c ****             case LV_STYLE_IMG_RECOLOR:
 734:lvgl/lvgl/src/core/lv_obj_style.c ****                 if(v <= 0) value_final.color = tr->start_value.color;
 735:lvgl/lvgl/src/core/lv_obj_style.c ****                 else if(v >= 255) value_final.color = tr->end_value.color;
 736:lvgl/lvgl/src/core/lv_obj_style.c ****                 else value_final.color = lv_color_mix(tr->end_value.color, tr->start_value.color, v
 737:lvgl/lvgl/src/core/lv_obj_style.c ****                 break;
 738:lvgl/lvgl/src/core/lv_obj_style.c **** 
 739:lvgl/lvgl/src/core/lv_obj_style.c ****             default:
 740:lvgl/lvgl/src/core/lv_obj_style.c ****                 if(v == 0) value_final.num = tr->start_value.num;
 741:lvgl/lvgl/src/core/lv_obj_style.c ****                 else if(v == 255) value_final.num = tr->end_value.num;
 742:lvgl/lvgl/src/core/lv_obj_style.c ****                 else value_final.num = tr->start_value.num + ((int32_t)((int32_t)(tr->end_value.num
 743:lvgl/lvgl/src/core/lv_obj_style.c ****                 break;
 744:lvgl/lvgl/src/core/lv_obj_style.c ****         }
 745:lvgl/lvgl/src/core/lv_obj_style.c **** 
 746:lvgl/lvgl/src/core/lv_obj_style.c ****         lv_style_value_t old_value;
 747:lvgl/lvgl/src/core/lv_obj_style.c ****         bool refr = true;
 748:lvgl/lvgl/src/core/lv_obj_style.c ****         if(lv_style_get_prop(obj->styles[i].style, tr->prop, &old_value)) {
 749:lvgl/lvgl/src/core/lv_obj_style.c ****             if(value_final.ptr == old_value.ptr && value_final.color.full == old_value.color.full &
 750:lvgl/lvgl/src/core/lv_obj_style.c ****                 refr = false;
 751:lvgl/lvgl/src/core/lv_obj_style.c ****             }
 752:lvgl/lvgl/src/core/lv_obj_style.c ****         }
 753:lvgl/lvgl/src/core/lv_obj_style.c ****         lv_style_set_prop(obj->styles[i].style, tr->prop, value_final);
 754:lvgl/lvgl/src/core/lv_obj_style.c ****         if (refr) lv_obj_refresh_style(tr->obj, tr->selector, tr->prop);
 755:lvgl/lvgl/src/core/lv_obj_style.c ****         break;
 756:lvgl/lvgl/src/core/lv_obj_style.c **** 
 757:lvgl/lvgl/src/core/lv_obj_style.c ****     }
 758:lvgl/lvgl/src/core/lv_obj_style.c **** 
 759:lvgl/lvgl/src/core/lv_obj_style.c **** }
 760:lvgl/lvgl/src/core/lv_obj_style.c **** 
 761:lvgl/lvgl/src/core/lv_obj_style.c **** static void trans_anim_start_cb(lv_anim_t * a)
 762:lvgl/lvgl/src/core/lv_obj_style.c **** {
 763:lvgl/lvgl/src/core/lv_obj_style.c ****     trans_t * tr = a->var;
 764:lvgl/lvgl/src/core/lv_obj_style.c **** 
ARM GAS  C:\Users\gx\AppData\Local\Temp\cc2sgWsf.s 			page 30


 765:lvgl/lvgl/src/core/lv_obj_style.c ****     lv_part_t part = lv_obj_style_get_selector_part(tr->selector);
 766:lvgl/lvgl/src/core/lv_obj_style.c ****     tr->start_value = lv_obj_get_style_prop(tr->obj, part, tr->prop);
 767:lvgl/lvgl/src/core/lv_obj_style.c **** 
 768:lvgl/lvgl/src/core/lv_obj_style.c ****     /*Init prop to an invalid values to be sure `trans_del` won't delete this added `tr`*/
 769:lvgl/lvgl/src/core/lv_obj_style.c ****     lv_style_prop_t prop_tmp = tr->prop;
 770:lvgl/lvgl/src/core/lv_obj_style.c ****     tr->prop = LV_STYLE_PROP_INV;
 771:lvgl/lvgl/src/core/lv_obj_style.c **** 
 772:lvgl/lvgl/src/core/lv_obj_style.c ****     /*Delete the related transitions if any*/
 773:lvgl/lvgl/src/core/lv_obj_style.c ****     trans_del(tr->obj, part, prop_tmp, tr);
 774:lvgl/lvgl/src/core/lv_obj_style.c **** 
 775:lvgl/lvgl/src/core/lv_obj_style.c ****     tr->prop = prop_tmp;
 776:lvgl/lvgl/src/core/lv_obj_style.c **** 
 777:lvgl/lvgl/src/core/lv_obj_style.c ****     _lv_obj_style_t * style_trans = get_trans_style(tr->obj, tr->selector);
 778:lvgl/lvgl/src/core/lv_obj_style.c ****     lv_style_set_prop(style_trans->style, tr->prop, tr->start_value);   /*Be sure `trans_style` has
 779:lvgl/lvgl/src/core/lv_obj_style.c **** 
 780:lvgl/lvgl/src/core/lv_obj_style.c **** }
 781:lvgl/lvgl/src/core/lv_obj_style.c **** 
 782:lvgl/lvgl/src/core/lv_obj_style.c **** static void trans_anim_ready_cb(lv_anim_t * a)
 783:lvgl/lvgl/src/core/lv_obj_style.c **** {
 784:lvgl/lvgl/src/core/lv_obj_style.c ****     trans_t * tr = a->var;
 785:lvgl/lvgl/src/core/lv_obj_style.c ****     lv_obj_t * obj = tr->obj;
 786:lvgl/lvgl/src/core/lv_obj_style.c ****     lv_style_prop_t prop = tr->prop;
 787:lvgl/lvgl/src/core/lv_obj_style.c **** 
 788:lvgl/lvgl/src/core/lv_obj_style.c ****     /*Remove the transitioned property from trans. style
 789:lvgl/lvgl/src/core/lv_obj_style.c ****      *if there no more transitions for this property
 790:lvgl/lvgl/src/core/lv_obj_style.c ****      *It allows changing it by normal styles*/
 791:lvgl/lvgl/src/core/lv_obj_style.c ****     bool running = false;
 792:lvgl/lvgl/src/core/lv_obj_style.c ****     trans_t * tr_i;
 793:lvgl/lvgl/src/core/lv_obj_style.c ****     _LV_LL_READ(&LV_GC_ROOT(_lv_obj_style_trans_ll), tr_i) {
 794:lvgl/lvgl/src/core/lv_obj_style.c ****         if(tr_i != tr && tr_i->obj == tr->obj && tr_i->selector == tr->selector && tr_i->prop == tr
 795:lvgl/lvgl/src/core/lv_obj_style.c ****             running = true;
 796:lvgl/lvgl/src/core/lv_obj_style.c ****             break;
 797:lvgl/lvgl/src/core/lv_obj_style.c ****         }
 798:lvgl/lvgl/src/core/lv_obj_style.c ****     }
 799:lvgl/lvgl/src/core/lv_obj_style.c **** 
 800:lvgl/lvgl/src/core/lv_obj_style.c ****     if(!running) {
 801:lvgl/lvgl/src/core/lv_obj_style.c ****         uint32_t i;
 802:lvgl/lvgl/src/core/lv_obj_style.c ****         for(i = 0; i < obj->style_cnt; i++) {
 803:lvgl/lvgl/src/core/lv_obj_style.c ****             if(obj->styles[i].is_trans && obj->styles[i].selector == tr->selector) {
 804:lvgl/lvgl/src/core/lv_obj_style.c ****                 _lv_ll_remove(&LV_GC_ROOT(_lv_obj_style_trans_ll), tr);
 805:lvgl/lvgl/src/core/lv_obj_style.c ****                 lv_mem_free(tr);
 806:lvgl/lvgl/src/core/lv_obj_style.c **** 
 807:lvgl/lvgl/src/core/lv_obj_style.c ****                 _lv_obj_style_t * obj_style = &obj->styles[i];
 808:lvgl/lvgl/src/core/lv_obj_style.c ****                 lv_style_remove_prop(obj_style->style, prop);
 809:lvgl/lvgl/src/core/lv_obj_style.c **** 
 810:lvgl/lvgl/src/core/lv_obj_style.c ****                 if(lv_style_is_empty(obj->styles[i].style)) {
 811:lvgl/lvgl/src/core/lv_obj_style.c ****                     lv_obj_remove_style(obj, obj_style->style, obj_style->selector);
 812:lvgl/lvgl/src/core/lv_obj_style.c **** 
 813:lvgl/lvgl/src/core/lv_obj_style.c ****                 }
 814:lvgl/lvgl/src/core/lv_obj_style.c ****                 break;
 815:lvgl/lvgl/src/core/lv_obj_style.c ****             }
 816:lvgl/lvgl/src/core/lv_obj_style.c ****         }
 817:lvgl/lvgl/src/core/lv_obj_style.c ****     }
 818:lvgl/lvgl/src/core/lv_obj_style.c **** }
 819:lvgl/lvgl/src/core/lv_obj_style.c **** 
 820:lvgl/lvgl/src/core/lv_obj_style.c **** static void fade_anim_cb(void * obj, int32_t v)
 821:lvgl/lvgl/src/core/lv_obj_style.c **** {
ARM GAS  C:\Users\gx\AppData\Local\Temp\cc2sgWsf.s 			page 31


 704              		.loc 1 821 1 is_stmt 1 view -0
 705              		.cfi_startproc
 706              		@ args = 0, pretend = 0, frame = 0
 707              		@ frame_needed = 0, uses_anonymous_args = 0
 708              		.loc 1 821 1 is_stmt 0 view .LVU211
 709 0000 08B5     		push	{r3, lr}
 710              	.LCFI6:
 711              		.cfi_def_cfa_offset 8
 712              		.cfi_offset 3, -8
 713              		.cfi_offset 14, -4
 822:lvgl/lvgl/src/core/lv_obj_style.c ****     lv_obj_set_style_opa(obj, v, 0);
 714              		.loc 1 822 5 is_stmt 1 view .LVU212
 715 0002 0022     		movs	r2, #0
 716 0004 C9B2     		uxtb	r1, r1
 717              	.LVL66:
 718              		.loc 1 822 5 is_stmt 0 view .LVU213
 719 0006 FFF7FEFF 		bl	lv_obj_set_style_opa
 720              	.LVL67:
 823:lvgl/lvgl/src/core/lv_obj_style.c **** }
 721              		.loc 1 823 1 view .LVU214
 722 000a 08BD     		pop	{r3, pc}
 723              		.cfi_endproc
 724              	.LFE185:
 726              		.section	.text._lv_obj_style_init,"ax",%progbits
 727              		.align	1
 728              		.global	_lv_obj_style_init
 729              		.syntax unified
 730              		.thumb
 731              		.thumb_func
 732              		.fpu fpv4-sp-d16
 734              	_lv_obj_style_init:
 735              	.LFB158:
  72:lvgl/lvgl/src/core/lv_obj_style.c ****     _lv_ll_init(&LV_GC_ROOT(_lv_obj_style_trans_ll), sizeof(trans_t));
 736              		.loc 1 72 1 is_stmt 1 view -0
 737              		.cfi_startproc
 738              		@ args = 0, pretend = 0, frame = 0
 739              		@ frame_needed = 0, uses_anonymous_args = 0
 740 0000 08B5     		push	{r3, lr}
 741              	.LCFI7:
 742              		.cfi_def_cfa_offset 8
 743              		.cfi_offset 3, -8
 744              		.cfi_offset 14, -4
  73:lvgl/lvgl/src/core/lv_obj_style.c **** }
 745              		.loc 1 73 5 view .LVU216
 746 0002 1421     		movs	r1, #20
 747 0004 0148     		ldr	r0, .L52
 748 0006 FFF7FEFF 		bl	_lv_ll_init
 749              	.LVL68:
  74:lvgl/lvgl/src/core/lv_obj_style.c **** 
 750              		.loc 1 74 1 is_stmt 0 view .LVU217
 751 000a 08BD     		pop	{r3, pc}
 752              	.L53:
 753              		.align	2
 754              	.L52:
 755 000c 00000000 		.word	_lv_obj_style_trans_ll
 756              		.cfi_endproc
 757              	.LFE158:
ARM GAS  C:\Users\gx\AppData\Local\Temp\cc2sgWsf.s 			page 32


 759              		.section	.text.lv_obj_enable_style_refresh,"ax",%progbits
 760              		.align	1
 761              		.global	lv_obj_enable_style_refresh
 762              		.syntax unified
 763              		.thumb
 764              		.thumb_func
 765              		.fpu fpv4-sp-d16
 767              	lv_obj_enable_style_refresh:
 768              	.LVL69:
 769              	.LFB163:
 208:lvgl/lvgl/src/core/lv_obj_style.c ****     style_refr = en;
 770              		.loc 1 208 1 is_stmt 1 view -0
 771              		.cfi_startproc
 772              		@ args = 0, pretend = 0, frame = 0
 773              		@ frame_needed = 0, uses_anonymous_args = 0
 774              		@ link register save eliminated.
 209:lvgl/lvgl/src/core/lv_obj_style.c **** }
 775              		.loc 1 209 5 view .LVU219
 209:lvgl/lvgl/src/core/lv_obj_style.c **** }
 776              		.loc 1 209 16 is_stmt 0 view .LVU220
 777 0000 014B     		ldr	r3, .L55
 778 0002 1870     		strb	r0, [r3]
 210:lvgl/lvgl/src/core/lv_obj_style.c **** 
 779              		.loc 1 210 1 view .LVU221
 780 0004 7047     		bx	lr
 781              	.L56:
 782 0006 00BF     		.align	2
 783              	.L55:
 784 0008 00000000 		.word	.LANCHOR1
 785              		.cfi_endproc
 786              	.LFE163:
 788              		.section	.text.lv_obj_get_local_style_prop,"ax",%progbits
 789              		.align	1
 790              		.global	lv_obj_get_local_style_prop
 791              		.syntax unified
 792              		.thumb
 793              		.thumb_func
 794              		.fpu fpv4-sp-d16
 796              	lv_obj_get_local_style_prop:
 797              	.LVL70:
 798              	.LFB166:
 266:lvgl/lvgl/src/core/lv_obj_style.c ****     uint32_t i;
 799              		.loc 1 266 1 is_stmt 1 view -0
 800              		.cfi_startproc
 801              		@ args = 0, pretend = 0, frame = 0
 802              		@ frame_needed = 0, uses_anonymous_args = 0
 266:lvgl/lvgl/src/core/lv_obj_style.c ****     uint32_t i;
 803              		.loc 1 266 1 is_stmt 0 view .LVU223
 804 0000 70B5     		push	{r4, r5, r6, lr}
 805              	.LCFI8:
 806              		.cfi_def_cfa_offset 16
 807              		.cfi_offset 4, -16
 808              		.cfi_offset 5, -12
 809              		.cfi_offset 6, -8
 810              		.cfi_offset 14, -4
 267:lvgl/lvgl/src/core/lv_obj_style.c ****     for(i = 0; i < obj->style_cnt; i++) {
 811              		.loc 1 267 5 is_stmt 1 view .LVU224
ARM GAS  C:\Users\gx\AppData\Local\Temp\cc2sgWsf.s 			page 33


 268:lvgl/lvgl/src/core/lv_obj_style.c ****         if(obj->styles[i].is_local &&
 812              		.loc 1 268 5 view .LVU225
 813              	.LVL71:
 268:lvgl/lvgl/src/core/lv_obj_style.c ****         if(obj->styles[i].is_local &&
 814              		.loc 1 268 11 is_stmt 0 view .LVU226
 815 0002 0025     		movs	r5, #0
 268:lvgl/lvgl/src/core/lv_obj_style.c ****         if(obj->styles[i].is_local &&
 816              		.loc 1 268 5 view .LVU227
 817 0004 00E0     		b	.L58
 818              	.LVL72:
 819              	.L59:
 268:lvgl/lvgl/src/core/lv_obj_style.c ****         if(obj->styles[i].is_local &&
 820              		.loc 1 268 36 is_stmt 1 discriminator 2 view .LVU228
 268:lvgl/lvgl/src/core/lv_obj_style.c ****         if(obj->styles[i].is_local &&
 821              		.loc 1 268 37 is_stmt 0 discriminator 2 view .LVU229
 822 0006 0135     		adds	r5, r5, #1
 823              	.LVL73:
 824              	.L58:
 268:lvgl/lvgl/src/core/lv_obj_style.c ****         if(obj->styles[i].is_local &&
 825              		.loc 1 268 16 is_stmt 1 discriminator 1 view .LVU230
 268:lvgl/lvgl/src/core/lv_obj_style.c ****         if(obj->styles[i].is_local &&
 826              		.loc 1 268 23 is_stmt 0 discriminator 1 view .LVU231
 827 0008 448C     		ldrh	r4, [r0, #34]
 828 000a C4F3C504 		ubfx	r4, r4, #3, #6
 268:lvgl/lvgl/src/core/lv_obj_style.c ****         if(obj->styles[i].is_local &&
 829              		.loc 1 268 5 discriminator 1 view .LVU232
 830 000e AC42     		cmp	r4, r5
 831 0010 0FD9     		bls	.L63
 269:lvgl/lvgl/src/core/lv_obj_style.c ****            obj->styles[i].selector ==  selector)
 832              		.loc 1 269 9 is_stmt 1 view .LVU233
 269:lvgl/lvgl/src/core/lv_obj_style.c ****            obj->styles[i].selector ==  selector)
 833              		.loc 1 269 15 is_stmt 0 view .LVU234
 834 0012 C468     		ldr	r4, [r0, #12]
 269:lvgl/lvgl/src/core/lv_obj_style.c ****            obj->styles[i].selector ==  selector)
 835              		.loc 1 269 23 view .LVU235
 836 0014 04EBC504 		add	r4, r4, r5, lsl #3
 269:lvgl/lvgl/src/core/lv_obj_style.c ****            obj->styles[i].selector ==  selector)
 837              		.loc 1 269 12 view .LVU236
 838 0018 E679     		ldrb	r6, [r4, #7]	@ zero_extendqisi2
 269:lvgl/lvgl/src/core/lv_obj_style.c ****            obj->styles[i].selector ==  selector)
 839              		.loc 1 269 11 view .LVU237
 840 001a 16F0010F 		tst	r6, #1
 841 001e F2D0     		beq	.L59
 270:lvgl/lvgl/src/core/lv_obj_style.c ****         {
 842              		.loc 1 270 26 discriminator 1 view .LVU238
 843 0020 6668     		ldr	r6, [r4, #4]
 844 0022 C6F31706 		ubfx	r6, r6, #0, #24
 269:lvgl/lvgl/src/core/lv_obj_style.c ****            obj->styles[i].selector ==  selector)
 845              		.loc 1 269 36 discriminator 1 view .LVU239
 846 0026 9E42     		cmp	r6, r3
 847 0028 EDD1     		bne	.L59
 272:lvgl/lvgl/src/core/lv_obj_style.c ****         }
 848              		.loc 1 272 13 is_stmt 1 view .LVU240
 272:lvgl/lvgl/src/core/lv_obj_style.c ****         }
 849              		.loc 1 272 20 is_stmt 0 view .LVU241
 850 002a 2068     		ldr	r0, [r4]
 851              	.LVL74:
ARM GAS  C:\Users\gx\AppData\Local\Temp\cc2sgWsf.s 			page 34


 272:lvgl/lvgl/src/core/lv_obj_style.c ****         }
 852              		.loc 1 272 20 view .LVU242
 853 002c FFF7FEFF 		bl	lv_style_get_prop
 854              	.LVL75:
 272:lvgl/lvgl/src/core/lv_obj_style.c ****         }
 855              		.loc 1 272 20 view .LVU243
 856 0030 00E0     		b	.L60
 857              	.LVL76:
 858              	.L63:
 276:lvgl/lvgl/src/core/lv_obj_style.c **** }
 859              		.loc 1 276 12 view .LVU244
 860 0032 0020     		movs	r0, #0
 861              	.LVL77:
 862              	.L60:
 277:lvgl/lvgl/src/core/lv_obj_style.c **** 
 863              		.loc 1 277 1 view .LVU245
 864 0034 70BD     		pop	{r4, r5, r6, pc}
 277:lvgl/lvgl/src/core/lv_obj_style.c **** 
 865              		.loc 1 277 1 view .LVU246
 866              		.cfi_endproc
 867              	.LFE166:
 869              		.section	.text.lv_obj_remove_local_style_prop,"ax",%progbits
 870              		.align	1
 871              		.global	lv_obj_remove_local_style_prop
 872              		.syntax unified
 873              		.thumb
 874              		.thumb_func
 875              		.fpu fpv4-sp-d16
 877              	lv_obj_remove_local_style_prop:
 878              	.LVL78:
 879              	.LFB167:
 280:lvgl/lvgl/src/core/lv_obj_style.c ****     LV_ASSERT_OBJ(obj, MY_CLASS);
 880              		.loc 1 280 1 is_stmt 1 view -0
 881              		.cfi_startproc
 882              		@ args = 0, pretend = 0, frame = 0
 883              		@ frame_needed = 0, uses_anonymous_args = 0
 280:lvgl/lvgl/src/core/lv_obj_style.c ****     LV_ASSERT_OBJ(obj, MY_CLASS);
 884              		.loc 1 280 1 is_stmt 0 view .LVU248
 885 0000 70B5     		push	{r4, r5, r6, lr}
 886              	.LCFI9:
 887              		.cfi_def_cfa_offset 16
 888              		.cfi_offset 4, -16
 889              		.cfi_offset 5, -12
 890              		.cfi_offset 6, -8
 891              		.cfi_offset 14, -4
 281:lvgl/lvgl/src/core/lv_obj_style.c **** 
 892              		.loc 1 281 5 is_stmt 1 view .LVU249
 281:lvgl/lvgl/src/core/lv_obj_style.c **** 
 893              		.loc 1 281 5 view .LVU250
 281:lvgl/lvgl/src/core/lv_obj_style.c **** 
 894              		.loc 1 281 5 view .LVU251
 283:lvgl/lvgl/src/core/lv_obj_style.c ****     /*Find the style*/
 895              		.loc 1 283 5 view .LVU252
 285:lvgl/lvgl/src/core/lv_obj_style.c ****         if(obj->styles[i].is_local &&
 896              		.loc 1 285 5 view .LVU253
 897              	.LVL79:
 285:lvgl/lvgl/src/core/lv_obj_style.c ****         if(obj->styles[i].is_local &&
ARM GAS  C:\Users\gx\AppData\Local\Temp\cc2sgWsf.s 			page 35


 898              		.loc 1 285 11 is_stmt 0 view .LVU254
 899 0002 0025     		movs	r5, #0
 285:lvgl/lvgl/src/core/lv_obj_style.c ****         if(obj->styles[i].is_local &&
 900              		.loc 1 285 5 view .LVU255
 901 0004 00E0     		b	.L65
 902              	.LVL80:
 903              	.L66:
 285:lvgl/lvgl/src/core/lv_obj_style.c ****         if(obj->styles[i].is_local &&
 904              		.loc 1 285 36 is_stmt 1 discriminator 2 view .LVU256
 285:lvgl/lvgl/src/core/lv_obj_style.c ****         if(obj->styles[i].is_local &&
 905              		.loc 1 285 37 is_stmt 0 discriminator 2 view .LVU257
 906 0006 0135     		adds	r5, r5, #1
 907              	.LVL81:
 908              	.L65:
 285:lvgl/lvgl/src/core/lv_obj_style.c ****         if(obj->styles[i].is_local &&
 909              		.loc 1 285 16 is_stmt 1 discriminator 1 view .LVU258
 285:lvgl/lvgl/src/core/lv_obj_style.c ****         if(obj->styles[i].is_local &&
 910              		.loc 1 285 23 is_stmt 0 discriminator 1 view .LVU259
 911 0008 448C     		ldrh	r4, [r0, #34]
 912 000a C4F3C504 		ubfx	r4, r4, #3, #6
 285:lvgl/lvgl/src/core/lv_obj_style.c ****         if(obj->styles[i].is_local &&
 913              		.loc 1 285 5 discriminator 1 view .LVU260
 914 000e AC42     		cmp	r4, r5
 915 0010 0BD9     		bls	.L67
 286:lvgl/lvgl/src/core/lv_obj_style.c ****            obj->styles[i].selector == selector) {
 916              		.loc 1 286 9 is_stmt 1 view .LVU261
 286:lvgl/lvgl/src/core/lv_obj_style.c ****            obj->styles[i].selector == selector) {
 917              		.loc 1 286 15 is_stmt 0 view .LVU262
 918 0012 C368     		ldr	r3, [r0, #12]
 286:lvgl/lvgl/src/core/lv_obj_style.c ****            obj->styles[i].selector == selector) {
 919              		.loc 1 286 23 view .LVU263
 920 0014 03EBC503 		add	r3, r3, r5, lsl #3
 286:lvgl/lvgl/src/core/lv_obj_style.c ****            obj->styles[i].selector == selector) {
 921              		.loc 1 286 12 view .LVU264
 922 0018 DE79     		ldrb	r6, [r3, #7]	@ zero_extendqisi2
 286:lvgl/lvgl/src/core/lv_obj_style.c ****            obj->styles[i].selector == selector) {
 923              		.loc 1 286 11 view .LVU265
 924 001a 16F0010F 		tst	r6, #1
 925 001e F2D0     		beq	.L66
 287:lvgl/lvgl/src/core/lv_obj_style.c ****             break;
 926              		.loc 1 287 26 discriminator 1 view .LVU266
 927 0020 5B68     		ldr	r3, [r3, #4]
 928 0022 C3F31703 		ubfx	r3, r3, #0, #24
 286:lvgl/lvgl/src/core/lv_obj_style.c ****            obj->styles[i].selector == selector) {
 929              		.loc 1 286 36 discriminator 1 view .LVU267
 930 0026 9342     		cmp	r3, r2
 931 0028 EDD1     		bne	.L66
 932              	.L67:
 293:lvgl/lvgl/src/core/lv_obj_style.c **** 
 933              		.loc 1 293 5 is_stmt 1 view .LVU268
 293:lvgl/lvgl/src/core/lv_obj_style.c **** 
 934              		.loc 1 293 7 is_stmt 0 view .LVU269
 935 002a AC42     		cmp	r4, r5
 936 002c 05D0     		beq	.L70
 295:lvgl/lvgl/src/core/lv_obj_style.c **** }
 937              		.loc 1 295 5 is_stmt 1 view .LVU270
 295:lvgl/lvgl/src/core/lv_obj_style.c **** }
ARM GAS  C:\Users\gx\AppData\Local\Temp\cc2sgWsf.s 			page 36


 938              		.loc 1 295 36 is_stmt 0 view .LVU271
 939 002e C368     		ldr	r3, [r0, #12]
 295:lvgl/lvgl/src/core/lv_obj_style.c **** }
 940              		.loc 1 295 12 view .LVU272
 941 0030 53F83500 		ldr	r0, [r3, r5, lsl #3]
 942              	.LVL82:
 295:lvgl/lvgl/src/core/lv_obj_style.c **** }
 943              		.loc 1 295 12 view .LVU273
 944 0034 FFF7FEFF 		bl	lv_style_remove_prop
 945              	.LVL83:
 946              	.L69:
 296:lvgl/lvgl/src/core/lv_obj_style.c **** 
 947              		.loc 1 296 1 view .LVU274
 948 0038 70BD     		pop	{r4, r5, r6, pc}
 949              	.LVL84:
 950              	.L70:
 293:lvgl/lvgl/src/core/lv_obj_style.c **** 
 951              		.loc 1 293 36 view .LVU275
 952 003a 0020     		movs	r0, #0
 953              	.LVL85:
 293:lvgl/lvgl/src/core/lv_obj_style.c **** 
 954              		.loc 1 293 36 view .LVU276
 955 003c FCE7     		b	.L69
 956              		.cfi_endproc
 957              	.LFE167:
 959              		.section	.text.fade_in_anim_ready,"ax",%progbits
 960              		.align	1
 961              		.syntax unified
 962              		.thumb
 963              		.thumb_func
 964              		.fpu fpv4-sp-d16
 966              	fade_in_anim_ready:
 967              	.LVL86:
 968              	.LFB186:
 824:lvgl/lvgl/src/core/lv_obj_style.c **** 
 825:lvgl/lvgl/src/core/lv_obj_style.c **** static void fade_in_anim_ready(lv_anim_t * a)
 826:lvgl/lvgl/src/core/lv_obj_style.c **** {
 969              		.loc 1 826 1 is_stmt 1 view -0
 970              		.cfi_startproc
 971              		@ args = 0, pretend = 0, frame = 0
 972              		@ frame_needed = 0, uses_anonymous_args = 0
 973              		.loc 1 826 1 is_stmt 0 view .LVU278
 974 0000 08B5     		push	{r3, lr}
 975              	.LCFI10:
 976              		.cfi_def_cfa_offset 8
 977              		.cfi_offset 3, -8
 978              		.cfi_offset 14, -4
 827:lvgl/lvgl/src/core/lv_obj_style.c ****     lv_obj_remove_local_style_prop(a->var, LV_STYLE_OPA, 0);
 979              		.loc 1 827 5 is_stmt 1 view .LVU279
 980 0002 0022     		movs	r2, #0
 981 0004 40F26241 		movw	r1, #1122
 982 0008 0068     		ldr	r0, [r0]
 983              	.LVL87:
 984              		.loc 1 827 5 is_stmt 0 view .LVU280
 985 000a FFF7FEFF 		bl	lv_obj_remove_local_style_prop
 986              	.LVL88:
 828:lvgl/lvgl/src/core/lv_obj_style.c **** }
ARM GAS  C:\Users\gx\AppData\Local\Temp\cc2sgWsf.s 			page 37


 987              		.loc 1 828 1 view .LVU281
 988 000e 08BD     		pop	{r3, pc}
 989              		.cfi_endproc
 990              	.LFE186:
 992              		.section	.text.lv_obj_fade_in,"ax",%progbits
 993              		.align	1
 994              		.global	lv_obj_fade_in
 995              		.syntax unified
 996              		.thumb
 997              		.thumb_func
 998              		.fpu fpv4-sp-d16
 1000              	lv_obj_fade_in:
 1001              	.LVL89:
 1002              	.LFB170:
 426:lvgl/lvgl/src/core/lv_obj_style.c ****     lv_anim_t a;
 1003              		.loc 1 426 1 is_stmt 1 view -0
 1004              		.cfi_startproc
 1005              		@ args = 0, pretend = 0, frame = 72
 1006              		@ frame_needed = 0, uses_anonymous_args = 0
 426:lvgl/lvgl/src/core/lv_obj_style.c ****     lv_anim_t a;
 1007              		.loc 1 426 1 is_stmt 0 view .LVU283
 1008 0000 70B5     		push	{r4, r5, r6, lr}
 1009              	.LCFI11:
 1010              		.cfi_def_cfa_offset 16
 1011              		.cfi_offset 4, -16
 1012              		.cfi_offset 5, -12
 1013              		.cfi_offset 6, -8
 1014              		.cfi_offset 14, -4
 1015 0002 92B0     		sub	sp, sp, #72
 1016              	.LCFI12:
 1017              		.cfi_def_cfa_offset 88
 1018 0004 0646     		mov	r6, r0
 1019 0006 0D46     		mov	r5, r1
 1020 0008 1446     		mov	r4, r2
 427:lvgl/lvgl/src/core/lv_obj_style.c ****     lv_anim_init(&a);
 1021              		.loc 1 427 5 is_stmt 1 view .LVU284
 428:lvgl/lvgl/src/core/lv_obj_style.c ****     lv_anim_set_var(&a, obj);
 1022              		.loc 1 428 5 view .LVU285
 1023 000a 01A8     		add	r0, sp, #4
 1024              	.LVL90:
 428:lvgl/lvgl/src/core/lv_obj_style.c ****     lv_anim_set_var(&a, obj);
 1025              		.loc 1 428 5 is_stmt 0 view .LVU286
 1026 000c FFF7FEFF 		bl	lv_anim_init
 1027              	.LVL91:
 429:lvgl/lvgl/src/core/lv_obj_style.c ****     lv_anim_set_values(&a, LV_OPA_TRANSP, LV_OPA_COVER);
 1028              		.loc 1 429 5 is_stmt 1 view .LVU287
 1029              	.LBB65:
 1030              	.LBI65:
 1031              		.file 2 "lvgl/lvgl/src/core/../misc/lv_anim.h"
   1:lvgl/lvgl/src/core/../misc/lv_anim.h **** /**
   2:lvgl/lvgl/src/core/../misc/lv_anim.h ****  * @file lv_anim.h
   3:lvgl/lvgl/src/core/../misc/lv_anim.h ****  *
   4:lvgl/lvgl/src/core/../misc/lv_anim.h ****  */
   5:lvgl/lvgl/src/core/../misc/lv_anim.h **** 
   6:lvgl/lvgl/src/core/../misc/lv_anim.h **** #ifndef LV_ANIM_H
   7:lvgl/lvgl/src/core/../misc/lv_anim.h **** #define LV_ANIM_H
   8:lvgl/lvgl/src/core/../misc/lv_anim.h **** 
ARM GAS  C:\Users\gx\AppData\Local\Temp\cc2sgWsf.s 			page 38


   9:lvgl/lvgl/src/core/../misc/lv_anim.h **** #ifdef __cplusplus
  10:lvgl/lvgl/src/core/../misc/lv_anim.h **** extern "C" {
  11:lvgl/lvgl/src/core/../misc/lv_anim.h **** #endif
  12:lvgl/lvgl/src/core/../misc/lv_anim.h **** 
  13:lvgl/lvgl/src/core/../misc/lv_anim.h **** /*********************
  14:lvgl/lvgl/src/core/../misc/lv_anim.h ****  *      INCLUDES
  15:lvgl/lvgl/src/core/../misc/lv_anim.h ****  *********************/
  16:lvgl/lvgl/src/core/../misc/lv_anim.h **** #include "../lv_conf_internal.h"
  17:lvgl/lvgl/src/core/../misc/lv_anim.h **** 
  18:lvgl/lvgl/src/core/../misc/lv_anim.h **** #include <stdint.h>
  19:lvgl/lvgl/src/core/../misc/lv_anim.h **** #include <stdbool.h>
  20:lvgl/lvgl/src/core/../misc/lv_anim.h **** #include <string.h>
  21:lvgl/lvgl/src/core/../misc/lv_anim.h **** 
  22:lvgl/lvgl/src/core/../misc/lv_anim.h **** /*********************
  23:lvgl/lvgl/src/core/../misc/lv_anim.h ****  *      DEFINES
  24:lvgl/lvgl/src/core/../misc/lv_anim.h ****  *********************/
  25:lvgl/lvgl/src/core/../misc/lv_anim.h **** 
  26:lvgl/lvgl/src/core/../misc/lv_anim.h **** /**********************
  27:lvgl/lvgl/src/core/../misc/lv_anim.h ****  *      TYPEDEFS
  28:lvgl/lvgl/src/core/../misc/lv_anim.h ****  **********************/
  29:lvgl/lvgl/src/core/../misc/lv_anim.h **** 
  30:lvgl/lvgl/src/core/../misc/lv_anim.h **** /** Can be used to indicate if animations are enabled or disabled in a case*/
  31:lvgl/lvgl/src/core/../misc/lv_anim.h **** typedef enum {
  32:lvgl/lvgl/src/core/../misc/lv_anim.h ****     LV_ANIM_OFF,
  33:lvgl/lvgl/src/core/../misc/lv_anim.h ****     LV_ANIM_ON,
  34:lvgl/lvgl/src/core/../misc/lv_anim.h **** }lv_anim_enable_t;
  35:lvgl/lvgl/src/core/../misc/lv_anim.h **** 
  36:lvgl/lvgl/src/core/../misc/lv_anim.h **** #define LV_ANIM_REPEAT_INFINITE      0xFFFF
  37:lvgl/lvgl/src/core/../misc/lv_anim.h **** LV_EXPORT_CONST_INT(LV_ANIM_REPEAT_INFINITE);
  38:lvgl/lvgl/src/core/../misc/lv_anim.h **** 
  39:lvgl/lvgl/src/core/../misc/lv_anim.h **** struct _lv_anim_t;
  40:lvgl/lvgl/src/core/../misc/lv_anim.h **** 
  41:lvgl/lvgl/src/core/../misc/lv_anim.h **** /** Get the current value during an animation*/
  42:lvgl/lvgl/src/core/../misc/lv_anim.h **** typedef int32_t (*lv_anim_path_cb_t)(const struct _lv_anim_t *);
  43:lvgl/lvgl/src/core/../misc/lv_anim.h **** 
  44:lvgl/lvgl/src/core/../misc/lv_anim.h **** /** Generic prototype of "animator" functions.
  45:lvgl/lvgl/src/core/../misc/lv_anim.h ****  * First parameter is the variable to animate.
  46:lvgl/lvgl/src/core/../misc/lv_anim.h ****  * Second parameter is the value to set.
  47:lvgl/lvgl/src/core/../misc/lv_anim.h ****  * Compatible with `lv_xxx_set_yyy(obj, value)` functions
  48:lvgl/lvgl/src/core/../misc/lv_anim.h ****  * The `x` in `_xcb_t` means its not a fully generic prototype because
  49:lvgl/lvgl/src/core/../misc/lv_anim.h ****  * it doesn't receive `lv_anim_t *` as its first argument*/
  50:lvgl/lvgl/src/core/../misc/lv_anim.h **** typedef void (*lv_anim_exec_xcb_t)(void *, int32_t);
  51:lvgl/lvgl/src/core/../misc/lv_anim.h **** 
  52:lvgl/lvgl/src/core/../misc/lv_anim.h **** /** Same as `lv_anim_exec_xcb_t` but receives `lv_anim_t *` as the first parameter.
  53:lvgl/lvgl/src/core/../misc/lv_anim.h ****  * It's more consistent but less convenient. Might be used by binding generator functions.*/
  54:lvgl/lvgl/src/core/../misc/lv_anim.h **** typedef void (*lv_anim_custom_exec_cb_t)(struct _lv_anim_t *, int32_t);
  55:lvgl/lvgl/src/core/../misc/lv_anim.h **** 
  56:lvgl/lvgl/src/core/../misc/lv_anim.h **** /** Callback to call when the animation is ready*/
  57:lvgl/lvgl/src/core/../misc/lv_anim.h **** typedef void (*lv_anim_ready_cb_t)(struct _lv_anim_t *);
  58:lvgl/lvgl/src/core/../misc/lv_anim.h **** 
  59:lvgl/lvgl/src/core/../misc/lv_anim.h **** /** Callback to call when the animation really stars (considering `delay`)*/
  60:lvgl/lvgl/src/core/../misc/lv_anim.h **** typedef void (*lv_anim_start_cb_t)(struct _lv_anim_t *);
  61:lvgl/lvgl/src/core/../misc/lv_anim.h **** 
  62:lvgl/lvgl/src/core/../misc/lv_anim.h **** /** Callback used when the animation values are relative to get the current value*/
  63:lvgl/lvgl/src/core/../misc/lv_anim.h **** typedef int32_t (*lv_anim_get_value_cb_t)(struct _lv_anim_t *);
  64:lvgl/lvgl/src/core/../misc/lv_anim.h **** 
  65:lvgl/lvgl/src/core/../misc/lv_anim.h **** /** Describes an animation*/
ARM GAS  C:\Users\gx\AppData\Local\Temp\cc2sgWsf.s 			page 39


  66:lvgl/lvgl/src/core/../misc/lv_anim.h **** typedef struct _lv_anim_t {
  67:lvgl/lvgl/src/core/../misc/lv_anim.h ****     void * var;                          /**<Variable to animate*/
  68:lvgl/lvgl/src/core/../misc/lv_anim.h ****     lv_anim_exec_xcb_t exec_cb;          /**< Function to execute to animate*/
  69:lvgl/lvgl/src/core/../misc/lv_anim.h ****     lv_anim_start_cb_t start_cb;         /**< Call it when the animation is starts (considering `de
  70:lvgl/lvgl/src/core/../misc/lv_anim.h ****     lv_anim_ready_cb_t ready_cb;         /**< Call it when the animation is ready*/
  71:lvgl/lvgl/src/core/../misc/lv_anim.h ****     lv_anim_get_value_cb_t get_value_cb; /**< Get the current value in relative mode*/
  72:lvgl/lvgl/src/core/../misc/lv_anim.h **** #if LV_USE_USER_DATA
  73:lvgl/lvgl/src/core/../misc/lv_anim.h ****     void * user_data; /**< Custom user data*/
  74:lvgl/lvgl/src/core/../misc/lv_anim.h **** #endif
  75:lvgl/lvgl/src/core/../misc/lv_anim.h ****     lv_anim_path_cb_t path_cb;         /**< Describe the path (curve) of animations*/
  76:lvgl/lvgl/src/core/../misc/lv_anim.h ****     int32_t start_value;               /**< Start value*/
  77:lvgl/lvgl/src/core/../misc/lv_anim.h ****     int32_t current_value;             /**< Current value*/
  78:lvgl/lvgl/src/core/../misc/lv_anim.h ****     int32_t end_value;                 /**< End value*/
  79:lvgl/lvgl/src/core/../misc/lv_anim.h ****     int32_t time;                /**< Animation time in ms*/
  80:lvgl/lvgl/src/core/../misc/lv_anim.h ****     int32_t act_time;            /**< Current time in animation. Set to negative to make delay.*/
  81:lvgl/lvgl/src/core/../misc/lv_anim.h ****     uint32_t playback_delay;     /**< Wait before play back*/
  82:lvgl/lvgl/src/core/../misc/lv_anim.h ****     uint32_t playback_time;      /**< Duration of playback animation*/
  83:lvgl/lvgl/src/core/../misc/lv_anim.h ****     uint32_t repeat_delay;       /**< Wait before repeat*/
  84:lvgl/lvgl/src/core/../misc/lv_anim.h ****     uint16_t repeat_cnt;         /**< Repeat count for the animation*/
  85:lvgl/lvgl/src/core/../misc/lv_anim.h ****     uint8_t early_apply  : 1;    /**< 1: Apply start value immediately even is there is `delay`*/
  86:lvgl/lvgl/src/core/../misc/lv_anim.h **** 
  87:lvgl/lvgl/src/core/../misc/lv_anim.h ****     /*Animation system use these - user shouldn't set*/
  88:lvgl/lvgl/src/core/../misc/lv_anim.h ****     uint8_t playback_now : 1; /**< Play back is in progress*/
  89:lvgl/lvgl/src/core/../misc/lv_anim.h ****     uint8_t run_round : 1;    /**< Indicates the animation has run in this round*/
  90:lvgl/lvgl/src/core/../misc/lv_anim.h ****     uint8_t start_cb_called : 1;    /**< Indicates that the `start_cb` was already called*/
  91:lvgl/lvgl/src/core/../misc/lv_anim.h ****     uint32_t time_orig;
  92:lvgl/lvgl/src/core/../misc/lv_anim.h **** } lv_anim_t;
  93:lvgl/lvgl/src/core/../misc/lv_anim.h **** 
  94:lvgl/lvgl/src/core/../misc/lv_anim.h **** /**********************
  95:lvgl/lvgl/src/core/../misc/lv_anim.h ****  * GLOBAL PROTOTYPES
  96:lvgl/lvgl/src/core/../misc/lv_anim.h ****  **********************/
  97:lvgl/lvgl/src/core/../misc/lv_anim.h **** 
  98:lvgl/lvgl/src/core/../misc/lv_anim.h **** /**
  99:lvgl/lvgl/src/core/../misc/lv_anim.h ****  * Init. the animation module
 100:lvgl/lvgl/src/core/../misc/lv_anim.h ****  */
 101:lvgl/lvgl/src/core/../misc/lv_anim.h **** void _lv_anim_core_init(void);
 102:lvgl/lvgl/src/core/../misc/lv_anim.h **** 
 103:lvgl/lvgl/src/core/../misc/lv_anim.h **** /**
 104:lvgl/lvgl/src/core/../misc/lv_anim.h ****  * Initialize an animation variable.
 105:lvgl/lvgl/src/core/../misc/lv_anim.h ****  * E.g.:
 106:lvgl/lvgl/src/core/../misc/lv_anim.h ****  * lv_anim_t a;
 107:lvgl/lvgl/src/core/../misc/lv_anim.h ****  * lv_anim_init(&a);
 108:lvgl/lvgl/src/core/../misc/lv_anim.h ****  * lv_anim_set_...(&a);
 109:lvgl/lvgl/src/core/../misc/lv_anim.h ****  * lv_anim_start(&a);
 110:lvgl/lvgl/src/core/../misc/lv_anim.h ****  * @param a     pointer to an `lv_anim_t` variable to initialize
 111:lvgl/lvgl/src/core/../misc/lv_anim.h ****  */
 112:lvgl/lvgl/src/core/../misc/lv_anim.h **** void lv_anim_init(lv_anim_t * a);
 113:lvgl/lvgl/src/core/../misc/lv_anim.h **** 
 114:lvgl/lvgl/src/core/../misc/lv_anim.h **** /**
 115:lvgl/lvgl/src/core/../misc/lv_anim.h ****  * Set a variable to animate
 116:lvgl/lvgl/src/core/../misc/lv_anim.h ****  * @param a     pointer to an initialized `lv_anim_t` variable
 117:lvgl/lvgl/src/core/../misc/lv_anim.h ****  * @param var   pointer to a variable to animate
 118:lvgl/lvgl/src/core/../misc/lv_anim.h ****  */
 119:lvgl/lvgl/src/core/../misc/lv_anim.h **** static inline void lv_anim_set_var(lv_anim_t * a, void * var)
 1032              		.loc 2 119 20 view .LVU288
 1033              	.LBB66:
 120:lvgl/lvgl/src/core/../misc/lv_anim.h **** {
ARM GAS  C:\Users\gx\AppData\Local\Temp\cc2sgWsf.s 			page 40


 121:lvgl/lvgl/src/core/../misc/lv_anim.h ****     a->var = var;
 1034              		.loc 2 121 5 view .LVU289
 1035              		.loc 2 121 12 is_stmt 0 view .LVU290
 1036 0010 0196     		str	r6, [sp, #4]
 1037              	.LVL92:
 1038              		.loc 2 121 12 view .LVU291
 1039              	.LBE66:
 1040              	.LBE65:
 430:lvgl/lvgl/src/core/lv_obj_style.c ****     lv_anim_set_exec_cb(&a, fade_anim_cb);
 1041              		.loc 1 430 5 is_stmt 1 view .LVU292
 1042              	.LBB67:
 1043              	.LBI67:
 122:lvgl/lvgl/src/core/../misc/lv_anim.h **** }
 123:lvgl/lvgl/src/core/../misc/lv_anim.h **** 
 124:lvgl/lvgl/src/core/../misc/lv_anim.h **** /**
 125:lvgl/lvgl/src/core/../misc/lv_anim.h ****  * Set a function to animate `var`
 126:lvgl/lvgl/src/core/../misc/lv_anim.h ****  * @param a         pointer to an initialized `lv_anim_t` variable
 127:lvgl/lvgl/src/core/../misc/lv_anim.h ****  * @param exec_cb   a function to execute during animation
 128:lvgl/lvgl/src/core/../misc/lv_anim.h ****  *                  LVGL's built-in functions can be used.
 129:lvgl/lvgl/src/core/../misc/lv_anim.h ****  *                  E.g. lv_obj_set_x
 130:lvgl/lvgl/src/core/../misc/lv_anim.h ****  */
 131:lvgl/lvgl/src/core/../misc/lv_anim.h **** static inline void lv_anim_set_exec_cb(lv_anim_t * a, lv_anim_exec_xcb_t exec_cb)
 132:lvgl/lvgl/src/core/../misc/lv_anim.h **** {
 133:lvgl/lvgl/src/core/../misc/lv_anim.h ****     a->exec_cb = exec_cb;
 134:lvgl/lvgl/src/core/../misc/lv_anim.h **** }
 135:lvgl/lvgl/src/core/../misc/lv_anim.h **** 
 136:lvgl/lvgl/src/core/../misc/lv_anim.h **** /**
 137:lvgl/lvgl/src/core/../misc/lv_anim.h ****  * Set the duration of an animation
 138:lvgl/lvgl/src/core/../misc/lv_anim.h ****  * @param a         pointer to an initialized `lv_anim_t` variable
 139:lvgl/lvgl/src/core/../misc/lv_anim.h ****  * @param duration  duration of the animation in milliseconds
 140:lvgl/lvgl/src/core/../misc/lv_anim.h ****  */
 141:lvgl/lvgl/src/core/../misc/lv_anim.h **** static inline void lv_anim_set_time(lv_anim_t * a, uint32_t duration)
 142:lvgl/lvgl/src/core/../misc/lv_anim.h **** {
 143:lvgl/lvgl/src/core/../misc/lv_anim.h ****     a->time = duration;
 144:lvgl/lvgl/src/core/../misc/lv_anim.h **** }
 145:lvgl/lvgl/src/core/../misc/lv_anim.h **** 
 146:lvgl/lvgl/src/core/../misc/lv_anim.h **** /**
 147:lvgl/lvgl/src/core/../misc/lv_anim.h ****  * Set a delay before starting the animation
 148:lvgl/lvgl/src/core/../misc/lv_anim.h ****  * @param a         pointer to an initialized `lv_anim_t` variable
 149:lvgl/lvgl/src/core/../misc/lv_anim.h ****  * @param delay     delay before the animation in milliseconds
 150:lvgl/lvgl/src/core/../misc/lv_anim.h ****  */
 151:lvgl/lvgl/src/core/../misc/lv_anim.h **** static inline void lv_anim_set_delay(lv_anim_t * a, uint32_t delay)
 152:lvgl/lvgl/src/core/../misc/lv_anim.h **** {
 153:lvgl/lvgl/src/core/../misc/lv_anim.h ****     a->act_time = -(int32_t)(delay);
 154:lvgl/lvgl/src/core/../misc/lv_anim.h **** }
 155:lvgl/lvgl/src/core/../misc/lv_anim.h **** 
 156:lvgl/lvgl/src/core/../misc/lv_anim.h **** /**
 157:lvgl/lvgl/src/core/../misc/lv_anim.h ****  * Set the start and end values of an animation
 158:lvgl/lvgl/src/core/../misc/lv_anim.h ****  * @param a         pointer to an initialized `lv_anim_t` variable
 159:lvgl/lvgl/src/core/../misc/lv_anim.h ****  * @param start     the start value
 160:lvgl/lvgl/src/core/../misc/lv_anim.h ****  * @param end       the end value
 161:lvgl/lvgl/src/core/../misc/lv_anim.h ****  */
 162:lvgl/lvgl/src/core/../misc/lv_anim.h **** static inline void lv_anim_set_values(lv_anim_t * a, int32_t start, int32_t end)
 1044              		.loc 2 162 20 view .LVU293
 1045              	.LBB68:
 163:lvgl/lvgl/src/core/../misc/lv_anim.h **** {
 164:lvgl/lvgl/src/core/../misc/lv_anim.h ****     a->start_value = start;
ARM GAS  C:\Users\gx\AppData\Local\Temp\cc2sgWsf.s 			page 41


 1046              		.loc 2 164 5 view .LVU294
 1047              		.loc 2 164 20 is_stmt 0 view .LVU295
 1048 0012 0023     		movs	r3, #0
 1049 0014 0893     		str	r3, [sp, #32]
 165:lvgl/lvgl/src/core/../misc/lv_anim.h ****     a->current_value = start;
 1050              		.loc 2 165 5 is_stmt 1 view .LVU296
 1051              		.loc 2 165 22 is_stmt 0 view .LVU297
 1052 0016 0993     		str	r3, [sp, #36]
 166:lvgl/lvgl/src/core/../misc/lv_anim.h ****     a->end_value = end;
 1053              		.loc 2 166 5 is_stmt 1 view .LVU298
 1054              		.loc 2 166 18 is_stmt 0 view .LVU299
 1055 0018 FF23     		movs	r3, #255
 1056 001a 0A93     		str	r3, [sp, #40]
 1057              	.LVL93:
 1058              		.loc 2 166 18 view .LVU300
 1059              	.LBE68:
 1060              	.LBE67:
 431:lvgl/lvgl/src/core/lv_obj_style.c ****     lv_anim_set_ready_cb(&a, fade_in_anim_ready);
 1061              		.loc 1 431 5 is_stmt 1 view .LVU301
 1062              	.LBB69:
 1063              	.LBI69:
 131:lvgl/lvgl/src/core/../misc/lv_anim.h **** {
 1064              		.loc 2 131 20 view .LVU302
 1065              	.LBB70:
 133:lvgl/lvgl/src/core/../misc/lv_anim.h **** }
 1066              		.loc 2 133 5 view .LVU303
 133:lvgl/lvgl/src/core/../misc/lv_anim.h **** }
 1067              		.loc 2 133 16 is_stmt 0 view .LVU304
 1068 001c 054B     		ldr	r3, .L76
 1069 001e 0293     		str	r3, [sp, #8]
 1070              	.LVL94:
 133:lvgl/lvgl/src/core/../misc/lv_anim.h **** }
 1071              		.loc 2 133 16 view .LVU305
 1072              	.LBE70:
 1073              	.LBE69:
 432:lvgl/lvgl/src/core/lv_obj_style.c ****     lv_anim_set_time(&a, time);
 1074              		.loc 1 432 5 is_stmt 1 view .LVU306
 1075              	.LBB71:
 1076              	.LBI71:
 167:lvgl/lvgl/src/core/../misc/lv_anim.h **** }
 168:lvgl/lvgl/src/core/../misc/lv_anim.h **** 
 169:lvgl/lvgl/src/core/../misc/lv_anim.h **** /**
 170:lvgl/lvgl/src/core/../misc/lv_anim.h ****  * Similar to `lv_anim_set_exec_cb` but `lv_anim_custom_exec_cb_t` receives
 171:lvgl/lvgl/src/core/../misc/lv_anim.h ****  * `lv_anim_t * ` as its first parameter instead of `void *`.
 172:lvgl/lvgl/src/core/../misc/lv_anim.h ****  * This function might be used when LVGL is binded to other languages because
 173:lvgl/lvgl/src/core/../misc/lv_anim.h ****  * it's more consistent to have `lv_anim_t *` as first parameter.
 174:lvgl/lvgl/src/core/../misc/lv_anim.h ****  * The variable to animate can be stored in the animation's `user_sata`
 175:lvgl/lvgl/src/core/../misc/lv_anim.h ****  * @param a         pointer to an initialized `lv_anim_t` variable
 176:lvgl/lvgl/src/core/../misc/lv_anim.h ****  * @param exec_cb   a function to execute.
 177:lvgl/lvgl/src/core/../misc/lv_anim.h ****  */
 178:lvgl/lvgl/src/core/../misc/lv_anim.h **** static inline void lv_anim_set_custom_exec_cb(lv_anim_t * a, lv_anim_custom_exec_cb_t exec_cb)
 179:lvgl/lvgl/src/core/../misc/lv_anim.h **** {
 180:lvgl/lvgl/src/core/../misc/lv_anim.h ****     a->var     = a;
 181:lvgl/lvgl/src/core/../misc/lv_anim.h ****     a->exec_cb = (lv_anim_exec_xcb_t)exec_cb;
 182:lvgl/lvgl/src/core/../misc/lv_anim.h **** }
 183:lvgl/lvgl/src/core/../misc/lv_anim.h **** 
 184:lvgl/lvgl/src/core/../misc/lv_anim.h **** /**
ARM GAS  C:\Users\gx\AppData\Local\Temp\cc2sgWsf.s 			page 42


 185:lvgl/lvgl/src/core/../misc/lv_anim.h ****  * Set the path (curve) of the animation.
 186:lvgl/lvgl/src/core/../misc/lv_anim.h ****  * @param a         pointer to an initialized `lv_anim_t` variable
 187:lvgl/lvgl/src/core/../misc/lv_anim.h ****  * @param path_cb a function the get the current value of the animation.
 188:lvgl/lvgl/src/core/../misc/lv_anim.h ****  */
 189:lvgl/lvgl/src/core/../misc/lv_anim.h **** static inline void lv_anim_set_path_cb(lv_anim_t * a, lv_anim_path_cb_t path_cb)
 190:lvgl/lvgl/src/core/../misc/lv_anim.h **** {
 191:lvgl/lvgl/src/core/../misc/lv_anim.h ****     a->path_cb = path_cb;
 192:lvgl/lvgl/src/core/../misc/lv_anim.h **** }
 193:lvgl/lvgl/src/core/../misc/lv_anim.h **** 
 194:lvgl/lvgl/src/core/../misc/lv_anim.h **** /**
 195:lvgl/lvgl/src/core/../misc/lv_anim.h ****  * Set a function call when the animation really starts (considering `delay`)
 196:lvgl/lvgl/src/core/../misc/lv_anim.h ****  * @param a         pointer to an initialized `lv_anim_t` variable
 197:lvgl/lvgl/src/core/../misc/lv_anim.h ****  * @param start_cb  a function call when the animation starts
 198:lvgl/lvgl/src/core/../misc/lv_anim.h ****  */
 199:lvgl/lvgl/src/core/../misc/lv_anim.h **** static inline void lv_anim_set_start_cb(lv_anim_t * a, lv_anim_ready_cb_t start_cb)
 200:lvgl/lvgl/src/core/../misc/lv_anim.h **** {
 201:lvgl/lvgl/src/core/../misc/lv_anim.h ****     a->start_cb = start_cb;
 202:lvgl/lvgl/src/core/../misc/lv_anim.h **** }
 203:lvgl/lvgl/src/core/../misc/lv_anim.h **** 
 204:lvgl/lvgl/src/core/../misc/lv_anim.h **** /**
 205:lvgl/lvgl/src/core/../misc/lv_anim.h ****  * Set a function to use the current value of the variable and make start and end value
 206:lvgl/lvgl/src/core/../misc/lv_anim.h ****  * relative the the returned current value.
 207:lvgl/lvgl/src/core/../misc/lv_anim.h ****  * @param a             pointer to an initialized `lv_anim_t` variable
 208:lvgl/lvgl/src/core/../misc/lv_anim.h ****  * @param get_value_cb  a function call when the animation starts
 209:lvgl/lvgl/src/core/../misc/lv_anim.h ****  */
 210:lvgl/lvgl/src/core/../misc/lv_anim.h **** static inline void lv_anim_set_get_value_cb(lv_anim_t * a, lv_anim_get_value_cb_t get_value_cb)
 211:lvgl/lvgl/src/core/../misc/lv_anim.h **** {
 212:lvgl/lvgl/src/core/../misc/lv_anim.h ****     a->get_value_cb = get_value_cb;
 213:lvgl/lvgl/src/core/../misc/lv_anim.h **** }
 214:lvgl/lvgl/src/core/../misc/lv_anim.h **** 
 215:lvgl/lvgl/src/core/../misc/lv_anim.h **** /**
 216:lvgl/lvgl/src/core/../misc/lv_anim.h ****  * Set a function call when the animation is ready
 217:lvgl/lvgl/src/core/../misc/lv_anim.h ****  * @param a         pointer to an initialized `lv_anim_t` variable
 218:lvgl/lvgl/src/core/../misc/lv_anim.h ****  * @param ready_cb  a function call when the animation is ready
 219:lvgl/lvgl/src/core/../misc/lv_anim.h ****  */
 220:lvgl/lvgl/src/core/../misc/lv_anim.h **** static inline void lv_anim_set_ready_cb(lv_anim_t * a, lv_anim_ready_cb_t ready_cb)
 1077              		.loc 2 220 20 view .LVU307
 1078              	.LBB72:
 221:lvgl/lvgl/src/core/../misc/lv_anim.h **** {
 222:lvgl/lvgl/src/core/../misc/lv_anim.h ****     a->ready_cb = ready_cb;
 1079              		.loc 2 222 5 view .LVU308
 1080              		.loc 2 222 17 is_stmt 0 view .LVU309
 1081 0020 054B     		ldr	r3, .L76+4
 1082 0022 0493     		str	r3, [sp, #16]
 1083              	.LVL95:
 1084              		.loc 2 222 17 view .LVU310
 1085              	.LBE72:
 1086              	.LBE71:
 433:lvgl/lvgl/src/core/lv_obj_style.c ****     lv_anim_set_delay(&a, delay);
 1087              		.loc 1 433 5 is_stmt 1 view .LVU311
 1088              	.LBB73:
 1089              	.LBI73:
 141:lvgl/lvgl/src/core/../misc/lv_anim.h **** {
 1090              		.loc 2 141 20 view .LVU312
 1091              	.LBB74:
 143:lvgl/lvgl/src/core/../misc/lv_anim.h **** }
 1092              		.loc 2 143 5 view .LVU313
ARM GAS  C:\Users\gx\AppData\Local\Temp\cc2sgWsf.s 			page 43


 143:lvgl/lvgl/src/core/../misc/lv_anim.h **** }
 1093              		.loc 2 143 13 is_stmt 0 view .LVU314
 1094 0024 0B95     		str	r5, [sp, #44]
 1095              	.LVL96:
 143:lvgl/lvgl/src/core/../misc/lv_anim.h **** }
 1096              		.loc 2 143 13 view .LVU315
 1097              	.LBE74:
 1098              	.LBE73:
 434:lvgl/lvgl/src/core/lv_obj_style.c ****     lv_anim_start(&a);
 1099              		.loc 1 434 5 is_stmt 1 view .LVU316
 1100              	.LBB75:
 1101              	.LBI75:
 151:lvgl/lvgl/src/core/../misc/lv_anim.h **** {
 1102              		.loc 2 151 20 view .LVU317
 1103              	.LBB76:
 153:lvgl/lvgl/src/core/../misc/lv_anim.h **** }
 1104              		.loc 2 153 5 view .LVU318
 153:lvgl/lvgl/src/core/../misc/lv_anim.h **** }
 1105              		.loc 2 153 19 is_stmt 0 view .LVU319
 1106 0026 6442     		rsbs	r4, r4, #0
 1107              	.LVL97:
 153:lvgl/lvgl/src/core/../misc/lv_anim.h **** }
 1108              		.loc 2 153 17 view .LVU320
 1109 0028 0C94     		str	r4, [sp, #48]
 1110              	.LVL98:
 153:lvgl/lvgl/src/core/../misc/lv_anim.h **** }
 1111              		.loc 2 153 17 view .LVU321
 1112              	.LBE76:
 1113              	.LBE75:
 435:lvgl/lvgl/src/core/lv_obj_style.c **** }
 1114              		.loc 1 435 5 is_stmt 1 view .LVU322
 1115 002a 01A8     		add	r0, sp, #4
 1116 002c FFF7FEFF 		bl	lv_anim_start
 1117              	.LVL99:
 436:lvgl/lvgl/src/core/lv_obj_style.c **** 
 1118              		.loc 1 436 1 is_stmt 0 view .LVU323
 1119 0030 12B0     		add	sp, sp, #72
 1120              	.LCFI13:
 1121              		.cfi_def_cfa_offset 16
 1122              		@ sp needed
 1123 0032 70BD     		pop	{r4, r5, r6, pc}
 1124              	.LVL100:
 1125              	.L77:
 436:lvgl/lvgl/src/core/lv_obj_style.c **** 
 1126              		.loc 1 436 1 view .LVU324
 1127              		.align	2
 1128              	.L76:
 1129 0034 00000000 		.word	fade_anim_cb
 1130 0038 00000000 		.word	fade_in_anim_ready
 1131              		.cfi_endproc
 1132              	.LFE170:
 1134              		.section	.text.lv_obj_fade_out,"ax",%progbits
 1135              		.align	1
 1136              		.global	lv_obj_fade_out
 1137              		.syntax unified
 1138              		.thumb
 1139              		.thumb_func
ARM GAS  C:\Users\gx\AppData\Local\Temp\cc2sgWsf.s 			page 44


 1140              		.fpu fpv4-sp-d16
 1142              	lv_obj_fade_out:
 1143              	.LVL101:
 1144              	.LFB171:
 439:lvgl/lvgl/src/core/lv_obj_style.c ****     lv_anim_t a;
 1145              		.loc 1 439 1 is_stmt 1 view -0
 1146              		.cfi_startproc
 1147              		@ args = 0, pretend = 0, frame = 72
 1148              		@ frame_needed = 0, uses_anonymous_args = 0
 439:lvgl/lvgl/src/core/lv_obj_style.c ****     lv_anim_t a;
 1149              		.loc 1 439 1 is_stmt 0 view .LVU326
 1150 0000 70B5     		push	{r4, r5, r6, lr}
 1151              	.LCFI14:
 1152              		.cfi_def_cfa_offset 16
 1153              		.cfi_offset 4, -16
 1154              		.cfi_offset 5, -12
 1155              		.cfi_offset 6, -8
 1156              		.cfi_offset 14, -4
 1157 0002 92B0     		sub	sp, sp, #72
 1158              	.LCFI15:
 1159              		.cfi_def_cfa_offset 88
 1160 0004 0646     		mov	r6, r0
 1161 0006 0D46     		mov	r5, r1
 1162 0008 1446     		mov	r4, r2
 440:lvgl/lvgl/src/core/lv_obj_style.c ****     lv_anim_init(&a);
 1163              		.loc 1 440 5 is_stmt 1 view .LVU327
 441:lvgl/lvgl/src/core/lv_obj_style.c ****     lv_anim_set_var(&a, obj);
 1164              		.loc 1 441 5 view .LVU328
 1165 000a 01A8     		add	r0, sp, #4
 1166              	.LVL102:
 441:lvgl/lvgl/src/core/lv_obj_style.c ****     lv_anim_set_var(&a, obj);
 1167              		.loc 1 441 5 is_stmt 0 view .LVU329
 1168 000c FFF7FEFF 		bl	lv_anim_init
 1169              	.LVL103:
 442:lvgl/lvgl/src/core/lv_obj_style.c ****     lv_anim_set_values(&a, LV_OPA_COVER, LV_OPA_TRANSP);
 1170              		.loc 1 442 5 is_stmt 1 view .LVU330
 1171              	.LBB77:
 1172              	.LBI77:
 119:lvgl/lvgl/src/core/../misc/lv_anim.h **** {
 1173              		.loc 2 119 20 view .LVU331
 1174              	.LBB78:
 121:lvgl/lvgl/src/core/../misc/lv_anim.h **** }
 1175              		.loc 2 121 5 view .LVU332
 121:lvgl/lvgl/src/core/../misc/lv_anim.h **** }
 1176              		.loc 2 121 12 is_stmt 0 view .LVU333
 1177 0010 0196     		str	r6, [sp, #4]
 1178              	.LVL104:
 121:lvgl/lvgl/src/core/../misc/lv_anim.h **** }
 1179              		.loc 2 121 12 view .LVU334
 1180              	.LBE78:
 1181              	.LBE77:
 443:lvgl/lvgl/src/core/lv_obj_style.c ****     lv_anim_set_exec_cb(&a, fade_anim_cb);
 1182              		.loc 1 443 5 is_stmt 1 view .LVU335
 1183              	.LBB79:
 1184              	.LBI79:
 162:lvgl/lvgl/src/core/../misc/lv_anim.h **** {
 1185              		.loc 2 162 20 view .LVU336
ARM GAS  C:\Users\gx\AppData\Local\Temp\cc2sgWsf.s 			page 45


 1186              	.LBB80:
 164:lvgl/lvgl/src/core/../misc/lv_anim.h ****     a->current_value = start;
 1187              		.loc 2 164 5 view .LVU337
 164:lvgl/lvgl/src/core/../misc/lv_anim.h ****     a->current_value = start;
 1188              		.loc 2 164 20 is_stmt 0 view .LVU338
 1189 0012 FF23     		movs	r3, #255
 1190 0014 0893     		str	r3, [sp, #32]
 165:lvgl/lvgl/src/core/../misc/lv_anim.h ****     a->end_value = end;
 1191              		.loc 2 165 5 is_stmt 1 view .LVU339
 165:lvgl/lvgl/src/core/../misc/lv_anim.h ****     a->end_value = end;
 1192              		.loc 2 165 22 is_stmt 0 view .LVU340
 1193 0016 0993     		str	r3, [sp, #36]
 166:lvgl/lvgl/src/core/../misc/lv_anim.h **** }
 1194              		.loc 2 166 5 is_stmt 1 view .LVU341
 166:lvgl/lvgl/src/core/../misc/lv_anim.h **** }
 1195              		.loc 2 166 18 is_stmt 0 view .LVU342
 1196 0018 0023     		movs	r3, #0
 1197 001a 0A93     		str	r3, [sp, #40]
 1198              	.LVL105:
 166:lvgl/lvgl/src/core/../misc/lv_anim.h **** }
 1199              		.loc 2 166 18 view .LVU343
 1200              	.LBE80:
 1201              	.LBE79:
 444:lvgl/lvgl/src/core/lv_obj_style.c ****     lv_anim_set_time(&a, time);
 1202              		.loc 1 444 5 is_stmt 1 view .LVU344
 1203              	.LBB81:
 1204              	.LBI81:
 131:lvgl/lvgl/src/core/../misc/lv_anim.h **** {
 1205              		.loc 2 131 20 view .LVU345
 1206              	.LBB82:
 133:lvgl/lvgl/src/core/../misc/lv_anim.h **** }
 1207              		.loc 2 133 5 view .LVU346
 133:lvgl/lvgl/src/core/../misc/lv_anim.h **** }
 1208              		.loc 2 133 16 is_stmt 0 view .LVU347
 1209 001c 044B     		ldr	r3, .L80
 1210 001e 0293     		str	r3, [sp, #8]
 1211              	.LVL106:
 133:lvgl/lvgl/src/core/../misc/lv_anim.h **** }
 1212              		.loc 2 133 16 view .LVU348
 1213              	.LBE82:
 1214              	.LBE81:
 445:lvgl/lvgl/src/core/lv_obj_style.c ****     lv_anim_set_delay(&a, delay);
 1215              		.loc 1 445 5 is_stmt 1 view .LVU349
 1216              	.LBB83:
 1217              	.LBI83:
 141:lvgl/lvgl/src/core/../misc/lv_anim.h **** {
 1218              		.loc 2 141 20 view .LVU350
 1219              	.LBB84:
 143:lvgl/lvgl/src/core/../misc/lv_anim.h **** }
 1220              		.loc 2 143 5 view .LVU351
 143:lvgl/lvgl/src/core/../misc/lv_anim.h **** }
 1221              		.loc 2 143 13 is_stmt 0 view .LVU352
 1222 0020 0B95     		str	r5, [sp, #44]
 1223              	.LVL107:
 143:lvgl/lvgl/src/core/../misc/lv_anim.h **** }
 1224              		.loc 2 143 13 view .LVU353
 1225              	.LBE84:
ARM GAS  C:\Users\gx\AppData\Local\Temp\cc2sgWsf.s 			page 46


 1226              	.LBE83:
 446:lvgl/lvgl/src/core/lv_obj_style.c ****     lv_anim_start(&a);
 1227              		.loc 1 446 5 is_stmt 1 view .LVU354
 1228              	.LBB85:
 1229              	.LBI85:
 151:lvgl/lvgl/src/core/../misc/lv_anim.h **** {
 1230              		.loc 2 151 20 view .LVU355
 1231              	.LBB86:
 153:lvgl/lvgl/src/core/../misc/lv_anim.h **** }
 1232              		.loc 2 153 5 view .LVU356
 153:lvgl/lvgl/src/core/../misc/lv_anim.h **** }
 1233              		.loc 2 153 19 is_stmt 0 view .LVU357
 1234 0022 6442     		rsbs	r4, r4, #0
 1235              	.LVL108:
 153:lvgl/lvgl/src/core/../misc/lv_anim.h **** }
 1236              		.loc 2 153 17 view .LVU358
 1237 0024 0C94     		str	r4, [sp, #48]
 1238              	.LVL109:
 153:lvgl/lvgl/src/core/../misc/lv_anim.h **** }
 1239              		.loc 2 153 17 view .LVU359
 1240              	.LBE86:
 1241              	.LBE85:
 447:lvgl/lvgl/src/core/lv_obj_style.c **** }
 1242              		.loc 1 447 5 is_stmt 1 view .LVU360
 1243 0026 01A8     		add	r0, sp, #4
 1244 0028 FFF7FEFF 		bl	lv_anim_start
 1245              	.LVL110:
 448:lvgl/lvgl/src/core/lv_obj_style.c **** 
 1246              		.loc 1 448 1 is_stmt 0 view .LVU361
 1247 002c 12B0     		add	sp, sp, #72
 1248              	.LCFI16:
 1249              		.cfi_def_cfa_offset 16
 1250              		@ sp needed
 1251 002e 70BD     		pop	{r4, r5, r6, pc}
 1252              	.LVL111:
 1253              	.L81:
 448:lvgl/lvgl/src/core/lv_obj_style.c **** 
 1254              		.loc 1 448 1 view .LVU362
 1255              		.align	2
 1256              	.L80:
 1257 0030 00000000 		.word	fade_anim_cb
 1258              		.cfi_endproc
 1259              	.LFE171:
 1261              		.section	.text.lv_obj_style_get_selector_state,"ax",%progbits
 1262              		.align	1
 1263              		.global	lv_obj_style_get_selector_state
 1264              		.syntax unified
 1265              		.thumb
 1266              		.thumb_func
 1267              		.fpu fpv4-sp-d16
 1269              	lv_obj_style_get_selector_state:
 1270              	.LVL112:
 1271              	.LFB172:
 451:lvgl/lvgl/src/core/lv_obj_style.c ****     return selector & 0xFFFF;
 1272              		.loc 1 451 1 is_stmt 1 view -0
 1273              		.cfi_startproc
 1274              		@ args = 0, pretend = 0, frame = 0
ARM GAS  C:\Users\gx\AppData\Local\Temp\cc2sgWsf.s 			page 47


 1275              		@ frame_needed = 0, uses_anonymous_args = 0
 1276              		@ link register save eliminated.
 452:lvgl/lvgl/src/core/lv_obj_style.c **** }
 1277              		.loc 1 452 5 view .LVU364
 453:lvgl/lvgl/src/core/lv_obj_style.c **** 
 1278              		.loc 1 453 1 is_stmt 0 view .LVU365
 1279 0000 80B2     		uxth	r0, r0
 1280              	.LVL113:
 453:lvgl/lvgl/src/core/lv_obj_style.c **** 
 1281              		.loc 1 453 1 view .LVU366
 1282 0002 7047     		bx	lr
 1283              		.cfi_endproc
 1284              	.LFE172:
 1286              		.section	.text.lv_obj_style_get_selector_part,"ax",%progbits
 1287              		.align	1
 1288              		.global	lv_obj_style_get_selector_part
 1289              		.syntax unified
 1290              		.thumb
 1291              		.thumb_func
 1292              		.fpu fpv4-sp-d16
 1294              	lv_obj_style_get_selector_part:
 1295              	.LVL114:
 1296              	.LFB173:
 456:lvgl/lvgl/src/core/lv_obj_style.c ****     return selector & 0xFF0000;
 1297              		.loc 1 456 1 is_stmt 1 view -0
 1298              		.cfi_startproc
 1299              		@ args = 0, pretend = 0, frame = 0
 1300              		@ frame_needed = 0, uses_anonymous_args = 0
 1301              		@ link register save eliminated.
 457:lvgl/lvgl/src/core/lv_obj_style.c **** }
 1302              		.loc 1 457 5 view .LVU368
 458:lvgl/lvgl/src/core/lv_obj_style.c **** 
 1303              		.loc 1 458 1 is_stmt 0 view .LVU369
 1304 0000 00F47F00 		and	r0, r0, #16711680
 1305              	.LVL115:
 458:lvgl/lvgl/src/core/lv_obj_style.c **** 
 1306              		.loc 1 458 1 view .LVU370
 1307 0004 7047     		bx	lr
 1308              		.cfi_endproc
 1309              	.LFE173:
 1311              		.section	.text.get_prop_core,"ax",%progbits
 1312              		.align	1
 1313              		.syntax unified
 1314              		.thumb
 1315              		.thumb_func
 1316              		.fpu fpv4-sp-d16
 1318              	get_prop_core:
 1319              	.LVL116:
 1320              	.LFB177:
 546:lvgl/lvgl/src/core/lv_obj_style.c ****     uint8_t group = 1 << _lv_style_get_prop_group(prop);
 1321              		.loc 1 546 1 is_stmt 1 view -0
 1322              		.cfi_startproc
 1323              		@ args = 0, pretend = 0, frame = 24
 1324              		@ frame_needed = 0, uses_anonymous_args = 0
 546:lvgl/lvgl/src/core/lv_obj_style.c ****     uint8_t group = 1 << _lv_style_get_prop_group(prop);
 1325              		.loc 1 546 1 is_stmt 0 view .LVU372
 1326 0000 2DE9F04F 		push	{r4, r5, r6, r7, r8, r9, r10, fp, lr}
ARM GAS  C:\Users\gx\AppData\Local\Temp\cc2sgWsf.s 			page 48


 1327              	.LCFI17:
 1328              		.cfi_def_cfa_offset 36
 1329              		.cfi_offset 4, -36
 1330              		.cfi_offset 5, -32
 1331              		.cfi_offset 6, -28
 1332              		.cfi_offset 7, -24
 1333              		.cfi_offset 8, -20
 1334              		.cfi_offset 9, -16
 1335              		.cfi_offset 10, -12
 1336              		.cfi_offset 11, -8
 1337              		.cfi_offset 14, -4
 1338 0004 87B0     		sub	sp, sp, #28
 1339              	.LCFI18:
 1340              		.cfi_def_cfa_offset 64
 1341 0006 0646     		mov	r6, r0
 1342 0008 8946     		mov	r9, r1
 1343 000a 0192     		str	r2, [sp, #4]
 1344 000c 0293     		str	r3, [sp, #8]
 547:lvgl/lvgl/src/core/lv_obj_style.c ****     int32_t weight = -1;
 1345              		.loc 1 547 5 is_stmt 1 view .LVU373
 547:lvgl/lvgl/src/core/lv_obj_style.c ****     int32_t weight = -1;
 1346              		.loc 1 547 26 is_stmt 0 view .LVU374
 1347 000e 1046     		mov	r0, r2
 1348              	.LVL117:
 547:lvgl/lvgl/src/core/lv_obj_style.c ****     int32_t weight = -1;
 1349              		.loc 1 547 26 view .LVU375
 1350 0010 FFF7FEFF 		bl	_lv_style_get_prop_group
 1351              	.LVL118:
 547:lvgl/lvgl/src/core/lv_obj_style.c ****     int32_t weight = -1;
 1352              		.loc 1 547 23 view .LVU376
 1353 0014 4FF0010A 		mov	r10, #1
 1354 0018 0AFA00FA 		lsl	r10, r10, r0
 547:lvgl/lvgl/src/core/lv_obj_style.c ****     int32_t weight = -1;
 1355              		.loc 1 547 13 view .LVU377
 1356 001c 5FFA8AFA 		uxtb	r10, r10
 1357              	.LVL119:
 548:lvgl/lvgl/src/core/lv_obj_style.c ****     lv_state_t state = obj->state;
 1358              		.loc 1 548 5 is_stmt 1 view .LVU378
 549:lvgl/lvgl/src/core/lv_obj_style.c ****     lv_state_t state_inv = ~state;
 1359              		.loc 1 549 5 view .LVU379
 549:lvgl/lvgl/src/core/lv_obj_style.c ****     lv_state_t state_inv = ~state;
 1360              		.loc 1 549 16 is_stmt 0 view .LVU380
 1361 0020 338C     		ldrh	r3, [r6, #32]
 1362 0022 0393     		str	r3, [sp, #12]
 1363              	.LVL120:
 550:lvgl/lvgl/src/core/lv_obj_style.c ****     lv_style_value_t value_tmp;
 1364              		.loc 1 550 5 is_stmt 1 view .LVU381
 550:lvgl/lvgl/src/core/lv_obj_style.c ****     lv_style_value_t value_tmp;
 1365              		.loc 1 550 16 is_stmt 0 view .LVU382
 1366 0024 6FEA030B 		mvn	fp, r3
 1367 0028 1FFA8BFB 		uxth	fp, fp
 1368              	.LVL121:
 551:lvgl/lvgl/src/core/lv_obj_style.c ****     bool skip_trans = obj->skip_trans;
 1369              		.loc 1 551 5 is_stmt 1 view .LVU383
 552:lvgl/lvgl/src/core/lv_obj_style.c ****     uint32_t i;
 1370              		.loc 1 552 5 view .LVU384
 552:lvgl/lvgl/src/core/lv_obj_style.c ****     uint32_t i;
ARM GAS  C:\Users\gx\AppData\Local\Temp\cc2sgWsf.s 			page 49


 1371              		.loc 1 552 26 is_stmt 0 view .LVU385
 1372 002c 96F82280 		ldrb	r8, [r6, #34]	@ zero_extendqisi2
 1373 0030 C8F38008 		ubfx	r8, r8, #2, #1
 1374              	.LVL122:
 553:lvgl/lvgl/src/core/lv_obj_style.c ****     bool found;
 1375              		.loc 1 553 5 is_stmt 1 view .LVU386
 554:lvgl/lvgl/src/core/lv_obj_style.c ****     for(i = 0; i < obj->style_cnt; i++) {
 1376              		.loc 1 554 5 view .LVU387
 555:lvgl/lvgl/src/core/lv_obj_style.c ****         _lv_obj_style_t * obj_style = &obj->styles[i];
 1377              		.loc 1 555 5 view .LVU388
 555:lvgl/lvgl/src/core/lv_obj_style.c ****         _lv_obj_style_t * obj_style = &obj->styles[i];
 1378              		.loc 1 555 11 is_stmt 0 view .LVU389
 1379 0034 0024     		movs	r4, #0
 1380 0036 4546     		mov	r5, r8
 555:lvgl/lvgl/src/core/lv_obj_style.c ****         _lv_obj_style_t * obj_style = &obj->styles[i];
 1381              		.loc 1 555 5 view .LVU390
 1382 0038 00E0     		b	.L85
 1383              	.LVL123:
 1384              	.L87:
 555:lvgl/lvgl/src/core/lv_obj_style.c ****         _lv_obj_style_t * obj_style = &obj->styles[i];
 1385              		.loc 1 555 36 is_stmt 1 discriminator 2 view .LVU391
 555:lvgl/lvgl/src/core/lv_obj_style.c ****         _lv_obj_style_t * obj_style = &obj->styles[i];
 1386              		.loc 1 555 37 is_stmt 0 discriminator 2 view .LVU392
 1387 003a 0134     		adds	r4, r4, #1
 1388              	.LVL124:
 1389              	.L85:
 555:lvgl/lvgl/src/core/lv_obj_style.c ****         _lv_obj_style_t * obj_style = &obj->styles[i];
 1390              		.loc 1 555 16 is_stmt 1 discriminator 1 view .LVU393
 555:lvgl/lvgl/src/core/lv_obj_style.c ****         _lv_obj_style_t * obj_style = &obj->styles[i];
 1391              		.loc 1 555 23 is_stmt 0 discriminator 1 view .LVU394
 1392 003c 738C     		ldrh	r3, [r6, #34]
 1393 003e C3F3C503 		ubfx	r3, r3, #3, #6
 555:lvgl/lvgl/src/core/lv_obj_style.c ****         _lv_obj_style_t * obj_style = &obj->styles[i];
 1394              		.loc 1 555 5 discriminator 1 view .LVU395
 1395 0042 A342     		cmp	r3, r4
 1396 0044 22D9     		bls	.L97
 1397              	.LBB87:
 556:lvgl/lvgl/src/core/lv_obj_style.c ****         if(obj_style->is_trans == false) break;
 1398              		.loc 1 556 9 is_stmt 1 view .LVU396
 556:lvgl/lvgl/src/core/lv_obj_style.c ****         if(obj_style->is_trans == false) break;
 1399              		.loc 1 556 43 is_stmt 0 view .LVU397
 1400 0046 F768     		ldr	r7, [r6, #12]
 556:lvgl/lvgl/src/core/lv_obj_style.c ****         if(obj_style->is_trans == false) break;
 1401              		.loc 1 556 51 view .LVU398
 1402 0048 4FEAC408 		lsl	r8, r4, #3
 556:lvgl/lvgl/src/core/lv_obj_style.c ****         if(obj_style->is_trans == false) break;
 1403              		.loc 1 556 27 view .LVU399
 1404 004c 07EBC403 		add	r3, r7, r4, lsl #3
 1405              	.LVL125:
 557:lvgl/lvgl/src/core/lv_obj_style.c ****         if(skip_trans) continue;
 1406              		.loc 1 557 9 is_stmt 1 view .LVU400
 557:lvgl/lvgl/src/core/lv_obj_style.c ****         if(skip_trans) continue;
 1407              		.loc 1 557 32 is_stmt 0 view .LVU401
 1408 0050 DA79     		ldrb	r2, [r3, #7]	@ zero_extendqisi2
 557:lvgl/lvgl/src/core/lv_obj_style.c ****         if(skip_trans) continue;
 1409              		.loc 1 557 11 view .LVU402
 1410 0052 12F0020F 		tst	r2, #2
ARM GAS  C:\Users\gx\AppData\Local\Temp\cc2sgWsf.s 			page 50


 1411 0056 55D0     		beq	.L94
 558:lvgl/lvgl/src/core/lv_obj_style.c **** 
 1412              		.loc 1 558 9 is_stmt 1 view .LVU403
 558:lvgl/lvgl/src/core/lv_obj_style.c **** 
 1413              		.loc 1 558 11 is_stmt 0 view .LVU404
 1414 0058 002D     		cmp	r5, #0
 1415 005a EED1     		bne	.L87
 560:lvgl/lvgl/src/core/lv_obj_style.c **** 
 1416              		.loc 1 560 9 is_stmt 1 view .LVU405
 560:lvgl/lvgl/src/core/lv_obj_style.c **** 
 1417              		.loc 1 560 75 is_stmt 0 view .LVU406
 1418 005c 5868     		ldr	r0, [r3, #4]
 560:lvgl/lvgl/src/core/lv_obj_style.c **** 
 1419              		.loc 1 560 30 view .LVU407
 1420 005e 20F07F40 		bic	r0, r0, #-16777216
 1421 0062 FFF7FEFF 		bl	lv_obj_style_get_selector_part
 1422              	.LVL126:
 562:lvgl/lvgl/src/core/lv_obj_style.c ****         if((obj_style->style->has_group & group) == 0) continue;
 1423              		.loc 1 562 9 is_stmt 1 view .LVU408
 562:lvgl/lvgl/src/core/lv_obj_style.c ****         if((obj_style->style->has_group & group) == 0) continue;
 1424              		.loc 1 562 11 is_stmt 0 view .LVU409
 1425 0066 4845     		cmp	r0, r9
 1426 0068 E7D1     		bne	.L87
 563:lvgl/lvgl/src/core/lv_obj_style.c ****         found = lv_style_get_prop(obj_style->style, prop, &value_tmp);
 1427              		.loc 1 563 9 is_stmt 1 view .LVU410
 563:lvgl/lvgl/src/core/lv_obj_style.c ****         found = lv_style_get_prop(obj_style->style, prop, &value_tmp);
 1428              		.loc 1 563 22 is_stmt 0 view .LVU411
 1429 006a 57F80800 		ldr	r0, [r7, r8]
 1430              	.LVL127:
 563:lvgl/lvgl/src/core/lv_obj_style.c ****         found = lv_style_get_prop(obj_style->style, prop, &value_tmp);
 1431              		.loc 1 563 29 view .LVU412
 1432 006e 8379     		ldrb	r3, [r0, #6]	@ zero_extendqisi2
 563:lvgl/lvgl/src/core/lv_obj_style.c ****         found = lv_style_get_prop(obj_style->style, prop, &value_tmp);
 1433              		.loc 1 563 11 view .LVU413
 1434 0070 13EA0A0F 		tst	r3, r10
 1435 0074 E1D0     		beq	.L87
 564:lvgl/lvgl/src/core/lv_obj_style.c ****         if(found) {
 1436              		.loc 1 564 9 is_stmt 1 view .LVU414
 564:lvgl/lvgl/src/core/lv_obj_style.c ****         if(found) {
 1437              		.loc 1 564 17 is_stmt 0 view .LVU415
 1438 0076 05AA     		add	r2, sp, #20
 1439 0078 0199     		ldr	r1, [sp, #4]
 1440 007a FFF7FEFF 		bl	lv_style_get_prop
 1441              	.LVL128:
 565:lvgl/lvgl/src/core/lv_obj_style.c ****             *v = value_tmp;
 1442              		.loc 1 565 9 is_stmt 1 view .LVU416
 565:lvgl/lvgl/src/core/lv_obj_style.c ****             *v = value_tmp;
 1443              		.loc 1 565 11 is_stmt 0 view .LVU417
 1444 007e 0028     		cmp	r0, #0
 1445 0080 DBD0     		beq	.L87
 566:lvgl/lvgl/src/core/lv_obj_style.c ****             return true;
 1446              		.loc 1 566 13 is_stmt 1 view .LVU418
 566:lvgl/lvgl/src/core/lv_obj_style.c ****             return true;
 1447              		.loc 1 566 16 is_stmt 0 view .LVU419
 1448 0082 059B     		ldr	r3, [sp, #20]
 1449 0084 029A     		ldr	r2, [sp, #8]
 1450 0086 1360     		str	r3, [r2]
ARM GAS  C:\Users\gx\AppData\Local\Temp\cc2sgWsf.s 			page 51


 567:lvgl/lvgl/src/core/lv_obj_style.c ****         }
 1451              		.loc 1 567 13 is_stmt 1 view .LVU420
 567:lvgl/lvgl/src/core/lv_obj_style.c ****         }
 1452              		.loc 1 567 20 is_stmt 0 view .LVU421
 1453 0088 0120     		movs	r0, #1
 1454              	.LVL129:
 567:lvgl/lvgl/src/core/lv_obj_style.c ****         }
 1455              		.loc 1 567 20 view .LVU422
 1456 008a 47E0     		b	.L88
 1457              	.LVL130:
 1458              	.L97:
 567:lvgl/lvgl/src/core/lv_obj_style.c ****         }
 1459              		.loc 1 567 20 view .LVU423
 1460              	.LBE87:
 1461 008c 4FF0FF33 		mov	r3, #-1
 1462 0090 0093     		str	r3, [sp]
 1463 0092 B046     		mov	r8, r6
 1464 0094 05E0     		b	.L92
 1465              	.LVL131:
 1466              	.L99:
 1467              	.LBB88:
 590:lvgl/lvgl/src/core/lv_obj_style.c ****                 return true;
 1468              		.loc 1 590 17 is_stmt 1 view .LVU424
 590:lvgl/lvgl/src/core/lv_obj_style.c ****                 return true;
 1469              		.loc 1 590 20 is_stmt 0 view .LVU425
 1470 0096 059B     		ldr	r3, [sp, #20]
 1471 0098 029A     		ldr	r2, [sp, #8]
 1472 009a 1360     		str	r3, [r2]
 591:lvgl/lvgl/src/core/lv_obj_style.c ****             }
 1473              		.loc 1 591 17 is_stmt 1 view .LVU426
 591:lvgl/lvgl/src/core/lv_obj_style.c ****             }
 1474              		.loc 1 591 24 is_stmt 0 view .LVU427
 1475 009c 0120     		movs	r0, #1
 1476              	.LVL132:
 591:lvgl/lvgl/src/core/lv_obj_style.c ****             }
 1477              		.loc 1 591 24 view .LVU428
 1478 009e 3DE0     		b	.L88
 1479              	.L90:
 591:lvgl/lvgl/src/core/lv_obj_style.c ****             }
 1480              		.loc 1 591 24 view .LVU429
 1481              	.LBE88:
 571:lvgl/lvgl/src/core/lv_obj_style.c ****         _lv_obj_style_t * obj_style = &obj->styles[i];
 1482              		.loc 1 571 31 is_stmt 1 view .LVU430
 571:lvgl/lvgl/src/core/lv_obj_style.c ****         _lv_obj_style_t * obj_style = &obj->styles[i];
 1483              		.loc 1 571 32 is_stmt 0 view .LVU431
 1484 00a0 0134     		adds	r4, r4, #1
 1485              	.LVL133:
 1486              	.L92:
 571:lvgl/lvgl/src/core/lv_obj_style.c ****         _lv_obj_style_t * obj_style = &obj->styles[i];
 1487              		.loc 1 571 11 is_stmt 1 discriminator 1 view .LVU432
 571:lvgl/lvgl/src/core/lv_obj_style.c ****         _lv_obj_style_t * obj_style = &obj->styles[i];
 1488              		.loc 1 571 18 is_stmt 0 discriminator 1 view .LVU433
 1489 00a2 B8F82230 		ldrh	r3, [r8, #34]
 1490 00a6 C3F3C503 		ubfx	r3, r3, #3, #6
 571:lvgl/lvgl/src/core/lv_obj_style.c ****         _lv_obj_style_t * obj_style = &obj->styles[i];
 1491              		.loc 1 571 5 discriminator 1 view .LVU434
 1492 00aa A342     		cmp	r3, r4
ARM GAS  C:\Users\gx\AppData\Local\Temp\cc2sgWsf.s 			page 52


 1493 00ac 2FD9     		bls	.L98
 1494              	.LBB89:
 572:lvgl/lvgl/src/core/lv_obj_style.c ****         lv_part_t part_act = lv_obj_style_get_selector_part(obj->styles[i].selector);
 1495              		.loc 1 572 9 is_stmt 1 view .LVU435
 572:lvgl/lvgl/src/core/lv_obj_style.c ****         lv_part_t part_act = lv_obj_style_get_selector_part(obj->styles[i].selector);
 1496              		.loc 1 572 43 is_stmt 0 view .LVU436
 1497 00ae D8F80C60 		ldr	r6, [r8, #12]
 572:lvgl/lvgl/src/core/lv_obj_style.c ****         lv_part_t part_act = lv_obj_style_get_selector_part(obj->styles[i].selector);
 1498              		.loc 1 572 27 view .LVU437
 1499 00b2 06EBC403 		add	r3, r6, r4, lsl #3
 1500              	.LVL134:
 573:lvgl/lvgl/src/core/lv_obj_style.c ****         lv_state_t state_act = lv_obj_style_get_selector_state(obj->styles[i].selector);
 1501              		.loc 1 573 9 is_stmt 1 view .LVU438
 573:lvgl/lvgl/src/core/lv_obj_style.c ****         lv_state_t state_act = lv_obj_style_get_selector_state(obj->styles[i].selector);
 1502              		.loc 1 573 75 is_stmt 0 view .LVU439
 1503 00b6 5D68     		ldr	r5, [r3, #4]
 1504 00b8 C5F31705 		ubfx	r5, r5, #0, #24
 573:lvgl/lvgl/src/core/lv_obj_style.c ****         lv_state_t state_act = lv_obj_style_get_selector_state(obj->styles[i].selector);
 1505              		.loc 1 573 30 view .LVU440
 1506 00bc 2846     		mov	r0, r5
 1507 00be FFF7FEFF 		bl	lv_obj_style_get_selector_part
 1508              	.LVL135:
 573:lvgl/lvgl/src/core/lv_obj_style.c ****         lv_state_t state_act = lv_obj_style_get_selector_state(obj->styles[i].selector);
 1509              		.loc 1 573 30 view .LVU441
 1510 00c2 0746     		mov	r7, r0
 1511              	.LVL136:
 574:lvgl/lvgl/src/core/lv_obj_style.c ****         if(part_act != part) continue;
 1512              		.loc 1 574 9 is_stmt 1 view .LVU442
 574:lvgl/lvgl/src/core/lv_obj_style.c ****         if(part_act != part) continue;
 1513              		.loc 1 574 32 is_stmt 0 view .LVU443
 1514 00c4 2846     		mov	r0, r5
 1515              	.LVL137:
 574:lvgl/lvgl/src/core/lv_obj_style.c ****         if(part_act != part) continue;
 1516              		.loc 1 574 32 view .LVU444
 1517 00c6 FFF7FEFF 		bl	lv_obj_style_get_selector_state
 1518              	.LVL138:
 1519 00ca 0546     		mov	r5, r0
 1520              	.LVL139:
 575:lvgl/lvgl/src/core/lv_obj_style.c **** 
 1521              		.loc 1 575 9 is_stmt 1 view .LVU445
 575:lvgl/lvgl/src/core/lv_obj_style.c **** 
 1522              		.loc 1 575 11 is_stmt 0 view .LVU446
 1523 00cc B945     		cmp	r9, r7
 1524 00ce E7D1     		bne	.L90
 577:lvgl/lvgl/src/core/lv_obj_style.c **** 
 1525              		.loc 1 577 9 is_stmt 1 view .LVU447
 577:lvgl/lvgl/src/core/lv_obj_style.c **** 
 1526              		.loc 1 577 22 is_stmt 0 view .LVU448
 1527 00d0 56F83400 		ldr	r0, [r6, r4, lsl #3]
 577:lvgl/lvgl/src/core/lv_obj_style.c **** 
 1528              		.loc 1 577 29 view .LVU449
 1529 00d4 8379     		ldrb	r3, [r0, #6]	@ zero_extendqisi2
 577:lvgl/lvgl/src/core/lv_obj_style.c **** 
 1530              		.loc 1 577 11 view .LVU450
 1531 00d6 13EA0A0F 		tst	r3, r10
 1532 00da E1D0     		beq	.L90
 581:lvgl/lvgl/src/core/lv_obj_style.c **** 
ARM GAS  C:\Users\gx\AppData\Local\Temp\cc2sgWsf.s 			page 53


 1533              		.loc 1 581 9 is_stmt 1 view .LVU451
 581:lvgl/lvgl/src/core/lv_obj_style.c **** 
 1534              		.loc 1 581 11 is_stmt 0 view .LVU452
 1535 00dc 1BEA050F 		tst	fp, r5
 1536 00e0 DED1     		bne	.L90
 584:lvgl/lvgl/src/core/lv_obj_style.c **** 
 1537              		.loc 1 584 9 is_stmt 1 view .LVU453
 584:lvgl/lvgl/src/core/lv_obj_style.c **** 
 1538              		.loc 1 584 11 is_stmt 0 view .LVU454
 1539 00e2 009B     		ldr	r3, [sp]
 1540 00e4 9D42     		cmp	r5, r3
 1541 00e6 DBDD     		ble	.L90
 586:lvgl/lvgl/src/core/lv_obj_style.c **** 
 1542              		.loc 1 586 9 is_stmt 1 view .LVU455
 586:lvgl/lvgl/src/core/lv_obj_style.c **** 
 1543              		.loc 1 586 17 is_stmt 0 view .LVU456
 1544 00e8 05AA     		add	r2, sp, #20
 1545 00ea 0199     		ldr	r1, [sp, #4]
 1546 00ec FFF7FEFF 		bl	lv_style_get_prop
 1547              	.LVL140:
 588:lvgl/lvgl/src/core/lv_obj_style.c ****             if(state_act == state) {
 1548              		.loc 1 588 9 is_stmt 1 view .LVU457
 588:lvgl/lvgl/src/core/lv_obj_style.c ****             if(state_act == state) {
 1549              		.loc 1 588 11 is_stmt 0 view .LVU458
 1550 00f0 0028     		cmp	r0, #0
 1551 00f2 D5D0     		beq	.L90
 589:lvgl/lvgl/src/core/lv_obj_style.c ****                 *v = value_tmp;
 1552              		.loc 1 589 13 is_stmt 1 view .LVU459
 589:lvgl/lvgl/src/core/lv_obj_style.c ****                 *v = value_tmp;
 1553              		.loc 1 589 15 is_stmt 0 view .LVU460
 1554 00f4 039B     		ldr	r3, [sp, #12]
 1555 00f6 AB42     		cmp	r3, r5
 1556 00f8 CDD0     		beq	.L99
 593:lvgl/lvgl/src/core/lv_obj_style.c ****                 weight = state_act;
 1557              		.loc 1 593 13 is_stmt 1 view .LVU461
 594:lvgl/lvgl/src/core/lv_obj_style.c ****                 *v = value_tmp;
 1558              		.loc 1 594 17 view .LVU462
 1559              	.LVL141:
 595:lvgl/lvgl/src/core/lv_obj_style.c ****             }
 1560              		.loc 1 595 17 view .LVU463
 595:lvgl/lvgl/src/core/lv_obj_style.c ****             }
 1561              		.loc 1 595 20 is_stmt 0 view .LVU464
 1562 00fa 059B     		ldr	r3, [sp, #20]
 1563 00fc 029A     		ldr	r2, [sp, #8]
 1564 00fe 1360     		str	r3, [r2]
 594:lvgl/lvgl/src/core/lv_obj_style.c ****                 *v = value_tmp;
 1565              		.loc 1 594 24 view .LVU465
 1566 0100 0095     		str	r5, [sp]
 1567 0102 CDE7     		b	.L90
 1568              	.LVL142:
 1569              	.L94:
 594:lvgl/lvgl/src/core/lv_obj_style.c ****                 *v = value_tmp;
 1570              		.loc 1 594 24 view .LVU466
 1571              	.LBE89:
 1572 0104 4FF0FF33 		mov	r3, #-1
 1573              	.LVL143:
 594:lvgl/lvgl/src/core/lv_obj_style.c ****                 *v = value_tmp;
ARM GAS  C:\Users\gx\AppData\Local\Temp\cc2sgWsf.s 			page 54


 1574              		.loc 1 594 24 view .LVU467
 1575 0108 0093     		str	r3, [sp]
 1576 010a B046     		mov	r8, r6
 1577 010c C9E7     		b	.L92
 1578              	.LVL144:
 1579              	.L98:
 600:lvgl/lvgl/src/core/lv_obj_style.c ****         *v = value_tmp;
 1580              		.loc 1 600 5 is_stmt 1 view .LVU468
 600:lvgl/lvgl/src/core/lv_obj_style.c ****         *v = value_tmp;
 1581              		.loc 1 600 7 is_stmt 0 view .LVU469
 1582 010e 009B     		ldr	r3, [sp]
 1583 0110 002B     		cmp	r3, #0
 1584 0112 06DB     		blt	.L95
 601:lvgl/lvgl/src/core/lv_obj_style.c ****         return true;
 1585              		.loc 1 601 9 is_stmt 1 view .LVU470
 601:lvgl/lvgl/src/core/lv_obj_style.c ****         return true;
 1586              		.loc 1 601 12 is_stmt 0 view .LVU471
 1587 0114 059B     		ldr	r3, [sp, #20]
 1588 0116 029A     		ldr	r2, [sp, #8]
 1589 0118 1360     		str	r3, [r2]
 602:lvgl/lvgl/src/core/lv_obj_style.c ****     }
 1590              		.loc 1 602 9 is_stmt 1 view .LVU472
 602:lvgl/lvgl/src/core/lv_obj_style.c ****     }
 1591              		.loc 1 602 16 is_stmt 0 view .LVU473
 1592 011a 0120     		movs	r0, #1
 1593              	.LVL145:
 1594              	.L88:
 605:lvgl/lvgl/src/core/lv_obj_style.c **** 
 1595              		.loc 1 605 1 view .LVU474
 1596 011c 07B0     		add	sp, sp, #28
 1597              	.LCFI19:
 1598              		.cfi_remember_state
 1599              		.cfi_def_cfa_offset 36
 1600              		@ sp needed
 1601 011e BDE8F08F 		pop	{r4, r5, r6, r7, r8, r9, r10, fp, pc}
 1602              	.LVL146:
 1603              	.L95:
 1604              	.LCFI20:
 1605              		.cfi_restore_state
 604:lvgl/lvgl/src/core/lv_obj_style.c **** }
 1606              		.loc 1 604 17 view .LVU475
 1607 0122 0020     		movs	r0, #0
 1608 0124 FAE7     		b	.L88
 1609              		.cfi_endproc
 1610              	.LFE177:
 1612              		.section	.text.lv_obj_get_style_prop,"ax",%progbits
 1613              		.align	1
 1614              		.global	lv_obj_get_style_prop
 1615              		.syntax unified
 1616              		.thumb
 1617              		.thumb_func
 1618              		.fpu fpv4-sp-d16
 1620              	lv_obj_get_style_prop:
 1621              	.LVL147:
 1622              	.LFB164:
 213:lvgl/lvgl/src/core/lv_obj_style.c ****     lv_style_value_t value_act;
 1623              		.loc 1 213 1 is_stmt 1 view -0
ARM GAS  C:\Users\gx\AppData\Local\Temp\cc2sgWsf.s 			page 55


 1624              		.cfi_startproc
 1625              		@ args = 0, pretend = 0, frame = 8
 1626              		@ frame_needed = 0, uses_anonymous_args = 0
 213:lvgl/lvgl/src/core/lv_obj_style.c ****     lv_style_value_t value_act;
 1627              		.loc 1 213 1 is_stmt 0 view .LVU477
 1628 0000 2DE9F043 		push	{r4, r5, r6, r7, r8, r9, lr}
 1629              	.LCFI21:
 1630              		.cfi_def_cfa_offset 28
 1631              		.cfi_offset 4, -28
 1632              		.cfi_offset 5, -24
 1633              		.cfi_offset 6, -20
 1634              		.cfi_offset 7, -16
 1635              		.cfi_offset 8, -12
 1636              		.cfi_offset 9, -8
 1637              		.cfi_offset 14, -4
 1638 0004 83B0     		sub	sp, sp, #12
 1639              	.LCFI22:
 1640              		.cfi_def_cfa_offset 40
 1641 0006 0446     		mov	r4, r0
 1642 0008 0D46     		mov	r5, r1
 1643 000a 1646     		mov	r6, r2
 214:lvgl/lvgl/src/core/lv_obj_style.c ****     bool inherit = prop & LV_STYLE_PROP_INHERIT ? true : false;
 1644              		.loc 1 214 5 is_stmt 1 view .LVU478
 215:lvgl/lvgl/src/core/lv_obj_style.c ****     bool filter = prop & LV_STYLE_PROP_FILTER ? true : false;
 1645              		.loc 1 215 5 view .LVU479
 215:lvgl/lvgl/src/core/lv_obj_style.c ****     bool filter = prop & LV_STYLE_PROP_FILTER ? true : false;
 1646              		.loc 1 215 56 is_stmt 0 view .LVU480
 1647 000c C2F38028 		ubfx	r8, r2, #10, #1
 1648              	.LVL148:
 216:lvgl/lvgl/src/core/lv_obj_style.c ****     if(filter) {
 1649              		.loc 1 216 5 is_stmt 1 view .LVU481
 216:lvgl/lvgl/src/core/lv_obj_style.c ****     if(filter) {
 1650              		.loc 1 216 54 is_stmt 0 view .LVU482
 1651 0010 C2F38039 		ubfx	r9, r2, #14, #1
 1652              	.LVL149:
 217:lvgl/lvgl/src/core/lv_obj_style.c ****         prop &= ~LV_STYLE_PROP_FILTER;
 1653              		.loc 1 217 5 is_stmt 1 view .LVU483
 217:lvgl/lvgl/src/core/lv_obj_style.c ****         prop &= ~LV_STYLE_PROP_FILTER;
 1654              		.loc 1 217 7 is_stmt 0 view .LVU484
 1655 0014 12F4804F 		tst	r2, #16384
 1656 0018 02D0     		beq	.L101
 218:lvgl/lvgl/src/core/lv_obj_style.c ****     }
 1657              		.loc 1 218 9 is_stmt 1 view .LVU485
 218:lvgl/lvgl/src/core/lv_obj_style.c ****     }
 1658              		.loc 1 218 14 is_stmt 0 view .LVU486
 1659 001a 22F48046 		bic	r6, r2, #16384
 1660 001e B6B2     		uxth	r6, r6
 1661              	.LVL150:
 1662              	.L101:
 220:lvgl/lvgl/src/core/lv_obj_style.c ****     while(obj) {
 1663              		.loc 1 220 5 is_stmt 1 view .LVU487
 221:lvgl/lvgl/src/core/lv_obj_style.c ****         found = get_prop_core(obj, part, prop, &value_act);
 1664              		.loc 1 221 5 view .LVU488
 220:lvgl/lvgl/src/core/lv_obj_style.c ****     while(obj) {
 1665              		.loc 1 220 10 is_stmt 0 view .LVU489
 1666 0020 0027     		movs	r7, #0
 221:lvgl/lvgl/src/core/lv_obj_style.c ****         found = get_prop_core(obj, part, prop, &value_act);
ARM GAS  C:\Users\gx\AppData\Local\Temp\cc2sgWsf.s 			page 56


 1667              		.loc 1 221 10 view .LVU490
 1668 0022 00E0     		b	.L102
 1669              	.LVL151:
 1670              	.L117:
 228:lvgl/lvgl/src/core/lv_obj_style.c ****             continue;
 1671              		.loc 1 228 18 view .LVU491
 1672 0024 0025     		movs	r5, #0
 1673              	.LVL152:
 1674              	.L102:
 221:lvgl/lvgl/src/core/lv_obj_style.c ****         found = get_prop_core(obj, part, prop, &value_act);
 1675              		.loc 1 221 10 is_stmt 1 view .LVU492
 1676 0026 8CB1     		cbz	r4, .L103
 222:lvgl/lvgl/src/core/lv_obj_style.c ****         if(found) break;
 1677              		.loc 1 222 9 view .LVU493
 222:lvgl/lvgl/src/core/lv_obj_style.c ****         if(found) break;
 1678              		.loc 1 222 17 is_stmt 0 view .LVU494
 1679 0028 01AB     		add	r3, sp, #4
 1680 002a 3246     		mov	r2, r6
 1681 002c 2946     		mov	r1, r5
 1682 002e 2046     		mov	r0, r4
 1683 0030 FFF7FEFF 		bl	get_prop_core
 1684              	.LVL153:
 223:lvgl/lvgl/src/core/lv_obj_style.c ****         if(!inherit) break;
 1685              		.loc 1 223 9 is_stmt 1 view .LVU495
 223:lvgl/lvgl/src/core/lv_obj_style.c ****         if(!inherit) break;
 1686              		.loc 1 223 11 is_stmt 0 view .LVU496
 1687 0034 0746     		mov	r7, r0
 1688 0036 48B9     		cbnz	r0, .L103
 224:lvgl/lvgl/src/core/lv_obj_style.c **** 
 1689              		.loc 1 224 9 is_stmt 1 view .LVU497
 224:lvgl/lvgl/src/core/lv_obj_style.c **** 
 1690              		.loc 1 224 11 is_stmt 0 view .LVU498
 1691 0038 B8F1000F 		cmp	r8, #0
 1692 003c 06D0     		beq	.L103
 227:lvgl/lvgl/src/core/lv_obj_style.c ****             part = LV_PART_MAIN;
 1693              		.loc 1 227 9 is_stmt 1 view .LVU499
 227:lvgl/lvgl/src/core/lv_obj_style.c ****             part = LV_PART_MAIN;
 1694              		.loc 1 227 11 is_stmt 0 view .LVU500
 1695 003e 002D     		cmp	r5, #0
 1696 0040 F0D1     		bne	.L117
 233:lvgl/lvgl/src/core/lv_obj_style.c ****     }
 1697              		.loc 1 233 9 is_stmt 1 view .LVU501
 233:lvgl/lvgl/src/core/lv_obj_style.c ****     }
 1698              		.loc 1 233 15 is_stmt 0 view .LVU502
 1699 0042 2046     		mov	r0, r4
 1700              	.LVL154:
 233:lvgl/lvgl/src/core/lv_obj_style.c ****     }
 1701              		.loc 1 233 15 view .LVU503
 1702 0044 FFF7FEFF 		bl	lv_obj_get_parent
 1703              	.LVL155:
 1704 0048 0446     		mov	r4, r0
 1705              	.LVL156:
 233:lvgl/lvgl/src/core/lv_obj_style.c ****     }
 1706              		.loc 1 233 15 view .LVU504
 1707 004a ECE7     		b	.L102
 1708              	.LVL157:
 1709              	.L103:
ARM GAS  C:\Users\gx\AppData\Local\Temp\cc2sgWsf.s 			page 57


 236:lvgl/lvgl/src/core/lv_obj_style.c ****         if(part == LV_PART_MAIN && (prop == LV_STYLE_WIDTH || prop == LV_STYLE_HEIGHT)) {
 1710              		.loc 1 236 5 is_stmt 1 view .LVU505
 236:lvgl/lvgl/src/core/lv_obj_style.c ****         if(part == LV_PART_MAIN && (prop == LV_STYLE_WIDTH || prop == LV_STYLE_HEIGHT)) {
 1711              		.loc 1 236 7 is_stmt 0 view .LVU506
 1712 004c 67B9     		cbnz	r7, .L106
 237:lvgl/lvgl/src/core/lv_obj_style.c ****             const lv_obj_class_t * cls = obj->class_p;
 1713              		.loc 1 237 9 is_stmt 1 view .LVU507
 237:lvgl/lvgl/src/core/lv_obj_style.c ****             const lv_obj_class_t * cls = obj->class_p;
 1714              		.loc 1 237 11 is_stmt 0 view .LVU508
 1715 004e 3DB9     		cbnz	r5, .L107
 237:lvgl/lvgl/src/core/lv_obj_style.c ****             const lv_obj_class_t * cls = obj->class_p;
 1716              		.loc 1 237 33 discriminator 1 view .LVU509
 1717 0050 41F20103 		movw	r3, #4097
 1718 0054 9E42     		cmp	r6, r3
 1719 0056 0ED0     		beq	.L108
 237:lvgl/lvgl/src/core/lv_obj_style.c ****             const lv_obj_class_t * cls = obj->class_p;
 1720              		.loc 1 237 60 discriminator 2 view .LVU510
 1721 0058 41F20403 		movw	r3, #4100
 1722 005c 9E42     		cmp	r6, r3
 1723 005e 0AD0     		beq	.L108
 1724              	.L107:
 250:lvgl/lvgl/src/core/lv_obj_style.c ****         }
 1725              		.loc 1 250 13 is_stmt 1 view .LVU511
 250:lvgl/lvgl/src/core/lv_obj_style.c ****         }
 1726              		.loc 1 250 25 is_stmt 0 view .LVU512
 1727 0060 3046     		mov	r0, r6
 1728 0062 FFF7FEFF 		bl	lv_style_prop_get_default
 1729              	.LVL158:
 1730 0066 0190     		str	r0, [sp, #4]
 1731              	.L106:
 253:lvgl/lvgl/src/core/lv_obj_style.c ****     return value_act;
 1732              		.loc 1 253 5 is_stmt 1 view .LVU513
 253:lvgl/lvgl/src/core/lv_obj_style.c ****     return value_act;
 1733              		.loc 1 253 7 is_stmt 0 view .LVU514
 1734 0068 B9F1000F 		cmp	r9, #0
 1735 006c 1DD1     		bne	.L119
 1736              	.L116:
 254:lvgl/lvgl/src/core/lv_obj_style.c **** }
 1737              		.loc 1 254 5 is_stmt 1 view .LVU515
 255:lvgl/lvgl/src/core/lv_obj_style.c **** 
 1738              		.loc 1 255 1 is_stmt 0 view .LVU516
 1739 006e 0198     		ldr	r0, [sp, #4]
 1740 0070 03B0     		add	sp, sp, #12
 1741              	.LCFI23:
 1742              		.cfi_remember_state
 1743              		.cfi_def_cfa_offset 28
 1744              		@ sp needed
 1745 0072 BDE8F083 		pop	{r4, r5, r6, r7, r8, r9, pc}
 1746              	.LVL159:
 1747              	.L108:
 1748              	.LCFI24:
 1749              		.cfi_restore_state
 1750              	.LBB90:
 238:lvgl/lvgl/src/core/lv_obj_style.c ****             while(cls) {
 1751              		.loc 1 238 13 is_stmt 1 view .LVU517
 238:lvgl/lvgl/src/core/lv_obj_style.c ****             while(cls) {
 1752              		.loc 1 238 36 is_stmt 0 view .LVU518
ARM GAS  C:\Users\gx\AppData\Local\Temp\cc2sgWsf.s 			page 58


 1753 0076 2368     		ldr	r3, [r4]
 1754              	.LVL160:
 239:lvgl/lvgl/src/core/lv_obj_style.c ****                 if(prop == LV_STYLE_WIDTH) {
 1755              		.loc 1 239 13 is_stmt 1 view .LVU519
 239:lvgl/lvgl/src/core/lv_obj_style.c ****                 if(prop == LV_STYLE_WIDTH) {
 1756              		.loc 1 239 18 is_stmt 0 view .LVU520
 1757 0078 03E0     		b	.L109
 1758              	.L120:
 241:lvgl/lvgl/src/core/lv_obj_style.c ****                 } else {
 1759              		.loc 1 241 21 is_stmt 1 view .LVU521
 241:lvgl/lvgl/src/core/lv_obj_style.c ****                 } else {
 1760              		.loc 1 241 27 is_stmt 0 view .LVU522
 1761 007a B3F91420 		ldrsh	r2, [r3, #20]
 241:lvgl/lvgl/src/core/lv_obj_style.c ****                 } else {
 1762              		.loc 1 241 23 view .LVU523
 1763 007e 4AB9     		cbnz	r2, .L111
 1764              	.L112:
 245:lvgl/lvgl/src/core/lv_obj_style.c ****             }
 1765              		.loc 1 245 17 is_stmt 1 view .LVU524
 245:lvgl/lvgl/src/core/lv_obj_style.c ****             }
 1766              		.loc 1 245 21 is_stmt 0 view .LVU525
 1767 0080 1B68     		ldr	r3, [r3]
 1768              	.LVL161:
 1769              	.L109:
 239:lvgl/lvgl/src/core/lv_obj_style.c ****                 if(prop == LV_STYLE_WIDTH) {
 1770              		.loc 1 239 18 is_stmt 1 view .LVU526
 1771 0082 3BB1     		cbz	r3, .L111
 240:lvgl/lvgl/src/core/lv_obj_style.c ****                     if(cls->width_def != 0) break;
 1772              		.loc 1 240 17 view .LVU527
 240:lvgl/lvgl/src/core/lv_obj_style.c ****                     if(cls->width_def != 0) break;
 1773              		.loc 1 240 19 is_stmt 0 view .LVU528
 1774 0084 41F20102 		movw	r2, #4097
 1775 0088 9642     		cmp	r6, r2
 1776 008a F6D0     		beq	.L120
 243:lvgl/lvgl/src/core/lv_obj_style.c ****                 }
 1777              		.loc 1 243 21 is_stmt 1 view .LVU529
 243:lvgl/lvgl/src/core/lv_obj_style.c ****                 }
 1778              		.loc 1 243 27 is_stmt 0 view .LVU530
 1779 008c B3F91620 		ldrsh	r2, [r3, #22]
 243:lvgl/lvgl/src/core/lv_obj_style.c ****                 }
 1780              		.loc 1 243 23 view .LVU531
 1781 0090 002A     		cmp	r2, #0
 1782 0092 F5D0     		beq	.L112
 1783              	.L111:
 248:lvgl/lvgl/src/core/lv_obj_style.c ****         } else {
 1784              		.loc 1 248 13 is_stmt 1 view .LVU532
 248:lvgl/lvgl/src/core/lv_obj_style.c ****         } else {
 1785              		.loc 1 248 69 is_stmt 0 view .LVU533
 1786 0094 41F20102 		movw	r2, #4097
 1787 0098 9642     		cmp	r6, r2
 1788 009a 03D0     		beq	.L121
 248:lvgl/lvgl/src/core/lv_obj_style.c ****         } else {
 1789              		.loc 1 248 74 discriminator 2 view .LVU534
 1790 009c B3F91630 		ldrsh	r3, [r3, #22]
 1791              	.LVL162:
 1792              	.L115:
 248:lvgl/lvgl/src/core/lv_obj_style.c ****         } else {
ARM GAS  C:\Users\gx\AppData\Local\Temp\cc2sgWsf.s 			page 59


 1793              		.loc 1 248 27 discriminator 4 view .LVU535
 1794 00a0 0193     		str	r3, [sp, #4]
 1795              	.LBE90:
 237:lvgl/lvgl/src/core/lv_obj_style.c ****             const lv_obj_class_t * cls = obj->class_p;
 1796              		.loc 1 237 89 discriminator 4 view .LVU536
 1797 00a2 E1E7     		b	.L106
 1798              	.LVL163:
 1799              	.L121:
 1800              	.LBB91:
 248:lvgl/lvgl/src/core/lv_obj_style.c ****         } else {
 1801              		.loc 1 248 57 discriminator 1 view .LVU537
 1802 00a4 B3F91430 		ldrsh	r3, [r3, #20]
 1803              	.LVL164:
 248:lvgl/lvgl/src/core/lv_obj_style.c ****         } else {
 1804              		.loc 1 248 57 discriminator 1 view .LVU538
 1805 00a8 FAE7     		b	.L115
 1806              	.L119:
 248:lvgl/lvgl/src/core/lv_obj_style.c ****         } else {
 1807              		.loc 1 248 57 discriminator 1 view .LVU539
 1808              	.LBE91:
 253:lvgl/lvgl/src/core/lv_obj_style.c ****     return value_act;
 1809              		.loc 1 253 16 is_stmt 1 discriminator 1 view .LVU540
 253:lvgl/lvgl/src/core/lv_obj_style.c ****     return value_act;
 1810              		.loc 1 253 28 is_stmt 0 discriminator 1 view .LVU541
 1811 00aa 019A     		ldr	r2, [sp, #4]
 1812 00ac 2946     		mov	r1, r5
 1813 00ae 2046     		mov	r0, r4
 1814 00b0 FFF7FEFF 		bl	apply_color_filter
 1815              	.LVL165:
 1816 00b4 0190     		str	r0, [sp, #4]
 1817 00b6 DAE7     		b	.L116
 1818              		.cfi_endproc
 1819              	.LFE164:
 1821              		.section	.text.apply_color_filter,"ax",%progbits
 1822              		.align	1
 1823              		.syntax unified
 1824              		.thumb
 1825              		.thumb_func
 1826              		.fpu fpv4-sp-d16
 1828              	apply_color_filter:
 1829              	.LVL166:
 1830              	.LFB178:
 608:lvgl/lvgl/src/core/lv_obj_style.c ****     if(obj == NULL) return v;
 1831              		.loc 1 608 1 is_stmt 1 view -0
 1832              		.cfi_startproc
 1833              		@ args = 0, pretend = 0, frame = 0
 1834              		@ frame_needed = 0, uses_anonymous_args = 0
 608:lvgl/lvgl/src/core/lv_obj_style.c ****     if(obj == NULL) return v;
 1835              		.loc 1 608 1 is_stmt 0 view .LVU543
 1836 0000 F8B5     		push	{r3, r4, r5, r6, r7, lr}
 1837              	.LCFI25:
 1838              		.cfi_def_cfa_offset 24
 1839              		.cfi_offset 3, -24
 1840              		.cfi_offset 4, -20
 1841              		.cfi_offset 5, -16
 1842              		.cfi_offset 6, -12
 1843              		.cfi_offset 7, -8
ARM GAS  C:\Users\gx\AppData\Local\Temp\cc2sgWsf.s 			page 60


 1844              		.cfi_offset 14, -4
 1845 0002 1446     		mov	r4, r2
 1846              	.LVL167:
 609:lvgl/lvgl/src/core/lv_obj_style.c ****     const lv_color_filter_dsc_t * f = lv_obj_get_style_color_filter_dsc(obj, part);
 1847              		.loc 1 609 5 is_stmt 1 view .LVU544
 609:lvgl/lvgl/src/core/lv_obj_style.c ****     const lv_color_filter_dsc_t * f = lv_obj_get_style_color_filter_dsc(obj, part);
 1848              		.loc 1 609 7 is_stmt 0 view .LVU545
 1849 0004 C0B1     		cbz	r0, .L127
 1850 0006 0D46     		mov	r5, r1
 1851 0008 0646     		mov	r6, r0
 610:lvgl/lvgl/src/core/lv_obj_style.c ****     if(f && f->filter_cb) {
 1852              		.loc 1 610 5 is_stmt 1 view .LVU546
 1853              	.LVL168:
 1854              	.LBB92:
 1855              	.LBI92:
 1856              		.file 3 "lvgl/lvgl/src/core/lv_obj_style_gen.h"
   1:lvgl/lvgl/src/core/lv_obj_style_gen.h **** static inline lv_coord_t lv_obj_get_style_width(const struct _lv_obj_t * obj, uint32_t part)
   2:lvgl/lvgl/src/core/lv_obj_style_gen.h **** {
   3:lvgl/lvgl/src/core/lv_obj_style_gen.h ****     lv_style_value_t v = lv_obj_get_style_prop(obj, part, LV_STYLE_WIDTH);
   4:lvgl/lvgl/src/core/lv_obj_style_gen.h ****     return (lv_coord_t)v.num;
   5:lvgl/lvgl/src/core/lv_obj_style_gen.h **** }
   6:lvgl/lvgl/src/core/lv_obj_style_gen.h **** 
   7:lvgl/lvgl/src/core/lv_obj_style_gen.h **** static inline lv_coord_t lv_obj_get_style_min_width(const struct _lv_obj_t * obj, uint32_t part)
   8:lvgl/lvgl/src/core/lv_obj_style_gen.h **** {
   9:lvgl/lvgl/src/core/lv_obj_style_gen.h ****     lv_style_value_t v = lv_obj_get_style_prop(obj, part, LV_STYLE_MIN_WIDTH);
  10:lvgl/lvgl/src/core/lv_obj_style_gen.h ****     return (lv_coord_t)v.num;
  11:lvgl/lvgl/src/core/lv_obj_style_gen.h **** }
  12:lvgl/lvgl/src/core/lv_obj_style_gen.h **** 
  13:lvgl/lvgl/src/core/lv_obj_style_gen.h **** static inline lv_coord_t lv_obj_get_style_max_width(const struct _lv_obj_t * obj, uint32_t part)
  14:lvgl/lvgl/src/core/lv_obj_style_gen.h **** {
  15:lvgl/lvgl/src/core/lv_obj_style_gen.h ****     lv_style_value_t v = lv_obj_get_style_prop(obj, part, LV_STYLE_MAX_WIDTH);
  16:lvgl/lvgl/src/core/lv_obj_style_gen.h ****     return (lv_coord_t)v.num;
  17:lvgl/lvgl/src/core/lv_obj_style_gen.h **** }
  18:lvgl/lvgl/src/core/lv_obj_style_gen.h **** 
  19:lvgl/lvgl/src/core/lv_obj_style_gen.h **** static inline lv_coord_t lv_obj_get_style_height(const struct _lv_obj_t * obj, uint32_t part)
  20:lvgl/lvgl/src/core/lv_obj_style_gen.h **** {
  21:lvgl/lvgl/src/core/lv_obj_style_gen.h ****     lv_style_value_t v = lv_obj_get_style_prop(obj, part, LV_STYLE_HEIGHT);
  22:lvgl/lvgl/src/core/lv_obj_style_gen.h ****     return (lv_coord_t)v.num;
  23:lvgl/lvgl/src/core/lv_obj_style_gen.h **** }
  24:lvgl/lvgl/src/core/lv_obj_style_gen.h **** 
  25:lvgl/lvgl/src/core/lv_obj_style_gen.h **** static inline lv_coord_t lv_obj_get_style_min_height(const struct _lv_obj_t * obj, uint32_t part)
  26:lvgl/lvgl/src/core/lv_obj_style_gen.h **** {
  27:lvgl/lvgl/src/core/lv_obj_style_gen.h ****     lv_style_value_t v = lv_obj_get_style_prop(obj, part, LV_STYLE_MIN_HEIGHT);
  28:lvgl/lvgl/src/core/lv_obj_style_gen.h ****     return (lv_coord_t)v.num;
  29:lvgl/lvgl/src/core/lv_obj_style_gen.h **** }
  30:lvgl/lvgl/src/core/lv_obj_style_gen.h **** 
  31:lvgl/lvgl/src/core/lv_obj_style_gen.h **** static inline lv_coord_t lv_obj_get_style_max_height(const struct _lv_obj_t * obj, uint32_t part)
  32:lvgl/lvgl/src/core/lv_obj_style_gen.h **** {
  33:lvgl/lvgl/src/core/lv_obj_style_gen.h ****     lv_style_value_t v = lv_obj_get_style_prop(obj, part, LV_STYLE_MAX_HEIGHT);
  34:lvgl/lvgl/src/core/lv_obj_style_gen.h ****     return (lv_coord_t)v.num;
  35:lvgl/lvgl/src/core/lv_obj_style_gen.h **** }
  36:lvgl/lvgl/src/core/lv_obj_style_gen.h **** 
  37:lvgl/lvgl/src/core/lv_obj_style_gen.h **** static inline lv_coord_t lv_obj_get_style_x(const struct _lv_obj_t * obj, uint32_t part)
  38:lvgl/lvgl/src/core/lv_obj_style_gen.h **** {
  39:lvgl/lvgl/src/core/lv_obj_style_gen.h ****     lv_style_value_t v = lv_obj_get_style_prop(obj, part, LV_STYLE_X);
  40:lvgl/lvgl/src/core/lv_obj_style_gen.h ****     return (lv_coord_t)v.num;
  41:lvgl/lvgl/src/core/lv_obj_style_gen.h **** }
ARM GAS  C:\Users\gx\AppData\Local\Temp\cc2sgWsf.s 			page 61


  42:lvgl/lvgl/src/core/lv_obj_style_gen.h **** 
  43:lvgl/lvgl/src/core/lv_obj_style_gen.h **** static inline lv_coord_t lv_obj_get_style_y(const struct _lv_obj_t * obj, uint32_t part)
  44:lvgl/lvgl/src/core/lv_obj_style_gen.h **** {
  45:lvgl/lvgl/src/core/lv_obj_style_gen.h ****     lv_style_value_t v = lv_obj_get_style_prop(obj, part, LV_STYLE_Y);
  46:lvgl/lvgl/src/core/lv_obj_style_gen.h ****     return (lv_coord_t)v.num;
  47:lvgl/lvgl/src/core/lv_obj_style_gen.h **** }
  48:lvgl/lvgl/src/core/lv_obj_style_gen.h **** 
  49:lvgl/lvgl/src/core/lv_obj_style_gen.h **** static inline lv_align_t lv_obj_get_style_align(const struct _lv_obj_t * obj, uint32_t part)
  50:lvgl/lvgl/src/core/lv_obj_style_gen.h **** {
  51:lvgl/lvgl/src/core/lv_obj_style_gen.h ****     lv_style_value_t v = lv_obj_get_style_prop(obj, part, LV_STYLE_ALIGN);
  52:lvgl/lvgl/src/core/lv_obj_style_gen.h ****     return (lv_align_t)v.num;
  53:lvgl/lvgl/src/core/lv_obj_style_gen.h **** }
  54:lvgl/lvgl/src/core/lv_obj_style_gen.h **** 
  55:lvgl/lvgl/src/core/lv_obj_style_gen.h **** static inline lv_coord_t lv_obj_get_style_transform_width(const struct _lv_obj_t * obj, uint32_t pa
  56:lvgl/lvgl/src/core/lv_obj_style_gen.h **** {
  57:lvgl/lvgl/src/core/lv_obj_style_gen.h ****     lv_style_value_t v = lv_obj_get_style_prop(obj, part, LV_STYLE_TRANSFORM_WIDTH);
  58:lvgl/lvgl/src/core/lv_obj_style_gen.h ****     return (lv_coord_t)v.num;
  59:lvgl/lvgl/src/core/lv_obj_style_gen.h **** }
  60:lvgl/lvgl/src/core/lv_obj_style_gen.h **** 
  61:lvgl/lvgl/src/core/lv_obj_style_gen.h **** static inline lv_coord_t lv_obj_get_style_transform_height(const struct _lv_obj_t * obj, uint32_t p
  62:lvgl/lvgl/src/core/lv_obj_style_gen.h **** {
  63:lvgl/lvgl/src/core/lv_obj_style_gen.h ****     lv_style_value_t v = lv_obj_get_style_prop(obj, part, LV_STYLE_TRANSFORM_HEIGHT);
  64:lvgl/lvgl/src/core/lv_obj_style_gen.h ****     return (lv_coord_t)v.num;
  65:lvgl/lvgl/src/core/lv_obj_style_gen.h **** }
  66:lvgl/lvgl/src/core/lv_obj_style_gen.h **** 
  67:lvgl/lvgl/src/core/lv_obj_style_gen.h **** static inline lv_coord_t lv_obj_get_style_translate_x(const struct _lv_obj_t * obj, uint32_t part)
  68:lvgl/lvgl/src/core/lv_obj_style_gen.h **** {
  69:lvgl/lvgl/src/core/lv_obj_style_gen.h ****     lv_style_value_t v = lv_obj_get_style_prop(obj, part, LV_STYLE_TRANSLATE_X);
  70:lvgl/lvgl/src/core/lv_obj_style_gen.h ****     return (lv_coord_t)v.num;
  71:lvgl/lvgl/src/core/lv_obj_style_gen.h **** }
  72:lvgl/lvgl/src/core/lv_obj_style_gen.h **** 
  73:lvgl/lvgl/src/core/lv_obj_style_gen.h **** static inline lv_coord_t lv_obj_get_style_translate_y(const struct _lv_obj_t * obj, uint32_t part)
  74:lvgl/lvgl/src/core/lv_obj_style_gen.h **** {
  75:lvgl/lvgl/src/core/lv_obj_style_gen.h ****     lv_style_value_t v = lv_obj_get_style_prop(obj, part, LV_STYLE_TRANSLATE_Y);
  76:lvgl/lvgl/src/core/lv_obj_style_gen.h ****     return (lv_coord_t)v.num;
  77:lvgl/lvgl/src/core/lv_obj_style_gen.h **** }
  78:lvgl/lvgl/src/core/lv_obj_style_gen.h **** 
  79:lvgl/lvgl/src/core/lv_obj_style_gen.h **** static inline lv_coord_t lv_obj_get_style_transform_zoom(const struct _lv_obj_t * obj, uint32_t par
  80:lvgl/lvgl/src/core/lv_obj_style_gen.h **** {
  81:lvgl/lvgl/src/core/lv_obj_style_gen.h ****     lv_style_value_t v = lv_obj_get_style_prop(obj, part, LV_STYLE_TRANSFORM_ZOOM);
  82:lvgl/lvgl/src/core/lv_obj_style_gen.h ****     return (lv_coord_t)v.num;
  83:lvgl/lvgl/src/core/lv_obj_style_gen.h **** }
  84:lvgl/lvgl/src/core/lv_obj_style_gen.h **** 
  85:lvgl/lvgl/src/core/lv_obj_style_gen.h **** static inline lv_coord_t lv_obj_get_style_transform_angle(const struct _lv_obj_t * obj, uint32_t pa
  86:lvgl/lvgl/src/core/lv_obj_style_gen.h **** {
  87:lvgl/lvgl/src/core/lv_obj_style_gen.h ****     lv_style_value_t v = lv_obj_get_style_prop(obj, part, LV_STYLE_TRANSFORM_ANGLE);
  88:lvgl/lvgl/src/core/lv_obj_style_gen.h ****     return (lv_coord_t)v.num;
  89:lvgl/lvgl/src/core/lv_obj_style_gen.h **** }
  90:lvgl/lvgl/src/core/lv_obj_style_gen.h **** 
  91:lvgl/lvgl/src/core/lv_obj_style_gen.h **** static inline lv_coord_t lv_obj_get_style_pad_top(const struct _lv_obj_t * obj, uint32_t part)
  92:lvgl/lvgl/src/core/lv_obj_style_gen.h **** {
  93:lvgl/lvgl/src/core/lv_obj_style_gen.h ****     lv_style_value_t v = lv_obj_get_style_prop(obj, part, LV_STYLE_PAD_TOP);
  94:lvgl/lvgl/src/core/lv_obj_style_gen.h ****     return (lv_coord_t)v.num;
  95:lvgl/lvgl/src/core/lv_obj_style_gen.h **** }
  96:lvgl/lvgl/src/core/lv_obj_style_gen.h **** 
  97:lvgl/lvgl/src/core/lv_obj_style_gen.h **** static inline lv_coord_t lv_obj_get_style_pad_bottom(const struct _lv_obj_t * obj, uint32_t part)
  98:lvgl/lvgl/src/core/lv_obj_style_gen.h **** {
ARM GAS  C:\Users\gx\AppData\Local\Temp\cc2sgWsf.s 			page 62


  99:lvgl/lvgl/src/core/lv_obj_style_gen.h ****     lv_style_value_t v = lv_obj_get_style_prop(obj, part, LV_STYLE_PAD_BOTTOM);
 100:lvgl/lvgl/src/core/lv_obj_style_gen.h ****     return (lv_coord_t)v.num;
 101:lvgl/lvgl/src/core/lv_obj_style_gen.h **** }
 102:lvgl/lvgl/src/core/lv_obj_style_gen.h **** 
 103:lvgl/lvgl/src/core/lv_obj_style_gen.h **** static inline lv_coord_t lv_obj_get_style_pad_left(const struct _lv_obj_t * obj, uint32_t part)
 104:lvgl/lvgl/src/core/lv_obj_style_gen.h **** {
 105:lvgl/lvgl/src/core/lv_obj_style_gen.h ****     lv_style_value_t v = lv_obj_get_style_prop(obj, part, LV_STYLE_PAD_LEFT);
 106:lvgl/lvgl/src/core/lv_obj_style_gen.h ****     return (lv_coord_t)v.num;
 107:lvgl/lvgl/src/core/lv_obj_style_gen.h **** }
 108:lvgl/lvgl/src/core/lv_obj_style_gen.h **** 
 109:lvgl/lvgl/src/core/lv_obj_style_gen.h **** static inline lv_coord_t lv_obj_get_style_pad_right(const struct _lv_obj_t * obj, uint32_t part)
 110:lvgl/lvgl/src/core/lv_obj_style_gen.h **** {
 111:lvgl/lvgl/src/core/lv_obj_style_gen.h ****     lv_style_value_t v = lv_obj_get_style_prop(obj, part, LV_STYLE_PAD_RIGHT);
 112:lvgl/lvgl/src/core/lv_obj_style_gen.h ****     return (lv_coord_t)v.num;
 113:lvgl/lvgl/src/core/lv_obj_style_gen.h **** }
 114:lvgl/lvgl/src/core/lv_obj_style_gen.h **** 
 115:lvgl/lvgl/src/core/lv_obj_style_gen.h **** static inline lv_coord_t lv_obj_get_style_pad_row(const struct _lv_obj_t * obj, uint32_t part)
 116:lvgl/lvgl/src/core/lv_obj_style_gen.h **** {
 117:lvgl/lvgl/src/core/lv_obj_style_gen.h ****     lv_style_value_t v = lv_obj_get_style_prop(obj, part, LV_STYLE_PAD_ROW);
 118:lvgl/lvgl/src/core/lv_obj_style_gen.h ****     return (lv_coord_t)v.num;
 119:lvgl/lvgl/src/core/lv_obj_style_gen.h **** }
 120:lvgl/lvgl/src/core/lv_obj_style_gen.h **** 
 121:lvgl/lvgl/src/core/lv_obj_style_gen.h **** static inline lv_coord_t lv_obj_get_style_pad_column(const struct _lv_obj_t * obj, uint32_t part)
 122:lvgl/lvgl/src/core/lv_obj_style_gen.h **** {
 123:lvgl/lvgl/src/core/lv_obj_style_gen.h ****     lv_style_value_t v = lv_obj_get_style_prop(obj, part, LV_STYLE_PAD_COLUMN);
 124:lvgl/lvgl/src/core/lv_obj_style_gen.h ****     return (lv_coord_t)v.num;
 125:lvgl/lvgl/src/core/lv_obj_style_gen.h **** }
 126:lvgl/lvgl/src/core/lv_obj_style_gen.h **** 
 127:lvgl/lvgl/src/core/lv_obj_style_gen.h **** static inline lv_coord_t lv_obj_get_style_radius(const struct _lv_obj_t * obj, uint32_t part)
 128:lvgl/lvgl/src/core/lv_obj_style_gen.h **** {
 129:lvgl/lvgl/src/core/lv_obj_style_gen.h ****     lv_style_value_t v = lv_obj_get_style_prop(obj, part, LV_STYLE_RADIUS);
 130:lvgl/lvgl/src/core/lv_obj_style_gen.h ****     return (lv_coord_t)v.num;
 131:lvgl/lvgl/src/core/lv_obj_style_gen.h **** }
 132:lvgl/lvgl/src/core/lv_obj_style_gen.h **** 
 133:lvgl/lvgl/src/core/lv_obj_style_gen.h **** static inline bool lv_obj_get_style_clip_corner(const struct _lv_obj_t * obj, uint32_t part)
 134:lvgl/lvgl/src/core/lv_obj_style_gen.h **** {
 135:lvgl/lvgl/src/core/lv_obj_style_gen.h ****     lv_style_value_t v = lv_obj_get_style_prop(obj, part, LV_STYLE_CLIP_CORNER);
 136:lvgl/lvgl/src/core/lv_obj_style_gen.h ****     return (bool)v.num;
 137:lvgl/lvgl/src/core/lv_obj_style_gen.h **** }
 138:lvgl/lvgl/src/core/lv_obj_style_gen.h **** 
 139:lvgl/lvgl/src/core/lv_obj_style_gen.h **** static inline lv_opa_t lv_obj_get_style_opa(const struct _lv_obj_t * obj, uint32_t part)
 140:lvgl/lvgl/src/core/lv_obj_style_gen.h **** {
 141:lvgl/lvgl/src/core/lv_obj_style_gen.h ****     lv_style_value_t v = lv_obj_get_style_prop(obj, part, LV_STYLE_OPA);
 142:lvgl/lvgl/src/core/lv_obj_style_gen.h ****     return (lv_opa_t)v.num;
 143:lvgl/lvgl/src/core/lv_obj_style_gen.h **** }
 144:lvgl/lvgl/src/core/lv_obj_style_gen.h **** 
 145:lvgl/lvgl/src/core/lv_obj_style_gen.h **** static inline const lv_color_filter_dsc_t * lv_obj_get_style_color_filter_dsc(const struct _lv_obj_
 1857              		.loc 3 145 45 view .LVU547
 1858              	.LBB93:
 146:lvgl/lvgl/src/core/lv_obj_style_gen.h **** {
 147:lvgl/lvgl/src/core/lv_obj_style_gen.h ****     lv_style_value_t v = lv_obj_get_style_prop(obj, part, LV_STYLE_COLOR_FILTER_DSC);
 1859              		.loc 3 147 5 view .LVU548
 1860              		.loc 3 147 26 is_stmt 0 view .LVU549
 1861 000a 6322     		movs	r2, #99
 1862 000c FFF7FEFF 		bl	lv_obj_get_style_prop
 1863              	.LVL169:
 148:lvgl/lvgl/src/core/lv_obj_style_gen.h ****     return (const lv_color_filter_dsc_t *)v.ptr;
ARM GAS  C:\Users\gx\AppData\Local\Temp\cc2sgWsf.s 			page 63


 1864              		.loc 3 148 5 is_stmt 1 view .LVU550
 1865              		.loc 3 148 5 is_stmt 0 view .LVU551
 1866              	.LBE93:
 1867              	.LBE92:
 611:lvgl/lvgl/src/core/lv_obj_style.c ****         lv_opa_t f_opa = lv_obj_get_style_color_filter_opa(obj, part);
 1868              		.loc 1 611 5 is_stmt 1 view .LVU552
 611:lvgl/lvgl/src/core/lv_obj_style.c ****         lv_opa_t f_opa = lv_obj_get_style_color_filter_opa(obj, part);
 1869              		.loc 1 611 7 is_stmt 0 view .LVU553
 1870 0010 0746     		mov	r7, r0
 1871 0012 78B1     		cbz	r0, .L125
 611:lvgl/lvgl/src/core/lv_obj_style.c ****         lv_opa_t f_opa = lv_obj_get_style_color_filter_opa(obj, part);
 1872              		.loc 1 611 14 discriminator 1 view .LVU554
 1873 0014 0368     		ldr	r3, [r0]
 611:lvgl/lvgl/src/core/lv_obj_style.c ****         lv_opa_t f_opa = lv_obj_get_style_color_filter_opa(obj, part);
 1874              		.loc 1 611 10 discriminator 1 view .LVU555
 1875 0016 6BB1     		cbz	r3, .L125
 1876              	.LBB94:
 612:lvgl/lvgl/src/core/lv_obj_style.c ****         if(f_opa != 0) v.color = f->filter_cb(f, v.color, f_opa);
 1877              		.loc 1 612 9 is_stmt 1 view .LVU556
 1878              	.LVL170:
 1879              	.LBB95:
 1880              	.LBI95:
 149:lvgl/lvgl/src/core/lv_obj_style_gen.h **** }
 150:lvgl/lvgl/src/core/lv_obj_style_gen.h **** 
 151:lvgl/lvgl/src/core/lv_obj_style_gen.h **** static inline lv_opa_t lv_obj_get_style_color_filter_opa(const struct _lv_obj_t * obj, uint32_t par
 1881              		.loc 3 151 24 view .LVU557
 1882              	.LBB96:
 152:lvgl/lvgl/src/core/lv_obj_style_gen.h **** {
 153:lvgl/lvgl/src/core/lv_obj_style_gen.h ****     lv_style_value_t v = lv_obj_get_style_prop(obj, part, LV_STYLE_COLOR_FILTER_OPA);
 1883              		.loc 3 153 5 view .LVU558
 1884              		.loc 3 153 26 is_stmt 0 view .LVU559
 1885 0018 6422     		movs	r2, #100
 1886 001a 2946     		mov	r1, r5
 1887 001c 3046     		mov	r0, r6
 1888              	.LVL171:
 1889              		.loc 3 153 26 view .LVU560
 1890 001e FFF7FEFF 		bl	lv_obj_get_style_prop
 1891              	.LVL172:
 154:lvgl/lvgl/src/core/lv_obj_style_gen.h ****     return (lv_opa_t)v.num;
 1892              		.loc 3 154 5 is_stmt 1 view .LVU561
 1893              		.loc 3 154 5 is_stmt 0 view .LVU562
 1894              	.LBE96:
 1895              	.LBE95:
 613:lvgl/lvgl/src/core/lv_obj_style.c ****     }
 1896              		.loc 1 613 9 is_stmt 1 view .LVU563
 613:lvgl/lvgl/src/core/lv_obj_style.c ****     }
 1897              		.loc 1 613 11 is_stmt 0 view .LVU564
 1898 0022 10F0FF02 		ands	r2, r0, #255
 1899 0026 05D0     		beq	.L125
 613:lvgl/lvgl/src/core/lv_obj_style.c ****     }
 1900              		.loc 1 613 24 is_stmt 1 discriminator 1 view .LVU565
 613:lvgl/lvgl/src/core/lv_obj_style.c ****     }
 1901              		.loc 1 613 35 is_stmt 0 discriminator 1 view .LVU566
 1902 0028 3B68     		ldr	r3, [r7]
 613:lvgl/lvgl/src/core/lv_obj_style.c ****     }
 1903              		.loc 1 613 34 discriminator 1 view .LVU567
 1904 002a 2146     		mov	r1, r4	@ movhi
ARM GAS  C:\Users\gx\AppData\Local\Temp\cc2sgWsf.s 			page 64


 1905 002c 3846     		mov	r0, r7
 1906              	.LVL173:
 613:lvgl/lvgl/src/core/lv_obj_style.c ****     }
 1907              		.loc 1 613 34 discriminator 1 view .LVU568
 1908 002e 9847     		blx	r3
 1909              	.LVL174:
 1910 0030 60F30F04 		bfi	r4, r0, #0, #16
 1911              	.LVL175:
 1912              	.L125:
 613:lvgl/lvgl/src/core/lv_obj_style.c ****     }
 1913              		.loc 1 613 34 discriminator 1 view .LVU569
 1914              	.LBE94:
 615:lvgl/lvgl/src/core/lv_obj_style.c **** }
 1915              		.loc 1 615 5 is_stmt 1 view .LVU570
 615:lvgl/lvgl/src/core/lv_obj_style.c **** }
 1916              		.loc 1 615 12 is_stmt 0 view .LVU571
 1917 0034 2046     		mov	r0, r4
 1918              	.LVL176:
 1919              	.L124:
 616:lvgl/lvgl/src/core/lv_obj_style.c **** 
 1920              		.loc 1 616 1 view .LVU572
 1921 0036 F8BD     		pop	{r3, r4, r5, r6, r7, pc}
 1922              	.LVL177:
 1923              	.L127:
 609:lvgl/lvgl/src/core/lv_obj_style.c ****     const lv_color_filter_dsc_t * f = lv_obj_get_style_color_filter_dsc(obj, part);
 1924              		.loc 1 609 21 is_stmt 1 discriminator 1 view .LVU573
 609:lvgl/lvgl/src/core/lv_obj_style.c ****     const lv_color_filter_dsc_t * f = lv_obj_get_style_color_filter_dsc(obj, part);
 1925              		.loc 1 609 28 is_stmt 0 discriminator 1 view .LVU574
 1926 0038 1046     		mov	r0, r2
 1927              	.LVL178:
 609:lvgl/lvgl/src/core/lv_obj_style.c ****     const lv_color_filter_dsc_t * f = lv_obj_get_style_color_filter_dsc(obj, part);
 1928              		.loc 1 609 28 discriminator 1 view .LVU575
 1929 003a FCE7     		b	.L124
 1930              		.cfi_endproc
 1931              	.LFE178:
 1933              		.section	.rodata._lv_obj_style_create_transition.str1.4,"aMS",%progbits,1
 1934              		.align	2
 1935              	.LC4:
 1936 0000 74722021 		.ascii	"tr != NULL\000"
 1936      3D204E55 
 1936      4C4C00
 1937              		.section	.text._lv_obj_style_create_transition,"ax",%progbits
 1938              		.align	1
 1939              		.global	_lv_obj_style_create_transition
 1940              		.syntax unified
 1941              		.thumb
 1942              		.thumb_func
 1943              		.fpu fpv4-sp-d16
 1945              	_lv_obj_style_create_transition:
 1946              	.LVL179:
 1947              	.LFB168:
 299:lvgl/lvgl/src/core/lv_obj_style.c ****     trans_t * tr;
 1948              		.loc 1 299 1 is_stmt 1 view -0
 1949              		.cfi_startproc
 1950              		@ args = 4, pretend = 0, frame = 72
 1951              		@ frame_needed = 0, uses_anonymous_args = 0
 299:lvgl/lvgl/src/core/lv_obj_style.c ****     trans_t * tr;
ARM GAS  C:\Users\gx\AppData\Local\Temp\cc2sgWsf.s 			page 65


 1952              		.loc 1 299 1 is_stmt 0 view .LVU577
 1953 0000 2DE9F04F 		push	{r4, r5, r6, r7, r8, r9, r10, fp, lr}
 1954              	.LCFI26:
 1955              		.cfi_def_cfa_offset 36
 1956              		.cfi_offset 4, -36
 1957              		.cfi_offset 5, -32
 1958              		.cfi_offset 6, -28
 1959              		.cfi_offset 7, -24
 1960              		.cfi_offset 8, -20
 1961              		.cfi_offset 9, -16
 1962              		.cfi_offset 10, -12
 1963              		.cfi_offset 11, -8
 1964              		.cfi_offset 14, -4
 1965 0004 97B0     		sub	sp, sp, #92
 1966              	.LCFI27:
 1967              		.cfi_def_cfa_offset 128
 1968 0006 0446     		mov	r4, r0
 1969 0008 8946     		mov	r9, r1
 1970 000a 9346     		mov	fp, r2
 1971 000c 1F46     		mov	r7, r3
 1972 000e 209E     		ldr	r6, [sp, #128]
 300:lvgl/lvgl/src/core/lv_obj_style.c **** 
 1973              		.loc 1 300 5 is_stmt 1 view .LVU578
 303:lvgl/lvgl/src/core/lv_obj_style.c ****     obj->state = prev_state;
 1974              		.loc 1 303 5 view .LVU579
 303:lvgl/lvgl/src/core/lv_obj_style.c ****     obj->state = prev_state;
 1975              		.loc 1 303 21 is_stmt 0 view .LVU580
 1976 0010 90F82230 		ldrb	r3, [r0, #34]	@ zero_extendqisi2
 1977              	.LVL180:
 303:lvgl/lvgl/src/core/lv_obj_style.c ****     obj->state = prev_state;
 1978              		.loc 1 303 21 view .LVU581
 1979 0014 43F00403 		orr	r3, r3, #4
 1980 0018 80F82230 		strb	r3, [r0, #34]
 304:lvgl/lvgl/src/core/lv_obj_style.c ****     lv_style_value_t v1 = lv_obj_get_style_prop(obj, part, tr_dsc->prop);
 1981              		.loc 1 304 5 is_stmt 1 view .LVU582
 304:lvgl/lvgl/src/core/lv_obj_style.c ****     lv_style_value_t v1 = lv_obj_get_style_prop(obj, part, tr_dsc->prop);
 1982              		.loc 1 304 16 is_stmt 0 view .LVU583
 1983 001c 0284     		strh	r2, [r0, #32]	@ movhi
 305:lvgl/lvgl/src/core/lv_obj_style.c ****     obj->state = new_state;
 1984              		.loc 1 305 5 is_stmt 1 view .LVU584
 305:lvgl/lvgl/src/core/lv_obj_style.c ****     obj->state = new_state;
 1985              		.loc 1 305 27 is_stmt 0 view .LVU585
 1986 001e 3289     		ldrh	r2, [r6, #8]
 1987              	.LVL181:
 305:lvgl/lvgl/src/core/lv_obj_style.c ****     obj->state = new_state;
 1988              		.loc 1 305 27 view .LVU586
 1989 0020 FFF7FEFF 		bl	lv_obj_get_style_prop
 1990              	.LVL182:
 305:lvgl/lvgl/src/core/lv_obj_style.c ****     obj->state = new_state;
 1991              		.loc 1 305 27 view .LVU587
 1992 0024 0546     		mov	r5, r0
 1993              	.LVL183:
 306:lvgl/lvgl/src/core/lv_obj_style.c ****     lv_style_value_t v2 = lv_obj_get_style_prop(obj, part, tr_dsc->prop);
 1994              		.loc 1 306 5 is_stmt 1 view .LVU588
 306:lvgl/lvgl/src/core/lv_obj_style.c ****     lv_style_value_t v2 = lv_obj_get_style_prop(obj, part, tr_dsc->prop);
 1995              		.loc 1 306 16 is_stmt 0 view .LVU589
 1996 0026 2784     		strh	r7, [r4, #32]	@ movhi
ARM GAS  C:\Users\gx\AppData\Local\Temp\cc2sgWsf.s 			page 66


 307:lvgl/lvgl/src/core/lv_obj_style.c ****     obj->skip_trans = 0;
 1997              		.loc 1 307 5 is_stmt 1 view .LVU590
 307:lvgl/lvgl/src/core/lv_obj_style.c ****     obj->skip_trans = 0;
 1998              		.loc 1 307 27 is_stmt 0 view .LVU591
 1999 0028 3289     		ldrh	r2, [r6, #8]
 2000 002a 4946     		mov	r1, r9
 2001 002c 2046     		mov	r0, r4
 2002 002e FFF7FEFF 		bl	lv_obj_get_style_prop
 2003              	.LVL184:
 2004 0032 8046     		mov	r8, r0
 2005              	.LVL185:
 308:lvgl/lvgl/src/core/lv_obj_style.c **** 
 2006              		.loc 1 308 5 is_stmt 1 view .LVU592
 308:lvgl/lvgl/src/core/lv_obj_style.c **** 
 2007              		.loc 1 308 21 is_stmt 0 view .LVU593
 2008 0034 94F82230 		ldrb	r3, [r4, #34]	@ zero_extendqisi2
 2009 0038 6FF38203 		bfc	r3, #2, #1
 2010 003c 84F82230 		strb	r3, [r4, #34]
 310:lvgl/lvgl/src/core/lv_obj_style.c ****     obj->state = prev_state;
 2011              		.loc 1 310 5 is_stmt 1 view .LVU594
 2012              	.LVL186:
 310:lvgl/lvgl/src/core/lv_obj_style.c ****     obj->state = prev_state;
 2013              		.loc 1 310 20 is_stmt 0 view .LVU595
 2014 0040 8246     		mov	r10, r0
 2015              	.LVL187:
 310:lvgl/lvgl/src/core/lv_obj_style.c ****     obj->state = prev_state;
 2016              		.loc 1 310 7 view .LVU596
 2017 0042 8542     		cmp	r5, r0
 2018 0044 46D0     		beq	.L141
 2019              	.L129:
 311:lvgl/lvgl/src/core/lv_obj_style.c ****     v1 = lv_obj_get_style_prop(obj, part, tr_dsc->prop);
 2020              		.loc 1 311 5 is_stmt 1 view .LVU597
 311:lvgl/lvgl/src/core/lv_obj_style.c ****     v1 = lv_obj_get_style_prop(obj, part, tr_dsc->prop);
 2021              		.loc 1 311 16 is_stmt 0 view .LVU598
 2022 0046 A4F820B0 		strh	fp, [r4, #32]	@ movhi
 312:lvgl/lvgl/src/core/lv_obj_style.c ****     obj->state = new_state;
 2023              		.loc 1 312 5 is_stmt 1 view .LVU599
 312:lvgl/lvgl/src/core/lv_obj_style.c ****     obj->state = new_state;
 2024              		.loc 1 312 10 is_stmt 0 view .LVU600
 2025 004a 3289     		ldrh	r2, [r6, #8]
 2026 004c 4946     		mov	r1, r9
 2027 004e 2046     		mov	r0, r4
 2028              	.LVL188:
 312:lvgl/lvgl/src/core/lv_obj_style.c ****     obj->state = new_state;
 2029              		.loc 1 312 10 view .LVU601
 2030 0050 FFF7FEFF 		bl	lv_obj_get_style_prop
 2031              	.LVL189:
 2032 0054 0546     		mov	r5, r0
 2033              	.LVL190:
 313:lvgl/lvgl/src/core/lv_obj_style.c **** 
 2034              		.loc 1 313 5 is_stmt 1 view .LVU602
 313:lvgl/lvgl/src/core/lv_obj_style.c **** 
 2035              		.loc 1 313 16 is_stmt 0 view .LVU603
 2036 0056 2784     		strh	r7, [r4, #32]	@ movhi
 315:lvgl/lvgl/src/core/lv_obj_style.c ****     lv_style_set_prop(style_trans->style, tr_dsc->prop, v1);   /*Be sure `trans_style` has a valid 
 2037              		.loc 1 315 5 is_stmt 1 view .LVU604
 315:lvgl/lvgl/src/core/lv_obj_style.c ****     lv_style_set_prop(style_trans->style, tr_dsc->prop, v1);   /*Be sure `trans_style` has a valid 
ARM GAS  C:\Users\gx\AppData\Local\Temp\cc2sgWsf.s 			page 67


 2038              		.loc 1 315 37 is_stmt 0 view .LVU605
 2039 0058 4946     		mov	r1, r9
 2040 005a 2046     		mov	r0, r4
 2041 005c FFF7FEFF 		bl	get_trans_style
 2042              	.LVL191:
 316:lvgl/lvgl/src/core/lv_obj_style.c **** 
 2043              		.loc 1 316 5 is_stmt 1 view .LVU606
 316:lvgl/lvgl/src/core/lv_obj_style.c **** 
 2044              		.loc 1 316 5 is_stmt 0 view .LVU607
 2045 0060 2A46     		mov	r2, r5
 2046 0062 3189     		ldrh	r1, [r6, #8]
 2047 0064 0068     		ldr	r0, [r0]
 2048              	.LVL192:
 316:lvgl/lvgl/src/core/lv_obj_style.c **** 
 2049              		.loc 1 316 5 view .LVU608
 2050 0066 FFF7FEFF 		bl	lv_style_set_prop
 2051              	.LVL193:
 318:lvgl/lvgl/src/core/lv_obj_style.c ****         if(v1.num == LV_RADIUS_CIRCLE || v2.num == LV_RADIUS_CIRCLE) {
 2052              		.loc 1 318 5 is_stmt 1 view .LVU609
 318:lvgl/lvgl/src/core/lv_obj_style.c ****         if(v1.num == LV_RADIUS_CIRCLE || v2.num == LV_RADIUS_CIRCLE) {
 2053              		.loc 1 318 14 is_stmt 0 view .LVU610
 2054 006a 3389     		ldrh	r3, [r6, #8]
 318:lvgl/lvgl/src/core/lv_obj_style.c ****         if(v1.num == LV_RADIUS_CIRCLE || v2.num == LV_RADIUS_CIRCLE) {
 2055              		.loc 1 318 7 view .LVU611
 2056 006c 602B     		cmp	r3, #96
 2057 006e 33D0     		beq	.L142
 2058              	.L131:
 327:lvgl/lvgl/src/core/lv_obj_style.c ****     LV_ASSERT_MALLOC(tr);
 2059              		.loc 1 327 5 is_stmt 1 view .LVU612
 327:lvgl/lvgl/src/core/lv_obj_style.c ****     LV_ASSERT_MALLOC(tr);
 2060              		.loc 1 327 10 is_stmt 0 view .LVU613
 2061 0070 3548     		ldr	r0, .L145
 2062 0072 FFF7FEFF 		bl	_lv_ll_ins_head
 2063              	.LVL194:
 328:lvgl/lvgl/src/core/lv_obj_style.c ****     if(tr == NULL) return;
 2064              		.loc 1 328 5 is_stmt 1 view .LVU614
 328:lvgl/lvgl/src/core/lv_obj_style.c ****     if(tr == NULL) return;
 2065              		.loc 1 328 5 view .LVU615
 2066 0076 0746     		mov	r7, r0
 2067 0078 0028     		cmp	r0, #0
 2068 007a 57D0     		beq	.L143
 328:lvgl/lvgl/src/core/lv_obj_style.c ****     if(tr == NULL) return;
 2069              		.loc 1 328 5 view .LVU616
 328:lvgl/lvgl/src/core/lv_obj_style.c ****     if(tr == NULL) return;
 2070              		.loc 1 328 25 view .LVU617
 329:lvgl/lvgl/src/core/lv_obj_style.c ****     tr->start_value = v1;
 2071              		.loc 1 329 5 view .LVU618
 330:lvgl/lvgl/src/core/lv_obj_style.c ****     tr->end_value = v2;
 2072              		.loc 1 330 5 view .LVU619
 330:lvgl/lvgl/src/core/lv_obj_style.c ****     tr->end_value = v2;
 2073              		.loc 1 330 21 is_stmt 0 view .LVU620
 2074 007c C560     		str	r5, [r0, #12]
 331:lvgl/lvgl/src/core/lv_obj_style.c **** 
 2075              		.loc 1 331 5 is_stmt 1 view .LVU621
 2076              	.LVL195:
 331:lvgl/lvgl/src/core/lv_obj_style.c **** 
 2077              		.loc 1 331 19 is_stmt 0 view .LVU622
ARM GAS  C:\Users\gx\AppData\Local\Temp\cc2sgWsf.s 			page 68


 2078 007e C0F81080 		str	r8, [r0, #16]
 333:lvgl/lvgl/src/core/lv_obj_style.c ****         tr->obj = obj;
 2079              		.loc 1 333 5 is_stmt 1 view .LVU623
 2080              	.LBB97:
 334:lvgl/lvgl/src/core/lv_obj_style.c ****         tr->prop = tr_dsc->prop;
 2081              		.loc 1 334 9 view .LVU624
 334:lvgl/lvgl/src/core/lv_obj_style.c ****         tr->prop = tr_dsc->prop;
 2082              		.loc 1 334 17 is_stmt 0 view .LVU625
 2083 0082 0460     		str	r4, [r0]
 335:lvgl/lvgl/src/core/lv_obj_style.c ****         tr->selector = part;
 2084              		.loc 1 335 9 is_stmt 1 view .LVU626
 335:lvgl/lvgl/src/core/lv_obj_style.c ****         tr->selector = part;
 2085              		.loc 1 335 26 is_stmt 0 view .LVU627
 2086 0084 3389     		ldrh	r3, [r6, #8]
 335:lvgl/lvgl/src/core/lv_obj_style.c ****         tr->selector = part;
 2087              		.loc 1 335 18 view .LVU628
 2088 0086 8380     		strh	r3, [r0, #4]	@ movhi
 336:lvgl/lvgl/src/core/lv_obj_style.c **** 
 2089              		.loc 1 336 9 is_stmt 1 view .LVU629
 336:lvgl/lvgl/src/core/lv_obj_style.c **** 
 2090              		.loc 1 336 22 is_stmt 0 view .LVU630
 2091 0088 C0F80890 		str	r9, [r0, #8]
 338:lvgl/lvgl/src/core/lv_obj_style.c ****         lv_anim_init(&a);
 2092              		.loc 1 338 9 is_stmt 1 view .LVU631
 339:lvgl/lvgl/src/core/lv_obj_style.c ****         lv_anim_set_var(&a, tr);
 2093              		.loc 1 339 9 view .LVU632
 2094 008c 05A8     		add	r0, sp, #20
 2095              	.LVL196:
 339:lvgl/lvgl/src/core/lv_obj_style.c ****         lv_anim_set_var(&a, tr);
 2096              		.loc 1 339 9 is_stmt 0 view .LVU633
 2097 008e FFF7FEFF 		bl	lv_anim_init
 2098              	.LVL197:
 340:lvgl/lvgl/src/core/lv_obj_style.c ****         lv_anim_set_exec_cb(&a, trans_anim_cb);
 2099              		.loc 1 340 9 is_stmt 1 view .LVU634
 2100              	.LBB98:
 2101              	.LBI98:
 119:lvgl/lvgl/src/core/../misc/lv_anim.h **** {
 2102              		.loc 2 119 20 view .LVU635
 2103              	.LBB99:
 121:lvgl/lvgl/src/core/../misc/lv_anim.h **** }
 2104              		.loc 2 121 5 view .LVU636
 121:lvgl/lvgl/src/core/../misc/lv_anim.h **** }
 2105              		.loc 2 121 12 is_stmt 0 view .LVU637
 2106 0092 0597     		str	r7, [sp, #20]
 2107              	.LVL198:
 121:lvgl/lvgl/src/core/../misc/lv_anim.h **** }
 2108              		.loc 2 121 12 view .LVU638
 2109              	.LBE99:
 2110              	.LBE98:
 341:lvgl/lvgl/src/core/lv_obj_style.c ****         lv_anim_set_start_cb(&a, trans_anim_start_cb);
 2111              		.loc 1 341 9 is_stmt 1 view .LVU639
 2112              	.LBB100:
 2113              	.LBI100:
 131:lvgl/lvgl/src/core/../misc/lv_anim.h **** {
 2114              		.loc 2 131 20 view .LVU640
 2115              	.LBB101:
 133:lvgl/lvgl/src/core/../misc/lv_anim.h **** }
ARM GAS  C:\Users\gx\AppData\Local\Temp\cc2sgWsf.s 			page 69


 2116              		.loc 2 133 5 view .LVU641
 133:lvgl/lvgl/src/core/../misc/lv_anim.h **** }
 2117              		.loc 2 133 16 is_stmt 0 view .LVU642
 2118 0094 2D4B     		ldr	r3, .L145+4
 2119 0096 0693     		str	r3, [sp, #24]
 2120              	.LVL199:
 133:lvgl/lvgl/src/core/../misc/lv_anim.h **** }
 2121              		.loc 2 133 16 view .LVU643
 2122              	.LBE101:
 2123              	.LBE100:
 342:lvgl/lvgl/src/core/lv_obj_style.c ****         lv_anim_set_ready_cb(&a, trans_anim_ready_cb);
 2124              		.loc 1 342 9 is_stmt 1 view .LVU644
 2125              	.LBB102:
 2126              	.LBI102:
 199:lvgl/lvgl/src/core/../misc/lv_anim.h **** {
 2127              		.loc 2 199 20 view .LVU645
 2128              	.LBB103:
 201:lvgl/lvgl/src/core/../misc/lv_anim.h **** }
 2129              		.loc 2 201 5 view .LVU646
 201:lvgl/lvgl/src/core/../misc/lv_anim.h **** }
 2130              		.loc 2 201 17 is_stmt 0 view .LVU647
 2131 0098 2D4B     		ldr	r3, .L145+8
 2132 009a 0793     		str	r3, [sp, #28]
 2133              	.LVL200:
 201:lvgl/lvgl/src/core/../misc/lv_anim.h **** }
 2134              		.loc 2 201 17 view .LVU648
 2135              	.LBE103:
 2136              	.LBE102:
 343:lvgl/lvgl/src/core/lv_obj_style.c ****         lv_anim_set_values(&a, 0x00, 0xFF);
 2137              		.loc 1 343 9 is_stmt 1 view .LVU649
 2138              	.LBB104:
 2139              	.LBI104:
 220:lvgl/lvgl/src/core/../misc/lv_anim.h **** {
 2140              		.loc 2 220 20 view .LVU650
 2141              	.LBB105:
 2142              		.loc 2 222 5 view .LVU651
 2143              		.loc 2 222 17 is_stmt 0 view .LVU652
 2144 009c 2D4B     		ldr	r3, .L145+12
 2145 009e 0893     		str	r3, [sp, #32]
 2146              	.LVL201:
 2147              		.loc 2 222 17 view .LVU653
 2148              	.LBE105:
 2149              	.LBE104:
 344:lvgl/lvgl/src/core/lv_obj_style.c ****         lv_anim_set_time(&a, tr_dsc->time);
 2150              		.loc 1 344 9 is_stmt 1 view .LVU654
 2151              	.LBB106:
 2152              	.LBI106:
 162:lvgl/lvgl/src/core/../misc/lv_anim.h **** {
 2153              		.loc 2 162 20 view .LVU655
 2154              	.LBB107:
 164:lvgl/lvgl/src/core/../misc/lv_anim.h ****     a->current_value = start;
 2155              		.loc 2 164 5 view .LVU656
 164:lvgl/lvgl/src/core/../misc/lv_anim.h ****     a->current_value = start;
 2156              		.loc 2 164 20 is_stmt 0 view .LVU657
 2157 00a0 0023     		movs	r3, #0
 2158 00a2 0C93     		str	r3, [sp, #48]
 165:lvgl/lvgl/src/core/../misc/lv_anim.h ****     a->end_value = end;
ARM GAS  C:\Users\gx\AppData\Local\Temp\cc2sgWsf.s 			page 70


 2159              		.loc 2 165 5 is_stmt 1 view .LVU658
 165:lvgl/lvgl/src/core/../misc/lv_anim.h ****     a->end_value = end;
 2160              		.loc 2 165 22 is_stmt 0 view .LVU659
 2161 00a4 0D93     		str	r3, [sp, #52]
 166:lvgl/lvgl/src/core/../misc/lv_anim.h **** }
 2162              		.loc 2 166 5 is_stmt 1 view .LVU660
 166:lvgl/lvgl/src/core/../misc/lv_anim.h **** }
 2163              		.loc 2 166 18 is_stmt 0 view .LVU661
 2164 00a6 FF22     		movs	r2, #255
 2165 00a8 0E92     		str	r2, [sp, #56]
 2166              	.LVL202:
 166:lvgl/lvgl/src/core/../misc/lv_anim.h **** }
 2167              		.loc 2 166 18 view .LVU662
 2168              	.LBE107:
 2169              	.LBE106:
 345:lvgl/lvgl/src/core/lv_obj_style.c ****         lv_anim_set_delay(&a, tr_dsc->delay);
 2170              		.loc 1 345 9 is_stmt 1 view .LVU663
 345:lvgl/lvgl/src/core/lv_obj_style.c ****         lv_anim_set_delay(&a, tr_dsc->delay);
 2171              		.loc 1 345 36 is_stmt 0 view .LVU664
 2172 00aa 3288     		ldrh	r2, [r6]
 2173              	.LVL203:
 2174              	.LBB108:
 2175              	.LBI108:
 141:lvgl/lvgl/src/core/../misc/lv_anim.h **** {
 2176              		.loc 2 141 20 is_stmt 1 view .LVU665
 2177              	.LBB109:
 143:lvgl/lvgl/src/core/../misc/lv_anim.h **** }
 2178              		.loc 2 143 5 view .LVU666
 143:lvgl/lvgl/src/core/../misc/lv_anim.h **** }
 2179              		.loc 2 143 13 is_stmt 0 view .LVU667
 2180 00ac 0F92     		str	r2, [sp, #60]
 2181              	.LVL204:
 143:lvgl/lvgl/src/core/../misc/lv_anim.h **** }
 2182              		.loc 2 143 13 view .LVU668
 2183              	.LBE109:
 2184              	.LBE108:
 346:lvgl/lvgl/src/core/lv_obj_style.c ****         lv_anim_set_path_cb(&a, tr_dsc->path_cb);
 2185              		.loc 1 346 9 is_stmt 1 view .LVU669
 346:lvgl/lvgl/src/core/lv_obj_style.c ****         lv_anim_set_path_cb(&a, tr_dsc->path_cb);
 2186              		.loc 1 346 37 is_stmt 0 view .LVU670
 2187 00ae 7288     		ldrh	r2, [r6, #2]
 2188              	.LVL205:
 2189              	.LBB110:
 2190              	.LBI110:
 151:lvgl/lvgl/src/core/../misc/lv_anim.h **** {
 2191              		.loc 2 151 20 is_stmt 1 view .LVU671
 2192              	.LBB111:
 153:lvgl/lvgl/src/core/../misc/lv_anim.h **** }
 2193              		.loc 2 153 5 view .LVU672
 153:lvgl/lvgl/src/core/../misc/lv_anim.h **** }
 2194              		.loc 2 153 19 is_stmt 0 view .LVU673
 2195 00b0 5242     		rsbs	r2, r2, #0
 2196              	.LVL206:
 153:lvgl/lvgl/src/core/../misc/lv_anim.h **** }
 2197              		.loc 2 153 17 view .LVU674
 2198 00b2 1092     		str	r2, [sp, #64]
 2199              	.LVL207:
ARM GAS  C:\Users\gx\AppData\Local\Temp\cc2sgWsf.s 			page 71


 153:lvgl/lvgl/src/core/../misc/lv_anim.h **** }
 2200              		.loc 2 153 17 view .LVU675
 2201              	.LBE111:
 2202              	.LBE110:
 347:lvgl/lvgl/src/core/lv_obj_style.c ****         lv_anim_set_early_apply(&a, false);
 2203              		.loc 1 347 9 is_stmt 1 view .LVU676
 2204 00b4 F268     		ldr	r2, [r6, #12]
 2205              	.LVL208:
 2206              	.LBB112:
 2207              	.LBI112:
 189:lvgl/lvgl/src/core/../misc/lv_anim.h **** {
 2208              		.loc 2 189 20 view .LVU677
 2209              	.LBB113:
 191:lvgl/lvgl/src/core/../misc/lv_anim.h **** }
 2210              		.loc 2 191 5 view .LVU678
 191:lvgl/lvgl/src/core/../misc/lv_anim.h **** }
 2211              		.loc 2 191 16 is_stmt 0 view .LVU679
 2212 00b6 0B92     		str	r2, [sp, #44]
 2213              	.LVL209:
 191:lvgl/lvgl/src/core/../misc/lv_anim.h **** }
 2214              		.loc 2 191 16 view .LVU680
 2215              	.LBE113:
 2216              	.LBE112:
 348:lvgl/lvgl/src/core/lv_obj_style.c **** #if LV_USE_USER_DATA
 2217              		.loc 1 348 9 is_stmt 1 view .LVU681
 2218              	.LBB114:
 2219              	.LBI114:
 223:lvgl/lvgl/src/core/../misc/lv_anim.h **** }
 224:lvgl/lvgl/src/core/../misc/lv_anim.h **** /**
 225:lvgl/lvgl/src/core/../misc/lv_anim.h ****  * Make the animation to play back to when the forward direction is ready
 226:lvgl/lvgl/src/core/../misc/lv_anim.h ****  * @param a         pointer to an initialized `lv_anim_t` variable
 227:lvgl/lvgl/src/core/../misc/lv_anim.h ****  * @param time      the duration of the playback animation in in milliseconds. 0: disable playback
 228:lvgl/lvgl/src/core/../misc/lv_anim.h ****  */
 229:lvgl/lvgl/src/core/../misc/lv_anim.h **** static inline void lv_anim_set_playback_time(lv_anim_t * a, uint32_t time)
 230:lvgl/lvgl/src/core/../misc/lv_anim.h **** {
 231:lvgl/lvgl/src/core/../misc/lv_anim.h ****     a->playback_time = time;
 232:lvgl/lvgl/src/core/../misc/lv_anim.h **** }
 233:lvgl/lvgl/src/core/../misc/lv_anim.h **** 
 234:lvgl/lvgl/src/core/../misc/lv_anim.h **** /**
 235:lvgl/lvgl/src/core/../misc/lv_anim.h ****  * Make the animation to play back to when the forward direction is ready
 236:lvgl/lvgl/src/core/../misc/lv_anim.h ****  * @param a         pointer to an initialized `lv_anim_t` variable
 237:lvgl/lvgl/src/core/../misc/lv_anim.h ****  * @param delay     delay in milliseconds before starting the playback animation.
 238:lvgl/lvgl/src/core/../misc/lv_anim.h ****  */
 239:lvgl/lvgl/src/core/../misc/lv_anim.h **** static inline void lv_anim_set_playback_delay(lv_anim_t * a, uint32_t delay)
 240:lvgl/lvgl/src/core/../misc/lv_anim.h **** {
 241:lvgl/lvgl/src/core/../misc/lv_anim.h ****     a->playback_delay = delay;
 242:lvgl/lvgl/src/core/../misc/lv_anim.h **** }
 243:lvgl/lvgl/src/core/../misc/lv_anim.h **** 
 244:lvgl/lvgl/src/core/../misc/lv_anim.h **** /**
 245:lvgl/lvgl/src/core/../misc/lv_anim.h ****  * Make the animation repeat itself.
 246:lvgl/lvgl/src/core/../misc/lv_anim.h ****  * @param a         pointer to an initialized `lv_anim_t` variable
 247:lvgl/lvgl/src/core/../misc/lv_anim.h ****  * @param cnt       repeat count or `LV_ANIM_REPEAT_INFINITE` for infinite repetition. 0: to disabl
 248:lvgl/lvgl/src/core/../misc/lv_anim.h ****  */
 249:lvgl/lvgl/src/core/../misc/lv_anim.h **** static inline void lv_anim_set_repeat_count(lv_anim_t * a, uint16_t cnt)
 250:lvgl/lvgl/src/core/../misc/lv_anim.h **** {
 251:lvgl/lvgl/src/core/../misc/lv_anim.h ****     a->repeat_cnt = cnt;
 252:lvgl/lvgl/src/core/../misc/lv_anim.h **** }
ARM GAS  C:\Users\gx\AppData\Local\Temp\cc2sgWsf.s 			page 72


 253:lvgl/lvgl/src/core/../misc/lv_anim.h **** 
 254:lvgl/lvgl/src/core/../misc/lv_anim.h **** /**
 255:lvgl/lvgl/src/core/../misc/lv_anim.h ****  * Set a delay before repeating the animation.
 256:lvgl/lvgl/src/core/../misc/lv_anim.h ****  * @param a         pointer to an initialized `lv_anim_t` variable
 257:lvgl/lvgl/src/core/../misc/lv_anim.h ****  * @param delay     delay in milliseconds before repeating the animation.
 258:lvgl/lvgl/src/core/../misc/lv_anim.h ****  */
 259:lvgl/lvgl/src/core/../misc/lv_anim.h **** static inline void lv_anim_set_repeat_delay(lv_anim_t * a, uint32_t delay)
 260:lvgl/lvgl/src/core/../misc/lv_anim.h **** {
 261:lvgl/lvgl/src/core/../misc/lv_anim.h ****     a->repeat_delay = delay;
 262:lvgl/lvgl/src/core/../misc/lv_anim.h **** }
 263:lvgl/lvgl/src/core/../misc/lv_anim.h **** 
 264:lvgl/lvgl/src/core/../misc/lv_anim.h **** /**
 265:lvgl/lvgl/src/core/../misc/lv_anim.h ****  * Set a whether the animation's should be applied immediately or only when the delay expired.
 266:lvgl/lvgl/src/core/../misc/lv_anim.h ****  * @param a         pointer to an initialized `lv_anim_t` variable
 267:lvgl/lvgl/src/core/../misc/lv_anim.h ****  * @param en        true: apply the start value immediately in `lv_anim_start`;
 268:lvgl/lvgl/src/core/../misc/lv_anim.h ****  *                  false: apply the start value only when `delay` ms is elapsed and the animations
 269:lvgl/lvgl/src/core/../misc/lv_anim.h ****  */
 270:lvgl/lvgl/src/core/../misc/lv_anim.h **** static inline void lv_anim_set_early_apply(lv_anim_t * a, bool en)
 2220              		.loc 2 270 20 view .LVU682
 2221              	.LBB115:
 271:lvgl/lvgl/src/core/../misc/lv_anim.h **** {
 272:lvgl/lvgl/src/core/../misc/lv_anim.h ****     a->early_apply = en;
 2222              		.loc 2 272 5 view .LVU683
 2223              		.loc 2 272 20 is_stmt 0 view .LVU684
 2224 00b8 9DF85220 		ldrb	r2, [sp, #82]	@ zero_extendqisi2
 2225 00bc 63F30002 		bfi	r2, r3, #0, #1
 2226 00c0 8DF85220 		strb	r2, [sp, #82]
 2227              	.LVL210:
 2228              		.loc 2 272 20 view .LVU685
 2229              	.LBE115:
 2230              	.LBE114:
 350:lvgl/lvgl/src/core/lv_obj_style.c **** #endif
 2231              		.loc 1 350 9 is_stmt 1 view .LVU686
 350:lvgl/lvgl/src/core/lv_obj_style.c **** #endif
 2232              		.loc 1 350 29 is_stmt 0 view .LVU687
 2233 00c4 3369     		ldr	r3, [r6, #16]
 350:lvgl/lvgl/src/core/lv_obj_style.c **** #endif
 2234              		.loc 1 350 21 view .LVU688
 2235 00c6 0A93     		str	r3, [sp, #40]
 352:lvgl/lvgl/src/core/lv_obj_style.c ****     }
 2236              		.loc 1 352 9 is_stmt 1 view .LVU689
 2237 00c8 05A8     		add	r0, sp, #20
 2238 00ca FFF7FEFF 		bl	lv_anim_start
 2239              	.LVL211:
 2240              	.L128:
 352:lvgl/lvgl/src/core/lv_obj_style.c ****     }
 2241              		.loc 1 352 9 is_stmt 0 view .LVU690
 2242              	.LBE97:
 354:lvgl/lvgl/src/core/lv_obj_style.c **** 
 2243              		.loc 1 354 1 view .LVU691
 2244 00ce 17B0     		add	sp, sp, #92
 2245              	.LCFI28:
 2246              		.cfi_remember_state
 2247              		.cfi_def_cfa_offset 36
 2248              		@ sp needed
 2249 00d0 BDE8F08F 		pop	{r4, r5, r6, r7, r8, r9, r10, fp, pc}
 2250              	.LVL212:
ARM GAS  C:\Users\gx\AppData\Local\Temp\cc2sgWsf.s 			page 73


 2251              	.L141:
 2252              	.LCFI29:
 2253              		.cfi_restore_state
 310:lvgl/lvgl/src/core/lv_obj_style.c ****     obj->state = prev_state;
 2254              		.loc 1 310 45 discriminator 1 view .LVU692
 2255 00d4 B7D1     		bne	.L129
 2256 00d6 FAE7     		b	.L128
 2257              	.LVL213:
 2258              	.L142:
 319:lvgl/lvgl/src/core/lv_obj_style.c ****             lv_coord_t whalf = lv_obj_get_width(obj) / 2;
 2259              		.loc 1 319 9 is_stmt 1 view .LVU693
 319:lvgl/lvgl/src/core/lv_obj_style.c ****             lv_coord_t whalf = lv_obj_get_width(obj) / 2;
 2260              		.loc 1 319 14 is_stmt 0 view .LVU694
 2261 00d8 AB46     		mov	fp, r5
 319:lvgl/lvgl/src/core/lv_obj_style.c ****             lv_coord_t whalf = lv_obj_get_width(obj) / 2;
 2262              		.loc 1 319 11 view .LVU695
 2263 00da 47F6FF73 		movw	r3, #32767
 2264 00de 9D42     		cmp	r5, r3
 2265 00e0 01D0     		beq	.L132
 319:lvgl/lvgl/src/core/lv_obj_style.c ****             lv_coord_t whalf = lv_obj_get_width(obj) / 2;
 2266              		.loc 1 319 39 discriminator 1 view .LVU696
 2267 00e2 9A45     		cmp	r10, r3
 2268 00e4 C4D1     		bne	.L131
 2269              	.L132:
 2270              	.LBB116:
 320:lvgl/lvgl/src/core/lv_obj_style.c ****             lv_coord_t hhalf = lv_obj_get_width(obj) / 2;
 2271              		.loc 1 320 13 is_stmt 1 view .LVU697
 320:lvgl/lvgl/src/core/lv_obj_style.c ****             lv_coord_t hhalf = lv_obj_get_width(obj) / 2;
 2272              		.loc 1 320 32 is_stmt 0 view .LVU698
 2273 00e6 2046     		mov	r0, r4
 2274 00e8 FFF7FEFF 		bl	lv_obj_get_width
 2275              	.LVL214:
 320:lvgl/lvgl/src/core/lv_obj_style.c ****             lv_coord_t hhalf = lv_obj_get_width(obj) / 2;
 2276              		.loc 1 320 24 view .LVU699
 2277 00ec 00EBD070 		add	r0, r0, r0, lsr #31
 2278 00f0 40F34F07 		sbfx	r7, r0, #1, #16
 2279              	.LVL215:
 321:lvgl/lvgl/src/core/lv_obj_style.c ****             if(v1.num == LV_RADIUS_CIRCLE) v1.num = LV_MIN(whalf + 1, hhalf + 1);
 2280              		.loc 1 321 13 is_stmt 1 view .LVU700
 321:lvgl/lvgl/src/core/lv_obj_style.c ****             if(v1.num == LV_RADIUS_CIRCLE) v1.num = LV_MIN(whalf + 1, hhalf + 1);
 2281              		.loc 1 321 32 is_stmt 0 view .LVU701
 2282 00f4 2046     		mov	r0, r4
 2283 00f6 FFF7FEFF 		bl	lv_obj_get_width
 2284              	.LVL216:
 321:lvgl/lvgl/src/core/lv_obj_style.c ****             if(v1.num == LV_RADIUS_CIRCLE) v1.num = LV_MIN(whalf + 1, hhalf + 1);
 2285              		.loc 1 321 24 view .LVU702
 2286 00fa 00EBD070 		add	r0, r0, r0, lsr #31
 2287 00fe 40F34F03 		sbfx	r3, r0, #1, #16
 2288              	.LVL217:
 322:lvgl/lvgl/src/core/lv_obj_style.c ****             if(v2.num == LV_RADIUS_CIRCLE) v2.num = LV_MIN(whalf + 1, hhalf + 1);
 2289              		.loc 1 322 13 is_stmt 1 view .LVU703
 322:lvgl/lvgl/src/core/lv_obj_style.c ****             if(v2.num == LV_RADIUS_CIRCLE) v2.num = LV_MIN(whalf + 1, hhalf + 1);
 2290              		.loc 1 322 15 is_stmt 0 view .LVU704
 2291 0102 47F6FF72 		movw	r2, #32767
 2292 0106 9345     		cmp	fp, r2
 2293 0108 08D0     		beq	.L144
 2294              	.L133:
ARM GAS  C:\Users\gx\AppData\Local\Temp\cc2sgWsf.s 			page 74


 323:lvgl/lvgl/src/core/lv_obj_style.c ****         }
 2295              		.loc 1 323 13 is_stmt 1 view .LVU705
 323:lvgl/lvgl/src/core/lv_obj_style.c ****         }
 2296              		.loc 1 323 15 is_stmt 0 view .LVU706
 2297 010a 47F6FF72 		movw	r2, #32767
 2298 010e 9245     		cmp	r10, r2
 2299 0110 AED1     		bne	.L131
 323:lvgl/lvgl/src/core/lv_obj_style.c ****         }
 2300              		.loc 1 323 44 is_stmt 1 discriminator 1 view .LVU707
 323:lvgl/lvgl/src/core/lv_obj_style.c ****         }
 2301              		.loc 1 323 53 is_stmt 0 discriminator 1 view .LVU708
 2302 0112 9F42     		cmp	r7, r3
 2303 0114 08DA     		bge	.L136
 323:lvgl/lvgl/src/core/lv_obj_style.c ****         }
 2304              		.loc 1 323 53 discriminator 2 view .LVU709
 2305 0116 7B1C     		adds	r3, r7, #1
 2306              	.LVL218:
 2307              	.L137:
 323:lvgl/lvgl/src/core/lv_obj_style.c ****         }
 2308              		.loc 1 323 51 discriminator 5 view .LVU710
 2309 0118 9846     		mov	r8, r3
 323:lvgl/lvgl/src/core/lv_obj_style.c ****         }
 2310              		.loc 1 323 51 discriminator 5 view .LVU711
 2311 011a A9E7     		b	.L131
 2312              	.LVL219:
 2313              	.L144:
 322:lvgl/lvgl/src/core/lv_obj_style.c ****             if(v2.num == LV_RADIUS_CIRCLE) v2.num = LV_MIN(whalf + 1, hhalf + 1);
 2314              		.loc 1 322 44 is_stmt 1 discriminator 1 view .LVU712
 322:lvgl/lvgl/src/core/lv_obj_style.c ****             if(v2.num == LV_RADIUS_CIRCLE) v2.num = LV_MIN(whalf + 1, hhalf + 1);
 2315              		.loc 1 322 53 is_stmt 0 discriminator 1 view .LVU713
 2316 011c 9F42     		cmp	r7, r3
 2317 011e 01DA     		bge	.L134
 322:lvgl/lvgl/src/core/lv_obj_style.c ****             if(v2.num == LV_RADIUS_CIRCLE) v2.num = LV_MIN(whalf + 1, hhalf + 1);
 2318              		.loc 1 322 53 discriminator 2 view .LVU714
 2319 0120 7D1C     		adds	r5, r7, #1
 2320              	.LVL220:
 322:lvgl/lvgl/src/core/lv_obj_style.c ****             if(v2.num == LV_RADIUS_CIRCLE) v2.num = LV_MIN(whalf + 1, hhalf + 1);
 2321              		.loc 1 322 53 discriminator 2 view .LVU715
 2322 0122 F2E7     		b	.L133
 2323              	.LVL221:
 2324              	.L134:
 322:lvgl/lvgl/src/core/lv_obj_style.c ****             if(v2.num == LV_RADIUS_CIRCLE) v2.num = LV_MIN(whalf + 1, hhalf + 1);
 2325              		.loc 1 322 53 discriminator 3 view .LVU716
 2326 0124 5D1C     		adds	r5, r3, #1
 2327              	.LVL222:
 322:lvgl/lvgl/src/core/lv_obj_style.c ****             if(v2.num == LV_RADIUS_CIRCLE) v2.num = LV_MIN(whalf + 1, hhalf + 1);
 2328              		.loc 1 322 53 discriminator 3 view .LVU717
 2329 0126 F0E7     		b	.L133
 2330              	.LVL223:
 2331              	.L136:
 323:lvgl/lvgl/src/core/lv_obj_style.c ****         }
 2332              		.loc 1 323 53 discriminator 3 view .LVU718
 2333 0128 0133     		adds	r3, r3, #1
 2334              	.LVL224:
 323:lvgl/lvgl/src/core/lv_obj_style.c ****         }
 2335              		.loc 1 323 53 discriminator 3 view .LVU719
 2336 012a F5E7     		b	.L137
ARM GAS  C:\Users\gx\AppData\Local\Temp\cc2sgWsf.s 			page 75


 2337              	.LVL225:
 2338              	.L143:
 323:lvgl/lvgl/src/core/lv_obj_style.c ****         }
 2339              		.loc 1 323 53 discriminator 3 view .LVU720
 2340              	.LBE116:
 328:lvgl/lvgl/src/core/lv_obj_style.c ****     if(tr == NULL) return;
 2341              		.loc 1 328 5 is_stmt 1 discriminator 1 view .LVU721
 2342 012c 0A4B     		ldr	r3, .L145+16
 2343 012e 0293     		str	r3, [sp, #8]
 2344 0130 0A4B     		ldr	r3, .L145+20
 2345 0132 0193     		str	r3, [sp, #4]
 2346 0134 0A4B     		ldr	r3, .L145+24
 2347 0136 0093     		str	r3, [sp]
 2348 0138 0A4B     		ldr	r3, .L145+28
 2349 013a 4FF4A472 		mov	r2, #328
 2350 013e 0A49     		ldr	r1, .L145+32
 2351 0140 0320     		movs	r0, #3
 2352              	.LVL226:
 328:lvgl/lvgl/src/core/lv_obj_style.c ****     if(tr == NULL) return;
 2353              		.loc 1 328 5 is_stmt 0 discriminator 1 view .LVU722
 2354 0142 FFF7FEFF 		bl	_lv_log_add
 2355              	.LVL227:
 2356              	.L139:
 328:lvgl/lvgl/src/core/lv_obj_style.c ****     if(tr == NULL) return;
 2357              		.loc 1 328 5 is_stmt 1 discriminator 1 view .LVU723
 328:lvgl/lvgl/src/core/lv_obj_style.c ****     if(tr == NULL) return;
 2358              		.loc 1 328 5 discriminator 1 view .LVU724
 328:lvgl/lvgl/src/core/lv_obj_style.c ****     if(tr == NULL) return;
 2359              		.loc 1 328 5 discriminator 1 view .LVU725
 328:lvgl/lvgl/src/core/lv_obj_style.c ****     if(tr == NULL) return;
 2360              		.loc 1 328 5 discriminator 1 view .LVU726
 2361 0146 FEE7     		b	.L139
 2362              	.L146:
 2363              		.align	2
 2364              	.L145:
 2365 0148 00000000 		.word	_lv_obj_style_trans_ll
 2366 014c 00000000 		.word	trans_anim_cb
 2367 0150 00000000 		.word	trans_anim_start_cb
 2368 0154 00000000 		.word	trans_anim_ready_cb
 2369 0158 24000000 		.word	.LC1
 2370 015c 00000000 		.word	.LC4
 2371 0160 48000000 		.word	.LC3
 2372 0164 00000000 		.word	.LANCHOR2
 2373 0168 00000000 		.word	.LC0
 2374              		.cfi_endproc
 2375              	.LFE168:
 2377              		.section	.text.lv_obj_refresh_style,"ax",%progbits
 2378              		.align	1
 2379              		.global	lv_obj_refresh_style
 2380              		.syntax unified
 2381              		.thumb
 2382              		.thumb_func
 2383              		.fpu fpv4-sp-d16
 2385              	lv_obj_refresh_style:
 2386              	.LVL228:
 2387              	.LFB162:
 169:lvgl/lvgl/src/core/lv_obj_style.c ****     LV_ASSERT_OBJ(obj, MY_CLASS);
ARM GAS  C:\Users\gx\AppData\Local\Temp\cc2sgWsf.s 			page 76


 2388              		.loc 1 169 1 view -0
 2389              		.cfi_startproc
 2390              		@ args = 0, pretend = 0, frame = 0
 2391              		@ frame_needed = 0, uses_anonymous_args = 0
 170:lvgl/lvgl/src/core/lv_obj_style.c **** 
 2392              		.loc 1 170 5 view .LVU728
 170:lvgl/lvgl/src/core/lv_obj_style.c **** 
 2393              		.loc 1 170 5 view .LVU729
 170:lvgl/lvgl/src/core/lv_obj_style.c **** 
 2394              		.loc 1 170 5 view .LVU730
 172:lvgl/lvgl/src/core/lv_obj_style.c **** 
 2395              		.loc 1 172 5 view .LVU731
 172:lvgl/lvgl/src/core/lv_obj_style.c **** 
 2396              		.loc 1 172 8 is_stmt 0 view .LVU732
 2397 0000 314B     		ldr	r3, .L164
 2398 0002 1B78     		ldrb	r3, [r3]	@ zero_extendqisi2
 172:lvgl/lvgl/src/core/lv_obj_style.c **** 
 2399              		.loc 1 172 7 view .LVU733
 2400 0004 03B9     		cbnz	r3, .L161
 2401 0006 7047     		bx	lr
 2402              	.L161:
 169:lvgl/lvgl/src/core/lv_obj_style.c ****     LV_ASSERT_OBJ(obj, MY_CLASS);
 2403              		.loc 1 169 1 view .LVU734
 2404 0008 70B5     		push	{r4, r5, r6, lr}
 2405              	.LCFI30:
 2406              		.cfi_def_cfa_offset 16
 2407              		.cfi_offset 4, -16
 2408              		.cfi_offset 5, -12
 2409              		.cfi_offset 6, -8
 2410              		.cfi_offset 14, -4
 2411 000a 0646     		mov	r6, r0
 2412 000c 0D46     		mov	r5, r1
 2413 000e 1446     		mov	r4, r2
 174:lvgl/lvgl/src/core/lv_obj_style.c **** 
 2414              		.loc 1 174 5 is_stmt 1 view .LVU735
 2415 0010 FFF7FEFF 		bl	lv_obj_invalidate
 2416              	.LVL229:
 176:lvgl/lvgl/src/core/lv_obj_style.c **** 
 2417              		.loc 1 176 5 view .LVU736
 176:lvgl/lvgl/src/core/lv_obj_style.c **** 
 2418              		.loc 1 176 22 is_stmt 0 view .LVU737
 2419 0014 2846     		mov	r0, r5
 2420 0016 FFF7FEFF 		bl	lv_obj_style_get_selector_part
 2421              	.LVL230:
 2422 001a 0546     		mov	r5, r0
 2423              	.LVL231:
 178:lvgl/lvgl/src/core/lv_obj_style.c ****         if(part == LV_PART_ANY ||
 2424              		.loc 1 178 5 is_stmt 1 view .LVU738
 178:lvgl/lvgl/src/core/lv_obj_style.c ****         if(part == LV_PART_ANY ||
 2425              		.loc 1 178 7 is_stmt 0 view .LVU739
 2426 001c 14F4805F 		tst	r4, #4096
 2427 0020 0BD0     		beq	.L149
 179:lvgl/lvgl/src/core/lv_obj_style.c ****            part == LV_PART_MAIN ||
 2428              		.loc 1 179 9 is_stmt 1 view .LVU740
 179:lvgl/lvgl/src/core/lv_obj_style.c ****            part == LV_PART_MAIN ||
 2429              		.loc 1 179 11 is_stmt 0 view .LVU741
 2430 0022 B0F5702F 		cmp	r0, #983040
ARM GAS  C:\Users\gx\AppData\Local\Temp\cc2sgWsf.s 			page 77


 2431 0026 00D0     		beq	.L150
 179:lvgl/lvgl/src/core/lv_obj_style.c ****            part == LV_PART_MAIN ||
 2432              		.loc 1 179 32 discriminator 1 view .LVU742
 2433 0028 98BB     		cbnz	r0, .L162
 2434              	.LVL232:
 2435              	.L150:
 184:lvgl/lvgl/src/core/lv_obj_style.c ****             lv_obj_mark_layout_as_dirty(obj);
 2436              		.loc 1 184 13 is_stmt 1 view .LVU743
 2437 002a 0022     		movs	r2, #0
 2438 002c 2421     		movs	r1, #36
 2439 002e 3046     		mov	r0, r6
 2440 0030 FFF7FEFF 		bl	lv_event_send
 2441              	.LVL233:
 185:lvgl/lvgl/src/core/lv_obj_style.c ****         }
 2442              		.loc 1 185 13 view .LVU744
 2443 0034 3046     		mov	r0, r6
 2444 0036 FFF7FEFF 		bl	lv_obj_mark_layout_as_dirty
 2445              	.LVL234:
 2446              	.L149:
 188:lvgl/lvgl/src/core/lv_obj_style.c ****         lv_obj_t * parent = lv_obj_get_parent(obj);
 2447              		.loc 1 188 5 view .LVU745
 188:lvgl/lvgl/src/core/lv_obj_style.c ****         lv_obj_t * parent = lv_obj_get_parent(obj);
 2448              		.loc 1 188 7 is_stmt 0 view .LVU746
 2449 003a B5F5702F 		cmp	r5, #983040
 2450 003e 00D0     		beq	.L151
 188:lvgl/lvgl/src/core/lv_obj_style.c ****         lv_obj_t * parent = lv_obj_get_parent(obj);
 2451              		.loc 1 188 29 discriminator 2 view .LVU747
 2452 0040 65B9     		cbnz	r5, .L152
 2453              	.L151:
 188:lvgl/lvgl/src/core/lv_obj_style.c ****         lv_obj_t * parent = lv_obj_get_parent(obj);
 2454              		.loc 1 188 54 discriminator 3 view .LVU748
 2455 0042 4FF6FF73 		movw	r3, #65535
 2456 0046 9C42     		cmp	r4, r3
 2457 0048 02D0     		beq	.L153
 188:lvgl/lvgl/src/core/lv_obj_style.c ****         lv_obj_t * parent = lv_obj_get_parent(obj);
 2458              		.loc 1 188 84 discriminator 4 view .LVU749
 2459 004a 14F4005F 		tst	r4, #8192
 2460 004e 05D0     		beq	.L152
 2461              	.L153:
 2462              	.LBB117:
 189:lvgl/lvgl/src/core/lv_obj_style.c ****         if(parent) lv_obj_mark_layout_as_dirty(parent);
 2463              		.loc 1 189 9 is_stmt 1 view .LVU750
 189:lvgl/lvgl/src/core/lv_obj_style.c ****         if(parent) lv_obj_mark_layout_as_dirty(parent);
 2464              		.loc 1 189 29 is_stmt 0 view .LVU751
 2465 0050 3046     		mov	r0, r6
 2466 0052 FFF7FEFF 		bl	lv_obj_get_parent
 2467              	.LVL235:
 190:lvgl/lvgl/src/core/lv_obj_style.c ****     }
 2468              		.loc 1 190 9 is_stmt 1 view .LVU752
 190:lvgl/lvgl/src/core/lv_obj_style.c ****     }
 2469              		.loc 1 190 11 is_stmt 0 view .LVU753
 2470 0056 08B1     		cbz	r0, .L152
 190:lvgl/lvgl/src/core/lv_obj_style.c ****     }
 2471              		.loc 1 190 20 is_stmt 1 discriminator 1 view .LVU754
 2472 0058 FFF7FEFF 		bl	lv_obj_mark_layout_as_dirty
 2473              	.LVL236:
 2474              	.L152:
ARM GAS  C:\Users\gx\AppData\Local\Temp\cc2sgWsf.s 			page 78


 190:lvgl/lvgl/src/core/lv_obj_style.c ****     }
 2475              		.loc 1 190 20 is_stmt 0 discriminator 1 view .LVU755
 2476              	.LBE117:
 193:lvgl/lvgl/src/core/lv_obj_style.c ****         lv_obj_refresh_ext_draw_size(obj);
 2477              		.loc 1 193 5 is_stmt 1 view .LVU756
 193:lvgl/lvgl/src/core/lv_obj_style.c ****         lv_obj_refresh_ext_draw_size(obj);
 2478              		.loc 1 193 7 is_stmt 0 view .LVU757
 2479 005c 4FF6FF73 		movw	r3, #65535
 2480 0060 9C42     		cmp	r4, r3
 2481 0062 02D0     		beq	.L154
 193:lvgl/lvgl/src/core/lv_obj_style.c ****         lv_obj_refresh_ext_draw_size(obj);
 2482              		.loc 1 193 34 discriminator 1 view .LVU758
 2483 0064 14F4006F 		tst	r4, #2048
 2484 0068 02D0     		beq	.L155
 2485              	.L154:
 194:lvgl/lvgl/src/core/lv_obj_style.c ****     }
 2486              		.loc 1 194 9 is_stmt 1 view .LVU759
 2487 006a 3046     		mov	r0, r6
 2488 006c FFF7FEFF 		bl	lv_obj_refresh_ext_draw_size
 2489              	.LVL237:
 2490              	.L155:
 196:lvgl/lvgl/src/core/lv_obj_style.c **** 
 2491              		.loc 1 196 5 view .LVU760
 2492 0070 3046     		mov	r0, r6
 2493 0072 FFF7FEFF 		bl	lv_obj_invalidate
 2494              	.LVL238:
 198:lvgl/lvgl/src/core/lv_obj_style.c ****       ((prop & LV_STYLE_PROP_INHERIT) && ((prop & LV_STYLE_PROP_EXT_DRAW) || (prop & LV_STYLE_PROP_
 2495              		.loc 1 198 5 view .LVU761
 198:lvgl/lvgl/src/core/lv_obj_style.c ****       ((prop & LV_STYLE_PROP_INHERIT) && ((prop & LV_STYLE_PROP_EXT_DRAW) || (prop & LV_STYLE_PROP_
 2496              		.loc 1 198 7 is_stmt 0 view .LVU762
 2497 0076 4FF6FF73 		movw	r3, #65535
 2498 007a 9C42     		cmp	r4, r3
 2499 007c 05D0     		beq	.L156
 198:lvgl/lvgl/src/core/lv_obj_style.c ****       ((prop & LV_STYLE_PROP_INHERIT) && ((prop & LV_STYLE_PROP_EXT_DRAW) || (prop & LV_STYLE_PROP_
 2500              		.loc 1 198 34 discriminator 1 view .LVU763
 2501 007e 14F4806F 		tst	r4, #1024
 2502 0082 05D0     		beq	.L147
 199:lvgl/lvgl/src/core/lv_obj_style.c ****     {
 2503              		.loc 1 199 39 view .LVU764
 2504 0084 14F4C05F 		tst	r4, #6144
 2505 0088 02D0     		beq	.L147
 2506              	.L156:
 201:lvgl/lvgl/src/core/lv_obj_style.c ****             refresh_children_style(obj);
 2507              		.loc 1 201 9 is_stmt 1 view .LVU765
 201:lvgl/lvgl/src/core/lv_obj_style.c ****             refresh_children_style(obj);
 2508              		.loc 1 201 11 is_stmt 0 view .LVU766
 2509 008a B5F5803F 		cmp	r5, #65536
 2510 008e 17D1     		bne	.L163
 2511              	.L147:
 205:lvgl/lvgl/src/core/lv_obj_style.c **** 
 2512              		.loc 1 205 1 view .LVU767
 2513 0090 70BD     		pop	{r4, r5, r6, pc}
 2514              	.LVL239:
 2515              	.L162:
 2516              	.LBB118:
 2517              	.LBI118:
  19:lvgl/lvgl/src/core/lv_obj_style_gen.h **** {
ARM GAS  C:\Users\gx\AppData\Local\Temp\cc2sgWsf.s 			page 79


 2518              		.loc 3 19 26 is_stmt 1 view .LVU768
 2519              	.LBB119:
  21:lvgl/lvgl/src/core/lv_obj_style_gen.h ****     return (lv_coord_t)v.num;
 2520              		.loc 3 21 5 view .LVU769
  21:lvgl/lvgl/src/core/lv_obj_style_gen.h ****     return (lv_coord_t)v.num;
 2521              		.loc 3 21 26 is_stmt 0 view .LVU770
 2522 0092 41F20402 		movw	r2, #4100
 2523 0096 0021     		movs	r1, #0
 2524 0098 3046     		mov	r0, r6
 2525              	.LVL240:
  21:lvgl/lvgl/src/core/lv_obj_style_gen.h ****     return (lv_coord_t)v.num;
 2526              		.loc 3 21 26 view .LVU771
 2527 009a FFF7FEFF 		bl	lv_obj_get_style_prop
 2528              	.LVL241:
  22:lvgl/lvgl/src/core/lv_obj_style_gen.h **** }
 2529              		.loc 3 22 5 is_stmt 1 view .LVU772
  22:lvgl/lvgl/src/core/lv_obj_style_gen.h **** }
 2530              		.loc 3 22 12 is_stmt 0 view .LVU773
 2531 009e 00B2     		sxth	r0, r0
 2532              	.LVL242:
  22:lvgl/lvgl/src/core/lv_obj_style_gen.h **** }
 2533              		.loc 3 22 12 view .LVU774
 2534              	.LBE119:
 2535              	.LBE118:
 180:lvgl/lvgl/src/core/lv_obj_style.c ****            lv_obj_get_style_height(obj, 0) == LV_SIZE_CONTENT ||
 2536              		.loc 1 180 33 view .LVU775
 2537 00a0 42F2D173 		movw	r3, #10193
 2538 00a4 9842     		cmp	r0, r3
 2539 00a6 C0D0     		beq	.L150
 2540              	.LVL243:
 2541              	.LBB120:
 2542              	.LBI120:
   1:lvgl/lvgl/src/core/lv_obj_style_gen.h **** {
 2543              		.loc 3 1 26 is_stmt 1 view .LVU776
 2544              	.LBB121:
   3:lvgl/lvgl/src/core/lv_obj_style_gen.h ****     return (lv_coord_t)v.num;
 2545              		.loc 3 3 5 view .LVU777
   3:lvgl/lvgl/src/core/lv_obj_style_gen.h ****     return (lv_coord_t)v.num;
 2546              		.loc 3 3 26 is_stmt 0 view .LVU778
 2547 00a8 41F20102 		movw	r2, #4097
 2548 00ac 0021     		movs	r1, #0
 2549 00ae 3046     		mov	r0, r6
 2550 00b0 FFF7FEFF 		bl	lv_obj_get_style_prop
 2551              	.LVL244:
   4:lvgl/lvgl/src/core/lv_obj_style_gen.h **** }
 2552              		.loc 3 4 5 is_stmt 1 view .LVU779
   4:lvgl/lvgl/src/core/lv_obj_style_gen.h **** }
 2553              		.loc 3 4 12 is_stmt 0 view .LVU780
 2554 00b4 00B2     		sxth	r0, r0
 2555              	.LVL245:
   4:lvgl/lvgl/src/core/lv_obj_style_gen.h **** }
 2556              		.loc 3 4 12 view .LVU781
 2557              	.LBE121:
 2558              	.LBE120:
 181:lvgl/lvgl/src/core/lv_obj_style.c ****            lv_obj_get_style_width(obj, 0) == LV_SIZE_CONTENT)
 2559              		.loc 1 181 63 view .LVU782
 2560 00b6 42F2D173 		movw	r3, #10193
ARM GAS  C:\Users\gx\AppData\Local\Temp\cc2sgWsf.s 			page 80


 2561 00ba 9842     		cmp	r0, r3
 2562 00bc BDD1     		bne	.L149
 2563 00be B4E7     		b	.L150
 2564              	.L163:
 202:lvgl/lvgl/src/core/lv_obj_style.c ****         }
 2565              		.loc 1 202 13 is_stmt 1 view .LVU783
 2566 00c0 3046     		mov	r0, r6
 2567 00c2 FFF7FEFF 		bl	refresh_children_style
 2568              	.LVL246:
 2569 00c6 E3E7     		b	.L147
 2570              	.L165:
 2571              		.align	2
 2572              	.L164:
 2573 00c8 00000000 		.word	.LANCHOR1
 2574              		.cfi_endproc
 2575              	.LFE162:
 2577              		.section	.text.lv_obj_add_style,"ax",%progbits
 2578              		.align	1
 2579              		.global	lv_obj_add_style
 2580              		.syntax unified
 2581              		.thumb
 2582              		.thumb_func
 2583              		.fpu fpv4-sp-d16
 2585              	lv_obj_add_style:
 2586              	.LVL247:
 2587              	.LFB159:
  77:lvgl/lvgl/src/core/lv_obj_style.c ****     trans_del(obj, selector, LV_STYLE_PROP_ANY, NULL);
 2588              		.loc 1 77 1 view -0
 2589              		.cfi_startproc
 2590              		@ args = 0, pretend = 0, frame = 0
 2591              		@ frame_needed = 0, uses_anonymous_args = 0
  77:lvgl/lvgl/src/core/lv_obj_style.c ****     trans_del(obj, selector, LV_STYLE_PROP_ANY, NULL);
 2592              		.loc 1 77 1 is_stmt 0 view .LVU785
 2593 0000 2DE9F041 		push	{r4, r5, r6, r7, r8, lr}
 2594              	.LCFI31:
 2595              		.cfi_def_cfa_offset 24
 2596              		.cfi_offset 4, -24
 2597              		.cfi_offset 5, -20
 2598              		.cfi_offset 6, -16
 2599              		.cfi_offset 7, -12
 2600              		.cfi_offset 8, -8
 2601              		.cfi_offset 14, -4
 2602 0004 0546     		mov	r5, r0
 2603 0006 8846     		mov	r8, r1
 2604 0008 1746     		mov	r7, r2
  78:lvgl/lvgl/src/core/lv_obj_style.c **** 
 2605              		.loc 1 78 5 is_stmt 1 view .LVU786
 2606 000a 0023     		movs	r3, #0
 2607 000c 4FF6FF72 		movw	r2, #65535
 2608              	.LVL248:
  78:lvgl/lvgl/src/core/lv_obj_style.c **** 
 2609              		.loc 1 78 5 is_stmt 0 view .LVU787
 2610 0010 3946     		mov	r1, r7
 2611              	.LVL249:
  78:lvgl/lvgl/src/core/lv_obj_style.c **** 
 2612              		.loc 1 78 5 view .LVU788
 2613 0012 FFF7FEFF 		bl	trans_del
ARM GAS  C:\Users\gx\AppData\Local\Temp\cc2sgWsf.s 			page 81


 2614              	.LVL250:
  80:lvgl/lvgl/src/core/lv_obj_style.c ****     /*Go after the transition and local styles*/
 2615              		.loc 1 80 5 is_stmt 1 view .LVU789
  82:lvgl/lvgl/src/core/lv_obj_style.c ****         if(obj->styles[i].is_trans) continue;
 2616              		.loc 1 82 5 view .LVU790
  82:lvgl/lvgl/src/core/lv_obj_style.c ****         if(obj->styles[i].is_trans) continue;
 2617              		.loc 1 82 11 is_stmt 0 view .LVU791
 2618 0016 0026     		movs	r6, #0
  82:lvgl/lvgl/src/core/lv_obj_style.c ****         if(obj->styles[i].is_trans) continue;
 2619              		.loc 1 82 5 view .LVU792
 2620 0018 00E0     		b	.L167
 2621              	.LVL251:
 2622              	.L168:
  82:lvgl/lvgl/src/core/lv_obj_style.c ****         if(obj->styles[i].is_trans) continue;
 2623              		.loc 1 82 36 is_stmt 1 discriminator 2 view .LVU793
  82:lvgl/lvgl/src/core/lv_obj_style.c ****         if(obj->styles[i].is_trans) continue;
 2624              		.loc 1 82 37 is_stmt 0 discriminator 2 view .LVU794
 2625 001a 0136     		adds	r6, r6, #1
 2626              	.LVL252:
 2627              	.L167:
  82:lvgl/lvgl/src/core/lv_obj_style.c ****         if(obj->styles[i].is_trans) continue;
 2628              		.loc 1 82 16 is_stmt 1 discriminator 1 view .LVU795
  82:lvgl/lvgl/src/core/lv_obj_style.c ****         if(obj->styles[i].is_trans) continue;
 2629              		.loc 1 82 23 is_stmt 0 discriminator 1 view .LVU796
 2630 001c 698C     		ldrh	r1, [r5, #34]
 2631 001e C1F3C501 		ubfx	r1, r1, #3, #6
  82:lvgl/lvgl/src/core/lv_obj_style.c ****         if(obj->styles[i].is_trans) continue;
 2632              		.loc 1 82 5 discriminator 1 view .LVU797
 2633 0022 B142     		cmp	r1, r6
 2634 0024 09D9     		bls	.L169
  83:lvgl/lvgl/src/core/lv_obj_style.c ****         if(obj->styles[i].is_local) continue;
 2635              		.loc 1 83 9 is_stmt 1 view .LVU798
  83:lvgl/lvgl/src/core/lv_obj_style.c ****         if(obj->styles[i].is_local) continue;
 2636              		.loc 1 83 15 is_stmt 0 view .LVU799
 2637 0026 EB68     		ldr	r3, [r5, #12]
  83:lvgl/lvgl/src/core/lv_obj_style.c ****         if(obj->styles[i].is_local) continue;
 2638              		.loc 1 83 23 view .LVU800
 2639 0028 03EBC603 		add	r3, r3, r6, lsl #3
  83:lvgl/lvgl/src/core/lv_obj_style.c ****         if(obj->styles[i].is_local) continue;
 2640              		.loc 1 83 12 view .LVU801
 2641 002c DB79     		ldrb	r3, [r3, #7]	@ zero_extendqisi2
  83:lvgl/lvgl/src/core/lv_obj_style.c ****         if(obj->styles[i].is_local) continue;
 2642              		.loc 1 83 11 view .LVU802
 2643 002e 13F0020F 		tst	r3, #2
 2644 0032 F2D1     		bne	.L168
  84:lvgl/lvgl/src/core/lv_obj_style.c ****         break;
 2645              		.loc 1 84 9 is_stmt 1 view .LVU803
  84:lvgl/lvgl/src/core/lv_obj_style.c ****         break;
 2646              		.loc 1 84 11 is_stmt 0 view .LVU804
 2647 0034 13F0010F 		tst	r3, #1
 2648 0038 EFD1     		bne	.L168
 2649              	.L169:
  91:lvgl/lvgl/src/core/lv_obj_style.c ****     obj->styles = lv_mem_realloc(obj->styles, obj->style_cnt * sizeof(_lv_obj_style_t));
 2650              		.loc 1 91 5 is_stmt 1 view .LVU805
  91:lvgl/lvgl/src/core/lv_obj_style.c ****     obj->styles = lv_mem_realloc(obj->styles, obj->style_cnt * sizeof(_lv_obj_style_t));
 2651              		.loc 1 91 19 is_stmt 0 view .LVU806
 2652 003a 0131     		adds	r1, r1, #1
ARM GAS  C:\Users\gx\AppData\Local\Temp\cc2sgWsf.s 			page 82


 2653 003c 01F03F01 		and	r1, r1, #63
 2654 0040 6B8C     		ldrh	r3, [r5, #34]
 2655 0042 61F3C803 		bfi	r3, r1, #3, #6
 2656 0046 6B84     		strh	r3, [r5, #34]	@ movhi
  92:lvgl/lvgl/src/core/lv_obj_style.c **** 
 2657              		.loc 1 92 5 is_stmt 1 view .LVU807
  92:lvgl/lvgl/src/core/lv_obj_style.c **** 
 2658              		.loc 1 92 19 is_stmt 0 view .LVU808
 2659 0048 C900     		lsls	r1, r1, #3
 2660 004a E868     		ldr	r0, [r5, #12]
 2661 004c FFF7FEFF 		bl	lv_mem_realloc
 2662              	.LVL253:
  92:lvgl/lvgl/src/core/lv_obj_style.c **** 
 2663              		.loc 1 92 17 view .LVU809
 2664 0050 E860     		str	r0, [r5, #12]
  94:lvgl/lvgl/src/core/lv_obj_style.c ****     for(j = obj->style_cnt - 1; j > i ; j--) {
 2665              		.loc 1 94 5 is_stmt 1 view .LVU810
  95:lvgl/lvgl/src/core/lv_obj_style.c ****         obj->styles[j] = obj->styles[j - 1];
 2666              		.loc 1 95 5 view .LVU811
  95:lvgl/lvgl/src/core/lv_obj_style.c ****         obj->styles[j] = obj->styles[j - 1];
 2667              		.loc 1 95 16 is_stmt 0 view .LVU812
 2668 0052 6A8C     		ldrh	r2, [r5, #34]
 2669 0054 C2F3C502 		ubfx	r2, r2, #3, #6
  95:lvgl/lvgl/src/core/lv_obj_style.c ****         obj->styles[j] = obj->styles[j - 1];
 2670              		.loc 1 95 28 view .LVU813
 2671 0058 013A     		subs	r2, r2, #1
 2672              	.LVL254:
  95:lvgl/lvgl/src/core/lv_obj_style.c ****         obj->styles[j] = obj->styles[j - 1];
 2673              		.loc 1 95 5 view .LVU814
 2674 005a 0CE0     		b	.L171
 2675              	.L172:
  96:lvgl/lvgl/src/core/lv_obj_style.c ****     }
 2676              		.loc 1 96 9 is_stmt 1 discriminator 3 view .LVU815
  96:lvgl/lvgl/src/core/lv_obj_style.c ****     }
 2677              		.loc 1 96 29 is_stmt 0 discriminator 3 view .LVU816
 2678 005c EC68     		ldr	r4, [r5, #12]
  96:lvgl/lvgl/src/core/lv_obj_style.c ****     }
 2679              		.loc 1 96 37 discriminator 3 view .LVU817
 2680 005e 02F10053 		add	r3, r2, #536870912
 2681 0062 013B     		subs	r3, r3, #1
 2682 0064 04EBC303 		add	r3, r4, r3, lsl #3
  96:lvgl/lvgl/src/core/lv_obj_style.c ****     }
 2683              		.loc 1 96 20 discriminator 3 view .LVU818
 2684 0068 04EBC204 		add	r4, r4, r2, lsl #3
  96:lvgl/lvgl/src/core/lv_obj_style.c ****     }
 2685              		.loc 1 96 24 discriminator 3 view .LVU819
 2686 006c 93E80300 		ldm	r3, {r0, r1}
 2687 0070 84E80300 		stm	r4, {r0, r1}
  95:lvgl/lvgl/src/core/lv_obj_style.c ****         obj->styles[j] = obj->styles[j - 1];
 2688              		.loc 1 95 41 is_stmt 1 discriminator 3 view .LVU820
  95:lvgl/lvgl/src/core/lv_obj_style.c ****         obj->styles[j] = obj->styles[j - 1];
 2689              		.loc 1 95 42 is_stmt 0 discriminator 3 view .LVU821
 2690 0074 013A     		subs	r2, r2, #1
 2691              	.LVL255:
 2692              	.L171:
  95:lvgl/lvgl/src/core/lv_obj_style.c ****         obj->styles[j] = obj->styles[j - 1];
 2693              		.loc 1 95 33 is_stmt 1 discriminator 1 view .LVU822
ARM GAS  C:\Users\gx\AppData\Local\Temp\cc2sgWsf.s 			page 83


  95:lvgl/lvgl/src/core/lv_obj_style.c ****         obj->styles[j] = obj->styles[j - 1];
 2694              		.loc 1 95 5 is_stmt 0 discriminator 1 view .LVU823
 2695 0076 9642     		cmp	r6, r2
 2696 0078 F0D3     		bcc	.L172
  99:lvgl/lvgl/src/core/lv_obj_style.c ****     obj->styles[i].style = style;
 2697              		.loc 1 99 5 is_stmt 1 view .LVU824
  99:lvgl/lvgl/src/core/lv_obj_style.c ****     obj->styles[i].style = style;
 2698              		.loc 1 99 22 is_stmt 0 view .LVU825
 2699 007a E868     		ldr	r0, [r5, #12]
  99:lvgl/lvgl/src/core/lv_obj_style.c ****     obj->styles[i].style = style;
 2700              		.loc 1 99 30 view .LVU826
 2701 007c F400     		lsls	r4, r6, #3
  99:lvgl/lvgl/src/core/lv_obj_style.c ****     obj->styles[i].style = style;
 2702              		.loc 1 99 5 view .LVU827
 2703 007e 0821     		movs	r1, #8
 2704 0080 00EBC600 		add	r0, r0, r6, lsl #3
 2705 0084 FFF7FEFF 		bl	lv_memset_00
 2706              	.LVL256:
 100:lvgl/lvgl/src/core/lv_obj_style.c ****     obj->styles[i].selector = selector;
 2707              		.loc 1 100 5 is_stmt 1 view .LVU828
 100:lvgl/lvgl/src/core/lv_obj_style.c ****     obj->styles[i].selector = selector;
 2708              		.loc 1 100 8 is_stmt 0 view .LVU829
 2709 0088 EB68     		ldr	r3, [r5, #12]
 100:lvgl/lvgl/src/core/lv_obj_style.c ****     obj->styles[i].selector = selector;
 2710              		.loc 1 100 26 view .LVU830
 2711 008a 43F83680 		str	r8, [r3, r6, lsl #3]
 101:lvgl/lvgl/src/core/lv_obj_style.c **** 
 2712              		.loc 1 101 5 is_stmt 1 view .LVU831
 101:lvgl/lvgl/src/core/lv_obj_style.c **** 
 2713              		.loc 1 101 8 is_stmt 0 view .LVU832
 2714 008e EB68     		ldr	r3, [r5, #12]
 101:lvgl/lvgl/src/core/lv_obj_style.c **** 
 2715              		.loc 1 101 16 view .LVU833
 2716 0090 2344     		add	r3, r3, r4
 101:lvgl/lvgl/src/core/lv_obj_style.c **** 
 2717              		.loc 1 101 29 view .LVU834
 2718 0092 5A68     		ldr	r2, [r3, #4]
 2719 0094 67F31702 		bfi	r2, r7, #0, #24
 2720              	.LVL257:
 101:lvgl/lvgl/src/core/lv_obj_style.c **** 
 2721              		.loc 1 101 29 view .LVU835
 2722 0098 5A60     		str	r2, [r3, #4]
 103:lvgl/lvgl/src/core/lv_obj_style.c **** }
 2723              		.loc 1 103 5 is_stmt 1 view .LVU836
 2724 009a 4FF6FF72 		movw	r2, #65535
 2725 009e 3946     		mov	r1, r7
 2726 00a0 2846     		mov	r0, r5
 2727 00a2 FFF7FEFF 		bl	lv_obj_refresh_style
 2728              	.LVL258:
 104:lvgl/lvgl/src/core/lv_obj_style.c **** 
 2729              		.loc 1 104 1 is_stmt 0 view .LVU837
 2730 00a6 BDE8F081 		pop	{r4, r5, r6, r7, r8, pc}
 104:lvgl/lvgl/src/core/lv_obj_style.c **** 
 2731              		.loc 1 104 1 view .LVU838
 2732              		.cfi_endproc
 2733              	.LFE159:
 2735              		.section	.text.report_style_change_core,"ax",%progbits
ARM GAS  C:\Users\gx\AppData\Local\Temp\cc2sgWsf.s 			page 84


 2736              		.align	1
 2737              		.syntax unified
 2738              		.thumb
 2739              		.thumb_func
 2740              		.fpu fpv4-sp-d16
 2742              	report_style_change_core:
 2743              	.LVL259:
 2744              	.LFB179:
 624:lvgl/lvgl/src/core/lv_obj_style.c ****     uint32_t i;
 2745              		.loc 1 624 1 is_stmt 1 view -0
 2746              		.cfi_startproc
 2747              		@ args = 0, pretend = 0, frame = 0
 2748              		@ frame_needed = 0, uses_anonymous_args = 0
 624:lvgl/lvgl/src/core/lv_obj_style.c ****     uint32_t i;
 2749              		.loc 1 624 1 is_stmt 0 view .LVU840
 2750 0000 F8B5     		push	{r3, r4, r5, r6, r7, lr}
 2751              	.LCFI32:
 2752              		.cfi_def_cfa_offset 24
 2753              		.cfi_offset 3, -24
 2754              		.cfi_offset 4, -20
 2755              		.cfi_offset 5, -16
 2756              		.cfi_offset 6, -12
 2757              		.cfi_offset 7, -8
 2758              		.cfi_offset 14, -4
 2759 0002 0546     		mov	r5, r0
 2760 0004 0C46     		mov	r4, r1
 625:lvgl/lvgl/src/core/lv_obj_style.c ****     for(i = 0; i < obj->style_cnt; i++) {
 2761              		.loc 1 625 5 is_stmt 1 view .LVU841
 626:lvgl/lvgl/src/core/lv_obj_style.c ****         if(style == NULL || obj->styles[i].style == style) {
 2762              		.loc 1 626 5 view .LVU842
 2763              	.LVL260:
 626:lvgl/lvgl/src/core/lv_obj_style.c ****         if(style == NULL || obj->styles[i].style == style) {
 2764              		.loc 1 626 11 is_stmt 0 view .LVU843
 2765 0006 0022     		movs	r2, #0
 626:lvgl/lvgl/src/core/lv_obj_style.c ****         if(style == NULL || obj->styles[i].style == style) {
 2766              		.loc 1 626 5 view .LVU844
 2767 0008 00E0     		b	.L175
 2768              	.LVL261:
 2769              	.L177:
 626:lvgl/lvgl/src/core/lv_obj_style.c ****         if(style == NULL || obj->styles[i].style == style) {
 2770              		.loc 1 626 36 is_stmt 1 discriminator 2 view .LVU845
 626:lvgl/lvgl/src/core/lv_obj_style.c ****         if(style == NULL || obj->styles[i].style == style) {
 2771              		.loc 1 626 37 is_stmt 0 discriminator 2 view .LVU846
 2772 000a 0132     		adds	r2, r2, #1
 2773              	.LVL262:
 2774              	.L175:
 626:lvgl/lvgl/src/core/lv_obj_style.c ****         if(style == NULL || obj->styles[i].style == style) {
 2775              		.loc 1 626 16 is_stmt 1 discriminator 1 view .LVU847
 626:lvgl/lvgl/src/core/lv_obj_style.c ****         if(style == NULL || obj->styles[i].style == style) {
 2776              		.loc 1 626 23 is_stmt 0 discriminator 1 view .LVU848
 2777 000c 638C     		ldrh	r3, [r4, #34]
 2778 000e C3F3C503 		ubfx	r3, r3, #3, #6
 626:lvgl/lvgl/src/core/lv_obj_style.c ****         if(style == NULL || obj->styles[i].style == style) {
 2779              		.loc 1 626 5 discriminator 1 view .LVU849
 2780 0012 9342     		cmp	r3, r2
 2781 0014 0CD9     		bls	.L178
 627:lvgl/lvgl/src/core/lv_obj_style.c ****             lv_obj_refresh_style(obj, LV_PART_ANY, LV_STYLE_PROP_ANY);
ARM GAS  C:\Users\gx\AppData\Local\Temp\cc2sgWsf.s 			page 85


 2782              		.loc 1 627 9 is_stmt 1 view .LVU850
 627:lvgl/lvgl/src/core/lv_obj_style.c ****             lv_obj_refresh_style(obj, LV_PART_ANY, LV_STYLE_PROP_ANY);
 2783              		.loc 1 627 11 is_stmt 0 view .LVU851
 2784 0016 25B1     		cbz	r5, .L176
 627:lvgl/lvgl/src/core/lv_obj_style.c ****             lv_obj_refresh_style(obj, LV_PART_ANY, LV_STYLE_PROP_ANY);
 2785              		.loc 1 627 32 discriminator 1 view .LVU852
 2786 0018 E368     		ldr	r3, [r4, #12]
 627:lvgl/lvgl/src/core/lv_obj_style.c ****             lv_obj_refresh_style(obj, LV_PART_ANY, LV_STYLE_PROP_ANY);
 2787              		.loc 1 627 43 discriminator 1 view .LVU853
 2788 001a 53F83230 		ldr	r3, [r3, r2, lsl #3]
 627:lvgl/lvgl/src/core/lv_obj_style.c ****             lv_obj_refresh_style(obj, LV_PART_ANY, LV_STYLE_PROP_ANY);
 2789              		.loc 1 627 26 discriminator 1 view .LVU854
 2790 001e AB42     		cmp	r3, r5
 2791 0020 F3D1     		bne	.L177
 2792              	.L176:
 628:lvgl/lvgl/src/core/lv_obj_style.c ****             break;
 2793              		.loc 1 628 13 is_stmt 1 view .LVU855
 2794 0022 4FF6FF72 		movw	r2, #65535
 2795              	.LVL263:
 628:lvgl/lvgl/src/core/lv_obj_style.c ****             break;
 2796              		.loc 1 628 13 is_stmt 0 view .LVU856
 2797 0026 4FF47021 		mov	r1, #983040
 2798              	.LVL264:
 628:lvgl/lvgl/src/core/lv_obj_style.c ****             break;
 2799              		.loc 1 628 13 view .LVU857
 2800 002a 2046     		mov	r0, r4
 2801              	.LVL265:
 628:lvgl/lvgl/src/core/lv_obj_style.c ****             break;
 2802              		.loc 1 628 13 view .LVU858
 2803 002c FFF7FEFF 		bl	lv_obj_refresh_style
 2804              	.LVL266:
 629:lvgl/lvgl/src/core/lv_obj_style.c ****         }
 2805              		.loc 1 629 13 is_stmt 1 view .LVU859
 2806              	.L178:
 633:lvgl/lvgl/src/core/lv_obj_style.c ****     for(i = 0; i < child_cnt; i++) {
 2807              		.loc 1 633 5 view .LVU860
 633:lvgl/lvgl/src/core/lv_obj_style.c ****     for(i = 0; i < child_cnt; i++) {
 2808              		.loc 1 633 26 is_stmt 0 view .LVU861
 2809 0030 2046     		mov	r0, r4
 2810 0032 FFF7FEFF 		bl	lv_obj_get_child_cnt
 2811              	.LVL267:
 2812 0036 0746     		mov	r7, r0
 2813              	.LVL268:
 634:lvgl/lvgl/src/core/lv_obj_style.c ****         report_style_change_core(style, obj->spec_attr->children[i]);
 2814              		.loc 1 634 5 is_stmt 1 view .LVU862
 634:lvgl/lvgl/src/core/lv_obj_style.c ****         report_style_change_core(style, obj->spec_attr->children[i]);
 2815              		.loc 1 634 11 is_stmt 0 view .LVU863
 2816 0038 0026     		movs	r6, #0
 634:lvgl/lvgl/src/core/lv_obj_style.c ****         report_style_change_core(style, obj->spec_attr->children[i]);
 2817              		.loc 1 634 5 view .LVU864
 2818 003a 07E0     		b	.L180
 2819              	.LVL269:
 2820              	.L181:
 635:lvgl/lvgl/src/core/lv_obj_style.c ****     }
 2821              		.loc 1 635 9 is_stmt 1 discriminator 3 view .LVU865
 635:lvgl/lvgl/src/core/lv_obj_style.c ****     }
 2822              		.loc 1 635 44 is_stmt 0 discriminator 3 view .LVU866
ARM GAS  C:\Users\gx\AppData\Local\Temp\cc2sgWsf.s 			page 86


 2823 003c A368     		ldr	r3, [r4, #8]
 635:lvgl/lvgl/src/core/lv_obj_style.c ****     }
 2824              		.loc 1 635 55 discriminator 3 view .LVU867
 2825 003e 1B68     		ldr	r3, [r3]
 635:lvgl/lvgl/src/core/lv_obj_style.c ****     }
 2826              		.loc 1 635 9 discriminator 3 view .LVU868
 2827 0040 53F82610 		ldr	r1, [r3, r6, lsl #2]
 2828 0044 2846     		mov	r0, r5
 2829 0046 FFF7DBFF 		bl	report_style_change_core
 2830              	.LVL270:
 634:lvgl/lvgl/src/core/lv_obj_style.c ****         report_style_change_core(style, obj->spec_attr->children[i]);
 2831              		.loc 1 634 31 is_stmt 1 discriminator 3 view .LVU869
 634:lvgl/lvgl/src/core/lv_obj_style.c ****         report_style_change_core(style, obj->spec_attr->children[i]);
 2832              		.loc 1 634 32 is_stmt 0 discriminator 3 view .LVU870
 2833 004a 0136     		adds	r6, r6, #1
 2834              	.LVL271:
 2835              	.L180:
 634:lvgl/lvgl/src/core/lv_obj_style.c ****         report_style_change_core(style, obj->spec_attr->children[i]);
 2836              		.loc 1 634 16 is_stmt 1 discriminator 1 view .LVU871
 634:lvgl/lvgl/src/core/lv_obj_style.c ****         report_style_change_core(style, obj->spec_attr->children[i]);
 2837              		.loc 1 634 5 is_stmt 0 discriminator 1 view .LVU872
 2838 004c BE42     		cmp	r6, r7
 2839 004e F5D3     		bcc	.L181
 637:lvgl/lvgl/src/core/lv_obj_style.c **** 
 2840              		.loc 1 637 1 view .LVU873
 2841 0050 F8BD     		pop	{r3, r4, r5, r6, r7, pc}
 637:lvgl/lvgl/src/core/lv_obj_style.c **** 
 2842              		.loc 1 637 1 view .LVU874
 2843              		.cfi_endproc
 2844              	.LFE179:
 2846              		.section	.text.lv_obj_report_style_change,"ax",%progbits
 2847              		.align	1
 2848              		.global	lv_obj_report_style_change
 2849              		.syntax unified
 2850              		.thumb
 2851              		.thumb_func
 2852              		.fpu fpv4-sp-d16
 2854              	lv_obj_report_style_change:
 2855              	.LVL272:
 2856              	.LFB161:
 155:lvgl/lvgl/src/core/lv_obj_style.c ****     if(!style_refr) return;
 2857              		.loc 1 155 1 is_stmt 1 view -0
 2858              		.cfi_startproc
 2859              		@ args = 0, pretend = 0, frame = 0
 2860              		@ frame_needed = 0, uses_anonymous_args = 0
 156:lvgl/lvgl/src/core/lv_obj_style.c ****     lv_disp_t * d = lv_disp_get_next(NULL);
 2861              		.loc 1 156 5 view .LVU876
 156:lvgl/lvgl/src/core/lv_obj_style.c ****     lv_disp_t * d = lv_disp_get_next(NULL);
 2862              		.loc 1 156 8 is_stmt 0 view .LVU877
 2863 0000 0E4B     		ldr	r3, .L195
 2864 0002 1B78     		ldrb	r3, [r3]	@ zero_extendqisi2
 156:lvgl/lvgl/src/core/lv_obj_style.c ****     lv_disp_t * d = lv_disp_get_next(NULL);
 2865              		.loc 1 156 7 view .LVU878
 2866 0004 03B9     		cbnz	r3, .L193
 2867 0006 7047     		bx	lr
 2868              	.L193:
 155:lvgl/lvgl/src/core/lv_obj_style.c ****     if(!style_refr) return;
ARM GAS  C:\Users\gx\AppData\Local\Temp\cc2sgWsf.s 			page 87


 2869              		.loc 1 155 1 view .LVU879
 2870 0008 70B5     		push	{r4, r5, r6, lr}
 2871              	.LCFI33:
 2872              		.cfi_def_cfa_offset 16
 2873              		.cfi_offset 4, -16
 2874              		.cfi_offset 5, -12
 2875              		.cfi_offset 6, -8
 2876              		.cfi_offset 14, -4
 2877 000a 0646     		mov	r6, r0
 157:lvgl/lvgl/src/core/lv_obj_style.c **** 
 2878              		.loc 1 157 5 is_stmt 1 view .LVU880
 157:lvgl/lvgl/src/core/lv_obj_style.c **** 
 2879              		.loc 1 157 21 is_stmt 0 view .LVU881
 2880 000c 0020     		movs	r0, #0
 2881              	.LVL273:
 157:lvgl/lvgl/src/core/lv_obj_style.c **** 
 2882              		.loc 1 157 21 view .LVU882
 2883 000e FFF7FEFF 		bl	lv_disp_get_next
 2884              	.LVL274:
 2885 0012 0546     		mov	r5, r0
 2886              	.LVL275:
 159:lvgl/lvgl/src/core/lv_obj_style.c ****         uint32_t i;
 2887              		.loc 1 159 5 is_stmt 1 view .LVU883
 159:lvgl/lvgl/src/core/lv_obj_style.c ****         uint32_t i;
 2888              		.loc 1 159 10 is_stmt 0 view .LVU884
 2889 0014 0DE0     		b	.L185
 2890              	.LVL276:
 2891              	.L186:
 2892              	.LBB122:
 162:lvgl/lvgl/src/core/lv_obj_style.c ****         }
 2893              		.loc 1 162 13 is_stmt 1 discriminator 3 view .LVU885
 162:lvgl/lvgl/src/core/lv_obj_style.c ****         }
 2894              		.loc 1 162 46 is_stmt 0 discriminator 3 view .LVU886
 2895 0016 EB68     		ldr	r3, [r5, #12]
 162:lvgl/lvgl/src/core/lv_obj_style.c ****         }
 2896              		.loc 1 162 13 discriminator 3 view .LVU887
 2897 0018 53F82410 		ldr	r1, [r3, r4, lsl #2]
 2898 001c 3046     		mov	r0, r6
 2899 001e FFF7FEFF 		bl	report_style_change_core
 2900              	.LVL277:
 161:lvgl/lvgl/src/core/lv_obj_style.c ****             report_style_change_core(style, d->screens[i]);
 2901              		.loc 1 161 39 is_stmt 1 discriminator 3 view .LVU888
 161:lvgl/lvgl/src/core/lv_obj_style.c ****             report_style_change_core(style, d->screens[i]);
 2902              		.loc 1 161 40 is_stmt 0 discriminator 3 view .LVU889
 2903 0022 0134     		adds	r4, r4, #1
 2904              	.LVL278:
 2905              	.L187:
 161:lvgl/lvgl/src/core/lv_obj_style.c ****             report_style_change_core(style, d->screens[i]);
 2906              		.loc 1 161 20 is_stmt 1 discriminator 1 view .LVU890
 161:lvgl/lvgl/src/core/lv_obj_style.c ****             report_style_change_core(style, d->screens[i]);
 2907              		.loc 1 161 25 is_stmt 0 discriminator 1 view .LVU891
 2908 0024 6B6A     		ldr	r3, [r5, #36]
 161:lvgl/lvgl/src/core/lv_obj_style.c ****             report_style_change_core(style, d->screens[i]);
 2909              		.loc 1 161 9 discriminator 1 view .LVU892
 2910 0026 A342     		cmp	r3, r4
 2911 0028 F5D8     		bhi	.L186
 164:lvgl/lvgl/src/core/lv_obj_style.c ****     }
ARM GAS  C:\Users\gx\AppData\Local\Temp\cc2sgWsf.s 			page 88


 2912              		.loc 1 164 9 is_stmt 1 view .LVU893
 164:lvgl/lvgl/src/core/lv_obj_style.c ****     }
 2913              		.loc 1 164 13 is_stmt 0 view .LVU894
 2914 002a 2846     		mov	r0, r5
 2915 002c FFF7FEFF 		bl	lv_disp_get_next
 2916              	.LVL279:
 2917 0030 0546     		mov	r5, r0
 2918              	.LVL280:
 2919              	.L185:
 164:lvgl/lvgl/src/core/lv_obj_style.c ****     }
 2920              		.loc 1 164 13 view .LVU895
 2921              	.LBE122:
 159:lvgl/lvgl/src/core/lv_obj_style.c ****         uint32_t i;
 2922              		.loc 1 159 10 is_stmt 1 view .LVU896
 2923 0032 0DB1     		cbz	r5, .L194
 2924              	.LBB123:
 161:lvgl/lvgl/src/core/lv_obj_style.c ****             report_style_change_core(style, d->screens[i]);
 2925              		.loc 1 161 15 is_stmt 0 view .LVU897
 2926 0034 0024     		movs	r4, #0
 2927 0036 F5E7     		b	.L187
 2928              	.L194:
 2929              	.LBE123:
 166:lvgl/lvgl/src/core/lv_obj_style.c **** 
 2930              		.loc 1 166 1 view .LVU898
 2931 0038 70BD     		pop	{r4, r5, r6, pc}
 2932              	.LVL281:
 2933              	.L196:
 166:lvgl/lvgl/src/core/lv_obj_style.c **** 
 2934              		.loc 1 166 1 view .LVU899
 2935 003a 00BF     		.align	2
 2936              	.L195:
 2937 003c 00000000 		.word	.LANCHOR1
 2938              		.cfi_endproc
 2939              	.LFE161:
 2941              		.section	.text.lv_obj_set_local_style_prop,"ax",%progbits
 2942              		.align	1
 2943              		.global	lv_obj_set_local_style_prop
 2944              		.syntax unified
 2945              		.thumb
 2946              		.thumb_func
 2947              		.fpu fpv4-sp-d16
 2949              	lv_obj_set_local_style_prop:
 2950              	.LVL282:
 2951              	.LFB165:
 258:lvgl/lvgl/src/core/lv_obj_style.c ****     lv_style_t * style = get_local_style(obj, selector);
 2952              		.loc 1 258 1 is_stmt 1 view -0
 2953              		.cfi_startproc
 2954              		@ args = 0, pretend = 0, frame = 0
 2955              		@ frame_needed = 0, uses_anonymous_args = 0
 258:lvgl/lvgl/src/core/lv_obj_style.c ****     lv_style_t * style = get_local_style(obj, selector);
 2956              		.loc 1 258 1 is_stmt 0 view .LVU901
 2957 0000 F8B5     		push	{r3, r4, r5, r6, r7, lr}
 2958              	.LCFI34:
 2959              		.cfi_def_cfa_offset 24
 2960              		.cfi_offset 3, -24
 2961              		.cfi_offset 4, -20
 2962              		.cfi_offset 5, -16
ARM GAS  C:\Users\gx\AppData\Local\Temp\cc2sgWsf.s 			page 89


 2963              		.cfi_offset 6, -12
 2964              		.cfi_offset 7, -8
 2965              		.cfi_offset 14, -4
 2966 0002 0646     		mov	r6, r0
 2967 0004 0D46     		mov	r5, r1
 2968 0006 1746     		mov	r7, r2
 2969              	.LVL283:
 258:lvgl/lvgl/src/core/lv_obj_style.c ****     lv_style_t * style = get_local_style(obj, selector);
 2970              		.loc 1 258 1 view .LVU902
 2971 0008 1C46     		mov	r4, r3
 259:lvgl/lvgl/src/core/lv_obj_style.c ****     lv_style_set_prop(style, prop, value);
 2972              		.loc 1 259 5 is_stmt 1 view .LVU903
 259:lvgl/lvgl/src/core/lv_obj_style.c ****     lv_style_set_prop(style, prop, value);
 2973              		.loc 1 259 26 is_stmt 0 view .LVU904
 2974 000a 1946     		mov	r1, r3
 2975              	.LVL284:
 259:lvgl/lvgl/src/core/lv_obj_style.c ****     lv_style_set_prop(style, prop, value);
 2976              		.loc 1 259 26 view .LVU905
 2977 000c FFF7FEFF 		bl	get_local_style
 2978              	.LVL285:
 260:lvgl/lvgl/src/core/lv_obj_style.c ****     lv_obj_refresh_style(obj, selector, prop);
 2979              		.loc 1 260 5 is_stmt 1 view .LVU906
 260:lvgl/lvgl/src/core/lv_obj_style.c ****     lv_obj_refresh_style(obj, selector, prop);
 2980              		.loc 1 260 5 is_stmt 0 view .LVU907
 2981 0010 3A46     		mov	r2, r7
 2982 0012 2946     		mov	r1, r5
 2983 0014 FFF7FEFF 		bl	lv_style_set_prop
 2984              	.LVL286:
 261:lvgl/lvgl/src/core/lv_obj_style.c **** }
 2985              		.loc 1 261 5 is_stmt 1 view .LVU908
 2986 0018 2A46     		mov	r2, r5
 2987 001a 2146     		mov	r1, r4
 2988 001c 3046     		mov	r0, r6
 2989 001e FFF7FEFF 		bl	lv_obj_refresh_style
 2990              	.LVL287:
 262:lvgl/lvgl/src/core/lv_obj_style.c **** 
 2991              		.loc 1 262 1 is_stmt 0 view .LVU909
 2992 0022 F8BD     		pop	{r3, r4, r5, r6, r7, pc}
 262:lvgl/lvgl/src/core/lv_obj_style.c **** 
 2993              		.loc 1 262 1 view .LVU910
 2994              		.cfi_endproc
 2995              	.LFE165:
 2997              		.section	.text.trans_anim_cb,"ax",%progbits
 2998              		.align	1
 2999              		.syntax unified
 3000              		.thumb
 3001              		.thumb_func
 3002              		.fpu fpv4-sp-d16
 3004              	trans_anim_cb:
 3005              	.LVL288:
 3006              	.LFB182:
 700:lvgl/lvgl/src/core/lv_obj_style.c ****     trans_t * tr = _tr;
 3007              		.loc 1 700 1 is_stmt 1 view -0
 3008              		.cfi_startproc
 3009              		@ args = 0, pretend = 0, frame = 8
 3010              		@ frame_needed = 0, uses_anonymous_args = 0
 700:lvgl/lvgl/src/core/lv_obj_style.c ****     trans_t * tr = _tr;
ARM GAS  C:\Users\gx\AppData\Local\Temp\cc2sgWsf.s 			page 90


 3011              		.loc 1 700 1 is_stmt 0 view .LVU912
 3012 0000 2DE9F041 		push	{r4, r5, r6, r7, r8, lr}
 3013              	.LCFI35:
 3014              		.cfi_def_cfa_offset 24
 3015              		.cfi_offset 4, -24
 3016              		.cfi_offset 5, -20
 3017              		.cfi_offset 6, -16
 3018              		.cfi_offset 7, -12
 3019              		.cfi_offset 8, -8
 3020              		.cfi_offset 14, -4
 3021 0004 82B0     		sub	sp, sp, #8
 3022              	.LCFI36:
 3023              		.cfi_def_cfa_offset 32
 3024 0006 0446     		mov	r4, r0
 3025 0008 0F46     		mov	r7, r1
 701:lvgl/lvgl/src/core/lv_obj_style.c ****     lv_obj_t * obj = tr->obj;
 3026              		.loc 1 701 5 is_stmt 1 view .LVU913
 3027              	.LVL289:
 702:lvgl/lvgl/src/core/lv_obj_style.c **** 
 3028              		.loc 1 702 5 view .LVU914
 702:lvgl/lvgl/src/core/lv_obj_style.c **** 
 3029              		.loc 1 702 16 is_stmt 0 view .LVU915
 3030 000a 0568     		ldr	r5, [r0]
 3031              	.LVL290:
 704:lvgl/lvgl/src/core/lv_obj_style.c ****     for(i = 0; i < obj->style_cnt; i++) {
 3032              		.loc 1 704 5 is_stmt 1 view .LVU916
 705:lvgl/lvgl/src/core/lv_obj_style.c ****         if(obj->styles[i].is_trans == 0 || obj->styles[i].selector != tr->selector) continue;
 3033              		.loc 1 705 5 view .LVU917
 705:lvgl/lvgl/src/core/lv_obj_style.c ****         if(obj->styles[i].is_trans == 0 || obj->styles[i].selector != tr->selector) continue;
 3034              		.loc 1 705 11 is_stmt 0 view .LVU918
 3035 000c 0022     		movs	r2, #0
 705:lvgl/lvgl/src/core/lv_obj_style.c ****         if(obj->styles[i].is_trans == 0 || obj->styles[i].selector != tr->selector) continue;
 3036              		.loc 1 705 5 view .LVU919
 3037 000e 00E0     		b	.L200
 3038              	.LVL291:
 3039              	.L201:
 3040              	.LBB124:
 706:lvgl/lvgl/src/core/lv_obj_style.c **** 
 3041              		.loc 1 706 85 is_stmt 1 discriminator 3 view .LVU920
 3042              	.LBE124:
 705:lvgl/lvgl/src/core/lv_obj_style.c ****         if(obj->styles[i].is_trans == 0 || obj->styles[i].selector != tr->selector) continue;
 3043              		.loc 1 705 36 discriminator 3 view .LVU921
 705:lvgl/lvgl/src/core/lv_obj_style.c ****         if(obj->styles[i].is_trans == 0 || obj->styles[i].selector != tr->selector) continue;
 3044              		.loc 1 705 37 is_stmt 0 discriminator 3 view .LVU922
 3045 0010 0132     		adds	r2, r2, #1
 3046              	.LVL292:
 3047              	.L200:
 705:lvgl/lvgl/src/core/lv_obj_style.c ****         if(obj->styles[i].is_trans == 0 || obj->styles[i].selector != tr->selector) continue;
 3048              		.loc 1 705 16 is_stmt 1 discriminator 1 view .LVU923
 705:lvgl/lvgl/src/core/lv_obj_style.c ****         if(obj->styles[i].is_trans == 0 || obj->styles[i].selector != tr->selector) continue;
 3049              		.loc 1 705 23 is_stmt 0 discriminator 1 view .LVU924
 3050 0012 6B8C     		ldrh	r3, [r5, #34]
 3051 0014 C3F3C503 		ubfx	r3, r3, #3, #6
 705:lvgl/lvgl/src/core/lv_obj_style.c ****         if(obj->styles[i].is_trans == 0 || obj->styles[i].selector != tr->selector) continue;
 3052              		.loc 1 705 5 discriminator 1 view .LVU925
 3053 0018 9342     		cmp	r3, r2
 3054 001a 40F2B480 		bls	.L199
ARM GAS  C:\Users\gx\AppData\Local\Temp\cc2sgWsf.s 			page 91


 3055              	.LBB127:
 706:lvgl/lvgl/src/core/lv_obj_style.c **** 
 3056              		.loc 1 706 9 is_stmt 1 view .LVU926
 706:lvgl/lvgl/src/core/lv_obj_style.c **** 
 3057              		.loc 1 706 15 is_stmt 0 view .LVU927
 3058 001e EB68     		ldr	r3, [r5, #12]
 706:lvgl/lvgl/src/core/lv_obj_style.c **** 
 3059              		.loc 1 706 23 view .LVU928
 3060 0020 D600     		lsls	r6, r2, #3
 3061 0022 03EBC203 		add	r3, r3, r2, lsl #3
 706:lvgl/lvgl/src/core/lv_obj_style.c **** 
 3062              		.loc 1 706 36 view .LVU929
 3063 0026 D879     		ldrb	r0, [r3, #7]	@ zero_extendqisi2
 706:lvgl/lvgl/src/core/lv_obj_style.c **** 
 3064              		.loc 1 706 11 view .LVU930
 3065 0028 10F0020F 		tst	r0, #2
 3066 002c F0D0     		beq	.L201
 706:lvgl/lvgl/src/core/lv_obj_style.c **** 
 3067              		.loc 1 706 58 discriminator 2 view .LVU931
 3068 002e 5868     		ldr	r0, [r3, #4]
 3069 0030 C0F31700 		ubfx	r0, r0, #0, #24
 706:lvgl/lvgl/src/core/lv_obj_style.c **** 
 3070              		.loc 1 706 73 discriminator 2 view .LVU932
 3071 0034 A168     		ldr	r1, [r4, #8]
 706:lvgl/lvgl/src/core/lv_obj_style.c **** 
 3072              		.loc 1 706 41 discriminator 2 view .LVU933
 3073 0036 8842     		cmp	r0, r1
 3074 0038 EAD1     		bne	.L201
 708:lvgl/lvgl/src/core/lv_obj_style.c ****         switch (tr->prop) {
 3075              		.loc 1 708 9 is_stmt 1 view .LVU934
 709:lvgl/lvgl/src/core/lv_obj_style.c **** 
 3076              		.loc 1 709 9 view .LVU935
 709:lvgl/lvgl/src/core/lv_obj_style.c **** 
 3077              		.loc 1 709 19 is_stmt 0 view .LVU936
 3078 003a A188     		ldrh	r1, [r4, #4]
 709:lvgl/lvgl/src/core/lv_obj_style.c **** 
 3079              		.loc 1 709 9 view .LVU937
 3080 003c 6829     		cmp	r1, #104
 3081 003e 2DD8     		bhi	.L203
 3082 0040 2029     		cmp	r1, #32
 3083 0042 C0F08280 		bcc	.L204
 3084 0046 A1F12002 		sub	r2, r1, #32
 3085              	.LVL293:
 709:lvgl/lvgl/src/core/lv_obj_style.c **** 
 3086              		.loc 1 709 9 view .LVU938
 3087 004a 482A     		cmp	r2, #72
 3088 004c 7DD8     		bhi	.L204
 3089 004e DFE802F0 		tbb	[pc, r2]
 3090              	.L206:
 3091 0052 52       		.byte	(.L209-.L206)/2
 3092 0053 7C       		.byte	(.L204-.L206)/2
 3093 0054 7C       		.byte	(.L204-.L206)/2
 3094 0055 7C       		.byte	(.L204-.L206)/2
 3095 0056 7C       		.byte	(.L204-.L206)/2
 3096 0057 7C       		.byte	(.L204-.L206)/2
 3097 0058 7C       		.byte	(.L204-.L206)/2
 3098 0059 7C       		.byte	(.L204-.L206)/2
ARM GAS  C:\Users\gx\AppData\Local\Temp\cc2sgWsf.s 			page 92


 3099 005a 7C       		.byte	(.L204-.L206)/2
 3100 005b 7C       		.byte	(.L204-.L206)/2
 3101 005c 7C       		.byte	(.L204-.L206)/2
 3102 005d 7C       		.byte	(.L204-.L206)/2
 3103 005e 7C       		.byte	(.L204-.L206)/2
 3104 005f 7C       		.byte	(.L204-.L206)/2
 3105 0060 7C       		.byte	(.L204-.L206)/2
 3106 0061 7C       		.byte	(.L204-.L206)/2
 3107 0062 52       		.byte	(.L209-.L206)/2
 3108 0063 7C       		.byte	(.L204-.L206)/2
 3109 0064 7C       		.byte	(.L204-.L206)/2
 3110 0065 31       		.byte	(.L205-.L206)/2
 3111 0066 31       		.byte	(.L205-.L206)/2
 3112 0067 7C       		.byte	(.L204-.L206)/2
 3113 0068 7C       		.byte	(.L204-.L206)/2
 3114 0069 7C       		.byte	(.L204-.L206)/2
 3115 006a 7C       		.byte	(.L204-.L206)/2
 3116 006b 7C       		.byte	(.L204-.L206)/2
 3117 006c 7C       		.byte	(.L204-.L206)/2
 3118 006d 52       		.byte	(.L209-.L206)/2
 3119 006e 7C       		.byte	(.L204-.L206)/2
 3120 006f 7C       		.byte	(.L204-.L206)/2
 3121 0070 7C       		.byte	(.L204-.L206)/2
 3122 0071 7C       		.byte	(.L204-.L206)/2
 3123 0072 7C       		.byte	(.L204-.L206)/2
 3124 0073 7C       		.byte	(.L204-.L206)/2
 3125 0074 7C       		.byte	(.L204-.L206)/2
 3126 0075 7C       		.byte	(.L204-.L206)/2
 3127 0076 52       		.byte	(.L209-.L206)/2
 3128 0077 7C       		.byte	(.L204-.L206)/2
 3129 0078 7C       		.byte	(.L204-.L206)/2
 3130 0079 52       		.byte	(.L209-.L206)/2
 3131 007a 7C       		.byte	(.L204-.L206)/2
 3132 007b 7C       		.byte	(.L204-.L206)/2
 3133 007c 7C       		.byte	(.L204-.L206)/2
 3134 007d 7C       		.byte	(.L204-.L206)/2
 3135 007e 7C       		.byte	(.L204-.L206)/2
 3136 007f 7C       		.byte	(.L204-.L206)/2
 3137 0080 7C       		.byte	(.L204-.L206)/2
 3138 0081 7C       		.byte	(.L204-.L206)/2
 3139 0082 7C       		.byte	(.L204-.L206)/2
 3140 0083 7C       		.byte	(.L204-.L206)/2
 3141 0084 7C       		.byte	(.L204-.L206)/2
 3142 0085 7C       		.byte	(.L204-.L206)/2
 3143 0086 7C       		.byte	(.L204-.L206)/2
 3144 0087 7C       		.byte	(.L204-.L206)/2
 3145 0088 7C       		.byte	(.L204-.L206)/2
 3146 0089 7C       		.byte	(.L204-.L206)/2
 3147 008a 7C       		.byte	(.L204-.L206)/2
 3148 008b 7C       		.byte	(.L204-.L206)/2
 3149 008c 7C       		.byte	(.L204-.L206)/2
 3150 008d 7C       		.byte	(.L204-.L206)/2
 3151 008e 7C       		.byte	(.L204-.L206)/2
 3152 008f 7C       		.byte	(.L204-.L206)/2
 3153 0090 7C       		.byte	(.L204-.L206)/2
 3154 0091 7C       		.byte	(.L204-.L206)/2
 3155 0092 7C       		.byte	(.L204-.L206)/2
ARM GAS  C:\Users\gx\AppData\Local\Temp\cc2sgWsf.s 			page 93


 3156 0093 7C       		.byte	(.L204-.L206)/2
 3157 0094 7C       		.byte	(.L204-.L206)/2
 3158 0095 44       		.byte	(.L208-.L206)/2
 3159 0096 7C       		.byte	(.L204-.L206)/2
 3160 0097 7C       		.byte	(.L204-.L206)/2
 3161 0098 7C       		.byte	(.L204-.L206)/2
 3162 0099 2D       		.byte	(.L207-.L206)/2
 3163 009a 31       		.byte	(.L205-.L206)/2
 3164              	.LVL294:
 3165 009b 00       		.p2align 1
 3166              	.L203:
 709:lvgl/lvgl/src/core/lv_obj_style.c **** 
 3167              		.loc 1 709 9 view .LVU939
 3168 009c 40F25742 		movw	r2, #1111
 3169              	.LVL295:
 709:lvgl/lvgl/src/core/lv_obj_style.c **** 
 3170              		.loc 1 709 9 view .LVU940
 3171 00a0 9142     		cmp	r1, r2
 3172 00a2 28D0     		beq	.L209
 3173 00a4 41F25942 		movw	r2, #5209
 3174 00a8 9142     		cmp	r1, r2
 3175 00aa 4ED1     		bne	.L204
 3176              	.L207:
 719:lvgl/lvgl/src/core/lv_obj_style.c ****                 else value_final.ptr = tr->end_value.ptr;
 3177              		.loc 1 719 17 is_stmt 1 view .LVU941
 719:lvgl/lvgl/src/core/lv_obj_style.c ****                 else value_final.ptr = tr->end_value.ptr;
 3178              		.loc 1 719 19 is_stmt 0 view .LVU942
 3179 00ac FE2F     		cmp	r7, #254
 3180 00ae 12DC     		bgt	.L212
 719:lvgl/lvgl/src/core/lv_obj_style.c ****                 else value_final.ptr = tr->end_value.ptr;
 3181              		.loc 1 719 29 is_stmt 1 discriminator 1 view .LVU943
 719:lvgl/lvgl/src/core/lv_obj_style.c ****                 else value_final.ptr = tr->end_value.ptr;
 3182              		.loc 1 719 62 is_stmt 0 discriminator 1 view .LVU944
 3183 00b0 E768     		ldr	r7, [r4, #12]
 3184              	.LVL296:
 719:lvgl/lvgl/src/core/lv_obj_style.c ****                 else value_final.ptr = tr->end_value.ptr;
 3185              		.loc 1 719 62 discriminator 1 view .LVU945
 3186 00b2 02E0     		b	.L211
 3187              	.LVL297:
 3188              	.L205:
 714:lvgl/lvgl/src/core/lv_obj_style.c ****                 else value_final.num = tr->end_value.num;
 3189              		.loc 1 714 17 is_stmt 1 view .LVU946
 714:lvgl/lvgl/src/core/lv_obj_style.c ****                 else value_final.num = tr->end_value.num;
 3190              		.loc 1 714 19 is_stmt 0 view .LVU947
 3191 00b4 FE2F     		cmp	r7, #254
 3192 00b6 0CDC     		bgt	.L210
 714:lvgl/lvgl/src/core/lv_obj_style.c ****                 else value_final.num = tr->end_value.num;
 3193              		.loc 1 714 29 is_stmt 1 discriminator 1 view .LVU948
 714:lvgl/lvgl/src/core/lv_obj_style.c ****                 else value_final.num = tr->end_value.num;
 3194              		.loc 1 714 62 is_stmt 0 discriminator 1 view .LVU949
 3195 00b8 E768     		ldr	r7, [r4, #12]
 3196              	.LVL298:
 3197              	.L211:
 746:lvgl/lvgl/src/core/lv_obj_style.c ****         bool refr = true;
 3198              		.loc 1 746 9 is_stmt 1 view .LVU950
 747:lvgl/lvgl/src/core/lv_obj_style.c ****         if(lv_style_get_prop(obj->styles[i].style, tr->prop, &old_value)) {
 3199              		.loc 1 747 9 view .LVU951
ARM GAS  C:\Users\gx\AppData\Local\Temp\cc2sgWsf.s 			page 94


 748:lvgl/lvgl/src/core/lv_obj_style.c ****             if(value_final.ptr == old_value.ptr && value_final.color.full == old_value.color.full &
 3200              		.loc 1 748 9 view .LVU952
 748:lvgl/lvgl/src/core/lv_obj_style.c ****             if(value_final.ptr == old_value.ptr && value_final.color.full == old_value.color.full &
 3201              		.loc 1 748 12 is_stmt 0 view .LVU953
 3202 00ba 01AA     		add	r2, sp, #4
 3203 00bc 1868     		ldr	r0, [r3]
 3204 00be FFF7FEFF 		bl	lv_style_get_prop
 3205              	.LVL299:
 748:lvgl/lvgl/src/core/lv_obj_style.c ****             if(value_final.ptr == old_value.ptr && value_final.color.full == old_value.color.full &
 3206              		.loc 1 748 11 view .LVU954
 3207 00c2 0028     		cmp	r0, #0
 3208 00c4 54D0     		beq	.L224
 749:lvgl/lvgl/src/core/lv_obj_style.c ****                 refr = false;
 3209              		.loc 1 749 13 is_stmt 1 view .LVU955
 749:lvgl/lvgl/src/core/lv_obj_style.c ****                 refr = false;
 3210              		.loc 1 749 44 is_stmt 0 view .LVU956
 3211 00c6 019B     		ldr	r3, [sp, #4]
 749:lvgl/lvgl/src/core/lv_obj_style.c ****                 refr = false;
 3212              		.loc 1 749 15 view .LVU957
 3213 00c8 9F42     		cmp	r7, r3
 3214 00ca 4DD0     		beq	.L228
 747:lvgl/lvgl/src/core/lv_obj_style.c ****         if(lv_style_get_prop(obj->styles[i].style, tr->prop, &old_value)) {
 3215              		.loc 1 747 14 view .LVU958
 3216 00cc 4FF00108 		mov	r8, #1
 3217 00d0 50E0     		b	.L220
 3218              	.LVL300:
 3219              	.L210:
 715:lvgl/lvgl/src/core/lv_obj_style.c ****                 break;
 3220              		.loc 1 715 22 is_stmt 1 view .LVU959
 715:lvgl/lvgl/src/core/lv_obj_style.c ****                 break;
 3221              		.loc 1 715 53 is_stmt 0 view .LVU960
 3222 00d2 2769     		ldr	r7, [r4, #16]
 3223              	.LVL301:
 715:lvgl/lvgl/src/core/lv_obj_style.c ****                 break;
 3224              		.loc 1 715 53 view .LVU961
 3225 00d4 F1E7     		b	.L211
 3226              	.LVL302:
 3227              	.L212:
 720:lvgl/lvgl/src/core/lv_obj_style.c ****                 break;
 3228              		.loc 1 720 22 is_stmt 1 view .LVU962
 720:lvgl/lvgl/src/core/lv_obj_style.c ****                 break;
 3229              		.loc 1 720 53 is_stmt 0 view .LVU963
 3230 00d6 2769     		ldr	r7, [r4, #16]
 3231              	.LVL303:
 720:lvgl/lvgl/src/core/lv_obj_style.c ****                 break;
 3232              		.loc 1 720 53 view .LVU964
 3233 00d8 EFE7     		b	.L211
 3234              	.LVL304:
 3235              	.L208:
 723:lvgl/lvgl/src/core/lv_obj_style.c ****                 else if(tr->end_value.ptr == NULL) value_final.ptr = tr->start_value.ptr;
 3236              		.loc 1 723 17 is_stmt 1 view .LVU965
 723:lvgl/lvgl/src/core/lv_obj_style.c ****                 else if(tr->end_value.ptr == NULL) value_final.ptr = tr->start_value.ptr;
 3237              		.loc 1 723 35 is_stmt 0 view .LVU966
 3238 00da E268     		ldr	r2, [r4, #12]
 723:lvgl/lvgl/src/core/lv_obj_style.c ****                 else if(tr->end_value.ptr == NULL) value_final.ptr = tr->start_value.ptr;
 3239              		.loc 1 723 19 view .LVU967
 3240 00dc 2AB1     		cbz	r2, .L229
ARM GAS  C:\Users\gx\AppData\Local\Temp\cc2sgWsf.s 			page 95


 724:lvgl/lvgl/src/core/lv_obj_style.c ****                 else if(v < 128) value_final.ptr = tr->start_value.ptr;
 3241              		.loc 1 724 22 is_stmt 1 view .LVU968
 724:lvgl/lvgl/src/core/lv_obj_style.c ****                 else if(v < 128) value_final.ptr = tr->start_value.ptr;
 3242              		.loc 1 724 38 is_stmt 0 view .LVU969
 3243 00de 2069     		ldr	r0, [r4, #16]
 724:lvgl/lvgl/src/core/lv_obj_style.c ****                 else if(v < 128) value_final.ptr = tr->start_value.ptr;
 3244              		.loc 1 724 24 view .LVU970
 3245 00e0 28B1     		cbz	r0, .L230
 725:lvgl/lvgl/src/core/lv_obj_style.c ****                 else value_final.ptr = tr->end_value.ptr;
 3246              		.loc 1 725 22 is_stmt 1 view .LVU971
 725:lvgl/lvgl/src/core/lv_obj_style.c ****                 else value_final.ptr = tr->end_value.ptr;
 3247              		.loc 1 725 24 is_stmt 0 view .LVU972
 3248 00e2 7F2F     		cmp	r7, #127
 3249 00e4 05DC     		bgt	.L215
 725:lvgl/lvgl/src/core/lv_obj_style.c ****                 else value_final.ptr = tr->end_value.ptr;
 3250              		.loc 1 725 34 is_stmt 1 discriminator 1 view .LVU973
 725:lvgl/lvgl/src/core/lv_obj_style.c ****                 else value_final.ptr = tr->end_value.ptr;
 3251              		.loc 1 725 50 is_stmt 0 discriminator 1 view .LVU974
 3252 00e6 1746     		mov	r7, r2
 3253              	.LVL305:
 725:lvgl/lvgl/src/core/lv_obj_style.c ****                 else value_final.ptr = tr->end_value.ptr;
 3254              		.loc 1 725 50 discriminator 1 view .LVU975
 3255 00e8 E7E7     		b	.L211
 3256              	.LVL306:
 3257              	.L229:
 723:lvgl/lvgl/src/core/lv_obj_style.c ****                 else if(tr->end_value.ptr == NULL) value_final.ptr = tr->start_value.ptr;
 3258              		.loc 1 723 49 is_stmt 1 discriminator 1 view .LVU976
 723:lvgl/lvgl/src/core/lv_obj_style.c ****                 else if(tr->end_value.ptr == NULL) value_final.ptr = tr->start_value.ptr;
 3259              		.loc 1 723 80 is_stmt 0 discriminator 1 view .LVU977
 3260 00ea 2769     		ldr	r7, [r4, #16]
 3261              	.LVL307:
 723:lvgl/lvgl/src/core/lv_obj_style.c ****                 else if(tr->end_value.ptr == NULL) value_final.ptr = tr->start_value.ptr;
 3262              		.loc 1 723 80 discriminator 1 view .LVU978
 3263 00ec E5E7     		b	.L211
 3264              	.LVL308:
 3265              	.L230:
 724:lvgl/lvgl/src/core/lv_obj_style.c ****                 else if(v < 128) value_final.ptr = tr->start_value.ptr;
 3266              		.loc 1 724 52 is_stmt 1 discriminator 1 view .LVU979
 724:lvgl/lvgl/src/core/lv_obj_style.c ****                 else if(v < 128) value_final.ptr = tr->start_value.ptr;
 3267              		.loc 1 724 68 is_stmt 0 discriminator 1 view .LVU980
 3268 00ee 1746     		mov	r7, r2
 3269              	.LVL309:
 724:lvgl/lvgl/src/core/lv_obj_style.c ****                 else if(v < 128) value_final.ptr = tr->start_value.ptr;
 3270              		.loc 1 724 68 discriminator 1 view .LVU981
 3271 00f0 E3E7     		b	.L211
 3272              	.LVL310:
 3273              	.L215:
 726:lvgl/lvgl/src/core/lv_obj_style.c ****                 break;
 3274              		.loc 1 726 22 is_stmt 1 view .LVU982
 726:lvgl/lvgl/src/core/lv_obj_style.c ****                 break;
 3275              		.loc 1 726 38 is_stmt 0 view .LVU983
 3276 00f2 0746     		mov	r7, r0
 3277              	.LVL311:
 726:lvgl/lvgl/src/core/lv_obj_style.c ****                 break;
 3278              		.loc 1 726 38 view .LVU984
 3279 00f4 E1E7     		b	.L211
 3280              	.LVL312:
ARM GAS  C:\Users\gx\AppData\Local\Temp\cc2sgWsf.s 			page 96


 3281              	.L209:
 734:lvgl/lvgl/src/core/lv_obj_style.c ****                 else if(v >= 255) value_final.color = tr->end_value.color;
 3282              		.loc 1 734 17 is_stmt 1 view .LVU985
 734:lvgl/lvgl/src/core/lv_obj_style.c ****                 else if(v >= 255) value_final.color = tr->end_value.color;
 3283              		.loc 1 734 19 is_stmt 0 view .LVU986
 3284 00f6 002F     		cmp	r7, #0
 3285 00f8 06DD     		ble	.L231
 735:lvgl/lvgl/src/core/lv_obj_style.c ****                 else value_final.color = lv_color_mix(tr->end_value.color, tr->start_value.color, v
 3286              		.loc 1 735 22 is_stmt 1 view .LVU987
 735:lvgl/lvgl/src/core/lv_obj_style.c ****                 else value_final.color = lv_color_mix(tr->end_value.color, tr->start_value.color, v
 3287              		.loc 1 735 24 is_stmt 0 view .LVU988
 3288 00fa FE2F     		cmp	r7, #254
 3289 00fc 09DD     		ble	.L217
 735:lvgl/lvgl/src/core/lv_obj_style.c ****                 else value_final.color = lv_color_mix(tr->end_value.color, tr->start_value.color, v
 3290              		.loc 1 735 35 is_stmt 1 discriminator 1 view .LVU989
 735:lvgl/lvgl/src/core/lv_obj_style.c ****                 else value_final.color = lv_color_mix(tr->end_value.color, tr->start_value.color, v
 3291              		.loc 1 735 53 is_stmt 0 discriminator 1 view .LVU990
 3292 00fe 228A     		ldrh	r2, [r4, #16]
 3293 0100 0027     		movs	r7, #0
 3294              	.LVL313:
 735:lvgl/lvgl/src/core/lv_obj_style.c ****                 else value_final.color = lv_color_mix(tr->end_value.color, tr->start_value.color, v
 3295              		.loc 1 735 53 discriminator 1 view .LVU991
 3296 0102 62F30F07 		bfi	r7, r2, #0, #16
 3297              	.LVL314:
 735:lvgl/lvgl/src/core/lv_obj_style.c ****                 else value_final.color = lv_color_mix(tr->end_value.color, tr->start_value.color, v
 3298              		.loc 1 735 53 discriminator 1 view .LVU992
 3299 0106 D8E7     		b	.L211
 3300              	.LVL315:
 3301              	.L231:
 734:lvgl/lvgl/src/core/lv_obj_style.c ****                 else if(v >= 255) value_final.color = tr->end_value.color;
 3302              		.loc 1 734 28 is_stmt 1 discriminator 1 view .LVU993
 734:lvgl/lvgl/src/core/lv_obj_style.c ****                 else if(v >= 255) value_final.color = tr->end_value.color;
 3303              		.loc 1 734 46 is_stmt 0 discriminator 1 view .LVU994
 3304 0108 A289     		ldrh	r2, [r4, #12]
 3305 010a 0027     		movs	r7, #0
 3306              	.LVL316:
 734:lvgl/lvgl/src/core/lv_obj_style.c ****                 else if(v >= 255) value_final.color = tr->end_value.color;
 3307              		.loc 1 734 46 discriminator 1 view .LVU995
 3308 010c 62F30F07 		bfi	r7, r2, #0, #16
 3309              	.LVL317:
 734:lvgl/lvgl/src/core/lv_obj_style.c ****                 else if(v >= 255) value_final.color = tr->end_value.color;
 3310              		.loc 1 734 46 discriminator 1 view .LVU996
 3311 0110 D3E7     		b	.L211
 3312              	.LVL318:
 3313              	.L217:
 736:lvgl/lvgl/src/core/lv_obj_style.c ****                 break;
 3314              		.loc 1 736 22 is_stmt 1 view .LVU997
 3315              	.LBB125:
 3316              	.LBI125:
 3317              		.file 4 "lvgl/lvgl/src/core/../misc/lv_color.h"
   1:lvgl/lvgl/src/core/../misc/lv_color.h **** /**
   2:lvgl/lvgl/src/core/../misc/lv_color.h ****  * @file lv_color.h
   3:lvgl/lvgl/src/core/../misc/lv_color.h ****  *
   4:lvgl/lvgl/src/core/../misc/lv_color.h ****  */
   5:lvgl/lvgl/src/core/../misc/lv_color.h **** 
   6:lvgl/lvgl/src/core/../misc/lv_color.h **** #ifndef LV_COLOR_H
   7:lvgl/lvgl/src/core/../misc/lv_color.h **** #define LV_COLOR_H
ARM GAS  C:\Users\gx\AppData\Local\Temp\cc2sgWsf.s 			page 97


   8:lvgl/lvgl/src/core/../misc/lv_color.h **** 
   9:lvgl/lvgl/src/core/../misc/lv_color.h **** #ifdef __cplusplus
  10:lvgl/lvgl/src/core/../misc/lv_color.h **** extern "C" {
  11:lvgl/lvgl/src/core/../misc/lv_color.h **** #endif
  12:lvgl/lvgl/src/core/../misc/lv_color.h **** 
  13:lvgl/lvgl/src/core/../misc/lv_color.h **** /*********************
  14:lvgl/lvgl/src/core/../misc/lv_color.h ****  *      INCLUDES
  15:lvgl/lvgl/src/core/../misc/lv_color.h ****  *********************/
  16:lvgl/lvgl/src/core/../misc/lv_color.h **** #include "../lv_conf_internal.h"
  17:lvgl/lvgl/src/core/../misc/lv_color.h **** #include "lv_math.h"
  18:lvgl/lvgl/src/core/../misc/lv_color.h **** #include "lv_types.h"
  19:lvgl/lvgl/src/core/../misc/lv_color.h **** 
  20:lvgl/lvgl/src/core/../misc/lv_color.h **** /*Error checking*/
  21:lvgl/lvgl/src/core/../misc/lv_color.h **** #if LV_COLOR_DEPTH == 24
  22:lvgl/lvgl/src/core/../misc/lv_color.h **** #error "LV_COLOR_DEPTH 24 is deprecated. Use LV_COLOR_DEPTH 32 instead (lv_conf.h)"
  23:lvgl/lvgl/src/core/../misc/lv_color.h **** #endif
  24:lvgl/lvgl/src/core/../misc/lv_color.h **** 
  25:lvgl/lvgl/src/core/../misc/lv_color.h **** #if LV_COLOR_DEPTH != 32 && LV_COLOR_SCREEN_TRANSP != 0
  26:lvgl/lvgl/src/core/../misc/lv_color.h **** #error "LV_COLOR_SCREEN_TRANSP requires LV_COLOR_DEPTH == 32. Set it in lv_conf.h"
  27:lvgl/lvgl/src/core/../misc/lv_color.h **** #endif
  28:lvgl/lvgl/src/core/../misc/lv_color.h **** 
  29:lvgl/lvgl/src/core/../misc/lv_color.h **** #if LV_COLOR_DEPTH != 16 && LV_COLOR_16_SWAP != 0
  30:lvgl/lvgl/src/core/../misc/lv_color.h **** #error "LV_COLOR_16_SWAP requires LV_COLOR_DEPTH == 16. Set it in lv_conf.h"
  31:lvgl/lvgl/src/core/../misc/lv_color.h **** #endif
  32:lvgl/lvgl/src/core/../misc/lv_color.h **** 
  33:lvgl/lvgl/src/core/../misc/lv_color.h **** #include <stdint.h>
  34:lvgl/lvgl/src/core/../misc/lv_color.h **** 
  35:lvgl/lvgl/src/core/../misc/lv_color.h **** /*********************
  36:lvgl/lvgl/src/core/../misc/lv_color.h ****  *      DEFINES
  37:lvgl/lvgl/src/core/../misc/lv_color.h ****  *********************/
  38:lvgl/lvgl/src/core/../misc/lv_color.h **** 
  39:lvgl/lvgl/src/core/../misc/lv_color.h **** /**
  40:lvgl/lvgl/src/core/../misc/lv_color.h ****  * Opacity percentages.
  41:lvgl/lvgl/src/core/../misc/lv_color.h ****  */
  42:lvgl/lvgl/src/core/../misc/lv_color.h **** enum {
  43:lvgl/lvgl/src/core/../misc/lv_color.h ****     LV_OPA_TRANSP = 0,
  44:lvgl/lvgl/src/core/../misc/lv_color.h ****     LV_OPA_0      = 0,
  45:lvgl/lvgl/src/core/../misc/lv_color.h ****     LV_OPA_10     = 25,
  46:lvgl/lvgl/src/core/../misc/lv_color.h ****     LV_OPA_20     = 51,
  47:lvgl/lvgl/src/core/../misc/lv_color.h ****     LV_OPA_30     = 76,
  48:lvgl/lvgl/src/core/../misc/lv_color.h ****     LV_OPA_40     = 102,
  49:lvgl/lvgl/src/core/../misc/lv_color.h ****     LV_OPA_50     = 127,
  50:lvgl/lvgl/src/core/../misc/lv_color.h ****     LV_OPA_60     = 153,
  51:lvgl/lvgl/src/core/../misc/lv_color.h ****     LV_OPA_70     = 178,
  52:lvgl/lvgl/src/core/../misc/lv_color.h ****     LV_OPA_80     = 204,
  53:lvgl/lvgl/src/core/../misc/lv_color.h ****     LV_OPA_90     = 229,
  54:lvgl/lvgl/src/core/../misc/lv_color.h ****     LV_OPA_100    = 255,
  55:lvgl/lvgl/src/core/../misc/lv_color.h ****     LV_OPA_COVER  = 255,
  56:lvgl/lvgl/src/core/../misc/lv_color.h **** };
  57:lvgl/lvgl/src/core/../misc/lv_color.h **** 
  58:lvgl/lvgl/src/core/../misc/lv_color.h **** #define LV_OPA_MIN 2    /*Opacities below this will be transparent*/
  59:lvgl/lvgl/src/core/../misc/lv_color.h **** #define LV_OPA_MAX 253  /*Opacities above this will fully cover*/
  60:lvgl/lvgl/src/core/../misc/lv_color.h **** 
  61:lvgl/lvgl/src/core/../misc/lv_color.h **** #if LV_COLOR_DEPTH == 1
  62:lvgl/lvgl/src/core/../misc/lv_color.h **** #define LV_COLOR_SIZE 8
  63:lvgl/lvgl/src/core/../misc/lv_color.h **** #elif LV_COLOR_DEPTH == 8
  64:lvgl/lvgl/src/core/../misc/lv_color.h **** #define LV_COLOR_SIZE 8
ARM GAS  C:\Users\gx\AppData\Local\Temp\cc2sgWsf.s 			page 98


  65:lvgl/lvgl/src/core/../misc/lv_color.h **** #elif LV_COLOR_DEPTH == 16
  66:lvgl/lvgl/src/core/../misc/lv_color.h **** #define LV_COLOR_SIZE 16
  67:lvgl/lvgl/src/core/../misc/lv_color.h **** #elif LV_COLOR_DEPTH == 32
  68:lvgl/lvgl/src/core/../misc/lv_color.h **** #define LV_COLOR_SIZE 32
  69:lvgl/lvgl/src/core/../misc/lv_color.h **** #else
  70:lvgl/lvgl/src/core/../misc/lv_color.h **** #error "Invalid LV_COLOR_DEPTH in lv_conf.h! Set it to 1, 8, 16 or 32!"
  71:lvgl/lvgl/src/core/../misc/lv_color.h **** #endif
  72:lvgl/lvgl/src/core/../misc/lv_color.h **** 
  73:lvgl/lvgl/src/core/../misc/lv_color.h **** /**
  74:lvgl/lvgl/src/core/../misc/lv_color.h ****  * Adjust color mix functions rounding.
  75:lvgl/lvgl/src/core/../misc/lv_color.h ****  * GPUs might calculate color mix (blending) differently.
  76:lvgl/lvgl/src/core/../misc/lv_color.h ****  * Should be in range of 0..254
  77:lvgl/lvgl/src/core/../misc/lv_color.h ****  * 0: no adjustment, get the integer part of the result (round down)
  78:lvgl/lvgl/src/core/../misc/lv_color.h ****  * 64: round up from x.75
  79:lvgl/lvgl/src/core/../misc/lv_color.h ****  * 128: round up from half
  80:lvgl/lvgl/src/core/../misc/lv_color.h ****  * 192: round up from x.25
  81:lvgl/lvgl/src/core/../misc/lv_color.h ****  * 254: round up*/
  82:lvgl/lvgl/src/core/../misc/lv_color.h **** #ifndef LV_COLOR_MIX_ROUND_OFS
  83:lvgl/lvgl/src/core/../misc/lv_color.h **** #if LV_COLOR_DEPTH == 32
  84:lvgl/lvgl/src/core/../misc/lv_color.h **** #define LV_COLOR_MIX_ROUND_OFS 0
  85:lvgl/lvgl/src/core/../misc/lv_color.h **** #else
  86:lvgl/lvgl/src/core/../misc/lv_color.h **** #define LV_COLOR_MIX_ROUND_OFS 128
  87:lvgl/lvgl/src/core/../misc/lv_color.h **** #endif
  88:lvgl/lvgl/src/core/../misc/lv_color.h **** #endif
  89:lvgl/lvgl/src/core/../misc/lv_color.h **** 
  90:lvgl/lvgl/src/core/../misc/lv_color.h **** #if defined(__cplusplus) && !defined(_LV_COLOR_HAS_MODERN_CPP)
  91:lvgl/lvgl/src/core/../misc/lv_color.h **** /**
  92:lvgl/lvgl/src/core/../misc/lv_color.h **** * MSVC compiler's definition of the __cplusplus indicating 199711L regardless to C++ standard versi
  93:lvgl/lvgl/src/core/../misc/lv_color.h **** * see https://devblogs.microsoft.com/cppblog/msvc-now-correctly-reports-cplusplus
  94:lvgl/lvgl/src/core/../misc/lv_color.h **** * so we use _MSC_VER macro instead of __cplusplus
  95:lvgl/lvgl/src/core/../misc/lv_color.h **** */
  96:lvgl/lvgl/src/core/../misc/lv_color.h **** #ifdef _MSC_VER
  97:lvgl/lvgl/src/core/../misc/lv_color.h **** #if _MSC_VER >= 1900 /*Visual Studio 2015*/
  98:lvgl/lvgl/src/core/../misc/lv_color.h **** #define _LV_COLOR_HAS_MODERN_CPP 1
  99:lvgl/lvgl/src/core/../misc/lv_color.h **** #endif
 100:lvgl/lvgl/src/core/../misc/lv_color.h **** #else
 101:lvgl/lvgl/src/core/../misc/lv_color.h **** #if __cplusplus >= 201103L
 102:lvgl/lvgl/src/core/../misc/lv_color.h **** #define _LV_COLOR_HAS_MODERN_CPP 1
 103:lvgl/lvgl/src/core/../misc/lv_color.h **** #endif
 104:lvgl/lvgl/src/core/../misc/lv_color.h **** #endif
 105:lvgl/lvgl/src/core/../misc/lv_color.h **** #endif /*__cplusplus*/
 106:lvgl/lvgl/src/core/../misc/lv_color.h **** 
 107:lvgl/lvgl/src/core/../misc/lv_color.h **** #ifndef _LV_COLOR_HAS_MODERN_CPP
 108:lvgl/lvgl/src/core/../misc/lv_color.h **** #define _LV_COLOR_HAS_MODERN_CPP 0
 109:lvgl/lvgl/src/core/../misc/lv_color.h **** #endif
 110:lvgl/lvgl/src/core/../misc/lv_color.h **** 
 111:lvgl/lvgl/src/core/../misc/lv_color.h **** #if _LV_COLOR_HAS_MODERN_CPP
 112:lvgl/lvgl/src/core/../misc/lv_color.h **** /*Fix msvc compiler error C4576 inside C++ code*/
 113:lvgl/lvgl/src/core/../misc/lv_color.h **** #define _LV_COLOR_MAKE_TYPE_HELPER lv_color_t
 114:lvgl/lvgl/src/core/../misc/lv_color.h **** #else
 115:lvgl/lvgl/src/core/../misc/lv_color.h **** #define _LV_COLOR_MAKE_TYPE_HELPER (lv_color_t)
 116:lvgl/lvgl/src/core/../misc/lv_color.h **** #endif
 117:lvgl/lvgl/src/core/../misc/lv_color.h **** 
 118:lvgl/lvgl/src/core/../misc/lv_color.h **** /*---------------------------------------
 119:lvgl/lvgl/src/core/../misc/lv_color.h ****  * Macros for all existing color depths
 120:lvgl/lvgl/src/core/../misc/lv_color.h ****  * to set/get values of the color channels
 121:lvgl/lvgl/src/core/../misc/lv_color.h ****  *------------------------------------------*/
ARM GAS  C:\Users\gx\AppData\Local\Temp\cc2sgWsf.s 			page 99


 122:lvgl/lvgl/src/core/../misc/lv_color.h **** # define LV_COLOR_SET_R1(c, v) (c).ch.red = (uint8_t)((v) & 0x1)
 123:lvgl/lvgl/src/core/../misc/lv_color.h **** # define LV_COLOR_SET_G1(c, v) (c).ch.green = (uint8_t)((v) & 0x1)
 124:lvgl/lvgl/src/core/../misc/lv_color.h **** # define LV_COLOR_SET_B1(c, v) (c).ch.blue = (uint8_t)((v) & 0x1)
 125:lvgl/lvgl/src/core/../misc/lv_color.h **** # define LV_COLOR_SET_A1(c, v) do {} while(0)
 126:lvgl/lvgl/src/core/../misc/lv_color.h **** 
 127:lvgl/lvgl/src/core/../misc/lv_color.h **** # define LV_COLOR_GET_R1(c) (c).ch.red
 128:lvgl/lvgl/src/core/../misc/lv_color.h **** # define LV_COLOR_GET_G1(c) (c).ch.green
 129:lvgl/lvgl/src/core/../misc/lv_color.h **** # define LV_COLOR_GET_B1(c) (c).ch.blue
 130:lvgl/lvgl/src/core/../misc/lv_color.h **** # define LV_COLOR_GET_A1(c) 0xFF
 131:lvgl/lvgl/src/core/../misc/lv_color.h **** 
 132:lvgl/lvgl/src/core/../misc/lv_color.h **** # define _LV_COLOR_ZERO_INITIALIZER1 {0x00}
 133:lvgl/lvgl/src/core/../misc/lv_color.h **** # define LV_COLOR_MAKE1(r8, g8, b8)  {(uint8_t)((b8 >> 7) | (g8 >> 7) | (r8 >> 7))}
 134:lvgl/lvgl/src/core/../misc/lv_color.h **** 
 135:lvgl/lvgl/src/core/../misc/lv_color.h **** # define LV_COLOR_SET_R8(c, v) (c).ch.red = (uint8_t)((v) & 0x7U)
 136:lvgl/lvgl/src/core/../misc/lv_color.h **** # define LV_COLOR_SET_G8(c, v) (c).ch.green = (uint8_t)((v) & 0x7U)
 137:lvgl/lvgl/src/core/../misc/lv_color.h **** # define LV_COLOR_SET_B8(c, v) (c).ch.blue = (uint8_t)((v) & 0x3U)
 138:lvgl/lvgl/src/core/../misc/lv_color.h **** # define LV_COLOR_SET_A8(c, v) do {} while(0)
 139:lvgl/lvgl/src/core/../misc/lv_color.h **** 
 140:lvgl/lvgl/src/core/../misc/lv_color.h **** # define LV_COLOR_GET_R8(c) (c).ch.red
 141:lvgl/lvgl/src/core/../misc/lv_color.h **** # define LV_COLOR_GET_G8(c) (c).ch.green
 142:lvgl/lvgl/src/core/../misc/lv_color.h **** # define LV_COLOR_GET_B8(c) (c).ch.blue
 143:lvgl/lvgl/src/core/../misc/lv_color.h **** # define LV_COLOR_GET_A8(c) 0xFF
 144:lvgl/lvgl/src/core/../misc/lv_color.h **** 
 145:lvgl/lvgl/src/core/../misc/lv_color.h **** # define _LV_COLOR_ZERO_INITIALIZER8 {{0x00, 0x00, 0x00}}
 146:lvgl/lvgl/src/core/../misc/lv_color.h **** # define LV_COLOR_MAKE8(r8, g8, b8) {{(uint8_t)((b8 >> 6) & 0x3U), (uint8_t)((g8 >> 5) & 0x7U), (ui
 147:lvgl/lvgl/src/core/../misc/lv_color.h **** 
 148:lvgl/lvgl/src/core/../misc/lv_color.h **** # define LV_COLOR_SET_R16(c, v) (c).ch.red = (uint8_t)((v) & 0x1FU)
 149:lvgl/lvgl/src/core/../misc/lv_color.h **** #if LV_COLOR_16_SWAP == 0
 150:lvgl/lvgl/src/core/../misc/lv_color.h **** # define LV_COLOR_SET_G16(c, v) (c).ch.green = (uint8_t)((v) & 0x3FU)
 151:lvgl/lvgl/src/core/../misc/lv_color.h **** #else
 152:lvgl/lvgl/src/core/../misc/lv_color.h **** # define LV_COLOR_SET_G16(c, v) {(c).ch.green_h = (uint8_t)(((v) >> 3) & 0x7); (c).ch.green_l = (ui
 153:lvgl/lvgl/src/core/../misc/lv_color.h **** #endif
 154:lvgl/lvgl/src/core/../misc/lv_color.h **** # define LV_COLOR_SET_B16(c, v) (c).ch.blue = (uint8_t)((v) & 0x1FU)
 155:lvgl/lvgl/src/core/../misc/lv_color.h **** # define LV_COLOR_SET_A16(c, v) do {} while(0)
 156:lvgl/lvgl/src/core/../misc/lv_color.h **** 
 157:lvgl/lvgl/src/core/../misc/lv_color.h **** # define LV_COLOR_GET_R16(c) (c).ch.red
 158:lvgl/lvgl/src/core/../misc/lv_color.h **** #if LV_COLOR_16_SWAP == 0
 159:lvgl/lvgl/src/core/../misc/lv_color.h **** # define LV_COLOR_GET_G16(c) (c).ch.green
 160:lvgl/lvgl/src/core/../misc/lv_color.h **** #else
 161:lvgl/lvgl/src/core/../misc/lv_color.h **** # define LV_COLOR_GET_G16(c) (((c).ch.green_h << 3) + (c).ch.green_l)
 162:lvgl/lvgl/src/core/../misc/lv_color.h **** #endif
 163:lvgl/lvgl/src/core/../misc/lv_color.h **** # define LV_COLOR_GET_B16(c) (c).ch.blue
 164:lvgl/lvgl/src/core/../misc/lv_color.h **** # define LV_COLOR_GET_A16(c) 0xFF
 165:lvgl/lvgl/src/core/../misc/lv_color.h **** 
 166:lvgl/lvgl/src/core/../misc/lv_color.h **** #if LV_COLOR_16_SWAP == 0
 167:lvgl/lvgl/src/core/../misc/lv_color.h **** # define _LV_COLOR_ZERO_INITIALIZER16  {{0x00, 0x00, 0x00}}
 168:lvgl/lvgl/src/core/../misc/lv_color.h **** # define LV_COLOR_MAKE16(r8, g8, b8) {{(uint8_t)((b8 >> 3) & 0x1FU), (uint8_t)((g8 >> 2) & 0x3FU), 
 169:lvgl/lvgl/src/core/../misc/lv_color.h **** #else
 170:lvgl/lvgl/src/core/../misc/lv_color.h **** # define _LV_COLOR_ZERO_INITIALIZER16 {{0x00, 0x00, 0x00, 0x00}}
 171:lvgl/lvgl/src/core/../misc/lv_color.h **** # define LV_COLOR_MAKE16(r8, g8, b8) {{(uint8_t)((g8 >> 5) & 0x7U), (uint8_t)((r8 >> 3) & 0x1FU), (
 172:lvgl/lvgl/src/core/../misc/lv_color.h **** #endif
 173:lvgl/lvgl/src/core/../misc/lv_color.h **** 
 174:lvgl/lvgl/src/core/../misc/lv_color.h **** # define LV_COLOR_SET_R32(c, v) (c).ch.red = (uint8_t)((v) & 0xFF)
 175:lvgl/lvgl/src/core/../misc/lv_color.h **** # define LV_COLOR_SET_G32(c, v) (c).ch.green = (uint8_t)((v) & 0xFF)
 176:lvgl/lvgl/src/core/../misc/lv_color.h **** # define LV_COLOR_SET_B32(c, v) (c).ch.blue = (uint8_t)((v) & 0xFF)
 177:lvgl/lvgl/src/core/../misc/lv_color.h **** # define LV_COLOR_SET_A32(c, v) (c).ch.alpha = (uint8_t)((v) & 0xFF)
 178:lvgl/lvgl/src/core/../misc/lv_color.h **** 
ARM GAS  C:\Users\gx\AppData\Local\Temp\cc2sgWsf.s 			page 100


 179:lvgl/lvgl/src/core/../misc/lv_color.h **** # define LV_COLOR_GET_R32(c) (c).ch.red
 180:lvgl/lvgl/src/core/../misc/lv_color.h **** # define LV_COLOR_GET_G32(c) (c).ch.green
 181:lvgl/lvgl/src/core/../misc/lv_color.h **** # define LV_COLOR_GET_B32(c) (c).ch.blue
 182:lvgl/lvgl/src/core/../misc/lv_color.h **** # define LV_COLOR_GET_A32(c) (c).ch.alpha
 183:lvgl/lvgl/src/core/../misc/lv_color.h **** 
 184:lvgl/lvgl/src/core/../misc/lv_color.h **** # define _LV_COLOR_ZERO_INITIALIZER32  {{0x00, 0x00, 0x00, 0x00}}
 185:lvgl/lvgl/src/core/../misc/lv_color.h **** # define LV_COLOR_MAKE32(r8, g8, b8) {{b8, g8, r8, 0xff}} /*Fix 0xff alpha*/
 186:lvgl/lvgl/src/core/../misc/lv_color.h **** 
 187:lvgl/lvgl/src/core/../misc/lv_color.h **** /*---------------------------------------
 188:lvgl/lvgl/src/core/../misc/lv_color.h ****  * Macros for the current color depth
 189:lvgl/lvgl/src/core/../misc/lv_color.h ****  * to set/get values of the color channels
 190:lvgl/lvgl/src/core/../misc/lv_color.h ****  *------------------------------------------*/
 191:lvgl/lvgl/src/core/../misc/lv_color.h **** #define LV_COLOR_SET_R(c, v) LV_CONCAT(LV_COLOR_SET_R, LV_COLOR_DEPTH)(c, v)
 192:lvgl/lvgl/src/core/../misc/lv_color.h **** #define LV_COLOR_SET_G(c, v) LV_CONCAT(LV_COLOR_SET_G, LV_COLOR_DEPTH)(c, v)
 193:lvgl/lvgl/src/core/../misc/lv_color.h **** #define LV_COLOR_SET_B(c, v) LV_CONCAT(LV_COLOR_SET_B, LV_COLOR_DEPTH)(c, v)
 194:lvgl/lvgl/src/core/../misc/lv_color.h **** #define LV_COLOR_SET_A(c, v) LV_CONCAT(LV_COLOR_SET_A, LV_COLOR_DEPTH)(c, v)
 195:lvgl/lvgl/src/core/../misc/lv_color.h **** 
 196:lvgl/lvgl/src/core/../misc/lv_color.h **** #define LV_COLOR_GET_R(c) LV_CONCAT(LV_COLOR_GET_R, LV_COLOR_DEPTH)(c)
 197:lvgl/lvgl/src/core/../misc/lv_color.h **** #define LV_COLOR_GET_G(c) LV_CONCAT(LV_COLOR_GET_G, LV_COLOR_DEPTH)(c)
 198:lvgl/lvgl/src/core/../misc/lv_color.h **** #define LV_COLOR_GET_B(c) LV_CONCAT(LV_COLOR_GET_B, LV_COLOR_DEPTH)(c)
 199:lvgl/lvgl/src/core/../misc/lv_color.h **** #define LV_COLOR_GET_A(c) LV_CONCAT(LV_COLOR_GET_A, LV_COLOR_DEPTH)(c)
 200:lvgl/lvgl/src/core/../misc/lv_color.h **** 
 201:lvgl/lvgl/src/core/../misc/lv_color.h **** #define _LV_COLOR_ZERO_INITIALIZER LV_CONCAT(_LV_COLOR_ZERO_INITIALIZER, LV_COLOR_DEPTH)
 202:lvgl/lvgl/src/core/../misc/lv_color.h **** #define LV_COLOR_MAKE(r8, g8, b8) LV_CONCAT(LV_COLOR_MAKE, LV_COLOR_DEPTH)(r8, g8, b8)
 203:lvgl/lvgl/src/core/../misc/lv_color.h **** 
 204:lvgl/lvgl/src/core/../misc/lv_color.h **** #define LV_UDIV255(x) ((uint32_t)((uint32_t) (x) * 0x8081) >> 0x17)
 205:lvgl/lvgl/src/core/../misc/lv_color.h **** 
 206:lvgl/lvgl/src/core/../misc/lv_color.h **** /**********************
 207:lvgl/lvgl/src/core/../misc/lv_color.h ****  *      TYPEDEFS
 208:lvgl/lvgl/src/core/../misc/lv_color.h ****  **********************/
 209:lvgl/lvgl/src/core/../misc/lv_color.h **** 
 210:lvgl/lvgl/src/core/../misc/lv_color.h **** typedef union {
 211:lvgl/lvgl/src/core/../misc/lv_color.h ****     uint8_t full; /*must be declared first to set all bits of byte via initializer list*/
 212:lvgl/lvgl/src/core/../misc/lv_color.h ****     union {
 213:lvgl/lvgl/src/core/../misc/lv_color.h ****         uint8_t blue : 1;
 214:lvgl/lvgl/src/core/../misc/lv_color.h ****         uint8_t green : 1;
 215:lvgl/lvgl/src/core/../misc/lv_color.h ****         uint8_t red : 1;
 216:lvgl/lvgl/src/core/../misc/lv_color.h ****     } ch;
 217:lvgl/lvgl/src/core/../misc/lv_color.h **** } lv_color1_t;
 218:lvgl/lvgl/src/core/../misc/lv_color.h **** 
 219:lvgl/lvgl/src/core/../misc/lv_color.h **** typedef union {
 220:lvgl/lvgl/src/core/../misc/lv_color.h ****     struct {
 221:lvgl/lvgl/src/core/../misc/lv_color.h ****         uint8_t blue : 2;
 222:lvgl/lvgl/src/core/../misc/lv_color.h ****         uint8_t green : 3;
 223:lvgl/lvgl/src/core/../misc/lv_color.h ****         uint8_t red : 3;
 224:lvgl/lvgl/src/core/../misc/lv_color.h ****     } ch;
 225:lvgl/lvgl/src/core/../misc/lv_color.h ****     uint8_t full;
 226:lvgl/lvgl/src/core/../misc/lv_color.h **** } lv_color8_t;
 227:lvgl/lvgl/src/core/../misc/lv_color.h **** 
 228:lvgl/lvgl/src/core/../misc/lv_color.h **** typedef union {
 229:lvgl/lvgl/src/core/../misc/lv_color.h ****     struct {
 230:lvgl/lvgl/src/core/../misc/lv_color.h **** #if LV_COLOR_16_SWAP == 0
 231:lvgl/lvgl/src/core/../misc/lv_color.h ****         uint16_t blue : 5;
 232:lvgl/lvgl/src/core/../misc/lv_color.h ****         uint16_t green : 6;
 233:lvgl/lvgl/src/core/../misc/lv_color.h ****         uint16_t red : 5;
 234:lvgl/lvgl/src/core/../misc/lv_color.h **** #else
 235:lvgl/lvgl/src/core/../misc/lv_color.h ****         uint16_t green_h : 3;
ARM GAS  C:\Users\gx\AppData\Local\Temp\cc2sgWsf.s 			page 101


 236:lvgl/lvgl/src/core/../misc/lv_color.h ****         uint16_t red : 5;
 237:lvgl/lvgl/src/core/../misc/lv_color.h ****         uint16_t blue : 5;
 238:lvgl/lvgl/src/core/../misc/lv_color.h ****         uint16_t green_l : 3;
 239:lvgl/lvgl/src/core/../misc/lv_color.h **** #endif
 240:lvgl/lvgl/src/core/../misc/lv_color.h ****     } ch;
 241:lvgl/lvgl/src/core/../misc/lv_color.h ****     uint16_t full;
 242:lvgl/lvgl/src/core/../misc/lv_color.h **** } lv_color16_t;
 243:lvgl/lvgl/src/core/../misc/lv_color.h **** 
 244:lvgl/lvgl/src/core/../misc/lv_color.h **** typedef union {
 245:lvgl/lvgl/src/core/../misc/lv_color.h ****     struct {
 246:lvgl/lvgl/src/core/../misc/lv_color.h ****         uint8_t blue;
 247:lvgl/lvgl/src/core/../misc/lv_color.h ****         uint8_t green;
 248:lvgl/lvgl/src/core/../misc/lv_color.h ****         uint8_t red;
 249:lvgl/lvgl/src/core/../misc/lv_color.h ****         uint8_t alpha;
 250:lvgl/lvgl/src/core/../misc/lv_color.h ****     } ch;
 251:lvgl/lvgl/src/core/../misc/lv_color.h ****     uint32_t full;
 252:lvgl/lvgl/src/core/../misc/lv_color.h **** } lv_color32_t;
 253:lvgl/lvgl/src/core/../misc/lv_color.h **** 
 254:lvgl/lvgl/src/core/../misc/lv_color.h **** typedef LV_CONCAT3(uint, LV_COLOR_SIZE, _t) lv_color_int_t;
 255:lvgl/lvgl/src/core/../misc/lv_color.h **** typedef LV_CONCAT3(lv_color, LV_COLOR_DEPTH, _t) lv_color_t;
 256:lvgl/lvgl/src/core/../misc/lv_color.h **** 
 257:lvgl/lvgl/src/core/../misc/lv_color.h **** typedef struct {
 258:lvgl/lvgl/src/core/../misc/lv_color.h ****     uint16_t h;
 259:lvgl/lvgl/src/core/../misc/lv_color.h ****     uint8_t s;
 260:lvgl/lvgl/src/core/../misc/lv_color.h ****     uint8_t v;
 261:lvgl/lvgl/src/core/../misc/lv_color.h **** } lv_color_hsv_t;
 262:lvgl/lvgl/src/core/../misc/lv_color.h **** 
 263:lvgl/lvgl/src/core/../misc/lv_color.h **** //! @cond Doxygen_Suppress
 264:lvgl/lvgl/src/core/../misc/lv_color.h **** /*No idea where the guard is required but else throws warnings in the docs*/
 265:lvgl/lvgl/src/core/../misc/lv_color.h **** typedef uint8_t lv_opa_t;
 266:lvgl/lvgl/src/core/../misc/lv_color.h **** //! @endcond
 267:lvgl/lvgl/src/core/../misc/lv_color.h **** 
 268:lvgl/lvgl/src/core/../misc/lv_color.h **** struct _lv_color_filter_dsc_t;
 269:lvgl/lvgl/src/core/../misc/lv_color.h **** 
 270:lvgl/lvgl/src/core/../misc/lv_color.h **** typedef lv_color_t (*lv_color_filter_cb_t)(const struct _lv_color_filter_dsc_t *, lv_color_t, lv_op
 271:lvgl/lvgl/src/core/../misc/lv_color.h **** 
 272:lvgl/lvgl/src/core/../misc/lv_color.h **** typedef struct _lv_color_filter_dsc_t {
 273:lvgl/lvgl/src/core/../misc/lv_color.h ****     lv_color_filter_cb_t filter_cb;
 274:lvgl/lvgl/src/core/../misc/lv_color.h ****     void * user_data;
 275:lvgl/lvgl/src/core/../misc/lv_color.h **** }lv_color_filter_dsc_t;
 276:lvgl/lvgl/src/core/../misc/lv_color.h **** 
 277:lvgl/lvgl/src/core/../misc/lv_color.h **** 
 278:lvgl/lvgl/src/core/../misc/lv_color.h **** typedef enum {
 279:lvgl/lvgl/src/core/../misc/lv_color.h ****     LV_PALETTE_RED,
 280:lvgl/lvgl/src/core/../misc/lv_color.h ****     LV_PALETTE_PINK,
 281:lvgl/lvgl/src/core/../misc/lv_color.h ****     LV_PALETTE_PURPLE,
 282:lvgl/lvgl/src/core/../misc/lv_color.h ****     LV_PALETTE_DEEP_PURPLE,
 283:lvgl/lvgl/src/core/../misc/lv_color.h ****     LV_PALETTE_INDIGO,
 284:lvgl/lvgl/src/core/../misc/lv_color.h ****     LV_PALETTE_BLUE,
 285:lvgl/lvgl/src/core/../misc/lv_color.h ****     LV_PALETTE_LIGHT_BLUE,
 286:lvgl/lvgl/src/core/../misc/lv_color.h ****     LV_PALETTE_CYAN,
 287:lvgl/lvgl/src/core/../misc/lv_color.h ****     LV_PALETTE_TEAL,
 288:lvgl/lvgl/src/core/../misc/lv_color.h ****     LV_PALETTE_GREEN,
 289:lvgl/lvgl/src/core/../misc/lv_color.h ****     LV_PALETTE_LIGHT_GREEN,
 290:lvgl/lvgl/src/core/../misc/lv_color.h ****     LV_PALETTE_LIME,
 291:lvgl/lvgl/src/core/../misc/lv_color.h ****     LV_PALETTE_YELLOW,
 292:lvgl/lvgl/src/core/../misc/lv_color.h ****     LV_PALETTE_AMBER,
ARM GAS  C:\Users\gx\AppData\Local\Temp\cc2sgWsf.s 			page 102


 293:lvgl/lvgl/src/core/../misc/lv_color.h ****     LV_PALETTE_ORANGE,
 294:lvgl/lvgl/src/core/../misc/lv_color.h ****     LV_PALETTE_DEEP_ORANGE,
 295:lvgl/lvgl/src/core/../misc/lv_color.h ****     LV_PALETTE_BROWN,
 296:lvgl/lvgl/src/core/../misc/lv_color.h ****     LV_PALETTE_BLUE_GREY,
 297:lvgl/lvgl/src/core/../misc/lv_color.h ****     LV_PALETTE_GREY,
 298:lvgl/lvgl/src/core/../misc/lv_color.h ****     _LV_PALETTE_LAST,
 299:lvgl/lvgl/src/core/../misc/lv_color.h ****     LV_PALETTE_NONE = 0xff,
 300:lvgl/lvgl/src/core/../misc/lv_color.h **** }lv_palette_t;
 301:lvgl/lvgl/src/core/../misc/lv_color.h **** 
 302:lvgl/lvgl/src/core/../misc/lv_color.h **** /**********************
 303:lvgl/lvgl/src/core/../misc/lv_color.h ****  * GLOBAL PROTOTYPES
 304:lvgl/lvgl/src/core/../misc/lv_color.h ****  **********************/
 305:lvgl/lvgl/src/core/../misc/lv_color.h **** 
 306:lvgl/lvgl/src/core/../misc/lv_color.h **** /*In color conversations:
 307:lvgl/lvgl/src/core/../misc/lv_color.h ****  * - When converting to bigger color type the LSB weight of 1 LSB is calculated
 308:lvgl/lvgl/src/core/../misc/lv_color.h ****  *   E.g. 16 bit Red has 5 bits
 309:lvgl/lvgl/src/core/../misc/lv_color.h ****  *         8 bit Red has 3 bits
 310:lvgl/lvgl/src/core/../misc/lv_color.h ****  *        ----------------------
 311:lvgl/lvgl/src/core/../misc/lv_color.h ****  *        8 bit red LSB = (2^5 - 1) / (2^3 - 1) = 31 / 7 = 4
 312:lvgl/lvgl/src/core/../misc/lv_color.h ****  *
 313:lvgl/lvgl/src/core/../misc/lv_color.h ****  * - When calculating to smaller color type simply shift out the LSBs
 314:lvgl/lvgl/src/core/../misc/lv_color.h ****  *   E.g.  8 bit Red has 3 bits
 315:lvgl/lvgl/src/core/../misc/lv_color.h ****  *        16 bit Red has 5 bits
 316:lvgl/lvgl/src/core/../misc/lv_color.h ****  *        ----------------------
 317:lvgl/lvgl/src/core/../misc/lv_color.h ****  *         Shift right with 5 - 3 = 2
 318:lvgl/lvgl/src/core/../misc/lv_color.h ****  */
 319:lvgl/lvgl/src/core/../misc/lv_color.h **** static inline uint8_t lv_color_to1(lv_color_t color)
 320:lvgl/lvgl/src/core/../misc/lv_color.h **** {
 321:lvgl/lvgl/src/core/../misc/lv_color.h **** #if LV_COLOR_DEPTH == 1
 322:lvgl/lvgl/src/core/../misc/lv_color.h ****     return color.full;
 323:lvgl/lvgl/src/core/../misc/lv_color.h **** #elif LV_COLOR_DEPTH == 8
 324:lvgl/lvgl/src/core/../misc/lv_color.h ****     if((LV_COLOR_GET_R(color) & 0x4) || (LV_COLOR_GET_G(color) & 0x4) || (LV_COLOR_GET_B(color) & 0
 325:lvgl/lvgl/src/core/../misc/lv_color.h ****         return 1;
 326:lvgl/lvgl/src/core/../misc/lv_color.h ****     }
 327:lvgl/lvgl/src/core/../misc/lv_color.h ****     else {
 328:lvgl/lvgl/src/core/../misc/lv_color.h ****         return 0;
 329:lvgl/lvgl/src/core/../misc/lv_color.h ****     }
 330:lvgl/lvgl/src/core/../misc/lv_color.h **** #elif LV_COLOR_DEPTH == 16
 331:lvgl/lvgl/src/core/../misc/lv_color.h ****     if((LV_COLOR_GET_R(color) & 0x10) || (LV_COLOR_GET_G(color) & 0x20) || (LV_COLOR_GET_B(color) &
 332:lvgl/lvgl/src/core/../misc/lv_color.h ****         return 1;
 333:lvgl/lvgl/src/core/../misc/lv_color.h ****     }
 334:lvgl/lvgl/src/core/../misc/lv_color.h ****     else {
 335:lvgl/lvgl/src/core/../misc/lv_color.h ****         return 0;
 336:lvgl/lvgl/src/core/../misc/lv_color.h ****     }
 337:lvgl/lvgl/src/core/../misc/lv_color.h **** #elif LV_COLOR_DEPTH == 32
 338:lvgl/lvgl/src/core/../misc/lv_color.h ****     if((LV_COLOR_GET_R(color) & 0x80) || (LV_COLOR_GET_G(color) & 0x80) || (LV_COLOR_GET_B(color) &
 339:lvgl/lvgl/src/core/../misc/lv_color.h ****         return 1;
 340:lvgl/lvgl/src/core/../misc/lv_color.h ****     }
 341:lvgl/lvgl/src/core/../misc/lv_color.h ****     else {
 342:lvgl/lvgl/src/core/../misc/lv_color.h ****         return 0;
 343:lvgl/lvgl/src/core/../misc/lv_color.h ****     }
 344:lvgl/lvgl/src/core/../misc/lv_color.h **** #endif
 345:lvgl/lvgl/src/core/../misc/lv_color.h **** }
 346:lvgl/lvgl/src/core/../misc/lv_color.h **** 
 347:lvgl/lvgl/src/core/../misc/lv_color.h **** static inline uint8_t lv_color_to8(lv_color_t color)
 348:lvgl/lvgl/src/core/../misc/lv_color.h **** {
 349:lvgl/lvgl/src/core/../misc/lv_color.h **** #if LV_COLOR_DEPTH == 1
ARM GAS  C:\Users\gx\AppData\Local\Temp\cc2sgWsf.s 			page 103


 350:lvgl/lvgl/src/core/../misc/lv_color.h ****     if(color.full == 0)
 351:lvgl/lvgl/src/core/../misc/lv_color.h ****         return 0;
 352:lvgl/lvgl/src/core/../misc/lv_color.h ****     else
 353:lvgl/lvgl/src/core/../misc/lv_color.h ****         return 0xFF;
 354:lvgl/lvgl/src/core/../misc/lv_color.h **** #elif LV_COLOR_DEPTH == 8
 355:lvgl/lvgl/src/core/../misc/lv_color.h ****     return color.full;
 356:lvgl/lvgl/src/core/../misc/lv_color.h **** #elif LV_COLOR_DEPTH == 16
 357:lvgl/lvgl/src/core/../misc/lv_color.h ****     lv_color8_t ret;
 358:lvgl/lvgl/src/core/../misc/lv_color.h ****     LV_COLOR_SET_R8(ret, LV_COLOR_GET_R(color) >> 2); /*5 - 3  = 2*/
 359:lvgl/lvgl/src/core/../misc/lv_color.h ****     LV_COLOR_SET_G8(ret, LV_COLOR_GET_G(color) >> 3); /*6 - 3  = 3*/
 360:lvgl/lvgl/src/core/../misc/lv_color.h ****     LV_COLOR_SET_B8(ret, LV_COLOR_GET_B(color) >> 3); /*5 - 2  = 3*/
 361:lvgl/lvgl/src/core/../misc/lv_color.h ****     return ret.full;
 362:lvgl/lvgl/src/core/../misc/lv_color.h **** #elif LV_COLOR_DEPTH == 32
 363:lvgl/lvgl/src/core/../misc/lv_color.h ****     lv_color8_t ret;
 364:lvgl/lvgl/src/core/../misc/lv_color.h ****     LV_COLOR_SET_R8(ret, LV_COLOR_GET_R(color) >> 5); /*8 - 3  = 5*/
 365:lvgl/lvgl/src/core/../misc/lv_color.h ****     LV_COLOR_SET_G8(ret, LV_COLOR_GET_G(color) >> 5); /*8 - 3  = 5*/
 366:lvgl/lvgl/src/core/../misc/lv_color.h ****     LV_COLOR_SET_B8(ret, LV_COLOR_GET_B(color) >> 6); /*8 - 2  = 6*/
 367:lvgl/lvgl/src/core/../misc/lv_color.h ****     return ret.full;
 368:lvgl/lvgl/src/core/../misc/lv_color.h **** #endif
 369:lvgl/lvgl/src/core/../misc/lv_color.h **** }
 370:lvgl/lvgl/src/core/../misc/lv_color.h **** 
 371:lvgl/lvgl/src/core/../misc/lv_color.h **** static inline uint16_t lv_color_to16(lv_color_t color)
 372:lvgl/lvgl/src/core/../misc/lv_color.h **** {
 373:lvgl/lvgl/src/core/../misc/lv_color.h **** #if LV_COLOR_DEPTH == 1
 374:lvgl/lvgl/src/core/../misc/lv_color.h ****     if(color.full == 0)
 375:lvgl/lvgl/src/core/../misc/lv_color.h ****         return 0;
 376:lvgl/lvgl/src/core/../misc/lv_color.h ****     else
 377:lvgl/lvgl/src/core/../misc/lv_color.h ****         return 0xFFFF;
 378:lvgl/lvgl/src/core/../misc/lv_color.h **** #elif LV_COLOR_DEPTH == 8
 379:lvgl/lvgl/src/core/../misc/lv_color.h ****     lv_color16_t ret;
 380:lvgl/lvgl/src/core/../misc/lv_color.h ****     LV_COLOR_SET_R16(ret, LV_COLOR_GET_R(color) * 4);  /*(2^5 - 1)/(2^3 - 1) = 31/7 = 4*/
 381:lvgl/lvgl/src/core/../misc/lv_color.h ****     LV_COLOR_SET_G16(ret, LV_COLOR_GET_G(color) * 9);  /*(2^6 - 1)/(2^3 - 1) = 63/7 = 9*/
 382:lvgl/lvgl/src/core/../misc/lv_color.h ****     LV_COLOR_SET_B16(ret, LV_COLOR_GET_B(color) * 10); /*(2^5 - 1)/(2^2 - 1) = 31/3 = 10*/
 383:lvgl/lvgl/src/core/../misc/lv_color.h ****     return ret.full;
 384:lvgl/lvgl/src/core/../misc/lv_color.h **** #elif LV_COLOR_DEPTH == 16
 385:lvgl/lvgl/src/core/../misc/lv_color.h ****     return color.full;
 386:lvgl/lvgl/src/core/../misc/lv_color.h **** #elif LV_COLOR_DEPTH == 32
 387:lvgl/lvgl/src/core/../misc/lv_color.h ****     lv_color16_t ret;
 388:lvgl/lvgl/src/core/../misc/lv_color.h ****     LV_COLOR_SET_R16(ret, LV_COLOR_GET_R(color) >> 3); /*8 - 5  = 3*/
 389:lvgl/lvgl/src/core/../misc/lv_color.h ****     LV_COLOR_SET_G16(ret, LV_COLOR_GET_G(color) >> 2); /*8 - 6  = 2*/
 390:lvgl/lvgl/src/core/../misc/lv_color.h ****     LV_COLOR_SET_B16(ret, LV_COLOR_GET_B(color) >> 3); /*8 - 5  = 3*/
 391:lvgl/lvgl/src/core/../misc/lv_color.h ****     return ret.full;
 392:lvgl/lvgl/src/core/../misc/lv_color.h **** #endif
 393:lvgl/lvgl/src/core/../misc/lv_color.h **** }
 394:lvgl/lvgl/src/core/../misc/lv_color.h **** 
 395:lvgl/lvgl/src/core/../misc/lv_color.h **** static inline uint32_t lv_color_to32(lv_color_t color)
 396:lvgl/lvgl/src/core/../misc/lv_color.h **** {
 397:lvgl/lvgl/src/core/../misc/lv_color.h **** #if LV_COLOR_DEPTH == 1
 398:lvgl/lvgl/src/core/../misc/lv_color.h ****     if(color.full == 0)
 399:lvgl/lvgl/src/core/../misc/lv_color.h ****         return 0xFF000000;
 400:lvgl/lvgl/src/core/../misc/lv_color.h ****     else
 401:lvgl/lvgl/src/core/../misc/lv_color.h ****         return 0xFFFFFFFF;
 402:lvgl/lvgl/src/core/../misc/lv_color.h **** #elif LV_COLOR_DEPTH == 8
 403:lvgl/lvgl/src/core/../misc/lv_color.h ****     lv_color32_t ret;
 404:lvgl/lvgl/src/core/../misc/lv_color.h ****     LV_COLOR_SET_R32(ret, LV_COLOR_GET_R(color) * 36); /*(2^8 - 1)/(2^3 - 1) = 255/7 = 36*/
 405:lvgl/lvgl/src/core/../misc/lv_color.h ****     LV_COLOR_SET_G32(ret, LV_COLOR_GET_G(color) * 36); /*(2^8 - 1)/(2^3 - 1) = 255/7 = 36*/
 406:lvgl/lvgl/src/core/../misc/lv_color.h ****     LV_COLOR_SET_B32(ret, LV_COLOR_GET_B(color) * 85); /*(2^8 - 1)/(2^2 - 1) = 255/3 = 85*/
ARM GAS  C:\Users\gx\AppData\Local\Temp\cc2sgWsf.s 			page 104


 407:lvgl/lvgl/src/core/../misc/lv_color.h ****     LV_COLOR_SET_A32(ret, 0xFF);
 408:lvgl/lvgl/src/core/../misc/lv_color.h ****     return ret.full;
 409:lvgl/lvgl/src/core/../misc/lv_color.h **** #elif LV_COLOR_DEPTH == 16
 410:lvgl/lvgl/src/core/../misc/lv_color.h ****     /**
 411:lvgl/lvgl/src/core/../misc/lv_color.h ****      * The floating point math for conversion is:
 412:lvgl/lvgl/src/core/../misc/lv_color.h ****      *  valueto = valuefrom * ( (2^bitsto - 1) / (float)(2^bitsfrom - 1) )
 413:lvgl/lvgl/src/core/../misc/lv_color.h ****      * The faster integer math for conversion is:
 414:lvgl/lvgl/src/core/../misc/lv_color.h ****      *  valueto = ( valuefrom * multiplier + adder ) >> divisor
 415:lvgl/lvgl/src/core/../misc/lv_color.h ****      *   multiplier = FLOOR( ( (2^bitsto - 1) << divisor ) / (float)(2^bitsfrom - 1) )
 416:lvgl/lvgl/src/core/../misc/lv_color.h ****      *
 417:lvgl/lvgl/src/core/../misc/lv_color.h ****      * Find the first divisor where ( adder >> divisor ) <= 0
 418:lvgl/lvgl/src/core/../misc/lv_color.h ****      *
 419:lvgl/lvgl/src/core/../misc/lv_color.h ****      * 5-bit to 8-bit: ( 31 * multiplier + adder ) >> divisor = 255
 420:lvgl/lvgl/src/core/../misc/lv_color.h ****      * divisor  multiplier  adder  min (0)  max (31)
 421:lvgl/lvgl/src/core/../misc/lv_color.h ****      *       0           8      7        7       255
 422:lvgl/lvgl/src/core/../misc/lv_color.h ****      *       1          16     14        7       255
 423:lvgl/lvgl/src/core/../misc/lv_color.h ****      *       2          32     28        7       255
 424:lvgl/lvgl/src/core/../misc/lv_color.h ****      *       3          65     25        3       255
 425:lvgl/lvgl/src/core/../misc/lv_color.h ****      *       4         131     19        1       255
 426:lvgl/lvgl/src/core/../misc/lv_color.h ****      *       5         263      7        0       255
 427:lvgl/lvgl/src/core/../misc/lv_color.h ****      *
 428:lvgl/lvgl/src/core/../misc/lv_color.h ****      * 6-bit to 8-bit: 255 = ( 63 * multiplier + adder ) >> divisor
 429:lvgl/lvgl/src/core/../misc/lv_color.h ****      * divisor  multiplier  adder  min (0)  max (63)
 430:lvgl/lvgl/src/core/../misc/lv_color.h ****      *       0           4      3        3       255
 431:lvgl/lvgl/src/core/../misc/lv_color.h ****      *       1           8      6        3       255
 432:lvgl/lvgl/src/core/../misc/lv_color.h ****      *       2          16     12        3       255
 433:lvgl/lvgl/src/core/../misc/lv_color.h ****      *       3          32     24        3       255
 434:lvgl/lvgl/src/core/../misc/lv_color.h ****      *       4          64     48        3       255
 435:lvgl/lvgl/src/core/../misc/lv_color.h ****      *       5         129     33        1       255
 436:lvgl/lvgl/src/core/../misc/lv_color.h ****      *       6         259      3        0       255
 437:lvgl/lvgl/src/core/../misc/lv_color.h ****      */
 438:lvgl/lvgl/src/core/../misc/lv_color.h **** 
 439:lvgl/lvgl/src/core/../misc/lv_color.h ****     lv_color32_t ret;
 440:lvgl/lvgl/src/core/../misc/lv_color.h ****     LV_COLOR_SET_R32(ret, (LV_COLOR_GET_R(color) * 263 + 7) >> 5);
 441:lvgl/lvgl/src/core/../misc/lv_color.h ****     LV_COLOR_SET_G32(ret, (LV_COLOR_GET_G(color) * 259 + 3) >> 6);
 442:lvgl/lvgl/src/core/../misc/lv_color.h ****     LV_COLOR_SET_B32(ret, (LV_COLOR_GET_B(color) * 263 + 7) >> 5);
 443:lvgl/lvgl/src/core/../misc/lv_color.h ****     LV_COLOR_SET_A32(ret, 0xFF);
 444:lvgl/lvgl/src/core/../misc/lv_color.h ****     return ret.full;
 445:lvgl/lvgl/src/core/../misc/lv_color.h **** #elif LV_COLOR_DEPTH == 32
 446:lvgl/lvgl/src/core/../misc/lv_color.h ****     return color.full;
 447:lvgl/lvgl/src/core/../misc/lv_color.h **** #endif
 448:lvgl/lvgl/src/core/../misc/lv_color.h **** }
 449:lvgl/lvgl/src/core/../misc/lv_color.h **** 
 450:lvgl/lvgl/src/core/../misc/lv_color.h **** //! @cond Doxygen_Suppress
 451:lvgl/lvgl/src/core/../misc/lv_color.h **** 
 452:lvgl/lvgl/src/core/../misc/lv_color.h **** /**
 453:lvgl/lvgl/src/core/../misc/lv_color.h ****  * Mix two colors with a given ratio.
 454:lvgl/lvgl/src/core/../misc/lv_color.h ****  * @param c1 the first color to mix (usually the foreground)
 455:lvgl/lvgl/src/core/../misc/lv_color.h ****  * @param c2 the second color to mix (usually the background)
 456:lvgl/lvgl/src/core/../misc/lv_color.h ****  * @param mix The ratio of the colors. 0: full `c2`, 255: full `c1`, 127: half `c1` and half`c2`
 457:lvgl/lvgl/src/core/../misc/lv_color.h ****  * @return the mixed color
 458:lvgl/lvgl/src/core/../misc/lv_color.h ****  */
 459:lvgl/lvgl/src/core/../misc/lv_color.h **** LV_ATTRIBUTE_FAST_MEM static inline lv_color_t lv_color_mix(lv_color_t c1, lv_color_t c2, uint8_t m
 3318              		.loc 4 459 48 view .LVU998
 3319              	.LBB126:
 460:lvgl/lvgl/src/core/../misc/lv_color.h **** {
 461:lvgl/lvgl/src/core/../misc/lv_color.h ****     lv_color_t ret;
ARM GAS  C:\Users\gx\AppData\Local\Temp\cc2sgWsf.s 			page 105


 3320              		.loc 4 461 5 view .LVU999
 462:lvgl/lvgl/src/core/../misc/lv_color.h **** 
 463:lvgl/lvgl/src/core/../misc/lv_color.h **** #if LV_COLOR_DEPTH == 16 && LV_COLOR_16_SWAP == 0
 464:lvgl/lvgl/src/core/../misc/lv_color.h ****     /*Source: https://stackoverflow.com/a/50012418/1999969*/
 465:lvgl/lvgl/src/core/../misc/lv_color.h ****     mix = ( mix + 4 ) >> 3;
 3321              		.loc 4 465 5 view .LVU1000
 3322              		.loc 4 465 17 is_stmt 0 view .LVU1001
 3323 0112 5FFA87FC 		uxtb	ip, r7
 3324 0116 0CF1040C 		add	ip, ip, #4
 3325              	.LVL319:
 466:lvgl/lvgl/src/core/../misc/lv_color.h ****     uint32_t bg = (uint32_t)((uint32_t)c2.full | ((uint32_t)c2.full << 16)) & 0x7E0F81F; /*0b000001
 3326              		.loc 4 466 5 is_stmt 1 view .LVU1002
 3327              		.loc 4 466 42 is_stmt 0 view .LVU1003
 3328 011a A289     		ldrh	r2, [r4, #12]
 3329              		.loc 4 466 19 view .LVU1004
 3330 011c 42EA0242 		orr	r2, r2, r2, lsl #16
 3331              		.loc 4 466 14 view .LVU1005
 3332 0120 1F4F     		ldr	r7, .L234
 3333              	.LVL320:
 3334              		.loc 4 466 14 view .LVU1006
 3335 0122 3A40     		ands	r2, r2, r7
 3336              	.LVL321:
 467:lvgl/lvgl/src/core/../misc/lv_color.h ****     uint32_t fg = (uint32_t)((uint32_t)c1.full | (uint32_t)(c1.full << 16)) & 0x7E0F81F;
 3337              		.loc 4 467 5 is_stmt 1 view .LVU1007
 3338              		.loc 4 467 42 is_stmt 0 view .LVU1008
 3339 0124 208A     		ldrh	r0, [r4, #16]
 3340              		.loc 4 467 19 view .LVU1009
 3341 0126 40EA0040 		orr	r0, r0, r0, lsl #16
 3342              		.loc 4 467 14 view .LVU1010
 3343 012a 3840     		ands	r0, r0, r7
 3344              	.LVL322:
 468:lvgl/lvgl/src/core/../misc/lv_color.h ****     uint32_t result = ((((fg - bg) * mix) >> 5) + bg) & 0x7E0F81F;
 3345              		.loc 4 468 5 is_stmt 1 view .LVU1011
 3346              		.loc 4 468 30 is_stmt 0 view .LVU1012
 3347 012c 801A     		subs	r0, r0, r2
 3348              	.LVL323:
 3349              		.loc 4 468 36 view .LVU1013
 3350 012e 4FEADC0C 		lsr	ip, ip, #3
 3351              	.LVL324:
 3352              		.loc 4 468 36 view .LVU1014
 3353 0132 00FB0CF0 		mul	r0, r0, ip
 3354              		.loc 4 468 49 view .LVU1015
 3355 0136 02EB5012 		add	r2, r2, r0, lsr #5
 3356              	.LVL325:
 3357              		.loc 4 468 14 view .LVU1016
 3358 013a 3A40     		ands	r2, r2, r7
 3359              	.LVL326:
 469:lvgl/lvgl/src/core/../misc/lv_color.h ****     ret.full = (uint16_t)((result >> 16) | result);
 3360              		.loc 4 469 5 is_stmt 1 view .LVU1017
 3361              		.loc 4 469 16 is_stmt 0 view .LVU1018
 3362 013c 42EA1242 		orr	r2, r2, r2, lsr #16
 3363              	.LVL327:
 3364              		.loc 4 469 16 view .LVU1019
 3365 0140 92B2     		uxth	r2, r2
 470:lvgl/lvgl/src/core/../misc/lv_color.h **** #elif LV_COLOR_DEPTH != 1
 471:lvgl/lvgl/src/core/../misc/lv_color.h ****     /*LV_COLOR_DEPTH == 8, 16 or 32*/
 472:lvgl/lvgl/src/core/../misc/lv_color.h ****     LV_COLOR_SET_R(ret, LV_UDIV255((uint16_t) LV_COLOR_GET_R(c1) * mix + LV_COLOR_GET_R(c2) *
ARM GAS  C:\Users\gx\AppData\Local\Temp\cc2sgWsf.s 			page 106


 473:lvgl/lvgl/src/core/../misc/lv_color.h ****                                         (255 - mix) + LV_COLOR_MIX_ROUND_OFS));
 474:lvgl/lvgl/src/core/../misc/lv_color.h ****     LV_COLOR_SET_G(ret, LV_UDIV255((uint16_t) LV_COLOR_GET_G(c1) * mix + LV_COLOR_GET_G(c2) *
 475:lvgl/lvgl/src/core/../misc/lv_color.h ****                                         (255 - mix) + LV_COLOR_MIX_ROUND_OFS));
 476:lvgl/lvgl/src/core/../misc/lv_color.h ****     LV_COLOR_SET_B(ret, LV_UDIV255((uint16_t) LV_COLOR_GET_B(c1) * mix + LV_COLOR_GET_B(c2) *
 477:lvgl/lvgl/src/core/../misc/lv_color.h ****                                         (255 - mix) + LV_COLOR_MIX_ROUND_OFS));
 478:lvgl/lvgl/src/core/../misc/lv_color.h ****     LV_COLOR_SET_A(ret, 0xFF);
 479:lvgl/lvgl/src/core/../misc/lv_color.h **** #else
 480:lvgl/lvgl/src/core/../misc/lv_color.h ****     /*LV_COLOR_DEPTH == 1*/
 481:lvgl/lvgl/src/core/../misc/lv_color.h ****     ret.full = mix > LV_OPA_50 ? c1.full : c2.full;
 482:lvgl/lvgl/src/core/../misc/lv_color.h **** #endif
 483:lvgl/lvgl/src/core/../misc/lv_color.h **** 
 484:lvgl/lvgl/src/core/../misc/lv_color.h ****     return ret;
 3366              		.loc 4 484 5 is_stmt 1 view .LVU1020
 3367 0142 0027     		movs	r7, #0
 3368              	.LVL328:
 3369              		.loc 4 484 5 is_stmt 0 view .LVU1021
 3370 0144 62F30F07 		bfi	r7, r2, #0, #16
 3371              	.LVL329:
 3372              		.loc 4 484 5 view .LVU1022
 3373 0148 B7E7     		b	.L211
 3374              	.LVL330:
 3375              	.L204:
 3376              		.loc 4 484 5 view .LVU1023
 3377              	.LBE126:
 3378              	.LBE125:
 740:lvgl/lvgl/src/core/lv_obj_style.c ****                 else if(v == 255) value_final.num = tr->end_value.num;
 3379              		.loc 1 740 17 is_stmt 1 view .LVU1024
 740:lvgl/lvgl/src/core/lv_obj_style.c ****                 else if(v == 255) value_final.num = tr->end_value.num;
 3380              		.loc 1 740 19 is_stmt 0 view .LVU1025
 3381 014a 0FB9     		cbnz	r7, .L218
 740:lvgl/lvgl/src/core/lv_obj_style.c ****                 else if(v == 255) value_final.num = tr->end_value.num;
 3382              		.loc 1 740 28 is_stmt 1 discriminator 1 view .LVU1026
 740:lvgl/lvgl/src/core/lv_obj_style.c ****                 else if(v == 255) value_final.num = tr->end_value.num;
 3383              		.loc 1 740 61 is_stmt 0 discriminator 1 view .LVU1027
 3384 014c E768     		ldr	r7, [r4, #12]
 3385              	.LVL331:
 740:lvgl/lvgl/src/core/lv_obj_style.c ****                 else if(v == 255) value_final.num = tr->end_value.num;
 3386              		.loc 1 740 61 discriminator 1 view .LVU1028
 3387 014e B4E7     		b	.L211
 3388              	.LVL332:
 3389              	.L218:
 741:lvgl/lvgl/src/core/lv_obj_style.c ****                 else value_final.num = tr->start_value.num + ((int32_t)((int32_t)(tr->end_value.num
 3390              		.loc 1 741 22 is_stmt 1 view .LVU1029
 741:lvgl/lvgl/src/core/lv_obj_style.c ****                 else value_final.num = tr->start_value.num + ((int32_t)((int32_t)(tr->end_value.num
 3391              		.loc 1 741 24 is_stmt 0 view .LVU1030
 3392 0150 FF2F     		cmp	r7, #255
 3393 0152 07D0     		beq	.L232
 742:lvgl/lvgl/src/core/lv_obj_style.c ****                 break;
 3394              		.loc 1 742 22 is_stmt 1 view .LVU1031
 742:lvgl/lvgl/src/core/lv_obj_style.c ****                 break;
 3395              		.loc 1 742 55 is_stmt 0 view .LVU1032
 3396 0154 E068     		ldr	r0, [r4, #12]
 742:lvgl/lvgl/src/core/lv_obj_style.c ****                 break;
 3397              		.loc 1 742 96 view .LVU1033
 3398 0156 2269     		ldr	r2, [r4, #16]
 742:lvgl/lvgl/src/core/lv_obj_style.c ****                 break;
 3399              		.loc 1 742 101 view .LVU1034
ARM GAS  C:\Users\gx\AppData\Local\Temp\cc2sgWsf.s 			page 107


 3400 0158 121A     		subs	r2, r2, r0
 742:lvgl/lvgl/src/core/lv_obj_style.c ****                 break;
 3401              		.loc 1 742 63 view .LVU1035
 3402 015a 07FB02F7 		mul	r7, r7, r2
 3403              	.LVL333:
 742:lvgl/lvgl/src/core/lv_obj_style.c ****                 break;
 3404              		.loc 1 742 60 view .LVU1036
 3405 015e 00EB2727 		add	r7, r0, r7, asr #8
 742:lvgl/lvgl/src/core/lv_obj_style.c ****                 break;
 3406              		.loc 1 742 60 view .LVU1037
 3407 0162 AAE7     		b	.L211
 3408              	.LVL334:
 3409              	.L232:
 741:lvgl/lvgl/src/core/lv_obj_style.c ****                 else value_final.num = tr->start_value.num + ((int32_t)((int32_t)(tr->end_value.num
 3410              		.loc 1 741 35 is_stmt 1 discriminator 1 view .LVU1038
 741:lvgl/lvgl/src/core/lv_obj_style.c ****                 else value_final.num = tr->start_value.num + ((int32_t)((int32_t)(tr->end_value.num
 3411              		.loc 1 741 66 is_stmt 0 discriminator 1 view .LVU1039
 3412 0164 2769     		ldr	r7, [r4, #16]
 3413              	.LVL335:
 741:lvgl/lvgl/src/core/lv_obj_style.c ****                 else value_final.num = tr->start_value.num + ((int32_t)((int32_t)(tr->end_value.num
 3414              		.loc 1 741 66 discriminator 1 view .LVU1040
 3415 0166 A8E7     		b	.L211
 3416              	.LVL336:
 3417              	.L228:
 749:lvgl/lvgl/src/core/lv_obj_style.c ****                 refr = false;
 3418              		.loc 1 749 99 discriminator 1 view .LVU1041
 3419 0168 10D0     		beq	.L226
 747:lvgl/lvgl/src/core/lv_obj_style.c ****         if(lv_style_get_prop(obj->styles[i].style, tr->prop, &old_value)) {
 3420              		.loc 1 747 14 view .LVU1042
 3421 016a 4FF00108 		mov	r8, #1
 3422 016e 01E0     		b	.L220
 3423              	.L224:
 3424 0170 4FF00108 		mov	r8, #1
 3425              	.L220:
 3426              	.LVL337:
 753:lvgl/lvgl/src/core/lv_obj_style.c ****         if (refr) lv_obj_refresh_style(tr->obj, tr->selector, tr->prop);
 3427              		.loc 1 753 9 is_stmt 1 view .LVU1043
 753:lvgl/lvgl/src/core/lv_obj_style.c ****         if (refr) lv_obj_refresh_style(tr->obj, tr->selector, tr->prop);
 3428              		.loc 1 753 30 is_stmt 0 view .LVU1044
 3429 0174 EB68     		ldr	r3, [r5, #12]
 753:lvgl/lvgl/src/core/lv_obj_style.c ****         if (refr) lv_obj_refresh_style(tr->obj, tr->selector, tr->prop);
 3430              		.loc 1 753 9 view .LVU1045
 3431 0176 3A46     		mov	r2, r7
 3432 0178 A188     		ldrh	r1, [r4, #4]
 3433 017a 9859     		ldr	r0, [r3, r6]
 3434 017c FFF7FEFF 		bl	lv_style_set_prop
 3435              	.LVL338:
 754:lvgl/lvgl/src/core/lv_obj_style.c ****         break;
 3436              		.loc 1 754 9 is_stmt 1 view .LVU1046
 754:lvgl/lvgl/src/core/lv_obj_style.c ****         break;
 3437              		.loc 1 754 12 is_stmt 0 view .LVU1047
 3438 0180 B8F1000F 		cmp	r8, #0
 3439 0184 05D1     		bne	.L233
 3440              	.LVL339:
 3441              	.L199:
 754:lvgl/lvgl/src/core/lv_obj_style.c ****         break;
 3442              		.loc 1 754 12 view .LVU1048
ARM GAS  C:\Users\gx\AppData\Local\Temp\cc2sgWsf.s 			page 108


 3443              	.LBE127:
 759:lvgl/lvgl/src/core/lv_obj_style.c **** 
 3444              		.loc 1 759 1 view .LVU1049
 3445 0186 02B0     		add	sp, sp, #8
 3446              	.LCFI37:
 3447              		.cfi_remember_state
 3448              		.cfi_def_cfa_offset 24
 3449              		@ sp needed
 3450 0188 BDE8F081 		pop	{r4, r5, r6, r7, r8, pc}
 3451              	.LVL340:
 3452              	.L226:
 3453              	.LCFI38:
 3454              		.cfi_restore_state
 3455              	.LBB128:
 750:lvgl/lvgl/src/core/lv_obj_style.c ****             }
 3456              		.loc 1 750 22 view .LVU1050
 3457 018c 4FF00008 		mov	r8, #0
 3458 0190 F0E7     		b	.L220
 3459              	.LVL341:
 3460              	.L233:
 754:lvgl/lvgl/src/core/lv_obj_style.c ****         break;
 3461              		.loc 1 754 19 is_stmt 1 discriminator 1 view .LVU1051
 3462 0192 A288     		ldrh	r2, [r4, #4]
 3463 0194 A168     		ldr	r1, [r4, #8]
 3464 0196 2068     		ldr	r0, [r4]
 3465 0198 FFF7FEFF 		bl	lv_obj_refresh_style
 3466              	.LVL342:
 755:lvgl/lvgl/src/core/lv_obj_style.c **** 
 3467              		.loc 1 755 9 discriminator 1 view .LVU1052
 3468 019c F3E7     		b	.L199
 3469              	.L235:
 3470 019e 00BF     		.align	2
 3471              	.L234:
 3472 01a0 1FF8E007 		.word	132184095
 3473              	.LBE128:
 3474              		.cfi_endproc
 3475              	.LFE182:
 3477              		.section	.text.lv_obj_remove_style,"ax",%progbits
 3478              		.align	1
 3479              		.global	lv_obj_remove_style
 3480              		.syntax unified
 3481              		.thumb
 3482              		.thumb_func
 3483              		.fpu fpv4-sp-d16
 3485              	lv_obj_remove_style:
 3486              	.LVL343:
 3487              	.LFB160:
 107:lvgl/lvgl/src/core/lv_obj_style.c ****     lv_state_t state = lv_obj_style_get_selector_state(selector);
 3488              		.loc 1 107 1 view -0
 3489              		.cfi_startproc
 3490              		@ args = 0, pretend = 0, frame = 16
 3491              		@ frame_needed = 0, uses_anonymous_args = 0
 107:lvgl/lvgl/src/core/lv_obj_style.c ****     lv_state_t state = lv_obj_style_get_selector_state(selector);
 3492              		.loc 1 107 1 is_stmt 0 view .LVU1054
 3493 0000 2DE9F04F 		push	{r4, r5, r6, r7, r8, r9, r10, fp, lr}
 3494              	.LCFI39:
 3495              		.cfi_def_cfa_offset 36
ARM GAS  C:\Users\gx\AppData\Local\Temp\cc2sgWsf.s 			page 109


 3496              		.cfi_offset 4, -36
 3497              		.cfi_offset 5, -32
 3498              		.cfi_offset 6, -28
 3499              		.cfi_offset 7, -24
 3500              		.cfi_offset 8, -20
 3501              		.cfi_offset 9, -16
 3502              		.cfi_offset 10, -12
 3503              		.cfi_offset 11, -8
 3504              		.cfi_offset 14, -4
 3505 0004 85B0     		sub	sp, sp, #20
 3506              	.LCFI40:
 3507              		.cfi_def_cfa_offset 56
 3508 0006 0446     		mov	r4, r0
 3509 0008 0E46     		mov	r6, r1
 3510 000a 0191     		str	r1, [sp, #4]
 3511 000c 1546     		mov	r5, r2
 108:lvgl/lvgl/src/core/lv_obj_style.c ****     lv_part_t part = lv_obj_style_get_selector_part(selector);
 3512              		.loc 1 108 5 is_stmt 1 view .LVU1055
 108:lvgl/lvgl/src/core/lv_obj_style.c ****     lv_part_t part = lv_obj_style_get_selector_part(selector);
 3513              		.loc 1 108 24 is_stmt 0 view .LVU1056
 3514 000e 1046     		mov	r0, r2
 3515              	.LVL344:
 108:lvgl/lvgl/src/core/lv_obj_style.c ****     lv_part_t part = lv_obj_style_get_selector_part(selector);
 3516              		.loc 1 108 24 view .LVU1057
 3517 0010 FFF7FEFF 		bl	lv_obj_style_get_selector_state
 3518              	.LVL345:
 108:lvgl/lvgl/src/core/lv_obj_style.c ****     lv_part_t part = lv_obj_style_get_selector_part(selector);
 3519              		.loc 1 108 24 view .LVU1058
 3520 0014 8146     		mov	r9, r0
 3521              	.LVL346:
 109:lvgl/lvgl/src/core/lv_obj_style.c ****     lv_style_prop_t prop = LV_STYLE_PROP_ANY;
 3522              		.loc 1 109 5 is_stmt 1 view .LVU1059
 109:lvgl/lvgl/src/core/lv_obj_style.c ****     lv_style_prop_t prop = LV_STYLE_PROP_ANY;
 3523              		.loc 1 109 22 is_stmt 0 view .LVU1060
 3524 0016 2846     		mov	r0, r5
 3525 0018 FFF7FEFF 		bl	lv_obj_style_get_selector_part
 3526              	.LVL347:
 3527 001c 8346     		mov	fp, r0
 3528              	.LVL348:
 110:lvgl/lvgl/src/core/lv_obj_style.c ****     if(style && style->prop_cnt == 0) prop = LV_STYLE_PROP_INV;
 3529              		.loc 1 110 5 is_stmt 1 view .LVU1061
 111:lvgl/lvgl/src/core/lv_obj_style.c **** 
 3530              		.loc 1 111 5 view .LVU1062
 111:lvgl/lvgl/src/core/lv_obj_style.c **** 
 3531              		.loc 1 111 7 is_stmt 0 view .LVU1063
 3532 001e 46B1     		cbz	r6, .L250
 111:lvgl/lvgl/src/core/lv_obj_style.c **** 
 3533              		.loc 1 111 22 discriminator 1 view .LVU1064
 3534 0020 F379     		ldrb	r3, [r6, #7]	@ zero_extendqisi2
 111:lvgl/lvgl/src/core/lv_obj_style.c **** 
 3535              		.loc 1 111 14 discriminator 1 view .LVU1065
 3536 0022 53B1     		cbz	r3, .L251
 110:lvgl/lvgl/src/core/lv_obj_style.c ****     if(style && style->prop_cnt == 0) prop = LV_STYLE_PROP_INV;
 3537              		.loc 1 110 21 view .LVU1066
 3538 0024 4FF6FF73 		movw	r3, #65535
 3539 0028 0393     		str	r3, [sp, #12]
 3540              	.L237:
ARM GAS  C:\Users\gx\AppData\Local\Temp\cc2sgWsf.s 			page 110


 3541              	.LVL349:
 113:lvgl/lvgl/src/core/lv_obj_style.c ****     bool deleted = false;
 3542              		.loc 1 113 5 is_stmt 1 view .LVU1067
 114:lvgl/lvgl/src/core/lv_obj_style.c ****     while(i <  obj->style_cnt) {
 3543              		.loc 1 114 5 view .LVU1068
 115:lvgl/lvgl/src/core/lv_obj_style.c ****         lv_state_t state_act = lv_obj_style_get_selector_state(obj->styles[i].selector);
 3544              		.loc 1 115 5 view .LVU1069
 114:lvgl/lvgl/src/core/lv_obj_style.c ****     while(i <  obj->style_cnt) {
 3545              		.loc 1 114 10 is_stmt 0 view .LVU1070
 3546 002a 0023     		movs	r3, #0
 3547 002c 0293     		str	r3, [sp, #8]
 113:lvgl/lvgl/src/core/lv_obj_style.c ****     bool deleted = false;
 3548              		.loc 1 113 14 view .LVU1071
 3549 002e 1D46     		mov	r5, r3
 3550              	.LVL350:
 115:lvgl/lvgl/src/core/lv_obj_style.c ****         lv_state_t state_act = lv_obj_style_get_selector_state(obj->styles[i].selector);
 3551              		.loc 1 115 10 view .LVU1072
 3552 0030 0DE0     		b	.L238
 3553              	.LVL351:
 3554              	.L250:
 110:lvgl/lvgl/src/core/lv_obj_style.c ****     if(style && style->prop_cnt == 0) prop = LV_STYLE_PROP_INV;
 3555              		.loc 1 110 21 view .LVU1073
 3556 0032 4FF6FF73 		movw	r3, #65535
 3557 0036 0393     		str	r3, [sp, #12]
 3558 0038 F7E7     		b	.L237
 3559              	.L251:
 111:lvgl/lvgl/src/core/lv_obj_style.c **** 
 3560              		.loc 1 111 44 view .LVU1074
 3561 003a 0023     		movs	r3, #0
 3562 003c 0393     		str	r3, [sp, #12]
 3563 003e F4E7     		b	.L237
 3564              	.LVL352:
 3565              	.L241:
 3566              	.LBB129:
 119:lvgl/lvgl/src/core/lv_obj_style.c ****            (style != NULL && style != obj->styles[i].style))
 3567              		.loc 1 119 54 discriminator 1 view .LVU1075
 3568 0040 019A     		ldr	r2, [sp, #4]
 3569 0042 32B3     		cbz	r2, .L242
 120:lvgl/lvgl/src/core/lv_obj_style.c ****         {
 3570              		.loc 1 120 53 view .LVU1076
 3571 0044 57F80A30 		ldr	r3, [r7, r10]
 120:lvgl/lvgl/src/core/lv_obj_style.c ****         {
 3572              		.loc 1 120 27 view .LVU1077
 3573 0048 9342     		cmp	r3, r2
 3574 004a 22D0     		beq	.L242
 3575              	.L240:
 122:lvgl/lvgl/src/core/lv_obj_style.c ****             continue;
 3576              		.loc 1 122 13 is_stmt 1 view .LVU1078
 122:lvgl/lvgl/src/core/lv_obj_style.c ****             continue;
 3577              		.loc 1 122 14 is_stmt 0 view .LVU1079
 3578 004c 0135     		adds	r5, r5, #1
 3579              	.LVL353:
 123:lvgl/lvgl/src/core/lv_obj_style.c ****         }
 3580              		.loc 1 123 13 is_stmt 1 view .LVU1080
 3581              	.L238:
 123:lvgl/lvgl/src/core/lv_obj_style.c ****         }
 3582              		.loc 1 123 13 is_stmt 0 view .LVU1081
ARM GAS  C:\Users\gx\AppData\Local\Temp\cc2sgWsf.s 			page 111


 3583              	.LBE129:
 115:lvgl/lvgl/src/core/lv_obj_style.c ****         lv_state_t state_act = lv_obj_style_get_selector_state(obj->styles[i].selector);
 3584              		.loc 1 115 10 is_stmt 1 view .LVU1082
 115:lvgl/lvgl/src/core/lv_obj_style.c ****         lv_state_t state_act = lv_obj_style_get_selector_state(obj->styles[i].selector);
 3585              		.loc 1 115 19 is_stmt 0 view .LVU1083
 3586 004e 638C     		ldrh	r3, [r4, #34]
 3587 0050 C3F3C503 		ubfx	r3, r3, #3, #6
 115:lvgl/lvgl/src/core/lv_obj_style.c ****         lv_state_t state_act = lv_obj_style_get_selector_state(obj->styles[i].selector);
 3588              		.loc 1 115 10 view .LVU1084
 3589 0054 AB42     		cmp	r3, r5
 3590 0056 5FD9     		bls	.L253
 3591              	.LBB130:
 116:lvgl/lvgl/src/core/lv_obj_style.c ****         lv_part_t part_act = lv_obj_style_get_selector_part(obj->styles[i].selector);
 3592              		.loc 1 116 9 is_stmt 1 view .LVU1085
 116:lvgl/lvgl/src/core/lv_obj_style.c ****         lv_part_t part_act = lv_obj_style_get_selector_part(obj->styles[i].selector);
 3593              		.loc 1 116 67 is_stmt 0 view .LVU1086
 3594 0058 E768     		ldr	r7, [r4, #12]
 116:lvgl/lvgl/src/core/lv_obj_style.c ****         lv_part_t part_act = lv_obj_style_get_selector_part(obj->styles[i].selector);
 3595              		.loc 1 116 75 view .LVU1087
 3596 005a 4FEAC50A 		lsl	r10, r5, #3
 3597 005e 07EBC508 		add	r8, r7, r5, lsl #3
 116:lvgl/lvgl/src/core/lv_obj_style.c ****         lv_part_t part_act = lv_obj_style_get_selector_part(obj->styles[i].selector);
 3598              		.loc 1 116 78 view .LVU1088
 3599 0062 D8F80460 		ldr	r6, [r8, #4]
 3600 0066 C6F31706 		ubfx	r6, r6, #0, #24
 116:lvgl/lvgl/src/core/lv_obj_style.c ****         lv_part_t part_act = lv_obj_style_get_selector_part(obj->styles[i].selector);
 3601              		.loc 1 116 32 view .LVU1089
 3602 006a 3046     		mov	r0, r6
 3603 006c FFF7FEFF 		bl	lv_obj_style_get_selector_state
 3604              	.LVL354:
 3605 0070 0090     		str	r0, [sp]
 3606              	.LVL355:
 117:lvgl/lvgl/src/core/lv_obj_style.c ****         if((state != LV_STATE_ANY && state_act != state) ||
 3607              		.loc 1 117 9 is_stmt 1 view .LVU1090
 117:lvgl/lvgl/src/core/lv_obj_style.c ****         if((state != LV_STATE_ANY && state_act != state) ||
 3608              		.loc 1 117 30 is_stmt 0 view .LVU1091
 3609 0072 3046     		mov	r0, r6
 3610 0074 FFF7FEFF 		bl	lv_obj_style_get_selector_part
 3611              	.LVL356:
 118:lvgl/lvgl/src/core/lv_obj_style.c ****            (part != LV_PART_ANY && part_act != part) ||
 3612              		.loc 1 118 9 is_stmt 1 view .LVU1092
 118:lvgl/lvgl/src/core/lv_obj_style.c ****            (part != LV_PART_ANY && part_act != part) ||
 3613              		.loc 1 118 11 is_stmt 0 view .LVU1093
 3614 0078 4FF6FF73 		movw	r3, #65535
 3615 007c 9945     		cmp	r9, r3
 3616 007e 02D0     		beq	.L239
 118:lvgl/lvgl/src/core/lv_obj_style.c ****            (part != LV_PART_ANY && part_act != part) ||
 3617              		.loc 1 118 35 discriminator 1 view .LVU1094
 3618 0080 009B     		ldr	r3, [sp]
 3619 0082 9945     		cmp	r9, r3
 3620 0084 E2D1     		bne	.L240
 3621              	.L239:
 118:lvgl/lvgl/src/core/lv_obj_style.c ****            (part != LV_PART_ANY && part_act != part) ||
 3622              		.loc 1 118 58 discriminator 3 view .LVU1095
 3623 0086 BBF5702F 		cmp	fp, #983040
 3624 008a D9D0     		beq	.L241
 119:lvgl/lvgl/src/core/lv_obj_style.c ****            (style != NULL && style != obj->styles[i].style))
ARM GAS  C:\Users\gx\AppData\Local\Temp\cc2sgWsf.s 			page 112


 3625              		.loc 1 119 33 view .LVU1096
 3626 008c 8345     		cmp	fp, r0
 3627 008e D7D0     		beq	.L241
 3628 0090 DCE7     		b	.L240
 3629              	.L242:
 126:lvgl/lvgl/src/core/lv_obj_style.c ****             trans_del(obj, part, LV_STYLE_PROP_ANY, NULL);
 3630              		.loc 1 126 9 is_stmt 1 view .LVU1097
 126:lvgl/lvgl/src/core/lv_obj_style.c ****             trans_del(obj, part, LV_STYLE_PROP_ANY, NULL);
 3631              		.loc 1 126 12 is_stmt 0 view .LVU1098
 3632 0092 98F80730 		ldrb	r3, [r8, #7]	@ zero_extendqisi2
 126:lvgl/lvgl/src/core/lv_obj_style.c ****             trans_del(obj, part, LV_STYLE_PROP_ANY, NULL);
 3633              		.loc 1 126 11 view .LVU1099
 3634 0096 13F0020F 		tst	r3, #2
 3635 009a 08D1     		bne	.L254
 3636              	.LVL357:
 3637              	.L244:
 130:lvgl/lvgl/src/core/lv_obj_style.c ****             lv_style_reset(obj->styles[i].style);
 3638              		.loc 1 130 9 is_stmt 1 view .LVU1100
 130:lvgl/lvgl/src/core/lv_obj_style.c ****             lv_style_reset(obj->styles[i].style);
 3639              		.loc 1 130 15 is_stmt 0 view .LVU1101
 3640 009c E368     		ldr	r3, [r4, #12]
 130:lvgl/lvgl/src/core/lv_obj_style.c ****             lv_style_reset(obj->styles[i].style);
 3641              		.loc 1 130 23 view .LVU1102
 3642 009e 03EB0A02 		add	r2, r3, r10
 130:lvgl/lvgl/src/core/lv_obj_style.c ****             lv_style_reset(obj->styles[i].style);
 3643              		.loc 1 130 36 view .LVU1103
 3644 00a2 D279     		ldrb	r2, [r2, #7]	@ zero_extendqisi2
 130:lvgl/lvgl/src/core/lv_obj_style.c ****             lv_style_reset(obj->styles[i].style);
 3645              		.loc 1 130 11 view .LVU1104
 3646 00a4 12F0030F 		tst	r2, #3
 3647 00a8 09D1     		bne	.L255
 3648              	.L245:
 3649              	.LBE130:
 110:lvgl/lvgl/src/core/lv_obj_style.c ****     if(style && style->prop_cnt == 0) prop = LV_STYLE_PROP_INV;
 3650              		.loc 1 110 21 discriminator 1 view .LVU1105
 3651 00aa 2A46     		mov	r2, r5
 3652 00ac 1FE0     		b	.L246
 3653              	.LVL358:
 3654              	.L254:
 3655              	.LBB131:
 127:lvgl/lvgl/src/core/lv_obj_style.c ****         }
 3656              		.loc 1 127 13 is_stmt 1 view .LVU1106
 3657 00ae 0023     		movs	r3, #0
 3658 00b0 4FF6FF72 		movw	r2, #65535
 3659 00b4 5946     		mov	r1, fp
 3660 00b6 2046     		mov	r0, r4
 3661              	.LVL359:
 127:lvgl/lvgl/src/core/lv_obj_style.c ****         }
 3662              		.loc 1 127 13 is_stmt 0 view .LVU1107
 3663 00b8 FFF7FEFF 		bl	trans_del
 3664              	.LVL360:
 3665 00bc EEE7     		b	.L244
 3666              	.L255:
 131:lvgl/lvgl/src/core/lv_obj_style.c ****             lv_mem_free(obj->styles[i].style);
 3667              		.loc 1 131 13 is_stmt 1 view .LVU1108
 3668 00be 53F80A00 		ldr	r0, [r3, r10]
 3669 00c2 FFF7FEFF 		bl	lv_style_reset
ARM GAS  C:\Users\gx\AppData\Local\Temp\cc2sgWsf.s 			page 113


 3670              	.LVL361:
 132:lvgl/lvgl/src/core/lv_obj_style.c ****             obj->styles[i].style = NULL;
 3671              		.loc 1 132 13 view .LVU1109
 132:lvgl/lvgl/src/core/lv_obj_style.c ****             obj->styles[i].style = NULL;
 3672              		.loc 1 132 28 is_stmt 0 view .LVU1110
 3673 00c6 E368     		ldr	r3, [r4, #12]
 132:lvgl/lvgl/src/core/lv_obj_style.c ****             obj->styles[i].style = NULL;
 3674              		.loc 1 132 13 view .LVU1111
 3675 00c8 53F80A00 		ldr	r0, [r3, r10]
 3676 00cc FFF7FEFF 		bl	lv_mem_free
 3677              	.LVL362:
 133:lvgl/lvgl/src/core/lv_obj_style.c ****         }
 3678              		.loc 1 133 13 is_stmt 1 view .LVU1112
 133:lvgl/lvgl/src/core/lv_obj_style.c ****         }
 3679              		.loc 1 133 16 is_stmt 0 view .LVU1113
 3680 00d0 E368     		ldr	r3, [r4, #12]
 133:lvgl/lvgl/src/core/lv_obj_style.c ****         }
 3681              		.loc 1 133 34 view .LVU1114
 3682 00d2 0022     		movs	r2, #0
 3683 00d4 43F80A20 		str	r2, [r3, r10]
 3684 00d8 E7E7     		b	.L245
 3685              	.LVL363:
 3686              	.L247:
 139:lvgl/lvgl/src/core/lv_obj_style.c ****         }
 3687              		.loc 1 139 13 is_stmt 1 discriminator 3 view .LVU1115
 139:lvgl/lvgl/src/core/lv_obj_style.c ****         }
 3688              		.loc 1 139 33 is_stmt 0 discriminator 3 view .LVU1116
 3689 00da E368     		ldr	r3, [r4, #12]
 139:lvgl/lvgl/src/core/lv_obj_style.c ****         }
 3690              		.loc 1 139 41 discriminator 3 view .LVU1117
 3691 00dc 561C     		adds	r6, r2, #1
 3692 00de 03EBC601 		add	r1, r3, r6, lsl #3
 139:lvgl/lvgl/src/core/lv_obj_style.c ****         }
 3693              		.loc 1 139 24 discriminator 3 view .LVU1118
 3694 00e2 03EBC203 		add	r3, r3, r2, lsl #3
 139:lvgl/lvgl/src/core/lv_obj_style.c ****         }
 3695              		.loc 1 139 28 discriminator 3 view .LVU1119
 3696 00e6 03C9     		ldm	r1, {r0, r1}
 3697 00e8 83E80300 		stm	r3, {r0, r1}
 138:lvgl/lvgl/src/core/lv_obj_style.c ****             obj->styles[j] = obj->styles[j + 1];
 3698              		.loc 1 138 55 is_stmt 1 discriminator 3 view .LVU1120
 3699              	.LVL364:
 138:lvgl/lvgl/src/core/lv_obj_style.c ****             obj->styles[j] = obj->styles[j + 1];
 3700              		.loc 1 138 56 is_stmt 0 discriminator 3 view .LVU1121
 3701 00ec 3246     		mov	r2, r6
 3702              	.LVL365:
 3703              	.L246:
 138:lvgl/lvgl/src/core/lv_obj_style.c ****             obj->styles[j] = obj->styles[j + 1];
 3704              		.loc 1 138 20 is_stmt 1 discriminator 1 view .LVU1122
 138:lvgl/lvgl/src/core/lv_obj_style.c ****             obj->styles[j] = obj->styles[j + 1];
 3705              		.loc 1 138 37 is_stmt 0 discriminator 1 view .LVU1123
 3706 00ee 618C     		ldrh	r1, [r4, #34]
 3707 00f0 C1F3C501 		ubfx	r1, r1, #3, #6
 138:lvgl/lvgl/src/core/lv_obj_style.c ****             obj->styles[j] = obj->styles[j + 1];
 3708              		.loc 1 138 49 discriminator 1 view .LVU1124
 3709 00f4 4B1E     		subs	r3, r1, #1
 138:lvgl/lvgl/src/core/lv_obj_style.c ****             obj->styles[j] = obj->styles[j + 1];
ARM GAS  C:\Users\gx\AppData\Local\Temp\cc2sgWsf.s 			page 114


 3710              		.loc 1 138 9 discriminator 1 view .LVU1125
 3711 00f6 9342     		cmp	r3, r2
 3712 00f8 EFD8     		bhi	.L247
 142:lvgl/lvgl/src/core/lv_obj_style.c ****         obj->styles = lv_mem_realloc(obj->styles, obj->style_cnt * sizeof(_lv_obj_style_t));
 3713              		.loc 1 142 9 is_stmt 1 view .LVU1126
 142:lvgl/lvgl/src/core/lv_obj_style.c ****         obj->styles = lv_mem_realloc(obj->styles, obj->style_cnt * sizeof(_lv_obj_style_t));
 3714              		.loc 1 142 23 is_stmt 0 view .LVU1127
 3715 00fa 3F31     		adds	r1, r1, #63
 3716 00fc 01F03F01 		and	r1, r1, #63
 3717 0100 638C     		ldrh	r3, [r4, #34]
 3718 0102 61F3C803 		bfi	r3, r1, #3, #6
 3719 0106 6384     		strh	r3, [r4, #34]	@ movhi
 3720              	.LVL366:
 143:lvgl/lvgl/src/core/lv_obj_style.c **** 
 3721              		.loc 1 143 9 is_stmt 1 view .LVU1128
 143:lvgl/lvgl/src/core/lv_obj_style.c **** 
 3722              		.loc 1 143 23 is_stmt 0 view .LVU1129
 3723 0108 C900     		lsls	r1, r1, #3
 3724 010a E068     		ldr	r0, [r4, #12]
 3725 010c FFF7FEFF 		bl	lv_mem_realloc
 3726              	.LVL367:
 143:lvgl/lvgl/src/core/lv_obj_style.c **** 
 3727              		.loc 1 143 21 view .LVU1130
 3728 0110 E060     		str	r0, [r4, #12]
 145:lvgl/lvgl/src/core/lv_obj_style.c ****         /*The style from the current `i` index is removed, so `i` points to the next style.
 3729              		.loc 1 145 9 is_stmt 1 view .LVU1131
 3730              	.LVL368:
 145:lvgl/lvgl/src/core/lv_obj_style.c ****         /*The style from the current `i` index is removed, so `i` points to the next style.
 3731              		.loc 1 145 17 is_stmt 0 view .LVU1132
 3732 0112 0123     		movs	r3, #1
 3733 0114 0293     		str	r3, [sp, #8]
 3734 0116 9AE7     		b	.L238
 3735              	.LVL369:
 3736              	.L253:
 145:lvgl/lvgl/src/core/lv_obj_style.c ****         /*The style from the current `i` index is removed, so `i` points to the next style.
 3737              		.loc 1 145 17 view .LVU1133
 3738              	.LBE131:
 149:lvgl/lvgl/src/core/lv_obj_style.c ****         lv_obj_refresh_style(obj, part, prop);
 3739              		.loc 1 149 5 is_stmt 1 view .LVU1134
 149:lvgl/lvgl/src/core/lv_obj_style.c ****         lv_obj_refresh_style(obj, part, prop);
 3740              		.loc 1 149 7 is_stmt 0 view .LVU1135
 3741 0118 029B     		ldr	r3, [sp, #8]
 3742 011a 0BB1     		cbz	r3, .L236
 149:lvgl/lvgl/src/core/lv_obj_style.c ****         lv_obj_refresh_style(obj, part, prop);
 3743              		.loc 1 149 16 discriminator 1 view .LVU1136
 3744 011c 039B     		ldr	r3, [sp, #12]
 3745 011e 13B9     		cbnz	r3, .L256
 3746              	.L236:
 152:lvgl/lvgl/src/core/lv_obj_style.c **** 
 3747              		.loc 1 152 1 view .LVU1137
 3748 0120 05B0     		add	sp, sp, #20
 3749              	.LCFI41:
 3750              		.cfi_remember_state
 3751              		.cfi_def_cfa_offset 36
 3752              		@ sp needed
 3753 0122 BDE8F08F 		pop	{r4, r5, r6, r7, r8, r9, r10, fp, pc}
 3754              	.LVL370:
ARM GAS  C:\Users\gx\AppData\Local\Temp\cc2sgWsf.s 			page 115


 3755              	.L256:
 3756              	.LCFI42:
 3757              		.cfi_restore_state
 150:lvgl/lvgl/src/core/lv_obj_style.c ****     }
 3758              		.loc 1 150 9 is_stmt 1 view .LVU1138
 3759 0126 1A46     		mov	r2, r3
 3760 0128 5946     		mov	r1, fp
 3761 012a 2046     		mov	r0, r4
 3762 012c FFF7FEFF 		bl	lv_obj_refresh_style
 3763              	.LVL371:
 152:lvgl/lvgl/src/core/lv_obj_style.c **** 
 3764              		.loc 1 152 1 is_stmt 0 view .LVU1139
 3765 0130 F6E7     		b	.L236
 3766              		.cfi_endproc
 3767              	.LFE160:
 3769              		.section	.text.trans_anim_ready_cb,"ax",%progbits
 3770              		.align	1
 3771              		.syntax unified
 3772              		.thumb
 3773              		.thumb_func
 3774              		.fpu fpv4-sp-d16
 3776              	trans_anim_ready_cb:
 3777              	.LVL372:
 3778              	.LFB184:
 783:lvgl/lvgl/src/core/lv_obj_style.c ****     trans_t * tr = a->var;
 3779              		.loc 1 783 1 is_stmt 1 view -0
 3780              		.cfi_startproc
 3781              		@ args = 0, pretend = 0, frame = 0
 3782              		@ frame_needed = 0, uses_anonymous_args = 0
 783:lvgl/lvgl/src/core/lv_obj_style.c ****     trans_t * tr = a->var;
 3783              		.loc 1 783 1 is_stmt 0 view .LVU1141
 3784 0000 2DE9F041 		push	{r4, r5, r6, r7, r8, lr}
 3785              	.LCFI43:
 3786              		.cfi_def_cfa_offset 24
 3787              		.cfi_offset 4, -24
 3788              		.cfi_offset 5, -20
 3789              		.cfi_offset 6, -16
 3790              		.cfi_offset 7, -12
 3791              		.cfi_offset 8, -8
 3792              		.cfi_offset 14, -4
 784:lvgl/lvgl/src/core/lv_obj_style.c ****     lv_obj_t * obj = tr->obj;
 3793              		.loc 1 784 5 is_stmt 1 view .LVU1142
 784:lvgl/lvgl/src/core/lv_obj_style.c ****     lv_obj_t * obj = tr->obj;
 3794              		.loc 1 784 15 is_stmt 0 view .LVU1143
 3795 0004 0468     		ldr	r4, [r0]
 3796              	.LVL373:
 785:lvgl/lvgl/src/core/lv_obj_style.c ****     lv_style_prop_t prop = tr->prop;
 3797              		.loc 1 785 5 is_stmt 1 view .LVU1144
 785:lvgl/lvgl/src/core/lv_obj_style.c ****     lv_style_prop_t prop = tr->prop;
 3798              		.loc 1 785 16 is_stmt 0 view .LVU1145
 3799 0006 2568     		ldr	r5, [r4]
 3800              	.LVL374:
 786:lvgl/lvgl/src/core/lv_obj_style.c **** 
 3801              		.loc 1 786 5 is_stmt 1 view .LVU1146
 786:lvgl/lvgl/src/core/lv_obj_style.c **** 
 3802              		.loc 1 786 21 is_stmt 0 view .LVU1147
 3803 0008 A688     		ldrh	r6, [r4, #4]
ARM GAS  C:\Users\gx\AppData\Local\Temp\cc2sgWsf.s 			page 116


 3804              	.LVL375:
 791:lvgl/lvgl/src/core/lv_obj_style.c ****     trans_t * tr_i;
 3805              		.loc 1 791 5 is_stmt 1 view .LVU1148
 792:lvgl/lvgl/src/core/lv_obj_style.c ****     _LV_LL_READ(&LV_GC_ROOT(_lv_obj_style_trans_ll), tr_i) {
 3806              		.loc 1 792 5 view .LVU1149
 793:lvgl/lvgl/src/core/lv_obj_style.c ****         if(tr_i != tr && tr_i->obj == tr->obj && tr_i->selector == tr->selector && tr_i->prop == tr
 3807              		.loc 1 793 5 view .LVU1150
 3808 000a 2748     		ldr	r0, .L269
 3809              	.LVL376:
 793:lvgl/lvgl/src/core/lv_obj_style.c ****         if(tr_i != tr && tr_i->obj == tr->obj && tr_i->selector == tr->selector && tr_i->prop == tr
 3810              		.loc 1 793 5 is_stmt 0 view .LVU1151
 3811 000c FFF7FEFF 		bl	_lv_ll_get_head
 3812              	.LVL377:
 3813 0010 0146     		mov	r1, r0
 3814              	.LVL378:
 793:lvgl/lvgl/src/core/lv_obj_style.c ****         if(tr_i != tr && tr_i->obj == tr->obj && tr_i->selector == tr->selector && tr_i->prop == tr
 3815              		.loc 1 793 5 view .LVU1152
 3816 0012 03E0     		b	.L258
 3817              	.L259:
 793:lvgl/lvgl/src/core/lv_obj_style.c ****         if(tr_i != tr && tr_i->obj == tr->obj && tr_i->selector == tr->selector && tr_i->prop == tr
 3818              		.loc 1 793 5 is_stmt 1 discriminator 2 view .LVU1153
 3819 0014 2448     		ldr	r0, .L269
 3820              	.LVL379:
 793:lvgl/lvgl/src/core/lv_obj_style.c ****         if(tr_i != tr && tr_i->obj == tr->obj && tr_i->selector == tr->selector && tr_i->prop == tr
 3821              		.loc 1 793 5 is_stmt 0 discriminator 2 view .LVU1154
 3822 0016 FFF7FEFF 		bl	_lv_ll_get_next
 3823              	.LVL380:
 793:lvgl/lvgl/src/core/lv_obj_style.c ****         if(tr_i != tr && tr_i->obj == tr->obj && tr_i->selector == tr->selector && tr_i->prop == tr
 3824              		.loc 1 793 5 discriminator 2 view .LVU1155
 3825 001a 0146     		mov	r1, r0
 3826              	.LVL381:
 3827              	.L258:
 793:lvgl/lvgl/src/core/lv_obj_style.c ****         if(tr_i != tr && tr_i->obj == tr->obj && tr_i->selector == tr->selector && tr_i->prop == tr
 3828              		.loc 1 793 5 is_stmt 1 discriminator 1 view .LVU1156
 3829 001c 79B1     		cbz	r1, .L268
 794:lvgl/lvgl/src/core/lv_obj_style.c ****             running = true;
 3830              		.loc 1 794 9 view .LVU1157
 794:lvgl/lvgl/src/core/lv_obj_style.c ****             running = true;
 3831              		.loc 1 794 11 is_stmt 0 view .LVU1158
 3832 001e A142     		cmp	r1, r4
 3833 0020 F8D0     		beq	.L259
 794:lvgl/lvgl/src/core/lv_obj_style.c ****             running = true;
 3834              		.loc 1 794 30 discriminator 1 view .LVU1159
 3835 0022 0A68     		ldr	r2, [r1]
 794:lvgl/lvgl/src/core/lv_obj_style.c ****             running = true;
 3836              		.loc 1 794 41 discriminator 1 view .LVU1160
 3837 0024 2368     		ldr	r3, [r4]
 794:lvgl/lvgl/src/core/lv_obj_style.c ****             running = true;
 3838              		.loc 1 794 23 discriminator 1 view .LVU1161
 3839 0026 9A42     		cmp	r2, r3
 3840 0028 F4D1     		bne	.L259
 794:lvgl/lvgl/src/core/lv_obj_style.c ****             running = true;
 3841              		.loc 1 794 54 discriminator 2 view .LVU1162
 3842 002a 8A68     		ldr	r2, [r1, #8]
 794:lvgl/lvgl/src/core/lv_obj_style.c ****             running = true;
 3843              		.loc 1 794 70 discriminator 2 view .LVU1163
 3844 002c A368     		ldr	r3, [r4, #8]
ARM GAS  C:\Users\gx\AppData\Local\Temp\cc2sgWsf.s 			page 117


 794:lvgl/lvgl/src/core/lv_obj_style.c ****             running = true;
 3845              		.loc 1 794 47 discriminator 2 view .LVU1164
 3846 002e 9A42     		cmp	r2, r3
 3847 0030 F0D1     		bne	.L259
 794:lvgl/lvgl/src/core/lv_obj_style.c ****             running = true;
 3848              		.loc 1 794 88 discriminator 3 view .LVU1165
 3849 0032 8A88     		ldrh	r2, [r1, #4]
 794:lvgl/lvgl/src/core/lv_obj_style.c ****             running = true;
 3850              		.loc 1 794 100 discriminator 3 view .LVU1166
 3851 0034 A388     		ldrh	r3, [r4, #4]
 794:lvgl/lvgl/src/core/lv_obj_style.c ****             running = true;
 3852              		.loc 1 794 81 discriminator 3 view .LVU1167
 3853 0036 9A42     		cmp	r2, r3
 3854 0038 ECD1     		bne	.L259
 795:lvgl/lvgl/src/core/lv_obj_style.c ****             break;
 3855              		.loc 1 795 21 view .LVU1168
 3856 003a 0123     		movs	r3, #1
 3857 003c 00E0     		b	.L260
 3858              	.L268:
 791:lvgl/lvgl/src/core/lv_obj_style.c ****     trans_t * tr_i;
 3859              		.loc 1 791 10 view .LVU1169
 3860 003e 0023     		movs	r3, #0
 3861              	.L260:
 3862              	.LVL382:
 800:lvgl/lvgl/src/core/lv_obj_style.c ****         uint32_t i;
 3863              		.loc 1 800 5 is_stmt 1 view .LVU1170
 800:lvgl/lvgl/src/core/lv_obj_style.c ****         uint32_t i;
 3864              		.loc 1 800 7 is_stmt 0 view .LVU1171
 3865 0040 13B1     		cbz	r3, .L263
 3866              	.LVL383:
 3867              	.L257:
 818:lvgl/lvgl/src/core/lv_obj_style.c **** 
 3868              		.loc 1 818 1 view .LVU1172
 3869 0042 BDE8F081 		pop	{r4, r5, r6, r7, r8, pc}
 3870              	.LVL384:
 3871              	.L264:
 3872              	.LBB132:
 802:lvgl/lvgl/src/core/lv_obj_style.c ****             if(obj->styles[i].is_trans && obj->styles[i].selector == tr->selector) {
 3873              		.loc 1 802 40 is_stmt 1 discriminator 2 view .LVU1173
 802:lvgl/lvgl/src/core/lv_obj_style.c ****             if(obj->styles[i].is_trans && obj->styles[i].selector == tr->selector) {
 3874              		.loc 1 802 41 is_stmt 0 discriminator 2 view .LVU1174
 3875 0046 0133     		adds	r3, r3, #1
 3876              	.LVL385:
 3877              	.L263:
 802:lvgl/lvgl/src/core/lv_obj_style.c ****             if(obj->styles[i].is_trans && obj->styles[i].selector == tr->selector) {
 3878              		.loc 1 802 20 is_stmt 1 discriminator 1 view .LVU1175
 802:lvgl/lvgl/src/core/lv_obj_style.c ****             if(obj->styles[i].is_trans && obj->styles[i].selector == tr->selector) {
 3879              		.loc 1 802 27 is_stmt 0 discriminator 1 view .LVU1176
 3880 0048 6A8C     		ldrh	r2, [r5, #34]
 3881 004a C2F3C502 		ubfx	r2, r2, #3, #6
 802:lvgl/lvgl/src/core/lv_obj_style.c ****             if(obj->styles[i].is_trans && obj->styles[i].selector == tr->selector) {
 3882              		.loc 1 802 9 discriminator 1 view .LVU1177
 3883 004e 9A42     		cmp	r2, r3
 3884 0050 F7D9     		bls	.L257
 803:lvgl/lvgl/src/core/lv_obj_style.c ****                 _lv_ll_remove(&LV_GC_ROOT(_lv_obj_style_trans_ll), tr);
 3885              		.loc 1 803 13 is_stmt 1 view .LVU1178
 803:lvgl/lvgl/src/core/lv_obj_style.c ****                 _lv_ll_remove(&LV_GC_ROOT(_lv_obj_style_trans_ll), tr);
ARM GAS  C:\Users\gx\AppData\Local\Temp\cc2sgWsf.s 			page 118


 3886              		.loc 1 803 19 is_stmt 0 view .LVU1179
 3887 0052 EA68     		ldr	r2, [r5, #12]
 803:lvgl/lvgl/src/core/lv_obj_style.c ****                 _lv_ll_remove(&LV_GC_ROOT(_lv_obj_style_trans_ll), tr);
 3888              		.loc 1 803 27 view .LVU1180
 3889 0054 DF00     		lsls	r7, r3, #3
 3890 0056 02EBC302 		add	r2, r2, r3, lsl #3
 803:lvgl/lvgl/src/core/lv_obj_style.c ****                 _lv_ll_remove(&LV_GC_ROOT(_lv_obj_style_trans_ll), tr);
 3891              		.loc 1 803 16 view .LVU1181
 3892 005a D179     		ldrb	r1, [r2, #7]	@ zero_extendqisi2
 803:lvgl/lvgl/src/core/lv_obj_style.c ****                 _lv_ll_remove(&LV_GC_ROOT(_lv_obj_style_trans_ll), tr);
 3893              		.loc 1 803 15 view .LVU1182
 3894 005c 11F0020F 		tst	r1, #2
 3895 0060 F1D0     		beq	.L264
 803:lvgl/lvgl/src/core/lv_obj_style.c ****                 _lv_ll_remove(&LV_GC_ROOT(_lv_obj_style_trans_ll), tr);
 3896              		.loc 1 803 57 discriminator 1 view .LVU1183
 3897 0062 5268     		ldr	r2, [r2, #4]
 3898 0064 C2F31702 		ubfx	r2, r2, #0, #24
 803:lvgl/lvgl/src/core/lv_obj_style.c ****                 _lv_ll_remove(&LV_GC_ROOT(_lv_obj_style_trans_ll), tr);
 3899              		.loc 1 803 72 discriminator 1 view .LVU1184
 3900 0068 A168     		ldr	r1, [r4, #8]
 803:lvgl/lvgl/src/core/lv_obj_style.c ****                 _lv_ll_remove(&LV_GC_ROOT(_lv_obj_style_trans_ll), tr);
 3901              		.loc 1 803 40 discriminator 1 view .LVU1185
 3902 006a 8A42     		cmp	r2, r1
 3903 006c EBD1     		bne	.L264
 3904              	.LBB133:
 804:lvgl/lvgl/src/core/lv_obj_style.c ****                 lv_mem_free(tr);
 3905              		.loc 1 804 17 is_stmt 1 view .LVU1186
 3906 006e 2146     		mov	r1, r4
 3907 0070 0D48     		ldr	r0, .L269
 3908              	.LVL386:
 804:lvgl/lvgl/src/core/lv_obj_style.c ****                 lv_mem_free(tr);
 3909              		.loc 1 804 17 is_stmt 0 view .LVU1187
 3910 0072 FFF7FEFF 		bl	_lv_ll_remove
 3911              	.LVL387:
 805:lvgl/lvgl/src/core/lv_obj_style.c **** 
 3912              		.loc 1 805 17 is_stmt 1 view .LVU1188
 3913 0076 2046     		mov	r0, r4
 3914 0078 FFF7FEFF 		bl	lv_mem_free
 3915              	.LVL388:
 807:lvgl/lvgl/src/core/lv_obj_style.c ****                 lv_style_remove_prop(obj_style->style, prop);
 3916              		.loc 1 807 17 view .LVU1189
 807:lvgl/lvgl/src/core/lv_obj_style.c ****                 lv_style_remove_prop(obj_style->style, prop);
 3917              		.loc 1 807 51 is_stmt 0 view .LVU1190
 3918 007c EC68     		ldr	r4, [r5, #12]
 3919              	.LVL389:
 807:lvgl/lvgl/src/core/lv_obj_style.c ****                 lv_style_remove_prop(obj_style->style, prop);
 3920              		.loc 1 807 35 view .LVU1191
 3921 007e 04EB0708 		add	r8, r4, r7
 3922              	.LVL390:
 808:lvgl/lvgl/src/core/lv_obj_style.c **** 
 3923              		.loc 1 808 17 is_stmt 1 view .LVU1192
 3924 0082 3146     		mov	r1, r6
 3925 0084 E059     		ldr	r0, [r4, r7]
 3926 0086 FFF7FEFF 		bl	lv_style_remove_prop
 3927              	.LVL391:
 810:lvgl/lvgl/src/core/lv_obj_style.c ****                     lv_obj_remove_style(obj, obj_style->style, obj_style->selector);
 3928              		.loc 1 810 17 view .LVU1193
ARM GAS  C:\Users\gx\AppData\Local\Temp\cc2sgWsf.s 			page 119


 810:lvgl/lvgl/src/core/lv_obj_style.c ****                     lv_obj_remove_style(obj, obj_style->style, obj_style->selector);
 3929              		.loc 1 810 41 is_stmt 0 view .LVU1194
 3930 008a EB68     		ldr	r3, [r5, #12]
 810:lvgl/lvgl/src/core/lv_obj_style.c ****                     lv_obj_remove_style(obj, obj_style->style, obj_style->selector);
 3931              		.loc 1 810 20 view .LVU1195
 3932 008c D859     		ldr	r0, [r3, r7]
 3933 008e FFF7FEFF 		bl	lv_style_is_empty
 3934              	.LVL392:
 810:lvgl/lvgl/src/core/lv_obj_style.c ****                     lv_obj_remove_style(obj, obj_style->style, obj_style->selector);
 3935              		.loc 1 810 19 view .LVU1196
 3936 0092 0028     		cmp	r0, #0
 3937 0094 D5D0     		beq	.L257
 811:lvgl/lvgl/src/core/lv_obj_style.c **** 
 3938              		.loc 1 811 21 is_stmt 1 view .LVU1197
 811:lvgl/lvgl/src/core/lv_obj_style.c **** 
 3939              		.loc 1 811 73 is_stmt 0 view .LVU1198
 3940 0096 D8F80420 		ldr	r2, [r8, #4]
 811:lvgl/lvgl/src/core/lv_obj_style.c **** 
 3941              		.loc 1 811 21 view .LVU1199
 3942 009a 22F07F42 		bic	r2, r2, #-16777216
 3943 009e E159     		ldr	r1, [r4, r7]
 3944 00a0 2846     		mov	r0, r5
 3945 00a2 FFF7FEFF 		bl	lv_obj_remove_style
 3946              	.LVL393:
 3947 00a6 CCE7     		b	.L257
 3948              	.L270:
 3949              		.align	2
 3950              	.L269:
 3951 00a8 00000000 		.word	_lv_obj_style_trans_ll
 3952              	.LBE133:
 3953              	.LBE132:
 3954              		.cfi_endproc
 3955              	.LFE184:
 3957              		.section	.text.trans_anim_start_cb,"ax",%progbits
 3958              		.align	1
 3959              		.syntax unified
 3960              		.thumb
 3961              		.thumb_func
 3962              		.fpu fpv4-sp-d16
 3964              	trans_anim_start_cb:
 3965              	.LVL394:
 3966              	.LFB183:
 762:lvgl/lvgl/src/core/lv_obj_style.c ****     trans_t * tr = a->var;
 3967              		.loc 1 762 1 is_stmt 1 view -0
 3968              		.cfi_startproc
 3969              		@ args = 0, pretend = 0, frame = 0
 3970              		@ frame_needed = 0, uses_anonymous_args = 0
 762:lvgl/lvgl/src/core/lv_obj_style.c ****     trans_t * tr = a->var;
 3971              		.loc 1 762 1 is_stmt 0 view .LVU1201
 3972 0000 70B5     		push	{r4, r5, r6, lr}
 3973              	.LCFI44:
 3974              		.cfi_def_cfa_offset 16
 3975              		.cfi_offset 4, -16
 3976              		.cfi_offset 5, -12
 3977              		.cfi_offset 6, -8
 3978              		.cfi_offset 14, -4
 763:lvgl/lvgl/src/core/lv_obj_style.c **** 
ARM GAS  C:\Users\gx\AppData\Local\Temp\cc2sgWsf.s 			page 120


 3979              		.loc 1 763 5 is_stmt 1 view .LVU1202
 763:lvgl/lvgl/src/core/lv_obj_style.c **** 
 3980              		.loc 1 763 15 is_stmt 0 view .LVU1203
 3981 0002 0468     		ldr	r4, [r0]
 3982              	.LVL395:
 765:lvgl/lvgl/src/core/lv_obj_style.c ****     tr->start_value = lv_obj_get_style_prop(tr->obj, part, tr->prop);
 3983              		.loc 1 765 5 is_stmt 1 view .LVU1204
 765:lvgl/lvgl/src/core/lv_obj_style.c ****     tr->start_value = lv_obj_get_style_prop(tr->obj, part, tr->prop);
 3984              		.loc 1 765 22 is_stmt 0 view .LVU1205
 3985 0004 A068     		ldr	r0, [r4, #8]
 3986              	.LVL396:
 765:lvgl/lvgl/src/core/lv_obj_style.c ****     tr->start_value = lv_obj_get_style_prop(tr->obj, part, tr->prop);
 3987              		.loc 1 765 22 view .LVU1206
 3988 0006 FFF7FEFF 		bl	lv_obj_style_get_selector_part
 3989              	.LVL397:
 3990 000a 0546     		mov	r5, r0
 3991              	.LVL398:
 766:lvgl/lvgl/src/core/lv_obj_style.c **** 
 3992              		.loc 1 766 5 is_stmt 1 view .LVU1207
 766:lvgl/lvgl/src/core/lv_obj_style.c **** 
 3993              		.loc 1 766 23 is_stmt 0 view .LVU1208
 3994 000c A288     		ldrh	r2, [r4, #4]
 3995 000e 0146     		mov	r1, r0
 3996 0010 2068     		ldr	r0, [r4]
 3997              	.LVL399:
 766:lvgl/lvgl/src/core/lv_obj_style.c **** 
 3998              		.loc 1 766 23 view .LVU1209
 3999 0012 FFF7FEFF 		bl	lv_obj_get_style_prop
 4000              	.LVL400:
 766:lvgl/lvgl/src/core/lv_obj_style.c **** 
 4001              		.loc 1 766 23 view .LVU1210
 4002 0016 E060     		str	r0, [r4, #12]
 769:lvgl/lvgl/src/core/lv_obj_style.c ****     tr->prop = LV_STYLE_PROP_INV;
 4003              		.loc 1 769 5 is_stmt 1 view .LVU1211
 769:lvgl/lvgl/src/core/lv_obj_style.c ****     tr->prop = LV_STYLE_PROP_INV;
 4004              		.loc 1 769 21 is_stmt 0 view .LVU1212
 4005 0018 A688     		ldrh	r6, [r4, #4]
 4006              	.LVL401:
 770:lvgl/lvgl/src/core/lv_obj_style.c **** 
 4007              		.loc 1 770 5 is_stmt 1 view .LVU1213
 770:lvgl/lvgl/src/core/lv_obj_style.c **** 
 4008              		.loc 1 770 14 is_stmt 0 view .LVU1214
 4009 001a 0023     		movs	r3, #0
 4010 001c A380     		strh	r3, [r4, #4]	@ movhi
 773:lvgl/lvgl/src/core/lv_obj_style.c **** 
 4011              		.loc 1 773 5 is_stmt 1 view .LVU1215
 4012 001e 2346     		mov	r3, r4
 4013 0020 3246     		mov	r2, r6
 4014 0022 2946     		mov	r1, r5
 4015 0024 2068     		ldr	r0, [r4]
 4016 0026 FFF7FEFF 		bl	trans_del
 4017              	.LVL402:
 775:lvgl/lvgl/src/core/lv_obj_style.c **** 
 4018              		.loc 1 775 5 view .LVU1216
 775:lvgl/lvgl/src/core/lv_obj_style.c **** 
 4019              		.loc 1 775 14 is_stmt 0 view .LVU1217
 4020 002a A680     		strh	r6, [r4, #4]	@ movhi
ARM GAS  C:\Users\gx\AppData\Local\Temp\cc2sgWsf.s 			page 121


 777:lvgl/lvgl/src/core/lv_obj_style.c ****     lv_style_set_prop(style_trans->style, tr->prop, tr->start_value);   /*Be sure `trans_style` has
 4021              		.loc 1 777 5 is_stmt 1 view .LVU1218
 777:lvgl/lvgl/src/core/lv_obj_style.c ****     lv_style_set_prop(style_trans->style, tr->prop, tr->start_value);   /*Be sure `trans_style` has
 4022              		.loc 1 777 37 is_stmt 0 view .LVU1219
 4023 002c A168     		ldr	r1, [r4, #8]
 4024 002e 2068     		ldr	r0, [r4]
 4025 0030 FFF7FEFF 		bl	get_trans_style
 4026              	.LVL403:
 778:lvgl/lvgl/src/core/lv_obj_style.c **** 
 4027              		.loc 1 778 5 is_stmt 1 view .LVU1220
 4028 0034 E268     		ldr	r2, [r4, #12]
 4029 0036 A188     		ldrh	r1, [r4, #4]
 4030 0038 0068     		ldr	r0, [r0]
 4031              	.LVL404:
 778:lvgl/lvgl/src/core/lv_obj_style.c **** 
 4032              		.loc 1 778 5 is_stmt 0 view .LVU1221
 4033 003a FFF7FEFF 		bl	lv_style_set_prop
 4034              	.LVL405:
 780:lvgl/lvgl/src/core/lv_obj_style.c **** 
 4035              		.loc 1 780 1 view .LVU1222
 4036 003e 70BD     		pop	{r4, r5, r6, pc}
 780:lvgl/lvgl/src/core/lv_obj_style.c **** 
 4037              		.loc 1 780 1 view .LVU1223
 4038              		.cfi_endproc
 4039              	.LFE183:
 4041              		.section	.text._lv_obj_style_state_compare,"ax",%progbits
 4042              		.align	1
 4043              		.global	_lv_obj_style_state_compare
 4044              		.syntax unified
 4045              		.thumb
 4046              		.thumb_func
 4047              		.fpu fpv4-sp-d16
 4049              	_lv_obj_style_state_compare:
 4050              	.LVL406:
 4051              	.LFB169:
 357:lvgl/lvgl/src/core/lv_obj_style.c ****     _lv_style_state_cmp_t res = _LV_STYLE_STATE_CMP_SAME;
 4052              		.loc 1 357 1 is_stmt 1 view -0
 4053              		.cfi_startproc
 4054              		@ args = 0, pretend = 0, frame = 16
 4055              		@ frame_needed = 0, uses_anonymous_args = 0
 357:lvgl/lvgl/src/core/lv_obj_style.c ****     _lv_style_state_cmp_t res = _LV_STYLE_STATE_CMP_SAME;
 4056              		.loc 1 357 1 is_stmt 0 view .LVU1225
 4057 0000 2DE9F04F 		push	{r4, r5, r6, r7, r8, r9, r10, fp, lr}
 4058              	.LCFI45:
 4059              		.cfi_def_cfa_offset 36
 4060              		.cfi_offset 4, -36
 4061              		.cfi_offset 5, -32
 4062              		.cfi_offset 6, -28
 4063              		.cfi_offset 7, -24
 4064              		.cfi_offset 8, -20
 4065              		.cfi_offset 9, -16
 4066              		.cfi_offset 10, -12
 4067              		.cfi_offset 11, -8
 4068              		.cfi_offset 14, -4
 4069 0004 85B0     		sub	sp, sp, #20
 4070              	.LCFI46:
 4071              		.cfi_def_cfa_offset 56
ARM GAS  C:\Users\gx\AppData\Local\Temp\cc2sgWsf.s 			page 122


 4072 0006 0746     		mov	r7, r0
 4073 0008 8B46     		mov	fp, r1
 4074 000a 9246     		mov	r10, r2
 358:lvgl/lvgl/src/core/lv_obj_style.c **** 
 4075              		.loc 1 358 5 is_stmt 1 view .LVU1226
 4076              	.LVL407:
 361:lvgl/lvgl/src/core/lv_obj_style.c ****     for(i = 0; i < obj->style_cnt; i++) {
 4077              		.loc 1 361 5 view .LVU1227
 362:lvgl/lvgl/src/core/lv_obj_style.c ****         if(obj->styles[i].is_trans) continue;
 4078              		.loc 1 362 5 view .LVU1228
 362:lvgl/lvgl/src/core/lv_obj_style.c ****         if(obj->styles[i].is_trans) continue;
 4079              		.loc 1 362 11 is_stmt 0 view .LVU1229
 4080 000c 0024     		movs	r4, #0
 358:lvgl/lvgl/src/core/lv_obj_style.c **** 
 4081              		.loc 1 358 27 view .LVU1230
 4082 000e 0194     		str	r4, [sp, #4]
 362:lvgl/lvgl/src/core/lv_obj_style.c ****         if(obj->styles[i].is_trans) continue;
 4083              		.loc 1 362 5 view .LVU1231
 4084 0010 9AE0     		b	.L274
 4085              	.LVL408:
 4086              	.L299:
 4087              	.LBB134:
 4088              	.LBB135:
 376:lvgl/lvgl/src/core/lv_obj_style.c ****             else if(lv_style_get_prop(style, LV_STYLE_PAD_LEFT, &v)) layout_diff = true;
 4089              		.loc 1 376 18 is_stmt 1 view .LVU1232
 376:lvgl/lvgl/src/core/lv_obj_style.c ****             else if(lv_style_get_prop(style, LV_STYLE_PAD_LEFT, &v)) layout_diff = true;
 4090              		.loc 1 376 21 is_stmt 0 view .LVU1233
 4091 0012 03AA     		add	r2, sp, #12
 4092 0014 41F21101 		movw	r1, #4113
 4093 0018 2846     		mov	r0, r5
 4094 001a FFF7FEFF 		bl	lv_style_get_prop
 4095              	.LVL409:
 376:lvgl/lvgl/src/core/lv_obj_style.c ****             else if(lv_style_get_prop(style, LV_STYLE_PAD_LEFT, &v)) layout_diff = true;
 4096              		.loc 1 376 20 view .LVU1234
 4097 001e 0028     		cmp	r0, #0
 4098 0020 40F0C380 		bne	.L276
 377:lvgl/lvgl/src/core/lv_obj_style.c ****             else if(lv_style_get_prop(style, LV_STYLE_PAD_RIGHT, &v)) layout_diff = true;
 4099              		.loc 1 377 18 is_stmt 1 view .LVU1235
 377:lvgl/lvgl/src/core/lv_obj_style.c ****             else if(lv_style_get_prop(style, LV_STYLE_PAD_RIGHT, &v)) layout_diff = true;
 4100              		.loc 1 377 21 is_stmt 0 view .LVU1236
 4101 0024 03AA     		add	r2, sp, #12
 4102 0026 41F21201 		movw	r1, #4114
 4103 002a 2846     		mov	r0, r5
 4104 002c FFF7FEFF 		bl	lv_style_get_prop
 4105              	.LVL410:
 377:lvgl/lvgl/src/core/lv_obj_style.c ****             else if(lv_style_get_prop(style, LV_STYLE_PAD_RIGHT, &v)) layout_diff = true;
 4106              		.loc 1 377 20 view .LVU1237
 4107 0030 0028     		cmp	r0, #0
 4108 0032 40F0BA80 		bne	.L276
 378:lvgl/lvgl/src/core/lv_obj_style.c ****             else if(lv_style_get_prop(style, LV_STYLE_PAD_COLUMN, &v)) layout_diff = true;
 4109              		.loc 1 378 18 is_stmt 1 view .LVU1238
 378:lvgl/lvgl/src/core/lv_obj_style.c ****             else if(lv_style_get_prop(style, LV_STYLE_PAD_COLUMN, &v)) layout_diff = true;
 4110              		.loc 1 378 21 is_stmt 0 view .LVU1239
 4111 0036 03AA     		add	r2, sp, #12
 4112 0038 41F21301 		movw	r1, #4115
 4113 003c 2846     		mov	r0, r5
 4114 003e FFF7FEFF 		bl	lv_style_get_prop
ARM GAS  C:\Users\gx\AppData\Local\Temp\cc2sgWsf.s 			page 123


 4115              	.LVL411:
 378:lvgl/lvgl/src/core/lv_obj_style.c ****             else if(lv_style_get_prop(style, LV_STYLE_PAD_COLUMN, &v)) layout_diff = true;
 4116              		.loc 1 378 20 view .LVU1240
 4117 0042 0028     		cmp	r0, #0
 4118 0044 40F0B180 		bne	.L276
 379:lvgl/lvgl/src/core/lv_obj_style.c ****             else if(lv_style_get_prop(style, LV_STYLE_PAD_ROW, &v)) layout_diff = true;
 4119              		.loc 1 379 18 is_stmt 1 view .LVU1241
 379:lvgl/lvgl/src/core/lv_obj_style.c ****             else if(lv_style_get_prop(style, LV_STYLE_PAD_ROW, &v)) layout_diff = true;
 4120              		.loc 1 379 21 is_stmt 0 view .LVU1242
 4121 0048 03AA     		add	r2, sp, #12
 4122 004a 41F21501 		movw	r1, #4117
 4123 004e 2846     		mov	r0, r5
 4124 0050 FFF7FEFF 		bl	lv_style_get_prop
 4125              	.LVL412:
 379:lvgl/lvgl/src/core/lv_obj_style.c ****             else if(lv_style_get_prop(style, LV_STYLE_PAD_ROW, &v)) layout_diff = true;
 4126              		.loc 1 379 20 view .LVU1243
 4127 0054 0028     		cmp	r0, #0
 4128 0056 40F0A880 		bne	.L276
 380:lvgl/lvgl/src/core/lv_obj_style.c ****             else if(lv_style_get_prop(style, LV_STYLE_LAYOUT, &v)) layout_diff = true;
 4129              		.loc 1 380 18 is_stmt 1 view .LVU1244
 380:lvgl/lvgl/src/core/lv_obj_style.c ****             else if(lv_style_get_prop(style, LV_STYLE_LAYOUT, &v)) layout_diff = true;
 4130              		.loc 1 380 21 is_stmt 0 view .LVU1245
 4131 005a 03AA     		add	r2, sp, #12
 4132 005c 41F21401 		movw	r1, #4116
 4133 0060 2846     		mov	r0, r5
 4134 0062 FFF7FEFF 		bl	lv_style_get_prop
 4135              	.LVL413:
 380:lvgl/lvgl/src/core/lv_obj_style.c ****             else if(lv_style_get_prop(style, LV_STYLE_LAYOUT, &v)) layout_diff = true;
 4136              		.loc 1 380 20 view .LVU1246
 4137 0066 0028     		cmp	r0, #0
 4138 0068 40F09F80 		bne	.L276
 381:lvgl/lvgl/src/core/lv_obj_style.c ****             else if(lv_style_get_prop(style, LV_STYLE_TRANSLATE_X, &v)) layout_diff = true;
 4139              		.loc 1 381 18 is_stmt 1 view .LVU1247
 381:lvgl/lvgl/src/core/lv_obj_style.c ****             else if(lv_style_get_prop(style, LV_STYLE_TRANSLATE_X, &v)) layout_diff = true;
 4140              		.loc 1 381 21 is_stmt 0 view .LVU1248
 4141 006c 03AA     		add	r2, sp, #12
 4142 006e 41F26901 		movw	r1, #4201
 4143 0072 2846     		mov	r0, r5
 4144 0074 FFF7FEFF 		bl	lv_style_get_prop
 4145              	.LVL414:
 381:lvgl/lvgl/src/core/lv_obj_style.c ****             else if(lv_style_get_prop(style, LV_STYLE_TRANSLATE_X, &v)) layout_diff = true;
 4146              		.loc 1 381 20 view .LVU1249
 4147 0078 0028     		cmp	r0, #0
 4148 007a 40F09680 		bne	.L276
 382:lvgl/lvgl/src/core/lv_obj_style.c ****             else if(lv_style_get_prop(style, LV_STYLE_TRANSLATE_Y, &v)) layout_diff = true;
 4149              		.loc 1 382 18 is_stmt 1 view .LVU1250
 382:lvgl/lvgl/src/core/lv_obj_style.c ****             else if(lv_style_get_prop(style, LV_STYLE_TRANSLATE_Y, &v)) layout_diff = true;
 4150              		.loc 1 382 21 is_stmt 0 view .LVU1251
 4151 007e 03AA     		add	r2, sp, #12
 4152 0080 43F20C01 		movw	r1, #12300
 4153 0084 2846     		mov	r0, r5
 4154 0086 FFF7FEFF 		bl	lv_style_get_prop
 4155              	.LVL415:
 382:lvgl/lvgl/src/core/lv_obj_style.c ****             else if(lv_style_get_prop(style, LV_STYLE_TRANSLATE_Y, &v)) layout_diff = true;
 4156              		.loc 1 382 20 view .LVU1252
 4157 008a 0028     		cmp	r0, #0
 4158 008c 40F08D80 		bne	.L276
ARM GAS  C:\Users\gx\AppData\Local\Temp\cc2sgWsf.s 			page 124


 383:lvgl/lvgl/src/core/lv_obj_style.c ****             else if(lv_style_get_prop(style, LV_STYLE_WIDTH, &v)) layout_diff = true;
 4159              		.loc 1 383 18 is_stmt 1 view .LVU1253
 383:lvgl/lvgl/src/core/lv_obj_style.c ****             else if(lv_style_get_prop(style, LV_STYLE_WIDTH, &v)) layout_diff = true;
 4160              		.loc 1 383 21 is_stmt 0 view .LVU1254
 4161 0090 03AA     		add	r2, sp, #12
 4162 0092 43F20D01 		movw	r1, #12301
 4163 0096 2846     		mov	r0, r5
 4164 0098 FFF7FEFF 		bl	lv_style_get_prop
 4165              	.LVL416:
 383:lvgl/lvgl/src/core/lv_obj_style.c ****             else if(lv_style_get_prop(style, LV_STYLE_WIDTH, &v)) layout_diff = true;
 4166              		.loc 1 383 20 view .LVU1255
 4167 009c 0028     		cmp	r0, #0
 4168 009e 40F08480 		bne	.L276
 384:lvgl/lvgl/src/core/lv_obj_style.c ****             else if(lv_style_get_prop(style, LV_STYLE_HEIGHT, &v)) layout_diff = true;
 4169              		.loc 1 384 18 is_stmt 1 view .LVU1256
 384:lvgl/lvgl/src/core/lv_obj_style.c ****             else if(lv_style_get_prop(style, LV_STYLE_HEIGHT, &v)) layout_diff = true;
 4170              		.loc 1 384 21 is_stmt 0 view .LVU1257
 4171 00a2 03AA     		add	r2, sp, #12
 4172 00a4 41F20101 		movw	r1, #4097
 4173 00a8 2846     		mov	r0, r5
 4174 00aa FFF7FEFF 		bl	lv_style_get_prop
 4175              	.LVL417:
 384:lvgl/lvgl/src/core/lv_obj_style.c ****             else if(lv_style_get_prop(style, LV_STYLE_HEIGHT, &v)) layout_diff = true;
 4176              		.loc 1 384 20 view .LVU1258
 4177 00ae 0028     		cmp	r0, #0
 4178 00b0 7BD1     		bne	.L276
 385:lvgl/lvgl/src/core/lv_obj_style.c ****             else if(lv_style_get_prop(style, LV_STYLE_MIN_WIDTH, &v)) layout_diff = true;
 4179              		.loc 1 385 18 is_stmt 1 view .LVU1259
 385:lvgl/lvgl/src/core/lv_obj_style.c ****             else if(lv_style_get_prop(style, LV_STYLE_MIN_WIDTH, &v)) layout_diff = true;
 4180              		.loc 1 385 21 is_stmt 0 view .LVU1260
 4181 00b2 03AA     		add	r2, sp, #12
 4182 00b4 41F20401 		movw	r1, #4100
 4183 00b8 2846     		mov	r0, r5
 4184 00ba FFF7FEFF 		bl	lv_style_get_prop
 4185              	.LVL418:
 385:lvgl/lvgl/src/core/lv_obj_style.c ****             else if(lv_style_get_prop(style, LV_STYLE_MIN_WIDTH, &v)) layout_diff = true;
 4186              		.loc 1 385 20 view .LVU1261
 4187 00be 0028     		cmp	r0, #0
 4188 00c0 73D1     		bne	.L276
 386:lvgl/lvgl/src/core/lv_obj_style.c ****             else if(lv_style_get_prop(style, LV_STYLE_MAX_WIDTH, &v)) layout_diff = true;
 4189              		.loc 1 386 18 is_stmt 1 view .LVU1262
 386:lvgl/lvgl/src/core/lv_obj_style.c ****             else if(lv_style_get_prop(style, LV_STYLE_MAX_WIDTH, &v)) layout_diff = true;
 4190              		.loc 1 386 21 is_stmt 0 view .LVU1263
 4191 00c2 03AA     		add	r2, sp, #12
 4192 00c4 41F20201 		movw	r1, #4098
 4193 00c8 2846     		mov	r0, r5
 4194 00ca FFF7FEFF 		bl	lv_style_get_prop
 4195              	.LVL419:
 386:lvgl/lvgl/src/core/lv_obj_style.c ****             else if(lv_style_get_prop(style, LV_STYLE_MAX_WIDTH, &v)) layout_diff = true;
 4196              		.loc 1 386 20 view .LVU1264
 4197 00ce 0028     		cmp	r0, #0
 4198 00d0 6BD1     		bne	.L276
 387:lvgl/lvgl/src/core/lv_obj_style.c ****             else if(lv_style_get_prop(style, LV_STYLE_MIN_HEIGHT, &v)) layout_diff = true;
 4199              		.loc 1 387 18 is_stmt 1 view .LVU1265
 387:lvgl/lvgl/src/core/lv_obj_style.c ****             else if(lv_style_get_prop(style, LV_STYLE_MIN_HEIGHT, &v)) layout_diff = true;
 4200              		.loc 1 387 21 is_stmt 0 view .LVU1266
 4201 00d2 03AA     		add	r2, sp, #12
ARM GAS  C:\Users\gx\AppData\Local\Temp\cc2sgWsf.s 			page 125


 4202 00d4 41F20301 		movw	r1, #4099
 4203 00d8 2846     		mov	r0, r5
 4204 00da FFF7FEFF 		bl	lv_style_get_prop
 4205              	.LVL420:
 387:lvgl/lvgl/src/core/lv_obj_style.c ****             else if(lv_style_get_prop(style, LV_STYLE_MIN_HEIGHT, &v)) layout_diff = true;
 4206              		.loc 1 387 20 view .LVU1267
 4207 00de 0028     		cmp	r0, #0
 4208 00e0 63D1     		bne	.L276
 388:lvgl/lvgl/src/core/lv_obj_style.c ****             else if(lv_style_get_prop(style, LV_STYLE_MAX_HEIGHT, &v)) layout_diff = true;
 4209              		.loc 1 388 18 is_stmt 1 view .LVU1268
 388:lvgl/lvgl/src/core/lv_obj_style.c ****             else if(lv_style_get_prop(style, LV_STYLE_MAX_HEIGHT, &v)) layout_diff = true;
 4210              		.loc 1 388 21 is_stmt 0 view .LVU1269
 4211 00e2 03AA     		add	r2, sp, #12
 4212 00e4 41F20501 		movw	r1, #4101
 4213 00e8 2846     		mov	r0, r5
 4214 00ea FFF7FEFF 		bl	lv_style_get_prop
 4215              	.LVL421:
 388:lvgl/lvgl/src/core/lv_obj_style.c ****             else if(lv_style_get_prop(style, LV_STYLE_MAX_HEIGHT, &v)) layout_diff = true;
 4216              		.loc 1 388 20 view .LVU1270
 4217 00ee 0028     		cmp	r0, #0
 4218 00f0 5BD1     		bne	.L276
 389:lvgl/lvgl/src/core/lv_obj_style.c ****             else if(lv_style_get_prop(style, LV_STYLE_BORDER_WIDTH, &v)) layout_diff = true;
 4219              		.loc 1 389 18 is_stmt 1 view .LVU1271
 389:lvgl/lvgl/src/core/lv_obj_style.c ****             else if(lv_style_get_prop(style, LV_STYLE_BORDER_WIDTH, &v)) layout_diff = true;
 4220              		.loc 1 389 21 is_stmt 0 view .LVU1272
 4221 00f2 03AA     		add	r2, sp, #12
 4222 00f4 41F20601 		movw	r1, #4102
 4223 00f8 2846     		mov	r0, r5
 4224 00fa FFF7FEFF 		bl	lv_style_get_prop
 4225              	.LVL422:
 389:lvgl/lvgl/src/core/lv_obj_style.c ****             else if(lv_style_get_prop(style, LV_STYLE_BORDER_WIDTH, &v)) layout_diff = true;
 4226              		.loc 1 389 20 view .LVU1273
 4227 00fe 0028     		cmp	r0, #0
 4228 0100 53D1     		bne	.L276
 390:lvgl/lvgl/src/core/lv_obj_style.c ****             else if(lv_style_get_prop(style, LV_STYLE_TRANSFORM_ANGLE, &v)) layout_diff = true;
 4229              		.loc 1 390 18 is_stmt 1 view .LVU1274
 390:lvgl/lvgl/src/core/lv_obj_style.c ****             else if(lv_style_get_prop(style, LV_STYLE_TRANSFORM_ANGLE, &v)) layout_diff = true;
 4230              		.loc 1 390 21 is_stmt 0 view .LVU1275
 4231 0102 03AA     		add	r2, sp, #12
 4232 0104 41F23201 		movw	r1, #4146
 4233 0108 2846     		mov	r0, r5
 4234 010a FFF7FEFF 		bl	lv_style_get_prop
 4235              	.LVL423:
 390:lvgl/lvgl/src/core/lv_obj_style.c ****             else if(lv_style_get_prop(style, LV_STYLE_TRANSFORM_ANGLE, &v)) layout_diff = true;
 4236              		.loc 1 390 20 view .LVU1276
 4237 010e 0028     		cmp	r0, #0
 4238 0110 4BD1     		bne	.L276
 391:lvgl/lvgl/src/core/lv_obj_style.c ****             else if(lv_style_get_prop(style, LV_STYLE_TRANSFORM_ZOOM, &v)) layout_diff = true;
 4239              		.loc 1 391 18 is_stmt 1 view .LVU1277
 391:lvgl/lvgl/src/core/lv_obj_style.c ****             else if(lv_style_get_prop(style, LV_STYLE_TRANSFORM_ZOOM, &v)) layout_diff = true;
 4240              		.loc 1 391 21 is_stmt 0 view .LVU1278
 4241 0112 03AA     		add	r2, sp, #12
 4242 0114 43F60F01 		movw	r1, #14351
 4243 0118 2846     		mov	r0, r5
 4244 011a FFF7FEFF 		bl	lv_style_get_prop
 4245              	.LVL424:
 391:lvgl/lvgl/src/core/lv_obj_style.c ****             else if(lv_style_get_prop(style, LV_STYLE_TRANSFORM_ZOOM, &v)) layout_diff = true;
ARM GAS  C:\Users\gx\AppData\Local\Temp\cc2sgWsf.s 			page 126


 4246              		.loc 1 391 20 view .LVU1279
 4247 011e 0028     		cmp	r0, #0
 4248 0120 43D1     		bne	.L276
 392:lvgl/lvgl/src/core/lv_obj_style.c **** 
 4249              		.loc 1 392 18 is_stmt 1 view .LVU1280
 392:lvgl/lvgl/src/core/lv_obj_style.c **** 
 4250              		.loc 1 392 21 is_stmt 0 view .LVU1281
 4251 0122 03AA     		add	r2, sp, #12
 4252 0124 43F60E01 		movw	r1, #14350
 4253 0128 2846     		mov	r0, r5
 4254 012a FFF7FEFF 		bl	lv_style_get_prop
 4255              	.LVL425:
 392:lvgl/lvgl/src/core/lv_obj_style.c **** 
 4256              		.loc 1 392 20 view .LVU1282
 4257 012e 0028     		cmp	r0, #0
 4258 0130 3BD1     		bne	.L276
 394:lvgl/lvgl/src/core/lv_obj_style.c ****                 if(part_act == LV_PART_MAIN) {
 4259              		.loc 1 394 13 is_stmt 1 view .LVU1283
 405:lvgl/lvgl/src/core/lv_obj_style.c ****             else if(lv_style_get_prop(style, LV_STYLE_TRANSFORM_HEIGHT, &v)) res = _LV_STYLE_STATE_
 4260              		.loc 1 405 13 view .LVU1284
 405:lvgl/lvgl/src/core/lv_obj_style.c ****             else if(lv_style_get_prop(style, LV_STYLE_TRANSFORM_HEIGHT, &v)) res = _LV_STYLE_STATE_
 4261              		.loc 1 405 16 is_stmt 0 view .LVU1285
 4262 0132 03AA     		add	r2, sp, #12
 4263 0134 40F60A01 		movw	r1, #2058
 4264 0138 2846     		mov	r0, r5
 4265 013a FFF7FEFF 		bl	lv_style_get_prop
 4266              	.LVL426:
 405:lvgl/lvgl/src/core/lv_obj_style.c ****             else if(lv_style_get_prop(style, LV_STYLE_TRANSFORM_HEIGHT, &v)) res = _LV_STYLE_STATE_
 4267              		.loc 1 405 15 view .LVU1286
 4268 013e 0028     		cmp	r0, #0
 4269 0140 3DD0     		beq	.L298
 405:lvgl/lvgl/src/core/lv_obj_style.c ****             else if(lv_style_get_prop(style, LV_STYLE_TRANSFORM_HEIGHT, &v)) res = _LV_STYLE_STATE_
 4270              		.loc 1 405 76 view .LVU1287
 4271 0142 0223     		movs	r3, #2
 4272 0144 0193     		str	r3, [sp, #4]
 4273              	.LVL427:
 4274              	.L275:
 405:lvgl/lvgl/src/core/lv_obj_style.c ****             else if(lv_style_get_prop(style, LV_STYLE_TRANSFORM_HEIGHT, &v)) res = _LV_STYLE_STATE_
 4275              		.loc 1 405 76 view .LVU1288
 4276              	.LBE135:
 4277              	.LBE134:
 362:lvgl/lvgl/src/core/lv_obj_style.c ****         if(obj->styles[i].is_trans) continue;
 4278              		.loc 1 362 36 is_stmt 1 discriminator 2 view .LVU1289
 362:lvgl/lvgl/src/core/lv_obj_style.c ****         if(obj->styles[i].is_trans) continue;
 4279              		.loc 1 362 37 is_stmt 0 discriminator 2 view .LVU1290
 4280 0146 0134     		adds	r4, r4, #1
 4281              	.LVL428:
 4282              	.L274:
 362:lvgl/lvgl/src/core/lv_obj_style.c ****         if(obj->styles[i].is_trans) continue;
 4283              		.loc 1 362 16 is_stmt 1 discriminator 1 view .LVU1291
 362:lvgl/lvgl/src/core/lv_obj_style.c ****         if(obj->styles[i].is_trans) continue;
 4284              		.loc 1 362 23 is_stmt 0 discriminator 1 view .LVU1292
 4285 0148 7B8C     		ldrh	r3, [r7, #34]
 4286 014a C3F3C503 		ubfx	r3, r3, #3, #6
 362:lvgl/lvgl/src/core/lv_obj_style.c ****         if(obj->styles[i].is_trans) continue;
 4287              		.loc 1 362 5 discriminator 1 view .LVU1293
 4288 014e A342     		cmp	r3, r4
ARM GAS  C:\Users\gx\AppData\Local\Temp\cc2sgWsf.s 			page 127


 4289 0150 31D9     		bls	.L280
 4290              	.LBB138:
 363:lvgl/lvgl/src/core/lv_obj_style.c **** 
 4291              		.loc 1 363 9 is_stmt 1 view .LVU1294
 363:lvgl/lvgl/src/core/lv_obj_style.c **** 
 4292              		.loc 1 363 15 is_stmt 0 view .LVU1295
 4293 0152 D7F80C80 		ldr	r8, [r7, #12]
 363:lvgl/lvgl/src/core/lv_obj_style.c **** 
 4294              		.loc 1 363 23 view .LVU1296
 4295 0156 4FEAC409 		lsl	r9, r4, #3
 4296 015a 08EBC403 		add	r3, r8, r4, lsl #3
 363:lvgl/lvgl/src/core/lv_obj_style.c **** 
 4297              		.loc 1 363 12 view .LVU1297
 4298 015e DA79     		ldrb	r2, [r3, #7]	@ zero_extendqisi2
 363:lvgl/lvgl/src/core/lv_obj_style.c **** 
 4299              		.loc 1 363 11 view .LVU1298
 4300 0160 12F0020F 		tst	r2, #2
 4301 0164 EFD1     		bne	.L275
 365:lvgl/lvgl/src/core/lv_obj_style.c ****         lv_part_t part_act = lv_obj_style_get_selector_part(obj->styles[i].selector);
 4302              		.loc 1 365 9 is_stmt 1 view .LVU1299
 365:lvgl/lvgl/src/core/lv_obj_style.c ****         lv_part_t part_act = lv_obj_style_get_selector_part(obj->styles[i].selector);
 4303              		.loc 1 365 78 is_stmt 0 view .LVU1300
 4304 0166 5E68     		ldr	r6, [r3, #4]
 4305 0168 C6F31706 		ubfx	r6, r6, #0, #24
 365:lvgl/lvgl/src/core/lv_obj_style.c ****         lv_part_t part_act = lv_obj_style_get_selector_part(obj->styles[i].selector);
 4306              		.loc 1 365 32 view .LVU1301
 4307 016c 3046     		mov	r0, r6
 4308 016e FFF7FEFF 		bl	lv_obj_style_get_selector_state
 4309              	.LVL429:
 4310 0172 0546     		mov	r5, r0
 4311              	.LVL430:
 366:lvgl/lvgl/src/core/lv_obj_style.c ****         /*The style is valid for a stat but not the other*/
 4312              		.loc 1 366 9 is_stmt 1 view .LVU1302
 366:lvgl/lvgl/src/core/lv_obj_style.c ****         /*The style is valid for a stat but not the other*/
 4313              		.loc 1 366 30 is_stmt 0 view .LVU1303
 4314 0174 3046     		mov	r0, r6
 4315 0176 FFF7FEFF 		bl	lv_obj_style_get_selector_part
 4316              	.LVL431:
 4317 017a 0646     		mov	r6, r0
 4318              	.LVL432:
 368:lvgl/lvgl/src/core/lv_obj_style.c ****         bool valid2 = state_act & (~state2) ? false : true;
 4319              		.loc 1 368 9 is_stmt 1 view .LVU1304
 368:lvgl/lvgl/src/core/lv_obj_style.c ****         bool valid2 = state_act & (~state2) ? false : true;
 4320              		.loc 1 368 14 is_stmt 0 view .LVU1305
 4321 017c 35EA0B03 		bics	r3, r5, fp
 4322 0180 0CBF     		ite	eq
 4323 0182 0122     		moveq	r2, #1
 4324 0184 0022     		movne	r2, #0
 4325              	.LVL433:
 369:lvgl/lvgl/src/core/lv_obj_style.c ****         if(valid1 != valid2) {
 4326              		.loc 1 369 9 is_stmt 1 view .LVU1306
 369:lvgl/lvgl/src/core/lv_obj_style.c ****         if(valid1 != valid2) {
 4327              		.loc 1 369 14 is_stmt 0 view .LVU1307
 4328 0186 35EA0A03 		bics	r3, r5, r10
 4329 018a 0CBF     		ite	eq
 4330 018c 0123     		moveq	r3, #1
 4331 018e 0023     		movne	r3, #0
ARM GAS  C:\Users\gx\AppData\Local\Temp\cc2sgWsf.s 			page 128


 4332              	.LVL434:
 370:lvgl/lvgl/src/core/lv_obj_style.c ****             lv_style_t * style = obj->styles[i].style;
 4333              		.loc 1 370 9 is_stmt 1 view .LVU1308
 370:lvgl/lvgl/src/core/lv_obj_style.c ****             lv_style_t * style = obj->styles[i].style;
 4334              		.loc 1 370 11 is_stmt 0 view .LVU1309
 4335 0190 9A42     		cmp	r2, r3
 4336 0192 D8D0     		beq	.L275
 4337              	.LBB136:
 371:lvgl/lvgl/src/core/lv_obj_style.c ****             lv_style_value_t v;
 4338              		.loc 1 371 13 is_stmt 1 view .LVU1310
 371:lvgl/lvgl/src/core/lv_obj_style.c ****             lv_style_value_t v;
 4339              		.loc 1 371 26 is_stmt 0 view .LVU1311
 4340 0194 58F80950 		ldr	r5, [r8, r9]
 4341              	.LVL435:
 372:lvgl/lvgl/src/core/lv_obj_style.c ****             /*If there is layout difference on the main part, return immediately. There is no more 
 4342              		.loc 1 372 13 is_stmt 1 view .LVU1312
 374:lvgl/lvgl/src/core/lv_obj_style.c ****             if(lv_style_get_prop(style, LV_STYLE_PAD_TOP, &v))layout_diff = true;
 4343              		.loc 1 374 13 view .LVU1313
 375:lvgl/lvgl/src/core/lv_obj_style.c ****             else if(lv_style_get_prop(style, LV_STYLE_PAD_BOTTOM, &v)) layout_diff = true;
 4344              		.loc 1 375 13 view .LVU1314
 375:lvgl/lvgl/src/core/lv_obj_style.c ****             else if(lv_style_get_prop(style, LV_STYLE_PAD_BOTTOM, &v)) layout_diff = true;
 4345              		.loc 1 375 16 is_stmt 0 view .LVU1315
 4346 0198 03AA     		add	r2, sp, #12
 4347              	.LVL436:
 375:lvgl/lvgl/src/core/lv_obj_style.c ****             else if(lv_style_get_prop(style, LV_STYLE_PAD_BOTTOM, &v)) layout_diff = true;
 4348              		.loc 1 375 16 view .LVU1316
 4349 019a 41F21001 		movw	r1, #4112
 4350 019e 2846     		mov	r0, r5
 4351              	.LVL437:
 375:lvgl/lvgl/src/core/lv_obj_style.c ****             else if(lv_style_get_prop(style, LV_STYLE_PAD_BOTTOM, &v)) layout_diff = true;
 4352              		.loc 1 375 16 view .LVU1317
 4353 01a0 FFF7FEFF 		bl	lv_style_get_prop
 4354              	.LVL438:
 375:lvgl/lvgl/src/core/lv_obj_style.c ****             else if(lv_style_get_prop(style, LV_STYLE_PAD_BOTTOM, &v)) layout_diff = true;
 4355              		.loc 1 375 15 view .LVU1318
 4356 01a4 0028     		cmp	r0, #0
 4357 01a6 3FF434AF 		beq	.L299
 4358              	.L276:
 4359              	.LVL439:
 395:lvgl/lvgl/src/core/lv_obj_style.c ****                     return _LV_STYLE_STATE_CMP_DIFF_LAYOUT;
 4360              		.loc 1 395 17 is_stmt 1 view .LVU1319
 395:lvgl/lvgl/src/core/lv_obj_style.c ****                     return _LV_STYLE_STATE_CMP_DIFF_LAYOUT;
 4361              		.loc 1 395 19 is_stmt 0 view .LVU1320
 4362 01aa 16B1     		cbz	r6, .L300
 399:lvgl/lvgl/src/core/lv_obj_style.c ****                     continue;
 4363              		.loc 1 399 21 is_stmt 1 view .LVU1321
 4364              	.LVL440:
 400:lvgl/lvgl/src/core/lv_obj_style.c ****                 }
 4365              		.loc 1 400 21 view .LVU1322
 399:lvgl/lvgl/src/core/lv_obj_style.c ****                     continue;
 4366              		.loc 1 399 25 is_stmt 0 view .LVU1323
 4367 01ac 0223     		movs	r3, #2
 4368 01ae 0193     		str	r3, [sp, #4]
 4369 01b0 C9E7     		b	.L275
 4370              	.LVL441:
 4371              	.L300:
 396:lvgl/lvgl/src/core/lv_obj_style.c ****                 }
ARM GAS  C:\Users\gx\AppData\Local\Temp\cc2sgWsf.s 			page 129


 4372              		.loc 1 396 21 is_stmt 1 view .LVU1324
 396:lvgl/lvgl/src/core/lv_obj_style.c ****                 }
 4373              		.loc 1 396 28 is_stmt 0 view .LVU1325
 4374 01b2 0323     		movs	r3, #3
 4375 01b4 0193     		str	r3, [sp, #4]
 4376              	.LVL442:
 4377              	.L280:
 396:lvgl/lvgl/src/core/lv_obj_style.c ****                 }
 4378              		.loc 1 396 28 view .LVU1326
 4379              	.LBE136:
 4380              	.LBE138:
 423:lvgl/lvgl/src/core/lv_obj_style.c **** 
 4381              		.loc 1 423 1 view .LVU1327
 4382 01b6 0198     		ldr	r0, [sp, #4]
 4383 01b8 05B0     		add	sp, sp, #20
 4384              	.LCFI47:
 4385              		.cfi_remember_state
 4386              		.cfi_def_cfa_offset 36
 4387              		@ sp needed
 4388 01ba BDE8F08F 		pop	{r4, r5, r6, r7, r8, r9, r10, fp, pc}
 4389              	.LVL443:
 4390              	.L298:
 4391              	.LCFI48:
 4392              		.cfi_restore_state
 4393              	.LBB139:
 4394              	.LBB137:
 406:lvgl/lvgl/src/core/lv_obj_style.c ****             else if(lv_style_get_prop(style, LV_STYLE_TRANSFORM_ANGLE, &v)) res = _LV_STYLE_STATE_C
 4395              		.loc 1 406 18 is_stmt 1 view .LVU1328
 406:lvgl/lvgl/src/core/lv_obj_style.c ****             else if(lv_style_get_prop(style, LV_STYLE_TRANSFORM_ANGLE, &v)) res = _LV_STYLE_STATE_C
 4396              		.loc 1 406 21 is_stmt 0 view .LVU1329
 4397 01be 03AA     		add	r2, sp, #12
 4398 01c0 40F60B01 		movw	r1, #2059
 4399 01c4 2846     		mov	r0, r5
 4400 01c6 FFF7FEFF 		bl	lv_style_get_prop
 4401              	.LVL444:
 406:lvgl/lvgl/src/core/lv_obj_style.c ****             else if(lv_style_get_prop(style, LV_STYLE_TRANSFORM_ANGLE, &v)) res = _LV_STYLE_STATE_C
 4402              		.loc 1 406 20 view .LVU1330
 4403 01ca 0028     		cmp	r0, #0
 4404 01cc 5BD1     		bne	.L283
 407:lvgl/lvgl/src/core/lv_obj_style.c ****             else if(lv_style_get_prop(style, LV_STYLE_TRANSFORM_ZOOM, &v)) res = _LV_STYLE_STATE_CM
 4405              		.loc 1 407 18 is_stmt 1 view .LVU1331
 407:lvgl/lvgl/src/core/lv_obj_style.c ****             else if(lv_style_get_prop(style, LV_STYLE_TRANSFORM_ZOOM, &v)) res = _LV_STYLE_STATE_CM
 4406              		.loc 1 407 21 is_stmt 0 view .LVU1332
 4407 01ce 03AA     		add	r2, sp, #12
 4408 01d0 43F60F01 		movw	r1, #14351
 4409 01d4 2846     		mov	r0, r5
 4410 01d6 FFF7FEFF 		bl	lv_style_get_prop
 4411              	.LVL445:
 407:lvgl/lvgl/src/core/lv_obj_style.c ****             else if(lv_style_get_prop(style, LV_STYLE_TRANSFORM_ZOOM, &v)) res = _LV_STYLE_STATE_CM
 4412              		.loc 1 407 20 view .LVU1333
 4413 01da 0028     		cmp	r0, #0
 4414 01dc 56D1     		bne	.L284
 408:lvgl/lvgl/src/core/lv_obj_style.c ****             else if(lv_style_get_prop(style, LV_STYLE_OUTLINE_OPA, &v)) res = _LV_STYLE_STATE_CMP_D
 4415              		.loc 1 408 18 is_stmt 1 view .LVU1334
 408:lvgl/lvgl/src/core/lv_obj_style.c ****             else if(lv_style_get_prop(style, LV_STYLE_OUTLINE_OPA, &v)) res = _LV_STYLE_STATE_CMP_D
 4416              		.loc 1 408 21 is_stmt 0 view .LVU1335
 4417 01de 03AA     		add	r2, sp, #12
ARM GAS  C:\Users\gx\AppData\Local\Temp\cc2sgWsf.s 			page 130


 4418 01e0 43F60E01 		movw	r1, #14350
 4419 01e4 2846     		mov	r0, r5
 4420 01e6 FFF7FEFF 		bl	lv_style_get_prop
 4421              	.LVL446:
 408:lvgl/lvgl/src/core/lv_obj_style.c ****             else if(lv_style_get_prop(style, LV_STYLE_OUTLINE_OPA, &v)) res = _LV_STYLE_STATE_CMP_D
 4422              		.loc 1 408 20 view .LVU1336
 4423 01ea 0028     		cmp	r0, #0
 4424 01ec 51D1     		bne	.L285
 409:lvgl/lvgl/src/core/lv_obj_style.c ****             else if(lv_style_get_prop(style, LV_STYLE_OUTLINE_PAD, &v)) res = _LV_STYLE_STATE_CMP_D
 4425              		.loc 1 409 18 is_stmt 1 view .LVU1337
 409:lvgl/lvgl/src/core/lv_obj_style.c ****             else if(lv_style_get_prop(style, LV_STYLE_OUTLINE_PAD, &v)) res = _LV_STYLE_STATE_CMP_D
 4426              		.loc 1 409 21 is_stmt 0 view .LVU1338
 4427 01ee 03AA     		add	r2, sp, #12
 4428 01f0 40F63C01 		movw	r1, #2108
 4429 01f4 2846     		mov	r0, r5
 4430 01f6 FFF7FEFF 		bl	lv_style_get_prop
 4431              	.LVL447:
 409:lvgl/lvgl/src/core/lv_obj_style.c ****             else if(lv_style_get_prop(style, LV_STYLE_OUTLINE_PAD, &v)) res = _LV_STYLE_STATE_CMP_D
 4432              		.loc 1 409 20 view .LVU1339
 4433 01fa 0028     		cmp	r0, #0
 4434 01fc 4CD1     		bne	.L286
 410:lvgl/lvgl/src/core/lv_obj_style.c ****             else if(lv_style_get_prop(style, LV_STYLE_OUTLINE_WIDTH, &v)) res = _LV_STYLE_STATE_CMP
 4435              		.loc 1 410 18 is_stmt 1 view .LVU1340
 410:lvgl/lvgl/src/core/lv_obj_style.c ****             else if(lv_style_get_prop(style, LV_STYLE_OUTLINE_WIDTH, &v)) res = _LV_STYLE_STATE_CMP
 4436              		.loc 1 410 21 is_stmt 0 view .LVU1341
 4437 01fe 03AA     		add	r2, sp, #12
 4438 0200 40F63D01 		movw	r1, #2109
 4439 0204 2846     		mov	r0, r5
 4440 0206 FFF7FEFF 		bl	lv_style_get_prop
 4441              	.LVL448:
 410:lvgl/lvgl/src/core/lv_obj_style.c ****             else if(lv_style_get_prop(style, LV_STYLE_OUTLINE_WIDTH, &v)) res = _LV_STYLE_STATE_CMP
 4442              		.loc 1 410 20 view .LVU1342
 4443 020a 0028     		cmp	r0, #0
 4444 020c 47D1     		bne	.L287
 411:lvgl/lvgl/src/core/lv_obj_style.c ****             else if(lv_style_get_prop(style, LV_STYLE_SHADOW_WIDTH, &v)) res = _LV_STYLE_STATE_CMP_
 4445              		.loc 1 411 18 is_stmt 1 view .LVU1343
 411:lvgl/lvgl/src/core/lv_obj_style.c ****             else if(lv_style_get_prop(style, LV_STYLE_SHADOW_WIDTH, &v)) res = _LV_STYLE_STATE_CMP_
 4446              		.loc 1 411 21 is_stmt 0 view .LVU1344
 4447 020e 03AA     		add	r2, sp, #12
 4448 0210 40F63A01 		movw	r1, #2106
 4449 0214 2846     		mov	r0, r5
 4450 0216 FFF7FEFF 		bl	lv_style_get_prop
 4451              	.LVL449:
 411:lvgl/lvgl/src/core/lv_obj_style.c ****             else if(lv_style_get_prop(style, LV_STYLE_SHADOW_WIDTH, &v)) res = _LV_STYLE_STATE_CMP_
 4452              		.loc 1 411 20 view .LVU1345
 4453 021a 0028     		cmp	r0, #0
 4454 021c 42D1     		bne	.L288
 412:lvgl/lvgl/src/core/lv_obj_style.c ****             else if(lv_style_get_prop(style, LV_STYLE_SHADOW_OPA, &v)) res = _LV_STYLE_STATE_CMP_DI
 4455              		.loc 1 412 18 is_stmt 1 view .LVU1346
 412:lvgl/lvgl/src/core/lv_obj_style.c ****             else if(lv_style_get_prop(style, LV_STYLE_SHADOW_OPA, &v)) res = _LV_STYLE_STATE_CMP_DI
 4456              		.loc 1 412 21 is_stmt 0 view .LVU1347
 4457 021e 03AA     		add	r2, sp, #12
 4458 0220 4FF40461 		mov	r1, #2112
 4459 0224 2846     		mov	r0, r5
 4460 0226 FFF7FEFF 		bl	lv_style_get_prop
 4461              	.LVL450:
 412:lvgl/lvgl/src/core/lv_obj_style.c ****             else if(lv_style_get_prop(style, LV_STYLE_SHADOW_OPA, &v)) res = _LV_STYLE_STATE_CMP_DI
ARM GAS  C:\Users\gx\AppData\Local\Temp\cc2sgWsf.s 			page 131


 4462              		.loc 1 412 20 view .LVU1348
 4463 022a 0028     		cmp	r0, #0
 4464 022c 3DD1     		bne	.L289
 413:lvgl/lvgl/src/core/lv_obj_style.c ****             else if(lv_style_get_prop(style, LV_STYLE_SHADOW_OFS_X, &v)) res = _LV_STYLE_STATE_CMP_
 4465              		.loc 1 413 18 is_stmt 1 view .LVU1349
 413:lvgl/lvgl/src/core/lv_obj_style.c ****             else if(lv_style_get_prop(style, LV_STYLE_SHADOW_OFS_X, &v)) res = _LV_STYLE_STATE_CMP_
 4466              		.loc 1 413 21 is_stmt 0 view .LVU1350
 4467 022e 03AA     		add	r2, sp, #12
 4468 0230 40F64501 		movw	r1, #2117
 4469 0234 2846     		mov	r0, r5
 4470 0236 FFF7FEFF 		bl	lv_style_get_prop
 4471              	.LVL451:
 413:lvgl/lvgl/src/core/lv_obj_style.c ****             else if(lv_style_get_prop(style, LV_STYLE_SHADOW_OFS_X, &v)) res = _LV_STYLE_STATE_CMP_
 4472              		.loc 1 413 20 view .LVU1351
 4473 023a 0028     		cmp	r0, #0
 4474 023c 38D1     		bne	.L290
 414:lvgl/lvgl/src/core/lv_obj_style.c ****             else if(lv_style_get_prop(style, LV_STYLE_SHADOW_OFS_Y, &v)) res = _LV_STYLE_STATE_CMP_
 4475              		.loc 1 414 18 is_stmt 1 view .LVU1352
 414:lvgl/lvgl/src/core/lv_obj_style.c ****             else if(lv_style_get_prop(style, LV_STYLE_SHADOW_OFS_Y, &v)) res = _LV_STYLE_STATE_CMP_
 4476              		.loc 1 414 21 is_stmt 0 view .LVU1353
 4477 023e 03AA     		add	r2, sp, #12
 4478 0240 40F64101 		movw	r1, #2113
 4479 0244 2846     		mov	r0, r5
 4480 0246 FFF7FEFF 		bl	lv_style_get_prop
 4481              	.LVL452:
 414:lvgl/lvgl/src/core/lv_obj_style.c ****             else if(lv_style_get_prop(style, LV_STYLE_SHADOW_OFS_Y, &v)) res = _LV_STYLE_STATE_CMP_
 4482              		.loc 1 414 20 view .LVU1354
 4483 024a 0028     		cmp	r0, #0
 4484 024c 33D1     		bne	.L291
 415:lvgl/lvgl/src/core/lv_obj_style.c ****             else if(lv_style_get_prop(style, LV_STYLE_SHADOW_SPREAD, &v)) res = _LV_STYLE_STATE_CMP
 4485              		.loc 1 415 18 is_stmt 1 view .LVU1355
 415:lvgl/lvgl/src/core/lv_obj_style.c ****             else if(lv_style_get_prop(style, LV_STYLE_SHADOW_SPREAD, &v)) res = _LV_STYLE_STATE_CMP
 4486              		.loc 1 415 21 is_stmt 0 view .LVU1356
 4487 024e 03AA     		add	r2, sp, #12
 4488 0250 40F64201 		movw	r1, #2114
 4489 0254 2846     		mov	r0, r5
 4490 0256 FFF7FEFF 		bl	lv_style_get_prop
 4491              	.LVL453:
 415:lvgl/lvgl/src/core/lv_obj_style.c ****             else if(lv_style_get_prop(style, LV_STYLE_SHADOW_SPREAD, &v)) res = _LV_STYLE_STATE_CMP
 4492              		.loc 1 415 20 view .LVU1357
 4493 025a 78BB     		cbnz	r0, .L292
 416:lvgl/lvgl/src/core/lv_obj_style.c ****             else if(lv_style_get_prop(style, LV_STYLE_LINE_WIDTH, &v)) res = _LV_STYLE_STATE_CMP_DI
 4494              		.loc 1 416 18 is_stmt 1 view .LVU1358
 416:lvgl/lvgl/src/core/lv_obj_style.c ****             else if(lv_style_get_prop(style, LV_STYLE_LINE_WIDTH, &v)) res = _LV_STYLE_STATE_CMP_DI
 4495              		.loc 1 416 21 is_stmt 0 view .LVU1359
 4496 025c 03AA     		add	r2, sp, #12
 4497 025e 40F64301 		movw	r1, #2115
 4498 0262 2846     		mov	r0, r5
 4499 0264 FFF7FEFF 		bl	lv_style_get_prop
 4500              	.LVL454:
 416:lvgl/lvgl/src/core/lv_obj_style.c ****             else if(lv_style_get_prop(style, LV_STYLE_LINE_WIDTH, &v)) res = _LV_STYLE_STATE_CMP_DI
 4501              		.loc 1 416 20 view .LVU1360
 4502 0268 58BB     		cbnz	r0, .L293
 417:lvgl/lvgl/src/core/lv_obj_style.c ****             else if(res == _LV_STYLE_STATE_CMP_SAME) res = _LV_STYLE_STATE_CMP_DIFF_REDRAW;
 4503              		.loc 1 417 18 is_stmt 1 view .LVU1361
 417:lvgl/lvgl/src/core/lv_obj_style.c ****             else if(res == _LV_STYLE_STATE_CMP_SAME) res = _LV_STYLE_STATE_CMP_DIFF_REDRAW;
 4504              		.loc 1 417 21 is_stmt 0 view .LVU1362
ARM GAS  C:\Users\gx\AppData\Local\Temp\cc2sgWsf.s 			page 132


 4505 026a 03AA     		add	r2, sp, #12
 4506 026c 40F64901 		movw	r1, #2121
 4507 0270 2846     		mov	r0, r5
 4508 0272 FFF7FEFF 		bl	lv_style_get_prop
 4509              	.LVL455:
 417:lvgl/lvgl/src/core/lv_obj_style.c ****             else if(res == _LV_STYLE_STATE_CMP_SAME) res = _LV_STYLE_STATE_CMP_DIFF_REDRAW;
 4510              		.loc 1 417 20 view .LVU1363
 4511 0276 38BB     		cbnz	r0, .L294
 418:lvgl/lvgl/src/core/lv_obj_style.c ****         }
 4512              		.loc 1 418 18 is_stmt 1 view .LVU1364
 418:lvgl/lvgl/src/core/lv_obj_style.c ****         }
 4513              		.loc 1 418 20 is_stmt 0 view .LVU1365
 4514 0278 019B     		ldr	r3, [sp, #4]
 4515 027a 002B     		cmp	r3, #0
 4516 027c 7FF463AF 		bne	.L275
 418:lvgl/lvgl/src/core/lv_obj_style.c ****         }
 4517              		.loc 1 418 58 view .LVU1366
 4518 0280 0123     		movs	r3, #1
 4519 0282 0193     		str	r3, [sp, #4]
 4520              	.LVL456:
 418:lvgl/lvgl/src/core/lv_obj_style.c ****         }
 4521              		.loc 1 418 58 view .LVU1367
 4522 0284 5FE7     		b	.L275
 4523              	.LVL457:
 4524              	.L283:
 406:lvgl/lvgl/src/core/lv_obj_style.c ****             else if(lv_style_get_prop(style, LV_STYLE_TRANSFORM_ANGLE, &v)) res = _LV_STYLE_STATE_C
 4525              		.loc 1 406 82 view .LVU1368
 4526 0286 0223     		movs	r3, #2
 4527 0288 0193     		str	r3, [sp, #4]
 4528              	.LVL458:
 406:lvgl/lvgl/src/core/lv_obj_style.c ****             else if(lv_style_get_prop(style, LV_STYLE_TRANSFORM_ANGLE, &v)) res = _LV_STYLE_STATE_C
 4529              		.loc 1 406 82 view .LVU1369
 4530 028a 5CE7     		b	.L275
 4531              	.LVL459:
 4532              	.L284:
 407:lvgl/lvgl/src/core/lv_obj_style.c ****             else if(lv_style_get_prop(style, LV_STYLE_TRANSFORM_ZOOM, &v)) res = _LV_STYLE_STATE_CM
 4533              		.loc 1 407 81 view .LVU1370
 4534 028c 0223     		movs	r3, #2
 4535 028e 0193     		str	r3, [sp, #4]
 4536              	.LVL460:
 407:lvgl/lvgl/src/core/lv_obj_style.c ****             else if(lv_style_get_prop(style, LV_STYLE_TRANSFORM_ZOOM, &v)) res = _LV_STYLE_STATE_CM
 4537              		.loc 1 407 81 view .LVU1371
 4538 0290 59E7     		b	.L275
 4539              	.LVL461:
 4540              	.L285:
 408:lvgl/lvgl/src/core/lv_obj_style.c ****             else if(lv_style_get_prop(style, LV_STYLE_OUTLINE_OPA, &v)) res = _LV_STYLE_STATE_CMP_D
 4541              		.loc 1 408 80 view .LVU1372
 4542 0292 0223     		movs	r3, #2
 4543 0294 0193     		str	r3, [sp, #4]
 4544              	.LVL462:
 408:lvgl/lvgl/src/core/lv_obj_style.c ****             else if(lv_style_get_prop(style, LV_STYLE_OUTLINE_OPA, &v)) res = _LV_STYLE_STATE_CMP_D
 4545              		.loc 1 408 80 view .LVU1373
 4546 0296 56E7     		b	.L275
 4547              	.LVL463:
 4548              	.L286:
 409:lvgl/lvgl/src/core/lv_obj_style.c ****             else if(lv_style_get_prop(style, LV_STYLE_OUTLINE_PAD, &v)) res = _LV_STYLE_STATE_CMP_D
 4549              		.loc 1 409 77 view .LVU1374
ARM GAS  C:\Users\gx\AppData\Local\Temp\cc2sgWsf.s 			page 133


 4550 0298 0223     		movs	r3, #2
 4551 029a 0193     		str	r3, [sp, #4]
 4552              	.LVL464:
 409:lvgl/lvgl/src/core/lv_obj_style.c ****             else if(lv_style_get_prop(style, LV_STYLE_OUTLINE_PAD, &v)) res = _LV_STYLE_STATE_CMP_D
 4553              		.loc 1 409 77 view .LVU1375
 4554 029c 53E7     		b	.L275
 4555              	.LVL465:
 4556              	.L287:
 410:lvgl/lvgl/src/core/lv_obj_style.c ****             else if(lv_style_get_prop(style, LV_STYLE_OUTLINE_WIDTH, &v)) res = _LV_STYLE_STATE_CMP
 4557              		.loc 1 410 77 view .LVU1376
 4558 029e 0223     		movs	r3, #2
 4559 02a0 0193     		str	r3, [sp, #4]
 4560              	.LVL466:
 410:lvgl/lvgl/src/core/lv_obj_style.c ****             else if(lv_style_get_prop(style, LV_STYLE_OUTLINE_WIDTH, &v)) res = _LV_STYLE_STATE_CMP
 4561              		.loc 1 410 77 view .LVU1377
 4562 02a2 50E7     		b	.L275
 4563              	.LVL467:
 4564              	.L288:
 411:lvgl/lvgl/src/core/lv_obj_style.c ****             else if(lv_style_get_prop(style, LV_STYLE_SHADOW_WIDTH, &v)) res = _LV_STYLE_STATE_CMP_
 4565              		.loc 1 411 79 view .LVU1378
 4566 02a4 0223     		movs	r3, #2
 4567 02a6 0193     		str	r3, [sp, #4]
 4568              	.LVL468:
 411:lvgl/lvgl/src/core/lv_obj_style.c ****             else if(lv_style_get_prop(style, LV_STYLE_SHADOW_WIDTH, &v)) res = _LV_STYLE_STATE_CMP_
 4569              		.loc 1 411 79 view .LVU1379
 4570 02a8 4DE7     		b	.L275
 4571              	.LVL469:
 4572              	.L289:
 412:lvgl/lvgl/src/core/lv_obj_style.c ****             else if(lv_style_get_prop(style, LV_STYLE_SHADOW_OPA, &v)) res = _LV_STYLE_STATE_CMP_DI
 4573              		.loc 1 412 78 view .LVU1380
 4574 02aa 0223     		movs	r3, #2
 4575 02ac 0193     		str	r3, [sp, #4]
 4576              	.LVL470:
 412:lvgl/lvgl/src/core/lv_obj_style.c ****             else if(lv_style_get_prop(style, LV_STYLE_SHADOW_OPA, &v)) res = _LV_STYLE_STATE_CMP_DI
 4577              		.loc 1 412 78 view .LVU1381
 4578 02ae 4AE7     		b	.L275
 4579              	.LVL471:
 4580              	.L290:
 413:lvgl/lvgl/src/core/lv_obj_style.c ****             else if(lv_style_get_prop(style, LV_STYLE_SHADOW_OFS_X, &v)) res = _LV_STYLE_STATE_CMP_
 4581              		.loc 1 413 76 view .LVU1382
 4582 02b0 0223     		movs	r3, #2
 4583 02b2 0193     		str	r3, [sp, #4]
 4584              	.LVL472:
 413:lvgl/lvgl/src/core/lv_obj_style.c ****             else if(lv_style_get_prop(style, LV_STYLE_SHADOW_OFS_X, &v)) res = _LV_STYLE_STATE_CMP_
 4585              		.loc 1 413 76 view .LVU1383
 4586 02b4 47E7     		b	.L275
 4587              	.LVL473:
 4588              	.L291:
 414:lvgl/lvgl/src/core/lv_obj_style.c ****             else if(lv_style_get_prop(style, LV_STYLE_SHADOW_OFS_Y, &v)) res = _LV_STYLE_STATE_CMP_
 4589              		.loc 1 414 78 view .LVU1384
 4590 02b6 0223     		movs	r3, #2
 4591 02b8 0193     		str	r3, [sp, #4]
 4592              	.LVL474:
 414:lvgl/lvgl/src/core/lv_obj_style.c ****             else if(lv_style_get_prop(style, LV_STYLE_SHADOW_OFS_Y, &v)) res = _LV_STYLE_STATE_CMP_
 4593              		.loc 1 414 78 view .LVU1385
 4594 02ba 44E7     		b	.L275
 4595              	.LVL475:
ARM GAS  C:\Users\gx\AppData\Local\Temp\cc2sgWsf.s 			page 134


 4596              	.L292:
 415:lvgl/lvgl/src/core/lv_obj_style.c ****             else if(lv_style_get_prop(style, LV_STYLE_SHADOW_SPREAD, &v)) res = _LV_STYLE_STATE_CMP
 4597              		.loc 1 415 78 view .LVU1386
 4598 02bc 0223     		movs	r3, #2
 4599 02be 0193     		str	r3, [sp, #4]
 4600              	.LVL476:
 415:lvgl/lvgl/src/core/lv_obj_style.c ****             else if(lv_style_get_prop(style, LV_STYLE_SHADOW_SPREAD, &v)) res = _LV_STYLE_STATE_CMP
 4601              		.loc 1 415 78 view .LVU1387
 4602 02c0 41E7     		b	.L275
 4603              	.LVL477:
 4604              	.L293:
 416:lvgl/lvgl/src/core/lv_obj_style.c ****             else if(lv_style_get_prop(style, LV_STYLE_LINE_WIDTH, &v)) res = _LV_STYLE_STATE_CMP_DI
 4605              		.loc 1 416 79 view .LVU1388
 4606 02c2 0223     		movs	r3, #2
 4607 02c4 0193     		str	r3, [sp, #4]
 4608              	.LVL478:
 416:lvgl/lvgl/src/core/lv_obj_style.c ****             else if(lv_style_get_prop(style, LV_STYLE_LINE_WIDTH, &v)) res = _LV_STYLE_STATE_CMP_DI
 4609              		.loc 1 416 79 view .LVU1389
 4610 02c6 3EE7     		b	.L275
 4611              	.LVL479:
 4612              	.L294:
 417:lvgl/lvgl/src/core/lv_obj_style.c ****             else if(res == _LV_STYLE_STATE_CMP_SAME) res = _LV_STYLE_STATE_CMP_DIFF_REDRAW;
 4613              		.loc 1 417 76 view .LVU1390
 4614 02c8 0223     		movs	r3, #2
 4615 02ca 0193     		str	r3, [sp, #4]
 4616              	.LVL480:
 417:lvgl/lvgl/src/core/lv_obj_style.c ****             else if(res == _LV_STYLE_STATE_CMP_SAME) res = _LV_STYLE_STATE_CMP_DIFF_REDRAW;
 4617              		.loc 1 417 76 view .LVU1391
 4618 02cc 3BE7     		b	.L275
 4619              	.LBE137:
 4620              	.LBE139:
 4621              		.cfi_endproc
 4622              	.LFE169:
 4624              		.section	.text.lv_obj_calculate_style_text_align,"ax",%progbits
 4625              		.align	1
 4626              		.global	lv_obj_calculate_style_text_align
 4627              		.syntax unified
 4628              		.thumb
 4629              		.thumb_func
 4630              		.fpu fpv4-sp-d16
 4632              	lv_obj_calculate_style_text_align:
 4633              	.LVL481:
 4634              	.LFB174:
 462:lvgl/lvgl/src/core/lv_obj_style.c ****     lv_text_align_t align = lv_obj_get_style_text_align(obj, part);
 4635              		.loc 1 462 1 is_stmt 1 view -0
 4636              		.cfi_startproc
 4637              		@ args = 0, pretend = 0, frame = 0
 4638              		@ frame_needed = 0, uses_anonymous_args = 0
 462:lvgl/lvgl/src/core/lv_obj_style.c ****     lv_text_align_t align = lv_obj_get_style_text_align(obj, part);
 4639              		.loc 1 462 1 is_stmt 0 view .LVU1393
 4640 0000 70B5     		push	{r4, r5, r6, lr}
 4641              	.LCFI49:
 4642              		.cfi_def_cfa_offset 16
 4643              		.cfi_offset 4, -16
 4644              		.cfi_offset 5, -12
 4645              		.cfi_offset 6, -8
 4646              		.cfi_offset 14, -4
ARM GAS  C:\Users\gx\AppData\Local\Temp\cc2sgWsf.s 			page 135


 4647 0002 0546     		mov	r5, r0
 4648 0004 0E46     		mov	r6, r1
 463:lvgl/lvgl/src/core/lv_obj_style.c ****     lv_base_dir_t base_dir = lv_obj_get_style_base_dir(obj, part);
 4649              		.loc 1 463 5 is_stmt 1 view .LVU1394
 4650              	.LVL482:
 4651              	.LBB140:
 4652              	.LBI140:
 155:lvgl/lvgl/src/core/lv_obj_style_gen.h **** }
 156:lvgl/lvgl/src/core/lv_obj_style_gen.h **** 
 157:lvgl/lvgl/src/core/lv_obj_style_gen.h **** static inline uint32_t lv_obj_get_style_anim_time(const struct _lv_obj_t * obj, uint32_t part)
 158:lvgl/lvgl/src/core/lv_obj_style_gen.h **** {
 159:lvgl/lvgl/src/core/lv_obj_style_gen.h ****     lv_style_value_t v = lv_obj_get_style_prop(obj, part, LV_STYLE_ANIM_TIME);
 160:lvgl/lvgl/src/core/lv_obj_style_gen.h ****     return (uint32_t)v.num;
 161:lvgl/lvgl/src/core/lv_obj_style_gen.h **** }
 162:lvgl/lvgl/src/core/lv_obj_style_gen.h **** 
 163:lvgl/lvgl/src/core/lv_obj_style_gen.h **** static inline uint32_t lv_obj_get_style_anim_speed(const struct _lv_obj_t * obj, uint32_t part)
 164:lvgl/lvgl/src/core/lv_obj_style_gen.h **** {
 165:lvgl/lvgl/src/core/lv_obj_style_gen.h ****     lv_style_value_t v = lv_obj_get_style_prop(obj, part, LV_STYLE_ANIM_SPEED);
 166:lvgl/lvgl/src/core/lv_obj_style_gen.h ****     return (uint32_t)v.num;
 167:lvgl/lvgl/src/core/lv_obj_style_gen.h **** }
 168:lvgl/lvgl/src/core/lv_obj_style_gen.h **** 
 169:lvgl/lvgl/src/core/lv_obj_style_gen.h **** static inline const lv_style_transition_dsc_t * lv_obj_get_style_transition(const struct _lv_obj_t 
 170:lvgl/lvgl/src/core/lv_obj_style_gen.h **** {
 171:lvgl/lvgl/src/core/lv_obj_style_gen.h ****     lv_style_value_t v = lv_obj_get_style_prop(obj, part, LV_STYLE_TRANSITION);
 172:lvgl/lvgl/src/core/lv_obj_style_gen.h ****     return (const lv_style_transition_dsc_t *)v.ptr;
 173:lvgl/lvgl/src/core/lv_obj_style_gen.h **** }
 174:lvgl/lvgl/src/core/lv_obj_style_gen.h **** 
 175:lvgl/lvgl/src/core/lv_obj_style_gen.h **** static inline lv_blend_mode_t lv_obj_get_style_blend_mode(const struct _lv_obj_t * obj, uint32_t pa
 176:lvgl/lvgl/src/core/lv_obj_style_gen.h **** {
 177:lvgl/lvgl/src/core/lv_obj_style_gen.h ****     lv_style_value_t v = lv_obj_get_style_prop(obj, part, LV_STYLE_BLEND_MODE);
 178:lvgl/lvgl/src/core/lv_obj_style_gen.h ****     return (lv_blend_mode_t)v.num;
 179:lvgl/lvgl/src/core/lv_obj_style_gen.h **** }
 180:lvgl/lvgl/src/core/lv_obj_style_gen.h **** 
 181:lvgl/lvgl/src/core/lv_obj_style_gen.h **** static inline uint16_t lv_obj_get_style_layout(const struct _lv_obj_t * obj, uint32_t part)
 182:lvgl/lvgl/src/core/lv_obj_style_gen.h **** {
 183:lvgl/lvgl/src/core/lv_obj_style_gen.h ****     lv_style_value_t v = lv_obj_get_style_prop(obj, part, LV_STYLE_LAYOUT);
 184:lvgl/lvgl/src/core/lv_obj_style_gen.h ****     return (uint16_t)v.num;
 185:lvgl/lvgl/src/core/lv_obj_style_gen.h **** }
 186:lvgl/lvgl/src/core/lv_obj_style_gen.h **** 
 187:lvgl/lvgl/src/core/lv_obj_style_gen.h **** static inline lv_base_dir_t lv_obj_get_style_base_dir(const struct _lv_obj_t * obj, uint32_t part)
 188:lvgl/lvgl/src/core/lv_obj_style_gen.h **** {
 189:lvgl/lvgl/src/core/lv_obj_style_gen.h ****     lv_style_value_t v = lv_obj_get_style_prop(obj, part, LV_STYLE_BASE_DIR);
 190:lvgl/lvgl/src/core/lv_obj_style_gen.h ****     return (lv_base_dir_t)v.num;
 191:lvgl/lvgl/src/core/lv_obj_style_gen.h **** }
 192:lvgl/lvgl/src/core/lv_obj_style_gen.h **** 
 193:lvgl/lvgl/src/core/lv_obj_style_gen.h **** static inline lv_color_t lv_obj_get_style_bg_color(const struct _lv_obj_t * obj, uint32_t part)
 194:lvgl/lvgl/src/core/lv_obj_style_gen.h **** {
 195:lvgl/lvgl/src/core/lv_obj_style_gen.h ****     lv_style_value_t v = lv_obj_get_style_prop(obj, part, LV_STYLE_BG_COLOR);
 196:lvgl/lvgl/src/core/lv_obj_style_gen.h ****     return v.color;
 197:lvgl/lvgl/src/core/lv_obj_style_gen.h **** }
 198:lvgl/lvgl/src/core/lv_obj_style_gen.h **** 
 199:lvgl/lvgl/src/core/lv_obj_style_gen.h **** static inline lv_color_t lv_obj_get_style_bg_color_filtered(const struct _lv_obj_t * obj, uint32_t 
 200:lvgl/lvgl/src/core/lv_obj_style_gen.h **** {
 201:lvgl/lvgl/src/core/lv_obj_style_gen.h ****     lv_style_value_t v = lv_obj_get_style_prop(obj, part, LV_STYLE_BG_COLOR_FILTERED);
 202:lvgl/lvgl/src/core/lv_obj_style_gen.h ****     return v.color;
 203:lvgl/lvgl/src/core/lv_obj_style_gen.h **** }
 204:lvgl/lvgl/src/core/lv_obj_style_gen.h **** 
ARM GAS  C:\Users\gx\AppData\Local\Temp\cc2sgWsf.s 			page 136


 205:lvgl/lvgl/src/core/lv_obj_style_gen.h **** static inline lv_opa_t lv_obj_get_style_bg_opa(const struct _lv_obj_t * obj, uint32_t part)
 206:lvgl/lvgl/src/core/lv_obj_style_gen.h **** {
 207:lvgl/lvgl/src/core/lv_obj_style_gen.h ****     lv_style_value_t v = lv_obj_get_style_prop(obj, part, LV_STYLE_BG_OPA);
 208:lvgl/lvgl/src/core/lv_obj_style_gen.h ****     return (lv_opa_t)v.num;
 209:lvgl/lvgl/src/core/lv_obj_style_gen.h **** }
 210:lvgl/lvgl/src/core/lv_obj_style_gen.h **** 
 211:lvgl/lvgl/src/core/lv_obj_style_gen.h **** static inline lv_color_t lv_obj_get_style_bg_grad_color(const struct _lv_obj_t * obj, uint32_t part
 212:lvgl/lvgl/src/core/lv_obj_style_gen.h **** {
 213:lvgl/lvgl/src/core/lv_obj_style_gen.h ****     lv_style_value_t v = lv_obj_get_style_prop(obj, part, LV_STYLE_BG_GRAD_COLOR);
 214:lvgl/lvgl/src/core/lv_obj_style_gen.h ****     return v.color;
 215:lvgl/lvgl/src/core/lv_obj_style_gen.h **** }
 216:lvgl/lvgl/src/core/lv_obj_style_gen.h **** 
 217:lvgl/lvgl/src/core/lv_obj_style_gen.h **** static inline lv_color_t lv_obj_get_style_bg_grad_color_filtered(const struct _lv_obj_t * obj, uint
 218:lvgl/lvgl/src/core/lv_obj_style_gen.h **** {
 219:lvgl/lvgl/src/core/lv_obj_style_gen.h ****     lv_style_value_t v = lv_obj_get_style_prop(obj, part, LV_STYLE_BG_GRAD_COLOR_FILTERED);
 220:lvgl/lvgl/src/core/lv_obj_style_gen.h ****     return v.color;
 221:lvgl/lvgl/src/core/lv_obj_style_gen.h **** }
 222:lvgl/lvgl/src/core/lv_obj_style_gen.h **** 
 223:lvgl/lvgl/src/core/lv_obj_style_gen.h **** static inline lv_grad_dir_t lv_obj_get_style_bg_grad_dir(const struct _lv_obj_t * obj, uint32_t par
 224:lvgl/lvgl/src/core/lv_obj_style_gen.h **** {
 225:lvgl/lvgl/src/core/lv_obj_style_gen.h ****     lv_style_value_t v = lv_obj_get_style_prop(obj, part, LV_STYLE_BG_GRAD_DIR);
 226:lvgl/lvgl/src/core/lv_obj_style_gen.h ****     return (lv_grad_dir_t)v.num;
 227:lvgl/lvgl/src/core/lv_obj_style_gen.h **** }
 228:lvgl/lvgl/src/core/lv_obj_style_gen.h **** 
 229:lvgl/lvgl/src/core/lv_obj_style_gen.h **** static inline lv_coord_t lv_obj_get_style_bg_main_stop(const struct _lv_obj_t * obj, uint32_t part)
 230:lvgl/lvgl/src/core/lv_obj_style_gen.h **** {
 231:lvgl/lvgl/src/core/lv_obj_style_gen.h ****     lv_style_value_t v = lv_obj_get_style_prop(obj, part, LV_STYLE_BG_MAIN_STOP);
 232:lvgl/lvgl/src/core/lv_obj_style_gen.h ****     return (lv_coord_t)v.num;
 233:lvgl/lvgl/src/core/lv_obj_style_gen.h **** }
 234:lvgl/lvgl/src/core/lv_obj_style_gen.h **** 
 235:lvgl/lvgl/src/core/lv_obj_style_gen.h **** static inline lv_coord_t lv_obj_get_style_bg_grad_stop(const struct _lv_obj_t * obj, uint32_t part)
 236:lvgl/lvgl/src/core/lv_obj_style_gen.h **** {
 237:lvgl/lvgl/src/core/lv_obj_style_gen.h ****     lv_style_value_t v = lv_obj_get_style_prop(obj, part, LV_STYLE_BG_GRAD_STOP);
 238:lvgl/lvgl/src/core/lv_obj_style_gen.h ****     return (lv_coord_t)v.num;
 239:lvgl/lvgl/src/core/lv_obj_style_gen.h **** }
 240:lvgl/lvgl/src/core/lv_obj_style_gen.h **** 
 241:lvgl/lvgl/src/core/lv_obj_style_gen.h **** static inline const void * lv_obj_get_style_bg_img_src(const struct _lv_obj_t * obj, uint32_t part)
 242:lvgl/lvgl/src/core/lv_obj_style_gen.h **** {
 243:lvgl/lvgl/src/core/lv_obj_style_gen.h ****     lv_style_value_t v = lv_obj_get_style_prop(obj, part, LV_STYLE_BG_IMG_SRC);
 244:lvgl/lvgl/src/core/lv_obj_style_gen.h ****     return (const void *)v.ptr;
 245:lvgl/lvgl/src/core/lv_obj_style_gen.h **** }
 246:lvgl/lvgl/src/core/lv_obj_style_gen.h **** 
 247:lvgl/lvgl/src/core/lv_obj_style_gen.h **** static inline lv_opa_t lv_obj_get_style_bg_img_opa(const struct _lv_obj_t * obj, uint32_t part)
 248:lvgl/lvgl/src/core/lv_obj_style_gen.h **** {
 249:lvgl/lvgl/src/core/lv_obj_style_gen.h ****     lv_style_value_t v = lv_obj_get_style_prop(obj, part, LV_STYLE_BG_IMG_OPA);
 250:lvgl/lvgl/src/core/lv_obj_style_gen.h ****     return (lv_opa_t)v.num;
 251:lvgl/lvgl/src/core/lv_obj_style_gen.h **** }
 252:lvgl/lvgl/src/core/lv_obj_style_gen.h **** 
 253:lvgl/lvgl/src/core/lv_obj_style_gen.h **** static inline lv_color_t lv_obj_get_style_bg_img_recolor(const struct _lv_obj_t * obj, uint32_t par
 254:lvgl/lvgl/src/core/lv_obj_style_gen.h **** {
 255:lvgl/lvgl/src/core/lv_obj_style_gen.h ****     lv_style_value_t v = lv_obj_get_style_prop(obj, part, LV_STYLE_BG_IMG_RECOLOR);
 256:lvgl/lvgl/src/core/lv_obj_style_gen.h ****     return v.color;
 257:lvgl/lvgl/src/core/lv_obj_style_gen.h **** }
 258:lvgl/lvgl/src/core/lv_obj_style_gen.h **** 
 259:lvgl/lvgl/src/core/lv_obj_style_gen.h **** static inline lv_color_t lv_obj_get_style_bg_img_recolor_filtered(const struct _lv_obj_t * obj, uin
 260:lvgl/lvgl/src/core/lv_obj_style_gen.h **** {
 261:lvgl/lvgl/src/core/lv_obj_style_gen.h ****     lv_style_value_t v = lv_obj_get_style_prop(obj, part, LV_STYLE_BG_IMG_RECOLOR_FILTERED);
ARM GAS  C:\Users\gx\AppData\Local\Temp\cc2sgWsf.s 			page 137


 262:lvgl/lvgl/src/core/lv_obj_style_gen.h ****     return v.color;
 263:lvgl/lvgl/src/core/lv_obj_style_gen.h **** }
 264:lvgl/lvgl/src/core/lv_obj_style_gen.h **** 
 265:lvgl/lvgl/src/core/lv_obj_style_gen.h **** static inline lv_opa_t lv_obj_get_style_bg_img_recolor_opa(const struct _lv_obj_t * obj, uint32_t p
 266:lvgl/lvgl/src/core/lv_obj_style_gen.h **** {
 267:lvgl/lvgl/src/core/lv_obj_style_gen.h ****     lv_style_value_t v = lv_obj_get_style_prop(obj, part, LV_STYLE_BG_IMG_RECOLOR_OPA);
 268:lvgl/lvgl/src/core/lv_obj_style_gen.h ****     return (lv_opa_t)v.num;
 269:lvgl/lvgl/src/core/lv_obj_style_gen.h **** }
 270:lvgl/lvgl/src/core/lv_obj_style_gen.h **** 
 271:lvgl/lvgl/src/core/lv_obj_style_gen.h **** static inline bool lv_obj_get_style_bg_img_tiled(const struct _lv_obj_t * obj, uint32_t part)
 272:lvgl/lvgl/src/core/lv_obj_style_gen.h **** {
 273:lvgl/lvgl/src/core/lv_obj_style_gen.h ****     lv_style_value_t v = lv_obj_get_style_prop(obj, part, LV_STYLE_BG_IMG_TILED);
 274:lvgl/lvgl/src/core/lv_obj_style_gen.h ****     return (bool)v.num;
 275:lvgl/lvgl/src/core/lv_obj_style_gen.h **** }
 276:lvgl/lvgl/src/core/lv_obj_style_gen.h **** 
 277:lvgl/lvgl/src/core/lv_obj_style_gen.h **** static inline lv_color_t lv_obj_get_style_border_color(const struct _lv_obj_t * obj, uint32_t part)
 278:lvgl/lvgl/src/core/lv_obj_style_gen.h **** {
 279:lvgl/lvgl/src/core/lv_obj_style_gen.h ****     lv_style_value_t v = lv_obj_get_style_prop(obj, part, LV_STYLE_BORDER_COLOR);
 280:lvgl/lvgl/src/core/lv_obj_style_gen.h ****     return v.color;
 281:lvgl/lvgl/src/core/lv_obj_style_gen.h **** }
 282:lvgl/lvgl/src/core/lv_obj_style_gen.h **** 
 283:lvgl/lvgl/src/core/lv_obj_style_gen.h **** static inline lv_color_t lv_obj_get_style_border_color_filtered(const struct _lv_obj_t * obj, uint3
 284:lvgl/lvgl/src/core/lv_obj_style_gen.h **** {
 285:lvgl/lvgl/src/core/lv_obj_style_gen.h ****     lv_style_value_t v = lv_obj_get_style_prop(obj, part, LV_STYLE_BORDER_COLOR_FILTERED);
 286:lvgl/lvgl/src/core/lv_obj_style_gen.h ****     return v.color;
 287:lvgl/lvgl/src/core/lv_obj_style_gen.h **** }
 288:lvgl/lvgl/src/core/lv_obj_style_gen.h **** 
 289:lvgl/lvgl/src/core/lv_obj_style_gen.h **** static inline lv_opa_t lv_obj_get_style_border_opa(const struct _lv_obj_t * obj, uint32_t part)
 290:lvgl/lvgl/src/core/lv_obj_style_gen.h **** {
 291:lvgl/lvgl/src/core/lv_obj_style_gen.h ****     lv_style_value_t v = lv_obj_get_style_prop(obj, part, LV_STYLE_BORDER_OPA);
 292:lvgl/lvgl/src/core/lv_obj_style_gen.h ****     return (lv_opa_t)v.num;
 293:lvgl/lvgl/src/core/lv_obj_style_gen.h **** }
 294:lvgl/lvgl/src/core/lv_obj_style_gen.h **** 
 295:lvgl/lvgl/src/core/lv_obj_style_gen.h **** static inline lv_coord_t lv_obj_get_style_border_width(const struct _lv_obj_t * obj, uint32_t part)
 296:lvgl/lvgl/src/core/lv_obj_style_gen.h **** {
 297:lvgl/lvgl/src/core/lv_obj_style_gen.h ****     lv_style_value_t v = lv_obj_get_style_prop(obj, part, LV_STYLE_BORDER_WIDTH);
 298:lvgl/lvgl/src/core/lv_obj_style_gen.h ****     return (lv_coord_t)v.num;
 299:lvgl/lvgl/src/core/lv_obj_style_gen.h **** }
 300:lvgl/lvgl/src/core/lv_obj_style_gen.h **** 
 301:lvgl/lvgl/src/core/lv_obj_style_gen.h **** static inline lv_border_side_t lv_obj_get_style_border_side(const struct _lv_obj_t * obj, uint32_t 
 302:lvgl/lvgl/src/core/lv_obj_style_gen.h **** {
 303:lvgl/lvgl/src/core/lv_obj_style_gen.h ****     lv_style_value_t v = lv_obj_get_style_prop(obj, part, LV_STYLE_BORDER_SIDE);
 304:lvgl/lvgl/src/core/lv_obj_style_gen.h ****     return (lv_border_side_t)v.num;
 305:lvgl/lvgl/src/core/lv_obj_style_gen.h **** }
 306:lvgl/lvgl/src/core/lv_obj_style_gen.h **** 
 307:lvgl/lvgl/src/core/lv_obj_style_gen.h **** static inline bool lv_obj_get_style_border_post(const struct _lv_obj_t * obj, uint32_t part)
 308:lvgl/lvgl/src/core/lv_obj_style_gen.h **** {
 309:lvgl/lvgl/src/core/lv_obj_style_gen.h ****     lv_style_value_t v = lv_obj_get_style_prop(obj, part, LV_STYLE_BORDER_POST);
 310:lvgl/lvgl/src/core/lv_obj_style_gen.h ****     return (bool)v.num;
 311:lvgl/lvgl/src/core/lv_obj_style_gen.h **** }
 312:lvgl/lvgl/src/core/lv_obj_style_gen.h **** 
 313:lvgl/lvgl/src/core/lv_obj_style_gen.h **** static inline lv_color_t lv_obj_get_style_text_color(const struct _lv_obj_t * obj, uint32_t part)
 314:lvgl/lvgl/src/core/lv_obj_style_gen.h **** {
 315:lvgl/lvgl/src/core/lv_obj_style_gen.h ****     lv_style_value_t v = lv_obj_get_style_prop(obj, part, LV_STYLE_TEXT_COLOR);
 316:lvgl/lvgl/src/core/lv_obj_style_gen.h ****     return v.color;
 317:lvgl/lvgl/src/core/lv_obj_style_gen.h **** }
 318:lvgl/lvgl/src/core/lv_obj_style_gen.h **** 
ARM GAS  C:\Users\gx\AppData\Local\Temp\cc2sgWsf.s 			page 138


 319:lvgl/lvgl/src/core/lv_obj_style_gen.h **** static inline lv_color_t lv_obj_get_style_text_color_filtered(const struct _lv_obj_t * obj, uint32_
 320:lvgl/lvgl/src/core/lv_obj_style_gen.h **** {
 321:lvgl/lvgl/src/core/lv_obj_style_gen.h ****     lv_style_value_t v = lv_obj_get_style_prop(obj, part, LV_STYLE_TEXT_COLOR_FILTERED);
 322:lvgl/lvgl/src/core/lv_obj_style_gen.h ****     return v.color;
 323:lvgl/lvgl/src/core/lv_obj_style_gen.h **** }
 324:lvgl/lvgl/src/core/lv_obj_style_gen.h **** 
 325:lvgl/lvgl/src/core/lv_obj_style_gen.h **** static inline lv_opa_t lv_obj_get_style_text_opa(const struct _lv_obj_t * obj, uint32_t part)
 326:lvgl/lvgl/src/core/lv_obj_style_gen.h **** {
 327:lvgl/lvgl/src/core/lv_obj_style_gen.h ****     lv_style_value_t v = lv_obj_get_style_prop(obj, part, LV_STYLE_TEXT_OPA);
 328:lvgl/lvgl/src/core/lv_obj_style_gen.h ****     return (lv_opa_t)v.num;
 329:lvgl/lvgl/src/core/lv_obj_style_gen.h **** }
 330:lvgl/lvgl/src/core/lv_obj_style_gen.h **** 
 331:lvgl/lvgl/src/core/lv_obj_style_gen.h **** static inline const lv_font_t * lv_obj_get_style_text_font(const struct _lv_obj_t * obj, uint32_t p
 332:lvgl/lvgl/src/core/lv_obj_style_gen.h **** {
 333:lvgl/lvgl/src/core/lv_obj_style_gen.h ****     lv_style_value_t v = lv_obj_get_style_prop(obj, part, LV_STYLE_TEXT_FONT);
 334:lvgl/lvgl/src/core/lv_obj_style_gen.h ****     return (const lv_font_t *)v.ptr;
 335:lvgl/lvgl/src/core/lv_obj_style_gen.h **** }
 336:lvgl/lvgl/src/core/lv_obj_style_gen.h **** 
 337:lvgl/lvgl/src/core/lv_obj_style_gen.h **** static inline lv_coord_t lv_obj_get_style_text_letter_space(const struct _lv_obj_t * obj, uint32_t 
 338:lvgl/lvgl/src/core/lv_obj_style_gen.h **** {
 339:lvgl/lvgl/src/core/lv_obj_style_gen.h ****     lv_style_value_t v = lv_obj_get_style_prop(obj, part, LV_STYLE_TEXT_LETTER_SPACE);
 340:lvgl/lvgl/src/core/lv_obj_style_gen.h ****     return (lv_coord_t)v.num;
 341:lvgl/lvgl/src/core/lv_obj_style_gen.h **** }
 342:lvgl/lvgl/src/core/lv_obj_style_gen.h **** 
 343:lvgl/lvgl/src/core/lv_obj_style_gen.h **** static inline lv_coord_t lv_obj_get_style_text_line_space(const struct _lv_obj_t * obj, uint32_t pa
 344:lvgl/lvgl/src/core/lv_obj_style_gen.h **** {
 345:lvgl/lvgl/src/core/lv_obj_style_gen.h ****     lv_style_value_t v = lv_obj_get_style_prop(obj, part, LV_STYLE_TEXT_LINE_SPACE);
 346:lvgl/lvgl/src/core/lv_obj_style_gen.h ****     return (lv_coord_t)v.num;
 347:lvgl/lvgl/src/core/lv_obj_style_gen.h **** }
 348:lvgl/lvgl/src/core/lv_obj_style_gen.h **** 
 349:lvgl/lvgl/src/core/lv_obj_style_gen.h **** static inline lv_text_decor_t lv_obj_get_style_text_decor(const struct _lv_obj_t * obj, uint32_t pa
 350:lvgl/lvgl/src/core/lv_obj_style_gen.h **** {
 351:lvgl/lvgl/src/core/lv_obj_style_gen.h ****     lv_style_value_t v = lv_obj_get_style_prop(obj, part, LV_STYLE_TEXT_DECOR);
 352:lvgl/lvgl/src/core/lv_obj_style_gen.h ****     return (lv_text_decor_t)v.num;
 353:lvgl/lvgl/src/core/lv_obj_style_gen.h **** }
 354:lvgl/lvgl/src/core/lv_obj_style_gen.h **** 
 355:lvgl/lvgl/src/core/lv_obj_style_gen.h **** static inline lv_text_align_t lv_obj_get_style_text_align(const struct _lv_obj_t * obj, uint32_t pa
 4653              		.loc 3 355 31 view .LVU1395
 4654              	.LBB141:
 356:lvgl/lvgl/src/core/lv_obj_style_gen.h **** {
 357:lvgl/lvgl/src/core/lv_obj_style_gen.h ****     lv_style_value_t v = lv_obj_get_style_prop(obj, part, LV_STYLE_TEXT_ALIGN);
 4655              		.loc 3 357 5 view .LVU1396
 4656              		.loc 3 357 26 is_stmt 0 view .LVU1397
 4657 0006 41F25D42 		movw	r2, #5213
 4658              	.LVL483:
 4659              		.loc 3 357 26 view .LVU1398
 4660 000a FFF7FEFF 		bl	lv_obj_get_style_prop
 4661              	.LVL484:
 358:lvgl/lvgl/src/core/lv_obj_style_gen.h ****     return (lv_text_align_t)v.num;
 4662              		.loc 3 358 5 is_stmt 1 view .LVU1399
 4663              		.loc 3 358 12 is_stmt 0 view .LVU1400
 4664 000e C4B2     		uxtb	r4, r0
 4665              	.LVL485:
 4666              		.loc 3 358 12 view .LVU1401
 4667              	.LBE141:
 4668              	.LBE140:
 464:lvgl/lvgl/src/core/lv_obj_style.c ****     lv_bidi_calculate_align(&align, &base_dir, txt);
ARM GAS  C:\Users\gx\AppData\Local\Temp\cc2sgWsf.s 			page 139


 4669              		.loc 1 464 5 is_stmt 1 view .LVU1402
 4670              	.LBB142:
 4671              	.LBI142:
 187:lvgl/lvgl/src/core/lv_obj_style_gen.h **** {
 4672              		.loc 3 187 29 view .LVU1403
 4673              	.LBB143:
 189:lvgl/lvgl/src/core/lv_obj_style_gen.h ****     return (lv_base_dir_t)v.num;
 4674              		.loc 3 189 5 view .LVU1404
 189:lvgl/lvgl/src/core/lv_obj_style_gen.h ****     return (lv_base_dir_t)v.num;
 4675              		.loc 3 189 26 is_stmt 0 view .LVU1405
 4676 0010 41F26A42 		movw	r2, #5226
 4677 0014 3146     		mov	r1, r6
 4678 0016 2846     		mov	r0, r5
 4679 0018 FFF7FEFF 		bl	lv_obj_get_style_prop
 4680              	.LVL486:
 190:lvgl/lvgl/src/core/lv_obj_style_gen.h **** }
 4681              		.loc 3 190 5 is_stmt 1 view .LVU1406
 190:lvgl/lvgl/src/core/lv_obj_style_gen.h **** }
 4682              		.loc 3 190 5 is_stmt 0 view .LVU1407
 4683              	.LBE143:
 4684              	.LBE142:
 465:lvgl/lvgl/src/core/lv_obj_style.c ****     return align;
 4685              		.loc 1 465 5 is_stmt 1 view .LVU1408
 4686              	.LBB144:
 4687              	.LBI144:
 4688              		.file 5 "lvgl/lvgl/src/core/../misc/lv_bidi.h"
   1:lvgl/lvgl/src/core/../misc/lv_bidi.h **** /**
   2:lvgl/lvgl/src/core/../misc/lv_bidi.h ****  * @file lv_bidi.h
   3:lvgl/lvgl/src/core/../misc/lv_bidi.h ****  *
   4:lvgl/lvgl/src/core/../misc/lv_bidi.h ****  */
   5:lvgl/lvgl/src/core/../misc/lv_bidi.h **** 
   6:lvgl/lvgl/src/core/../misc/lv_bidi.h **** #ifndef LV_BIDI_H
   7:lvgl/lvgl/src/core/../misc/lv_bidi.h **** #define LV_BIDI_H
   8:lvgl/lvgl/src/core/../misc/lv_bidi.h **** 
   9:lvgl/lvgl/src/core/../misc/lv_bidi.h **** #ifdef __cplusplus
  10:lvgl/lvgl/src/core/../misc/lv_bidi.h **** extern "C" {
  11:lvgl/lvgl/src/core/../misc/lv_bidi.h **** #endif
  12:lvgl/lvgl/src/core/../misc/lv_bidi.h **** 
  13:lvgl/lvgl/src/core/../misc/lv_bidi.h **** /*********************
  14:lvgl/lvgl/src/core/../misc/lv_bidi.h ****  *      INCLUDES
  15:lvgl/lvgl/src/core/../misc/lv_bidi.h ****  *********************/
  16:lvgl/lvgl/src/core/../misc/lv_bidi.h **** #include "../lv_conf_internal.h"
  17:lvgl/lvgl/src/core/../misc/lv_bidi.h **** 
  18:lvgl/lvgl/src/core/../misc/lv_bidi.h **** #include <stdbool.h>
  19:lvgl/lvgl/src/core/../misc/lv_bidi.h **** #include <stdint.h>
  20:lvgl/lvgl/src/core/../misc/lv_bidi.h **** #include "lv_txt.h"
  21:lvgl/lvgl/src/core/../misc/lv_bidi.h **** 
  22:lvgl/lvgl/src/core/../misc/lv_bidi.h **** /*********************
  23:lvgl/lvgl/src/core/../misc/lv_bidi.h ****  *      DEFINES
  24:lvgl/lvgl/src/core/../misc/lv_bidi.h ****  *********************/
  25:lvgl/lvgl/src/core/../misc/lv_bidi.h **** /*Special non printable strong characters.
  26:lvgl/lvgl/src/core/../misc/lv_bidi.h ****  *They can be inserted to texts to affect the run's direction*/
  27:lvgl/lvgl/src/core/../misc/lv_bidi.h **** #define LV_BIDI_LRO  "\xE2\x80\xAD" /*U+202D*/
  28:lvgl/lvgl/src/core/../misc/lv_bidi.h **** #define LV_BIDI_RLO  "\xE2\x80\xAE" /*U+202E*/
  29:lvgl/lvgl/src/core/../misc/lv_bidi.h **** 
  30:lvgl/lvgl/src/core/../misc/lv_bidi.h **** /**********************
  31:lvgl/lvgl/src/core/../misc/lv_bidi.h ****  *      TYPEDEFS
ARM GAS  C:\Users\gx\AppData\Local\Temp\cc2sgWsf.s 			page 140


  32:lvgl/lvgl/src/core/../misc/lv_bidi.h ****  **********************/
  33:lvgl/lvgl/src/core/../misc/lv_bidi.h **** enum {
  34:lvgl/lvgl/src/core/../misc/lv_bidi.h ****     LV_BASE_DIR_LTR      = 0x00,
  35:lvgl/lvgl/src/core/../misc/lv_bidi.h ****     LV_BASE_DIR_RTL      = 0x01,
  36:lvgl/lvgl/src/core/../misc/lv_bidi.h ****     LV_BASE_DIR_AUTO     = 0x02,
  37:lvgl/lvgl/src/core/../misc/lv_bidi.h **** 
  38:lvgl/lvgl/src/core/../misc/lv_bidi.h ****     LV_BASE_DIR_NEUTRAL  = 0x20,
  39:lvgl/lvgl/src/core/../misc/lv_bidi.h ****     LV_BASE_DIR_WEAK     = 0x21,
  40:lvgl/lvgl/src/core/../misc/lv_bidi.h **** };
  41:lvgl/lvgl/src/core/../misc/lv_bidi.h **** 
  42:lvgl/lvgl/src/core/../misc/lv_bidi.h **** typedef uint8_t lv_base_dir_t;
  43:lvgl/lvgl/src/core/../misc/lv_bidi.h **** 
  44:lvgl/lvgl/src/core/../misc/lv_bidi.h **** /**********************
  45:lvgl/lvgl/src/core/../misc/lv_bidi.h ****  * GLOBAL PROTOTYPES
  46:lvgl/lvgl/src/core/../misc/lv_bidi.h ****  **********************/
  47:lvgl/lvgl/src/core/../misc/lv_bidi.h **** #if LV_USE_BIDI
  48:lvgl/lvgl/src/core/../misc/lv_bidi.h **** 
  49:lvgl/lvgl/src/core/../misc/lv_bidi.h **** /**
  50:lvgl/lvgl/src/core/../misc/lv_bidi.h ****  * Convert a text to get the characters in the correct visual order according to
  51:lvgl/lvgl/src/core/../misc/lv_bidi.h ****  * Unicode Bidirectional Algorithm
  52:lvgl/lvgl/src/core/../misc/lv_bidi.h ****  * @param str_in the text to process
  53:lvgl/lvgl/src/core/../misc/lv_bidi.h ****  * @param str_out store the result here. Has the be `strlen(str_in)` length
  54:lvgl/lvgl/src/core/../misc/lv_bidi.h ****  * @param base_dir `LV_BASE_DIR_LTR` or `LV_BASE_DIR_RTL`
  55:lvgl/lvgl/src/core/../misc/lv_bidi.h ****  */
  56:lvgl/lvgl/src/core/../misc/lv_bidi.h **** void _lv_bidi_process(const char * str_in, char * str_out, lv_base_dir_t base_dir);
  57:lvgl/lvgl/src/core/../misc/lv_bidi.h **** 
  58:lvgl/lvgl/src/core/../misc/lv_bidi.h **** /**
  59:lvgl/lvgl/src/core/../misc/lv_bidi.h ****  * Auto-detect the direction of a text based on the first strong character
  60:lvgl/lvgl/src/core/../misc/lv_bidi.h ****  * @param txt the text to process
  61:lvgl/lvgl/src/core/../misc/lv_bidi.h ****  * @return `LV_BASE_DIR_LTR` or `LV_BASE_DIR_RTL`
  62:lvgl/lvgl/src/core/../misc/lv_bidi.h ****  */
  63:lvgl/lvgl/src/core/../misc/lv_bidi.h **** lv_base_dir_t _lv_bidi_detect_base_dir(const char * txt);
  64:lvgl/lvgl/src/core/../misc/lv_bidi.h **** 
  65:lvgl/lvgl/src/core/../misc/lv_bidi.h **** /**
  66:lvgl/lvgl/src/core/../misc/lv_bidi.h ****  * Get the logical position of a character in a line
  67:lvgl/lvgl/src/core/../misc/lv_bidi.h ****  * @param str_in the input string. Can be only one line.
  68:lvgl/lvgl/src/core/../misc/lv_bidi.h ****  * @param bidi_txt internally the text is bidi processed which buffer can be get here.
  69:lvgl/lvgl/src/core/../misc/lv_bidi.h ****  * If not required anymore has to freed with `lv_mem_free()`
  70:lvgl/lvgl/src/core/../misc/lv_bidi.h ****  * Can be `NULL` is unused
  71:lvgl/lvgl/src/core/../misc/lv_bidi.h ****  * @param len length of the line in character count
  72:lvgl/lvgl/src/core/../misc/lv_bidi.h ****  * @param base_dir base direction of the text: `LV_BASE_DIR_LTR` or `LV_BASE_DIR_RTL`
  73:lvgl/lvgl/src/core/../misc/lv_bidi.h ****  * @param visual_pos the visual character position which logical position should be get
  74:lvgl/lvgl/src/core/../misc/lv_bidi.h ****  * @param is_rtl tell the char at `visual_pos` is RTL or LTR context
  75:lvgl/lvgl/src/core/../misc/lv_bidi.h ****  * @return the logical character position
  76:lvgl/lvgl/src/core/../misc/lv_bidi.h ****  */
  77:lvgl/lvgl/src/core/../misc/lv_bidi.h **** uint16_t _lv_bidi_get_logical_pos(const char * str_in, char ** bidi_txt, uint32_t len, lv_base_dir_
  78:lvgl/lvgl/src/core/../misc/lv_bidi.h ****                                   uint32_t visual_pos, bool * is_rtl);
  79:lvgl/lvgl/src/core/../misc/lv_bidi.h **** 
  80:lvgl/lvgl/src/core/../misc/lv_bidi.h **** /**
  81:lvgl/lvgl/src/core/../misc/lv_bidi.h ****  * Get the visual position of a character in a line
  82:lvgl/lvgl/src/core/../misc/lv_bidi.h ****  * @param str_in the input string. Can be only one line.
  83:lvgl/lvgl/src/core/../misc/lv_bidi.h ****  * @param bidi_txt internally the text is bidi processed which buffer can be get here.
  84:lvgl/lvgl/src/core/../misc/lv_bidi.h ****  * If not required anymore has to freed with `lv_mem_free()`
  85:lvgl/lvgl/src/core/../misc/lv_bidi.h ****  * Can be `NULL` is unused
  86:lvgl/lvgl/src/core/../misc/lv_bidi.h ****  * @param len length of the line in character count
  87:lvgl/lvgl/src/core/../misc/lv_bidi.h ****  * @param base_dir base direction of the text: `LV_BASE_DIR_LTR` or `LV_BASE_DIR_RTL`
  88:lvgl/lvgl/src/core/../misc/lv_bidi.h ****  * @param logical_pos the logical character position which visual position should be get
ARM GAS  C:\Users\gx\AppData\Local\Temp\cc2sgWsf.s 			page 141


  89:lvgl/lvgl/src/core/../misc/lv_bidi.h ****  * @param is_rtl tell the char at `logical_pos` is RTL or LTR context
  90:lvgl/lvgl/src/core/../misc/lv_bidi.h ****  * @return the visual character position
  91:lvgl/lvgl/src/core/../misc/lv_bidi.h ****  */
  92:lvgl/lvgl/src/core/../misc/lv_bidi.h **** uint16_t _lv_bidi_get_visual_pos(const char * str_in, char ** bidi_txt, uint16_t len, lv_base_dir_t
  93:lvgl/lvgl/src/core/../misc/lv_bidi.h ****                                  uint32_t logical_pos, bool * is_rtl);
  94:lvgl/lvgl/src/core/../misc/lv_bidi.h **** 
  95:lvgl/lvgl/src/core/../misc/lv_bidi.h **** /**
  96:lvgl/lvgl/src/core/../misc/lv_bidi.h ****  * Bidi process a paragraph of text
  97:lvgl/lvgl/src/core/../misc/lv_bidi.h ****  * @param str_in the string to process
  98:lvgl/lvgl/src/core/../misc/lv_bidi.h ****  * @param str_out store the result here
  99:lvgl/lvgl/src/core/../misc/lv_bidi.h ****  * @param len length of the text
 100:lvgl/lvgl/src/core/../misc/lv_bidi.h ****  * @param base_dir base dir of the text
 101:lvgl/lvgl/src/core/../misc/lv_bidi.h ****  * @param pos_conv_out an `uint16_t` array to store the related logical position of the character.
 102:lvgl/lvgl/src/core/../misc/lv_bidi.h ****  * Can be `NULL` is unused
 103:lvgl/lvgl/src/core/../misc/lv_bidi.h ****  * @param pos_conv_len length of `pos_conv_out` in element count
 104:lvgl/lvgl/src/core/../misc/lv_bidi.h ****  */
 105:lvgl/lvgl/src/core/../misc/lv_bidi.h **** void _lv_bidi_process_paragraph(const char * str_in, char * str_out, uint32_t len, lv_base_dir_t ba
 106:lvgl/lvgl/src/core/../misc/lv_bidi.h ****                                 uint16_t * pos_conv_out, uint16_t pos_conv_len);
 107:lvgl/lvgl/src/core/../misc/lv_bidi.h **** 
 108:lvgl/lvgl/src/core/../misc/lv_bidi.h **** /**
 109:lvgl/lvgl/src/core/../misc/lv_bidi.h ****  * Get the real text alignment from the a text alignment, base direction and a text.
 110:lvgl/lvgl/src/core/../misc/lv_bidi.h ****  * @param align     LV_TEXT_ALIGN_..., write back the calculated align here (LV_TEXT_ALIGN_LEFT/RIG
 111:lvgl/lvgl/src/core/../misc/lv_bidi.h ****  * @param base_dir  LV_BASE_DIR_..., write the calculated base dir here (LV_BASE_DIR_LTR/RTL)
 112:lvgl/lvgl/src/core/../misc/lv_bidi.h ****  * @param txt       a text, used with LV_BASE_DIR_AUTO to determine the base direction
 113:lvgl/lvgl/src/core/../misc/lv_bidi.h ****  */
 114:lvgl/lvgl/src/core/../misc/lv_bidi.h **** void lv_bidi_calculate_align(lv_text_align_t * align, lv_base_dir_t * base_dir, const char * txt);
 115:lvgl/lvgl/src/core/../misc/lv_bidi.h **** 
 116:lvgl/lvgl/src/core/../misc/lv_bidi.h **** 
 117:lvgl/lvgl/src/core/../misc/lv_bidi.h **** /**********************
 118:lvgl/lvgl/src/core/../misc/lv_bidi.h ****  *      MACROS
 119:lvgl/lvgl/src/core/../misc/lv_bidi.h ****  **********************/
 120:lvgl/lvgl/src/core/../misc/lv_bidi.h **** 
 121:lvgl/lvgl/src/core/../misc/lv_bidi.h **** #else /*LV_USE_BIDI*/
 122:lvgl/lvgl/src/core/../misc/lv_bidi.h **** /**
 123:lvgl/lvgl/src/core/../misc/lv_bidi.h ****  * For compatibility if LV_USE_BIDI = 0
 124:lvgl/lvgl/src/core/../misc/lv_bidi.h ****  * Get the real text alignment from the a text alignment, base direction and a text.
 125:lvgl/lvgl/src/core/../misc/lv_bidi.h ****  * @param align     For LV_TEXT_ALIGN_AUTO give LV_TEXT_ALIGN_LEFT else leave unchanged, write back
 126:lvgl/lvgl/src/core/../misc/lv_bidi.h ****  * @param base_dir  Unused
 127:lvgl/lvgl/src/core/../misc/lv_bidi.h ****  * @param txt       Unused
 128:lvgl/lvgl/src/core/../misc/lv_bidi.h ****  */
 129:lvgl/lvgl/src/core/../misc/lv_bidi.h **** static inline void lv_bidi_calculate_align(lv_text_align_t * align, lv_base_dir_t * base_dir, const
 4689              		.loc 5 129 20 view .LVU1409
 4690              	.LBB145:
 130:lvgl/lvgl/src/core/../misc/lv_bidi.h **** {
 131:lvgl/lvgl/src/core/../misc/lv_bidi.h ****     LV_UNUSED(txt);
 4691              		.loc 5 131 5 view .LVU1410
 132:lvgl/lvgl/src/core/../misc/lv_bidi.h ****     LV_UNUSED(base_dir);
 4692              		.loc 5 132 5 view .LVU1411
 133:lvgl/lvgl/src/core/../misc/lv_bidi.h ****     if(*align == LV_TEXT_ALIGN_AUTO) * align = LV_TEXT_ALIGN_LEFT;
 4693              		.loc 5 133 5 view .LVU1412
 4694              		.loc 5 133 7 is_stmt 0 view .LVU1413
 4695 001c 04B9     		cbnz	r4, .L302
 4696              		.loc 5 133 46 view .LVU1414
 4697 001e 0124     		movs	r4, #1
 4698              	.LVL487:
 4699              	.L302:
 4700              		.loc 5 133 46 view .LVU1415
ARM GAS  C:\Users\gx\AppData\Local\Temp\cc2sgWsf.s 			page 142


 4701              	.LBE145:
 4702              	.LBE144:
 466:lvgl/lvgl/src/core/lv_obj_style.c **** }
 4703              		.loc 1 466 5 is_stmt 1 view .LVU1416
 467:lvgl/lvgl/src/core/lv_obj_style.c **** 
 4704              		.loc 1 467 1 is_stmt 0 view .LVU1417
 4705 0020 2046     		mov	r0, r4
 4706 0022 70BD     		pop	{r4, r5, r6, pc}
 467:lvgl/lvgl/src/core/lv_obj_style.c **** 
 4707              		.loc 1 467 1 view .LVU1418
 4708              		.cfi_endproc
 4709              	.LFE174:
 4711              		.section	.data.style_refr,"aw"
 4712              		.set	.LANCHOR1,. + 0
 4715              	style_refr:
 4716 0000 01       		.byte	1
 4717              		.section	.rodata.__func__.10166,"a"
 4718              		.align	2
 4719              		.set	.LANCHOR2,. + 0
 4722              	__func__.10166:
 4723 0000 5F6C765F 		.ascii	"_lv_obj_style_create_transition\000"
 4723      6F626A5F 
 4723      7374796C 
 4723      655F6372 
 4723      65617465 
 4724              		.section	.rodata.__func__.10220,"a"
 4725              		.align	2
 4726              		.set	.LANCHOR0,. + 0
 4729              	__func__.10220:
 4730 0000 6765745F 		.ascii	"get_local_style\000"
 4730      6C6F6361 
 4730      6C5F7374 
 4730      796C6500 
 4731              		.text
 4732              	.Letext0:
 4733              		.file 6 "c:\\program files (x86)\\gnu arm embedded toolchain\\9 2020-q2-update\\arm-none-eabi\\inc
 4734              		.file 7 "c:\\program files (x86)\\gnu arm embedded toolchain\\9 2020-q2-update\\arm-none-eabi\\inc
 4735              		.file 8 "c:\\program files (x86)\\gnu arm embedded toolchain\\9 2020-q2-update\\lib\\gcc\\arm-none
 4736              		.file 9 "c:\\program files (x86)\\gnu arm embedded toolchain\\9 2020-q2-update\\arm-none-eabi\\inc
 4737              		.file 10 "c:\\program files (x86)\\gnu arm embedded toolchain\\9 2020-q2-update\\arm-none-eabi\\in
 4738              		.file 11 "c:\\program files (x86)\\gnu arm embedded toolchain\\9 2020-q2-update\\arm-none-eabi\\in
 4739              		.file 12 "d:\\practise\\f407_disc\\lvgl\\lvgl\\src\\misc\\lv_area.h"
 4740              		.file 13 "lvgl/lvgl/src/core/../misc/../font/lv_font.h"
 4741              		.file 14 "lvgl/lvgl/src/core/../misc/lv_types.h"
 4742              		.file 15 "lvgl/lvgl/src/core/../misc/lv_txt.h"
 4743              		.file 16 "lvgl/lvgl/src/core/../misc/lv_style.h"
 4744              		.file 17 "lvgl/lvgl/src/core/../hal/../draw/lv_img_buf.h"
 4745              		.file 18 "lvgl/lvgl/src/core/../hal/../misc/lv_ll.h"
 4746              		.file 19 "lvgl/lvgl/src/core/../hal/../misc/lv_mem.h"
 4747              		.file 20 "lvgl/lvgl/src/core/../hal/../misc/lv_timer.h"
 4748              		.file 21 "lvgl/lvgl/src/core/../hal/lv_hal_disp.h"
 4749              		.file 22 "lvgl/lvgl/src/core/lv_theme.h"
 4750              		.file 23 "lvgl/lvgl/src/core/lv_obj.h"
 4751              		.file 24 "lvgl/lvgl/src/core/lv_group.h"
 4752              		.file 25 "lvgl/lvgl/src/core/lv_obj_pos.h"
 4753              		.file 26 "lvgl/lvgl/src/core/lv_obj_scroll.h"
 4754              		.file 27 "lvgl/lvgl/src/core/lv_obj_style.h"
ARM GAS  C:\Users\gx\AppData\Local\Temp\cc2sgWsf.s 			page 143


 4755              		.file 28 "lvgl/lvgl/src/core/../draw/lv_img_decoder.h"
 4756              		.file 29 "lvgl/lvgl/src/core/../draw/lv_img_cache.h"
 4757              		.file 30 "lvgl/lvgl/src/core/../draw/lv_draw_mask.h"
 4758              		.file 31 "lvgl/lvgl/src/core/../draw/lv_draw_label.h"
 4759              		.file 32 "lvgl/lvgl/src/core/lv_obj_class.h"
 4760              		.file 33 "lvgl/lvgl/src/core/lv_event.h"
 4761              		.file 34 "lvgl/lvgl/src/core/../misc/lv_gc.h"
 4762              		.file 35 "lvgl/lvgl/src/core/lv_obj_tree.h"
 4763              		.file 36 "lvgl/lvgl/src/core/../hal/../misc/lv_log.h"
 4764              		.file 37 "lvgl/lvgl/src/core/lv_obj_draw.h"
ARM GAS  C:\Users\gx\AppData\Local\Temp\cc2sgWsf.s 			page 144


DEFINED SYMBOLS
                            *ABS*:00000000 lv_obj_style.c
C:\Users\gx\AppData\Local\Temp\cc2sgWsf.s:18     .text.trans_del:00000000 $t
C:\Users\gx\AppData\Local\Temp\cc2sgWsf.s:25     .text.trans_del:00000000 trans_del
C:\Users\gx\AppData\Local\Temp\cc2sgWsf.s:197    .text.trans_del:000000b0 $d
C:\Users\gx\AppData\Local\Temp\cc2sgWsf.s:202    .text.refresh_children_style:00000000 $t
C:\Users\gx\AppData\Local\Temp\cc2sgWsf.s:208    .text.refresh_children_style:00000000 refresh_children_style
C:\Users\gx\AppData\Local\Temp\cc2sgWsf.s:285    .rodata.get_local_style.str1.4:00000000 $d
C:\Users\gx\AppData\Local\Temp\cc2sgWsf.s:298    .text.get_local_style:00000000 $t
C:\Users\gx\AppData\Local\Temp\cc2sgWsf.s:304    .text.get_local_style:00000000 get_local_style
C:\Users\gx\AppData\Local\Temp\cc2sgWsf.s:515    .text.get_local_style:000000e4 $d
C:\Users\gx\AppData\Local\Temp\cc2sgWsf.s:524    .text.get_trans_style:00000000 $t
C:\Users\gx\AppData\Local\Temp\cc2sgWsf.s:530    .text.get_trans_style:00000000 get_trans_style
C:\Users\gx\AppData\Local\Temp\cc2sgWsf.s:695    .text.fade_anim_cb:00000000 $t
C:\Users\gx\AppData\Local\Temp\cc2sgWsf.s:701    .text.fade_anim_cb:00000000 fade_anim_cb
C:\Users\gx\AppData\Local\Temp\cc2sgWsf.s:727    .text._lv_obj_style_init:00000000 $t
C:\Users\gx\AppData\Local\Temp\cc2sgWsf.s:734    .text._lv_obj_style_init:00000000 _lv_obj_style_init
C:\Users\gx\AppData\Local\Temp\cc2sgWsf.s:755    .text._lv_obj_style_init:0000000c $d
C:\Users\gx\AppData\Local\Temp\cc2sgWsf.s:760    .text.lv_obj_enable_style_refresh:00000000 $t
C:\Users\gx\AppData\Local\Temp\cc2sgWsf.s:767    .text.lv_obj_enable_style_refresh:00000000 lv_obj_enable_style_refresh
C:\Users\gx\AppData\Local\Temp\cc2sgWsf.s:784    .text.lv_obj_enable_style_refresh:00000008 $d
C:\Users\gx\AppData\Local\Temp\cc2sgWsf.s:789    .text.lv_obj_get_local_style_prop:00000000 $t
C:\Users\gx\AppData\Local\Temp\cc2sgWsf.s:796    .text.lv_obj_get_local_style_prop:00000000 lv_obj_get_local_style_prop
C:\Users\gx\AppData\Local\Temp\cc2sgWsf.s:870    .text.lv_obj_remove_local_style_prop:00000000 $t
C:\Users\gx\AppData\Local\Temp\cc2sgWsf.s:877    .text.lv_obj_remove_local_style_prop:00000000 lv_obj_remove_local_style_prop
C:\Users\gx\AppData\Local\Temp\cc2sgWsf.s:960    .text.fade_in_anim_ready:00000000 $t
C:\Users\gx\AppData\Local\Temp\cc2sgWsf.s:966    .text.fade_in_anim_ready:00000000 fade_in_anim_ready
C:\Users\gx\AppData\Local\Temp\cc2sgWsf.s:993    .text.lv_obj_fade_in:00000000 $t
C:\Users\gx\AppData\Local\Temp\cc2sgWsf.s:1000   .text.lv_obj_fade_in:00000000 lv_obj_fade_in
C:\Users\gx\AppData\Local\Temp\cc2sgWsf.s:1129   .text.lv_obj_fade_in:00000034 $d
C:\Users\gx\AppData\Local\Temp\cc2sgWsf.s:1135   .text.lv_obj_fade_out:00000000 $t
C:\Users\gx\AppData\Local\Temp\cc2sgWsf.s:1142   .text.lv_obj_fade_out:00000000 lv_obj_fade_out
C:\Users\gx\AppData\Local\Temp\cc2sgWsf.s:1257   .text.lv_obj_fade_out:00000030 $d
C:\Users\gx\AppData\Local\Temp\cc2sgWsf.s:1262   .text.lv_obj_style_get_selector_state:00000000 $t
C:\Users\gx\AppData\Local\Temp\cc2sgWsf.s:1269   .text.lv_obj_style_get_selector_state:00000000 lv_obj_style_get_selector_state
C:\Users\gx\AppData\Local\Temp\cc2sgWsf.s:1287   .text.lv_obj_style_get_selector_part:00000000 $t
C:\Users\gx\AppData\Local\Temp\cc2sgWsf.s:1294   .text.lv_obj_style_get_selector_part:00000000 lv_obj_style_get_selector_part
C:\Users\gx\AppData\Local\Temp\cc2sgWsf.s:1312   .text.get_prop_core:00000000 $t
C:\Users\gx\AppData\Local\Temp\cc2sgWsf.s:1318   .text.get_prop_core:00000000 get_prop_core
C:\Users\gx\AppData\Local\Temp\cc2sgWsf.s:1613   .text.lv_obj_get_style_prop:00000000 $t
C:\Users\gx\AppData\Local\Temp\cc2sgWsf.s:1620   .text.lv_obj_get_style_prop:00000000 lv_obj_get_style_prop
C:\Users\gx\AppData\Local\Temp\cc2sgWsf.s:1828   .text.apply_color_filter:00000000 apply_color_filter
C:\Users\gx\AppData\Local\Temp\cc2sgWsf.s:1822   .text.apply_color_filter:00000000 $t
C:\Users\gx\AppData\Local\Temp\cc2sgWsf.s:1934   .rodata._lv_obj_style_create_transition.str1.4:00000000 $d
C:\Users\gx\AppData\Local\Temp\cc2sgWsf.s:1938   .text._lv_obj_style_create_transition:00000000 $t
C:\Users\gx\AppData\Local\Temp\cc2sgWsf.s:1945   .text._lv_obj_style_create_transition:00000000 _lv_obj_style_create_transition
C:\Users\gx\AppData\Local\Temp\cc2sgWsf.s:2365   .text._lv_obj_style_create_transition:00000148 $d
C:\Users\gx\AppData\Local\Temp\cc2sgWsf.s:3004   .text.trans_anim_cb:00000000 trans_anim_cb
C:\Users\gx\AppData\Local\Temp\cc2sgWsf.s:3964   .text.trans_anim_start_cb:00000000 trans_anim_start_cb
C:\Users\gx\AppData\Local\Temp\cc2sgWsf.s:3776   .text.trans_anim_ready_cb:00000000 trans_anim_ready_cb
C:\Users\gx\AppData\Local\Temp\cc2sgWsf.s:2378   .text.lv_obj_refresh_style:00000000 $t
C:\Users\gx\AppData\Local\Temp\cc2sgWsf.s:2385   .text.lv_obj_refresh_style:00000000 lv_obj_refresh_style
C:\Users\gx\AppData\Local\Temp\cc2sgWsf.s:2573   .text.lv_obj_refresh_style:000000c8 $d
C:\Users\gx\AppData\Local\Temp\cc2sgWsf.s:2578   .text.lv_obj_add_style:00000000 $t
C:\Users\gx\AppData\Local\Temp\cc2sgWsf.s:2585   .text.lv_obj_add_style:00000000 lv_obj_add_style
C:\Users\gx\AppData\Local\Temp\cc2sgWsf.s:2736   .text.report_style_change_core:00000000 $t
C:\Users\gx\AppData\Local\Temp\cc2sgWsf.s:2742   .text.report_style_change_core:00000000 report_style_change_core
ARM GAS  C:\Users\gx\AppData\Local\Temp\cc2sgWsf.s 			page 145


C:\Users\gx\AppData\Local\Temp\cc2sgWsf.s:2847   .text.lv_obj_report_style_change:00000000 $t
C:\Users\gx\AppData\Local\Temp\cc2sgWsf.s:2854   .text.lv_obj_report_style_change:00000000 lv_obj_report_style_change
C:\Users\gx\AppData\Local\Temp\cc2sgWsf.s:2937   .text.lv_obj_report_style_change:0000003c $d
C:\Users\gx\AppData\Local\Temp\cc2sgWsf.s:2942   .text.lv_obj_set_local_style_prop:00000000 $t
C:\Users\gx\AppData\Local\Temp\cc2sgWsf.s:2949   .text.lv_obj_set_local_style_prop:00000000 lv_obj_set_local_style_prop
C:\Users\gx\AppData\Local\Temp\cc2sgWsf.s:2998   .text.trans_anim_cb:00000000 $t
C:\Users\gx\AppData\Local\Temp\cc2sgWsf.s:3091   .text.trans_anim_cb:00000052 $d
C:\Users\gx\AppData\Local\Temp\cc2sgWsf.s:3472   .text.trans_anim_cb:000001a0 $d
C:\Users\gx\AppData\Local\Temp\cc2sgWsf.s:3478   .text.lv_obj_remove_style:00000000 $t
C:\Users\gx\AppData\Local\Temp\cc2sgWsf.s:3485   .text.lv_obj_remove_style:00000000 lv_obj_remove_style
C:\Users\gx\AppData\Local\Temp\cc2sgWsf.s:3770   .text.trans_anim_ready_cb:00000000 $t
C:\Users\gx\AppData\Local\Temp\cc2sgWsf.s:3951   .text.trans_anim_ready_cb:000000a8 $d
C:\Users\gx\AppData\Local\Temp\cc2sgWsf.s:3958   .text.trans_anim_start_cb:00000000 $t
C:\Users\gx\AppData\Local\Temp\cc2sgWsf.s:4042   .text._lv_obj_style_state_compare:00000000 $t
C:\Users\gx\AppData\Local\Temp\cc2sgWsf.s:4049   .text._lv_obj_style_state_compare:00000000 _lv_obj_style_state_compare
C:\Users\gx\AppData\Local\Temp\cc2sgWsf.s:4625   .text.lv_obj_calculate_style_text_align:00000000 $t
C:\Users\gx\AppData\Local\Temp\cc2sgWsf.s:4632   .text.lv_obj_calculate_style_text_align:00000000 lv_obj_calculate_style_text_align
C:\Users\gx\AppData\Local\Temp\cc2sgWsf.s:4715   .data.style_refr:00000000 style_refr
C:\Users\gx\AppData\Local\Temp\cc2sgWsf.s:4718   .rodata.__func__.10166:00000000 $d
C:\Users\gx\AppData\Local\Temp\cc2sgWsf.s:4722   .rodata.__func__.10166:00000000 __func__.10166
C:\Users\gx\AppData\Local\Temp\cc2sgWsf.s:4725   .rodata.__func__.10220:00000000 $d
C:\Users\gx\AppData\Local\Temp\cc2sgWsf.s:4729   .rodata.__func__.10220:00000000 __func__.10220
C:\Users\gx\AppData\Local\Temp\cc2sgWsf.s:3165   .text.trans_anim_cb:0000009b $d
C:\Users\gx\AppData\Local\Temp\cc2sgWsf.s:3165   .text.trans_anim_cb:0000009c $t

UNDEFINED SYMBOLS
_lv_ll_get_tail
_lv_ll_get_prev
lv_style_remove_prop
lv_anim_del
_lv_ll_remove
lv_mem_free
_lv_obj_style_trans_ll
lv_obj_get_child_cnt
lv_obj_invalidate
lv_event_send
lv_mem_realloc
_lv_log_add
lv_memset_00
lv_mem_alloc
lv_style_init
lv_obj_set_style_opa
_lv_ll_init
lv_style_get_prop
lv_anim_init
lv_anim_start
_lv_style_get_prop_group
lv_obj_get_parent
lv_style_prop_get_default
lv_style_set_prop
_lv_ll_ins_head
lv_obj_get_width
lv_obj_mark_layout_as_dirty
lv_obj_refresh_ext_draw_size
lv_disp_get_next
lv_style_reset
_lv_ll_get_head
ARM GAS  C:\Users\gx\AppData\Local\Temp\cc2sgWsf.s 			page 146


_lv_ll_get_next
lv_style_is_empty
