ARM GAS  C:\Users\gx\AppData\Local\Temp\ccHlQRWF.s 			page 1


   1              		.cpu cortex-m4
   2              		.eabi_attribute 27, 1
   3              		.eabi_attribute 28, 1
   4              		.eabi_attribute 20, 1
   5              		.eabi_attribute 21, 1
   6              		.eabi_attribute 23, 3
   7              		.eabi_attribute 24, 1
   8              		.eabi_attribute 25, 1
   9              		.eabi_attribute 26, 1
  10              		.eabi_attribute 30, 1
  11              		.eabi_attribute 34, 1
  12              		.eabi_attribute 18, 4
  13              		.file	"lv_obj_scroll.c"
  14              		.text
  15              	.Ltext0:
  16              		.cfi_sections	.debug_frame
  17              		.section	.text.scroll_by_raw,"ax",%progbits
  18              		.align	1
  19              		.arch armv7e-m
  20              		.syntax unified
  21              		.thumb
  22              		.thumb_func
  23              		.fpu fpv4-sp-d16
  25              	scroll_by_raw:
  26              	.LVL0:
  27              	.LFB184:
  28              		.file 1 "lvgl/lvgl/src/core/lv_obj_scroll.c"
   1:lvgl/lvgl/src/core/lv_obj_scroll.c **** /**
   2:lvgl/lvgl/src/core/lv_obj_scroll.c ****  * @file lv_obj_scroll.c
   3:lvgl/lvgl/src/core/lv_obj_scroll.c ****  *
   4:lvgl/lvgl/src/core/lv_obj_scroll.c ****  */
   5:lvgl/lvgl/src/core/lv_obj_scroll.c **** 
   6:lvgl/lvgl/src/core/lv_obj_scroll.c **** /*********************
   7:lvgl/lvgl/src/core/lv_obj_scroll.c ****  *      INCLUDES
   8:lvgl/lvgl/src/core/lv_obj_scroll.c ****  *********************/
   9:lvgl/lvgl/src/core/lv_obj_scroll.c **** #include "lv_obj_scroll.h"
  10:lvgl/lvgl/src/core/lv_obj_scroll.c **** #include "lv_obj.h"
  11:lvgl/lvgl/src/core/lv_obj_scroll.c **** #include "lv_indev.h"
  12:lvgl/lvgl/src/core/lv_obj_scroll.c **** #include "lv_disp.h"
  13:lvgl/lvgl/src/core/lv_obj_scroll.c **** #include "lv_indev_scroll.h"
  14:lvgl/lvgl/src/core/lv_obj_scroll.c **** 
  15:lvgl/lvgl/src/core/lv_obj_scroll.c **** /*********************
  16:lvgl/lvgl/src/core/lv_obj_scroll.c ****  *      DEFINES
  17:lvgl/lvgl/src/core/lv_obj_scroll.c ****  *********************/
  18:lvgl/lvgl/src/core/lv_obj_scroll.c **** #define MY_CLASS &lv_obj_class
  19:lvgl/lvgl/src/core/lv_obj_scroll.c **** #define SCROLL_ANIM_TIME_MIN    200    /*ms*/
  20:lvgl/lvgl/src/core/lv_obj_scroll.c **** #define SCROLL_ANIM_TIME_MAX    400    /*ms*/
  21:lvgl/lvgl/src/core/lv_obj_scroll.c **** #define SCROLLBAR_MIN_SIZE      (LV_DPX(10))
  22:lvgl/lvgl/src/core/lv_obj_scroll.c **** 
  23:lvgl/lvgl/src/core/lv_obj_scroll.c **** /**********************
  24:lvgl/lvgl/src/core/lv_obj_scroll.c ****  *      TYPEDEFS
  25:lvgl/lvgl/src/core/lv_obj_scroll.c ****  **********************/
  26:lvgl/lvgl/src/core/lv_obj_scroll.c **** 
  27:lvgl/lvgl/src/core/lv_obj_scroll.c **** /**********************
  28:lvgl/lvgl/src/core/lv_obj_scroll.c ****  *  GLOBAL PROTOTYPES
  29:lvgl/lvgl/src/core/lv_obj_scroll.c ****  **********************/
  30:lvgl/lvgl/src/core/lv_obj_scroll.c **** 
ARM GAS  C:\Users\gx\AppData\Local\Temp\ccHlQRWF.s 			page 2


  31:lvgl/lvgl/src/core/lv_obj_scroll.c **** /**********************
  32:lvgl/lvgl/src/core/lv_obj_scroll.c ****  *  STATIC PROTOTYPES
  33:lvgl/lvgl/src/core/lv_obj_scroll.c ****  **********************/
  34:lvgl/lvgl/src/core/lv_obj_scroll.c **** static void scroll_by_raw(lv_obj_t * obj, lv_coord_t x, lv_coord_t y);
  35:lvgl/lvgl/src/core/lv_obj_scroll.c **** static void scroll_x_anim(void * obj, int32_t v);
  36:lvgl/lvgl/src/core/lv_obj_scroll.c **** static void scroll_y_anim(void * obj, int32_t v);
  37:lvgl/lvgl/src/core/lv_obj_scroll.c **** static void scroll_anim_ready_cb(lv_anim_t * a);
  38:lvgl/lvgl/src/core/lv_obj_scroll.c **** static void scroll_area_into_view(const lv_area_t * area, lv_obj_t * child, lv_point_t * scroll_val
  39:lvgl/lvgl/src/core/lv_obj_scroll.c **** 
  40:lvgl/lvgl/src/core/lv_obj_scroll.c **** /**********************
  41:lvgl/lvgl/src/core/lv_obj_scroll.c ****  *  STATIC VARIABLES
  42:lvgl/lvgl/src/core/lv_obj_scroll.c ****  **********************/
  43:lvgl/lvgl/src/core/lv_obj_scroll.c **** 
  44:lvgl/lvgl/src/core/lv_obj_scroll.c **** /**********************
  45:lvgl/lvgl/src/core/lv_obj_scroll.c ****  *      MACROS
  46:lvgl/lvgl/src/core/lv_obj_scroll.c ****  **********************/
  47:lvgl/lvgl/src/core/lv_obj_scroll.c **** 
  48:lvgl/lvgl/src/core/lv_obj_scroll.c **** /**********************
  49:lvgl/lvgl/src/core/lv_obj_scroll.c ****  *   GLOBAL FUNCTIONS
  50:lvgl/lvgl/src/core/lv_obj_scroll.c ****  **********************/
  51:lvgl/lvgl/src/core/lv_obj_scroll.c **** 
  52:lvgl/lvgl/src/core/lv_obj_scroll.c **** /*=====================
  53:lvgl/lvgl/src/core/lv_obj_scroll.c ****  * Setter functions
  54:lvgl/lvgl/src/core/lv_obj_scroll.c ****  *====================*/
  55:lvgl/lvgl/src/core/lv_obj_scroll.c **** 
  56:lvgl/lvgl/src/core/lv_obj_scroll.c **** void lv_obj_set_scrollbar_mode(lv_obj_t * obj, lv_scrollbar_mode_t mode)
  57:lvgl/lvgl/src/core/lv_obj_scroll.c **** {
  58:lvgl/lvgl/src/core/lv_obj_scroll.c ****     LV_ASSERT_OBJ(obj, MY_CLASS);
  59:lvgl/lvgl/src/core/lv_obj_scroll.c **** 
  60:lvgl/lvgl/src/core/lv_obj_scroll.c ****     lv_obj_allocate_spec_attr(obj);
  61:lvgl/lvgl/src/core/lv_obj_scroll.c **** 
  62:lvgl/lvgl/src/core/lv_obj_scroll.c ****     if(obj->spec_attr->scrollbar_mode == mode) return;
  63:lvgl/lvgl/src/core/lv_obj_scroll.c ****     obj->spec_attr->scrollbar_mode = mode;
  64:lvgl/lvgl/src/core/lv_obj_scroll.c ****     lv_obj_invalidate(obj);
  65:lvgl/lvgl/src/core/lv_obj_scroll.c **** }
  66:lvgl/lvgl/src/core/lv_obj_scroll.c **** 
  67:lvgl/lvgl/src/core/lv_obj_scroll.c **** void lv_obj_set_scroll_dir(lv_obj_t * obj, lv_dir_t dir)
  68:lvgl/lvgl/src/core/lv_obj_scroll.c **** {
  69:lvgl/lvgl/src/core/lv_obj_scroll.c ****     lv_obj_allocate_spec_attr(obj);
  70:lvgl/lvgl/src/core/lv_obj_scroll.c **** 
  71:lvgl/lvgl/src/core/lv_obj_scroll.c ****     if(dir != obj->spec_attr->scroll_dir) {
  72:lvgl/lvgl/src/core/lv_obj_scroll.c ****         obj->spec_attr->scroll_dir = dir;
  73:lvgl/lvgl/src/core/lv_obj_scroll.c ****     }
  74:lvgl/lvgl/src/core/lv_obj_scroll.c **** }
  75:lvgl/lvgl/src/core/lv_obj_scroll.c **** 
  76:lvgl/lvgl/src/core/lv_obj_scroll.c **** void lv_obj_set_scroll_snap_x(lv_obj_t * obj, lv_scroll_snap_t align)
  77:lvgl/lvgl/src/core/lv_obj_scroll.c **** {
  78:lvgl/lvgl/src/core/lv_obj_scroll.c ****     lv_obj_allocate_spec_attr(obj);
  79:lvgl/lvgl/src/core/lv_obj_scroll.c ****     obj->spec_attr->scroll_snap_x = align;
  80:lvgl/lvgl/src/core/lv_obj_scroll.c **** }
  81:lvgl/lvgl/src/core/lv_obj_scroll.c **** 
  82:lvgl/lvgl/src/core/lv_obj_scroll.c **** void lv_obj_set_scroll_snap_y(lv_obj_t * obj, lv_scroll_snap_t align)
  83:lvgl/lvgl/src/core/lv_obj_scroll.c **** {
  84:lvgl/lvgl/src/core/lv_obj_scroll.c ****     lv_obj_allocate_spec_attr(obj);
  85:lvgl/lvgl/src/core/lv_obj_scroll.c ****     obj->spec_attr->scroll_snap_y = align;
  86:lvgl/lvgl/src/core/lv_obj_scroll.c **** }
  87:lvgl/lvgl/src/core/lv_obj_scroll.c **** 
ARM GAS  C:\Users\gx\AppData\Local\Temp\ccHlQRWF.s 			page 3


  88:lvgl/lvgl/src/core/lv_obj_scroll.c **** /*=====================
  89:lvgl/lvgl/src/core/lv_obj_scroll.c ****  * Getter functions
  90:lvgl/lvgl/src/core/lv_obj_scroll.c ****  *====================*/
  91:lvgl/lvgl/src/core/lv_obj_scroll.c **** 
  92:lvgl/lvgl/src/core/lv_obj_scroll.c **** lv_scrollbar_mode_t lv_obj_get_scrollbar_mode(const lv_obj_t * obj)
  93:lvgl/lvgl/src/core/lv_obj_scroll.c **** {
  94:lvgl/lvgl/src/core/lv_obj_scroll.c ****     if(obj->spec_attr) return obj->spec_attr->scrollbar_mode;
  95:lvgl/lvgl/src/core/lv_obj_scroll.c ****     else return LV_SCROLLBAR_MODE_AUTO;
  96:lvgl/lvgl/src/core/lv_obj_scroll.c **** }
  97:lvgl/lvgl/src/core/lv_obj_scroll.c **** 
  98:lvgl/lvgl/src/core/lv_obj_scroll.c **** lv_dir_t lv_obj_get_scroll_dir(const lv_obj_t * obj)
  99:lvgl/lvgl/src/core/lv_obj_scroll.c **** {
 100:lvgl/lvgl/src/core/lv_obj_scroll.c ****     if(obj->spec_attr) return obj->spec_attr->scroll_dir;
 101:lvgl/lvgl/src/core/lv_obj_scroll.c ****     else return LV_DIR_ALL;
 102:lvgl/lvgl/src/core/lv_obj_scroll.c **** }
 103:lvgl/lvgl/src/core/lv_obj_scroll.c **** 
 104:lvgl/lvgl/src/core/lv_obj_scroll.c **** lv_scroll_snap_t lv_obj_get_scroll_snap_x(const lv_obj_t * obj)
 105:lvgl/lvgl/src/core/lv_obj_scroll.c **** {
 106:lvgl/lvgl/src/core/lv_obj_scroll.c ****     if(obj->spec_attr) return obj->spec_attr->scroll_snap_x;
 107:lvgl/lvgl/src/core/lv_obj_scroll.c ****     else return LV_SCROLL_SNAP_NONE;
 108:lvgl/lvgl/src/core/lv_obj_scroll.c **** }
 109:lvgl/lvgl/src/core/lv_obj_scroll.c **** 
 110:lvgl/lvgl/src/core/lv_obj_scroll.c **** lv_scroll_snap_t lv_obj_get_scroll_snap_y(const lv_obj_t * obj)
 111:lvgl/lvgl/src/core/lv_obj_scroll.c **** {
 112:lvgl/lvgl/src/core/lv_obj_scroll.c ****     if(obj->spec_attr) return obj->spec_attr->scroll_snap_y;
 113:lvgl/lvgl/src/core/lv_obj_scroll.c ****     else return LV_SCROLL_SNAP_NONE;
 114:lvgl/lvgl/src/core/lv_obj_scroll.c **** }
 115:lvgl/lvgl/src/core/lv_obj_scroll.c **** 
 116:lvgl/lvgl/src/core/lv_obj_scroll.c **** lv_coord_t lv_obj_get_scroll_x(const lv_obj_t * obj)
 117:lvgl/lvgl/src/core/lv_obj_scroll.c **** {
 118:lvgl/lvgl/src/core/lv_obj_scroll.c ****     if(obj->spec_attr == NULL) return 0;
 119:lvgl/lvgl/src/core/lv_obj_scroll.c ****     return -obj->spec_attr->scroll.x;
 120:lvgl/lvgl/src/core/lv_obj_scroll.c **** }
 121:lvgl/lvgl/src/core/lv_obj_scroll.c **** 
 122:lvgl/lvgl/src/core/lv_obj_scroll.c **** lv_coord_t lv_obj_get_scroll_y(const lv_obj_t * obj)
 123:lvgl/lvgl/src/core/lv_obj_scroll.c **** {
 124:lvgl/lvgl/src/core/lv_obj_scroll.c ****     if(obj->spec_attr == NULL) return 0;
 125:lvgl/lvgl/src/core/lv_obj_scroll.c ****     return -obj->spec_attr->scroll.y;
 126:lvgl/lvgl/src/core/lv_obj_scroll.c **** }
 127:lvgl/lvgl/src/core/lv_obj_scroll.c **** 
 128:lvgl/lvgl/src/core/lv_obj_scroll.c **** lv_coord_t lv_obj_get_scroll_top(lv_obj_t * obj)
 129:lvgl/lvgl/src/core/lv_obj_scroll.c **** {
 130:lvgl/lvgl/src/core/lv_obj_scroll.c ****     if(obj->spec_attr == NULL) return 0;
 131:lvgl/lvgl/src/core/lv_obj_scroll.c ****     return -obj->spec_attr->scroll.y;
 132:lvgl/lvgl/src/core/lv_obj_scroll.c **** }
 133:lvgl/lvgl/src/core/lv_obj_scroll.c **** 
 134:lvgl/lvgl/src/core/lv_obj_scroll.c **** lv_coord_t lv_obj_get_scroll_bottom(lv_obj_t * obj)
 135:lvgl/lvgl/src/core/lv_obj_scroll.c **** {
 136:lvgl/lvgl/src/core/lv_obj_scroll.c ****     LV_ASSERT_OBJ(obj, MY_CLASS);
 137:lvgl/lvgl/src/core/lv_obj_scroll.c **** 
 138:lvgl/lvgl/src/core/lv_obj_scroll.c ****     lv_coord_t child_res = LV_COORD_MIN;
 139:lvgl/lvgl/src/core/lv_obj_scroll.c ****     uint32_t i;
 140:lvgl/lvgl/src/core/lv_obj_scroll.c ****     uint32_t child_cnt = lv_obj_get_child_cnt(obj);
 141:lvgl/lvgl/src/core/lv_obj_scroll.c ****     for(i = 0; i < child_cnt; i++) {
 142:lvgl/lvgl/src/core/lv_obj_scroll.c ****         lv_obj_t * child = obj->spec_attr->children[i];
 143:lvgl/lvgl/src/core/lv_obj_scroll.c ****         if(lv_obj_has_flag_any(child,  LV_OBJ_FLAG_HIDDEN | LV_OBJ_FLAG_FLOATING)) continue;
 144:lvgl/lvgl/src/core/lv_obj_scroll.c ****         child_res = LV_MAX(child_res, child->coords.y2);
ARM GAS  C:\Users\gx\AppData\Local\Temp\ccHlQRWF.s 			page 4


 145:lvgl/lvgl/src/core/lv_obj_scroll.c ****     }
 146:lvgl/lvgl/src/core/lv_obj_scroll.c **** 
 147:lvgl/lvgl/src/core/lv_obj_scroll.c ****     lv_coord_t pad_top = lv_obj_get_style_pad_top(obj, LV_PART_MAIN);
 148:lvgl/lvgl/src/core/lv_obj_scroll.c ****     lv_coord_t pad_bottom = lv_obj_get_style_pad_bottom(obj, LV_PART_MAIN);
 149:lvgl/lvgl/src/core/lv_obj_scroll.c ****     lv_coord_t border_width = lv_obj_get_style_border_width(obj, LV_PART_MAIN);
 150:lvgl/lvgl/src/core/lv_obj_scroll.c **** 
 151:lvgl/lvgl/src/core/lv_obj_scroll.c ****     if(child_res != LV_COORD_MIN) {
 152:lvgl/lvgl/src/core/lv_obj_scroll.c ****         child_res -= (obj->coords.y2 - pad_bottom - border_width);
 153:lvgl/lvgl/src/core/lv_obj_scroll.c ****     }
 154:lvgl/lvgl/src/core/lv_obj_scroll.c **** 
 155:lvgl/lvgl/src/core/lv_obj_scroll.c ****     lv_coord_t self_h = lv_obj_get_self_height(obj);
 156:lvgl/lvgl/src/core/lv_obj_scroll.c ****     self_h = self_h - (lv_obj_get_height(obj) - pad_top - pad_bottom - 2 * border_width);
 157:lvgl/lvgl/src/core/lv_obj_scroll.c ****     self_h -= lv_obj_get_scroll_y(obj);
 158:lvgl/lvgl/src/core/lv_obj_scroll.c ****     return LV_MAX(child_res, self_h);
 159:lvgl/lvgl/src/core/lv_obj_scroll.c **** }
 160:lvgl/lvgl/src/core/lv_obj_scroll.c **** 
 161:lvgl/lvgl/src/core/lv_obj_scroll.c **** lv_coord_t lv_obj_get_scroll_left(lv_obj_t * obj)
 162:lvgl/lvgl/src/core/lv_obj_scroll.c **** {
 163:lvgl/lvgl/src/core/lv_obj_scroll.c ****     LV_ASSERT_OBJ(obj, MY_CLASS);
 164:lvgl/lvgl/src/core/lv_obj_scroll.c **** 
 165:lvgl/lvgl/src/core/lv_obj_scroll.c ****     /*Normally can't scroll the object out on the left.
 166:lvgl/lvgl/src/core/lv_obj_scroll.c ****      *So simply use the current scroll position as "left size"*/
 167:lvgl/lvgl/src/core/lv_obj_scroll.c ****     if(lv_obj_get_style_base_dir(obj, LV_PART_MAIN) != LV_BASE_DIR_RTL) {
 168:lvgl/lvgl/src/core/lv_obj_scroll.c ****         if(obj->spec_attr == NULL) return 0;
 169:lvgl/lvgl/src/core/lv_obj_scroll.c ****         return -obj->spec_attr->scroll.x;
 170:lvgl/lvgl/src/core/lv_obj_scroll.c ****     }
 171:lvgl/lvgl/src/core/lv_obj_scroll.c **** 
 172:lvgl/lvgl/src/core/lv_obj_scroll.c ****     /*With RTL base direction scrolling the left is normal so find the left most coordinate*/
 173:lvgl/lvgl/src/core/lv_obj_scroll.c ****     lv_coord_t pad_right = lv_obj_get_style_pad_right(obj, LV_PART_MAIN);
 174:lvgl/lvgl/src/core/lv_obj_scroll.c ****     lv_coord_t pad_left = lv_obj_get_style_pad_left(obj, LV_PART_MAIN);
 175:lvgl/lvgl/src/core/lv_obj_scroll.c ****     lv_coord_t border_width = lv_obj_get_style_border_width(obj, LV_PART_MAIN);
 176:lvgl/lvgl/src/core/lv_obj_scroll.c **** 
 177:lvgl/lvgl/src/core/lv_obj_scroll.c ****     lv_coord_t child_res = 0;
 178:lvgl/lvgl/src/core/lv_obj_scroll.c **** 
 179:lvgl/lvgl/src/core/lv_obj_scroll.c ****     uint32_t i;
 180:lvgl/lvgl/src/core/lv_obj_scroll.c ****     lv_coord_t x1 = LV_COORD_MAX;
 181:lvgl/lvgl/src/core/lv_obj_scroll.c ****     uint32_t child_cnt = lv_obj_get_child_cnt(obj);
 182:lvgl/lvgl/src/core/lv_obj_scroll.c ****     for(i = 0; i < child_cnt; i++) {
 183:lvgl/lvgl/src/core/lv_obj_scroll.c ****         lv_obj_t * child = obj->spec_attr->children[i];
 184:lvgl/lvgl/src/core/lv_obj_scroll.c ****         if(lv_obj_has_flag_any(child,  LV_OBJ_FLAG_HIDDEN | LV_OBJ_FLAG_FLOATING)) continue;
 185:lvgl/lvgl/src/core/lv_obj_scroll.c ****         x1 = LV_MIN(x1, child->coords.x1);
 186:lvgl/lvgl/src/core/lv_obj_scroll.c **** 
 187:lvgl/lvgl/src/core/lv_obj_scroll.c ****     }
 188:lvgl/lvgl/src/core/lv_obj_scroll.c **** 
 189:lvgl/lvgl/src/core/lv_obj_scroll.c ****     if(x1 != LV_COORD_MAX) {
 190:lvgl/lvgl/src/core/lv_obj_scroll.c ****         child_res = x1;
 191:lvgl/lvgl/src/core/lv_obj_scroll.c ****         child_res = (obj->coords.x1 + pad_left + border_width) - child_res;
 192:lvgl/lvgl/src/core/lv_obj_scroll.c ****     } else {
 193:lvgl/lvgl/src/core/lv_obj_scroll.c ****         child_res = LV_COORD_MIN;
 194:lvgl/lvgl/src/core/lv_obj_scroll.c ****     }
 195:lvgl/lvgl/src/core/lv_obj_scroll.c **** 
 196:lvgl/lvgl/src/core/lv_obj_scroll.c ****     lv_coord_t self_w = lv_obj_get_self_width(obj);
 197:lvgl/lvgl/src/core/lv_obj_scroll.c ****     self_w = self_w - (lv_obj_get_width(obj) - pad_right - pad_left - 2 * border_width);
 198:lvgl/lvgl/src/core/lv_obj_scroll.c ****     self_w += lv_obj_get_scroll_x(obj);
 199:lvgl/lvgl/src/core/lv_obj_scroll.c **** 
 200:lvgl/lvgl/src/core/lv_obj_scroll.c ****     return LV_MAX(child_res, self_w);
 201:lvgl/lvgl/src/core/lv_obj_scroll.c **** }
ARM GAS  C:\Users\gx\AppData\Local\Temp\ccHlQRWF.s 			page 5


 202:lvgl/lvgl/src/core/lv_obj_scroll.c **** 
 203:lvgl/lvgl/src/core/lv_obj_scroll.c **** lv_coord_t lv_obj_get_scroll_right(lv_obj_t * obj)
 204:lvgl/lvgl/src/core/lv_obj_scroll.c **** {
 205:lvgl/lvgl/src/core/lv_obj_scroll.c ****     LV_ASSERT_OBJ(obj, MY_CLASS);
 206:lvgl/lvgl/src/core/lv_obj_scroll.c **** 
 207:lvgl/lvgl/src/core/lv_obj_scroll.c ****     /*With RTL base dir can't scroll to the object out on the right.
 208:lvgl/lvgl/src/core/lv_obj_scroll.c ****      *So simply use the current scroll position as "right size"*/
 209:lvgl/lvgl/src/core/lv_obj_scroll.c ****     if(lv_obj_get_style_base_dir(obj, LV_PART_MAIN) == LV_BASE_DIR_RTL) {
 210:lvgl/lvgl/src/core/lv_obj_scroll.c ****         if(obj->spec_attr == NULL) return 0;
 211:lvgl/lvgl/src/core/lv_obj_scroll.c ****         return obj->spec_attr->scroll.x;
 212:lvgl/lvgl/src/core/lv_obj_scroll.c ****     }
 213:lvgl/lvgl/src/core/lv_obj_scroll.c **** 
 214:lvgl/lvgl/src/core/lv_obj_scroll.c ****     /*With other base direction (LTR) scrolling to the right is normal so find the right most coord
 215:lvgl/lvgl/src/core/lv_obj_scroll.c ****     lv_coord_t child_res = LV_COORD_MIN;
 216:lvgl/lvgl/src/core/lv_obj_scroll.c ****     uint32_t i;
 217:lvgl/lvgl/src/core/lv_obj_scroll.c ****     uint32_t child_cnt = lv_obj_get_child_cnt(obj);
 218:lvgl/lvgl/src/core/lv_obj_scroll.c ****     for(i = 0; i < child_cnt; i++) {
 219:lvgl/lvgl/src/core/lv_obj_scroll.c ****         lv_obj_t * child = obj->spec_attr->children[i];
 220:lvgl/lvgl/src/core/lv_obj_scroll.c ****         if(lv_obj_has_flag_any(child,  LV_OBJ_FLAG_HIDDEN | LV_OBJ_FLAG_FLOATING)) continue;
 221:lvgl/lvgl/src/core/lv_obj_scroll.c ****         child_res = LV_MAX(child_res, child->coords.x2);
 222:lvgl/lvgl/src/core/lv_obj_scroll.c ****     }
 223:lvgl/lvgl/src/core/lv_obj_scroll.c **** 
 224:lvgl/lvgl/src/core/lv_obj_scroll.c ****     lv_coord_t pad_right = lv_obj_get_style_pad_right(obj, LV_PART_MAIN);
 225:lvgl/lvgl/src/core/lv_obj_scroll.c ****     lv_coord_t pad_left = lv_obj_get_style_pad_left(obj, LV_PART_MAIN);
 226:lvgl/lvgl/src/core/lv_obj_scroll.c ****     lv_coord_t border_width = lv_obj_get_style_border_width(obj, LV_PART_MAIN);
 227:lvgl/lvgl/src/core/lv_obj_scroll.c **** 
 228:lvgl/lvgl/src/core/lv_obj_scroll.c ****     if(child_res != LV_COORD_MIN) {
 229:lvgl/lvgl/src/core/lv_obj_scroll.c ****         child_res -= (obj->coords.x2 - pad_right - border_width);
 230:lvgl/lvgl/src/core/lv_obj_scroll.c ****     }
 231:lvgl/lvgl/src/core/lv_obj_scroll.c **** 
 232:lvgl/lvgl/src/core/lv_obj_scroll.c ****     lv_coord_t self_w;
 233:lvgl/lvgl/src/core/lv_obj_scroll.c ****     self_w = lv_obj_get_self_width(obj);
 234:lvgl/lvgl/src/core/lv_obj_scroll.c ****     self_w = self_w - (lv_obj_get_width(obj) - pad_right - pad_left - 2 * border_width);
 235:lvgl/lvgl/src/core/lv_obj_scroll.c ****     self_w -= lv_obj_get_scroll_x(obj);
 236:lvgl/lvgl/src/core/lv_obj_scroll.c ****     return LV_MAX(child_res, self_w);
 237:lvgl/lvgl/src/core/lv_obj_scroll.c **** }
 238:lvgl/lvgl/src/core/lv_obj_scroll.c **** 
 239:lvgl/lvgl/src/core/lv_obj_scroll.c **** void lv_obj_get_scroll_end(struct _lv_obj_t  * obj, lv_point_t * end)
 240:lvgl/lvgl/src/core/lv_obj_scroll.c **** {
 241:lvgl/lvgl/src/core/lv_obj_scroll.c ****     lv_anim_t * a;
 242:lvgl/lvgl/src/core/lv_obj_scroll.c ****     a = lv_anim_get(obj, scroll_x_anim);
 243:lvgl/lvgl/src/core/lv_obj_scroll.c ****     end->x = a ? -a->end_value : lv_obj_get_scroll_x(obj);
 244:lvgl/lvgl/src/core/lv_obj_scroll.c **** 
 245:lvgl/lvgl/src/core/lv_obj_scroll.c ****     a = lv_anim_get(obj, scroll_y_anim);
 246:lvgl/lvgl/src/core/lv_obj_scroll.c ****     end->y = a ? -a->end_value : lv_obj_get_scroll_y(obj);
 247:lvgl/lvgl/src/core/lv_obj_scroll.c **** }
 248:lvgl/lvgl/src/core/lv_obj_scroll.c **** 
 249:lvgl/lvgl/src/core/lv_obj_scroll.c **** /*=====================
 250:lvgl/lvgl/src/core/lv_obj_scroll.c ****  * Other functions
 251:lvgl/lvgl/src/core/lv_obj_scroll.c ****  *====================*/
 252:lvgl/lvgl/src/core/lv_obj_scroll.c **** 
 253:lvgl/lvgl/src/core/lv_obj_scroll.c **** void lv_obj_scroll_by(lv_obj_t * obj, lv_coord_t x, lv_coord_t y, lv_anim_enable_t anim_en)
 254:lvgl/lvgl/src/core/lv_obj_scroll.c **** {
 255:lvgl/lvgl/src/core/lv_obj_scroll.c ****     if(x == 0 && y == 0) return;
 256:lvgl/lvgl/src/core/lv_obj_scroll.c ****     if(anim_en == LV_ANIM_ON) {
 257:lvgl/lvgl/src/core/lv_obj_scroll.c ****         lv_disp_t * d = lv_obj_get_disp(obj);
 258:lvgl/lvgl/src/core/lv_obj_scroll.c ****         lv_anim_t a;
ARM GAS  C:\Users\gx\AppData\Local\Temp\ccHlQRWF.s 			page 6


 259:lvgl/lvgl/src/core/lv_obj_scroll.c ****         lv_anim_init(&a);
 260:lvgl/lvgl/src/core/lv_obj_scroll.c ****         lv_anim_set_var(&a, obj);
 261:lvgl/lvgl/src/core/lv_obj_scroll.c ****         lv_anim_set_ready_cb(&a, scroll_anim_ready_cb);
 262:lvgl/lvgl/src/core/lv_obj_scroll.c **** 
 263:lvgl/lvgl/src/core/lv_obj_scroll.c ****         if(x) {
 264:lvgl/lvgl/src/core/lv_obj_scroll.c ****             uint32_t t = lv_anim_speed_to_time((lv_disp_get_hor_res(d) * 2) >> 2, 0, x);
 265:lvgl/lvgl/src/core/lv_obj_scroll.c ****             if(t < SCROLL_ANIM_TIME_MIN) t = SCROLL_ANIM_TIME_MIN;
 266:lvgl/lvgl/src/core/lv_obj_scroll.c ****             if(t > SCROLL_ANIM_TIME_MAX) t = SCROLL_ANIM_TIME_MAX;
 267:lvgl/lvgl/src/core/lv_obj_scroll.c ****             lv_anim_set_time(&a, t);
 268:lvgl/lvgl/src/core/lv_obj_scroll.c ****             lv_coord_t sx = lv_obj_get_scroll_x(obj);
 269:lvgl/lvgl/src/core/lv_obj_scroll.c ****             lv_anim_set_values(&a, -sx, -sx + x);
 270:lvgl/lvgl/src/core/lv_obj_scroll.c ****             lv_anim_set_exec_cb(&a, scroll_x_anim);
 271:lvgl/lvgl/src/core/lv_obj_scroll.c ****             lv_anim_set_path_cb(&a, lv_anim_path_ease_out);
 272:lvgl/lvgl/src/core/lv_obj_scroll.c **** 
 273:lvgl/lvgl/src/core/lv_obj_scroll.c ****             lv_res_t res;
 274:lvgl/lvgl/src/core/lv_obj_scroll.c ****             res = lv_event_send(obj, LV_EVENT_SCROLL_BEGIN, &a);
 275:lvgl/lvgl/src/core/lv_obj_scroll.c ****             if(res != LV_RES_OK) return;
 276:lvgl/lvgl/src/core/lv_obj_scroll.c ****             lv_anim_start(&a);
 277:lvgl/lvgl/src/core/lv_obj_scroll.c ****         }
 278:lvgl/lvgl/src/core/lv_obj_scroll.c **** 
 279:lvgl/lvgl/src/core/lv_obj_scroll.c ****         if(y) {
 280:lvgl/lvgl/src/core/lv_obj_scroll.c ****             uint32_t t = lv_anim_speed_to_time((lv_disp_get_ver_res(d) * 2) >> 2, 0, y);
 281:lvgl/lvgl/src/core/lv_obj_scroll.c ****             if(t < SCROLL_ANIM_TIME_MIN) t = SCROLL_ANIM_TIME_MIN;
 282:lvgl/lvgl/src/core/lv_obj_scroll.c ****             if(t > SCROLL_ANIM_TIME_MAX) t = SCROLL_ANIM_TIME_MAX;
 283:lvgl/lvgl/src/core/lv_obj_scroll.c ****             lv_anim_set_time(&a, t);
 284:lvgl/lvgl/src/core/lv_obj_scroll.c ****             lv_coord_t sy = lv_obj_get_scroll_y(obj);
 285:lvgl/lvgl/src/core/lv_obj_scroll.c ****             lv_anim_set_values(&a, -sy, -sy + y);
 286:lvgl/lvgl/src/core/lv_obj_scroll.c ****             lv_anim_set_exec_cb(&a,  scroll_y_anim);
 287:lvgl/lvgl/src/core/lv_obj_scroll.c ****             lv_anim_set_path_cb(&a, lv_anim_path_ease_out);
 288:lvgl/lvgl/src/core/lv_obj_scroll.c ****             
 289:lvgl/lvgl/src/core/lv_obj_scroll.c ****             lv_res_t res;
 290:lvgl/lvgl/src/core/lv_obj_scroll.c ****             res = lv_event_send(obj, LV_EVENT_SCROLL_BEGIN, &a);
 291:lvgl/lvgl/src/core/lv_obj_scroll.c ****             if(res != LV_RES_OK) return;
 292:lvgl/lvgl/src/core/lv_obj_scroll.c ****             lv_anim_start(&a);
 293:lvgl/lvgl/src/core/lv_obj_scroll.c ****         }
 294:lvgl/lvgl/src/core/lv_obj_scroll.c ****     } else {
 295:lvgl/lvgl/src/core/lv_obj_scroll.c ****         /*Remove pending animations*/
 296:lvgl/lvgl/src/core/lv_obj_scroll.c ****         bool y_del = lv_anim_del(obj, scroll_y_anim);
 297:lvgl/lvgl/src/core/lv_obj_scroll.c ****         bool x_del = lv_anim_del(obj, scroll_x_anim);
 298:lvgl/lvgl/src/core/lv_obj_scroll.c ****         scroll_by_raw(obj, x, y);
 299:lvgl/lvgl/src/core/lv_obj_scroll.c ****         if(y_del || x_del) {
 300:lvgl/lvgl/src/core/lv_obj_scroll.c ****             lv_res_t res;
 301:lvgl/lvgl/src/core/lv_obj_scroll.c ****             res = lv_event_send(obj, LV_EVENT_SCROLL_END, NULL);
 302:lvgl/lvgl/src/core/lv_obj_scroll.c ****             if(res != LV_RES_OK) return;
 303:lvgl/lvgl/src/core/lv_obj_scroll.c ****         }
 304:lvgl/lvgl/src/core/lv_obj_scroll.c ****     }
 305:lvgl/lvgl/src/core/lv_obj_scroll.c **** }
 306:lvgl/lvgl/src/core/lv_obj_scroll.c **** 
 307:lvgl/lvgl/src/core/lv_obj_scroll.c **** void lv_obj_scroll_to(lv_obj_t * obj, lv_coord_t x, lv_coord_t y, lv_anim_enable_t anim_en)
 308:lvgl/lvgl/src/core/lv_obj_scroll.c **** {
 309:lvgl/lvgl/src/core/lv_obj_scroll.c ****     lv_obj_scroll_to_x(obj, x, anim_en);
 310:lvgl/lvgl/src/core/lv_obj_scroll.c ****     lv_obj_scroll_to_y(obj, y, anim_en);
 311:lvgl/lvgl/src/core/lv_obj_scroll.c **** }
 312:lvgl/lvgl/src/core/lv_obj_scroll.c **** 
 313:lvgl/lvgl/src/core/lv_obj_scroll.c **** void lv_obj_scroll_to_x(lv_obj_t * obj, lv_coord_t x, lv_anim_enable_t anim_en)
 314:lvgl/lvgl/src/core/lv_obj_scroll.c **** {
 315:lvgl/lvgl/src/core/lv_obj_scroll.c ****     lv_anim_del(obj, scroll_x_anim);
ARM GAS  C:\Users\gx\AppData\Local\Temp\ccHlQRWF.s 			page 7


 316:lvgl/lvgl/src/core/lv_obj_scroll.c **** 
 317:lvgl/lvgl/src/core/lv_obj_scroll.c ****     /*Don't let scroll more then naturally possible by the size of the content*/
 318:lvgl/lvgl/src/core/lv_obj_scroll.c ****     if(lv_obj_get_style_base_dir(obj, LV_PART_MAIN) != LV_BASE_DIR_RTL) {
 319:lvgl/lvgl/src/core/lv_obj_scroll.c ****         if(x < 0) x = 0;
 320:lvgl/lvgl/src/core/lv_obj_scroll.c ****         if(x > 0) {
 321:lvgl/lvgl/src/core/lv_obj_scroll.c ****             lv_coord_t  scroll_max = lv_obj_get_scroll_left(obj) + lv_obj_get_scroll_right(obj);
 322:lvgl/lvgl/src/core/lv_obj_scroll.c ****             if(scroll_max < 0) scroll_max = 0;
 323:lvgl/lvgl/src/core/lv_obj_scroll.c **** 
 324:lvgl/lvgl/src/core/lv_obj_scroll.c ****             if(x > scroll_max) x = scroll_max;
 325:lvgl/lvgl/src/core/lv_obj_scroll.c ****         }
 326:lvgl/lvgl/src/core/lv_obj_scroll.c ****     } else {
 327:lvgl/lvgl/src/core/lv_obj_scroll.c ****         if(x > 0) x = 0;
 328:lvgl/lvgl/src/core/lv_obj_scroll.c ****         if(x < 0) {
 329:lvgl/lvgl/src/core/lv_obj_scroll.c ****             lv_coord_t  scroll_max = lv_obj_get_scroll_left(obj) + lv_obj_get_scroll_right(obj);
 330:lvgl/lvgl/src/core/lv_obj_scroll.c ****             if(scroll_max < 0) scroll_max = 0;
 331:lvgl/lvgl/src/core/lv_obj_scroll.c **** 
 332:lvgl/lvgl/src/core/lv_obj_scroll.c ****             if(x < -scroll_max) x = -scroll_max;
 333:lvgl/lvgl/src/core/lv_obj_scroll.c ****         }
 334:lvgl/lvgl/src/core/lv_obj_scroll.c ****     }
 335:lvgl/lvgl/src/core/lv_obj_scroll.c **** 
 336:lvgl/lvgl/src/core/lv_obj_scroll.c ****     lv_coord_t scroll_x = lv_obj_get_scroll_x(obj);
 337:lvgl/lvgl/src/core/lv_obj_scroll.c ****     lv_coord_t diff = -x + scroll_x;
 338:lvgl/lvgl/src/core/lv_obj_scroll.c **** 
 339:lvgl/lvgl/src/core/lv_obj_scroll.c ****     lv_obj_scroll_by(obj, diff, 0, anim_en);
 340:lvgl/lvgl/src/core/lv_obj_scroll.c **** }
 341:lvgl/lvgl/src/core/lv_obj_scroll.c **** 
 342:lvgl/lvgl/src/core/lv_obj_scroll.c **** void lv_obj_scroll_to_y(lv_obj_t * obj, lv_coord_t y, lv_anim_enable_t anim_en)
 343:lvgl/lvgl/src/core/lv_obj_scroll.c **** {
 344:lvgl/lvgl/src/core/lv_obj_scroll.c ****     lv_anim_del(obj, scroll_y_anim);
 345:lvgl/lvgl/src/core/lv_obj_scroll.c **** 
 346:lvgl/lvgl/src/core/lv_obj_scroll.c ****     /*Don't let scroll more then naturally possible by the size of the content*/
 347:lvgl/lvgl/src/core/lv_obj_scroll.c ****     if(y < 0) y = 0;
 348:lvgl/lvgl/src/core/lv_obj_scroll.c ****     if(y > 0) {
 349:lvgl/lvgl/src/core/lv_obj_scroll.c ****         lv_coord_t  scroll_max = lv_obj_get_scroll_top(obj) + lv_obj_get_scroll_bottom(obj);
 350:lvgl/lvgl/src/core/lv_obj_scroll.c ****         if(scroll_max < 0) scroll_max = 0;
 351:lvgl/lvgl/src/core/lv_obj_scroll.c ****         if(y > scroll_max) y = scroll_max;
 352:lvgl/lvgl/src/core/lv_obj_scroll.c ****     }
 353:lvgl/lvgl/src/core/lv_obj_scroll.c **** 
 354:lvgl/lvgl/src/core/lv_obj_scroll.c ****     lv_coord_t scroll_y = lv_obj_get_scroll_y(obj);
 355:lvgl/lvgl/src/core/lv_obj_scroll.c ****     lv_coord_t diff = -y + scroll_y;
 356:lvgl/lvgl/src/core/lv_obj_scroll.c **** 
 357:lvgl/lvgl/src/core/lv_obj_scroll.c ****     lv_obj_scroll_by(obj, 0, diff, anim_en);
 358:lvgl/lvgl/src/core/lv_obj_scroll.c **** }
 359:lvgl/lvgl/src/core/lv_obj_scroll.c **** 
 360:lvgl/lvgl/src/core/lv_obj_scroll.c **** void lv_obj_scroll_to_view(lv_obj_t * obj, lv_anim_enable_t anim_en)
 361:lvgl/lvgl/src/core/lv_obj_scroll.c **** {
 362:lvgl/lvgl/src/core/lv_obj_scroll.c ****     /*Be sure the screens layout is correct*/
 363:lvgl/lvgl/src/core/lv_obj_scroll.c ****     lv_obj_update_layout(obj);
 364:lvgl/lvgl/src/core/lv_obj_scroll.c **** 
 365:lvgl/lvgl/src/core/lv_obj_scroll.c ****     lv_point_t p = {0, 0};
 366:lvgl/lvgl/src/core/lv_obj_scroll.c ****     scroll_area_into_view(&obj->coords, obj, &p, anim_en);
 367:lvgl/lvgl/src/core/lv_obj_scroll.c **** }
 368:lvgl/lvgl/src/core/lv_obj_scroll.c **** 
 369:lvgl/lvgl/src/core/lv_obj_scroll.c **** void lv_obj_scroll_to_view_recursive(lv_obj_t * obj, lv_anim_enable_t anim_en)
 370:lvgl/lvgl/src/core/lv_obj_scroll.c **** {
 371:lvgl/lvgl/src/core/lv_obj_scroll.c ****     /*Be sure the screens layout is correct*/
 372:lvgl/lvgl/src/core/lv_obj_scroll.c ****     lv_obj_update_layout(obj);
ARM GAS  C:\Users\gx\AppData\Local\Temp\ccHlQRWF.s 			page 8


 373:lvgl/lvgl/src/core/lv_obj_scroll.c **** 
 374:lvgl/lvgl/src/core/lv_obj_scroll.c ****     lv_point_t p = {0, 0};
 375:lvgl/lvgl/src/core/lv_obj_scroll.c ****     lv_obj_t * child = obj;
 376:lvgl/lvgl/src/core/lv_obj_scroll.c ****     lv_obj_t * parent = lv_obj_get_parent(child);
 377:lvgl/lvgl/src/core/lv_obj_scroll.c ****     while(parent) {
 378:lvgl/lvgl/src/core/lv_obj_scroll.c ****         scroll_area_into_view(&obj->coords, child, &p, anim_en);
 379:lvgl/lvgl/src/core/lv_obj_scroll.c ****         child = parent;
 380:lvgl/lvgl/src/core/lv_obj_scroll.c ****         parent = lv_obj_get_parent(parent);
 381:lvgl/lvgl/src/core/lv_obj_scroll.c ****     }
 382:lvgl/lvgl/src/core/lv_obj_scroll.c **** }
 383:lvgl/lvgl/src/core/lv_obj_scroll.c **** 
 384:lvgl/lvgl/src/core/lv_obj_scroll.c **** bool lv_obj_is_scrolling(const lv_obj_t * obj)
 385:lvgl/lvgl/src/core/lv_obj_scroll.c **** {
 386:lvgl/lvgl/src/core/lv_obj_scroll.c ****     lv_indev_t * indev = lv_indev_get_next(NULL);
 387:lvgl/lvgl/src/core/lv_obj_scroll.c ****     while(indev) {
 388:lvgl/lvgl/src/core/lv_obj_scroll.c ****         if(lv_indev_get_scroll_obj(indev) == obj) return true;
 389:lvgl/lvgl/src/core/lv_obj_scroll.c ****         indev = lv_indev_get_next(indev);
 390:lvgl/lvgl/src/core/lv_obj_scroll.c ****     }
 391:lvgl/lvgl/src/core/lv_obj_scroll.c **** 
 392:lvgl/lvgl/src/core/lv_obj_scroll.c ****     return false;
 393:lvgl/lvgl/src/core/lv_obj_scroll.c **** }
 394:lvgl/lvgl/src/core/lv_obj_scroll.c **** 
 395:lvgl/lvgl/src/core/lv_obj_scroll.c **** void lv_obj_update_snap(lv_obj_t * obj, lv_anim_enable_t anim_en)
 396:lvgl/lvgl/src/core/lv_obj_scroll.c **** {
 397:lvgl/lvgl/src/core/lv_obj_scroll.c ****     lv_obj_update_layout(obj);
 398:lvgl/lvgl/src/core/lv_obj_scroll.c ****     lv_point_t p;
 399:lvgl/lvgl/src/core/lv_obj_scroll.c ****     lv_indev_scroll_get_snap_dist(obj, &p);
 400:lvgl/lvgl/src/core/lv_obj_scroll.c ****     lv_obj_scroll_by(obj, p.x, p.y, anim_en);
 401:lvgl/lvgl/src/core/lv_obj_scroll.c **** }
 402:lvgl/lvgl/src/core/lv_obj_scroll.c **** 
 403:lvgl/lvgl/src/core/lv_obj_scroll.c **** void lv_obj_get_scrollbar_area(lv_obj_t * obj, lv_area_t * hor_area, lv_area_t * ver_area)
 404:lvgl/lvgl/src/core/lv_obj_scroll.c **** {
 405:lvgl/lvgl/src/core/lv_obj_scroll.c ****     lv_area_set(hor_area, 0, 0, -1, -1);
 406:lvgl/lvgl/src/core/lv_obj_scroll.c ****     lv_area_set(ver_area, 0, 0, -1, -1);
 407:lvgl/lvgl/src/core/lv_obj_scroll.c **** 
 408:lvgl/lvgl/src/core/lv_obj_scroll.c ****     if(lv_obj_has_flag(obj, LV_OBJ_FLAG_SCROLLABLE) == false) return;
 409:lvgl/lvgl/src/core/lv_obj_scroll.c **** 
 410:lvgl/lvgl/src/core/lv_obj_scroll.c ****     lv_dir_t sm = lv_obj_get_scrollbar_mode(obj);
 411:lvgl/lvgl/src/core/lv_obj_scroll.c ****     if(sm == LV_SCROLLBAR_MODE_OFF)  return;
 412:lvgl/lvgl/src/core/lv_obj_scroll.c **** 
 413:lvgl/lvgl/src/core/lv_obj_scroll.c ****     /*If there is no indev scrolling this object but `mode==active` return*/
 414:lvgl/lvgl/src/core/lv_obj_scroll.c ****     lv_indev_t * indev = lv_indev_get_next(NULL);
 415:lvgl/lvgl/src/core/lv_obj_scroll.c ****     if(sm == LV_SCROLLBAR_MODE_ACTIVE) {
 416:lvgl/lvgl/src/core/lv_obj_scroll.c ****         while(indev) {
 417:lvgl/lvgl/src/core/lv_obj_scroll.c ****             if(lv_indev_get_scroll_obj(indev) == obj) break;
 418:lvgl/lvgl/src/core/lv_obj_scroll.c ****             indev = lv_indev_get_next(indev);
 419:lvgl/lvgl/src/core/lv_obj_scroll.c ****         }
 420:lvgl/lvgl/src/core/lv_obj_scroll.c ****         if(indev == NULL)  return;
 421:lvgl/lvgl/src/core/lv_obj_scroll.c ****     }
 422:lvgl/lvgl/src/core/lv_obj_scroll.c **** 
 423:lvgl/lvgl/src/core/lv_obj_scroll.c ****     lv_coord_t st = lv_obj_get_scroll_top(obj);
 424:lvgl/lvgl/src/core/lv_obj_scroll.c ****     lv_coord_t sb = lv_obj_get_scroll_bottom(obj);
 425:lvgl/lvgl/src/core/lv_obj_scroll.c ****     lv_coord_t sl = lv_obj_get_scroll_left(obj);
 426:lvgl/lvgl/src/core/lv_obj_scroll.c ****     lv_coord_t sr = lv_obj_get_scroll_right(obj);
 427:lvgl/lvgl/src/core/lv_obj_scroll.c **** 
 428:lvgl/lvgl/src/core/lv_obj_scroll.c ****     lv_dir_t dir = lv_obj_get_scroll_dir(obj);
 429:lvgl/lvgl/src/core/lv_obj_scroll.c **** 
ARM GAS  C:\Users\gx\AppData\Local\Temp\ccHlQRWF.s 			page 9


 430:lvgl/lvgl/src/core/lv_obj_scroll.c ****     bool ver_draw = false;
 431:lvgl/lvgl/src/core/lv_obj_scroll.c ****     if((dir & LV_DIR_VER) &&
 432:lvgl/lvgl/src/core/lv_obj_scroll.c ****             ((sm == LV_SCROLLBAR_MODE_ON) ||
 433:lvgl/lvgl/src/core/lv_obj_scroll.c ****                     (sm == LV_SCROLLBAR_MODE_AUTO && (st > 0 || sb > 0)) ||
 434:lvgl/lvgl/src/core/lv_obj_scroll.c ****                     (sm == LV_SCROLLBAR_MODE_ACTIVE && lv_indev_get_scroll_dir(indev) == LV_DIR_VER
 435:lvgl/lvgl/src/core/lv_obj_scroll.c ****         ver_draw = true;
 436:lvgl/lvgl/src/core/lv_obj_scroll.c ****     }
 437:lvgl/lvgl/src/core/lv_obj_scroll.c **** 
 438:lvgl/lvgl/src/core/lv_obj_scroll.c **** 
 439:lvgl/lvgl/src/core/lv_obj_scroll.c ****     bool hor_draw = false;
 440:lvgl/lvgl/src/core/lv_obj_scroll.c ****     if((dir & LV_DIR_HOR) &&
 441:lvgl/lvgl/src/core/lv_obj_scroll.c ****             ((sm == LV_SCROLLBAR_MODE_ON) ||
 442:lvgl/lvgl/src/core/lv_obj_scroll.c ****                     (sm == LV_SCROLLBAR_MODE_AUTO && (sl > 0 || sr > 0)) ||
 443:lvgl/lvgl/src/core/lv_obj_scroll.c ****                     (sm == LV_SCROLLBAR_MODE_ACTIVE && lv_indev_get_scroll_dir(indev) == LV_DIR_HOR
 444:lvgl/lvgl/src/core/lv_obj_scroll.c ****         hor_draw = true;
 445:lvgl/lvgl/src/core/lv_obj_scroll.c ****     }
 446:lvgl/lvgl/src/core/lv_obj_scroll.c **** 
 447:lvgl/lvgl/src/core/lv_obj_scroll.c ****     if(!hor_draw && !ver_draw) return;
 448:lvgl/lvgl/src/core/lv_obj_scroll.c **** 
 449:lvgl/lvgl/src/core/lv_obj_scroll.c ****     lv_coord_t end_space = lv_obj_get_style_pad_top(obj, LV_PART_SCROLLBAR);
 450:lvgl/lvgl/src/core/lv_obj_scroll.c ****     lv_coord_t side_space = lv_obj_get_style_pad_right(obj, LV_PART_SCROLLBAR);
 451:lvgl/lvgl/src/core/lv_obj_scroll.c ****     lv_coord_t tickness = lv_obj_get_style_width(obj, LV_PART_SCROLLBAR);
 452:lvgl/lvgl/src/core/lv_obj_scroll.c **** 
 453:lvgl/lvgl/src/core/lv_obj_scroll.c ****     lv_coord_t obj_h = lv_obj_get_height(obj);
 454:lvgl/lvgl/src/core/lv_obj_scroll.c ****     lv_coord_t obj_w = lv_obj_get_width(obj);
 455:lvgl/lvgl/src/core/lv_obj_scroll.c **** 
 456:lvgl/lvgl/src/core/lv_obj_scroll.c ****     lv_coord_t ver_reg_space = ver_draw ? tickness + side_space : 0;
 457:lvgl/lvgl/src/core/lv_obj_scroll.c ****     lv_coord_t hor_req_space = hor_draw ? tickness + side_space : 0;
 458:lvgl/lvgl/src/core/lv_obj_scroll.c ****     lv_coord_t rem;
 459:lvgl/lvgl/src/core/lv_obj_scroll.c **** 
 460:lvgl/lvgl/src/core/lv_obj_scroll.c ****     if(lv_obj_get_style_bg_opa(obj, LV_PART_SCROLLBAR) < LV_OPA_MIN &&
 461:lvgl/lvgl/src/core/lv_obj_scroll.c ****        lv_obj_get_style_border_opa(obj, LV_PART_SCROLLBAR) < LV_OPA_MIN) {
 462:lvgl/lvgl/src/core/lv_obj_scroll.c ****         return;
 463:lvgl/lvgl/src/core/lv_obj_scroll.c ****     }
 464:lvgl/lvgl/src/core/lv_obj_scroll.c **** 
 465:lvgl/lvgl/src/core/lv_obj_scroll.c ****     /*Draw horizontal scrollbar if the mode is ON or can be scrolled in this direction*/
 466:lvgl/lvgl/src/core/lv_obj_scroll.c ****     lv_coord_t content_h = obj_h + st + sb;
 467:lvgl/lvgl/src/core/lv_obj_scroll.c ****     if(ver_draw && content_h) {
 468:lvgl/lvgl/src/core/lv_obj_scroll.c ****        ver_area->y1 = obj->coords.y1;
 469:lvgl/lvgl/src/core/lv_obj_scroll.c ****        ver_area->y2 = obj->coords.y2;
 470:lvgl/lvgl/src/core/lv_obj_scroll.c ****        ver_area->x2 = obj->coords.x2 - side_space;
 471:lvgl/lvgl/src/core/lv_obj_scroll.c ****        ver_area->x1 =ver_area->x2 - tickness;
 472:lvgl/lvgl/src/core/lv_obj_scroll.c **** 
 473:lvgl/lvgl/src/core/lv_obj_scroll.c ****         lv_coord_t sb_h = ((obj_h - end_space * 2 - hor_req_space) * obj_h) / content_h;
 474:lvgl/lvgl/src/core/lv_obj_scroll.c ****         sb_h = LV_MAX(sb_h, SCROLLBAR_MIN_SIZE);
 475:lvgl/lvgl/src/core/lv_obj_scroll.c ****         rem = (obj_h - end_space * 2 - hor_req_space) - sb_h;  /*Remaining size from the scrollbar 
 476:lvgl/lvgl/src/core/lv_obj_scroll.c ****         lv_coord_t scroll_h = content_h - obj_h; /*The size of the content which can be really scro
 477:lvgl/lvgl/src/core/lv_obj_scroll.c ****         if(scroll_h <= 0) {
 478:lvgl/lvgl/src/core/lv_obj_scroll.c ****            ver_area->y1 = obj->coords.y1 + end_space;
 479:lvgl/lvgl/src/core/lv_obj_scroll.c ****            ver_area->y2 = obj->coords.y2 - end_space - hor_req_space - 1;
 480:lvgl/lvgl/src/core/lv_obj_scroll.c ****            ver_area->x2 = obj->coords.x2 - side_space;
 481:lvgl/lvgl/src/core/lv_obj_scroll.c ****            ver_area->x1 =ver_area->x2 - tickness + 1;
 482:lvgl/lvgl/src/core/lv_obj_scroll.c ****         } else {
 483:lvgl/lvgl/src/core/lv_obj_scroll.c ****             lv_coord_t sb_y = (rem * sb) / scroll_h;
 484:lvgl/lvgl/src/core/lv_obj_scroll.c ****             sb_y = rem - sb_y;
 485:lvgl/lvgl/src/core/lv_obj_scroll.c **** 
 486:lvgl/lvgl/src/core/lv_obj_scroll.c ****            ver_area->y1 = obj->coords.y1 + sb_y + end_space;
ARM GAS  C:\Users\gx\AppData\Local\Temp\ccHlQRWF.s 			page 10


 487:lvgl/lvgl/src/core/lv_obj_scroll.c ****            ver_area->y2 =ver_area->y1 + sb_h - 1;
 488:lvgl/lvgl/src/core/lv_obj_scroll.c ****            ver_area->x2 = obj->coords.x2 - side_space;
 489:lvgl/lvgl/src/core/lv_obj_scroll.c ****            ver_area->x1 =ver_area->x2 - tickness;
 490:lvgl/lvgl/src/core/lv_obj_scroll.c ****             if(ver_area->y1 < obj->coords.y1 + end_space) {
 491:lvgl/lvgl/src/core/lv_obj_scroll.c ****                ver_area->y1 = obj->coords.y1 + end_space;
 492:lvgl/lvgl/src/core/lv_obj_scroll.c ****                 if(ver_area->y1 + SCROLLBAR_MIN_SIZE >ver_area->y2)ver_area->y2 =ver_area->y1 + SCR
 493:lvgl/lvgl/src/core/lv_obj_scroll.c ****             }
 494:lvgl/lvgl/src/core/lv_obj_scroll.c ****             if(ver_area->y2 > obj->coords.y2 - hor_req_space - end_space) {
 495:lvgl/lvgl/src/core/lv_obj_scroll.c ****                ver_area->y2 = obj->coords.y2 - hor_req_space - end_space;
 496:lvgl/lvgl/src/core/lv_obj_scroll.c ****                 if(ver_area->y2 - SCROLLBAR_MIN_SIZE <ver_area->y1)ver_area->y1 =ver_area->y2 - SCR
 497:lvgl/lvgl/src/core/lv_obj_scroll.c ****             }
 498:lvgl/lvgl/src/core/lv_obj_scroll.c ****         }
 499:lvgl/lvgl/src/core/lv_obj_scroll.c ****     }
 500:lvgl/lvgl/src/core/lv_obj_scroll.c **** 
 501:lvgl/lvgl/src/core/lv_obj_scroll.c ****     /*Draw horizontal scrollbar if the mode is ON or can be scrolled in this direction*/
 502:lvgl/lvgl/src/core/lv_obj_scroll.c ****     lv_coord_t content_w = obj_w + sl + sr;
 503:lvgl/lvgl/src/core/lv_obj_scroll.c ****     if(hor_draw && content_w) {
 504:lvgl/lvgl/src/core/lv_obj_scroll.c ****         hor_area->y2 = obj->coords.y2 - side_space;
 505:lvgl/lvgl/src/core/lv_obj_scroll.c ****         hor_area->y1 = hor_area->y2 - tickness;
 506:lvgl/lvgl/src/core/lv_obj_scroll.c ****         hor_area->x1 = obj->coords.x1;
 507:lvgl/lvgl/src/core/lv_obj_scroll.c ****         hor_area->x2 = obj->coords.x2;
 508:lvgl/lvgl/src/core/lv_obj_scroll.c **** 
 509:lvgl/lvgl/src/core/lv_obj_scroll.c ****         lv_coord_t sb_w = ((obj_w - end_space * 2 - ver_reg_space) * obj_w) / content_w;
 510:lvgl/lvgl/src/core/lv_obj_scroll.c ****         sb_w = LV_MAX(sb_w, SCROLLBAR_MIN_SIZE);
 511:lvgl/lvgl/src/core/lv_obj_scroll.c ****         rem = (obj_w - end_space * 2 - ver_reg_space) - sb_w;  /*Remaining size from the scrollbar 
 512:lvgl/lvgl/src/core/lv_obj_scroll.c ****         lv_coord_t scroll_w = content_w - obj_w; /*The size of the content which can be really scro
 513:lvgl/lvgl/src/core/lv_obj_scroll.c ****         if(scroll_w <= 0) {
 514:lvgl/lvgl/src/core/lv_obj_scroll.c ****             hor_area->y2 = obj->coords.y2 - side_space;
 515:lvgl/lvgl/src/core/lv_obj_scroll.c ****             hor_area->y1 = hor_area->y2 - tickness + 1;
 516:lvgl/lvgl/src/core/lv_obj_scroll.c ****             hor_area->x1 = obj->coords.x1 + end_space;
 517:lvgl/lvgl/src/core/lv_obj_scroll.c ****             hor_area->x2 = obj->coords.x2 - end_space - ver_reg_space - 1;
 518:lvgl/lvgl/src/core/lv_obj_scroll.c ****         } else {
 519:lvgl/lvgl/src/core/lv_obj_scroll.c ****             lv_coord_t sb_x = (rem * sr) / scroll_w;
 520:lvgl/lvgl/src/core/lv_obj_scroll.c ****             sb_x = rem - sb_x;
 521:lvgl/lvgl/src/core/lv_obj_scroll.c **** 
 522:lvgl/lvgl/src/core/lv_obj_scroll.c ****             hor_area->x1 = obj->coords.x1 + sb_x + end_space;
 523:lvgl/lvgl/src/core/lv_obj_scroll.c ****             hor_area->x2 = hor_area->x1 + sb_w - 1;
 524:lvgl/lvgl/src/core/lv_obj_scroll.c ****             hor_area->y2 = obj->coords.y2 - side_space;
 525:lvgl/lvgl/src/core/lv_obj_scroll.c ****             hor_area->y1 = hor_area->y2 - tickness;
 526:lvgl/lvgl/src/core/lv_obj_scroll.c ****             if(hor_area->x1 < obj->coords.x1 + end_space) {
 527:lvgl/lvgl/src/core/lv_obj_scroll.c ****                 hor_area->x1 = obj->coords.x1 + end_space;
 528:lvgl/lvgl/src/core/lv_obj_scroll.c ****                 if(hor_area->x1 + SCROLLBAR_MIN_SIZE > hor_area->x2) hor_area->x2 = hor_area->x1 + 
 529:lvgl/lvgl/src/core/lv_obj_scroll.c ****             }
 530:lvgl/lvgl/src/core/lv_obj_scroll.c ****             if(hor_area->x2 > obj->coords.x2 - ver_reg_space - end_space) {
 531:lvgl/lvgl/src/core/lv_obj_scroll.c ****                 hor_area->x2 = obj->coords.x2 - ver_reg_space - end_space;
 532:lvgl/lvgl/src/core/lv_obj_scroll.c ****                 if(hor_area->x2 - SCROLLBAR_MIN_SIZE < hor_area->x1) hor_area->x1 = hor_area->x2 - 
 533:lvgl/lvgl/src/core/lv_obj_scroll.c ****             }
 534:lvgl/lvgl/src/core/lv_obj_scroll.c ****         }
 535:lvgl/lvgl/src/core/lv_obj_scroll.c ****     }
 536:lvgl/lvgl/src/core/lv_obj_scroll.c **** }
 537:lvgl/lvgl/src/core/lv_obj_scroll.c **** 
 538:lvgl/lvgl/src/core/lv_obj_scroll.c **** void lv_obj_scrollbar_invalidate(lv_obj_t * obj)
 539:lvgl/lvgl/src/core/lv_obj_scroll.c **** {
 540:lvgl/lvgl/src/core/lv_obj_scroll.c ****     lv_area_t hor_area;
 541:lvgl/lvgl/src/core/lv_obj_scroll.c ****     lv_area_t ver_area;
 542:lvgl/lvgl/src/core/lv_obj_scroll.c ****     lv_obj_get_scrollbar_area(obj, &hor_area, &ver_area);
 543:lvgl/lvgl/src/core/lv_obj_scroll.c **** 
ARM GAS  C:\Users\gx\AppData\Local\Temp\ccHlQRWF.s 			page 11


 544:lvgl/lvgl/src/core/lv_obj_scroll.c ****     if(lv_area_get_size(&hor_area) <= 0 && lv_area_get_size(&ver_area) <= 0) return;
 545:lvgl/lvgl/src/core/lv_obj_scroll.c **** 
 546:lvgl/lvgl/src/core/lv_obj_scroll.c ****     if(lv_area_get_size(&hor_area) > 0) lv_obj_invalidate_area(obj, &hor_area);
 547:lvgl/lvgl/src/core/lv_obj_scroll.c ****     if(lv_area_get_size(&ver_area) > 0) lv_obj_invalidate_area(obj, &ver_area);
 548:lvgl/lvgl/src/core/lv_obj_scroll.c **** }
 549:lvgl/lvgl/src/core/lv_obj_scroll.c **** 
 550:lvgl/lvgl/src/core/lv_obj_scroll.c **** void lv_obj_readjust_scroll(lv_obj_t * obj, lv_anim_enable_t anim_en)
 551:lvgl/lvgl/src/core/lv_obj_scroll.c **** {
 552:lvgl/lvgl/src/core/lv_obj_scroll.c ****     /*Be sure the bottom side is not remains scrolled in*/
 553:lvgl/lvgl/src/core/lv_obj_scroll.c ****     /*With snapping the content can't be scrolled in*/
 554:lvgl/lvgl/src/core/lv_obj_scroll.c ****     if(lv_obj_get_scroll_snap_y(obj) == LV_SCROLL_SNAP_NONE) {
 555:lvgl/lvgl/src/core/lv_obj_scroll.c ****         lv_coord_t st = lv_obj_get_scroll_top(obj);
 556:lvgl/lvgl/src/core/lv_obj_scroll.c ****         lv_coord_t sb = lv_obj_get_scroll_bottom(obj);
 557:lvgl/lvgl/src/core/lv_obj_scroll.c ****         if(sb < 0 && st > 0) {
 558:lvgl/lvgl/src/core/lv_obj_scroll.c ****             sb = LV_MIN(st, -sb);
 559:lvgl/lvgl/src/core/lv_obj_scroll.c ****             lv_obj_scroll_by(obj, 0, sb, anim_en);
 560:lvgl/lvgl/src/core/lv_obj_scroll.c ****         }
 561:lvgl/lvgl/src/core/lv_obj_scroll.c ****     }
 562:lvgl/lvgl/src/core/lv_obj_scroll.c **** 
 563:lvgl/lvgl/src/core/lv_obj_scroll.c ****     if(lv_obj_get_scroll_snap_x(obj) == LV_SCROLL_SNAP_NONE) {
 564:lvgl/lvgl/src/core/lv_obj_scroll.c ****         lv_coord_t sl = lv_obj_get_scroll_left(obj);
 565:lvgl/lvgl/src/core/lv_obj_scroll.c ****         lv_coord_t sr = lv_obj_get_scroll_right(obj);
 566:lvgl/lvgl/src/core/lv_obj_scroll.c ****         if(lv_obj_get_style_base_dir(obj, LV_PART_MAIN) != LV_BASE_DIR_RTL) {
 567:lvgl/lvgl/src/core/lv_obj_scroll.c ****             /*Be sure the left side is not remains scrolled in*/
 568:lvgl/lvgl/src/core/lv_obj_scroll.c ****             if(sr < 0 && sl > 0) {
 569:lvgl/lvgl/src/core/lv_obj_scroll.c ****                 sr = LV_MIN(sl, -sr);
 570:lvgl/lvgl/src/core/lv_obj_scroll.c ****                 lv_obj_scroll_by(obj, sr, 0, anim_en);
 571:lvgl/lvgl/src/core/lv_obj_scroll.c ****             }
 572:lvgl/lvgl/src/core/lv_obj_scroll.c ****         } else {
 573:lvgl/lvgl/src/core/lv_obj_scroll.c ****             /*Be sure the right side is not remains scrolled in*/
 574:lvgl/lvgl/src/core/lv_obj_scroll.c ****             if(sl < 0 && sr > 0) {
 575:lvgl/lvgl/src/core/lv_obj_scroll.c ****                 sr = LV_MIN(sr, -sl);
 576:lvgl/lvgl/src/core/lv_obj_scroll.c ****                 lv_obj_scroll_by(obj, sl, 0, anim_en);
 577:lvgl/lvgl/src/core/lv_obj_scroll.c ****             }
 578:lvgl/lvgl/src/core/lv_obj_scroll.c ****         }
 579:lvgl/lvgl/src/core/lv_obj_scroll.c ****     }
 580:lvgl/lvgl/src/core/lv_obj_scroll.c **** }
 581:lvgl/lvgl/src/core/lv_obj_scroll.c **** 
 582:lvgl/lvgl/src/core/lv_obj_scroll.c **** /**********************
 583:lvgl/lvgl/src/core/lv_obj_scroll.c ****  *   STATIC FUNCTIONS
 584:lvgl/lvgl/src/core/lv_obj_scroll.c ****  **********************/
 585:lvgl/lvgl/src/core/lv_obj_scroll.c **** 
 586:lvgl/lvgl/src/core/lv_obj_scroll.c **** static void scroll_by_raw(lv_obj_t * obj, lv_coord_t x, lv_coord_t y)
 587:lvgl/lvgl/src/core/lv_obj_scroll.c **** {
  29              		.loc 1 587 1 view -0
  30              		.cfi_startproc
  31              		@ args = 0, pretend = 0, frame = 0
  32              		@ frame_needed = 0, uses_anonymous_args = 0
  33              		.loc 1 587 1 is_stmt 0 view .LVU1
  34 0000 70B5     		push	{r4, r5, r6, lr}
  35              	.LCFI0:
  36              		.cfi_def_cfa_offset 16
  37              		.cfi_offset 4, -16
  38              		.cfi_offset 5, -12
  39              		.cfi_offset 6, -8
  40              		.cfi_offset 14, -4
  41 0002 0446     		mov	r4, r0
ARM GAS  C:\Users\gx\AppData\Local\Temp\ccHlQRWF.s 			page 12


  42 0004 1546     		mov	r5, r2
 588:lvgl/lvgl/src/core/lv_obj_scroll.c ****     if(x == 0 && y == 0) return;
  43              		.loc 1 588 5 is_stmt 1 view .LVU2
  44              		.loc 1 588 7 is_stmt 0 view .LVU3
  45 0006 0E46     		mov	r6, r1
  46 0008 01B9     		cbnz	r1, .L2
  47              		.loc 1 588 15 discriminator 1 view .LVU4
  48 000a BAB1     		cbz	r2, .L1
  49              	.L2:
 589:lvgl/lvgl/src/core/lv_obj_scroll.c **** 
 590:lvgl/lvgl/src/core/lv_obj_scroll.c ****     lv_obj_allocate_spec_attr(obj);
  50              		.loc 1 590 5 is_stmt 1 view .LVU5
  51 000c 2046     		mov	r0, r4
  52              	.LVL1:
  53              		.loc 1 590 5 is_stmt 0 view .LVU6
  54 000e FFF7FEFF 		bl	lv_obj_allocate_spec_attr
  55              	.LVL2:
 591:lvgl/lvgl/src/core/lv_obj_scroll.c **** 
 592:lvgl/lvgl/src/core/lv_obj_scroll.c ****     obj->spec_attr->scroll.x += x;
  56              		.loc 1 592 5 is_stmt 1 view .LVU7
  57              		.loc 1 592 8 is_stmt 0 view .LVU8
  58 0012 A268     		ldr	r2, [r4, #8]
  59              		.loc 1 592 30 view .LVU9
  60 0014 138A     		ldrh	r3, [r2, #16]
  61 0016 3344     		add	r3, r3, r6
  62 0018 1382     		strh	r3, [r2, #16]	@ movhi
 593:lvgl/lvgl/src/core/lv_obj_scroll.c ****     obj->spec_attr->scroll.y += y;
  63              		.loc 1 593 5 is_stmt 1 view .LVU10
  64              		.loc 1 593 8 is_stmt 0 view .LVU11
  65 001a A268     		ldr	r2, [r4, #8]
  66              		.loc 1 593 30 view .LVU12
  67 001c 538A     		ldrh	r3, [r2, #18]
  68 001e 2B44     		add	r3, r3, r5
  69 0020 5382     		strh	r3, [r2, #18]	@ movhi
 594:lvgl/lvgl/src/core/lv_obj_scroll.c **** 
 595:lvgl/lvgl/src/core/lv_obj_scroll.c ****     lv_obj_move_children_by(obj, x, y, true);
  70              		.loc 1 595 5 is_stmt 1 view .LVU13
  71 0022 0123     		movs	r3, #1
  72 0024 2A46     		mov	r2, r5
  73 0026 3146     		mov	r1, r6
  74 0028 2046     		mov	r0, r4
  75 002a FFF7FEFF 		bl	lv_obj_move_children_by
  76              	.LVL3:
 596:lvgl/lvgl/src/core/lv_obj_scroll.c ****     lv_res_t res = lv_event_send(obj, LV_EVENT_SCROLL, NULL);
  77              		.loc 1 596 5 view .LVU14
  78              		.loc 1 596 20 is_stmt 0 view .LVU15
  79 002e 0022     		movs	r2, #0
  80 0030 0B21     		movs	r1, #11
  81 0032 2046     		mov	r0, r4
  82 0034 FFF7FEFF 		bl	lv_event_send
  83              	.LVL4:
 597:lvgl/lvgl/src/core/lv_obj_scroll.c ****     if(res != LV_RES_OK) return;
  84              		.loc 1 597 5 is_stmt 1 view .LVU16
  85              		.loc 1 597 7 is_stmt 0 view .LVU17
  86 0038 0128     		cmp	r0, #1
  87 003a 00D0     		beq	.L5
  88              	.LVL5:
ARM GAS  C:\Users\gx\AppData\Local\Temp\ccHlQRWF.s 			page 13


  89              	.L1:
 598:lvgl/lvgl/src/core/lv_obj_scroll.c ****     lv_obj_invalidate(obj);
 599:lvgl/lvgl/src/core/lv_obj_scroll.c **** }
  90              		.loc 1 599 1 view .LVU18
  91 003c 70BD     		pop	{r4, r5, r6, pc}
  92              	.LVL6:
  93              	.L5:
 598:lvgl/lvgl/src/core/lv_obj_scroll.c ****     lv_obj_invalidate(obj);
  94              		.loc 1 598 5 is_stmt 1 view .LVU19
  95 003e 2046     		mov	r0, r4
  96              	.LVL7:
 598:lvgl/lvgl/src/core/lv_obj_scroll.c ****     lv_obj_invalidate(obj);
  97              		.loc 1 598 5 is_stmt 0 view .LVU20
  98 0040 FFF7FEFF 		bl	lv_obj_invalidate
  99              	.LVL8:
 100 0044 FAE7     		b	.L1
 101              		.cfi_endproc
 102              	.LFE184:
 104              		.section	.text.scroll_anim_ready_cb,"ax",%progbits
 105              		.align	1
 106              		.syntax unified
 107              		.thumb
 108              		.thumb_func
 109              		.fpu fpv4-sp-d16
 111              	scroll_anim_ready_cb:
 112              	.LVL9:
 113              	.LFB187:
 600:lvgl/lvgl/src/core/lv_obj_scroll.c **** 
 601:lvgl/lvgl/src/core/lv_obj_scroll.c **** static void scroll_x_anim(void * obj, int32_t v)
 602:lvgl/lvgl/src/core/lv_obj_scroll.c **** {
 603:lvgl/lvgl/src/core/lv_obj_scroll.c ****     scroll_by_raw(obj, v + lv_obj_get_scroll_x(obj), 0);
 604:lvgl/lvgl/src/core/lv_obj_scroll.c **** }
 605:lvgl/lvgl/src/core/lv_obj_scroll.c **** 
 606:lvgl/lvgl/src/core/lv_obj_scroll.c **** static void scroll_y_anim(void * obj, int32_t v)
 607:lvgl/lvgl/src/core/lv_obj_scroll.c **** {
 608:lvgl/lvgl/src/core/lv_obj_scroll.c ****     scroll_by_raw(obj, 0, v + lv_obj_get_scroll_y(obj));
 609:lvgl/lvgl/src/core/lv_obj_scroll.c **** }
 610:lvgl/lvgl/src/core/lv_obj_scroll.c **** 
 611:lvgl/lvgl/src/core/lv_obj_scroll.c **** static void scroll_anim_ready_cb(lv_anim_t * a)
 612:lvgl/lvgl/src/core/lv_obj_scroll.c **** {
 114              		.loc 1 612 1 is_stmt 1 view -0
 115              		.cfi_startproc
 116              		@ args = 0, pretend = 0, frame = 0
 117              		@ frame_needed = 0, uses_anonymous_args = 0
 118              		.loc 1 612 1 is_stmt 0 view .LVU22
 119 0000 08B5     		push	{r3, lr}
 120              	.LCFI1:
 121              		.cfi_def_cfa_offset 8
 122              		.cfi_offset 3, -8
 123              		.cfi_offset 14, -4
 613:lvgl/lvgl/src/core/lv_obj_scroll.c ****     lv_event_send(a->var, LV_EVENT_SCROLL_END, NULL);
 124              		.loc 1 613 5 is_stmt 1 view .LVU23
 125 0002 0022     		movs	r2, #0
 126 0004 0A21     		movs	r1, #10
 127 0006 0068     		ldr	r0, [r0]
 128              	.LVL10:
 129              		.loc 1 613 5 is_stmt 0 view .LVU24
ARM GAS  C:\Users\gx\AppData\Local\Temp\ccHlQRWF.s 			page 14


 130 0008 FFF7FEFF 		bl	lv_event_send
 131              	.LVL11:
 614:lvgl/lvgl/src/core/lv_obj_scroll.c **** }
 132              		.loc 1 614 1 view .LVU25
 133 000c 08BD     		pop	{r3, pc}
 134              		.cfi_endproc
 135              	.LFE187:
 137              		.section	.text.lv_obj_set_scrollbar_mode,"ax",%progbits
 138              		.align	1
 139              		.global	lv_obj_set_scrollbar_mode
 140              		.syntax unified
 141              		.thumb
 142              		.thumb_func
 143              		.fpu fpv4-sp-d16
 145              	lv_obj_set_scrollbar_mode:
 146              	.LVL12:
 147              	.LFB158:
  57:lvgl/lvgl/src/core/lv_obj_scroll.c ****     LV_ASSERT_OBJ(obj, MY_CLASS);
 148              		.loc 1 57 1 is_stmt 1 view -0
 149              		.cfi_startproc
 150              		@ args = 0, pretend = 0, frame = 0
 151              		@ frame_needed = 0, uses_anonymous_args = 0
  57:lvgl/lvgl/src/core/lv_obj_scroll.c ****     LV_ASSERT_OBJ(obj, MY_CLASS);
 152              		.loc 1 57 1 is_stmt 0 view .LVU27
 153 0000 38B5     		push	{r3, r4, r5, lr}
 154              	.LCFI2:
 155              		.cfi_def_cfa_offset 16
 156              		.cfi_offset 3, -16
 157              		.cfi_offset 4, -12
 158              		.cfi_offset 5, -8
 159              		.cfi_offset 14, -4
 160 0002 0446     		mov	r4, r0
 161 0004 0D46     		mov	r5, r1
  58:lvgl/lvgl/src/core/lv_obj_scroll.c **** 
 162              		.loc 1 58 5 is_stmt 1 view .LVU28
  58:lvgl/lvgl/src/core/lv_obj_scroll.c **** 
 163              		.loc 1 58 5 view .LVU29
  58:lvgl/lvgl/src/core/lv_obj_scroll.c **** 
 164              		.loc 1 58 5 view .LVU30
  60:lvgl/lvgl/src/core/lv_obj_scroll.c **** 
 165              		.loc 1 60 5 view .LVU31
 166 0006 FFF7FEFF 		bl	lv_obj_allocate_spec_attr
 167              	.LVL13:
  62:lvgl/lvgl/src/core/lv_obj_scroll.c ****     obj->spec_attr->scrollbar_mode = mode;
 168              		.loc 1 62 5 view .LVU32
  62:lvgl/lvgl/src/core/lv_obj_scroll.c ****     obj->spec_attr->scrollbar_mode = mode;
 169              		.loc 1 62 11 is_stmt 0 view .LVU33
 170 000a A268     		ldr	r2, [r4, #8]
  62:lvgl/lvgl/src/core/lv_obj_scroll.c ****     obj->spec_attr->scrollbar_mode = mode;
 171              		.loc 1 62 22 view .LVU34
 172 000c 137E     		ldrb	r3, [r2, #24]	@ zero_extendqisi2
 173 000e 03F00303 		and	r3, r3, #3
  62:lvgl/lvgl/src/core/lv_obj_scroll.c ****     obj->spec_attr->scrollbar_mode = mode;
 174              		.loc 1 62 7 view .LVU35
 175 0012 AB42     		cmp	r3, r5
 176 0014 06D0     		beq	.L8
  63:lvgl/lvgl/src/core/lv_obj_scroll.c ****     lv_obj_invalidate(obj);
ARM GAS  C:\Users\gx\AppData\Local\Temp\ccHlQRWF.s 			page 15


 177              		.loc 1 63 5 is_stmt 1 view .LVU36
  63:lvgl/lvgl/src/core/lv_obj_scroll.c ****     lv_obj_invalidate(obj);
 178              		.loc 1 63 36 is_stmt 0 view .LVU37
 179 0016 137E     		ldrb	r3, [r2, #24]	@ zero_extendqisi2
 180 0018 65F30103 		bfi	r3, r5, #0, #2
 181 001c 1376     		strb	r3, [r2, #24]
  64:lvgl/lvgl/src/core/lv_obj_scroll.c **** }
 182              		.loc 1 64 5 is_stmt 1 view .LVU38
 183 001e 2046     		mov	r0, r4
 184 0020 FFF7FEFF 		bl	lv_obj_invalidate
 185              	.LVL14:
 186              	.L8:
  65:lvgl/lvgl/src/core/lv_obj_scroll.c **** 
 187              		.loc 1 65 1 is_stmt 0 view .LVU39
 188 0024 38BD     		pop	{r3, r4, r5, pc}
  65:lvgl/lvgl/src/core/lv_obj_scroll.c **** 
 189              		.loc 1 65 1 view .LVU40
 190              		.cfi_endproc
 191              	.LFE158:
 193              		.section	.text.lv_obj_set_scroll_dir,"ax",%progbits
 194              		.align	1
 195              		.global	lv_obj_set_scroll_dir
 196              		.syntax unified
 197              		.thumb
 198              		.thumb_func
 199              		.fpu fpv4-sp-d16
 201              	lv_obj_set_scroll_dir:
 202              	.LVL15:
 203              	.LFB159:
  68:lvgl/lvgl/src/core/lv_obj_scroll.c ****     lv_obj_allocate_spec_attr(obj);
 204              		.loc 1 68 1 is_stmt 1 view -0
 205              		.cfi_startproc
 206              		@ args = 0, pretend = 0, frame = 0
 207              		@ frame_needed = 0, uses_anonymous_args = 0
  68:lvgl/lvgl/src/core/lv_obj_scroll.c ****     lv_obj_allocate_spec_attr(obj);
 208              		.loc 1 68 1 is_stmt 0 view .LVU42
 209 0000 38B5     		push	{r3, r4, r5, lr}
 210              	.LCFI3:
 211              		.cfi_def_cfa_offset 16
 212              		.cfi_offset 3, -16
 213              		.cfi_offset 4, -12
 214              		.cfi_offset 5, -8
 215              		.cfi_offset 14, -4
 216 0002 0546     		mov	r5, r0
 217 0004 0C46     		mov	r4, r1
  69:lvgl/lvgl/src/core/lv_obj_scroll.c **** 
 218              		.loc 1 69 5 is_stmt 1 view .LVU43
 219 0006 FFF7FEFF 		bl	lv_obj_allocate_spec_attr
 220              	.LVL16:
  71:lvgl/lvgl/src/core/lv_obj_scroll.c ****         obj->spec_attr->scroll_dir = dir;
 221              		.loc 1 71 5 view .LVU44
  71:lvgl/lvgl/src/core/lv_obj_scroll.c ****         obj->spec_attr->scroll_dir = dir;
 222              		.loc 1 71 18 is_stmt 0 view .LVU45
 223 000a AA68     		ldr	r2, [r5, #8]
  71:lvgl/lvgl/src/core/lv_obj_scroll.c ****         obj->spec_attr->scroll_dir = dir;
 224              		.loc 1 71 29 view .LVU46
 225 000c 537E     		ldrb	r3, [r2, #25]	@ zero_extendqisi2
ARM GAS  C:\Users\gx\AppData\Local\Temp\ccHlQRWF.s 			page 16


 226 000e 03F00F03 		and	r3, r3, #15
  71:lvgl/lvgl/src/core/lv_obj_scroll.c ****         obj->spec_attr->scroll_dir = dir;
 227              		.loc 1 71 7 view .LVU47
 228 0012 A342     		cmp	r3, r4
 229 0014 03D0     		beq	.L11
  72:lvgl/lvgl/src/core/lv_obj_scroll.c ****     }
 230              		.loc 1 72 9 is_stmt 1 view .LVU48
  72:lvgl/lvgl/src/core/lv_obj_scroll.c ****     }
 231              		.loc 1 72 36 is_stmt 0 view .LVU49
 232 0016 537E     		ldrb	r3, [r2, #25]	@ zero_extendqisi2
 233 0018 64F30303 		bfi	r3, r4, #0, #4
 234              	.LVL17:
  72:lvgl/lvgl/src/core/lv_obj_scroll.c ****     }
 235              		.loc 1 72 36 view .LVU50
 236 001c 5376     		strb	r3, [r2, #25]
 237              	.L11:
  74:lvgl/lvgl/src/core/lv_obj_scroll.c **** 
 238              		.loc 1 74 1 view .LVU51
 239 001e 38BD     		pop	{r3, r4, r5, pc}
  74:lvgl/lvgl/src/core/lv_obj_scroll.c **** 
 240              		.loc 1 74 1 view .LVU52
 241              		.cfi_endproc
 242              	.LFE159:
 244              		.section	.text.lv_obj_set_scroll_snap_x,"ax",%progbits
 245              		.align	1
 246              		.global	lv_obj_set_scroll_snap_x
 247              		.syntax unified
 248              		.thumb
 249              		.thumb_func
 250              		.fpu fpv4-sp-d16
 252              	lv_obj_set_scroll_snap_x:
 253              	.LVL18:
 254              	.LFB160:
  77:lvgl/lvgl/src/core/lv_obj_scroll.c ****     lv_obj_allocate_spec_attr(obj);
 255              		.loc 1 77 1 is_stmt 1 view -0
 256              		.cfi_startproc
 257              		@ args = 0, pretend = 0, frame = 0
 258              		@ frame_needed = 0, uses_anonymous_args = 0
  77:lvgl/lvgl/src/core/lv_obj_scroll.c ****     lv_obj_allocate_spec_attr(obj);
 259              		.loc 1 77 1 is_stmt 0 view .LVU54
 260 0000 38B5     		push	{r3, r4, r5, lr}
 261              	.LCFI4:
 262              		.cfi_def_cfa_offset 16
 263              		.cfi_offset 3, -16
 264              		.cfi_offset 4, -12
 265              		.cfi_offset 5, -8
 266              		.cfi_offset 14, -4
 267 0002 0546     		mov	r5, r0
 268 0004 0C46     		mov	r4, r1
  78:lvgl/lvgl/src/core/lv_obj_scroll.c ****     obj->spec_attr->scroll_snap_x = align;
 269              		.loc 1 78 5 is_stmt 1 view .LVU55
 270 0006 FFF7FEFF 		bl	lv_obj_allocate_spec_attr
 271              	.LVL19:
  79:lvgl/lvgl/src/core/lv_obj_scroll.c **** }
 272              		.loc 1 79 5 view .LVU56
  79:lvgl/lvgl/src/core/lv_obj_scroll.c **** }
 273              		.loc 1 79 8 is_stmt 0 view .LVU57
ARM GAS  C:\Users\gx\AppData\Local\Temp\ccHlQRWF.s 			page 17


 274 000a AB68     		ldr	r3, [r5, #8]
  79:lvgl/lvgl/src/core/lv_obj_scroll.c **** }
 275              		.loc 1 79 35 view .LVU58
 276 000c 1A7E     		ldrb	r2, [r3, #24]	@ zero_extendqisi2
 277 000e 64F38302 		bfi	r2, r4, #2, #2
 278 0012 1A76     		strb	r2, [r3, #24]
  80:lvgl/lvgl/src/core/lv_obj_scroll.c **** 
 279              		.loc 1 80 1 view .LVU59
 280 0014 38BD     		pop	{r3, r4, r5, pc}
  80:lvgl/lvgl/src/core/lv_obj_scroll.c **** 
 281              		.loc 1 80 1 view .LVU60
 282              		.cfi_endproc
 283              	.LFE160:
 285              		.section	.text.lv_obj_set_scroll_snap_y,"ax",%progbits
 286              		.align	1
 287              		.global	lv_obj_set_scroll_snap_y
 288              		.syntax unified
 289              		.thumb
 290              		.thumb_func
 291              		.fpu fpv4-sp-d16
 293              	lv_obj_set_scroll_snap_y:
 294              	.LVL20:
 295              	.LFB161:
  83:lvgl/lvgl/src/core/lv_obj_scroll.c ****     lv_obj_allocate_spec_attr(obj);
 296              		.loc 1 83 1 is_stmt 1 view -0
 297              		.cfi_startproc
 298              		@ args = 0, pretend = 0, frame = 0
 299              		@ frame_needed = 0, uses_anonymous_args = 0
  83:lvgl/lvgl/src/core/lv_obj_scroll.c ****     lv_obj_allocate_spec_attr(obj);
 300              		.loc 1 83 1 is_stmt 0 view .LVU62
 301 0000 38B5     		push	{r3, r4, r5, lr}
 302              	.LCFI5:
 303              		.cfi_def_cfa_offset 16
 304              		.cfi_offset 3, -16
 305              		.cfi_offset 4, -12
 306              		.cfi_offset 5, -8
 307              		.cfi_offset 14, -4
 308 0002 0546     		mov	r5, r0
 309 0004 0C46     		mov	r4, r1
  84:lvgl/lvgl/src/core/lv_obj_scroll.c ****     obj->spec_attr->scroll_snap_y = align;
 310              		.loc 1 84 5 is_stmt 1 view .LVU63
 311 0006 FFF7FEFF 		bl	lv_obj_allocate_spec_attr
 312              	.LVL21:
  85:lvgl/lvgl/src/core/lv_obj_scroll.c **** }
 313              		.loc 1 85 5 view .LVU64
  85:lvgl/lvgl/src/core/lv_obj_scroll.c **** }
 314              		.loc 1 85 8 is_stmt 0 view .LVU65
 315 000a AB68     		ldr	r3, [r5, #8]
  85:lvgl/lvgl/src/core/lv_obj_scroll.c **** }
 316              		.loc 1 85 35 view .LVU66
 317 000c 1A7E     		ldrb	r2, [r3, #24]	@ zero_extendqisi2
 318 000e 64F30512 		bfi	r2, r4, #4, #2
 319 0012 1A76     		strb	r2, [r3, #24]
  86:lvgl/lvgl/src/core/lv_obj_scroll.c **** 
 320              		.loc 1 86 1 view .LVU67
 321 0014 38BD     		pop	{r3, r4, r5, pc}
  86:lvgl/lvgl/src/core/lv_obj_scroll.c **** 
ARM GAS  C:\Users\gx\AppData\Local\Temp\ccHlQRWF.s 			page 18


 322              		.loc 1 86 1 view .LVU68
 323              		.cfi_endproc
 324              	.LFE161:
 326              		.section	.text.lv_obj_get_scrollbar_mode,"ax",%progbits
 327              		.align	1
 328              		.global	lv_obj_get_scrollbar_mode
 329              		.syntax unified
 330              		.thumb
 331              		.thumb_func
 332              		.fpu fpv4-sp-d16
 334              	lv_obj_get_scrollbar_mode:
 335              	.LVL22:
 336              	.LFB162:
  93:lvgl/lvgl/src/core/lv_obj_scroll.c ****     if(obj->spec_attr) return obj->spec_attr->scrollbar_mode;
 337              		.loc 1 93 1 is_stmt 1 view -0
 338              		.cfi_startproc
 339              		@ args = 0, pretend = 0, frame = 0
 340              		@ frame_needed = 0, uses_anonymous_args = 0
 341              		@ link register save eliminated.
  94:lvgl/lvgl/src/core/lv_obj_scroll.c ****     else return LV_SCROLLBAR_MODE_AUTO;
 342              		.loc 1 94 5 view .LVU70
  94:lvgl/lvgl/src/core/lv_obj_scroll.c ****     else return LV_SCROLLBAR_MODE_AUTO;
 343              		.loc 1 94 11 is_stmt 0 view .LVU71
 344 0000 8368     		ldr	r3, [r0, #8]
  94:lvgl/lvgl/src/core/lv_obj_scroll.c ****     else return LV_SCROLLBAR_MODE_AUTO;
 345              		.loc 1 94 7 view .LVU72
 346 0002 1BB1     		cbz	r3, .L20
  94:lvgl/lvgl/src/core/lv_obj_scroll.c ****     else return LV_SCROLLBAR_MODE_AUTO;
 347              		.loc 1 94 24 is_stmt 1 discriminator 1 view .LVU73
  94:lvgl/lvgl/src/core/lv_obj_scroll.c ****     else return LV_SCROLLBAR_MODE_AUTO;
 348              		.loc 1 94 45 is_stmt 0 discriminator 1 view .LVU74
 349 0004 187E     		ldrb	r0, [r3, #24]	@ zero_extendqisi2
 350              	.LVL23:
  94:lvgl/lvgl/src/core/lv_obj_scroll.c ****     else return LV_SCROLLBAR_MODE_AUTO;
 351              		.loc 1 94 45 discriminator 1 view .LVU75
 352 0006 00F00300 		and	r0, r0, #3
 353 000a 7047     		bx	lr
 354              	.LVL24:
 355              	.L20:
  95:lvgl/lvgl/src/core/lv_obj_scroll.c **** }
 356              		.loc 1 95 17 view .LVU76
 357 000c 0320     		movs	r0, #3
 358              	.LVL25:
  96:lvgl/lvgl/src/core/lv_obj_scroll.c **** 
 359              		.loc 1 96 1 view .LVU77
 360 000e 7047     		bx	lr
 361              		.cfi_endproc
 362              	.LFE162:
 364              		.section	.text.lv_obj_get_scroll_dir,"ax",%progbits
 365              		.align	1
 366              		.global	lv_obj_get_scroll_dir
 367              		.syntax unified
 368              		.thumb
 369              		.thumb_func
 370              		.fpu fpv4-sp-d16
 372              	lv_obj_get_scroll_dir:
 373              	.LVL26:
ARM GAS  C:\Users\gx\AppData\Local\Temp\ccHlQRWF.s 			page 19


 374              	.LFB163:
  99:lvgl/lvgl/src/core/lv_obj_scroll.c ****     if(obj->spec_attr) return obj->spec_attr->scroll_dir;
 375              		.loc 1 99 1 is_stmt 1 view -0
 376              		.cfi_startproc
 377              		@ args = 0, pretend = 0, frame = 0
 378              		@ frame_needed = 0, uses_anonymous_args = 0
 379              		@ link register save eliminated.
 100:lvgl/lvgl/src/core/lv_obj_scroll.c ****     else return LV_DIR_ALL;
 380              		.loc 1 100 5 view .LVU79
 100:lvgl/lvgl/src/core/lv_obj_scroll.c ****     else return LV_DIR_ALL;
 381              		.loc 1 100 11 is_stmt 0 view .LVU80
 382 0000 8368     		ldr	r3, [r0, #8]
 100:lvgl/lvgl/src/core/lv_obj_scroll.c ****     else return LV_DIR_ALL;
 383              		.loc 1 100 7 view .LVU81
 384 0002 1BB1     		cbz	r3, .L23
 100:lvgl/lvgl/src/core/lv_obj_scroll.c ****     else return LV_DIR_ALL;
 385              		.loc 1 100 24 is_stmt 1 discriminator 1 view .LVU82
 100:lvgl/lvgl/src/core/lv_obj_scroll.c ****     else return LV_DIR_ALL;
 386              		.loc 1 100 45 is_stmt 0 discriminator 1 view .LVU83
 387 0004 587E     		ldrb	r0, [r3, #25]	@ zero_extendqisi2
 388              	.LVL27:
 100:lvgl/lvgl/src/core/lv_obj_scroll.c ****     else return LV_DIR_ALL;
 389              		.loc 1 100 45 discriminator 1 view .LVU84
 390 0006 00F00F00 		and	r0, r0, #15
 391 000a 7047     		bx	lr
 392              	.LVL28:
 393              	.L23:
 101:lvgl/lvgl/src/core/lv_obj_scroll.c **** }
 394              		.loc 1 101 17 view .LVU85
 395 000c 0F20     		movs	r0, #15
 396              	.LVL29:
 102:lvgl/lvgl/src/core/lv_obj_scroll.c **** 
 397              		.loc 1 102 1 view .LVU86
 398 000e 7047     		bx	lr
 399              		.cfi_endproc
 400              	.LFE163:
 402              		.section	.text.lv_obj_get_scroll_snap_x,"ax",%progbits
 403              		.align	1
 404              		.global	lv_obj_get_scroll_snap_x
 405              		.syntax unified
 406              		.thumb
 407              		.thumb_func
 408              		.fpu fpv4-sp-d16
 410              	lv_obj_get_scroll_snap_x:
 411              	.LVL30:
 412              	.LFB164:
 105:lvgl/lvgl/src/core/lv_obj_scroll.c ****     if(obj->spec_attr) return obj->spec_attr->scroll_snap_x;
 413              		.loc 1 105 1 is_stmt 1 view -0
 414              		.cfi_startproc
 415              		@ args = 0, pretend = 0, frame = 0
 416              		@ frame_needed = 0, uses_anonymous_args = 0
 417              		@ link register save eliminated.
 106:lvgl/lvgl/src/core/lv_obj_scroll.c ****     else return LV_SCROLL_SNAP_NONE;
 418              		.loc 1 106 5 view .LVU88
 106:lvgl/lvgl/src/core/lv_obj_scroll.c ****     else return LV_SCROLL_SNAP_NONE;
 419              		.loc 1 106 11 is_stmt 0 view .LVU89
 420 0000 8368     		ldr	r3, [r0, #8]
ARM GAS  C:\Users\gx\AppData\Local\Temp\ccHlQRWF.s 			page 20


 106:lvgl/lvgl/src/core/lv_obj_scroll.c ****     else return LV_SCROLL_SNAP_NONE;
 421              		.loc 1 106 7 view .LVU90
 422 0002 1BB1     		cbz	r3, .L26
 106:lvgl/lvgl/src/core/lv_obj_scroll.c ****     else return LV_SCROLL_SNAP_NONE;
 423              		.loc 1 106 24 is_stmt 1 discriminator 1 view .LVU91
 106:lvgl/lvgl/src/core/lv_obj_scroll.c ****     else return LV_SCROLL_SNAP_NONE;
 424              		.loc 1 106 45 is_stmt 0 discriminator 1 view .LVU92
 425 0004 187E     		ldrb	r0, [r3, #24]	@ zero_extendqisi2
 426              	.LVL31:
 106:lvgl/lvgl/src/core/lv_obj_scroll.c ****     else return LV_SCROLL_SNAP_NONE;
 427              		.loc 1 106 45 discriminator 1 view .LVU93
 428 0006 C0F38100 		ubfx	r0, r0, #2, #2
 429 000a 7047     		bx	lr
 430              	.LVL32:
 431              	.L26:
 107:lvgl/lvgl/src/core/lv_obj_scroll.c **** }
 432              		.loc 1 107 17 view .LVU94
 433 000c 0020     		movs	r0, #0
 434              	.LVL33:
 108:lvgl/lvgl/src/core/lv_obj_scroll.c **** 
 435              		.loc 1 108 1 view .LVU95
 436 000e 7047     		bx	lr
 437              		.cfi_endproc
 438              	.LFE164:
 440              		.section	.text.lv_obj_get_scroll_snap_y,"ax",%progbits
 441              		.align	1
 442              		.global	lv_obj_get_scroll_snap_y
 443              		.syntax unified
 444              		.thumb
 445              		.thumb_func
 446              		.fpu fpv4-sp-d16
 448              	lv_obj_get_scroll_snap_y:
 449              	.LVL34:
 450              	.LFB165:
 111:lvgl/lvgl/src/core/lv_obj_scroll.c ****     if(obj->spec_attr) return obj->spec_attr->scroll_snap_y;
 451              		.loc 1 111 1 is_stmt 1 view -0
 452              		.cfi_startproc
 453              		@ args = 0, pretend = 0, frame = 0
 454              		@ frame_needed = 0, uses_anonymous_args = 0
 455              		@ link register save eliminated.
 112:lvgl/lvgl/src/core/lv_obj_scroll.c ****     else return LV_SCROLL_SNAP_NONE;
 456              		.loc 1 112 5 view .LVU97
 112:lvgl/lvgl/src/core/lv_obj_scroll.c ****     else return LV_SCROLL_SNAP_NONE;
 457              		.loc 1 112 11 is_stmt 0 view .LVU98
 458 0000 8368     		ldr	r3, [r0, #8]
 112:lvgl/lvgl/src/core/lv_obj_scroll.c ****     else return LV_SCROLL_SNAP_NONE;
 459              		.loc 1 112 7 view .LVU99
 460 0002 1BB1     		cbz	r3, .L29
 112:lvgl/lvgl/src/core/lv_obj_scroll.c ****     else return LV_SCROLL_SNAP_NONE;
 461              		.loc 1 112 24 is_stmt 1 discriminator 1 view .LVU100
 112:lvgl/lvgl/src/core/lv_obj_scroll.c ****     else return LV_SCROLL_SNAP_NONE;
 462              		.loc 1 112 45 is_stmt 0 discriminator 1 view .LVU101
 463 0004 187E     		ldrb	r0, [r3, #24]	@ zero_extendqisi2
 464              	.LVL35:
 112:lvgl/lvgl/src/core/lv_obj_scroll.c ****     else return LV_SCROLL_SNAP_NONE;
 465              		.loc 1 112 45 discriminator 1 view .LVU102
 466 0006 C0F30110 		ubfx	r0, r0, #4, #2
ARM GAS  C:\Users\gx\AppData\Local\Temp\ccHlQRWF.s 			page 21


 467 000a 7047     		bx	lr
 468              	.LVL36:
 469              	.L29:
 113:lvgl/lvgl/src/core/lv_obj_scroll.c **** }
 470              		.loc 1 113 17 view .LVU103
 471 000c 0020     		movs	r0, #0
 472              	.LVL37:
 114:lvgl/lvgl/src/core/lv_obj_scroll.c **** 
 473              		.loc 1 114 1 view .LVU104
 474 000e 7047     		bx	lr
 475              		.cfi_endproc
 476              	.LFE165:
 478              		.section	.text.lv_obj_get_scroll_x,"ax",%progbits
 479              		.align	1
 480              		.global	lv_obj_get_scroll_x
 481              		.syntax unified
 482              		.thumb
 483              		.thumb_func
 484              		.fpu fpv4-sp-d16
 486              	lv_obj_get_scroll_x:
 487              	.LVL38:
 488              	.LFB166:
 117:lvgl/lvgl/src/core/lv_obj_scroll.c ****     if(obj->spec_attr == NULL) return 0;
 489              		.loc 1 117 1 is_stmt 1 view -0
 490              		.cfi_startproc
 491              		@ args = 0, pretend = 0, frame = 0
 492              		@ frame_needed = 0, uses_anonymous_args = 0
 493              		@ link register save eliminated.
 118:lvgl/lvgl/src/core/lv_obj_scroll.c ****     return -obj->spec_attr->scroll.x;
 494              		.loc 1 118 5 view .LVU106
 118:lvgl/lvgl/src/core/lv_obj_scroll.c ****     return -obj->spec_attr->scroll.x;
 495              		.loc 1 118 11 is_stmt 0 view .LVU107
 496 0000 8368     		ldr	r3, [r0, #8]
 118:lvgl/lvgl/src/core/lv_obj_scroll.c ****     return -obj->spec_attr->scroll.x;
 497              		.loc 1 118 7 view .LVU108
 498 0002 1BB1     		cbz	r3, .L32
 119:lvgl/lvgl/src/core/lv_obj_scroll.c **** }
 499              		.loc 1 119 5 is_stmt 1 view .LVU109
 119:lvgl/lvgl/src/core/lv_obj_scroll.c **** }
 500              		.loc 1 119 35 is_stmt 0 view .LVU110
 501 0004 188A     		ldrh	r0, [r3, #16]
 502              	.LVL39:
 119:lvgl/lvgl/src/core/lv_obj_scroll.c **** }
 503              		.loc 1 119 12 view .LVU111
 504 0006 4042     		rsbs	r0, r0, #0
 505 0008 00B2     		sxth	r0, r0
 506 000a 7047     		bx	lr
 507              	.LVL40:
 508              	.L32:
 118:lvgl/lvgl/src/core/lv_obj_scroll.c ****     return -obj->spec_attr->scroll.x;
 509              		.loc 1 118 39 view .LVU112
 510 000c 0020     		movs	r0, #0
 511              	.LVL41:
 120:lvgl/lvgl/src/core/lv_obj_scroll.c **** 
 512              		.loc 1 120 1 view .LVU113
 513 000e 7047     		bx	lr
 514              		.cfi_endproc
ARM GAS  C:\Users\gx\AppData\Local\Temp\ccHlQRWF.s 			page 22


 515              	.LFE166:
 517              		.section	.text.scroll_x_anim,"ax",%progbits
 518              		.align	1
 519              		.syntax unified
 520              		.thumb
 521              		.thumb_func
 522              		.fpu fpv4-sp-d16
 524              	scroll_x_anim:
 525              	.LVL42:
 526              	.LFB185:
 602:lvgl/lvgl/src/core/lv_obj_scroll.c ****     scroll_by_raw(obj, v + lv_obj_get_scroll_x(obj), 0);
 527              		.loc 1 602 1 is_stmt 1 view -0
 528              		.cfi_startproc
 529              		@ args = 0, pretend = 0, frame = 0
 530              		@ frame_needed = 0, uses_anonymous_args = 0
 602:lvgl/lvgl/src/core/lv_obj_scroll.c ****     scroll_by_raw(obj, v + lv_obj_get_scroll_x(obj), 0);
 531              		.loc 1 602 1 is_stmt 0 view .LVU115
 532 0000 38B5     		push	{r3, r4, r5, lr}
 533              	.LCFI6:
 534              		.cfi_def_cfa_offset 16
 535              		.cfi_offset 3, -16
 536              		.cfi_offset 4, -12
 537              		.cfi_offset 5, -8
 538              		.cfi_offset 14, -4
 539 0002 0446     		mov	r4, r0
 540 0004 0D46     		mov	r5, r1
 603:lvgl/lvgl/src/core/lv_obj_scroll.c **** }
 541              		.loc 1 603 5 is_stmt 1 view .LVU116
 603:lvgl/lvgl/src/core/lv_obj_scroll.c **** }
 542              		.loc 1 603 28 is_stmt 0 view .LVU117
 543 0006 FFF7FEFF 		bl	lv_obj_get_scroll_x
 544              	.LVL43:
 603:lvgl/lvgl/src/core/lv_obj_scroll.c **** }
 545              		.loc 1 603 26 view .LVU118
 546 000a 15FA80F1 		uxtah	r1, r5, r0
 603:lvgl/lvgl/src/core/lv_obj_scroll.c **** }
 547              		.loc 1 603 5 view .LVU119
 548 000e 0022     		movs	r2, #0
 549 0010 09B2     		sxth	r1, r1
 550 0012 2046     		mov	r0, r4
 551 0014 FFF7FEFF 		bl	scroll_by_raw
 552              	.LVL44:
 604:lvgl/lvgl/src/core/lv_obj_scroll.c **** 
 553              		.loc 1 604 1 view .LVU120
 554 0018 38BD     		pop	{r3, r4, r5, pc}
 604:lvgl/lvgl/src/core/lv_obj_scroll.c **** 
 555              		.loc 1 604 1 view .LVU121
 556              		.cfi_endproc
 557              	.LFE185:
 559              		.section	.text.lv_obj_get_scroll_y,"ax",%progbits
 560              		.align	1
 561              		.global	lv_obj_get_scroll_y
 562              		.syntax unified
 563              		.thumb
 564              		.thumb_func
 565              		.fpu fpv4-sp-d16
 567              	lv_obj_get_scroll_y:
ARM GAS  C:\Users\gx\AppData\Local\Temp\ccHlQRWF.s 			page 23


 568              	.LVL45:
 569              	.LFB167:
 123:lvgl/lvgl/src/core/lv_obj_scroll.c ****     if(obj->spec_attr == NULL) return 0;
 570              		.loc 1 123 1 is_stmt 1 view -0
 571              		.cfi_startproc
 572              		@ args = 0, pretend = 0, frame = 0
 573              		@ frame_needed = 0, uses_anonymous_args = 0
 574              		@ link register save eliminated.
 124:lvgl/lvgl/src/core/lv_obj_scroll.c ****     return -obj->spec_attr->scroll.y;
 575              		.loc 1 124 5 view .LVU123
 124:lvgl/lvgl/src/core/lv_obj_scroll.c ****     return -obj->spec_attr->scroll.y;
 576              		.loc 1 124 11 is_stmt 0 view .LVU124
 577 0000 8368     		ldr	r3, [r0, #8]
 124:lvgl/lvgl/src/core/lv_obj_scroll.c ****     return -obj->spec_attr->scroll.y;
 578              		.loc 1 124 7 view .LVU125
 579 0002 1BB1     		cbz	r3, .L37
 125:lvgl/lvgl/src/core/lv_obj_scroll.c **** }
 580              		.loc 1 125 5 is_stmt 1 view .LVU126
 125:lvgl/lvgl/src/core/lv_obj_scroll.c **** }
 581              		.loc 1 125 35 is_stmt 0 view .LVU127
 582 0004 588A     		ldrh	r0, [r3, #18]
 583              	.LVL46:
 125:lvgl/lvgl/src/core/lv_obj_scroll.c **** }
 584              		.loc 1 125 12 view .LVU128
 585 0006 4042     		rsbs	r0, r0, #0
 586 0008 00B2     		sxth	r0, r0
 587 000a 7047     		bx	lr
 588              	.LVL47:
 589              	.L37:
 124:lvgl/lvgl/src/core/lv_obj_scroll.c ****     return -obj->spec_attr->scroll.y;
 590              		.loc 1 124 39 view .LVU129
 591 000c 0020     		movs	r0, #0
 592              	.LVL48:
 126:lvgl/lvgl/src/core/lv_obj_scroll.c **** 
 593              		.loc 1 126 1 view .LVU130
 594 000e 7047     		bx	lr
 595              		.cfi_endproc
 596              	.LFE167:
 598              		.section	.text.scroll_y_anim,"ax",%progbits
 599              		.align	1
 600              		.syntax unified
 601              		.thumb
 602              		.thumb_func
 603              		.fpu fpv4-sp-d16
 605              	scroll_y_anim:
 606              	.LVL49:
 607              	.LFB186:
 607:lvgl/lvgl/src/core/lv_obj_scroll.c ****     scroll_by_raw(obj, 0, v + lv_obj_get_scroll_y(obj));
 608              		.loc 1 607 1 is_stmt 1 view -0
 609              		.cfi_startproc
 610              		@ args = 0, pretend = 0, frame = 0
 611              		@ frame_needed = 0, uses_anonymous_args = 0
 607:lvgl/lvgl/src/core/lv_obj_scroll.c ****     scroll_by_raw(obj, 0, v + lv_obj_get_scroll_y(obj));
 612              		.loc 1 607 1 is_stmt 0 view .LVU132
 613 0000 38B5     		push	{r3, r4, r5, lr}
 614              	.LCFI7:
 615              		.cfi_def_cfa_offset 16
ARM GAS  C:\Users\gx\AppData\Local\Temp\ccHlQRWF.s 			page 24


 616              		.cfi_offset 3, -16
 617              		.cfi_offset 4, -12
 618              		.cfi_offset 5, -8
 619              		.cfi_offset 14, -4
 620 0002 0446     		mov	r4, r0
 621 0004 0D46     		mov	r5, r1
 608:lvgl/lvgl/src/core/lv_obj_scroll.c **** }
 622              		.loc 1 608 5 is_stmt 1 view .LVU133
 608:lvgl/lvgl/src/core/lv_obj_scroll.c **** }
 623              		.loc 1 608 31 is_stmt 0 view .LVU134
 624 0006 FFF7FEFF 		bl	lv_obj_get_scroll_y
 625              	.LVL50:
 608:lvgl/lvgl/src/core/lv_obj_scroll.c **** }
 626              		.loc 1 608 29 view .LVU135
 627 000a 15FA80F2 		uxtah	r2, r5, r0
 608:lvgl/lvgl/src/core/lv_obj_scroll.c **** }
 628              		.loc 1 608 5 view .LVU136
 629 000e 12B2     		sxth	r2, r2
 630 0010 0021     		movs	r1, #0
 631 0012 2046     		mov	r0, r4
 632 0014 FFF7FEFF 		bl	scroll_by_raw
 633              	.LVL51:
 609:lvgl/lvgl/src/core/lv_obj_scroll.c **** 
 634              		.loc 1 609 1 view .LVU137
 635 0018 38BD     		pop	{r3, r4, r5, pc}
 609:lvgl/lvgl/src/core/lv_obj_scroll.c **** 
 636              		.loc 1 609 1 view .LVU138
 637              		.cfi_endproc
 638              	.LFE186:
 640              		.section	.text.lv_obj_get_scroll_top,"ax",%progbits
 641              		.align	1
 642              		.global	lv_obj_get_scroll_top
 643              		.syntax unified
 644              		.thumb
 645              		.thumb_func
 646              		.fpu fpv4-sp-d16
 648              	lv_obj_get_scroll_top:
 649              	.LVL52:
 650              	.LFB168:
 129:lvgl/lvgl/src/core/lv_obj_scroll.c ****     if(obj->spec_attr == NULL) return 0;
 651              		.loc 1 129 1 is_stmt 1 view -0
 652              		.cfi_startproc
 653              		@ args = 0, pretend = 0, frame = 0
 654              		@ frame_needed = 0, uses_anonymous_args = 0
 655              		@ link register save eliminated.
 130:lvgl/lvgl/src/core/lv_obj_scroll.c ****     return -obj->spec_attr->scroll.y;
 656              		.loc 1 130 5 view .LVU140
 130:lvgl/lvgl/src/core/lv_obj_scroll.c ****     return -obj->spec_attr->scroll.y;
 657              		.loc 1 130 11 is_stmt 0 view .LVU141
 658 0000 8368     		ldr	r3, [r0, #8]
 130:lvgl/lvgl/src/core/lv_obj_scroll.c ****     return -obj->spec_attr->scroll.y;
 659              		.loc 1 130 7 view .LVU142
 660 0002 1BB1     		cbz	r3, .L42
 131:lvgl/lvgl/src/core/lv_obj_scroll.c **** }
 661              		.loc 1 131 5 is_stmt 1 view .LVU143
 131:lvgl/lvgl/src/core/lv_obj_scroll.c **** }
 662              		.loc 1 131 35 is_stmt 0 view .LVU144
ARM GAS  C:\Users\gx\AppData\Local\Temp\ccHlQRWF.s 			page 25


 663 0004 588A     		ldrh	r0, [r3, #18]
 664              	.LVL53:
 131:lvgl/lvgl/src/core/lv_obj_scroll.c **** }
 665              		.loc 1 131 12 view .LVU145
 666 0006 4042     		rsbs	r0, r0, #0
 667 0008 00B2     		sxth	r0, r0
 668 000a 7047     		bx	lr
 669              	.LVL54:
 670              	.L42:
 130:lvgl/lvgl/src/core/lv_obj_scroll.c ****     return -obj->spec_attr->scroll.y;
 671              		.loc 1 130 39 view .LVU146
 672 000c 0020     		movs	r0, #0
 673              	.LVL55:
 132:lvgl/lvgl/src/core/lv_obj_scroll.c **** 
 674              		.loc 1 132 1 view .LVU147
 675 000e 7047     		bx	lr
 676              		.cfi_endproc
 677              	.LFE168:
 679              		.section	.text.lv_obj_get_scroll_bottom,"ax",%progbits
 680              		.align	1
 681              		.global	lv_obj_get_scroll_bottom
 682              		.syntax unified
 683              		.thumb
 684              		.thumb_func
 685              		.fpu fpv4-sp-d16
 687              	lv_obj_get_scroll_bottom:
 688              	.LVL56:
 689              	.LFB169:
 135:lvgl/lvgl/src/core/lv_obj_scroll.c ****     LV_ASSERT_OBJ(obj, MY_CLASS);
 690              		.loc 1 135 1 is_stmt 1 view -0
 691              		.cfi_startproc
 692              		@ args = 0, pretend = 0, frame = 0
 693              		@ frame_needed = 0, uses_anonymous_args = 0
 135:lvgl/lvgl/src/core/lv_obj_scroll.c ****     LV_ASSERT_OBJ(obj, MY_CLASS);
 694              		.loc 1 135 1 is_stmt 0 view .LVU149
 695 0000 2DE9F047 		push	{r4, r5, r6, r7, r8, r9, r10, lr}
 696              	.LCFI8:
 697              		.cfi_def_cfa_offset 32
 698              		.cfi_offset 4, -32
 699              		.cfi_offset 5, -28
 700              		.cfi_offset 6, -24
 701              		.cfi_offset 7, -20
 702              		.cfi_offset 8, -16
 703              		.cfi_offset 9, -12
 704              		.cfi_offset 10, -8
 705              		.cfi_offset 14, -4
 706 0004 0646     		mov	r6, r0
 136:lvgl/lvgl/src/core/lv_obj_scroll.c **** 
 707              		.loc 1 136 5 is_stmt 1 view .LVU150
 136:lvgl/lvgl/src/core/lv_obj_scroll.c **** 
 708              		.loc 1 136 5 view .LVU151
 136:lvgl/lvgl/src/core/lv_obj_scroll.c **** 
 709              		.loc 1 136 5 view .LVU152
 138:lvgl/lvgl/src/core/lv_obj_scroll.c ****     uint32_t i;
 710              		.loc 1 138 5 view .LVU153
 711              	.LVL57:
 139:lvgl/lvgl/src/core/lv_obj_scroll.c ****     uint32_t child_cnt = lv_obj_get_child_cnt(obj);
ARM GAS  C:\Users\gx\AppData\Local\Temp\ccHlQRWF.s 			page 26


 712              		.loc 1 139 5 view .LVU154
 140:lvgl/lvgl/src/core/lv_obj_scroll.c ****     for(i = 0; i < child_cnt; i++) {
 713              		.loc 1 140 5 view .LVU155
 140:lvgl/lvgl/src/core/lv_obj_scroll.c ****     for(i = 0; i < child_cnt; i++) {
 714              		.loc 1 140 26 is_stmt 0 view .LVU156
 715 0006 FFF7FEFF 		bl	lv_obj_get_child_cnt
 716              	.LVL58:
 140:lvgl/lvgl/src/core/lv_obj_scroll.c ****     for(i = 0; i < child_cnt; i++) {
 717              		.loc 1 140 26 view .LVU157
 718 000a 8046     		mov	r8, r0
 719              	.LVL59:
 141:lvgl/lvgl/src/core/lv_obj_scroll.c ****         lv_obj_t * child = obj->spec_attr->children[i];
 720              		.loc 1 141 5 is_stmt 1 view .LVU158
 141:lvgl/lvgl/src/core/lv_obj_scroll.c ****         lv_obj_t * child = obj->spec_attr->children[i];
 721              		.loc 1 141 11 is_stmt 0 view .LVU159
 722 000c 0024     		movs	r4, #0
 138:lvgl/lvgl/src/core/lv_obj_scroll.c ****     uint32_t i;
 723              		.loc 1 138 16 view .LVU160
 724 000e 294F     		ldr	r7, .L50
 141:lvgl/lvgl/src/core/lv_obj_scroll.c ****         lv_obj_t * child = obj->spec_attr->children[i];
 725              		.loc 1 141 5 view .LVU161
 726 0010 00E0     		b	.L44
 727              	.LVL60:
 728              	.L45:
 141:lvgl/lvgl/src/core/lv_obj_scroll.c ****         lv_obj_t * child = obj->spec_attr->children[i];
 729              		.loc 1 141 31 is_stmt 1 discriminator 2 view .LVU162
 141:lvgl/lvgl/src/core/lv_obj_scroll.c ****         lv_obj_t * child = obj->spec_attr->children[i];
 730              		.loc 1 141 32 is_stmt 0 discriminator 2 view .LVU163
 731 0012 0134     		adds	r4, r4, #1
 732              	.LVL61:
 733              	.L44:
 141:lvgl/lvgl/src/core/lv_obj_scroll.c ****         lv_obj_t * child = obj->spec_attr->children[i];
 734              		.loc 1 141 16 is_stmt 1 discriminator 1 view .LVU164
 141:lvgl/lvgl/src/core/lv_obj_scroll.c ****         lv_obj_t * child = obj->spec_attr->children[i];
 735              		.loc 1 141 5 is_stmt 0 discriminator 1 view .LVU165
 736 0014 4445     		cmp	r4, r8
 737 0016 10D2     		bcs	.L49
 738              	.LBB91:
 142:lvgl/lvgl/src/core/lv_obj_scroll.c ****         if(lv_obj_has_flag_any(child,  LV_OBJ_FLAG_HIDDEN | LV_OBJ_FLAG_FLOATING)) continue;
 739              		.loc 1 142 9 is_stmt 1 view .LVU166
 142:lvgl/lvgl/src/core/lv_obj_scroll.c ****         if(lv_obj_has_flag_any(child,  LV_OBJ_FLAG_HIDDEN | LV_OBJ_FLAG_FLOATING)) continue;
 740              		.loc 1 142 31 is_stmt 0 view .LVU167
 741 0018 B368     		ldr	r3, [r6, #8]
 142:lvgl/lvgl/src/core/lv_obj_scroll.c ****         if(lv_obj_has_flag_any(child,  LV_OBJ_FLAG_HIDDEN | LV_OBJ_FLAG_FLOATING)) continue;
 742              		.loc 1 142 42 view .LVU168
 743 001a 1B68     		ldr	r3, [r3]
 142:lvgl/lvgl/src/core/lv_obj_scroll.c ****         if(lv_obj_has_flag_any(child,  LV_OBJ_FLAG_HIDDEN | LV_OBJ_FLAG_FLOATING)) continue;
 744              		.loc 1 142 20 view .LVU169
 745 001c 53F82450 		ldr	r5, [r3, r4, lsl #2]
 746              	.LVL62:
 143:lvgl/lvgl/src/core/lv_obj_scroll.c ****         child_res = LV_MAX(child_res, child->coords.y2);
 747              		.loc 1 143 9 is_stmt 1 view .LVU170
 143:lvgl/lvgl/src/core/lv_obj_scroll.c ****         child_res = LV_MAX(child_res, child->coords.y2);
 748              		.loc 1 143 12 is_stmt 0 view .LVU171
 749 0020 4FF00111 		mov	r1, #65537
 750 0024 2846     		mov	r0, r5
 751 0026 FFF7FEFF 		bl	lv_obj_has_flag_any
ARM GAS  C:\Users\gx\AppData\Local\Temp\ccHlQRWF.s 			page 27


 752              	.LVL63:
 143:lvgl/lvgl/src/core/lv_obj_scroll.c ****         child_res = LV_MAX(child_res, child->coords.y2);
 753              		.loc 1 143 11 view .LVU172
 754 002a 0028     		cmp	r0, #0
 755 002c F1D1     		bne	.L45
 144:lvgl/lvgl/src/core/lv_obj_scroll.c ****     }
 756              		.loc 1 144 9 is_stmt 1 view .LVU173
 144:lvgl/lvgl/src/core/lv_obj_scroll.c ****     }
 757              		.loc 1 144 21 is_stmt 0 view .LVU174
 758 002e B5F91A30 		ldrsh	r3, [r5, #26]
 144:lvgl/lvgl/src/core/lv_obj_scroll.c ****     }
 759              		.loc 1 144 19 view .LVU175
 760 0032 9F42     		cmp	r7, r3
 761 0034 B8BF     		it	lt
 762 0036 1F46     		movlt	r7, r3
 763              	.LVL64:
 144:lvgl/lvgl/src/core/lv_obj_scroll.c ****     }
 764              		.loc 1 144 19 view .LVU176
 765 0038 EBE7     		b	.L45
 766              	.LVL65:
 767              	.L49:
 144:lvgl/lvgl/src/core/lv_obj_scroll.c ****     }
 768              		.loc 1 144 19 view .LVU177
 769              	.LBE91:
 147:lvgl/lvgl/src/core/lv_obj_scroll.c ****     lv_coord_t pad_bottom = lv_obj_get_style_pad_bottom(obj, LV_PART_MAIN);
 770              		.loc 1 147 5 is_stmt 1 view .LVU178
 771              	.LBB92:
 772              	.LBI92:
 773              		.file 2 "lvgl/lvgl/src/core/lv_obj_style_gen.h"
   1:lvgl/lvgl/src/core/lv_obj_style_gen.h **** static inline lv_coord_t lv_obj_get_style_width(const struct _lv_obj_t * obj, uint32_t part)
   2:lvgl/lvgl/src/core/lv_obj_style_gen.h **** {
   3:lvgl/lvgl/src/core/lv_obj_style_gen.h ****     lv_style_value_t v = lv_obj_get_style_prop(obj, part, LV_STYLE_WIDTH);
   4:lvgl/lvgl/src/core/lv_obj_style_gen.h ****     return (lv_coord_t)v.num;
   5:lvgl/lvgl/src/core/lv_obj_style_gen.h **** }
   6:lvgl/lvgl/src/core/lv_obj_style_gen.h **** 
   7:lvgl/lvgl/src/core/lv_obj_style_gen.h **** static inline lv_coord_t lv_obj_get_style_min_width(const struct _lv_obj_t * obj, uint32_t part)
   8:lvgl/lvgl/src/core/lv_obj_style_gen.h **** {
   9:lvgl/lvgl/src/core/lv_obj_style_gen.h ****     lv_style_value_t v = lv_obj_get_style_prop(obj, part, LV_STYLE_MIN_WIDTH);
  10:lvgl/lvgl/src/core/lv_obj_style_gen.h ****     return (lv_coord_t)v.num;
  11:lvgl/lvgl/src/core/lv_obj_style_gen.h **** }
  12:lvgl/lvgl/src/core/lv_obj_style_gen.h **** 
  13:lvgl/lvgl/src/core/lv_obj_style_gen.h **** static inline lv_coord_t lv_obj_get_style_max_width(const struct _lv_obj_t * obj, uint32_t part)
  14:lvgl/lvgl/src/core/lv_obj_style_gen.h **** {
  15:lvgl/lvgl/src/core/lv_obj_style_gen.h ****     lv_style_value_t v = lv_obj_get_style_prop(obj, part, LV_STYLE_MAX_WIDTH);
  16:lvgl/lvgl/src/core/lv_obj_style_gen.h ****     return (lv_coord_t)v.num;
  17:lvgl/lvgl/src/core/lv_obj_style_gen.h **** }
  18:lvgl/lvgl/src/core/lv_obj_style_gen.h **** 
  19:lvgl/lvgl/src/core/lv_obj_style_gen.h **** static inline lv_coord_t lv_obj_get_style_height(const struct _lv_obj_t * obj, uint32_t part)
  20:lvgl/lvgl/src/core/lv_obj_style_gen.h **** {
  21:lvgl/lvgl/src/core/lv_obj_style_gen.h ****     lv_style_value_t v = lv_obj_get_style_prop(obj, part, LV_STYLE_HEIGHT);
  22:lvgl/lvgl/src/core/lv_obj_style_gen.h ****     return (lv_coord_t)v.num;
  23:lvgl/lvgl/src/core/lv_obj_style_gen.h **** }
  24:lvgl/lvgl/src/core/lv_obj_style_gen.h **** 
  25:lvgl/lvgl/src/core/lv_obj_style_gen.h **** static inline lv_coord_t lv_obj_get_style_min_height(const struct _lv_obj_t * obj, uint32_t part)
  26:lvgl/lvgl/src/core/lv_obj_style_gen.h **** {
  27:lvgl/lvgl/src/core/lv_obj_style_gen.h ****     lv_style_value_t v = lv_obj_get_style_prop(obj, part, LV_STYLE_MIN_HEIGHT);
  28:lvgl/lvgl/src/core/lv_obj_style_gen.h ****     return (lv_coord_t)v.num;
ARM GAS  C:\Users\gx\AppData\Local\Temp\ccHlQRWF.s 			page 28


  29:lvgl/lvgl/src/core/lv_obj_style_gen.h **** }
  30:lvgl/lvgl/src/core/lv_obj_style_gen.h **** 
  31:lvgl/lvgl/src/core/lv_obj_style_gen.h **** static inline lv_coord_t lv_obj_get_style_max_height(const struct _lv_obj_t * obj, uint32_t part)
  32:lvgl/lvgl/src/core/lv_obj_style_gen.h **** {
  33:lvgl/lvgl/src/core/lv_obj_style_gen.h ****     lv_style_value_t v = lv_obj_get_style_prop(obj, part, LV_STYLE_MAX_HEIGHT);
  34:lvgl/lvgl/src/core/lv_obj_style_gen.h ****     return (lv_coord_t)v.num;
  35:lvgl/lvgl/src/core/lv_obj_style_gen.h **** }
  36:lvgl/lvgl/src/core/lv_obj_style_gen.h **** 
  37:lvgl/lvgl/src/core/lv_obj_style_gen.h **** static inline lv_coord_t lv_obj_get_style_x(const struct _lv_obj_t * obj, uint32_t part)
  38:lvgl/lvgl/src/core/lv_obj_style_gen.h **** {
  39:lvgl/lvgl/src/core/lv_obj_style_gen.h ****     lv_style_value_t v = lv_obj_get_style_prop(obj, part, LV_STYLE_X);
  40:lvgl/lvgl/src/core/lv_obj_style_gen.h ****     return (lv_coord_t)v.num;
  41:lvgl/lvgl/src/core/lv_obj_style_gen.h **** }
  42:lvgl/lvgl/src/core/lv_obj_style_gen.h **** 
  43:lvgl/lvgl/src/core/lv_obj_style_gen.h **** static inline lv_coord_t lv_obj_get_style_y(const struct _lv_obj_t * obj, uint32_t part)
  44:lvgl/lvgl/src/core/lv_obj_style_gen.h **** {
  45:lvgl/lvgl/src/core/lv_obj_style_gen.h ****     lv_style_value_t v = lv_obj_get_style_prop(obj, part, LV_STYLE_Y);
  46:lvgl/lvgl/src/core/lv_obj_style_gen.h ****     return (lv_coord_t)v.num;
  47:lvgl/lvgl/src/core/lv_obj_style_gen.h **** }
  48:lvgl/lvgl/src/core/lv_obj_style_gen.h **** 
  49:lvgl/lvgl/src/core/lv_obj_style_gen.h **** static inline lv_align_t lv_obj_get_style_align(const struct _lv_obj_t * obj, uint32_t part)
  50:lvgl/lvgl/src/core/lv_obj_style_gen.h **** {
  51:lvgl/lvgl/src/core/lv_obj_style_gen.h ****     lv_style_value_t v = lv_obj_get_style_prop(obj, part, LV_STYLE_ALIGN);
  52:lvgl/lvgl/src/core/lv_obj_style_gen.h ****     return (lv_align_t)v.num;
  53:lvgl/lvgl/src/core/lv_obj_style_gen.h **** }
  54:lvgl/lvgl/src/core/lv_obj_style_gen.h **** 
  55:lvgl/lvgl/src/core/lv_obj_style_gen.h **** static inline lv_coord_t lv_obj_get_style_transform_width(const struct _lv_obj_t * obj, uint32_t pa
  56:lvgl/lvgl/src/core/lv_obj_style_gen.h **** {
  57:lvgl/lvgl/src/core/lv_obj_style_gen.h ****     lv_style_value_t v = lv_obj_get_style_prop(obj, part, LV_STYLE_TRANSFORM_WIDTH);
  58:lvgl/lvgl/src/core/lv_obj_style_gen.h ****     return (lv_coord_t)v.num;
  59:lvgl/lvgl/src/core/lv_obj_style_gen.h **** }
  60:lvgl/lvgl/src/core/lv_obj_style_gen.h **** 
  61:lvgl/lvgl/src/core/lv_obj_style_gen.h **** static inline lv_coord_t lv_obj_get_style_transform_height(const struct _lv_obj_t * obj, uint32_t p
  62:lvgl/lvgl/src/core/lv_obj_style_gen.h **** {
  63:lvgl/lvgl/src/core/lv_obj_style_gen.h ****     lv_style_value_t v = lv_obj_get_style_prop(obj, part, LV_STYLE_TRANSFORM_HEIGHT);
  64:lvgl/lvgl/src/core/lv_obj_style_gen.h ****     return (lv_coord_t)v.num;
  65:lvgl/lvgl/src/core/lv_obj_style_gen.h **** }
  66:lvgl/lvgl/src/core/lv_obj_style_gen.h **** 
  67:lvgl/lvgl/src/core/lv_obj_style_gen.h **** static inline lv_coord_t lv_obj_get_style_translate_x(const struct _lv_obj_t * obj, uint32_t part)
  68:lvgl/lvgl/src/core/lv_obj_style_gen.h **** {
  69:lvgl/lvgl/src/core/lv_obj_style_gen.h ****     lv_style_value_t v = lv_obj_get_style_prop(obj, part, LV_STYLE_TRANSLATE_X);
  70:lvgl/lvgl/src/core/lv_obj_style_gen.h ****     return (lv_coord_t)v.num;
  71:lvgl/lvgl/src/core/lv_obj_style_gen.h **** }
  72:lvgl/lvgl/src/core/lv_obj_style_gen.h **** 
  73:lvgl/lvgl/src/core/lv_obj_style_gen.h **** static inline lv_coord_t lv_obj_get_style_translate_y(const struct _lv_obj_t * obj, uint32_t part)
  74:lvgl/lvgl/src/core/lv_obj_style_gen.h **** {
  75:lvgl/lvgl/src/core/lv_obj_style_gen.h ****     lv_style_value_t v = lv_obj_get_style_prop(obj, part, LV_STYLE_TRANSLATE_Y);
  76:lvgl/lvgl/src/core/lv_obj_style_gen.h ****     return (lv_coord_t)v.num;
  77:lvgl/lvgl/src/core/lv_obj_style_gen.h **** }
  78:lvgl/lvgl/src/core/lv_obj_style_gen.h **** 
  79:lvgl/lvgl/src/core/lv_obj_style_gen.h **** static inline lv_coord_t lv_obj_get_style_transform_zoom(const struct _lv_obj_t * obj, uint32_t par
  80:lvgl/lvgl/src/core/lv_obj_style_gen.h **** {
  81:lvgl/lvgl/src/core/lv_obj_style_gen.h ****     lv_style_value_t v = lv_obj_get_style_prop(obj, part, LV_STYLE_TRANSFORM_ZOOM);
  82:lvgl/lvgl/src/core/lv_obj_style_gen.h ****     return (lv_coord_t)v.num;
  83:lvgl/lvgl/src/core/lv_obj_style_gen.h **** }
  84:lvgl/lvgl/src/core/lv_obj_style_gen.h **** 
  85:lvgl/lvgl/src/core/lv_obj_style_gen.h **** static inline lv_coord_t lv_obj_get_style_transform_angle(const struct _lv_obj_t * obj, uint32_t pa
ARM GAS  C:\Users\gx\AppData\Local\Temp\ccHlQRWF.s 			page 29


  86:lvgl/lvgl/src/core/lv_obj_style_gen.h **** {
  87:lvgl/lvgl/src/core/lv_obj_style_gen.h ****     lv_style_value_t v = lv_obj_get_style_prop(obj, part, LV_STYLE_TRANSFORM_ANGLE);
  88:lvgl/lvgl/src/core/lv_obj_style_gen.h ****     return (lv_coord_t)v.num;
  89:lvgl/lvgl/src/core/lv_obj_style_gen.h **** }
  90:lvgl/lvgl/src/core/lv_obj_style_gen.h **** 
  91:lvgl/lvgl/src/core/lv_obj_style_gen.h **** static inline lv_coord_t lv_obj_get_style_pad_top(const struct _lv_obj_t * obj, uint32_t part)
 774              		.loc 2 91 26 view .LVU179
 775              	.LBB93:
  92:lvgl/lvgl/src/core/lv_obj_style_gen.h **** {
  93:lvgl/lvgl/src/core/lv_obj_style_gen.h ****     lv_style_value_t v = lv_obj_get_style_prop(obj, part, LV_STYLE_PAD_TOP);
 776              		.loc 2 93 5 view .LVU180
 777              		.loc 2 93 26 is_stmt 0 view .LVU181
 778 003a 41F21002 		movw	r2, #4112
 779 003e 0021     		movs	r1, #0
 780 0040 3046     		mov	r0, r6
 781 0042 FFF7FEFF 		bl	lv_obj_get_style_prop
 782              	.LVL66:
 783 0046 0546     		mov	r5, r0
  94:lvgl/lvgl/src/core/lv_obj_style_gen.h ****     return (lv_coord_t)v.num;
 784              		.loc 2 94 5 is_stmt 1 view .LVU182
 785              	.LVL67:
 786              		.loc 2 94 5 is_stmt 0 view .LVU183
 787              	.LBE93:
 788              	.LBE92:
 148:lvgl/lvgl/src/core/lv_obj_scroll.c ****     lv_coord_t border_width = lv_obj_get_style_border_width(obj, LV_PART_MAIN);
 789              		.loc 1 148 5 is_stmt 1 view .LVU184
 790              	.LBB94:
 791              	.LBI94:
  95:lvgl/lvgl/src/core/lv_obj_style_gen.h **** }
  96:lvgl/lvgl/src/core/lv_obj_style_gen.h **** 
  97:lvgl/lvgl/src/core/lv_obj_style_gen.h **** static inline lv_coord_t lv_obj_get_style_pad_bottom(const struct _lv_obj_t * obj, uint32_t part)
 792              		.loc 2 97 26 view .LVU185
 793              	.LBB95:
  98:lvgl/lvgl/src/core/lv_obj_style_gen.h **** {
  99:lvgl/lvgl/src/core/lv_obj_style_gen.h ****     lv_style_value_t v = lv_obj_get_style_prop(obj, part, LV_STYLE_PAD_BOTTOM);
 794              		.loc 2 99 5 view .LVU186
 795              		.loc 2 99 26 is_stmt 0 view .LVU187
 796 0048 41F21102 		movw	r2, #4113
 797 004c 0021     		movs	r1, #0
 798 004e 3046     		mov	r0, r6
 799 0050 FFF7FEFF 		bl	lv_obj_get_style_prop
 800              	.LVL68:
 801 0054 8246     		mov	r10, r0
 100:lvgl/lvgl/src/core/lv_obj_style_gen.h ****     return (lv_coord_t)v.num;
 802              		.loc 2 100 5 is_stmt 1 view .LVU188
 803              	.LVL69:
 804              		.loc 2 100 5 is_stmt 0 view .LVU189
 805              	.LBE95:
 806              	.LBE94:
 149:lvgl/lvgl/src/core/lv_obj_scroll.c **** 
 807              		.loc 1 149 5 is_stmt 1 view .LVU190
 808              	.LBB96:
 809              	.LBI96:
 101:lvgl/lvgl/src/core/lv_obj_style_gen.h **** }
 102:lvgl/lvgl/src/core/lv_obj_style_gen.h **** 
 103:lvgl/lvgl/src/core/lv_obj_style_gen.h **** static inline lv_coord_t lv_obj_get_style_pad_left(const struct _lv_obj_t * obj, uint32_t part)
 104:lvgl/lvgl/src/core/lv_obj_style_gen.h **** {
ARM GAS  C:\Users\gx\AppData\Local\Temp\ccHlQRWF.s 			page 30


 105:lvgl/lvgl/src/core/lv_obj_style_gen.h ****     lv_style_value_t v = lv_obj_get_style_prop(obj, part, LV_STYLE_PAD_LEFT);
 106:lvgl/lvgl/src/core/lv_obj_style_gen.h ****     return (lv_coord_t)v.num;
 107:lvgl/lvgl/src/core/lv_obj_style_gen.h **** }
 108:lvgl/lvgl/src/core/lv_obj_style_gen.h **** 
 109:lvgl/lvgl/src/core/lv_obj_style_gen.h **** static inline lv_coord_t lv_obj_get_style_pad_right(const struct _lv_obj_t * obj, uint32_t part)
 110:lvgl/lvgl/src/core/lv_obj_style_gen.h **** {
 111:lvgl/lvgl/src/core/lv_obj_style_gen.h ****     lv_style_value_t v = lv_obj_get_style_prop(obj, part, LV_STYLE_PAD_RIGHT);
 112:lvgl/lvgl/src/core/lv_obj_style_gen.h ****     return (lv_coord_t)v.num;
 113:lvgl/lvgl/src/core/lv_obj_style_gen.h **** }
 114:lvgl/lvgl/src/core/lv_obj_style_gen.h **** 
 115:lvgl/lvgl/src/core/lv_obj_style_gen.h **** static inline lv_coord_t lv_obj_get_style_pad_row(const struct _lv_obj_t * obj, uint32_t part)
 116:lvgl/lvgl/src/core/lv_obj_style_gen.h **** {
 117:lvgl/lvgl/src/core/lv_obj_style_gen.h ****     lv_style_value_t v = lv_obj_get_style_prop(obj, part, LV_STYLE_PAD_ROW);
 118:lvgl/lvgl/src/core/lv_obj_style_gen.h ****     return (lv_coord_t)v.num;
 119:lvgl/lvgl/src/core/lv_obj_style_gen.h **** }
 120:lvgl/lvgl/src/core/lv_obj_style_gen.h **** 
 121:lvgl/lvgl/src/core/lv_obj_style_gen.h **** static inline lv_coord_t lv_obj_get_style_pad_column(const struct _lv_obj_t * obj, uint32_t part)
 122:lvgl/lvgl/src/core/lv_obj_style_gen.h **** {
 123:lvgl/lvgl/src/core/lv_obj_style_gen.h ****     lv_style_value_t v = lv_obj_get_style_prop(obj, part, LV_STYLE_PAD_COLUMN);
 124:lvgl/lvgl/src/core/lv_obj_style_gen.h ****     return (lv_coord_t)v.num;
 125:lvgl/lvgl/src/core/lv_obj_style_gen.h **** }
 126:lvgl/lvgl/src/core/lv_obj_style_gen.h **** 
 127:lvgl/lvgl/src/core/lv_obj_style_gen.h **** static inline lv_coord_t lv_obj_get_style_radius(const struct _lv_obj_t * obj, uint32_t part)
 128:lvgl/lvgl/src/core/lv_obj_style_gen.h **** {
 129:lvgl/lvgl/src/core/lv_obj_style_gen.h ****     lv_style_value_t v = lv_obj_get_style_prop(obj, part, LV_STYLE_RADIUS);
 130:lvgl/lvgl/src/core/lv_obj_style_gen.h ****     return (lv_coord_t)v.num;
 131:lvgl/lvgl/src/core/lv_obj_style_gen.h **** }
 132:lvgl/lvgl/src/core/lv_obj_style_gen.h **** 
 133:lvgl/lvgl/src/core/lv_obj_style_gen.h **** static inline bool lv_obj_get_style_clip_corner(const struct _lv_obj_t * obj, uint32_t part)
 134:lvgl/lvgl/src/core/lv_obj_style_gen.h **** {
 135:lvgl/lvgl/src/core/lv_obj_style_gen.h ****     lv_style_value_t v = lv_obj_get_style_prop(obj, part, LV_STYLE_CLIP_CORNER);
 136:lvgl/lvgl/src/core/lv_obj_style_gen.h ****     return (bool)v.num;
 137:lvgl/lvgl/src/core/lv_obj_style_gen.h **** }
 138:lvgl/lvgl/src/core/lv_obj_style_gen.h **** 
 139:lvgl/lvgl/src/core/lv_obj_style_gen.h **** static inline lv_opa_t lv_obj_get_style_opa(const struct _lv_obj_t * obj, uint32_t part)
 140:lvgl/lvgl/src/core/lv_obj_style_gen.h **** {
 141:lvgl/lvgl/src/core/lv_obj_style_gen.h ****     lv_style_value_t v = lv_obj_get_style_prop(obj, part, LV_STYLE_OPA);
 142:lvgl/lvgl/src/core/lv_obj_style_gen.h ****     return (lv_opa_t)v.num;
 143:lvgl/lvgl/src/core/lv_obj_style_gen.h **** }
 144:lvgl/lvgl/src/core/lv_obj_style_gen.h **** 
 145:lvgl/lvgl/src/core/lv_obj_style_gen.h **** static inline const lv_color_filter_dsc_t * lv_obj_get_style_color_filter_dsc(const struct _lv_obj_
 146:lvgl/lvgl/src/core/lv_obj_style_gen.h **** {
 147:lvgl/lvgl/src/core/lv_obj_style_gen.h ****     lv_style_value_t v = lv_obj_get_style_prop(obj, part, LV_STYLE_COLOR_FILTER_DSC);
 148:lvgl/lvgl/src/core/lv_obj_style_gen.h ****     return (const lv_color_filter_dsc_t *)v.ptr;
 149:lvgl/lvgl/src/core/lv_obj_style_gen.h **** }
 150:lvgl/lvgl/src/core/lv_obj_style_gen.h **** 
 151:lvgl/lvgl/src/core/lv_obj_style_gen.h **** static inline lv_opa_t lv_obj_get_style_color_filter_opa(const struct _lv_obj_t * obj, uint32_t par
 152:lvgl/lvgl/src/core/lv_obj_style_gen.h **** {
 153:lvgl/lvgl/src/core/lv_obj_style_gen.h ****     lv_style_value_t v = lv_obj_get_style_prop(obj, part, LV_STYLE_COLOR_FILTER_OPA);
 154:lvgl/lvgl/src/core/lv_obj_style_gen.h ****     return (lv_opa_t)v.num;
 155:lvgl/lvgl/src/core/lv_obj_style_gen.h **** }
 156:lvgl/lvgl/src/core/lv_obj_style_gen.h **** 
 157:lvgl/lvgl/src/core/lv_obj_style_gen.h **** static inline uint32_t lv_obj_get_style_anim_time(const struct _lv_obj_t * obj, uint32_t part)
 158:lvgl/lvgl/src/core/lv_obj_style_gen.h **** {
 159:lvgl/lvgl/src/core/lv_obj_style_gen.h ****     lv_style_value_t v = lv_obj_get_style_prop(obj, part, LV_STYLE_ANIM_TIME);
 160:lvgl/lvgl/src/core/lv_obj_style_gen.h ****     return (uint32_t)v.num;
 161:lvgl/lvgl/src/core/lv_obj_style_gen.h **** }
ARM GAS  C:\Users\gx\AppData\Local\Temp\ccHlQRWF.s 			page 31


 162:lvgl/lvgl/src/core/lv_obj_style_gen.h **** 
 163:lvgl/lvgl/src/core/lv_obj_style_gen.h **** static inline uint32_t lv_obj_get_style_anim_speed(const struct _lv_obj_t * obj, uint32_t part)
 164:lvgl/lvgl/src/core/lv_obj_style_gen.h **** {
 165:lvgl/lvgl/src/core/lv_obj_style_gen.h ****     lv_style_value_t v = lv_obj_get_style_prop(obj, part, LV_STYLE_ANIM_SPEED);
 166:lvgl/lvgl/src/core/lv_obj_style_gen.h ****     return (uint32_t)v.num;
 167:lvgl/lvgl/src/core/lv_obj_style_gen.h **** }
 168:lvgl/lvgl/src/core/lv_obj_style_gen.h **** 
 169:lvgl/lvgl/src/core/lv_obj_style_gen.h **** static inline const lv_style_transition_dsc_t * lv_obj_get_style_transition(const struct _lv_obj_t 
 170:lvgl/lvgl/src/core/lv_obj_style_gen.h **** {
 171:lvgl/lvgl/src/core/lv_obj_style_gen.h ****     lv_style_value_t v = lv_obj_get_style_prop(obj, part, LV_STYLE_TRANSITION);
 172:lvgl/lvgl/src/core/lv_obj_style_gen.h ****     return (const lv_style_transition_dsc_t *)v.ptr;
 173:lvgl/lvgl/src/core/lv_obj_style_gen.h **** }
 174:lvgl/lvgl/src/core/lv_obj_style_gen.h **** 
 175:lvgl/lvgl/src/core/lv_obj_style_gen.h **** static inline lv_blend_mode_t lv_obj_get_style_blend_mode(const struct _lv_obj_t * obj, uint32_t pa
 176:lvgl/lvgl/src/core/lv_obj_style_gen.h **** {
 177:lvgl/lvgl/src/core/lv_obj_style_gen.h ****     lv_style_value_t v = lv_obj_get_style_prop(obj, part, LV_STYLE_BLEND_MODE);
 178:lvgl/lvgl/src/core/lv_obj_style_gen.h ****     return (lv_blend_mode_t)v.num;
 179:lvgl/lvgl/src/core/lv_obj_style_gen.h **** }
 180:lvgl/lvgl/src/core/lv_obj_style_gen.h **** 
 181:lvgl/lvgl/src/core/lv_obj_style_gen.h **** static inline uint16_t lv_obj_get_style_layout(const struct _lv_obj_t * obj, uint32_t part)
 182:lvgl/lvgl/src/core/lv_obj_style_gen.h **** {
 183:lvgl/lvgl/src/core/lv_obj_style_gen.h ****     lv_style_value_t v = lv_obj_get_style_prop(obj, part, LV_STYLE_LAYOUT);
 184:lvgl/lvgl/src/core/lv_obj_style_gen.h ****     return (uint16_t)v.num;
 185:lvgl/lvgl/src/core/lv_obj_style_gen.h **** }
 186:lvgl/lvgl/src/core/lv_obj_style_gen.h **** 
 187:lvgl/lvgl/src/core/lv_obj_style_gen.h **** static inline lv_base_dir_t lv_obj_get_style_base_dir(const struct _lv_obj_t * obj, uint32_t part)
 188:lvgl/lvgl/src/core/lv_obj_style_gen.h **** {
 189:lvgl/lvgl/src/core/lv_obj_style_gen.h ****     lv_style_value_t v = lv_obj_get_style_prop(obj, part, LV_STYLE_BASE_DIR);
 190:lvgl/lvgl/src/core/lv_obj_style_gen.h ****     return (lv_base_dir_t)v.num;
 191:lvgl/lvgl/src/core/lv_obj_style_gen.h **** }
 192:lvgl/lvgl/src/core/lv_obj_style_gen.h **** 
 193:lvgl/lvgl/src/core/lv_obj_style_gen.h **** static inline lv_color_t lv_obj_get_style_bg_color(const struct _lv_obj_t * obj, uint32_t part)
 194:lvgl/lvgl/src/core/lv_obj_style_gen.h **** {
 195:lvgl/lvgl/src/core/lv_obj_style_gen.h ****     lv_style_value_t v = lv_obj_get_style_prop(obj, part, LV_STYLE_BG_COLOR);
 196:lvgl/lvgl/src/core/lv_obj_style_gen.h ****     return v.color;
 197:lvgl/lvgl/src/core/lv_obj_style_gen.h **** }
 198:lvgl/lvgl/src/core/lv_obj_style_gen.h **** 
 199:lvgl/lvgl/src/core/lv_obj_style_gen.h **** static inline lv_color_t lv_obj_get_style_bg_color_filtered(const struct _lv_obj_t * obj, uint32_t 
 200:lvgl/lvgl/src/core/lv_obj_style_gen.h **** {
 201:lvgl/lvgl/src/core/lv_obj_style_gen.h ****     lv_style_value_t v = lv_obj_get_style_prop(obj, part, LV_STYLE_BG_COLOR_FILTERED);
 202:lvgl/lvgl/src/core/lv_obj_style_gen.h ****     return v.color;
 203:lvgl/lvgl/src/core/lv_obj_style_gen.h **** }
 204:lvgl/lvgl/src/core/lv_obj_style_gen.h **** 
 205:lvgl/lvgl/src/core/lv_obj_style_gen.h **** static inline lv_opa_t lv_obj_get_style_bg_opa(const struct _lv_obj_t * obj, uint32_t part)
 206:lvgl/lvgl/src/core/lv_obj_style_gen.h **** {
 207:lvgl/lvgl/src/core/lv_obj_style_gen.h ****     lv_style_value_t v = lv_obj_get_style_prop(obj, part, LV_STYLE_BG_OPA);
 208:lvgl/lvgl/src/core/lv_obj_style_gen.h ****     return (lv_opa_t)v.num;
 209:lvgl/lvgl/src/core/lv_obj_style_gen.h **** }
 210:lvgl/lvgl/src/core/lv_obj_style_gen.h **** 
 211:lvgl/lvgl/src/core/lv_obj_style_gen.h **** static inline lv_color_t lv_obj_get_style_bg_grad_color(const struct _lv_obj_t * obj, uint32_t part
 212:lvgl/lvgl/src/core/lv_obj_style_gen.h **** {
 213:lvgl/lvgl/src/core/lv_obj_style_gen.h ****     lv_style_value_t v = lv_obj_get_style_prop(obj, part, LV_STYLE_BG_GRAD_COLOR);
 214:lvgl/lvgl/src/core/lv_obj_style_gen.h ****     return v.color;
 215:lvgl/lvgl/src/core/lv_obj_style_gen.h **** }
 216:lvgl/lvgl/src/core/lv_obj_style_gen.h **** 
 217:lvgl/lvgl/src/core/lv_obj_style_gen.h **** static inline lv_color_t lv_obj_get_style_bg_grad_color_filtered(const struct _lv_obj_t * obj, uint
 218:lvgl/lvgl/src/core/lv_obj_style_gen.h **** {
ARM GAS  C:\Users\gx\AppData\Local\Temp\ccHlQRWF.s 			page 32


 219:lvgl/lvgl/src/core/lv_obj_style_gen.h ****     lv_style_value_t v = lv_obj_get_style_prop(obj, part, LV_STYLE_BG_GRAD_COLOR_FILTERED);
 220:lvgl/lvgl/src/core/lv_obj_style_gen.h ****     return v.color;
 221:lvgl/lvgl/src/core/lv_obj_style_gen.h **** }
 222:lvgl/lvgl/src/core/lv_obj_style_gen.h **** 
 223:lvgl/lvgl/src/core/lv_obj_style_gen.h **** static inline lv_grad_dir_t lv_obj_get_style_bg_grad_dir(const struct _lv_obj_t * obj, uint32_t par
 224:lvgl/lvgl/src/core/lv_obj_style_gen.h **** {
 225:lvgl/lvgl/src/core/lv_obj_style_gen.h ****     lv_style_value_t v = lv_obj_get_style_prop(obj, part, LV_STYLE_BG_GRAD_DIR);
 226:lvgl/lvgl/src/core/lv_obj_style_gen.h ****     return (lv_grad_dir_t)v.num;
 227:lvgl/lvgl/src/core/lv_obj_style_gen.h **** }
 228:lvgl/lvgl/src/core/lv_obj_style_gen.h **** 
 229:lvgl/lvgl/src/core/lv_obj_style_gen.h **** static inline lv_coord_t lv_obj_get_style_bg_main_stop(const struct _lv_obj_t * obj, uint32_t part)
 230:lvgl/lvgl/src/core/lv_obj_style_gen.h **** {
 231:lvgl/lvgl/src/core/lv_obj_style_gen.h ****     lv_style_value_t v = lv_obj_get_style_prop(obj, part, LV_STYLE_BG_MAIN_STOP);
 232:lvgl/lvgl/src/core/lv_obj_style_gen.h ****     return (lv_coord_t)v.num;
 233:lvgl/lvgl/src/core/lv_obj_style_gen.h **** }
 234:lvgl/lvgl/src/core/lv_obj_style_gen.h **** 
 235:lvgl/lvgl/src/core/lv_obj_style_gen.h **** static inline lv_coord_t lv_obj_get_style_bg_grad_stop(const struct _lv_obj_t * obj, uint32_t part)
 236:lvgl/lvgl/src/core/lv_obj_style_gen.h **** {
 237:lvgl/lvgl/src/core/lv_obj_style_gen.h ****     lv_style_value_t v = lv_obj_get_style_prop(obj, part, LV_STYLE_BG_GRAD_STOP);
 238:lvgl/lvgl/src/core/lv_obj_style_gen.h ****     return (lv_coord_t)v.num;
 239:lvgl/lvgl/src/core/lv_obj_style_gen.h **** }
 240:lvgl/lvgl/src/core/lv_obj_style_gen.h **** 
 241:lvgl/lvgl/src/core/lv_obj_style_gen.h **** static inline const void * lv_obj_get_style_bg_img_src(const struct _lv_obj_t * obj, uint32_t part)
 242:lvgl/lvgl/src/core/lv_obj_style_gen.h **** {
 243:lvgl/lvgl/src/core/lv_obj_style_gen.h ****     lv_style_value_t v = lv_obj_get_style_prop(obj, part, LV_STYLE_BG_IMG_SRC);
 244:lvgl/lvgl/src/core/lv_obj_style_gen.h ****     return (const void *)v.ptr;
 245:lvgl/lvgl/src/core/lv_obj_style_gen.h **** }
 246:lvgl/lvgl/src/core/lv_obj_style_gen.h **** 
 247:lvgl/lvgl/src/core/lv_obj_style_gen.h **** static inline lv_opa_t lv_obj_get_style_bg_img_opa(const struct _lv_obj_t * obj, uint32_t part)
 248:lvgl/lvgl/src/core/lv_obj_style_gen.h **** {
 249:lvgl/lvgl/src/core/lv_obj_style_gen.h ****     lv_style_value_t v = lv_obj_get_style_prop(obj, part, LV_STYLE_BG_IMG_OPA);
 250:lvgl/lvgl/src/core/lv_obj_style_gen.h ****     return (lv_opa_t)v.num;
 251:lvgl/lvgl/src/core/lv_obj_style_gen.h **** }
 252:lvgl/lvgl/src/core/lv_obj_style_gen.h **** 
 253:lvgl/lvgl/src/core/lv_obj_style_gen.h **** static inline lv_color_t lv_obj_get_style_bg_img_recolor(const struct _lv_obj_t * obj, uint32_t par
 254:lvgl/lvgl/src/core/lv_obj_style_gen.h **** {
 255:lvgl/lvgl/src/core/lv_obj_style_gen.h ****     lv_style_value_t v = lv_obj_get_style_prop(obj, part, LV_STYLE_BG_IMG_RECOLOR);
 256:lvgl/lvgl/src/core/lv_obj_style_gen.h ****     return v.color;
 257:lvgl/lvgl/src/core/lv_obj_style_gen.h **** }
 258:lvgl/lvgl/src/core/lv_obj_style_gen.h **** 
 259:lvgl/lvgl/src/core/lv_obj_style_gen.h **** static inline lv_color_t lv_obj_get_style_bg_img_recolor_filtered(const struct _lv_obj_t * obj, uin
 260:lvgl/lvgl/src/core/lv_obj_style_gen.h **** {
 261:lvgl/lvgl/src/core/lv_obj_style_gen.h ****     lv_style_value_t v = lv_obj_get_style_prop(obj, part, LV_STYLE_BG_IMG_RECOLOR_FILTERED);
 262:lvgl/lvgl/src/core/lv_obj_style_gen.h ****     return v.color;
 263:lvgl/lvgl/src/core/lv_obj_style_gen.h **** }
 264:lvgl/lvgl/src/core/lv_obj_style_gen.h **** 
 265:lvgl/lvgl/src/core/lv_obj_style_gen.h **** static inline lv_opa_t lv_obj_get_style_bg_img_recolor_opa(const struct _lv_obj_t * obj, uint32_t p
 266:lvgl/lvgl/src/core/lv_obj_style_gen.h **** {
 267:lvgl/lvgl/src/core/lv_obj_style_gen.h ****     lv_style_value_t v = lv_obj_get_style_prop(obj, part, LV_STYLE_BG_IMG_RECOLOR_OPA);
 268:lvgl/lvgl/src/core/lv_obj_style_gen.h ****     return (lv_opa_t)v.num;
 269:lvgl/lvgl/src/core/lv_obj_style_gen.h **** }
 270:lvgl/lvgl/src/core/lv_obj_style_gen.h **** 
 271:lvgl/lvgl/src/core/lv_obj_style_gen.h **** static inline bool lv_obj_get_style_bg_img_tiled(const struct _lv_obj_t * obj, uint32_t part)
 272:lvgl/lvgl/src/core/lv_obj_style_gen.h **** {
 273:lvgl/lvgl/src/core/lv_obj_style_gen.h ****     lv_style_value_t v = lv_obj_get_style_prop(obj, part, LV_STYLE_BG_IMG_TILED);
 274:lvgl/lvgl/src/core/lv_obj_style_gen.h ****     return (bool)v.num;
 275:lvgl/lvgl/src/core/lv_obj_style_gen.h **** }
ARM GAS  C:\Users\gx\AppData\Local\Temp\ccHlQRWF.s 			page 33


 276:lvgl/lvgl/src/core/lv_obj_style_gen.h **** 
 277:lvgl/lvgl/src/core/lv_obj_style_gen.h **** static inline lv_color_t lv_obj_get_style_border_color(const struct _lv_obj_t * obj, uint32_t part)
 278:lvgl/lvgl/src/core/lv_obj_style_gen.h **** {
 279:lvgl/lvgl/src/core/lv_obj_style_gen.h ****     lv_style_value_t v = lv_obj_get_style_prop(obj, part, LV_STYLE_BORDER_COLOR);
 280:lvgl/lvgl/src/core/lv_obj_style_gen.h ****     return v.color;
 281:lvgl/lvgl/src/core/lv_obj_style_gen.h **** }
 282:lvgl/lvgl/src/core/lv_obj_style_gen.h **** 
 283:lvgl/lvgl/src/core/lv_obj_style_gen.h **** static inline lv_color_t lv_obj_get_style_border_color_filtered(const struct _lv_obj_t * obj, uint3
 284:lvgl/lvgl/src/core/lv_obj_style_gen.h **** {
 285:lvgl/lvgl/src/core/lv_obj_style_gen.h ****     lv_style_value_t v = lv_obj_get_style_prop(obj, part, LV_STYLE_BORDER_COLOR_FILTERED);
 286:lvgl/lvgl/src/core/lv_obj_style_gen.h ****     return v.color;
 287:lvgl/lvgl/src/core/lv_obj_style_gen.h **** }
 288:lvgl/lvgl/src/core/lv_obj_style_gen.h **** 
 289:lvgl/lvgl/src/core/lv_obj_style_gen.h **** static inline lv_opa_t lv_obj_get_style_border_opa(const struct _lv_obj_t * obj, uint32_t part)
 290:lvgl/lvgl/src/core/lv_obj_style_gen.h **** {
 291:lvgl/lvgl/src/core/lv_obj_style_gen.h ****     lv_style_value_t v = lv_obj_get_style_prop(obj, part, LV_STYLE_BORDER_OPA);
 292:lvgl/lvgl/src/core/lv_obj_style_gen.h ****     return (lv_opa_t)v.num;
 293:lvgl/lvgl/src/core/lv_obj_style_gen.h **** }
 294:lvgl/lvgl/src/core/lv_obj_style_gen.h **** 
 295:lvgl/lvgl/src/core/lv_obj_style_gen.h **** static inline lv_coord_t lv_obj_get_style_border_width(const struct _lv_obj_t * obj, uint32_t part)
 810              		.loc 2 295 26 view .LVU191
 811              	.LBB97:
 296:lvgl/lvgl/src/core/lv_obj_style_gen.h **** {
 297:lvgl/lvgl/src/core/lv_obj_style_gen.h ****     lv_style_value_t v = lv_obj_get_style_prop(obj, part, LV_STYLE_BORDER_WIDTH);
 812              		.loc 2 297 5 view .LVU192
 813              		.loc 2 297 26 is_stmt 0 view .LVU193
 814 0056 41F23202 		movw	r2, #4146
 815 005a 0021     		movs	r1, #0
 816 005c 3046     		mov	r0, r6
 817 005e FFF7FEFF 		bl	lv_obj_get_style_prop
 818              	.LVL70:
 819 0062 8046     		mov	r8, r0
 820              	.LVL71:
 298:lvgl/lvgl/src/core/lv_obj_style_gen.h ****     return (lv_coord_t)v.num;
 821              		.loc 2 298 5 is_stmt 1 view .LVU194
 822              		.loc 2 298 5 is_stmt 0 view .LVU195
 823              	.LBE97:
 824              	.LBE96:
 151:lvgl/lvgl/src/core/lv_obj_scroll.c ****         child_res -= (obj->coords.y2 - pad_bottom - border_width);
 825              		.loc 1 151 5 is_stmt 1 view .LVU196
 151:lvgl/lvgl/src/core/lv_obj_scroll.c ****         child_res -= (obj->coords.y2 - pad_bottom - border_width);
 826              		.loc 1 151 7 is_stmt 0 view .LVU197
 827 0064 17F5C04F 		cmn	r7, #24576
 828 0068 05D0     		beq	.L47
 152:lvgl/lvgl/src/core/lv_obj_scroll.c ****     }
 829              		.loc 1 152 9 is_stmt 1 view .LVU198
 152:lvgl/lvgl/src/core/lv_obj_scroll.c ****     }
 830              		.loc 1 152 34 is_stmt 0 view .LVU199
 831 006a 738B     		ldrh	r3, [r6, #26]
 152:lvgl/lvgl/src/core/lv_obj_scroll.c ****     }
 832              		.loc 1 152 19 view .LVU200
 833 006c AAEB0303 		sub	r3, r10, r3
 834 0070 0344     		add	r3, r3, r0
 835 0072 1F44     		add	r7, r7, r3
 836              	.LVL72:
 152:lvgl/lvgl/src/core/lv_obj_scroll.c ****     }
 837              		.loc 1 152 19 view .LVU201
ARM GAS  C:\Users\gx\AppData\Local\Temp\ccHlQRWF.s 			page 34


 838 0074 3FB2     		sxth	r7, r7
 839              	.LVL73:
 840              	.L47:
 155:lvgl/lvgl/src/core/lv_obj_scroll.c ****     self_h = self_h - (lv_obj_get_height(obj) - pad_top - pad_bottom - 2 * border_width);
 841              		.loc 1 155 5 is_stmt 1 view .LVU202
 155:lvgl/lvgl/src/core/lv_obj_scroll.c ****     self_h = self_h - (lv_obj_get_height(obj) - pad_top - pad_bottom - 2 * border_width);
 842              		.loc 1 155 25 is_stmt 0 view .LVU203
 843 0076 3046     		mov	r0, r6
 844              	.LVL74:
 155:lvgl/lvgl/src/core/lv_obj_scroll.c ****     self_h = self_h - (lv_obj_get_height(obj) - pad_top - pad_bottom - 2 * border_width);
 845              		.loc 1 155 25 view .LVU204
 846 0078 FFF7FEFF 		bl	lv_obj_get_self_height
 847              	.LVL75:
 848 007c 8146     		mov	r9, r0
 849              	.LVL76:
 156:lvgl/lvgl/src/core/lv_obj_scroll.c ****     self_h -= lv_obj_get_scroll_y(obj);
 850              		.loc 1 156 5 is_stmt 1 view .LVU205
 156:lvgl/lvgl/src/core/lv_obj_scroll.c ****     self_h -= lv_obj_get_scroll_y(obj);
 851              		.loc 1 156 74 is_stmt 0 view .LVU206
 852 007e 4FEA4808 		lsl	r8, r8, #1
 853 0082 1FFA88F8 		uxth	r8, r8
 156:lvgl/lvgl/src/core/lv_obj_scroll.c ****     self_h -= lv_obj_get_scroll_y(obj);
 854              		.loc 1 156 24 view .LVU207
 855 0086 3046     		mov	r0, r6
 856 0088 FFF7FEFF 		bl	lv_obj_get_height
 857              	.LVL77:
 858 008c 84B2     		uxth	r4, r0
 859              	.LVL78:
 156:lvgl/lvgl/src/core/lv_obj_scroll.c ****     self_h -= lv_obj_get_scroll_y(obj);
 860              		.loc 1 156 47 view .LVU208
 861 008e 2D1B     		subs	r5, r5, r4
 862              	.LVL79:
 156:lvgl/lvgl/src/core/lv_obj_scroll.c ****     self_h -= lv_obj_get_scroll_y(obj);
 863              		.loc 1 156 57 view .LVU209
 864 0090 1AFA85F4 		uxtah	r4, r10, r5
 156:lvgl/lvgl/src/core/lv_obj_scroll.c ****     self_h -= lv_obj_get_scroll_y(obj);
 865              		.loc 1 156 70 view .LVU210
 866 0094 18FA84F4 		uxtah	r4, r8, r4
 156:lvgl/lvgl/src/core/lv_obj_scroll.c ****     self_h -= lv_obj_get_scroll_y(obj);
 867              		.loc 1 156 21 view .LVU211
 868 0098 19FA84F4 		uxtah	r4, r9, r4
 869 009c A4B2     		uxth	r4, r4
 870              	.LVL80:
 157:lvgl/lvgl/src/core/lv_obj_scroll.c ****     return LV_MAX(child_res, self_h);
 871              		.loc 1 157 5 is_stmt 1 view .LVU212
 157:lvgl/lvgl/src/core/lv_obj_scroll.c ****     return LV_MAX(child_res, self_h);
 872              		.loc 1 157 15 is_stmt 0 view .LVU213
 873 009e 3046     		mov	r0, r6
 874 00a0 FFF7FEFF 		bl	lv_obj_get_scroll_y
 875              	.LVL81:
 876 00a4 80B2     		uxth	r0, r0
 157:lvgl/lvgl/src/core/lv_obj_scroll.c ****     return LV_MAX(child_res, self_h);
 877              		.loc 1 157 12 view .LVU214
 878 00a6 201A     		subs	r0, r4, r0
 879 00a8 00B2     		sxth	r0, r0
 880              	.LVL82:
 158:lvgl/lvgl/src/core/lv_obj_scroll.c **** }
ARM GAS  C:\Users\gx\AppData\Local\Temp\ccHlQRWF.s 			page 35


 881              		.loc 1 158 5 is_stmt 1 view .LVU215
 159:lvgl/lvgl/src/core/lv_obj_scroll.c **** 
 882              		.loc 1 159 1 is_stmt 0 view .LVU216
 883 00aa B842     		cmp	r0, r7
 884 00ac B8BF     		it	lt
 885 00ae 3846     		movlt	r0, r7
 886              	.LVL83:
 159:lvgl/lvgl/src/core/lv_obj_scroll.c **** 
 887              		.loc 1 159 1 view .LVU217
 888 00b0 BDE8F087 		pop	{r4, r5, r6, r7, r8, r9, r10, pc}
 889              	.LVL84:
 890              	.L51:
 159:lvgl/lvgl/src/core/lv_obj_scroll.c **** 
 891              		.loc 1 159 1 view .LVU218
 892              		.align	2
 893              	.L50:
 894 00b4 00A0FFFF 		.word	-24576
 895              		.cfi_endproc
 896              	.LFE169:
 898              		.section	.text.lv_obj_get_scroll_left,"ax",%progbits
 899              		.align	1
 900              		.global	lv_obj_get_scroll_left
 901              		.syntax unified
 902              		.thumb
 903              		.thumb_func
 904              		.fpu fpv4-sp-d16
 906              	lv_obj_get_scroll_left:
 907              	.LVL85:
 908              	.LFB170:
 162:lvgl/lvgl/src/core/lv_obj_scroll.c ****     LV_ASSERT_OBJ(obj, MY_CLASS);
 909              		.loc 1 162 1 is_stmt 1 view -0
 910              		.cfi_startproc
 911              		@ args = 0, pretend = 0, frame = 0
 912              		@ frame_needed = 0, uses_anonymous_args = 0
 162:lvgl/lvgl/src/core/lv_obj_scroll.c ****     LV_ASSERT_OBJ(obj, MY_CLASS);
 913              		.loc 1 162 1 is_stmt 0 view .LVU220
 914 0000 2DE9F84F 		push	{r3, r4, r5, r6, r7, r8, r9, r10, fp, lr}
 915              	.LCFI9:
 916              		.cfi_def_cfa_offset 40
 917              		.cfi_offset 3, -40
 918              		.cfi_offset 4, -36
 919              		.cfi_offset 5, -32
 920              		.cfi_offset 6, -28
 921              		.cfi_offset 7, -24
 922              		.cfi_offset 8, -20
 923              		.cfi_offset 9, -16
 924              		.cfi_offset 10, -12
 925              		.cfi_offset 11, -8
 926              		.cfi_offset 14, -4
 927 0004 0446     		mov	r4, r0
 163:lvgl/lvgl/src/core/lv_obj_scroll.c **** 
 928              		.loc 1 163 5 is_stmt 1 view .LVU221
 163:lvgl/lvgl/src/core/lv_obj_scroll.c **** 
 929              		.loc 1 163 5 view .LVU222
 163:lvgl/lvgl/src/core/lv_obj_scroll.c **** 
 930              		.loc 1 163 5 view .LVU223
 167:lvgl/lvgl/src/core/lv_obj_scroll.c ****         if(obj->spec_attr == NULL) return 0;
ARM GAS  C:\Users\gx\AppData\Local\Temp\ccHlQRWF.s 			page 36


 931              		.loc 1 167 5 view .LVU224
 932              	.LVL86:
 933              	.LBB98:
 934              	.LBI98:
 187:lvgl/lvgl/src/core/lv_obj_style_gen.h **** {
 935              		.loc 2 187 29 view .LVU225
 936              	.LBB99:
 189:lvgl/lvgl/src/core/lv_obj_style_gen.h ****     return (lv_base_dir_t)v.num;
 937              		.loc 2 189 5 view .LVU226
 189:lvgl/lvgl/src/core/lv_obj_style_gen.h ****     return (lv_base_dir_t)v.num;
 938              		.loc 2 189 26 is_stmt 0 view .LVU227
 939 0006 41F26A42 		movw	r2, #5226
 940 000a 0021     		movs	r1, #0
 941 000c FFF7FEFF 		bl	lv_obj_get_style_prop
 942              	.LVL87:
 190:lvgl/lvgl/src/core/lv_obj_style_gen.h **** }
 943              		.loc 2 190 5 is_stmt 1 view .LVU228
 190:lvgl/lvgl/src/core/lv_obj_style_gen.h **** }
 944              		.loc 2 190 12 is_stmt 0 view .LVU229
 945 0010 C0B2     		uxtb	r0, r0
 946              	.LVL88:
 190:lvgl/lvgl/src/core/lv_obj_style_gen.h **** }
 947              		.loc 2 190 12 view .LVU230
 948              	.LBE99:
 949              	.LBE98:
 167:lvgl/lvgl/src/core/lv_obj_scroll.c ****         if(obj->spec_attr == NULL) return 0;
 950              		.loc 1 167 7 view .LVU231
 951 0012 0128     		cmp	r0, #1
 952 0014 07D0     		beq	.L53
 168:lvgl/lvgl/src/core/lv_obj_scroll.c ****         return -obj->spec_attr->scroll.x;
 953              		.loc 1 168 9 is_stmt 1 view .LVU232
 168:lvgl/lvgl/src/core/lv_obj_scroll.c ****         return -obj->spec_attr->scroll.x;
 954              		.loc 1 168 15 is_stmt 0 view .LVU233
 955 0016 A368     		ldr	r3, [r4, #8]
 168:lvgl/lvgl/src/core/lv_obj_scroll.c ****         return -obj->spec_attr->scroll.x;
 956              		.loc 1 168 11 view .LVU234
 957 0018 002B     		cmp	r3, #0
 958 001a 60D0     		beq	.L59
 169:lvgl/lvgl/src/core/lv_obj_scroll.c ****     }
 959              		.loc 1 169 9 is_stmt 1 view .LVU235
 169:lvgl/lvgl/src/core/lv_obj_scroll.c ****     }
 960              		.loc 1 169 39 is_stmt 0 view .LVU236
 961 001c 188A     		ldrh	r0, [r3, #16]
 169:lvgl/lvgl/src/core/lv_obj_scroll.c ****     }
 962              		.loc 1 169 16 view .LVU237
 963 001e 4042     		rsbs	r0, r0, #0
 964 0020 00B2     		sxth	r0, r0
 965              	.L54:
 201:lvgl/lvgl/src/core/lv_obj_scroll.c **** 
 966              		.loc 1 201 1 view .LVU238
 967 0022 BDE8F88F 		pop	{r3, r4, r5, r6, r7, r8, r9, r10, fp, pc}
 968              	.LVL89:
 969              	.L53:
 173:lvgl/lvgl/src/core/lv_obj_scroll.c ****     lv_coord_t pad_left = lv_obj_get_style_pad_left(obj, LV_PART_MAIN);
 970              		.loc 1 173 5 is_stmt 1 view .LVU239
 971              	.LBB100:
 972              	.LBI100:
ARM GAS  C:\Users\gx\AppData\Local\Temp\ccHlQRWF.s 			page 37


 109:lvgl/lvgl/src/core/lv_obj_style_gen.h **** {
 973              		.loc 2 109 26 view .LVU240
 974              	.LBB101:
 111:lvgl/lvgl/src/core/lv_obj_style_gen.h ****     return (lv_coord_t)v.num;
 975              		.loc 2 111 5 view .LVU241
 111:lvgl/lvgl/src/core/lv_obj_style_gen.h ****     return (lv_coord_t)v.num;
 976              		.loc 2 111 26 is_stmt 0 view .LVU242
 977 0026 41F21302 		movw	r2, #4115
 978 002a 0021     		movs	r1, #0
 979 002c 2046     		mov	r0, r4
 980 002e FFF7FEFF 		bl	lv_obj_get_style_prop
 981              	.LVL90:
 982 0032 0746     		mov	r7, r0
 112:lvgl/lvgl/src/core/lv_obj_style_gen.h **** }
 983              		.loc 2 112 5 is_stmt 1 view .LVU243
 984              	.LVL91:
 112:lvgl/lvgl/src/core/lv_obj_style_gen.h **** }
 985              		.loc 2 112 5 is_stmt 0 view .LVU244
 986              	.LBE101:
 987              	.LBE100:
 174:lvgl/lvgl/src/core/lv_obj_scroll.c ****     lv_coord_t border_width = lv_obj_get_style_border_width(obj, LV_PART_MAIN);
 988              		.loc 1 174 5 is_stmt 1 view .LVU245
 989              	.LBB102:
 990              	.LBI102:
 103:lvgl/lvgl/src/core/lv_obj_style_gen.h **** {
 991              		.loc 2 103 26 view .LVU246
 992              	.LBB103:
 105:lvgl/lvgl/src/core/lv_obj_style_gen.h ****     return (lv_coord_t)v.num;
 993              		.loc 2 105 5 view .LVU247
 105:lvgl/lvgl/src/core/lv_obj_style_gen.h ****     return (lv_coord_t)v.num;
 994              		.loc 2 105 26 is_stmt 0 view .LVU248
 995 0034 41F21202 		movw	r2, #4114
 996 0038 0021     		movs	r1, #0
 997 003a 2046     		mov	r0, r4
 998 003c FFF7FEFF 		bl	lv_obj_get_style_prop
 999              	.LVL92:
 1000 0040 8246     		mov	r10, r0
 106:lvgl/lvgl/src/core/lv_obj_style_gen.h **** }
 1001              		.loc 2 106 5 is_stmt 1 view .LVU249
 1002              	.LVL93:
 106:lvgl/lvgl/src/core/lv_obj_style_gen.h **** }
 1003              		.loc 2 106 5 is_stmt 0 view .LVU250
 1004              	.LBE103:
 1005              	.LBE102:
 175:lvgl/lvgl/src/core/lv_obj_scroll.c **** 
 1006              		.loc 1 175 5 is_stmt 1 view .LVU251
 1007              	.LBB104:
 1008              	.LBI104:
 295:lvgl/lvgl/src/core/lv_obj_style_gen.h **** {
 1009              		.loc 2 295 26 view .LVU252
 1010              	.LBB105:
 297:lvgl/lvgl/src/core/lv_obj_style_gen.h ****     return (lv_coord_t)v.num;
 1011              		.loc 2 297 5 view .LVU253
 297:lvgl/lvgl/src/core/lv_obj_style_gen.h ****     return (lv_coord_t)v.num;
 1012              		.loc 2 297 26 is_stmt 0 view .LVU254
 1013 0042 41F23202 		movw	r2, #4146
 1014 0046 0021     		movs	r1, #0
ARM GAS  C:\Users\gx\AppData\Local\Temp\ccHlQRWF.s 			page 38


 1015 0048 2046     		mov	r0, r4
 1016 004a FFF7FEFF 		bl	lv_obj_get_style_prop
 1017              	.LVL94:
 1018 004e 8146     		mov	r9, r0
 1019              		.loc 2 298 5 is_stmt 1 view .LVU255
 1020              	.LVL95:
 1021              		.loc 2 298 5 is_stmt 0 view .LVU256
 1022              	.LBE105:
 1023              	.LBE104:
 177:lvgl/lvgl/src/core/lv_obj_scroll.c **** 
 1024              		.loc 1 177 5 is_stmt 1 view .LVU257
 179:lvgl/lvgl/src/core/lv_obj_scroll.c ****     lv_coord_t x1 = LV_COORD_MAX;
 1025              		.loc 1 179 5 view .LVU258
 180:lvgl/lvgl/src/core/lv_obj_scroll.c ****     uint32_t child_cnt = lv_obj_get_child_cnt(obj);
 1026              		.loc 1 180 5 view .LVU259
 181:lvgl/lvgl/src/core/lv_obj_scroll.c ****     for(i = 0; i < child_cnt; i++) {
 1027              		.loc 1 181 5 view .LVU260
 181:lvgl/lvgl/src/core/lv_obj_scroll.c ****     for(i = 0; i < child_cnt; i++) {
 1028              		.loc 1 181 26 is_stmt 0 view .LVU261
 1029 0050 2046     		mov	r0, r4
 1030 0052 FFF7FEFF 		bl	lv_obj_get_child_cnt
 1031              	.LVL96:
 1032 0056 8346     		mov	fp, r0
 1033              	.LVL97:
 182:lvgl/lvgl/src/core/lv_obj_scroll.c ****         lv_obj_t * child = obj->spec_attr->children[i];
 1034              		.loc 1 182 5 is_stmt 1 view .LVU262
 180:lvgl/lvgl/src/core/lv_obj_scroll.c ****     uint32_t child_cnt = lv_obj_get_child_cnt(obj);
 1035              		.loc 1 180 16 is_stmt 0 view .LVU263
 1036 0058 4FF4C048 		mov	r8, #24576
 182:lvgl/lvgl/src/core/lv_obj_scroll.c ****         lv_obj_t * child = obj->spec_attr->children[i];
 1037              		.loc 1 182 11 view .LVU264
 1038 005c 0025     		movs	r5, #0
 182:lvgl/lvgl/src/core/lv_obj_scroll.c ****         lv_obj_t * child = obj->spec_attr->children[i];
 1039              		.loc 1 182 5 view .LVU265
 1040 005e 00E0     		b	.L55
 1041              	.LVL98:
 1042              	.L56:
 182:lvgl/lvgl/src/core/lv_obj_scroll.c ****         lv_obj_t * child = obj->spec_attr->children[i];
 1043              		.loc 1 182 31 is_stmt 1 discriminator 2 view .LVU266
 182:lvgl/lvgl/src/core/lv_obj_scroll.c ****         lv_obj_t * child = obj->spec_attr->children[i];
 1044              		.loc 1 182 32 is_stmt 0 discriminator 2 view .LVU267
 1045 0060 0135     		adds	r5, r5, #1
 1046              	.LVL99:
 1047              	.L55:
 182:lvgl/lvgl/src/core/lv_obj_scroll.c ****         lv_obj_t * child = obj->spec_attr->children[i];
 1048              		.loc 1 182 16 is_stmt 1 discriminator 1 view .LVU268
 182:lvgl/lvgl/src/core/lv_obj_scroll.c ****         lv_obj_t * child = obj->spec_attr->children[i];
 1049              		.loc 1 182 5 is_stmt 0 discriminator 1 view .LVU269
 1050 0062 5D45     		cmp	r5, fp
 1051 0064 10D2     		bcs	.L62
 1052              	.LBB106:
 183:lvgl/lvgl/src/core/lv_obj_scroll.c ****         if(lv_obj_has_flag_any(child,  LV_OBJ_FLAG_HIDDEN | LV_OBJ_FLAG_FLOATING)) continue;
 1053              		.loc 1 183 9 is_stmt 1 view .LVU270
 183:lvgl/lvgl/src/core/lv_obj_scroll.c ****         if(lv_obj_has_flag_any(child,  LV_OBJ_FLAG_HIDDEN | LV_OBJ_FLAG_FLOATING)) continue;
 1054              		.loc 1 183 31 is_stmt 0 view .LVU271
 1055 0066 A368     		ldr	r3, [r4, #8]
 183:lvgl/lvgl/src/core/lv_obj_scroll.c ****         if(lv_obj_has_flag_any(child,  LV_OBJ_FLAG_HIDDEN | LV_OBJ_FLAG_FLOATING)) continue;
ARM GAS  C:\Users\gx\AppData\Local\Temp\ccHlQRWF.s 			page 39


 1056              		.loc 1 183 42 view .LVU272
 1057 0068 1B68     		ldr	r3, [r3]
 183:lvgl/lvgl/src/core/lv_obj_scroll.c ****         if(lv_obj_has_flag_any(child,  LV_OBJ_FLAG_HIDDEN | LV_OBJ_FLAG_FLOATING)) continue;
 1058              		.loc 1 183 20 view .LVU273
 1059 006a 53F82560 		ldr	r6, [r3, r5, lsl #2]
 1060              	.LVL100:
 184:lvgl/lvgl/src/core/lv_obj_scroll.c ****         x1 = LV_MIN(x1, child->coords.x1);
 1061              		.loc 1 184 9 is_stmt 1 view .LVU274
 184:lvgl/lvgl/src/core/lv_obj_scroll.c ****         x1 = LV_MIN(x1, child->coords.x1);
 1062              		.loc 1 184 12 is_stmt 0 view .LVU275
 1063 006e 4FF00111 		mov	r1, #65537
 1064 0072 3046     		mov	r0, r6
 1065 0074 FFF7FEFF 		bl	lv_obj_has_flag_any
 1066              	.LVL101:
 184:lvgl/lvgl/src/core/lv_obj_scroll.c ****         x1 = LV_MIN(x1, child->coords.x1);
 1067              		.loc 1 184 11 view .LVU276
 1068 0078 0028     		cmp	r0, #0
 1069 007a F1D1     		bne	.L56
 185:lvgl/lvgl/src/core/lv_obj_scroll.c **** 
 1070              		.loc 1 185 9 is_stmt 1 view .LVU277
 185:lvgl/lvgl/src/core/lv_obj_scroll.c **** 
 1071              		.loc 1 185 14 is_stmt 0 view .LVU278
 1072 007c B6F91430 		ldrsh	r3, [r6, #20]
 185:lvgl/lvgl/src/core/lv_obj_scroll.c **** 
 1073              		.loc 1 185 12 view .LVU279
 1074 0080 9845     		cmp	r8, r3
 1075 0082 A8BF     		it	ge
 1076 0084 9846     		movge	r8, r3
 1077              	.LVL102:
 185:lvgl/lvgl/src/core/lv_obj_scroll.c **** 
 1078              		.loc 1 185 12 view .LVU280
 1079 0086 EBE7     		b	.L56
 1080              	.LVL103:
 1081              	.L62:
 185:lvgl/lvgl/src/core/lv_obj_scroll.c **** 
 1082              		.loc 1 185 12 view .LVU281
 1083              	.LBE106:
 189:lvgl/lvgl/src/core/lv_obj_scroll.c ****         child_res = x1;
 1084              		.loc 1 189 5 is_stmt 1 view .LVU282
 189:lvgl/lvgl/src/core/lv_obj_scroll.c ****         child_res = x1;
 1085              		.loc 1 189 7 is_stmt 0 view .LVU283
 1086 0088 B8F5C04F 		cmp	r8, #24576
 1087 008c 25D0     		beq	.L60
 190:lvgl/lvgl/src/core/lv_obj_scroll.c ****         child_res = (obj->coords.x1 + pad_left + border_width) - child_res;
 1088              		.loc 1 190 9 is_stmt 1 view .LVU284
 1089              	.LVL104:
 191:lvgl/lvgl/src/core/lv_obj_scroll.c ****     } else {
 1090              		.loc 1 191 9 view .LVU285
 191:lvgl/lvgl/src/core/lv_obj_scroll.c ****     } else {
 1091              		.loc 1 191 33 is_stmt 0 view .LVU286
 1092 008e A08A     		ldrh	r0, [r4, #20]
 191:lvgl/lvgl/src/core/lv_obj_scroll.c ****     } else {
 1093              		.loc 1 191 37 view .LVU287
 1094 0090 5044     		add	r0, r0, r10
 191:lvgl/lvgl/src/core/lv_obj_scroll.c ****     } else {
 1095              		.loc 1 191 48 view .LVU288
 1096 0092 19FA80F0 		uxtah	r0, r9, r0
ARM GAS  C:\Users\gx\AppData\Local\Temp\ccHlQRWF.s 			page 40


 1097 0096 80B2     		uxth	r0, r0
 191:lvgl/lvgl/src/core/lv_obj_scroll.c ****     } else {
 1098              		.loc 1 191 64 view .LVU289
 1099 0098 A0EB0800 		sub	r0, r0, r8
 191:lvgl/lvgl/src/core/lv_obj_scroll.c ****     } else {
 1100              		.loc 1 191 19 view .LVU290
 1101 009c 05B2     		sxth	r5, r0
 1102              	.LVL105:
 1103              	.L58:
 196:lvgl/lvgl/src/core/lv_obj_scroll.c ****     self_w = self_w - (lv_obj_get_width(obj) - pad_right - pad_left - 2 * border_width);
 1104              		.loc 1 196 5 is_stmt 1 view .LVU291
 196:lvgl/lvgl/src/core/lv_obj_scroll.c ****     self_w = self_w - (lv_obj_get_width(obj) - pad_right - pad_left - 2 * border_width);
 1105              		.loc 1 196 25 is_stmt 0 view .LVU292
 1106 009e 2046     		mov	r0, r4
 1107 00a0 FFF7FEFF 		bl	lv_obj_get_self_width
 1108              	.LVL106:
 1109 00a4 8046     		mov	r8, r0
 1110              	.LVL107:
 197:lvgl/lvgl/src/core/lv_obj_scroll.c ****     self_w += lv_obj_get_scroll_x(obj);
 1111              		.loc 1 197 5 is_stmt 1 view .LVU293
 197:lvgl/lvgl/src/core/lv_obj_scroll.c ****     self_w += lv_obj_get_scroll_x(obj);
 1112              		.loc 1 197 73 is_stmt 0 view .LVU294
 1113 00a6 4FEA4909 		lsl	r9, r9, #1
 1114              	.LVL108:
 197:lvgl/lvgl/src/core/lv_obj_scroll.c ****     self_w += lv_obj_get_scroll_x(obj);
 1115              		.loc 1 197 73 view .LVU295
 1116 00aa 1FFA89F9 		uxth	r9, r9
 197:lvgl/lvgl/src/core/lv_obj_scroll.c ****     self_w += lv_obj_get_scroll_x(obj);
 1117              		.loc 1 197 24 view .LVU296
 1118 00ae 2046     		mov	r0, r4
 1119 00b0 FFF7FEFF 		bl	lv_obj_get_width
 1120              	.LVL109:
 1121 00b4 86B2     		uxth	r6, r0
 197:lvgl/lvgl/src/core/lv_obj_scroll.c ****     self_w += lv_obj_get_scroll_x(obj);
 1122              		.loc 1 197 46 view .LVU297
 1123 00b6 BE1B     		subs	r6, r7, r6
 197:lvgl/lvgl/src/core/lv_obj_scroll.c ****     self_w += lv_obj_get_scroll_x(obj);
 1124              		.loc 1 197 58 view .LVU298
 1125 00b8 1AFA86FA 		uxtah	r10, r10, r6
 1126              	.LVL110:
 197:lvgl/lvgl/src/core/lv_obj_scroll.c ****     self_w += lv_obj_get_scroll_x(obj);
 1127              		.loc 1 197 69 view .LVU299
 1128 00bc 19FA8AF6 		uxtah	r6, r9, r10
 197:lvgl/lvgl/src/core/lv_obj_scroll.c ****     self_w += lv_obj_get_scroll_x(obj);
 1129              		.loc 1 197 21 view .LVU300
 1130 00c0 18FA86F6 		uxtah	r6, r8, r6
 1131 00c4 B6B2     		uxth	r6, r6
 1132              	.LVL111:
 198:lvgl/lvgl/src/core/lv_obj_scroll.c **** 
 1133              		.loc 1 198 5 is_stmt 1 view .LVU301
 198:lvgl/lvgl/src/core/lv_obj_scroll.c **** 
 1134              		.loc 1 198 15 is_stmt 0 view .LVU302
 1135 00c6 2046     		mov	r0, r4
 1136 00c8 FFF7FEFF 		bl	lv_obj_get_scroll_x
 1137              	.LVL112:
 198:lvgl/lvgl/src/core/lv_obj_scroll.c **** 
 1138              		.loc 1 198 12 view .LVU303
ARM GAS  C:\Users\gx\AppData\Local\Temp\ccHlQRWF.s 			page 41


 1139 00cc 16FA80F0 		uxtah	r0, r6, r0
 1140 00d0 00B2     		sxth	r0, r0
 1141              	.LVL113:
 200:lvgl/lvgl/src/core/lv_obj_scroll.c **** }
 1142              		.loc 1 200 5 is_stmt 1 view .LVU304
 200:lvgl/lvgl/src/core/lv_obj_scroll.c **** }
 1143              		.loc 1 200 12 is_stmt 0 view .LVU305
 1144 00d2 A842     		cmp	r0, r5
 1145 00d4 B8BF     		it	lt
 1146 00d6 2846     		movlt	r0, r5
 1147              	.LVL114:
 200:lvgl/lvgl/src/core/lv_obj_scroll.c **** }
 1148              		.loc 1 200 12 view .LVU306
 1149 00d8 A3E7     		b	.L54
 1150              	.LVL115:
 1151              	.L60:
 193:lvgl/lvgl/src/core/lv_obj_scroll.c ****     }
 1152              		.loc 1 193 19 view .LVU307
 1153 00da 024D     		ldr	r5, .L63
 1154              	.LVL116:
 193:lvgl/lvgl/src/core/lv_obj_scroll.c ****     }
 1155              		.loc 1 193 19 view .LVU308
 1156 00dc DFE7     		b	.L58
 1157              	.LVL117:
 1158              	.L59:
 168:lvgl/lvgl/src/core/lv_obj_scroll.c ****         return -obj->spec_attr->scroll.x;
 1159              		.loc 1 168 43 view .LVU309
 1160 00de 0020     		movs	r0, #0
 1161 00e0 9FE7     		b	.L54
 1162              	.L64:
 1163 00e2 00BF     		.align	2
 1164              	.L63:
 1165 00e4 00A0FFFF 		.word	-24576
 1166              		.cfi_endproc
 1167              	.LFE170:
 1169              		.section	.text.lv_obj_get_scroll_right,"ax",%progbits
 1170              		.align	1
 1171              		.global	lv_obj_get_scroll_right
 1172              		.syntax unified
 1173              		.thumb
 1174              		.thumb_func
 1175              		.fpu fpv4-sp-d16
 1177              	lv_obj_get_scroll_right:
 1178              	.LVL118:
 1179              	.LFB171:
 204:lvgl/lvgl/src/core/lv_obj_scroll.c ****     LV_ASSERT_OBJ(obj, MY_CLASS);
 1180              		.loc 1 204 1 is_stmt 1 view -0
 1181              		.cfi_startproc
 1182              		@ args = 0, pretend = 0, frame = 0
 1183              		@ frame_needed = 0, uses_anonymous_args = 0
 204:lvgl/lvgl/src/core/lv_obj_scroll.c ****     LV_ASSERT_OBJ(obj, MY_CLASS);
 1184              		.loc 1 204 1 is_stmt 0 view .LVU311
 1185 0000 2DE9F843 		push	{r3, r4, r5, r6, r7, r8, r9, lr}
 1186              	.LCFI10:
 1187              		.cfi_def_cfa_offset 32
 1188              		.cfi_offset 3, -32
 1189              		.cfi_offset 4, -28
ARM GAS  C:\Users\gx\AppData\Local\Temp\ccHlQRWF.s 			page 42


 1190              		.cfi_offset 5, -24
 1191              		.cfi_offset 6, -20
 1192              		.cfi_offset 7, -16
 1193              		.cfi_offset 8, -12
 1194              		.cfi_offset 9, -8
 1195              		.cfi_offset 14, -4
 1196 0004 0546     		mov	r5, r0
 205:lvgl/lvgl/src/core/lv_obj_scroll.c **** 
 1197              		.loc 1 205 5 is_stmt 1 view .LVU312
 205:lvgl/lvgl/src/core/lv_obj_scroll.c **** 
 1198              		.loc 1 205 5 view .LVU313
 205:lvgl/lvgl/src/core/lv_obj_scroll.c **** 
 1199              		.loc 1 205 5 view .LVU314
 209:lvgl/lvgl/src/core/lv_obj_scroll.c ****         if(obj->spec_attr == NULL) return 0;
 1200              		.loc 1 209 5 view .LVU315
 1201              	.LVL119:
 1202              	.LBB107:
 1203              	.LBI107:
 187:lvgl/lvgl/src/core/lv_obj_style_gen.h **** {
 1204              		.loc 2 187 29 view .LVU316
 1205              	.LBB108:
 189:lvgl/lvgl/src/core/lv_obj_style_gen.h ****     return (lv_base_dir_t)v.num;
 1206              		.loc 2 189 5 view .LVU317
 189:lvgl/lvgl/src/core/lv_obj_style_gen.h ****     return (lv_base_dir_t)v.num;
 1207              		.loc 2 189 26 is_stmt 0 view .LVU318
 1208 0006 41F26A42 		movw	r2, #5226
 1209 000a 0021     		movs	r1, #0
 1210 000c FFF7FEFF 		bl	lv_obj_get_style_prop
 1211              	.LVL120:
 190:lvgl/lvgl/src/core/lv_obj_style_gen.h **** }
 1212              		.loc 2 190 5 is_stmt 1 view .LVU319
 190:lvgl/lvgl/src/core/lv_obj_style_gen.h **** }
 1213              		.loc 2 190 12 is_stmt 0 view .LVU320
 1214 0010 C0B2     		uxtb	r0, r0
 1215              	.LVL121:
 190:lvgl/lvgl/src/core/lv_obj_style_gen.h **** }
 1216              		.loc 2 190 12 view .LVU321
 1217              	.LBE108:
 1218              	.LBE107:
 209:lvgl/lvgl/src/core/lv_obj_scroll.c ****         if(obj->spec_attr == NULL) return 0;
 1219              		.loc 1 209 7 view .LVU322
 1220 0012 0128     		cmp	r0, #1
 1221 0014 05D1     		bne	.L66
 210:lvgl/lvgl/src/core/lv_obj_scroll.c ****         return obj->spec_attr->scroll.x;
 1222              		.loc 1 210 9 is_stmt 1 view .LVU323
 210:lvgl/lvgl/src/core/lv_obj_scroll.c ****         return obj->spec_attr->scroll.x;
 1223              		.loc 1 210 15 is_stmt 0 view .LVU324
 1224 0016 AB68     		ldr	r3, [r5, #8]
 210:lvgl/lvgl/src/core/lv_obj_scroll.c ****         return obj->spec_attr->scroll.x;
 1225              		.loc 1 210 11 view .LVU325
 1226 0018 002B     		cmp	r3, #0
 1227 001a 57D0     		beq	.L72
 211:lvgl/lvgl/src/core/lv_obj_scroll.c ****     }
 1228              		.loc 1 211 9 is_stmt 1 view .LVU326
 211:lvgl/lvgl/src/core/lv_obj_scroll.c ****     }
 1229              		.loc 1 211 38 is_stmt 0 view .LVU327
 1230 001c B3F91000 		ldrsh	r0, [r3, #16]
ARM GAS  C:\Users\gx\AppData\Local\Temp\ccHlQRWF.s 			page 43


 1231 0020 52E0     		b	.L67
 1232              	.L66:
 215:lvgl/lvgl/src/core/lv_obj_scroll.c ****     uint32_t i;
 1233              		.loc 1 215 5 is_stmt 1 view .LVU328
 1234              	.LVL122:
 216:lvgl/lvgl/src/core/lv_obj_scroll.c ****     uint32_t child_cnt = lv_obj_get_child_cnt(obj);
 1235              		.loc 1 216 5 view .LVU329
 217:lvgl/lvgl/src/core/lv_obj_scroll.c ****     for(i = 0; i < child_cnt; i++) {
 1236              		.loc 1 217 5 view .LVU330
 217:lvgl/lvgl/src/core/lv_obj_scroll.c ****     for(i = 0; i < child_cnt; i++) {
 1237              		.loc 1 217 26 is_stmt 0 view .LVU331
 1238 0022 2846     		mov	r0, r5
 1239 0024 FFF7FEFF 		bl	lv_obj_get_child_cnt
 1240              	.LVL123:
 1241 0028 8046     		mov	r8, r0
 1242              	.LVL124:
 218:lvgl/lvgl/src/core/lv_obj_scroll.c ****         lv_obj_t * child = obj->spec_attr->children[i];
 1243              		.loc 1 218 5 is_stmt 1 view .LVU332
 218:lvgl/lvgl/src/core/lv_obj_scroll.c ****         lv_obj_t * child = obj->spec_attr->children[i];
 1244              		.loc 1 218 11 is_stmt 0 view .LVU333
 1245 002a 0024     		movs	r4, #0
 215:lvgl/lvgl/src/core/lv_obj_scroll.c ****     uint32_t i;
 1246              		.loc 1 215 16 view .LVU334
 1247 002c 284F     		ldr	r7, .L75
 218:lvgl/lvgl/src/core/lv_obj_scroll.c ****         lv_obj_t * child = obj->spec_attr->children[i];
 1248              		.loc 1 218 5 view .LVU335
 1249 002e 00E0     		b	.L68
 1250              	.LVL125:
 1251              	.L69:
 218:lvgl/lvgl/src/core/lv_obj_scroll.c ****         lv_obj_t * child = obj->spec_attr->children[i];
 1252              		.loc 1 218 31 is_stmt 1 discriminator 2 view .LVU336
 218:lvgl/lvgl/src/core/lv_obj_scroll.c ****         lv_obj_t * child = obj->spec_attr->children[i];
 1253              		.loc 1 218 32 is_stmt 0 discriminator 2 view .LVU337
 1254 0030 0134     		adds	r4, r4, #1
 1255              	.LVL126:
 1256              	.L68:
 218:lvgl/lvgl/src/core/lv_obj_scroll.c ****         lv_obj_t * child = obj->spec_attr->children[i];
 1257              		.loc 1 218 16 is_stmt 1 discriminator 1 view .LVU338
 218:lvgl/lvgl/src/core/lv_obj_scroll.c ****         lv_obj_t * child = obj->spec_attr->children[i];
 1258              		.loc 1 218 5 is_stmt 0 discriminator 1 view .LVU339
 1259 0032 4445     		cmp	r4, r8
 1260 0034 10D2     		bcs	.L74
 1261              	.LBB109:
 219:lvgl/lvgl/src/core/lv_obj_scroll.c ****         if(lv_obj_has_flag_any(child,  LV_OBJ_FLAG_HIDDEN | LV_OBJ_FLAG_FLOATING)) continue;
 1262              		.loc 1 219 9 is_stmt 1 view .LVU340
 219:lvgl/lvgl/src/core/lv_obj_scroll.c ****         if(lv_obj_has_flag_any(child,  LV_OBJ_FLAG_HIDDEN | LV_OBJ_FLAG_FLOATING)) continue;
 1263              		.loc 1 219 31 is_stmt 0 view .LVU341
 1264 0036 AB68     		ldr	r3, [r5, #8]
 219:lvgl/lvgl/src/core/lv_obj_scroll.c ****         if(lv_obj_has_flag_any(child,  LV_OBJ_FLAG_HIDDEN | LV_OBJ_FLAG_FLOATING)) continue;
 1265              		.loc 1 219 42 view .LVU342
 1266 0038 1B68     		ldr	r3, [r3]
 219:lvgl/lvgl/src/core/lv_obj_scroll.c ****         if(lv_obj_has_flag_any(child,  LV_OBJ_FLAG_HIDDEN | LV_OBJ_FLAG_FLOATING)) continue;
 1267              		.loc 1 219 20 view .LVU343
 1268 003a 53F82460 		ldr	r6, [r3, r4, lsl #2]
 1269              	.LVL127:
 220:lvgl/lvgl/src/core/lv_obj_scroll.c ****         child_res = LV_MAX(child_res, child->coords.x2);
 1270              		.loc 1 220 9 is_stmt 1 view .LVU344
ARM GAS  C:\Users\gx\AppData\Local\Temp\ccHlQRWF.s 			page 44


 220:lvgl/lvgl/src/core/lv_obj_scroll.c ****         child_res = LV_MAX(child_res, child->coords.x2);
 1271              		.loc 1 220 12 is_stmt 0 view .LVU345
 1272 003e 4FF00111 		mov	r1, #65537
 1273 0042 3046     		mov	r0, r6
 1274 0044 FFF7FEFF 		bl	lv_obj_has_flag_any
 1275              	.LVL128:
 220:lvgl/lvgl/src/core/lv_obj_scroll.c ****         child_res = LV_MAX(child_res, child->coords.x2);
 1276              		.loc 1 220 11 view .LVU346
 1277 0048 0028     		cmp	r0, #0
 1278 004a F1D1     		bne	.L69
 221:lvgl/lvgl/src/core/lv_obj_scroll.c ****     }
 1279              		.loc 1 221 9 is_stmt 1 view .LVU347
 221:lvgl/lvgl/src/core/lv_obj_scroll.c ****     }
 1280              		.loc 1 221 21 is_stmt 0 view .LVU348
 1281 004c B6F91830 		ldrsh	r3, [r6, #24]
 221:lvgl/lvgl/src/core/lv_obj_scroll.c ****     }
 1282              		.loc 1 221 19 view .LVU349
 1283 0050 9F42     		cmp	r7, r3
 1284 0052 B8BF     		it	lt
 1285 0054 1F46     		movlt	r7, r3
 1286              	.LVL129:
 221:lvgl/lvgl/src/core/lv_obj_scroll.c ****     }
 1287              		.loc 1 221 19 view .LVU350
 1288 0056 EBE7     		b	.L69
 1289              	.LVL130:
 1290              	.L74:
 221:lvgl/lvgl/src/core/lv_obj_scroll.c ****     }
 1291              		.loc 1 221 19 view .LVU351
 1292              	.LBE109:
 224:lvgl/lvgl/src/core/lv_obj_scroll.c ****     lv_coord_t pad_left = lv_obj_get_style_pad_left(obj, LV_PART_MAIN);
 1293              		.loc 1 224 5 is_stmt 1 view .LVU352
 1294              	.LBB110:
 1295              	.LBI110:
 109:lvgl/lvgl/src/core/lv_obj_style_gen.h **** {
 1296              		.loc 2 109 26 view .LVU353
 1297              	.LBB111:
 111:lvgl/lvgl/src/core/lv_obj_style_gen.h ****     return (lv_coord_t)v.num;
 1298              		.loc 2 111 5 view .LVU354
 111:lvgl/lvgl/src/core/lv_obj_style_gen.h ****     return (lv_coord_t)v.num;
 1299              		.loc 2 111 26 is_stmt 0 view .LVU355
 1300 0058 41F21302 		movw	r2, #4115
 1301 005c 0021     		movs	r1, #0
 1302 005e 2846     		mov	r0, r5
 1303 0060 FFF7FEFF 		bl	lv_obj_get_style_prop
 1304              	.LVL131:
 1305 0064 0446     		mov	r4, r0
 1306              	.LVL132:
 112:lvgl/lvgl/src/core/lv_obj_style_gen.h **** }
 1307              		.loc 2 112 5 is_stmt 1 view .LVU356
 112:lvgl/lvgl/src/core/lv_obj_style_gen.h **** }
 1308              		.loc 2 112 5 is_stmt 0 view .LVU357
 1309              	.LBE111:
 1310              	.LBE110:
 225:lvgl/lvgl/src/core/lv_obj_scroll.c ****     lv_coord_t border_width = lv_obj_get_style_border_width(obj, LV_PART_MAIN);
 1311              		.loc 1 225 5 is_stmt 1 view .LVU358
 1312              	.LBB112:
 1313              	.LBI112:
ARM GAS  C:\Users\gx\AppData\Local\Temp\ccHlQRWF.s 			page 45


 103:lvgl/lvgl/src/core/lv_obj_style_gen.h **** {
 1314              		.loc 2 103 26 view .LVU359
 1315              	.LBB113:
 105:lvgl/lvgl/src/core/lv_obj_style_gen.h ****     return (lv_coord_t)v.num;
 1316              		.loc 2 105 5 view .LVU360
 105:lvgl/lvgl/src/core/lv_obj_style_gen.h ****     return (lv_coord_t)v.num;
 1317              		.loc 2 105 26 is_stmt 0 view .LVU361
 1318 0066 41F21202 		movw	r2, #4114
 1319 006a 0021     		movs	r1, #0
 1320 006c 2846     		mov	r0, r5
 1321 006e FFF7FEFF 		bl	lv_obj_get_style_prop
 1322              	.LVL133:
 1323 0072 8146     		mov	r9, r0
 106:lvgl/lvgl/src/core/lv_obj_style_gen.h **** }
 1324              		.loc 2 106 5 is_stmt 1 view .LVU362
 1325              	.LVL134:
 106:lvgl/lvgl/src/core/lv_obj_style_gen.h **** }
 1326              		.loc 2 106 5 is_stmt 0 view .LVU363
 1327              	.LBE113:
 1328              	.LBE112:
 226:lvgl/lvgl/src/core/lv_obj_scroll.c **** 
 1329              		.loc 1 226 5 is_stmt 1 view .LVU364
 1330              	.LBB114:
 1331              	.LBI114:
 295:lvgl/lvgl/src/core/lv_obj_style_gen.h **** {
 1332              		.loc 2 295 26 view .LVU365
 1333              	.LBB115:
 297:lvgl/lvgl/src/core/lv_obj_style_gen.h ****     return (lv_coord_t)v.num;
 1334              		.loc 2 297 5 view .LVU366
 297:lvgl/lvgl/src/core/lv_obj_style_gen.h ****     return (lv_coord_t)v.num;
 1335              		.loc 2 297 26 is_stmt 0 view .LVU367
 1336 0074 41F23202 		movw	r2, #4146
 1337 0078 0021     		movs	r1, #0
 1338 007a 2846     		mov	r0, r5
 1339 007c FFF7FEFF 		bl	lv_obj_get_style_prop
 1340              	.LVL135:
 1341 0080 0646     		mov	r6, r0
 1342              		.loc 2 298 5 is_stmt 1 view .LVU368
 1343              	.LVL136:
 1344              		.loc 2 298 5 is_stmt 0 view .LVU369
 1345              	.LBE115:
 1346              	.LBE114:
 228:lvgl/lvgl/src/core/lv_obj_scroll.c ****         child_res -= (obj->coords.x2 - pad_right - border_width);
 1347              		.loc 1 228 5 is_stmt 1 view .LVU370
 228:lvgl/lvgl/src/core/lv_obj_scroll.c ****         child_res -= (obj->coords.x2 - pad_right - border_width);
 1348              		.loc 1 228 7 is_stmt 0 view .LVU371
 1349 0082 17F5C04F 		cmn	r7, #24576
 1350 0086 04D0     		beq	.L71
 229:lvgl/lvgl/src/core/lv_obj_scroll.c ****     }
 1351              		.loc 1 229 9 is_stmt 1 view .LVU372
 229:lvgl/lvgl/src/core/lv_obj_scroll.c ****     }
 1352              		.loc 1 229 34 is_stmt 0 view .LVU373
 1353 0088 288B     		ldrh	r0, [r5, #24]
 229:lvgl/lvgl/src/core/lv_obj_scroll.c ****     }
 1354              		.loc 1 229 19 view .LVU374
 1355 008a 201A     		subs	r0, r4, r0
 1356 008c 3044     		add	r0, r0, r6
ARM GAS  C:\Users\gx\AppData\Local\Temp\ccHlQRWF.s 			page 46


 1357 008e 0744     		add	r7, r7, r0
 1358              	.LVL137:
 229:lvgl/lvgl/src/core/lv_obj_scroll.c ****     }
 1359              		.loc 1 229 19 view .LVU375
 1360 0090 3FB2     		sxth	r7, r7
 1361              	.LVL138:
 1362              	.L71:
 232:lvgl/lvgl/src/core/lv_obj_scroll.c ****     self_w = lv_obj_get_self_width(obj);
 1363              		.loc 1 232 5 is_stmt 1 view .LVU376
 233:lvgl/lvgl/src/core/lv_obj_scroll.c ****     self_w = self_w - (lv_obj_get_width(obj) - pad_right - pad_left - 2 * border_width);
 1364              		.loc 1 233 5 view .LVU377
 233:lvgl/lvgl/src/core/lv_obj_scroll.c ****     self_w = self_w - (lv_obj_get_width(obj) - pad_right - pad_left - 2 * border_width);
 1365              		.loc 1 233 14 is_stmt 0 view .LVU378
 1366 0092 2846     		mov	r0, r5
 1367 0094 FFF7FEFF 		bl	lv_obj_get_self_width
 1368              	.LVL139:
 1369 0098 8046     		mov	r8, r0
 1370              	.LVL140:
 234:lvgl/lvgl/src/core/lv_obj_scroll.c ****     self_w -= lv_obj_get_scroll_x(obj);
 1371              		.loc 1 234 5 is_stmt 1 view .LVU379
 234:lvgl/lvgl/src/core/lv_obj_scroll.c ****     self_w -= lv_obj_get_scroll_x(obj);
 1372              		.loc 1 234 73 is_stmt 0 view .LVU380
 1373 009a 7600     		lsls	r6, r6, #1
 1374              	.LVL141:
 234:lvgl/lvgl/src/core/lv_obj_scroll.c ****     self_w -= lv_obj_get_scroll_x(obj);
 1375              		.loc 1 234 73 view .LVU381
 1376 009c B6B2     		uxth	r6, r6
 234:lvgl/lvgl/src/core/lv_obj_scroll.c ****     self_w -= lv_obj_get_scroll_x(obj);
 1377              		.loc 1 234 24 view .LVU382
 1378 009e 2846     		mov	r0, r5
 1379 00a0 FFF7FEFF 		bl	lv_obj_get_width
 1380              	.LVL142:
 1381 00a4 80B2     		uxth	r0, r0
 234:lvgl/lvgl/src/core/lv_obj_scroll.c ****     self_w -= lv_obj_get_scroll_x(obj);
 1382              		.loc 1 234 46 view .LVU383
 1383 00a6 241A     		subs	r4, r4, r0
 1384              	.LVL143:
 234:lvgl/lvgl/src/core/lv_obj_scroll.c ****     self_w -= lv_obj_get_scroll_x(obj);
 1385              		.loc 1 234 58 view .LVU384
 1386 00a8 19FA84F4 		uxtah	r4, r9, r4
 234:lvgl/lvgl/src/core/lv_obj_scroll.c ****     self_w -= lv_obj_get_scroll_x(obj);
 1387              		.loc 1 234 69 view .LVU385
 1388 00ac 16FA84F4 		uxtah	r4, r6, r4
 234:lvgl/lvgl/src/core/lv_obj_scroll.c ****     self_w -= lv_obj_get_scroll_x(obj);
 1389              		.loc 1 234 21 view .LVU386
 1390 00b0 18FA84F4 		uxtah	r4, r8, r4
 1391 00b4 A4B2     		uxth	r4, r4
 1392              	.LVL144:
 235:lvgl/lvgl/src/core/lv_obj_scroll.c ****     return LV_MAX(child_res, self_w);
 1393              		.loc 1 235 5 is_stmt 1 view .LVU387
 235:lvgl/lvgl/src/core/lv_obj_scroll.c ****     return LV_MAX(child_res, self_w);
 1394              		.loc 1 235 15 is_stmt 0 view .LVU388
 1395 00b6 2846     		mov	r0, r5
 1396 00b8 FFF7FEFF 		bl	lv_obj_get_scroll_x
 1397              	.LVL145:
 1398 00bc 80B2     		uxth	r0, r0
 235:lvgl/lvgl/src/core/lv_obj_scroll.c ****     return LV_MAX(child_res, self_w);
ARM GAS  C:\Users\gx\AppData\Local\Temp\ccHlQRWF.s 			page 47


 1399              		.loc 1 235 12 view .LVU389
 1400 00be 201A     		subs	r0, r4, r0
 1401 00c0 00B2     		sxth	r0, r0
 1402              	.LVL146:
 236:lvgl/lvgl/src/core/lv_obj_scroll.c **** }
 1403              		.loc 1 236 5 is_stmt 1 view .LVU390
 236:lvgl/lvgl/src/core/lv_obj_scroll.c **** }
 1404              		.loc 1 236 12 is_stmt 0 view .LVU391
 1405 00c2 B842     		cmp	r0, r7
 1406 00c4 B8BF     		it	lt
 1407 00c6 3846     		movlt	r0, r7
 1408              	.LVL147:
 1409              	.L67:
 237:lvgl/lvgl/src/core/lv_obj_scroll.c **** 
 1410              		.loc 1 237 1 view .LVU392
 1411 00c8 BDE8F883 		pop	{r3, r4, r5, r6, r7, r8, r9, pc}
 1412              	.LVL148:
 1413              	.L72:
 210:lvgl/lvgl/src/core/lv_obj_scroll.c ****         return obj->spec_attr->scroll.x;
 1414              		.loc 1 210 43 view .LVU393
 1415 00cc 0020     		movs	r0, #0
 1416 00ce FBE7     		b	.L67
 1417              	.L76:
 1418              		.align	2
 1419              	.L75:
 1420 00d0 00A0FFFF 		.word	-24576
 1421              		.cfi_endproc
 1422              	.LFE171:
 1424              		.section	.text.lv_obj_get_scroll_end,"ax",%progbits
 1425              		.align	1
 1426              		.global	lv_obj_get_scroll_end
 1427              		.syntax unified
 1428              		.thumb
 1429              		.thumb_func
 1430              		.fpu fpv4-sp-d16
 1432              	lv_obj_get_scroll_end:
 1433              	.LVL149:
 1434              	.LFB172:
 240:lvgl/lvgl/src/core/lv_obj_scroll.c ****     lv_anim_t * a;
 1435              		.loc 1 240 1 is_stmt 1 view -0
 1436              		.cfi_startproc
 1437              		@ args = 0, pretend = 0, frame = 0
 1438              		@ frame_needed = 0, uses_anonymous_args = 0
 240:lvgl/lvgl/src/core/lv_obj_scroll.c ****     lv_anim_t * a;
 1439              		.loc 1 240 1 is_stmt 0 view .LVU395
 1440 0000 38B5     		push	{r3, r4, r5, lr}
 1441              	.LCFI11:
 1442              		.cfi_def_cfa_offset 16
 1443              		.cfi_offset 3, -16
 1444              		.cfi_offset 4, -12
 1445              		.cfi_offset 5, -8
 1446              		.cfi_offset 14, -4
 1447 0002 0546     		mov	r5, r0
 1448 0004 0C46     		mov	r4, r1
 241:lvgl/lvgl/src/core/lv_obj_scroll.c ****     a = lv_anim_get(obj, scroll_x_anim);
 1449              		.loc 1 241 5 is_stmt 1 view .LVU396
 242:lvgl/lvgl/src/core/lv_obj_scroll.c ****     end->x = a ? -a->end_value : lv_obj_get_scroll_x(obj);
ARM GAS  C:\Users\gx\AppData\Local\Temp\ccHlQRWF.s 			page 48


 1450              		.loc 1 242 5 view .LVU397
 242:lvgl/lvgl/src/core/lv_obj_scroll.c ****     end->x = a ? -a->end_value : lv_obj_get_scroll_x(obj);
 1451              		.loc 1 242 9 is_stmt 0 view .LVU398
 1452 0006 0D49     		ldr	r1, .L83
 1453              	.LVL150:
 242:lvgl/lvgl/src/core/lv_obj_scroll.c ****     end->x = a ? -a->end_value : lv_obj_get_scroll_x(obj);
 1454              		.loc 1 242 9 view .LVU399
 1455 0008 FFF7FEFF 		bl	lv_anim_get
 1456              	.LVL151:
 243:lvgl/lvgl/src/core/lv_obj_scroll.c **** 
 1457              		.loc 1 243 5 is_stmt 1 view .LVU400
 243:lvgl/lvgl/src/core/lv_obj_scroll.c **** 
 1458              		.loc 1 243 12 is_stmt 0 view .LVU401
 1459 000c 68B1     		cbz	r0, .L78
 243:lvgl/lvgl/src/core/lv_obj_scroll.c **** 
 1460              		.loc 1 243 20 discriminator 1 view .LVU402
 1461 000e 436A     		ldr	r3, [r0, #36]
 243:lvgl/lvgl/src/core/lv_obj_scroll.c **** 
 1462              		.loc 1 243 12 discriminator 1 view .LVU403
 1463 0010 5B42     		rsbs	r3, r3, #0
 1464 0012 18B2     		sxth	r0, r3
 1465              	.LVL152:
 1466              	.L79:
 243:lvgl/lvgl/src/core/lv_obj_scroll.c **** 
 1467              		.loc 1 243 12 discriminator 4 view .LVU404
 1468 0014 2080     		strh	r0, [r4]	@ movhi
 245:lvgl/lvgl/src/core/lv_obj_scroll.c ****     end->y = a ? -a->end_value : lv_obj_get_scroll_y(obj);
 1469              		.loc 1 245 5 is_stmt 1 discriminator 4 view .LVU405
 245:lvgl/lvgl/src/core/lv_obj_scroll.c ****     end->y = a ? -a->end_value : lv_obj_get_scroll_y(obj);
 1470              		.loc 1 245 9 is_stmt 0 discriminator 4 view .LVU406
 1471 0016 0A49     		ldr	r1, .L83+4
 1472 0018 2846     		mov	r0, r5
 1473 001a FFF7FEFF 		bl	lv_anim_get
 1474              	.LVL153:
 246:lvgl/lvgl/src/core/lv_obj_scroll.c **** }
 1475              		.loc 1 246 5 is_stmt 1 discriminator 4 view .LVU407
 246:lvgl/lvgl/src/core/lv_obj_scroll.c **** }
 1476              		.loc 1 246 12 is_stmt 0 discriminator 4 view .LVU408
 1477 001e 40B1     		cbz	r0, .L80
 246:lvgl/lvgl/src/core/lv_obj_scroll.c **** }
 1478              		.loc 1 246 20 discriminator 1 view .LVU409
 1479 0020 406A     		ldr	r0, [r0, #36]
 1480              	.LVL154:
 246:lvgl/lvgl/src/core/lv_obj_scroll.c **** }
 1481              		.loc 1 246 12 discriminator 1 view .LVU410
 1482 0022 4042     		rsbs	r0, r0, #0
 1483 0024 00B2     		sxth	r0, r0
 1484              	.L81:
 246:lvgl/lvgl/src/core/lv_obj_scroll.c **** }
 1485              		.loc 1 246 12 discriminator 4 view .LVU411
 1486 0026 6080     		strh	r0, [r4, #2]	@ movhi
 247:lvgl/lvgl/src/core/lv_obj_scroll.c **** 
 1487              		.loc 1 247 1 discriminator 4 view .LVU412
 1488 0028 38BD     		pop	{r3, r4, r5, pc}
 1489              	.LVL155:
 1490              	.L78:
 243:lvgl/lvgl/src/core/lv_obj_scroll.c **** 
ARM GAS  C:\Users\gx\AppData\Local\Temp\ccHlQRWF.s 			page 49


 1491              		.loc 1 243 34 discriminator 2 view .LVU413
 1492 002a 2846     		mov	r0, r5
 1493              	.LVL156:
 243:lvgl/lvgl/src/core/lv_obj_scroll.c **** 
 1494              		.loc 1 243 34 discriminator 2 view .LVU414
 1495 002c FFF7FEFF 		bl	lv_obj_get_scroll_x
 1496              	.LVL157:
 1497 0030 F0E7     		b	.L79
 1498              	.LVL158:
 1499              	.L80:
 246:lvgl/lvgl/src/core/lv_obj_scroll.c **** }
 1500              		.loc 1 246 34 discriminator 2 view .LVU415
 1501 0032 2846     		mov	r0, r5
 1502              	.LVL159:
 246:lvgl/lvgl/src/core/lv_obj_scroll.c **** }
 1503              		.loc 1 246 34 discriminator 2 view .LVU416
 1504 0034 FFF7FEFF 		bl	lv_obj_get_scroll_y
 1505              	.LVL160:
 1506 0038 F5E7     		b	.L81
 1507              	.L84:
 1508 003a 00BF     		.align	2
 1509              	.L83:
 1510 003c 00000000 		.word	scroll_x_anim
 1511 0040 00000000 		.word	scroll_y_anim
 1512              		.cfi_endproc
 1513              	.LFE172:
 1515              		.section	.text.lv_obj_scroll_by,"ax",%progbits
 1516              		.align	1
 1517              		.global	lv_obj_scroll_by
 1518              		.syntax unified
 1519              		.thumb
 1520              		.thumb_func
 1521              		.fpu fpv4-sp-d16
 1523              	lv_obj_scroll_by:
 1524              	.LVL161:
 1525              	.LFB173:
 254:lvgl/lvgl/src/core/lv_obj_scroll.c ****     if(x == 0 && y == 0) return;
 1526              		.loc 1 254 1 is_stmt 1 view -0
 1527              		.cfi_startproc
 1528              		@ args = 0, pretend = 0, frame = 72
 1529              		@ frame_needed = 0, uses_anonymous_args = 0
 254:lvgl/lvgl/src/core/lv_obj_scroll.c ****     if(x == 0 && y == 0) return;
 1530              		.loc 1 254 1 is_stmt 0 view .LVU418
 1531 0000 2DE9F041 		push	{r4, r5, r6, r7, r8, lr}
 1532              	.LCFI12:
 1533              		.cfi_def_cfa_offset 24
 1534              		.cfi_offset 4, -24
 1535              		.cfi_offset 5, -20
 1536              		.cfi_offset 6, -16
 1537              		.cfi_offset 7, -12
 1538              		.cfi_offset 8, -8
 1539              		.cfi_offset 14, -4
 1540 0004 92B0     		sub	sp, sp, #72
 1541              	.LCFI13:
 1542              		.cfi_def_cfa_offset 96
 1543 0006 0446     		mov	r4, r0
 1544 0008 1546     		mov	r5, r2
ARM GAS  C:\Users\gx\AppData\Local\Temp\ccHlQRWF.s 			page 50


 255:lvgl/lvgl/src/core/lv_obj_scroll.c ****     if(anim_en == LV_ANIM_ON) {
 1545              		.loc 1 255 5 is_stmt 1 view .LVU419
 255:lvgl/lvgl/src/core/lv_obj_scroll.c ****     if(anim_en == LV_ANIM_ON) {
 1546              		.loc 1 255 7 is_stmt 0 view .LVU420
 1547 000a 0F46     		mov	r7, r1
 1548 000c 01B9     		cbnz	r1, .L86
 255:lvgl/lvgl/src/core/lv_obj_scroll.c ****     if(anim_en == LV_ANIM_ON) {
 1549              		.loc 1 255 15 discriminator 1 view .LVU421
 1550 000e CAB1     		cbz	r2, .L85
 1551              	.L86:
 256:lvgl/lvgl/src/core/lv_obj_scroll.c ****         lv_disp_t * d = lv_obj_get_disp(obj);
 1552              		.loc 1 256 5 is_stmt 1 view .LVU422
 256:lvgl/lvgl/src/core/lv_obj_scroll.c ****         lv_disp_t * d = lv_obj_get_disp(obj);
 1553              		.loc 1 256 7 is_stmt 0 view .LVU423
 1554 0010 012B     		cmp	r3, #1
 1555 0012 1AD0     		beq	.L100
 1556              	.LBB116:
 296:lvgl/lvgl/src/core/lv_obj_scroll.c ****         bool x_del = lv_anim_del(obj, scroll_x_anim);
 1557              		.loc 1 296 9 is_stmt 1 view .LVU424
 296:lvgl/lvgl/src/core/lv_obj_scroll.c ****         bool x_del = lv_anim_del(obj, scroll_x_anim);
 1558              		.loc 1 296 22 is_stmt 0 view .LVU425
 1559 0014 3D49     		ldr	r1, .L102
 1560              	.LVL162:
 296:lvgl/lvgl/src/core/lv_obj_scroll.c ****         bool x_del = lv_anim_del(obj, scroll_x_anim);
 1561              		.loc 1 296 22 view .LVU426
 1562 0016 2046     		mov	r0, r4
 1563              	.LVL163:
 296:lvgl/lvgl/src/core/lv_obj_scroll.c ****         bool x_del = lv_anim_del(obj, scroll_x_anim);
 1564              		.loc 1 296 22 view .LVU427
 1565 0018 FFF7FEFF 		bl	lv_anim_del
 1566              	.LVL164:
 296:lvgl/lvgl/src/core/lv_obj_scroll.c ****         bool x_del = lv_anim_del(obj, scroll_x_anim);
 1567              		.loc 1 296 22 view .LVU428
 1568 001c 0646     		mov	r6, r0
 1569              	.LVL165:
 297:lvgl/lvgl/src/core/lv_obj_scroll.c ****         scroll_by_raw(obj, x, y);
 1570              		.loc 1 297 9 is_stmt 1 view .LVU429
 297:lvgl/lvgl/src/core/lv_obj_scroll.c ****         scroll_by_raw(obj, x, y);
 1571              		.loc 1 297 22 is_stmt 0 view .LVU430
 1572 001e 3C49     		ldr	r1, .L102+4
 1573 0020 2046     		mov	r0, r4
 1574 0022 FFF7FEFF 		bl	lv_anim_del
 1575              	.LVL166:
 1576 0026 8046     		mov	r8, r0
 1577              	.LVL167:
 298:lvgl/lvgl/src/core/lv_obj_scroll.c ****         if(y_del || x_del) {
 1578              		.loc 1 298 9 is_stmt 1 view .LVU431
 1579 0028 2A46     		mov	r2, r5
 1580 002a 3946     		mov	r1, r7
 1581 002c 2046     		mov	r0, r4
 1582 002e FFF7FEFF 		bl	scroll_by_raw
 1583              	.LVL168:
 299:lvgl/lvgl/src/core/lv_obj_scroll.c ****             lv_res_t res;
 1584              		.loc 1 299 9 view .LVU432
 299:lvgl/lvgl/src/core/lv_obj_scroll.c ****             lv_res_t res;
 1585              		.loc 1 299 11 is_stmt 0 view .LVU433
 1586 0032 16B9     		cbnz	r6, .L94
ARM GAS  C:\Users\gx\AppData\Local\Temp\ccHlQRWF.s 			page 51


 299:lvgl/lvgl/src/core/lv_obj_scroll.c ****             lv_res_t res;
 1587              		.loc 1 299 18 discriminator 1 view .LVU434
 1588 0034 B8F1000F 		cmp	r8, #0
 1589 0038 04D0     		beq	.L85
 1590              	.L94:
 1591              	.LBB117:
 300:lvgl/lvgl/src/core/lv_obj_scroll.c ****             res = lv_event_send(obj, LV_EVENT_SCROLL_END, NULL);
 1592              		.loc 1 300 13 is_stmt 1 view .LVU435
 301:lvgl/lvgl/src/core/lv_obj_scroll.c ****             if(res != LV_RES_OK) return;
 1593              		.loc 1 301 13 view .LVU436
 301:lvgl/lvgl/src/core/lv_obj_scroll.c ****             if(res != LV_RES_OK) return;
 1594              		.loc 1 301 19 is_stmt 0 view .LVU437
 1595 003a 0022     		movs	r2, #0
 1596 003c 0A21     		movs	r1, #10
 1597 003e 2046     		mov	r0, r4
 1598 0040 FFF7FEFF 		bl	lv_event_send
 1599              	.LVL169:
 302:lvgl/lvgl/src/core/lv_obj_scroll.c ****         }
 1600              		.loc 1 302 13 is_stmt 1 view .LVU438
 1601              	.L85:
 302:lvgl/lvgl/src/core/lv_obj_scroll.c ****         }
 1602              		.loc 1 302 13 is_stmt 0 view .LVU439
 1603              	.LBE117:
 1604              	.LBE116:
 305:lvgl/lvgl/src/core/lv_obj_scroll.c **** 
 1605              		.loc 1 305 1 view .LVU440
 1606 0044 12B0     		add	sp, sp, #72
 1607              	.LCFI14:
 1608              		.cfi_remember_state
 1609              		.cfi_def_cfa_offset 24
 1610              		@ sp needed
 1611 0046 BDE8F081 		pop	{r4, r5, r6, r7, r8, pc}
 1612              	.LVL170:
 1613              	.L100:
 1614              	.LCFI15:
 1615              		.cfi_restore_state
 1616              	.LBB118:
 257:lvgl/lvgl/src/core/lv_obj_scroll.c ****         lv_anim_t a;
 1617              		.loc 1 257 9 is_stmt 1 view .LVU441
 257:lvgl/lvgl/src/core/lv_obj_scroll.c ****         lv_anim_t a;
 1618              		.loc 1 257 25 is_stmt 0 view .LVU442
 1619 004a 2046     		mov	r0, r4
 1620              	.LVL171:
 257:lvgl/lvgl/src/core/lv_obj_scroll.c ****         lv_anim_t a;
 1621              		.loc 1 257 25 view .LVU443
 1622 004c FFF7FEFF 		bl	lv_obj_get_disp
 1623              	.LVL172:
 257:lvgl/lvgl/src/core/lv_obj_scroll.c ****         lv_anim_t a;
 1624              		.loc 1 257 25 view .LVU444
 1625 0050 0646     		mov	r6, r0
 1626              	.LVL173:
 258:lvgl/lvgl/src/core/lv_obj_scroll.c ****         lv_anim_init(&a);
 1627              		.loc 1 258 9 is_stmt 1 view .LVU445
 259:lvgl/lvgl/src/core/lv_obj_scroll.c ****         lv_anim_set_var(&a, obj);
 1628              		.loc 1 259 9 view .LVU446
 1629 0052 01A8     		add	r0, sp, #4
 1630              	.LVL174:
ARM GAS  C:\Users\gx\AppData\Local\Temp\ccHlQRWF.s 			page 52


 259:lvgl/lvgl/src/core/lv_obj_scroll.c ****         lv_anim_set_var(&a, obj);
 1631              		.loc 1 259 9 is_stmt 0 view .LVU447
 1632 0054 FFF7FEFF 		bl	lv_anim_init
 1633              	.LVL175:
 260:lvgl/lvgl/src/core/lv_obj_scroll.c ****         lv_anim_set_ready_cb(&a, scroll_anim_ready_cb);
 1634              		.loc 1 260 9 is_stmt 1 view .LVU448
 1635              	.LBB119:
 1636              	.LBI119:
 1637              		.file 3 "lvgl/lvgl/src/core/../misc/lv_anim.h"
   1:lvgl/lvgl/src/core/../misc/lv_anim.h **** /**
   2:lvgl/lvgl/src/core/../misc/lv_anim.h ****  * @file lv_anim.h
   3:lvgl/lvgl/src/core/../misc/lv_anim.h ****  *
   4:lvgl/lvgl/src/core/../misc/lv_anim.h ****  */
   5:lvgl/lvgl/src/core/../misc/lv_anim.h **** 
   6:lvgl/lvgl/src/core/../misc/lv_anim.h **** #ifndef LV_ANIM_H
   7:lvgl/lvgl/src/core/../misc/lv_anim.h **** #define LV_ANIM_H
   8:lvgl/lvgl/src/core/../misc/lv_anim.h **** 
   9:lvgl/lvgl/src/core/../misc/lv_anim.h **** #ifdef __cplusplus
  10:lvgl/lvgl/src/core/../misc/lv_anim.h **** extern "C" {
  11:lvgl/lvgl/src/core/../misc/lv_anim.h **** #endif
  12:lvgl/lvgl/src/core/../misc/lv_anim.h **** 
  13:lvgl/lvgl/src/core/../misc/lv_anim.h **** /*********************
  14:lvgl/lvgl/src/core/../misc/lv_anim.h ****  *      INCLUDES
  15:lvgl/lvgl/src/core/../misc/lv_anim.h ****  *********************/
  16:lvgl/lvgl/src/core/../misc/lv_anim.h **** #include "../lv_conf_internal.h"
  17:lvgl/lvgl/src/core/../misc/lv_anim.h **** 
  18:lvgl/lvgl/src/core/../misc/lv_anim.h **** #include <stdint.h>
  19:lvgl/lvgl/src/core/../misc/lv_anim.h **** #include <stdbool.h>
  20:lvgl/lvgl/src/core/../misc/lv_anim.h **** #include <string.h>
  21:lvgl/lvgl/src/core/../misc/lv_anim.h **** 
  22:lvgl/lvgl/src/core/../misc/lv_anim.h **** /*********************
  23:lvgl/lvgl/src/core/../misc/lv_anim.h ****  *      DEFINES
  24:lvgl/lvgl/src/core/../misc/lv_anim.h ****  *********************/
  25:lvgl/lvgl/src/core/../misc/lv_anim.h **** 
  26:lvgl/lvgl/src/core/../misc/lv_anim.h **** /**********************
  27:lvgl/lvgl/src/core/../misc/lv_anim.h ****  *      TYPEDEFS
  28:lvgl/lvgl/src/core/../misc/lv_anim.h ****  **********************/
  29:lvgl/lvgl/src/core/../misc/lv_anim.h **** 
  30:lvgl/lvgl/src/core/../misc/lv_anim.h **** /** Can be used to indicate if animations are enabled or disabled in a case*/
  31:lvgl/lvgl/src/core/../misc/lv_anim.h **** typedef enum {
  32:lvgl/lvgl/src/core/../misc/lv_anim.h ****     LV_ANIM_OFF,
  33:lvgl/lvgl/src/core/../misc/lv_anim.h ****     LV_ANIM_ON,
  34:lvgl/lvgl/src/core/../misc/lv_anim.h **** }lv_anim_enable_t;
  35:lvgl/lvgl/src/core/../misc/lv_anim.h **** 
  36:lvgl/lvgl/src/core/../misc/lv_anim.h **** #define LV_ANIM_REPEAT_INFINITE      0xFFFF
  37:lvgl/lvgl/src/core/../misc/lv_anim.h **** LV_EXPORT_CONST_INT(LV_ANIM_REPEAT_INFINITE);
  38:lvgl/lvgl/src/core/../misc/lv_anim.h **** 
  39:lvgl/lvgl/src/core/../misc/lv_anim.h **** struct _lv_anim_t;
  40:lvgl/lvgl/src/core/../misc/lv_anim.h **** 
  41:lvgl/lvgl/src/core/../misc/lv_anim.h **** /** Get the current value during an animation*/
  42:lvgl/lvgl/src/core/../misc/lv_anim.h **** typedef int32_t (*lv_anim_path_cb_t)(const struct _lv_anim_t *);
  43:lvgl/lvgl/src/core/../misc/lv_anim.h **** 
  44:lvgl/lvgl/src/core/../misc/lv_anim.h **** /** Generic prototype of "animator" functions.
  45:lvgl/lvgl/src/core/../misc/lv_anim.h ****  * First parameter is the variable to animate.
  46:lvgl/lvgl/src/core/../misc/lv_anim.h ****  * Second parameter is the value to set.
  47:lvgl/lvgl/src/core/../misc/lv_anim.h ****  * Compatible with `lv_xxx_set_yyy(obj, value)` functions
  48:lvgl/lvgl/src/core/../misc/lv_anim.h ****  * The `x` in `_xcb_t` means its not a fully generic prototype because
ARM GAS  C:\Users\gx\AppData\Local\Temp\ccHlQRWF.s 			page 53


  49:lvgl/lvgl/src/core/../misc/lv_anim.h ****  * it doesn't receive `lv_anim_t *` as its first argument*/
  50:lvgl/lvgl/src/core/../misc/lv_anim.h **** typedef void (*lv_anim_exec_xcb_t)(void *, int32_t);
  51:lvgl/lvgl/src/core/../misc/lv_anim.h **** 
  52:lvgl/lvgl/src/core/../misc/lv_anim.h **** /** Same as `lv_anim_exec_xcb_t` but receives `lv_anim_t *` as the first parameter.
  53:lvgl/lvgl/src/core/../misc/lv_anim.h ****  * It's more consistent but less convenient. Might be used by binding generator functions.*/
  54:lvgl/lvgl/src/core/../misc/lv_anim.h **** typedef void (*lv_anim_custom_exec_cb_t)(struct _lv_anim_t *, int32_t);
  55:lvgl/lvgl/src/core/../misc/lv_anim.h **** 
  56:lvgl/lvgl/src/core/../misc/lv_anim.h **** /** Callback to call when the animation is ready*/
  57:lvgl/lvgl/src/core/../misc/lv_anim.h **** typedef void (*lv_anim_ready_cb_t)(struct _lv_anim_t *);
  58:lvgl/lvgl/src/core/../misc/lv_anim.h **** 
  59:lvgl/lvgl/src/core/../misc/lv_anim.h **** /** Callback to call when the animation really stars (considering `delay`)*/
  60:lvgl/lvgl/src/core/../misc/lv_anim.h **** typedef void (*lv_anim_start_cb_t)(struct _lv_anim_t *);
  61:lvgl/lvgl/src/core/../misc/lv_anim.h **** 
  62:lvgl/lvgl/src/core/../misc/lv_anim.h **** /** Callback used when the animation values are relative to get the current value*/
  63:lvgl/lvgl/src/core/../misc/lv_anim.h **** typedef int32_t (*lv_anim_get_value_cb_t)(struct _lv_anim_t *);
  64:lvgl/lvgl/src/core/../misc/lv_anim.h **** 
  65:lvgl/lvgl/src/core/../misc/lv_anim.h **** /** Describes an animation*/
  66:lvgl/lvgl/src/core/../misc/lv_anim.h **** typedef struct _lv_anim_t {
  67:lvgl/lvgl/src/core/../misc/lv_anim.h ****     void * var;                          /**<Variable to animate*/
  68:lvgl/lvgl/src/core/../misc/lv_anim.h ****     lv_anim_exec_xcb_t exec_cb;          /**< Function to execute to animate*/
  69:lvgl/lvgl/src/core/../misc/lv_anim.h ****     lv_anim_start_cb_t start_cb;         /**< Call it when the animation is starts (considering `de
  70:lvgl/lvgl/src/core/../misc/lv_anim.h ****     lv_anim_ready_cb_t ready_cb;         /**< Call it when the animation is ready*/
  71:lvgl/lvgl/src/core/../misc/lv_anim.h ****     lv_anim_get_value_cb_t get_value_cb; /**< Get the current value in relative mode*/
  72:lvgl/lvgl/src/core/../misc/lv_anim.h **** #if LV_USE_USER_DATA
  73:lvgl/lvgl/src/core/../misc/lv_anim.h ****     void * user_data; /**< Custom user data*/
  74:lvgl/lvgl/src/core/../misc/lv_anim.h **** #endif
  75:lvgl/lvgl/src/core/../misc/lv_anim.h ****     lv_anim_path_cb_t path_cb;         /**< Describe the path (curve) of animations*/
  76:lvgl/lvgl/src/core/../misc/lv_anim.h ****     int32_t start_value;               /**< Start value*/
  77:lvgl/lvgl/src/core/../misc/lv_anim.h ****     int32_t current_value;             /**< Current value*/
  78:lvgl/lvgl/src/core/../misc/lv_anim.h ****     int32_t end_value;                 /**< End value*/
  79:lvgl/lvgl/src/core/../misc/lv_anim.h ****     int32_t time;                /**< Animation time in ms*/
  80:lvgl/lvgl/src/core/../misc/lv_anim.h ****     int32_t act_time;            /**< Current time in animation. Set to negative to make delay.*/
  81:lvgl/lvgl/src/core/../misc/lv_anim.h ****     uint32_t playback_delay;     /**< Wait before play back*/
  82:lvgl/lvgl/src/core/../misc/lv_anim.h ****     uint32_t playback_time;      /**< Duration of playback animation*/
  83:lvgl/lvgl/src/core/../misc/lv_anim.h ****     uint32_t repeat_delay;       /**< Wait before repeat*/
  84:lvgl/lvgl/src/core/../misc/lv_anim.h ****     uint16_t repeat_cnt;         /**< Repeat count for the animation*/
  85:lvgl/lvgl/src/core/../misc/lv_anim.h ****     uint8_t early_apply  : 1;    /**< 1: Apply start value immediately even is there is `delay`*/
  86:lvgl/lvgl/src/core/../misc/lv_anim.h **** 
  87:lvgl/lvgl/src/core/../misc/lv_anim.h ****     /*Animation system use these - user shouldn't set*/
  88:lvgl/lvgl/src/core/../misc/lv_anim.h ****     uint8_t playback_now : 1; /**< Play back is in progress*/
  89:lvgl/lvgl/src/core/../misc/lv_anim.h ****     uint8_t run_round : 1;    /**< Indicates the animation has run in this round*/
  90:lvgl/lvgl/src/core/../misc/lv_anim.h ****     uint8_t start_cb_called : 1;    /**< Indicates that the `start_cb` was already called*/
  91:lvgl/lvgl/src/core/../misc/lv_anim.h ****     uint32_t time_orig;
  92:lvgl/lvgl/src/core/../misc/lv_anim.h **** } lv_anim_t;
  93:lvgl/lvgl/src/core/../misc/lv_anim.h **** 
  94:lvgl/lvgl/src/core/../misc/lv_anim.h **** /**********************
  95:lvgl/lvgl/src/core/../misc/lv_anim.h ****  * GLOBAL PROTOTYPES
  96:lvgl/lvgl/src/core/../misc/lv_anim.h ****  **********************/
  97:lvgl/lvgl/src/core/../misc/lv_anim.h **** 
  98:lvgl/lvgl/src/core/../misc/lv_anim.h **** /**
  99:lvgl/lvgl/src/core/../misc/lv_anim.h ****  * Init. the animation module
 100:lvgl/lvgl/src/core/../misc/lv_anim.h ****  */
 101:lvgl/lvgl/src/core/../misc/lv_anim.h **** void _lv_anim_core_init(void);
 102:lvgl/lvgl/src/core/../misc/lv_anim.h **** 
 103:lvgl/lvgl/src/core/../misc/lv_anim.h **** /**
 104:lvgl/lvgl/src/core/../misc/lv_anim.h ****  * Initialize an animation variable.
 105:lvgl/lvgl/src/core/../misc/lv_anim.h ****  * E.g.:
ARM GAS  C:\Users\gx\AppData\Local\Temp\ccHlQRWF.s 			page 54


 106:lvgl/lvgl/src/core/../misc/lv_anim.h ****  * lv_anim_t a;
 107:lvgl/lvgl/src/core/../misc/lv_anim.h ****  * lv_anim_init(&a);
 108:lvgl/lvgl/src/core/../misc/lv_anim.h ****  * lv_anim_set_...(&a);
 109:lvgl/lvgl/src/core/../misc/lv_anim.h ****  * lv_anim_start(&a);
 110:lvgl/lvgl/src/core/../misc/lv_anim.h ****  * @param a     pointer to an `lv_anim_t` variable to initialize
 111:lvgl/lvgl/src/core/../misc/lv_anim.h ****  */
 112:lvgl/lvgl/src/core/../misc/lv_anim.h **** void lv_anim_init(lv_anim_t * a);
 113:lvgl/lvgl/src/core/../misc/lv_anim.h **** 
 114:lvgl/lvgl/src/core/../misc/lv_anim.h **** /**
 115:lvgl/lvgl/src/core/../misc/lv_anim.h ****  * Set a variable to animate
 116:lvgl/lvgl/src/core/../misc/lv_anim.h ****  * @param a     pointer to an initialized `lv_anim_t` variable
 117:lvgl/lvgl/src/core/../misc/lv_anim.h ****  * @param var   pointer to a variable to animate
 118:lvgl/lvgl/src/core/../misc/lv_anim.h ****  */
 119:lvgl/lvgl/src/core/../misc/lv_anim.h **** static inline void lv_anim_set_var(lv_anim_t * a, void * var)
 1638              		.loc 3 119 20 view .LVU449
 1639              	.LBB120:
 120:lvgl/lvgl/src/core/../misc/lv_anim.h **** {
 121:lvgl/lvgl/src/core/../misc/lv_anim.h ****     a->var = var;
 1640              		.loc 3 121 5 view .LVU450
 1641              		.loc 3 121 12 is_stmt 0 view .LVU451
 1642 0058 0194     		str	r4, [sp, #4]
 1643              	.LVL176:
 1644              		.loc 3 121 12 view .LVU452
 1645              	.LBE120:
 1646              	.LBE119:
 261:lvgl/lvgl/src/core/lv_obj_scroll.c **** 
 1647              		.loc 1 261 9 is_stmt 1 view .LVU453
 1648              	.LBB121:
 1649              	.LBI121:
 122:lvgl/lvgl/src/core/../misc/lv_anim.h **** }
 123:lvgl/lvgl/src/core/../misc/lv_anim.h **** 
 124:lvgl/lvgl/src/core/../misc/lv_anim.h **** /**
 125:lvgl/lvgl/src/core/../misc/lv_anim.h ****  * Set a function to animate `var`
 126:lvgl/lvgl/src/core/../misc/lv_anim.h ****  * @param a         pointer to an initialized `lv_anim_t` variable
 127:lvgl/lvgl/src/core/../misc/lv_anim.h ****  * @param exec_cb   a function to execute during animation
 128:lvgl/lvgl/src/core/../misc/lv_anim.h ****  *                  LVGL's built-in functions can be used.
 129:lvgl/lvgl/src/core/../misc/lv_anim.h ****  *                  E.g. lv_obj_set_x
 130:lvgl/lvgl/src/core/../misc/lv_anim.h ****  */
 131:lvgl/lvgl/src/core/../misc/lv_anim.h **** static inline void lv_anim_set_exec_cb(lv_anim_t * a, lv_anim_exec_xcb_t exec_cb)
 132:lvgl/lvgl/src/core/../misc/lv_anim.h **** {
 133:lvgl/lvgl/src/core/../misc/lv_anim.h ****     a->exec_cb = exec_cb;
 134:lvgl/lvgl/src/core/../misc/lv_anim.h **** }
 135:lvgl/lvgl/src/core/../misc/lv_anim.h **** 
 136:lvgl/lvgl/src/core/../misc/lv_anim.h **** /**
 137:lvgl/lvgl/src/core/../misc/lv_anim.h ****  * Set the duration of an animation
 138:lvgl/lvgl/src/core/../misc/lv_anim.h ****  * @param a         pointer to an initialized `lv_anim_t` variable
 139:lvgl/lvgl/src/core/../misc/lv_anim.h ****  * @param duration  duration of the animation in milliseconds
 140:lvgl/lvgl/src/core/../misc/lv_anim.h ****  */
 141:lvgl/lvgl/src/core/../misc/lv_anim.h **** static inline void lv_anim_set_time(lv_anim_t * a, uint32_t duration)
 142:lvgl/lvgl/src/core/../misc/lv_anim.h **** {
 143:lvgl/lvgl/src/core/../misc/lv_anim.h ****     a->time = duration;
 144:lvgl/lvgl/src/core/../misc/lv_anim.h **** }
 145:lvgl/lvgl/src/core/../misc/lv_anim.h **** 
 146:lvgl/lvgl/src/core/../misc/lv_anim.h **** /**
 147:lvgl/lvgl/src/core/../misc/lv_anim.h ****  * Set a delay before starting the animation
 148:lvgl/lvgl/src/core/../misc/lv_anim.h ****  * @param a         pointer to an initialized `lv_anim_t` variable
 149:lvgl/lvgl/src/core/../misc/lv_anim.h ****  * @param delay     delay before the animation in milliseconds
ARM GAS  C:\Users\gx\AppData\Local\Temp\ccHlQRWF.s 			page 55


 150:lvgl/lvgl/src/core/../misc/lv_anim.h ****  */
 151:lvgl/lvgl/src/core/../misc/lv_anim.h **** static inline void lv_anim_set_delay(lv_anim_t * a, uint32_t delay)
 152:lvgl/lvgl/src/core/../misc/lv_anim.h **** {
 153:lvgl/lvgl/src/core/../misc/lv_anim.h ****     a->act_time = -(int32_t)(delay);
 154:lvgl/lvgl/src/core/../misc/lv_anim.h **** }
 155:lvgl/lvgl/src/core/../misc/lv_anim.h **** 
 156:lvgl/lvgl/src/core/../misc/lv_anim.h **** /**
 157:lvgl/lvgl/src/core/../misc/lv_anim.h ****  * Set the start and end values of an animation
 158:lvgl/lvgl/src/core/../misc/lv_anim.h ****  * @param a         pointer to an initialized `lv_anim_t` variable
 159:lvgl/lvgl/src/core/../misc/lv_anim.h ****  * @param start     the start value
 160:lvgl/lvgl/src/core/../misc/lv_anim.h ****  * @param end       the end value
 161:lvgl/lvgl/src/core/../misc/lv_anim.h ****  */
 162:lvgl/lvgl/src/core/../misc/lv_anim.h **** static inline void lv_anim_set_values(lv_anim_t * a, int32_t start, int32_t end)
 163:lvgl/lvgl/src/core/../misc/lv_anim.h **** {
 164:lvgl/lvgl/src/core/../misc/lv_anim.h ****     a->start_value = start;
 165:lvgl/lvgl/src/core/../misc/lv_anim.h ****     a->current_value = start;
 166:lvgl/lvgl/src/core/../misc/lv_anim.h ****     a->end_value = end;
 167:lvgl/lvgl/src/core/../misc/lv_anim.h **** }
 168:lvgl/lvgl/src/core/../misc/lv_anim.h **** 
 169:lvgl/lvgl/src/core/../misc/lv_anim.h **** /**
 170:lvgl/lvgl/src/core/../misc/lv_anim.h ****  * Similar to `lv_anim_set_exec_cb` but `lv_anim_custom_exec_cb_t` receives
 171:lvgl/lvgl/src/core/../misc/lv_anim.h ****  * `lv_anim_t * ` as its first parameter instead of `void *`.
 172:lvgl/lvgl/src/core/../misc/lv_anim.h ****  * This function might be used when LVGL is binded to other languages because
 173:lvgl/lvgl/src/core/../misc/lv_anim.h ****  * it's more consistent to have `lv_anim_t *` as first parameter.
 174:lvgl/lvgl/src/core/../misc/lv_anim.h ****  * The variable to animate can be stored in the animation's `user_sata`
 175:lvgl/lvgl/src/core/../misc/lv_anim.h ****  * @param a         pointer to an initialized `lv_anim_t` variable
 176:lvgl/lvgl/src/core/../misc/lv_anim.h ****  * @param exec_cb   a function to execute.
 177:lvgl/lvgl/src/core/../misc/lv_anim.h ****  */
 178:lvgl/lvgl/src/core/../misc/lv_anim.h **** static inline void lv_anim_set_custom_exec_cb(lv_anim_t * a, lv_anim_custom_exec_cb_t exec_cb)
 179:lvgl/lvgl/src/core/../misc/lv_anim.h **** {
 180:lvgl/lvgl/src/core/../misc/lv_anim.h ****     a->var     = a;
 181:lvgl/lvgl/src/core/../misc/lv_anim.h ****     a->exec_cb = (lv_anim_exec_xcb_t)exec_cb;
 182:lvgl/lvgl/src/core/../misc/lv_anim.h **** }
 183:lvgl/lvgl/src/core/../misc/lv_anim.h **** 
 184:lvgl/lvgl/src/core/../misc/lv_anim.h **** /**
 185:lvgl/lvgl/src/core/../misc/lv_anim.h ****  * Set the path (curve) of the animation.
 186:lvgl/lvgl/src/core/../misc/lv_anim.h ****  * @param a         pointer to an initialized `lv_anim_t` variable
 187:lvgl/lvgl/src/core/../misc/lv_anim.h ****  * @param path_cb a function the get the current value of the animation.
 188:lvgl/lvgl/src/core/../misc/lv_anim.h ****  */
 189:lvgl/lvgl/src/core/../misc/lv_anim.h **** static inline void lv_anim_set_path_cb(lv_anim_t * a, lv_anim_path_cb_t path_cb)
 190:lvgl/lvgl/src/core/../misc/lv_anim.h **** {
 191:lvgl/lvgl/src/core/../misc/lv_anim.h ****     a->path_cb = path_cb;
 192:lvgl/lvgl/src/core/../misc/lv_anim.h **** }
 193:lvgl/lvgl/src/core/../misc/lv_anim.h **** 
 194:lvgl/lvgl/src/core/../misc/lv_anim.h **** /**
 195:lvgl/lvgl/src/core/../misc/lv_anim.h ****  * Set a function call when the animation really starts (considering `delay`)
 196:lvgl/lvgl/src/core/../misc/lv_anim.h ****  * @param a         pointer to an initialized `lv_anim_t` variable
 197:lvgl/lvgl/src/core/../misc/lv_anim.h ****  * @param start_cb  a function call when the animation starts
 198:lvgl/lvgl/src/core/../misc/lv_anim.h ****  */
 199:lvgl/lvgl/src/core/../misc/lv_anim.h **** static inline void lv_anim_set_start_cb(lv_anim_t * a, lv_anim_ready_cb_t start_cb)
 200:lvgl/lvgl/src/core/../misc/lv_anim.h **** {
 201:lvgl/lvgl/src/core/../misc/lv_anim.h ****     a->start_cb = start_cb;
 202:lvgl/lvgl/src/core/../misc/lv_anim.h **** }
 203:lvgl/lvgl/src/core/../misc/lv_anim.h **** 
 204:lvgl/lvgl/src/core/../misc/lv_anim.h **** /**
 205:lvgl/lvgl/src/core/../misc/lv_anim.h ****  * Set a function to use the current value of the variable and make start and end value
 206:lvgl/lvgl/src/core/../misc/lv_anim.h ****  * relative the the returned current value.
ARM GAS  C:\Users\gx\AppData\Local\Temp\ccHlQRWF.s 			page 56


 207:lvgl/lvgl/src/core/../misc/lv_anim.h ****  * @param a             pointer to an initialized `lv_anim_t` variable
 208:lvgl/lvgl/src/core/../misc/lv_anim.h ****  * @param get_value_cb  a function call when the animation starts
 209:lvgl/lvgl/src/core/../misc/lv_anim.h ****  */
 210:lvgl/lvgl/src/core/../misc/lv_anim.h **** static inline void lv_anim_set_get_value_cb(lv_anim_t * a, lv_anim_get_value_cb_t get_value_cb)
 211:lvgl/lvgl/src/core/../misc/lv_anim.h **** {
 212:lvgl/lvgl/src/core/../misc/lv_anim.h ****     a->get_value_cb = get_value_cb;
 213:lvgl/lvgl/src/core/../misc/lv_anim.h **** }
 214:lvgl/lvgl/src/core/../misc/lv_anim.h **** 
 215:lvgl/lvgl/src/core/../misc/lv_anim.h **** /**
 216:lvgl/lvgl/src/core/../misc/lv_anim.h ****  * Set a function call when the animation is ready
 217:lvgl/lvgl/src/core/../misc/lv_anim.h ****  * @param a         pointer to an initialized `lv_anim_t` variable
 218:lvgl/lvgl/src/core/../misc/lv_anim.h ****  * @param ready_cb  a function call when the animation is ready
 219:lvgl/lvgl/src/core/../misc/lv_anim.h ****  */
 220:lvgl/lvgl/src/core/../misc/lv_anim.h **** static inline void lv_anim_set_ready_cb(lv_anim_t * a, lv_anim_ready_cb_t ready_cb)
 1650              		.loc 3 220 20 view .LVU454
 1651              	.LBB122:
 221:lvgl/lvgl/src/core/../misc/lv_anim.h **** {
 222:lvgl/lvgl/src/core/../misc/lv_anim.h ****     a->ready_cb = ready_cb;
 1652              		.loc 3 222 5 view .LVU455
 1653              		.loc 3 222 17 is_stmt 0 view .LVU456
 1654 005a 2E4B     		ldr	r3, .L102+8
 1655 005c 0493     		str	r3, [sp, #16]
 1656              	.LVL177:
 1657              		.loc 3 222 17 view .LVU457
 1658              	.LBE122:
 1659              	.LBE121:
 263:lvgl/lvgl/src/core/lv_obj_scroll.c ****             uint32_t t = lv_anim_speed_to_time((lv_disp_get_hor_res(d) * 2) >> 2, 0, x);
 1660              		.loc 1 263 9 is_stmt 1 view .LVU458
 263:lvgl/lvgl/src/core/lv_obj_scroll.c ****             uint32_t t = lv_anim_speed_to_time((lv_disp_get_hor_res(d) * 2) >> 2, 0, x);
 1661              		.loc 1 263 11 is_stmt 0 view .LVU459
 1662 005e 97B9     		cbnz	r7, .L101
 1663              	.L89:
 279:lvgl/lvgl/src/core/lv_obj_scroll.c ****             uint32_t t = lv_anim_speed_to_time((lv_disp_get_ver_res(d) * 2) >> 2, 0, y);
 1664              		.loc 1 279 9 is_stmt 1 view .LVU460
 279:lvgl/lvgl/src/core/lv_obj_scroll.c ****             uint32_t t = lv_anim_speed_to_time((lv_disp_get_ver_res(d) * 2) >> 2, 0, y);
 1665              		.loc 1 279 11 is_stmt 0 view .LVU461
 1666 0060 002D     		cmp	r5, #0
 1667 0062 EFD0     		beq	.L85
 1668              	.LBB123:
 280:lvgl/lvgl/src/core/lv_obj_scroll.c ****             if(t < SCROLL_ANIM_TIME_MIN) t = SCROLL_ANIM_TIME_MIN;
 1669              		.loc 1 280 13 is_stmt 1 view .LVU462
 280:lvgl/lvgl/src/core/lv_obj_scroll.c ****             if(t < SCROLL_ANIM_TIME_MIN) t = SCROLL_ANIM_TIME_MIN;
 1670              		.loc 1 280 49 is_stmt 0 view .LVU463
 1671 0064 3046     		mov	r0, r6
 1672 0066 FFF7FEFF 		bl	lv_disp_get_ver_res
 1673              	.LVL178:
 280:lvgl/lvgl/src/core/lv_obj_scroll.c ****             if(t < SCROLL_ANIM_TIME_MIN) t = SCROLL_ANIM_TIME_MIN;
 1674              		.loc 1 280 26 view .LVU464
 1675 006a 2A46     		mov	r2, r5
 1676 006c 0021     		movs	r1, #0
 1677 006e 40F35D00 		sbfx	r0, r0, #1, #30
 1678 0072 FFF7FEFF 		bl	lv_anim_speed_to_time
 1679              	.LVL179:
 281:lvgl/lvgl/src/core/lv_obj_scroll.c ****             if(t > SCROLL_ANIM_TIME_MAX) t = SCROLL_ANIM_TIME_MAX;
 1680              		.loc 1 281 13 is_stmt 1 view .LVU465
 281:lvgl/lvgl/src/core/lv_obj_scroll.c ****             if(t > SCROLL_ANIM_TIME_MAX) t = SCROLL_ANIM_TIME_MAX;
 1681              		.loc 1 281 15 is_stmt 0 view .LVU466
ARM GAS  C:\Users\gx\AppData\Local\Temp\ccHlQRWF.s 			page 57


 1682 0076 C728     		cmp	r0, #199
 1683 0078 2FD9     		bls	.L97
 282:lvgl/lvgl/src/core/lv_obj_scroll.c ****             lv_anim_set_time(&a, t);
 1684              		.loc 1 282 13 is_stmt 1 view .LVU467
 282:lvgl/lvgl/src/core/lv_obj_scroll.c ****             lv_anim_set_time(&a, t);
 1685              		.loc 1 282 15 is_stmt 0 view .LVU468
 1686 007a B0F5C87F 		cmp	r0, #400
 1687 007e 2DD9     		bls	.L93
 282:lvgl/lvgl/src/core/lv_obj_scroll.c ****             lv_anim_set_time(&a, t);
 1688              		.loc 1 282 44 view .LVU469
 1689 0080 4FF4C870 		mov	r0, #400
 1690              	.LVL180:
 282:lvgl/lvgl/src/core/lv_obj_scroll.c ****             lv_anim_set_time(&a, t);
 1691              		.loc 1 282 44 view .LVU470
 1692 0084 2AE0     		b	.L93
 1693              	.L101:
 282:lvgl/lvgl/src/core/lv_obj_scroll.c ****             lv_anim_set_time(&a, t);
 1694              		.loc 1 282 44 view .LVU471
 1695              	.LBE123:
 1696              	.LBB132:
 264:lvgl/lvgl/src/core/lv_obj_scroll.c ****             if(t < SCROLL_ANIM_TIME_MIN) t = SCROLL_ANIM_TIME_MIN;
 1697              		.loc 1 264 13 is_stmt 1 view .LVU472
 264:lvgl/lvgl/src/core/lv_obj_scroll.c ****             if(t < SCROLL_ANIM_TIME_MIN) t = SCROLL_ANIM_TIME_MIN;
 1698              		.loc 1 264 49 is_stmt 0 view .LVU473
 1699 0086 3046     		mov	r0, r6
 1700 0088 FFF7FEFF 		bl	lv_disp_get_hor_res
 1701              	.LVL181:
 264:lvgl/lvgl/src/core/lv_obj_scroll.c ****             if(t < SCROLL_ANIM_TIME_MIN) t = SCROLL_ANIM_TIME_MIN;
 1702              		.loc 1 264 26 view .LVU474
 1703 008c 3A46     		mov	r2, r7
 1704 008e 0021     		movs	r1, #0
 1705 0090 40F35D00 		sbfx	r0, r0, #1, #30
 1706 0094 FFF7FEFF 		bl	lv_anim_speed_to_time
 1707              	.LVL182:
 265:lvgl/lvgl/src/core/lv_obj_scroll.c ****             if(t > SCROLL_ANIM_TIME_MAX) t = SCROLL_ANIM_TIME_MAX;
 1708              		.loc 1 265 13 is_stmt 1 view .LVU475
 265:lvgl/lvgl/src/core/lv_obj_scroll.c ****             if(t > SCROLL_ANIM_TIME_MAX) t = SCROLL_ANIM_TIME_MAX;
 1709              		.loc 1 265 15 is_stmt 0 view .LVU476
 1710 0098 C728     		cmp	r0, #199
 1711 009a 05D9     		bls	.L95
 266:lvgl/lvgl/src/core/lv_obj_scroll.c ****             lv_anim_set_time(&a, t);
 1712              		.loc 1 266 13 is_stmt 1 view .LVU477
 266:lvgl/lvgl/src/core/lv_obj_scroll.c ****             lv_anim_set_time(&a, t);
 1713              		.loc 1 266 15 is_stmt 0 view .LVU478
 1714 009c B0F5C87F 		cmp	r0, #400
 1715 00a0 03D9     		bls	.L90
 266:lvgl/lvgl/src/core/lv_obj_scroll.c ****             lv_anim_set_time(&a, t);
 1716              		.loc 1 266 44 view .LVU479
 1717 00a2 4FF4C870 		mov	r0, #400
 1718              	.LVL183:
 266:lvgl/lvgl/src/core/lv_obj_scroll.c ****             lv_anim_set_time(&a, t);
 1719              		.loc 1 266 44 view .LVU480
 1720 00a6 00E0     		b	.L90
 1721              	.LVL184:
 1722              	.L95:
 265:lvgl/lvgl/src/core/lv_obj_scroll.c ****             if(t > SCROLL_ANIM_TIME_MAX) t = SCROLL_ANIM_TIME_MAX;
 1723              		.loc 1 265 44 view .LVU481
ARM GAS  C:\Users\gx\AppData\Local\Temp\ccHlQRWF.s 			page 58


 1724 00a8 C820     		movs	r0, #200
 1725              	.LVL185:
 1726              	.L90:
 267:lvgl/lvgl/src/core/lv_obj_scroll.c ****             lv_coord_t sx = lv_obj_get_scroll_x(obj);
 1727              		.loc 1 267 13 is_stmt 1 view .LVU482
 1728              	.LBB133:
 1729              	.LBI133:
 141:lvgl/lvgl/src/core/../misc/lv_anim.h **** {
 1730              		.loc 3 141 20 view .LVU483
 1731              	.LBB134:
 143:lvgl/lvgl/src/core/../misc/lv_anim.h **** }
 1732              		.loc 3 143 5 view .LVU484
 143:lvgl/lvgl/src/core/../misc/lv_anim.h **** }
 1733              		.loc 3 143 13 is_stmt 0 view .LVU485
 1734 00aa 0B90     		str	r0, [sp, #44]
 1735              	.LVL186:
 143:lvgl/lvgl/src/core/../misc/lv_anim.h **** }
 1736              		.loc 3 143 13 view .LVU486
 1737              	.LBE134:
 1738              	.LBE133:
 268:lvgl/lvgl/src/core/lv_obj_scroll.c ****             lv_anim_set_values(&a, -sx, -sx + x);
 1739              		.loc 1 268 13 is_stmt 1 view .LVU487
 268:lvgl/lvgl/src/core/lv_obj_scroll.c ****             lv_anim_set_values(&a, -sx, -sx + x);
 1740              		.loc 1 268 29 is_stmt 0 view .LVU488
 1741 00ac 2046     		mov	r0, r4
 1742              	.LVL187:
 268:lvgl/lvgl/src/core/lv_obj_scroll.c ****             lv_anim_set_values(&a, -sx, -sx + x);
 1743              		.loc 1 268 29 view .LVU489
 1744 00ae FFF7FEFF 		bl	lv_obj_get_scroll_x
 1745              	.LVL188:
 269:lvgl/lvgl/src/core/lv_obj_scroll.c ****             lv_anim_set_exec_cb(&a, scroll_x_anim);
 1746              		.loc 1 269 13 is_stmt 1 view .LVU490
 269:lvgl/lvgl/src/core/lv_obj_scroll.c ****             lv_anim_set_exec_cb(&a, scroll_x_anim);
 1747              		.loc 1 269 36 is_stmt 0 view .LVU491
 1748 00b2 4342     		rsbs	r3, r0, #0
 269:lvgl/lvgl/src/core/lv_obj_scroll.c ****             lv_anim_set_exec_cb(&a, scroll_x_anim);
 1749              		.loc 1 269 45 view .LVU492
 1750 00b4 381A     		subs	r0, r7, r0
 1751              	.LVL189:
 1752              	.LBB135:
 1753              	.LBI135:
 162:lvgl/lvgl/src/core/../misc/lv_anim.h **** {
 1754              		.loc 3 162 20 is_stmt 1 view .LVU493
 1755              	.LBB136:
 164:lvgl/lvgl/src/core/../misc/lv_anim.h ****     a->current_value = start;
 1756              		.loc 3 164 5 view .LVU494
 164:lvgl/lvgl/src/core/../misc/lv_anim.h ****     a->current_value = start;
 1757              		.loc 3 164 20 is_stmt 0 view .LVU495
 1758 00b6 0893     		str	r3, [sp, #32]
 165:lvgl/lvgl/src/core/../misc/lv_anim.h ****     a->end_value = end;
 1759              		.loc 3 165 5 is_stmt 1 view .LVU496
 165:lvgl/lvgl/src/core/../misc/lv_anim.h ****     a->end_value = end;
 1760              		.loc 3 165 22 is_stmt 0 view .LVU497
 1761 00b8 0993     		str	r3, [sp, #36]
 166:lvgl/lvgl/src/core/../misc/lv_anim.h **** }
 1762              		.loc 3 166 5 is_stmt 1 view .LVU498
 166:lvgl/lvgl/src/core/../misc/lv_anim.h **** }
ARM GAS  C:\Users\gx\AppData\Local\Temp\ccHlQRWF.s 			page 59


 1763              		.loc 3 166 18 is_stmt 0 view .LVU499
 1764 00ba 0A90     		str	r0, [sp, #40]
 1765              	.LVL190:
 166:lvgl/lvgl/src/core/../misc/lv_anim.h **** }
 1766              		.loc 3 166 18 view .LVU500
 1767              	.LBE136:
 1768              	.LBE135:
 270:lvgl/lvgl/src/core/lv_obj_scroll.c ****             lv_anim_set_path_cb(&a, lv_anim_path_ease_out);
 1769              		.loc 1 270 13 is_stmt 1 view .LVU501
 1770              	.LBB137:
 1771              	.LBI137:
 131:lvgl/lvgl/src/core/../misc/lv_anim.h **** {
 1772              		.loc 3 131 20 view .LVU502
 1773              	.LBB138:
 133:lvgl/lvgl/src/core/../misc/lv_anim.h **** }
 1774              		.loc 3 133 5 view .LVU503
 133:lvgl/lvgl/src/core/../misc/lv_anim.h **** }
 1775              		.loc 3 133 16 is_stmt 0 view .LVU504
 1776 00bc 144B     		ldr	r3, .L102+4
 1777 00be 0293     		str	r3, [sp, #8]
 1778              	.LVL191:
 133:lvgl/lvgl/src/core/../misc/lv_anim.h **** }
 1779              		.loc 3 133 16 view .LVU505
 1780              	.LBE138:
 1781              	.LBE137:
 271:lvgl/lvgl/src/core/lv_obj_scroll.c **** 
 1782              		.loc 1 271 13 is_stmt 1 view .LVU506
 1783              	.LBB139:
 1784              	.LBI139:
 189:lvgl/lvgl/src/core/../misc/lv_anim.h **** {
 1785              		.loc 3 189 20 view .LVU507
 1786              	.LBB140:
 191:lvgl/lvgl/src/core/../misc/lv_anim.h **** }
 1787              		.loc 3 191 5 view .LVU508
 191:lvgl/lvgl/src/core/../misc/lv_anim.h **** }
 1788              		.loc 3 191 16 is_stmt 0 view .LVU509
 1789 00c0 154B     		ldr	r3, .L102+12
 1790 00c2 0793     		str	r3, [sp, #28]
 1791              	.LVL192:
 191:lvgl/lvgl/src/core/../misc/lv_anim.h **** }
 1792              		.loc 3 191 16 view .LVU510
 1793              	.LBE140:
 1794              	.LBE139:
 273:lvgl/lvgl/src/core/lv_obj_scroll.c ****             res = lv_event_send(obj, LV_EVENT_SCROLL_BEGIN, &a);
 1795              		.loc 1 273 13 is_stmt 1 view .LVU511
 274:lvgl/lvgl/src/core/lv_obj_scroll.c ****             if(res != LV_RES_OK) return;
 1796              		.loc 1 274 13 view .LVU512
 274:lvgl/lvgl/src/core/lv_obj_scroll.c ****             if(res != LV_RES_OK) return;
 1797              		.loc 1 274 19 is_stmt 0 view .LVU513
 1798 00c4 01AA     		add	r2, sp, #4
 1799 00c6 0921     		movs	r1, #9
 1800 00c8 2046     		mov	r0, r4
 1801 00ca FFF7FEFF 		bl	lv_event_send
 1802              	.LVL193:
 275:lvgl/lvgl/src/core/lv_obj_scroll.c ****             lv_anim_start(&a);
 1803              		.loc 1 275 13 is_stmt 1 view .LVU514
 275:lvgl/lvgl/src/core/lv_obj_scroll.c ****             lv_anim_start(&a);
ARM GAS  C:\Users\gx\AppData\Local\Temp\ccHlQRWF.s 			page 60


 1804              		.loc 1 275 15 is_stmt 0 view .LVU515
 1805 00ce 0128     		cmp	r0, #1
 1806 00d0 B8D1     		bne	.L85
 276:lvgl/lvgl/src/core/lv_obj_scroll.c ****         }
 1807              		.loc 1 276 13 is_stmt 1 view .LVU516
 1808 00d2 01A8     		add	r0, sp, #4
 1809              	.LVL194:
 276:lvgl/lvgl/src/core/lv_obj_scroll.c ****         }
 1810              		.loc 1 276 13 is_stmt 0 view .LVU517
 1811 00d4 FFF7FEFF 		bl	lv_anim_start
 1812              	.LVL195:
 1813 00d8 C2E7     		b	.L89
 1814              	.LVL196:
 1815              	.L97:
 276:lvgl/lvgl/src/core/lv_obj_scroll.c ****         }
 1816              		.loc 1 276 13 view .LVU518
 1817              	.LBE132:
 1818              	.LBB141:
 281:lvgl/lvgl/src/core/lv_obj_scroll.c ****             if(t > SCROLL_ANIM_TIME_MAX) t = SCROLL_ANIM_TIME_MAX;
 1819              		.loc 1 281 44 view .LVU519
 1820 00da C820     		movs	r0, #200
 1821              	.LVL197:
 1822              	.L93:
 283:lvgl/lvgl/src/core/lv_obj_scroll.c ****             lv_coord_t sy = lv_obj_get_scroll_y(obj);
 1823              		.loc 1 283 13 is_stmt 1 view .LVU520
 1824              	.LBB124:
 1825              	.LBI124:
 141:lvgl/lvgl/src/core/../misc/lv_anim.h **** {
 1826              		.loc 3 141 20 view .LVU521
 1827              	.LBB125:
 143:lvgl/lvgl/src/core/../misc/lv_anim.h **** }
 1828              		.loc 3 143 5 view .LVU522
 143:lvgl/lvgl/src/core/../misc/lv_anim.h **** }
 1829              		.loc 3 143 13 is_stmt 0 view .LVU523
 1830 00dc 0B90     		str	r0, [sp, #44]
 1831              	.LVL198:
 143:lvgl/lvgl/src/core/../misc/lv_anim.h **** }
 1832              		.loc 3 143 13 view .LVU524
 1833              	.LBE125:
 1834              	.LBE124:
 284:lvgl/lvgl/src/core/lv_obj_scroll.c ****             lv_anim_set_values(&a, -sy, -sy + y);
 1835              		.loc 1 284 13 is_stmt 1 view .LVU525
 284:lvgl/lvgl/src/core/lv_obj_scroll.c ****             lv_anim_set_values(&a, -sy, -sy + y);
 1836              		.loc 1 284 29 is_stmt 0 view .LVU526
 1837 00de 2046     		mov	r0, r4
 1838              	.LVL199:
 284:lvgl/lvgl/src/core/lv_obj_scroll.c ****             lv_anim_set_values(&a, -sy, -sy + y);
 1839              		.loc 1 284 29 view .LVU527
 1840 00e0 FFF7FEFF 		bl	lv_obj_get_scroll_y
 1841              	.LVL200:
 285:lvgl/lvgl/src/core/lv_obj_scroll.c ****             lv_anim_set_exec_cb(&a,  scroll_y_anim);
 1842              		.loc 1 285 13 is_stmt 1 view .LVU528
 285:lvgl/lvgl/src/core/lv_obj_scroll.c ****             lv_anim_set_exec_cb(&a,  scroll_y_anim);
 1843              		.loc 1 285 36 is_stmt 0 view .LVU529
 1844 00e4 4342     		rsbs	r3, r0, #0
 285:lvgl/lvgl/src/core/lv_obj_scroll.c ****             lv_anim_set_exec_cb(&a,  scroll_y_anim);
 1845              		.loc 1 285 45 view .LVU530
ARM GAS  C:\Users\gx\AppData\Local\Temp\ccHlQRWF.s 			page 61


 1846 00e6 281A     		subs	r0, r5, r0
 1847              	.LVL201:
 1848              	.LBB126:
 1849              	.LBI126:
 162:lvgl/lvgl/src/core/../misc/lv_anim.h **** {
 1850              		.loc 3 162 20 is_stmt 1 view .LVU531
 1851              	.LBB127:
 164:lvgl/lvgl/src/core/../misc/lv_anim.h ****     a->current_value = start;
 1852              		.loc 3 164 5 view .LVU532
 164:lvgl/lvgl/src/core/../misc/lv_anim.h ****     a->current_value = start;
 1853              		.loc 3 164 20 is_stmt 0 view .LVU533
 1854 00e8 0893     		str	r3, [sp, #32]
 165:lvgl/lvgl/src/core/../misc/lv_anim.h ****     a->end_value = end;
 1855              		.loc 3 165 5 is_stmt 1 view .LVU534
 165:lvgl/lvgl/src/core/../misc/lv_anim.h ****     a->end_value = end;
 1856              		.loc 3 165 22 is_stmt 0 view .LVU535
 1857 00ea 0993     		str	r3, [sp, #36]
 166:lvgl/lvgl/src/core/../misc/lv_anim.h **** }
 1858              		.loc 3 166 5 is_stmt 1 view .LVU536
 166:lvgl/lvgl/src/core/../misc/lv_anim.h **** }
 1859              		.loc 3 166 18 is_stmt 0 view .LVU537
 1860 00ec 0A90     		str	r0, [sp, #40]
 1861              	.LVL202:
 166:lvgl/lvgl/src/core/../misc/lv_anim.h **** }
 1862              		.loc 3 166 18 view .LVU538
 1863              	.LBE127:
 1864              	.LBE126:
 286:lvgl/lvgl/src/core/lv_obj_scroll.c ****             lv_anim_set_path_cb(&a, lv_anim_path_ease_out);
 1865              		.loc 1 286 13 is_stmt 1 view .LVU539
 1866              	.LBB128:
 1867              	.LBI128:
 131:lvgl/lvgl/src/core/../misc/lv_anim.h **** {
 1868              		.loc 3 131 20 view .LVU540
 1869              	.LBB129:
 133:lvgl/lvgl/src/core/../misc/lv_anim.h **** }
 1870              		.loc 3 133 5 view .LVU541
 133:lvgl/lvgl/src/core/../misc/lv_anim.h **** }
 1871              		.loc 3 133 16 is_stmt 0 view .LVU542
 1872 00ee 074B     		ldr	r3, .L102
 1873 00f0 0293     		str	r3, [sp, #8]
 1874              	.LVL203:
 133:lvgl/lvgl/src/core/../misc/lv_anim.h **** }
 1875              		.loc 3 133 16 view .LVU543
 1876              	.LBE129:
 1877              	.LBE128:
 287:lvgl/lvgl/src/core/lv_obj_scroll.c ****             
 1878              		.loc 1 287 13 is_stmt 1 view .LVU544
 1879              	.LBB130:
 1880              	.LBI130:
 189:lvgl/lvgl/src/core/../misc/lv_anim.h **** {
 1881              		.loc 3 189 20 view .LVU545
 1882              	.LBB131:
 191:lvgl/lvgl/src/core/../misc/lv_anim.h **** }
 1883              		.loc 3 191 5 view .LVU546
 191:lvgl/lvgl/src/core/../misc/lv_anim.h **** }
 1884              		.loc 3 191 16 is_stmt 0 view .LVU547
 1885 00f2 094B     		ldr	r3, .L102+12
ARM GAS  C:\Users\gx\AppData\Local\Temp\ccHlQRWF.s 			page 62


 1886 00f4 0793     		str	r3, [sp, #28]
 1887              	.LVL204:
 191:lvgl/lvgl/src/core/../misc/lv_anim.h **** }
 1888              		.loc 3 191 16 view .LVU548
 1889              	.LBE131:
 1890              	.LBE130:
 289:lvgl/lvgl/src/core/lv_obj_scroll.c ****             res = lv_event_send(obj, LV_EVENT_SCROLL_BEGIN, &a);
 1891              		.loc 1 289 13 is_stmt 1 view .LVU549
 290:lvgl/lvgl/src/core/lv_obj_scroll.c ****             if(res != LV_RES_OK) return;
 1892              		.loc 1 290 13 view .LVU550
 290:lvgl/lvgl/src/core/lv_obj_scroll.c ****             if(res != LV_RES_OK) return;
 1893              		.loc 1 290 19 is_stmt 0 view .LVU551
 1894 00f6 01AA     		add	r2, sp, #4
 1895 00f8 0921     		movs	r1, #9
 1896 00fa 2046     		mov	r0, r4
 1897 00fc FFF7FEFF 		bl	lv_event_send
 1898              	.LVL205:
 291:lvgl/lvgl/src/core/lv_obj_scroll.c ****             lv_anim_start(&a);
 1899              		.loc 1 291 13 is_stmt 1 view .LVU552
 291:lvgl/lvgl/src/core/lv_obj_scroll.c ****             lv_anim_start(&a);
 1900              		.loc 1 291 15 is_stmt 0 view .LVU553
 1901 0100 0128     		cmp	r0, #1
 1902 0102 9FD1     		bne	.L85
 292:lvgl/lvgl/src/core/lv_obj_scroll.c ****         }
 1903              		.loc 1 292 13 is_stmt 1 view .LVU554
 1904 0104 01A8     		add	r0, sp, #4
 1905              	.LVL206:
 292:lvgl/lvgl/src/core/lv_obj_scroll.c ****         }
 1906              		.loc 1 292 13 is_stmt 0 view .LVU555
 1907 0106 FFF7FEFF 		bl	lv_anim_start
 1908              	.LVL207:
 1909 010a 9BE7     		b	.L85
 1910              	.L103:
 1911              		.align	2
 1912              	.L102:
 1913 010c 00000000 		.word	scroll_y_anim
 1914 0110 00000000 		.word	scroll_x_anim
 1915 0114 00000000 		.word	scroll_anim_ready_cb
 1916 0118 00000000 		.word	lv_anim_path_ease_out
 1917              	.LBE141:
 1918              	.LBE118:
 1919              		.cfi_endproc
 1920              	.LFE173:
 1922              		.section	.text.scroll_area_into_view,"ax",%progbits
 1923              		.align	1
 1924              		.syntax unified
 1925              		.thumb
 1926              		.thumb_func
 1927              		.fpu fpv4-sp-d16
 1929              	scroll_area_into_view:
 1930              	.LVL208:
 1931              	.LFB188:
 615:lvgl/lvgl/src/core/lv_obj_scroll.c **** 
 616:lvgl/lvgl/src/core/lv_obj_scroll.c **** static void scroll_area_into_view(const lv_area_t * area, lv_obj_t * child, lv_point_t * scroll_val
 617:lvgl/lvgl/src/core/lv_obj_scroll.c **** {
 1932              		.loc 1 617 1 is_stmt 1 view -0
 1933              		.cfi_startproc
ARM GAS  C:\Users\gx\AppData\Local\Temp\ccHlQRWF.s 			page 63


 1934              		@ args = 0, pretend = 0, frame = 24
 1935              		@ frame_needed = 0, uses_anonymous_args = 0
 1936              		.loc 1 617 1 is_stmt 0 view .LVU557
 1937 0000 2DE9F04F 		push	{r4, r5, r6, r7, r8, r9, r10, fp, lr}
 1938              	.LCFI16:
 1939              		.cfi_def_cfa_offset 36
 1940              		.cfi_offset 4, -36
 1941              		.cfi_offset 5, -32
 1942              		.cfi_offset 6, -28
 1943              		.cfi_offset 7, -24
 1944              		.cfi_offset 8, -20
 1945              		.cfi_offset 9, -16
 1946              		.cfi_offset 10, -12
 1947              		.cfi_offset 11, -8
 1948              		.cfi_offset 14, -4
 1949 0004 87B0     		sub	sp, sp, #28
 1950              	.LCFI17:
 1951              		.cfi_def_cfa_offset 64
 1952 0006 8146     		mov	r9, r0
 1953 0008 0C46     		mov	r4, r1
 1954 000a 0391     		str	r1, [sp, #12]
 1955 000c 9046     		mov	r8, r2
 1956 000e 0193     		str	r3, [sp, #4]
 618:lvgl/lvgl/src/core/lv_obj_scroll.c ****     lv_obj_t * parent = lv_obj_get_parent(child);
 1957              		.loc 1 618 5 is_stmt 1 view .LVU558
 1958              		.loc 1 618 25 is_stmt 0 view .LVU559
 1959 0010 0846     		mov	r0, r1
 1960              	.LVL209:
 1961              		.loc 1 618 25 view .LVU560
 1962 0012 FFF7FEFF 		bl	lv_obj_get_parent
 1963              	.LVL210:
 1964              		.loc 1 618 25 view .LVU561
 1965 0016 0546     		mov	r5, r0
 1966              	.LVL211:
 619:lvgl/lvgl/src/core/lv_obj_scroll.c ****     lv_dir_t scroll_dir = lv_obj_get_scroll_dir(parent);
 1967              		.loc 1 619 5 is_stmt 1 view .LVU562
 1968              		.loc 1 619 27 is_stmt 0 view .LVU563
 1969 0018 FFF7FEFF 		bl	lv_obj_get_scroll_dir
 1970              	.LVL212:
 1971              		.loc 1 619 27 view .LVU564
 1972 001c 0090     		str	r0, [sp]
 1973              	.LVL213:
 620:lvgl/lvgl/src/core/lv_obj_scroll.c ****     lv_coord_t snap_goal = 0;
 1974              		.loc 1 620 5 is_stmt 1 view .LVU565
 621:lvgl/lvgl/src/core/lv_obj_scroll.c ****     lv_coord_t act = 0;
 1975              		.loc 1 621 5 view .LVU566
 622:lvgl/lvgl/src/core/lv_obj_scroll.c ****     const lv_area_t * area_tmp;
 1976              		.loc 1 622 5 view .LVU567
 623:lvgl/lvgl/src/core/lv_obj_scroll.c **** 
 624:lvgl/lvgl/src/core/lv_obj_scroll.c ****     lv_coord_t y_scroll = 0;
 1977              		.loc 1 624 5 view .LVU568
 625:lvgl/lvgl/src/core/lv_obj_scroll.c ****     lv_scroll_snap_t snap_y = lv_obj_get_scroll_snap_y(parent);
 1978              		.loc 1 625 5 view .LVU569
 1979              		.loc 1 625 31 is_stmt 0 view .LVU570
 1980 001e 2846     		mov	r0, r5
 1981 0020 FFF7FEFF 		bl	lv_obj_get_scroll_snap_y
 1982              	.LVL214:
ARM GAS  C:\Users\gx\AppData\Local\Temp\ccHlQRWF.s 			page 64


 626:lvgl/lvgl/src/core/lv_obj_scroll.c ****     if(snap_y != LV_SCROLL_SNAP_NONE) area_tmp = &child->coords;
 1983              		.loc 1 626 5 is_stmt 1 view .LVU571
 1984              		.loc 1 626 7 is_stmt 0 view .LVU572
 1985 0024 0290     		str	r0, [sp, #8]
 1986 0026 10B1     		cbz	r0, .L128
 1987              		.loc 1 626 39 is_stmt 1 discriminator 1 view .LVU573
 1988              		.loc 1 626 48 is_stmt 0 discriminator 1 view .LVU574
 1989 0028 04F1140B 		add	fp, r4, #20
 1990              	.LVL215:
 1991              		.loc 1 626 48 discriminator 1 view .LVU575
 1992 002c 00E0     		b	.L105
 1993              	.LVL216:
 1994              	.L128:
 627:lvgl/lvgl/src/core/lv_obj_scroll.c ****     else area_tmp = area;
 1995              		.loc 1 627 19 view .LVU576
 1996 002e CB46     		mov	fp, r9
 1997              	.L105:
 1998              	.LVL217:
 628:lvgl/lvgl/src/core/lv_obj_scroll.c **** 
 629:lvgl/lvgl/src/core/lv_obj_scroll.c ****     lv_coord_t ptop = lv_obj_get_style_pad_top(parent, LV_PART_MAIN);
 1999              		.loc 1 629 5 is_stmt 1 view .LVU577
 2000              	.LBB142:
 2001              	.LBI142:
  91:lvgl/lvgl/src/core/lv_obj_style_gen.h **** {
 2002              		.loc 2 91 26 view .LVU578
 2003              	.LBB143:
  93:lvgl/lvgl/src/core/lv_obj_style_gen.h ****     return (lv_coord_t)v.num;
 2004              		.loc 2 93 5 view .LVU579
  93:lvgl/lvgl/src/core/lv_obj_style_gen.h ****     return (lv_coord_t)v.num;
 2005              		.loc 2 93 26 is_stmt 0 view .LVU580
 2006 0030 41F21002 		movw	r2, #4112
 2007 0034 0021     		movs	r1, #0
 2008 0036 2846     		mov	r0, r5
 2009              	.LVL218:
  93:lvgl/lvgl/src/core/lv_obj_style_gen.h ****     return (lv_coord_t)v.num;
 2010              		.loc 2 93 26 view .LVU581
 2011 0038 FFF7FEFF 		bl	lv_obj_get_style_prop
 2012              	.LVL219:
 2013 003c 0646     		mov	r6, r0
 2014              	.LVL220:
  94:lvgl/lvgl/src/core/lv_obj_style_gen.h **** }
 2015              		.loc 2 94 5 is_stmt 1 view .LVU582
  94:lvgl/lvgl/src/core/lv_obj_style_gen.h **** }
 2016              		.loc 2 94 5 is_stmt 0 view .LVU583
 2017              	.LBE143:
 2018              	.LBE142:
 630:lvgl/lvgl/src/core/lv_obj_scroll.c ****     lv_coord_t pbottom = lv_obj_get_style_pad_bottom(parent, LV_PART_MAIN);
 2019              		.loc 1 630 5 is_stmt 1 view .LVU584
 2020              	.LBB144:
 2021              	.LBI144:
  97:lvgl/lvgl/src/core/lv_obj_style_gen.h **** {
 2022              		.loc 2 97 26 view .LVU585
 2023              	.LBB145:
  99:lvgl/lvgl/src/core/lv_obj_style_gen.h ****     return (lv_coord_t)v.num;
 2024              		.loc 2 99 5 view .LVU586
  99:lvgl/lvgl/src/core/lv_obj_style_gen.h ****     return (lv_coord_t)v.num;
 2025              		.loc 2 99 26 is_stmt 0 view .LVU587
ARM GAS  C:\Users\gx\AppData\Local\Temp\ccHlQRWF.s 			page 65


 2026 003e 41F21102 		movw	r2, #4113
 2027 0042 0021     		movs	r1, #0
 2028 0044 2846     		mov	r0, r5
 2029 0046 FFF7FEFF 		bl	lv_obj_get_style_prop
 2030              	.LVL221:
 100:lvgl/lvgl/src/core/lv_obj_style_gen.h **** }
 2031              		.loc 2 100 5 is_stmt 1 view .LVU588
 100:lvgl/lvgl/src/core/lv_obj_style_gen.h **** }
 2032              		.loc 2 100 5 is_stmt 0 view .LVU589
 2033              	.LBE145:
 2034              	.LBE144:
 631:lvgl/lvgl/src/core/lv_obj_scroll.c ****     lv_coord_t top_diff = parent->coords.y1 + ptop - area_tmp->y1 - scroll_value->y;
 2035              		.loc 1 631 5 is_stmt 1 view .LVU590
 2036              		.loc 1 631 41 is_stmt 0 view .LVU591
 2037 004a EC8A     		ldrh	r4, [r5, #22]
 2038              	.LVL222:
 2039              		.loc 1 631 45 view .LVU592
 2040 004c B6B2     		uxth	r6, r6
 2041              		.loc 1 631 45 view .LVU593
 2042 004e 3444     		add	r4, r4, r6
 2043 0050 A4B2     		uxth	r4, r4
 2044              		.loc 1 631 62 view .LVU594
 2045 0052 BBF80230 		ldrh	r3, [fp, #2]
 2046              		.loc 1 631 52 view .LVU595
 2047 0056 E41A     		subs	r4, r4, r3
 2048 0058 A4B2     		uxth	r4, r4
 2049              		.loc 1 631 81 view .LVU596
 2050 005a B8F80270 		ldrh	r7, [r8, #2]
 2051              		.loc 1 631 67 view .LVU597
 2052 005e E41B     		subs	r4, r4, r7
 2053              		.loc 1 631 16 view .LVU598
 2054 0060 24B2     		sxth	r4, r4
 2055              	.LVL223:
 632:lvgl/lvgl/src/core/lv_obj_scroll.c ****     lv_coord_t bottom_diff = -(parent->coords.y2 - pbottom - area_tmp->y2 - scroll_value->y);
 2056              		.loc 1 632 5 is_stmt 1 view .LVU599
 2057              		.loc 1 632 70 is_stmt 0 view .LVU600
 2058 0062 BBF80630 		ldrh	r3, [fp, #6]
 2059              		.loc 1 632 30 view .LVU601
 2060 0066 1FFA80FA 		uxth	r10, r0
 2061              		.loc 1 632 46 view .LVU602
 2062 006a 6A8B     		ldrh	r2, [r5, #26]
 2063              		.loc 1 632 30 view .LVU603
 2064 006c AAEB0202 		sub	r2, r10, r2
 2065 0070 1344     		add	r3, r3, r2
 2066 0072 1F44     		add	r7, r7, r3
 2067 0074 BBB2     		uxth	r3, r7
 2068 0076 0593     		str	r3, [sp, #20]
 2069              		.loc 1 632 16 view .LVU604
 2070 0078 3FB2     		sxth	r7, r7
 2071              	.LVL224:
 633:lvgl/lvgl/src/core/lv_obj_scroll.c ****     lv_coord_t parent_h = lv_obj_get_height(parent) - ptop - pbottom;
 2072              		.loc 1 633 5 is_stmt 1 view .LVU605
 2073              		.loc 1 633 27 is_stmt 0 view .LVU606
 2074 007a 2846     		mov	r0, r5
 2075              	.LVL225:
 2076              		.loc 1 633 27 view .LVU607
 2077 007c FFF7FEFF 		bl	lv_obj_get_height
ARM GAS  C:\Users\gx\AppData\Local\Temp\ccHlQRWF.s 			page 66


 2078              	.LVL226:
 2079 0080 83B2     		uxth	r3, r0
 2080              		.loc 1 633 53 view .LVU608
 2081 0082 9B1B     		subs	r3, r3, r6
 2082 0084 9BB2     		uxth	r3, r3
 2083              		.loc 1 633 60 view .LVU609
 2084 0086 A3EB0A03 		sub	r3, r3, r10
 2085              		.loc 1 633 16 view .LVU610
 2086 008a 1BB2     		sxth	r3, r3
 2087 008c 0493     		str	r3, [sp, #16]
 2088              	.LVL227:
 634:lvgl/lvgl/src/core/lv_obj_scroll.c ****     if((top_diff > 0 && bottom_diff > 0)) y_scroll = 0;
 2089              		.loc 1 634 5 is_stmt 1 view .LVU611
 2090              		.loc 1 634 7 is_stmt 0 view .LVU612
 2091 008e 002C     		cmp	r4, #0
 2092 0090 40F3A180 		ble	.L106
 2093              		.loc 1 634 22 discriminator 1 view .LVU613
 2094 0094 002F     		cmp	r7, #0
 2095 0096 40F39E80 		ble	.L106
 2096              		.loc 1 634 52 view .LVU614
 2097 009a 0024     		movs	r4, #0
 2098              	.LVL228:
 2099              	.L107:
 635:lvgl/lvgl/src/core/lv_obj_scroll.c ****     else if(top_diff > 0) {
 636:lvgl/lvgl/src/core/lv_obj_scroll.c ****         y_scroll = top_diff;
 637:lvgl/lvgl/src/core/lv_obj_scroll.c ****         /*Do not let scrolling in*/
 638:lvgl/lvgl/src/core/lv_obj_scroll.c ****         lv_coord_t st = lv_obj_get_scroll_top(parent);
 639:lvgl/lvgl/src/core/lv_obj_scroll.c ****         if(st - y_scroll < 0) y_scroll = 0;
 640:lvgl/lvgl/src/core/lv_obj_scroll.c ****     }
 641:lvgl/lvgl/src/core/lv_obj_scroll.c ****     else if(bottom_diff > 0) {
 642:lvgl/lvgl/src/core/lv_obj_scroll.c ****         y_scroll = -bottom_diff;
 643:lvgl/lvgl/src/core/lv_obj_scroll.c ****         /*Do not let scrolling in*/
 644:lvgl/lvgl/src/core/lv_obj_scroll.c ****         lv_coord_t sb = lv_obj_get_scroll_bottom(parent);
 645:lvgl/lvgl/src/core/lv_obj_scroll.c ****         if(sb + y_scroll < 0) y_scroll = 0;
 646:lvgl/lvgl/src/core/lv_obj_scroll.c ****     }
 647:lvgl/lvgl/src/core/lv_obj_scroll.c **** 
 648:lvgl/lvgl/src/core/lv_obj_scroll.c ****     switch(snap_y) {
 2100              		.loc 1 648 5 is_stmt 1 view .LVU615
 2101 009c 029B     		ldr	r3, [sp, #8]
 2102 009e 022B     		cmp	r3, #2
 2103 00a0 00F0C080 		beq	.L109
 2104 00a4 032B     		cmp	r3, #3
 2105 00a6 00F0CD80 		beq	.L110
 2106 00aa 012B     		cmp	r3, #1
 2107 00ac 00F0AD80 		beq	.L144
 2108              	.LVL229:
 2109              	.L111:
 649:lvgl/lvgl/src/core/lv_obj_scroll.c ****     case LV_SCROLL_SNAP_START:
 650:lvgl/lvgl/src/core/lv_obj_scroll.c ****         snap_goal = parent->coords.y1 + ptop;
 651:lvgl/lvgl/src/core/lv_obj_scroll.c ****         act = area_tmp->y1 + y_scroll;
 652:lvgl/lvgl/src/core/lv_obj_scroll.c ****         y_scroll += snap_goal - act;
 653:lvgl/lvgl/src/core/lv_obj_scroll.c ****         break;
 654:lvgl/lvgl/src/core/lv_obj_scroll.c ****     case LV_SCROLL_SNAP_END:
 655:lvgl/lvgl/src/core/lv_obj_scroll.c ****         snap_goal = parent->coords.y2 - pbottom;
 656:lvgl/lvgl/src/core/lv_obj_scroll.c ****         act = area_tmp->y2 + y_scroll;
 657:lvgl/lvgl/src/core/lv_obj_scroll.c ****         y_scroll += snap_goal - act;
 658:lvgl/lvgl/src/core/lv_obj_scroll.c ****         break;
ARM GAS  C:\Users\gx\AppData\Local\Temp\ccHlQRWF.s 			page 67


 659:lvgl/lvgl/src/core/lv_obj_scroll.c ****     case LV_SCROLL_SNAP_CENTER:
 660:lvgl/lvgl/src/core/lv_obj_scroll.c ****         snap_goal = parent->coords.y1 + ptop + parent_h / 2;
 661:lvgl/lvgl/src/core/lv_obj_scroll.c ****         act = lv_area_get_height(area_tmp) / 2 + area_tmp->y1 + y_scroll;
 662:lvgl/lvgl/src/core/lv_obj_scroll.c ****         y_scroll += snap_goal - act;
 663:lvgl/lvgl/src/core/lv_obj_scroll.c ****         break;
 664:lvgl/lvgl/src/core/lv_obj_scroll.c ****     }
 665:lvgl/lvgl/src/core/lv_obj_scroll.c **** 
 666:lvgl/lvgl/src/core/lv_obj_scroll.c ****     lv_coord_t x_scroll = 0;
 2110              		.loc 1 666 5 view .LVU616
 667:lvgl/lvgl/src/core/lv_obj_scroll.c ****     lv_scroll_snap_t snap_x = lv_obj_get_scroll_snap_x(parent);
 2111              		.loc 1 667 5 view .LVU617
 2112              		.loc 1 667 31 is_stmt 0 view .LVU618
 2113 00b0 2846     		mov	r0, r5
 2114 00b2 FFF7FEFF 		bl	lv_obj_get_scroll_snap_x
 2115              	.LVL230:
 668:lvgl/lvgl/src/core/lv_obj_scroll.c ****     if(snap_x != LV_SCROLL_SNAP_NONE) area_tmp = &child->coords;
 2116              		.loc 1 668 5 is_stmt 1 view .LVU619
 2117              		.loc 1 668 7 is_stmt 0 view .LVU620
 2118 00b6 8346     		mov	fp, r0
 2119              	.LVL231:
 2120              		.loc 1 668 7 view .LVU621
 2121 00b8 10B1     		cbz	r0, .L112
 2122              		.loc 1 668 39 is_stmt 1 discriminator 1 view .LVU622
 2123              		.loc 1 668 48 is_stmt 0 discriminator 1 view .LVU623
 2124 00ba 039B     		ldr	r3, [sp, #12]
 2125 00bc 03F11409 		add	r9, r3, #20
 2126              	.LVL232:
 2127              	.L112:
 669:lvgl/lvgl/src/core/lv_obj_scroll.c ****     else area_tmp = area;
 670:lvgl/lvgl/src/core/lv_obj_scroll.c **** 
 671:lvgl/lvgl/src/core/lv_obj_scroll.c ****     lv_coord_t pleft = lv_obj_get_style_pad_left(parent, LV_PART_MAIN);
 2128              		.loc 1 671 5 is_stmt 1 view .LVU624
 2129              	.LBB146:
 2130              	.LBI146:
 103:lvgl/lvgl/src/core/lv_obj_style_gen.h **** {
 2131              		.loc 2 103 26 view .LVU625
 2132              	.LBB147:
 105:lvgl/lvgl/src/core/lv_obj_style_gen.h ****     return (lv_coord_t)v.num;
 2133              		.loc 2 105 5 view .LVU626
 105:lvgl/lvgl/src/core/lv_obj_style_gen.h ****     return (lv_coord_t)v.num;
 2134              		.loc 2 105 26 is_stmt 0 view .LVU627
 2135 00c0 41F21202 		movw	r2, #4114
 2136 00c4 0021     		movs	r1, #0
 2137 00c6 2846     		mov	r0, r5
 2138              	.LVL233:
 105:lvgl/lvgl/src/core/lv_obj_style_gen.h ****     return (lv_coord_t)v.num;
 2139              		.loc 2 105 26 view .LVU628
 2140 00c8 FFF7FEFF 		bl	lv_obj_get_style_prop
 2141              	.LVL234:
 2142 00cc 0746     		mov	r7, r0
 2143              	.LVL235:
 106:lvgl/lvgl/src/core/lv_obj_style_gen.h **** }
 2144              		.loc 2 106 5 is_stmt 1 view .LVU629
 106:lvgl/lvgl/src/core/lv_obj_style_gen.h **** }
 2145              		.loc 2 106 5 is_stmt 0 view .LVU630
 2146              	.LBE147:
 2147              	.LBE146:
ARM GAS  C:\Users\gx\AppData\Local\Temp\ccHlQRWF.s 			page 68


 672:lvgl/lvgl/src/core/lv_obj_scroll.c ****     lv_coord_t pright = lv_obj_get_style_pad_right(parent, LV_PART_MAIN);
 2148              		.loc 1 672 5 is_stmt 1 view .LVU631
 2149              	.LBB148:
 2150              	.LBI148:
 109:lvgl/lvgl/src/core/lv_obj_style_gen.h **** {
 2151              		.loc 2 109 26 view .LVU632
 2152              	.LBB149:
 111:lvgl/lvgl/src/core/lv_obj_style_gen.h ****     return (lv_coord_t)v.num;
 2153              		.loc 2 111 5 view .LVU633
 111:lvgl/lvgl/src/core/lv_obj_style_gen.h ****     return (lv_coord_t)v.num;
 2154              		.loc 2 111 26 is_stmt 0 view .LVU634
 2155 00ce 41F21302 		movw	r2, #4115
 2156 00d2 0021     		movs	r1, #0
 2157 00d4 2846     		mov	r0, r5
 2158 00d6 FFF7FEFF 		bl	lv_obj_get_style_prop
 2159              	.LVL236:
 112:lvgl/lvgl/src/core/lv_obj_style_gen.h **** }
 2160              		.loc 2 112 5 is_stmt 1 view .LVU635
 112:lvgl/lvgl/src/core/lv_obj_style_gen.h **** }
 2161              		.loc 2 112 5 is_stmt 0 view .LVU636
 2162              	.LBE149:
 2163              	.LBE148:
 673:lvgl/lvgl/src/core/lv_obj_scroll.c ****     lv_coord_t left_diff = parent->coords.x1 + pleft - area_tmp->x1 - scroll_value->x;
 2164              		.loc 1 673 5 is_stmt 1 view .LVU637
 2165              		.loc 1 673 42 is_stmt 0 view .LVU638
 2166 00da AE8A     		ldrh	r6, [r5, #20]
 2167              		.loc 1 673 46 view .LVU639
 2168 00dc BFB2     		uxth	r7, r7
 2169              		.loc 1 673 46 view .LVU640
 2170 00de 3E44     		add	r6, r6, r7
 2171 00e0 B6B2     		uxth	r6, r6
 2172              		.loc 1 673 64 view .LVU641
 2173 00e2 B9F80030 		ldrh	r3, [r9]
 2174              		.loc 1 673 54 view .LVU642
 2175 00e6 F61A     		subs	r6, r6, r3
 2176 00e8 B6B2     		uxth	r6, r6
 2177              		.loc 1 673 83 view .LVU643
 2178 00ea B8F80030 		ldrh	r3, [r8]
 2179              		.loc 1 673 69 view .LVU644
 2180 00ee F61A     		subs	r6, r6, r3
 2181              		.loc 1 673 16 view .LVU645
 2182 00f0 36B2     		sxth	r6, r6
 2183              	.LVL237:
 674:lvgl/lvgl/src/core/lv_obj_scroll.c ****     lv_coord_t right_diff = -(parent->coords.x2 - pright - area_tmp->x2- scroll_value->x);
 2184              		.loc 1 674 5 is_stmt 1 view .LVU646
 2185              		.loc 1 674 68 is_stmt 0 view .LVU647
 2186 00f2 B9F80420 		ldrh	r2, [r9, #4]
 2187              		.loc 1 674 29 view .LVU648
 2188 00f6 1FFA80FA 		uxth	r10, r0
 2189              		.loc 1 674 45 view .LVU649
 2190 00fa 298B     		ldrh	r1, [r5, #24]
 2191              		.loc 1 674 29 view .LVU650
 2192 00fc AAEB0101 		sub	r1, r10, r1
 2193 0100 0A44     		add	r2, r2, r1
 2194 0102 1344     		add	r3, r3, r2
 2195 0104 9AB2     		uxth	r2, r3
 2196              		.loc 1 674 16 view .LVU651
ARM GAS  C:\Users\gx\AppData\Local\Temp\ccHlQRWF.s 			page 69


 2197 0106 1BB2     		sxth	r3, r3
 2198              	.LVL238:
 675:lvgl/lvgl/src/core/lv_obj_scroll.c ****     if((left_diff > 0 && right_diff > 0)) x_scroll = 0;
 2199              		.loc 1 675 5 is_stmt 1 view .LVU652
 2200              		.loc 1 675 7 is_stmt 0 view .LVU653
 2201 0108 002E     		cmp	r6, #0
 2202 010a 40F3BA80 		ble	.L113
 2203              		.loc 1 675 23 discriminator 1 view .LVU654
 2204 010e 002B     		cmp	r3, #0
 2205 0110 40F3B780 		ble	.L113
 2206              		.loc 1 675 52 view .LVU655
 2207 0114 0026     		movs	r6, #0
 2208              	.LVL239:
 2209              	.L114:
 676:lvgl/lvgl/src/core/lv_obj_scroll.c ****     else if(left_diff > 0) {
 677:lvgl/lvgl/src/core/lv_obj_scroll.c ****         x_scroll = left_diff;
 678:lvgl/lvgl/src/core/lv_obj_scroll.c ****         /*Do not let scrolling in*/
 679:lvgl/lvgl/src/core/lv_obj_scroll.c ****         lv_coord_t sl = lv_obj_get_scroll_left(parent);
 680:lvgl/lvgl/src/core/lv_obj_scroll.c ****         if(sl + x_scroll > 0) x_scroll = 0;
 681:lvgl/lvgl/src/core/lv_obj_scroll.c ****     }
 682:lvgl/lvgl/src/core/lv_obj_scroll.c ****     else if(right_diff > 0) {
 683:lvgl/lvgl/src/core/lv_obj_scroll.c ****         x_scroll = -right_diff;
 684:lvgl/lvgl/src/core/lv_obj_scroll.c ****         /*Do not let scrolling in*/
 685:lvgl/lvgl/src/core/lv_obj_scroll.c ****         lv_coord_t sr = lv_obj_get_scroll_right(parent);
 686:lvgl/lvgl/src/core/lv_obj_scroll.c ****         if(sr + x_scroll < 0) x_scroll = 0;
 687:lvgl/lvgl/src/core/lv_obj_scroll.c ****     }
 688:lvgl/lvgl/src/core/lv_obj_scroll.c **** 
 689:lvgl/lvgl/src/core/lv_obj_scroll.c ****     lv_coord_t parent_w = lv_obj_get_width(parent) - pleft - pright;
 2210              		.loc 1 689 5 is_stmt 1 view .LVU656
 2211              		.loc 1 689 27 is_stmt 0 view .LVU657
 2212 0116 2846     		mov	r0, r5
 2213 0118 FFF7FEFF 		bl	lv_obj_get_width
 2214              	.LVL240:
 2215 011c 83B2     		uxth	r3, r0
 2216              		.loc 1 689 52 view .LVU658
 2217 011e DB1B     		subs	r3, r3, r7
 2218 0120 9BB2     		uxth	r3, r3
 2219              		.loc 1 689 60 view .LVU659
 2220 0122 A3EB0A03 		sub	r3, r3, r10
 2221              		.loc 1 689 16 view .LVU660
 2222 0126 1BB2     		sxth	r3, r3
 2223              	.LVL241:
 690:lvgl/lvgl/src/core/lv_obj_scroll.c ****     switch(snap_x) {
 2224              		.loc 1 690 5 is_stmt 1 view .LVU661
 2225 0128 BBF1020F 		cmp	fp, #2
 2226 012c 00F0CF80 		beq	.L116
 2227 0130 BBF1030F 		cmp	fp, #3
 2228 0134 00F0DB80 		beq	.L117
 2229 0138 BBF1010F 		cmp	fp, #1
 2230 013c 00F0BA80 		beq	.L145
 2231              	.LVL242:
 2232              	.L118:
 691:lvgl/lvgl/src/core/lv_obj_scroll.c ****     case LV_SCROLL_SNAP_START:
 692:lvgl/lvgl/src/core/lv_obj_scroll.c ****         snap_goal = parent->coords.x1 + pleft;
 693:lvgl/lvgl/src/core/lv_obj_scroll.c ****         act = area_tmp->x1 + x_scroll;
 694:lvgl/lvgl/src/core/lv_obj_scroll.c ****         x_scroll += snap_goal - act;
 695:lvgl/lvgl/src/core/lv_obj_scroll.c ****         break;
ARM GAS  C:\Users\gx\AppData\Local\Temp\ccHlQRWF.s 			page 70


 696:lvgl/lvgl/src/core/lv_obj_scroll.c ****     case LV_SCROLL_SNAP_END:
 697:lvgl/lvgl/src/core/lv_obj_scroll.c ****         snap_goal = parent->coords.x2 - pright;
 698:lvgl/lvgl/src/core/lv_obj_scroll.c ****         act = area_tmp->x2 + x_scroll;
 699:lvgl/lvgl/src/core/lv_obj_scroll.c ****         x_scroll += snap_goal - act;
 700:lvgl/lvgl/src/core/lv_obj_scroll.c ****         break;
 701:lvgl/lvgl/src/core/lv_obj_scroll.c ****     case LV_SCROLL_SNAP_CENTER:
 702:lvgl/lvgl/src/core/lv_obj_scroll.c ****         snap_goal = parent->coords.x1 + pleft + parent_w / 2;
 703:lvgl/lvgl/src/core/lv_obj_scroll.c ****         act = lv_area_get_width(area_tmp) / 2 + area_tmp->x1 + x_scroll;
 704:lvgl/lvgl/src/core/lv_obj_scroll.c ****         x_scroll += snap_goal - act;
 705:lvgl/lvgl/src/core/lv_obj_scroll.c ****         break;
 706:lvgl/lvgl/src/core/lv_obj_scroll.c ****     }
 707:lvgl/lvgl/src/core/lv_obj_scroll.c **** 
 708:lvgl/lvgl/src/core/lv_obj_scroll.c ****     /*Remove any pending scroll animations.*/
 709:lvgl/lvgl/src/core/lv_obj_scroll.c ****     bool y_del = lv_anim_del(parent, scroll_y_anim);
 2233              		.loc 1 709 5 view .LVU662
 2234              		.loc 1 709 18 is_stmt 0 view .LVU663
 2235 0140 7E49     		ldr	r1, .L151
 2236 0142 2846     		mov	r0, r5
 2237 0144 FFF7FEFF 		bl	lv_anim_del
 2238              	.LVL243:
 2239 0148 0746     		mov	r7, r0
 2240              	.LVL244:
 710:lvgl/lvgl/src/core/lv_obj_scroll.c ****     bool x_del = lv_anim_del(parent, scroll_x_anim);
 2241              		.loc 1 710 5 is_stmt 1 view .LVU664
 2242              		.loc 1 710 18 is_stmt 0 view .LVU665
 2243 014a 7D49     		ldr	r1, .L151+4
 2244 014c 2846     		mov	r0, r5
 2245 014e FFF7FEFF 		bl	lv_anim_del
 2246              	.LVL245:
 711:lvgl/lvgl/src/core/lv_obj_scroll.c ****     if(y_del || x_del) {
 2247              		.loc 1 711 5 is_stmt 1 view .LVU666
 2248              		.loc 1 711 7 is_stmt 0 view .LVU667
 2249 0152 07B9     		cbnz	r7, .L119
 2250              		.loc 1 711 14 discriminator 1 view .LVU668
 2251 0154 30B1     		cbz	r0, .L120
 2252              	.L119:
 2253              	.LBB150:
 712:lvgl/lvgl/src/core/lv_obj_scroll.c ****         lv_res_t res;
 2254              		.loc 1 712 9 is_stmt 1 view .LVU669
 713:lvgl/lvgl/src/core/lv_obj_scroll.c ****         res = lv_event_send(parent, LV_EVENT_SCROLL_END, NULL);
 2255              		.loc 1 713 9 view .LVU670
 2256              		.loc 1 713 15 is_stmt 0 view .LVU671
 2257 0156 0022     		movs	r2, #0
 2258 0158 0A21     		movs	r1, #10
 2259 015a 2846     		mov	r0, r5
 2260              	.LVL246:
 2261              		.loc 1 713 15 view .LVU672
 2262 015c FFF7FEFF 		bl	lv_event_send
 2263              	.LVL247:
 714:lvgl/lvgl/src/core/lv_obj_scroll.c ****         if(res != LV_RES_OK) return;
 2264              		.loc 1 714 9 is_stmt 1 view .LVU673
 2265              		.loc 1 714 11 is_stmt 0 view .LVU674
 2266 0160 0128     		cmp	r0, #1
 2267 0162 35D1     		bne	.L104
 2268              	.LVL248:
 2269              	.L120:
 2270              		.loc 1 714 11 view .LVU675
ARM GAS  C:\Users\gx\AppData\Local\Temp\ccHlQRWF.s 			page 71


 2271              	.LBE150:
 715:lvgl/lvgl/src/core/lv_obj_scroll.c ****     }
 716:lvgl/lvgl/src/core/lv_obj_scroll.c **** 
 717:lvgl/lvgl/src/core/lv_obj_scroll.c ****     if((scroll_dir & LV_DIR_LEFT) == 0 && x_scroll < 0) x_scroll = 0;
 2272              		.loc 1 717 5 is_stmt 1 view .LVU676
 2273              		.loc 1 717 7 is_stmt 0 view .LVU677
 2274 0164 009B     		ldr	r3, [sp]
 2275 0166 13F0010F 		tst	r3, #1
 2276 016a 02D1     		bne	.L122
 2277              		.loc 1 717 40 discriminator 1 view .LVU678
 2278 016c 002E     		cmp	r6, #0
 2279 016e C0F2DC80 		blt	.L146
 2280              	.LVL249:
 2281              	.L122:
 718:lvgl/lvgl/src/core/lv_obj_scroll.c ****     if((scroll_dir & LV_DIR_RIGHT) == 0 && x_scroll > 0) x_scroll = 0;
 2282              		.loc 1 718 5 is_stmt 1 view .LVU679
 2283              		.loc 1 718 7 is_stmt 0 view .LVU680
 2284 0172 009B     		ldr	r3, [sp]
 2285 0174 13F0020F 		tst	r3, #2
 2286 0178 02D1     		bne	.L123
 2287              		.loc 1 718 41 discriminator 1 view .LVU681
 2288 017a 002E     		cmp	r6, #0
 2289 017c 00DD     		ble	.L123
 2290              		.loc 1 718 67 view .LVU682
 2291 017e 0026     		movs	r6, #0
 2292              	.LVL250:
 2293              	.L123:
 719:lvgl/lvgl/src/core/lv_obj_scroll.c ****     if((scroll_dir & LV_DIR_TOP) == 0 && y_scroll < 0) y_scroll = 0;
 2294              		.loc 1 719 5 is_stmt 1 view .LVU683
 2295              		.loc 1 719 7 is_stmt 0 view .LVU684
 2296 0180 009B     		ldr	r3, [sp]
 2297 0182 13F0040F 		tst	r3, #4
 2298 0186 02D1     		bne	.L124
 2299              		.loc 1 719 39 discriminator 1 view .LVU685
 2300 0188 002C     		cmp	r4, #0
 2301 018a C0F2D080 		blt	.L147
 2302              	.LVL251:
 2303              	.L124:
 720:lvgl/lvgl/src/core/lv_obj_scroll.c ****     if((scroll_dir & LV_DIR_BOTTOM) == 0 && y_scroll > 0) y_scroll = 0;
 2304              		.loc 1 720 5 is_stmt 1 view .LVU686
 2305              		.loc 1 720 7 is_stmt 0 view .LVU687
 2306 018e 009B     		ldr	r3, [sp]
 2307 0190 13F0080F 		tst	r3, #8
 2308 0194 02D1     		bne	.L125
 2309              		.loc 1 720 42 discriminator 1 view .LVU688
 2310 0196 002C     		cmp	r4, #0
 2311 0198 00DD     		ble	.L125
 2312              		.loc 1 720 68 view .LVU689
 2313 019a 0024     		movs	r4, #0
 2314              	.LVL252:
 2315              	.L125:
 721:lvgl/lvgl/src/core/lv_obj_scroll.c **** 
 722:lvgl/lvgl/src/core/lv_obj_scroll.c ****     scroll_value->x += anim_en == LV_ANIM_OFF ? 0 : x_scroll;
 2316              		.loc 1 722 5 is_stmt 1 view .LVU690
 2317              		.loc 1 722 21 is_stmt 0 view .LVU691
 2318 019c B8F80030 		ldrh	r3, [r8]
 2319 01a0 019A     		ldr	r2, [sp, #4]
ARM GAS  C:\Users\gx\AppData\Local\Temp\ccHlQRWF.s 			page 72


 2320 01a2 002A     		cmp	r2, #0
 2321 01a4 00F0C580 		beq	.L141
 2322              		.loc 1 722 21 discriminator 1 view .LVU692
 2323 01a8 B2B2     		uxth	r2, r6
 2324              	.L126:
 2325              		.loc 1 722 21 discriminator 4 view .LVU693
 2326 01aa 1344     		add	r3, r3, r2
 2327 01ac A8F80030 		strh	r3, [r8]	@ movhi
 723:lvgl/lvgl/src/core/lv_obj_scroll.c ****     scroll_value->y += anim_en == LV_ANIM_OFF ? 0 : y_scroll;
 2328              		.loc 1 723 5 is_stmt 1 discriminator 4 view .LVU694
 2329              		.loc 1 723 21 is_stmt 0 discriminator 4 view .LVU695
 2330 01b0 B8F80230 		ldrh	r3, [r8, #2]
 2331 01b4 019A     		ldr	r2, [sp, #4]
 2332 01b6 002A     		cmp	r2, #0
 2333 01b8 00F0BD80 		beq	.L142
 2334              		.loc 1 723 21 discriminator 1 view .LVU696
 2335 01bc A2B2     		uxth	r2, r4
 2336              	.L127:
 2337              		.loc 1 723 21 discriminator 4 view .LVU697
 2338 01be 1344     		add	r3, r3, r2
 2339 01c0 A8F80230 		strh	r3, [r8, #2]	@ movhi
 724:lvgl/lvgl/src/core/lv_obj_scroll.c ****     lv_obj_scroll_by(parent, x_scroll, y_scroll, anim_en);
 2340              		.loc 1 724 5 is_stmt 1 discriminator 4 view .LVU698
 2341 01c4 019B     		ldr	r3, [sp, #4]
 2342 01c6 2246     		mov	r2, r4
 2343 01c8 3146     		mov	r1, r6
 2344 01ca 2846     		mov	r0, r5
 2345 01cc FFF7FEFF 		bl	lv_obj_scroll_by
 2346              	.LVL253:
 2347              	.L104:
 725:lvgl/lvgl/src/core/lv_obj_scroll.c **** }
 2348              		.loc 1 725 1 is_stmt 0 view .LVU699
 2349 01d0 07B0     		add	sp, sp, #28
 2350              	.LCFI18:
 2351              		.cfi_remember_state
 2352              		.cfi_def_cfa_offset 36
 2353              	.LVL254:
 2354              		.loc 1 725 1 view .LVU700
 2355              		@ sp needed
 2356 01d2 BDE8F08F 		pop	{r4, r5, r6, r7, r8, r9, r10, fp, pc}
 2357              	.LVL255:
 2358              	.L106:
 2359              	.LCFI19:
 2360              		.cfi_restore_state
 635:lvgl/lvgl/src/core/lv_obj_scroll.c ****         y_scroll = top_diff;
 2361              		.loc 1 635 10 is_stmt 1 view .LVU701
 635:lvgl/lvgl/src/core/lv_obj_scroll.c ****         y_scroll = top_diff;
 2362              		.loc 1 635 12 is_stmt 0 view .LVU702
 2363 01d6 002C     		cmp	r4, #0
 2364 01d8 08DD     		ble	.L108
 2365              	.LBB151:
 636:lvgl/lvgl/src/core/lv_obj_scroll.c ****         /*Do not let scrolling in*/
 2366              		.loc 1 636 9 is_stmt 1 view .LVU703
 2367              	.LVL256:
 638:lvgl/lvgl/src/core/lv_obj_scroll.c ****         if(st - y_scroll < 0) y_scroll = 0;
 2368              		.loc 1 638 9 view .LVU704
 638:lvgl/lvgl/src/core/lv_obj_scroll.c ****         if(st - y_scroll < 0) y_scroll = 0;
ARM GAS  C:\Users\gx\AppData\Local\Temp\ccHlQRWF.s 			page 73


 2369              		.loc 1 638 25 is_stmt 0 view .LVU705
 2370 01da 2846     		mov	r0, r5
 2371 01dc FFF7FEFF 		bl	lv_obj_get_scroll_top
 2372              	.LVL257:
 639:lvgl/lvgl/src/core/lv_obj_scroll.c ****     }
 2373              		.loc 1 639 9 is_stmt 1 view .LVU706
 639:lvgl/lvgl/src/core/lv_obj_scroll.c ****     }
 2374              		.loc 1 639 15 is_stmt 0 view .LVU707
 2375 01e0 001B     		subs	r0, r0, r4
 2376              	.LVL258:
 639:lvgl/lvgl/src/core/lv_obj_scroll.c ****     }
 2377              		.loc 1 639 11 view .LVU708
 2378 01e2 0028     		cmp	r0, #0
 2379 01e4 BFF65AAF 		bge	.L107
 639:lvgl/lvgl/src/core/lv_obj_scroll.c ****     }
 2380              		.loc 1 639 40 view .LVU709
 2381 01e8 0024     		movs	r4, #0
 2382              	.LVL259:
 639:lvgl/lvgl/src/core/lv_obj_scroll.c ****     }
 2383              		.loc 1 639 40 view .LVU710
 2384 01ea 57E7     		b	.L107
 2385              	.LVL260:
 2386              	.L108:
 639:lvgl/lvgl/src/core/lv_obj_scroll.c ****     }
 2387              		.loc 1 639 40 view .LVU711
 2388              	.LBE151:
 641:lvgl/lvgl/src/core/lv_obj_scroll.c ****         y_scroll = -bottom_diff;
 2389              		.loc 1 641 10 is_stmt 1 view .LVU712
 641:lvgl/lvgl/src/core/lv_obj_scroll.c ****         y_scroll = -bottom_diff;
 2390              		.loc 1 641 12 is_stmt 0 view .LVU713
 2391 01ec 002F     		cmp	r7, #0
 2392 01ee 01DC     		bgt	.L148
 624:lvgl/lvgl/src/core/lv_obj_scroll.c ****     lv_scroll_snap_t snap_y = lv_obj_get_scroll_snap_y(parent);
 2393              		.loc 1 624 16 view .LVU714
 2394 01f0 0024     		movs	r4, #0
 2395              	.LVL261:
 624:lvgl/lvgl/src/core/lv_obj_scroll.c ****     lv_scroll_snap_t snap_y = lv_obj_get_scroll_snap_y(parent);
 2396              		.loc 1 624 16 view .LVU715
 2397 01f2 53E7     		b	.L107
 2398              	.LVL262:
 2399              	.L148:
 2400              	.LBB152:
 642:lvgl/lvgl/src/core/lv_obj_scroll.c ****         /*Do not let scrolling in*/
 2401              		.loc 1 642 9 is_stmt 1 view .LVU716
 642:lvgl/lvgl/src/core/lv_obj_scroll.c ****         /*Do not let scrolling in*/
 2402              		.loc 1 642 18 is_stmt 0 view .LVU717
 2403 01f4 059B     		ldr	r3, [sp, #20]
 2404 01f6 5C42     		rsbs	r4, r3, #0
 2405              	.LVL263:
 642:lvgl/lvgl/src/core/lv_obj_scroll.c ****         /*Do not let scrolling in*/
 2406              		.loc 1 642 18 view .LVU718
 2407 01f8 24B2     		sxth	r4, r4
 2408              	.LVL264:
 644:lvgl/lvgl/src/core/lv_obj_scroll.c ****         if(sb + y_scroll < 0) y_scroll = 0;
 2409              		.loc 1 644 9 is_stmt 1 view .LVU719
 644:lvgl/lvgl/src/core/lv_obj_scroll.c ****         if(sb + y_scroll < 0) y_scroll = 0;
 2410              		.loc 1 644 25 is_stmt 0 view .LVU720
ARM GAS  C:\Users\gx\AppData\Local\Temp\ccHlQRWF.s 			page 74


 2411 01fa 2846     		mov	r0, r5
 2412 01fc FFF7FEFF 		bl	lv_obj_get_scroll_bottom
 2413              	.LVL265:
 645:lvgl/lvgl/src/core/lv_obj_scroll.c ****     }
 2414              		.loc 1 645 9 is_stmt 1 view .LVU721
 645:lvgl/lvgl/src/core/lv_obj_scroll.c ****     }
 2415              		.loc 1 645 11 is_stmt 0 view .LVU722
 2416 0200 E042     		cmn	r0, r4
 2417 0202 7FF54BAF 		bpl	.L107
 645:lvgl/lvgl/src/core/lv_obj_scroll.c ****     }
 2418              		.loc 1 645 40 view .LVU723
 2419 0206 0024     		movs	r4, #0
 2420              	.LVL266:
 645:lvgl/lvgl/src/core/lv_obj_scroll.c ****     }
 2421              		.loc 1 645 40 view .LVU724
 2422 0208 48E7     		b	.L107
 2423              	.LVL267:
 2424              	.L144:
 645:lvgl/lvgl/src/core/lv_obj_scroll.c ****     }
 2425              		.loc 1 645 40 view .LVU725
 2426              	.LBE152:
 650:lvgl/lvgl/src/core/lv_obj_scroll.c ****         act = area_tmp->y1 + y_scroll;
 2427              		.loc 1 650 9 is_stmt 1 view .LVU726
 650:lvgl/lvgl/src/core/lv_obj_scroll.c ****         act = area_tmp->y1 + y_scroll;
 2428              		.loc 1 650 35 is_stmt 0 view .LVU727
 2429 020a EB8A     		ldrh	r3, [r5, #22]
 650:lvgl/lvgl/src/core/lv_obj_scroll.c ****         act = area_tmp->y1 + y_scroll;
 2430              		.loc 1 650 39 view .LVU728
 2431 020c 1E44     		add	r6, r6, r3
 2432              	.LVL268:
 650:lvgl/lvgl/src/core/lv_obj_scroll.c ****         act = area_tmp->y1 + y_scroll;
 2433              		.loc 1 650 39 view .LVU729
 2434 020e B6B2     		uxth	r6, r6
 2435              	.LVL269:
 651:lvgl/lvgl/src/core/lv_obj_scroll.c ****         y_scroll += snap_goal - act;
 2436              		.loc 1 651 9 is_stmt 1 view .LVU730
 651:lvgl/lvgl/src/core/lv_obj_scroll.c ****         y_scroll += snap_goal - act;
 2437              		.loc 1 651 23 is_stmt 0 view .LVU731
 2438 0210 BBF80230 		ldrh	r3, [fp, #2]
 651:lvgl/lvgl/src/core/lv_obj_scroll.c ****         y_scroll += snap_goal - act;
 2439              		.loc 1 651 28 view .LVU732
 2440 0214 A2B2     		uxth	r2, r4
 2441 0216 9C18     		adds	r4, r3, r2
 2442              	.LVL270:
 651:lvgl/lvgl/src/core/lv_obj_scroll.c ****         y_scroll += snap_goal - act;
 2443              		.loc 1 651 28 view .LVU733
 2444 0218 A4B2     		uxth	r4, r4
 2445              	.LVL271:
 652:lvgl/lvgl/src/core/lv_obj_scroll.c ****         break;
 2446              		.loc 1 652 9 is_stmt 1 view .LVU734
 652:lvgl/lvgl/src/core/lv_obj_scroll.c ****         break;
 2447              		.loc 1 652 31 is_stmt 0 view .LVU735
 2448 021a 341B     		subs	r4, r6, r4
 2449              	.LVL272:
 652:lvgl/lvgl/src/core/lv_obj_scroll.c ****         break;
 2450              		.loc 1 652 18 view .LVU736
 2451 021c 12FA84F4 		uxtah	r4, r2, r4
ARM GAS  C:\Users\gx\AppData\Local\Temp\ccHlQRWF.s 			page 75


 2452 0220 24B2     		sxth	r4, r4
 2453              	.LVL273:
 653:lvgl/lvgl/src/core/lv_obj_scroll.c ****     case LV_SCROLL_SNAP_END:
 2454              		.loc 1 653 9 is_stmt 1 view .LVU737
 2455 0222 45E7     		b	.L111
 2456              	.LVL274:
 2457              	.L109:
 655:lvgl/lvgl/src/core/lv_obj_scroll.c ****         act = area_tmp->y2 + y_scroll;
 2458              		.loc 1 655 9 view .LVU738
 655:lvgl/lvgl/src/core/lv_obj_scroll.c ****         act = area_tmp->y2 + y_scroll;
 2459              		.loc 1 655 35 is_stmt 0 view .LVU739
 2460 0224 688B     		ldrh	r0, [r5, #26]
 655:lvgl/lvgl/src/core/lv_obj_scroll.c ****         act = area_tmp->y2 + y_scroll;
 2461              		.loc 1 655 39 view .LVU740
 2462 0226 A0EB0A0A 		sub	r10, r0, r10
 2463              	.LVL275:
 655:lvgl/lvgl/src/core/lv_obj_scroll.c ****         act = area_tmp->y2 + y_scroll;
 2464              		.loc 1 655 39 view .LVU741
 2465 022a 1FFA8AFA 		uxth	r10, r10
 2466              	.LVL276:
 656:lvgl/lvgl/src/core/lv_obj_scroll.c ****         y_scroll += snap_goal - act;
 2467              		.loc 1 656 9 is_stmt 1 view .LVU742
 656:lvgl/lvgl/src/core/lv_obj_scroll.c ****         y_scroll += snap_goal - act;
 2468              		.loc 1 656 23 is_stmt 0 view .LVU743
 2469 022e BBF80630 		ldrh	r3, [fp, #6]
 656:lvgl/lvgl/src/core/lv_obj_scroll.c ****         y_scroll += snap_goal - act;
 2470              		.loc 1 656 28 view .LVU744
 2471 0232 A2B2     		uxth	r2, r4
 2472 0234 9C18     		adds	r4, r3, r2
 2473              	.LVL277:
 656:lvgl/lvgl/src/core/lv_obj_scroll.c ****         y_scroll += snap_goal - act;
 2474              		.loc 1 656 28 view .LVU745
 2475 0236 A4B2     		uxth	r4, r4
 2476              	.LVL278:
 657:lvgl/lvgl/src/core/lv_obj_scroll.c ****         break;
 2477              		.loc 1 657 9 is_stmt 1 view .LVU746
 657:lvgl/lvgl/src/core/lv_obj_scroll.c ****         break;
 2478              		.loc 1 657 31 is_stmt 0 view .LVU747
 2479 0238 AAEB0404 		sub	r4, r10, r4
 2480              	.LVL279:
 657:lvgl/lvgl/src/core/lv_obj_scroll.c ****         break;
 2481              		.loc 1 657 18 view .LVU748
 2482 023c 12FA84F4 		uxtah	r4, r2, r4
 2483 0240 24B2     		sxth	r4, r4
 2484              	.LVL280:
 658:lvgl/lvgl/src/core/lv_obj_scroll.c ****     case LV_SCROLL_SNAP_CENTER:
 2485              		.loc 1 658 9 is_stmt 1 view .LVU749
 2486 0242 35E7     		b	.L111
 2487              	.LVL281:
 2488              	.L110:
 660:lvgl/lvgl/src/core/lv_obj_scroll.c ****         act = lv_area_get_height(area_tmp) / 2 + area_tmp->y1 + y_scroll;
 2489              		.loc 1 660 9 view .LVU750
 660:lvgl/lvgl/src/core/lv_obj_scroll.c ****         act = lv_area_get_height(area_tmp) / 2 + area_tmp->y1 + y_scroll;
 2490              		.loc 1 660 35 is_stmt 0 view .LVU751
 2491 0244 EB8A     		ldrh	r3, [r5, #22]
 660:lvgl/lvgl/src/core/lv_obj_scroll.c ****         act = lv_area_get_height(area_tmp) / 2 + area_tmp->y1 + y_scroll;
 2492              		.loc 1 660 39 view .LVU752
ARM GAS  C:\Users\gx\AppData\Local\Temp\ccHlQRWF.s 			page 76


 2493 0246 1E44     		add	r6, r6, r3
 2494              	.LVL282:
 660:lvgl/lvgl/src/core/lv_obj_scroll.c ****         act = lv_area_get_height(area_tmp) / 2 + area_tmp->y1 + y_scroll;
 2495              		.loc 1 660 46 view .LVU753
 2496 0248 049B     		ldr	r3, [sp, #16]
 2497 024a 03EBD373 		add	r3, r3, r3, lsr #31
 2498 024e 5B10     		asrs	r3, r3, #1
 2499 0250 13FA86F6 		uxtah	r6, r3, r6
 2500 0254 B6B2     		uxth	r6, r6
 2501              	.LVL283:
 661:lvgl/lvgl/src/core/lv_obj_scroll.c ****         y_scroll += snap_goal - act;
 2502              		.loc 1 661 9 is_stmt 1 view .LVU754
 2503              	.LBB153:
 2504              	.LBI153:
 2505              		.file 4 "lvgl/lvgl/src/core/../misc/lv_area.h"
   1:lvgl/lvgl/src/core/../misc/lv_area.h **** /**
   2:lvgl/lvgl/src/core/../misc/lv_area.h ****  * @file lv_area.h
   3:lvgl/lvgl/src/core/../misc/lv_area.h ****  *
   4:lvgl/lvgl/src/core/../misc/lv_area.h ****  */
   5:lvgl/lvgl/src/core/../misc/lv_area.h **** 
   6:lvgl/lvgl/src/core/../misc/lv_area.h **** #ifndef LV_AREA_H
   7:lvgl/lvgl/src/core/../misc/lv_area.h **** #define LV_AREA_H
   8:lvgl/lvgl/src/core/../misc/lv_area.h **** 
   9:lvgl/lvgl/src/core/../misc/lv_area.h **** #ifdef __cplusplus
  10:lvgl/lvgl/src/core/../misc/lv_area.h **** extern "C" {
  11:lvgl/lvgl/src/core/../misc/lv_area.h **** #endif
  12:lvgl/lvgl/src/core/../misc/lv_area.h **** 
  13:lvgl/lvgl/src/core/../misc/lv_area.h **** /*********************
  14:lvgl/lvgl/src/core/../misc/lv_area.h ****  *      INCLUDES
  15:lvgl/lvgl/src/core/../misc/lv_area.h ****  *********************/
  16:lvgl/lvgl/src/core/../misc/lv_area.h **** #include "../lv_conf_internal.h"
  17:lvgl/lvgl/src/core/../misc/lv_area.h **** #include <string.h>
  18:lvgl/lvgl/src/core/../misc/lv_area.h **** #include <stdbool.h>
  19:lvgl/lvgl/src/core/../misc/lv_area.h **** #include <stdint.h>
  20:lvgl/lvgl/src/core/../misc/lv_area.h **** 
  21:lvgl/lvgl/src/core/../misc/lv_area.h **** /*********************
  22:lvgl/lvgl/src/core/../misc/lv_area.h ****  *      DEFINES
  23:lvgl/lvgl/src/core/../misc/lv_area.h ****  *********************/
  24:lvgl/lvgl/src/core/../misc/lv_area.h **** 
  25:lvgl/lvgl/src/core/../misc/lv_area.h **** #define _LV_COORD_MAX_REDUCE    8192
  26:lvgl/lvgl/src/core/../misc/lv_area.h **** 
  27:lvgl/lvgl/src/core/../misc/lv_area.h **** #if LV_USE_LARGE_COORD
  28:lvgl/lvgl/src/core/../misc/lv_area.h **** typedef int32_t lv_coord_t;
  29:lvgl/lvgl/src/core/../misc/lv_area.h **** #else
  30:lvgl/lvgl/src/core/../misc/lv_area.h **** typedef int16_t lv_coord_t;
  31:lvgl/lvgl/src/core/../misc/lv_area.h **** #endif
  32:lvgl/lvgl/src/core/../misc/lv_area.h **** 
  33:lvgl/lvgl/src/core/../misc/lv_area.h **** /*To allow some special values in the end reduce the max value*/
  34:lvgl/lvgl/src/core/../misc/lv_area.h **** #define LV_COORD_MAX ((lv_coord_t)((uint32_t)((uint32_t)1 << (8 * sizeof(lv_coord_t) - 1)) - _LV_CO
  35:lvgl/lvgl/src/core/../misc/lv_area.h **** #define LV_COORD_MIN (-LV_COORD_MAX)
  36:lvgl/lvgl/src/core/../misc/lv_area.h **** 
  37:lvgl/lvgl/src/core/../misc/lv_area.h **** LV_EXPORT_CONST_INT(LV_COORD_MAX);
  38:lvgl/lvgl/src/core/../misc/lv_area.h **** LV_EXPORT_CONST_INT(LV_COORD_MIN);
  39:lvgl/lvgl/src/core/../misc/lv_area.h **** 
  40:lvgl/lvgl/src/core/../misc/lv_area.h **** /**********************
  41:lvgl/lvgl/src/core/../misc/lv_area.h ****  *      TYPEDEFS
  42:lvgl/lvgl/src/core/../misc/lv_area.h ****  **********************/
ARM GAS  C:\Users\gx\AppData\Local\Temp\ccHlQRWF.s 			page 77


  43:lvgl/lvgl/src/core/../misc/lv_area.h **** 
  44:lvgl/lvgl/src/core/../misc/lv_area.h **** /**
  45:lvgl/lvgl/src/core/../misc/lv_area.h ****  * Represents a point on the screen.
  46:lvgl/lvgl/src/core/../misc/lv_area.h ****  */
  47:lvgl/lvgl/src/core/../misc/lv_area.h **** typedef struct {
  48:lvgl/lvgl/src/core/../misc/lv_area.h ****     lv_coord_t x;
  49:lvgl/lvgl/src/core/../misc/lv_area.h ****     lv_coord_t y;
  50:lvgl/lvgl/src/core/../misc/lv_area.h **** } lv_point_t;
  51:lvgl/lvgl/src/core/../misc/lv_area.h **** 
  52:lvgl/lvgl/src/core/../misc/lv_area.h **** /** Represents an area of the screen.*/
  53:lvgl/lvgl/src/core/../misc/lv_area.h **** typedef struct {
  54:lvgl/lvgl/src/core/../misc/lv_area.h ****     lv_coord_t x1;
  55:lvgl/lvgl/src/core/../misc/lv_area.h ****     lv_coord_t y1;
  56:lvgl/lvgl/src/core/../misc/lv_area.h ****     lv_coord_t x2;
  57:lvgl/lvgl/src/core/../misc/lv_area.h ****     lv_coord_t y2;
  58:lvgl/lvgl/src/core/../misc/lv_area.h **** } lv_area_t;
  59:lvgl/lvgl/src/core/../misc/lv_area.h **** 
  60:lvgl/lvgl/src/core/../misc/lv_area.h **** /** Alignments*/
  61:lvgl/lvgl/src/core/../misc/lv_area.h **** enum {
  62:lvgl/lvgl/src/core/../misc/lv_area.h ****     LV_ALIGN_DEFAULT = 0,
  63:lvgl/lvgl/src/core/../misc/lv_area.h ****     LV_ALIGN_TOP_LEFT,
  64:lvgl/lvgl/src/core/../misc/lv_area.h ****     LV_ALIGN_TOP_MID,
  65:lvgl/lvgl/src/core/../misc/lv_area.h ****     LV_ALIGN_TOP_RIGHT,
  66:lvgl/lvgl/src/core/../misc/lv_area.h ****     LV_ALIGN_BOTTOM_LEFT,
  67:lvgl/lvgl/src/core/../misc/lv_area.h ****     LV_ALIGN_BOTTOM_MID,
  68:lvgl/lvgl/src/core/../misc/lv_area.h ****     LV_ALIGN_BOTTOM_RIGHT,
  69:lvgl/lvgl/src/core/../misc/lv_area.h ****     LV_ALIGN_LEFT_MID,
  70:lvgl/lvgl/src/core/../misc/lv_area.h ****     LV_ALIGN_RIGHT_MID,
  71:lvgl/lvgl/src/core/../misc/lv_area.h ****     LV_ALIGN_CENTER,
  72:lvgl/lvgl/src/core/../misc/lv_area.h **** 
  73:lvgl/lvgl/src/core/../misc/lv_area.h ****     LV_ALIGN_OUT_TOP_LEFT,
  74:lvgl/lvgl/src/core/../misc/lv_area.h ****     LV_ALIGN_OUT_TOP_MID,
  75:lvgl/lvgl/src/core/../misc/lv_area.h ****     LV_ALIGN_OUT_TOP_RIGHT,
  76:lvgl/lvgl/src/core/../misc/lv_area.h ****     LV_ALIGN_OUT_BOTTOM_LEFT,
  77:lvgl/lvgl/src/core/../misc/lv_area.h ****     LV_ALIGN_OUT_BOTTOM_MID,
  78:lvgl/lvgl/src/core/../misc/lv_area.h ****     LV_ALIGN_OUT_BOTTOM_RIGHT,
  79:lvgl/lvgl/src/core/../misc/lv_area.h ****     LV_ALIGN_OUT_LEFT_TOP,
  80:lvgl/lvgl/src/core/../misc/lv_area.h ****     LV_ALIGN_OUT_LEFT_MID,
  81:lvgl/lvgl/src/core/../misc/lv_area.h ****     LV_ALIGN_OUT_LEFT_BOTTOM,
  82:lvgl/lvgl/src/core/../misc/lv_area.h ****     LV_ALIGN_OUT_RIGHT_TOP,
  83:lvgl/lvgl/src/core/../misc/lv_area.h ****     LV_ALIGN_OUT_RIGHT_MID,
  84:lvgl/lvgl/src/core/../misc/lv_area.h ****     LV_ALIGN_OUT_RIGHT_BOTTOM,
  85:lvgl/lvgl/src/core/../misc/lv_area.h **** };
  86:lvgl/lvgl/src/core/../misc/lv_area.h **** typedef uint8_t lv_align_t;
  87:lvgl/lvgl/src/core/../misc/lv_area.h **** 
  88:lvgl/lvgl/src/core/../misc/lv_area.h **** enum {
  89:lvgl/lvgl/src/core/../misc/lv_area.h ****     LV_DIR_NONE     = 0x00,
  90:lvgl/lvgl/src/core/../misc/lv_area.h ****     LV_DIR_LEFT     = (1 << 0),
  91:lvgl/lvgl/src/core/../misc/lv_area.h ****     LV_DIR_RIGHT    = (1 << 1),
  92:lvgl/lvgl/src/core/../misc/lv_area.h ****     LV_DIR_TOP      = (1 << 2),
  93:lvgl/lvgl/src/core/../misc/lv_area.h ****     LV_DIR_BOTTOM   = (1 << 3),
  94:lvgl/lvgl/src/core/../misc/lv_area.h ****     LV_DIR_HOR      = LV_DIR_LEFT | LV_DIR_RIGHT,
  95:lvgl/lvgl/src/core/../misc/lv_area.h ****     LV_DIR_VER      = LV_DIR_TOP | LV_DIR_BOTTOM,
  96:lvgl/lvgl/src/core/../misc/lv_area.h ****     LV_DIR_ALL      = LV_DIR_HOR | LV_DIR_VER,
  97:lvgl/lvgl/src/core/../misc/lv_area.h **** };
  98:lvgl/lvgl/src/core/../misc/lv_area.h **** 
  99:lvgl/lvgl/src/core/../misc/lv_area.h **** typedef uint8_t lv_dir_t;
ARM GAS  C:\Users\gx\AppData\Local\Temp\ccHlQRWF.s 			page 78


 100:lvgl/lvgl/src/core/../misc/lv_area.h **** 
 101:lvgl/lvgl/src/core/../misc/lv_area.h **** /**********************
 102:lvgl/lvgl/src/core/../misc/lv_area.h ****  * GLOBAL PROTOTYPES
 103:lvgl/lvgl/src/core/../misc/lv_area.h ****  **********************/
 104:lvgl/lvgl/src/core/../misc/lv_area.h **** 
 105:lvgl/lvgl/src/core/../misc/lv_area.h **** /**
 106:lvgl/lvgl/src/core/../misc/lv_area.h ****  * Initialize an area
 107:lvgl/lvgl/src/core/../misc/lv_area.h ****  * @param area_p pointer to an area
 108:lvgl/lvgl/src/core/../misc/lv_area.h ****  * @param x1 left coordinate of the area
 109:lvgl/lvgl/src/core/../misc/lv_area.h ****  * @param y1 top coordinate of the area
 110:lvgl/lvgl/src/core/../misc/lv_area.h ****  * @param x2 right coordinate of the area
 111:lvgl/lvgl/src/core/../misc/lv_area.h ****  * @param y2 bottom coordinate of the area
 112:lvgl/lvgl/src/core/../misc/lv_area.h ****  */
 113:lvgl/lvgl/src/core/../misc/lv_area.h **** void lv_area_set(lv_area_t * area_p, lv_coord_t x1, lv_coord_t y1, lv_coord_t x2, lv_coord_t y2);
 114:lvgl/lvgl/src/core/../misc/lv_area.h **** 
 115:lvgl/lvgl/src/core/../misc/lv_area.h **** /**
 116:lvgl/lvgl/src/core/../misc/lv_area.h ****  * Copy an area
 117:lvgl/lvgl/src/core/../misc/lv_area.h ****  * @param dest pointer to the destination area
 118:lvgl/lvgl/src/core/../misc/lv_area.h ****  * @param src pointer to the source area
 119:lvgl/lvgl/src/core/../misc/lv_area.h ****  */
 120:lvgl/lvgl/src/core/../misc/lv_area.h **** inline static void lv_area_copy(lv_area_t * dest, const lv_area_t * src)
 121:lvgl/lvgl/src/core/../misc/lv_area.h **** {
 122:lvgl/lvgl/src/core/../misc/lv_area.h ****     dest->x1 = src->x1;
 123:lvgl/lvgl/src/core/../misc/lv_area.h ****     dest->y1 = src->y1;
 124:lvgl/lvgl/src/core/../misc/lv_area.h ****     dest->x2 = src->x2;
 125:lvgl/lvgl/src/core/../misc/lv_area.h ****     dest->y2 = src->y2;
 126:lvgl/lvgl/src/core/../misc/lv_area.h **** }
 127:lvgl/lvgl/src/core/../misc/lv_area.h **** 
 128:lvgl/lvgl/src/core/../misc/lv_area.h **** /**
 129:lvgl/lvgl/src/core/../misc/lv_area.h ****  * Get the width of an area
 130:lvgl/lvgl/src/core/../misc/lv_area.h ****  * @param area_p pointer to an area
 131:lvgl/lvgl/src/core/../misc/lv_area.h ****  * @return the width of the area (if x1 == x2 -> width = 1)
 132:lvgl/lvgl/src/core/../misc/lv_area.h ****  */
 133:lvgl/lvgl/src/core/../misc/lv_area.h **** static inline lv_coord_t lv_area_get_width(const lv_area_t * area_p)
 134:lvgl/lvgl/src/core/../misc/lv_area.h **** {
 135:lvgl/lvgl/src/core/../misc/lv_area.h ****     return (lv_coord_t)(area_p->x2 - area_p->x1 + 1);
 136:lvgl/lvgl/src/core/../misc/lv_area.h **** }
 137:lvgl/lvgl/src/core/../misc/lv_area.h **** 
 138:lvgl/lvgl/src/core/../misc/lv_area.h **** /**
 139:lvgl/lvgl/src/core/../misc/lv_area.h ****  * Get the height of an area
 140:lvgl/lvgl/src/core/../misc/lv_area.h ****  * @param area_p pointer to an area
 141:lvgl/lvgl/src/core/../misc/lv_area.h ****  * @return the height of the area (if y1 == y2 -> height = 1)
 142:lvgl/lvgl/src/core/../misc/lv_area.h ****  */
 143:lvgl/lvgl/src/core/../misc/lv_area.h **** static inline lv_coord_t lv_area_get_height(const lv_area_t * area_p)
 2506              		.loc 4 143 26 view .LVU755
 2507              	.LBB154:
 144:lvgl/lvgl/src/core/../misc/lv_area.h **** {
 145:lvgl/lvgl/src/core/../misc/lv_area.h ****     return (lv_coord_t)(area_p->y2 - area_p->y1 + 1);
 2508              		.loc 4 145 5 view .LVU756
 2509              		.loc 4 145 31 is_stmt 0 view .LVU757
 2510 0256 BBF80630 		ldrh	r3, [fp, #6]
 2511              		.loc 4 145 44 view .LVU758
 2512 025a BBF80220 		ldrh	r2, [fp, #2]
 2513              		.loc 4 145 36 view .LVU759
 2514 025e 9B1A     		subs	r3, r3, r2
 2515 0260 9BB2     		uxth	r3, r3
 2516              		.loc 4 145 49 view .LVU760
ARM GAS  C:\Users\gx\AppData\Local\Temp\ccHlQRWF.s 			page 79


 2517 0262 0133     		adds	r3, r3, #1
 2518              	.LVL284:
 2519              		.loc 4 145 49 view .LVU761
 2520              	.LBE154:
 2521              	.LBE153:
 661:lvgl/lvgl/src/core/lv_obj_scroll.c ****         y_scroll += snap_goal - act;
 2522              		.loc 1 661 48 view .LVU762
 2523 0264 C3F3C031 		ubfx	r1, r3, #15, #1
 2524 0268 01FA83F3 		sxtah	r3, r1, r3
 2525 026c 02EB6303 		add	r3, r2, r3, asr #1
 661:lvgl/lvgl/src/core/lv_obj_scroll.c ****         y_scroll += snap_goal - act;
 2526              		.loc 1 661 63 view .LVU763
 2527 0270 A4B2     		uxth	r4, r4
 661:lvgl/lvgl/src/core/lv_obj_scroll.c ****         y_scroll += snap_goal - act;
 2528              		.loc 1 661 63 view .LVU764
 2529 0272 14FA83F3 		uxtah	r3, r4, r3
 2530 0276 9BB2     		uxth	r3, r3
 2531              	.LVL285:
 662:lvgl/lvgl/src/core/lv_obj_scroll.c ****         break;
 2532              		.loc 1 662 9 is_stmt 1 view .LVU765
 662:lvgl/lvgl/src/core/lv_obj_scroll.c ****         break;
 2533              		.loc 1 662 31 is_stmt 0 view .LVU766
 2534 0278 F61A     		subs	r6, r6, r3
 2535              	.LVL286:
 662:lvgl/lvgl/src/core/lv_obj_scroll.c ****         break;
 2536              		.loc 1 662 18 view .LVU767
 2537 027a 14FA86F4 		uxtah	r4, r4, r6
 2538              	.LVL287:
 662:lvgl/lvgl/src/core/lv_obj_scroll.c ****         break;
 2539              		.loc 1 662 18 view .LVU768
 2540 027e 24B2     		sxth	r4, r4
 2541              	.LVL288:
 663:lvgl/lvgl/src/core/lv_obj_scroll.c ****     }
 2542              		.loc 1 663 9 is_stmt 1 view .LVU769
 2543 0280 16E7     		b	.L111
 2544              	.LVL289:
 2545              	.L113:
 676:lvgl/lvgl/src/core/lv_obj_scroll.c ****         x_scroll = left_diff;
 2546              		.loc 1 676 10 view .LVU770
 676:lvgl/lvgl/src/core/lv_obj_scroll.c ****         x_scroll = left_diff;
 2547              		.loc 1 676 12 is_stmt 0 view .LVU771
 2548 0282 002E     		cmp	r6, #0
 2549 0284 03DC     		bgt	.L149
 682:lvgl/lvgl/src/core/lv_obj_scroll.c ****         x_scroll = -right_diff;
 2550              		.loc 1 682 10 is_stmt 1 view .LVU772
 682:lvgl/lvgl/src/core/lv_obj_scroll.c ****         x_scroll = -right_diff;
 2551              		.loc 1 682 12 is_stmt 0 view .LVU773
 2552 0286 002B     		cmp	r3, #0
 2553 0288 0ADC     		bgt	.L150
 666:lvgl/lvgl/src/core/lv_obj_scroll.c ****     lv_scroll_snap_t snap_x = lv_obj_get_scroll_snap_x(parent);
 2554              		.loc 1 666 16 view .LVU774
 2555 028a 0026     		movs	r6, #0
 2556              	.LVL290:
 666:lvgl/lvgl/src/core/lv_obj_scroll.c ****     lv_scroll_snap_t snap_x = lv_obj_get_scroll_snap_x(parent);
 2557              		.loc 1 666 16 view .LVU775
 2558 028c 43E7     		b	.L114
 2559              	.LVL291:
ARM GAS  C:\Users\gx\AppData\Local\Temp\ccHlQRWF.s 			page 80


 2560              	.L149:
 2561              	.LBB155:
 677:lvgl/lvgl/src/core/lv_obj_scroll.c ****         /*Do not let scrolling in*/
 2562              		.loc 1 677 9 is_stmt 1 view .LVU776
 679:lvgl/lvgl/src/core/lv_obj_scroll.c ****         if(sl + x_scroll > 0) x_scroll = 0;
 2563              		.loc 1 679 9 view .LVU777
 679:lvgl/lvgl/src/core/lv_obj_scroll.c ****         if(sl + x_scroll > 0) x_scroll = 0;
 2564              		.loc 1 679 25 is_stmt 0 view .LVU778
 2565 028e 2846     		mov	r0, r5
 2566              	.LVL292:
 679:lvgl/lvgl/src/core/lv_obj_scroll.c ****         if(sl + x_scroll > 0) x_scroll = 0;
 2567              		.loc 1 679 25 view .LVU779
 2568 0290 FFF7FEFF 		bl	lv_obj_get_scroll_left
 2569              	.LVL293:
 680:lvgl/lvgl/src/core/lv_obj_scroll.c ****     }
 2570              		.loc 1 680 9 is_stmt 1 view .LVU780
 680:lvgl/lvgl/src/core/lv_obj_scroll.c ****     }
 2571              		.loc 1 680 15 is_stmt 0 view .LVU781
 2572 0294 3044     		add	r0, r0, r6
 2573              	.LVL294:
 680:lvgl/lvgl/src/core/lv_obj_scroll.c ****     }
 2574              		.loc 1 680 11 view .LVU782
 2575 0296 0028     		cmp	r0, #0
 2576 0298 7FF73DAF 		ble	.L114
 680:lvgl/lvgl/src/core/lv_obj_scroll.c ****     }
 2577              		.loc 1 680 40 view .LVU783
 2578 029c 0026     		movs	r6, #0
 2579              	.LVL295:
 680:lvgl/lvgl/src/core/lv_obj_scroll.c ****     }
 2580              		.loc 1 680 40 view .LVU784
 2581 029e 3AE7     		b	.L114
 2582              	.LVL296:
 2583              	.L150:
 680:lvgl/lvgl/src/core/lv_obj_scroll.c ****     }
 2584              		.loc 1 680 40 view .LVU785
 2585              	.LBE155:
 2586              	.LBB156:
 683:lvgl/lvgl/src/core/lv_obj_scroll.c ****         /*Do not let scrolling in*/
 2587              		.loc 1 683 9 is_stmt 1 view .LVU786
 683:lvgl/lvgl/src/core/lv_obj_scroll.c ****         /*Do not let scrolling in*/
 2588              		.loc 1 683 18 is_stmt 0 view .LVU787
 2589 02a0 5642     		rsbs	r6, r2, #0
 2590              	.LVL297:
 683:lvgl/lvgl/src/core/lv_obj_scroll.c ****         /*Do not let scrolling in*/
 2591              		.loc 1 683 18 view .LVU788
 2592 02a2 36B2     		sxth	r6, r6
 2593              	.LVL298:
 685:lvgl/lvgl/src/core/lv_obj_scroll.c ****         if(sr + x_scroll < 0) x_scroll = 0;
 2594              		.loc 1 685 9 is_stmt 1 view .LVU789
 685:lvgl/lvgl/src/core/lv_obj_scroll.c ****         if(sr + x_scroll < 0) x_scroll = 0;
 2595              		.loc 1 685 25 is_stmt 0 view .LVU790
 2596 02a4 2846     		mov	r0, r5
 2597              	.LVL299:
 685:lvgl/lvgl/src/core/lv_obj_scroll.c ****         if(sr + x_scroll < 0) x_scroll = 0;
 2598              		.loc 1 685 25 view .LVU791
 2599 02a6 FFF7FEFF 		bl	lv_obj_get_scroll_right
 2600              	.LVL300:
ARM GAS  C:\Users\gx\AppData\Local\Temp\ccHlQRWF.s 			page 81


 686:lvgl/lvgl/src/core/lv_obj_scroll.c ****     }
 2601              		.loc 1 686 9 is_stmt 1 view .LVU792
 686:lvgl/lvgl/src/core/lv_obj_scroll.c ****     }
 2602              		.loc 1 686 11 is_stmt 0 view .LVU793
 2603 02aa F042     		cmn	r0, r6
 2604 02ac 7FF533AF 		bpl	.L114
 686:lvgl/lvgl/src/core/lv_obj_scroll.c ****     }
 2605              		.loc 1 686 40 view .LVU794
 2606 02b0 0026     		movs	r6, #0
 2607              	.LVL301:
 686:lvgl/lvgl/src/core/lv_obj_scroll.c ****     }
 2608              		.loc 1 686 40 view .LVU795
 2609 02b2 30E7     		b	.L114
 2610              	.LVL302:
 2611              	.L145:
 686:lvgl/lvgl/src/core/lv_obj_scroll.c ****     }
 2612              		.loc 1 686 40 view .LVU796
 2613              	.LBE156:
 692:lvgl/lvgl/src/core/lv_obj_scroll.c ****         act = area_tmp->x1 + x_scroll;
 2614              		.loc 1 692 9 is_stmt 1 view .LVU797
 692:lvgl/lvgl/src/core/lv_obj_scroll.c ****         act = area_tmp->x1 + x_scroll;
 2615              		.loc 1 692 35 is_stmt 0 view .LVU798
 2616 02b4 AB8A     		ldrh	r3, [r5, #20]
 2617              	.LVL303:
 692:lvgl/lvgl/src/core/lv_obj_scroll.c ****         act = area_tmp->x1 + x_scroll;
 2618              		.loc 1 692 39 view .LVU799
 2619 02b6 1F44     		add	r7, r7, r3
 2620              	.LVL304:
 692:lvgl/lvgl/src/core/lv_obj_scroll.c ****         act = area_tmp->x1 + x_scroll;
 2621              		.loc 1 692 39 view .LVU800
 2622 02b8 BFB2     		uxth	r7, r7
 2623              	.LVL305:
 693:lvgl/lvgl/src/core/lv_obj_scroll.c ****         x_scroll += snap_goal - act;
 2624              		.loc 1 693 9 is_stmt 1 view .LVU801
 693:lvgl/lvgl/src/core/lv_obj_scroll.c ****         x_scroll += snap_goal - act;
 2625              		.loc 1 693 23 is_stmt 0 view .LVU802
 2626 02ba B9F80030 		ldrh	r3, [r9]
 693:lvgl/lvgl/src/core/lv_obj_scroll.c ****         x_scroll += snap_goal - act;
 2627              		.loc 1 693 28 view .LVU803
 2628 02be B2B2     		uxth	r2, r6
 2629 02c0 9E18     		adds	r6, r3, r2
 2630              	.LVL306:
 693:lvgl/lvgl/src/core/lv_obj_scroll.c ****         x_scroll += snap_goal - act;
 2631              		.loc 1 693 28 view .LVU804
 2632 02c2 B6B2     		uxth	r6, r6
 2633              	.LVL307:
 694:lvgl/lvgl/src/core/lv_obj_scroll.c ****         break;
 2634              		.loc 1 694 9 is_stmt 1 view .LVU805
 694:lvgl/lvgl/src/core/lv_obj_scroll.c ****         break;
 2635              		.loc 1 694 31 is_stmt 0 view .LVU806
 2636 02c4 BE1B     		subs	r6, r7, r6
 2637              	.LVL308:
 694:lvgl/lvgl/src/core/lv_obj_scroll.c ****         break;
 2638              		.loc 1 694 18 view .LVU807
 2639 02c6 12FA86F6 		uxtah	r6, r2, r6
 2640 02ca 36B2     		sxth	r6, r6
 2641              	.LVL309:
ARM GAS  C:\Users\gx\AppData\Local\Temp\ccHlQRWF.s 			page 82


 695:lvgl/lvgl/src/core/lv_obj_scroll.c ****     case LV_SCROLL_SNAP_END:
 2642              		.loc 1 695 9 is_stmt 1 view .LVU808
 2643 02cc 38E7     		b	.L118
 2644              	.LVL310:
 2645              	.L116:
 697:lvgl/lvgl/src/core/lv_obj_scroll.c ****         act = area_tmp->x2 + x_scroll;
 2646              		.loc 1 697 9 view .LVU809
 697:lvgl/lvgl/src/core/lv_obj_scroll.c ****         act = area_tmp->x2 + x_scroll;
 2647              		.loc 1 697 35 is_stmt 0 view .LVU810
 2648 02ce 288B     		ldrh	r0, [r5, #24]
 697:lvgl/lvgl/src/core/lv_obj_scroll.c ****         act = area_tmp->x2 + x_scroll;
 2649              		.loc 1 697 39 view .LVU811
 2650 02d0 A0EB0A0A 		sub	r10, r0, r10
 2651              	.LVL311:
 697:lvgl/lvgl/src/core/lv_obj_scroll.c ****         act = area_tmp->x2 + x_scroll;
 2652              		.loc 1 697 39 view .LVU812
 2653 02d4 1FFA8AFA 		uxth	r10, r10
 2654              	.LVL312:
 698:lvgl/lvgl/src/core/lv_obj_scroll.c ****         x_scroll += snap_goal - act;
 2655              		.loc 1 698 9 is_stmt 1 view .LVU813
 698:lvgl/lvgl/src/core/lv_obj_scroll.c ****         x_scroll += snap_goal - act;
 2656              		.loc 1 698 23 is_stmt 0 view .LVU814
 2657 02d8 B9F80430 		ldrh	r3, [r9, #4]
 2658              	.LVL313:
 698:lvgl/lvgl/src/core/lv_obj_scroll.c ****         x_scroll += snap_goal - act;
 2659              		.loc 1 698 28 view .LVU815
 2660 02dc B2B2     		uxth	r2, r6
 2661 02de 9E18     		adds	r6, r3, r2
 2662              	.LVL314:
 698:lvgl/lvgl/src/core/lv_obj_scroll.c ****         x_scroll += snap_goal - act;
 2663              		.loc 1 698 28 view .LVU816
 2664 02e0 B6B2     		uxth	r6, r6
 2665              	.LVL315:
 699:lvgl/lvgl/src/core/lv_obj_scroll.c ****         break;
 2666              		.loc 1 699 9 is_stmt 1 view .LVU817
 699:lvgl/lvgl/src/core/lv_obj_scroll.c ****         break;
 2667              		.loc 1 699 31 is_stmt 0 view .LVU818
 2668 02e2 AAEB0606 		sub	r6, r10, r6
 2669              	.LVL316:
 699:lvgl/lvgl/src/core/lv_obj_scroll.c ****         break;
 2670              		.loc 1 699 18 view .LVU819
 2671 02e6 12FA86F6 		uxtah	r6, r2, r6
 2672 02ea 36B2     		sxth	r6, r6
 2673              	.LVL317:
 700:lvgl/lvgl/src/core/lv_obj_scroll.c ****     case LV_SCROLL_SNAP_CENTER:
 2674              		.loc 1 700 9 is_stmt 1 view .LVU820
 2675 02ec 28E7     		b	.L118
 2676              	.LVL318:
 2677              	.L117:
 702:lvgl/lvgl/src/core/lv_obj_scroll.c ****         act = lv_area_get_width(area_tmp) / 2 + area_tmp->x1 + x_scroll;
 2678              		.loc 1 702 9 view .LVU821
 702:lvgl/lvgl/src/core/lv_obj_scroll.c ****         act = lv_area_get_width(area_tmp) / 2 + area_tmp->x1 + x_scroll;
 2679              		.loc 1 702 35 is_stmt 0 view .LVU822
 2680 02ee AA8A     		ldrh	r2, [r5, #20]
 702:lvgl/lvgl/src/core/lv_obj_scroll.c ****         act = lv_area_get_width(area_tmp) / 2 + area_tmp->x1 + x_scroll;
 2681              		.loc 1 702 39 view .LVU823
 2682 02f0 1744     		add	r7, r7, r2
ARM GAS  C:\Users\gx\AppData\Local\Temp\ccHlQRWF.s 			page 83


 2683              	.LVL319:
 702:lvgl/lvgl/src/core/lv_obj_scroll.c ****         act = lv_area_get_width(area_tmp) / 2 + area_tmp->x1 + x_scroll;
 2684              		.loc 1 702 47 view .LVU824
 2685 02f2 03EBD373 		add	r3, r3, r3, lsr #31
 2686              	.LVL320:
 702:lvgl/lvgl/src/core/lv_obj_scroll.c ****         act = lv_area_get_width(area_tmp) / 2 + area_tmp->x1 + x_scroll;
 2687              		.loc 1 702 47 view .LVU825
 2688 02f6 5B10     		asrs	r3, r3, #1
 2689 02f8 13FA87F3 		uxtah	r3, r3, r7
 2690 02fc 9BB2     		uxth	r3, r3
 2691              	.LVL321:
 703:lvgl/lvgl/src/core/lv_obj_scroll.c ****         x_scroll += snap_goal - act;
 2692              		.loc 1 703 9 is_stmt 1 view .LVU826
 2693              	.LBB157:
 2694              	.LBI157:
 133:lvgl/lvgl/src/core/../misc/lv_area.h **** {
 2695              		.loc 4 133 26 view .LVU827
 2696              	.LBB158:
 135:lvgl/lvgl/src/core/../misc/lv_area.h **** }
 2697              		.loc 4 135 5 view .LVU828
 135:lvgl/lvgl/src/core/../misc/lv_area.h **** }
 2698              		.loc 4 135 31 is_stmt 0 view .LVU829
 2699 02fe B9F80420 		ldrh	r2, [r9, #4]
 135:lvgl/lvgl/src/core/../misc/lv_area.h **** }
 2700              		.loc 4 135 44 view .LVU830
 2701 0302 B9F80010 		ldrh	r1, [r9]
 135:lvgl/lvgl/src/core/../misc/lv_area.h **** }
 2702              		.loc 4 135 36 view .LVU831
 2703 0306 521A     		subs	r2, r2, r1
 2704 0308 92B2     		uxth	r2, r2
 135:lvgl/lvgl/src/core/../misc/lv_area.h **** }
 2705              		.loc 4 135 49 view .LVU832
 2706 030a 0132     		adds	r2, r2, #1
 2707              	.LVL322:
 135:lvgl/lvgl/src/core/../misc/lv_area.h **** }
 2708              		.loc 4 135 49 view .LVU833
 2709              	.LBE158:
 2710              	.LBE157:
 703:lvgl/lvgl/src/core/lv_obj_scroll.c ****         x_scroll += snap_goal - act;
 2711              		.loc 1 703 47 view .LVU834
 2712 030c C2F3C030 		ubfx	r0, r2, #15, #1
 703:lvgl/lvgl/src/core/lv_obj_scroll.c ****         x_scroll += snap_goal - act;
 2713              		.loc 1 703 47 view .LVU835
 2714 0310 00FA82F2 		sxtah	r2, r0, r2
 2715 0314 01EB6202 		add	r2, r1, r2, asr #1
 703:lvgl/lvgl/src/core/lv_obj_scroll.c ****         x_scroll += snap_goal - act;
 2716              		.loc 1 703 62 view .LVU836
 2717 0318 B6B2     		uxth	r6, r6
 703:lvgl/lvgl/src/core/lv_obj_scroll.c ****         x_scroll += snap_goal - act;
 2718              		.loc 1 703 62 view .LVU837
 2719 031a 16FA82F2 		uxtah	r2, r6, r2
 2720 031e 92B2     		uxth	r2, r2
 2721              	.LVL323:
 704:lvgl/lvgl/src/core/lv_obj_scroll.c ****         break;
 2722              		.loc 1 704 9 is_stmt 1 view .LVU838
 704:lvgl/lvgl/src/core/lv_obj_scroll.c ****         break;
 2723              		.loc 1 704 31 is_stmt 0 view .LVU839
ARM GAS  C:\Users\gx\AppData\Local\Temp\ccHlQRWF.s 			page 84


 2724 0320 9B1A     		subs	r3, r3, r2
 2725              	.LVL324:
 704:lvgl/lvgl/src/core/lv_obj_scroll.c ****         break;
 2726              		.loc 1 704 18 view .LVU840
 2727 0322 16FA83F6 		uxtah	r6, r6, r3
 2728              	.LVL325:
 704:lvgl/lvgl/src/core/lv_obj_scroll.c ****         break;
 2729              		.loc 1 704 18 view .LVU841
 2730 0326 36B2     		sxth	r6, r6
 2731              	.LVL326:
 705:lvgl/lvgl/src/core/lv_obj_scroll.c ****     }
 2732              		.loc 1 705 9 is_stmt 1 view .LVU842
 2733 0328 0AE7     		b	.L118
 2734              	.LVL327:
 2735              	.L146:
 717:lvgl/lvgl/src/core/lv_obj_scroll.c ****     if((scroll_dir & LV_DIR_RIGHT) == 0 && x_scroll > 0) x_scroll = 0;
 2736              		.loc 1 717 66 is_stmt 0 view .LVU843
 2737 032a 0026     		movs	r6, #0
 2738              	.LVL328:
 717:lvgl/lvgl/src/core/lv_obj_scroll.c ****     if((scroll_dir & LV_DIR_RIGHT) == 0 && x_scroll > 0) x_scroll = 0;
 2739              		.loc 1 717 66 view .LVU844
 2740 032c 21E7     		b	.L122
 2741              	.LVL329:
 2742              	.L147:
 719:lvgl/lvgl/src/core/lv_obj_scroll.c ****     if((scroll_dir & LV_DIR_BOTTOM) == 0 && y_scroll > 0) y_scroll = 0;
 2743              		.loc 1 719 65 view .LVU845
 2744 032e 0024     		movs	r4, #0
 2745              	.LVL330:
 719:lvgl/lvgl/src/core/lv_obj_scroll.c ****     if((scroll_dir & LV_DIR_BOTTOM) == 0 && y_scroll > 0) y_scroll = 0;
 2746              		.loc 1 719 65 view .LVU846
 2747 0330 2DE7     		b	.L124
 2748              	.LVL331:
 2749              	.L141:
 722:lvgl/lvgl/src/core/lv_obj_scroll.c ****     scroll_value->y += anim_en == LV_ANIM_OFF ? 0 : y_scroll;
 2750              		.loc 1 722 21 view .LVU847
 2751 0332 0022     		movs	r2, #0
 2752 0334 39E7     		b	.L126
 2753              	.L142:
 723:lvgl/lvgl/src/core/lv_obj_scroll.c ****     lv_obj_scroll_by(parent, x_scroll, y_scroll, anim_en);
 2754              		.loc 1 723 21 view .LVU848
 2755 0336 0022     		movs	r2, #0
 2756 0338 41E7     		b	.L127
 2757              	.L152:
 2758 033a 00BF     		.align	2
 2759              	.L151:
 2760 033c 00000000 		.word	scroll_y_anim
 2761 0340 00000000 		.word	scroll_x_anim
 2762              		.cfi_endproc
 2763              	.LFE188:
 2765              		.section	.text.lv_obj_scroll_to_x,"ax",%progbits
 2766              		.align	1
 2767              		.global	lv_obj_scroll_to_x
 2768              		.syntax unified
 2769              		.thumb
 2770              		.thumb_func
 2771              		.fpu fpv4-sp-d16
 2773              	lv_obj_scroll_to_x:
ARM GAS  C:\Users\gx\AppData\Local\Temp\ccHlQRWF.s 			page 85


 2774              	.LVL332:
 2775              	.LFB175:
 314:lvgl/lvgl/src/core/lv_obj_scroll.c ****     lv_anim_del(obj, scroll_x_anim);
 2776              		.loc 1 314 1 is_stmt 1 view -0
 2777              		.cfi_startproc
 2778              		@ args = 0, pretend = 0, frame = 0
 2779              		@ frame_needed = 0, uses_anonymous_args = 0
 314:lvgl/lvgl/src/core/lv_obj_scroll.c ****     lv_anim_del(obj, scroll_x_anim);
 2780              		.loc 1 314 1 is_stmt 0 view .LVU850
 2781 0000 F8B5     		push	{r3, r4, r5, r6, r7, lr}
 2782              	.LCFI20:
 2783              		.cfi_def_cfa_offset 24
 2784              		.cfi_offset 3, -24
 2785              		.cfi_offset 4, -20
 2786              		.cfi_offset 5, -16
 2787              		.cfi_offset 6, -12
 2788              		.cfi_offset 7, -8
 2789              		.cfi_offset 14, -4
 2790 0002 0446     		mov	r4, r0
 2791 0004 0D46     		mov	r5, r1
 2792 0006 1646     		mov	r6, r2
 315:lvgl/lvgl/src/core/lv_obj_scroll.c **** 
 2793              		.loc 1 315 5 is_stmt 1 view .LVU851
 2794 0008 2249     		ldr	r1, .L167
 2795              	.LVL333:
 315:lvgl/lvgl/src/core/lv_obj_scroll.c **** 
 2796              		.loc 1 315 5 is_stmt 0 view .LVU852
 2797 000a FFF7FEFF 		bl	lv_anim_del
 2798              	.LVL334:
 318:lvgl/lvgl/src/core/lv_obj_scroll.c ****         if(x < 0) x = 0;
 2799              		.loc 1 318 5 is_stmt 1 view .LVU853
 2800              	.LBB159:
 2801              	.LBI159:
 187:lvgl/lvgl/src/core/lv_obj_style_gen.h **** {
 2802              		.loc 2 187 29 view .LVU854
 2803              	.LBB160:
 189:lvgl/lvgl/src/core/lv_obj_style_gen.h ****     return (lv_base_dir_t)v.num;
 2804              		.loc 2 189 5 view .LVU855
 189:lvgl/lvgl/src/core/lv_obj_style_gen.h ****     return (lv_base_dir_t)v.num;
 2805              		.loc 2 189 26 is_stmt 0 view .LVU856
 2806 000e 41F26A42 		movw	r2, #5226
 2807 0012 0021     		movs	r1, #0
 2808 0014 2046     		mov	r0, r4
 2809 0016 FFF7FEFF 		bl	lv_obj_get_style_prop
 2810              	.LVL335:
 190:lvgl/lvgl/src/core/lv_obj_style_gen.h **** }
 2811              		.loc 2 190 5 is_stmt 1 view .LVU857
 190:lvgl/lvgl/src/core/lv_obj_style_gen.h **** }
 2812              		.loc 2 190 12 is_stmt 0 view .LVU858
 2813 001a C0B2     		uxtb	r0, r0
 2814              	.LVL336:
 190:lvgl/lvgl/src/core/lv_obj_style_gen.h **** }
 2815              		.loc 2 190 12 view .LVU859
 2816              	.LBE160:
 2817              	.LBE159:
 318:lvgl/lvgl/src/core/lv_obj_scroll.c ****         if(x < 0) x = 0;
 2818              		.loc 1 318 7 view .LVU860
ARM GAS  C:\Users\gx\AppData\Local\Temp\ccHlQRWF.s 			page 86


 2819 001c 0128     		cmp	r0, #1
 2820 001e 14D0     		beq	.L154
 319:lvgl/lvgl/src/core/lv_obj_scroll.c ****         if(x > 0) {
 2821              		.loc 1 319 9 is_stmt 1 view .LVU861
 319:lvgl/lvgl/src/core/lv_obj_scroll.c ****         if(x > 0) {
 2822              		.loc 1 319 11 is_stmt 0 view .LVU862
 2823 0020 002D     		cmp	r5, #0
 2824 0022 2ADB     		blt	.L158
 2825              	.LVL337:
 320:lvgl/lvgl/src/core/lv_obj_scroll.c ****             lv_coord_t  scroll_max = lv_obj_get_scroll_left(obj) + lv_obj_get_scroll_right(obj);
 2826              		.loc 1 320 9 is_stmt 1 view .LVU863
 320:lvgl/lvgl/src/core/lv_obj_scroll.c ****             lv_coord_t  scroll_max = lv_obj_get_scroll_left(obj) + lv_obj_get_scroll_right(obj);
 2827              		.loc 1 320 11 is_stmt 0 view .LVU864
 2828 0024 2ADD     		ble	.L155
 2829              	.LBB161:
 321:lvgl/lvgl/src/core/lv_obj_scroll.c ****             if(scroll_max < 0) scroll_max = 0;
 2830              		.loc 1 321 13 is_stmt 1 view .LVU865
 321:lvgl/lvgl/src/core/lv_obj_scroll.c ****             if(scroll_max < 0) scroll_max = 0;
 2831              		.loc 1 321 38 is_stmt 0 view .LVU866
 2832 0026 2046     		mov	r0, r4
 2833 0028 FFF7FEFF 		bl	lv_obj_get_scroll_left
 2834              	.LVL338:
 2835 002c 87B2     		uxth	r7, r0
 321:lvgl/lvgl/src/core/lv_obj_scroll.c ****             if(scroll_max < 0) scroll_max = 0;
 2836              		.loc 1 321 68 view .LVU867
 2837 002e 2046     		mov	r0, r4
 2838 0030 FFF7FEFF 		bl	lv_obj_get_scroll_right
 2839              	.LVL339:
 321:lvgl/lvgl/src/core/lv_obj_scroll.c ****             if(scroll_max < 0) scroll_max = 0;
 2840              		.loc 1 321 66 view .LVU868
 2841 0034 17FA80F0 		uxtah	r0, r7, r0
 321:lvgl/lvgl/src/core/lv_obj_scroll.c ****             if(scroll_max < 0) scroll_max = 0;
 2842              		.loc 1 321 25 view .LVU869
 2843 0038 00B2     		sxth	r0, r0
 2844              	.LVL340:
 322:lvgl/lvgl/src/core/lv_obj_scroll.c **** 
 2845              		.loc 1 322 13 is_stmt 1 view .LVU870
 322:lvgl/lvgl/src/core/lv_obj_scroll.c **** 
 2846              		.loc 1 322 15 is_stmt 0 view .LVU871
 2847 003a 0028     		cmp	r0, #0
 2848 003c 03DB     		blt	.L164
 2849              	.LVL341:
 2850              	.L156:
 324:lvgl/lvgl/src/core/lv_obj_scroll.c ****         }
 2851              		.loc 1 324 13 is_stmt 1 view .LVU872
 324:lvgl/lvgl/src/core/lv_obj_scroll.c ****         }
 2852              		.loc 1 324 15 is_stmt 0 view .LVU873
 2853 003e A842     		cmp	r0, r5
 2854 0040 1CDA     		bge	.L155
 324:lvgl/lvgl/src/core/lv_obj_scroll.c ****         }
 2855              		.loc 1 324 34 view .LVU874
 2856 0042 0546     		mov	r5, r0
 2857              	.LVL342:
 324:lvgl/lvgl/src/core/lv_obj_scroll.c ****         }
 2858              		.loc 1 324 34 view .LVU875
 2859 0044 1AE0     		b	.L155
 2860              	.LVL343:
ARM GAS  C:\Users\gx\AppData\Local\Temp\ccHlQRWF.s 			page 87


 2861              	.L164:
 322:lvgl/lvgl/src/core/lv_obj_scroll.c **** 
 2862              		.loc 1 322 43 view .LVU876
 2863 0046 0020     		movs	r0, #0
 2864              	.LVL344:
 322:lvgl/lvgl/src/core/lv_obj_scroll.c **** 
 2865              		.loc 1 322 43 view .LVU877
 2866 0048 F9E7     		b	.L156
 2867              	.LVL345:
 2868              	.L154:
 322:lvgl/lvgl/src/core/lv_obj_scroll.c **** 
 2869              		.loc 1 322 43 view .LVU878
 2870              	.LBE161:
 327:lvgl/lvgl/src/core/lv_obj_scroll.c ****         if(x < 0) {
 2871              		.loc 1 327 9 is_stmt 1 view .LVU879
 327:lvgl/lvgl/src/core/lv_obj_scroll.c ****         if(x < 0) {
 2872              		.loc 1 327 11 is_stmt 0 view .LVU880
 2873 004a 002D     		cmp	r5, #0
 2874 004c 01DD     		ble	.L165
 327:lvgl/lvgl/src/core/lv_obj_scroll.c ****         if(x < 0) {
 2875              		.loc 1 327 21 view .LVU881
 2876 004e 0025     		movs	r5, #0
 2877 0050 14E0     		b	.L155
 2878              	.L165:
 2879              	.LVL346:
 328:lvgl/lvgl/src/core/lv_obj_scroll.c ****             lv_coord_t  scroll_max = lv_obj_get_scroll_left(obj) + lv_obj_get_scroll_right(obj);
 2880              		.loc 1 328 9 is_stmt 1 view .LVU882
 328:lvgl/lvgl/src/core/lv_obj_scroll.c ****             lv_coord_t  scroll_max = lv_obj_get_scroll_left(obj) + lv_obj_get_scroll_right(obj);
 2881              		.loc 1 328 11 is_stmt 0 view .LVU883
 2882 0052 13DA     		bge	.L155
 2883              	.LBB162:
 329:lvgl/lvgl/src/core/lv_obj_scroll.c ****             if(scroll_max < 0) scroll_max = 0;
 2884              		.loc 1 329 13 is_stmt 1 view .LVU884
 329:lvgl/lvgl/src/core/lv_obj_scroll.c ****             if(scroll_max < 0) scroll_max = 0;
 2885              		.loc 1 329 38 is_stmt 0 view .LVU885
 2886 0054 2046     		mov	r0, r4
 2887 0056 FFF7FEFF 		bl	lv_obj_get_scroll_left
 2888              	.LVL347:
 2889 005a 87B2     		uxth	r7, r0
 329:lvgl/lvgl/src/core/lv_obj_scroll.c ****             if(scroll_max < 0) scroll_max = 0;
 2890              		.loc 1 329 68 view .LVU886
 2891 005c 2046     		mov	r0, r4
 2892 005e FFF7FEFF 		bl	lv_obj_get_scroll_right
 2893              	.LVL348:
 329:lvgl/lvgl/src/core/lv_obj_scroll.c ****             if(scroll_max < 0) scroll_max = 0;
 2894              		.loc 1 329 66 view .LVU887
 2895 0062 17FA80F3 		uxtah	r3, r7, r0
 329:lvgl/lvgl/src/core/lv_obj_scroll.c ****             if(scroll_max < 0) scroll_max = 0;
 2896              		.loc 1 329 25 view .LVU888
 2897 0066 1BB2     		sxth	r3, r3
 2898              	.LVL349:
 330:lvgl/lvgl/src/core/lv_obj_scroll.c **** 
 2899              		.loc 1 330 13 is_stmt 1 view .LVU889
 330:lvgl/lvgl/src/core/lv_obj_scroll.c **** 
 2900              		.loc 1 330 15 is_stmt 0 view .LVU890
 2901 0068 002B     		cmp	r3, #0
 2902 006a 04DB     		blt	.L166
ARM GAS  C:\Users\gx\AppData\Local\Temp\ccHlQRWF.s 			page 88


 2903              	.LVL350:
 2904              	.L157:
 332:lvgl/lvgl/src/core/lv_obj_scroll.c ****         }
 2905              		.loc 1 332 13 is_stmt 1 view .LVU891
 332:lvgl/lvgl/src/core/lv_obj_scroll.c ****         }
 2906              		.loc 1 332 20 is_stmt 0 view .LVU892
 2907 006c 5A42     		rsbs	r2, r3, #0
 332:lvgl/lvgl/src/core/lv_obj_scroll.c ****         }
 2908              		.loc 1 332 15 view .LVU893
 2909 006e 9542     		cmp	r5, r2
 2910 0070 04DA     		bge	.L155
 332:lvgl/lvgl/src/core/lv_obj_scroll.c ****         }
 2911              		.loc 1 332 33 is_stmt 1 discriminator 1 view .LVU894
 332:lvgl/lvgl/src/core/lv_obj_scroll.c ****         }
 2912              		.loc 1 332 35 is_stmt 0 discriminator 1 view .LVU895
 2913 0072 15B2     		sxth	r5, r2
 2914              	.LVL351:
 332:lvgl/lvgl/src/core/lv_obj_scroll.c ****         }
 2915              		.loc 1 332 35 discriminator 1 view .LVU896
 2916 0074 02E0     		b	.L155
 2917              	.L166:
 330:lvgl/lvgl/src/core/lv_obj_scroll.c **** 
 2918              		.loc 1 330 43 view .LVU897
 2919 0076 0023     		movs	r3, #0
 2920              	.LVL352:
 330:lvgl/lvgl/src/core/lv_obj_scroll.c **** 
 2921              		.loc 1 330 43 view .LVU898
 2922 0078 F8E7     		b	.L157
 2923              	.LVL353:
 2924              	.L158:
 330:lvgl/lvgl/src/core/lv_obj_scroll.c **** 
 2925              		.loc 1 330 43 view .LVU899
 2926              	.LBE162:
 319:lvgl/lvgl/src/core/lv_obj_scroll.c ****         if(x > 0) {
 2927              		.loc 1 319 21 view .LVU900
 2928 007a 0025     		movs	r5, #0
 2929              	.LVL354:
 2930              	.L155:
 336:lvgl/lvgl/src/core/lv_obj_scroll.c ****     lv_coord_t diff = -x + scroll_x;
 2931              		.loc 1 336 5 is_stmt 1 view .LVU901
 336:lvgl/lvgl/src/core/lv_obj_scroll.c ****     lv_coord_t diff = -x + scroll_x;
 2932              		.loc 1 336 27 is_stmt 0 view .LVU902
 2933 007c 2046     		mov	r0, r4
 2934 007e FFF7FEFF 		bl	lv_obj_get_scroll_x
 2935              	.LVL355:
 337:lvgl/lvgl/src/core/lv_obj_scroll.c **** 
 2936              		.loc 1 337 5 is_stmt 1 view .LVU903
 337:lvgl/lvgl/src/core/lv_obj_scroll.c **** 
 2937              		.loc 1 337 26 is_stmt 0 view .LVU904
 2938 0082 411B     		subs	r1, r0, r5
 2939              	.LVL356:
 339:lvgl/lvgl/src/core/lv_obj_scroll.c **** }
 2940              		.loc 1 339 5 is_stmt 1 view .LVU905
 2941 0084 3346     		mov	r3, r6
 2942 0086 0022     		movs	r2, #0
 2943 0088 09B2     		sxth	r1, r1
 339:lvgl/lvgl/src/core/lv_obj_scroll.c **** }
ARM GAS  C:\Users\gx\AppData\Local\Temp\ccHlQRWF.s 			page 89


 2944              		.loc 1 339 5 is_stmt 0 view .LVU906
 2945 008a 2046     		mov	r0, r4
 2946              	.LVL357:
 339:lvgl/lvgl/src/core/lv_obj_scroll.c **** }
 2947              		.loc 1 339 5 view .LVU907
 2948 008c FFF7FEFF 		bl	lv_obj_scroll_by
 2949              	.LVL358:
 340:lvgl/lvgl/src/core/lv_obj_scroll.c **** 
 2950              		.loc 1 340 1 view .LVU908
 2951 0090 F8BD     		pop	{r3, r4, r5, r6, r7, pc}
 2952              	.LVL359:
 2953              	.L168:
 340:lvgl/lvgl/src/core/lv_obj_scroll.c **** 
 2954              		.loc 1 340 1 view .LVU909
 2955 0092 00BF     		.align	2
 2956              	.L167:
 2957 0094 00000000 		.word	scroll_x_anim
 2958              		.cfi_endproc
 2959              	.LFE175:
 2961              		.section	.text.lv_obj_scroll_to_y,"ax",%progbits
 2962              		.align	1
 2963              		.global	lv_obj_scroll_to_y
 2964              		.syntax unified
 2965              		.thumb
 2966              		.thumb_func
 2967              		.fpu fpv4-sp-d16
 2969              	lv_obj_scroll_to_y:
 2970              	.LVL360:
 2971              	.LFB176:
 343:lvgl/lvgl/src/core/lv_obj_scroll.c ****     lv_anim_del(obj, scroll_y_anim);
 2972              		.loc 1 343 1 is_stmt 1 view -0
 2973              		.cfi_startproc
 2974              		@ args = 0, pretend = 0, frame = 0
 2975              		@ frame_needed = 0, uses_anonymous_args = 0
 343:lvgl/lvgl/src/core/lv_obj_scroll.c ****     lv_anim_del(obj, scroll_y_anim);
 2976              		.loc 1 343 1 is_stmt 0 view .LVU911
 2977 0000 F8B5     		push	{r3, r4, r5, r6, r7, lr}
 2978              	.LCFI21:
 2979              		.cfi_def_cfa_offset 24
 2980              		.cfi_offset 3, -24
 2981              		.cfi_offset 4, -20
 2982              		.cfi_offset 5, -16
 2983              		.cfi_offset 6, -12
 2984              		.cfi_offset 7, -8
 2985              		.cfi_offset 14, -4
 2986 0002 0646     		mov	r6, r0
 2987 0004 0C46     		mov	r4, r1
 2988 0006 1546     		mov	r5, r2
 344:lvgl/lvgl/src/core/lv_obj_scroll.c **** 
 2989              		.loc 1 344 5 is_stmt 1 view .LVU912
 2990 0008 1149     		ldr	r1, .L177
 2991              	.LVL361:
 344:lvgl/lvgl/src/core/lv_obj_scroll.c **** 
 2992              		.loc 1 344 5 is_stmt 0 view .LVU913
 2993 000a FFF7FEFF 		bl	lv_anim_del
 2994              	.LVL362:
 347:lvgl/lvgl/src/core/lv_obj_scroll.c ****     if(y > 0) {
ARM GAS  C:\Users\gx\AppData\Local\Temp\ccHlQRWF.s 			page 90


 2995              		.loc 1 347 5 is_stmt 1 view .LVU914
 347:lvgl/lvgl/src/core/lv_obj_scroll.c ****     if(y > 0) {
 2996              		.loc 1 347 7 is_stmt 0 view .LVU915
 2997 000e 002C     		cmp	r4, #0
 2998 0010 12DB     		blt	.L172
 2999              	.LVL363:
 348:lvgl/lvgl/src/core/lv_obj_scroll.c ****         lv_coord_t  scroll_max = lv_obj_get_scroll_top(obj) + lv_obj_get_scroll_bottom(obj);
 3000              		.loc 1 348 5 is_stmt 1 view .LVU916
 348:lvgl/lvgl/src/core/lv_obj_scroll.c ****         lv_coord_t  scroll_max = lv_obj_get_scroll_top(obj) + lv_obj_get_scroll_bottom(obj);
 3001              		.loc 1 348 7 is_stmt 0 view .LVU917
 3002 0012 12DD     		ble	.L170
 3003              	.LBB163:
 349:lvgl/lvgl/src/core/lv_obj_scroll.c ****         if(scroll_max < 0) scroll_max = 0;
 3004              		.loc 1 349 9 is_stmt 1 view .LVU918
 349:lvgl/lvgl/src/core/lv_obj_scroll.c ****         if(scroll_max < 0) scroll_max = 0;
 3005              		.loc 1 349 34 is_stmt 0 view .LVU919
 3006 0014 3046     		mov	r0, r6
 3007 0016 FFF7FEFF 		bl	lv_obj_get_scroll_top
 3008              	.LVL364:
 3009 001a 87B2     		uxth	r7, r0
 349:lvgl/lvgl/src/core/lv_obj_scroll.c ****         if(scroll_max < 0) scroll_max = 0;
 3010              		.loc 1 349 63 view .LVU920
 3011 001c 3046     		mov	r0, r6
 3012 001e FFF7FEFF 		bl	lv_obj_get_scroll_bottom
 3013              	.LVL365:
 349:lvgl/lvgl/src/core/lv_obj_scroll.c ****         if(scroll_max < 0) scroll_max = 0;
 3014              		.loc 1 349 61 view .LVU921
 3015 0022 17FA80F0 		uxtah	r0, r7, r0
 349:lvgl/lvgl/src/core/lv_obj_scroll.c ****         if(scroll_max < 0) scroll_max = 0;
 3016              		.loc 1 349 21 view .LVU922
 3017 0026 00B2     		sxth	r0, r0
 3018              	.LVL366:
 350:lvgl/lvgl/src/core/lv_obj_scroll.c ****         if(y > scroll_max) y = scroll_max;
 3019              		.loc 1 350 9 is_stmt 1 view .LVU923
 350:lvgl/lvgl/src/core/lv_obj_scroll.c ****         if(y > scroll_max) y = scroll_max;
 3020              		.loc 1 350 11 is_stmt 0 view .LVU924
 3021 0028 0028     		cmp	r0, #0
 3022 002a 03DB     		blt	.L176
 3023              	.LVL367:
 3024              	.L171:
 351:lvgl/lvgl/src/core/lv_obj_scroll.c ****     }
 3025              		.loc 1 351 9 is_stmt 1 view .LVU925
 351:lvgl/lvgl/src/core/lv_obj_scroll.c ****     }
 3026              		.loc 1 351 11 is_stmt 0 view .LVU926
 3027 002c A042     		cmp	r0, r4
 3028 002e 04DA     		bge	.L170
 351:lvgl/lvgl/src/core/lv_obj_scroll.c ****     }
 3029              		.loc 1 351 30 view .LVU927
 3030 0030 0446     		mov	r4, r0
 3031              	.LVL368:
 351:lvgl/lvgl/src/core/lv_obj_scroll.c ****     }
 3032              		.loc 1 351 30 view .LVU928
 3033 0032 02E0     		b	.L170
 3034              	.LVL369:
 3035              	.L176:
 350:lvgl/lvgl/src/core/lv_obj_scroll.c ****         if(y > scroll_max) y = scroll_max;
 3036              		.loc 1 350 39 view .LVU929
ARM GAS  C:\Users\gx\AppData\Local\Temp\ccHlQRWF.s 			page 91


 3037 0034 0020     		movs	r0, #0
 3038              	.LVL370:
 350:lvgl/lvgl/src/core/lv_obj_scroll.c ****         if(y > scroll_max) y = scroll_max;
 3039              		.loc 1 350 39 view .LVU930
 3040 0036 F9E7     		b	.L171
 3041              	.LVL371:
 3042              	.L172:
 350:lvgl/lvgl/src/core/lv_obj_scroll.c ****         if(y > scroll_max) y = scroll_max;
 3043              		.loc 1 350 39 view .LVU931
 3044              	.LBE163:
 347:lvgl/lvgl/src/core/lv_obj_scroll.c ****     if(y > 0) {
 3045              		.loc 1 347 17 view .LVU932
 3046 0038 0024     		movs	r4, #0
 3047              	.LVL372:
 3048              	.L170:
 354:lvgl/lvgl/src/core/lv_obj_scroll.c ****     lv_coord_t diff = -y + scroll_y;
 3049              		.loc 1 354 5 is_stmt 1 view .LVU933
 354:lvgl/lvgl/src/core/lv_obj_scroll.c ****     lv_coord_t diff = -y + scroll_y;
 3050              		.loc 1 354 27 is_stmt 0 view .LVU934
 3051 003a 3046     		mov	r0, r6
 3052 003c FFF7FEFF 		bl	lv_obj_get_scroll_y
 3053              	.LVL373:
 355:lvgl/lvgl/src/core/lv_obj_scroll.c **** 
 3054              		.loc 1 355 5 is_stmt 1 view .LVU935
 355:lvgl/lvgl/src/core/lv_obj_scroll.c **** 
 3055              		.loc 1 355 26 is_stmt 0 view .LVU936
 3056 0040 041B     		subs	r4, r0, r4
 3057              	.LVL374:
 357:lvgl/lvgl/src/core/lv_obj_scroll.c **** }
 3058              		.loc 1 357 5 is_stmt 1 view .LVU937
 3059 0042 2B46     		mov	r3, r5
 3060 0044 22B2     		sxth	r2, r4
 3061 0046 0021     		movs	r1, #0
 3062 0048 3046     		mov	r0, r6
 3063              	.LVL375:
 357:lvgl/lvgl/src/core/lv_obj_scroll.c **** }
 3064              		.loc 1 357 5 is_stmt 0 view .LVU938
 3065 004a FFF7FEFF 		bl	lv_obj_scroll_by
 3066              	.LVL376:
 358:lvgl/lvgl/src/core/lv_obj_scroll.c **** 
 3067              		.loc 1 358 1 view .LVU939
 3068 004e F8BD     		pop	{r3, r4, r5, r6, r7, pc}
 3069              	.LVL377:
 3070              	.L178:
 358:lvgl/lvgl/src/core/lv_obj_scroll.c **** 
 3071              		.loc 1 358 1 view .LVU940
 3072              		.align	2
 3073              	.L177:
 3074 0050 00000000 		.word	scroll_y_anim
 3075              		.cfi_endproc
 3076              	.LFE176:
 3078              		.section	.text.lv_obj_scroll_to,"ax",%progbits
 3079              		.align	1
 3080              		.global	lv_obj_scroll_to
 3081              		.syntax unified
 3082              		.thumb
 3083              		.thumb_func
ARM GAS  C:\Users\gx\AppData\Local\Temp\ccHlQRWF.s 			page 92


 3084              		.fpu fpv4-sp-d16
 3086              	lv_obj_scroll_to:
 3087              	.LVL378:
 3088              	.LFB174:
 308:lvgl/lvgl/src/core/lv_obj_scroll.c ****     lv_obj_scroll_to_x(obj, x, anim_en);
 3089              		.loc 1 308 1 is_stmt 1 view -0
 3090              		.cfi_startproc
 3091              		@ args = 0, pretend = 0, frame = 0
 3092              		@ frame_needed = 0, uses_anonymous_args = 0
 308:lvgl/lvgl/src/core/lv_obj_scroll.c ****     lv_obj_scroll_to_x(obj, x, anim_en);
 3093              		.loc 1 308 1 is_stmt 0 view .LVU942
 3094 0000 70B5     		push	{r4, r5, r6, lr}
 3095              	.LCFI22:
 3096              		.cfi_def_cfa_offset 16
 3097              		.cfi_offset 4, -16
 3098              		.cfi_offset 5, -12
 3099              		.cfi_offset 6, -8
 3100              		.cfi_offset 14, -4
 3101 0002 0546     		mov	r5, r0
 3102 0004 1646     		mov	r6, r2
 3103 0006 1C46     		mov	r4, r3
 309:lvgl/lvgl/src/core/lv_obj_scroll.c ****     lv_obj_scroll_to_y(obj, y, anim_en);
 3104              		.loc 1 309 5 is_stmt 1 view .LVU943
 3105 0008 1A46     		mov	r2, r3
 3106              	.LVL379:
 309:lvgl/lvgl/src/core/lv_obj_scroll.c ****     lv_obj_scroll_to_y(obj, y, anim_en);
 3107              		.loc 1 309 5 is_stmt 0 view .LVU944
 3108 000a FFF7FEFF 		bl	lv_obj_scroll_to_x
 3109              	.LVL380:
 310:lvgl/lvgl/src/core/lv_obj_scroll.c **** }
 3110              		.loc 1 310 5 is_stmt 1 view .LVU945
 3111 000e 2246     		mov	r2, r4
 3112 0010 3146     		mov	r1, r6
 3113 0012 2846     		mov	r0, r5
 3114 0014 FFF7FEFF 		bl	lv_obj_scroll_to_y
 3115              	.LVL381:
 311:lvgl/lvgl/src/core/lv_obj_scroll.c **** 
 3116              		.loc 1 311 1 is_stmt 0 view .LVU946
 3117 0018 70BD     		pop	{r4, r5, r6, pc}
 311:lvgl/lvgl/src/core/lv_obj_scroll.c **** 
 3118              		.loc 1 311 1 view .LVU947
 3119              		.cfi_endproc
 3120              	.LFE174:
 3122              		.section	.text.lv_obj_scroll_to_view,"ax",%progbits
 3123              		.align	1
 3124              		.global	lv_obj_scroll_to_view
 3125              		.syntax unified
 3126              		.thumb
 3127              		.thumb_func
 3128              		.fpu fpv4-sp-d16
 3130              	lv_obj_scroll_to_view:
 3131              	.LVL382:
 3132              	.LFB177:
 361:lvgl/lvgl/src/core/lv_obj_scroll.c ****     /*Be sure the screens layout is correct*/
 3133              		.loc 1 361 1 is_stmt 1 view -0
 3134              		.cfi_startproc
 3135              		@ args = 0, pretend = 0, frame = 8
ARM GAS  C:\Users\gx\AppData\Local\Temp\ccHlQRWF.s 			page 93


 3136              		@ frame_needed = 0, uses_anonymous_args = 0
 361:lvgl/lvgl/src/core/lv_obj_scroll.c ****     /*Be sure the screens layout is correct*/
 3137              		.loc 1 361 1 is_stmt 0 view .LVU949
 3138 0000 30B5     		push	{r4, r5, lr}
 3139              	.LCFI23:
 3140              		.cfi_def_cfa_offset 12
 3141              		.cfi_offset 4, -12
 3142              		.cfi_offset 5, -8
 3143              		.cfi_offset 14, -4
 3144 0002 83B0     		sub	sp, sp, #12
 3145              	.LCFI24:
 3146              		.cfi_def_cfa_offset 24
 3147 0004 0446     		mov	r4, r0
 3148 0006 0D46     		mov	r5, r1
 363:lvgl/lvgl/src/core/lv_obj_scroll.c **** 
 3149              		.loc 1 363 5 is_stmt 1 view .LVU950
 3150 0008 FFF7FEFF 		bl	lv_obj_update_layout
 3151              	.LVL383:
 365:lvgl/lvgl/src/core/lv_obj_scroll.c ****     scroll_area_into_view(&obj->coords, obj, &p, anim_en);
 3152              		.loc 1 365 5 view .LVU951
 365:lvgl/lvgl/src/core/lv_obj_scroll.c ****     scroll_area_into_view(&obj->coords, obj, &p, anim_en);
 3153              		.loc 1 365 16 is_stmt 0 view .LVU952
 3154 000c 0023     		movs	r3, #0
 3155 000e ADF80430 		strh	r3, [sp, #4]	@ movhi
 3156 0012 ADF80630 		strh	r3, [sp, #6]	@ movhi
 366:lvgl/lvgl/src/core/lv_obj_scroll.c **** }
 3157              		.loc 1 366 5 is_stmt 1 view .LVU953
 3158 0016 2B46     		mov	r3, r5
 3159 0018 01AA     		add	r2, sp, #4
 3160 001a 2146     		mov	r1, r4
 3161 001c 04F11400 		add	r0, r4, #20
 3162 0020 FFF7FEFF 		bl	scroll_area_into_view
 3163              	.LVL384:
 367:lvgl/lvgl/src/core/lv_obj_scroll.c **** 
 3164              		.loc 1 367 1 is_stmt 0 view .LVU954
 3165 0024 03B0     		add	sp, sp, #12
 3166              	.LCFI25:
 3167              		.cfi_def_cfa_offset 12
 3168              		@ sp needed
 3169 0026 30BD     		pop	{r4, r5, pc}
 367:lvgl/lvgl/src/core/lv_obj_scroll.c **** 
 3170              		.loc 1 367 1 view .LVU955
 3171              		.cfi_endproc
 3172              	.LFE177:
 3174              		.section	.text.lv_obj_scroll_to_view_recursive,"ax",%progbits
 3175              		.align	1
 3176              		.global	lv_obj_scroll_to_view_recursive
 3177              		.syntax unified
 3178              		.thumb
 3179              		.thumb_func
 3180              		.fpu fpv4-sp-d16
 3182              	lv_obj_scroll_to_view_recursive:
 3183              	.LVL385:
 3184              	.LFB178:
 370:lvgl/lvgl/src/core/lv_obj_scroll.c ****     /*Be sure the screens layout is correct*/
 3185              		.loc 1 370 1 is_stmt 1 view -0
 3186              		.cfi_startproc
ARM GAS  C:\Users\gx\AppData\Local\Temp\ccHlQRWF.s 			page 94


 3187              		@ args = 0, pretend = 0, frame = 8
 3188              		@ frame_needed = 0, uses_anonymous_args = 0
 370:lvgl/lvgl/src/core/lv_obj_scroll.c ****     /*Be sure the screens layout is correct*/
 3189              		.loc 1 370 1 is_stmt 0 view .LVU957
 3190 0000 70B5     		push	{r4, r5, r6, lr}
 3191              	.LCFI26:
 3192              		.cfi_def_cfa_offset 16
 3193              		.cfi_offset 4, -16
 3194              		.cfi_offset 5, -12
 3195              		.cfi_offset 6, -8
 3196              		.cfi_offset 14, -4
 3197 0002 82B0     		sub	sp, sp, #8
 3198              	.LCFI27:
 3199              		.cfi_def_cfa_offset 24
 3200 0004 0546     		mov	r5, r0
 3201 0006 0E46     		mov	r6, r1
 372:lvgl/lvgl/src/core/lv_obj_scroll.c **** 
 3202              		.loc 1 372 5 is_stmt 1 view .LVU958
 3203 0008 FFF7FEFF 		bl	lv_obj_update_layout
 3204              	.LVL386:
 374:lvgl/lvgl/src/core/lv_obj_scroll.c ****     lv_obj_t * child = obj;
 3205              		.loc 1 374 5 view .LVU959
 374:lvgl/lvgl/src/core/lv_obj_scroll.c ****     lv_obj_t * child = obj;
 3206              		.loc 1 374 16 is_stmt 0 view .LVU960
 3207 000c 0023     		movs	r3, #0
 3208 000e ADF80430 		strh	r3, [sp, #4]	@ movhi
 3209 0012 ADF80630 		strh	r3, [sp, #6]	@ movhi
 375:lvgl/lvgl/src/core/lv_obj_scroll.c ****     lv_obj_t * parent = lv_obj_get_parent(child);
 3210              		.loc 1 375 5 is_stmt 1 view .LVU961
 3211              	.LVL387:
 376:lvgl/lvgl/src/core/lv_obj_scroll.c ****     while(parent) {
 3212              		.loc 1 376 5 view .LVU962
 376:lvgl/lvgl/src/core/lv_obj_scroll.c ****     while(parent) {
 3213              		.loc 1 376 25 is_stmt 0 view .LVU963
 3214 0016 2846     		mov	r0, r5
 3215 0018 FFF7FEFF 		bl	lv_obj_get_parent
 3216              	.LVL388:
 3217 001c 0446     		mov	r4, r0
 3218              	.LVL389:
 377:lvgl/lvgl/src/core/lv_obj_scroll.c ****         scroll_area_into_view(&obj->coords, child, &p, anim_en);
 3219              		.loc 1 377 5 is_stmt 1 view .LVU964
 375:lvgl/lvgl/src/core/lv_obj_scroll.c ****     lv_obj_t * parent = lv_obj_get_parent(child);
 3220              		.loc 1 375 16 is_stmt 0 view .LVU965
 3221 001e 2946     		mov	r1, r5
 3222              	.LVL390:
 3223              	.L184:
 377:lvgl/lvgl/src/core/lv_obj_scroll.c ****         scroll_area_into_view(&obj->coords, child, &p, anim_en);
 3224              		.loc 1 377 10 is_stmt 1 view .LVU966
 3225 0020 5CB1     		cbz	r4, .L187
 378:lvgl/lvgl/src/core/lv_obj_scroll.c ****         child = parent;
 3226              		.loc 1 378 9 view .LVU967
 3227 0022 3346     		mov	r3, r6
 3228 0024 01AA     		add	r2, sp, #4
 3229 0026 05F11400 		add	r0, r5, #20
 3230              	.LVL391:
 378:lvgl/lvgl/src/core/lv_obj_scroll.c ****         child = parent;
 3231              		.loc 1 378 9 is_stmt 0 view .LVU968
ARM GAS  C:\Users\gx\AppData\Local\Temp\ccHlQRWF.s 			page 95


 3232 002a FFF7FEFF 		bl	scroll_area_into_view
 3233              	.LVL392:
 379:lvgl/lvgl/src/core/lv_obj_scroll.c ****         parent = lv_obj_get_parent(parent);
 3234              		.loc 1 379 9 is_stmt 1 view .LVU969
 380:lvgl/lvgl/src/core/lv_obj_scroll.c ****     }
 3235              		.loc 1 380 9 view .LVU970
 380:lvgl/lvgl/src/core/lv_obj_scroll.c ****     }
 3236              		.loc 1 380 18 is_stmt 0 view .LVU971
 3237 002e 2046     		mov	r0, r4
 3238 0030 FFF7FEFF 		bl	lv_obj_get_parent
 3239              	.LVL393:
 379:lvgl/lvgl/src/core/lv_obj_scroll.c ****         parent = lv_obj_get_parent(parent);
 3240              		.loc 1 379 15 view .LVU972
 3241 0034 2146     		mov	r1, r4
 380:lvgl/lvgl/src/core/lv_obj_scroll.c ****     }
 3242              		.loc 1 380 18 view .LVU973
 3243 0036 0446     		mov	r4, r0
 3244              	.LVL394:
 380:lvgl/lvgl/src/core/lv_obj_scroll.c ****     }
 3245              		.loc 1 380 18 view .LVU974
 3246 0038 F2E7     		b	.L184
 3247              	.L187:
 382:lvgl/lvgl/src/core/lv_obj_scroll.c **** 
 3248              		.loc 1 382 1 view .LVU975
 3249 003a 02B0     		add	sp, sp, #8
 3250              	.LCFI28:
 3251              		.cfi_def_cfa_offset 16
 3252              		@ sp needed
 3253 003c 70BD     		pop	{r4, r5, r6, pc}
 382:lvgl/lvgl/src/core/lv_obj_scroll.c **** 
 3254              		.loc 1 382 1 view .LVU976
 3255              		.cfi_endproc
 3256              	.LFE178:
 3258              		.section	.text.lv_obj_is_scrolling,"ax",%progbits
 3259              		.align	1
 3260              		.global	lv_obj_is_scrolling
 3261              		.syntax unified
 3262              		.thumb
 3263              		.thumb_func
 3264              		.fpu fpv4-sp-d16
 3266              	lv_obj_is_scrolling:
 3267              	.LVL395:
 3268              	.LFB179:
 385:lvgl/lvgl/src/core/lv_obj_scroll.c ****     lv_indev_t * indev = lv_indev_get_next(NULL);
 3269              		.loc 1 385 1 is_stmt 1 view -0
 3270              		.cfi_startproc
 3271              		@ args = 0, pretend = 0, frame = 0
 3272              		@ frame_needed = 0, uses_anonymous_args = 0
 385:lvgl/lvgl/src/core/lv_obj_scroll.c ****     lv_indev_t * indev = lv_indev_get_next(NULL);
 3273              		.loc 1 385 1 is_stmt 0 view .LVU978
 3274 0000 38B5     		push	{r3, r4, r5, lr}
 3275              	.LCFI29:
 3276              		.cfi_def_cfa_offset 16
 3277              		.cfi_offset 3, -16
 3278              		.cfi_offset 4, -12
 3279              		.cfi_offset 5, -8
 3280              		.cfi_offset 14, -4
ARM GAS  C:\Users\gx\AppData\Local\Temp\ccHlQRWF.s 			page 96


 3281 0002 0546     		mov	r5, r0
 386:lvgl/lvgl/src/core/lv_obj_scroll.c ****     while(indev) {
 3282              		.loc 1 386 5 is_stmt 1 view .LVU979
 386:lvgl/lvgl/src/core/lv_obj_scroll.c ****     while(indev) {
 3283              		.loc 1 386 26 is_stmt 0 view .LVU980
 3284 0004 0020     		movs	r0, #0
 3285              	.LVL396:
 386:lvgl/lvgl/src/core/lv_obj_scroll.c ****     while(indev) {
 3286              		.loc 1 386 26 view .LVU981
 3287 0006 FFF7FEFF 		bl	lv_indev_get_next
 3288              	.LVL397:
 3289 000a 0446     		mov	r4, r0
 3290              	.LVL398:
 387:lvgl/lvgl/src/core/lv_obj_scroll.c ****         if(lv_indev_get_scroll_obj(indev) == obj) return true;
 3291              		.loc 1 387 5 is_stmt 1 view .LVU982
 3292              	.L189:
 387:lvgl/lvgl/src/core/lv_obj_scroll.c ****         if(lv_indev_get_scroll_obj(indev) == obj) return true;
 3293              		.loc 1 387 10 view .LVU983
 3294 000c 4CB1     		cbz	r4, .L194
 388:lvgl/lvgl/src/core/lv_obj_scroll.c ****         indev = lv_indev_get_next(indev);
 3295              		.loc 1 388 9 view .LVU984
 388:lvgl/lvgl/src/core/lv_obj_scroll.c ****         indev = lv_indev_get_next(indev);
 3296              		.loc 1 388 12 is_stmt 0 view .LVU985
 3297 000e 2046     		mov	r0, r4
 388:lvgl/lvgl/src/core/lv_obj_scroll.c ****         indev = lv_indev_get_next(indev);
 3298              		.loc 1 388 12 view .LVU986
 3299 0010 FFF7FEFF 		bl	lv_indev_get_scroll_obj
 3300              	.LVL399:
 388:lvgl/lvgl/src/core/lv_obj_scroll.c ****         indev = lv_indev_get_next(indev);
 3301              		.loc 1 388 11 view .LVU987
 3302 0014 8542     		cmp	r5, r0
 3303 0016 06D0     		beq	.L192
 389:lvgl/lvgl/src/core/lv_obj_scroll.c ****     }
 3304              		.loc 1 389 9 is_stmt 1 view .LVU988
 389:lvgl/lvgl/src/core/lv_obj_scroll.c ****     }
 3305              		.loc 1 389 17 is_stmt 0 view .LVU989
 3306 0018 2046     		mov	r0, r4
 3307 001a FFF7FEFF 		bl	lv_indev_get_next
 3308              	.LVL400:
 3309 001e 0446     		mov	r4, r0
 3310              	.LVL401:
 389:lvgl/lvgl/src/core/lv_obj_scroll.c ****     }
 3311              		.loc 1 389 17 view .LVU990
 3312 0020 F4E7     		b	.L189
 3313              	.L194:
 392:lvgl/lvgl/src/core/lv_obj_scroll.c **** }
 3314              		.loc 1 392 12 view .LVU991
 3315 0022 0020     		movs	r0, #0
 3316              	.LVL402:
 3317              	.L190:
 393:lvgl/lvgl/src/core/lv_obj_scroll.c **** 
 3318              		.loc 1 393 1 view .LVU992
 3319 0024 38BD     		pop	{r3, r4, r5, pc}
 3320              	.LVL403:
 3321              	.L192:
 388:lvgl/lvgl/src/core/lv_obj_scroll.c ****         indev = lv_indev_get_next(indev);
 3322              		.loc 1 388 58 view .LVU993
ARM GAS  C:\Users\gx\AppData\Local\Temp\ccHlQRWF.s 			page 97


 3323 0026 0120     		movs	r0, #1
 3324 0028 FCE7     		b	.L190
 3325              		.cfi_endproc
 3326              	.LFE179:
 3328              		.section	.text.lv_obj_update_snap,"ax",%progbits
 3329              		.align	1
 3330              		.global	lv_obj_update_snap
 3331              		.syntax unified
 3332              		.thumb
 3333              		.thumb_func
 3334              		.fpu fpv4-sp-d16
 3336              	lv_obj_update_snap:
 3337              	.LVL404:
 3338              	.LFB180:
 396:lvgl/lvgl/src/core/lv_obj_scroll.c ****     lv_obj_update_layout(obj);
 3339              		.loc 1 396 1 is_stmt 1 view -0
 3340              		.cfi_startproc
 3341              		@ args = 0, pretend = 0, frame = 8
 3342              		@ frame_needed = 0, uses_anonymous_args = 0
 396:lvgl/lvgl/src/core/lv_obj_scroll.c ****     lv_obj_update_layout(obj);
 3343              		.loc 1 396 1 is_stmt 0 view .LVU995
 3344 0000 30B5     		push	{r4, r5, lr}
 3345              	.LCFI30:
 3346              		.cfi_def_cfa_offset 12
 3347              		.cfi_offset 4, -12
 3348              		.cfi_offset 5, -8
 3349              		.cfi_offset 14, -4
 3350 0002 83B0     		sub	sp, sp, #12
 3351              	.LCFI31:
 3352              		.cfi_def_cfa_offset 24
 3353 0004 0446     		mov	r4, r0
 3354 0006 0D46     		mov	r5, r1
 397:lvgl/lvgl/src/core/lv_obj_scroll.c ****     lv_point_t p;
 3355              		.loc 1 397 5 is_stmt 1 view .LVU996
 3356 0008 FFF7FEFF 		bl	lv_obj_update_layout
 3357              	.LVL405:
 398:lvgl/lvgl/src/core/lv_obj_scroll.c ****     lv_indev_scroll_get_snap_dist(obj, &p);
 3358              		.loc 1 398 5 view .LVU997
 399:lvgl/lvgl/src/core/lv_obj_scroll.c ****     lv_obj_scroll_by(obj, p.x, p.y, anim_en);
 3359              		.loc 1 399 5 view .LVU998
 3360 000c 01A9     		add	r1, sp, #4
 3361 000e 2046     		mov	r0, r4
 3362 0010 FFF7FEFF 		bl	lv_indev_scroll_get_snap_dist
 3363              	.LVL406:
 400:lvgl/lvgl/src/core/lv_obj_scroll.c **** }
 3364              		.loc 1 400 5 view .LVU999
 3365 0014 2B46     		mov	r3, r5
 3366 0016 BDF90620 		ldrsh	r2, [sp, #6]
 3367 001a BDF90410 		ldrsh	r1, [sp, #4]
 3368 001e 2046     		mov	r0, r4
 3369 0020 FFF7FEFF 		bl	lv_obj_scroll_by
 3370              	.LVL407:
 401:lvgl/lvgl/src/core/lv_obj_scroll.c **** 
 3371              		.loc 1 401 1 is_stmt 0 view .LVU1000
 3372 0024 03B0     		add	sp, sp, #12
 3373              	.LCFI32:
 3374              		.cfi_def_cfa_offset 12
ARM GAS  C:\Users\gx\AppData\Local\Temp\ccHlQRWF.s 			page 98


 3375              		@ sp needed
 3376 0026 30BD     		pop	{r4, r5, pc}
 401:lvgl/lvgl/src/core/lv_obj_scroll.c **** 
 3377              		.loc 1 401 1 view .LVU1001
 3378              		.cfi_endproc
 3379              	.LFE180:
 3381              		.section	.text.lv_obj_get_scrollbar_area,"ax",%progbits
 3382              		.align	1
 3383              		.global	lv_obj_get_scrollbar_area
 3384              		.syntax unified
 3385              		.thumb
 3386              		.thumb_func
 3387              		.fpu fpv4-sp-d16
 3389              	lv_obj_get_scrollbar_area:
 3390              	.LVL408:
 3391              	.LFB181:
 404:lvgl/lvgl/src/core/lv_obj_scroll.c ****     lv_area_set(hor_area, 0, 0, -1, -1);
 3392              		.loc 1 404 1 is_stmt 1 view -0
 3393              		.cfi_startproc
 3394              		@ args = 0, pretend = 0, frame = 56
 3395              		@ frame_needed = 0, uses_anonymous_args = 0
 404:lvgl/lvgl/src/core/lv_obj_scroll.c ****     lv_area_set(hor_area, 0, 0, -1, -1);
 3396              		.loc 1 404 1 is_stmt 0 view .LVU1003
 3397 0000 2DE9F04F 		push	{r4, r5, r6, r7, r8, r9, r10, fp, lr}
 3398              	.LCFI33:
 3399              		.cfi_def_cfa_offset 36
 3400              		.cfi_offset 4, -36
 3401              		.cfi_offset 5, -32
 3402              		.cfi_offset 6, -28
 3403              		.cfi_offset 7, -24
 3404              		.cfi_offset 8, -20
 3405              		.cfi_offset 9, -16
 3406              		.cfi_offset 10, -12
 3407              		.cfi_offset 11, -8
 3408              		.cfi_offset 14, -4
 3409 0004 91B0     		sub	sp, sp, #68
 3410              	.LCFI34:
 3411              		.cfi_def_cfa_offset 104
 3412 0006 0446     		mov	r4, r0
 3413 0008 8A46     		mov	r10, r1
 3414 000a 9046     		mov	r8, r2
 405:lvgl/lvgl/src/core/lv_obj_scroll.c ****     lv_area_set(ver_area, 0, 0, -1, -1);
 3415              		.loc 1 405 5 is_stmt 1 view .LVU1004
 3416 000c 4FF0FF35 		mov	r5, #-1
 3417 0010 0095     		str	r5, [sp]
 3418 0012 2B46     		mov	r3, r5
 3419 0014 0022     		movs	r2, #0
 3420              	.LVL409:
 405:lvgl/lvgl/src/core/lv_obj_scroll.c ****     lv_area_set(ver_area, 0, 0, -1, -1);
 3421              		.loc 1 405 5 is_stmt 0 view .LVU1005
 3422 0016 1146     		mov	r1, r2
 3423              	.LVL410:
 405:lvgl/lvgl/src/core/lv_obj_scroll.c ****     lv_area_set(ver_area, 0, 0, -1, -1);
 3424              		.loc 1 405 5 view .LVU1006
 3425 0018 5046     		mov	r0, r10
 3426              	.LVL411:
 405:lvgl/lvgl/src/core/lv_obj_scroll.c ****     lv_area_set(ver_area, 0, 0, -1, -1);
ARM GAS  C:\Users\gx\AppData\Local\Temp\ccHlQRWF.s 			page 99


 3427              		.loc 1 405 5 view .LVU1007
 3428 001a FFF7FEFF 		bl	lv_area_set
 3429              	.LVL412:
 406:lvgl/lvgl/src/core/lv_obj_scroll.c **** 
 3430              		.loc 1 406 5 is_stmt 1 view .LVU1008
 3431 001e 0095     		str	r5, [sp]
 3432 0020 2B46     		mov	r3, r5
 3433 0022 0022     		movs	r2, #0
 3434 0024 1146     		mov	r1, r2
 3435 0026 4046     		mov	r0, r8
 3436 0028 FFF7FEFF 		bl	lv_area_set
 3437              	.LVL413:
 408:lvgl/lvgl/src/core/lv_obj_scroll.c **** 
 3438              		.loc 1 408 5 view .LVU1009
 408:lvgl/lvgl/src/core/lv_obj_scroll.c **** 
 3439              		.loc 1 408 8 is_stmt 0 view .LVU1010
 3440 002c 1021     		movs	r1, #16
 3441 002e 2046     		mov	r0, r4
 3442 0030 FFF7FEFF 		bl	lv_obj_has_flag
 3443              	.LVL414:
 408:lvgl/lvgl/src/core/lv_obj_scroll.c **** 
 3444              		.loc 1 408 7 view .LVU1011
 3445 0034 0390     		str	r0, [sp, #12]
 3446 0036 20B1     		cbz	r0, .L197
 410:lvgl/lvgl/src/core/lv_obj_scroll.c ****     if(sm == LV_SCROLLBAR_MODE_OFF)  return;
 3447              		.loc 1 410 5 is_stmt 1 view .LVU1012
 410:lvgl/lvgl/src/core/lv_obj_scroll.c ****     if(sm == LV_SCROLLBAR_MODE_OFF)  return;
 3448              		.loc 1 410 19 is_stmt 0 view .LVU1013
 3449 0038 2046     		mov	r0, r4
 3450 003a FFF7FEFF 		bl	lv_obj_get_scrollbar_mode
 3451              	.LVL415:
 411:lvgl/lvgl/src/core/lv_obj_scroll.c **** 
 3452              		.loc 1 411 5 is_stmt 1 view .LVU1014
 411:lvgl/lvgl/src/core/lv_obj_scroll.c **** 
 3453              		.loc 1 411 7 is_stmt 0 view .LVU1015
 3454 003e 0646     		mov	r6, r0
 3455 0040 10B9     		cbnz	r0, .L250
 3456              	.LVL416:
 3457              	.L197:
 536:lvgl/lvgl/src/core/lv_obj_scroll.c **** 
 3458              		.loc 1 536 1 view .LVU1016
 3459 0042 11B0     		add	sp, sp, #68
 3460              	.LCFI35:
 3461              		.cfi_remember_state
 3462              		.cfi_def_cfa_offset 36
 3463              		@ sp needed
 3464 0044 BDE8F08F 		pop	{r4, r5, r6, r7, r8, r9, r10, fp, pc}
 3465              	.LVL417:
 3466              	.L250:
 3467              	.LCFI36:
 3468              		.cfi_restore_state
 414:lvgl/lvgl/src/core/lv_obj_scroll.c ****     if(sm == LV_SCROLLBAR_MODE_ACTIVE) {
 3469              		.loc 1 414 5 is_stmt 1 view .LVU1017
 414:lvgl/lvgl/src/core/lv_obj_scroll.c ****     if(sm == LV_SCROLLBAR_MODE_ACTIVE) {
 3470              		.loc 1 414 26 is_stmt 0 view .LVU1018
 3471 0048 0020     		movs	r0, #0
 3472              	.LVL418:
ARM GAS  C:\Users\gx\AppData\Local\Temp\ccHlQRWF.s 			page 100


 414:lvgl/lvgl/src/core/lv_obj_scroll.c ****     if(sm == LV_SCROLLBAR_MODE_ACTIVE) {
 3473              		.loc 1 414 26 view .LVU1019
 3474 004a FFF7FEFF 		bl	lv_indev_get_next
 3475              	.LVL419:
 3476 004e 0546     		mov	r5, r0
 3477              	.LVL420:
 415:lvgl/lvgl/src/core/lv_obj_scroll.c ****         while(indev) {
 3478              		.loc 1 415 5 is_stmt 1 view .LVU1020
 415:lvgl/lvgl/src/core/lv_obj_scroll.c ****         while(indev) {
 3479              		.loc 1 415 7 is_stmt 0 view .LVU1021
 3480 0050 022E     		cmp	r6, #2
 3481 0052 0CD1     		bne	.L200
 3482              	.L199:
 416:lvgl/lvgl/src/core/lv_obj_scroll.c ****             if(lv_indev_get_scroll_obj(indev) == obj) break;
 3483              		.loc 1 416 14 is_stmt 1 view .LVU1022
 3484 0054 4DB1     		cbz	r5, .L201
 417:lvgl/lvgl/src/core/lv_obj_scroll.c ****             indev = lv_indev_get_next(indev);
 3485              		.loc 1 417 13 view .LVU1023
 417:lvgl/lvgl/src/core/lv_obj_scroll.c ****             indev = lv_indev_get_next(indev);
 3486              		.loc 1 417 16 is_stmt 0 view .LVU1024
 3487 0056 2846     		mov	r0, r5
 417:lvgl/lvgl/src/core/lv_obj_scroll.c ****             indev = lv_indev_get_next(indev);
 3488              		.loc 1 417 16 view .LVU1025
 3489 0058 FFF7FEFF 		bl	lv_indev_get_scroll_obj
 3490              	.LVL421:
 417:lvgl/lvgl/src/core/lv_obj_scroll.c ****             indev = lv_indev_get_next(indev);
 3491              		.loc 1 417 15 view .LVU1026
 3492 005c 8442     		cmp	r4, r0
 3493 005e 04D0     		beq	.L201
 418:lvgl/lvgl/src/core/lv_obj_scroll.c ****         }
 3494              		.loc 1 418 13 is_stmt 1 view .LVU1027
 418:lvgl/lvgl/src/core/lv_obj_scroll.c ****         }
 3495              		.loc 1 418 21 is_stmt 0 view .LVU1028
 3496 0060 2846     		mov	r0, r5
 3497 0062 FFF7FEFF 		bl	lv_indev_get_next
 3498              	.LVL422:
 3499 0066 0546     		mov	r5, r0
 3500              	.LVL423:
 418:lvgl/lvgl/src/core/lv_obj_scroll.c ****         }
 3501              		.loc 1 418 21 view .LVU1029
 3502 0068 F4E7     		b	.L199
 3503              	.LVL424:
 3504              	.L201:
 420:lvgl/lvgl/src/core/lv_obj_scroll.c ****     }
 3505              		.loc 1 420 9 is_stmt 1 view .LVU1030
 420:lvgl/lvgl/src/core/lv_obj_scroll.c ****     }
 3506              		.loc 1 420 11 is_stmt 0 view .LVU1031
 3507 006a 002D     		cmp	r5, #0
 3508 006c E9D0     		beq	.L197
 3509              	.L200:
 423:lvgl/lvgl/src/core/lv_obj_scroll.c ****     lv_coord_t sb = lv_obj_get_scroll_bottom(obj);
 3510              		.loc 1 423 5 is_stmt 1 view .LVU1032
 423:lvgl/lvgl/src/core/lv_obj_scroll.c ****     lv_coord_t sb = lv_obj_get_scroll_bottom(obj);
 3511              		.loc 1 423 21 is_stmt 0 view .LVU1033
 3512 006e 2046     		mov	r0, r4
 3513 0070 FFF7FEFF 		bl	lv_obj_get_scroll_top
 3514              	.LVL425:
ARM GAS  C:\Users\gx\AppData\Local\Temp\ccHlQRWF.s 			page 101


 3515 0074 8146     		mov	r9, r0
 3516              	.LVL426:
 424:lvgl/lvgl/src/core/lv_obj_scroll.c ****     lv_coord_t sl = lv_obj_get_scroll_left(obj);
 3517              		.loc 1 424 5 is_stmt 1 view .LVU1034
 424:lvgl/lvgl/src/core/lv_obj_scroll.c ****     lv_coord_t sl = lv_obj_get_scroll_left(obj);
 3518              		.loc 1 424 21 is_stmt 0 view .LVU1035
 3519 0076 2046     		mov	r0, r4
 3520 0078 FFF7FEFF 		bl	lv_obj_get_scroll_bottom
 3521              	.LVL427:
 3522 007c 0490     		str	r0, [sp, #16]
 3523              	.LVL428:
 425:lvgl/lvgl/src/core/lv_obj_scroll.c ****     lv_coord_t sr = lv_obj_get_scroll_right(obj);
 3524              		.loc 1 425 5 is_stmt 1 view .LVU1036
 425:lvgl/lvgl/src/core/lv_obj_scroll.c ****     lv_coord_t sr = lv_obj_get_scroll_right(obj);
 3525              		.loc 1 425 21 is_stmt 0 view .LVU1037
 3526 007e 2046     		mov	r0, r4
 3527 0080 FFF7FEFF 		bl	lv_obj_get_scroll_left
 3528              	.LVL429:
 3529 0084 0590     		str	r0, [sp, #20]
 3530              	.LVL430:
 426:lvgl/lvgl/src/core/lv_obj_scroll.c **** 
 3531              		.loc 1 426 5 is_stmt 1 view .LVU1038
 426:lvgl/lvgl/src/core/lv_obj_scroll.c **** 
 3532              		.loc 1 426 21 is_stmt 0 view .LVU1039
 3533 0086 2046     		mov	r0, r4
 3534 0088 FFF7FEFF 		bl	lv_obj_get_scroll_right
 3535              	.LVL431:
 3536 008c 0690     		str	r0, [sp, #24]
 3537              	.LVL432:
 428:lvgl/lvgl/src/core/lv_obj_scroll.c **** 
 3538              		.loc 1 428 5 is_stmt 1 view .LVU1040
 428:lvgl/lvgl/src/core/lv_obj_scroll.c **** 
 3539              		.loc 1 428 20 is_stmt 0 view .LVU1041
 3540 008e 2046     		mov	r0, r4
 3541 0090 FFF7FEFF 		bl	lv_obj_get_scroll_dir
 3542              	.LVL433:
 3543 0094 0746     		mov	r7, r0
 3544              	.LVL434:
 430:lvgl/lvgl/src/core/lv_obj_scroll.c ****     if((dir & LV_DIR_VER) &&
 3545              		.loc 1 430 5 is_stmt 1 view .LVU1042
 431:lvgl/lvgl/src/core/lv_obj_scroll.c ****             ((sm == LV_SCROLLBAR_MODE_ON) ||
 3546              		.loc 1 431 5 view .LVU1043
 431:lvgl/lvgl/src/core/lv_obj_scroll.c ****             ((sm == LV_SCROLLBAR_MODE_ON) ||
 3547              		.loc 1 431 7 is_stmt 0 view .LVU1044
 3548 0096 10F00C0F 		tst	r0, #12
 3549 009a 1ED0     		beq	.L228
 431:lvgl/lvgl/src/core/lv_obj_scroll.c ****             ((sm == LV_SCROLLBAR_MODE_ON) ||
 3550              		.loc 1 431 27 discriminator 1 view .LVU1045
 3551 009c 012E     		cmp	r6, #1
 3552 009e 00F02B81 		beq	.L229
 432:lvgl/lvgl/src/core/lv_obj_scroll.c ****                     (sm == LV_SCROLLBAR_MODE_AUTO && (st > 0 || sb > 0)) ||
 3553              		.loc 1 432 43 view .LVU1046
 3554 00a2 032E     		cmp	r6, #3
 3555 00a4 04D0     		beq	.L251
 3556              	.L204:
 433:lvgl/lvgl/src/core/lv_obj_scroll.c ****                     (sm == LV_SCROLLBAR_MODE_ACTIVE && lv_indev_get_scroll_dir(indev) == LV_DIR_VER
 3557              		.loc 1 433 74 discriminator 2 view .LVU1047
ARM GAS  C:\Users\gx\AppData\Local\Temp\ccHlQRWF.s 			page 102


 3558 00a6 022E     		cmp	r6, #2
 3559 00a8 0ED0     		beq	.L252
 430:lvgl/lvgl/src/core/lv_obj_scroll.c ****     if((dir & LV_DIR_VER) &&
 3560              		.loc 1 430 10 view .LVU1048
 3561 00aa 4FF0000B 		mov	fp, #0
 3562 00ae 16E0     		b	.L203
 3563              	.L251:
 433:lvgl/lvgl/src/core/lv_obj_scroll.c ****                     (sm == LV_SCROLLBAR_MODE_ACTIVE && lv_indev_get_scroll_dir(indev) == LV_DIR_VER
 3564              		.loc 1 433 51 view .LVU1049
 3565 00b0 B9F1000F 		cmp	r9, #0
 3566 00b4 02DD     		ble	.L253
 435:lvgl/lvgl/src/core/lv_obj_scroll.c ****     }
 3567              		.loc 1 435 18 view .LVU1050
 3568 00b6 DDF80CB0 		ldr	fp, [sp, #12]
 3569 00ba 10E0     		b	.L203
 3570              	.L253:
 433:lvgl/lvgl/src/core/lv_obj_scroll.c ****                     (sm == LV_SCROLLBAR_MODE_ACTIVE && lv_indev_get_scroll_dir(indev) == LV_DIR_VER
 3571              		.loc 1 433 62 discriminator 1 view .LVU1051
 3572 00bc 049B     		ldr	r3, [sp, #16]
 3573 00be 002B     		cmp	r3, #0
 3574 00c0 F1DD     		ble	.L204
 435:lvgl/lvgl/src/core/lv_obj_scroll.c ****     }
 3575              		.loc 1 435 18 view .LVU1052
 3576 00c2 DDF80CB0 		ldr	fp, [sp, #12]
 3577 00c6 0AE0     		b	.L203
 3578              	.L252:
 434:lvgl/lvgl/src/core/lv_obj_scroll.c ****         ver_draw = true;
 3579              		.loc 1 434 56 view .LVU1053
 3580 00c8 2846     		mov	r0, r5
 3581              	.LVL435:
 434:lvgl/lvgl/src/core/lv_obj_scroll.c ****         ver_draw = true;
 3582              		.loc 1 434 56 view .LVU1054
 3583 00ca FFF7FEFF 		bl	lv_indev_get_scroll_dir
 3584              	.LVL436:
 434:lvgl/lvgl/src/core/lv_obj_scroll.c ****         ver_draw = true;
 3585              		.loc 1 434 53 view .LVU1055
 3586 00ce 0C28     		cmp	r0, #12
 3587 00d0 00F01581 		beq	.L233
 430:lvgl/lvgl/src/core/lv_obj_scroll.c ****     if((dir & LV_DIR_VER) &&
 3588              		.loc 1 430 10 view .LVU1056
 3589 00d4 4FF0000B 		mov	fp, #0
 3590 00d8 01E0     		b	.L203
 3591              	.LVL437:
 3592              	.L228:
 430:lvgl/lvgl/src/core/lv_obj_scroll.c ****     if((dir & LV_DIR_VER) &&
 3593              		.loc 1 430 10 view .LVU1057
 3594 00da 4FF0000B 		mov	fp, #0
 3595              	.LVL438:
 3596              	.L203:
 439:lvgl/lvgl/src/core/lv_obj_scroll.c ****     if((dir & LV_DIR_HOR) &&
 3597              		.loc 1 439 5 is_stmt 1 view .LVU1058
 440:lvgl/lvgl/src/core/lv_obj_scroll.c ****             ((sm == LV_SCROLLBAR_MODE_ON) ||
 3598              		.loc 1 440 5 view .LVU1059
 440:lvgl/lvgl/src/core/lv_obj_scroll.c ****             ((sm == LV_SCROLLBAR_MODE_ON) ||
 3599              		.loc 1 440 7 is_stmt 0 view .LVU1060
 3600 00de 17F0030F 		tst	r7, #3
 3601 00e2 07D0     		beq	.L205
ARM GAS  C:\Users\gx\AppData\Local\Temp\ccHlQRWF.s 			page 103


 440:lvgl/lvgl/src/core/lv_obj_scroll.c ****             ((sm == LV_SCROLLBAR_MODE_ON) ||
 3602              		.loc 1 440 27 discriminator 1 view .LVU1061
 3603 00e4 012E     		cmp	r6, #1
 3604 00e6 0AD0     		beq	.L206
 441:lvgl/lvgl/src/core/lv_obj_scroll.c ****                     (sm == LV_SCROLLBAR_MODE_AUTO && (sl > 0 || sr > 0)) ||
 3605              		.loc 1 441 43 view .LVU1062
 3606 00e8 032E     		cmp	r6, #3
 3607 00ea 00F00B81 		beq	.L254
 3608              	.L207:
 442:lvgl/lvgl/src/core/lv_obj_scroll.c ****                     (sm == LV_SCROLLBAR_MODE_ACTIVE && lv_indev_get_scroll_dir(indev) == LV_DIR_HOR
 3609              		.loc 1 442 74 discriminator 2 view .LVU1063
 3610 00ee 022E     		cmp	r6, #2
 3611 00f0 00F01181 		beq	.L255
 3612              	.L205:
 3613              	.LVL439:
 447:lvgl/lvgl/src/core/lv_obj_scroll.c **** 
 3614              		.loc 1 447 18 discriminator 1 view .LVU1064
 3615 00f4 BBF1000F 		cmp	fp, #0
 3616 00f8 A3D0     		beq	.L197
 3617 00fa 0023     		movs	r3, #0
 3618 00fc 0393     		str	r3, [sp, #12]
 3619              	.L206:
 449:lvgl/lvgl/src/core/lv_obj_scroll.c ****     lv_coord_t side_space = lv_obj_get_style_pad_right(obj, LV_PART_SCROLLBAR);
 3620              		.loc 1 449 5 is_stmt 1 view .LVU1065
 3621              	.LVL440:
 3622              	.LBB164:
 3623              	.LBI164:
  91:lvgl/lvgl/src/core/lv_obj_style_gen.h **** {
 3624              		.loc 2 91 26 view .LVU1066
 3625              	.LBB165:
  93:lvgl/lvgl/src/core/lv_obj_style_gen.h ****     return (lv_coord_t)v.num;
 3626              		.loc 2 93 5 view .LVU1067
  93:lvgl/lvgl/src/core/lv_obj_style_gen.h ****     return (lv_coord_t)v.num;
 3627              		.loc 2 93 26 is_stmt 0 view .LVU1068
 3628 00fe 41F21002 		movw	r2, #4112
 3629 0102 4FF48031 		mov	r1, #65536
 3630 0106 2046     		mov	r0, r4
 3631 0108 FFF7FEFF 		bl	lv_obj_get_style_prop
 3632              	.LVL441:
 3633 010c 0B90     		str	r0, [sp, #44]
  94:lvgl/lvgl/src/core/lv_obj_style_gen.h **** }
 3634              		.loc 2 94 5 is_stmt 1 view .LVU1069
  94:lvgl/lvgl/src/core/lv_obj_style_gen.h **** }
 3635              		.loc 2 94 12 is_stmt 0 view .LVU1070
 3636 010e 03B2     		sxth	r3, r0
 3637 0110 0A93     		str	r3, [sp, #40]
 3638              	.LVL442:
  94:lvgl/lvgl/src/core/lv_obj_style_gen.h **** }
 3639              		.loc 2 94 12 view .LVU1071
 3640              	.LBE165:
 3641              	.LBE164:
 450:lvgl/lvgl/src/core/lv_obj_scroll.c ****     lv_coord_t tickness = lv_obj_get_style_width(obj, LV_PART_SCROLLBAR);
 3642              		.loc 1 450 5 is_stmt 1 view .LVU1072
 3643              	.LBB166:
 3644              	.LBI166:
 109:lvgl/lvgl/src/core/lv_obj_style_gen.h **** {
 3645              		.loc 2 109 26 view .LVU1073
ARM GAS  C:\Users\gx\AppData\Local\Temp\ccHlQRWF.s 			page 104


 3646              	.LBB167:
 111:lvgl/lvgl/src/core/lv_obj_style_gen.h ****     return (lv_coord_t)v.num;
 3647              		.loc 2 111 5 view .LVU1074
 111:lvgl/lvgl/src/core/lv_obj_style_gen.h ****     return (lv_coord_t)v.num;
 3648              		.loc 2 111 26 is_stmt 0 view .LVU1075
 3649 0112 41F21302 		movw	r2, #4115
 3650 0116 4FF48031 		mov	r1, #65536
 3651 011a 2046     		mov	r0, r4
 3652 011c FFF7FEFF 		bl	lv_obj_get_style_prop
 3653              	.LVL443:
 3654 0120 0546     		mov	r5, r0
 3655              	.LVL444:
 111:lvgl/lvgl/src/core/lv_obj_style_gen.h ****     return (lv_coord_t)v.num;
 3656              		.loc 2 111 26 view .LVU1076
 3657 0122 0990     		str	r0, [sp, #36]
 112:lvgl/lvgl/src/core/lv_obj_style_gen.h **** }
 3658              		.loc 2 112 5 is_stmt 1 view .LVU1077
 3659              	.LVL445:
 112:lvgl/lvgl/src/core/lv_obj_style_gen.h **** }
 3660              		.loc 2 112 5 is_stmt 0 view .LVU1078
 3661              	.LBE167:
 3662              	.LBE166:
 451:lvgl/lvgl/src/core/lv_obj_scroll.c **** 
 3663              		.loc 1 451 5 is_stmt 1 view .LVU1079
 3664              	.LBB168:
 3665              	.LBI168:
   1:lvgl/lvgl/src/core/lv_obj_style_gen.h **** {
 3666              		.loc 2 1 26 view .LVU1080
 3667              	.LBB169:
   3:lvgl/lvgl/src/core/lv_obj_style_gen.h ****     return (lv_coord_t)v.num;
 3668              		.loc 2 3 5 view .LVU1081
   3:lvgl/lvgl/src/core/lv_obj_style_gen.h ****     return (lv_coord_t)v.num;
 3669              		.loc 2 3 26 is_stmt 0 view .LVU1082
 3670 0124 41F20102 		movw	r2, #4097
 3671 0128 4FF48031 		mov	r1, #65536
 3672 012c 2046     		mov	r0, r4
 3673 012e FFF7FEFF 		bl	lv_obj_get_style_prop
 3674              	.LVL446:
 3675 0132 0646     		mov	r6, r0
   4:lvgl/lvgl/src/core/lv_obj_style_gen.h **** }
 3676              		.loc 2 4 5 is_stmt 1 view .LVU1083
 3677              	.LVL447:
   4:lvgl/lvgl/src/core/lv_obj_style_gen.h **** }
 3678              		.loc 2 4 5 is_stmt 0 view .LVU1084
 3679              	.LBE169:
 3680              	.LBE168:
 453:lvgl/lvgl/src/core/lv_obj_scroll.c ****     lv_coord_t obj_w = lv_obj_get_width(obj);
 3681              		.loc 1 453 5 is_stmt 1 view .LVU1085
 453:lvgl/lvgl/src/core/lv_obj_scroll.c ****     lv_coord_t obj_w = lv_obj_get_width(obj);
 3682              		.loc 1 453 24 is_stmt 0 view .LVU1086
 3683 0134 2046     		mov	r0, r4
 3684 0136 FFF7FEFF 		bl	lv_obj_get_height
 3685              	.LVL448:
 3686 013a 0790     		str	r0, [sp, #28]
 3687              	.LVL449:
 454:lvgl/lvgl/src/core/lv_obj_scroll.c **** 
 3688              		.loc 1 454 5 is_stmt 1 view .LVU1087
ARM GAS  C:\Users\gx\AppData\Local\Temp\ccHlQRWF.s 			page 105


 454:lvgl/lvgl/src/core/lv_obj_scroll.c **** 
 3689              		.loc 1 454 24 is_stmt 0 view .LVU1088
 3690 013c 2046     		mov	r0, r4
 3691 013e FFF7FEFF 		bl	lv_obj_get_width
 3692              	.LVL450:
 3693 0142 0890     		str	r0, [sp, #32]
 3694              	.LVL451:
 456:lvgl/lvgl/src/core/lv_obj_scroll.c ****     lv_coord_t hor_req_space = hor_draw ? tickness + side_space : 0;
 3695              		.loc 1 456 5 is_stmt 1 view .LVU1089
 456:lvgl/lvgl/src/core/lv_obj_scroll.c ****     lv_coord_t hor_req_space = hor_draw ? tickness + side_space : 0;
 3696              		.loc 1 456 16 is_stmt 0 view .LVU1090
 3697 0144 BBF1000F 		cmp	fp, #0
 3698 0148 00F0EC80 		beq	.L234
 456:lvgl/lvgl/src/core/lv_obj_scroll.c ****     lv_coord_t hor_req_space = hor_draw ? tickness + side_space : 0;
 3699              		.loc 1 456 52 discriminator 1 view .LVU1091
 3700 014c 7319     		adds	r3, r6, r5
 456:lvgl/lvgl/src/core/lv_obj_scroll.c ****     lv_coord_t hor_req_space = hor_draw ? tickness + side_space : 0;
 3701              		.loc 1 456 16 discriminator 1 view .LVU1092
 3702 014e 1BB2     		sxth	r3, r3
 3703 0150 0C93     		str	r3, [sp, #48]
 3704              	.L208:
 3705              	.LVL452:
 457:lvgl/lvgl/src/core/lv_obj_scroll.c ****     lv_coord_t rem;
 3706              		.loc 1 457 5 is_stmt 1 discriminator 4 view .LVU1093
 457:lvgl/lvgl/src/core/lv_obj_scroll.c ****     lv_coord_t rem;
 3707              		.loc 1 457 16 is_stmt 0 discriminator 4 view .LVU1094
 3708 0152 039B     		ldr	r3, [sp, #12]
 3709 0154 002B     		cmp	r3, #0
 3710 0156 00F0E880 		beq	.L235
 457:lvgl/lvgl/src/core/lv_obj_scroll.c ****     lv_coord_t rem;
 3711              		.loc 1 457 52 discriminator 1 view .LVU1095
 3712 015a 099B     		ldr	r3, [sp, #36]
 3713 015c F718     		adds	r7, r6, r3
 457:lvgl/lvgl/src/core/lv_obj_scroll.c ****     lv_coord_t rem;
 3714              		.loc 1 457 16 discriminator 1 view .LVU1096
 3715 015e 3FB2     		sxth	r7, r7
 3716              	.L209:
 3717              	.LVL453:
 458:lvgl/lvgl/src/core/lv_obj_scroll.c **** 
 3718              		.loc 1 458 5 is_stmt 1 discriminator 4 view .LVU1097
 460:lvgl/lvgl/src/core/lv_obj_scroll.c ****        lv_obj_get_style_border_opa(obj, LV_PART_SCROLLBAR) < LV_OPA_MIN) {
 3719              		.loc 1 460 5 discriminator 4 view .LVU1098
 3720              	.LBB170:
 3721              	.LBI170:
 205:lvgl/lvgl/src/core/lv_obj_style_gen.h **** {
 3722              		.loc 2 205 24 discriminator 4 view .LVU1099
 3723              	.LBB171:
 207:lvgl/lvgl/src/core/lv_obj_style_gen.h ****     return (lv_opa_t)v.num;
 3724              		.loc 2 207 5 discriminator 4 view .LVU1100
 207:lvgl/lvgl/src/core/lv_obj_style_gen.h ****     return (lv_opa_t)v.num;
 3725              		.loc 2 207 26 is_stmt 0 discriminator 4 view .LVU1101
 3726 0160 2122     		movs	r2, #33
 3727 0162 4FF48031 		mov	r1, #65536
 3728 0166 2046     		mov	r0, r4
 3729 0168 FFF7FEFF 		bl	lv_obj_get_style_prop
 3730              	.LVL454:
 208:lvgl/lvgl/src/core/lv_obj_style_gen.h **** }
ARM GAS  C:\Users\gx\AppData\Local\Temp\ccHlQRWF.s 			page 106


 3731              		.loc 2 208 5 is_stmt 1 discriminator 4 view .LVU1102
 208:lvgl/lvgl/src/core/lv_obj_style_gen.h **** }
 3732              		.loc 2 208 12 is_stmt 0 discriminator 4 view .LVU1103
 3733 016c C0B2     		uxtb	r0, r0
 3734              	.LVL455:
 208:lvgl/lvgl/src/core/lv_obj_style_gen.h **** }
 3735              		.loc 2 208 12 discriminator 4 view .LVU1104
 3736              	.LBE171:
 3737              	.LBE170:
 460:lvgl/lvgl/src/core/lv_obj_scroll.c ****        lv_obj_get_style_border_opa(obj, LV_PART_SCROLLBAR) < LV_OPA_MIN) {
 3738              		.loc 1 460 7 discriminator 4 view .LVU1105
 3739 016e 0128     		cmp	r0, #1
 3740 0170 40F2DD80 		bls	.L256
 3741              	.L210:
 466:lvgl/lvgl/src/core/lv_obj_scroll.c ****     if(ver_draw && content_h) {
 3742              		.loc 1 466 5 is_stmt 1 view .LVU1106
 466:lvgl/lvgl/src/core/lv_obj_scroll.c ****     if(ver_draw && content_h) {
 3743              		.loc 1 466 34 is_stmt 0 view .LVU1107
 3744 0174 BDF81C50 		ldrh	r5, [sp, #28]
 3745              	.LVL456:
 466:lvgl/lvgl/src/core/lv_obj_scroll.c ****     if(ver_draw && content_h) {
 3746              		.loc 1 466 34 view .LVU1108
 3747 0178 A944     		add	r9, r9, r5
 3748              	.LVL457:
 466:lvgl/lvgl/src/core/lv_obj_scroll.c ****     if(ver_draw && content_h) {
 3749              		.loc 1 466 39 view .LVU1109
 3750 017a 049B     		ldr	r3, [sp, #16]
 3751 017c 13FA89F9 		uxtah	r9, r3, r9
 3752 0180 1FFA89F3 		uxth	r3, r9
 3753 0184 0D93     		str	r3, [sp, #52]
 466:lvgl/lvgl/src/core/lv_obj_scroll.c ****     if(ver_draw && content_h) {
 3754              		.loc 1 466 16 view .LVU1110
 3755 0186 0FFA89F3 		sxth	r3, r9
 3756              	.LVL458:
 467:lvgl/lvgl/src/core/lv_obj_scroll.c ****        ver_area->y1 = obj->coords.y1;
 3757              		.loc 1 467 5 is_stmt 1 view .LVU1111
 467:lvgl/lvgl/src/core/lv_obj_scroll.c ****        ver_area->y1 = obj->coords.y1;
 3758              		.loc 1 467 7 is_stmt 0 view .LVU1112
 3759 018a BBF1000F 		cmp	fp, #0
 3760 018e 02D0     		beq	.L211
 467:lvgl/lvgl/src/core/lv_obj_scroll.c ****        ver_area->y1 = obj->coords.y1;
 3761              		.loc 1 467 17 discriminator 1 view .LVU1113
 3762 0190 002B     		cmp	r3, #0
 3763 0192 40F0D780 		bne	.L257
 3764              	.LVL459:
 3765              	.L211:
 502:lvgl/lvgl/src/core/lv_obj_scroll.c ****     if(hor_draw && content_w) {
 3766              		.loc 1 502 5 is_stmt 1 view .LVU1114
 502:lvgl/lvgl/src/core/lv_obj_scroll.c ****     if(hor_draw && content_w) {
 3767              		.loc 1 502 34 is_stmt 0 view .LVU1115
 3768 0196 BDF82090 		ldrh	r9, [sp, #32]
 3769 019a 059B     		ldr	r3, [sp, #20]
 3770 019c 4B44     		add	r3, r3, r9
 3771 019e 1846     		mov	r0, r3
 502:lvgl/lvgl/src/core/lv_obj_scroll.c ****     if(hor_draw && content_w) {
 3772              		.loc 1 502 39 view .LVU1116
 3773 01a0 069B     		ldr	r3, [sp, #24]
ARM GAS  C:\Users\gx\AppData\Local\Temp\ccHlQRWF.s 			page 107


 3774 01a2 13FA80F0 		uxtah	r0, r3, r0
 3775 01a6 1FFA80FB 		uxth	fp, r0
 502:lvgl/lvgl/src/core/lv_obj_scroll.c ****     if(hor_draw && content_w) {
 3776              		.loc 1 502 16 view .LVU1117
 3777 01aa 00B2     		sxth	r0, r0
 3778              	.LVL460:
 503:lvgl/lvgl/src/core/lv_obj_scroll.c ****         hor_area->y2 = obj->coords.y2 - side_space;
 3779              		.loc 1 503 5 is_stmt 1 view .LVU1118
 503:lvgl/lvgl/src/core/lv_obj_scroll.c ****         hor_area->y2 = obj->coords.y2 - side_space;
 3780              		.loc 1 503 7 is_stmt 0 view .LVU1119
 3781 01ac 039B     		ldr	r3, [sp, #12]
 3782 01ae 002B     		cmp	r3, #0
 3783 01b0 3FF447AF 		beq	.L197
 503:lvgl/lvgl/src/core/lv_obj_scroll.c ****         hor_area->y2 = obj->coords.y2 - side_space;
 3784              		.loc 1 503 17 discriminator 1 view .LVU1120
 3785 01b4 0028     		cmp	r0, #0
 3786 01b6 3FF444AF 		beq	.L197
 3787              	.LBB172:
 504:lvgl/lvgl/src/core/lv_obj_scroll.c ****         hor_area->y1 = hor_area->y2 - tickness;
 3788              		.loc 1 504 9 is_stmt 1 view .LVU1121
 504:lvgl/lvgl/src/core/lv_obj_scroll.c ****         hor_area->y1 = hor_area->y2 - tickness;
 3789              		.loc 1 504 35 is_stmt 0 view .LVU1122
 3790 01ba 638B     		ldrh	r3, [r4, #26]
 504:lvgl/lvgl/src/core/lv_obj_scroll.c ****         hor_area->y1 = hor_area->y2 - tickness;
 3791              		.loc 1 504 39 view .LVU1123
 3792 01bc BDF82470 		ldrh	r7, [sp, #36]
 3793 01c0 DB1B     		subs	r3, r3, r7
 3794 01c2 9AB2     		uxth	r2, r3
 504:lvgl/lvgl/src/core/lv_obj_scroll.c ****         hor_area->y1 = hor_area->y2 - tickness;
 3795              		.loc 1 504 22 view .LVU1124
 3796 01c4 AAF80630 		strh	r3, [r10, #6]	@ movhi
 505:lvgl/lvgl/src/core/lv_obj_scroll.c ****         hor_area->x1 = obj->coords.x1;
 3797              		.loc 1 505 9 is_stmt 1 view .LVU1125
 505:lvgl/lvgl/src/core/lv_obj_scroll.c ****         hor_area->x1 = obj->coords.x1;
 3798              		.loc 1 505 37 is_stmt 0 view .LVU1126
 3799 01c8 B6B2     		uxth	r6, r6
 505:lvgl/lvgl/src/core/lv_obj_scroll.c ****         hor_area->x1 = obj->coords.x1;
 3800              		.loc 1 505 37 view .LVU1127
 3801 01ca 931B     		subs	r3, r2, r6
 505:lvgl/lvgl/src/core/lv_obj_scroll.c ****         hor_area->x1 = obj->coords.x1;
 3802              		.loc 1 505 22 view .LVU1128
 3803 01cc AAF80230 		strh	r3, [r10, #2]	@ movhi
 506:lvgl/lvgl/src/core/lv_obj_scroll.c ****         hor_area->x2 = obj->coords.x2;
 3804              		.loc 1 506 9 is_stmt 1 view .LVU1129
 506:lvgl/lvgl/src/core/lv_obj_scroll.c ****         hor_area->x2 = obj->coords.x2;
 3805              		.loc 1 506 35 is_stmt 0 view .LVU1130
 3806 01d0 B4F91430 		ldrsh	r3, [r4, #20]
 506:lvgl/lvgl/src/core/lv_obj_scroll.c ****         hor_area->x2 = obj->coords.x2;
 3807              		.loc 1 506 22 view .LVU1131
 3808 01d4 AAF80030 		strh	r3, [r10]	@ movhi
 507:lvgl/lvgl/src/core/lv_obj_scroll.c **** 
 3809              		.loc 1 507 9 is_stmt 1 view .LVU1132
 507:lvgl/lvgl/src/core/lv_obj_scroll.c **** 
 3810              		.loc 1 507 35 is_stmt 0 view .LVU1133
 3811 01d8 B4F91830 		ldrsh	r3, [r4, #24]
 507:lvgl/lvgl/src/core/lv_obj_scroll.c **** 
 3812              		.loc 1 507 22 view .LVU1134
ARM GAS  C:\Users\gx\AppData\Local\Temp\ccHlQRWF.s 			page 108


 3813 01dc AAF80430 		strh	r3, [r10, #4]	@ movhi
 509:lvgl/lvgl/src/core/lv_obj_scroll.c ****         sb_w = LV_MAX(sb_w, SCROLLBAR_MIN_SIZE);
 3814              		.loc 1 509 9 is_stmt 1 view .LVU1135
 509:lvgl/lvgl/src/core/lv_obj_scroll.c ****         sb_w = LV_MAX(sb_w, SCROLLBAR_MIN_SIZE);
 3815              		.loc 1 509 35 is_stmt 0 view .LVU1136
 3816 01e0 089B     		ldr	r3, [sp, #32]
 3817 01e2 0A99     		ldr	r1, [sp, #40]
 3818 01e4 A3EB4108 		sub	r8, r3, r1, lsl #1
 3819              	.LVL461:
 509:lvgl/lvgl/src/core/lv_obj_scroll.c ****         sb_w = LV_MAX(sb_w, SCROLLBAR_MIN_SIZE);
 3820              		.loc 1 509 51 view .LVU1137
 3821 01e8 0C9A     		ldr	r2, [sp, #48]
 3822 01ea 0392     		str	r2, [sp, #12]
 3823 01ec A8EB0208 		sub	r8, r8, r2
 509:lvgl/lvgl/src/core/lv_obj_scroll.c ****         sb_w = LV_MAX(sb_w, SCROLLBAR_MIN_SIZE);
 3824              		.loc 1 509 68 view .LVU1138
 3825 01f0 08FB03F8 		mul	r8, r8, r3
 509:lvgl/lvgl/src/core/lv_obj_scroll.c ****         sb_w = LV_MAX(sb_w, SCROLLBAR_MIN_SIZE);
 3826              		.loc 1 509 77 view .LVU1139
 3827 01f4 98FBF0F0 		sdiv	r0, r8, r0
 3828              	.LVL462:
 509:lvgl/lvgl/src/core/lv_obj_scroll.c ****         sb_w = LV_MAX(sb_w, SCROLLBAR_MIN_SIZE);
 3829              		.loc 1 509 20 view .LVU1140
 3830 01f8 0FFA80F8 		sxth	r8, r0
 3831              	.LVL463:
 510:lvgl/lvgl/src/core/lv_obj_scroll.c ****         rem = (obj_w - end_space * 2 - ver_reg_space) - sb_w;  /*Remaining size from the scrollbar 
 3832              		.loc 1 510 9 is_stmt 1 view .LVU1141
 510:lvgl/lvgl/src/core/lv_obj_scroll.c ****         rem = (obj_w - end_space * 2 - ver_reg_space) - sb_w;  /*Remaining size from the scrollbar 
 3833              		.loc 1 510 16 is_stmt 0 view .LVU1142
 3834 01fc 4546     		mov	r5, r8
 3835 01fe 0020     		movs	r0, #0
 3836 0200 FFF7FEFF 		bl	lv_disp_get_dpi
 3837              	.LVL464:
 3838 0204 00EB8000 		add	r0, r0, r0, lsl #2
 3839 0208 4000     		lsls	r0, r0, #1
 3840 020a EF28     		cmp	r0, #239
 3841 020c 00F3D081 		bgt	.L258
 3842 0210 0123     		movs	r3, #1
 3843              	.L220:
 510:lvgl/lvgl/src/core/lv_obj_scroll.c ****         rem = (obj_w - end_space * 2 - ver_reg_space) - sb_w;  /*Remaining size from the scrollbar 
 3844              		.loc 1 510 14 discriminator 4 view .LVU1143
 3845 0212 9D42     		cmp	r5, r3
 3846 0214 40F3DA81 		ble	.L259
 3847              	.LVL465:
 3848              	.L221:
 511:lvgl/lvgl/src/core/lv_obj_scroll.c ****         lv_coord_t scroll_w = content_w - obj_w; /*The size of the content which can be really scro
 3849              		.loc 1 511 9 is_stmt 1 discriminator 12 view .LVU1144
 511:lvgl/lvgl/src/core/lv_obj_scroll.c ****         lv_coord_t scroll_w = content_w - obj_w; /*The size of the content which can be really scro
 3850              		.loc 1 511 34 is_stmt 0 discriminator 12 view .LVU1145
 3851 0218 BDF82C50 		ldrh	r5, [sp, #44]
 3852 021c 6B00     		lsls	r3, r5, #1
 3853 021e 9BB2     		uxth	r3, r3
 511:lvgl/lvgl/src/core/lv_obj_scroll.c ****         lv_coord_t scroll_w = content_w - obj_w; /*The size of the content which can be really scro
 3854              		.loc 1 511 22 discriminator 12 view .LVU1146
 3855 0220 A9EB0303 		sub	r3, r9, r3
 3856 0224 9BB2     		uxth	r3, r3
 511:lvgl/lvgl/src/core/lv_obj_scroll.c ****         lv_coord_t scroll_w = content_w - obj_w; /*The size of the content which can be really scro
ARM GAS  C:\Users\gx\AppData\Local\Temp\ccHlQRWF.s 			page 109


 3857              		.loc 1 511 38 discriminator 12 view .LVU1147
 3858 0226 BDF83010 		ldrh	r1, [sp, #48]
 3859 022a 0491     		str	r1, [sp, #16]
 3860              	.LVL466:
 511:lvgl/lvgl/src/core/lv_obj_scroll.c ****         lv_coord_t scroll_w = content_w - obj_w; /*The size of the content which can be really scro
 3861              		.loc 1 511 38 discriminator 12 view .LVU1148
 3862 022c 5B1A     		subs	r3, r3, r1
 3863 022e 9BB2     		uxth	r3, r3
 511:lvgl/lvgl/src/core/lv_obj_scroll.c ****         lv_coord_t scroll_w = content_w - obj_w; /*The size of the content which can be really scro
 3864              		.loc 1 511 55 discriminator 12 view .LVU1149
 3865 0230 1FFA88F8 		uxth	r8, r8
 511:lvgl/lvgl/src/core/lv_obj_scroll.c ****         lv_coord_t scroll_w = content_w - obj_w; /*The size of the content which can be really scro
 3866              		.loc 1 511 55 discriminator 12 view .LVU1150
 3867 0234 A3EB0803 		sub	r3, r3, r8
 3868 0238 9AB2     		uxth	r2, r3
 511:lvgl/lvgl/src/core/lv_obj_scroll.c ****         lv_coord_t scroll_w = content_w - obj_w; /*The size of the content which can be really scro
 3869              		.loc 1 511 13 discriminator 12 view .LVU1151
 3870 023a 1BB2     		sxth	r3, r3
 3871              	.LVL467:
 512:lvgl/lvgl/src/core/lv_obj_scroll.c ****         if(scroll_w <= 0) {
 3872              		.loc 1 512 9 is_stmt 1 discriminator 12 view .LVU1152
 512:lvgl/lvgl/src/core/lv_obj_scroll.c ****         if(scroll_w <= 0) {
 3873              		.loc 1 512 41 is_stmt 0 discriminator 12 view .LVU1153
 3874 023c ABEB0909 		sub	r9, fp, r9
 512:lvgl/lvgl/src/core/lv_obj_scroll.c ****         if(scroll_w <= 0) {
 3875              		.loc 1 512 20 discriminator 12 view .LVU1154
 3876 0240 0FFA89F9 		sxth	r9, r9
 3877              	.LVL468:
 513:lvgl/lvgl/src/core/lv_obj_scroll.c ****             hor_area->y2 = obj->coords.y2 - side_space;
 3878              		.loc 1 513 9 is_stmt 1 discriminator 12 view .LVU1155
 513:lvgl/lvgl/src/core/lv_obj_scroll.c ****             hor_area->y2 = obj->coords.y2 - side_space;
 3879              		.loc 1 513 11 is_stmt 0 discriminator 12 view .LVU1156
 3880 0244 B9F1000F 		cmp	r9, #0
 3881 0248 40F3DC81 		ble	.L260
 3882              	.LBB173:
 519:lvgl/lvgl/src/core/lv_obj_scroll.c ****             sb_x = rem - sb_x;
 3883              		.loc 1 519 13 is_stmt 1 view .LVU1157
 519:lvgl/lvgl/src/core/lv_obj_scroll.c ****             sb_x = rem - sb_x;
 3884              		.loc 1 519 36 is_stmt 0 view .LVU1158
 3885 024c 0699     		ldr	r1, [sp, #24]
 3886 024e 01FB03F1 		mul	r1, r1, r3
 519:lvgl/lvgl/src/core/lv_obj_scroll.c ****             sb_x = rem - sb_x;
 3887              		.loc 1 519 42 view .LVU1159
 3888 0252 91FBF9F3 		sdiv	r3, r1, r9
 3889              	.LVL469:
 520:lvgl/lvgl/src/core/lv_obj_scroll.c **** 
 3890              		.loc 1 520 13 is_stmt 1 view .LVU1160
 520:lvgl/lvgl/src/core/lv_obj_scroll.c **** 
 3891              		.loc 1 520 24 is_stmt 0 view .LVU1161
 3892 0256 D31A     		subs	r3, r2, r3
 3893              	.LVL470:
 522:lvgl/lvgl/src/core/lv_obj_scroll.c ****             hor_area->x2 = hor_area->x1 + sb_w - 1;
 3894              		.loc 1 522 13 is_stmt 1 view .LVU1162
 522:lvgl/lvgl/src/core/lv_obj_scroll.c ****             hor_area->x2 = hor_area->x1 + sb_w - 1;
 3895              		.loc 1 522 39 is_stmt 0 view .LVU1163
 3896 0258 A28A     		ldrh	r2, [r4, #20]
 3897              	.LVL471:
ARM GAS  C:\Users\gx\AppData\Local\Temp\ccHlQRWF.s 			page 110


 522:lvgl/lvgl/src/core/lv_obj_scroll.c ****             hor_area->x2 = hor_area->x1 + sb_w - 1;
 3898              		.loc 1 522 43 view .LVU1164
 3899 025a 12FA83F3 		uxtah	r3, r2, r3
 3900              	.LVL472:
 522:lvgl/lvgl/src/core/lv_obj_scroll.c ****             hor_area->x2 = hor_area->x1 + sb_w - 1;
 3901              		.loc 1 522 50 view .LVU1165
 3902 025e 15FA83F3 		uxtah	r3, r5, r3
 3903 0262 1AB2     		sxth	r2, r3
 522:lvgl/lvgl/src/core/lv_obj_scroll.c ****             hor_area->x2 = hor_area->x1 + sb_w - 1;
 3904              		.loc 1 522 26 view .LVU1166
 3905 0264 AAF80020 		strh	r2, [r10]	@ movhi
 523:lvgl/lvgl/src/core/lv_obj_scroll.c ****             hor_area->y2 = obj->coords.y2 - side_space;
 3906              		.loc 1 523 13 is_stmt 1 view .LVU1167
 523:lvgl/lvgl/src/core/lv_obj_scroll.c ****             hor_area->y2 = obj->coords.y2 - side_space;
 3907              		.loc 1 523 41 is_stmt 0 view .LVU1168
 3908 0268 18FA83F3 		uxtah	r3, r8, r3
 3909 026c 9BB2     		uxth	r3, r3
 523:lvgl/lvgl/src/core/lv_obj_scroll.c ****             hor_area->y2 = obj->coords.y2 - side_space;
 3910              		.loc 1 523 48 view .LVU1169
 3911 026e 013B     		subs	r3, r3, #1
 523:lvgl/lvgl/src/core/lv_obj_scroll.c ****             hor_area->y2 = obj->coords.y2 - side_space;
 3912              		.loc 1 523 26 view .LVU1170
 3913 0270 AAF80430 		strh	r3, [r10, #4]	@ movhi
 524:lvgl/lvgl/src/core/lv_obj_scroll.c ****             hor_area->y1 = hor_area->y2 - tickness;
 3914              		.loc 1 524 13 is_stmt 1 view .LVU1171
 524:lvgl/lvgl/src/core/lv_obj_scroll.c ****             hor_area->y1 = hor_area->y2 - tickness;
 3915              		.loc 1 524 39 is_stmt 0 view .LVU1172
 3916 0274 638B     		ldrh	r3, [r4, #26]
 524:lvgl/lvgl/src/core/lv_obj_scroll.c ****             hor_area->y1 = hor_area->y2 - tickness;
 3917              		.loc 1 524 43 view .LVU1173
 3918 0276 DF1B     		subs	r7, r3, r7
 3919 0278 BBB2     		uxth	r3, r7
 524:lvgl/lvgl/src/core/lv_obj_scroll.c ****             hor_area->y1 = hor_area->y2 - tickness;
 3920              		.loc 1 524 26 view .LVU1174
 3921 027a AAF80670 		strh	r7, [r10, #6]	@ movhi
 525:lvgl/lvgl/src/core/lv_obj_scroll.c ****             if(hor_area->x1 < obj->coords.x1 + end_space) {
 3922              		.loc 1 525 13 is_stmt 1 view .LVU1175
 525:lvgl/lvgl/src/core/lv_obj_scroll.c ****             if(hor_area->x1 < obj->coords.x1 + end_space) {
 3923              		.loc 1 525 41 is_stmt 0 view .LVU1176
 3924 027e 9E1B     		subs	r6, r3, r6
 3925              	.LVL473:
 525:lvgl/lvgl/src/core/lv_obj_scroll.c ****             if(hor_area->x1 < obj->coords.x1 + end_space) {
 3926              		.loc 1 525 26 view .LVU1177
 3927 0280 AAF80260 		strh	r6, [r10, #2]	@ movhi
 526:lvgl/lvgl/src/core/lv_obj_scroll.c ****                 hor_area->x1 = obj->coords.x1 + end_space;
 3928              		.loc 1 526 13 is_stmt 1 view .LVU1178
 526:lvgl/lvgl/src/core/lv_obj_scroll.c ****                 hor_area->x1 = obj->coords.x1 + end_space;
 3929              		.loc 1 526 42 is_stmt 0 view .LVU1179
 3930 0284 B4F91430 		ldrsh	r3, [r4, #20]
 526:lvgl/lvgl/src/core/lv_obj_scroll.c ****                 hor_area->x1 = obj->coords.x1 + end_space;
 3931              		.loc 1 526 46 view .LVU1180
 3932 0288 0A99     		ldr	r1, [sp, #40]
 3933              	.LVL474:
 526:lvgl/lvgl/src/core/lv_obj_scroll.c ****                 hor_area->x1 = obj->coords.x1 + end_space;
 3934              		.loc 1 526 46 view .LVU1181
 3935 028a 1944     		add	r1, r1, r3
 526:lvgl/lvgl/src/core/lv_obj_scroll.c ****                 hor_area->x1 = obj->coords.x1 + end_space;
ARM GAS  C:\Users\gx\AppData\Local\Temp\ccHlQRWF.s 			page 111


 3936              		.loc 1 526 15 view .LVU1182
 3937 028c 8A42     		cmp	r2, r1
 3938 028e C0F2D081 		blt	.L261
 3939              	.L223:
 530:lvgl/lvgl/src/core/lv_obj_scroll.c ****                 hor_area->x2 = obj->coords.x2 - ver_reg_space - end_space;
 3940              		.loc 1 530 13 is_stmt 1 view .LVU1183
 530:lvgl/lvgl/src/core/lv_obj_scroll.c ****                 hor_area->x2 = obj->coords.x2 - ver_reg_space - end_space;
 3941              		.loc 1 530 24 is_stmt 0 view .LVU1184
 3942 0292 BAF90410 		ldrsh	r1, [r10, #4]
 530:lvgl/lvgl/src/core/lv_obj_scroll.c ****                 hor_area->x2 = obj->coords.x2 - ver_reg_space - end_space;
 3943              		.loc 1 530 42 view .LVU1185
 3944 0296 B4F91820 		ldrsh	r2, [r4, #24]
 530:lvgl/lvgl/src/core/lv_obj_scroll.c ****                 hor_area->x2 = obj->coords.x2 - ver_reg_space - end_space;
 3945              		.loc 1 530 46 view .LVU1186
 3946 029a 039B     		ldr	r3, [sp, #12]
 3947 029c D31A     		subs	r3, r2, r3
 530:lvgl/lvgl/src/core/lv_obj_scroll.c ****                 hor_area->x2 = obj->coords.x2 - ver_reg_space - end_space;
 3948              		.loc 1 530 62 view .LVU1187
 3949 029e 0A98     		ldr	r0, [sp, #40]
 3950 02a0 1B1A     		subs	r3, r3, r0
 530:lvgl/lvgl/src/core/lv_obj_scroll.c ****                 hor_area->x2 = obj->coords.x2 - ver_reg_space - end_space;
 3951              		.loc 1 530 15 view .LVU1188
 3952 02a2 9942     		cmp	r1, r3
 3953 02a4 7FF7CDAE 		ble	.L197
 531:lvgl/lvgl/src/core/lv_obj_scroll.c ****                 if(hor_area->x2 - SCROLLBAR_MIN_SIZE < hor_area->x1) hor_area->x1 = hor_area->x2 - 
 3954              		.loc 1 531 17 is_stmt 1 view .LVU1189
 531:lvgl/lvgl/src/core/lv_obj_scroll.c ****                 if(hor_area->x2 - SCROLLBAR_MIN_SIZE < hor_area->x1) hor_area->x1 = hor_area->x2 - 
 3955              		.loc 1 531 43 is_stmt 0 view .LVU1190
 3956 02a8 94B2     		uxth	r4, r2
 3957              	.LVL475:
 531:lvgl/lvgl/src/core/lv_obj_scroll.c ****                 if(hor_area->x2 - SCROLLBAR_MIN_SIZE < hor_area->x1) hor_area->x1 = hor_area->x2 - 
 3958              		.loc 1 531 47 view .LVU1191
 3959 02aa 049B     		ldr	r3, [sp, #16]
 3960 02ac E41A     		subs	r4, r4, r3
 3961 02ae A4B2     		uxth	r4, r4
 531:lvgl/lvgl/src/core/lv_obj_scroll.c ****                 if(hor_area->x2 - SCROLLBAR_MIN_SIZE < hor_area->x1) hor_area->x1 = hor_area->x2 - 
 3962              		.loc 1 531 63 view .LVU1192
 3963 02b0 641B     		subs	r4, r4, r5
 3964 02b2 24B2     		sxth	r4, r4
 531:lvgl/lvgl/src/core/lv_obj_scroll.c ****                 if(hor_area->x2 - SCROLLBAR_MIN_SIZE < hor_area->x1) hor_area->x1 = hor_area->x2 - 
 3965              		.loc 1 531 30 view .LVU1193
 3966 02b4 AAF80440 		strh	r4, [r10, #4]	@ movhi
 532:lvgl/lvgl/src/core/lv_obj_scroll.c ****             }
 3967              		.loc 1 532 17 is_stmt 1 view .LVU1194
 532:lvgl/lvgl/src/core/lv_obj_scroll.c ****             }
 3968              		.loc 1 532 35 is_stmt 0 view .LVU1195
 3969 02b8 0020     		movs	r0, #0
 3970 02ba FFF7FEFF 		bl	lv_disp_get_dpi
 3971              	.LVL476:
 3972 02be 00EB8000 		add	r0, r0, r0, lsl #2
 3973 02c2 4300     		lsls	r3, r0, #1
 3974 02c4 EF2B     		cmp	r3, #239
 3975 02c6 00F3F181 		bgt	.L262
 3976 02ca 0123     		movs	r3, #1
 3977              	.L226:
 532:lvgl/lvgl/src/core/lv_obj_scroll.c ****             }
 3978              		.loc 1 532 33 discriminator 4 view .LVU1196
ARM GAS  C:\Users\gx\AppData\Local\Temp\ccHlQRWF.s 			page 112


 3979 02cc E41A     		subs	r4, r4, r3
 532:lvgl/lvgl/src/core/lv_obj_scroll.c ****             }
 3980              		.loc 1 532 64 discriminator 4 view .LVU1197
 3981 02ce BAF90030 		ldrsh	r3, [r10]
 532:lvgl/lvgl/src/core/lv_obj_scroll.c ****             }
 3982              		.loc 1 532 19 discriminator 4 view .LVU1198
 3983 02d2 9C42     		cmp	r4, r3
 3984 02d4 BFF6B5AE 		bge	.L197
 532:lvgl/lvgl/src/core/lv_obj_scroll.c ****             }
 3985              		.loc 1 532 70 is_stmt 1 discriminator 5 view .LVU1199
 532:lvgl/lvgl/src/core/lv_obj_scroll.c ****             }
 3986              		.loc 1 532 93 is_stmt 0 discriminator 5 view .LVU1200
 3987 02d8 BAF80440 		ldrh	r4, [r10, #4]
 532:lvgl/lvgl/src/core/lv_obj_scroll.c ****             }
 3988              		.loc 1 532 100 discriminator 5 view .LVU1201
 3989 02dc 0020     		movs	r0, #0
 3990 02de FFF7FEFF 		bl	lv_disp_get_dpi
 3991              	.LVL477:
 3992 02e2 00EB8000 		add	r0, r0, r0, lsl #2
 3993 02e6 4300     		lsls	r3, r0, #1
 532:lvgl/lvgl/src/core/lv_obj_scroll.c ****             }
 3994              		.loc 1 532 98 discriminator 5 view .LVU1202
 3995 02e8 EF2B     		cmp	r3, #239
 3996 02ea 00F3ED81 		bgt	.L263
 532:lvgl/lvgl/src/core/lv_obj_scroll.c ****             }
 3997              		.loc 1 532 98 view .LVU1203
 3998 02ee 0123     		movs	r3, #1
 3999              	.L227:
 532:lvgl/lvgl/src/core/lv_obj_scroll.c ****             }
 4000              		.loc 1 532 98 discriminator 9 view .LVU1204
 4001 02f0 E31A     		subs	r3, r4, r3
 532:lvgl/lvgl/src/core/lv_obj_scroll.c ****             }
 4002              		.loc 1 532 83 discriminator 9 view .LVU1205
 4003 02f2 AAF80030 		strh	r3, [r10]	@ movhi
 4004 02f6 A4E6     		b	.L197
 4005              	.LVL478:
 4006              	.L229:
 532:lvgl/lvgl/src/core/lv_obj_scroll.c ****             }
 4007              		.loc 1 532 83 discriminator 9 view .LVU1206
 4008              	.LBE173:
 4009              	.LBE172:
 435:lvgl/lvgl/src/core/lv_obj_scroll.c ****     }
 4010              		.loc 1 435 18 view .LVU1207
 4011 02f8 DDF80CB0 		ldr	fp, [sp, #12]
 4012 02fc EFE6     		b	.L203
 4013              	.LVL479:
 4014              	.L233:
 435:lvgl/lvgl/src/core/lv_obj_scroll.c ****     }
 4015              		.loc 1 435 18 view .LVU1208
 4016 02fe DDF80CB0 		ldr	fp, [sp, #12]
 4017 0302 ECE6     		b	.L203
 4018              	.LVL480:
 4019              	.L254:
 442:lvgl/lvgl/src/core/lv_obj_scroll.c ****                     (sm == LV_SCROLLBAR_MODE_ACTIVE && lv_indev_get_scroll_dir(indev) == LV_DIR_HOR
 4020              		.loc 1 442 51 view .LVU1209
 4021 0304 059B     		ldr	r3, [sp, #20]
 4022 0306 002B     		cmp	r3, #0
ARM GAS  C:\Users\gx\AppData\Local\Temp\ccHlQRWF.s 			page 113


 4023 0308 3FF7F9AE 		bgt	.L206
 442:lvgl/lvgl/src/core/lv_obj_scroll.c ****                     (sm == LV_SCROLLBAR_MODE_ACTIVE && lv_indev_get_scroll_dir(indev) == LV_DIR_HOR
 4024              		.loc 1 442 62 discriminator 1 view .LVU1210
 4025 030c 069B     		ldr	r3, [sp, #24]
 4026 030e 002B     		cmp	r3, #0
 4027 0310 3FF7F5AE 		bgt	.L206
 4028 0314 EBE6     		b	.L207
 4029              	.L255:
 443:lvgl/lvgl/src/core/lv_obj_scroll.c ****         hor_draw = true;
 4030              		.loc 1 443 56 view .LVU1211
 4031 0316 2846     		mov	r0, r5
 4032 0318 FFF7FEFF 		bl	lv_indev_get_scroll_dir
 4033              	.LVL481:
 443:lvgl/lvgl/src/core/lv_obj_scroll.c ****         hor_draw = true;
 4034              		.loc 1 443 53 view .LVU1212
 4035 031c 0328     		cmp	r0, #3
 4036 031e 7FF4E9AE 		bne	.L205
 4037 0322 ECE6     		b	.L206
 4038              	.LVL482:
 4039              	.L234:
 456:lvgl/lvgl/src/core/lv_obj_scroll.c ****     lv_coord_t hor_req_space = hor_draw ? tickness + side_space : 0;
 4040              		.loc 1 456 16 view .LVU1213
 4041 0324 0023     		movs	r3, #0
 4042 0326 0C93     		str	r3, [sp, #48]
 4043 0328 13E7     		b	.L208
 4044              	.LVL483:
 4045              	.L235:
 457:lvgl/lvgl/src/core/lv_obj_scroll.c ****     lv_coord_t rem;
 4046              		.loc 1 457 16 view .LVU1214
 4047 032a 0027     		movs	r7, #0
 4048 032c 18E7     		b	.L209
 4049              	.LVL484:
 4050              	.L256:
 4051              	.LBB175:
 4052              	.LBI175:
 289:lvgl/lvgl/src/core/lv_obj_style_gen.h **** {
 4053              		.loc 2 289 24 is_stmt 1 view .LVU1215
 4054              	.LBB176:
 291:lvgl/lvgl/src/core/lv_obj_style_gen.h ****     return (lv_opa_t)v.num;
 4055              		.loc 2 291 5 view .LVU1216
 291:lvgl/lvgl/src/core/lv_obj_style_gen.h ****     return (lv_opa_t)v.num;
 4056              		.loc 2 291 26 is_stmt 0 view .LVU1217
 4057 032e 3122     		movs	r2, #49
 4058 0330 4FF48031 		mov	r1, #65536
 4059 0334 2046     		mov	r0, r4
 4060 0336 FFF7FEFF 		bl	lv_obj_get_style_prop
 4061              	.LVL485:
 292:lvgl/lvgl/src/core/lv_obj_style_gen.h **** }
 4062              		.loc 2 292 5 is_stmt 1 view .LVU1218
 292:lvgl/lvgl/src/core/lv_obj_style_gen.h **** }
 4063              		.loc 2 292 12 is_stmt 0 view .LVU1219
 4064 033a C0B2     		uxtb	r0, r0
 4065              	.LVL486:
 292:lvgl/lvgl/src/core/lv_obj_style_gen.h **** }
 4066              		.loc 2 292 12 view .LVU1220
 4067              	.LBE176:
 4068              	.LBE175:
ARM GAS  C:\Users\gx\AppData\Local\Temp\ccHlQRWF.s 			page 114


 460:lvgl/lvgl/src/core/lv_obj_scroll.c ****        lv_obj_get_style_border_opa(obj, LV_PART_SCROLLBAR) < LV_OPA_MIN) {
 4069              		.loc 1 460 69 view .LVU1221
 4070 033c 0128     		cmp	r0, #1
 4071 033e 3FF619AF 		bhi	.L210
 4072 0342 7EE6     		b	.L197
 4073              	.LVL487:
 4074              	.L257:
 4075              	.LBB177:
 468:lvgl/lvgl/src/core/lv_obj_scroll.c ****        ver_area->y2 = obj->coords.y2;
 4076              		.loc 1 468 8 is_stmt 1 view .LVU1222
 468:lvgl/lvgl/src/core/lv_obj_scroll.c ****        ver_area->y2 = obj->coords.y2;
 4077              		.loc 1 468 34 is_stmt 0 view .LVU1223
 4078 0344 B4F91620 		ldrsh	r2, [r4, #22]
 468:lvgl/lvgl/src/core/lv_obj_scroll.c ****        ver_area->y2 = obj->coords.y2;
 4079              		.loc 1 468 21 view .LVU1224
 4080 0348 A8F80220 		strh	r2, [r8, #2]	@ movhi
 469:lvgl/lvgl/src/core/lv_obj_scroll.c ****        ver_area->x2 = obj->coords.x2 - side_space;
 4081              		.loc 1 469 8 is_stmt 1 view .LVU1225
 469:lvgl/lvgl/src/core/lv_obj_scroll.c ****        ver_area->x2 = obj->coords.x2 - side_space;
 4082              		.loc 1 469 34 is_stmt 0 view .LVU1226
 4083 034c B4F91A20 		ldrsh	r2, [r4, #26]
 469:lvgl/lvgl/src/core/lv_obj_scroll.c ****        ver_area->x2 = obj->coords.x2 - side_space;
 4084              		.loc 1 469 21 view .LVU1227
 4085 0350 A8F80620 		strh	r2, [r8, #6]	@ movhi
 470:lvgl/lvgl/src/core/lv_obj_scroll.c ****        ver_area->x1 =ver_area->x2 - tickness;
 4086              		.loc 1 470 8 is_stmt 1 view .LVU1228
 470:lvgl/lvgl/src/core/lv_obj_scroll.c ****        ver_area->x1 =ver_area->x2 - tickness;
 4087              		.loc 1 470 34 is_stmt 0 view .LVU1229
 4088 0354 228B     		ldrh	r2, [r4, #24]
 470:lvgl/lvgl/src/core/lv_obj_scroll.c ****        ver_area->x1 =ver_area->x2 - tickness;
 4089              		.loc 1 470 38 view .LVU1230
 4090 0356 BDF82410 		ldrh	r1, [sp, #36]
 4091 035a 0E91     		str	r1, [sp, #56]
 4092 035c 521A     		subs	r2, r2, r1
 4093 035e 91B2     		uxth	r1, r2
 470:lvgl/lvgl/src/core/lv_obj_scroll.c ****        ver_area->x1 =ver_area->x2 - tickness;
 4094              		.loc 1 470 21 view .LVU1231
 4095 0360 A8F80420 		strh	r2, [r8, #4]	@ movhi
 471:lvgl/lvgl/src/core/lv_obj_scroll.c **** 
 4096              		.loc 1 471 8 is_stmt 1 view .LVU1232
 471:lvgl/lvgl/src/core/lv_obj_scroll.c **** 
 4097              		.loc 1 471 35 is_stmt 0 view .LVU1233
 4098 0364 B2B2     		uxth	r2, r6
 4099 0366 0F92     		str	r2, [sp, #60]
 4100 0368 8A1A     		subs	r2, r1, r2
 471:lvgl/lvgl/src/core/lv_obj_scroll.c **** 
 4101              		.loc 1 471 21 view .LVU1234
 4102 036a A8F80020 		strh	r2, [r8]	@ movhi
 473:lvgl/lvgl/src/core/lv_obj_scroll.c ****         sb_h = LV_MAX(sb_h, SCROLLBAR_MIN_SIZE);
 4103              		.loc 1 473 9 is_stmt 1 view .LVU1235
 473:lvgl/lvgl/src/core/lv_obj_scroll.c ****         sb_h = LV_MAX(sb_h, SCROLLBAR_MIN_SIZE);
 4104              		.loc 1 473 35 is_stmt 0 view .LVU1236
 4105 036e 079A     		ldr	r2, [sp, #28]
 4106 0370 0A98     		ldr	r0, [sp, #40]
 4107 0372 A2EB4009 		sub	r9, r2, r0, lsl #1
 473:lvgl/lvgl/src/core/lv_obj_scroll.c ****         sb_h = LV_MAX(sb_h, SCROLLBAR_MIN_SIZE);
 4108              		.loc 1 473 51 view .LVU1237
ARM GAS  C:\Users\gx\AppData\Local\Temp\ccHlQRWF.s 			page 115


 4109 0376 0797     		str	r7, [sp, #28]
 4110              	.LVL488:
 473:lvgl/lvgl/src/core/lv_obj_scroll.c ****         sb_h = LV_MAX(sb_h, SCROLLBAR_MIN_SIZE);
 4111              		.loc 1 473 51 view .LVU1238
 4112 0378 A9EB0709 		sub	r9, r9, r7
 473:lvgl/lvgl/src/core/lv_obj_scroll.c ****         sb_h = LV_MAX(sb_h, SCROLLBAR_MIN_SIZE);
 4113              		.loc 1 473 68 view .LVU1239
 4114 037c 09FB02F9 		mul	r9, r9, r2
 473:lvgl/lvgl/src/core/lv_obj_scroll.c ****         sb_h = LV_MAX(sb_h, SCROLLBAR_MIN_SIZE);
 4115              		.loc 1 473 77 view .LVU1240
 4116 0380 99FBF3F9 		sdiv	r9, r9, r3
 473:lvgl/lvgl/src/core/lv_obj_scroll.c ****         sb_h = LV_MAX(sb_h, SCROLLBAR_MIN_SIZE);
 4117              		.loc 1 473 20 view .LVU1241
 4118 0384 0FFA89FB 		sxth	fp, r9
 4119              	.LVL489:
 474:lvgl/lvgl/src/core/lv_obj_scroll.c ****         rem = (obj_h - end_space * 2 - hor_req_space) - sb_h;  /*Remaining size from the scrollbar 
 4120              		.loc 1 474 9 is_stmt 1 view .LVU1242
 474:lvgl/lvgl/src/core/lv_obj_scroll.c ****         rem = (obj_h - end_space * 2 - hor_req_space) - sb_h;  /*Remaining size from the scrollbar 
 4121              		.loc 1 474 16 is_stmt 0 view .LVU1243
 4122 0388 D946     		mov	r9, fp
 4123 038a 0020     		movs	r0, #0
 4124 038c FFF7FEFF 		bl	lv_disp_get_dpi
 4125              	.LVL490:
 474:lvgl/lvgl/src/core/lv_obj_scroll.c ****         rem = (obj_h - end_space * 2 - hor_req_space) - sb_h;  /*Remaining size from the scrollbar 
 4126              		.loc 1 474 16 view .LVU1244
 4127 0390 00EB8000 		add	r0, r0, r0, lsl #2
 4128 0394 4000     		lsls	r0, r0, #1
 4129 0396 EF28     		cmp	r0, #239
 4130 0398 6FDC     		bgt	.L264
 4131 039a 0123     		movs	r3, #1
 4132              	.L212:
 474:lvgl/lvgl/src/core/lv_obj_scroll.c ****         rem = (obj_h - end_space * 2 - hor_req_space) - sb_h;  /*Remaining size from the scrollbar 
 4133              		.loc 1 474 14 discriminator 4 view .LVU1245
 4134 039c 9945     		cmp	r9, r3
 4135 039e 7ADD     		ble	.L265
 4136              	.LVL491:
 4137              	.L213:
 475:lvgl/lvgl/src/core/lv_obj_scroll.c ****         lv_coord_t scroll_h = content_h - obj_h; /*The size of the content which can be really scro
 4138              		.loc 1 475 9 is_stmt 1 discriminator 12 view .LVU1246
 475:lvgl/lvgl/src/core/lv_obj_scroll.c ****         lv_coord_t scroll_h = content_h - obj_h; /*The size of the content which can be really scro
 4139              		.loc 1 475 34 is_stmt 0 discriminator 12 view .LVU1247
 4140 03a0 BDF82C90 		ldrh	r9, [sp, #44]
 4141 03a4 4FEA4903 		lsl	r3, r9, #1
 4142 03a8 9BB2     		uxth	r3, r3
 475:lvgl/lvgl/src/core/lv_obj_scroll.c ****         lv_coord_t scroll_h = content_h - obj_h; /*The size of the content which can be really scro
 4143              		.loc 1 475 22 discriminator 12 view .LVU1248
 4144 03aa EB1A     		subs	r3, r5, r3
 4145 03ac 9BB2     		uxth	r3, r3
 475:lvgl/lvgl/src/core/lv_obj_scroll.c ****         lv_coord_t scroll_h = content_h - obj_h; /*The size of the content which can be really scro
 4146              		.loc 1 475 38 discriminator 12 view .LVU1249
 4147 03ae BFB2     		uxth	r7, r7
 475:lvgl/lvgl/src/core/lv_obj_scroll.c ****         lv_coord_t scroll_h = content_h - obj_h; /*The size of the content which can be really scro
 4148              		.loc 1 475 38 discriminator 12 view .LVU1250
 4149 03b0 DB1B     		subs	r3, r3, r7
 4150 03b2 9BB2     		uxth	r3, r3
 475:lvgl/lvgl/src/core/lv_obj_scroll.c ****         lv_coord_t scroll_h = content_h - obj_h; /*The size of the content which can be really scro
 4151              		.loc 1 475 55 discriminator 12 view .LVU1251
ARM GAS  C:\Users\gx\AppData\Local\Temp\ccHlQRWF.s 			page 116


 4152 03b4 1FFA8BFB 		uxth	fp, fp
 475:lvgl/lvgl/src/core/lv_obj_scroll.c ****         lv_coord_t scroll_h = content_h - obj_h; /*The size of the content which can be really scro
 4153              		.loc 1 475 55 discriminator 12 view .LVU1252
 4154 03b8 A3EB0B03 		sub	r3, r3, fp
 4155 03bc 9AB2     		uxth	r2, r3
 475:lvgl/lvgl/src/core/lv_obj_scroll.c ****         lv_coord_t scroll_h = content_h - obj_h; /*The size of the content which can be really scro
 4156              		.loc 1 475 13 discriminator 12 view .LVU1253
 4157 03be 1BB2     		sxth	r3, r3
 4158              	.LVL492:
 476:lvgl/lvgl/src/core/lv_obj_scroll.c ****         if(scroll_h <= 0) {
 4159              		.loc 1 476 9 is_stmt 1 discriminator 12 view .LVU1254
 476:lvgl/lvgl/src/core/lv_obj_scroll.c ****         if(scroll_h <= 0) {
 4160              		.loc 1 476 41 is_stmt 0 discriminator 12 view .LVU1255
 4161 03c0 0D99     		ldr	r1, [sp, #52]
 4162 03c2 4D1B     		subs	r5, r1, r5
 476:lvgl/lvgl/src/core/lv_obj_scroll.c ****         if(scroll_h <= 0) {
 4163              		.loc 1 476 20 discriminator 12 view .LVU1256
 4164 03c4 2DB2     		sxth	r5, r5
 4165              	.LVL493:
 477:lvgl/lvgl/src/core/lv_obj_scroll.c ****            ver_area->y1 = obj->coords.y1 + end_space;
 4166              		.loc 1 477 9 is_stmt 1 discriminator 12 view .LVU1257
 477:lvgl/lvgl/src/core/lv_obj_scroll.c ****            ver_area->y1 = obj->coords.y1 + end_space;
 4167              		.loc 1 477 11 is_stmt 0 discriminator 12 view .LVU1258
 4168 03c6 002D     		cmp	r5, #0
 4169 03c8 40F38180 		ble	.L266
 4170              	.LBB178:
 483:lvgl/lvgl/src/core/lv_obj_scroll.c ****             sb_y = rem - sb_y;
 4171              		.loc 1 483 13 is_stmt 1 view .LVU1259
 483:lvgl/lvgl/src/core/lv_obj_scroll.c ****             sb_y = rem - sb_y;
 4172              		.loc 1 483 36 is_stmt 0 view .LVU1260
 4173 03cc 0499     		ldr	r1, [sp, #16]
 4174 03ce 01FB03F1 		mul	r1, r1, r3
 483:lvgl/lvgl/src/core/lv_obj_scroll.c ****             sb_y = rem - sb_y;
 4175              		.loc 1 483 42 view .LVU1261
 4176 03d2 91FBF5F3 		sdiv	r3, r1, r5
 4177              	.LVL494:
 484:lvgl/lvgl/src/core/lv_obj_scroll.c **** 
 4178              		.loc 1 484 13 is_stmt 1 view .LVU1262
 484:lvgl/lvgl/src/core/lv_obj_scroll.c **** 
 4179              		.loc 1 484 24 is_stmt 0 view .LVU1263
 4180 03d6 D31A     		subs	r3, r2, r3
 4181              	.LVL495:
 486:lvgl/lvgl/src/core/lv_obj_scroll.c ****            ver_area->y2 =ver_area->y1 + sb_h - 1;
 4182              		.loc 1 486 12 is_stmt 1 view .LVU1264
 486:lvgl/lvgl/src/core/lv_obj_scroll.c ****            ver_area->y2 =ver_area->y1 + sb_h - 1;
 4183              		.loc 1 486 38 is_stmt 0 view .LVU1265
 4184 03d8 E28A     		ldrh	r2, [r4, #22]
 4185              	.LVL496:
 486:lvgl/lvgl/src/core/lv_obj_scroll.c ****            ver_area->y2 =ver_area->y1 + sb_h - 1;
 4186              		.loc 1 486 42 view .LVU1266
 4187 03da 12FA83F3 		uxtah	r3, r2, r3
 4188              	.LVL497:
 486:lvgl/lvgl/src/core/lv_obj_scroll.c ****            ver_area->y2 =ver_area->y1 + sb_h - 1;
 4189              		.loc 1 486 49 view .LVU1267
 4190 03de 19FA83F3 		uxtah	r3, r9, r3
 4191 03e2 1AB2     		sxth	r2, r3
 486:lvgl/lvgl/src/core/lv_obj_scroll.c ****            ver_area->y2 =ver_area->y1 + sb_h - 1;
ARM GAS  C:\Users\gx\AppData\Local\Temp\ccHlQRWF.s 			page 117


 4192              		.loc 1 486 25 view .LVU1268
 4193 03e4 A8F80220 		strh	r2, [r8, #2]	@ movhi
 487:lvgl/lvgl/src/core/lv_obj_scroll.c ****            ver_area->x2 = obj->coords.x2 - side_space;
 4194              		.loc 1 487 12 is_stmt 1 view .LVU1269
 487:lvgl/lvgl/src/core/lv_obj_scroll.c ****            ver_area->x2 = obj->coords.x2 - side_space;
 4195              		.loc 1 487 39 is_stmt 0 view .LVU1270
 4196 03e8 1BFA83F3 		uxtah	r3, fp, r3
 4197 03ec 9BB2     		uxth	r3, r3
 487:lvgl/lvgl/src/core/lv_obj_scroll.c ****            ver_area->x2 = obj->coords.x2 - side_space;
 4198              		.loc 1 487 46 view .LVU1271
 4199 03ee 013B     		subs	r3, r3, #1
 487:lvgl/lvgl/src/core/lv_obj_scroll.c ****            ver_area->x2 = obj->coords.x2 - side_space;
 4200              		.loc 1 487 25 view .LVU1272
 4201 03f0 A8F80630 		strh	r3, [r8, #6]	@ movhi
 488:lvgl/lvgl/src/core/lv_obj_scroll.c ****            ver_area->x1 =ver_area->x2 - tickness;
 4202              		.loc 1 488 12 is_stmt 1 view .LVU1273
 488:lvgl/lvgl/src/core/lv_obj_scroll.c ****            ver_area->x1 =ver_area->x2 - tickness;
 4203              		.loc 1 488 38 is_stmt 0 view .LVU1274
 4204 03f4 238B     		ldrh	r3, [r4, #24]
 488:lvgl/lvgl/src/core/lv_obj_scroll.c ****            ver_area->x1 =ver_area->x2 - tickness;
 4205              		.loc 1 488 42 view .LVU1275
 4206 03f6 0E99     		ldr	r1, [sp, #56]
 4207 03f8 5B1A     		subs	r3, r3, r1
 4208 03fa 99B2     		uxth	r1, r3
 488:lvgl/lvgl/src/core/lv_obj_scroll.c ****            ver_area->x1 =ver_area->x2 - tickness;
 4209              		.loc 1 488 25 view .LVU1276
 4210 03fc A8F80430 		strh	r3, [r8, #4]	@ movhi
 489:lvgl/lvgl/src/core/lv_obj_scroll.c ****             if(ver_area->y1 < obj->coords.y1 + end_space) {
 4211              		.loc 1 489 12 is_stmt 1 view .LVU1277
 489:lvgl/lvgl/src/core/lv_obj_scroll.c ****             if(ver_area->y1 < obj->coords.y1 + end_space) {
 4212              		.loc 1 489 39 is_stmt 0 view .LVU1278
 4213 0400 0F9B     		ldr	r3, [sp, #60]
 4214 0402 CB1A     		subs	r3, r1, r3
 489:lvgl/lvgl/src/core/lv_obj_scroll.c ****             if(ver_area->y1 < obj->coords.y1 + end_space) {
 4215              		.loc 1 489 25 view .LVU1279
 4216 0404 A8F80030 		strh	r3, [r8]	@ movhi
 490:lvgl/lvgl/src/core/lv_obj_scroll.c ****                ver_area->y1 = obj->coords.y1 + end_space;
 4217              		.loc 1 490 13 is_stmt 1 view .LVU1280
 490:lvgl/lvgl/src/core/lv_obj_scroll.c ****                ver_area->y1 = obj->coords.y1 + end_space;
 4218              		.loc 1 490 42 is_stmt 0 view .LVU1281
 4219 0408 B4F91630 		ldrsh	r3, [r4, #22]
 490:lvgl/lvgl/src/core/lv_obj_scroll.c ****                ver_area->y1 = obj->coords.y1 + end_space;
 4220              		.loc 1 490 46 view .LVU1282
 4221 040c 0A99     		ldr	r1, [sp, #40]
 4222 040e 1944     		add	r1, r1, r3
 490:lvgl/lvgl/src/core/lv_obj_scroll.c ****                ver_area->y1 = obj->coords.y1 + end_space;
 4223              		.loc 1 490 15 view .LVU1283
 4224 0410 8A42     		cmp	r2, r1
 4225 0412 76DB     		blt	.L267
 4226              	.LVL498:
 4227              	.L215:
 494:lvgl/lvgl/src/core/lv_obj_scroll.c ****                ver_area->y2 = obj->coords.y2 - hor_req_space - end_space;
 4228              		.loc 1 494 13 is_stmt 1 view .LVU1284
 494:lvgl/lvgl/src/core/lv_obj_scroll.c ****                ver_area->y2 = obj->coords.y2 - hor_req_space - end_space;
 4229              		.loc 1 494 24 is_stmt 0 view .LVU1285
 4230 0414 B8F90610 		ldrsh	r1, [r8, #6]
 494:lvgl/lvgl/src/core/lv_obj_scroll.c ****                ver_area->y2 = obj->coords.y2 - hor_req_space - end_space;
ARM GAS  C:\Users\gx\AppData\Local\Temp\ccHlQRWF.s 			page 118


 4231              		.loc 1 494 42 view .LVU1286
 4232 0418 B4F91A20 		ldrsh	r2, [r4, #26]
 494:lvgl/lvgl/src/core/lv_obj_scroll.c ****                ver_area->y2 = obj->coords.y2 - hor_req_space - end_space;
 4233              		.loc 1 494 46 view .LVU1287
 4234 041c 079B     		ldr	r3, [sp, #28]
 4235 041e D31A     		subs	r3, r2, r3
 494:lvgl/lvgl/src/core/lv_obj_scroll.c ****                ver_area->y2 = obj->coords.y2 - hor_req_space - end_space;
 4236              		.loc 1 494 62 view .LVU1288
 4237 0420 0A98     		ldr	r0, [sp, #40]
 4238 0422 1B1A     		subs	r3, r3, r0
 494:lvgl/lvgl/src/core/lv_obj_scroll.c ****                ver_area->y2 = obj->coords.y2 - hor_req_space - end_space;
 4239              		.loc 1 494 15 view .LVU1289
 4240 0424 9942     		cmp	r1, r3
 4241 0426 7FF7B6AE 		ble	.L211
 495:lvgl/lvgl/src/core/lv_obj_scroll.c ****                 if(ver_area->y2 - SCROLLBAR_MIN_SIZE <ver_area->y1)ver_area->y1 =ver_area->y2 - SCR
 4242              		.loc 1 495 16 is_stmt 1 view .LVU1290
 495:lvgl/lvgl/src/core/lv_obj_scroll.c ****                 if(ver_area->y2 - SCROLLBAR_MIN_SIZE <ver_area->y1)ver_area->y1 =ver_area->y2 - SCR
 4243              		.loc 1 495 42 is_stmt 0 view .LVU1291
 4244 042a 95B2     		uxth	r5, r2
 495:lvgl/lvgl/src/core/lv_obj_scroll.c ****                 if(ver_area->y2 - SCROLLBAR_MIN_SIZE <ver_area->y1)ver_area->y1 =ver_area->y2 - SCR
 4245              		.loc 1 495 46 view .LVU1292
 4246 042c ED1B     		subs	r5, r5, r7
 4247 042e ADB2     		uxth	r5, r5
 495:lvgl/lvgl/src/core/lv_obj_scroll.c ****                 if(ver_area->y2 - SCROLLBAR_MIN_SIZE <ver_area->y1)ver_area->y1 =ver_area->y2 - SCR
 4248              		.loc 1 495 62 view .LVU1293
 4249 0430 A5EB0905 		sub	r5, r5, r9
 4250 0434 2DB2     		sxth	r5, r5
 495:lvgl/lvgl/src/core/lv_obj_scroll.c ****                 if(ver_area->y2 - SCROLLBAR_MIN_SIZE <ver_area->y1)ver_area->y1 =ver_area->y2 - SCR
 4251              		.loc 1 495 29 view .LVU1294
 4252 0436 A8F80650 		strh	r5, [r8, #6]	@ movhi
 496:lvgl/lvgl/src/core/lv_obj_scroll.c ****             }
 4253              		.loc 1 496 17 is_stmt 1 view .LVU1295
 496:lvgl/lvgl/src/core/lv_obj_scroll.c ****             }
 4254              		.loc 1 496 35 is_stmt 0 view .LVU1296
 4255 043a 0020     		movs	r0, #0
 4256 043c FFF7FEFF 		bl	lv_disp_get_dpi
 4257              	.LVL499:
 4258 0440 00EB8000 		add	r0, r0, r0, lsl #2
 4259 0444 4300     		lsls	r3, r0, #1
 4260 0446 EF2B     		cmp	r3, #239
 4261 0448 00F39880 		bgt	.L268
 4262 044c 0123     		movs	r3, #1
 4263              	.L218:
 496:lvgl/lvgl/src/core/lv_obj_scroll.c ****             }
 4264              		.loc 1 496 33 discriminator 4 view .LVU1297
 4265 044e ED1A     		subs	r5, r5, r3
 496:lvgl/lvgl/src/core/lv_obj_scroll.c ****             }
 4266              		.loc 1 496 63 discriminator 4 view .LVU1298
 4267 0450 B8F90230 		ldrsh	r3, [r8, #2]
 496:lvgl/lvgl/src/core/lv_obj_scroll.c ****             }
 4268              		.loc 1 496 19 discriminator 4 view .LVU1299
 4269 0454 9D42     		cmp	r5, r3
 4270 0456 BFF69EAE 		bge	.L211
 496:lvgl/lvgl/src/core/lv_obj_scroll.c ****             }
 4271              		.loc 1 496 68 is_stmt 1 discriminator 5 view .LVU1300
 496:lvgl/lvgl/src/core/lv_obj_scroll.c ****             }
 4272              		.loc 1 496 90 is_stmt 0 discriminator 5 view .LVU1301
ARM GAS  C:\Users\gx\AppData\Local\Temp\ccHlQRWF.s 			page 119


 4273 045a B8F80650 		ldrh	r5, [r8, #6]
 496:lvgl/lvgl/src/core/lv_obj_scroll.c ****             }
 4274              		.loc 1 496 97 discriminator 5 view .LVU1302
 4275 045e 0020     		movs	r0, #0
 4276 0460 FFF7FEFF 		bl	lv_disp_get_dpi
 4277              	.LVL500:
 4278 0464 00EB8000 		add	r0, r0, r0, lsl #2
 4279 0468 4300     		lsls	r3, r0, #1
 496:lvgl/lvgl/src/core/lv_obj_scroll.c ****             }
 4280              		.loc 1 496 95 discriminator 5 view .LVU1303
 4281 046a EF2B     		cmp	r3, #239
 4282 046c 00F39480 		bgt	.L269
 496:lvgl/lvgl/src/core/lv_obj_scroll.c ****             }
 4283              		.loc 1 496 95 view .LVU1304
 4284 0470 0123     		movs	r3, #1
 4285              	.L219:
 496:lvgl/lvgl/src/core/lv_obj_scroll.c ****             }
 4286              		.loc 1 496 95 discriminator 9 view .LVU1305
 4287 0472 EB1A     		subs	r3, r5, r3
 496:lvgl/lvgl/src/core/lv_obj_scroll.c ****             }
 4288              		.loc 1 496 81 discriminator 9 view .LVU1306
 4289 0474 A8F80230 		strh	r3, [r8, #2]	@ movhi
 4290 0478 8DE6     		b	.L211
 4291              	.L264:
 496:lvgl/lvgl/src/core/lv_obj_scroll.c ****             }
 4292              		.loc 1 496 81 discriminator 9 view .LVU1307
 4293              	.LBE178:
 474:lvgl/lvgl/src/core/lv_obj_scroll.c ****         rem = (obj_h - end_space * 2 - hor_req_space) - sb_h;  /*Remaining size from the scrollbar 
 4294              		.loc 1 474 16 discriminator 1 view .LVU1308
 4295 047a 0020     		movs	r0, #0
 4296 047c FFF7FEFF 		bl	lv_disp_get_dpi
 4297              	.LVL501:
 4298 0480 00EB8000 		add	r0, r0, r0, lsl #2
 4299 0484 4300     		lsls	r3, r0, #1
 4300 0486 5033     		adds	r3, r3, #80
 4301 0488 954A     		ldr	r2, .L276
 4302 048a 82FB0312 		smull	r1, r2, r2, r3
 4303 048e DB17     		asrs	r3, r3, #31
 4304 0490 C3EBA213 		rsb	r3, r3, r2, asr #6
 4305 0494 82E7     		b	.L212
 4306              	.L265:
 474:lvgl/lvgl/src/core/lv_obj_scroll.c ****         rem = (obj_h - end_space * 2 - hor_req_space) - sb_h;  /*Remaining size from the scrollbar 
 4307              		.loc 1 474 16 discriminator 5 view .LVU1309
 4308 0496 0020     		movs	r0, #0
 4309 0498 FFF7FEFF 		bl	lv_disp_get_dpi
 4310              	.LVL502:
 4311 049c 00EB8000 		add	r0, r0, r0, lsl #2
 4312 04a0 4300     		lsls	r3, r0, #1
 474:lvgl/lvgl/src/core/lv_obj_scroll.c ****         rem = (obj_h - end_space * 2 - hor_req_space) - sb_h;  /*Remaining size from the scrollbar 
 4313              		.loc 1 474 14 discriminator 5 view .LVU1310
 4314 04a2 EF2B     		cmp	r3, #239
 4315 04a4 02DC     		bgt	.L270
 474:lvgl/lvgl/src/core/lv_obj_scroll.c ****         rem = (obj_h - end_space * 2 - hor_req_space) - sb_h;  /*Remaining size from the scrollbar 
 4316              		.loc 1 474 14 view .LVU1311
 4317 04a6 4FF0010B 		mov	fp, #1
 4318              	.LVL503:
 474:lvgl/lvgl/src/core/lv_obj_scroll.c ****         rem = (obj_h - end_space * 2 - hor_req_space) - sb_h;  /*Remaining size from the scrollbar 
ARM GAS  C:\Users\gx\AppData\Local\Temp\ccHlQRWF.s 			page 120


 4319              		.loc 1 474 14 view .LVU1312
 4320 04aa 79E7     		b	.L213
 4321              	.LVL504:
 4322              	.L270:
 474:lvgl/lvgl/src/core/lv_obj_scroll.c ****         rem = (obj_h - end_space * 2 - hor_req_space) - sb_h;  /*Remaining size from the scrollbar 
 4323              		.loc 1 474 16 discriminator 7 view .LVU1313
 4324 04ac 0020     		movs	r0, #0
 4325 04ae FFF7FEFF 		bl	lv_disp_get_dpi
 4326              	.LVL505:
 4327 04b2 00EB8000 		add	r0, r0, r0, lsl #2
 4328 04b6 4300     		lsls	r3, r0, #1
 4329 04b8 5033     		adds	r3, r3, #80
 4330 04ba 894A     		ldr	r2, .L276
 4331 04bc 82FB0312 		smull	r1, r2, r2, r3
 4332 04c0 4FEAE37B 		asr	fp, r3, #31
 4333              	.LVL506:
 474:lvgl/lvgl/src/core/lv_obj_scroll.c ****         rem = (obj_h - end_space * 2 - hor_req_space) - sb_h;  /*Remaining size from the scrollbar 
 4334              		.loc 1 474 16 discriminator 7 view .LVU1314
 4335 04c4 CBEBA21B 		rsb	fp, fp, r2, asr #6
 474:lvgl/lvgl/src/core/lv_obj_scroll.c ****         rem = (obj_h - end_space * 2 - hor_req_space) - sb_h;  /*Remaining size from the scrollbar 
 4336              		.loc 1 474 14 discriminator 7 view .LVU1315
 4337 04c8 0FFA8BFB 		sxth	fp, fp
 4338 04cc 68E7     		b	.L213
 4339              	.LVL507:
 4340              	.L266:
 478:lvgl/lvgl/src/core/lv_obj_scroll.c ****            ver_area->y2 = obj->coords.y2 - end_space - hor_req_space - 1;
 4341              		.loc 1 478 12 is_stmt 1 view .LVU1316
 478:lvgl/lvgl/src/core/lv_obj_scroll.c ****            ver_area->y2 = obj->coords.y2 - end_space - hor_req_space - 1;
 4342              		.loc 1 478 38 is_stmt 0 view .LVU1317
 4343 04ce E38A     		ldrh	r3, [r4, #22]
 4344              	.LVL508:
 478:lvgl/lvgl/src/core/lv_obj_scroll.c ****            ver_area->y2 = obj->coords.y2 - end_space - hor_req_space - 1;
 4345              		.loc 1 478 42 view .LVU1318
 4346 04d0 4B44     		add	r3, r3, r9
 478:lvgl/lvgl/src/core/lv_obj_scroll.c ****            ver_area->y2 = obj->coords.y2 - end_space - hor_req_space - 1;
 4347              		.loc 1 478 25 view .LVU1319
 4348 04d2 A8F80230 		strh	r3, [r8, #2]	@ movhi
 479:lvgl/lvgl/src/core/lv_obj_scroll.c ****            ver_area->x2 = obj->coords.x2 - side_space;
 4349              		.loc 1 479 12 is_stmt 1 view .LVU1320
 479:lvgl/lvgl/src/core/lv_obj_scroll.c ****            ver_area->x2 = obj->coords.x2 - side_space;
 4350              		.loc 1 479 38 is_stmt 0 view .LVU1321
 4351 04d6 638B     		ldrh	r3, [r4, #26]
 479:lvgl/lvgl/src/core/lv_obj_scroll.c ****            ver_area->x2 = obj->coords.x2 - side_space;
 4352              		.loc 1 479 42 view .LVU1322
 4353 04d8 A3EB0903 		sub	r3, r3, r9
 4354 04dc 9BB2     		uxth	r3, r3
 479:lvgl/lvgl/src/core/lv_obj_scroll.c ****            ver_area->x2 = obj->coords.x2 - side_space;
 4355              		.loc 1 479 54 view .LVU1323
 4356 04de DB1B     		subs	r3, r3, r7
 4357 04e0 9BB2     		uxth	r3, r3
 479:lvgl/lvgl/src/core/lv_obj_scroll.c ****            ver_area->x2 = obj->coords.x2 - side_space;
 4358              		.loc 1 479 70 view .LVU1324
 4359 04e2 013B     		subs	r3, r3, #1
 479:lvgl/lvgl/src/core/lv_obj_scroll.c ****            ver_area->x2 = obj->coords.x2 - side_space;
 4360              		.loc 1 479 25 view .LVU1325
 4361 04e4 A8F80630 		strh	r3, [r8, #6]	@ movhi
 480:lvgl/lvgl/src/core/lv_obj_scroll.c ****            ver_area->x1 =ver_area->x2 - tickness + 1;
ARM GAS  C:\Users\gx\AppData\Local\Temp\ccHlQRWF.s 			page 121


 4362              		.loc 1 480 12 is_stmt 1 view .LVU1326
 480:lvgl/lvgl/src/core/lv_obj_scroll.c ****            ver_area->x1 =ver_area->x2 - tickness + 1;
 4363              		.loc 1 480 38 is_stmt 0 view .LVU1327
 4364 04e8 228B     		ldrh	r2, [r4, #24]
 4365              	.LVL509:
 480:lvgl/lvgl/src/core/lv_obj_scroll.c ****            ver_area->x1 =ver_area->x2 - tickness + 1;
 4366              		.loc 1 480 42 view .LVU1328
 4367 04ea 0E9B     		ldr	r3, [sp, #56]
 4368 04ec D21A     		subs	r2, r2, r3
 4369 04ee 93B2     		uxth	r3, r2
 480:lvgl/lvgl/src/core/lv_obj_scroll.c ****            ver_area->x1 =ver_area->x2 - tickness + 1;
 4370              		.loc 1 480 25 view .LVU1329
 4371 04f0 A8F80420 		strh	r2, [r8, #4]	@ movhi
 481:lvgl/lvgl/src/core/lv_obj_scroll.c ****         } else {
 4372              		.loc 1 481 12 is_stmt 1 view .LVU1330
 481:lvgl/lvgl/src/core/lv_obj_scroll.c ****         } else {
 4373              		.loc 1 481 39 is_stmt 0 view .LVU1331
 4374 04f4 0F9A     		ldr	r2, [sp, #60]
 4375 04f6 9B1A     		subs	r3, r3, r2
 4376 04f8 9BB2     		uxth	r3, r3
 481:lvgl/lvgl/src/core/lv_obj_scroll.c ****         } else {
 4377              		.loc 1 481 50 view .LVU1332
 4378 04fa 0133     		adds	r3, r3, #1
 481:lvgl/lvgl/src/core/lv_obj_scroll.c ****         } else {
 4379              		.loc 1 481 25 view .LVU1333
 4380 04fc A8F80030 		strh	r3, [r8]	@ movhi
 4381 0500 49E6     		b	.L211
 4382              	.L267:
 4383              	.LBB179:
 491:lvgl/lvgl/src/core/lv_obj_scroll.c ****                 if(ver_area->y1 + SCROLLBAR_MIN_SIZE >ver_area->y2)ver_area->y2 =ver_area->y1 + SCR
 4384              		.loc 1 491 16 is_stmt 1 view .LVU1334
 491:lvgl/lvgl/src/core/lv_obj_scroll.c ****                 if(ver_area->y1 + SCROLLBAR_MIN_SIZE >ver_area->y2)ver_area->y2 =ver_area->y1 + SCR
 4385              		.loc 1 491 46 is_stmt 0 view .LVU1335
 4386 0502 19FA83F3 		uxtah	r3, r9, r3
 4387 0506 1DB2     		sxth	r5, r3
 4388              	.LVL510:
 491:lvgl/lvgl/src/core/lv_obj_scroll.c ****                 if(ver_area->y1 + SCROLLBAR_MIN_SIZE >ver_area->y2)ver_area->y2 =ver_area->y1 + SCR
 4389              		.loc 1 491 29 view .LVU1336
 4390 0508 A8F80250 		strh	r5, [r8, #2]	@ movhi
 492:lvgl/lvgl/src/core/lv_obj_scroll.c ****             }
 4391              		.loc 1 492 17 is_stmt 1 view .LVU1337
 492:lvgl/lvgl/src/core/lv_obj_scroll.c ****             }
 4392              		.loc 1 492 35 is_stmt 0 view .LVU1338
 4393 050c 0020     		movs	r0, #0
 4394 050e FFF7FEFF 		bl	lv_disp_get_dpi
 4395              	.LVL511:
 4396 0512 00EB8000 		add	r0, r0, r0, lsl #2
 4397 0516 4300     		lsls	r3, r0, #1
 4398 0518 EF2B     		cmp	r3, #239
 4399 051a 15DC     		bgt	.L271
 4400 051c 0123     		movs	r3, #1
 4401              	.L216:
 492:lvgl/lvgl/src/core/lv_obj_scroll.c ****             }
 4402              		.loc 1 492 33 discriminator 4 view .LVU1339
 4403 051e 1D44     		add	r5, r5, r3
 492:lvgl/lvgl/src/core/lv_obj_scroll.c ****             }
 4404              		.loc 1 492 63 discriminator 4 view .LVU1340
ARM GAS  C:\Users\gx\AppData\Local\Temp\ccHlQRWF.s 			page 122


 4405 0520 B8F90630 		ldrsh	r3, [r8, #6]
 492:lvgl/lvgl/src/core/lv_obj_scroll.c ****             }
 4406              		.loc 1 492 19 discriminator 4 view .LVU1341
 4407 0524 9D42     		cmp	r5, r3
 4408 0526 7FF775AF 		ble	.L215
 492:lvgl/lvgl/src/core/lv_obj_scroll.c ****             }
 4409              		.loc 1 492 68 is_stmt 1 discriminator 5 view .LVU1342
 492:lvgl/lvgl/src/core/lv_obj_scroll.c ****             }
 4410              		.loc 1 492 90 is_stmt 0 discriminator 5 view .LVU1343
 4411 052a B8F80250 		ldrh	r5, [r8, #2]
 492:lvgl/lvgl/src/core/lv_obj_scroll.c ****             }
 4412              		.loc 1 492 97 discriminator 5 view .LVU1344
 4413 052e 0020     		movs	r0, #0
 4414 0530 FFF7FEFF 		bl	lv_disp_get_dpi
 4415              	.LVL512:
 4416 0534 00EB8000 		add	r0, r0, r0, lsl #2
 4417 0538 4300     		lsls	r3, r0, #1
 492:lvgl/lvgl/src/core/lv_obj_scroll.c ****             }
 4418              		.loc 1 492 95 discriminator 5 view .LVU1345
 4419 053a EF2B     		cmp	r3, #239
 4420 053c 12DC     		bgt	.L272
 492:lvgl/lvgl/src/core/lv_obj_scroll.c ****             }
 4421              		.loc 1 492 95 view .LVU1346
 4422 053e 0123     		movs	r3, #1
 4423              	.L217:
 492:lvgl/lvgl/src/core/lv_obj_scroll.c ****             }
 4424              		.loc 1 492 95 discriminator 9 view .LVU1347
 4425 0540 2B44     		add	r3, r3, r5
 492:lvgl/lvgl/src/core/lv_obj_scroll.c ****             }
 4426              		.loc 1 492 81 discriminator 9 view .LVU1348
 4427 0542 A8F80630 		strh	r3, [r8, #6]	@ movhi
 4428 0546 65E7     		b	.L215
 4429              	.L271:
 492:lvgl/lvgl/src/core/lv_obj_scroll.c ****             }
 4430              		.loc 1 492 35 discriminator 1 view .LVU1349
 4431 0548 0020     		movs	r0, #0
 4432 054a FFF7FEFF 		bl	lv_disp_get_dpi
 4433              	.LVL513:
 4434 054e 00EB8000 		add	r0, r0, r0, lsl #2
 4435 0552 4300     		lsls	r3, r0, #1
 4436 0554 5033     		adds	r3, r3, #80
 4437 0556 624A     		ldr	r2, .L276
 4438 0558 82FB0312 		smull	r1, r2, r2, r3
 4439 055c DB17     		asrs	r3, r3, #31
 4440 055e C3EBA213 		rsb	r3, r3, r2, asr #6
 4441 0562 DCE7     		b	.L216
 4442              	.L272:
 492:lvgl/lvgl/src/core/lv_obj_scroll.c ****             }
 4443              		.loc 1 492 97 discriminator 6 view .LVU1350
 4444 0564 0020     		movs	r0, #0
 4445 0566 FFF7FEFF 		bl	lv_disp_get_dpi
 4446              	.LVL514:
 4447 056a 0A23     		movs	r3, #10
 4448 056c 03FB00F3 		mul	r3, r3, r0
 4449 0570 5033     		adds	r3, r3, #80
 4450 0572 A022     		movs	r2, #160
 4451 0574 93FBF2F3 		sdiv	r3, r3, r2
ARM GAS  C:\Users\gx\AppData\Local\Temp\ccHlQRWF.s 			page 123


 492:lvgl/lvgl/src/core/lv_obj_scroll.c ****             }
 4452              		.loc 1 492 95 discriminator 6 view .LVU1351
 4453 0578 9BB2     		uxth	r3, r3
 4454 057a E1E7     		b	.L217
 4455              	.L268:
 496:lvgl/lvgl/src/core/lv_obj_scroll.c ****             }
 4456              		.loc 1 496 35 discriminator 1 view .LVU1352
 4457 057c 0020     		movs	r0, #0
 4458 057e FFF7FEFF 		bl	lv_disp_get_dpi
 4459              	.LVL515:
 4460 0582 00EB8000 		add	r0, r0, r0, lsl #2
 4461 0586 4300     		lsls	r3, r0, #1
 4462 0588 5033     		adds	r3, r3, #80
 4463 058a 554A     		ldr	r2, .L276
 4464 058c 82FB0312 		smull	r1, r2, r2, r3
 4465 0590 DB17     		asrs	r3, r3, #31
 4466 0592 C3EBA213 		rsb	r3, r3, r2, asr #6
 4467 0596 5AE7     		b	.L218
 4468              	.L269:
 496:lvgl/lvgl/src/core/lv_obj_scroll.c ****             }
 4469              		.loc 1 496 97 discriminator 6 view .LVU1353
 4470 0598 0020     		movs	r0, #0
 4471 059a FFF7FEFF 		bl	lv_disp_get_dpi
 4472              	.LVL516:
 4473 059e 0A23     		movs	r3, #10
 4474 05a0 03FB00F3 		mul	r3, r3, r0
 4475 05a4 5033     		adds	r3, r3, #80
 4476 05a6 A022     		movs	r2, #160
 4477 05a8 93FBF2F3 		sdiv	r3, r3, r2
 496:lvgl/lvgl/src/core/lv_obj_scroll.c ****             }
 4478              		.loc 1 496 95 discriminator 6 view .LVU1354
 4479 05ac 9BB2     		uxth	r3, r3
 4480 05ae 60E7     		b	.L219
 4481              	.LVL517:
 4482              	.L258:
 496:lvgl/lvgl/src/core/lv_obj_scroll.c ****             }
 4483              		.loc 1 496 95 discriminator 6 view .LVU1355
 4484              	.LBE179:
 4485              	.LBE177:
 4486              	.LBB180:
 510:lvgl/lvgl/src/core/lv_obj_scroll.c ****         rem = (obj_w - end_space * 2 - ver_reg_space) - sb_w;  /*Remaining size from the scrollbar 
 4487              		.loc 1 510 16 discriminator 1 view .LVU1356
 4488 05b0 0020     		movs	r0, #0
 4489 05b2 FFF7FEFF 		bl	lv_disp_get_dpi
 4490              	.LVL518:
 4491 05b6 00EB8000 		add	r0, r0, r0, lsl #2
 4492 05ba 4300     		lsls	r3, r0, #1
 4493 05bc 5033     		adds	r3, r3, #80
 4494 05be 484A     		ldr	r2, .L276
 4495 05c0 82FB0312 		smull	r1, r2, r2, r3
 4496 05c4 DB17     		asrs	r3, r3, #31
 4497 05c6 C3EBA213 		rsb	r3, r3, r2, asr #6
 4498 05ca 22E6     		b	.L220
 4499              	.L259:
 510:lvgl/lvgl/src/core/lv_obj_scroll.c ****         rem = (obj_w - end_space * 2 - ver_reg_space) - sb_w;  /*Remaining size from the scrollbar 
 4500              		.loc 1 510 16 discriminator 5 view .LVU1357
 4501 05cc 0020     		movs	r0, #0
ARM GAS  C:\Users\gx\AppData\Local\Temp\ccHlQRWF.s 			page 124


 4502 05ce FFF7FEFF 		bl	lv_disp_get_dpi
 4503              	.LVL519:
 4504 05d2 00EB8000 		add	r0, r0, r0, lsl #2
 4505 05d6 4300     		lsls	r3, r0, #1
 510:lvgl/lvgl/src/core/lv_obj_scroll.c ****         rem = (obj_w - end_space * 2 - ver_reg_space) - sb_w;  /*Remaining size from the scrollbar 
 4506              		.loc 1 510 14 discriminator 5 view .LVU1358
 4507 05d8 EF2B     		cmp	r3, #239
 4508 05da 02DC     		bgt	.L273
 510:lvgl/lvgl/src/core/lv_obj_scroll.c ****         rem = (obj_w - end_space * 2 - ver_reg_space) - sb_w;  /*Remaining size from the scrollbar 
 4509              		.loc 1 510 14 view .LVU1359
 4510 05dc 4FF00108 		mov	r8, #1
 4511              	.LVL520:
 510:lvgl/lvgl/src/core/lv_obj_scroll.c ****         rem = (obj_w - end_space * 2 - ver_reg_space) - sb_w;  /*Remaining size from the scrollbar 
 4512              		.loc 1 510 14 view .LVU1360
 4513 05e0 1AE6     		b	.L221
 4514              	.LVL521:
 4515              	.L273:
 510:lvgl/lvgl/src/core/lv_obj_scroll.c ****         rem = (obj_w - end_space * 2 - ver_reg_space) - sb_w;  /*Remaining size from the scrollbar 
 4516              		.loc 1 510 16 discriminator 7 view .LVU1361
 4517 05e2 0020     		movs	r0, #0
 4518 05e4 FFF7FEFF 		bl	lv_disp_get_dpi
 4519              	.LVL522:
 4520 05e8 00EB8000 		add	r0, r0, r0, lsl #2
 4521 05ec 4300     		lsls	r3, r0, #1
 4522 05ee 5033     		adds	r3, r3, #80
 4523 05f0 3B4A     		ldr	r2, .L276
 4524 05f2 82FB0312 		smull	r1, r2, r2, r3
 4525 05f6 4FEAE378 		asr	r8, r3, #31
 4526              	.LVL523:
 510:lvgl/lvgl/src/core/lv_obj_scroll.c ****         rem = (obj_w - end_space * 2 - ver_reg_space) - sb_w;  /*Remaining size from the scrollbar 
 4527              		.loc 1 510 16 discriminator 7 view .LVU1362
 4528 05fa C8EBA218 		rsb	r8, r8, r2, asr #6
 510:lvgl/lvgl/src/core/lv_obj_scroll.c ****         rem = (obj_w - end_space * 2 - ver_reg_space) - sb_w;  /*Remaining size from the scrollbar 
 4529              		.loc 1 510 14 discriminator 7 view .LVU1363
 4530 05fe 0FFA88F8 		sxth	r8, r8
 4531 0602 09E6     		b	.L221
 4532              	.LVL524:
 4533              	.L260:
 514:lvgl/lvgl/src/core/lv_obj_scroll.c ****             hor_area->y1 = hor_area->y2 - tickness + 1;
 4534              		.loc 1 514 13 is_stmt 1 view .LVU1364
 514:lvgl/lvgl/src/core/lv_obj_scroll.c ****             hor_area->y1 = hor_area->y2 - tickness + 1;
 4535              		.loc 1 514 39 is_stmt 0 view .LVU1365
 4536 0604 638B     		ldrh	r3, [r4, #26]
 4537              	.LVL525:
 514:lvgl/lvgl/src/core/lv_obj_scroll.c ****             hor_area->y1 = hor_area->y2 - tickness + 1;
 4538              		.loc 1 514 43 view .LVU1366
 4539 0606 DF1B     		subs	r7, r3, r7
 4540 0608 BBB2     		uxth	r3, r7
 514:lvgl/lvgl/src/core/lv_obj_scroll.c ****             hor_area->y1 = hor_area->y2 - tickness + 1;
 4541              		.loc 1 514 26 view .LVU1367
 4542 060a AAF80670 		strh	r7, [r10, #6]	@ movhi
 515:lvgl/lvgl/src/core/lv_obj_scroll.c ****             hor_area->x1 = obj->coords.x1 + end_space;
 4543              		.loc 1 515 13 is_stmt 1 view .LVU1368
 515:lvgl/lvgl/src/core/lv_obj_scroll.c ****             hor_area->x1 = obj->coords.x1 + end_space;
 4544              		.loc 1 515 41 is_stmt 0 view .LVU1369
 4545 060e 9B1B     		subs	r3, r3, r6
 4546 0610 9BB2     		uxth	r3, r3
ARM GAS  C:\Users\gx\AppData\Local\Temp\ccHlQRWF.s 			page 125


 515:lvgl/lvgl/src/core/lv_obj_scroll.c ****             hor_area->x1 = obj->coords.x1 + end_space;
 4547              		.loc 1 515 52 view .LVU1370
 4548 0612 0133     		adds	r3, r3, #1
 515:lvgl/lvgl/src/core/lv_obj_scroll.c ****             hor_area->x1 = obj->coords.x1 + end_space;
 4549              		.loc 1 515 26 view .LVU1371
 4550 0614 AAF80230 		strh	r3, [r10, #2]	@ movhi
 516:lvgl/lvgl/src/core/lv_obj_scroll.c ****             hor_area->x2 = obj->coords.x2 - end_space - ver_reg_space - 1;
 4551              		.loc 1 516 13 is_stmt 1 view .LVU1372
 516:lvgl/lvgl/src/core/lv_obj_scroll.c ****             hor_area->x2 = obj->coords.x2 - end_space - ver_reg_space - 1;
 4552              		.loc 1 516 39 is_stmt 0 view .LVU1373
 4553 0618 A38A     		ldrh	r3, [r4, #20]
 516:lvgl/lvgl/src/core/lv_obj_scroll.c ****             hor_area->x2 = obj->coords.x2 - end_space - ver_reg_space - 1;
 4554              		.loc 1 516 43 view .LVU1374
 4555 061a 2B44     		add	r3, r3, r5
 516:lvgl/lvgl/src/core/lv_obj_scroll.c ****             hor_area->x2 = obj->coords.x2 - end_space - ver_reg_space - 1;
 4556              		.loc 1 516 26 view .LVU1375
 4557 061c AAF80030 		strh	r3, [r10]	@ movhi
 517:lvgl/lvgl/src/core/lv_obj_scroll.c ****         } else {
 4558              		.loc 1 517 13 is_stmt 1 view .LVU1376
 517:lvgl/lvgl/src/core/lv_obj_scroll.c ****         } else {
 4559              		.loc 1 517 39 is_stmt 0 view .LVU1377
 4560 0620 238B     		ldrh	r3, [r4, #24]
 517:lvgl/lvgl/src/core/lv_obj_scroll.c ****         } else {
 4561              		.loc 1 517 43 view .LVU1378
 4562 0622 5B1B     		subs	r3, r3, r5
 4563 0624 9BB2     		uxth	r3, r3
 517:lvgl/lvgl/src/core/lv_obj_scroll.c ****         } else {
 4564              		.loc 1 517 55 view .LVU1379
 4565 0626 5B1A     		subs	r3, r3, r1
 4566 0628 9BB2     		uxth	r3, r3
 517:lvgl/lvgl/src/core/lv_obj_scroll.c ****         } else {
 4567              		.loc 1 517 71 view .LVU1380
 4568 062a 013B     		subs	r3, r3, #1
 517:lvgl/lvgl/src/core/lv_obj_scroll.c ****         } else {
 4569              		.loc 1 517 26 view .LVU1381
 4570 062c AAF80430 		strh	r3, [r10, #4]	@ movhi
 4571 0630 07E5     		b	.L197
 4572              	.LVL526:
 4573              	.L261:
 4574              	.LBB174:
 527:lvgl/lvgl/src/core/lv_obj_scroll.c ****                 if(hor_area->x1 + SCROLLBAR_MIN_SIZE > hor_area->x2) hor_area->x2 = hor_area->x1 + 
 4575              		.loc 1 527 17 is_stmt 1 view .LVU1382
 527:lvgl/lvgl/src/core/lv_obj_scroll.c ****                 if(hor_area->x1 + SCROLLBAR_MIN_SIZE > hor_area->x2) hor_area->x2 = hor_area->x1 + 
 4576              		.loc 1 527 47 is_stmt 0 view .LVU1383
 4577 0632 15FA83F3 		uxtah	r3, r5, r3
 4578 0636 1EB2     		sxth	r6, r3
 527:lvgl/lvgl/src/core/lv_obj_scroll.c ****                 if(hor_area->x1 + SCROLLBAR_MIN_SIZE > hor_area->x2) hor_area->x2 = hor_area->x1 + 
 4579              		.loc 1 527 30 view .LVU1384
 4580 0638 AAF80060 		strh	r6, [r10]	@ movhi
 528:lvgl/lvgl/src/core/lv_obj_scroll.c ****             }
 4581              		.loc 1 528 17 is_stmt 1 view .LVU1385
 528:lvgl/lvgl/src/core/lv_obj_scroll.c ****             }
 4582              		.loc 1 528 35 is_stmt 0 view .LVU1386
 4583 063c 0020     		movs	r0, #0
 4584 063e FFF7FEFF 		bl	lv_disp_get_dpi
 4585              	.LVL527:
 4586 0642 00EB8000 		add	r0, r0, r0, lsl #2
ARM GAS  C:\Users\gx\AppData\Local\Temp\ccHlQRWF.s 			page 126


 4587 0646 4300     		lsls	r3, r0, #1
 4588 0648 EF2B     		cmp	r3, #239
 4589 064a 15DC     		bgt	.L274
 4590 064c 0123     		movs	r3, #1
 4591              	.L224:
 528:lvgl/lvgl/src/core/lv_obj_scroll.c ****             }
 4592              		.loc 1 528 33 discriminator 4 view .LVU1387
 4593 064e 1E44     		add	r6, r6, r3
 528:lvgl/lvgl/src/core/lv_obj_scroll.c ****             }
 4594              		.loc 1 528 64 discriminator 4 view .LVU1388
 4595 0650 BAF90430 		ldrsh	r3, [r10, #4]
 528:lvgl/lvgl/src/core/lv_obj_scroll.c ****             }
 4596              		.loc 1 528 19 discriminator 4 view .LVU1389
 4597 0654 9E42     		cmp	r6, r3
 4598 0656 7FF71CAE 		ble	.L223
 528:lvgl/lvgl/src/core/lv_obj_scroll.c ****             }
 4599              		.loc 1 528 70 is_stmt 1 discriminator 5 view .LVU1390
 528:lvgl/lvgl/src/core/lv_obj_scroll.c ****             }
 4600              		.loc 1 528 93 is_stmt 0 discriminator 5 view .LVU1391
 4601 065a BAF80060 		ldrh	r6, [r10]
 528:lvgl/lvgl/src/core/lv_obj_scroll.c ****             }
 4602              		.loc 1 528 100 discriminator 5 view .LVU1392
 4603 065e 0020     		movs	r0, #0
 4604 0660 FFF7FEFF 		bl	lv_disp_get_dpi
 4605              	.LVL528:
 4606 0664 00EB8000 		add	r0, r0, r0, lsl #2
 4607 0668 4300     		lsls	r3, r0, #1
 528:lvgl/lvgl/src/core/lv_obj_scroll.c ****             }
 4608              		.loc 1 528 98 discriminator 5 view .LVU1393
 4609 066a EF2B     		cmp	r3, #239
 4610 066c 12DC     		bgt	.L275
 528:lvgl/lvgl/src/core/lv_obj_scroll.c ****             }
 4611              		.loc 1 528 98 view .LVU1394
 4612 066e 0123     		movs	r3, #1
 4613              	.L225:
 528:lvgl/lvgl/src/core/lv_obj_scroll.c ****             }
 4614              		.loc 1 528 98 discriminator 9 view .LVU1395
 4615 0670 3344     		add	r3, r3, r6
 528:lvgl/lvgl/src/core/lv_obj_scroll.c ****             }
 4616              		.loc 1 528 83 discriminator 9 view .LVU1396
 4617 0672 AAF80430 		strh	r3, [r10, #4]	@ movhi
 4618 0676 0CE6     		b	.L223
 4619              	.L274:
 528:lvgl/lvgl/src/core/lv_obj_scroll.c ****             }
 4620              		.loc 1 528 35 discriminator 1 view .LVU1397
 4621 0678 0020     		movs	r0, #0
 4622 067a FFF7FEFF 		bl	lv_disp_get_dpi
 4623              	.LVL529:
 4624 067e 00EB8000 		add	r0, r0, r0, lsl #2
 4625 0682 4300     		lsls	r3, r0, #1
 4626 0684 5033     		adds	r3, r3, #80
 4627 0686 164A     		ldr	r2, .L276
 4628 0688 82FB0312 		smull	r1, r2, r2, r3
 4629 068c DB17     		asrs	r3, r3, #31
 4630 068e C3EBA213 		rsb	r3, r3, r2, asr #6
 4631 0692 DCE7     		b	.L224
 4632              	.L275:
ARM GAS  C:\Users\gx\AppData\Local\Temp\ccHlQRWF.s 			page 127


 528:lvgl/lvgl/src/core/lv_obj_scroll.c ****             }
 4633              		.loc 1 528 100 discriminator 6 view .LVU1398
 4634 0694 0020     		movs	r0, #0
 4635 0696 FFF7FEFF 		bl	lv_disp_get_dpi
 4636              	.LVL530:
 4637 069a 0A23     		movs	r3, #10
 4638 069c 03FB00F3 		mul	r3, r3, r0
 4639 06a0 5033     		adds	r3, r3, #80
 4640 06a2 A022     		movs	r2, #160
 4641 06a4 93FBF2F3 		sdiv	r3, r3, r2
 528:lvgl/lvgl/src/core/lv_obj_scroll.c ****             }
 4642              		.loc 1 528 98 discriminator 6 view .LVU1399
 4643 06a8 9BB2     		uxth	r3, r3
 4644 06aa E1E7     		b	.L225
 4645              	.LVL531:
 4646              	.L262:
 532:lvgl/lvgl/src/core/lv_obj_scroll.c ****             }
 4647              		.loc 1 532 35 discriminator 1 view .LVU1400
 4648 06ac 0020     		movs	r0, #0
 4649 06ae FFF7FEFF 		bl	lv_disp_get_dpi
 4650              	.LVL532:
 4651 06b2 00EB8000 		add	r0, r0, r0, lsl #2
 4652 06b6 4300     		lsls	r3, r0, #1
 4653 06b8 5033     		adds	r3, r3, #80
 4654 06ba 094A     		ldr	r2, .L276
 4655 06bc 82FB0312 		smull	r1, r2, r2, r3
 4656 06c0 DB17     		asrs	r3, r3, #31
 4657 06c2 C3EBA213 		rsb	r3, r3, r2, asr #6
 4658 06c6 01E6     		b	.L226
 4659              	.L263:
 532:lvgl/lvgl/src/core/lv_obj_scroll.c ****             }
 4660              		.loc 1 532 100 discriminator 6 view .LVU1401
 4661 06c8 0020     		movs	r0, #0
 4662 06ca FFF7FEFF 		bl	lv_disp_get_dpi
 4663              	.LVL533:
 4664 06ce 0A23     		movs	r3, #10
 4665 06d0 03FB00F3 		mul	r3, r3, r0
 4666 06d4 5033     		adds	r3, r3, #80
 4667 06d6 A022     		movs	r2, #160
 4668 06d8 93FBF2F3 		sdiv	r3, r3, r2
 532:lvgl/lvgl/src/core/lv_obj_scroll.c ****             }
 4669              		.loc 1 532 98 discriminator 6 view .LVU1402
 4670 06dc 9BB2     		uxth	r3, r3
 4671 06de 07E6     		b	.L227
 4672              	.L277:
 4673              		.align	2
 4674              	.L276:
 4675 06e0 67666666 		.word	1717986919
 4676              	.LBE174:
 4677              	.LBE180:
 4678              		.cfi_endproc
 4679              	.LFE181:
 4681              		.section	.text.lv_obj_scrollbar_invalidate,"ax",%progbits
 4682              		.align	1
 4683              		.global	lv_obj_scrollbar_invalidate
 4684              		.syntax unified
 4685              		.thumb
ARM GAS  C:\Users\gx\AppData\Local\Temp\ccHlQRWF.s 			page 128


 4686              		.thumb_func
 4687              		.fpu fpv4-sp-d16
 4689              	lv_obj_scrollbar_invalidate:
 4690              	.LVL534:
 4691              	.LFB182:
 539:lvgl/lvgl/src/core/lv_obj_scroll.c ****     lv_area_t hor_area;
 4692              		.loc 1 539 1 is_stmt 1 view -0
 4693              		.cfi_startproc
 4694              		@ args = 0, pretend = 0, frame = 16
 4695              		@ frame_needed = 0, uses_anonymous_args = 0
 539:lvgl/lvgl/src/core/lv_obj_scroll.c ****     lv_area_t hor_area;
 4696              		.loc 1 539 1 is_stmt 0 view .LVU1404
 4697 0000 10B5     		push	{r4, lr}
 4698              	.LCFI37:
 4699              		.cfi_def_cfa_offset 8
 4700              		.cfi_offset 4, -8
 4701              		.cfi_offset 14, -4
 4702 0002 84B0     		sub	sp, sp, #16
 4703              	.LCFI38:
 4704              		.cfi_def_cfa_offset 24
 4705 0004 0446     		mov	r4, r0
 540:lvgl/lvgl/src/core/lv_obj_scroll.c ****     lv_area_t ver_area;
 4706              		.loc 1 540 5 is_stmt 1 view .LVU1405
 541:lvgl/lvgl/src/core/lv_obj_scroll.c ****     lv_obj_get_scrollbar_area(obj, &hor_area, &ver_area);
 4707              		.loc 1 541 5 view .LVU1406
 542:lvgl/lvgl/src/core/lv_obj_scroll.c **** 
 4708              		.loc 1 542 5 view .LVU1407
 4709 0006 6A46     		mov	r2, sp
 4710 0008 02A9     		add	r1, sp, #8
 4711 000a FFF7FEFF 		bl	lv_obj_get_scrollbar_area
 4712              	.LVL535:
 544:lvgl/lvgl/src/core/lv_obj_scroll.c **** 
 4713              		.loc 1 544 5 view .LVU1408
 544:lvgl/lvgl/src/core/lv_obj_scroll.c **** 
 4714              		.loc 1 544 8 is_stmt 0 view .LVU1409
 4715 000e 02A8     		add	r0, sp, #8
 4716 0010 FFF7FEFF 		bl	lv_area_get_size
 4717              	.LVL536:
 544:lvgl/lvgl/src/core/lv_obj_scroll.c **** 
 4718              		.loc 1 544 7 view .LVU1410
 4719 0014 18B9     		cbnz	r0, .L279
 544:lvgl/lvgl/src/core/lv_obj_scroll.c **** 
 4720              		.loc 1 544 44 discriminator 1 view .LVU1411
 4721 0016 6846     		mov	r0, sp
 4722 0018 FFF7FEFF 		bl	lv_area_get_size
 4723              	.LVL537:
 544:lvgl/lvgl/src/core/lv_obj_scroll.c **** 
 4724              		.loc 1 544 41 discriminator 1 view .LVU1412
 4725 001c 38B1     		cbz	r0, .L278
 4726              	.L279:
 546:lvgl/lvgl/src/core/lv_obj_scroll.c ****     if(lv_area_get_size(&ver_area) > 0) lv_obj_invalidate_area(obj, &ver_area);
 4727              		.loc 1 546 5 is_stmt 1 view .LVU1413
 546:lvgl/lvgl/src/core/lv_obj_scroll.c ****     if(lv_area_get_size(&ver_area) > 0) lv_obj_invalidate_area(obj, &ver_area);
 4728              		.loc 1 546 8 is_stmt 0 view .LVU1414
 4729 001e 02A8     		add	r0, sp, #8
 4730 0020 FFF7FEFF 		bl	lv_area_get_size
 4731              	.LVL538:
ARM GAS  C:\Users\gx\AppData\Local\Temp\ccHlQRWF.s 			page 129


 546:lvgl/lvgl/src/core/lv_obj_scroll.c ****     if(lv_area_get_size(&ver_area) > 0) lv_obj_invalidate_area(obj, &ver_area);
 4732              		.loc 1 546 7 view .LVU1415
 4733 0024 28B9     		cbnz	r0, .L284
 4734              	.L281:
 547:lvgl/lvgl/src/core/lv_obj_scroll.c **** }
 4735              		.loc 1 547 5 is_stmt 1 view .LVU1416
 547:lvgl/lvgl/src/core/lv_obj_scroll.c **** }
 4736              		.loc 1 547 8 is_stmt 0 view .LVU1417
 4737 0026 6846     		mov	r0, sp
 4738 0028 FFF7FEFF 		bl	lv_area_get_size
 4739              	.LVL539:
 547:lvgl/lvgl/src/core/lv_obj_scroll.c **** }
 4740              		.loc 1 547 7 view .LVU1418
 4741 002c 30B9     		cbnz	r0, .L285
 4742              	.L278:
 548:lvgl/lvgl/src/core/lv_obj_scroll.c **** 
 4743              		.loc 1 548 1 view .LVU1419
 4744 002e 04B0     		add	sp, sp, #16
 4745              	.LCFI39:
 4746              		.cfi_remember_state
 4747              		.cfi_def_cfa_offset 8
 4748              		@ sp needed
 4749 0030 10BD     		pop	{r4, pc}
 4750              	.LVL540:
 4751              	.L284:
 4752              	.LCFI40:
 4753              		.cfi_restore_state
 546:lvgl/lvgl/src/core/lv_obj_scroll.c ****     if(lv_area_get_size(&ver_area) > 0) lv_obj_invalidate_area(obj, &ver_area);
 4754              		.loc 1 546 41 is_stmt 1 discriminator 1 view .LVU1420
 4755 0032 02A9     		add	r1, sp, #8
 4756 0034 2046     		mov	r0, r4
 4757 0036 FFF7FEFF 		bl	lv_obj_invalidate_area
 4758              	.LVL541:
 4759 003a F4E7     		b	.L281
 4760              	.L285:
 547:lvgl/lvgl/src/core/lv_obj_scroll.c **** }
 4761              		.loc 1 547 41 discriminator 1 view .LVU1421
 4762 003c 6946     		mov	r1, sp
 4763 003e 2046     		mov	r0, r4
 4764 0040 FFF7FEFF 		bl	lv_obj_invalidate_area
 4765              	.LVL542:
 4766 0044 F3E7     		b	.L278
 4767              		.cfi_endproc
 4768              	.LFE182:
 4770              		.section	.text.lv_obj_readjust_scroll,"ax",%progbits
 4771              		.align	1
 4772              		.global	lv_obj_readjust_scroll
 4773              		.syntax unified
 4774              		.thumb
 4775              		.thumb_func
 4776              		.fpu fpv4-sp-d16
 4778              	lv_obj_readjust_scroll:
 4779              	.LVL543:
 4780              	.LFB183:
 551:lvgl/lvgl/src/core/lv_obj_scroll.c ****     /*Be sure the bottom side is not remains scrolled in*/
 4781              		.loc 1 551 1 view -0
 4782              		.cfi_startproc
ARM GAS  C:\Users\gx\AppData\Local\Temp\ccHlQRWF.s 			page 130


 4783              		@ args = 0, pretend = 0, frame = 0
 4784              		@ frame_needed = 0, uses_anonymous_args = 0
 551:lvgl/lvgl/src/core/lv_obj_scroll.c ****     /*Be sure the bottom side is not remains scrolled in*/
 4785              		.loc 1 551 1 is_stmt 0 view .LVU1423
 4786 0000 F8B5     		push	{r3, r4, r5, r6, r7, lr}
 4787              	.LCFI41:
 4788              		.cfi_def_cfa_offset 24
 4789              		.cfi_offset 3, -24
 4790              		.cfi_offset 4, -20
 4791              		.cfi_offset 5, -16
 4792              		.cfi_offset 6, -12
 4793              		.cfi_offset 7, -8
 4794              		.cfi_offset 14, -4
 4795 0002 0446     		mov	r4, r0
 4796 0004 0D46     		mov	r5, r1
 554:lvgl/lvgl/src/core/lv_obj_scroll.c ****         lv_coord_t st = lv_obj_get_scroll_top(obj);
 4797              		.loc 1 554 5 is_stmt 1 view .LVU1424
 554:lvgl/lvgl/src/core/lv_obj_scroll.c ****         lv_coord_t st = lv_obj_get_scroll_top(obj);
 4798              		.loc 1 554 8 is_stmt 0 view .LVU1425
 4799 0006 FFF7FEFF 		bl	lv_obj_get_scroll_snap_y
 4800              	.LVL544:
 554:lvgl/lvgl/src/core/lv_obj_scroll.c ****         lv_coord_t st = lv_obj_get_scroll_top(obj);
 4801              		.loc 1 554 7 view .LVU1426
 4802 000a 20B1     		cbz	r0, .L291
 4803              	.L287:
 563:lvgl/lvgl/src/core/lv_obj_scroll.c ****         lv_coord_t sl = lv_obj_get_scroll_left(obj);
 4804              		.loc 1 563 5 is_stmt 1 view .LVU1427
 563:lvgl/lvgl/src/core/lv_obj_scroll.c ****         lv_coord_t sl = lv_obj_get_scroll_left(obj);
 4805              		.loc 1 563 8 is_stmt 0 view .LVU1428
 4806 000c 2046     		mov	r0, r4
 4807 000e FFF7FEFF 		bl	lv_obj_get_scroll_snap_x
 4808              	.LVL545:
 563:lvgl/lvgl/src/core/lv_obj_scroll.c ****         lv_coord_t sl = lv_obj_get_scroll_left(obj);
 4809              		.loc 1 563 7 view .LVU1429
 4810 0012 B0B1     		cbz	r0, .L292
 4811              	.L286:
 580:lvgl/lvgl/src/core/lv_obj_scroll.c **** 
 4812              		.loc 1 580 1 view .LVU1430
 4813 0014 F8BD     		pop	{r3, r4, r5, r6, r7, pc}
 4814              	.LVL546:
 4815              	.L291:
 4816              	.LBB181:
 555:lvgl/lvgl/src/core/lv_obj_scroll.c ****         lv_coord_t sb = lv_obj_get_scroll_bottom(obj);
 4817              		.loc 1 555 9 is_stmt 1 view .LVU1431
 555:lvgl/lvgl/src/core/lv_obj_scroll.c ****         lv_coord_t sb = lv_obj_get_scroll_bottom(obj);
 4818              		.loc 1 555 25 is_stmt 0 view .LVU1432
 4819 0016 2046     		mov	r0, r4
 4820 0018 FFF7FEFF 		bl	lv_obj_get_scroll_top
 4821              	.LVL547:
 4822 001c 0646     		mov	r6, r0
 4823              	.LVL548:
 556:lvgl/lvgl/src/core/lv_obj_scroll.c ****         if(sb < 0 && st > 0) {
 4824              		.loc 1 556 9 is_stmt 1 view .LVU1433
 556:lvgl/lvgl/src/core/lv_obj_scroll.c ****         if(sb < 0 && st > 0) {
 4825              		.loc 1 556 25 is_stmt 0 view .LVU1434
 4826 001e 2046     		mov	r0, r4
 4827 0020 FFF7FEFF 		bl	lv_obj_get_scroll_bottom
ARM GAS  C:\Users\gx\AppData\Local\Temp\ccHlQRWF.s 			page 131


 4828              	.LVL549:
 557:lvgl/lvgl/src/core/lv_obj_scroll.c ****             sb = LV_MIN(st, -sb);
 4829              		.loc 1 557 9 is_stmt 1 view .LVU1435
 557:lvgl/lvgl/src/core/lv_obj_scroll.c ****             sb = LV_MIN(st, -sb);
 4830              		.loc 1 557 11 is_stmt 0 view .LVU1436
 4831 0024 031E     		subs	r3, r0, #0
 4832 0026 F1DA     		bge	.L287
 557:lvgl/lvgl/src/core/lv_obj_scroll.c ****             sb = LV_MIN(st, -sb);
 4833              		.loc 1 557 19 discriminator 1 view .LVU1437
 4834 0028 002E     		cmp	r6, #0
 4835 002a EFDD     		ble	.L287
 558:lvgl/lvgl/src/core/lv_obj_scroll.c ****             lv_obj_scroll_by(obj, 0, sb, anim_en);
 4836              		.loc 1 558 13 is_stmt 1 view .LVU1438
 558:lvgl/lvgl/src/core/lv_obj_scroll.c ****             lv_obj_scroll_by(obj, 0, sb, anim_en);
 4837              		.loc 1 558 18 is_stmt 0 view .LVU1439
 4838 002c 5A42     		rsbs	r2, r3, #0
 4839 002e B242     		cmp	r2, r6
 4840 0030 A8BF     		it	ge
 4841 0032 3246     		movge	r2, r6
 4842              	.LVL550:
 559:lvgl/lvgl/src/core/lv_obj_scroll.c ****         }
 4843              		.loc 1 559 13 is_stmt 1 view .LVU1440
 4844 0034 2B46     		mov	r3, r5
 4845 0036 12B2     		sxth	r2, r2
 559:lvgl/lvgl/src/core/lv_obj_scroll.c ****         }
 4846              		.loc 1 559 13 is_stmt 0 view .LVU1441
 4847 0038 0021     		movs	r1, #0
 4848 003a 2046     		mov	r0, r4
 4849 003c FFF7FEFF 		bl	lv_obj_scroll_by
 4850              	.LVL551:
 559:lvgl/lvgl/src/core/lv_obj_scroll.c ****         }
 4851              		.loc 1 559 13 view .LVU1442
 4852 0040 E4E7     		b	.L287
 4853              	.LVL552:
 4854              	.L292:
 559:lvgl/lvgl/src/core/lv_obj_scroll.c ****         }
 4855              		.loc 1 559 13 view .LVU1443
 4856              	.LBE181:
 4857              	.LBB182:
 564:lvgl/lvgl/src/core/lv_obj_scroll.c ****         lv_coord_t sr = lv_obj_get_scroll_right(obj);
 4858              		.loc 1 564 9 is_stmt 1 view .LVU1444
 564:lvgl/lvgl/src/core/lv_obj_scroll.c ****         lv_coord_t sr = lv_obj_get_scroll_right(obj);
 4859              		.loc 1 564 25 is_stmt 0 view .LVU1445
 4860 0042 2046     		mov	r0, r4
 4861 0044 FFF7FEFF 		bl	lv_obj_get_scroll_left
 4862              	.LVL553:
 4863 0048 0746     		mov	r7, r0
 4864              	.LVL554:
 565:lvgl/lvgl/src/core/lv_obj_scroll.c ****         if(lv_obj_get_style_base_dir(obj, LV_PART_MAIN) != LV_BASE_DIR_RTL) {
 4865              		.loc 1 565 9 is_stmt 1 view .LVU1446
 565:lvgl/lvgl/src/core/lv_obj_scroll.c ****         if(lv_obj_get_style_base_dir(obj, LV_PART_MAIN) != LV_BASE_DIR_RTL) {
 4866              		.loc 1 565 25 is_stmt 0 view .LVU1447
 4867 004a 2046     		mov	r0, r4
 4868 004c FFF7FEFF 		bl	lv_obj_get_scroll_right
 4869              	.LVL555:
 4870 0050 0646     		mov	r6, r0
 4871              	.LVL556:
ARM GAS  C:\Users\gx\AppData\Local\Temp\ccHlQRWF.s 			page 132


 566:lvgl/lvgl/src/core/lv_obj_scroll.c ****             /*Be sure the left side is not remains scrolled in*/
 4872              		.loc 1 566 9 is_stmt 1 view .LVU1448
 4873              	.LBB183:
 4874              	.LBI183:
 187:lvgl/lvgl/src/core/lv_obj_style_gen.h **** {
 4875              		.loc 2 187 29 view .LVU1449
 4876              	.LBB184:
 189:lvgl/lvgl/src/core/lv_obj_style_gen.h ****     return (lv_base_dir_t)v.num;
 4877              		.loc 2 189 5 view .LVU1450
 189:lvgl/lvgl/src/core/lv_obj_style_gen.h ****     return (lv_base_dir_t)v.num;
 4878              		.loc 2 189 26 is_stmt 0 view .LVU1451
 4879 0052 41F26A42 		movw	r2, #5226
 4880 0056 0021     		movs	r1, #0
 4881 0058 2046     		mov	r0, r4
 4882 005a FFF7FEFF 		bl	lv_obj_get_style_prop
 4883              	.LVL557:
 190:lvgl/lvgl/src/core/lv_obj_style_gen.h **** }
 4884              		.loc 2 190 5 is_stmt 1 view .LVU1452
 190:lvgl/lvgl/src/core/lv_obj_style_gen.h **** }
 4885              		.loc 2 190 12 is_stmt 0 view .LVU1453
 4886 005e C0B2     		uxtb	r0, r0
 4887              	.LVL558:
 190:lvgl/lvgl/src/core/lv_obj_style_gen.h **** }
 4888              		.loc 2 190 12 view .LVU1454
 4889              	.LBE184:
 4890              	.LBE183:
 566:lvgl/lvgl/src/core/lv_obj_scroll.c ****             /*Be sure the left side is not remains scrolled in*/
 4891              		.loc 1 566 11 view .LVU1455
 4892 0060 0128     		cmp	r0, #1
 4893 0062 0ED0     		beq	.L289
 568:lvgl/lvgl/src/core/lv_obj_scroll.c ****                 sr = LV_MIN(sl, -sr);
 4894              		.loc 1 568 13 is_stmt 1 view .LVU1456
 568:lvgl/lvgl/src/core/lv_obj_scroll.c ****                 sr = LV_MIN(sl, -sr);
 4895              		.loc 1 568 15 is_stmt 0 view .LVU1457
 4896 0064 002E     		cmp	r6, #0
 4897 0066 D5DA     		bge	.L286
 568:lvgl/lvgl/src/core/lv_obj_scroll.c ****                 sr = LV_MIN(sl, -sr);
 4898              		.loc 1 568 23 discriminator 1 view .LVU1458
 4899 0068 002F     		cmp	r7, #0
 4900 006a D3DD     		ble	.L286
 569:lvgl/lvgl/src/core/lv_obj_scroll.c ****                 lv_obj_scroll_by(obj, sr, 0, anim_en);
 4901              		.loc 1 569 17 is_stmt 1 view .LVU1459
 569:lvgl/lvgl/src/core/lv_obj_scroll.c ****                 lv_obj_scroll_by(obj, sr, 0, anim_en);
 4902              		.loc 1 569 22 is_stmt 0 view .LVU1460
 4903 006c 7142     		rsbs	r1, r6, #0
 4904 006e B942     		cmp	r1, r7
 4905 0070 A8BF     		it	ge
 4906 0072 3946     		movge	r1, r7
 4907              	.LVL559:
 570:lvgl/lvgl/src/core/lv_obj_scroll.c ****             }
 4908              		.loc 1 570 17 is_stmt 1 view .LVU1461
 4909 0074 2B46     		mov	r3, r5
 4910 0076 0022     		movs	r2, #0
 4911 0078 09B2     		sxth	r1, r1
 570:lvgl/lvgl/src/core/lv_obj_scroll.c ****             }
 4912              		.loc 1 570 17 is_stmt 0 view .LVU1462
 4913 007a 2046     		mov	r0, r4
ARM GAS  C:\Users\gx\AppData\Local\Temp\ccHlQRWF.s 			page 133


 4914 007c FFF7FEFF 		bl	lv_obj_scroll_by
 4915              	.LVL560:
 570:lvgl/lvgl/src/core/lv_obj_scroll.c ****             }
 4916              		.loc 1 570 17 view .LVU1463
 4917 0080 C8E7     		b	.L286
 4918              	.LVL561:
 4919              	.L289:
 574:lvgl/lvgl/src/core/lv_obj_scroll.c ****                 sr = LV_MIN(sr, -sl);
 4920              		.loc 1 574 13 is_stmt 1 view .LVU1464
 574:lvgl/lvgl/src/core/lv_obj_scroll.c ****                 sr = LV_MIN(sr, -sl);
 4921              		.loc 1 574 15 is_stmt 0 view .LVU1465
 4922 0082 002F     		cmp	r7, #0
 4923 0084 C6DA     		bge	.L286
 574:lvgl/lvgl/src/core/lv_obj_scroll.c ****                 sr = LV_MIN(sr, -sl);
 4924              		.loc 1 574 23 discriminator 1 view .LVU1466
 4925 0086 002E     		cmp	r6, #0
 4926 0088 C4DD     		ble	.L286
 575:lvgl/lvgl/src/core/lv_obj_scroll.c ****                 lv_obj_scroll_by(obj, sl, 0, anim_en);
 4927              		.loc 1 575 17 is_stmt 1 view .LVU1467
 576:lvgl/lvgl/src/core/lv_obj_scroll.c ****             }
 4928              		.loc 1 576 17 view .LVU1468
 4929 008a 2B46     		mov	r3, r5
 4930 008c 0022     		movs	r2, #0
 4931 008e 3946     		mov	r1, r7
 4932 0090 2046     		mov	r0, r4
 4933 0092 FFF7FEFF 		bl	lv_obj_scroll_by
 4934              	.LVL562:
 4935              	.LBE182:
 580:lvgl/lvgl/src/core/lv_obj_scroll.c **** 
 4936              		.loc 1 580 1 is_stmt 0 view .LVU1469
 4937 0096 BDE7     		b	.L286
 4938              		.cfi_endproc
 4939              	.LFE183:
 4941              		.text
 4942              	.Letext0:
 4943              		.file 5 "c:\\program files (x86)\\gnu arm embedded toolchain\\9 2020-q2-update\\arm-none-eabi\\inc
 4944              		.file 6 "c:\\program files (x86)\\gnu arm embedded toolchain\\9 2020-q2-update\\arm-none-eabi\\inc
 4945              		.file 7 "c:\\program files (x86)\\gnu arm embedded toolchain\\9 2020-q2-update\\lib\\gcc\\arm-none
 4946              		.file 8 "c:\\program files (x86)\\gnu arm embedded toolchain\\9 2020-q2-update\\arm-none-eabi\\inc
 4947              		.file 9 "c:\\program files (x86)\\gnu arm embedded toolchain\\9 2020-q2-update\\arm-none-eabi\\inc
 4948              		.file 10 "c:\\program files (x86)\\gnu arm embedded toolchain\\9 2020-q2-update\\arm-none-eabi\\in
 4949              		.file 11 "lvgl/lvgl/src/core/lv_obj_scroll.h"
 4950              		.file 12 "lvgl/lvgl/src/core/../misc/../font/lv_font.h"
 4951              		.file 13 "lvgl/lvgl/src/core/../misc/lv_types.h"
 4952              		.file 14 "lvgl/lvgl/src/core/../misc/lv_color.h"
 4953              		.file 15 "lvgl/lvgl/src/core/../misc/lv_txt.h"
 4954              		.file 16 "lvgl/lvgl/src/core/../misc/lv_bidi.h"
 4955              		.file 17 "lvgl/lvgl/src/core/../misc/lv_style.h"
 4956              		.file 18 "lvgl/lvgl/src/core/../hal/../misc/lv_ll.h"
 4957              		.file 19 "lvgl/lvgl/src/core/../hal/../misc/lv_timer.h"
 4958              		.file 20 "lvgl/lvgl/src/core/../hal/lv_hal_disp.h"
 4959              		.file 21 "lvgl/lvgl/src/core/lv_theme.h"
 4960              		.file 22 "lvgl/lvgl/src/core/lv_obj.h"
 4961              		.file 23 "lvgl/lvgl/src/core/../hal/lv_hal_indev.h"
 4962              		.file 24 "lvgl/lvgl/src/core/lv_group.h"
 4963              		.file 25 "lvgl/lvgl/src/core/lv_obj_style.h"
 4964              		.file 26 "lvgl/lvgl/src/core/../draw/lv_draw_label.h"
ARM GAS  C:\Users\gx\AppData\Local\Temp\ccHlQRWF.s 			page 134


 4965              		.file 27 "lvgl/lvgl/src/core/lv_obj_class.h"
 4966              		.file 28 "lvgl/lvgl/src/core/lv_event.h"
 4967              		.file 29 "lvgl/lvgl/src/core/lv_obj_tree.h"
 4968              		.file 30 "lvgl/lvgl/src/core/lv_obj_pos.h"
 4969              		.file 31 "lvgl/lvgl/src/core/lv_indev.h"
 4970              		.file 32 "lvgl/lvgl/src/core/lv_indev_scroll.h"
ARM GAS  C:\Users\gx\AppData\Local\Temp\ccHlQRWF.s 			page 135


DEFINED SYMBOLS
                            *ABS*:00000000 lv_obj_scroll.c
C:\Users\gx\AppData\Local\Temp\ccHlQRWF.s:18     .text.scroll_by_raw:00000000 $t
C:\Users\gx\AppData\Local\Temp\ccHlQRWF.s:25     .text.scroll_by_raw:00000000 scroll_by_raw
C:\Users\gx\AppData\Local\Temp\ccHlQRWF.s:105    .text.scroll_anim_ready_cb:00000000 $t
C:\Users\gx\AppData\Local\Temp\ccHlQRWF.s:111    .text.scroll_anim_ready_cb:00000000 scroll_anim_ready_cb
C:\Users\gx\AppData\Local\Temp\ccHlQRWF.s:138    .text.lv_obj_set_scrollbar_mode:00000000 $t
C:\Users\gx\AppData\Local\Temp\ccHlQRWF.s:145    .text.lv_obj_set_scrollbar_mode:00000000 lv_obj_set_scrollbar_mode
C:\Users\gx\AppData\Local\Temp\ccHlQRWF.s:194    .text.lv_obj_set_scroll_dir:00000000 $t
C:\Users\gx\AppData\Local\Temp\ccHlQRWF.s:201    .text.lv_obj_set_scroll_dir:00000000 lv_obj_set_scroll_dir
C:\Users\gx\AppData\Local\Temp\ccHlQRWF.s:245    .text.lv_obj_set_scroll_snap_x:00000000 $t
C:\Users\gx\AppData\Local\Temp\ccHlQRWF.s:252    .text.lv_obj_set_scroll_snap_x:00000000 lv_obj_set_scroll_snap_x
C:\Users\gx\AppData\Local\Temp\ccHlQRWF.s:286    .text.lv_obj_set_scroll_snap_y:00000000 $t
C:\Users\gx\AppData\Local\Temp\ccHlQRWF.s:293    .text.lv_obj_set_scroll_snap_y:00000000 lv_obj_set_scroll_snap_y
C:\Users\gx\AppData\Local\Temp\ccHlQRWF.s:327    .text.lv_obj_get_scrollbar_mode:00000000 $t
C:\Users\gx\AppData\Local\Temp\ccHlQRWF.s:334    .text.lv_obj_get_scrollbar_mode:00000000 lv_obj_get_scrollbar_mode
C:\Users\gx\AppData\Local\Temp\ccHlQRWF.s:365    .text.lv_obj_get_scroll_dir:00000000 $t
C:\Users\gx\AppData\Local\Temp\ccHlQRWF.s:372    .text.lv_obj_get_scroll_dir:00000000 lv_obj_get_scroll_dir
C:\Users\gx\AppData\Local\Temp\ccHlQRWF.s:403    .text.lv_obj_get_scroll_snap_x:00000000 $t
C:\Users\gx\AppData\Local\Temp\ccHlQRWF.s:410    .text.lv_obj_get_scroll_snap_x:00000000 lv_obj_get_scroll_snap_x
C:\Users\gx\AppData\Local\Temp\ccHlQRWF.s:441    .text.lv_obj_get_scroll_snap_y:00000000 $t
C:\Users\gx\AppData\Local\Temp\ccHlQRWF.s:448    .text.lv_obj_get_scroll_snap_y:00000000 lv_obj_get_scroll_snap_y
C:\Users\gx\AppData\Local\Temp\ccHlQRWF.s:479    .text.lv_obj_get_scroll_x:00000000 $t
C:\Users\gx\AppData\Local\Temp\ccHlQRWF.s:486    .text.lv_obj_get_scroll_x:00000000 lv_obj_get_scroll_x
C:\Users\gx\AppData\Local\Temp\ccHlQRWF.s:518    .text.scroll_x_anim:00000000 $t
C:\Users\gx\AppData\Local\Temp\ccHlQRWF.s:524    .text.scroll_x_anim:00000000 scroll_x_anim
C:\Users\gx\AppData\Local\Temp\ccHlQRWF.s:560    .text.lv_obj_get_scroll_y:00000000 $t
C:\Users\gx\AppData\Local\Temp\ccHlQRWF.s:567    .text.lv_obj_get_scroll_y:00000000 lv_obj_get_scroll_y
C:\Users\gx\AppData\Local\Temp\ccHlQRWF.s:599    .text.scroll_y_anim:00000000 $t
C:\Users\gx\AppData\Local\Temp\ccHlQRWF.s:605    .text.scroll_y_anim:00000000 scroll_y_anim
C:\Users\gx\AppData\Local\Temp\ccHlQRWF.s:641    .text.lv_obj_get_scroll_top:00000000 $t
C:\Users\gx\AppData\Local\Temp\ccHlQRWF.s:648    .text.lv_obj_get_scroll_top:00000000 lv_obj_get_scroll_top
C:\Users\gx\AppData\Local\Temp\ccHlQRWF.s:680    .text.lv_obj_get_scroll_bottom:00000000 $t
C:\Users\gx\AppData\Local\Temp\ccHlQRWF.s:687    .text.lv_obj_get_scroll_bottom:00000000 lv_obj_get_scroll_bottom
C:\Users\gx\AppData\Local\Temp\ccHlQRWF.s:894    .text.lv_obj_get_scroll_bottom:000000b4 $d
C:\Users\gx\AppData\Local\Temp\ccHlQRWF.s:899    .text.lv_obj_get_scroll_left:00000000 $t
C:\Users\gx\AppData\Local\Temp\ccHlQRWF.s:906    .text.lv_obj_get_scroll_left:00000000 lv_obj_get_scroll_left
C:\Users\gx\AppData\Local\Temp\ccHlQRWF.s:1165   .text.lv_obj_get_scroll_left:000000e4 $d
C:\Users\gx\AppData\Local\Temp\ccHlQRWF.s:1170   .text.lv_obj_get_scroll_right:00000000 $t
C:\Users\gx\AppData\Local\Temp\ccHlQRWF.s:1177   .text.lv_obj_get_scroll_right:00000000 lv_obj_get_scroll_right
C:\Users\gx\AppData\Local\Temp\ccHlQRWF.s:1420   .text.lv_obj_get_scroll_right:000000d0 $d
C:\Users\gx\AppData\Local\Temp\ccHlQRWF.s:1425   .text.lv_obj_get_scroll_end:00000000 $t
C:\Users\gx\AppData\Local\Temp\ccHlQRWF.s:1432   .text.lv_obj_get_scroll_end:00000000 lv_obj_get_scroll_end
C:\Users\gx\AppData\Local\Temp\ccHlQRWF.s:1510   .text.lv_obj_get_scroll_end:0000003c $d
C:\Users\gx\AppData\Local\Temp\ccHlQRWF.s:1516   .text.lv_obj_scroll_by:00000000 $t
C:\Users\gx\AppData\Local\Temp\ccHlQRWF.s:1523   .text.lv_obj_scroll_by:00000000 lv_obj_scroll_by
C:\Users\gx\AppData\Local\Temp\ccHlQRWF.s:1913   .text.lv_obj_scroll_by:0000010c $d
C:\Users\gx\AppData\Local\Temp\ccHlQRWF.s:1923   .text.scroll_area_into_view:00000000 $t
C:\Users\gx\AppData\Local\Temp\ccHlQRWF.s:1929   .text.scroll_area_into_view:00000000 scroll_area_into_view
C:\Users\gx\AppData\Local\Temp\ccHlQRWF.s:2760   .text.scroll_area_into_view:0000033c $d
C:\Users\gx\AppData\Local\Temp\ccHlQRWF.s:2766   .text.lv_obj_scroll_to_x:00000000 $t
C:\Users\gx\AppData\Local\Temp\ccHlQRWF.s:2773   .text.lv_obj_scroll_to_x:00000000 lv_obj_scroll_to_x
C:\Users\gx\AppData\Local\Temp\ccHlQRWF.s:2957   .text.lv_obj_scroll_to_x:00000094 $d
C:\Users\gx\AppData\Local\Temp\ccHlQRWF.s:2962   .text.lv_obj_scroll_to_y:00000000 $t
C:\Users\gx\AppData\Local\Temp\ccHlQRWF.s:2969   .text.lv_obj_scroll_to_y:00000000 lv_obj_scroll_to_y
C:\Users\gx\AppData\Local\Temp\ccHlQRWF.s:3074   .text.lv_obj_scroll_to_y:00000050 $d
C:\Users\gx\AppData\Local\Temp\ccHlQRWF.s:3079   .text.lv_obj_scroll_to:00000000 $t
ARM GAS  C:\Users\gx\AppData\Local\Temp\ccHlQRWF.s 			page 136


C:\Users\gx\AppData\Local\Temp\ccHlQRWF.s:3086   .text.lv_obj_scroll_to:00000000 lv_obj_scroll_to
C:\Users\gx\AppData\Local\Temp\ccHlQRWF.s:3123   .text.lv_obj_scroll_to_view:00000000 $t
C:\Users\gx\AppData\Local\Temp\ccHlQRWF.s:3130   .text.lv_obj_scroll_to_view:00000000 lv_obj_scroll_to_view
C:\Users\gx\AppData\Local\Temp\ccHlQRWF.s:3175   .text.lv_obj_scroll_to_view_recursive:00000000 $t
C:\Users\gx\AppData\Local\Temp\ccHlQRWF.s:3182   .text.lv_obj_scroll_to_view_recursive:00000000 lv_obj_scroll_to_view_recursive
C:\Users\gx\AppData\Local\Temp\ccHlQRWF.s:3259   .text.lv_obj_is_scrolling:00000000 $t
C:\Users\gx\AppData\Local\Temp\ccHlQRWF.s:3266   .text.lv_obj_is_scrolling:00000000 lv_obj_is_scrolling
C:\Users\gx\AppData\Local\Temp\ccHlQRWF.s:3329   .text.lv_obj_update_snap:00000000 $t
C:\Users\gx\AppData\Local\Temp\ccHlQRWF.s:3336   .text.lv_obj_update_snap:00000000 lv_obj_update_snap
C:\Users\gx\AppData\Local\Temp\ccHlQRWF.s:3382   .text.lv_obj_get_scrollbar_area:00000000 $t
C:\Users\gx\AppData\Local\Temp\ccHlQRWF.s:3389   .text.lv_obj_get_scrollbar_area:00000000 lv_obj_get_scrollbar_area
C:\Users\gx\AppData\Local\Temp\ccHlQRWF.s:4675   .text.lv_obj_get_scrollbar_area:000006e0 $d
C:\Users\gx\AppData\Local\Temp\ccHlQRWF.s:4682   .text.lv_obj_scrollbar_invalidate:00000000 $t
C:\Users\gx\AppData\Local\Temp\ccHlQRWF.s:4689   .text.lv_obj_scrollbar_invalidate:00000000 lv_obj_scrollbar_invalidate
C:\Users\gx\AppData\Local\Temp\ccHlQRWF.s:4771   .text.lv_obj_readjust_scroll:00000000 $t
C:\Users\gx\AppData\Local\Temp\ccHlQRWF.s:4778   .text.lv_obj_readjust_scroll:00000000 lv_obj_readjust_scroll

UNDEFINED SYMBOLS
lv_obj_allocate_spec_attr
lv_obj_move_children_by
lv_event_send
lv_obj_invalidate
lv_obj_get_child_cnt
lv_obj_has_flag_any
lv_obj_get_style_prop
lv_obj_get_self_height
lv_obj_get_height
lv_obj_get_self_width
lv_obj_get_width
lv_anim_get
lv_anim_del
lv_obj_get_disp
lv_anim_init
lv_disp_get_ver_res
lv_anim_speed_to_time
lv_disp_get_hor_res
lv_anim_start
lv_anim_path_ease_out
lv_obj_get_parent
lv_obj_update_layout
lv_indev_get_next
lv_indev_get_scroll_obj
lv_indev_scroll_get_snap_dist
lv_area_set
lv_obj_has_flag
lv_indev_get_scroll_dir
lv_disp_get_dpi
lv_area_get_size
lv_obj_invalidate_area
