ARM GAS  C:\Users\gx\AppData\Local\Temp\cc2sgWsf.s 			page 1


   1              		.cpu cortex-m4
   2              		.eabi_attribute 27, 1
   3              		.eabi_attribute 28, 1
   4              		.eabi_attribute 20, 1
   5              		.eabi_attribute 21, 1
   6              		.eabi_attribute 23, 3
   7              		.eabi_attribute 24, 1
   8              		.eabi_attribute 25, 1
   9              		.eabi_attribute 26, 1
  10              		.eabi_attribute 30, 1
  11              		.eabi_attribute 34, 1
  12              		.eabi_attribute 18, 4
  13              		.file	"lv_obj_style.c"
  14              		.text
  15              	.Ltext0:
  16              		.cfi_sections	.debug_frame
  17              		.section	.text.trans_del,"ax",%progbits
  18              		.align	1
  19              		.arch armv7e-m
  20              		.syntax unified
  21              		.thumb
  22              		.thumb_func
  23              		.fpu fpv4-sp-d16
  25              	trans_del:
  26              	.LVL0:
  27              	.LFB181:
  28              		.file 1 "lvgl/lvgl/src/core/lv_obj_style.c"
   1:lvgl/lvgl/src/core/lv_obj_style.c **** /**
   2:lvgl/lvgl/src/core/lv_obj_style.c ****  * @file lv_obj_style.c
   3:lvgl/lvgl/src/core/lv_obj_style.c ****  *
   4:lvgl/lvgl/src/core/lv_obj_style.c ****  */
   5:lvgl/lvgl/src/core/lv_obj_style.c **** 
   6:lvgl/lvgl/src/core/lv_obj_style.c **** /*********************
   7:lvgl/lvgl/src/core/lv_obj_style.c ****  *      INCLUDES
   8:lvgl/lvgl/src/core/lv_obj_style.c ****  *********************/
   9:lvgl/lvgl/src/core/lv_obj_style.c **** #include "lv_obj.h"
  10:lvgl/lvgl/src/core/lv_obj_style.c **** #include "lv_disp.h"
  11:lvgl/lvgl/src/core/lv_obj_style.c **** #include "../misc/lv_gc.h"
  12:lvgl/lvgl/src/core/lv_obj_style.c **** 
  13:lvgl/lvgl/src/core/lv_obj_style.c **** /*********************
  14:lvgl/lvgl/src/core/lv_obj_style.c ****  *      DEFINES
  15:lvgl/lvgl/src/core/lv_obj_style.c ****  *********************/
  16:lvgl/lvgl/src/core/lv_obj_style.c **** #define MY_CLASS &lv_obj_class
  17:lvgl/lvgl/src/core/lv_obj_style.c **** 
  18:lvgl/lvgl/src/core/lv_obj_style.c **** /**********************
  19:lvgl/lvgl/src/core/lv_obj_style.c ****  *      TYPEDEFS
  20:lvgl/lvgl/src/core/lv_obj_style.c ****  **********************/
  21:lvgl/lvgl/src/core/lv_obj_style.c **** 
  22:lvgl/lvgl/src/core/lv_obj_style.c **** typedef struct {
  23:lvgl/lvgl/src/core/lv_obj_style.c ****     lv_obj_t * obj;
  24:lvgl/lvgl/src/core/lv_obj_style.c ****     lv_style_prop_t prop;
  25:lvgl/lvgl/src/core/lv_obj_style.c ****     lv_style_selector_t selector;
  26:lvgl/lvgl/src/core/lv_obj_style.c ****     lv_style_value_t start_value;
  27:lvgl/lvgl/src/core/lv_obj_style.c ****     lv_style_value_t end_value;
  28:lvgl/lvgl/src/core/lv_obj_style.c **** } trans_t;
  29:lvgl/lvgl/src/core/lv_obj_style.c **** 
  30:lvgl/lvgl/src/core/lv_obj_style.c **** typedef enum {
ARM GAS  C:\Users\gx\AppData\Local\Temp\cc2sgWsf.s 			page 2


  31:lvgl/lvgl/src/core/lv_obj_style.c ****     CACHE_ZERO = 0,
  32:lvgl/lvgl/src/core/lv_obj_style.c ****     CACHE_TRUE = 1,
  33:lvgl/lvgl/src/core/lv_obj_style.c ****     CACHE_UNSET = 2,
  34:lvgl/lvgl/src/core/lv_obj_style.c ****     CACHE_255 = 3,
  35:lvgl/lvgl/src/core/lv_obj_style.c ****     CACHE_NEED_CHECK = 4,
  36:lvgl/lvgl/src/core/lv_obj_style.c **** }cache_t;
  37:lvgl/lvgl/src/core/lv_obj_style.c **** 
  38:lvgl/lvgl/src/core/lv_obj_style.c **** /**********************
  39:lvgl/lvgl/src/core/lv_obj_style.c ****  *  GLOBAL PROTOTYPES
  40:lvgl/lvgl/src/core/lv_obj_style.c ****  **********************/
  41:lvgl/lvgl/src/core/lv_obj_style.c **** 
  42:lvgl/lvgl/src/core/lv_obj_style.c **** /**********************
  43:lvgl/lvgl/src/core/lv_obj_style.c ****  *  STATIC PROTOTYPES
  44:lvgl/lvgl/src/core/lv_obj_style.c ****  **********************/
  45:lvgl/lvgl/src/core/lv_obj_style.c **** static lv_style_t * get_local_style(lv_obj_t * obj, lv_style_selector_t selector);
  46:lvgl/lvgl/src/core/lv_obj_style.c **** static _lv_obj_style_t * get_trans_style(lv_obj_t * obj, uint32_t part);
  47:lvgl/lvgl/src/core/lv_obj_style.c **** static bool get_prop_core(const lv_obj_t * obj, lv_part_t part, lv_style_prop_t prop, lv_style_valu
  48:lvgl/lvgl/src/core/lv_obj_style.c **** static lv_style_value_t apply_color_filter(const lv_obj_t * obj, uint32_t part, lv_style_value_t v)
  49:lvgl/lvgl/src/core/lv_obj_style.c **** static void report_style_change_core(void * style, lv_obj_t * obj);
  50:lvgl/lvgl/src/core/lv_obj_style.c **** static void refresh_children_style(lv_obj_t * obj);
  51:lvgl/lvgl/src/core/lv_obj_style.c **** static bool trans_del(lv_obj_t * obj, lv_part_t part, lv_style_prop_t prop, trans_t * tr_limit);
  52:lvgl/lvgl/src/core/lv_obj_style.c **** static void trans_anim_cb(void * _tr, int32_t v);
  53:lvgl/lvgl/src/core/lv_obj_style.c **** static void trans_anim_start_cb(lv_anim_t * a);
  54:lvgl/lvgl/src/core/lv_obj_style.c **** static void trans_anim_ready_cb(lv_anim_t * a);
  55:lvgl/lvgl/src/core/lv_obj_style.c **** static void fade_anim_cb(void * obj, int32_t v);
  56:lvgl/lvgl/src/core/lv_obj_style.c **** static void fade_in_anim_ready(lv_anim_t * a);
  57:lvgl/lvgl/src/core/lv_obj_style.c **** 
  58:lvgl/lvgl/src/core/lv_obj_style.c **** /**********************
  59:lvgl/lvgl/src/core/lv_obj_style.c ****  *  STATIC VARIABLES
  60:lvgl/lvgl/src/core/lv_obj_style.c ****  **********************/
  61:lvgl/lvgl/src/core/lv_obj_style.c **** static bool style_refr = true;
  62:lvgl/lvgl/src/core/lv_obj_style.c **** 
  63:lvgl/lvgl/src/core/lv_obj_style.c **** /**********************
  64:lvgl/lvgl/src/core/lv_obj_style.c ****  *      MACROS
  65:lvgl/lvgl/src/core/lv_obj_style.c ****  **********************/
  66:lvgl/lvgl/src/core/lv_obj_style.c **** 
  67:lvgl/lvgl/src/core/lv_obj_style.c **** /**********************
  68:lvgl/lvgl/src/core/lv_obj_style.c ****  *   GLOBAL FUNCTIONS
  69:lvgl/lvgl/src/core/lv_obj_style.c ****  **********************/
  70:lvgl/lvgl/src/core/lv_obj_style.c **** 
  71:lvgl/lvgl/src/core/lv_obj_style.c **** void _lv_obj_style_init(void)
  72:lvgl/lvgl/src/core/lv_obj_style.c **** {
  73:lvgl/lvgl/src/core/lv_obj_style.c ****     _lv_ll_init(&LV_GC_ROOT(_lv_obj_style_trans_ll), sizeof(trans_t));
  74:lvgl/lvgl/src/core/lv_obj_style.c **** }
  75:lvgl/lvgl/src/core/lv_obj_style.c **** 
  76:lvgl/lvgl/src/core/lv_obj_style.c **** void lv_obj_add_style(lv_obj_t * obj, lv_style_t * style, lv_style_selector_t selector)
  77:lvgl/lvgl/src/core/lv_obj_style.c **** {
  78:lvgl/lvgl/src/core/lv_obj_style.c ****     trans_del(obj, selector, LV_STYLE_PROP_ANY, NULL);
  79:lvgl/lvgl/src/core/lv_obj_style.c **** 
  80:lvgl/lvgl/src/core/lv_obj_style.c ****     uint32_t i;
  81:lvgl/lvgl/src/core/lv_obj_style.c ****     /*Go after the transition and local styles*/
  82:lvgl/lvgl/src/core/lv_obj_style.c ****     for(i = 0; i < obj->style_cnt; i++) {
  83:lvgl/lvgl/src/core/lv_obj_style.c ****         if(obj->styles[i].is_trans) continue;
  84:lvgl/lvgl/src/core/lv_obj_style.c ****         if(obj->styles[i].is_local) continue;
  85:lvgl/lvgl/src/core/lv_obj_style.c ****         break;
  86:lvgl/lvgl/src/core/lv_obj_style.c ****     }
  87:lvgl/lvgl/src/core/lv_obj_style.c **** 
ARM GAS  C:\Users\gx\AppData\Local\Temp\cc2sgWsf.s 			page 3


  88:lvgl/lvgl/src/core/lv_obj_style.c ****     /*Now `i` is at the first normal style. Insert the new style before this*/
  89:lvgl/lvgl/src/core/lv_obj_style.c **** 
  90:lvgl/lvgl/src/core/lv_obj_style.c ****     /*Allocate space for the new style and shift the rest of the style to the end*/
  91:lvgl/lvgl/src/core/lv_obj_style.c ****     obj->style_cnt++;
  92:lvgl/lvgl/src/core/lv_obj_style.c ****     obj->styles = lv_mem_realloc(obj->styles, obj->style_cnt * sizeof(_lv_obj_style_t));
  93:lvgl/lvgl/src/core/lv_obj_style.c **** 
  94:lvgl/lvgl/src/core/lv_obj_style.c ****     uint32_t j;
  95:lvgl/lvgl/src/core/lv_obj_style.c ****     for(j = obj->style_cnt - 1; j > i ; j--) {
  96:lvgl/lvgl/src/core/lv_obj_style.c ****         obj->styles[j] = obj->styles[j - 1];
  97:lvgl/lvgl/src/core/lv_obj_style.c ****     }
  98:lvgl/lvgl/src/core/lv_obj_style.c **** 
  99:lvgl/lvgl/src/core/lv_obj_style.c ****     lv_memset_00(&obj->styles[i], sizeof(_lv_obj_style_t));
 100:lvgl/lvgl/src/core/lv_obj_style.c ****     obj->styles[i].style = style;
 101:lvgl/lvgl/src/core/lv_obj_style.c ****     obj->styles[i].selector = selector;
 102:lvgl/lvgl/src/core/lv_obj_style.c **** 
 103:lvgl/lvgl/src/core/lv_obj_style.c ****     lv_obj_refresh_style(obj, selector, LV_STYLE_PROP_ANY);
 104:lvgl/lvgl/src/core/lv_obj_style.c **** }
 105:lvgl/lvgl/src/core/lv_obj_style.c **** 
 106:lvgl/lvgl/src/core/lv_obj_style.c **** void lv_obj_remove_style(lv_obj_t * obj, lv_style_t * style, lv_style_selector_t selector)
 107:lvgl/lvgl/src/core/lv_obj_style.c **** {
 108:lvgl/lvgl/src/core/lv_obj_style.c ****     lv_state_t state = lv_obj_style_get_selector_state(selector);
 109:lvgl/lvgl/src/core/lv_obj_style.c ****     lv_part_t part = lv_obj_style_get_selector_part(selector);
 110:lvgl/lvgl/src/core/lv_obj_style.c ****     lv_style_prop_t prop = LV_STYLE_PROP_ANY;
 111:lvgl/lvgl/src/core/lv_obj_style.c ****     if(style && style->prop_cnt == 0) prop = LV_STYLE_PROP_INV;
 112:lvgl/lvgl/src/core/lv_obj_style.c **** 
 113:lvgl/lvgl/src/core/lv_obj_style.c ****     uint32_t i = 0;
 114:lvgl/lvgl/src/core/lv_obj_style.c ****     bool deleted = false;
 115:lvgl/lvgl/src/core/lv_obj_style.c ****     while(i <  obj->style_cnt) {
 116:lvgl/lvgl/src/core/lv_obj_style.c ****         lv_state_t state_act = lv_obj_style_get_selector_state(obj->styles[i].selector);
 117:lvgl/lvgl/src/core/lv_obj_style.c ****         lv_part_t part_act = lv_obj_style_get_selector_part(obj->styles[i].selector);
 118:lvgl/lvgl/src/core/lv_obj_style.c ****         if((state != LV_STATE_ANY && state_act != state) ||
 119:lvgl/lvgl/src/core/lv_obj_style.c ****            (part != LV_PART_ANY && part_act != part) ||
 120:lvgl/lvgl/src/core/lv_obj_style.c ****            (style != NULL && style != obj->styles[i].style))
 121:lvgl/lvgl/src/core/lv_obj_style.c ****         {
 122:lvgl/lvgl/src/core/lv_obj_style.c ****             i++;
 123:lvgl/lvgl/src/core/lv_obj_style.c ****             continue;
 124:lvgl/lvgl/src/core/lv_obj_style.c ****         }
 125:lvgl/lvgl/src/core/lv_obj_style.c **** 
 126:lvgl/lvgl/src/core/lv_obj_style.c ****         if(obj->styles[i].is_trans) {
 127:lvgl/lvgl/src/core/lv_obj_style.c ****             trans_del(obj, part, LV_STYLE_PROP_ANY, NULL);
 128:lvgl/lvgl/src/core/lv_obj_style.c ****         }
 129:lvgl/lvgl/src/core/lv_obj_style.c **** 
 130:lvgl/lvgl/src/core/lv_obj_style.c ****         if(obj->styles[i].is_local || obj->styles[i].is_trans) {
 131:lvgl/lvgl/src/core/lv_obj_style.c ****             lv_style_reset(obj->styles[i].style);
 132:lvgl/lvgl/src/core/lv_obj_style.c ****             lv_mem_free(obj->styles[i].style);
 133:lvgl/lvgl/src/core/lv_obj_style.c ****             obj->styles[i].style = NULL;
 134:lvgl/lvgl/src/core/lv_obj_style.c ****         }
 135:lvgl/lvgl/src/core/lv_obj_style.c **** 
 136:lvgl/lvgl/src/core/lv_obj_style.c ****         /*Shift the styles after `i` by one*/
 137:lvgl/lvgl/src/core/lv_obj_style.c ****         uint32_t j;
 138:lvgl/lvgl/src/core/lv_obj_style.c ****         for(j = i; j < (uint32_t)obj->style_cnt - 1 ; j++) {
 139:lvgl/lvgl/src/core/lv_obj_style.c ****             obj->styles[j] = obj->styles[j + 1];
 140:lvgl/lvgl/src/core/lv_obj_style.c ****         }
 141:lvgl/lvgl/src/core/lv_obj_style.c **** 
 142:lvgl/lvgl/src/core/lv_obj_style.c ****         obj->style_cnt--;
 143:lvgl/lvgl/src/core/lv_obj_style.c ****         obj->styles = lv_mem_realloc(obj->styles, obj->style_cnt * sizeof(_lv_obj_style_t));
 144:lvgl/lvgl/src/core/lv_obj_style.c **** 
ARM GAS  C:\Users\gx\AppData\Local\Temp\cc2sgWsf.s 			page 4


 145:lvgl/lvgl/src/core/lv_obj_style.c ****         deleted = true;
 146:lvgl/lvgl/src/core/lv_obj_style.c ****         /*The style from the current `i` index is removed, so `i` points to the next style.
 147:lvgl/lvgl/src/core/lv_obj_style.c ****          *Therefore it doesn't needs to be incremented*/
 148:lvgl/lvgl/src/core/lv_obj_style.c ****     }
 149:lvgl/lvgl/src/core/lv_obj_style.c ****     if(deleted && prop != LV_STYLE_PROP_INV) {
 150:lvgl/lvgl/src/core/lv_obj_style.c ****         lv_obj_refresh_style(obj, part, prop);
 151:lvgl/lvgl/src/core/lv_obj_style.c ****     }
 152:lvgl/lvgl/src/core/lv_obj_style.c **** }
 153:lvgl/lvgl/src/core/lv_obj_style.c **** 
 154:lvgl/lvgl/src/core/lv_obj_style.c **** void lv_obj_report_style_change(lv_style_t * style)
 155:lvgl/lvgl/src/core/lv_obj_style.c **** {
 156:lvgl/lvgl/src/core/lv_obj_style.c ****     if(!style_refr) return;
 157:lvgl/lvgl/src/core/lv_obj_style.c ****     lv_disp_t * d = lv_disp_get_next(NULL);
 158:lvgl/lvgl/src/core/lv_obj_style.c **** 
 159:lvgl/lvgl/src/core/lv_obj_style.c ****     while(d) {
 160:lvgl/lvgl/src/core/lv_obj_style.c ****         uint32_t i;
 161:lvgl/lvgl/src/core/lv_obj_style.c ****         for(i = 0; i < d->screen_cnt; i++) {
 162:lvgl/lvgl/src/core/lv_obj_style.c ****             report_style_change_core(style, d->screens[i]);
 163:lvgl/lvgl/src/core/lv_obj_style.c ****         }
 164:lvgl/lvgl/src/core/lv_obj_style.c ****         d = lv_disp_get_next(d);
 165:lvgl/lvgl/src/core/lv_obj_style.c ****     }
 166:lvgl/lvgl/src/core/lv_obj_style.c **** }
 167:lvgl/lvgl/src/core/lv_obj_style.c **** 
 168:lvgl/lvgl/src/core/lv_obj_style.c **** void lv_obj_refresh_style(lv_obj_t * obj, lv_style_selector_t selector, lv_style_prop_t prop)
 169:lvgl/lvgl/src/core/lv_obj_style.c **** {
 170:lvgl/lvgl/src/core/lv_obj_style.c ****     LV_ASSERT_OBJ(obj, MY_CLASS);
 171:lvgl/lvgl/src/core/lv_obj_style.c **** 
 172:lvgl/lvgl/src/core/lv_obj_style.c ****     if(!style_refr) return;
 173:lvgl/lvgl/src/core/lv_obj_style.c **** 
 174:lvgl/lvgl/src/core/lv_obj_style.c ****     lv_obj_invalidate(obj);
 175:lvgl/lvgl/src/core/lv_obj_style.c **** 
 176:lvgl/lvgl/src/core/lv_obj_style.c ****     lv_part_t part = lv_obj_style_get_selector_part(selector);
 177:lvgl/lvgl/src/core/lv_obj_style.c **** 
 178:lvgl/lvgl/src/core/lv_obj_style.c ****     if(prop & LV_STYLE_PROP_LAYOUT_REFR) {
 179:lvgl/lvgl/src/core/lv_obj_style.c ****         if(part == LV_PART_ANY ||
 180:lvgl/lvgl/src/core/lv_obj_style.c ****            part == LV_PART_MAIN ||
 181:lvgl/lvgl/src/core/lv_obj_style.c ****            lv_obj_get_style_height(obj, 0) == LV_SIZE_CONTENT ||
 182:lvgl/lvgl/src/core/lv_obj_style.c ****            lv_obj_get_style_width(obj, 0) == LV_SIZE_CONTENT)
 183:lvgl/lvgl/src/core/lv_obj_style.c ****         {
 184:lvgl/lvgl/src/core/lv_obj_style.c ****             lv_event_send(obj, LV_EVENT_STYLE_CHANGED, NULL);
 185:lvgl/lvgl/src/core/lv_obj_style.c ****             lv_obj_mark_layout_as_dirty(obj);
 186:lvgl/lvgl/src/core/lv_obj_style.c ****         }
 187:lvgl/lvgl/src/core/lv_obj_style.c ****     }
 188:lvgl/lvgl/src/core/lv_obj_style.c ****     if((part == LV_PART_ANY || part == LV_PART_MAIN) && (prop == LV_STYLE_PROP_ANY || (prop & LV_ST
 189:lvgl/lvgl/src/core/lv_obj_style.c ****         lv_obj_t * parent = lv_obj_get_parent(obj);
 190:lvgl/lvgl/src/core/lv_obj_style.c ****         if(parent) lv_obj_mark_layout_as_dirty(parent);
 191:lvgl/lvgl/src/core/lv_obj_style.c ****     }
 192:lvgl/lvgl/src/core/lv_obj_style.c **** 
 193:lvgl/lvgl/src/core/lv_obj_style.c ****     if(prop == LV_STYLE_PROP_ANY || (prop & LV_STYLE_PROP_EXT_DRAW)) {
 194:lvgl/lvgl/src/core/lv_obj_style.c ****         lv_obj_refresh_ext_draw_size(obj);
 195:lvgl/lvgl/src/core/lv_obj_style.c ****     }
 196:lvgl/lvgl/src/core/lv_obj_style.c ****     lv_obj_invalidate(obj);
 197:lvgl/lvgl/src/core/lv_obj_style.c **** 
 198:lvgl/lvgl/src/core/lv_obj_style.c ****     if(prop == LV_STYLE_PROP_ANY ||
 199:lvgl/lvgl/src/core/lv_obj_style.c ****       ((prop & LV_STYLE_PROP_INHERIT) && ((prop & LV_STYLE_PROP_EXT_DRAW) || (prop & LV_STYLE_PROP_
 200:lvgl/lvgl/src/core/lv_obj_style.c ****     {
 201:lvgl/lvgl/src/core/lv_obj_style.c ****         if(part != LV_PART_SCROLLBAR) {
ARM GAS  C:\Users\gx\AppData\Local\Temp\cc2sgWsf.s 			page 5


 202:lvgl/lvgl/src/core/lv_obj_style.c ****             refresh_children_style(obj);
 203:lvgl/lvgl/src/core/lv_obj_style.c ****         }
 204:lvgl/lvgl/src/core/lv_obj_style.c ****     }
 205:lvgl/lvgl/src/core/lv_obj_style.c **** }
 206:lvgl/lvgl/src/core/lv_obj_style.c **** 
 207:lvgl/lvgl/src/core/lv_obj_style.c **** void lv_obj_enable_style_refresh(bool en)
 208:lvgl/lvgl/src/core/lv_obj_style.c **** {
 209:lvgl/lvgl/src/core/lv_obj_style.c ****     style_refr = en;
 210:lvgl/lvgl/src/core/lv_obj_style.c **** }
 211:lvgl/lvgl/src/core/lv_obj_style.c **** 
 212:lvgl/lvgl/src/core/lv_obj_style.c **** lv_style_value_t lv_obj_get_style_prop(const lv_obj_t * obj, lv_part_t part, lv_style_prop_t prop)
 213:lvgl/lvgl/src/core/lv_obj_style.c **** {
 214:lvgl/lvgl/src/core/lv_obj_style.c ****     lv_style_value_t value_act;
 215:lvgl/lvgl/src/core/lv_obj_style.c ****     bool inherit = prop & LV_STYLE_PROP_INHERIT ? true : false;
 216:lvgl/lvgl/src/core/lv_obj_style.c ****     bool filter = prop & LV_STYLE_PROP_FILTER ? true : false;
 217:lvgl/lvgl/src/core/lv_obj_style.c ****     if(filter) {
 218:lvgl/lvgl/src/core/lv_obj_style.c ****         prop &= ~LV_STYLE_PROP_FILTER;
 219:lvgl/lvgl/src/core/lv_obj_style.c ****     }
 220:lvgl/lvgl/src/core/lv_obj_style.c ****     bool found = false;
 221:lvgl/lvgl/src/core/lv_obj_style.c ****     while(obj) {
 222:lvgl/lvgl/src/core/lv_obj_style.c ****         found = get_prop_core(obj, part, prop, &value_act);
 223:lvgl/lvgl/src/core/lv_obj_style.c ****         if(found) break;
 224:lvgl/lvgl/src/core/lv_obj_style.c ****         if(!inherit) break;
 225:lvgl/lvgl/src/core/lv_obj_style.c **** 
 226:lvgl/lvgl/src/core/lv_obj_style.c ****         /*If not found, check the `MAIN` style first*/
 227:lvgl/lvgl/src/core/lv_obj_style.c ****         if(part != LV_PART_MAIN) {
 228:lvgl/lvgl/src/core/lv_obj_style.c ****             part = LV_PART_MAIN;
 229:lvgl/lvgl/src/core/lv_obj_style.c ****             continue;
 230:lvgl/lvgl/src/core/lv_obj_style.c ****         }
 231:lvgl/lvgl/src/core/lv_obj_style.c **** 
 232:lvgl/lvgl/src/core/lv_obj_style.c ****         /*Check the parent too.*/
 233:lvgl/lvgl/src/core/lv_obj_style.c ****         obj = lv_obj_get_parent(obj);
 234:lvgl/lvgl/src/core/lv_obj_style.c ****     }
 235:lvgl/lvgl/src/core/lv_obj_style.c **** 
 236:lvgl/lvgl/src/core/lv_obj_style.c ****     if(!found) {
 237:lvgl/lvgl/src/core/lv_obj_style.c ****         if(part == LV_PART_MAIN && (prop == LV_STYLE_WIDTH || prop == LV_STYLE_HEIGHT)) {
 238:lvgl/lvgl/src/core/lv_obj_style.c ****             const lv_obj_class_t * cls = obj->class_p;
 239:lvgl/lvgl/src/core/lv_obj_style.c ****             while(cls) {
 240:lvgl/lvgl/src/core/lv_obj_style.c ****                 if(prop == LV_STYLE_WIDTH) {
 241:lvgl/lvgl/src/core/lv_obj_style.c ****                     if(cls->width_def != 0) break;
 242:lvgl/lvgl/src/core/lv_obj_style.c ****                 } else {
 243:lvgl/lvgl/src/core/lv_obj_style.c ****                     if(cls->height_def != 0) break;
 244:lvgl/lvgl/src/core/lv_obj_style.c ****                 }
 245:lvgl/lvgl/src/core/lv_obj_style.c ****                 cls = cls->base_class;
 246:lvgl/lvgl/src/core/lv_obj_style.c ****             }
 247:lvgl/lvgl/src/core/lv_obj_style.c **** 
 248:lvgl/lvgl/src/core/lv_obj_style.c ****             value_act.num = prop == LV_STYLE_WIDTH ? cls->width_def : cls->height_def;
 249:lvgl/lvgl/src/core/lv_obj_style.c ****         } else {
 250:lvgl/lvgl/src/core/lv_obj_style.c ****             value_act = lv_style_prop_get_default(prop);
 251:lvgl/lvgl/src/core/lv_obj_style.c ****         }
 252:lvgl/lvgl/src/core/lv_obj_style.c ****     }
 253:lvgl/lvgl/src/core/lv_obj_style.c ****     if(filter) value_act = apply_color_filter(obj, part, value_act);
 254:lvgl/lvgl/src/core/lv_obj_style.c ****     return value_act;
 255:lvgl/lvgl/src/core/lv_obj_style.c **** }
 256:lvgl/lvgl/src/core/lv_obj_style.c **** 
 257:lvgl/lvgl/src/core/lv_obj_style.c **** void lv_obj_set_local_style_prop(lv_obj_t * obj, lv_style_prop_t prop, lv_style_value_t value, lv_s
 258:lvgl/lvgl/src/core/lv_obj_style.c **** {
ARM GAS  C:\Users\gx\AppData\Local\Temp\cc2sgWsf.s 			page 6


 259:lvgl/lvgl/src/core/lv_obj_style.c ****     lv_style_t * style = get_local_style(obj, selector);
 260:lvgl/lvgl/src/core/lv_obj_style.c ****     lv_style_set_prop(style, prop, value);
 261:lvgl/lvgl/src/core/lv_obj_style.c ****     lv_obj_refresh_style(obj, selector, prop);
 262:lvgl/lvgl/src/core/lv_obj_style.c **** }
 263:lvgl/lvgl/src/core/lv_obj_style.c **** 
 264:lvgl/lvgl/src/core/lv_obj_style.c **** 
 265:lvgl/lvgl/src/core/lv_obj_style.c **** lv_res_t lv_obj_get_local_style_prop(lv_obj_t * obj, lv_style_prop_t prop, lv_style_value_t * value
 266:lvgl/lvgl/src/core/lv_obj_style.c **** {
 267:lvgl/lvgl/src/core/lv_obj_style.c ****     uint32_t i;
 268:lvgl/lvgl/src/core/lv_obj_style.c ****     for(i = 0; i < obj->style_cnt; i++) {
 269:lvgl/lvgl/src/core/lv_obj_style.c ****         if(obj->styles[i].is_local &&
 270:lvgl/lvgl/src/core/lv_obj_style.c ****            obj->styles[i].selector ==  selector)
 271:lvgl/lvgl/src/core/lv_obj_style.c ****         {
 272:lvgl/lvgl/src/core/lv_obj_style.c ****             return lv_style_get_prop(obj->styles[i].style, prop, value);
 273:lvgl/lvgl/src/core/lv_obj_style.c ****         }
 274:lvgl/lvgl/src/core/lv_obj_style.c ****     }
 275:lvgl/lvgl/src/core/lv_obj_style.c **** 
 276:lvgl/lvgl/src/core/lv_obj_style.c ****     return LV_RES_INV;
 277:lvgl/lvgl/src/core/lv_obj_style.c **** }
 278:lvgl/lvgl/src/core/lv_obj_style.c **** 
 279:lvgl/lvgl/src/core/lv_obj_style.c **** bool lv_obj_remove_local_style_prop(lv_obj_t * obj, lv_style_prop_t prop, lv_style_selector_t selec
 280:lvgl/lvgl/src/core/lv_obj_style.c **** {
 281:lvgl/lvgl/src/core/lv_obj_style.c ****     LV_ASSERT_OBJ(obj, MY_CLASS);
 282:lvgl/lvgl/src/core/lv_obj_style.c **** 
 283:lvgl/lvgl/src/core/lv_obj_style.c ****     uint32_t i;
 284:lvgl/lvgl/src/core/lv_obj_style.c ****     /*Find the style*/
 285:lvgl/lvgl/src/core/lv_obj_style.c ****     for(i = 0; i < obj->style_cnt; i++) {
 286:lvgl/lvgl/src/core/lv_obj_style.c ****         if(obj->styles[i].is_local &&
 287:lvgl/lvgl/src/core/lv_obj_style.c ****            obj->styles[i].selector == selector) {
 288:lvgl/lvgl/src/core/lv_obj_style.c ****             break;
 289:lvgl/lvgl/src/core/lv_obj_style.c ****         }
 290:lvgl/lvgl/src/core/lv_obj_style.c ****     }
 291:lvgl/lvgl/src/core/lv_obj_style.c **** 
 292:lvgl/lvgl/src/core/lv_obj_style.c ****     /*The style is not found*/
 293:lvgl/lvgl/src/core/lv_obj_style.c ****     if(i == obj->style_cnt) return false;
 294:lvgl/lvgl/src/core/lv_obj_style.c **** 
 295:lvgl/lvgl/src/core/lv_obj_style.c ****     return lv_style_remove_prop(obj->styles[i].style, prop);
 296:lvgl/lvgl/src/core/lv_obj_style.c **** }
 297:lvgl/lvgl/src/core/lv_obj_style.c **** 
 298:lvgl/lvgl/src/core/lv_obj_style.c **** void _lv_obj_style_create_transition(lv_obj_t * obj, lv_part_t part, lv_state_t prev_state, lv_stat
 299:lvgl/lvgl/src/core/lv_obj_style.c **** {
 300:lvgl/lvgl/src/core/lv_obj_style.c ****     trans_t * tr;
 301:lvgl/lvgl/src/core/lv_obj_style.c **** 
 302:lvgl/lvgl/src/core/lv_obj_style.c ****     /*Get the previous and current values*/
 303:lvgl/lvgl/src/core/lv_obj_style.c ****     obj->skip_trans = 1;
 304:lvgl/lvgl/src/core/lv_obj_style.c ****     obj->state = prev_state;
 305:lvgl/lvgl/src/core/lv_obj_style.c ****     lv_style_value_t v1 = lv_obj_get_style_prop(obj, part, tr_dsc->prop);
 306:lvgl/lvgl/src/core/lv_obj_style.c ****     obj->state = new_state;
 307:lvgl/lvgl/src/core/lv_obj_style.c ****     lv_style_value_t v2 = lv_obj_get_style_prop(obj, part, tr_dsc->prop);
 308:lvgl/lvgl/src/core/lv_obj_style.c ****     obj->skip_trans = 0;
 309:lvgl/lvgl/src/core/lv_obj_style.c **** 
 310:lvgl/lvgl/src/core/lv_obj_style.c ****     if(v1.ptr == v2.ptr && v1.num == v2.num && v1.color.full == v2.color.full)  return;
 311:lvgl/lvgl/src/core/lv_obj_style.c ****     obj->state = prev_state;
 312:lvgl/lvgl/src/core/lv_obj_style.c ****     v1 = lv_obj_get_style_prop(obj, part, tr_dsc->prop);
 313:lvgl/lvgl/src/core/lv_obj_style.c ****     obj->state = new_state;
 314:lvgl/lvgl/src/core/lv_obj_style.c **** 
 315:lvgl/lvgl/src/core/lv_obj_style.c ****     _lv_obj_style_t * style_trans = get_trans_style(obj, part);
ARM GAS  C:\Users\gx\AppData\Local\Temp\cc2sgWsf.s 			page 7


 316:lvgl/lvgl/src/core/lv_obj_style.c ****     lv_style_set_prop(style_trans->style, tr_dsc->prop, v1);   /*Be sure `trans_style` has a valid 
 317:lvgl/lvgl/src/core/lv_obj_style.c **** 
 318:lvgl/lvgl/src/core/lv_obj_style.c ****     if(tr_dsc->prop == LV_STYLE_RADIUS) {
 319:lvgl/lvgl/src/core/lv_obj_style.c ****         if(v1.num == LV_RADIUS_CIRCLE || v2.num == LV_RADIUS_CIRCLE) {
 320:lvgl/lvgl/src/core/lv_obj_style.c ****             lv_coord_t whalf = lv_obj_get_width(obj) / 2;
 321:lvgl/lvgl/src/core/lv_obj_style.c ****             lv_coord_t hhalf = lv_obj_get_width(obj) / 2;
 322:lvgl/lvgl/src/core/lv_obj_style.c ****             if(v1.num == LV_RADIUS_CIRCLE) v1.num = LV_MIN(whalf + 1, hhalf + 1);
 323:lvgl/lvgl/src/core/lv_obj_style.c ****             if(v2.num == LV_RADIUS_CIRCLE) v2.num = LV_MIN(whalf + 1, hhalf + 1);
 324:lvgl/lvgl/src/core/lv_obj_style.c ****         }
 325:lvgl/lvgl/src/core/lv_obj_style.c ****     }
 326:lvgl/lvgl/src/core/lv_obj_style.c **** 
 327:lvgl/lvgl/src/core/lv_obj_style.c ****     tr = _lv_ll_ins_head(&LV_GC_ROOT(_lv_obj_style_trans_ll));
 328:lvgl/lvgl/src/core/lv_obj_style.c ****     LV_ASSERT_MALLOC(tr);
 329:lvgl/lvgl/src/core/lv_obj_style.c ****     if(tr == NULL) return;
 330:lvgl/lvgl/src/core/lv_obj_style.c ****     tr->start_value = v1;
 331:lvgl/lvgl/src/core/lv_obj_style.c ****     tr->end_value = v2;
 332:lvgl/lvgl/src/core/lv_obj_style.c **** 
 333:lvgl/lvgl/src/core/lv_obj_style.c ****     if(tr) {
 334:lvgl/lvgl/src/core/lv_obj_style.c ****         tr->obj = obj;
 335:lvgl/lvgl/src/core/lv_obj_style.c ****         tr->prop = tr_dsc->prop;
 336:lvgl/lvgl/src/core/lv_obj_style.c ****         tr->selector = part;
 337:lvgl/lvgl/src/core/lv_obj_style.c **** 
 338:lvgl/lvgl/src/core/lv_obj_style.c ****         lv_anim_t a;
 339:lvgl/lvgl/src/core/lv_obj_style.c ****         lv_anim_init(&a);
 340:lvgl/lvgl/src/core/lv_obj_style.c ****         lv_anim_set_var(&a, tr);
 341:lvgl/lvgl/src/core/lv_obj_style.c ****         lv_anim_set_exec_cb(&a, trans_anim_cb);
 342:lvgl/lvgl/src/core/lv_obj_style.c ****         lv_anim_set_start_cb(&a, trans_anim_start_cb);
 343:lvgl/lvgl/src/core/lv_obj_style.c ****         lv_anim_set_ready_cb(&a, trans_anim_ready_cb);
 344:lvgl/lvgl/src/core/lv_obj_style.c ****         lv_anim_set_values(&a, 0x00, 0xFF);
 345:lvgl/lvgl/src/core/lv_obj_style.c ****         lv_anim_set_time(&a, tr_dsc->time);
 346:lvgl/lvgl/src/core/lv_obj_style.c ****         lv_anim_set_delay(&a, tr_dsc->delay);
 347:lvgl/lvgl/src/core/lv_obj_style.c ****         lv_anim_set_path_cb(&a, tr_dsc->path_cb);
 348:lvgl/lvgl/src/core/lv_obj_style.c ****         lv_anim_set_early_apply(&a, false);
 349:lvgl/lvgl/src/core/lv_obj_style.c **** #if LV_USE_USER_DATA
 350:lvgl/lvgl/src/core/lv_obj_style.c ****         a.user_data = tr_dsc->user_data;
 351:lvgl/lvgl/src/core/lv_obj_style.c **** #endif
 352:lvgl/lvgl/src/core/lv_obj_style.c ****         lv_anim_start(&a);
 353:lvgl/lvgl/src/core/lv_obj_style.c ****     }
 354:lvgl/lvgl/src/core/lv_obj_style.c **** }
 355:lvgl/lvgl/src/core/lv_obj_style.c **** 
 356:lvgl/lvgl/src/core/lv_obj_style.c **** _lv_style_state_cmp_t _lv_obj_style_state_compare(lv_obj_t * obj, lv_state_t state1, lv_state_t sta
 357:lvgl/lvgl/src/core/lv_obj_style.c **** {
 358:lvgl/lvgl/src/core/lv_obj_style.c ****     _lv_style_state_cmp_t res = _LV_STYLE_STATE_CMP_SAME;
 359:lvgl/lvgl/src/core/lv_obj_style.c **** 
 360:lvgl/lvgl/src/core/lv_obj_style.c ****     /*Are there any new styles for the new state?*/
 361:lvgl/lvgl/src/core/lv_obj_style.c ****     uint32_t i;
 362:lvgl/lvgl/src/core/lv_obj_style.c ****     for(i = 0; i < obj->style_cnt; i++) {
 363:lvgl/lvgl/src/core/lv_obj_style.c ****         if(obj->styles[i].is_trans) continue;
 364:lvgl/lvgl/src/core/lv_obj_style.c **** 
 365:lvgl/lvgl/src/core/lv_obj_style.c ****         lv_state_t state_act = lv_obj_style_get_selector_state(obj->styles[i].selector);
 366:lvgl/lvgl/src/core/lv_obj_style.c ****         lv_part_t part_act = lv_obj_style_get_selector_part(obj->styles[i].selector);
 367:lvgl/lvgl/src/core/lv_obj_style.c ****         /*The style is valid for a stat but not the other*/
 368:lvgl/lvgl/src/core/lv_obj_style.c ****         bool valid1 = state_act & (~state1) ? false : true;
 369:lvgl/lvgl/src/core/lv_obj_style.c ****         bool valid2 = state_act & (~state2) ? false : true;
 370:lvgl/lvgl/src/core/lv_obj_style.c ****         if(valid1 != valid2) {
 371:lvgl/lvgl/src/core/lv_obj_style.c ****             lv_style_t * style = obj->styles[i].style;
 372:lvgl/lvgl/src/core/lv_obj_style.c ****             lv_style_value_t v;
ARM GAS  C:\Users\gx\AppData\Local\Temp\cc2sgWsf.s 			page 8


 373:lvgl/lvgl/src/core/lv_obj_style.c ****             /*If there is layout difference on the main part, return immediately. There is no more 
 374:lvgl/lvgl/src/core/lv_obj_style.c ****             bool layout_diff = false;
 375:lvgl/lvgl/src/core/lv_obj_style.c ****             if(lv_style_get_prop(style, LV_STYLE_PAD_TOP, &v))layout_diff = true;
 376:lvgl/lvgl/src/core/lv_obj_style.c ****             else if(lv_style_get_prop(style, LV_STYLE_PAD_BOTTOM, &v)) layout_diff = true;
 377:lvgl/lvgl/src/core/lv_obj_style.c ****             else if(lv_style_get_prop(style, LV_STYLE_PAD_LEFT, &v)) layout_diff = true;
 378:lvgl/lvgl/src/core/lv_obj_style.c ****             else if(lv_style_get_prop(style, LV_STYLE_PAD_RIGHT, &v)) layout_diff = true;
 379:lvgl/lvgl/src/core/lv_obj_style.c ****             else if(lv_style_get_prop(style, LV_STYLE_PAD_COLUMN, &v)) layout_diff = true;
 380:lvgl/lvgl/src/core/lv_obj_style.c ****             else if(lv_style_get_prop(style, LV_STYLE_PAD_ROW, &v)) layout_diff = true;
 381:lvgl/lvgl/src/core/lv_obj_style.c ****             else if(lv_style_get_prop(style, LV_STYLE_LAYOUT, &v)) layout_diff = true;
 382:lvgl/lvgl/src/core/lv_obj_style.c ****             else if(lv_style_get_prop(style, LV_STYLE_TRANSLATE_X, &v)) layout_diff = true;
 383:lvgl/lvgl/src/core/lv_obj_style.c ****             else if(lv_style_get_prop(style, LV_STYLE_TRANSLATE_Y, &v)) layout_diff = true;
 384:lvgl/lvgl/src/core/lv_obj_style.c ****             else if(lv_style_get_prop(style, LV_STYLE_WIDTH, &v)) layout_diff = true;
 385:lvgl/lvgl/src/core/lv_obj_style.c ****             else if(lv_style_get_prop(style, LV_STYLE_HEIGHT, &v)) layout_diff = true;
 386:lvgl/lvgl/src/core/lv_obj_style.c ****             else if(lv_style_get_prop(style, LV_STYLE_MIN_WIDTH, &v)) layout_diff = true;
 387:lvgl/lvgl/src/core/lv_obj_style.c ****             else if(lv_style_get_prop(style, LV_STYLE_MAX_WIDTH, &v)) layout_diff = true;
 388:lvgl/lvgl/src/core/lv_obj_style.c ****             else if(lv_style_get_prop(style, LV_STYLE_MIN_HEIGHT, &v)) layout_diff = true;
 389:lvgl/lvgl/src/core/lv_obj_style.c ****             else if(lv_style_get_prop(style, LV_STYLE_MAX_HEIGHT, &v)) layout_diff = true;
 390:lvgl/lvgl/src/core/lv_obj_style.c ****             else if(lv_style_get_prop(style, LV_STYLE_BORDER_WIDTH, &v)) layout_diff = true;
 391:lvgl/lvgl/src/core/lv_obj_style.c ****             else if(lv_style_get_prop(style, LV_STYLE_TRANSFORM_ANGLE, &v)) layout_diff = true;
 392:lvgl/lvgl/src/core/lv_obj_style.c ****             else if(lv_style_get_prop(style, LV_STYLE_TRANSFORM_ZOOM, &v)) layout_diff = true;
 393:lvgl/lvgl/src/core/lv_obj_style.c **** 
 394:lvgl/lvgl/src/core/lv_obj_style.c ****             if(layout_diff) {
 395:lvgl/lvgl/src/core/lv_obj_style.c ****                 if(part_act == LV_PART_MAIN) {
 396:lvgl/lvgl/src/core/lv_obj_style.c ****                     return _LV_STYLE_STATE_CMP_DIFF_LAYOUT;
 397:lvgl/lvgl/src/core/lv_obj_style.c ****                 }
 398:lvgl/lvgl/src/core/lv_obj_style.c ****                 else {
 399:lvgl/lvgl/src/core/lv_obj_style.c ****                     res = _LV_STYLE_STATE_CMP_DIFF_DRAW_PAD;
 400:lvgl/lvgl/src/core/lv_obj_style.c ****                     continue;
 401:lvgl/lvgl/src/core/lv_obj_style.c ****                 }
 402:lvgl/lvgl/src/core/lv_obj_style.c ****             }
 403:lvgl/lvgl/src/core/lv_obj_style.c **** 
 404:lvgl/lvgl/src/core/lv_obj_style.c ****             /*Check for draw pad changes*/
 405:lvgl/lvgl/src/core/lv_obj_style.c ****             if(lv_style_get_prop(style, LV_STYLE_TRANSFORM_WIDTH, &v)) res = _LV_STYLE_STATE_CMP_DI
 406:lvgl/lvgl/src/core/lv_obj_style.c ****             else if(lv_style_get_prop(style, LV_STYLE_TRANSFORM_HEIGHT, &v)) res = _LV_STYLE_STATE_
 407:lvgl/lvgl/src/core/lv_obj_style.c ****             else if(lv_style_get_prop(style, LV_STYLE_TRANSFORM_ANGLE, &v)) res = _LV_STYLE_STATE_C
 408:lvgl/lvgl/src/core/lv_obj_style.c ****             else if(lv_style_get_prop(style, LV_STYLE_TRANSFORM_ZOOM, &v)) res = _LV_STYLE_STATE_CM
 409:lvgl/lvgl/src/core/lv_obj_style.c ****             else if(lv_style_get_prop(style, LV_STYLE_OUTLINE_OPA, &v)) res = _LV_STYLE_STATE_CMP_D
 410:lvgl/lvgl/src/core/lv_obj_style.c ****             else if(lv_style_get_prop(style, LV_STYLE_OUTLINE_PAD, &v)) res = _LV_STYLE_STATE_CMP_D
 411:lvgl/lvgl/src/core/lv_obj_style.c ****             else if(lv_style_get_prop(style, LV_STYLE_OUTLINE_WIDTH, &v)) res = _LV_STYLE_STATE_CMP
 412:lvgl/lvgl/src/core/lv_obj_style.c ****             else if(lv_style_get_prop(style, LV_STYLE_SHADOW_WIDTH, &v)) res = _LV_STYLE_STATE_CMP_
 413:lvgl/lvgl/src/core/lv_obj_style.c ****             else if(lv_style_get_prop(style, LV_STYLE_SHADOW_OPA, &v)) res = _LV_STYLE_STATE_CMP_DI
 414:lvgl/lvgl/src/core/lv_obj_style.c ****             else if(lv_style_get_prop(style, LV_STYLE_SHADOW_OFS_X, &v)) res = _LV_STYLE_STATE_CMP_
 415:lvgl/lvgl/src/core/lv_obj_style.c ****             else if(lv_style_get_prop(style, LV_STYLE_SHADOW_OFS_Y, &v)) res = _LV_STYLE_STATE_CMP_
 416:lvgl/lvgl/src/core/lv_obj_style.c ****             else if(lv_style_get_prop(style, LV_STYLE_SHADOW_SPREAD, &v)) res = _LV_STYLE_STATE_CMP
 417:lvgl/lvgl/src/core/lv_obj_style.c ****             else if(lv_style_get_prop(style, LV_STYLE_LINE_WIDTH, &v)) res = _LV_STYLE_STATE_CMP_DI
 418:lvgl/lvgl/src/core/lv_obj_style.c ****             else if(res == _LV_STYLE_STATE_CMP_SAME) res = _LV_STYLE_STATE_CMP_DIFF_REDRAW;
 419:lvgl/lvgl/src/core/lv_obj_style.c ****         }
 420:lvgl/lvgl/src/core/lv_obj_style.c ****     }
 421:lvgl/lvgl/src/core/lv_obj_style.c **** 
 422:lvgl/lvgl/src/core/lv_obj_style.c ****     return res;
 423:lvgl/lvgl/src/core/lv_obj_style.c **** }
 424:lvgl/lvgl/src/core/lv_obj_style.c **** 
 425:lvgl/lvgl/src/core/lv_obj_style.c **** void lv_obj_fade_in(lv_obj_t * obj, uint32_t time, uint32_t delay)
 426:lvgl/lvgl/src/core/lv_obj_style.c **** {
 427:lvgl/lvgl/src/core/lv_obj_style.c ****     lv_anim_t a;
 428:lvgl/lvgl/src/core/lv_obj_style.c ****     lv_anim_init(&a);
 429:lvgl/lvgl/src/core/lv_obj_style.c ****     lv_anim_set_var(&a, obj);
ARM GAS  C:\Users\gx\AppData\Local\Temp\cc2sgWsf.s 			page 9


 430:lvgl/lvgl/src/core/lv_obj_style.c ****     lv_anim_set_values(&a, LV_OPA_TRANSP, LV_OPA_COVER);
 431:lvgl/lvgl/src/core/lv_obj_style.c ****     lv_anim_set_exec_cb(&a, fade_anim_cb);
 432:lvgl/lvgl/src/core/lv_obj_style.c ****     lv_anim_set_ready_cb(&a, fade_in_anim_ready);
 433:lvgl/lvgl/src/core/lv_obj_style.c ****     lv_anim_set_time(&a, time);
 434:lvgl/lvgl/src/core/lv_obj_style.c ****     lv_anim_set_delay(&a, delay);
 435:lvgl/lvgl/src/core/lv_obj_style.c ****     lv_anim_start(&a);
 436:lvgl/lvgl/src/core/lv_obj_style.c **** }
 437:lvgl/lvgl/src/core/lv_obj_style.c **** 
 438:lvgl/lvgl/src/core/lv_obj_style.c **** void lv_obj_fade_out(lv_obj_t * obj, uint32_t time, uint32_t delay)
 439:lvgl/lvgl/src/core/lv_obj_style.c **** {
 440:lvgl/lvgl/src/core/lv_obj_style.c ****     lv_anim_t a;
 441:lvgl/lvgl/src/core/lv_obj_style.c ****     lv_anim_init(&a);
 442:lvgl/lvgl/src/core/lv_obj_style.c ****     lv_anim_set_var(&a, obj);
 443:lvgl/lvgl/src/core/lv_obj_style.c ****     lv_anim_set_values(&a, LV_OPA_COVER, LV_OPA_TRANSP);
 444:lvgl/lvgl/src/core/lv_obj_style.c ****     lv_anim_set_exec_cb(&a, fade_anim_cb);
 445:lvgl/lvgl/src/core/lv_obj_style.c ****     lv_anim_set_time(&a, time);
 446:lvgl/lvgl/src/core/lv_obj_style.c ****     lv_anim_set_delay(&a, delay);
 447:lvgl/lvgl/src/core/lv_obj_style.c ****     lv_anim_start(&a);
 448:lvgl/lvgl/src/core/lv_obj_style.c **** }
 449:lvgl/lvgl/src/core/lv_obj_style.c **** 
 450:lvgl/lvgl/src/core/lv_obj_style.c **** lv_state_t lv_obj_style_get_selector_state(lv_style_selector_t selector)
 451:lvgl/lvgl/src/core/lv_obj_style.c **** {
 452:lvgl/lvgl/src/core/lv_obj_style.c ****     return selector & 0xFFFF;
 453:lvgl/lvgl/src/core/lv_obj_style.c **** }
 454:lvgl/lvgl/src/core/lv_obj_style.c **** 
 455:lvgl/lvgl/src/core/lv_obj_style.c **** lv_part_t lv_obj_style_get_selector_part(lv_style_selector_t selector)
 456:lvgl/lvgl/src/core/lv_obj_style.c **** {
 457:lvgl/lvgl/src/core/lv_obj_style.c ****     return selector & 0xFF0000;
 458:lvgl/lvgl/src/core/lv_obj_style.c **** }
 459:lvgl/lvgl/src/core/lv_obj_style.c **** 
 460:lvgl/lvgl/src/core/lv_obj_style.c **** 
 461:lvgl/lvgl/src/core/lv_obj_style.c **** lv_text_align_t lv_obj_calculate_style_text_align(const struct _lv_obj_t * obj, lv_part_t part, con
 462:lvgl/lvgl/src/core/lv_obj_style.c **** {
 463:lvgl/lvgl/src/core/lv_obj_style.c ****     lv_text_align_t align = lv_obj_get_style_text_align(obj, part);
 464:lvgl/lvgl/src/core/lv_obj_style.c ****     lv_base_dir_t base_dir = lv_obj_get_style_base_dir(obj, part);
 465:lvgl/lvgl/src/core/lv_obj_style.c ****     lv_bidi_calculate_align(&align, &base_dir, txt);
 466:lvgl/lvgl/src/core/lv_obj_style.c ****     return align;
 467:lvgl/lvgl/src/core/lv_obj_style.c **** }
 468:lvgl/lvgl/src/core/lv_obj_style.c **** 
 469:lvgl/lvgl/src/core/lv_obj_style.c **** /**********************
 470:lvgl/lvgl/src/core/lv_obj_style.c ****  *   STATIC FUNCTIONS
 471:lvgl/lvgl/src/core/lv_obj_style.c ****  **********************/
 472:lvgl/lvgl/src/core/lv_obj_style.c **** 
 473:lvgl/lvgl/src/core/lv_obj_style.c **** /**
 474:lvgl/lvgl/src/core/lv_obj_style.c ****  * Get the local style of an object for a given part and for a given state.
 475:lvgl/lvgl/src/core/lv_obj_style.c ****  * If the local style for the part-state pair doesn't exist allocate and return it.
 476:lvgl/lvgl/src/core/lv_obj_style.c ****  * @param obj   pointer to an object
 477:lvgl/lvgl/src/core/lv_obj_style.c ****  * @param part  the part in whose local style to get
 478:lvgl/lvgl/src/core/lv_obj_style.c ****  * @param state the state in whose local style to get
 479:lvgl/lvgl/src/core/lv_obj_style.c ****  * @return pointer to the local style
 480:lvgl/lvgl/src/core/lv_obj_style.c ****  */
 481:lvgl/lvgl/src/core/lv_obj_style.c **** static lv_style_t * get_local_style(lv_obj_t * obj,  lv_style_selector_t selector)
 482:lvgl/lvgl/src/core/lv_obj_style.c **** {
 483:lvgl/lvgl/src/core/lv_obj_style.c ****     uint32_t i;
 484:lvgl/lvgl/src/core/lv_obj_style.c ****     for(i = 0; i < obj->style_cnt; i++) {
 485:lvgl/lvgl/src/core/lv_obj_style.c ****         if(obj->styles[i].is_local &&
 486:lvgl/lvgl/src/core/lv_obj_style.c ****            obj->styles[i].selector == selector)
ARM GAS  C:\Users\gx\AppData\Local\Temp\cc2sgWsf.s 			page 10


 487:lvgl/lvgl/src/core/lv_obj_style.c ****         {
 488:lvgl/lvgl/src/core/lv_obj_style.c ****             return obj->styles[i].style;
 489:lvgl/lvgl/src/core/lv_obj_style.c ****         }
 490:lvgl/lvgl/src/core/lv_obj_style.c ****     }
 491:lvgl/lvgl/src/core/lv_obj_style.c **** 
 492:lvgl/lvgl/src/core/lv_obj_style.c ****     obj->style_cnt++;
 493:lvgl/lvgl/src/core/lv_obj_style.c ****     obj->styles = lv_mem_realloc(obj->styles, obj->style_cnt * sizeof(_lv_obj_style_t));
 494:lvgl/lvgl/src/core/lv_obj_style.c ****     LV_ASSERT_MALLOC(obj->styles);
 495:lvgl/lvgl/src/core/lv_obj_style.c **** 
 496:lvgl/lvgl/src/core/lv_obj_style.c ****     for(i = obj->style_cnt - 1; i > 0 ; i--) {
 497:lvgl/lvgl/src/core/lv_obj_style.c ****         /*Copy only normal styles (not local and transition).
 498:lvgl/lvgl/src/core/lv_obj_style.c ****          *The new local style will be added as the last local style*/
 499:lvgl/lvgl/src/core/lv_obj_style.c ****         if(obj->styles[i - 1].is_local || obj->styles[i - 1].is_trans) break;
 500:lvgl/lvgl/src/core/lv_obj_style.c ****         obj->styles[i] = obj->styles[i - 1];
 501:lvgl/lvgl/src/core/lv_obj_style.c ****     }
 502:lvgl/lvgl/src/core/lv_obj_style.c **** 
 503:lvgl/lvgl/src/core/lv_obj_style.c ****     lv_memset_00(&obj->styles[i], sizeof(_lv_obj_style_t));
 504:lvgl/lvgl/src/core/lv_obj_style.c ****     obj->styles[i].style = lv_mem_alloc(sizeof(lv_style_t));
 505:lvgl/lvgl/src/core/lv_obj_style.c ****     lv_style_init(obj->styles[i].style);
 506:lvgl/lvgl/src/core/lv_obj_style.c ****     obj->styles[i].is_local = 1;
 507:lvgl/lvgl/src/core/lv_obj_style.c ****     obj->styles[i].selector = selector;
 508:lvgl/lvgl/src/core/lv_obj_style.c ****     return obj->styles[i].style;
 509:lvgl/lvgl/src/core/lv_obj_style.c **** }
 510:lvgl/lvgl/src/core/lv_obj_style.c **** 
 511:lvgl/lvgl/src/core/lv_obj_style.c **** /**
 512:lvgl/lvgl/src/core/lv_obj_style.c ****  * Get the transition style of an object for a given part and for a given state.
 513:lvgl/lvgl/src/core/lv_obj_style.c ****  * If the transition style for the part-state pair doesn't exist allocate and return it.
 514:lvgl/lvgl/src/core/lv_obj_style.c ****  * @param obj   pointer to an object
 515:lvgl/lvgl/src/core/lv_obj_style.c ****  * @param part  the part in whose local style to get
 516:lvgl/lvgl/src/core/lv_obj_style.c ****  * @param state the state in whose local style to get
 517:lvgl/lvgl/src/core/lv_obj_style.c ****  * @return pointer to the transition style
 518:lvgl/lvgl/src/core/lv_obj_style.c ****  */
 519:lvgl/lvgl/src/core/lv_obj_style.c **** static _lv_obj_style_t * get_trans_style(lv_obj_t * obj,  lv_style_selector_t selector)
 520:lvgl/lvgl/src/core/lv_obj_style.c **** {
 521:lvgl/lvgl/src/core/lv_obj_style.c ****     uint32_t i;
 522:lvgl/lvgl/src/core/lv_obj_style.c ****     for(i = 0; i < obj->style_cnt; i++) {
 523:lvgl/lvgl/src/core/lv_obj_style.c ****         if(obj->styles[i].is_trans && obj->styles[i].selector == selector) break;
 524:lvgl/lvgl/src/core/lv_obj_style.c ****     }
 525:lvgl/lvgl/src/core/lv_obj_style.c **** 
 526:lvgl/lvgl/src/core/lv_obj_style.c ****     /*Already have a transition style for it*/
 527:lvgl/lvgl/src/core/lv_obj_style.c ****     if(i != obj->style_cnt) return &obj->styles[i];
 528:lvgl/lvgl/src/core/lv_obj_style.c **** 
 529:lvgl/lvgl/src/core/lv_obj_style.c ****     obj->style_cnt++;
 530:lvgl/lvgl/src/core/lv_obj_style.c ****     obj->styles = lv_mem_realloc(obj->styles, obj->style_cnt * sizeof(_lv_obj_style_t));
 531:lvgl/lvgl/src/core/lv_obj_style.c **** 
 532:lvgl/lvgl/src/core/lv_obj_style.c ****     for(i = obj->style_cnt - 1; i > 0 ; i--) {
 533:lvgl/lvgl/src/core/lv_obj_style.c ****         obj->styles[i] = obj->styles[i - 1];
 534:lvgl/lvgl/src/core/lv_obj_style.c ****     }
 535:lvgl/lvgl/src/core/lv_obj_style.c **** 
 536:lvgl/lvgl/src/core/lv_obj_style.c ****     lv_memset_00(&obj->styles[0], sizeof(_lv_obj_style_t));
 537:lvgl/lvgl/src/core/lv_obj_style.c ****     obj->styles[0].style = lv_mem_alloc(sizeof(lv_style_t));
 538:lvgl/lvgl/src/core/lv_obj_style.c ****     lv_style_init(obj->styles[0].style);
 539:lvgl/lvgl/src/core/lv_obj_style.c ****     obj->styles[0].is_trans = 1;
 540:lvgl/lvgl/src/core/lv_obj_style.c ****     obj->styles[0].selector = selector;
 541:lvgl/lvgl/src/core/lv_obj_style.c ****     return &obj->styles[0];
 542:lvgl/lvgl/src/core/lv_obj_style.c **** }
 543:lvgl/lvgl/src/core/lv_obj_style.c **** 
ARM GAS  C:\Users\gx\AppData\Local\Temp\cc2sgWsf.s 			page 11


 544:lvgl/lvgl/src/core/lv_obj_style.c **** 
 545:lvgl/lvgl/src/core/lv_obj_style.c **** static bool get_prop_core(const lv_obj_t * obj, lv_part_t part, lv_style_prop_t prop, lv_style_valu
 546:lvgl/lvgl/src/core/lv_obj_style.c **** {
 547:lvgl/lvgl/src/core/lv_obj_style.c ****     uint8_t group = 1 << _lv_style_get_prop_group(prop);
 548:lvgl/lvgl/src/core/lv_obj_style.c ****     int32_t weight = -1;
 549:lvgl/lvgl/src/core/lv_obj_style.c ****     lv_state_t state = obj->state;
 550:lvgl/lvgl/src/core/lv_obj_style.c ****     lv_state_t state_inv = ~state;
 551:lvgl/lvgl/src/core/lv_obj_style.c ****     lv_style_value_t value_tmp;
 552:lvgl/lvgl/src/core/lv_obj_style.c ****     bool skip_trans = obj->skip_trans;
 553:lvgl/lvgl/src/core/lv_obj_style.c ****     uint32_t i;
 554:lvgl/lvgl/src/core/lv_obj_style.c ****     bool found;
 555:lvgl/lvgl/src/core/lv_obj_style.c ****     for(i = 0; i < obj->style_cnt; i++) {
 556:lvgl/lvgl/src/core/lv_obj_style.c ****         _lv_obj_style_t * obj_style = &obj->styles[i];
 557:lvgl/lvgl/src/core/lv_obj_style.c ****         if(obj_style->is_trans == false) break;
 558:lvgl/lvgl/src/core/lv_obj_style.c ****         if(skip_trans) continue;
 559:lvgl/lvgl/src/core/lv_obj_style.c **** 
 560:lvgl/lvgl/src/core/lv_obj_style.c ****         lv_part_t part_act = lv_obj_style_get_selector_part(obj->styles[i].selector);
 561:lvgl/lvgl/src/core/lv_obj_style.c **** 
 562:lvgl/lvgl/src/core/lv_obj_style.c ****         if(part_act != part) continue;
 563:lvgl/lvgl/src/core/lv_obj_style.c ****         if((obj_style->style->has_group & group) == 0) continue;
 564:lvgl/lvgl/src/core/lv_obj_style.c ****         found = lv_style_get_prop(obj_style->style, prop, &value_tmp);
 565:lvgl/lvgl/src/core/lv_obj_style.c ****         if(found) {
 566:lvgl/lvgl/src/core/lv_obj_style.c ****             *v = value_tmp;
 567:lvgl/lvgl/src/core/lv_obj_style.c ****             return true;
 568:lvgl/lvgl/src/core/lv_obj_style.c ****         }
 569:lvgl/lvgl/src/core/lv_obj_style.c ****     }
 570:lvgl/lvgl/src/core/lv_obj_style.c **** 
 571:lvgl/lvgl/src/core/lv_obj_style.c ****     for(; i < obj->style_cnt; i++) {
 572:lvgl/lvgl/src/core/lv_obj_style.c ****         _lv_obj_style_t * obj_style = &obj->styles[i];
 573:lvgl/lvgl/src/core/lv_obj_style.c ****         lv_part_t part_act = lv_obj_style_get_selector_part(obj->styles[i].selector);
 574:lvgl/lvgl/src/core/lv_obj_style.c ****         lv_state_t state_act = lv_obj_style_get_selector_state(obj->styles[i].selector);
 575:lvgl/lvgl/src/core/lv_obj_style.c ****         if(part_act != part) continue;
 576:lvgl/lvgl/src/core/lv_obj_style.c **** 
 577:lvgl/lvgl/src/core/lv_obj_style.c ****         if((obj_style->style->has_group & group) == 0) continue;
 578:lvgl/lvgl/src/core/lv_obj_style.c **** 
 579:lvgl/lvgl/src/core/lv_obj_style.c ****         /*Be sure the style not specifies other state than the requested.
 580:lvgl/lvgl/src/core/lv_obj_style.c ****          *E.g. For HOVER+PRESS object state, HOVER style only is OK, but HOVER+FOCUS style is not*/
 581:lvgl/lvgl/src/core/lv_obj_style.c ****         if((state_act & state_inv)) continue;
 582:lvgl/lvgl/src/core/lv_obj_style.c **** 
 583:lvgl/lvgl/src/core/lv_obj_style.c ****         /*Check only better candidates*/
 584:lvgl/lvgl/src/core/lv_obj_style.c ****         if(state_act <= weight) continue;
 585:lvgl/lvgl/src/core/lv_obj_style.c **** 
 586:lvgl/lvgl/src/core/lv_obj_style.c ****         found = lv_style_get_prop(obj_style->style, prop, &value_tmp);
 587:lvgl/lvgl/src/core/lv_obj_style.c **** 
 588:lvgl/lvgl/src/core/lv_obj_style.c ****         if(found) {
 589:lvgl/lvgl/src/core/lv_obj_style.c ****             if(state_act == state) {
 590:lvgl/lvgl/src/core/lv_obj_style.c ****                 *v = value_tmp;
 591:lvgl/lvgl/src/core/lv_obj_style.c ****                 return true;
 592:lvgl/lvgl/src/core/lv_obj_style.c ****             }
 593:lvgl/lvgl/src/core/lv_obj_style.c ****             if(weight < state_act) {
 594:lvgl/lvgl/src/core/lv_obj_style.c ****                 weight = state_act;
 595:lvgl/lvgl/src/core/lv_obj_style.c ****                 *v = value_tmp;
 596:lvgl/lvgl/src/core/lv_obj_style.c ****             }
 597:lvgl/lvgl/src/core/lv_obj_style.c ****         }
 598:lvgl/lvgl/src/core/lv_obj_style.c ****     }
 599:lvgl/lvgl/src/core/lv_obj_style.c **** 
 600:lvgl/lvgl/src/core/lv_obj_style.c ****     if(weight >= 0) {
ARM GAS  C:\Users\gx\AppData\Local\Temp\cc2sgWsf.s 			page 12


 601:lvgl/lvgl/src/core/lv_obj_style.c ****         *v = value_tmp;
 602:lvgl/lvgl/src/core/lv_obj_style.c ****         return true;
 603:lvgl/lvgl/src/core/lv_obj_style.c ****     }
 604:lvgl/lvgl/src/core/lv_obj_style.c ****     else return false;
 605:lvgl/lvgl/src/core/lv_obj_style.c **** }
 606:lvgl/lvgl/src/core/lv_obj_style.c **** 
 607:lvgl/lvgl/src/core/lv_obj_style.c **** static lv_style_value_t apply_color_filter(const lv_obj_t * obj, uint32_t part, lv_style_value_t v)
 608:lvgl/lvgl/src/core/lv_obj_style.c **** {
 609:lvgl/lvgl/src/core/lv_obj_style.c ****     if(obj == NULL) return v;
 610:lvgl/lvgl/src/core/lv_obj_style.c ****     const lv_color_filter_dsc_t * f = lv_obj_get_style_color_filter_dsc(obj, part);
 611:lvgl/lvgl/src/core/lv_obj_style.c ****     if(f && f->filter_cb) {
 612:lvgl/lvgl/src/core/lv_obj_style.c ****         lv_opa_t f_opa = lv_obj_get_style_color_filter_opa(obj, part);
 613:lvgl/lvgl/src/core/lv_obj_style.c ****         if(f_opa != 0) v.color = f->filter_cb(f, v.color, f_opa);
 614:lvgl/lvgl/src/core/lv_obj_style.c ****     }
 615:lvgl/lvgl/src/core/lv_obj_style.c ****     return v;
 616:lvgl/lvgl/src/core/lv_obj_style.c **** }
 617:lvgl/lvgl/src/core/lv_obj_style.c **** 
 618:lvgl/lvgl/src/core/lv_obj_style.c **** /**
 619:lvgl/lvgl/src/core/lv_obj_style.c ****  * Refresh the style of all children of an object. (Called recursively)
 620:lvgl/lvgl/src/core/lv_obj_style.c ****  * @param style refresh objects only with this
 621:lvgl/lvgl/src/core/lv_obj_style.c ****  * @param obj pointer to an object
 622:lvgl/lvgl/src/core/lv_obj_style.c ****  */
 623:lvgl/lvgl/src/core/lv_obj_style.c **** static void report_style_change_core(void * style, lv_obj_t * obj)
 624:lvgl/lvgl/src/core/lv_obj_style.c **** {
 625:lvgl/lvgl/src/core/lv_obj_style.c ****     uint32_t i;
 626:lvgl/lvgl/src/core/lv_obj_style.c ****     for(i = 0; i < obj->style_cnt; i++) {
 627:lvgl/lvgl/src/core/lv_obj_style.c ****         if(style == NULL || obj->styles[i].style == style) {
 628:lvgl/lvgl/src/core/lv_obj_style.c ****             lv_obj_refresh_style(obj, LV_PART_ANY, LV_STYLE_PROP_ANY);
 629:lvgl/lvgl/src/core/lv_obj_style.c ****             break;
 630:lvgl/lvgl/src/core/lv_obj_style.c ****         }
 631:lvgl/lvgl/src/core/lv_obj_style.c ****     }
 632:lvgl/lvgl/src/core/lv_obj_style.c **** 
 633:lvgl/lvgl/src/core/lv_obj_style.c ****     uint32_t child_cnt = lv_obj_get_child_cnt(obj);
 634:lvgl/lvgl/src/core/lv_obj_style.c ****     for(i = 0; i < child_cnt; i++) {
 635:lvgl/lvgl/src/core/lv_obj_style.c ****         report_style_change_core(style, obj->spec_attr->children[i]);
 636:lvgl/lvgl/src/core/lv_obj_style.c ****     }
 637:lvgl/lvgl/src/core/lv_obj_style.c **** }
 638:lvgl/lvgl/src/core/lv_obj_style.c **** 
 639:lvgl/lvgl/src/core/lv_obj_style.c **** /**
 640:lvgl/lvgl/src/core/lv_obj_style.c ****  * Recursively refresh the style of the children. Go deeper until a not NULL style is found
 641:lvgl/lvgl/src/core/lv_obj_style.c ****  * because the NULL styles are inherited from the parent
 642:lvgl/lvgl/src/core/lv_obj_style.c ****  * @param obj pointer to an object
 643:lvgl/lvgl/src/core/lv_obj_style.c ****  */
 644:lvgl/lvgl/src/core/lv_obj_style.c **** static void refresh_children_style(lv_obj_t * obj)
 645:lvgl/lvgl/src/core/lv_obj_style.c **** {
 646:lvgl/lvgl/src/core/lv_obj_style.c ****     uint32_t i;
 647:lvgl/lvgl/src/core/lv_obj_style.c ****     uint32_t child_cnt = lv_obj_get_child_cnt(obj);
 648:lvgl/lvgl/src/core/lv_obj_style.c ****     for(i = 0; i < child_cnt; i++) {
 649:lvgl/lvgl/src/core/lv_obj_style.c ****         lv_obj_t * child = obj->spec_attr->children[i];
 650:lvgl/lvgl/src/core/lv_obj_style.c ****         lv_obj_invalidate(child);
 651:lvgl/lvgl/src/core/lv_obj_style.c ****         lv_event_send(child, LV_EVENT_STYLE_CHANGED, NULL);
 652:lvgl/lvgl/src/core/lv_obj_style.c ****         lv_obj_invalidate(child);
 653:lvgl/lvgl/src/core/lv_obj_style.c **** 
 654:lvgl/lvgl/src/core/lv_obj_style.c ****         refresh_children_style(child); /*Check children too*/
 655:lvgl/lvgl/src/core/lv_obj_style.c ****     }
 656:lvgl/lvgl/src/core/lv_obj_style.c **** }
 657:lvgl/lvgl/src/core/lv_obj_style.c **** 
ARM GAS  C:\Users\gx\AppData\Local\Temp\cc2sgWsf.s 			page 13


 658:lvgl/lvgl/src/core/lv_obj_style.c **** /**
 659:lvgl/lvgl/src/core/lv_obj_style.c ****  * Remove the transition from object's part's property.
 660:lvgl/lvgl/src/core/lv_obj_style.c ****  * - Remove the transition from `_lv_obj_style_trans_ll` and free it
 661:lvgl/lvgl/src/core/lv_obj_style.c ****  * - Delete pending transitions
 662:lvgl/lvgl/src/core/lv_obj_style.c ****  * @param obj pointer to an object which transition(s) should be removed
 663:lvgl/lvgl/src/core/lv_obj_style.c ****  * @param part a part of object or 0xFF to remove from all parts
 664:lvgl/lvgl/src/core/lv_obj_style.c ****  * @param prop a property or 0xFF to remove all properties
 665:lvgl/lvgl/src/core/lv_obj_style.c ****  * @param tr_limit delete transitions only "older" than this. `NULL` if not used
 666:lvgl/lvgl/src/core/lv_obj_style.c ****  */
 667:lvgl/lvgl/src/core/lv_obj_style.c **** static bool trans_del(lv_obj_t * obj, lv_part_t part, lv_style_prop_t prop, trans_t * tr_limit)
 668:lvgl/lvgl/src/core/lv_obj_style.c **** {
  29              		.loc 1 668 1 view -0
  30              		.cfi_startproc
  31              		@ args = 0, pretend = 0, frame = 0
  32              		@ frame_needed = 0, uses_anonymous_args = 0
  33              		.loc 1 668 1 is_stmt 0 view .LVU1
  34 0000 2DE9F84F 		push	{r3, r4, r5, r6, r7, r8, r9, r10, fp, lr}
  35              	.LCFI0:
  36              		.cfi_def_cfa_offset 40
  37              		.cfi_offset 3, -40
  38              		.cfi_offset 4, -36
  39              		.cfi_offset 5, -32
  40              		.cfi_offset 6, -28
  41              		.cfi_offset 7, -24
  42              		.cfi_offset 8, -20
  43              		.cfi_offset 9, -16
  44              		.cfi_offset 10, -12
  45              		.cfi_offset 11, -8
  46              		.cfi_offset 14, -4
  47 0004 0646     		mov	r6, r0
  48 0006 8946     		mov	r9, r1
  49 0008 9246     		mov	r10, r2
  50 000a 9846     		mov	r8, r3
 669:lvgl/lvgl/src/core/lv_obj_style.c ****     trans_t * tr;
  51              		.loc 1 669 5 is_stmt 1 view .LVU2
 670:lvgl/lvgl/src/core/lv_obj_style.c ****     trans_t * tr_prev;
  52              		.loc 1 670 5 view .LVU3
 671:lvgl/lvgl/src/core/lv_obj_style.c ****     bool removed = false;
  53              		.loc 1 671 5 view .LVU4
  54              	.LVL1:
 672:lvgl/lvgl/src/core/lv_obj_style.c ****     tr = _lv_ll_get_tail(&LV_GC_ROOT(_lv_obj_style_trans_ll));
  55              		.loc 1 672 5 view .LVU5
  56              		.loc 1 672 10 is_stmt 0 view .LVU6
  57 000c 2848     		ldr	r0, .L16
  58              	.LVL2:
  59              		.loc 1 672 10 view .LVU7
  60 000e FFF7FEFF 		bl	_lv_ll_get_tail
  61              	.LVL3:
  62              		.loc 1 672 10 view .LVU8
  63 0012 0446     		mov	r4, r0
  64              	.LVL4:
 673:lvgl/lvgl/src/core/lv_obj_style.c ****     while(tr != NULL) {
  65              		.loc 1 673 5 is_stmt 1 view .LVU9
 671:lvgl/lvgl/src/core/lv_obj_style.c ****     bool removed = false;
  66              		.loc 1 671 10 is_stmt 0 view .LVU10
  67 0014 4FF0000B 		mov	fp, #0
  68              		.loc 1 673 10 view .LVU11
ARM GAS  C:\Users\gx\AppData\Local\Temp\cc2sgWsf.s 			page 14


  69 0018 07E0     		b	.L2
  70              	.LVL5:
  71              	.L5:
 674:lvgl/lvgl/src/core/lv_obj_style.c ****         if(tr == tr_limit) break;
 675:lvgl/lvgl/src/core/lv_obj_style.c **** 
 676:lvgl/lvgl/src/core/lv_obj_style.c ****         /*'tr' might be deleted, so get the next object while 'tr' is valid*/
 677:lvgl/lvgl/src/core/lv_obj_style.c ****         tr_prev = _lv_ll_get_prev(&LV_GC_ROOT(_lv_obj_style_trans_ll), tr);
 678:lvgl/lvgl/src/core/lv_obj_style.c **** 
 679:lvgl/lvgl/src/core/lv_obj_style.c ****         if(tr->obj == obj && (part == tr->selector || part == LV_PART_ANY) && (prop == tr->prop || 
  72              		.loc 1 679 90 discriminator 4 view .LVU12
  73 001a A388     		ldrh	r3, [r4, #4]
  74              		.loc 1 679 76 discriminator 4 view .LVU13
  75 001c 5345     		cmp	r3, r10
  76 001e 3FD0     		beq	.L12
  77              		.loc 1 679 97 discriminator 5 view .LVU14
  78 0020 4FF6FF73 		movw	r3, #65535
  79 0024 9A45     		cmp	r10, r3
  80 0026 3DD0     		beq	.L15
  81              	.LVL6:
  82              	.L4:
  83              		.loc 1 679 97 discriminator 5 view .LVU15
  84 0028 2C46     		mov	r4, r5
  85              	.LVL7:
  86              	.L2:
 673:lvgl/lvgl/src/core/lv_obj_style.c ****     while(tr != NULL) {
  87              		.loc 1 673 10 is_stmt 1 view .LVU16
  88 002a 002C     		cmp	r4, #0
  89 002c 3CD0     		beq	.L3
 674:lvgl/lvgl/src/core/lv_obj_style.c ****         if(tr == tr_limit) break;
  90              		.loc 1 674 9 view .LVU17
 674:lvgl/lvgl/src/core/lv_obj_style.c ****         if(tr == tr_limit) break;
  91              		.loc 1 674 11 is_stmt 0 view .LVU18
  92 002e 4445     		cmp	r4, r8
  93 0030 3AD0     		beq	.L3
 677:lvgl/lvgl/src/core/lv_obj_style.c **** 
  94              		.loc 1 677 9 is_stmt 1 view .LVU19
 677:lvgl/lvgl/src/core/lv_obj_style.c **** 
  95              		.loc 1 677 19 is_stmt 0 view .LVU20
  96 0032 2146     		mov	r1, r4
  97 0034 1E48     		ldr	r0, .L16
  98 0036 FFF7FEFF 		bl	_lv_ll_get_prev
  99              	.LVL8:
 100 003a 0546     		mov	r5, r0
 101              	.LVL9:
 102              		.loc 1 679 9 is_stmt 1 view .LVU21
 103              		.loc 1 679 14 is_stmt 0 view .LVU22
 104 003c 2368     		ldr	r3, [r4]
 105              		.loc 1 679 11 view .LVU23
 106 003e B342     		cmp	r3, r6
 107 0040 F2D1     		bne	.L4
 108              		.loc 1 679 41 discriminator 1 view .LVU24
 109 0042 A368     		ldr	r3, [r4, #8]
 110              		.loc 1 679 27 discriminator 1 view .LVU25
 111 0044 4B45     		cmp	r3, r9
 112 0046 E8D0     		beq	.L5
 113              		.loc 1 679 52 discriminator 3 view .LVU26
 114 0048 B9F5702F 		cmp	r9, #983040
ARM GAS  C:\Users\gx\AppData\Local\Temp\cc2sgWsf.s 			page 15


 115 004c ECD1     		bne	.L4
 116 004e E4E7     		b	.L5
 117              	.LVL10:
 118              	.L8:
 119              	.LBB63:
 680:lvgl/lvgl/src/core/lv_obj_style.c ****             /*Remove the transitioned property from trans. style
 681:lvgl/lvgl/src/core/lv_obj_style.c ****              *to allow changing it by normal styles*/
 682:lvgl/lvgl/src/core/lv_obj_style.c ****             uint32_t i;
 683:lvgl/lvgl/src/core/lv_obj_style.c ****             for(i = 0; i < obj->style_cnt; i++) {
 684:lvgl/lvgl/src/core/lv_obj_style.c ****                 if(obj->styles[i].is_trans && (part == LV_PART_ANY || obj->styles[i].selector == pa
 685:lvgl/lvgl/src/core/lv_obj_style.c ****                     lv_style_remove_prop(obj->styles[i].style, tr->prop);
 120              		.loc 1 685 21 is_stmt 1 view .LVU27
 121 0050 A188     		ldrh	r1, [r4, #4]
 122 0052 1058     		ldr	r0, [r2, r0]
 123 0054 FFF7FEFF 		bl	lv_style_remove_prop
 124              	.LVL11:
 686:lvgl/lvgl/src/core/lv_obj_style.c ****                     lv_anim_del(tr, NULL);
 125              		.loc 1 686 21 view .LVU28
 126 0058 0021     		movs	r1, #0
 127 005a 2046     		mov	r0, r4
 128 005c FFF7FEFF 		bl	lv_anim_del
 129              	.LVL12:
 687:lvgl/lvgl/src/core/lv_obj_style.c ****                     _lv_ll_remove(&LV_GC_ROOT(_lv_obj_style_trans_ll), tr);
 130              		.loc 1 687 21 view .LVU29
 131 0060 2146     		mov	r1, r4
 132 0062 1348     		ldr	r0, .L16
 133 0064 FFF7FEFF 		bl	_lv_ll_remove
 134              	.LVL13:
 688:lvgl/lvgl/src/core/lv_obj_style.c ****                     lv_mem_free(tr);
 135              		.loc 1 688 21 view .LVU30
 136 0068 2046     		mov	r0, r4
 137 006a FFF7FEFF 		bl	lv_mem_free
 138              	.LVL14:
 689:lvgl/lvgl/src/core/lv_obj_style.c ****                     removed = true;
 139              		.loc 1 689 21 view .LVU31
 140              		.loc 1 689 29 is_stmt 0 view .LVU32
 141 006e 4FF0010B 		mov	fp, #1
 142              	.LVL15:
 143              	.L7:
 683:lvgl/lvgl/src/core/lv_obj_style.c ****                 if(obj->styles[i].is_trans && (part == LV_PART_ANY || obj->styles[i].selector == pa
 144              		.loc 1 683 44 is_stmt 1 discriminator 2 view .LVU33
 683:lvgl/lvgl/src/core/lv_obj_style.c ****                 if(obj->styles[i].is_trans && (part == LV_PART_ANY || obj->styles[i].selector == pa
 145              		.loc 1 683 45 is_stmt 0 discriminator 2 view .LVU34
 146 0072 0137     		adds	r7, r7, #1
 147              	.LVL16:
 148              	.L9:
 683:lvgl/lvgl/src/core/lv_obj_style.c ****                 if(obj->styles[i].is_trans && (part == LV_PART_ANY || obj->styles[i].selector == pa
 149              		.loc 1 683 24 is_stmt 1 discriminator 1 view .LVU35
 683:lvgl/lvgl/src/core/lv_obj_style.c ****                 if(obj->styles[i].is_trans && (part == LV_PART_ANY || obj->styles[i].selector == pa
 150              		.loc 1 683 31 is_stmt 0 discriminator 1 view .LVU36
 151 0074 738C     		ldrh	r3, [r6, #34]
 152 0076 C3F3C503 		ubfx	r3, r3, #3, #6
 683:lvgl/lvgl/src/core/lv_obj_style.c ****                 if(obj->styles[i].is_trans && (part == LV_PART_ANY || obj->styles[i].selector == pa
 153              		.loc 1 683 13 discriminator 1 view .LVU37
 154 007a BB42     		cmp	r3, r7
 155 007c D4D9     		bls	.L4
 684:lvgl/lvgl/src/core/lv_obj_style.c ****                     lv_style_remove_prop(obj->styles[i].style, tr->prop);
ARM GAS  C:\Users\gx\AppData\Local\Temp\cc2sgWsf.s 			page 16


 156              		.loc 1 684 17 is_stmt 1 view .LVU38
 684:lvgl/lvgl/src/core/lv_obj_style.c ****                     lv_style_remove_prop(obj->styles[i].style, tr->prop);
 157              		.loc 1 684 23 is_stmt 0 view .LVU39
 158 007e F268     		ldr	r2, [r6, #12]
 684:lvgl/lvgl/src/core/lv_obj_style.c ****                     lv_style_remove_prop(obj->styles[i].style, tr->prop);
 159              		.loc 1 684 31 view .LVU40
 160 0080 F800     		lsls	r0, r7, #3
 161 0082 02EBC703 		add	r3, r2, r7, lsl #3
 684:lvgl/lvgl/src/core/lv_obj_style.c ****                     lv_style_remove_prop(obj->styles[i].style, tr->prop);
 162              		.loc 1 684 20 view .LVU41
 163 0086 D979     		ldrb	r1, [r3, #7]	@ zero_extendqisi2
 684:lvgl/lvgl/src/core/lv_obj_style.c ****                     lv_style_remove_prop(obj->styles[i].style, tr->prop);
 164              		.loc 1 684 19 view .LVU42
 165 0088 11F0020F 		tst	r1, #2
 166 008c F1D0     		beq	.L7
 684:lvgl/lvgl/src/core/lv_obj_style.c ****                     lv_style_remove_prop(obj->styles[i].style, tr->prop);
 167              		.loc 1 684 44 discriminator 1 view .LVU43
 168 008e B9F5702F 		cmp	r9, #983040
 169 0092 DDD0     		beq	.L8
 684:lvgl/lvgl/src/core/lv_obj_style.c ****                     lv_style_remove_prop(obj->styles[i].style, tr->prop);
 170              		.loc 1 684 85 discriminator 2 view .LVU44
 171 0094 5B68     		ldr	r3, [r3, #4]
 172 0096 C3F31703 		ubfx	r3, r3, #0, #24
 684:lvgl/lvgl/src/core/lv_obj_style.c ****                     lv_style_remove_prop(obj->styles[i].style, tr->prop);
 173              		.loc 1 684 68 discriminator 2 view .LVU45
 174 009a 4B45     		cmp	r3, r9
 175 009c E9D1     		bne	.L7
 176 009e D7E7     		b	.L8
 177              	.LVL17:
 178              	.L12:
 684:lvgl/lvgl/src/core/lv_obj_style.c ****                     lv_style_remove_prop(obj->styles[i].style, tr->prop);
 179              		.loc 1 684 68 discriminator 2 view .LVU46
 180              	.LBE63:
 181 00a0 0027     		movs	r7, #0
 182 00a2 E7E7     		b	.L9
 183              	.L15:
 184 00a4 0027     		movs	r7, #0
 185 00a6 E5E7     		b	.L9
 186              	.LVL18:
 187              	.L3:
 690:lvgl/lvgl/src/core/lv_obj_style.c ****                 }
 691:lvgl/lvgl/src/core/lv_obj_style.c ****             }
 692:lvgl/lvgl/src/core/lv_obj_style.c **** 
 693:lvgl/lvgl/src/core/lv_obj_style.c ****         }
 694:lvgl/lvgl/src/core/lv_obj_style.c ****         tr = tr_prev;
 695:lvgl/lvgl/src/core/lv_obj_style.c ****     }
 696:lvgl/lvgl/src/core/lv_obj_style.c ****     return removed;
 188              		.loc 1 696 5 is_stmt 1 view .LVU47
 697:lvgl/lvgl/src/core/lv_obj_style.c **** }
 189              		.loc 1 697 1 is_stmt 0 view .LVU48
 190 00a8 5846     		mov	r0, fp
 191 00aa BDE8F88F 		pop	{r3, r4, r5, r6, r7, r8, r9, r10, fp, pc}
 192              	.LVL19:
 193              	.L17:
 194              		.loc 1 697 1 view .LVU49
 195 00ae 00BF     		.align	2
 196              	.L16:
ARM GAS  C:\Users\gx\AppData\Local\Temp\cc2sgWsf.s 			page 17


 197 00b0 00000000 		.word	_lv_obj_style_trans_ll
 198              		.cfi_endproc
 199              	.LFE181:
 201              		.section	.text.refresh_children_style,"ax",%progbits
 202              		.align	1
 203              		.syntax unified
 204              		.thumb
 205              		.thumb_func
 206              		.fpu fpv4-sp-d16
 208              	refresh_children_style:
 209              	.LVL20:
 210              	.LFB180:
 645:lvgl/lvgl/src/core/lv_obj_style.c ****     uint32_t i;
 211              		.loc 1 645 1 is_stmt 1 view -0
 212              		.cfi_startproc
 213              		@ args = 0, pretend = 0, frame = 0
 214              		@ frame_needed = 0, uses_anonymous_args = 0
 645:lvgl/lvgl/src/core/lv_obj_style.c ****     uint32_t i;
 215              		.loc 1 645 1 is_stmt 0 view .LVU51
 216 0000 F8B5     		push	{r3, r4, r5, r6, r7, lr}
 217              	.LCFI1:
 218              		.cfi_def_cfa_offset 24
 219              		.cfi_offset 3, -24
 220              		.cfi_offset 4, -20
 221              		.cfi_offset 5, -16
 222              		.cfi_offset 6, -12
 223              		.cfi_offset 7, -8
 224              		.cfi_offset 14, -4
 225 0002 0746     		mov	r7, r0
 646:lvgl/lvgl/src/core/lv_obj_style.c ****     uint32_t child_cnt = lv_obj_get_child_cnt(obj);
 226              		.loc 1 646 5 is_stmt 1 view .LVU52
 647:lvgl/lvgl/src/core/lv_obj_style.c ****     for(i = 0; i < child_cnt; i++) {
 227              		.loc 1 647 5 view .LVU53
 647:lvgl/lvgl/src/core/lv_obj_style.c ****     for(i = 0; i < child_cnt; i++) {
 228              		.loc 1 647 26 is_stmt 0 view .LVU54
 229 0004 FFF7FEFF 		bl	lv_obj_get_child_cnt
 230              	.LVL21:
 647:lvgl/lvgl/src/core/lv_obj_style.c ****     for(i = 0; i < child_cnt; i++) {
 231              		.loc 1 647 26 view .LVU55
 232 0008 0646     		mov	r6, r0
 233              	.LVL22:
 648:lvgl/lvgl/src/core/lv_obj_style.c ****         lv_obj_t * child = obj->spec_attr->children[i];
 234              		.loc 1 648 5 is_stmt 1 view .LVU56
 648:lvgl/lvgl/src/core/lv_obj_style.c ****         lv_obj_t * child = obj->spec_attr->children[i];
 235              		.loc 1 648 11 is_stmt 0 view .LVU57
 236 000a 0025     		movs	r5, #0
 648:lvgl/lvgl/src/core/lv_obj_style.c ****         lv_obj_t * child = obj->spec_attr->children[i];
 237              		.loc 1 648 5 view .LVU58
 238 000c 12E0     		b	.L19
 239              	.LVL23:
 240              	.L20:
 241              	.LBB64:
 649:lvgl/lvgl/src/core/lv_obj_style.c ****         lv_obj_invalidate(child);
 242              		.loc 1 649 9 is_stmt 1 discriminator 3 view .LVU59
 649:lvgl/lvgl/src/core/lv_obj_style.c ****         lv_obj_invalidate(child);
 243              		.loc 1 649 31 is_stmt 0 discriminator 3 view .LVU60
 244 000e BB68     		ldr	r3, [r7, #8]
ARM GAS  C:\Users\gx\AppData\Local\Temp\cc2sgWsf.s 			page 18


 649:lvgl/lvgl/src/core/lv_obj_style.c ****         lv_obj_invalidate(child);
 245              		.loc 1 649 42 discriminator 3 view .LVU61
 246 0010 1B68     		ldr	r3, [r3]
 649:lvgl/lvgl/src/core/lv_obj_style.c ****         lv_obj_invalidate(child);
 247              		.loc 1 649 20 discriminator 3 view .LVU62
 248 0012 53F82540 		ldr	r4, [r3, r5, lsl #2]
 249              	.LVL24:
 650:lvgl/lvgl/src/core/lv_obj_style.c ****         lv_event_send(child, LV_EVENT_STYLE_CHANGED, NULL);
 250              		.loc 1 650 9 is_stmt 1 discriminator 3 view .LVU63
 251 0016 2046     		mov	r0, r4
 252 0018 FFF7FEFF 		bl	lv_obj_invalidate
 253              	.LVL25:
 651:lvgl/lvgl/src/core/lv_obj_style.c ****         lv_obj_invalidate(child);
 254              		.loc 1 651 9 discriminator 3 view .LVU64
 255 001c 0022     		movs	r2, #0
 256 001e 2421     		movs	r1, #36
 257 0020 2046     		mov	r0, r4
 258 0022 FFF7FEFF 		bl	lv_event_send
 259              	.LVL26:
 652:lvgl/lvgl/src/core/lv_obj_style.c **** 
 260              		.loc 1 652 9 discriminator 3 view .LVU65
 261 0026 2046     		mov	r0, r4
 262 0028 FFF7FEFF 		bl	lv_obj_invalidate
 263              	.LVL27:
 654:lvgl/lvgl/src/core/lv_obj_style.c ****     }
 264              		.loc 1 654 9 discriminator 3 view .LVU66
 265 002c 2046     		mov	r0, r4
 266 002e FFF7E7FF 		bl	refresh_children_style
 267              	.LVL28:
 268              	.LBE64:
 648:lvgl/lvgl/src/core/lv_obj_style.c ****         lv_obj_t * child = obj->spec_attr->children[i];
 269              		.loc 1 648 31 discriminator 3 view .LVU67
 648:lvgl/lvgl/src/core/lv_obj_style.c ****         lv_obj_t * child = obj->spec_attr->children[i];
 270              		.loc 1 648 32 is_stmt 0 discriminator 3 view .LVU68
 271 0032 0135     		adds	r5, r5, #1
 272              	.LVL29:
 273              	.L19:
 648:lvgl/lvgl/src/core/lv_obj_style.c ****         lv_obj_t * child = obj->spec_attr->children[i];
 274              		.loc 1 648 16 is_stmt 1 discriminator 1 view .LVU69
 648:lvgl/lvgl/src/core/lv_obj_style.c ****         lv_obj_t * child = obj->spec_attr->children[i];
 275              		.loc 1 648 5 is_stmt 0 discriminator 1 view .LVU70
 276 0034 B542     		cmp	r5, r6
 277 0036 EAD3     		bcc	.L20
 656:lvgl/lvgl/src/core/lv_obj_style.c **** 
 278              		.loc 1 656 1 view .LVU71
 279 0038 F8BD     		pop	{r3, r4, r5, r6, r7, pc}
 656:lvgl/lvgl/src/core/lv_obj_style.c **** 
 280              		.loc 1 656 1 view .LVU72
 281              		.cfi_endproc
 282              	.LFE180:
 284              		.section	.rodata.get_local_style.str1.4,"aMS",%progbits,1
 285              		.align	2
 286              	.LC0:
 287 0000 6C76676C 		.ascii	"lvgl/lvgl/src/core/lv_obj_style.c\000"
 287      2F6C7667 
 287      6C2F7372 
 287      632F636F 
ARM GAS  C:\Users\gx\AppData\Local\Temp\cc2sgWsf.s 			page 19


 287      72652F6C 
 288 0022 0000     		.align	2
 289              	.LC1:
 290 0024 4F757420 		.ascii	"Out of memory\000"
 290      6F66206D 
 290      656D6F72 
 290      7900
 291 0032 0000     		.align	2
 292              	.LC2:
 293 0034 6F626A2D 		.ascii	"obj->styles != NULL\000"
 293      3E737479 
 293      6C657320 
 293      213D204E 
 293      554C4C00 
 294              		.align	2
 295              	.LC3:
 296 0048 41737365 		.ascii	"Asserted at expression: %s (%s)\000"
 296      72746564 
 296      20617420 
 296      65787072 
 296      65737369 
 297              		.section	.text.get_local_style,"ax",%progbits
 298              		.align	1
 299              		.syntax unified
 300              		.thumb
 301              		.thumb_func
 302              		.fpu fpv4-sp-d16
 304              	get_local_style:
 305              	.LVL30:
 306              	.LFB175:
 482:lvgl/lvgl/src/core/lv_obj_style.c ****     uint32_t i;
 307              		.loc 1 482 1 is_stmt 1 view -0
 308              		.cfi_startproc
 309              		@ args = 0, pretend = 0, frame = 0
 310              		@ frame_needed = 0, uses_anonymous_args = 0
 482:lvgl/lvgl/src/core/lv_obj_style.c ****     uint32_t i;
 311              		.loc 1 482 1 is_stmt 0 view .LVU74
 312 0000 2DE9F041 		push	{r4, r5, r6, r7, r8, lr}
 313              	.LCFI2:
 314              		.cfi_def_cfa_offset 24
 315              		.cfi_offset 4, -24
 316              		.cfi_offset 5, -20
 317              		.cfi_offset 6, -16
 318              		.cfi_offset 7, -12
 319              		.cfi_offset 8, -8
 320              		.cfi_offset 14, -4
 321 0004 84B0     		sub	sp, sp, #16
 322              	.LCFI3:
 323              		.cfi_def_cfa_offset 40
 324 0006 0446     		mov	r4, r0
 325 0008 0D46     		mov	r5, r1
 483:lvgl/lvgl/src/core/lv_obj_style.c ****     for(i = 0; i < obj->style_cnt; i++) {
 326              		.loc 1 483 5 is_stmt 1 view .LVU75
 484:lvgl/lvgl/src/core/lv_obj_style.c ****         if(obj->styles[i].is_local &&
 327              		.loc 1 484 5 view .LVU76
 328              	.LVL31:
 484:lvgl/lvgl/src/core/lv_obj_style.c ****         if(obj->styles[i].is_local &&
ARM GAS  C:\Users\gx\AppData\Local\Temp\cc2sgWsf.s 			page 20


 329              		.loc 1 484 11 is_stmt 0 view .LVU77
 330 000a 0022     		movs	r2, #0
 484:lvgl/lvgl/src/core/lv_obj_style.c ****         if(obj->styles[i].is_local &&
 331              		.loc 1 484 5 view .LVU78
 332 000c 00E0     		b	.L23
 333              	.LVL32:
 334              	.L24:
 484:lvgl/lvgl/src/core/lv_obj_style.c ****         if(obj->styles[i].is_local &&
 335              		.loc 1 484 36 is_stmt 1 discriminator 2 view .LVU79
 484:lvgl/lvgl/src/core/lv_obj_style.c ****         if(obj->styles[i].is_local &&
 336              		.loc 1 484 37 is_stmt 0 discriminator 2 view .LVU80
 337 000e 0132     		adds	r2, r2, #1
 338              	.LVL33:
 339              	.L23:
 484:lvgl/lvgl/src/core/lv_obj_style.c ****         if(obj->styles[i].is_local &&
 340              		.loc 1 484 16 is_stmt 1 discriminator 1 view .LVU81
 484:lvgl/lvgl/src/core/lv_obj_style.c ****         if(obj->styles[i].is_local &&
 341              		.loc 1 484 23 is_stmt 0 discriminator 1 view .LVU82
 342 0010 638C     		ldrh	r3, [r4, #34]
 343 0012 C3F3C503 		ubfx	r3, r3, #3, #6
 484:lvgl/lvgl/src/core/lv_obj_style.c ****         if(obj->styles[i].is_local &&
 344              		.loc 1 484 5 discriminator 1 view .LVU83
 345 0016 9342     		cmp	r3, r2
 346 0018 0DD9     		bls	.L33
 485:lvgl/lvgl/src/core/lv_obj_style.c ****            obj->styles[i].selector == selector)
 347              		.loc 1 485 9 is_stmt 1 view .LVU84
 485:lvgl/lvgl/src/core/lv_obj_style.c ****            obj->styles[i].selector == selector)
 348              		.loc 1 485 15 is_stmt 0 view .LVU85
 349 001a E368     		ldr	r3, [r4, #12]
 485:lvgl/lvgl/src/core/lv_obj_style.c ****            obj->styles[i].selector == selector)
 350              		.loc 1 485 23 view .LVU86
 351 001c 03EBC203 		add	r3, r3, r2, lsl #3
 485:lvgl/lvgl/src/core/lv_obj_style.c ****            obj->styles[i].selector == selector)
 352              		.loc 1 485 12 view .LVU87
 353 0020 D979     		ldrb	r1, [r3, #7]	@ zero_extendqisi2
 485:lvgl/lvgl/src/core/lv_obj_style.c ****            obj->styles[i].selector == selector)
 354              		.loc 1 485 11 view .LVU88
 355 0022 11F0010F 		tst	r1, #1
 356 0026 F2D0     		beq	.L24
 486:lvgl/lvgl/src/core/lv_obj_style.c ****         {
 357              		.loc 1 486 26 discriminator 1 view .LVU89
 358 0028 5968     		ldr	r1, [r3, #4]
 359 002a C1F31701 		ubfx	r1, r1, #0, #24
 485:lvgl/lvgl/src/core/lv_obj_style.c ****            obj->styles[i].selector == selector)
 360              		.loc 1 485 36 discriminator 1 view .LVU90
 361 002e A942     		cmp	r1, r5
 362 0030 EDD1     		bne	.L24
 488:lvgl/lvgl/src/core/lv_obj_style.c ****         }
 363              		.loc 1 488 13 is_stmt 1 view .LVU91
 488:lvgl/lvgl/src/core/lv_obj_style.c ****         }
 364              		.loc 1 488 34 is_stmt 0 view .LVU92
 365 0032 1868     		ldr	r0, [r3]
 366              	.LVL34:
 488:lvgl/lvgl/src/core/lv_obj_style.c ****         }
 367              		.loc 1 488 34 view .LVU93
 368 0034 53E0     		b	.L22
 369              	.LVL35:
ARM GAS  C:\Users\gx\AppData\Local\Temp\cc2sgWsf.s 			page 21


 370              	.L33:
 492:lvgl/lvgl/src/core/lv_obj_style.c ****     obj->styles = lv_mem_realloc(obj->styles, obj->style_cnt * sizeof(_lv_obj_style_t));
 371              		.loc 1 492 5 is_stmt 1 view .LVU94
 492:lvgl/lvgl/src/core/lv_obj_style.c ****     obj->styles = lv_mem_realloc(obj->styles, obj->style_cnt * sizeof(_lv_obj_style_t));
 372              		.loc 1 492 19 is_stmt 0 view .LVU95
 373 0036 0133     		adds	r3, r3, #1
 374 0038 03F03F01 		and	r1, r3, #63
 375 003c 638C     		ldrh	r3, [r4, #34]
 376 003e 61F3C803 		bfi	r3, r1, #3, #6
 377 0042 6384     		strh	r3, [r4, #34]	@ movhi
 493:lvgl/lvgl/src/core/lv_obj_style.c ****     LV_ASSERT_MALLOC(obj->styles);
 378              		.loc 1 493 5 is_stmt 1 view .LVU96
 493:lvgl/lvgl/src/core/lv_obj_style.c ****     LV_ASSERT_MALLOC(obj->styles);
 379              		.loc 1 493 19 is_stmt 0 view .LVU97
 380 0044 C900     		lsls	r1, r1, #3
 381 0046 E068     		ldr	r0, [r4, #12]
 382              	.LVL36:
 493:lvgl/lvgl/src/core/lv_obj_style.c ****     LV_ASSERT_MALLOC(obj->styles);
 383              		.loc 1 493 19 view .LVU98
 384 0048 FFF7FEFF 		bl	lv_mem_realloc
 385              	.LVL37:
 493:lvgl/lvgl/src/core/lv_obj_style.c ****     LV_ASSERT_MALLOC(obj->styles);
 386              		.loc 1 493 17 view .LVU99
 387 004c E060     		str	r0, [r4, #12]
 494:lvgl/lvgl/src/core/lv_obj_style.c **** 
 388              		.loc 1 494 5 is_stmt 1 view .LVU100
 494:lvgl/lvgl/src/core/lv_obj_style.c **** 
 389              		.loc 1 494 5 view .LVU101
 390 004e B0B1     		cbz	r0, .L34
 494:lvgl/lvgl/src/core/lv_obj_style.c **** 
 391              		.loc 1 494 5 discriminator 2 view .LVU102
 494:lvgl/lvgl/src/core/lv_obj_style.c **** 
 392              		.loc 1 494 34 discriminator 2 view .LVU103
 496:lvgl/lvgl/src/core/lv_obj_style.c ****         /*Copy only normal styles (not local and transition).
 393              		.loc 1 496 5 discriminator 2 view .LVU104
 496:lvgl/lvgl/src/core/lv_obj_style.c ****         /*Copy only normal styles (not local and transition).
 394              		.loc 1 496 16 is_stmt 0 discriminator 2 view .LVU105
 395 0050 668C     		ldrh	r6, [r4, #34]
 396 0052 C6F3C506 		ubfx	r6, r6, #3, #6
 496:lvgl/lvgl/src/core/lv_obj_style.c ****         /*Copy only normal styles (not local and transition).
 397              		.loc 1 496 28 discriminator 2 view .LVU106
 398 0056 013E     		subs	r6, r6, #1
 399              	.LVL38:
 400              	.L29:
 496:lvgl/lvgl/src/core/lv_obj_style.c ****         /*Copy only normal styles (not local and transition).
 401              		.loc 1 496 33 is_stmt 1 discriminator 1 view .LVU107
 496:lvgl/lvgl/src/core/lv_obj_style.c ****         /*Copy only normal styles (not local and transition).
 402              		.loc 1 496 5 is_stmt 0 discriminator 1 view .LVU108
 403 0058 FEB1     		cbz	r6, .L30
 499:lvgl/lvgl/src/core/lv_obj_style.c ****         obj->styles[i] = obj->styles[i - 1];
 404              		.loc 1 499 9 is_stmt 1 view .LVU109
 499:lvgl/lvgl/src/core/lv_obj_style.c ****         obj->styles[i] = obj->styles[i - 1];
 405              		.loc 1 499 15 is_stmt 0 view .LVU110
 406 005a E268     		ldr	r2, [r4, #12]
 499:lvgl/lvgl/src/core/lv_obj_style.c ****         obj->styles[i] = obj->styles[i - 1];
 407              		.loc 1 499 23 view .LVU111
 408 005c 06F10053 		add	r3, r6, #536870912
ARM GAS  C:\Users\gx\AppData\Local\Temp\cc2sgWsf.s 			page 22


 409 0060 013B     		subs	r3, r3, #1
 410 0062 02EBC303 		add	r3, r2, r3, lsl #3
 499:lvgl/lvgl/src/core/lv_obj_style.c ****         obj->styles[i] = obj->styles[i - 1];
 411              		.loc 1 499 40 view .LVU112
 412 0066 D979     		ldrb	r1, [r3, #7]	@ zero_extendqisi2
 499:lvgl/lvgl/src/core/lv_obj_style.c ****         obj->styles[i] = obj->styles[i - 1];
 413              		.loc 1 499 11 view .LVU113
 414 0068 11F0030F 		tst	r1, #3
 415 006c 15D1     		bne	.L30
 500:lvgl/lvgl/src/core/lv_obj_style.c ****     }
 416              		.loc 1 500 9 is_stmt 1 discriminator 2 view .LVU114
 500:lvgl/lvgl/src/core/lv_obj_style.c ****     }
 417              		.loc 1 500 20 is_stmt 0 discriminator 2 view .LVU115
 418 006e 02EBC602 		add	r2, r2, r6, lsl #3
 500:lvgl/lvgl/src/core/lv_obj_style.c ****     }
 419              		.loc 1 500 24 discriminator 2 view .LVU116
 420 0072 93E80300 		ldm	r3, {r0, r1}
 421 0076 82E80300 		stm	r2, {r0, r1}
 496:lvgl/lvgl/src/core/lv_obj_style.c ****         /*Copy only normal styles (not local and transition).
 422              		.loc 1 496 41 is_stmt 1 discriminator 2 view .LVU117
 496:lvgl/lvgl/src/core/lv_obj_style.c ****         /*Copy only normal styles (not local and transition).
 423              		.loc 1 496 42 is_stmt 0 discriminator 2 view .LVU118
 424 007a 013E     		subs	r6, r6, #1
 425              	.LVL39:
 496:lvgl/lvgl/src/core/lv_obj_style.c ****         /*Copy only normal styles (not local and transition).
 426              		.loc 1 496 42 discriminator 2 view .LVU119
 427 007c ECE7     		b	.L29
 428              	.LVL40:
 429              	.L34:
 494:lvgl/lvgl/src/core/lv_obj_style.c **** 
 430              		.loc 1 494 5 is_stmt 1 discriminator 1 view .LVU120
 431 007e 194B     		ldr	r3, .L35
 432 0080 0293     		str	r3, [sp, #8]
 433 0082 194B     		ldr	r3, .L35+4
 434 0084 0193     		str	r3, [sp, #4]
 435 0086 194B     		ldr	r3, .L35+8
 436 0088 0093     		str	r3, [sp]
 437 008a 194B     		ldr	r3, .L35+12
 438 008c 4FF4F772 		mov	r2, #494
 439 0090 1849     		ldr	r1, .L35+16
 440 0092 0320     		movs	r0, #3
 441 0094 FFF7FEFF 		bl	_lv_log_add
 442              	.LVL41:
 443              	.L28:
 494:lvgl/lvgl/src/core/lv_obj_style.c **** 
 444              		.loc 1 494 5 discriminator 1 view .LVU121
 494:lvgl/lvgl/src/core/lv_obj_style.c **** 
 445              		.loc 1 494 5 discriminator 1 view .LVU122
 494:lvgl/lvgl/src/core/lv_obj_style.c **** 
 446              		.loc 1 494 5 discriminator 1 view .LVU123
 494:lvgl/lvgl/src/core/lv_obj_style.c **** 
 447              		.loc 1 494 5 discriminator 1 view .LVU124
 448 0098 FEE7     		b	.L28
 449              	.LVL42:
 450              	.L30:
 503:lvgl/lvgl/src/core/lv_obj_style.c ****     obj->styles[i].style = lv_mem_alloc(sizeof(lv_style_t));
 451              		.loc 1 503 5 view .LVU125
ARM GAS  C:\Users\gx\AppData\Local\Temp\cc2sgWsf.s 			page 23


 503:lvgl/lvgl/src/core/lv_obj_style.c ****     obj->styles[i].style = lv_mem_alloc(sizeof(lv_style_t));
 452              		.loc 1 503 22 is_stmt 0 view .LVU126
 453 009a E068     		ldr	r0, [r4, #12]
 503:lvgl/lvgl/src/core/lv_obj_style.c ****     obj->styles[i].style = lv_mem_alloc(sizeof(lv_style_t));
 454              		.loc 1 503 30 view .LVU127
 455 009c F700     		lsls	r7, r6, #3
 503:lvgl/lvgl/src/core/lv_obj_style.c ****     obj->styles[i].style = lv_mem_alloc(sizeof(lv_style_t));
 456              		.loc 1 503 5 view .LVU128
 457 009e 0821     		movs	r1, #8
 458 00a0 00EBC600 		add	r0, r0, r6, lsl #3
 459 00a4 FFF7FEFF 		bl	lv_memset_00
 460              	.LVL43:
 504:lvgl/lvgl/src/core/lv_obj_style.c ****     lv_style_init(obj->styles[i].style);
 461              		.loc 1 504 5 is_stmt 1 view .LVU129
 504:lvgl/lvgl/src/core/lv_obj_style.c ****     lv_style_init(obj->styles[i].style);
 462              		.loc 1 504 8 is_stmt 0 view .LVU130
 463 00a8 D4F80C80 		ldr	r8, [r4, #12]
 504:lvgl/lvgl/src/core/lv_obj_style.c ****     lv_style_init(obj->styles[i].style);
 464              		.loc 1 504 28 view .LVU131
 465 00ac 0820     		movs	r0, #8
 466 00ae FFF7FEFF 		bl	lv_mem_alloc
 467              	.LVL44:
 504:lvgl/lvgl/src/core/lv_obj_style.c ****     lv_style_init(obj->styles[i].style);
 468              		.loc 1 504 26 view .LVU132
 469 00b2 48F83600 		str	r0, [r8, r6, lsl #3]
 505:lvgl/lvgl/src/core/lv_obj_style.c ****     obj->styles[i].is_local = 1;
 470              		.loc 1 505 5 is_stmt 1 view .LVU133
 505:lvgl/lvgl/src/core/lv_obj_style.c ****     obj->styles[i].is_local = 1;
 471              		.loc 1 505 22 is_stmt 0 view .LVU134
 472 00b6 E368     		ldr	r3, [r4, #12]
 505:lvgl/lvgl/src/core/lv_obj_style.c ****     obj->styles[i].is_local = 1;
 473              		.loc 1 505 5 view .LVU135
 474 00b8 53F83600 		ldr	r0, [r3, r6, lsl #3]
 475 00bc FFF7FEFF 		bl	lv_style_init
 476              	.LVL45:
 506:lvgl/lvgl/src/core/lv_obj_style.c ****     obj->styles[i].selector = selector;
 477              		.loc 1 506 5 is_stmt 1 view .LVU136
 506:lvgl/lvgl/src/core/lv_obj_style.c ****     obj->styles[i].selector = selector;
 478              		.loc 1 506 8 is_stmt 0 view .LVU137
 479 00c0 E368     		ldr	r3, [r4, #12]
 506:lvgl/lvgl/src/core/lv_obj_style.c ****     obj->styles[i].selector = selector;
 480              		.loc 1 506 16 view .LVU138
 481 00c2 3B44     		add	r3, r3, r7
 506:lvgl/lvgl/src/core/lv_obj_style.c ****     obj->styles[i].selector = selector;
 482              		.loc 1 506 29 view .LVU139
 483 00c4 DA79     		ldrb	r2, [r3, #7]	@ zero_extendqisi2
 484 00c6 42F00102 		orr	r2, r2, #1
 485 00ca DA71     		strb	r2, [r3, #7]
 507:lvgl/lvgl/src/core/lv_obj_style.c ****     return obj->styles[i].style;
 486              		.loc 1 507 5 is_stmt 1 view .LVU140
 507:lvgl/lvgl/src/core/lv_obj_style.c ****     return obj->styles[i].style;
 487              		.loc 1 507 8 is_stmt 0 view .LVU141
 488 00cc E368     		ldr	r3, [r4, #12]
 507:lvgl/lvgl/src/core/lv_obj_style.c ****     return obj->styles[i].style;
 489              		.loc 1 507 16 view .LVU142
 490 00ce 3B44     		add	r3, r3, r7
 507:lvgl/lvgl/src/core/lv_obj_style.c ****     return obj->styles[i].style;
ARM GAS  C:\Users\gx\AppData\Local\Temp\cc2sgWsf.s 			page 24


 491              		.loc 1 507 29 view .LVU143
 492 00d0 5A68     		ldr	r2, [r3, #4]
 493 00d2 65F31702 		bfi	r2, r5, #0, #24
 494              	.LVL46:
 507:lvgl/lvgl/src/core/lv_obj_style.c ****     return obj->styles[i].style;
 495              		.loc 1 507 29 view .LVU144
 496 00d6 5A60     		str	r2, [r3, #4]
 508:lvgl/lvgl/src/core/lv_obj_style.c **** }
 497              		.loc 1 508 5 is_stmt 1 view .LVU145
 508:lvgl/lvgl/src/core/lv_obj_style.c **** }
 498              		.loc 1 508 15 is_stmt 0 view .LVU146
 499 00d8 E368     		ldr	r3, [r4, #12]
 508:lvgl/lvgl/src/core/lv_obj_style.c **** }
 500              		.loc 1 508 26 view .LVU147
 501 00da 53F83600 		ldr	r0, [r3, r6, lsl #3]
 502              	.LVL47:
 503              	.L22:
 509:lvgl/lvgl/src/core/lv_obj_style.c **** 
 504              		.loc 1 509 1 view .LVU148
 505 00de 04B0     		add	sp, sp, #16
 506              	.LCFI4:
 507              		.cfi_def_cfa_offset 24
 508              		@ sp needed
 509 00e0 BDE8F081 		pop	{r4, r5, r6, r7, r8, pc}
 510              	.LVL48:
 511              	.L36:
 509:lvgl/lvgl/src/core/lv_obj_style.c **** 
 512              		.loc 1 509 1 view .LVU149
 513              		.align	2
 514              	.L35:
 515 00e4 24000000 		.word	.LC1
 516 00e8 34000000 		.word	.LC2
 517 00ec 48000000 		.word	.LC3
 518 00f0 00000000 		.word	.LANCHOR0
 519 00f4 00000000 		.word	.LC0
 520              		.cfi_endproc
 521              	.LFE175:
 523              		.section	.text.get_trans_style,"ax",%progbits
 524              		.align	1
 525              		.syntax unified
 526              		.thumb
 527              		.thumb_func
 528              		.fpu fpv4-sp-d16
 530              	get_trans_style:
 531              	.LVL49:
 532              	.LFB176:
 520:lvgl/lvgl/src/core/lv_obj_style.c ****     uint32_t i;
 533              		.loc 1 520 1 is_stmt 1 view -0
 534              		.cfi_startproc
 535              		@ args = 0, pretend = 0, frame = 0
 536              		@ frame_needed = 0, uses_anonymous_args = 0
 520:lvgl/lvgl/src/core/lv_obj_style.c ****     uint32_t i;
 537              		.loc 1 520 1 is_stmt 0 view .LVU151
 538 0000 70B5     		push	{r4, r5, r6, lr}
 539              	.LCFI5:
 540              		.cfi_def_cfa_offset 16
 541              		.cfi_offset 4, -16
ARM GAS  C:\Users\gx\AppData\Local\Temp\cc2sgWsf.s 			page 25


 542              		.cfi_offset 5, -12
 543              		.cfi_offset 6, -8
 544              		.cfi_offset 14, -4
 545 0002 0446     		mov	r4, r0
 546 0004 0D46     		mov	r5, r1
 521:lvgl/lvgl/src/core/lv_obj_style.c ****     for(i = 0; i < obj->style_cnt; i++) {
 547              		.loc 1 521 5 is_stmt 1 view .LVU152
 522:lvgl/lvgl/src/core/lv_obj_style.c ****         if(obj->styles[i].is_trans && obj->styles[i].selector == selector) break;
 548              		.loc 1 522 5 view .LVU153
 549              	.LVL50:
 522:lvgl/lvgl/src/core/lv_obj_style.c ****         if(obj->styles[i].is_trans && obj->styles[i].selector == selector) break;
 550              		.loc 1 522 11 is_stmt 0 view .LVU154
 551 0006 0020     		movs	r0, #0
 552              	.LVL51:
 522:lvgl/lvgl/src/core/lv_obj_style.c ****         if(obj->styles[i].is_trans && obj->styles[i].selector == selector) break;
 553              		.loc 1 522 5 view .LVU155
 554 0008 00E0     		b	.L38
 555              	.LVL52:
 556              	.L39:
 522:lvgl/lvgl/src/core/lv_obj_style.c ****         if(obj->styles[i].is_trans && obj->styles[i].selector == selector) break;
 557              		.loc 1 522 36 is_stmt 1 discriminator 2 view .LVU156
 522:lvgl/lvgl/src/core/lv_obj_style.c ****         if(obj->styles[i].is_trans && obj->styles[i].selector == selector) break;
 558              		.loc 1 522 37 is_stmt 0 discriminator 2 view .LVU157
 559 000a 0130     		adds	r0, r0, #1
 560              	.LVL53:
 561              	.L38:
 522:lvgl/lvgl/src/core/lv_obj_style.c ****         if(obj->styles[i].is_trans && obj->styles[i].selector == selector) break;
 562              		.loc 1 522 16 is_stmt 1 discriminator 1 view .LVU158
 522:lvgl/lvgl/src/core/lv_obj_style.c ****         if(obj->styles[i].is_trans && obj->styles[i].selector == selector) break;
 563              		.loc 1 522 23 is_stmt 0 discriminator 1 view .LVU159
 564 000c 638C     		ldrh	r3, [r4, #34]
 565 000e C3F3C503 		ubfx	r3, r3, #3, #6
 566 0012 1E46     		mov	r6, r3
 522:lvgl/lvgl/src/core/lv_obj_style.c ****         if(obj->styles[i].is_trans && obj->styles[i].selector == selector) break;
 567              		.loc 1 522 5 discriminator 1 view .LVU160
 568 0014 8342     		cmp	r3, r0
 569 0016 0BD9     		bls	.L40
 523:lvgl/lvgl/src/core/lv_obj_style.c ****     }
 570              		.loc 1 523 9 is_stmt 1 view .LVU161
 523:lvgl/lvgl/src/core/lv_obj_style.c ****     }
 571              		.loc 1 523 15 is_stmt 0 view .LVU162
 572 0018 E268     		ldr	r2, [r4, #12]
 523:lvgl/lvgl/src/core/lv_obj_style.c ****     }
 573              		.loc 1 523 23 view .LVU163
 574 001a 02EBC002 		add	r2, r2, r0, lsl #3
 523:lvgl/lvgl/src/core/lv_obj_style.c ****     }
 575              		.loc 1 523 12 view .LVU164
 576 001e D179     		ldrb	r1, [r2, #7]	@ zero_extendqisi2
 523:lvgl/lvgl/src/core/lv_obj_style.c ****     }
 577              		.loc 1 523 11 view .LVU165
 578 0020 11F0020F 		tst	r1, #2
 579 0024 F1D0     		beq	.L39
 523:lvgl/lvgl/src/core/lv_obj_style.c ****     }
 580              		.loc 1 523 53 discriminator 1 view .LVU166
 581 0026 5268     		ldr	r2, [r2, #4]
 582 0028 C2F31702 		ubfx	r2, r2, #0, #24
 523:lvgl/lvgl/src/core/lv_obj_style.c ****     }
ARM GAS  C:\Users\gx\AppData\Local\Temp\cc2sgWsf.s 			page 26


 583              		.loc 1 523 36 discriminator 1 view .LVU167
 584 002c AA42     		cmp	r2, r5
 585 002e ECD1     		bne	.L39
 586              	.L40:
 527:lvgl/lvgl/src/core/lv_obj_style.c **** 
 587              		.loc 1 527 5 is_stmt 1 view .LVU168
 527:lvgl/lvgl/src/core/lv_obj_style.c **** 
 588              		.loc 1 527 7 is_stmt 0 view .LVU169
 589 0030 8642     		cmp	r6, r0
 590 0032 03D0     		beq	.L42
 527:lvgl/lvgl/src/core/lv_obj_style.c **** 
 591              		.loc 1 527 29 is_stmt 1 discriminator 1 view .LVU170
 527:lvgl/lvgl/src/core/lv_obj_style.c **** 
 592              		.loc 1 527 40 is_stmt 0 discriminator 1 view .LVU171
 593 0034 E368     		ldr	r3, [r4, #12]
 527:lvgl/lvgl/src/core/lv_obj_style.c **** 
 594              		.loc 1 527 36 discriminator 1 view .LVU172
 595 0036 03EBC000 		add	r0, r3, r0, lsl #3
 596              	.LVL54:
 597              	.L37:
 542:lvgl/lvgl/src/core/lv_obj_style.c **** 
 598              		.loc 1 542 1 view .LVU173
 599 003a 70BD     		pop	{r4, r5, r6, pc}
 600              	.LVL55:
 601              	.L42:
 529:lvgl/lvgl/src/core/lv_obj_style.c ****     obj->styles = lv_mem_realloc(obj->styles, obj->style_cnt * sizeof(_lv_obj_style_t));
 602              		.loc 1 529 5 is_stmt 1 view .LVU174
 529:lvgl/lvgl/src/core/lv_obj_style.c ****     obj->styles = lv_mem_realloc(obj->styles, obj->style_cnt * sizeof(_lv_obj_style_t));
 603              		.loc 1 529 19 is_stmt 0 view .LVU175
 604 003c 0133     		adds	r3, r3, #1
 605 003e 03F03F03 		and	r3, r3, #63
 606 0042 628C     		ldrh	r2, [r4, #34]
 607 0044 63F3C802 		bfi	r2, r3, #3, #6
 608 0048 6284     		strh	r2, [r4, #34]	@ movhi
 530:lvgl/lvgl/src/core/lv_obj_style.c **** 
 609              		.loc 1 530 5 is_stmt 1 view .LVU176
 530:lvgl/lvgl/src/core/lv_obj_style.c **** 
 610              		.loc 1 530 19 is_stmt 0 view .LVU177
 611 004a D900     		lsls	r1, r3, #3
 612 004c E068     		ldr	r0, [r4, #12]
 613              	.LVL56:
 530:lvgl/lvgl/src/core/lv_obj_style.c **** 
 614              		.loc 1 530 19 view .LVU178
 615 004e FFF7FEFF 		bl	lv_mem_realloc
 616              	.LVL57:
 530:lvgl/lvgl/src/core/lv_obj_style.c **** 
 617              		.loc 1 530 17 view .LVU179
 618 0052 E060     		str	r0, [r4, #12]
 532:lvgl/lvgl/src/core/lv_obj_style.c ****         obj->styles[i] = obj->styles[i - 1];
 619              		.loc 1 532 5 is_stmt 1 view .LVU180
 532:lvgl/lvgl/src/core/lv_obj_style.c ****         obj->styles[i] = obj->styles[i - 1];
 620              		.loc 1 532 16 is_stmt 0 view .LVU181
 621 0054 668C     		ldrh	r6, [r4, #34]
 622 0056 C6F3C506 		ubfx	r6, r6, #3, #6
 532:lvgl/lvgl/src/core/lv_obj_style.c ****         obj->styles[i] = obj->styles[i - 1];
 623              		.loc 1 532 28 view .LVU182
 624 005a 013E     		subs	r6, r6, #1
ARM GAS  C:\Users\gx\AppData\Local\Temp\cc2sgWsf.s 			page 27


 625              	.LVL58:
 626              	.L44:
 532:lvgl/lvgl/src/core/lv_obj_style.c ****         obj->styles[i] = obj->styles[i - 1];
 627              		.loc 1 532 33 is_stmt 1 discriminator 1 view .LVU183
 532:lvgl/lvgl/src/core/lv_obj_style.c ****         obj->styles[i] = obj->styles[i - 1];
 628              		.loc 1 532 5 is_stmt 0 discriminator 1 view .LVU184
 629 005c 6EB1     		cbz	r6, .L47
 533:lvgl/lvgl/src/core/lv_obj_style.c ****     }
 630              		.loc 1 533 9 is_stmt 1 discriminator 3 view .LVU185
 533:lvgl/lvgl/src/core/lv_obj_style.c ****     }
 631              		.loc 1 533 29 is_stmt 0 discriminator 3 view .LVU186
 632 005e E268     		ldr	r2, [r4, #12]
 533:lvgl/lvgl/src/core/lv_obj_style.c ****     }
 633              		.loc 1 533 37 discriminator 3 view .LVU187
 634 0060 06F10053 		add	r3, r6, #536870912
 635 0064 013B     		subs	r3, r3, #1
 636 0066 02EBC303 		add	r3, r2, r3, lsl #3
 533:lvgl/lvgl/src/core/lv_obj_style.c ****     }
 637              		.loc 1 533 20 discriminator 3 view .LVU188
 638 006a 02EBC602 		add	r2, r2, r6, lsl #3
 533:lvgl/lvgl/src/core/lv_obj_style.c ****     }
 639              		.loc 1 533 24 discriminator 3 view .LVU189
 640 006e 93E80300 		ldm	r3, {r0, r1}
 641 0072 82E80300 		stm	r2, {r0, r1}
 532:lvgl/lvgl/src/core/lv_obj_style.c ****         obj->styles[i] = obj->styles[i - 1];
 642              		.loc 1 532 41 is_stmt 1 discriminator 3 view .LVU190
 532:lvgl/lvgl/src/core/lv_obj_style.c ****         obj->styles[i] = obj->styles[i - 1];
 643              		.loc 1 532 42 is_stmt 0 discriminator 3 view .LVU191
 644 0076 013E     		subs	r6, r6, #1
 645              	.LVL59:
 532:lvgl/lvgl/src/core/lv_obj_style.c ****         obj->styles[i] = obj->styles[i - 1];
 646              		.loc 1 532 42 discriminator 3 view .LVU192
 647 0078 F0E7     		b	.L44
 648              	.L47:
 536:lvgl/lvgl/src/core/lv_obj_style.c ****     obj->styles[0].style = lv_mem_alloc(sizeof(lv_style_t));
 649              		.loc 1 536 5 is_stmt 1 view .LVU193
 650 007a 0821     		movs	r1, #8
 651 007c E068     		ldr	r0, [r4, #12]
 652 007e FFF7FEFF 		bl	lv_memset_00
 653              	.LVL60:
 537:lvgl/lvgl/src/core/lv_obj_style.c ****     lv_style_init(obj->styles[0].style);
 654              		.loc 1 537 5 view .LVU194
 537:lvgl/lvgl/src/core/lv_obj_style.c ****     lv_style_init(obj->styles[0].style);
 655              		.loc 1 537 8 is_stmt 0 view .LVU195
 656 0082 E668     		ldr	r6, [r4, #12]
 657              	.LVL61:
 537:lvgl/lvgl/src/core/lv_obj_style.c ****     lv_style_init(obj->styles[0].style);
 658              		.loc 1 537 28 view .LVU196
 659 0084 0820     		movs	r0, #8
 660 0086 FFF7FEFF 		bl	lv_mem_alloc
 661              	.LVL62:
 537:lvgl/lvgl/src/core/lv_obj_style.c ****     lv_style_init(obj->styles[0].style);
 662              		.loc 1 537 26 view .LVU197
 663 008a 3060     		str	r0, [r6]
 538:lvgl/lvgl/src/core/lv_obj_style.c ****     obj->styles[0].is_trans = 1;
 664              		.loc 1 538 5 is_stmt 1 view .LVU198
 538:lvgl/lvgl/src/core/lv_obj_style.c ****     obj->styles[0].is_trans = 1;
ARM GAS  C:\Users\gx\AppData\Local\Temp\cc2sgWsf.s 			page 28


 665              		.loc 1 538 22 is_stmt 0 view .LVU199
 666 008c E368     		ldr	r3, [r4, #12]
 538:lvgl/lvgl/src/core/lv_obj_style.c ****     obj->styles[0].is_trans = 1;
 667              		.loc 1 538 5 view .LVU200
 668 008e 1868     		ldr	r0, [r3]
 669 0090 FFF7FEFF 		bl	lv_style_init
 670              	.LVL63:
 539:lvgl/lvgl/src/core/lv_obj_style.c ****     obj->styles[0].selector = selector;
 671              		.loc 1 539 5 is_stmt 1 view .LVU201
 539:lvgl/lvgl/src/core/lv_obj_style.c ****     obj->styles[0].selector = selector;
 672              		.loc 1 539 8 is_stmt 0 view .LVU202
 673 0094 E268     		ldr	r2, [r4, #12]
 539:lvgl/lvgl/src/core/lv_obj_style.c ****     obj->styles[0].selector = selector;
 674              		.loc 1 539 29 view .LVU203
 675 0096 D379     		ldrb	r3, [r2, #7]	@ zero_extendqisi2
 676 0098 43F00203 		orr	r3, r3, #2
 677 009c D371     		strb	r3, [r2, #7]
 540:lvgl/lvgl/src/core/lv_obj_style.c ****     return &obj->styles[0];
 678              		.loc 1 540 5 is_stmt 1 view .LVU204
 540:lvgl/lvgl/src/core/lv_obj_style.c ****     return &obj->styles[0];
 679              		.loc 1 540 8 is_stmt 0 view .LVU205
 680 009e E368     		ldr	r3, [r4, #12]
 540:lvgl/lvgl/src/core/lv_obj_style.c ****     return &obj->styles[0];
 681              		.loc 1 540 29 view .LVU206
 682 00a0 5A68     		ldr	r2, [r3, #4]
 683 00a2 65F31702 		bfi	r2, r5, #0, #24
 684              	.LVL64:
 540:lvgl/lvgl/src/core/lv_obj_style.c ****     return &obj->styles[0];
 685              		.loc 1 540 29 view .LVU207
 686 00a6 5A60     		str	r2, [r3, #4]
 541:lvgl/lvgl/src/core/lv_obj_style.c **** }
 687              		.loc 1 541 5 is_stmt 1 view .LVU208
 541:lvgl/lvgl/src/core/lv_obj_style.c **** }
 688              		.loc 1 541 12 is_stmt 0 view .LVU209
 689 00a8 E068     		ldr	r0, [r4, #12]
 690 00aa C6E7     		b	.L37
 691              		.cfi_endproc
 692              	.LFE176:
 694              		.section	.text.fade_anim_cb,"ax",%progbits
 695              		.align	1
 696              		.syntax unified
 697              		.thumb
 698              		.thumb_func
 699              		.fpu fpv4-sp-d16
 701              	fade_anim_cb:
 702              	.LVL65:
 703              	.LFB185:
 698:lvgl/lvgl/src/core/lv_obj_style.c **** 
 699:lvgl/lvgl/src/core/lv_obj_style.c **** static void trans_anim_cb(void * _tr, int32_t v)
 700:lvgl/lvgl/src/core/lv_obj_style.c **** {
 701:lvgl/lvgl/src/core/lv_obj_style.c ****     trans_t * tr = _tr;
 702:lvgl/lvgl/src/core/lv_obj_style.c ****     lv_obj_t * obj = tr->obj;
 703:lvgl/lvgl/src/core/lv_obj_style.c **** 
 704:lvgl/lvgl/src/core/lv_obj_style.c ****     uint32_t i;
 705:lvgl/lvgl/src/core/lv_obj_style.c ****     for(i = 0; i < obj->style_cnt; i++) {
 706:lvgl/lvgl/src/core/lv_obj_style.c ****         if(obj->styles[i].is_trans == 0 || obj->styles[i].selector != tr->selector) continue;
 707:lvgl/lvgl/src/core/lv_obj_style.c **** 
ARM GAS  C:\Users\gx\AppData\Local\Temp\cc2sgWsf.s 			page 29


 708:lvgl/lvgl/src/core/lv_obj_style.c ****         lv_style_value_t value_final;
 709:lvgl/lvgl/src/core/lv_obj_style.c ****         switch (tr->prop) {
 710:lvgl/lvgl/src/core/lv_obj_style.c **** 
 711:lvgl/lvgl/src/core/lv_obj_style.c ****             case LV_STYLE_BORDER_SIDE:
 712:lvgl/lvgl/src/core/lv_obj_style.c ****             case LV_STYLE_BORDER_POST:
 713:lvgl/lvgl/src/core/lv_obj_style.c ****             case LV_STYLE_BLEND_MODE:
 714:lvgl/lvgl/src/core/lv_obj_style.c ****                 if(v < 255) value_final.num = tr->start_value.num;
 715:lvgl/lvgl/src/core/lv_obj_style.c ****                 else value_final.num = tr->end_value.num;
 716:lvgl/lvgl/src/core/lv_obj_style.c ****                 break;
 717:lvgl/lvgl/src/core/lv_obj_style.c ****             case LV_STYLE_TRANSITION:
 718:lvgl/lvgl/src/core/lv_obj_style.c ****             case LV_STYLE_TEXT_FONT:
 719:lvgl/lvgl/src/core/lv_obj_style.c ****                 if(v < 255) value_final.ptr = tr->start_value.ptr;
 720:lvgl/lvgl/src/core/lv_obj_style.c ****                 else value_final.ptr = tr->end_value.ptr;
 721:lvgl/lvgl/src/core/lv_obj_style.c ****                 break;
 722:lvgl/lvgl/src/core/lv_obj_style.c ****             case LV_STYLE_COLOR_FILTER_DSC:
 723:lvgl/lvgl/src/core/lv_obj_style.c ****                 if(tr->start_value.ptr == NULL) value_final.ptr = tr->end_value.ptr;
 724:lvgl/lvgl/src/core/lv_obj_style.c ****                 else if(tr->end_value.ptr == NULL) value_final.ptr = tr->start_value.ptr;
 725:lvgl/lvgl/src/core/lv_obj_style.c ****                 else if(v < 128) value_final.ptr = tr->start_value.ptr;
 726:lvgl/lvgl/src/core/lv_obj_style.c ****                 else value_final.ptr = tr->end_value.ptr;
 727:lvgl/lvgl/src/core/lv_obj_style.c ****                 break;
 728:lvgl/lvgl/src/core/lv_obj_style.c ****             case LV_STYLE_BG_COLOR:
 729:lvgl/lvgl/src/core/lv_obj_style.c ****             case LV_STYLE_BORDER_COLOR:
 730:lvgl/lvgl/src/core/lv_obj_style.c ****             case LV_STYLE_TEXT_COLOR:
 731:lvgl/lvgl/src/core/lv_obj_style.c ****             case LV_STYLE_SHADOW_COLOR:
 732:lvgl/lvgl/src/core/lv_obj_style.c ****             case LV_STYLE_OUTLINE_COLOR:
 733:lvgl/lvgl/src/core/lv_obj_style.c ****             case LV_STYLE_IMG_RECOLOR:
 734:lvgl/lvgl/src/core/lv_obj_style.c ****                 if(v <= 0) value_final.color = tr->start_value.color;
 735:lvgl/lvgl/src/core/lv_obj_style.c ****                 else if(v >= 255) value_final.color = tr->end_value.color;
 736:lvgl/lvgl/src/core/lv_obj_style.c ****                 else value_final.color = lv_color_mix(tr->end_value.color, tr->start_value.color, v
 737:lvgl/lvgl/src/core/lv_obj_style.c ****                 break;
 738:lvgl/lvgl/src/core/lv_obj_style.c **** 
 739:lvgl/lvgl/src/core/lv_obj_style.c ****             default:
 740:lvgl/lvgl/src/core/lv_obj_style.c ****                 if(v == 0) value_final.num = tr->start_value.num;
 741:lvgl/lvgl/src/core/lv_obj_style.c ****                 else if(v == 255) value_final.num = tr->end_value.num;
 742:lvgl/lvgl/src/core/lv_obj_style.c ****                 else value_final.num = tr->start_value.num + ((int32_t)((int32_t)(tr->end_value.num
 743:lvgl/lvgl/src/core/lv_obj_style.c ****                 break;
 744:lvgl/lvgl/src/core/lv_obj_style.c ****         }
 745:lvgl/lvgl/src/core/lv_obj_style.c **** 
 746:lvgl/lvgl/src/core/lv_obj_style.c ****         lv_style_value_t old_value;
 747:lvgl/lvgl/src/core/lv_obj_style.c ****         bool refr = true;
 748:lvgl/lvgl/src/core/lv_obj_style.c ****         if(lv_style_get_prop(obj->styles[i].style, tr->prop, &old_value)) {
 749:lvgl/lvgl/src/core/lv_obj_style.c ****             if(value_final.ptr == old_value.ptr && value_final.color.full == old_value.color.full &
 750:lvgl/lvgl/src/core/lv_obj_style.c ****                 refr = false;
 751:lvgl/lvgl/src/core/lv_obj_style.c ****             }
 752:lvgl/lvgl/src/core/lv_obj_style.c ****         }
 753:lvgl/lvgl/src/core/lv_obj_style.c ****         lv_style_set_prop(obj->styles[i].style, tr->prop, value_final);
 754:lvgl/lvgl/src/core/lv_obj_style.c ****         if (refr) lv_obj_refresh_style(tr->obj, tr->selector, tr->prop);
 755:lvgl/lvgl/src/core/lv_obj_style.c ****         break;
 756:lvgl/lvgl/src/core/lv_obj_style.c **** 
 757:lvgl/lvgl/src/core/lv_obj_style.c ****     }
 758:lvgl/lvgl/src/core/lv_obj_style.c **** 
 759:lvgl/lvgl/src/core/lv_obj_style.c **** }
 760:lvgl/lvgl/src/core/lv_obj_style.c **** 
 761:lvgl/lvgl/src/core/lv_obj_style.c **** static void trans_anim_start_cb(lv_anim_t * a)
 762:lvgl/lvgl/src/core/lv_obj_style.c **** {
 763:lvgl/lvgl/src/core/lv_obj_style.c ****     trans_t * tr = a->var;
 764:lvgl/lvgl/src/core/lv_obj_style.c **** 
ARM GAS  C:\Users\gx\AppData\Local\Temp\cc2sgWsf.s 			page 30


 765:lvgl/lvgl/src/core/lv_obj_style.c ****     lv_part_t part = lv_obj_style_get_selector_part(tr->selector);
 766:lvgl/lvgl/src/core/lv_obj_style.c ****     tr->start_value = lv_obj_get_style_prop(tr->obj, part, tr->prop);
 767:lvgl/lvgl/src/core/lv_obj_style.c **** 
 768:lvgl/lvgl/src/core/lv_obj_style.c ****     /*Init prop to an invalid values to be sure `trans_del` won't delete this added `tr`*/
 769:lvgl/lvgl/src/core/lv_obj_style.c ****     lv_style_prop_t prop_tmp = tr->prop;
 770:lvgl/lvgl/src/core/lv_obj_style.c ****     tr->prop = LV_STYLE_PROP_INV;
 771:lvgl/lvgl/src/core/lv_obj_style.c **** 
 772:lvgl/lvgl/src/core/lv_obj_style.c ****     /*Delete the related transitions if any*/
 773:lvgl/lvgl/src/core/lv_obj_style.c ****     trans_del(tr->obj, part, prop_tmp, tr);
 774:lvgl/lvgl/src/core/lv_obj_style.c **** 
 775:lvgl/lvgl/src/core/lv_obj_style.c ****     tr->prop = prop_tmp;
 776:lvgl/lvgl/src/core/lv_obj_style.c **** 
 777:lvgl/lvgl/src/core/lv_obj_style.c ****     _lv_obj_style_t * style_trans = get_trans_style(tr->obj, tr->selector);
 778:lvgl/lvgl/src/core/lv_obj_style.c ****     lv_style_set_prop(style_trans->style, tr->prop, tr->start_value);   /*Be sure `trans_style` has
 779:lvgl/lvgl/src/core/lv_obj_style.c **** 
 780:lvgl/lvgl/src/core/lv_obj_style.c **** }
 781:lvgl/lvgl/src/core/lv_obj_style.c **** 
 782:lvgl/lvgl/src/core/lv_obj_style.c **** static void trans_anim_ready_cb(lv_anim_t * a)
 783:lvgl/lvgl/src/core/lv_obj_style.c **** {
 784:lvgl/lvgl/src/core/lv_obj_style.c ****     trans_t * tr = a->var;
 785:lvgl/lvgl/src/core/lv_obj_style.c ****     lv_obj_t * obj = tr->obj;
 786:lvgl/lvgl/src/core/lv_obj_style.c ****     lv_style_prop_t prop = tr->prop;
 787:lvgl/lvgl/src/core/lv_obj_style.c **** 
 788:lvgl/lvgl/src/core/lv_obj_style.c ****     /*Remove the transitioned property from trans. style
 789:lvgl/lvgl/src/core/lv_obj_style.c ****      *if there no more transitions for this property
 790:lvgl/lvgl/src/core/lv_obj_style.c ****      *It allows changing it by normal styles*/
 791:lvgl/lvgl/src/core/lv_obj_style.c ****     bool running = false;
 792:lvgl/lvgl/src/core/lv_obj_style.c ****     trans_t * tr_i;
 793:lvgl/lvgl/src/core/lv_obj_style.c ****     _LV_LL_READ(&LV_GC_ROOT(_lv_obj_style_trans_ll), tr_i) {
 794:lvgl/lvgl/src/core/lv_obj_style.c ****         if(tr_i != tr && tr_i->obj == tr->obj && tr_i->selector == tr->selector && tr_i->prop == tr
 795:lvgl/lvgl/src/core/lv_obj_style.c ****             running = true;
 796:lvgl/lvgl/src/core/lv_obj_style.c ****             break;
 797:lvgl/lvgl/src/core/lv_obj_style.c ****         }
 798:lvgl/lvgl/src/core/lv_obj_style.c ****     }
 799:lvgl/lvgl/src/core/lv_obj_style.c **** 
 800:lvgl/lvgl/src/core/lv_obj_style.c ****     if(!running) {
 801:lvgl/lvgl/src/core/lv_obj_style.c ****         uint32_t i;
 802:lvgl/lvgl/src/core/lv_obj_style.c ****         for(i = 0; i < obj->style_cnt; i++) {
 803:lvgl/lvgl/src/core/lv_obj_style.c ****             if(obj->styles[i].is_trans && obj->styles[i].selector == tr->selector) {
 804:lvgl/lvgl/src/core/lv_obj_style.c ****                 _lv_ll_remove(&LV_GC_ROOT(_lv_obj_style_trans_ll), tr);
 805:lvgl/lvgl/src/core/lv_obj_style.c ****                 lv_mem_free(tr);
 806:lvgl/lvgl/src/core/lv_obj_style.c **** 
 807:lvgl/lvgl/src/core/lv_obj_style.c ****                 _lv_obj_style_t * obj_style = &obj->styles[i];
 808:lvgl/lvgl/src/core/lv_obj_style.c ****                 lv_style_remove_prop(obj_style->style, prop);
 809:lvgl/lvgl/src/core/lv_obj_style.c **** 
 810:lvgl/lvgl/src/core/lv_obj_style.c ****                 if(lv_style_is_empty(obj->styles[i].style)) {
 811:lvgl/lvgl/src/core/lv_obj_style.c ****                     lv_obj_remove_style(obj, obj_style->style, obj_style->selector);
 812:lvgl/lvgl/src/core/lv_obj_style.c **** 
 813:lvgl/lvgl/src/core/lv_obj_style.c ****                 }
 814:lvgl/lvgl/src/core/lv_obj_style.c ****                 break;
 815:lvgl/lvgl/src/core/lv_obj_style.c ****             }
 816:lvgl/lvgl/src/core/lv_obj_style.c ****         }
 817:lvgl/lvgl/src/core/lv_obj_style.c ****     }
 818:lvgl/lvgl/src/core/lv_obj_style.c **** }
 819:lvgl/lvgl/src/core/lv_obj_style.c **** 
 820:lvgl/lvgl/src/core/lv_obj_style.c **** static void fade_anim_cb(void * obj, int32_t v)
 821:lvgl/lvgl/src/core/lv_obj_style.c **** {
ARM GAS  C:\Users\gx\AppData\Local\Temp\cc2sgWsf.s 			page 31


 704              		.loc 1 821 1 is_stmt 1 view -0
 705              		.cfi_startproc
 706              		@ args = 0, pretend = 0, frame = 0
 707              		@ frame_needed = 0, uses_anonymous_args = 0
 708              		.loc 1 821 1 is_stmt 0 view .LVU211
 709 0000 08B5     		push	{r3, lr}
 710              	.LCFI6:
 711              		.cfi_def_cfa_offset 8
 712              		.cfi_offset 3, -8
 713              		.cfi_offset 14, -4
 822:lvgl/lvgl/src/core/lv_obj_style.c ****     lv_obj_set_style_opa(obj, v, 0);
 714              		.loc 1 822 5 is_stmt 1 view .LVU212
 715 0002 0022     		movs	r2, #0
 716 0004 C9B2     		uxtb	r1, r1
 717              	.LVL66:
 718              		.loc 1 822 5 is_stmt 0 view .LVU213
 719 0006 FFF7FEFF 		bl	lv_obj_set_style_opa
 720              	.LVL67:
 823:lvgl/lvgl/src/core/lv_obj_style.c **** }
 721              		.loc 1 823 1 view .LVU214
 722 000a 08BD     		pop	{r3, pc}
 723              		.cfi_endproc
 724              	.LFE185:
 726              		.section	.text._lv_obj_style_init,"ax",%progbits
 727              		.align	1
 728              		.global	_lv_obj_style_init
 729              		.syntax unified
 730              		.thumb
 731              		.thumb_func
 732              		.fpu fpv4-sp-d16
 734              	_lv_obj_style_init:
 735              	.LFB158:
  72:lvgl/lvgl/src/core/lv_obj_style.c ****     _lv_ll_init(&LV_GC_ROOT(_lv_obj_style_trans_ll), sizeof(trans_t));
 736              		.loc 1 72 1 is_stmt 1 view -0
 737              		.cfi_startproc
 738              		@ args = 0, pretend = 0, frame = 0
 739              		@ frame_needed = 0, uses_anonymous_args = 0
 740 0000 08B5     		push	{r3, lr}
 741              	.LCFI7:
 742              		.cfi_def_cfa_offset 8
 743              		.cfi_offset 3, -8
 744              		.cfi_offset 14, -4
  73:lvgl/lvgl/src/core/lv_obj_style.c **** }
 745              		.loc 1 73 5 view .LVU216
 746 0002 1421     		movs	r1, #20
 747 0004 0148     		ldr	r0, .L52
 748 0006 FFF7FEFF 		bl	_lv_ll_init
 749              	.LVL68:
  74:lvgl/lvgl/src/core/lv_obj_style.c **** 
 750              		.loc 1 74 1 is_stmt 0 view .LVU217
 751 000a 08BD     		pop	{r3, pc}
 752              	.L53:
 753              		.align	2
 754              	.L52:
 755 000c 00000000 		.word	_lv_obj_style_trans_ll
 756              		.cfi_endproc
 757              	.LFE158:
ARM GAS  C:\Users\gx\AppData\Local\Temp\cc2sgWsf.s 			page 32


 759              		.section	.text.lv_obj_enable_style_refresh,"ax",%progbits
 760              		.align	1
 761              		.global	lv_obj_enable_style_refresh
 762              		.syntax unified
 763              		.thumb
 764              		.thumb_func
 765              		.fpu fpv4-sp-d16
 767              	lv_obj_enable_style_refresh:
 768              	.LVL69:
 769              	.LFB163:
 208:lvgl/lvgl/src/core/lv_obj_style.c ****     style_refr = en;
 770              		.loc 1 208 1 is_stmt 1 view -0
 771              		.cfi_startproc
 772              		@ args = 0, pretend = 0, frame = 0
 773              		@ frame_needed = 0, uses_anonymous_args = 0
 774              		@ link register save eliminated.
 209:lvgl/lvgl/src/core/lv_obj_style.c **** }
 775              		.loc 1 209 5 view .LVU219
 209:lvgl/lvgl/src/core/lv_obj_style.c **** }
 776              		.loc 1 209 16 is_stmt 0 view .LVU220
 777 0000 014B     		ldr	r3, .L55
 778 0002 1870     		strb	r0, [r3]
 210:lvgl/lvgl/src/core/lv_obj_style.c **** 
 779              		.loc 1 210 1 view .LVU221
 780 0004 7047     		bx	lr
 781              	.L56:
 782 0006 00BF     		.align	2
 783              	.L55:
 784 0008 00000000 		.word	.LANCHOR1
 785              		.cfi_endproc
 786              	.LFE163:
 788              		.section	.text.lv_obj_get_local_style_prop,"ax",%progbits
 789              		.align	1
 790              		.global	lv_obj_get_local_style_prop
 791              		.syntax unified
 792              		.thumb
 793              		.thumb_func
 794              		.fpu fpv4-sp-d16
 796              	lv_obj_get_local_style_prop:
 797              	.LVL70:
 798              	.LFB166:
 266:lvgl/lvgl/src/core/lv_obj_style.c ****     uint32_t i;
 799              		.loc 1 266 1 is_stmt 1 view -0
 800              		.cfi_startproc
 801              		@ args = 0, pretend = 0, frame = 0
 802              		@ frame_needed = 0, uses_anonymous_args = 0
 266:lvgl/lvgl/src/core/lv_obj_style.c ****     uint32_t i;
 803              		.loc 1 266 1 is_stmt 0 view .LVU223
 804 0000 70B5     		push	{r4, r5, r6, lr}
 805              	.LCFI8:
 806              		.cfi_def_cfa_offset 16
 807              		.cfi_offset 4, -16
 808              		.cfi_offset 5, -12
 809              		.cfi_offset 6, -8
 810              		.cfi_offset 14, -4
 267:lvgl/lvgl/src/core/lv_obj_style.c ****     for(i = 0; i < obj->style_cnt; i++) {
 811              		.loc 1 267 5 is_stmt 1 view .LVU224
ARM GAS  C:\Users\gx\AppData\Local\Temp\cc2sgWsf.s 			page 33


 268:lvgl/lvgl/src/core/lv_obj_style.c ****         if(obj->styles[i].is_local &&
 812              		.loc 1 268 5 view .LVU225
 813              	.LVL71:
 268:lvgl/lvgl/src/core/lv_obj_style.c ****         if(obj->styles[i].is_local &&
 814              		.loc 1 268 11 is_stmt 0 view .LVU226
 815 0002 0025     		movs	r5, #0
 268:lvgl/lvgl/src/core/lv_obj_style.c ****         if(obj->styles[i].is_local &&
 816              		.loc 1 268 5 view .LVU227
 817 0004 00E0     		b	.L58
 818              	.LVL72:
 819              	.L59:
 268:lvgl/lvgl/src/core/lv_obj_style.c ****         if(obj->styles[i].is_local &&
 820              		.loc 1 268 36 is_stmt 1 discriminator 2 view .LVU228
 268:lvgl/lvgl/src/core/lv_obj_style.c ****         if(obj->styles[i].is_local &&
 821              		.loc 1 268 37 is_stmt 0 discriminator 2 view .LVU229
 822 0006 0135     		adds	r5, r5, #1
 823              	.LVL73:
 824              	.L58:
 268:lvgl/lvgl/src/core/lv_obj_style.c ****         if(obj->styles[i].is_local &&
 825              		.loc 1 268 16 is_stmt 1 discriminator 1 view .LVU230
 268:lvgl/lvgl/src/core/lv_obj_style.c ****         if(obj->styles[i].is_local &&
 826              		.loc 1 268 23 is_stmt 0 discriminator 1 view .LVU231
 827 0008 448C     		ldrh	r4, [r0, #34]
 828 000a C4F3C504 		ubfx	r4, r4, #3, #6
 268:lvgl/lvgl/src/core/lv_obj_style.c ****         if(obj->styles[i].is_local &&
 829              		.loc 1 268 5 discriminator 1 view .LVU232
 830 000e AC42     		cmp	r4, r5
 831 0010 0FD9     		bls	.L63
 269:lvgl/lvgl/src/core/lv_obj_style.c ****            obj->styles[i].selector ==  selector)
 832              		.loc 1 269 9 is_stmt 1 view .LVU233
 269:lvgl/lvgl/src/core/lv_obj_style.c ****            obj->styles[i].selector ==  selector)
 833              		.loc 1 269 15 is_stmt 0 view .LVU234
 834 0012 C468     		ldr	r4, [r0, #12]
 269:lvgl/lvgl/src/core/lv_obj_style.c ****            obj->styles[i].selector ==  selector)
 835              		.loc 1 269 23 view .LVU235
 836 0014 04EBC504 		add	r4, r4, r5, lsl #3
 269:lvgl/lvgl/src/core/lv_obj_style.c ****            obj->styles[i].selector ==  selector)
 837              		.loc 1 269 12 view .LVU236
 838 0018 E679     		ldrb	r6, [r4, #7]	@ zero_extendqisi2
 269:lvgl/lvgl/src/core/lv_obj_style.c ****            obj->styles[i].selector ==  selector)
 839              		.loc 1 269 11 view .LVU237
 840 001a 16F0010F 		tst	r6, #1
 841 001e F2D0     		beq	.L59
 270:lvgl/lvgl/src/core/lv_obj_style.c ****         {
 842              		.loc 1 270 26 discriminator 1 view .LVU238
 843 0020 6668     		ldr	r6, [r4, #4]
 844 0022 C6F31706 		ubfx	r6, r6, #0, #24
 269:lvgl/lvgl/src/core/lv_obj_style.c ****            obj->styles[i].selector ==  selector)
 845              		.loc 1 269 36 discriminator 1 view .LVU239
 846 0026 9E42     		cmp	r6, r3
 847 0028 EDD1     		bne	.L59
 272:lvgl/lvgl/src/core/lv_obj_style.c ****         }
 848              		.loc 1 272 13 is_stmt 1 view .LVU240
 272:lvgl/lvgl/src/core/lv_obj_style.c ****         }
 849              		.loc 1 272 20 is_stmt 0 view .LVU241
 850 002a 2068     		ldr	r0, [r4]
 851              	.LVL74:
ARM GAS  C:\Users\gx\AppData\Local\Temp\cc2sgWsf.s 			page 34


 272:lvgl/lvgl/src/core/lv_obj_style.c ****         }
 852              		.loc 1 272 20 view .LVU242
 853 002c FFF7FEFF 		bl	lv_style_get_prop
 854              	.LVL75:
 272:lvgl/lvgl/src/core/lv_obj_style.c ****         }
 855              		.loc 1 272 20 view .LVU243
 856 0030 00E0     		b	.L60
 857              	.LVL76:
 858              	.L63:
 276:lvgl/lvgl/src/core/lv_obj_style.c **** }
 859              		.loc 1 276 12 view .LVU244
 860 0032 0020     		movs	r0, #0
 861              	.LVL77:
 862              	.L60:
 277:lvgl/lvgl/src/core/lv_obj_style.c **** 
 863              		.loc 1 277 1 view .LVU245
 864 0034 70BD     		pop	{r4, r5, r6, pc}
 277:lvgl/lvgl/src/core/lv_obj_style.c **** 
 865              		.loc 1 277 1 view .LVU246
 866              		.cfi_endproc
 867              	.LFE166:
 869              		.section	.text.lv_obj_remove_local_style_prop,"ax",%progbits
 870              		.align	1
 871              		.global	lv_obj_remove_local_style_prop
 872              		.syntax unified
 873              		.thumb
 874              		.thumb_func
 875              		.fpu fpv4-sp-d16
 877              	lv_obj_remove_local_style_prop:
 878              	.LVL78:
 879              	.LFB167:
 280:lvgl/lvgl/src/core/lv_obj_style.c ****     LV_ASSERT_OBJ(obj, MY_CLASS);
 880              		.loc 1 280 1 is_stmt 1 view -0
 881              		.cfi_startproc
 882              		@ args = 0, pretend = 0, frame = 0
 883              		@ frame_needed = 0, uses_anonymous_args = 0
 280:lvgl/lvgl/src/core/lv_obj_style.c ****     LV_ASSERT_OBJ(obj, MY_CLASS);
 884              		.loc 1 280 1 is_stmt 0 view .LVU248
 885 0000 70B5     		push	{r4, r5, r6, lr}
 886              	.LCFI9:
 887              		.cfi_def_cfa_offset 16
 888              		.cfi_offset 4, -16
 889              		.cfi_offset 5, -12
 890              		.cfi_offset 6, -8
 891              		.cfi_offset 14, -4
 281:lvgl/lvgl/src/core/lv_obj_style.c **** 
 892              		.loc 1 281 5 is_stmt 1 view .LVU249
 281:lvgl/lvgl/src/core/lv_obj_style.c **** 
 893              		.loc 1 281 5 view .LVU250
 281:lvgl/lvgl/src/core/lv_obj_style.c **** 
 894              		.loc 1 281 5 view .LVU251
 283:lvgl/lvgl/src/core/lv_obj_style.c ****     /*Find the style*/
 895              		.loc 1 283 5 view .LVU252
 285:lvgl/lvgl/src/core/lv_obj_style.c ****         if(obj->styles[i].is_local &&
 896              		.loc 1 285 5 view .LVU253
 897              	.LVL79:
 285:lvgl/lvgl/src/core/lv_obj_style.c ****         if(obj->styles[i].is_local &&
ARM GAS  C:\Users\gx\AppData\Local\Temp\cc2sgWsf.s 			page 35


 898              		.loc 1 285 11 is_stmt 0 view .LVU254
 899 0002 0025     		movs	r5, #0
 285:lvgl/lvgl/src/core/lv_obj_style.c ****         if(obj->styles[i].is_local &&
 900              		.loc 1 285 5 view .LVU255
 901 0004 00E0     		b	.L65
 902              	.LVL80:
 903              	.L66:
 285:lvgl/lvgl/src/core/lv_obj_style.c ****         if(obj->styles[i].is_local &&
 904              		.loc 1 285 36 is_stmt 1 discriminator 2 view .LVU256
 285:lvgl/lvgl/src/core/lv_obj_style.c ****         if(obj->styles[i].is_local &&
 905              		.loc 1 285 37 is_stmt 0 discriminator 2 view .LVU257
 906 0006 0135     		adds	r5, r5, #1
 907              	.LVL81:
 908              	.L65:
 285:lvgl/lvgl/src/core/lv_obj_style.c ****         if(obj->styles[i].is_local &&
 909              		.loc 1 285 16 is_stmt 1 discriminator 1 view .LVU258
 285:lvgl/lvgl/src/core/lv_obj_style.c ****         if(obj->styles[i].is_local &&
 910              		.loc 1 285 23 is_stmt 0 discriminator 1 view .LVU259
 911 0008 448C     		ldrh	r4, [r0, #34]
 912 000a C4F3C504 		ubfx	r4, r4, #3, #6
 285:lvgl/lvgl/src/core/lv_obj_style.c ****         if(obj->styles[i].is_local &&
 913              		.loc 1 285 5 discriminator 1 view .LVU260
 914 000e AC42     		cmp	r4, r5
 915 0010 0BD9     		bls	.L67
 286:lvgl/lvgl/src/core/lv_obj_style.c ****            obj->styles[i].selector == selector) {
 916              		.loc 1 286 9 is_stmt 1 view .LVU261
 286:lvgl/lvgl/src/core/lv_obj_style.c ****            obj->styles[i].selector == selector) {
 917              		.loc 1 286 15 is_stmt 0 view .LVU262
 918 0012 C368     		ldr	r3, [r0, #12]
 286:lvgl/lvgl/src/core/lv_obj_style.c ****            obj->styles[i].selector == selector) {
 919              		.loc 1 286 23 view .LVU263
 920 0014 03EBC503 		add	r3, r3, r5, lsl #3
 286:lvgl/lvgl/src/core/lv_obj_style.c ****            obj->styles[i].selector == selector) {
 921              		.loc 1 286 12 view .LVU264
 922 0018 DE79     		ldrb	r6, [r3, #7]	@ zero_extendqisi2
 286:lvgl/lvgl/src/core/lv_obj_style.c ****            obj->styles[i].selector == selector) {
 923              		.loc 1 286 11 view .LVU265
 924 001a 16F0010F 		tst	r6, #1
 925 001e F2D0     		beq	.L66
 287:lvgl/lvgl/src/core/lv_obj_style.c ****             break;
 926              		.loc 1 287 26 discriminator 1 view .LVU266
 927 0020 5B68     		ldr	r3, [r3, #4]
 928 0022 C3F31703 		ubfx	r3, r3, #0, #24
 286:lvgl/lvgl/src/core/lv_obj_style.c ****            obj->styles[i].selector == selector) {
 929              		.loc 1 286 36 discriminator 1 view .LVU267
 930 0026 9342     		cmp	r3, r2
 931 0028 EDD1     		bne	.L66
 932              	.L67:
 293:lvgl/lvgl/src/core/lv_obj_style.c **** 
 933              		.loc 1 293 5 is_stmt 1 view .LVU268
 293:lvgl/lvgl/src/core/lv_obj_style.c **** 
 934              		.loc 1 293 7 is_stmt 0 view .LVU269
 935 002a AC42     		cmp	r4, r5
 936 002c 05D0     		beq	.L70
 295:lvgl/lvgl/src/core/lv_obj_style.c **** }
 937              		.loc 1 295 5 is_stmt 1 view .LVU270
 295:lvgl/lvgl/src/core/lv_obj_style.c **** }
ARM GAS  C:\Users\gx\AppData\Local\Temp\cc2sgWsf.s 			page 36


 938              		.loc 1 295 36 is_stmt 0 view .LVU271
 939 002e C368     		ldr	r3, [r0, #12]
 295:lvgl/lvgl/src/core/lv_obj_style.c **** }
 940              		.loc 1 295 12 view .LVU272
 941 0030 53F83500 		ldr	r0, [r3, r5, lsl #3]
 942              	.LVL82:
 295:lvgl/lvgl/src/core/lv_obj_style.c **** }
 943              		.loc 1 295 12 view .LVU273
 944 0034 FFF7FEFF 		bl	lv_style_remove_prop
 945              	.LVL83:
 946              	.L69:
 296:lvgl/lvgl/src/core/lv_obj_style.c **** 
 947              		.loc 1 296 1 view .LVU274
 948 0038 70BD     		pop	{r4, r5, r6, pc}
 949              	.LVL84:
 950              	.L70:
 293:lvgl/lvgl/src/core/lv_obj_style.c **** 
 951              		.loc 1 293 36 view .LVU275
 952 003a 0020     		movs	r0, #0
 953              	.LVL85:
 293:lvgl/lvgl/src/core/lv_obj_style.c **** 
 954              		.loc 1 293 36 view .LVU276
 955 003c FCE7     		b	.L69
 956              		.cfi_endproc
 957              	.LFE167:
 959              		.section	.text.fade_in_anim_ready,"ax",%progbits
 960              		.align	1
 961              		.syntax unified
 962              		.thumb
 963              		.thumb_func
 964              		.fpu fpv4-sp-d16
 966              	fade_in_anim_ready:
 967              	.LVL86:
 968              	.LFB186:
 824:lvgl/lvgl/src/core/lv_obj_style.c **** 
 825:lvgl/lvgl/src/core/lv_obj_style.c **** static void fade_in_anim_ready(lv_anim_t * a)
 826:lvgl/lvgl/src/core/lv_obj_style.c **** {
 969              		.loc 1 826 1 is_stmt 1 view -0
 970              		.cfi_startproc
 971              		@ args = 0, pretend = 0, frame = 0
 972              		@ frame_needed = 0, uses_anonymous_args = 0
 973              		.loc 1 826 1 is_stmt 0 view .LVU278
 974 0000 08B5     		push	{r3, lr}
 975              	.LCFI10:
 976              		.cfi_def_cfa_offset 8
 977              		.cfi_offset 3, -8
 978              		.cfi_offset 14, -4
 827:lvgl/lvgl/src/core/lv_obj_style.c ****     lv_obj_remove_local_style_prop(a->var, LV_STYLE_OPA, 0);
 979              		.loc 1 827 5 is_stmt 1 view .LVU279
 980 0002 0022     		movs	r2, #0
 981 0004 40F26241 		movw	r1, #1122
 982 0008 0068     		ldr	r0, [r0]
 983              	.LVL87:
 984              		.loc 1 827 5 is_stmt 0 view .LVU280
 985 000a FFF7FEFF 		bl	lv_obj_remove_local_style_prop
 986              	.LVL88:
 828:lvgl/lvgl/src/core/lv_obj_style.c **** }
ARM GAS  C:\Users\gx\AppData\Local\Temp\cc2sgWsf.s 			page 37


 987              		.loc 1 828 1 view .LVU281
 988 000e 08BD     		pop	{r3, pc}
 989              		.cfi_endproc
 990              	.LFE186:
 992              		.section	.text.lv_obj_fade_in,"ax",%progbits
 993              		.align	1
 994              		.global	lv_obj_fade_in
 995              		.syntax unified
 996              		.thumb
 997              		.thumb_func
 998              		.fpu fpv4-sp-d16
 1000              	lv_obj_fade_in:
 1001              	.LVL89:
 1002              	.LFB170:
 426:lvgl/lvgl/src/core/lv_obj_style.c ****     lv_anim_t a;
 1003              		.loc 1 426 1 is_stmt 1 view -0
 1004              		.cfi_startproc
 1005              		@ args = 0, pretend = 0, frame = 72
 1006              		@ frame_needed = 0, uses_anonymous_args = 0
 426:lvgl/lvgl/src/core/lv_obj_style.c ****     lv_anim_t a;
 1007              		.loc 1 426 1 is_stmt 0 view .LVU283
 1008 0000 70B5     		push	{r4, r5, r6, lr}
 1009              	.LCFI11:
 1010              		.cfi_def_cfa_offset 16
 1011              		.cfi_offset 4, -16
 1012              		.cfi_offset 5, -12
 1013              		.cfi_offset 6, -8
 1014              		.cfi_offset 14, -4
 1015 0002 92B0     		sub	sp, sp, #72
 1016              	.LCFI12:
 1017              		.cfi_def_cfa_offset 88
 1018 0004 0646     		mov	r6, r0
 1019 0006 0D46     		mov	r5, r1
 1020 0008 1446     		mov	r4, r2
 427:lvgl/lvgl/src/core/lv_obj_style.c ****     lv_anim_init(&a);
 1021              		.loc 1 427 5 is_stmt 1 view .LVU284
 428:lvgl/lvgl/src/core/lv_obj_style.c ****     lv_anim_set_var(&a, obj);
 1022              		.loc 1 428 5 view .LVU285
 1023 000a 01A8     		add	r0, sp, #4
 1024              	.LVL90:
 428:lvgl/lvgl/src/core/lv_obj_style.c ****     lv_anim_set_var(&a, obj);
 1025              		.loc 1 428 5 is_stmt 0 view .LVU286
 1026 000c FFF7FEFF 		bl	lv_anim_init
 1027              	.LVL91:
 429:lvgl/lvgl/src/core/lv_obj_style.c ****     lv_anim_set_values(&a, LV_OPA_TRANSP, LV_OPA_COVER);
 1028              		.loc 1 429 5 is_stmt 1 view .LVU287
 1029              	.LBB65:
 1030              	.LBI65:
 1031              		.file 2 "lvgl/lvgl/src/core/../misc/lv_anim.h"
   1:lvgl/lvgl/src/core/../misc/lv_anim.h **** /**
   2:lvgl/lvgl/src/core/../misc/lv_anim.h ****  * @file lv_anim.h
   3:lvgl/lvgl/src/core/../misc/lv_anim.h ****  *
   4:lvgl/lvgl/src/core/../misc/lv_anim.h ****  */
   5:lvgl/lvgl/src/core/../misc/lv_anim.h **** 
   6:lvgl/lvgl/src/core/../misc/lv_anim.h **** #ifndef LV_ANIM_H
   7:lvgl/lvgl/src/core/../misc/lv_anim.h **** #define LV_ANIM_H
   8:lvgl/lvgl/src/core/../misc/lv_anim.h **** 
ARM GAS  C:\Users\gx\AppData\Local\Temp\cc2sgWsf.s 			page 38


   9:lvgl/lvgl/src/core/../misc/lv_anim.h **** #ifdef __cplusplus
  10:lvgl/lvgl/src/core/../misc/lv_anim.h **** extern "C" {
  11:lvgl/lvgl/src/core/../misc/lv_anim.h **** #endif
  12:lvgl/lvgl/src/core/../misc/lv_anim.h **** 
  13:lvgl/lvgl/src/core/../misc/lv_anim.h **** /*********************
  14:lvgl/lvgl/src/core/../misc/lv_anim.h ****  *      INCLUDES
  15:lvgl/lvgl/src/core/../misc/lv_anim.h ****  *********************/
  16:lvgl/lvgl/src/core/../misc/lv_anim.h **** #include "../lv_conf_internal.h"
  17:lvgl/lvgl/src/core/../misc/lv_anim.h **** 
  18:lvgl/lvgl/src/core/../misc/lv_anim.h **** #include <stdint.h>
  19:lvgl/lvgl/src/core/../misc/lv_anim.h **** #include <stdbool.h>
  20:lvgl/lvgl/src/core/../misc/lv_anim.h **** #include <string.h>
  21:lvgl/lvgl/src/core/../misc/lv_anim.h **** 
  22:lvgl/lvgl/src/core/../misc/lv_anim.h **** /*********************
  23:lvgl/lvgl/src/core/../misc/lv_anim.h ****  *      DEFINES
  24:lvgl/lvgl/src/core/../misc/lv_anim.h ****  *********************/
  25:lvgl/lvgl/src/core/../misc/lv_anim.h **** 
  26:lvgl/lvgl/src/core/../misc/lv_anim.h **** /**********************
  27:lvgl/lvgl/src/core/../misc/lv_anim.h ****  *      TYPEDEFS
  28:lvgl/lvgl/src/core/../misc/lv_anim.h ****  **********************/
  29:lvgl/lvgl/src/core/../misc/lv_anim.h **** 
  30:lvgl/lvgl/src/core/../misc/lv_anim.h **** /** Can be used to indicate if animations are enabled or disabled in a case*/
  31:lvgl/lvgl/src/core/../misc/lv_anim.h **** typedef enum {
  32:lvgl/lvgl/src/core/../misc/lv_anim.h ****     LV_ANIM_OFF,
  33:lvgl/lvgl/src/core/../misc/lv_anim.h ****     LV_ANIM_ON,
  34:lvgl/lvgl/src/core/../misc/lv_anim.h **** }lv_anim_enable_t;
  35:lvgl/lvgl/src/core/../misc/lv_anim.h **** 
  36:lvgl/lvgl/src/core/../misc/lv_anim.h **** #define LV_ANIM_REPEAT_INFINITE      0xFFFF
  37:lvgl/lvgl/src/core/../misc/lv_anim.h **** LV_EXPORT_CONST_INT(LV_ANIM_REPEAT_INFINITE);
  38:lvgl/lvgl/src/core/../misc/lv_anim.h **** 
  39:lvgl/lvgl/src/core/../misc/lv_anim.h **** struct _lv_anim_t;
  40:lvgl/lvgl/src/core/../misc/lv_anim.h **** 
  41:lvgl/lvgl/src/core/../misc/lv_anim.h **** /** Get the current value during an animation*/
  42:lvgl/lvgl/src/core/../misc/lv_anim.h **** typedef int32_t (*lv_anim_path_cb_t)(const struct _lv_anim_t *);
  43:lvgl/lvgl/src/core/../misc/lv_anim.h **** 
  44:lvgl/lvgl/src/core/../misc/lv_anim.h **** /** Generic prototype of "animator" functions.
  45:lvgl/lvgl/src/core/../misc/lv_anim.h ****  * First parameter is the variable to animate.
  46:lvgl/lvgl/src/core/../misc/lv_anim.h ****  * Second parameter is the value to set.
  47:lvgl/lvgl/src/core/../misc/lv_anim.h ****  * Compatible with `lv_xxx_set_yyy(obj, value)` functions
  48:lvgl/lvgl/src/core/../misc/lv_anim.h ****  * The `x` in `_xcb_t` means its not a fully generic prototype because
  49:lvgl/lvgl/src/core/../misc/lv_anim.h ****  * it doesn't receive `lv_anim_t *` as its first argument*/
  50:lvgl/lvgl/src/core/../misc/lv_anim.h **** typedef void (*lv_anim_exec_xcb_t)(void *, int32_t);
  51:lvgl/lvgl/src/core/../misc/lv_anim.h **** 
  52:lvgl/lvgl/src/core/../misc/lv_anim.h **** /** Same as `lv_anim_exec_xcb_t` but receives `lv_anim_t *` as the first parameter.
  53:lvgl/lvgl/src/core/../misc/lv_anim.h ****  * It's more consistent but less convenient. Might be used by binding generator functions.*/
  54:lvgl/lvgl/src/core/../misc/lv_anim.h **** typedef void (*lv_anim_custom_exec_cb_t)(struct _lv_anim_t *, int32_t);
  55:lvgl/lvgl/src/core/../misc/lv_anim.h **** 
  56:lvgl/lvgl/src/core/../misc/lv_anim.h **** /** Callback to call when the animation is ready*/
  57:lvgl/lvgl/src/core/../misc/lv_anim.h **** typedef void (*lv_anim_ready_cb_t)(struct _lv_anim_t *);
  58:lvgl/lvgl/src/core/../misc/lv_anim.h **** 
  59:lvgl/lvgl/src/core/../misc/lv_anim.h **** /** Callback to call when the animation really stars (considering `delay`)*/
  60:lvgl/lvgl/src/core/../misc/lv_anim.h **** typedef void (*lv_anim_start_cb_t)(struct _lv_anim_t *);
  61:lvgl/lvgl/src/core/../misc/lv_anim.h **** 
  62:lvgl/lvgl/src/core/../misc/lv_anim.h **** /** Callback used when the animation values are relative to get the current value*/
  63:lvgl/lvgl/src/core/../misc/lv_anim.h **** typedef int32_t (*lv_anim_get_value_cb_t)(struct _lv_anim_t *);
  64:lvgl/lvgl/src/core/../misc/lv_anim.h **** 
  65:lvgl/lvgl/src/core/../misc/lv_anim.h **** /** Describes an animation*/
ARM GAS  C:\Users\gx\AppData\Local\Temp\cc2sgWsf.s 			page 39


  66:lvgl/lvgl/src/core/../misc/lv_anim.h **** typedef struct _lv_anim_t {
  67:lvgl/lvgl/src/core/../misc/lv_anim.h ****     void * var;                          /**<Variable to animate*/
  68:lvgl/lvgl/src/core/../misc/lv_anim.h ****     lv_anim_exec_xcb_t exec_cb;          /**< Function to execute to animate*/
  69:lvgl/lvgl/src/core/../misc/lv_anim.h ****     lv_anim_start_cb_t start_cb;         /**< Call it when the animation is starts (considering `de
  70:lvgl/lvgl/src/core/../misc/lv_anim.h ****     lv_anim_ready_cb_t ready_cb;         /**< Call it when the animation is ready*/
  71:lvgl/lvgl/src/core/../misc/lv_anim.h ****     lv_anim_get_value_cb_t get_value_cb; /**< Get the current value in relative mode*/
  72:lvgl/lvgl/src/core/../misc/lv_anim.h **** #if LV_USE_USER_DATA
  73:lvgl/lvgl/src/core/../misc/lv_anim.h ****     void * user_data; /**< Custom user data*/
  74:lvgl/lvgl/src/core/../misc/lv_anim.h **** #endif
  75:lvgl/lvgl/src/core/../misc/lv_anim.h ****     lv_anim_path_cb_t path_cb;         /**< Describe the path (curve) of animations*/
  76:lvgl/lvgl/src/core/../misc/lv_anim.h ****     int32_t start_value;               /**< Start value*/
  77:lvgl/lvgl/src/core/../misc/lv_anim.h ****     int32_t current_value;             /**< Current value*/
  78:lvgl/lvgl/src/core/../misc/lv_anim.h ****     int32_t end_value;                 /**< End value*/
  79:lvgl/lvgl/src/core/../misc/lv_anim.h ****     int32_t time;                /**< Animation time in ms*/
  80:lvgl/lvgl/src/core/../misc/lv_anim.h ****     int32_t act_time;            /**< Current time in animation. Set to negative to make delay.*/
  81:lvgl/lvgl/src/core/../misc/lv_anim.h ****     uint32_t playback_delay;     /**< Wait before play back*/
  82:lvgl/lvgl/src/core/../misc/lv_anim.h ****     uint32_t playback_time;      /**< Duration of playback animation*/
  83:lvgl/lvgl/src/core/../misc/lv_anim.h ****     uint32_t repeat_delay;       /**< Wait before repeat*/
  84:lvgl/lvgl/src/core/../misc/lv_anim.h ****     uint16_t repeat_cnt;         /**< Repeat count for the animation*/
  85:lvgl/lvgl/src/core/../misc/lv_anim.h ****     uint8_t early_apply  : 1;    /**< 1: Apply start value immediately even is there is `delay`*/
  86:lvgl/lvgl/src/core/../misc/lv_anim.h **** 
  87:lvgl/lvgl/src/core/../misc/lv_anim.h ****     /*Animation system use these - user shouldn't set*/
  88:lvgl/lvgl/src/core/../misc/lv_anim.h ****     uint8_t playback_now : 1; /**< Play back is in progress*/
  89:lvgl/lvgl/src/core/../misc/lv_anim.h ****     uint8_t run_round : 1;    /**< Indicates the animation has run in this round*/
  90:lvgl/lvgl/src/core/../misc/lv_anim.h ****     uint8_t start_cb_called : 1;    /**< Indicates that the `start_cb` was already called*/
  91:lvgl/lvgl/src/core/../misc/lv_anim.h ****     uint32_t time_orig;
  92:lvgl/lvgl/src/core/../misc/lv_anim.h **** } lv_anim_t;
  93:lvgl/lvgl/src/core/../misc/lv_anim.h **** 
  94:lvgl/lvgl/src/core/../misc/lv_anim.h **** /**********************
  95:lvgl/lvgl/src/core/../misc/lv_anim.h ****  * GLOBAL PROTOTYPES
  96:lvgl/lvgl/src/core/../misc/lv_anim.h ****  **********************/
  97:lvgl/lvgl/src/core/../misc/lv_anim.h **** 
  98:lvgl/lvgl/src/core/../misc/lv_anim.h **** /**
  99:lvgl/lvgl/src/core/../misc/lv_anim.h ****  * Init. the animation module
 100:lvgl/lvgl/src/core/../misc/lv_anim.h ****  */
 101:lvgl/lvgl/src/core/../misc/lv_anim.h **** void _lv_anim_core_init(void);
 102:lvgl/lvgl/src/core/../misc/lv_anim.h **** 
 103:lvgl/lvgl/src/core/../misc/lv_anim.h **** /**
 104:lvgl/lvgl/src/core/../misc/lv_anim.h ****  * Initialize an animation variable.
 105:lvgl/lvgl/src/core/../misc/lv_anim.h ****  * E.g.:
 106:lvgl/lvgl/src/core/../misc/lv_anim.h ****  * lv_anim_t a;
 107:lvgl/lvgl/src/core/../misc/lv_anim.h ****  * lv_anim_init(&a);
 108:lvgl/lvgl/src/core/../misc/lv_anim.h ****  * lv_anim_set_...(&a);
 109:lvgl/lvgl/src/core/../misc/lv_anim.h ****  * lv_anim_start(&a);
 110:lvgl/lvgl/src/core/../misc/lv_anim.h ****  * @param a     pointer to an `lv_anim_t` variable to initialize
 111:lvgl/lvgl/src/core/../misc/lv_anim.h ****  */
 112:lvgl/lvgl/src/core/../misc/lv_anim.h **** void lv_anim_init(lv_anim_t * a);
 113:lvgl/lvgl/src/core/../misc/lv_anim.h **** 
 114:lvgl/lvgl/src/core/../misc/lv_anim.h **** /**
 115:lvgl/lvgl/src/core/../misc/lv_anim.h ****  * Set a variable to animate
 116:lvgl/lvgl/src/core/../misc/lv_anim.h ****  * @param a     pointer to an initialized `lv_anim_t` variable
 117:lvgl/lvgl/src/core/../misc/lv_anim.h ****  * @param var   pointer to a variable to animate
 118:lvgl/lvgl/src/core/../misc/lv_anim.h ****  */
 119:lvgl/lvgl/src/core/../misc/lv_anim.h **** static inline void lv_anim_set_var(lv_anim_t * a, void * var)
 1032              		.loc 2 119 20 view .LVU288
 1033              	.LBB66:
 120:lvgl/lvgl/src/core/../misc/lv_anim.h **** {
ARM GAS  C:\Users\gx\AppData\Local\Temp\cc2sgWsf.s 			page 40


 121:lvgl/lvgl/src/core/../misc/lv_anim.h ****     a->var = var;
 1034              		.loc 2 121 5 view .LVU289
 1035              		.loc 2 121 12 is_stmt 0 view .LVU290
 1036 0010 0196     		str	r6, [sp, #4]
 1037              	.LVL92:
 1038              		.loc 2 121 12 view .LVU291
 1039              	.LBE66:
 1040              	.LBE65:
 430:lvgl/lvgl/src/core/lv_obj_style.c ****     lv_anim_set_exec_cb(&a, fade_anim_cb);
 1041              		.loc 1 430 5 is_stmt 1 view .LVU292
 1042              	.LBB67:
 1043              	.LBI67:
 122:lvgl/lvgl/src/core/../misc/lv_anim.h **** }
 123:lvgl/lvgl/src/core/../misc/lv_anim.h **** 
 124:lvgl/lvgl/src/core/../misc/lv_anim.h **** /**
 125:lvgl/lvgl/src/core/../misc/lv_anim.h ****  * Set a function to animate `var`
 126:lvgl/lvgl/src/core/../misc/lv_anim.h ****  * @param a         pointer to an initialized `lv_anim_t` variable
 127:lvgl/lvgl/src/core/../misc/lv_anim.h ****  * @param exec_cb   a function to execute during animation
 128:lvgl/lvgl/src/core/../misc/lv_anim.h ****  *                  LVGL's built-in functions can be used.
 129:lvgl/lvgl/src/core/../misc/lv_anim.h ****  *                  E.g. lv_obj_set_x
 130:lvgl/lvgl/src/core/../misc/lv_anim.h ****  */
 131:lvgl/lvgl/src/core/../misc/lv_anim.h **** static inline void lv_anim_set_exec_cb(lv_anim_t * a, lv_anim_exec_xcb_t exec_cb)
 132:lvgl/lvgl/src/core/../misc/lv_anim.h **** {
 133:lvgl/lvgl/src/core/../misc/lv_anim.h ****     a->exec_cb = exec_cb;
 134:lvgl/lvgl/src/core/../misc/lv_anim.h **** }
 135:lvgl/lvgl/src/core/../misc/lv_anim.h **** 
 136:lvgl/lvgl/src/core/../misc/lv_anim.h **** /**
 137:lvgl/lvgl/src/core/../misc/lv_anim.h ****  * Set the duration of an animation
 138:lvgl/lvgl/src/core/../misc/lv_anim.h ****  * @param a         pointer to an initialized `lv_anim_t` variable
 139:lvgl/lvgl/src/core/../misc/lv_anim.h ****  * @param duration  duration of the animation in milliseconds
 140:lvgl/lvgl/src/core/../misc/lv_anim.h ****  */
 141:lvgl/lvgl/src/core/../misc/lv_anim.h **** static inline void lv_anim_set_time(lv_anim_t * a, uint32_t duration)
 142:lvgl/lvgl/src/core/../misc/lv_anim.h **** {
 143:lvgl/lvgl/src/core/../misc/lv_anim.h ****     a->time = duration;
 144:lvgl/lvgl/src/core/../misc/lv_anim.h **** }
 145:lvgl/lvgl/src/core/../misc/lv_anim.h **** 
 146:lvgl/lvgl/src/core/../misc/lv_anim.h **** /**
 147:lvgl/lvgl/src/core/../misc/lv_anim.h ****  * Set a delay before starting the animation
 148:lvgl/lvgl/src/core/../misc/lv_anim.h ****  * @param a         pointer to an initialized `lv_anim_t` variable
 149:lvgl/lvgl/src/core/../misc/lv_anim.h ****  * @param delay     delay before the animation in milliseconds
 150:lvgl/lvgl/src/core/../misc/lv_anim.h ****  */
 151:lvgl/lvgl/src/core/../misc/lv_anim.h **** static inline void lv_anim_set_delay(lv_anim_t * a, uint32_t delay)
 152:lvgl/lvgl/src/core/../misc/lv_anim.h **** {
 153:lvgl/lvgl/src/core/../misc/lv_anim.h ****     a->act_time = -(int32_t)(delay);
 154:lvgl/lvgl/src/core/../misc/lv_anim.h **** }
 155:lvgl/lvgl/src/core/../misc/lv_anim.h **** 
 156:lvgl/lvgl/src/core/../misc/lv_anim.h **** /**
 157:lvgl/lvgl/src/core/../misc/lv_anim.h ****  * Set the start and end values of an animation
 158:lvgl/lvgl/src/core/../misc/lv_anim.h ****  * @param a         pointer to an initialized `lv_anim_t` variable
 159:lvgl/lvgl/src/core/../misc/lv_anim.h ****  * @param start     the start value
 160:lvgl/lvgl/src/core/../misc/lv_anim.h ****  * @param end       the end value
 161:lvgl/lvgl/src/core/../misc/lv_anim.h ****  */
 162:lvgl/lvgl/src/core/../misc/lv_anim.h **** static inline void lv_anim_set_values(lv_anim_t * a, int32_t start, int32_t end)
 1044              		.loc 2 162 20 view .LVU293
 1045              	.LBB68:
 163:lvgl/lvgl/src/core/../misc/lv_anim.h **** {
 164:lvgl/lvgl/src/core/../misc/lv_anim.h ****     a->start_value = start;
ARM GAS  C:\Users\gx\AppData\Local\Temp\cc2sgWsf.s 			page 41


 1046              		.loc 2 164 5 view .LVU294
 1047              		.loc 2 164 20 is_stmt 0 view .LVU295
 1048 0012 0023     		movs	r3, #0
 1049 0014 0893     		str	r3, [sp, #32]
 165:lvgl/lvgl/src/core/../misc/lv_anim.h ****     a->current_value = start;
 1050              		.loc 2 165 5 is_stmt 1 view .LVU296
 1051              		.loc 2 165 22 is_stmt 0 view .LVU297
 1052 0016 0993     		str	r3, [sp, #36]
 166:lvgl/lvgl/src/core/../misc/lv_anim.h ****     a->end_value = end;
 1053              		.loc 2 166 5 is_stmt 1 view .LVU298
 1054              		.loc 2 166 18 is_stmt 0 view .LVU299
 1055 0018 FF23     		movs	r3, #255
 1056 001a 0A93     		str	r3, [sp, #40]
 1057              	.LVL93:
 1058              		.loc 2 166 18 view .LVU300
 1059              	.LBE68:
 1060              	.LBE67:
 431:lvgl/lvgl/src/core/lv_obj_style.c ****     lv_anim_set_ready_cb(&a, fade_in_anim_ready);
 1061              		.loc 1 431 5 is_stmt 1 view .LVU301
 1062              	.LBB69:
 1063              	.LBI69:
 131:lvgl/lvgl/src/core/../misc/lv_anim.h **** {
 1064              		.loc 2 131 20 view .LVU302
 1065              	.LBB70:
 133:lvgl/lvgl/src/core/../misc/lv_anim.h **** }
 1066              		.loc 2 133 5 view .LVU303
 133:lvgl/lvgl/src/core/../misc/lv_anim.h **** }
 1067              		.loc 2 133 16 is_stmt 0 view .LVU304
 1068 001c 054B     		ldr	r3, .L76
 1069 001e 0293     		str	r3, [sp, #8]
 1070              	.LVL94:
 133:lvgl/lvgl/src/core/../misc/lv_anim.h **** }
 1071              		.loc 2 133 16 view .LVU305
 1072              	.LBE70:
 1073              	.LBE69:
 432:lvgl/lvgl/src/core/lv_obj_style.c ****     lv_anim_set_time(&a, time);
 1074              		.loc 1 432 5 is_stmt 1 view .LVU306
 1075              	.LBB71:
 1076              	.LBI71:
 167:lvgl/lvgl/src/core/../misc/lv_anim.h **** }
 168:lvgl/lvgl/src/core/../misc/lv_anim.h **** 
 169:lvgl/lvgl/src/core/../misc/lv_anim.h **** /**
 170:lvgl/lvgl/src/core/../misc/lv_anim.h ****  * Similar to `lv_anim_set_exec_cb` but `lv_anim_custom_exec_cb_t` receives
 171:lvgl/lvgl/src/core/../misc/lv_anim.h ****  * `lv_anim_t * ` as its first parameter instead of `void *`.
 172:lvgl/lvgl/src/core/../misc/lv_anim.h ****  * This function might be used when LVGL is binded to other languages because
 173:lvgl/lvgl/src/core/../misc/lv_anim.h ****  * it's more consistent to have `lv_anim_t *` as first parameter.
 174:lvgl/lvgl/src/core/../misc/lv_anim.h ****  * The variable to animate can be stored in the animation's `user_sata`
 175:lvgl/lvgl/src/core/../misc/lv_anim.h ****  * @param a         pointer to an initialized `lv_anim_t` variable
 176:lvgl/lvgl/src/core/../misc/lv_anim.h ****  * @param exec_cb   a function to execute.
 177:lvgl/lvgl/src/core/../misc/lv_anim.h ****  */
 178:lvgl/lvgl/src/core/../misc/lv_anim.h **** static inline void lv_anim_set_custom_exec_cb(lv_anim_t * a, lv_anim_custom_exec_cb_t exec_cb)
 179:lvgl/lvgl/src/core/../misc/lv_anim.h **** {
 180:lvgl/lvgl/src/core/../misc/lv_anim.h ****     a->var     = a;
 181:lvgl/lvgl/src/core/../misc/lv_anim.h ****     a->exec_cb = (lv_anim_exec_xcb_t)exec_cb;
 182:lvgl/lvgl/src/core/../misc/lv_anim.h **** }
 183:lvgl/lvgl/src/core/../misc/lv_anim.h **** 
 184:lvgl/lvgl/src/core/../misc/lv_anim.h **** /**
ARM GAS  C:\Users\gx\AppData\Local\Temp\cc2sgWsf.s 			page 42


 185:lvgl/lvgl/src/core/../misc/lv_anim.h ****  * Set the path (curve) of the animation.
 186:lvgl/lvgl/src/core/../misc/lv_anim.h ****  * @param a         pointer to an initialized `lv_anim_t` variable
 187:lvgl/lvgl/src/core/../misc/lv_anim.h ****  * @param path_cb a function the get the current value of the animation.
 188:lvgl/lvgl/src/core/../misc/lv_anim.h ****  */
 189:lvgl/lvgl/src/core/../misc/lv_anim.h **** static inline void lv_anim_set_path_cb(lv_anim_t * a, lv_anim_path_cb_t path_cb)
 190:lvgl/lvgl/src/core/../misc/lv_anim.h **** {
 191:lvgl/lvgl/src/core/../misc/lv_anim.h ****     a->path_cb = path_cb;
 192:lvgl/lvgl/src/core/../misc/lv_anim.h **** }
 193:lvgl/lvgl/src/core/../misc/lv_anim.h **** 
 194:lvgl/lvgl/src/core/../misc/lv_anim.h **** /**
 195:lvgl/lvgl/src/core/../misc/lv_anim.h ****  * Set a function call when the animation really starts (considering `delay`)
 196:lvgl/lvgl/src/core/../misc/lv_anim.h ****  * @param a         pointer to an initialized `lv_anim_t` variable
 197:lvgl/lvgl/src/core/../misc/lv_anim.h ****  * @param start_cb  a function call when the animation starts
 198:lvgl/lvgl/src/core/../misc/lv_anim.h ****  */
 199:lvgl/lvgl/src/core/../misc/lv_anim.h **** static inline void lv_anim_set_start_cb(lv_anim_t * a, lv_anim_ready_cb_t start_cb)
 200:lvgl/lvgl/src/core/../misc/lv_anim.h **** {
 201:lvgl/lvgl/src/core/../misc/lv_anim.h ****     a->start_cb = start_cb;
 202:lvgl/lvgl/src/core/../misc/lv_anim.h **** }
 203:lvgl/lvgl/src/core/../misc/lv_anim.h **** 
 204:lvgl/lvgl/src/core/../misc/lv_anim.h **** /**
 205:lvgl/lvgl/src/core/../misc/lv_anim.h ****  * Set a function to use the current value of the variable and make start and end value
 206:lvgl/lvgl/src/core/../misc/lv_anim.h ****  * relative the the returned current value.
 207:lvgl/lvgl/src/core/../misc/lv_anim.h ****  * @param a             pointer to an initialized `lv_anim_t` variable
 208:lvgl/lvgl/src/core/../misc/lv_anim.h ****  * @param get_value_cb  a function call when the animation starts
 209:lvgl/lvgl/src/core/../misc/lv_anim.h ****  */
 210:lvgl/lvgl/src/core/../misc/lv_anim.h **** static inline void lv_anim_set_get_value_cb(lv_anim_t * a, lv_anim_get_value_cb_t get_value_cb)
 211:lvgl/lvgl/src/core/../misc/lv_anim.h **** {
 212:lvgl/lvgl/src/core/../misc/lv_anim.h ****     a->get_value_cb = get_value_cb;
 213:lvgl/lvgl/src/core/../misc/lv_anim.h **** }
 214:lvgl/lvgl/src/core/../misc/lv_anim.h **** 
 215:lvgl/lvgl/src/core/../misc/lv_anim.h **** /**
 216:lvgl/lvgl/src/core/../misc/lv_anim.h ****  * Set a function call when the animation is ready
 217:lvgl/lvgl/src/core/../misc/lv_anim.h ****  * @param a         pointer to an initialized `lv_anim_t` variable
 218:lvgl/lvgl/src/core/../misc/lv_anim.h ****  * @param ready_cb  a function call when the animation is ready
 219:lvgl/lvgl/src/core/../misc/lv_anim.h ****  */
 220:lvgl/lvgl/src/core/../misc/lv_anim.h **** static inline void lv_anim_set_ready_cb(lv_anim_t * a, lv_anim_ready_cb_t ready_cb)
 1077              		.loc 2 220 20 view .LVU307
 1078              	.LBB72:
 221:lvgl/lvgl/src/core/../misc/lv_anim.h **** {
 222:lvgl/lvgl/src/core/../misc/lv_anim.h ****     a->ready_cb = ready_cb;
 1079              		.loc 2 222 5 view .LVU308
 1080              		.loc 2 222 17 is_stmt 0 view .LVU309
 1081 0020 054B     		ldr	r3, .L76+4
 1082 0022 0493     		str	r3, [sp, #16]
 1083              	.LVL95:
 1084              		.loc 2 222 17 view .LVU310
 1085              	.LBE72:
 1086              	.LBE71:
 433:lvgl/lvgl/src/core/lv_obj_style.c ****     lv_anim_set_delay(&a, delay);
 1087              		.loc 1 433 5 is_stmt 1 view .LVU311
 1088              	.LBB73:
 1089              	.LBI73:
 141:lvgl/lvgl/src/core/../misc/lv_anim.h **** {
 1090              		.loc 2 141 20 view .LVU312
 1091              	.LBB74:
 143:lvgl/lvgl/src/core/../misc/lv_anim.h **** }
 1092              		.loc 2 143 5 view .LVU313
ARM GAS  C:\Users\gx\AppData\Local\Temp\cc2sgWsf.s 			page 43


 143:lvgl/lvgl/src/core/../misc/lv_anim.h **** }
 1093              		.loc 2 143 13 is_stmt 0 view .LVU314
 1094 0024 0B95     		str	r5, [sp, #44]
 1095              	.LVL96:
 143:lvgl/lvgl/src/core/../misc/lv_anim.h **** }
 1096              		.loc 2 143 13 view .LVU315
 1097              	.LBE74:
 1098              	.LBE73:
 434:lvgl/lvgl/src/core/lv_obj_style.c ****     lv_anim_start(&a);
 1099              		.loc 1 434 5 is_stmt 1 view .LVU316
 1100              	.LBB75:
 1101              	.LBI75:
 151:lvgl/lvgl/src/core/../misc/lv_anim.h **** {
 1102              		.loc 2 151 20 view .LVU317
 1103              	.LBB76:
 153:lvgl/lvgl/src/core/../misc/lv_anim.h **** }
 1104              		.loc 2 153 5 view .LVU318
 153:lvgl/lvgl/src/core/../misc/lv_anim.h **** }
 1105              		.loc 2 153 19 is_stmt 0 view .LVU319
 1106 0026 6442     		rsbs	r4, r4, #0
 1107              	.LVL97:
 153:lvgl/lvgl/src/core/../misc/lv_anim.h **** }
 1108              		.loc 2 153 17 view .LVU320
 1109 0028 0C94     		str	r4, [sp, #48]
 1110              	.LVL98:
 153:lvgl/lvgl/src/core/../misc/lv_anim.h **** }
 1111              		.loc 2 153 17 view .LVU321
 1112              	.LBE76:
 1113              	.LBE75:
 435:lvgl/lvgl/src/core/lv_obj_style.c **** }
 1114              		.loc 1 435 5 is_stmt 1 view .LVU322
 1115 002a 01A8     		add	r0, sp, #4
 1116 002c FFF7FEFF 		bl	lv_anim_start
 1117              	.LVL99:
 436:lvgl/lvgl/src/core/lv_obj_style.c **** 
 1118              		.loc 1 436 1 is_stmt 0 view .LVU323
 1119 0030 12B0     		add	sp, sp, #72
 1120              	.LCFI13:
 1121              		.cfi_def_cfa_offset 16
 1122              		@ sp needed
 1123 0032 70BD     		pop	{r4, r5, r6, pc}
 1124              	.LVL100:
 1125              	.L77:
 436:lvgl/lvgl/src/core/lv_obj_style.c **** 
 1126              		.loc 1 436 1 view .LVU324
 1127              		.align	2
 1128              	.L76:
 1129 0034 00000000 		.word	fade_anim_cb
 1130 0038 00000000 		.word	fade_in_anim_ready
 1131              		.cfi_endproc
 1132              	.LFE170:
 1134              		.section	.text.lv_obj_fade_out,"ax",%progbits
 1135              		.align	1
 1136              		.global	lv_obj_fade_out
 1137              		.syntax unified
 1138              		.thumb
 1139              		.thumb_func
ARM GAS  C:\Users\gx\AppData\Local\Temp\cc2sgWsf.s 			page 44


 1140              		.fpu fpv4-sp-d16
 1142              	lv_obj_fade_out:
 1143              	.LVL101:
 1144              	.LFB171:
 439:lvgl/lvgl/src/core/lv_obj_style.c ****     lv_anim_t a;
 1145              		.loc 1 439 1 is_stmt 1 view -0
 1146              		.cfi_startproc
 1147              		@ args = 0, pretend = 0, frame = 72
 1148              		@ frame_needed = 0, uses_anonymous_args = 0
 439:lvgl/lvgl/src/core/lv_obj_style.c ****     lv_anim_t a;
 1149              		.loc 1 439 1 is_stmt 0 view .LVU326
 1150 0000 70B5     		push	{r4, r5, r6, lr}
 1151              	.LCFI14:
 1152              		.cfi_def_cfa_offset 16
 1153              		.cfi_offset 4, -16
 1154              		.cfi_offset 5, -12
 1155              		.cfi_offset 6, -8
 1156              		.cfi_offset 14, -4
 1157 0002 92B0     		sub	sp, sp, #72
 1158              	.LCFI15:
 1159              		.cfi_def_cfa_offset 88
 1160 0004 0646     		mov	r6, r0
 1161 0006 0D46     		mov	r5, r1
 1162 0008 1446     		mov	r4, r2
 440:lvgl/lvgl/src/core/lv_obj_style.c ****     lv_anim_init(&a);
 1163              		.loc 1 440 5 is_stmt 1 view .LVU327
 441:lvgl/lvgl/src/core/lv_obj_style.c ****     lv_anim_set_var(&a, obj);
 1164              		.loc 1 441 5 view .LVU328
 1165 000a 01A8     		add	r0, sp, #4
 1166              	.LVL102:
 441:lvgl/lvgl/src/core/lv_obj_style.c ****     lv_anim_set_var(&a, obj);
 1167              		.loc 1 441 5 is_stmt 0 view .LVU329
 1168 000c FFF7FEFF 		bl	lv_anim_init
 1169              	.LVL103:
 442:lvgl/lvgl/src/core/lv_obj_style.c ****     lv_anim_set_values(&a, LV_OPA_COVER, LV_OPA_TRANSP);
 1170              		.loc 1 442 5 is_stmt 1 view .LVU330
 1171              	.LBB77:
 1172              	.LBI77:
 119:lvgl/lvgl/src/core/../misc/lv_anim.h **** {
 1173              		.loc 2 119 20 view .LVU331
 1174              	.LBB78:
 121:lvgl/lvgl/src/core/../misc/lv_anim.h **** }
 1175              		.loc 2 121 5 view .LVU332
 121:lvgl/lvgl/src/core/../misc/lv_anim.h **** }
 1176              		.loc 2 121 12 is_stmt 0 view .LVU333
 1177 0010 0196     		str	r6, [sp, #4]
 1178              	.LVL104:
 121:lvgl/lvgl/src/core/../misc/lv_anim.h **** }
 1179              		.loc 2 121 12 view .LVU334
 1180              	.LBE78:
 1181              	.LBE77:
 443:lvgl/lvgl/src/core/lv_obj_style.c ****     lv_anim_set_exec_cb(&a, fade_anim_cb);
 1182              		.loc 1 443 5 is_stmt 1 view .LVU335
 1183              	.LBB79:
 1184              	.LBI79:
 162:lvgl/lvgl/src/core/../misc/lv_anim.h **** {
 1185              		.loc 2 162 20 view .LVU336
ARM GAS  C:\Users\gx\AppData\Local\Temp\cc2sgWsf.s 			page 45


 1186              	.LBB80:
 164:lvgl/lvgl/src/core/../misc/lv_anim.h ****     a->current_value = start;
 1187              		.loc 2 164 5 view .LVU337
 164:lvgl/lvgl/src/core/../misc/lv_anim.h ****     a->current_value = start;
 1188              		.loc 2 164 20 is_stmt 0 view .LVU338
 1189 0012 FF23     		movs	r3, #255
 1190 0014 0893     		str	r3, [sp, #32]
 165:lvgl/lvgl/src/core/../misc/lv_anim.h ****     a->end_value = end;
 1191              		.loc 2 165 5 is_stmt 1 view .LVU339
 165:lvgl/lvgl/src/core/../misc/lv_anim.h ****     a->end_value = end;
 1192              		.loc 2 165 22 is_stmt 0 view .LVU340
 1193 0016 0993     		str	r3, [sp, #36]
 166:lvgl/lvgl/src/core/../misc/lv_anim.h **** }
 1194              		.loc 2 166 5 is_stmt 1 view .LVU341
 166:lvgl/lvgl/src/core/../misc/lv_anim.h **** }
 1195              		.loc 2 166 18 is_stmt 0 view .LVU342
 1196 0018 0023     		movs	r3, #0
 1197 001a 0A93     		str	r3, [sp, #40]
 1198              	.LVL105:
 166:lvgl/lvgl/src/core/../misc/lv_anim.h **** }
 1199              		.loc 2 166 18 view .LVU343
 1200              	.LBE80:
 1201              	.LBE79:
 444:lvgl/lvgl/src/core/lv_obj_style.c ****     lv_anim_set_time(&a, time);
 1202              		.loc 1 444 5 is_stmt 1 view .LVU344
 1203              	.LBB81:
 1204              	.LBI81:
 131:lvgl/lvgl/src/core/../misc/lv_anim.h **** {
 1205              		.loc 2 131 20 view .LVU345
 1206              	.LBB82:
 133:lvgl/lvgl/src/core/../misc/lv_anim.h **** }
 1207              		.loc 2 133 5 view .LVU346
 133:lvgl/lvgl/src/core/../misc/lv_anim.h **** }
 1208              		.loc 2 133 16 is_stmt 0 view .LVU347
 1209 001c 044B     		ldr	r3, .L80
 1210 001e 0293     		str	r3, [sp, #8]
 1211              	.LVL106:
 133:lvgl/lvgl/src/core/../misc/lv_anim.h **** }
 1212              		.loc 2 133 16 view .LVU348
 1213              	.LBE82:
 1214              	.LBE81:
 445:lvgl/lvgl/src/core/lv_obj_style.c ****     lv_anim_set_delay(&a, delay);
 1215              		.loc 1 445 5 is_stmt 1 view .LVU349
 1216              	.LBB83:
 1217              	.LBI83:
 141:lvgl/lvgl/src/core/../misc/lv_anim.h **** {
 1218              		.loc 2 141 20 view .LVU350
 1219              	.LBB84:
 143:lvgl/lvgl/src/core/../misc/lv_anim.h **** }
 1220              		.loc 2 143 5 view .LVU351
 143:lvgl/lvgl/src/core/../misc/lv_anim.h **** }
 1221              		.loc 2 143 13 is_stmt 0 view .LVU352
 1222 0020 0B95     		str	r5, [sp, #44]
 1223              	.LVL107:
 143:lvgl/lvgl/src/core/../misc/lv_anim.h **** }
 1224              		.loc 2 143 13 view .LVU353
 1225              	.LBE84:
ARM GAS  C:\Users\gx\AppData\Local\Temp\cc2sgWsf.s 			page 46


 1226              	.LBE83:
 446:lvgl/lvgl/src/core/lv_obj_style.c ****     lv_anim_start(&a);
 1227              		.loc 1 446 5 is_stmt 1 view .LVU354
 1228              	.LBB85:
 1229              	.LBI85:
 151:lvgl/lvgl/src/core/../misc/lv_anim.h **** {
 1230              		.loc 2 151 20 view .LVU355
 1231              	.LBB86:
 153:lvgl/lvgl/src/core/../misc/lv_anim.h **** }
 1232              		.loc 2 153 5 view .LVU356
 153:lvgl/lvgl/src/core/../misc/lv_anim.h **** }
 1233              		.loc 2 153 19 is_stmt 0 view .LVU357
 1234 0022 6442     		rsbs	r4, r4, #0
 1235              	.LVL108:
 153:lvgl/lvgl/src/core/../misc/lv_anim.h **** }
 1236              		.loc 2 153 17 view .LVU358
 1237 0024 0C94     		str	r4, [sp, #48]
 1238              	.LVL109:
 153:lvgl/lvgl/src/core/../misc/lv_anim.h **** }
 1239              		.loc 2 153 17 view .LVU359
 1240              	.LBE86:
 1241              	.LBE85:
 447:lvgl/lvgl/src/core/lv_obj_style.c **** }
 1242              		.loc 1 447 5 is_stmt 1 view .LVU360
 1243 0026 01A8     		add	r0, sp, #4
 1244 0028 FFF7FEFF 		bl	lv_anim_start
 1245              	.LVL110:
 448:lvgl/lvgl/src/core/lv_obj_style.c **** 
 1246              		.loc 1 448 1 is_stmt 0 view .LVU361
 1247 002c 12B0     		add	sp, sp, #72
 1248              	.LCFI16:
 1249              		.cfi_def_cfa_offset 16
 1250              		@ sp needed
 1251 002e 70BD     		pop	{r4, r5, r6, pc}
 1252              	.LVL111:
 1253              	.L81:
 448:lvgl/lvgl/src/core/lv_obj_style.c **** 
 1254              		.loc 1 448 1 view .LVU362
 1255              		.align	2
 1256              	.L80:
 1257 0030 00000000 		.word	fade_anim_cb
 1258              		.cfi_endproc
 1259              	.LFE171:
 1261              		.section	.text.lv_obj_style_get_selector_state,"ax",%progbits
 1262              		.align	1
 1263              		.global	lv_obj_style_get_selector_state
 1264              		.syntax unified
 1265              		.thumb
 1266              		.thumb_func
 1267              		.fpu fpv4-sp-d16
 1269              	lv_obj_style_get_selector_state:
 1270              	.LVL112:
 1271              	.LFB172:
 451:lvgl/lvgl/src/core/lv_obj_style.c ****     return selector & 0xFFFF;
 1272              		.loc 1 451 1 is_stmt 1 view -0
 1273              		.cfi_startproc
 1274              		@ args = 0, pretend = 0, frame = 0
ARM GAS  C:\Users\gx\AppData\Local\Temp\cc2sgWsf.s 			page 47


 1275              		@ frame_needed = 0, uses_anonymous_args = 0
 1276              		@ link register save eliminated.
 452:lvgl/lvgl/src/core/lv_obj_style.c **** }
 1277              		.loc 1 452 5 view .LVU364
 453:lvgl/lvgl/src/core/lv_obj_style.c **** 
 1278              		.loc 1 453 1 is_stmt 0 view .LVU365
 1279 0000 80B2     		uxth	r0, r0
 1280              	.LVL113:
 453:lvgl/lvgl/src/core/lv_obj_style.c **** 
 1281              		.loc 1 453 1 view .LVU366
 1282 0002 7047     		bx	lr
 1283              		.cfi_endproc
 1284              	.LFE172:
 1286              		.section	.text.lv_obj_style_get_selector_part,"ax",%progbits
 1287              		.align	1
 1288              		.global	lv_obj_style_get_selector_part
 1289              		.syntax unified
 1290              		.thumb
 1291              		.thumb_func
 1292              		.fpu fpv4-sp-d16
 1294              	lv_obj_style_get_selector_part:
 1295              	.LVL114:
 1296              	.LFB173:
 456:lvgl/lvgl/src/core/lv_obj_style.c ****     return selector & 0xFF0000;
 1297              		.loc 1 456 1 is_stmt 1 view -0
 1298              		.cfi_startproc
 1299              		@ args = 0, pretend = 0, frame = 0
 1300              		@ frame_needed = 0, uses_anonymous_args = 0
 1301              		@ link register save eliminated.
 457:lvgl/lvgl/src/core/lv_obj_style.c **** }
 1302              		.loc 1 457 5 view .LVU368
 458:lvgl/lvgl/src/core/lv_obj_style.c **** 
 1303              		.loc 1 458 1 is_stmt 0 view .LVU369
 1304 0000 00F47F00 		and	r0, r0, #16711680
 1305              	.LVL115:
 458:lvgl/lvgl/src/core/lv_obj_style.c **** 
 1306              		.loc 1 458 1 view .LVU370
 1307 0004 7047     		bx	lr
 1308              		.cfi_endproc
 1309              	.LFE173:
 1311              		.section	.text.get_prop_core,"ax",%progbits
 1312              		.align	1
 1313              		.syntax unified
 1314              		.thumb
 1315              		.thumb_func
 1316              		.fpu fpv4-sp-d16
 1318              	get_prop_core:
 1319              	.LVL116:
 1320              	.LFB177:
 546:lvgl/lvgl/src/core/lv_obj_style.c ****     uint8_t group = 1 << _lv_style_get_prop_group(prop);
 1321              		.loc 1 546 1 is_stmt 1 view -0
 1322              		.cfi_startproc
 1323              		@ args = 0, pretend = 0, frame = 24
 1324              		@ frame_needed = 0, uses_anonymous_args = 0
 546:lvgl/lvgl/src/core/lv_obj_style.c ****     uint8_t group = 1 << _lv_style_get_prop_group(prop);
 1325              		.loc 1 546 1 is_stmt 0 view .LVU372
 1326 0000 2DE9F04F 		push	{r4, r5, r6, r7, r8, r9, r10, fp, lr}
ARM GAS  C:\Users\gx\AppData\Local\Temp\cc2sgWsf.s 			page 48


 1327              	.LCFI17:
 1328              		.cfi_def_cfa_offset 36
 1329              		.cfi_offset 4, -36
 1330              		.cfi_offset 5, -32
 1331              		.cfi_offset 6, -28
 1332              		.cfi_offset 7, -24
 1333              		.cfi_offset 8, -20
 1334              		.cfi_offset 9, -16
 1335              		.cfi_offset 10, -12
 1336              		.cfi_offset 11, -8
 1337              		.cfi_offset 14, -4
 1338 0004 87B0     		sub	sp, sp, #28
 1339              	.LCFI18:
 1340              		.cfi_def_cfa_offset 64
 1341 0006 0646     		mov	r6, r0
 1342 0008 8946     		mov	r9, r1
 1343 000a 0192     		str	r2, [sp, #4]
 1344 000c 0293     		str	r3, [sp, #8]
 547:lvgl/lvgl/src/core/lv_obj_style.c ****     int32_t weight = -1;
 1345              		.loc 1 547 5 is_stmt 1 view .LVU373
 547:lvgl/lvgl/src/core/lv_obj_style.c ****     int32_t weight = -1;
 1346              		.loc 1 547 26 is_stmt 0 view .LVU374
 1347 000e 1046     		mov	r0, r2
 1348              	.LVL117:
 547:lvgl/lvgl/src/core/lv_obj_style.c ****     int32_t weight = -1;
 1349              		.loc 1 547 26 view .LVU375
 1350 0010 FFF7FEFF 		bl	_lv_style_get_prop_group
 1351              	.LVL118:
 547:lvgl/lvgl/src/core/lv_obj_style.c ****     int32_t weight = -1;
 1352              		.loc 1 547 23 view .LVU376
 1353 0014 4FF0010A 		mov	r10, #1
 1354 0018 0AFA00FA 		lsl	r10, r10, r0
 547:lvgl/lvgl/src/core/lv_obj_style.c ****     int32_t weight = -1;
 1355              		.loc 1 547 13 view .LVU377
 1356 001c 5FFA8AFA 		uxtb	r10, r10
 1357              	.LVL119:
 548:lvgl/lvgl/src/core/lv_obj_style.c ****     lv_state_t state = obj->state;
 1358              		.loc 1 548 5 is_stmt 1 view .LVU378
 549:lvgl/lvgl/src/core/lv_obj_style.c ****     lv_state_t state_inv = ~state;
 1359              		.loc 1 549 5 view .LVU379
 549:lvgl/lvgl/src/core/lv_obj_style.c ****     lv_state_t state_inv = ~state;
 1360              		.loc 1 549 16 is_stmt 0 view .LVU380
 1361 0020 338C     		ldrh	r3, [r6, #32]
 1362 0022 0393     		str	r3, [sp, #12]
 1363              	.LVL120:
 550:lvgl/lvgl/src/core/lv_obj_style.c ****     lv_style_value_t value_tmp;
 1364              		.loc 1 550 5 is_stmt 1 view .LVU381
 550:lvgl/lvgl/src/core/lv_obj_style.c ****     lv_style_value_t value_tmp;
 1365              		.loc 1 550 16 is_stmt 0 view .LVU382
 1366 0024 6FEA030B 		mvn	fp, r3
 1367 0028 1FFA8BFB 		uxth	fp, fp
 1368              	.LVL121:
 551:lvgl/lvgl/src/core/lv_obj_style.c ****     bool skip_trans = obj->skip_trans;
 1369              		.loc 1 551 5 is_stmt 1 view .LVU383
 552:lvgl/lvgl/src/core/lv_obj_style.c ****     uint32_t i;
 1370              		.loc 1 552 5 view .LVU384
 552:lvgl/lvgl/src/core/lv_obj_style.c ****     uint32_t i;
ARM GAS  C:\Users\gx\AppData\Local\Temp\cc2sgWsf.s 			page 49


 1371              		.loc 1 552 26 is_stmt 0 view .LVU385
 1372 002c 96F82280 		ldrb	r8, [r6, #34]	@ zero_extendqisi2
 1373 0030 C8F38008 		ubfx	r8, r8, #2, #1
 1374              	.LVL122:
 553:lvgl/lvgl/src/core/lv_obj_style.c ****     bool found;
 1375              		.loc 1 553 5 is_stmt 1 view .LVU386
 554:lvgl/lvgl/src/core/lv_obj_style.c ****     for(i = 0; i < obj->style_cnt; i++) {
 1376              		.loc 1 554 5 view .LVU387
 555:lvgl/lvgl/src/core/lv_obj_style.c ****         _lv_obj_style_t * obj_style = &obj->styles[i];
 1377              		.loc 1 555 5 view .LVU388
 555:lvgl/lvgl/src/core/lv_obj_style.c ****         _lv_obj_style_t * obj_style = &obj->styles[i];
 1378              		.loc 1 555 11 is_stmt 0 view .LVU389
 1379 0034 0024     		movs	r4, #0
 1380 0036 4546     		mov	r5, r8
 555:lvgl/lvgl/src/core/lv_obj_style.c ****         _lv_obj_style_t * obj_style = &obj->styles[i];
 1381              		.loc 1 555 5 view .LVU390
 1382 0038 00E0     		b	.L85
 1383              	.LVL123:
 1384              	.L87:
 555:lvgl/lvgl/src/core/lv_obj_style.c ****         _lv_obj_style_t * obj_style = &obj->styles[i];
 1385              		.loc 1 555 36 is_stmt 1 discriminator 2 view .LVU391
 555:lvgl/lvgl/src/core/lv_obj_style.c ****         _lv_obj_style_t * obj_style = &obj->styles[i];
 1386              		.loc 1 555 37 is_stmt 0 discriminator 2 view .LVU392
 1387 003a 0134     		adds	r4, r4, #1
 1388              	.LVL124:
 1389              	.L85:
 555:lvgl/lvgl/src/core/lv_obj_style.c ****         _lv_obj_style_t * obj_style = &obj->styles[i];
 1390              		.loc 1 555 16 is_stmt 1 discriminator 1 view .LVU393
 555:lvgl/lvgl/src/core/lv_obj_style.c ****         _lv_obj_style_t * obj_style = &obj->styles[i];
 1391              		.loc 1 555 23 is_stmt 0 discriminator 1 view .LVU394
 1392 003c 738C     		ldrh	r3, [r6, #34]
 1393 003e C3F3C503 		ubfx	r3, r3, #3, #6
 555:lvgl/lvgl/src/core/lv_obj_style.c ****         _lv_obj_style_t * obj_style = &obj->styles[i];
 1394              		.loc 1 555 5 discriminator 1 view .LVU395
 1395 0042 A342     		cmp	r3, r4
 1396 0044 22D9     		bls	.L97
 1397              	.LBB87:
 556:lvgl/lvgl/src/core/lv_obj_style.c ****         if(obj_style->is_trans == false) break;
 1398              		.loc 1 556 9 is_stmt 1 view .LVU396
 556:lvgl/lvgl/src/core/lv_obj_style.c ****         if(obj_style->is_trans == false) break;
 1399              		.loc 1 556 43 is_stmt 0 view .LVU397
 1400 0046 F768     		ldr	r7, [r6, #12]
 556:lvgl/lvgl/src/core/lv_obj_style.c ****         if(obj_style->is_trans == false) break;
 1401              		.loc 1 556 51 view .LVU398
 1402 0048 4FEAC408 		lsl	r8, r4, #3
 556:lvgl/lvgl/src/core/lv_obj_style.c ****         if(obj_style->is_trans == false) break;
 1403              		.loc 1 556 27 view .LVU399
 1404 004c 07EBC403 		add	r3, r7, r4, lsl #3
 1405              	.LVL125:
 557:lvgl/lvgl/src/core/lv_obj_style.c ****         if(skip_trans) continue;
 1406              		.loc 1 557 9 is_stmt 1 view .LVU400
 557:lvgl/lvgl/src/core/lv_obj_style.c ****         if(skip_trans) continue;
 1407              		.loc 1 557 32 is_stmt 0 view .LVU401
 1408 0050 DA79     		ldrb	r2, [r3, #7]	@ zero_extendqisi2
 557:lvgl/lvgl/src/core/lv_obj_style.c ****         if(skip_trans) continue;
 1409              		.loc 1 557 11 view .LVU402
 1410 0052 12F0020F 		tst	r2, #2
ARM GAS  C:\Users\gx\AppData\Local\Temp\cc2sgWsf.s 			page 50


 1411 0056 55D0     		beq	.L94
 558:lvgl/lvgl/src/core/lv_obj_style.c **** 
 1412              		.loc 1 558 9 is_stmt 1 view .LVU403
 558:lvgl/lvgl/src/core/lv_obj_style.c **** 
 1413              		.loc 1 558 11 is_stmt 0 view .LVU404
 1414 0058 002D     		cmp	r5, #0
 1415 005a EED1     		bne	.L87
 560:lvgl/lvgl/src/core/lv_obj_style.c **** 
 1416              		.loc 1 560 9 is_stmt 1 view .LVU405
 560:lvgl/lvgl/src/core/lv_obj_style.c **** 
 1417              		.loc 1 560 75 is_stmt 0 view .LVU406
 1418 005c 5868     		ldr	r0, [r3, #4]
 560:lvgl/lvgl/src/core/lv_obj_style.c **** 
 1419              		.loc 1 560 30 view .LVU407
 1420 005e 20F07F40 		bic	r0, r0, #-16777216
 1421 0062 FFF7FEFF 		bl	lv_obj_style_get_selector_part
 1422              	.LVL126:
 562:lvgl/lvgl/src/core/lv_obj_style.c ****         if((obj_style->style->has_group & group) == 0) continue;
 1423              		.loc 1 562 9 is_stmt 1 view .LVU408
 562:lvgl/lvgl/src/core/lv_obj_style.c ****         if((obj_style->style->has_group & group) == 0) continue;
 1424              		.loc 1 562 11 is_stmt 0 view .LVU409
 1425 0066 4845     		cmp	r0, r9
 1426 0068 E7D1     		bne	.L87
 563:lvgl/lvgl/src/core/lv_obj_style.c ****         found = lv_style_get_prop(obj_style->style, prop, &value_tmp);
 1427              		.loc 1 563 9 is_stmt 1 view .LVU410
 563:lvgl/lvgl/src/core/lv_obj_style.c ****         found = lv_style_get_prop(obj_style->style, prop, &value_tmp);
 1428              		.loc 1 563 22 is_stmt 0 view .LVU411
 1429 006a 57F80800 		ldr	r0, [r7, r8]
 1430              	.LVL127:
 563:lvgl/lvgl/src/core/lv_obj_style.c ****         found = lv_style_get_prop(obj_style->style, prop, &value_tmp);
 1431              		.loc 1 563 29 view .LVU412
 1432 006e 8379     		ldrb	r3, [r0, #6]	@ zero_extendqisi2
 563:lvgl/lvgl/src/core/lv_obj_style.c ****         found = lv_style_get_prop(obj_style->style, prop, &value_tmp);
 1433              		.loc 1 563 11 view .LVU413
 1434 0070 13EA0A0F 		tst	r3, r10
 1435 0074 E1D0     		beq	.L87
 564:lvgl/lvgl/src/core/lv_obj_style.c ****         if(found) {
 1436              		.loc 1 564 9 is_stmt 1 view .LVU414
 564:lvgl/lvgl/src/core/lv_obj_style.c ****         if(found) {
 1437              		.loc 1 564 17 is_stmt 0 view .LVU415
 1438 0076 05AA     		add	r2, sp, #20
 1439 0078 0199     		ldr	r1, [sp, #4]
 1440 007a FFF7FEFF 		bl	lv_style_get_prop
 1441              	.LVL128:
 565:lvgl/lvgl/src/core/lv_obj_style.c ****             *v = value_tmp;
 1442              		.loc 1 565 9 is_stmt 1 view .LVU416
 565:lvgl/lvgl/src/core/lv_obj_style.c ****             *v = value_tmp;
 1443              		.loc 1 565 11 is_stmt 0 view .LVU417
 1444 007e 0028     		cmp	r0, #0
 1445 0080 DBD0     		beq	.L87
 566:lvgl/lvgl/src/core/lv_obj_style.c ****             return true;
 1446              		.loc 1 566 13 is_stmt 1 view .LVU418
 566:lvgl/lvgl/src/core/lv_obj_style.c ****             return true;
 1447              		.loc 1 566 16 is_stmt 0 view .LVU419
 1448 0082 059B     		ldr	r3, [sp, #20]
 1449 0084 029A     		ldr	r2, [sp, #8]
 1450 0086 1360     		str	r3, [r2]
ARM GAS  C:\Users\gx\AppData\Local\Temp\cc2sgWsf.s 			page 51


 567:lvgl/lvgl/src/core/lv_obj_style.c ****         }
 1451              		.loc 1 567 13 is_stmt 1 view .LVU420
 567:lvgl/lvgl/src/core/lv_obj_style.c ****         }
 1452              		.loc 1 567 20 is_stmt 0 view .LVU421
 1453 0088 0120     		movs	r0, #1
 1454              	.LVL129:
 567:lvgl/lvgl/src/core/lv_obj_style.c ****         }
 1455              		.loc 1 567 20 view .LVU422
 1456 008a 47E0     		b	.L88
 1457              	.LVL130:
 1458              	.L97:
 567:lvgl/lvgl/src/core/lv_obj_style.c ****         }
 1459              		.loc 1 567 20 view .LVU423
 1460              	.LBE87:
 1461 008c 4FF0FF33 		mov	r3, #-1
 1462 0090 0093     		str	r3, [sp]
 1463 0092 B046     		mov	r8, r6
 1464 0094 05E0     		b	.L92
 1465              	.LVL131:
 1466              	.L99:
 1467              	.LBB88:
 590:lvgl/lvgl/src/core/lv_obj_style.c ****                 return true;
 1468              		.loc 1 590 17 is_stmt 1 view .LVU424
 590:lvgl/lvgl/src/core/lv_obj_style.c ****                 return true;
 1469              		.loc 1 590 20 is_stmt 0 view .LVU425
 1470 0096 059B     		ldr	r3, [sp, #20]
 1471 0098 029A     		ldr	r2, [sp, #8]
 1472 009a 1360     		str	r3, [r2]
 591:lvgl/lvgl/src/core/lv_obj_style.c ****             }
 1473              		.loc 1 591 17 is_stmt 1 view .LVU426
 591:lvgl/lvgl/src/core/lv_obj_style.c ****             }
 1474              		.loc 1 591 24 is_stmt 0 view .LVU427
 1475 009c 0120     		movs	r0, #1
 1476              	.LVL132:
 591:lvgl/lvgl/src/core/lv_obj_style.c ****             }
 1477              		.loc 1 591 24 view .LVU428
 1478 009e 3DE0     		b	.L88
 1479              	.L90:
 591:lvgl/lvgl/src/core/lv_obj_style.c ****             }
 1480              		.loc 1 591 24 view .LVU429
 1481              	.LBE88:
 571:lvgl/lvgl/src/core/lv_obj_style.c ****         _lv_obj_style_t * obj_style = &obj->styles[i];
 1482              		.loc 1 571 31 is_stmt 1 view .LVU430
 571:lvgl/lvgl/src/core/lv_obj_style.c ****         _lv_obj_style_t * obj_style = &obj->styles[i];
 1483              		.loc 1 571 32 is_stmt 0 view .LVU431
 1484 00a0 0134     		adds	r4, r4, #1
 1485              	.LVL133:
 1486              	.L92:
 571:lvgl/lvgl/src/core/lv_obj_style.c ****         _lv_obj_style_t * obj_style = &obj->styles[i];
 1487              		.loc 1 571 11 is_stmt 1 discriminator 1 view .LVU432
 571:lvgl/lvgl/src/core/lv_obj_style.c ****         _lv_obj_style_t * obj_style = &obj->styles[i];
 1488              		.loc 1 571 18 is_stmt 0 discriminator 1 view .LVU433
 1489 00a2 B8F82230 		ldrh	r3, [r8, #34]
 1490 00a6 C3F3C503 		ubfx	r3, r3, #3, #6
 571:lvgl/lvgl/src/core/lv_obj_style.c ****         _lv_obj_style_t * obj_style = &obj->styles[i];
 1491              		.loc 1 571 5 discriminator 1 view .LVU434
 1492 00aa A342     		cmp	r3, r4
ARM GAS  C:\Users\gx\AppData\Local\Temp\cc2sgWsf.s 			page 52


 1493 00ac 2FD9     		bls	.L98
 1494              	.LBB89:
 572:lvgl/lvgl/src/core/lv_obj_style.c ****         lv_part_t part_act = lv_obj_style_get_selector_part(obj->styles[i].selector);
 1495              		.loc 1 572 9 is_stmt 1 view .LVU435
 572:lvgl/lvgl/src/core/lv_obj_style.c ****         lv_part_t part_act = lv_obj_style_get_selector_part(obj->styles[i].selector);
 1496              		.loc 1 572 43 is_stmt 0 view .LVU436
 1497 00ae D8F80C60 		ldr	r6, [r8, #12]
 572:lvgl/lvgl/src/core/lv_obj_style.c ****         lv_part_t part_act = lv_obj_style_get_selector_part(obj->styles[i].selector);
 1498              		.loc 1 572 27 view .LVU437
 1499 00b2 06EBC403 		add	r3, r6, r4, lsl #3
 1500              	.LVL134:
 573:lvgl/lvgl/src/core/lv_obj_style.c ****         lv_state_t state_act = lv_obj_style_get_selector_state(obj->styles[i].selector);
 1501              		.loc 1 573 9 is_stmt 1 view .LVU438
 573:lvgl/lvgl/src/core/lv_obj_style.c ****         lv_state_t state_act = lv_obj_style_get_selector_state(obj->styles[i].selector);
 1502              		.loc 1 573 75 is_stmt 0 view .LVU439
 1503 00b6 5D68     		ldr	r5, [r3, #4]
 1504 00b8 C5F31705 		ubfx	r5, r5, #0, #24
 573:lvgl/lvgl/src/core/lv_obj_style.c ****         lv_state_t state_act = lv_obj_style_get_selector_state(obj->styles[i].selector);
 1505              		.loc 1 573 30 view .LVU440
 1506 00bc 2846     		mov	r0, r5
 1507 00be FFF7FEFF 		bl	lv_obj_style_get_selector_part
 1508              	.LVL135:
 573:lvgl/lvgl/src/core/lv_obj_style.c ****         lv_state_t state_act = lv_obj_style_get_selector_state(obj->styles[i].selector);
 1509              		.loc 1 573 30 view .LVU441
 1510 00c2 0746     		mov	r7, r0
 1511              	.LVL136:
 574:lvgl/lvgl/src/core/lv_obj_style.c ****         if(part_act != part) continue;
 1512              		.loc 1 574 9 is_stmt 1 view .LVU442
 574:lvgl/lvgl/src/core/lv_obj_style.c ****         if(part_act != part) continue;
 1513              		.loc 1 574 32 is_stmt 0 view .LVU443
 1514 00c4 2846     		mov	r0, r5
 1515              	.LVL137:
 574:lvgl/lvgl/src/core/lv_obj_style.c ****         if(part_act != part) continue;
 1516              		.loc 1 574 32 view .LVU444
 1517 00c6 FFF7FEFF 		bl	lv_obj_style_get_selector_state
 1518              	.LVL138:
 1519 00ca 0546     		mov	r5, r0
 1520              	.LVL139:
 575:lvgl/lvgl/src/core/lv_obj_style.c **** 
 1521              		.loc 1 575 9 is_stmt 1 view .LVU445
 575:lvgl/lvgl/src/core/lv_obj_style.c **** 
 1522              		.loc 1 575 11 is_stmt 0 view .LVU446
 1523 00cc B945     		cmp	r9, r7
 1524 00ce E7D1     		bne	.L90
 577:lvgl/lvgl/src/core/lv_obj_style.c **** 
 1525              		.loc 1 577 9 is_stmt 1 view .LVU447
 577:lvgl/lvgl/src/core/lv_obj_style.c **** 
 1526              		.loc 1 577 22 is_stmt 0 view .LVU448
 1527 00d0 56F83400 		ldr	r0, [r6, r4, lsl #3]
 577:lvgl/lvgl/src/core/lv_obj_style.c **** 
 1528              		.loc 1 577 29 view .LVU449
 1529 00d4 8379     		ldrb	r3, [r0, #6]	@ zero_extendqisi2
 577:lvgl/lvgl/src/core/lv_obj_style.c **** 
 1530              		.loc 1 577 11 view .LVU450
 1531 00d6 13EA0A0F 		tst	r3, r10
 1532 00da E1D0     		beq	.L90
 581:lvgl/lvgl/src/core/lv_obj_style.c **** 
ARM GAS  C:\Users\gx\AppData\Local\Temp\cc2sgWsf.s 			page 53


 1533              		.loc 1 581 9 is_stmt 1 view .LVU451
 581:lvgl/lvgl/src/core/lv_obj_style.c **** 
 1534              		.loc 1 581 11 is_stmt 0 view .LVU452
 1535 00dc 1BEA050F 		tst	fp, r5
 1536 00e0 DED1     		bne	.L90
 584:lvgl/lvgl/src/core/lv_obj_style.c **** 
 1537              		.loc 1 584 9 is_stmt 1 view .LVU453
 584:lvgl/lvgl/src/core/lv_obj_style.c **** 
 1538              		.loc 1 584 11 is_stmt 0 view .LVU454
 1539 00e2 009B     		ldr	r3, [sp]
 1540 00e4 9D42     		cmp	r5, r3
 1541 00e6 DBDD     		ble	.L90
 586:lvgl/lvgl/src/core/lv_obj_style.c **** 
 1542              		.loc 1 586 9 is_stmt 1 view .LVU455
 586:lvgl/lvgl/src/core/lv_obj_style.c **** 
 1543              		.loc 1 586 17 is_stmt 0 view .LVU456
 1544 00e8 05AA     		add	r2, sp, #20
 1545 00ea 0199     		ldr	r1, [sp, #4]
 1546 00ec FFF7FEFF 		bl	lv_style_get_prop
 1547              	.LVL140:
 588:lvgl/lvgl/src/core/lv_obj_style.c ****             if(state_act == state) {
 1548              		.loc 1 588 9 is_stmt 1 view .LVU457
 588:lvgl/lvgl/src/core/lv_obj_style.c ****             if(state_act == state) {
 1549              		.loc 1 588 11 is_stmt 0 view .LVU458
 1550 00f0 0028     		cmp	r0, #0
 1551 00f2 D5D0     		beq	.L90
 589:lvgl/lvgl/src/core/lv_obj_style.c ****                 *v = value_tmp;
 1552              		.loc 1 589 13 is_stmt 1 view .LVU459
 589:lvgl/lvgl/src/core/lv_obj_style.c ****                 *v = value_tmp;
 1553              		.loc 1 589 15 is_stmt 0 view .LVU460
 1554 00f4 039B     		ldr	r3, [sp, #12]
 1555 00f6 AB42     		cmp	r3, r5
 1556 00f8 CDD0     		beq	.L99
 593:lvgl/lvgl/src/core/lv_obj_style.c ****                 weight = state_act;
 1557              		.loc 1 593 13 is_stmt 1 view .LVU461
 594:lvgl/lvgl/src/core/lv_obj_style.c ****                 *v = value_tmp;
 1558              		.loc 1 594 17 view .LVU462
 1559              	.LVL141:
 595:lvgl/lvgl/src/core/lv_obj_style.c ****             }
 1560              		.loc 1 595 17 view .LVU463
 595:lvgl/lvgl/src/core/lv_obj_style.c ****             }
 1561              		.loc 1 595 20 is_stmt 0 view .LVU464
 1562 00fa 059B     		ldr	r3, [sp, #20]
 1563 00fc 029A     		ldr	r2, [sp, #8]
 1564 00fe 1360     		str	r3, [r2]
 594:lvgl/lvgl/src/core/lv_obj_style.c ****                 *v = value_tmp;
 1565              		.loc 1 594 24 view .LVU465
 1566 0100 0095     		str	r5, [sp]
 1567 0102 CDE7     		b	.L90
 1568              	.LVL142:
 1569              	.L94:
 594:lvgl/lvgl/src/core/lv_obj_style.c ****                 *v = value_tmp;
 1570              		.loc 1 594 24 view .LVU466
 1571              	.LBE89:
 1572 0104 4FF0FF33 		mov	r3, #-1
 1573              	.LVL143:
 594:lvgl/lvgl/src/core/lv_obj_style.c ****                 *v = value_tmp;
ARM GAS  C:\Users\gx\AppData\Local\Temp\cc2sgWsf.s 			page 54


 1574              		.loc 1 594 24 view .LVU467
 1575 0108 0093     		str	r3, [sp]
 1576 010a B046     		mov	r8, r6
 1577 010c C9E7     		b	.L92
 1578              	.LVL144:
 1579              	.L98:
 600:lvgl/lvgl/src/core/lv_obj_style.c ****         *v = value_tmp;
 1580              		.loc 1 600 5 is_stmt 1 view .LVU468
 600:lvgl/lvgl/src/core/lv_obj_style.c ****         *v = value_tmp;
 1581              		.loc 1 600 7 is_stmt 0 view .LVU469
 1582 010e 009B     		ldr	r3, [sp]
 1583 0110 002B     		cmp	r3, #0
 1584 0112 06DB     		blt	.L95
 601:lvgl/lvgl/src/core/lv_obj_style.c ****         return true;
 1585              		.loc 1 601 9 is_stmt 1 view .LVU470
 601:lvgl/lvgl/src/core/lv_obj_style.c ****         return true;
 1586              		.loc 1 601 12 is_stmt 0 view .LVU471
 1587 0114 059B     		ldr	r3, [sp, #20]
 1588 0116 029A     		ldr	r2, [sp, #8]
 1589 0118 1360     		str	r3, [r2]
 602:lvgl/lvgl/src/core/lv_obj_style.c ****     }
 1590              		.loc 1 602 9 is_stmt 1 view .LVU472
 602:lvgl/lvgl/src/core/lv_obj_style.c ****     }
 1591              		.loc 1 602 16 is_stmt 0 view .LVU473
 1592 011a 0120     		movs	r0, #1
 1593              	.LVL145:
 1594              	.L88:
 605:lvgl/lvgl/src/core/lv_obj_style.c **** 
 1595              		.loc 1 605 1 view .LVU474
 1596 011c 07B0     		add	sp, sp, #28
 1597              	.LCFI19:
 1598              		.cfi_remember_state
 1599              		.cfi_def_cfa_offset 36
 1600              		@ sp needed
 1601 011e BDE8F08F 		pop	{r4, r5, r6, r7, r8, r9, r10, fp, pc}
 1602              	.LVL146:
 1603              	.L95:
 1604              	.LCFI20:
 1605              		.cfi_restore_state
 604:lvgl/lvgl/src/core/lv_obj_style.c **** }
 1606              		.loc 1 604 17 view .LVU475
 1607 0122 0020     		movs	r0, #0
 1608 0124 FAE7     		b	.L88
 1609              		.cfi_endproc
 1610              	.LFE177:
 1612              		.section	.text.lv_obj_get_style_prop,"ax",%progbits
 1613              		.align	1
 1614              		.global	lv_obj_get_style_prop
 1615              		.syntax unified
 1616              		.thumb
 1617              		.thumb_func
 1618              		.fpu fpv4-sp-d16
 1620              	lv_obj_get_style_prop:
 1621              	.LVL147:
 1622              	.LFB164:
 213:lvgl/lvgl/src/core/lv_obj_style.c ****     lv_style_value_t value_act;
 1623              		.loc 1 213 1 is_stmt 1 view -0
ARM GAS  C:\Users\gx\AppData\Local\Temp\cc2sgWsf.s 			page 55


 1624              		.cfi_startproc
 1625              		@ args = 0, pretend = 0, frame = 8
 1626              		@ frame_needed = 0, uses_anonymous_args = 0
 213:lvgl/lvgl/src/core/lv_obj_style.c ****     lv_style_value_t value_act;
 1627              		.loc 1 213 1 is_stmt 0 view .LVU477
 1628 0000 2DE9F043 		push	{r4, r5, r6, r7, r8, r9, lr}
 1629              	.LCFI21:
 1630              		.cfi_def_cfa_offset 28
 1631              		.cfi_offset 4, -28
 1632              		.cfi_offset 5, -24
 1633              		.cfi_offset 6, -20
 1634              		.cfi_offset 7, -16
 1635              		.cfi_offset 8, -12
 1636              		.cfi_offset 9, -8
 1637              		.cfi_offset 14, -4
 1638 0004 83B0     		sub	sp, sp, #12
 1639              	.LCFI22:
 1640              		.cfi_def_cfa_offset 40
 1641 0006 0446     		mov	r4, r0
 1642 0008 0D46     		mov	r5, r1
 1643 000a 1646     		mov	r6, r2
 214:lvgl/lvgl/src/core/lv_obj_style.c ****     bool inherit = prop & LV_STYLE_PROP_INHERIT ? true : false;
 1644              		.loc 1 214 5 is_stmt 1 view .LVU478
 215:lvgl/lvgl/src/core/lv_obj_style.c ****     bool filter = prop & LV_STYLE_PROP_FILTER ? true : false;
 1645              		.loc 1 215 5 view .LVU479
 215:lvgl/lvgl/src/core/lv_obj_style.c ****     bool filter = prop & LV_STYLE_PROP_FILTER ? true : false;
 1646              		.loc 1 215 56 is_stmt 0 view .LVU480
 1647 000c C2F38028 		ubfx	r8, r2, #10, #1
 1648              	.LVL148:
 216:lvgl/lvgl/src/core/lv_obj_style.c ****     if(filter) {
 1649              		.loc 1 216 5 is_stmt 1 view .LVU481
 216:lvgl/lvgl/src/core/lv_obj_style.c ****     if(filter) {
 1650              		.loc 1 216 54 is_stmt 0 view .LVU482
 1651 0010 C2F38039 		ubfx	r9, r2, #14, #1
 1652              	.LVL149:
 217:lvgl/lvgl/src/core/lv_obj_style.c ****         prop &= ~LV_STYLE_PROP_FILTER;
 1653              		.loc 1 217 5 is_stmt 1 view .LVU483
 217:lvgl/lvgl/src/core/lv_obj_style.c ****         prop &= ~LV_STYLE_PROP_FILTER;
 1654              		.loc 1 217 7 is_stmt 0 view .LVU484
 1655 0014 12F4804F 		tst	r2, #16384
 1656 0018 02D0     		beq	.L101
 218:lvgl/lvgl/src/core/lv_obj_style.c ****     }
 1657              		.loc 1 218 9 is_stmt 1 view .LVU485
 218:lvgl/lvgl/src/core/lv_obj_style.c ****     }
 1658              		.loc 1 218 14 is_stmt 0 view .LVU486
 1659 001a 22F48046 		bic	r6, r2, #16384
 1660 001e B6B2     		uxth	r6, r6
 1661              	.LVL150:
 1662              	.L101:
 220:lvgl/lvgl/src/core/lv_obj_style.c ****     while(obj) {
 1663              		.loc 1 220 5 is_stmt 1 view .LVU487
 221:lvgl/lvgl/src/core/lv_obj_style.c ****         found = get_prop_core(obj, part, prop, &value_act);
 1664              		.loc 1 221 5 view .LVU488
 220:lvgl/lvgl/src/core/lv_obj_style.c ****     while(obj) {
 1665              		.loc 1 220 10 is_stmt 0 view .LVU489
 1666 0020 0027     		movs	r7, #0
 221:lvgl/lvgl/src/core/lv_obj_style.c ****         found = get_prop_core(obj, part, prop, &value_act);
ARM GAS  C:\Users\gx\AppData\Local\Temp\cc2sgWsf.s 			page 56


 1667              		.loc 1 221 10 view .LVU490
 1668 0022 00E0     		b	.L102
 1669              	.LVL151:
 1670              	.L117:
 228:lvgl/lvgl/src/core/lv_obj_style.c ****             continue;
 1671              		.loc 1 228 18 view .LVU491
 1672 0024 0025     		movs	r5, #0
 1673              	.LVL152:
 1674              	.L102:
 221:lvgl/lvgl/src/core/lv_obj_style.c ****         found = get_prop_core(obj, part, prop, &value_act);
 1675              		.loc 1 221 10 is_stmt 1 view .LVU492
 1676 0026 8CB1     		cbz	r4, .L103
 222:lvgl/lvgl/src/core/lv_obj_style.c ****         if(found) break;
 1677              		.loc 1 222 9 view .LVU493
 222:lvgl/lvgl/src/core/lv_obj_style.c ****         if(found) break;
 1678              		.loc 1 222 17 is_stmt 0 view .LVU494
 1679 0028 01AB     		add	r3, sp, #4
 1680 002a 3246     		mov	r2, r6
 1681 002c 2946     		mov	r1, r5
 1682 002e 2046     		mov	r0, r4
 1683 0030 FFF7FEFF 		bl	get_prop_core
 1684              	.LVL153:
 223:lvgl/lvgl/src/core/lv_obj_style.c ****         if(!inherit) break;
 1685              		.loc 1 223 9 is_stmt 1 view .LVU495
 223:lvgl/lvgl/src/core/lv_obj_style.c ****         if(!inherit) break;
 1686              		.loc 1 223 11 is_stmt 0 view .LVU496
 1687 0034 0746     		mov	r7, r0
 1688 0036 48B9     		cbnz	r0, .L103
 224:lvgl/lvgl/src/core/lv_obj_style.c **** 
 1689              		.loc 1 224 9 is_stmt 1 view .LVU497
 224:lvgl/lvgl/src/core/lv_obj_style.c **** 
 1690              		.loc 1 224 11 is_stmt 0 view .LVU498
 1691 0038 B8F1000F 		cmp	r8, #0
 1692 003c 06D0     		beq	.L103
 227:lvgl/lvgl/src/core/lv_obj_style.c ****             part = LV_PART_MAIN;
 1693              		.loc 1 227 9 is_stmt 1 view .LVU499
 227:lvgl/lvgl/src/core/lv_obj_style.c ****             part = LV_PART_MAIN;
 1694              		.loc 1 227 11 is_stmt 0 view .LVU500
 1695 003e 002D     		cmp	r5, #0
 1696 0040 F0D1     		bne	.L117
 233:lvgl/lvgl/src/core/lv_obj_style.c ****     }
 1697              		.loc 1 233 9 is_stmt 1 view .LVU501
 233:lvgl/lvgl/src/core/lv_obj_style.c ****     }
 1698              		.loc 1 233 15 is_stmt 0 view .LVU502
 1699 0042 2046     		mov	r0, r4
 1700              	.LVL154:
 233:lvgl/lvgl/src/core/lv_obj_style.c ****     }
 1701              		.loc 1 233 15 view .LVU503
 1702 0044 FFF7FEFF 		bl	lv_obj_get_parent
 1703              	.LVL155:
 1704 0048 0446     		mov	r4, r0
 1705              	.LVL156:
 233:lvgl/lvgl/src/core/lv_obj_style.c ****     }
 1706              		.loc 1 233 15 view .LVU504
 1707 004a ECE7     		b	.L102
 1708              	.LVL157:
 1709              	.L103:
ARM GAS  C:\Users\gx\AppData\Local\Temp\cc2sgWsf.s 			page 57


 236:lvgl/lvgl/src/core/lv_obj_style.c ****         if(part == LV_PART_MAIN && (prop == LV_STYLE_WIDTH || prop == LV_STYLE_HEIGHT)) {
 1710              		.loc 1 236 5 is_stmt 1 view .LVU505
 236:lvgl/lvgl/src/core/lv_obj_style.c ****         if(part == LV_PART_MAIN && (prop == LV_STYLE_WIDTH || prop == LV_STYLE_HEIGHT)) {
 1711              		.loc 1 236 7 is_stmt 0 view .LVU506
 1712 004c 67B9     		cbnz	r7, .L106
 237:lvgl/lvgl/src/core/lv_obj_style.c ****             const lv_obj_class_t * cls = obj->class_p;
 1713              		.loc 1 237 9 is_stmt 1 view .LVU507
 237:lvgl/lvgl/src/core/lv_obj_style.c ****             const lv_obj_class_t * cls = obj->class_p;
 1714              		.loc 1 237 11 is_stmt 0 view .LVU508
 1715 004e 3DB9     		cbnz	r5, .L107
 237:lvgl/lvgl/src/core/lv_obj_style.c ****             const lv_obj_class_t * cls = obj->class_p;
 1716              		.loc 1 237 33 discriminator 1 view .LVU509
 1717 0050 41F20103 		movw	r3, #4097
 1718 0054 9E42     		cmp	r6, r3
 1719 0056 0ED0     		beq	.L108
 237:lvgl/lvgl/src/core/lv_obj_style.c ****             const lv_obj_class_t * cls = obj->class_p;
 1720              		.loc 1 237 60 discriminator 2 view .LVU510
 1721 0058 41F20403 		movw	r3, #4100
 1722 005c 9E42     		cmp	r6, r3
 1723 005e 0AD0     		beq	.L108
 1724              	.L107:
 250:lvgl/lvgl/src/core/lv_obj_style.c ****         }
 1725              		.loc 1 250 13 is_stmt 1 view .LVU511
 250:lvgl/lvgl/src/core/lv_obj_style.c ****         }
 1726              		.loc 1 250 25 is_stmt 0 view .LVU512
 1727 0060 3046     		mov	r0, r6
 1728 0062 FFF7FEFF 		bl	lv_style_prop_get_default
 1729              	.LVL158:
 1730 0066 0190     		str	r0, [sp, #4]
 1731              	.L106:
 253:lvgl/lvgl/src/core/lv_obj_style.c ****     return value_act;
 1732              		.loc 1 253 5 is_stmt 1 view .LVU513
 253:lvgl/lvgl/src/core/lv_obj_style.c ****     return value_act;
 1733              		.loc 1 253 7 is_stmt 0 view .LVU514
 1734 0068 B9F1000F 		cmp	r9, #0
 1735 006c 1DD1     		bne	.L119
 1736              	.L116:
 254:lvgl/lvgl/src/core/lv_obj_style.c **** }
 1737              		.loc 1 254 5 is_stmt 1 view .LVU515
 255:lvgl/lvgl/src/core/lv_obj_style.c **** 
 1738              		.loc 1 255 1 is_stmt 0 view .LVU516
 1739 006e 0198     		ldr	r0, [sp, #4]
 1740 0070 03B0     		add	sp, sp, #12
 1741              	.LCFI23:
 1742              		.cfi_remember_state
 1743              		.cfi_def_cfa_offset 28
 1744              		@ sp needed
 1745 0072 BDE8F083 		pop	{r4, r5, r6, r7, r8, r9, pc}
 1746              	.LVL159:
 1747              	.L108:
 1748              	.LCFI24:
 1749              		.cfi_restore_state
 1750              	.LBB90:
 238:lvgl/lvgl/src/core/lv_obj_style.c ****             while(cls) {
 1751              		.loc 1 238 13 is_stmt 1 view .LVU517
 238:lvgl/lvgl/src/core/lv_obj_style.c ****             while(cls) {
 1752              		.loc 1 238 36 is_stmt 0 view .LVU518
ARM GAS  C:\Users\gx\AppData\Local\Temp\cc2sgWsf.s 			page 58


 1753 0076 2368     		ldr	r3, [r4]
 1754              	.LVL160:
 239:lvgl/lvgl/src/core/lv_obj_style.c ****                 if(prop == LV_STYLE_WIDTH) {
 1755              		.loc 1 239 13 is_stmt 1 view .LVU519
 239:lvgl/lvgl/src/core/lv_obj_style.c ****                 if(prop == LV_STYLE_WIDTH) {
 1756              		.loc 1 239 18 is_stmt 0 view .LVU520
 1757 0078 03E0     		b	.L109
 1758              	.L120:
 241:lvgl/lvgl/src/core/lv_obj_style.c ****                 } else {
 1759              		.loc 1 241 21 is_stmt 1 view .LVU521
 241:lvgl/lvgl/src/core/lv_obj_style.c ****                 } else {
 1760              		.loc 1 241 27 is_stmt 0 view .LVU522
 1761 007a B3F91420 		ldrsh	r2, [r3, #20]
 241:lvgl/lvgl/src/core/lv_obj_style.c ****                 } else {
 1762              		.loc 1 241 23 view .LVU523
 1763 007e 4AB9     		cbnz	r2, .L111
 1764              	.L112:
 245:lvgl/lvgl/src/core/lv_obj_style.c ****             }
 1765              		.loc 1 245 17 is_stmt 1 view .LVU524
 245:lvgl/lvgl/src/core/lv_obj_style.c ****             }
 1766              		.loc 1 245 21 is_stmt 0 view .LVU525
 1767 0080 1B68     		ldr	r3, [r3]
 1768              	.LVL161:
 1769              	.L109:
 239:lvgl/lvgl/src/core/lv_obj_style.c ****                 if(prop == LV_STYLE_WIDTH) {
 1770              		.loc 1 239 18 is_stmt 1 view .LVU526
 1771 0082 3BB1     		cbz	r3, .L111
 240:lvgl/lvgl/src/core/lv_obj_style.c ****                     if(cls->width_def != 0) break;
 1772              		.loc 1 240 17 view .LVU527
 240:lvgl/lvgl/src/core/lv_obj_style.c ****                     if(cls->width_def != 0) break;
 1773              		.loc 1 240 19 is_stmt 0 view .LVU528
 1774 0084 41F20102 		movw	r2, #4097
 1775 0088 9642     		cmp	r6, r2
 1776 008a F6D0     		beq	.L120
 243:lvgl/lvgl/src/core/lv_obj_style.c ****                 }
 1777              		.loc 1 243 21 is_stmt 1 view .LVU529
 243:lvgl/lvgl/src/core/lv_obj_style.c ****                 }
 1778              		.loc 1 243 27 is_stmt 0 view .LVU530
 1779 008c B3F91620 		ldrsh	r2, [r3, #22]
 243:lvgl/lvgl/src/core/lv_obj_style.c ****                 }
 1780              		.loc 1 243 23 view .LVU531
 1781 0090 002A     		cmp	r2, #0
 1782 0092 F5D0     		beq	.L112
 1783              	.L111:
 248:lvgl/lvgl/src/core/lv_obj_style.c ****         } else {
 1784              		.loc 1 248 13 is_stmt 1 view .LVU532
 248:lvgl/lvgl/src/core/lv_obj_style.c ****         } else {
 1785              		.loc 1 248 69 is_stmt 0 view .LVU533
 1786 0094 41F20102 		movw	r2, #4097
 1787 0098 9642     		cmp	r6, r2
 1788 009a 03D0     		beq	.L121
 248:lvgl/lvgl/src/core/lv_obj_style.c ****         } else {
 1789              		.loc 1 248 74 discriminator 2 view .LVU534
 1790 009c B3F91630 		ldrsh	r3, [r3, #22]
 1791              	.LVL162:
 1792              	.L115:
 248:lvgl/lvgl/src/core/lv_obj_style.c ****         } else {
ARM GAS  C:\Users\gx\AppData\Local\Temp\cc2sgWsf.s 			page 59


 1793              		.loc 1 248 27 discriminator 4 view .LVU535
 1794 00a0 0193     		str	r3, [sp, #4]
 1795              	.LBE90:
 237:lvgl/lvgl/src/core/lv_obj_style.c ****             const lv_obj_class_t * cls = obj->class_p;
 1796              		.loc 1 237 89 discriminator 4 view .LVU536
 1797 00a2 E1E7     		b	.L106
 1798              	.LVL163:
 1799              	.L121:
 1800              	.LBB91:
 248:lvgl/lvgl/src/core/lv_obj_style.c ****         } else {
 1801              		.loc 1 248 57 discriminator 1 view .LVU537
 1802 00a4 B3F91430 		ldrsh	r3, [r3, #20]
 1803              	.LVL164:
 248:lvgl/lvgl/src/core/lv_obj_style.c ****         } else {
 1804              		.loc 1 248 57 discriminator 1 view .LVU538
 1805 00a8 FAE7     		b	.L115
 1806              	.L119:
 248:lvgl/lvgl/src/core/lv_obj_style.c ****         } else {
 1807              		.loc 1 248 57 discriminator 1 view .LVU539
 1808              	.LBE91:
 253:lvgl/lvgl/src/core/lv_obj_style.c ****     return value_act;
 1809              		.loc 1 253 16 is_stmt 1 discriminator 1 view .LVU540
 253:lvgl/lvgl/src/core/lv_obj_style.c ****     return value_act;
 1810              		.loc 1 253 28 is_stmt 0 discriminator 1 view .LVU541
 1811 00aa 019A     		ldr	r2, [sp, #4]
 1812 00ac 2946     		mov	r1, r5
 1813 00ae 2046     		mov	r0, r4
 1814 00b0 FFF7FEFF 		bl	apply_color_filter
 1815              	.LVL165:
 1816 00b4 0190     		str	r0, [sp, #4]
 1817 00b6 DAE7     		b	.L116
 1818              		.cfi_endproc
 1819              	.LFE164:
 1821              		.section	.text.apply_color_filter,"ax",%progbits
 1822              		.align	1
 1823              		.syntax unified
 1824              		.thumb
 1825              		.thumb_func
 1826              		.fpu fpv4-sp-d16
 1828              	apply_color_filter:
 1829              	.LVL166:
 1830              	.LFB178:
 608:lvgl/lvgl/src/core/lv_obj_style.c ****     if(obj == NULL) return v;
 1831              		.loc 1 608 1 is_stmt 1 view -0
 1832              		.cfi_startproc
 1833              		@ args = 0, pretend = 0, frame = 0
 1834              		@ frame_needed = 0, uses_anonymous_args = 0
 608:lvgl/lvgl/src/core/lv_obj_style.c ****     if(obj == NULL) return v;
 1835              		.loc 1 608 1 is_stmt 0 view .LVU543
 1836 0000 F8B5     		push	{r3, r4, r5, r6, r7, lr}
 1837              	.LCFI25:
 1838              		.cfi_def_cfa_offset 24
 1839              		.cfi_offset 3, -24
 1840              		.cfi_offset 4, -20
 1841              		.cfi_offset 5, -16
 1842              		.cfi_offset 6, -12
 1843              		.cfi_offset 7, -8
ARM GAS  C:\Users\gx\AppData\Local\Temp\cc2sgWsf.s 			page 60


 1844              		.cfi_offset 14, -4
 1845 0002 1446     		mov	r4, r2
 1846              	.LVL167:
 609:lvgl/lvgl/src/core/lv_obj_style.c ****     const lv_color_filter_dsc_t * f = lv_obj_get_style_color_filter_dsc(obj, part);
 1847              		.loc 1 609 5 is_stmt 1 view .LVU544
 609:lvgl/lvgl/src/core/lv_obj_style.c ****     const lv_color_filter_dsc_t * f = lv_obj_get_style_color_filter_dsc(obj, part);
 1848              		.loc 1 609 7 is_stmt 0 view .LVU545
 1849 0004 C0B1     		cbz	r0, .L127
 1850 0006 0D46     		mov	r5, r1
 1851 0008 0646     		mov	r6, r0
 610:lvgl/lvgl/src/core/lv_obj_style.c ****     if(f && f->filter_cb) {
 1852              		.loc 1 610 5 is_stmt 1 view .LVU546
 1853              	.LVL168:
 1854              	.LBB92:
 1855              	.LBI92:
 1856              		.file 3 "lvgl/lvgl/src/core/lv_obj_style_gen.h"
   1:lvgl/lvgl/src/core/lv_obj_style_gen.h **** static inline lv_coord_t lv_obj_get_style_width(const struct _lv_obj_t * obj, uint32_t part)
   2:lvgl/lvgl/src/core/lv_obj_style_gen.h **** {
   3:lvgl/lvgl/src/core/lv_obj_style_gen.h ****     lv_style_value_t v = lv_obj_get_style_prop(obj, part, LV_STYLE_WIDTH);
   4:lvgl/lvgl/src/core/lv_obj_style_gen.h ****     return (lv_coord_t)v.num;
   5:lvgl/lvgl/src/core/lv_obj_style_gen.h **** }
   6:lvgl/lvgl/src/core/lv_obj_style_gen.h **** 
   7:lvgl/lvgl/src/core/lv_obj_style_gen.h **** static inline lv_coord_t lv_obj_get_style_min_width(const struct _lv_obj_t * obj, uint32_t part)
   8:lvgl/lvgl/src/core/lv_obj_style_gen.h **** {
   9:lvgl/lvgl/src/core/lv_obj_style_gen.h ****     lv_style_value_t v = lv_obj_get_style_prop(obj, part, LV_STYLE_MIN_WIDTH);
  10:lvgl/lvgl/src/core/lv_obj_style_gen.h ****     return (lv_coord_t)v.num;
  11:lvgl/lvgl/src/core/lv_obj_style_gen.h **** }
  12:lvgl/lvgl/src/core/lv_obj_style_gen.h **** 
  13:lvgl/lvgl/src/core/lv_obj_style_gen.h **** static inline lv_coord_t lv_obj_get_style_max_width(const struct _lv_obj_t * obj, uint32_t part)
  14:lvgl/lvgl/src/core/lv_obj_style_gen.h **** {
  15:lvgl/lvgl/src/core/lv_obj_style_gen.h ****     lv_style_value_t v = lv_obj_get_style_prop(obj, part, LV_STYLE_MAX_WIDTH);
  16:lvgl/lvgl/src/core/lv_obj_style_gen.h ****     return (lv_coord_t)v.num;
  17:lvgl/lvgl/src/core/lv_obj_style_gen.h **** }
  18:lvgl/lvgl/src/core/lv_obj_style_gen.h **** 
  19:lvgl/lvgl/src/core/lv_obj_style_gen.h **** static inline lv_coord_t lv_obj_get_style_height(const struct _lv_obj_t * obj, uint32_t part)
  20:lvgl/lvgl/src/core/lv_obj_style_gen.h **** {
  21:lvgl/lvgl/src/core/lv_obj_style_gen.h ****     lv_style_value_t v = lv_obj_get_style_prop(obj, part, LV_STYLE_HEIGHT);
  22:lvgl/lvgl/src/core/lv_obj_style_gen.h ****     return (lv_coord_t)v.num;
  23:lvgl/lvgl/src/core/lv_obj_style_gen.h **** }
  24:lvgl/lvgl/src/core/lv_obj_style_gen.h **** 
  25:lvgl/lvgl/src/core/lv_obj_style_gen.h **** static inline lv_coord_t lv_obj_get_style_min_height(const struct _lv_obj_t * obj, uint32_t part)
  26:lvgl/lvgl/src/core/lv_obj_style_gen.h **** {
  27:lvgl/lvgl/src/core/lv_obj_style_gen.h ****     lv_style_value_t v = lv_obj_get_style_prop(obj, part, LV_STYLE_MIN_HEIGHT);
  28:lvgl/lvgl/src/core/lv_obj_style_gen.h ****     return (lv_coord_t)v.num;
  29:lvgl/lvgl/src/core/lv_obj_style_gen.h **** }
  30:lvgl/lvgl/src/core/lv_obj_style_gen.h **** 
  31:lvgl/lvgl/src/core/lv_obj_style_gen.h **** static inline lv_coord_t lv_obj_get_style_max_height(const struct _lv_obj_t * obj, uint32_t part)
  32:lvgl/lvgl/src/core/lv_obj_style_gen.h **** {
  33:lvgl/lvgl/src/core/lv_obj_style_gen.h ****     lv_style_value_t v = lv_obj_get_style_prop(obj, part, LV_STYLE_MAX_HEIGHT);
  34:lvgl/lvgl/src/core/lv_obj_style_gen.h ****     return (lv_coord_t)v.num;
  35:lvgl/lvgl/src/core/lv_obj_style_gen.h **** }
  36:lvgl/lvgl/src/core/lv_obj_style_gen.h **** 
  37:lvgl/lvgl/src/core/lv_obj_style_gen.h **** static inline lv_coord_t lv_obj_get_style_x(const struct _lv_obj_t * obj, uint32_t part)
  38:lvgl/lvgl/src/core/lv_obj_style_gen.h **** {
  39:lvgl/lvgl/src/core/lv_obj_style_gen.h ****     lv_style_value_t v = lv_obj_get_style_prop(obj, part, LV_STYLE_X);
  40:lvgl/lvgl/src/core/lv_obj_style_gen.h ****     return (lv_coord_t)v.num;
  41:lvgl/lvgl/src/core/lv_obj_style_gen.h **** }
ARM GAS  C:\Users\gx\AppData\Local\Temp\cc2sgWsf.s 			page 61


  42:lvgl/lvgl/src/core/lv_obj_style_gen.h **** 
  43:lvgl/lvgl/src/core/lv_obj_style_gen.h **** static inline lv_coord_t lv_obj_get_style_y(const struct _lv_obj_t * obj, uint32_t part)
  44:lvgl/lvgl/src/core/lv_obj_style_gen.h **** {
  45:lvgl/lvgl/src/core/lv_obj_style_gen.h ****     lv_style_value_t v = lv_obj_get_style_prop(obj, part, LV_STYLE_Y);
  46:lvgl/lvgl/src/core/lv_obj_style_gen.h ****     return (lv_coord_t)v.num;
  47:lvgl/lvgl/src/core/lv_obj_style_gen.h **** }
  48:lvgl/lvgl/src/core/lv_obj_style_gen.h **** 
  49:lvgl/lvgl/src/core/lv_obj_style_gen.h **** static inline lv_align_t lv_obj_get_style_align(const struct _lv_obj_t * obj, uint32_t part)
  50:lvgl/lvgl/src/core/lv_obj_style_gen.h **** {
  51:lvgl/lvgl/src/core/lv_obj_style_gen.h ****     lv_style_value_t v = lv_obj_get_style_prop(obj, part, LV_STYLE_ALIGN);
  52:lvgl/lvgl/src/core/lv_obj_style_gen.h ****     return (lv_align_t)v.num;
  53:lvgl/lvgl/src/core/lv_obj_style_gen.h **** }
  54:lvgl/lvgl/src/core/lv_obj_style_gen.h **** 
  55:lvgl/lvgl/src/core/lv_obj_style_gen.h **** static inline lv_coord_t lv_obj_get_style_transform_width(const struct _lv_obj_t * obj, uint32_t pa
  56:lvgl/lvgl/src/core/lv_obj_style_gen.h **** {
  57:lvgl/lvgl/src/core/lv_obj_style_gen.h ****     lv_style_value_t v = lv_obj_get_style_prop(obj, part, LV_STYLE_TRANSFORM_WIDTH);
  58:lvgl/lvgl/src/core/lv_obj_style_gen.h ****     return (lv_coord_t)v.num;
  59:lvgl/lvgl/src/core/lv_obj_style_gen.h **** }
  60:lvgl/lvgl/src/core/lv_obj_style_gen.h **** 
  61:lvgl/lvgl/src/core/lv_obj_style_gen.h **** static inline lv_coord_t lv_obj_get_style_transform_height(const struct _lv_obj_t * obj, uint32_t p
  62:lvgl/lvgl/src/core/lv_obj_style_gen.h **** {
  63:lvgl/lvgl/src/core/lv_obj_style_gen.h ****     lv_style_value_t v = lv_obj_get_style_prop(obj, part, LV_STYLE_TRANSFORM_HEIGHT);
  64:lvgl/lvgl/src/core/lv_obj_style_gen.h ****     return (lv_coord_t)v.num;
  65:lvgl/lvgl/src/core/lv_obj_style_gen.h **** }
  66:lvgl/lvgl/src/core/lv_obj_style_gen.h **** 
  67:lvgl/lvgl/src/core/lv_obj_style_gen.h **** static inline lv_coord_t lv_obj_get_style_translate_x(const struct _lv_obj_t * obj, uint32_t part)
  68:lvgl/lvgl/src/core/lv_obj_style_gen.h **** {
  69:lvgl/lvgl/src/core/lv_obj_style_gen.h ****     lv_style_value_t v = lv_obj_get_style_prop(obj, part, LV_STYLE_TRANSLATE_X);
  70:lvgl/lvgl/src/core/lv_obj_style_gen.h ****     return (lv_coord_t)v.num;
  71:lvgl/lvgl/src/core/lv_obj_style_gen.h **** }
  72:lvgl/lvgl/src/core/lv_obj_style_gen.h **** 
  73:lvgl/lvgl/src/core/lv_obj_style_gen.h **** static inline lv_coord_t lv_obj_get_style_translate_y(const struct _lv_obj_t * obj, uint32_t part)
  74:lvgl/lvgl/src/core/lv_obj_style_gen.h **** {
  75:lvgl/lvgl/src/core/lv_obj_style_gen.h ****     lv_style_value_t v = lv_obj_get_style_prop(obj, part, LV_STYLE_TRANSLATE_Y);
  76:lvgl/lvgl/src/core/lv_obj_style_gen.h ****     return (lv_coord_t)v.num;
  77:lvgl/lvgl/src/core/lv_obj_style_gen.h **** }
  78:lvgl/lvgl/src/core/lv_obj_style_gen.h **** 
  79:lvgl/lvgl/src/core/lv_obj_style_gen.h **** static inline lv_coord_t lv_obj_get_style_transform_zoom(const struct _lv_obj_t * obj, uint32_t par
  80:lvgl/lvgl/src/core/lv_obj_style_gen.h **** {
  81:lvgl/lvgl/src/core/lv_obj_style_gen.h ****     lv_style_value_t v = lv_obj_get_style_prop(obj, part, LV_STYLE_TRANSFORM_ZOOM);
  82:lvgl/lvgl/src/core/lv_obj_style_gen.h ****     return (lv_coord_t)v.num;
  83:lvgl/lvgl/src/core/lv_obj_style_gen.h **** }
  84:lvgl/lvgl/src/core/lv_obj_style_gen.h **** 
  85:lvgl/lvgl/src/core/lv_obj_style_gen.h **** static inline lv_coord_t lv_obj_get_style_transform_angle(const struct _lv_obj_t * obj, uint32_t pa
  86:lvgl/lvgl/src/core/lv_obj_style_gen.h **** {
  87:lvgl/lvgl/src/core/lv_obj_style_gen.h ****     lv_style_value_t v = lv_obj_get_style_prop(obj, part, LV_STYLE_TRANSFORM_ANGLE);
  88:lvgl/lvgl/src/core/lv_obj_style_gen.h ****     return (lv_coord_t)v.num;
  89:lvgl/lvgl/src/core/lv_obj_style_gen.h **** }
  90:lvgl/lvgl/src/core/lv_obj_style_gen.h **** 
  91:lvgl/lvgl/src/core/lv_obj_style_gen.h **** static inline lv_coord_t lv_obj_get_style_pad_top(const struct _lv_obj_t * obj, uint32_t part)
  92:lvgl/lvgl/src/core/lv_obj_style_gen.h **** {
  93:lvgl/lvgl/src/core/lv_obj_style_gen.h ****     lv_style_value_t v = lv_obj_get_style_prop(obj, part, LV_STYLE_PAD_TOP);
  94:lvgl/lvgl/src/core/lv_obj_style_gen.h ****     return (lv_coord_t)v.num;
  95:lvgl/lvgl/src/core/lv_obj_style_gen.h **** }
  96:lvgl/lvgl/src/core/lv_obj_style_gen.h **** 
  97:lvgl/lvgl/src/core/lv_obj_style_gen.h **** static inline lv_coord_t lv_obj_get_style_pad_bottom(const struct _lv_obj_t * obj, uint32_t part)
  98:lvgl/lvgl/src/core/lv_obj_style_gen.h **** {
ARM GAS  C:\Users\gx\AppData\Local\Temp\cc2sgWsf.s 			page 62


  99:lvgl/lvgl/src/core/lv_obj_style_gen.h ****     lv_style_value_t v = lv_obj_get_style_prop(obj, part, LV_STYLE_PAD_BOTTOM);
 100:lvgl/lvgl/src/core/lv_obj_style_gen.h ****     return (lv_coord_t)v.num;
 101:lvgl/lvgl/src/core/lv_obj_style_gen.h **** }
 102:lvgl/lvgl/src/core/lv_obj_style_gen.h **** 
 103:lvgl/lvgl/src/core/lv_obj_style_gen.h **** static inline lv_coord_t lv_obj_get_style_pad_left(const struct _lv_obj_t * obj, uint32_t part)
 104:lvgl/lvgl/src/core/lv_obj_style_gen.h **** {
 105:lvgl/lvgl/src/core/lv_obj_style_gen.h ****     lv_style_value_t v = lv_obj_get_style_prop(obj, part, LV_STYLE_PAD_LEFT);
 106:lvgl/lvgl/src/core/lv_obj_style_gen.h ****     return (lv_coord_t)v.num;
 107:lvgl/lvgl/src/core/lv_obj_style_gen.h **** }
 108:lvgl/lvgl/src/core/lv_obj_style_gen.h **** 
 109:lvgl/lvgl/src/core/lv_obj_style_gen.h **** static inline lv_coord_t lv_obj_get_style_pad_right(const struct _lv_obj_t * obj, uint32_t part)
 110:lvgl/lvgl/src/core/lv_obj_style_gen.h **** {
 111:lvgl/lvgl/src/core/lv_obj_style_gen.h ****     lv_style_value_t v = lv_obj_get_style_prop(obj, part, LV_STYLE_PAD_RIGHT);
 112:lvgl/lvgl/src/core/lv_obj_style_gen.h ****     return (lv_coord_t)v.num;
 113:lvgl/lvgl/src/core/lv_obj_style_gen.h **** }
 114:lvgl/lvgl/src/core/lv_obj_style_gen.h **** 
 115:lvgl/lvgl/src/core/lv_obj_style_gen.h **** static inline lv_coord_t lv_obj_get_style_pad_row(const struct _lv_obj_t * obj, uint32_t part)
 116:lvgl/lvgl/src/core/lv_obj_style_gen.h **** {
 117:lvgl/lvgl/src/core/lv_obj_style_gen.h ****     lv_style_value_t v = lv_obj_get_style_prop(obj, part, LV_STYLE_PAD_ROW);
 118:lvgl/lvgl/src/core/lv_obj_style_gen.h ****     return (lv_coord_t)v.num;
 119:lvgl/lvgl/src/core/lv_obj_style_gen.h **** }
 120:lvgl/lvgl/src/core/lv_obj_style_gen.h **** 
 121:lvgl/lvgl/src/core/lv_obj_style_gen.h **** static inline lv_coord_t lv_obj_get_style_pad_column(const struct _lv_obj_t * obj, uint32_t part)
 122:lvgl/lvgl/src/core/lv_obj_style_gen.h **** {
 123:lvgl/lvgl/src/core/lv_obj_style_gen.h ****     lv_style_value_t v = lv_obj_get_style_prop(obj, part, LV_STYLE_PAD_COLUMN);
 124:lvgl/lvgl/src/core/lv_obj_style_gen.h ****     return (lv_coord_t)v.num;
 125:lvgl/lvgl/src/core/lv_obj_style_gen.h **** }
 126:lvgl/lvgl/src/core/lv_obj_style_gen.h **** 
 127:lvgl/lvgl/src/core/lv_obj_style_gen.h **** static inline lv_coord_t lv_obj_get_style_radius(const struct _lv_obj_t * obj, uint32_t part)
 128:lvgl/lvgl/src/core/lv_obj_style_gen.h **** {
 129:lvgl/lvgl/src/core/lv_obj_style_gen.h ****     lv_style_value_t v = lv_obj_get_style_prop(obj, part, LV_STYLE_RADIUS);
 130:lvgl/lvgl/src/core/lv_obj_style_gen.h ****     return (lv_coord_t)v.num;
 131:lvgl/lvgl/src/core/lv_obj_style_gen.h **** }
 132:lvgl/lvgl/src/core/lv_obj_style_gen.h **** 
 133:lvgl/lvgl/src/core/lv_obj_style_gen.h **** static inline bool lv_obj_get_style_clip_corner(const struct _lv_obj_t * obj, uint32_t part)
 134:lvgl/lvgl/src/core/lv_obj_style_gen.h **** {
 135:lvgl/lvgl/src/core/lv_obj_style_gen.h ****     lv_style_value_t v = lv_obj_get_style_prop(obj, part, LV_STYLE_CLIP_CORNER);
 136:lvgl/lvgl/src/core/lv_obj_style_gen.h ****     return (bool)v.num;
 137:lvgl/lvgl/src/core/lv_obj_style_gen.h **** }
 138:lvgl/lvgl/src/core/lv_obj_style_gen.h **** 
 139:lvgl/lvgl/src/core/lv_obj_style_gen.h **** static inline lv_opa_t lv_obj_get_style_opa(const struct _lv_obj_t * obj, uint32_t part)
 140:lvgl/lvgl/src/core/lv_obj_style_gen.h **** {
 141:lvgl/lvgl/src/core/lv_obj_style_gen.h ****     lv_style_value_t v = lv_obj_get_style_prop(obj, part, LV_STYLE_OPA);
 142:lvgl/lvgl/src/core/lv_obj_style_gen.h ****     return (lv_opa_t)v.num;
 143:lvgl/lvgl/src/core/lv_obj_style_gen.h **** }
 144:lvgl/lvgl/src/core/lv_obj_style_gen.h **** 
 145:lvgl/lvgl/src/core/lv_obj_style_gen.h **** static inline const lv_color_filter_dsc_t * lv_obj_get_style_color_filter_dsc(const struct _lv_obj_
 1857              		.loc 3 145 45 view .LVU547
 1858              	.LBB93:
 146:lvgl/lvgl/src/core/lv_obj_style_gen.h **** {
 147:lvgl/lvgl/src/core/lv_obj_style_gen.h ****     lv_style_value_t v = lv_obj_get_style_prop(obj, part, LV_STYLE_COLOR_FILTER_DSC);
 1859              		.loc 3 147 5 view .LVU548
 1860              		.loc 3 147 26 is_stmt 0 view .LVU549
 1861 000a 6322     		movs	r2, #99
 1862 000c FFF7FEFF 		bl	lv_obj_get_style_prop
 1863              	.LVL169:
 148:lvgl/lvgl/src/core/lv_obj_style_gen.h ****     return (const lv_color_filter_dsc_t *)v.ptr;
ARM GAS  C:\Users\gx\AppData\Local\Temp\cc2sgWsf.s 			page 63


 1864              		.loc 3 148 5 is_stmt 1 view .LVU550
 1865              		.loc 3 148 5 is_stmt 0 view .LVU551
 1866              	.LBE93:
 1867              	.LBE92:
 611:lvgl/lvgl/src/core/lv_obj_style.c ****         lv_opa_t f_opa = lv_obj_get_style_color_filter_opa(obj, part);
 1868              		.loc 1 611 5 is_stmt 1 view .LVU552
 611:lvgl/lvgl/src/core/lv_obj_style.c ****         lv_opa_t f_opa = lv_obj_get_style_color_filter_opa(obj, part);
 1869              		.loc 1 611 7 is_stmt 0 view .LVU553
 1870 0010 0746     		mov	r7, r0
 1871 0012 78B1     		cbz	r0, .L125
 611:lvgl/lvgl/src/core/lv_obj_style.c ****         lv_opa_t f_opa = lv_obj_get_style_color_filter_opa(obj, part);
 1872              		.loc 1 611 14 discriminator 1 view .LVU554
 1873 0014 0368     		ldr	r3, [r0]
 611:lvgl/lvgl/src/core/lv_obj_style.c ****         lv_opa_t f_opa = lv_obj_get_style_color_filter_opa(obj, part);
 1874              		.loc 1 611 10 discriminator 1 view .LVU555
 1875 0016 6BB1     		cbz	r3, .L125
 1876              	.LBB94:
 612:lvgl/lvgl/src/core/lv_obj_style.c ****         if(f_opa != 0) v.color = f->filter_cb(f, v.color, f_opa);
 1877              		.loc 1 612 9 is_stmt 1 view .LVU556
 1878              	.LVL170:
 1879              	.LBB95:
 1880              	.LBI95:
 149:lvgl/lvgl/src/core/lv_obj_style_gen.h **** }
 150:lvgl/lvgl/src/core/lv_obj_style_gen.h **** 
 151:lvgl/lvgl/src/core/lv_obj_style_gen.h **** static inline lv_opa_t lv_obj_get_style_color_filter_opa(const struct _lv_obj_t * obj, uint32_t par
 1881              		.loc 3 151 24 view .LVU557
 1882              	.LBB96:
 152:lvgl/lvgl/src/core/lv_obj_style_gen.h **** {
 153:lvgl/lvgl/src/core/lv_obj_style_gen.h ****     lv_style_value_t v = lv_obj_get_style_prop(obj, part, LV_STYLE_COLOR_FILTER_OPA);
 1883              		.loc 3 153 5 view .LVU558
 1884              		.loc 3 153 26 is_stmt 0 view .LVU559
 1885 0018 6422     		movs	r2, #100
 1886 001a 2946     		mov	r1, r5
 1887 001c 3046     		mov	r0, r6
 1888              	.LVL171:
 1889              		.loc 3 153 26 view .LVU560
 1890 001e FFF7FEFF 		bl	lv_obj_get_style_prop
 1891              	.LVL172:
 154:lvgl/lvgl/src/core/lv_obj_style_gen.h ****     return (lv_opa_t)v.num;
 1892              		.loc 3 154 5 is_stmt 1 view .LVU561
 1893              		.loc 3 154 5 is_stmt 0 view .LVU562
 1894              	.LBE96:
 1895              	.LBE95:
 613:lvgl/lvgl/src/core/lv_obj_style.c ****     }
 1896              		.loc 1 613 9 is_stmt 1 view .LVU563
 613:lvgl/lvgl/src/core/lv_obj_style.c ****     }
 1897              		.loc 1 613 11 is_stmt 0 view .LVU564
 1898 0022 10F0FF02 		ands	r2, r0, #255
 1899 0026 05D0     		beq	.L125
 613:lvgl/lvgl/src/core/lv_obj_style.c ****     }
 1900              		.loc 1 613 24 is_stmt 1 discriminator 1 view .LVU565
 613:lvgl/lvgl/src/core/lv_obj_style.c ****     }
 1901              		.loc 1 613 35 is_stmt 0 discriminator 1 view .LVU566
 1902 0028 3B68     		ldr	r3, [r7]
 613:lvgl/lvgl/src/core/lv_obj_style.c ****     }
 1903              		.loc 1 613 34 discriminator 1 view .LVU567
 1904 002a 2146     		mov	r1, r4	@ movhi
ARM GAS  C:\Users\gx\AppData\Local\Temp\cc2sgWsf.s 			page 64


 1905 002c 3846     		mov	r0, r7
 1906              	.LVL173:
 613:lvgl/lvgl/src/core/lv_obj_style.c ****     }
 1907              		.loc 1 613 34 discriminator 1 view .LVU568
 1908 002e 9847     		blx	r3
 1909              	.LVL174:
 1910 0030 60F30F04 		bfi	r4, r0, #0, #16
 1911              	.LVL175:
 1912              	.L125:
 613:lvgl/lvgl/src/core/lv_obj_style.c ****     }
 1913              		.loc 1 613 34 discriminator 1 view .LVU569
 1914              	.LBE94:
 615:lvgl/lvgl/src/core/lv_obj_style.c **** }
 1915              		.loc 1 615 5 is_stmt 1 view .LVU570
 615:lvgl/lvgl/src/core/lv_obj_style.c **** }
 1916              		.loc 1 615 12 is_stmt 0 view .LVU571
 1917 0034 2046     		mov	r0, r4
 1918              	.LVL176:
 1919              	.L124:
 616:lvgl/lvgl/src/core/lv_obj_style.c **** 
 1920              		.loc 1 616 1 view .LVU572
 1921 0036 F8BD     		pop	{r3, r4, r5, r6, r7, pc}
 1922              	.LVL177:
 1923              	.L127:
 609:lvgl/lvgl/src/core/lv_obj_style.c ****     const lv_color_filter_dsc_t * f = lv_obj_get_style_color_filter_dsc(obj, part);
 1924              		.loc 1 609 21 is_stmt 1 discriminator 1 view .LVU573
 609:lvgl/lvgl/src/core/lv_obj_style.c ****     const lv_color_filter_dsc_t * f = lv_obj_get_style_color_filter_dsc(obj, part);
 1925              		.loc 1 609 28 is_stmt 0 discriminator 1 view .LVU574
 1926 0038 1046     		mov	r0, r2
 1927              	.LVL178:
 609:lvgl/lvgl/src/core/lv_obj_style.c ****     const lv_color_filter_dsc_t * f = lv_obj_get_style_color_filter_dsc(obj, part);
 1928              		.loc 1 609 28 discriminator 1 view .LVU575
 1929 003a FCE7     		b	.L124
 1930              		.cfi_endproc
 1931              	.LFE178:
 1933              		.section	.rodata._lv_obj_style_create_transition.str1.4,"aMS",%progbits,1
 1934              		.align	2
 1935              	.LC4:
 1936 0000 74722021 		.ascii	"tr != NULL\000"
 1936      3D204E55 
 1936      4C4C00
 1937              		.section	.text._lv_obj_style_create_transition,"ax",%progbits
 1938              		.align	1
 1939              		.global	_lv_obj_style_create_transition
 1940              		.syntax unified
 1941              		.thumb
 1942              		.thumb_func
 1943              		.fpu fpv4-sp-d16
 1945              	_lv_obj_style_create_transition:
 1946              	.LVL179:
 1947              	.LFB168:
 299:lvgl/lvgl/src/core/lv_obj_style.c ****     trans_t * tr;
 1948              		.loc 1 299 1 is_stmt 1 view -0
 1949              		.cfi_startproc
 1950              		@ args = 4, pretend = 0, frame = 72
 1951              		@ frame_needed = 0, uses_anonymous_args = 0
 299:lvgl/lvgl/src/core/lv_obj_style.c ****     trans_t * tr;
ARM GAS  C:\Users\gx\AppData\Local\Temp\cc2sgWsf.s 			page 65


 1952              		.loc 1 299 1 is_stmt 0 view .LVU577
 1953 0000 2DE9F04F 		push	{r4, r5, r6, r7, r8, r9, r10, fp, lr}
 1954              	.LCFI26:
 1955              		.cfi_def_cfa_offset 36
 1956              		.cfi_offset 4, -36
 1957              		.cfi_offset 5, -32
 1958              		.cfi_offset 6, -28
 1959              		.cfi_offset 7, -24
 1960              		.cfi_offset 8, -20
 1961              		.cfi_offset 9, -16
 1962              		.cfi_offset 10, -12
 1963              		.cfi_offset 11, -8
 1964              		.cfi_offset 14, -4
 1965 0004 97B0     		sub	sp, sp, #92
 1966              	.LCFI27:
 1967              		.cfi_def_cfa_offset 128
 1968 0006 0446     		mov	r4, r0
 1969 0008 8946     		mov	r9, r1
 1970 000a 9346     		mov	fp, r2
 1971 000c 1F46     		mov	r7, r3
 1972 000e 209E     		ldr	r6, [sp, #128]
 300:lvgl/lvgl/src/core/lv_obj_style.c **** 
 1973              		.loc 1 300 5 is_stmt 1 view .LVU578
 303:lvgl/lvgl/src/core/lv_obj_style.c ****     obj->state = prev_state;
 1974              		.loc 1 303 5 view .LVU579
 303:lvgl/lvgl/src/core/lv_obj_style.c ****     obj->state = prev_state;
 1975              		.loc 1 303 21 is_stmt 0 view .LVU580
 1976 0010 90F82230 		ldrb	r3, [r0, #34]	@ zero_extendqisi2
 1977              	.LVL180:
 303:lvgl/lvgl/src/core/lv_obj_style.c ****     obj->state = prev_state;
 1978              		.loc 1 303 21 view .LVU581
 1979 0014 43F00403 		orr	r3, r3, #4
 1980 0018 80F82230 		strb	r3, [r0, #34]
 304:lvgl/lvgl/src/core/lv_obj_style.c ****     lv_style_value_t v1 = lv_obj_get_style_prop(obj, part, tr_dsc->prop);
 1981              		.loc 1 304 5 is_stmt 1 view .LVU582
 304:lvgl/lvgl/src/core/lv_obj_style.c ****     lv_style_value_t v1 = lv_obj_get_style_prop(obj, part, tr_dsc->prop);
 1982              		.loc 1 304 16 is_stmt 0 view .LVU583
 1983 001c 0284     		strh	r2, [r0, #32]	@ movhi
 305:lvgl/lvgl/src/core/lv_obj_style.c ****     obj->state = new_state;
 1984              		.loc 1 305 5 is_stmt 1 view .LVU584
 305:lvgl/lvgl/src/core/lv_obj_style.c ****     obj->state = new_state;
 1985              		.loc 1 305 27 is_stmt 0 view .LVU585
 1986 001e 3289     		ldrh	r2, [r6, #8]
 1987              	.LVL181:
 305:lvgl/lvgl/src/core/lv_obj_style.c ****     obj->state = new_state;
 1988              		.loc 1 305 27 view .LVU586
 1989 0020 FFF7FEFF 		bl	lv_obj_get_style_prop
 1990              	.LVL182:
 305:lvgl/lvgl/src/core/lv_obj_style.c ****     obj->state = new_state;
 1991              		.loc 1 305 27 view .LVU587
 1992 0024 0546     		mov	r5, r0
 1993              	.LVL183:
 306:lvgl/lvgl/src/core/lv_obj_style.c ****     lv_style_value_t v2 = lv_obj_get_style_prop(obj, part, tr_dsc->prop);
 1994              		.loc 1 306 5 is_stmt 1 view .LVU588
 306:lvgl/lvgl/src/core/lv_obj_style.c ****     lv_style_value_t v2 = lv_obj_get_style_prop(obj, part, tr_dsc->prop);
 1995              		.loc 1 306 16 is_stmt 0 view .LVU589
 1996 0026 2784     		strh	r7, [r4, #32]	@ movhi
ARM GAS  C:\Users\gx\AppData\Local\Temp\cc2sgWsf.s 			page 66


 307:lvgl/lvgl/src/core/lv_obj_style.c ****     obj->skip_trans = 0;
 1997              		.loc 1 307 5 is_stmt 1 view .LVU590
 307:lvgl/lvgl/src/core/lv_obj_style.c ****     obj->skip_trans = 0;
 1998              		.loc 1 307 27 is_stmt 0 view .LVU591
 1999 0028 3289     		ldrh	r2, [r6, #8]
 2000 002a 4946     		mov	r1, r9
 2001 002c 2046     		mov	r0, r4
 2002 002e FFF7FEFF 		bl	lv_obj_get_style_prop
 2003              	.LVL184:
 2004 0032 8046     		mov	r8, r0
 2005              	.LVL185:
 308:lvgl/lvgl/src/core/lv_obj_style.c **** 
 2006              		.loc 1 308 5 is_stmt 1 view .LVU592
 308:lvgl/lvgl/src/core/lv_obj_style.c **** 
 2007              		.loc 1 308 21 is_stmt 0 view .LVU593
 2008 0034 94F82230 		ldrb	r3, [r4, #34]	@ zero_extendqisi2
 2009 0038 6FF38203 		bfc	r3, #2, #1
 2010 003c 84F82230 		strb	r3, [r4, #34]
 310:lvgl/lvgl/src/core/lv_obj_style.c ****     obj->state = prev_state;
 2011              		.loc 1 310 5 is_stmt 1 view .LVU594
 2012              	.LVL186:
 310:lvgl/lvgl/src/core/lv_obj_style.c ****     obj->state = prev_state;
 2013              		.loc 1 310 20 is_stmt 0 view .LVU595
 2014 0040 8246     		mov	r10, r0
 2015              	.LVL187:
 310:lvgl/lvgl/src/core/lv_obj_style.c ****     obj->state = prev_state;
 2016              		.loc 1 310 7 view .LVU596
 2017 0042 8542     		cmp	r5, r0
 2018 0044 46D0     		beq	.L141
 2019              	.L129:
 311:lvgl/lvgl/src/core/lv_obj_style.c ****     v1 = lv_obj_get_style_prop(obj, part, tr_dsc->prop);
 2020              		.loc 1 311 5 is_stmt 1 view .LVU597
 311:lvgl/lvgl/src/core/lv_obj_style.c ****     v1 = lv_obj_get_style_prop(obj, part, tr_dsc->prop);
 2021              		.loc 1 311 16 is_stmt 0 view .LVU598
 2022 0046 A4F820B0 		strh	fp, [r4, #32]	@ movhi
 312:lvgl/lvgl/src/core/lv_obj_style.c ****     obj->state = new_state;
 2023              		.loc 1 312 5 is_stmt 1 view .LVU599
 312:lvgl/lvgl/src/core/lv_obj_style.c ****     obj->state = new_state;
 2024              		.loc 1 312 10 is_stmt 0 view .LVU600
 2025 004a 3289     		ldrh	r2, [r6, #8]
 2026 004c 4946     		mov	r1, r9
 2027 004e 2046     		mov	r0, r4
 2028              	.LVL188:
 312:lvgl/lvgl/src/core/lv_obj_style.c ****     obj->state = new_state;
 2029              		.loc 1 312 10 view .LVU601
 2030 0050 FFF7FEFF 		bl	lv_obj_get_style_prop
 2031              	.LVL189:
 2032 0054 0546     		mov	r5, r0
 2033              	.LVL190:
 313:lvgl/lvgl/src/core/lv_obj_style.c **** 
 2034              		.loc 1 313 5 is_stmt 1 view .LVU602
 313:lvgl/lvgl/src/core/lv_obj_style.c **** 
 2035              		.loc 1 313 16 is_stmt 0 view .LVU603
 2036 0056 2784     		strh	r7, [r4, #32]	@ movhi
 315:lvgl/lvgl/src/core/lv_obj_style.c ****     lv_style_set_prop(style_trans->style, tr_dsc->prop, v1);   /*Be sure `trans_style` has a valid 
 2037              		.loc 1 315 5 is_stmt 1 view .LVU604
 315:lvgl/lvgl/src/core/lv_obj_style.c ****     lv_style_set_prop(style_trans->style, tr_dsc->prop, v1);   /*Be sure `trans_style` has a valid 
ARM GAS  C:\Users\gx\AppData\Local\Temp\cc2sgWsf.s 			page 67


 2038              		.loc 1 315 37 is_stmt 0 view .LVU605
 2039 0058 4946     		mov	r1, r9
 2040 005a 2046     		mov	r0, r4
 2041 005c FFF7FEFF 		bl	get_trans_style
 2042              	.LVL191:
 316:lvgl/lvgl/src/core/lv_obj_style.c **** 
 2043              		.loc 1 316 5 is_stmt 1 view .LVU606
 316:lvgl/lvgl/src/core/lv_obj_style.c **** 
 2044              		.loc 1 316 5 is_stmt 0 view .LVU607
 2045 0060 2A46     		mov	r2, r5
 2046 0062 3189     		ldrh	r1, [r6, #8]
 2047 0064 0068     		ldr	r0, [r0]
 2048              	.LVL192:
 316:lvgl/lvgl/src/core/lv_obj_style.c **** 
 2049              		.loc 1 316 5 view .LVU608
 2050 0066 FFF7FEFF 		bl	lv_style_set_prop
 2051              	.LVL193:
 318:lvgl/lvgl/src/core/lv_obj_style.c ****         if(v1.num == LV_RADIUS_CIRCLE || v2.num == LV_RADIUS_CIRCLE) {
 2052              		.loc 1 318 5 is_stmt 1 view .LVU609
 318:lvgl/lvgl/src/core/lv_obj_style.c ****         if(v1.num == LV_RADIUS_CIRCLE || v2.num == LV_RADIUS_CIRCLE) {
 2053              		.loc 1 318 14 is_stmt 0 view .LVU610
 2054 006a 3389     		ldrh	r3, [r6, #8]
 318:lvgl/lvgl/src/core/lv_obj_style.c ****         if(v1.num == LV_RADIUS_CIRCLE || v2.num == LV_RADIUS_CIRCLE) {
 2055              		.loc 1 318 7 view .LVU611
 2056 006c 602B     		cmp	r3, #96
 2057 006e 33D0     		beq	.L142
 2058              	.L131:
 327:lvgl/lvgl/src/core/lv_obj_style.c ****     LV_ASSERT_MALLOC(tr);
 2059              		.loc 1 327 5 is_stmt 1 view .LVU612
 327:lvgl/lvgl/src/core/lv_obj_style.c ****     LV_ASSERT_MALLOC(tr);
 2060              		.loc 1 327 10 is_stmt 0 view .LVU613
 2061 0070 3548     		ldr	r0, .L145
 2062 0072 FFF7FEFF 		bl	_lv_ll_ins_head
 2063              	.LVL194:
 328:lvgl/lvgl/src/core/lv_obj_style.c ****     if(tr == NULL) return;
 2064              		.loc 1 328 5 is_stmt 1 view .LVU614
 328:lvgl/lvgl/src/core/lv_obj_style.c ****     if(tr == NULL) return;
 2065              		.loc 1 328 5 view .LVU615
 2066 0076 0746     		mov	r7, r0
 2067 0078 0028     		cmp	r0, #0
 2068 007a 57D0     		beq	.L143
 328:lvgl/lvgl/src/core/lv_obj_style.c ****     if(tr == NULL) return;
 2069              		.loc 1 328 5 view .LVU616
 328:lvgl/lvgl/src/core/lv_obj_style.c ****     if(tr == NULL) return;
 2070              		.loc 1 328 25 view .LVU617
 329:lvgl/lvgl/src/core/lv_obj_style.c ****     tr->start_value = v1;
 2071              		.loc 1 329 5 view .LVU618
 330:lvgl/lvgl/src/core/lv_obj_style.c ****     tr->end_value = v2;
 2072              		.loc 1 330 5 view .LVU619
 330:lvgl/lvgl/src/core/lv_obj_style.c ****     tr->end_value = v2;
 2073              		.loc 1 330 21 is_stmt 0 view .LVU620
 2074 007c C560     		str	r5, [r0, #12]
 331:lvgl/lvgl/src/core/lv_obj_style.c **** 
 2075              		.loc 1 331 5 is_stmt 1 view .LVU621
 2076              	.LVL195:
 331:lvgl/lvgl/src/core/lv_obj_style.c **** 
 2077              		.loc 1 331 19 is_stmt 0 view .LVU622
ARM GAS  C:\Users\gx\AppData\Local\Temp\cc2sgWsf.s 			page 68


 2078 007e C0F81080 		str	r8, [r0, #16]
 333:lvgl/lvgl/src/core/lv_obj_style.c ****         tr->obj = obj;
 2079              		.loc 1 333 5 is_stmt 1 view .LVU623
 2080              	.LBB97:
 334:lvgl/lvgl/src/core/lv_obj_style.c ****         tr->prop = tr_dsc->prop;
 2081              		.loc 1 334 9 view .LVU624
 334:lvgl/lvgl/src/core/lv_obj_style.c ****         tr->prop = tr_dsc->prop;
 2082              		.loc 1 334 17 is_stmt 0 view .LVU625
 2083 0082 0460     		str	r4, [r0]
 335:lvgl/lvgl/src/core/lv_obj_style.c ****         tr->selector = part;
 2084              		.loc 1 335 9 is_stmt 1 view .LVU626
 335:lvgl/lvgl/src/core/lv_obj_style.c ****         tr->selector = part;
 2085              		.loc 1 335 26 is_stmt 0 view .LVU627
 2086 0084 3389     		ldrh	r3, [r6, #8]
 335:lvgl/lvgl/src/core/lv_obj_style.c ****         tr->selector = part;
 2087              		.loc 1 335 18 view .LVU628
 2088 0086 8380     		strh	r3, [r0, #4]	@ movhi
 336:lvgl/lvgl/src/core/lv_obj_style.c **** 
 2089              		.loc 1 336 9 is_stmt 1 view .LVU629
 336:lvgl/lvgl/src/core/lv_obj_style.c **** 
 2090              		.loc 1 336 22 is_stmt 0 view .LVU630
 2091 0088 C0F80890 		str	r9, [r0, #8]
 338:lvgl/lvgl/src/core/lv_obj_style.c ****         lv_anim_init(&a);
 2092              		.loc 1 338 9 is_stmt 1 view .LVU631
 339:lvgl/lvgl/src/core/lv_obj_style.c ****         lv_anim_set_var(&a, tr);
 2093              		.loc 1 339 9 view .LVU632
 2094 008c 05A8     		add	r0, sp, #20
 2095              	.LVL196:
 339:lvgl/lvgl/src/core/lv_obj_style.c ****         lv_anim_set_var(&a, tr);
 2096              		.loc 1 339 9 is_stmt 0 view .LVU633
 2097 008e FFF7FEFF 		bl	lv_anim_init
 2098              	.LVL197:
 340:lvgl/lvgl/src/core/lv_obj_style.c ****         lv_anim_set_exec_cb(&a, trans_anim_cb);
 2099              		.loc 1 340 9 is_stmt 1 view .LVU634
 2100              	.LBB98:
 2101              	.LBI98:
 119:lvgl/lvgl/src/core/../misc/lv_anim.h **** {
 2102              		.loc 2 119 20 view .LVU635
 2103              	.LBB99:
 121:lvgl/lvgl/src/core/../misc/lv_anim.h **** }
 2104              		.loc 2 121 5 view .LVU636
 121:lvgl/lvgl/src/core/../misc/lv_anim.h **** }
 2105              		.loc 2 121 12 is_stmt 0 view .LVU637
 2106 0092 0597     		str	r7, [sp, #20]
 2107              	.LVL198:
 121:lvgl/lvgl/src/core/../misc/lv_anim.h **** }
 2108              		.loc 2 121 12 view .LVU638
 2109              	.LBE99:
 2110              	.LBE98:
 341:lvgl/lvgl/src/core/lv_obj_style.c ****         lv_anim_set_start_cb(&a, trans_anim_start_cb);
 2111              		.loc 1 341 9 is_stmt 1 view .LVU639
 2112              	.LBB100:
 2113              	.LBI100:
 131:lvgl/lvgl/src/core/../misc/lv_anim.h **** {
 2114              		.loc 2 131 20 view .LVU640
 2115              	.LBB101:
 133:lvgl/lvgl/src/core/../misc/lv_anim.h **** }
ARM GAS  C:\Users\gx\AppData\Local\Temp\cc2sgWsf.s 			page 69


 2116              		.loc 2 133 5 view .LVU641
 133:lvgl/lvgl/src/core/../misc/lv_anim.h **** }
 2117              		.loc 2 133 16 is_stmt 0 view .LVU642
 2118 0094 2D4B     		ldr	r3, .L145+4
 2119 0096 0693     		str	r3, [sp, #24]
 2120              	.LVL199:
 133:lvgl/lvgl/src/core/../misc/lv_anim.h **** }
 2121              		.loc 2 133 16 view .LVU643
 2122              	.LBE101:
 2123              	.LBE100:
 342:lvgl/lvgl/src/core/lv_obj_style.c ****         lv_anim_set_ready_cb(&a, trans_anim_ready_cb);
 2124              		.loc 1 342 9 is_stmt 1 view .LVU644
 2125              	.LBB102:
 2126              	.LBI102:
 199:lvgl/lvgl/src/core/../misc/lv_anim.h **** {
 2127              		.loc 2 199 20 view .LVU645
 2128              	.LBB103:
 201:lvgl/lvgl/src/core/../misc/lv_anim.h **** }
 2129              		.loc 2 201 5 view .LVU646
 201:lvgl/lvgl/src/core/../misc/lv_anim.h **** }
 2130              		.loc 2 201 17 is_stmt 0 view .LVU647
 2131 0098 2D4B     		ldr	r3, .L145+8
 2132 009a 0793     		str	r3, [sp, #28]
 2133              	.LVL200:
 201:lvgl/lvgl/src/core/../misc/lv_anim.h **** }
 2134              		.loc 2 201 17 view .LVU648
 2135              	.LBE103:
 2136              	.LBE102:
 343:lvgl/lvgl/src/core/lv_obj_style.c ****         lv_anim_set_values(&a, 0x00, 0xFF);
 2137              		.loc 1 343 9 is_stmt 1 view .LVU649
 2138              	.LBB104:
 2139              	.LBI104:
 220:lvgl/lvgl/src/core/../misc/lv_anim.h **** {
 2140              		.loc 2 220 20 view .LVU650
 2141              	.LBB105:
 2142              		.loc 2 222 5 view .LVU651
 2143              		.loc 2 222 17 is_stmt 0 view .LVU652
 2144 009c 2D4B     		ldr	r3, .L145+12
 2145 009e 0893     		str	r3, [sp, #32]
 2146              	.LVL201:
 2147              		.loc 2 222 17 view .LVU653
 2148              	.LBE105:
 2149              	.LBE104:
 344:lvgl/lvgl/src/core/lv_obj_style.c ****         lv_anim_set_time(&a, tr_dsc->time);
 2150              		.loc 1 344 9 is_stmt 1 view .LVU654
 2151              	.LBB106:
 2152              	.LBI106:
 162:lvgl/lvgl/src/core/../misc/lv_anim.h **** {
 2153              		.loc 2 162 20 view .LVU655
 2154              	.LBB107:
 164:lvgl/lvgl/src/core/../misc/lv_anim.h ****     a->current_value = start;
 2155              		.loc 2 164 5 view .LVU656
 164:lvgl/lvgl/src/core/../misc/lv_anim.h ****     a->current_value = start;
 2156              		.loc 2 164 20 is_stmt 0 view .LVU657
 2157 00a0 0023     		movs	r3, #0
 2158 00a2 0C93     		str	r3, [sp, #48]
 165:lvgl/lvgl/src/core/../misc/lv_anim.h ****     a->end_value = end;
ARM GAS  C:\Users\gx\AppData\Local\Temp\cc2sgWsf.s 			page 70


 2159              		.loc 2 165 5 is_stmt 1 view .LVU658
 165:lvgl/lvgl/src/core/../misc/lv_anim.h ****     a->end_value = end;
 2160              		.loc 2 165 22 is_stmt 0 view .LVU659
 2161 00a4 0D93     		str	r3, [sp, #52]
 166:lvgl/lvgl/src/core/../misc/lv_anim.h **** }
 2162              		.loc 2 166 5 is_stmt 1 view .LVU660
 166:lvgl/lvgl/src/core/../misc/lv_anim.h **** }
 2163              		.loc 2 166 18 is_stmt 0 view .LVU661
 2164 00a6 FF22     		movs	r2, #255
 2165 00a8 0E92     		str	r2, [sp, #56]
 2166              	.LVL202:
 166:lvgl/lvgl/src/core/../misc/lv_anim.h **** }
 2167              		.loc 2 166 18 view .LVU662
 2168              	.LBE107:
 2169              	.LBE106:
 345:lvgl/lvgl/src/core/lv_obj_style.c ****         lv_anim_set_delay(&a, tr_dsc->delay);
 2170              		.loc 1 345 9 is_stmt 1 view .LVU663
 345:lvgl/lvgl/src/core/lv_obj_style.c ****         lv_anim_set_delay(&a, tr_dsc->delay);
 2171              		.loc 1 345 36 is_stmt 0 view .LVU664
 2172 00aa 3288     		ldrh	r2, [r6]
 2173              	.LVL203:
 2174              	.LBB108:
 2175              	.LBI108:
 141:lvgl/lvgl/src/core/../misc/lv_anim.h **** {
 2176              		.loc 2 141 20 is_stmt 1 view .LVU665
 2177              	.LBB109:
 143:lvgl/lvgl/src/core/../misc/lv_anim.h **** }
 2178              		.loc 2 143 5 view .LVU666
 143:lvgl/lvgl/src/core/../misc/lv_anim.h **** }
 2179              		.loc 2 143 13 is_stmt 0 view .LVU667
 2180 00ac 0F92     		str	r2, [sp, #60]
 2181              	.LVL204:
 143:lvgl/lvgl/src/core/../misc/lv_anim.h **** }
 2182              		.loc 2 143 13 view .LVU668
 2183              	.LBE109:
 2184              	.LBE108:
 346:lvgl/lvgl/src/core/lv_obj_style.c ****         lv_anim_set_path_cb(&a, tr_dsc->path_cb);
 2185              		.loc 1 346 9 is_stmt 1 view .LVU669
 346:lvgl/lvgl/src/core/lv_obj_style.c ****         lv_anim_set_path_cb(&a, tr_dsc->path_cb);
 2186              		.loc 1 346 37 is_stmt 0 view .LVU670
 2187 00ae 7288     		ldrh	r2, [r6, #2]
 2188              	.LVL205:
 2189              	.LBB110:
 2190              	.LBI110:
 151:lvgl/lvgl/src/core/../misc/lv_anim.h **** {
 2191              		.loc 2 151 20 is_stmt 1 view .LVU671
 2192              	.LBB111:
 153:lvgl/lvgl/src/core/../misc/lv_anim.h **** }
 2193              		.loc 2 153 5 view .LVU672
 153:lvgl/lvgl/src/core/../misc/lv_anim.h **** }
 2194              		.loc 2 153 19 is_stmt 0 view .LVU673
 2195 00b0 5242     		rsbs	r2, r2, #0
 2196              	.LVL206:
 153:lvgl/lvgl/src/core/../misc/lv_anim.h **** }
 2197              		.loc 2 153 17 view .LVU674
 2198 00b2 1092     		str	r2, [sp, #64]
 2199              	.LVL207:
ARM GAS  C:\Users\gx\AppData\Local\Temp\cc2sgWsf.s 			page 71


 153:lvgl/lvgl/src/core/../misc/lv_anim.h **** }
 2200              		.loc 2 153 17 view .LVU675
 2201              	.LBE111:
 2202              	.LBE110:
 347:lvgl/lvgl/src/core/lv_obj_style.c ****         lv_anim_set_early_apply(&a, false);
 2203              		.loc 1 347 9 is_stmt 1 view .LVU676
 2204 00b4 F268     		ldr	r2, [r6, #12]
 2205              	.LVL208:
 2206              	.LBB112:
 2207              	.LBI112:
 189:lvgl/lvgl/src/core/../misc/lv_anim.h **** {
 2208              		.loc 2 189 20 view .LVU677
 2209              	.LBB113:
 191:lvgl/lvgl/src/core/../misc/lv_anim.h **** }
 2210              		.loc 2 191 5 view .LVU678
 191:lvgl/lvgl/src/core/../misc/lv_anim.h **** }
 2211              		.loc 2 191 16 is_stmt 0 view .LVU679
 2212 00b6 0B92     		str	r2, [sp, #44]
 2213              	.LVL209:
 191:lvgl/lvgl/src/core/../misc/lv_anim.h **** }
 2214              		.loc 2 191 16 view .LVU680
 2215              	.LBE113:
 2216              	.LBE112:
 348:lvgl/lvgl/src/core/lv_obj_style.c **** #if LV_USE_USER_DATA
 2217              		.loc 1 348 9 is_stmt 1 view .LVU681
 2218              	.LBB114:
 2219              	.LBI114:
 223:lvgl/lvgl/src/core/../misc/lv_anim.h **** }
 224:lvgl/lvgl/src/core/../misc/lv_anim.h **** /**
 225:lvgl/lvgl/src/core/../misc/lv_anim.h ****  * Make the animation to play back to when the forward direction is ready
 226:lvgl/lvgl/src/core/../misc/lv_anim.h ****  * @param a         pointer to an initialized `lv_anim_t` variable
 227:lvgl/lvgl/src/core/../misc/lv_anim.h ****  * @param time      the duration of the playback animation in in milliseconds. 0: disable playback
 228:lvgl/lvgl/src/core/../misc/lv_anim.h ****  */
 229:lvgl/lvgl/src/core/../misc/lv_anim.h **** static inline void lv_anim_set_playback_time(lv_anim_t * a, uint32_t time)
 230:lvgl/lvgl/src/core/../misc/lv_anim.h **** {
 231:lvgl/lvgl/src/core/../misc/lv_anim.h ****     a->playback_time = time;
 232:lvgl/lvgl/src/core/../misc/lv_anim.h **** }
 233:lvgl/lvgl/src/core/../misc/lv_anim.h **** 
 234:lvgl/lvgl/src/core/../misc/lv_anim.h **** /**
 235:lvgl/lvgl/src/core/../misc/lv_anim.h ****  * Make the animation to play back to when the forward direction is ready
 236:lvgl/lvgl/src/core/../misc/lv_anim.h ****  * @param a         pointer to an initialized `lv_anim_t` variable
 237:lvgl/lvgl/src/core/../misc/lv_anim.h ****  * @param delay     delay in milliseconds before starting the playback animation.
 238:lvgl/lvgl/src/core/../misc/lv_anim.h ****  */
 239:lvgl/lvgl/src/core/../misc/lv_anim.h **** static inline void lv_anim_set_playback_delay(lv_anim_t * a, uint32_t delay)
 240:lvgl/lvgl/src/core/../misc/lv_anim.h **** {
 241:lvgl/lvgl/src/core/../misc/lv_anim.h ****     a->playback_delay = delay;
 242:lvgl/lvgl/src/core/../misc/lv_anim.h **** }
 243:lvgl/lvgl/src/core/../misc/lv_anim.h **** 
 244:lvgl/lvgl/src/core/../misc/lv_anim.h **** /**
 245:lvgl/lvgl/src/core/../misc/lv_anim.h ****  * Make the animation repeat itself.
 246:lvgl/lvgl/src/core/../misc/lv_anim.h ****  * @param a         pointer to an initialized `lv_anim_t` variable
 247:lvgl/lvgl/src/core/../misc/lv_anim.h ****  * @param cnt       repeat count or `LV_ANIM_REPEAT_INFINITE` for infinite repetition. 0: to disabl
 248:lvgl/lvgl/src/core/../misc/lv_anim.h ****  */
 249:lvgl/lvgl/src/core/../misc/lv_anim.h **** static inline void lv_anim_set_repeat_count(lv_anim_t * a, uint16_t cnt)
 250:lvgl/lvgl/src/core/../misc/lv_anim.h **** {
 251:lvgl/lvgl/src/core/../misc/lv_anim.h ****     a->repeat_cnt = cnt;
 252:lvgl/lvgl/src/core/../misc/lv_anim.h **** }
ARM GAS  C:\Users\gx\AppData\Local\Temp\cc2sgWsf.s 			page 72


 253:lvgl/lvgl/src/core/../misc/lv_anim.h **** 
 254:lvgl/lvgl/src/core/../misc/lv_anim.h **** /**
 255:lvgl/lvgl/src/core/../misc/lv_anim.h ****  * Set a delay before repeating the animation.
 256:lvgl/lvgl/src/core/../misc/lv_anim.h ****  * @param a         pointer to an initialized `lv_anim_t` variable
 257:lvgl/lvgl/src/core/../misc/lv_anim.h ****  * @param delay     delay in milliseconds before repeating the animation.
 258:lvgl/lvgl/src/core/../misc/lv_anim.h ****  */
 259:lvgl/lvgl/src/core/../misc/lv_anim.h **** static inline void lv_anim_set_repeat_delay(lv_anim_t * a, uint32_t delay)
 260:lvgl/lvgl/src/core/../misc/lv_anim.h **** {
 261:lvgl/lvgl/src/core/../misc/lv_anim.h ****     a->repeat_delay = delay;
 262:lvgl/lvgl/src/core/../misc/lv_anim.h **** }
 263:lvgl/lvgl/src/core/../misc/lv_anim.h **** 
 264:lvgl/lvgl/src/core/../misc/lv_anim.h **** /**
 265:lvgl/lvgl/src/core/../misc/lv_anim.h ****  * Set a whether the animation's should be applied immediately or only when the delay expired.
 266:lvgl/lvgl/src/core/../misc/lv_anim.h ****  * @param a         pointer to an initialized `lv_anim_t` variable
 267:lvgl/lvgl/src/core/../misc/lv_anim.h ****  * @param en        true: apply the start value immediately in `lv_anim_start`;
 268:lvgl/lvgl/src/core/../misc/lv_anim.h ****  *                  false: apply the start value only when `delay` ms is elapsed and the animations
 269:lvgl/lvgl/src/core/../misc/lv_anim.h ****  */
 270:lvgl/lvgl/src/core/../misc/lv_anim.h **** static inline void lv_anim_set_early_apply(lv_anim_t * a, bool en)
 2220              		.loc 2 270 20 view .LVU682
 2221              	.LBB115:
 271:lvgl/lvgl/src/core/../misc/lv_anim.h **** {
 272:lvgl/lvgl/src/core/../misc/lv_anim.h ****     a->early_apply = en;
 2222              		.loc 2 272 5 view .LVU683
 2223              		.loc 2 272 20 is_stmt 0 view .LVU684
 2224 00b8 9DF85220 		ldrb	r2, [sp, #82]	@ zero_extendqisi2
 2225 00bc 63F30002 		bfi	r2, r3, #0, #1
 2226 00c0 8DF85220 		strb	r2, [sp, #82]
 2227              	.LVL210:
 2228              		.loc 2 272 20 view .LVU685
 2229              	.LBE115:
 2230              	.LBE114:
 350:lvgl/lvgl/src/core/lv_obj_style.c **** #endif
 2231              		.loc 1 350 9 is_stmt 1 view .LVU686
 350:lvgl/lvgl/src/core/lv_obj_style.c **** #endif
 2232              		.loc 1 350 29 is_stmt 0 view .LVU687
 2233 00c4 3369     		ldr	r3, [r6, #16]
 350:lvgl/lvgl/src/core/lv_obj_style.c **** #endif
 2234              		.loc 1 350 21 view .LVU688
 2235 00c6 0A93     		str	r3, [sp, #40]
 352:lvgl/lvgl/src/core/lv_obj_style.c ****     }
 2236              		.loc 1 352 9 is_stmt 1 view .LVU689
 2237 00c8 05A8     		add	r0, sp, #20
 2238 00ca FFF7FEFF 		bl	lv_anim_start
 2239              	.LVL211:
 2240              	.L128:
 352:lvgl/lvgl/src/core/lv_obj_style.c ****     }
 2241              		.loc 1 352 9 is_stmt 0 view .LVU690
 2242              	.LBE97:
 354:lvgl/lvgl/src/core/lv_obj_style.c **** 
 2243              		.loc 1 354 1 view .LVU691
 2244 00ce 17B0     		add	sp, sp, #92
 2245              	.LCFI28:
 2246              		.cfi_remember_state
 2247              		.cfi_def_cfa_offset 36
 2248              		@ sp needed
 2249 00d0 BDE8F08F 		pop	{r4, r5, r6, r7, r8, r9, r10, fp, pc}
 2250              	.LVL212:
ARM GAS  C:\Users\gx\AppData\Local\Temp\cc2sgWsf.s 			page 73


 2251              	.L141:
 2252              	.LCFI29:
 2253              		.cfi_restore_state
 310:lvgl/lvgl/src/core/lv_obj_style.c ****     obj->state = prev_state;
 2254              		.loc 1 310 45 discriminator 1 view .LVU692
 2255 00d4 B7D1     		bne	.L129
 2256 00d6 FAE7     		b	.L128
 2257              	.LVL213:
 2258              	.L142:
 319:lvgl/lvgl/src/core/lv_obj_style.c ****             lv_coord_t whalf = lv_obj_get_width(obj) / 2;
 2259              		.loc 1 319 9 is_stmt 1 view .LVU693
 319:lvgl/lvgl/src/core/lv_obj_style.c ****             lv_coord_t whalf = lv_obj_get_width(obj) / 2;
 2260              		.loc 1 319 14 is_stmt 0 view .LVU694
 2261 00d8 AB46     		mov	fp, r5
 319:lvgl/lvgl/src/core/lv_obj_style.c ****             lv_coord_t whalf = lv_obj_get_width(obj) / 2;
 2262              		.loc 1 319 11 view .LVU695
 2263 00da 47F6FF73 		movw	r3, #32767
 2264 00de 9D42     		cmp	r5, r3
 2265 00e0 01D0     		beq	.L132
 319:lvgl/lvgl/src/core/lv_obj_style.c ****             lv_coord_t whalf = lv_obj_get_width(obj) / 2;
 2266              		.loc 1 319 39 discriminator 1 view .LVU696
 2267 00e2 9A45     		cmp	r10, r3
 2268 00e4 C4D1     		bne	.L131
 2269              	.L132:
 2270              	.LBB116:
 320:lvgl/lvgl/src/core/lv_obj_style.c ****             lv_coord_t hhalf = lv_obj_get_width(obj) / 2;
 2271              		.loc 1 320 13 is_stmt 1 view .LVU697
 320:lvgl/lvgl/src/core/lv_obj_style.c ****             lv_coord_t hhalf = lv_obj_get_width(obj) / 2;
 2272              		.loc 1 320 32 is_stmt 0 view .LVU698
 2273 00e6 2046     		mov	r0, r4
 2274 00e8 FFF7FEFF 		bl	lv_obj_get_width
 2275              	.LVL214:
 320:lvgl/lvgl/src/core/lv_obj_style.c ****             lv_coord_t hhalf = lv_obj_get_width(obj) / 2;
 2276              		.loc 1 320 24 view .LVU699
 2277 00ec 00EBD070 		add	r0, r0, r0, lsr #31
 2278 00f0 40F34F07 		sbfx	r7, r0, #1, #16
 2279              	.LVL215:
 321:lvgl/lvgl/src/core/lv_obj_style.c ****             if(v1.num == LV_RADIUS_CIRCLE) v1.num = LV_MIN(whalf + 1, hhalf + 1);
 2280              		.loc 1 321 13 is_stmt 1 view .LVU700
 321:lvgl/lvgl/src/core/lv_obj_style.c ****             if(v1.num == LV_RADIUS_CIRCLE) v1.num = LV_MIN(whalf + 1, hhalf + 1);
 2281              		.loc 1 321 32 is_stmt 0 view .LVU701
 2282 00f4 2046     		mov	r0, r4
 2283 00f6 FFF7FEFF 		bl	lv_obj_get_width
 2284              	.LVL216:
 321:lvgl/lvgl/src/core/lv_obj_style.c ****             if(v1.num == LV_RADIUS_CIRCLE) v1.num = LV_MIN(whalf + 1, hhalf + 1);
 2285              		.loc 1 321 24 view .LVU702
 2286 00fa 00EBD070 		add	r0, r0, r0, lsr #31
 2287 00fe 40F34F03 		sbfx	r3, r0, #1, #16
 2288              	.LVL217:
 322:lvgl/lvgl/src/core/lv_obj_style.c ****             if(v2.num == LV_RADIUS_CIRCLE) v2.num = LV_MIN(whalf + 1, hhalf + 1);
 2289              		.loc 1 322 13 is_stmt 1 view .LVU703
 322:lvgl/lvgl/src/core/lv_obj_style.c ****             if(v2.num == LV_RADIUS_CIRCLE) v2.num = LV_MIN(whalf + 1, hhalf + 1);
 2290              		.loc 1 322 15 is_stmt 0 view .LVU704
 2291 0102 47F6FF72 		movw	r2, #32767
 2292 0106 9345     		cmp	fp, r2
 2293 0108 08D0     		beq	.L144
 2294              	.L133:
ARM GAS  C:\Users\gx\AppData\Local\Temp\cc2sgWsf.s 			page 74


 323:lvgl/lvgl/src/core/lv_obj_style.c ****         }
 2295              		.loc 1 323 13 is_stmt 1 view .LVU705
 323:lvgl/lvgl/src/core/lv_obj_style.c ****         }
 2296              		.loc 1 323 15 is_stmt 0 view .LVU706
 2297 010a 47F6FF72 		movw	r2, #32767
 2298 010e 9245     		cmp	r10, r2
 2299 0110 AED1     		bne	.L131
 323:lvgl/lvgl/src/core/lv_obj_style.c ****         }
 2300              		.loc 1 323 44 is_stmt 1 discriminator 1 view .LVU707
 323:lvgl/lvgl/src/core/lv_obj_style.c ****         }
 2301              		.loc 1 323 53 is_stmt 0 discriminator 1 view .LVU708
 2302 0112 9F42     		cmp	r7, r3
 2303 0114 08DA     		bge	.L136
 323:lvgl/lvgl/src/core/lv_obj_style.c ****         }
 2304              		.loc 1 323 53 discriminator 2 view .LVU709
 2305 0116 7B1C     		adds	r3, r7, #1
 2306              	.LVL218:
 2307              	.L137:
 323:lvgl/lvgl/src/core/lv_obj_style.c ****         }
 2308              		.loc 1 323 51 discriminator 5 view .LVU710
 2309 0118 9846     		mov	r8, r3
 323:lvgl/lvgl/src/core/lv_obj_style.c ****         }
 2310              		.loc 1 323 51 discriminator 5 view .LVU711
 2311 011a A9E7     		b	.L131
 2312              	.LVL219:
 2313              	.L144:
 322:lvgl/lvgl/src/core/lv_obj_style.c ****             if(v2.num == LV_RADIUS_CIRCLE) v2.num = LV_MIN(whalf + 1, hhalf + 1);
 2314              		.loc 1 322 44 is_stmt 1 discriminator 1 view .LVU712
 322:lvgl/lvgl/src/core/lv_obj_style.c ****             if(v2.num == LV_RADIUS_CIRCLE) v2.num = LV_MIN(whalf + 1, hhalf + 1);
 2315              		.loc 1 322 53 is_stmt 0 discriminator 1 view .LVU713
 2316 011c 9F42     		cmp	r7, r3
 2317 011e 01DA     		bge	.L134
 322:lvgl/lvgl/src/core/lv_obj_style.c ****             if(v2.num == LV_RADIUS_CIRCLE) v2.num = LV_MIN(whalf + 1, hhalf + 1);
 2318              		.loc 1 322 53 discriminator 2 view .LVU714
 2319 0120 7D1C     		adds	r5, r7, #1
 2320              	.LVL220:
 322:lvgl/lvgl/src/core/lv_obj_style.c ****             if(v2.num == LV_RADIUS_CIRCLE) v2.num = LV_MIN(whalf + 1, hhalf + 1);
 2321              		.loc 1 322 53 discriminator 2 view .LVU715
 2322 0122 F2E7     		b	.L133
 2323              	.LVL221:
 2324              	.L134:
 322:lvgl/lvgl/src/core/lv_obj_style.c ****             if(v2.num == LV_RADIUS_CIRCLE) v2.num = LV_MIN(whalf + 1, hhalf + 1);
 2325              		.loc 1 322 53 discriminator 3 view .LVU716
 2326 0124 5D1C     		adds	r5, r3, #1
 2327              	.LVL222:
 322:lvgl/lvgl/src/core/lv_obj_style.c ****             if(v2.num == LV_RADIUS_CIRCLE) v2.num = LV_MIN(whalf + 1, hhalf + 1);
 2328              		.loc 1 322 53 discriminator 3 view .LVU717
 2329 0126 F0E7     		b	.L133
 2330              	.LVL223:
 2331              	.L136:
 323:lvgl/lvgl/src/core/lv_obj_style.c ****         }
 2332              		.loc 1 323 53 discriminator 3 view .LVU718
 2333 0128 0133     		adds	r3, r3, #1
 2334              	.LVL224:
 323:lvgl/lvgl/src/core/lv_obj_style.c ****         }
 2335              		.loc 1 323 53 discriminator 3 view .LVU719
 2336 012a F5E7     		b	.L137
ARM GAS  C:\Users\gx\AppData\Local\Temp\cc2sgWsf.s 			page 75


 2337              	.LVL225:
 2338              	.L143:
 323:lvgl/lvgl/src/core/lv_obj_style.c ****         }
 2339              		.loc 1 323 53 discriminator 3 view .LVU720
 2340              	.LBE116:
 328:lvgl/lvgl/src/core/lv_obj_style.c ****     if(tr == NULL) return;
 2341              		.loc 1 328 5 is_stmt 1 discriminator 1 view .LVU721
 2342 012c 0A4B     		ldr	r3, .L145+16
 2343 012e 0293     		str	r3, [sp, #8]
 2344 0130 0A4B     		ldr	r3, .L145+20
 2345 0132 0193     		str	r3, [sp, #4]
 2346 0134 0A4B     		ldr	r3, .L145+24
 2347 0136 0093     		str	r3, [sp]
 2348 0138 0A4B     		ldr	r3, .L145+28
 2349 013a 4FF4A472 		mov	r2, #328
 2350 013e 0A49     		ldr	r1, .L145+32
 2351 0140 0320     		movs	r0, #3
 2352              	.LVL226:
 328:lvgl/lvgl/src/core/lv_obj_style.c ****     if(tr == NULL) return;
 2353              		.loc 1 328 5 is_stmt 0 discriminator 1 view .LVU722
 2354 0142 FFF7FEFF 		bl	_lv_log_add
 2355              	.LVL227:
