ARM GAS  C:\Users\gx\AppData\Local\Temp\ccCs6Xqg.s 			page 1


   1              		.cpu cortex-m4
   2              		.eabi_attribute 27, 1
   3              		.eabi_attribute 28, 1
   4              		.eabi_attribute 20, 1
   5              		.eabi_attribute 21, 1
   6              		.eabi_attribute 23, 3
   7              		.eabi_attribute 24, 1
   8              		.eabi_attribute 25, 1
   9              		.eabi_attribute 26, 1
  10              		.eabi_attribute 30, 1
  11              		.eabi_attribute 34, 1
  12              		.eabi_attribute 18, 4
  13              		.file	"lv_slider.c"
  14              		.text
  15              	.Ltext0:
  16              		.cfi_sections	.debug_frame
  17              		.section	.text.position_knob,"ax",%progbits
  18              		.align	1
  19              		.arch armv7e-m
  20              		.syntax unified
  21              		.thumb
  22              		.thumb_func
  23              		.fpu fpv4-sp-d16
  25              	position_knob:
  26              	.LVL0:
  27              	.LFB172:
  28              		.file 1 "lvgl/lvgl/src/widgets/lv_slider.c"
   1:lvgl/lvgl/src/widgets/lv_slider.c **** /**
   2:lvgl/lvgl/src/widgets/lv_slider.c ****  * @file lv_slider.c
   3:lvgl/lvgl/src/widgets/lv_slider.c ****  *
   4:lvgl/lvgl/src/widgets/lv_slider.c ****  */
   5:lvgl/lvgl/src/widgets/lv_slider.c **** 
   6:lvgl/lvgl/src/widgets/lv_slider.c **** /*********************
   7:lvgl/lvgl/src/widgets/lv_slider.c ****  *      INCLUDES
   8:lvgl/lvgl/src/widgets/lv_slider.c ****  *********************/
   9:lvgl/lvgl/src/widgets/lv_slider.c **** #include "lv_slider.h"
  10:lvgl/lvgl/src/widgets/lv_slider.c **** #if LV_USE_SLIDER != 0
  11:lvgl/lvgl/src/widgets/lv_slider.c **** 
  12:lvgl/lvgl/src/widgets/lv_slider.c **** #include "../misc/lv_assert.h"
  13:lvgl/lvgl/src/widgets/lv_slider.c **** #include "../core/lv_group.h"
  14:lvgl/lvgl/src/widgets/lv_slider.c **** #include "../core/lv_indev.h"
  15:lvgl/lvgl/src/widgets/lv_slider.c **** #include "../draw/lv_draw.h"
  16:lvgl/lvgl/src/widgets/lv_slider.c **** #include "../misc/lv_math.h"
  17:lvgl/lvgl/src/widgets/lv_slider.c **** #include "../core/lv_disp.h"
  18:lvgl/lvgl/src/widgets/lv_slider.c **** #include "lv_img.h"
  19:lvgl/lvgl/src/widgets/lv_slider.c **** 
  20:lvgl/lvgl/src/widgets/lv_slider.c **** /*********************
  21:lvgl/lvgl/src/widgets/lv_slider.c ****  *      DEFINES
  22:lvgl/lvgl/src/widgets/lv_slider.c ****  *********************/
  23:lvgl/lvgl/src/widgets/lv_slider.c **** #define MY_CLASS &lv_slider_class
  24:lvgl/lvgl/src/widgets/lv_slider.c **** 
  25:lvgl/lvgl/src/widgets/lv_slider.c **** #define LV_SLIDER_KNOB_COORD(hor, is_rtl, area) (hor ? (is_rtl ? area.x1 : area.x2) : (is_rtl ? are
  26:lvgl/lvgl/src/widgets/lv_slider.c **** 
  27:lvgl/lvgl/src/widgets/lv_slider.c **** /**********************
  28:lvgl/lvgl/src/widgets/lv_slider.c ****  *      TYPEDEFS
  29:lvgl/lvgl/src/widgets/lv_slider.c ****  **********************/
  30:lvgl/lvgl/src/widgets/lv_slider.c **** 
ARM GAS  C:\Users\gx\AppData\Local\Temp\ccCs6Xqg.s 			page 2


  31:lvgl/lvgl/src/widgets/lv_slider.c **** /**********************
  32:lvgl/lvgl/src/widgets/lv_slider.c ****  *  STATIC PROTOTYPES
  33:lvgl/lvgl/src/widgets/lv_slider.c ****  **********************/
  34:lvgl/lvgl/src/widgets/lv_slider.c **** static void lv_slider_constructor(const lv_obj_class_t * class_p, lv_obj_t * obj);
  35:lvgl/lvgl/src/widgets/lv_slider.c **** static void lv_slider_event(const lv_obj_class_t * class_p, lv_event_t * e);
  36:lvgl/lvgl/src/widgets/lv_slider.c **** static void position_knob(lv_obj_t * obj, lv_area_t * knob_area, lv_coord_t knob_size, bool hor);
  37:lvgl/lvgl/src/widgets/lv_slider.c **** static void draw_knob(lv_event_t * e);
  38:lvgl/lvgl/src/widgets/lv_slider.c **** 
  39:lvgl/lvgl/src/widgets/lv_slider.c **** /**********************
  40:lvgl/lvgl/src/widgets/lv_slider.c ****  *  STATIC VARIABLES
  41:lvgl/lvgl/src/widgets/lv_slider.c ****  **********************/
  42:lvgl/lvgl/src/widgets/lv_slider.c **** const lv_obj_class_t lv_slider_class = {
  43:lvgl/lvgl/src/widgets/lv_slider.c ****     .constructor_cb = lv_slider_constructor,
  44:lvgl/lvgl/src/widgets/lv_slider.c ****     .event_cb = lv_slider_event,
  45:lvgl/lvgl/src/widgets/lv_slider.c ****     .editable = LV_OBJ_CLASS_EDITABLE_TRUE,
  46:lvgl/lvgl/src/widgets/lv_slider.c ****     .group_def = LV_OBJ_CLASS_GROUP_DEF_TRUE,
  47:lvgl/lvgl/src/widgets/lv_slider.c ****     .instance_size = sizeof(lv_slider_t),
  48:lvgl/lvgl/src/widgets/lv_slider.c ****     .base_class = &lv_bar_class
  49:lvgl/lvgl/src/widgets/lv_slider.c **** };
  50:lvgl/lvgl/src/widgets/lv_slider.c **** 
  51:lvgl/lvgl/src/widgets/lv_slider.c **** /**********************
  52:lvgl/lvgl/src/widgets/lv_slider.c ****  *      MACROS
  53:lvgl/lvgl/src/widgets/lv_slider.c ****  **********************/
  54:lvgl/lvgl/src/widgets/lv_slider.c **** 
  55:lvgl/lvgl/src/widgets/lv_slider.c **** /**********************
  56:lvgl/lvgl/src/widgets/lv_slider.c ****  *   GLOBAL FUNCTIONS
  57:lvgl/lvgl/src/widgets/lv_slider.c ****  **********************/
  58:lvgl/lvgl/src/widgets/lv_slider.c **** 
  59:lvgl/lvgl/src/widgets/lv_slider.c **** lv_obj_t * lv_slider_create(lv_obj_t * parent)
  60:lvgl/lvgl/src/widgets/lv_slider.c **** {
  61:lvgl/lvgl/src/widgets/lv_slider.c ****     LV_LOG_INFO("begin")
  62:lvgl/lvgl/src/widgets/lv_slider.c ****     lv_obj_t * obj = lv_obj_class_create_obj(MY_CLASS, parent);
  63:lvgl/lvgl/src/widgets/lv_slider.c ****     lv_obj_class_init_obj(obj);
  64:lvgl/lvgl/src/widgets/lv_slider.c ****     return obj;
  65:lvgl/lvgl/src/widgets/lv_slider.c **** }
  66:lvgl/lvgl/src/widgets/lv_slider.c **** 
  67:lvgl/lvgl/src/widgets/lv_slider.c **** bool lv_slider_is_dragged(const lv_obj_t * obj)
  68:lvgl/lvgl/src/widgets/lv_slider.c **** {
  69:lvgl/lvgl/src/widgets/lv_slider.c ****     LV_ASSERT_OBJ(obj, MY_CLASS);
  70:lvgl/lvgl/src/widgets/lv_slider.c ****     lv_slider_t * slider = (lv_slider_t *)obj;
  71:lvgl/lvgl/src/widgets/lv_slider.c **** 
  72:lvgl/lvgl/src/widgets/lv_slider.c ****     return slider->dragging ? true : false;
  73:lvgl/lvgl/src/widgets/lv_slider.c **** }
  74:lvgl/lvgl/src/widgets/lv_slider.c **** 
  75:lvgl/lvgl/src/widgets/lv_slider.c **** /**********************
  76:lvgl/lvgl/src/widgets/lv_slider.c ****  *   STATIC FUNCTIONS
  77:lvgl/lvgl/src/widgets/lv_slider.c ****  **********************/
  78:lvgl/lvgl/src/widgets/lv_slider.c **** 
  79:lvgl/lvgl/src/widgets/lv_slider.c **** static void lv_slider_constructor(const lv_obj_class_t * class_p, lv_obj_t * obj)
  80:lvgl/lvgl/src/widgets/lv_slider.c **** {
  81:lvgl/lvgl/src/widgets/lv_slider.c ****     LV_UNUSED(class_p);
  82:lvgl/lvgl/src/widgets/lv_slider.c ****     lv_slider_t * slider = (lv_slider_t *)obj;
  83:lvgl/lvgl/src/widgets/lv_slider.c **** 
  84:lvgl/lvgl/src/widgets/lv_slider.c ****     /*Initialize the allocated 'slider'*/
  85:lvgl/lvgl/src/widgets/lv_slider.c ****     slider->value_to_set = NULL;
  86:lvgl/lvgl/src/widgets/lv_slider.c ****     slider->dragging = 0;
  87:lvgl/lvgl/src/widgets/lv_slider.c ****     slider->left_knob_focus = 0;
ARM GAS  C:\Users\gx\AppData\Local\Temp\ccCs6Xqg.s 			page 3


  88:lvgl/lvgl/src/widgets/lv_slider.c **** 
  89:lvgl/lvgl/src/widgets/lv_slider.c ****     lv_obj_clear_flag(obj, LV_OBJ_FLAG_SCROLL_CHAIN);
  90:lvgl/lvgl/src/widgets/lv_slider.c ****     lv_obj_clear_flag(obj, LV_OBJ_FLAG_SCROLLABLE);
  91:lvgl/lvgl/src/widgets/lv_slider.c ****     lv_obj_set_ext_click_area(obj, LV_DPX(8));
  92:lvgl/lvgl/src/widgets/lv_slider.c **** }
  93:lvgl/lvgl/src/widgets/lv_slider.c **** 
  94:lvgl/lvgl/src/widgets/lv_slider.c **** static void lv_slider_event(const lv_obj_class_t * class_p, lv_event_t * e)
  95:lvgl/lvgl/src/widgets/lv_slider.c **** {
  96:lvgl/lvgl/src/widgets/lv_slider.c ****     LV_UNUSED(class_p);
  97:lvgl/lvgl/src/widgets/lv_slider.c **** 
  98:lvgl/lvgl/src/widgets/lv_slider.c ****     lv_res_t res;
  99:lvgl/lvgl/src/widgets/lv_slider.c **** 
 100:lvgl/lvgl/src/widgets/lv_slider.c ****     /*Call the ancestor's event handler*/
 101:lvgl/lvgl/src/widgets/lv_slider.c ****     res = lv_obj_event_base(MY_CLASS, e);
 102:lvgl/lvgl/src/widgets/lv_slider.c ****     if(res != LV_RES_OK) return;
 103:lvgl/lvgl/src/widgets/lv_slider.c **** 
 104:lvgl/lvgl/src/widgets/lv_slider.c ****     lv_event_code_t code = lv_event_get_code(e);
 105:lvgl/lvgl/src/widgets/lv_slider.c ****     lv_obj_t * obj = lv_event_get_target(e);
 106:lvgl/lvgl/src/widgets/lv_slider.c ****     lv_slider_t * slider = (lv_slider_t *)obj;
 107:lvgl/lvgl/src/widgets/lv_slider.c ****     lv_slider_mode_t type = lv_slider_get_mode(obj);
 108:lvgl/lvgl/src/widgets/lv_slider.c **** 
 109:lvgl/lvgl/src/widgets/lv_slider.c ****     /*Advanced hit testing: react only on dragging the knob(s)*/
 110:lvgl/lvgl/src/widgets/lv_slider.c ****     if(code == LV_EVENT_HIT_TEST) {
 111:lvgl/lvgl/src/widgets/lv_slider.c ****         lv_hit_test_info_t * info = lv_event_get_param(e);
 112:lvgl/lvgl/src/widgets/lv_slider.c **** 
 113:lvgl/lvgl/src/widgets/lv_slider.c ****         /*Ordinary slider: was the knob area hit?*/
 114:lvgl/lvgl/src/widgets/lv_slider.c ****         info->res = _lv_area_is_point_on(&slider->right_knob_area, info->point, 0);
 115:lvgl/lvgl/src/widgets/lv_slider.c **** 
 116:lvgl/lvgl/src/widgets/lv_slider.c ****         /*There's still a change we have a hit, if we have another knob*/
 117:lvgl/lvgl/src/widgets/lv_slider.c ****         if((info->res == false) && (type == LV_SLIDER_MODE_RANGE)) {
 118:lvgl/lvgl/src/widgets/lv_slider.c ****             info->res = _lv_area_is_point_on(&slider->left_knob_area, info->point, 0);
 119:lvgl/lvgl/src/widgets/lv_slider.c ****         }
 120:lvgl/lvgl/src/widgets/lv_slider.c ****     }
 121:lvgl/lvgl/src/widgets/lv_slider.c ****     else if(code == LV_EVENT_PRESSED) {
 122:lvgl/lvgl/src/widgets/lv_slider.c ****         lv_obj_invalidate(obj);
 123:lvgl/lvgl/src/widgets/lv_slider.c **** 
 124:lvgl/lvgl/src/widgets/lv_slider.c ****         lv_point_t p;
 125:lvgl/lvgl/src/widgets/lv_slider.c ****         slider->dragging = true;
 126:lvgl/lvgl/src/widgets/lv_slider.c ****         if(type == LV_SLIDER_MODE_NORMAL || type == LV_SLIDER_MODE_SYMMETRICAL) {
 127:lvgl/lvgl/src/widgets/lv_slider.c ****             slider->value_to_set = &slider->bar.cur_value;
 128:lvgl/lvgl/src/widgets/lv_slider.c ****         }
 129:lvgl/lvgl/src/widgets/lv_slider.c ****         else if(type == LV_SLIDER_MODE_RANGE) {
 130:lvgl/lvgl/src/widgets/lv_slider.c ****             lv_indev_get_point(lv_indev_get_act(), &p);
 131:lvgl/lvgl/src/widgets/lv_slider.c ****             bool hor = lv_obj_get_width(obj) >= lv_obj_get_height(obj);
 132:lvgl/lvgl/src/widgets/lv_slider.c ****             lv_base_dir_t base_dir = lv_obj_get_style_base_dir(obj, LV_PART_MAIN);
 133:lvgl/lvgl/src/widgets/lv_slider.c **** 
 134:lvgl/lvgl/src/widgets/lv_slider.c ****             lv_coord_t dist_left, dist_right;
 135:lvgl/lvgl/src/widgets/lv_slider.c ****             if(hor) {
 136:lvgl/lvgl/src/widgets/lv_slider.c ****                 if((base_dir != LV_BASE_DIR_RTL && p.x > slider->right_knob_area.x2) || (base_dir =
 137:lvgl/lvgl/src/widgets/lv_slider.c ****                                                                                       p.x < slider-
 138:lvgl/lvgl/src/widgets/lv_slider.c ****                     slider->value_to_set = &slider->bar.cur_value;
 139:lvgl/lvgl/src/widgets/lv_slider.c ****                 }
 140:lvgl/lvgl/src/widgets/lv_slider.c ****                 else if((base_dir != LV_BASE_DIR_RTL && p.x < slider->left_knob_area.x1) || (base_d
 141:lvgl/lvgl/src/widgets/lv_slider.c ****                                                                                           p.x > sli
 142:lvgl/lvgl/src/widgets/lv_slider.c ****                     slider->value_to_set = &slider->bar.start_value;
 143:lvgl/lvgl/src/widgets/lv_slider.c ****                 }
 144:lvgl/lvgl/src/widgets/lv_slider.c ****                 else {
ARM GAS  C:\Users\gx\AppData\Local\Temp\ccCs6Xqg.s 			page 4


 145:lvgl/lvgl/src/widgets/lv_slider.c ****                     /*Calculate the distance from each knob*/
 146:lvgl/lvgl/src/widgets/lv_slider.c ****                     dist_left = LV_ABS((slider->left_knob_area.x1 + (slider->left_knob_area.x2 - sl
 147:lvgl/lvgl/src/widgets/lv_slider.c ****                     dist_right = LV_ABS((slider->right_knob_area.x1 + (slider->right_knob_area.x2 -
 148:lvgl/lvgl/src/widgets/lv_slider.c **** 
 149:lvgl/lvgl/src/widgets/lv_slider.c ****                     /*Use whichever one is closer*/
 150:lvgl/lvgl/src/widgets/lv_slider.c ****                     if(dist_right < dist_left) {
 151:lvgl/lvgl/src/widgets/lv_slider.c ****                         slider->value_to_set = &slider->bar.cur_value;
 152:lvgl/lvgl/src/widgets/lv_slider.c ****                         slider->left_knob_focus = 0;
 153:lvgl/lvgl/src/widgets/lv_slider.c ****                     }
 154:lvgl/lvgl/src/widgets/lv_slider.c ****                     else {
 155:lvgl/lvgl/src/widgets/lv_slider.c ****                         slider->value_to_set = &slider->bar.start_value;
 156:lvgl/lvgl/src/widgets/lv_slider.c ****                         slider->left_knob_focus = 1;
 157:lvgl/lvgl/src/widgets/lv_slider.c ****                     }
 158:lvgl/lvgl/src/widgets/lv_slider.c ****                 }
 159:lvgl/lvgl/src/widgets/lv_slider.c ****             }
 160:lvgl/lvgl/src/widgets/lv_slider.c ****             else {
 161:lvgl/lvgl/src/widgets/lv_slider.c ****                 if(p.y < slider->right_knob_area.y1) {
 162:lvgl/lvgl/src/widgets/lv_slider.c ****                     slider->value_to_set = &slider->bar.cur_value;
 163:lvgl/lvgl/src/widgets/lv_slider.c ****                 }
 164:lvgl/lvgl/src/widgets/lv_slider.c ****                 else if(p.y > slider->left_knob_area.y2) {
 165:lvgl/lvgl/src/widgets/lv_slider.c ****                     slider->value_to_set = &slider->bar.start_value;
 166:lvgl/lvgl/src/widgets/lv_slider.c ****                 }
 167:lvgl/lvgl/src/widgets/lv_slider.c ****                 else {
 168:lvgl/lvgl/src/widgets/lv_slider.c ****                     /*Calculate the distance from each knob*/
 169:lvgl/lvgl/src/widgets/lv_slider.c ****                     dist_left = LV_ABS((slider->left_knob_area.y1 + (slider->left_knob_area.y2 - sl
 170:lvgl/lvgl/src/widgets/lv_slider.c ****                     dist_right = LV_ABS((slider->right_knob_area.y1 + (slider->right_knob_area.y2 -
 171:lvgl/lvgl/src/widgets/lv_slider.c **** 
 172:lvgl/lvgl/src/widgets/lv_slider.c ****                     /*Use whichever one is closer*/
 173:lvgl/lvgl/src/widgets/lv_slider.c ****                     if(dist_right < dist_left) {
 174:lvgl/lvgl/src/widgets/lv_slider.c ****                         slider->value_to_set = &slider->bar.cur_value;
 175:lvgl/lvgl/src/widgets/lv_slider.c ****                         slider->left_knob_focus = 0;
 176:lvgl/lvgl/src/widgets/lv_slider.c ****                     }
 177:lvgl/lvgl/src/widgets/lv_slider.c ****                     else {
 178:lvgl/lvgl/src/widgets/lv_slider.c ****                         slider->value_to_set = &slider->bar.start_value;
 179:lvgl/lvgl/src/widgets/lv_slider.c ****                         slider->left_knob_focus = 1;
 180:lvgl/lvgl/src/widgets/lv_slider.c ****                     }
 181:lvgl/lvgl/src/widgets/lv_slider.c ****                 }
 182:lvgl/lvgl/src/widgets/lv_slider.c ****             }
 183:lvgl/lvgl/src/widgets/lv_slider.c ****         }
 184:lvgl/lvgl/src/widgets/lv_slider.c ****     }
 185:lvgl/lvgl/src/widgets/lv_slider.c ****     else if(code == LV_EVENT_PRESSING && slider->value_to_set != NULL) {
 186:lvgl/lvgl/src/widgets/lv_slider.c ****         lv_indev_t * indev = lv_indev_get_act();
 187:lvgl/lvgl/src/widgets/lv_slider.c ****         if(lv_indev_get_type(indev) != LV_INDEV_TYPE_POINTER) return;
 188:lvgl/lvgl/src/widgets/lv_slider.c **** 
 189:lvgl/lvgl/src/widgets/lv_slider.c ****         lv_point_t p;
 190:lvgl/lvgl/src/widgets/lv_slider.c ****         lv_indev_get_point(indev, &p);
 191:lvgl/lvgl/src/widgets/lv_slider.c ****         lv_base_dir_t base_dir = lv_obj_get_style_base_dir(obj, LV_PART_MAIN);
 192:lvgl/lvgl/src/widgets/lv_slider.c **** 
 193:lvgl/lvgl/src/widgets/lv_slider.c ****         lv_coord_t w = lv_obj_get_width(obj);
 194:lvgl/lvgl/src/widgets/lv_slider.c ****         lv_coord_t h = lv_obj_get_height(obj);
 195:lvgl/lvgl/src/widgets/lv_slider.c **** 
 196:lvgl/lvgl/src/widgets/lv_slider.c ****         lv_coord_t bg_left = lv_obj_get_style_pad_left(obj,   LV_PART_MAIN);
 197:lvgl/lvgl/src/widgets/lv_slider.c ****         lv_coord_t bg_right = lv_obj_get_style_pad_right(obj,  LV_PART_MAIN);
 198:lvgl/lvgl/src/widgets/lv_slider.c ****         lv_coord_t bg_top = lv_obj_get_style_pad_top(obj,    LV_PART_MAIN);
 199:lvgl/lvgl/src/widgets/lv_slider.c ****         lv_coord_t bg_bottom = lv_obj_get_style_pad_bottom(obj, LV_PART_MAIN);
 200:lvgl/lvgl/src/widgets/lv_slider.c **** 
 201:lvgl/lvgl/src/widgets/lv_slider.c ****         int32_t range = slider->bar.max_value - slider->bar.min_value;
ARM GAS  C:\Users\gx\AppData\Local\Temp\ccCs6Xqg.s 			page 5


 202:lvgl/lvgl/src/widgets/lv_slider.c ****         int32_t new_value = 0;
 203:lvgl/lvgl/src/widgets/lv_slider.c ****         int32_t real_max_value = slider->bar.max_value;
 204:lvgl/lvgl/src/widgets/lv_slider.c ****         int32_t real_min_value = slider->bar.min_value;
 205:lvgl/lvgl/src/widgets/lv_slider.c **** 
 206:lvgl/lvgl/src/widgets/lv_slider.c ****         if(w >= h) {
 207:lvgl/lvgl/src/widgets/lv_slider.c ****             lv_coord_t indic_w = w - bg_left - bg_right;
 208:lvgl/lvgl/src/widgets/lv_slider.c ****             if(base_dir == LV_BASE_DIR_RTL) {
 209:lvgl/lvgl/src/widgets/lv_slider.c ****                 new_value = (obj->coords.x2 - bg_right) - p.x; /*Make the point relative to the ind
 210:lvgl/lvgl/src/widgets/lv_slider.c ****             }
 211:lvgl/lvgl/src/widgets/lv_slider.c ****             else {
 212:lvgl/lvgl/src/widgets/lv_slider.c ****                 new_value = p.x - (obj->coords.x1 + bg_left); /*Make the point relative to the indi
 213:lvgl/lvgl/src/widgets/lv_slider.c ****             }
 214:lvgl/lvgl/src/widgets/lv_slider.c ****             new_value = (new_value * range) / indic_w;
 215:lvgl/lvgl/src/widgets/lv_slider.c ****             new_value += slider->bar.min_value;
 216:lvgl/lvgl/src/widgets/lv_slider.c ****         }
 217:lvgl/lvgl/src/widgets/lv_slider.c ****         else {
 218:lvgl/lvgl/src/widgets/lv_slider.c ****             lv_coord_t indic_h = h - bg_bottom - bg_top;
 219:lvgl/lvgl/src/widgets/lv_slider.c ****             new_value = p.y - (obj->coords.y2 + bg_bottom); /*Make the point relative to the indica
 220:lvgl/lvgl/src/widgets/lv_slider.c ****             new_value = (-new_value * range) / indic_h;
 221:lvgl/lvgl/src/widgets/lv_slider.c ****             new_value += slider->bar.min_value;
 222:lvgl/lvgl/src/widgets/lv_slider.c **** 
 223:lvgl/lvgl/src/widgets/lv_slider.c ****         }
 224:lvgl/lvgl/src/widgets/lv_slider.c **** 
 225:lvgl/lvgl/src/widgets/lv_slider.c ****         /*Figure out the min. and max. for this mode*/
 226:lvgl/lvgl/src/widgets/lv_slider.c ****         if(slider->value_to_set == &slider->bar.start_value) {
 227:lvgl/lvgl/src/widgets/lv_slider.c ****             real_max_value = slider->bar.cur_value;
 228:lvgl/lvgl/src/widgets/lv_slider.c ****         }
 229:lvgl/lvgl/src/widgets/lv_slider.c ****         else {
 230:lvgl/lvgl/src/widgets/lv_slider.c ****             real_min_value = slider->bar.start_value;
 231:lvgl/lvgl/src/widgets/lv_slider.c ****         }
 232:lvgl/lvgl/src/widgets/lv_slider.c **** 
 233:lvgl/lvgl/src/widgets/lv_slider.c ****         if(new_value < real_min_value) new_value = real_min_value;
 234:lvgl/lvgl/src/widgets/lv_slider.c ****         else if(new_value > real_max_value) new_value = real_max_value;
 235:lvgl/lvgl/src/widgets/lv_slider.c ****         if(*slider->value_to_set != new_value) {
 236:lvgl/lvgl/src/widgets/lv_slider.c ****             *slider->value_to_set = new_value;
 237:lvgl/lvgl/src/widgets/lv_slider.c ****             lv_obj_invalidate(obj);
 238:lvgl/lvgl/src/widgets/lv_slider.c ****             res = lv_event_send(obj, LV_EVENT_VALUE_CHANGED, NULL);
 239:lvgl/lvgl/src/widgets/lv_slider.c ****             if(res != LV_RES_OK) return;
 240:lvgl/lvgl/src/widgets/lv_slider.c ****         }
 241:lvgl/lvgl/src/widgets/lv_slider.c **** 
 242:lvgl/lvgl/src/widgets/lv_slider.c ****     }
 243:lvgl/lvgl/src/widgets/lv_slider.c ****     else if(code == LV_EVENT_RELEASED || code == LV_EVENT_PRESS_LOST) {
 244:lvgl/lvgl/src/widgets/lv_slider.c ****         slider->dragging = false;
 245:lvgl/lvgl/src/widgets/lv_slider.c ****         slider->value_to_set = NULL;
 246:lvgl/lvgl/src/widgets/lv_slider.c **** 
 247:lvgl/lvgl/src/widgets/lv_slider.c ****         lv_obj_invalidate(obj);
 248:lvgl/lvgl/src/widgets/lv_slider.c **** 
 249:lvgl/lvgl/src/widgets/lv_slider.c ****         /*Leave edit mode if released. (No need to wait for LONG_PRESS)*/
 250:lvgl/lvgl/src/widgets/lv_slider.c ****         lv_group_t * g   = lv_obj_get_group(obj);
 251:lvgl/lvgl/src/widgets/lv_slider.c ****         bool editing     = lv_group_get_editing(g);
 252:lvgl/lvgl/src/widgets/lv_slider.c ****         lv_indev_type_t indev_type = lv_indev_get_type(lv_indev_get_act());
 253:lvgl/lvgl/src/widgets/lv_slider.c ****         if(indev_type == LV_INDEV_TYPE_ENCODER) {
 254:lvgl/lvgl/src/widgets/lv_slider.c ****             if(editing) {
 255:lvgl/lvgl/src/widgets/lv_slider.c ****                 if(lv_slider_get_mode(obj) == LV_SLIDER_MODE_RANGE) {
 256:lvgl/lvgl/src/widgets/lv_slider.c ****                     if(slider->left_knob_focus == 0) slider->left_knob_focus = 1;
 257:lvgl/lvgl/src/widgets/lv_slider.c ****                     else {
 258:lvgl/lvgl/src/widgets/lv_slider.c ****                         slider->left_knob_focus = 0;
ARM GAS  C:\Users\gx\AppData\Local\Temp\ccCs6Xqg.s 			page 6


 259:lvgl/lvgl/src/widgets/lv_slider.c ****                         lv_group_set_editing(g, false);
 260:lvgl/lvgl/src/widgets/lv_slider.c ****                     }
 261:lvgl/lvgl/src/widgets/lv_slider.c ****                 }
 262:lvgl/lvgl/src/widgets/lv_slider.c ****                 else {
 263:lvgl/lvgl/src/widgets/lv_slider.c ****                     lv_group_set_editing(g, false);
 264:lvgl/lvgl/src/widgets/lv_slider.c ****                 }
 265:lvgl/lvgl/src/widgets/lv_slider.c ****             }
 266:lvgl/lvgl/src/widgets/lv_slider.c ****         }
 267:lvgl/lvgl/src/widgets/lv_slider.c **** 
 268:lvgl/lvgl/src/widgets/lv_slider.c ****     }
 269:lvgl/lvgl/src/widgets/lv_slider.c ****     else if(code == LV_EVENT_FOCUSED) {
 270:lvgl/lvgl/src/widgets/lv_slider.c ****         lv_indev_type_t indev_type = lv_indev_get_type(lv_indev_get_act());
 271:lvgl/lvgl/src/widgets/lv_slider.c ****         if(indev_type == LV_INDEV_TYPE_ENCODER || indev_type == LV_INDEV_TYPE_KEYPAD) {
 272:lvgl/lvgl/src/widgets/lv_slider.c ****             slider->left_knob_focus = 0;
 273:lvgl/lvgl/src/widgets/lv_slider.c ****         }
 274:lvgl/lvgl/src/widgets/lv_slider.c ****     }
 275:lvgl/lvgl/src/widgets/lv_slider.c ****     else if(code == LV_EVENT_SIZE_CHANGED) {
 276:lvgl/lvgl/src/widgets/lv_slider.c ****         lv_obj_refresh_ext_draw_size(obj);
 277:lvgl/lvgl/src/widgets/lv_slider.c ****     }
 278:lvgl/lvgl/src/widgets/lv_slider.c ****     else if(code == LV_EVENT_REFR_EXT_DRAW_SIZE) {
 279:lvgl/lvgl/src/widgets/lv_slider.c ****         lv_coord_t knob_left = lv_obj_get_style_pad_left(obj, LV_PART_KNOB);
 280:lvgl/lvgl/src/widgets/lv_slider.c ****         lv_coord_t knob_right = lv_obj_get_style_pad_right(obj,LV_PART_KNOB);
 281:lvgl/lvgl/src/widgets/lv_slider.c ****         lv_coord_t knob_top = lv_obj_get_style_pad_top(obj, LV_PART_KNOB);
 282:lvgl/lvgl/src/widgets/lv_slider.c ****         lv_coord_t knob_bottom = lv_obj_get_style_pad_bottom(obj, LV_PART_KNOB);
 283:lvgl/lvgl/src/widgets/lv_slider.c **** 
 284:lvgl/lvgl/src/widgets/lv_slider.c ****         /*The smaller size is the knob diameter*/
 285:lvgl/lvgl/src/widgets/lv_slider.c ****         lv_coord_t zoom = lv_obj_get_style_transform_zoom(obj, LV_PART_KNOB);
 286:lvgl/lvgl/src/widgets/lv_slider.c ****         lv_coord_t trans_w = lv_obj_get_style_transform_width(obj, LV_PART_KNOB);
 287:lvgl/lvgl/src/widgets/lv_slider.c ****         lv_coord_t trans_h = lv_obj_get_style_transform_height(obj, LV_PART_KNOB);
 288:lvgl/lvgl/src/widgets/lv_slider.c ****         lv_coord_t knob_size = LV_MIN(lv_obj_get_width(obj) + 2 * trans_w, lv_obj_get_height(obj) +
 289:lvgl/lvgl/src/widgets/lv_slider.c ****         knob_size = (knob_size * zoom) >> 8;
 290:lvgl/lvgl/src/widgets/lv_slider.c ****         knob_size += LV_MAX(LV_MAX(knob_left, knob_right), LV_MAX(knob_bottom, knob_top));
 291:lvgl/lvgl/src/widgets/lv_slider.c ****         knob_size += 2;         /*For rounding error*/
 292:lvgl/lvgl/src/widgets/lv_slider.c ****         knob_size += lv_obj_calculate_ext_draw_size(obj, LV_PART_KNOB);
 293:lvgl/lvgl/src/widgets/lv_slider.c **** 
 294:lvgl/lvgl/src/widgets/lv_slider.c ****         /*Indic. size is handled by bar*/
 295:lvgl/lvgl/src/widgets/lv_slider.c ****         lv_coord_t * s = lv_event_get_param(e);
 296:lvgl/lvgl/src/widgets/lv_slider.c ****         *s  = LV_MAX(*s, knob_size);
 297:lvgl/lvgl/src/widgets/lv_slider.c **** 
 298:lvgl/lvgl/src/widgets/lv_slider.c ****     }
 299:lvgl/lvgl/src/widgets/lv_slider.c ****     else if(code == LV_EVENT_KEY) {
 300:lvgl/lvgl/src/widgets/lv_slider.c ****         char c = *((char *)lv_event_get_param(e));
 301:lvgl/lvgl/src/widgets/lv_slider.c **** 
 302:lvgl/lvgl/src/widgets/lv_slider.c ****         if(c == LV_KEY_RIGHT || c == LV_KEY_UP) {
 303:lvgl/lvgl/src/widgets/lv_slider.c ****             if(!slider->left_knob_focus) lv_slider_set_value(obj, lv_slider_get_value(obj) + 1, LV_
 304:lvgl/lvgl/src/widgets/lv_slider.c ****             else lv_slider_set_left_value(obj, lv_slider_get_left_value(obj) + 1, LV_ANIM_ON);
 305:lvgl/lvgl/src/widgets/lv_slider.c **** 
 306:lvgl/lvgl/src/widgets/lv_slider.c ****             res = lv_event_send(obj, LV_EVENT_VALUE_CHANGED, NULL);
 307:lvgl/lvgl/src/widgets/lv_slider.c ****             if(res != LV_RES_OK) return;
 308:lvgl/lvgl/src/widgets/lv_slider.c ****         }
 309:lvgl/lvgl/src/widgets/lv_slider.c ****         else if(c == LV_KEY_LEFT || c == LV_KEY_DOWN) {
 310:lvgl/lvgl/src/widgets/lv_slider.c ****             if(!slider->left_knob_focus) lv_slider_set_value(obj, lv_slider_get_value(obj) - 1, LV_
 311:lvgl/lvgl/src/widgets/lv_slider.c ****             else lv_slider_set_left_value(obj, lv_slider_get_left_value(obj) - 1, LV_ANIM_ON);
 312:lvgl/lvgl/src/widgets/lv_slider.c **** 
 313:lvgl/lvgl/src/widgets/lv_slider.c ****             res = lv_event_send(obj, LV_EVENT_VALUE_CHANGED, NULL);
 314:lvgl/lvgl/src/widgets/lv_slider.c ****             if(res != LV_RES_OK) return;
 315:lvgl/lvgl/src/widgets/lv_slider.c ****         }
ARM GAS  C:\Users\gx\AppData\Local\Temp\ccCs6Xqg.s 			page 7


 316:lvgl/lvgl/src/widgets/lv_slider.c ****     } else if(code == LV_EVENT_DRAW_MAIN) {
 317:lvgl/lvgl/src/widgets/lv_slider.c ****         draw_knob(e);
 318:lvgl/lvgl/src/widgets/lv_slider.c ****     }
 319:lvgl/lvgl/src/widgets/lv_slider.c **** }
 320:lvgl/lvgl/src/widgets/lv_slider.c **** 
 321:lvgl/lvgl/src/widgets/lv_slider.c **** static void draw_knob(lv_event_t * e)
 322:lvgl/lvgl/src/widgets/lv_slider.c **** {
 323:lvgl/lvgl/src/widgets/lv_slider.c ****     lv_obj_t * obj = lv_event_get_target(e);
 324:lvgl/lvgl/src/widgets/lv_slider.c ****     lv_slider_t * slider = (lv_slider_t *)obj;
 325:lvgl/lvgl/src/widgets/lv_slider.c ****     const lv_area_t * clip_area = lv_event_get_param(e);
 326:lvgl/lvgl/src/widgets/lv_slider.c ****     lv_base_dir_t base_dir = lv_obj_get_style_base_dir(obj, LV_PART_MAIN);
 327:lvgl/lvgl/src/widgets/lv_slider.c **** 
 328:lvgl/lvgl/src/widgets/lv_slider.c ****     lv_coord_t objw = lv_obj_get_width(obj);
 329:lvgl/lvgl/src/widgets/lv_slider.c ****     lv_coord_t objh = lv_obj_get_height(obj);
 330:lvgl/lvgl/src/widgets/lv_slider.c ****     bool hor = objw >= objh ? true : false;
 331:lvgl/lvgl/src/widgets/lv_slider.c ****     lv_coord_t knob_size = hor ? objh : objw;
 332:lvgl/lvgl/src/widgets/lv_slider.c ****     bool sym = false;
 333:lvgl/lvgl/src/widgets/lv_slider.c ****     if(slider->bar.mode == LV_BAR_MODE_SYMMETRICAL && slider->bar.min_value < 0 && slider->bar.max_
 334:lvgl/lvgl/src/widgets/lv_slider.c **** 
 335:lvgl/lvgl/src/widgets/lv_slider.c ****     lv_area_t knob_area;
 336:lvgl/lvgl/src/widgets/lv_slider.c **** 
 337:lvgl/lvgl/src/widgets/lv_slider.c ****     /*Horizontal*/
 338:lvgl/lvgl/src/widgets/lv_slider.c ****     if(hor) {
 339:lvgl/lvgl/src/widgets/lv_slider.c ****         if(!sym) {
 340:lvgl/lvgl/src/widgets/lv_slider.c ****             knob_area.x1 = LV_SLIDER_KNOB_COORD(hor, base_dir == LV_BASE_DIR_RTL, slider->bar.indic
 341:lvgl/lvgl/src/widgets/lv_slider.c ****         }
 342:lvgl/lvgl/src/widgets/lv_slider.c ****         else {
 343:lvgl/lvgl/src/widgets/lv_slider.c ****             if(slider->bar.cur_value >= 0) {
 344:lvgl/lvgl/src/widgets/lv_slider.c ****                 knob_area.x1 = LV_SLIDER_KNOB_COORD(hor, base_dir == LV_BASE_DIR_RTL, slider->bar.i
 345:lvgl/lvgl/src/widgets/lv_slider.c ****             }
 346:lvgl/lvgl/src/widgets/lv_slider.c ****             else {
 347:lvgl/lvgl/src/widgets/lv_slider.c ****                 knob_area.x1 = LV_SLIDER_KNOB_COORD(hor, base_dir != LV_BASE_DIR_RTL, slider->bar.i
 348:lvgl/lvgl/src/widgets/lv_slider.c ****             }
 349:lvgl/lvgl/src/widgets/lv_slider.c ****         }
 350:lvgl/lvgl/src/widgets/lv_slider.c ****     }
 351:lvgl/lvgl/src/widgets/lv_slider.c ****     /*Vertical*/
 352:lvgl/lvgl/src/widgets/lv_slider.c ****     else {
 353:lvgl/lvgl/src/widgets/lv_slider.c ****         if(!sym) {
 354:lvgl/lvgl/src/widgets/lv_slider.c ****             knob_area.y1 = slider->bar.indic_area.y1;
 355:lvgl/lvgl/src/widgets/lv_slider.c ****         }
 356:lvgl/lvgl/src/widgets/lv_slider.c ****         else {
 357:lvgl/lvgl/src/widgets/lv_slider.c ****             if(slider->bar.cur_value >= 0) {
 358:lvgl/lvgl/src/widgets/lv_slider.c ****                 knob_area.y1 = slider->bar.indic_area.y1;
 359:lvgl/lvgl/src/widgets/lv_slider.c ****             }
 360:lvgl/lvgl/src/widgets/lv_slider.c ****             else {
 361:lvgl/lvgl/src/widgets/lv_slider.c ****                 knob_area.y1 = slider->bar.indic_area.y2;
 362:lvgl/lvgl/src/widgets/lv_slider.c ****             }
 363:lvgl/lvgl/src/widgets/lv_slider.c ****         }
 364:lvgl/lvgl/src/widgets/lv_slider.c ****     }
 365:lvgl/lvgl/src/widgets/lv_slider.c **** 
 366:lvgl/lvgl/src/widgets/lv_slider.c ****     lv_draw_rect_dsc_t knob_rect_dsc;
 367:lvgl/lvgl/src/widgets/lv_slider.c ****     lv_draw_rect_dsc_init(&knob_rect_dsc);
 368:lvgl/lvgl/src/widgets/lv_slider.c ****     lv_obj_init_draw_rect_dsc(obj, LV_PART_KNOB, &knob_rect_dsc);
 369:lvgl/lvgl/src/widgets/lv_slider.c **** 
 370:lvgl/lvgl/src/widgets/lv_slider.c ****     position_knob(obj, &knob_area, knob_size, hor);
 371:lvgl/lvgl/src/widgets/lv_slider.c ****     lv_area_copy(&slider->right_knob_area, &knob_area);
 372:lvgl/lvgl/src/widgets/lv_slider.c **** 
ARM GAS  C:\Users\gx\AppData\Local\Temp\ccCs6Xqg.s 			page 8


 373:lvgl/lvgl/src/widgets/lv_slider.c ****     lv_obj_draw_part_dsc_t part_draw_dsc;
 374:lvgl/lvgl/src/widgets/lv_slider.c ****     lv_obj_draw_dsc_init(&part_draw_dsc, clip_area);
 375:lvgl/lvgl/src/widgets/lv_slider.c ****     part_draw_dsc.part = LV_PART_KNOB;
 376:lvgl/lvgl/src/widgets/lv_slider.c ****     part_draw_dsc.class_p = MY_CLASS;
 377:lvgl/lvgl/src/widgets/lv_slider.c ****     part_draw_dsc.type = LV_SLIDER_DRAW_PART_KNOB;
 378:lvgl/lvgl/src/widgets/lv_slider.c ****     part_draw_dsc.id = 0;
 379:lvgl/lvgl/src/widgets/lv_slider.c ****     part_draw_dsc.draw_area = &slider->right_knob_area;
 380:lvgl/lvgl/src/widgets/lv_slider.c ****     part_draw_dsc.rect_dsc = &knob_rect_dsc;
 381:lvgl/lvgl/src/widgets/lv_slider.c **** 
 382:lvgl/lvgl/src/widgets/lv_slider.c ****     if(lv_slider_get_mode(obj) != LV_SLIDER_MODE_RANGE) {
 383:lvgl/lvgl/src/widgets/lv_slider.c ****         lv_event_send(obj, LV_EVENT_DRAW_PART_BEGIN, &part_draw_dsc);
 384:lvgl/lvgl/src/widgets/lv_slider.c ****         lv_draw_rect(&slider->right_knob_area, clip_area, &knob_rect_dsc);
 385:lvgl/lvgl/src/widgets/lv_slider.c ****         lv_event_send(obj, LV_EVENT_DRAW_PART_END, &part_draw_dsc);
 386:lvgl/lvgl/src/widgets/lv_slider.c ****     } else {
 387:lvgl/lvgl/src/widgets/lv_slider.c ****         /*Save the draw part_draw_dsc. because it can be modified in the event*/
 388:lvgl/lvgl/src/widgets/lv_slider.c ****         lv_draw_rect_dsc_t knob_rect_dsc_tmp;
 389:lvgl/lvgl/src/widgets/lv_slider.c ****         lv_memcpy(&knob_rect_dsc_tmp, &knob_rect_dsc, sizeof(lv_draw_rect_dsc_t));
 390:lvgl/lvgl/src/widgets/lv_slider.c **** 
 391:lvgl/lvgl/src/widgets/lv_slider.c ****         lv_event_send(obj, LV_EVENT_DRAW_PART_BEGIN, &part_draw_dsc);
 392:lvgl/lvgl/src/widgets/lv_slider.c ****         lv_draw_rect(&slider->right_knob_area, clip_area, &knob_rect_dsc);
 393:lvgl/lvgl/src/widgets/lv_slider.c ****         lv_event_send(obj, LV_EVENT_DRAW_PART_END, &part_draw_dsc);
 394:lvgl/lvgl/src/widgets/lv_slider.c **** 
 395:lvgl/lvgl/src/widgets/lv_slider.c ****         /*Draw a second knob for the start_value side*/
 396:lvgl/lvgl/src/widgets/lv_slider.c ****         if(hor) {
 397:lvgl/lvgl/src/widgets/lv_slider.c ****             knob_area.x1 = LV_SLIDER_KNOB_COORD(hor, base_dir != LV_BASE_DIR_RTL, slider->bar.indic
 398:lvgl/lvgl/src/widgets/lv_slider.c ****         }
 399:lvgl/lvgl/src/widgets/lv_slider.c ****         else {
 400:lvgl/lvgl/src/widgets/lv_slider.c ****             knob_area.y1 = slider->bar.indic_area.y2;
 401:lvgl/lvgl/src/widgets/lv_slider.c ****         }
 402:lvgl/lvgl/src/widgets/lv_slider.c ****         position_knob(obj, &knob_area, knob_size, hor);
 403:lvgl/lvgl/src/widgets/lv_slider.c ****         lv_area_copy(&slider->left_knob_area, &knob_area);
 404:lvgl/lvgl/src/widgets/lv_slider.c **** 
 405:lvgl/lvgl/src/widgets/lv_slider.c ****         lv_memcpy(&knob_rect_dsc, &knob_rect_dsc_tmp, sizeof(lv_draw_rect_dsc_t));
 406:lvgl/lvgl/src/widgets/lv_slider.c ****         part_draw_dsc.type = LV_SLIDER_DRAW_PART_KNOB_LEFT;
 407:lvgl/lvgl/src/widgets/lv_slider.c ****         part_draw_dsc.draw_area = &slider->left_knob_area;
 408:lvgl/lvgl/src/widgets/lv_slider.c ****         part_draw_dsc.rect_dsc = &knob_rect_dsc;
 409:lvgl/lvgl/src/widgets/lv_slider.c ****         part_draw_dsc.id = 1;
 410:lvgl/lvgl/src/widgets/lv_slider.c **** 
 411:lvgl/lvgl/src/widgets/lv_slider.c ****         lv_event_send(obj, LV_EVENT_DRAW_PART_BEGIN, &part_draw_dsc);
 412:lvgl/lvgl/src/widgets/lv_slider.c ****         lv_draw_rect(&slider->left_knob_area, clip_area, &knob_rect_dsc);
 413:lvgl/lvgl/src/widgets/lv_slider.c ****         lv_event_send(obj, LV_EVENT_DRAW_PART_END, &part_draw_dsc);
 414:lvgl/lvgl/src/widgets/lv_slider.c ****     }
 415:lvgl/lvgl/src/widgets/lv_slider.c **** }
 416:lvgl/lvgl/src/widgets/lv_slider.c **** 
 417:lvgl/lvgl/src/widgets/lv_slider.c **** static void position_knob(lv_obj_t * obj, lv_area_t * knob_area, lv_coord_t knob_size, bool hor)
 418:lvgl/lvgl/src/widgets/lv_slider.c **** {
  29              		.loc 1 418 1 view -0
  30              		.cfi_startproc
  31              		@ args = 0, pretend = 0, frame = 0
  32              		@ frame_needed = 0, uses_anonymous_args = 0
  33              		.loc 1 418 1 is_stmt 0 view .LVU1
  34 0000 2DE9F047 		push	{r4, r5, r6, r7, r8, r9, r10, lr}
  35              	.LCFI0:
  36              		.cfi_def_cfa_offset 32
  37              		.cfi_offset 4, -32
  38              		.cfi_offset 5, -28
  39              		.cfi_offset 6, -24
ARM GAS  C:\Users\gx\AppData\Local\Temp\ccCs6Xqg.s 			page 9


  40              		.cfi_offset 7, -20
  41              		.cfi_offset 8, -16
  42              		.cfi_offset 9, -12
  43              		.cfi_offset 10, -8
  44              		.cfi_offset 14, -4
  45 0004 8246     		mov	r10, r0
  46 0006 0C46     		mov	r4, r1
 419:lvgl/lvgl/src/widgets/lv_slider.c **** 
 420:lvgl/lvgl/src/widgets/lv_slider.c ****     if(hor) {
  47              		.loc 1 420 5 is_stmt 1 view .LVU2
  48              		.loc 1 420 7 is_stmt 0 view .LVU3
  49 0008 002B     		cmp	r3, #0
  50 000a 58D0     		beq	.L2
 421:lvgl/lvgl/src/widgets/lv_slider.c ****         knob_area->x1 -= (knob_size >> 1);
  51              		.loc 1 421 9 is_stmt 1 view .LVU4
  52              		.loc 1 421 23 is_stmt 0 view .LVU5
  53 000c 0888     		ldrh	r0, [r1]
  54              	.LVL1:
  55              		.loc 1 421 23 view .LVU6
  56 000e A0EB6200 		sub	r0, r0, r2, asr #1
  57 0012 81B2     		uxth	r1, r0
  58              	.LVL2:
  59              		.loc 1 421 23 view .LVU7
  60 0014 2180     		strh	r1, [r4]	@ movhi
 422:lvgl/lvgl/src/widgets/lv_slider.c ****         knob_area->x2 = knob_area->x1 + knob_size - 1;
  61              		.loc 1 422 9 is_stmt 1 view .LVU8
  62              		.loc 1 422 39 is_stmt 0 view .LVU9
  63 0016 1144     		add	r1, r1, r2
  64 0018 89B2     		uxth	r1, r1
  65              		.loc 1 422 51 view .LVU10
  66 001a 0139     		subs	r1, r1, #1
  67              		.loc 1 422 23 view .LVU11
  68 001c A180     		strh	r1, [r4, #4]	@ movhi
 423:lvgl/lvgl/src/widgets/lv_slider.c ****         knob_area->y1 = obj->coords.y1;
  69              		.loc 1 423 9 is_stmt 1 view .LVU12
  70              		.loc 1 423 36 is_stmt 0 view .LVU13
  71 001e BAF91630 		ldrsh	r3, [r10, #22]
  72              	.LVL3:
  73              		.loc 1 423 23 view .LVU14
  74 0022 6380     		strh	r3, [r4, #2]	@ movhi
 424:lvgl/lvgl/src/widgets/lv_slider.c ****         knob_area->y2 = obj->coords.y2;
  75              		.loc 1 424 9 is_stmt 1 view .LVU15
  76              		.loc 1 424 36 is_stmt 0 view .LVU16
  77 0024 BAF91A30 		ldrsh	r3, [r10, #26]
  78              		.loc 1 424 23 view .LVU17
  79 0028 E380     		strh	r3, [r4, #6]	@ movhi
  80              	.L3:
 425:lvgl/lvgl/src/widgets/lv_slider.c ****     }
 426:lvgl/lvgl/src/widgets/lv_slider.c ****     else {
 427:lvgl/lvgl/src/widgets/lv_slider.c ****         knob_area->y1 -= (knob_size >> 1);
 428:lvgl/lvgl/src/widgets/lv_slider.c ****         knob_area->y2 = knob_area->y1 + knob_size - 1;
 429:lvgl/lvgl/src/widgets/lv_slider.c ****         knob_area->x1 = obj->coords.x1;
 430:lvgl/lvgl/src/widgets/lv_slider.c ****         knob_area->x2 = obj->coords.x2;
 431:lvgl/lvgl/src/widgets/lv_slider.c ****     }
 432:lvgl/lvgl/src/widgets/lv_slider.c **** 
 433:lvgl/lvgl/src/widgets/lv_slider.c ****     lv_coord_t knob_left = lv_obj_get_style_pad_left(obj,   LV_PART_KNOB);
  81              		.loc 1 433 5 is_stmt 1 view .LVU18
ARM GAS  C:\Users\gx\AppData\Local\Temp\ccCs6Xqg.s 			page 10


  82              	.LVL4:
  83              	.LBB79:
  84              	.LBI79:
  85              		.file 2 "lvgl/lvgl/src/widgets/../core/lv_obj_style_gen.h"
   1:lvgl/lvgl/src/widgets/../core/lv_obj_style_gen.h **** static inline lv_coord_t lv_obj_get_style_width(const struct _lv_obj_t * obj, uint32_t part)
   2:lvgl/lvgl/src/widgets/../core/lv_obj_style_gen.h **** {
   3:lvgl/lvgl/src/widgets/../core/lv_obj_style_gen.h ****     lv_style_value_t v = lv_obj_get_style_prop(obj, part, LV_STYLE_WIDTH);
   4:lvgl/lvgl/src/widgets/../core/lv_obj_style_gen.h ****     return (lv_coord_t)v.num;
   5:lvgl/lvgl/src/widgets/../core/lv_obj_style_gen.h **** }
   6:lvgl/lvgl/src/widgets/../core/lv_obj_style_gen.h **** 
   7:lvgl/lvgl/src/widgets/../core/lv_obj_style_gen.h **** static inline lv_coord_t lv_obj_get_style_min_width(const struct _lv_obj_t * obj, uint32_t part)
   8:lvgl/lvgl/src/widgets/../core/lv_obj_style_gen.h **** {
   9:lvgl/lvgl/src/widgets/../core/lv_obj_style_gen.h ****     lv_style_value_t v = lv_obj_get_style_prop(obj, part, LV_STYLE_MIN_WIDTH);
  10:lvgl/lvgl/src/widgets/../core/lv_obj_style_gen.h ****     return (lv_coord_t)v.num;
  11:lvgl/lvgl/src/widgets/../core/lv_obj_style_gen.h **** }
  12:lvgl/lvgl/src/widgets/../core/lv_obj_style_gen.h **** 
  13:lvgl/lvgl/src/widgets/../core/lv_obj_style_gen.h **** static inline lv_coord_t lv_obj_get_style_max_width(const struct _lv_obj_t * obj, uint32_t part)
  14:lvgl/lvgl/src/widgets/../core/lv_obj_style_gen.h **** {
  15:lvgl/lvgl/src/widgets/../core/lv_obj_style_gen.h ****     lv_style_value_t v = lv_obj_get_style_prop(obj, part, LV_STYLE_MAX_WIDTH);
  16:lvgl/lvgl/src/widgets/../core/lv_obj_style_gen.h ****     return (lv_coord_t)v.num;
  17:lvgl/lvgl/src/widgets/../core/lv_obj_style_gen.h **** }
  18:lvgl/lvgl/src/widgets/../core/lv_obj_style_gen.h **** 
  19:lvgl/lvgl/src/widgets/../core/lv_obj_style_gen.h **** static inline lv_coord_t lv_obj_get_style_height(const struct _lv_obj_t * obj, uint32_t part)
  20:lvgl/lvgl/src/widgets/../core/lv_obj_style_gen.h **** {
  21:lvgl/lvgl/src/widgets/../core/lv_obj_style_gen.h ****     lv_style_value_t v = lv_obj_get_style_prop(obj, part, LV_STYLE_HEIGHT);
  22:lvgl/lvgl/src/widgets/../core/lv_obj_style_gen.h ****     return (lv_coord_t)v.num;
  23:lvgl/lvgl/src/widgets/../core/lv_obj_style_gen.h **** }
  24:lvgl/lvgl/src/widgets/../core/lv_obj_style_gen.h **** 
  25:lvgl/lvgl/src/widgets/../core/lv_obj_style_gen.h **** static inline lv_coord_t lv_obj_get_style_min_height(const struct _lv_obj_t * obj, uint32_t part)
  26:lvgl/lvgl/src/widgets/../core/lv_obj_style_gen.h **** {
  27:lvgl/lvgl/src/widgets/../core/lv_obj_style_gen.h ****     lv_style_value_t v = lv_obj_get_style_prop(obj, part, LV_STYLE_MIN_HEIGHT);
  28:lvgl/lvgl/src/widgets/../core/lv_obj_style_gen.h ****     return (lv_coord_t)v.num;
  29:lvgl/lvgl/src/widgets/../core/lv_obj_style_gen.h **** }
  30:lvgl/lvgl/src/widgets/../core/lv_obj_style_gen.h **** 
  31:lvgl/lvgl/src/widgets/../core/lv_obj_style_gen.h **** static inline lv_coord_t lv_obj_get_style_max_height(const struct _lv_obj_t * obj, uint32_t part)
  32:lvgl/lvgl/src/widgets/../core/lv_obj_style_gen.h **** {
  33:lvgl/lvgl/src/widgets/../core/lv_obj_style_gen.h ****     lv_style_value_t v = lv_obj_get_style_prop(obj, part, LV_STYLE_MAX_HEIGHT);
  34:lvgl/lvgl/src/widgets/../core/lv_obj_style_gen.h ****     return (lv_coord_t)v.num;
  35:lvgl/lvgl/src/widgets/../core/lv_obj_style_gen.h **** }
  36:lvgl/lvgl/src/widgets/../core/lv_obj_style_gen.h **** 
  37:lvgl/lvgl/src/widgets/../core/lv_obj_style_gen.h **** static inline lv_coord_t lv_obj_get_style_x(const struct _lv_obj_t * obj, uint32_t part)
  38:lvgl/lvgl/src/widgets/../core/lv_obj_style_gen.h **** {
  39:lvgl/lvgl/src/widgets/../core/lv_obj_style_gen.h ****     lv_style_value_t v = lv_obj_get_style_prop(obj, part, LV_STYLE_X);
  40:lvgl/lvgl/src/widgets/../core/lv_obj_style_gen.h ****     return (lv_coord_t)v.num;
  41:lvgl/lvgl/src/widgets/../core/lv_obj_style_gen.h **** }
  42:lvgl/lvgl/src/widgets/../core/lv_obj_style_gen.h **** 
  43:lvgl/lvgl/src/widgets/../core/lv_obj_style_gen.h **** static inline lv_coord_t lv_obj_get_style_y(const struct _lv_obj_t * obj, uint32_t part)
  44:lvgl/lvgl/src/widgets/../core/lv_obj_style_gen.h **** {
  45:lvgl/lvgl/src/widgets/../core/lv_obj_style_gen.h ****     lv_style_value_t v = lv_obj_get_style_prop(obj, part, LV_STYLE_Y);
  46:lvgl/lvgl/src/widgets/../core/lv_obj_style_gen.h ****     return (lv_coord_t)v.num;
  47:lvgl/lvgl/src/widgets/../core/lv_obj_style_gen.h **** }
  48:lvgl/lvgl/src/widgets/../core/lv_obj_style_gen.h **** 
  49:lvgl/lvgl/src/widgets/../core/lv_obj_style_gen.h **** static inline lv_align_t lv_obj_get_style_align(const struct _lv_obj_t * obj, uint32_t part)
  50:lvgl/lvgl/src/widgets/../core/lv_obj_style_gen.h **** {
  51:lvgl/lvgl/src/widgets/../core/lv_obj_style_gen.h ****     lv_style_value_t v = lv_obj_get_style_prop(obj, part, LV_STYLE_ALIGN);
  52:lvgl/lvgl/src/widgets/../core/lv_obj_style_gen.h ****     return (lv_align_t)v.num;
  53:lvgl/lvgl/src/widgets/../core/lv_obj_style_gen.h **** }
ARM GAS  C:\Users\gx\AppData\Local\Temp\ccCs6Xqg.s 			page 11


  54:lvgl/lvgl/src/widgets/../core/lv_obj_style_gen.h **** 
  55:lvgl/lvgl/src/widgets/../core/lv_obj_style_gen.h **** static inline lv_coord_t lv_obj_get_style_transform_width(const struct _lv_obj_t * obj, uint32_t pa
  56:lvgl/lvgl/src/widgets/../core/lv_obj_style_gen.h **** {
  57:lvgl/lvgl/src/widgets/../core/lv_obj_style_gen.h ****     lv_style_value_t v = lv_obj_get_style_prop(obj, part, LV_STYLE_TRANSFORM_WIDTH);
  58:lvgl/lvgl/src/widgets/../core/lv_obj_style_gen.h ****     return (lv_coord_t)v.num;
  59:lvgl/lvgl/src/widgets/../core/lv_obj_style_gen.h **** }
  60:lvgl/lvgl/src/widgets/../core/lv_obj_style_gen.h **** 
  61:lvgl/lvgl/src/widgets/../core/lv_obj_style_gen.h **** static inline lv_coord_t lv_obj_get_style_transform_height(const struct _lv_obj_t * obj, uint32_t p
  62:lvgl/lvgl/src/widgets/../core/lv_obj_style_gen.h **** {
  63:lvgl/lvgl/src/widgets/../core/lv_obj_style_gen.h ****     lv_style_value_t v = lv_obj_get_style_prop(obj, part, LV_STYLE_TRANSFORM_HEIGHT);
  64:lvgl/lvgl/src/widgets/../core/lv_obj_style_gen.h ****     return (lv_coord_t)v.num;
  65:lvgl/lvgl/src/widgets/../core/lv_obj_style_gen.h **** }
  66:lvgl/lvgl/src/widgets/../core/lv_obj_style_gen.h **** 
  67:lvgl/lvgl/src/widgets/../core/lv_obj_style_gen.h **** static inline lv_coord_t lv_obj_get_style_translate_x(const struct _lv_obj_t * obj, uint32_t part)
  68:lvgl/lvgl/src/widgets/../core/lv_obj_style_gen.h **** {
  69:lvgl/lvgl/src/widgets/../core/lv_obj_style_gen.h ****     lv_style_value_t v = lv_obj_get_style_prop(obj, part, LV_STYLE_TRANSLATE_X);
  70:lvgl/lvgl/src/widgets/../core/lv_obj_style_gen.h ****     return (lv_coord_t)v.num;
  71:lvgl/lvgl/src/widgets/../core/lv_obj_style_gen.h **** }
  72:lvgl/lvgl/src/widgets/../core/lv_obj_style_gen.h **** 
  73:lvgl/lvgl/src/widgets/../core/lv_obj_style_gen.h **** static inline lv_coord_t lv_obj_get_style_translate_y(const struct _lv_obj_t * obj, uint32_t part)
  74:lvgl/lvgl/src/widgets/../core/lv_obj_style_gen.h **** {
  75:lvgl/lvgl/src/widgets/../core/lv_obj_style_gen.h ****     lv_style_value_t v = lv_obj_get_style_prop(obj, part, LV_STYLE_TRANSLATE_Y);
  76:lvgl/lvgl/src/widgets/../core/lv_obj_style_gen.h ****     return (lv_coord_t)v.num;
  77:lvgl/lvgl/src/widgets/../core/lv_obj_style_gen.h **** }
  78:lvgl/lvgl/src/widgets/../core/lv_obj_style_gen.h **** 
  79:lvgl/lvgl/src/widgets/../core/lv_obj_style_gen.h **** static inline lv_coord_t lv_obj_get_style_transform_zoom(const struct _lv_obj_t * obj, uint32_t par
  80:lvgl/lvgl/src/widgets/../core/lv_obj_style_gen.h **** {
  81:lvgl/lvgl/src/widgets/../core/lv_obj_style_gen.h ****     lv_style_value_t v = lv_obj_get_style_prop(obj, part, LV_STYLE_TRANSFORM_ZOOM);
  82:lvgl/lvgl/src/widgets/../core/lv_obj_style_gen.h ****     return (lv_coord_t)v.num;
  83:lvgl/lvgl/src/widgets/../core/lv_obj_style_gen.h **** }
  84:lvgl/lvgl/src/widgets/../core/lv_obj_style_gen.h **** 
  85:lvgl/lvgl/src/widgets/../core/lv_obj_style_gen.h **** static inline lv_coord_t lv_obj_get_style_transform_angle(const struct _lv_obj_t * obj, uint32_t pa
  86:lvgl/lvgl/src/widgets/../core/lv_obj_style_gen.h **** {
  87:lvgl/lvgl/src/widgets/../core/lv_obj_style_gen.h ****     lv_style_value_t v = lv_obj_get_style_prop(obj, part, LV_STYLE_TRANSFORM_ANGLE);
  88:lvgl/lvgl/src/widgets/../core/lv_obj_style_gen.h ****     return (lv_coord_t)v.num;
  89:lvgl/lvgl/src/widgets/../core/lv_obj_style_gen.h **** }
  90:lvgl/lvgl/src/widgets/../core/lv_obj_style_gen.h **** 
  91:lvgl/lvgl/src/widgets/../core/lv_obj_style_gen.h **** static inline lv_coord_t lv_obj_get_style_pad_top(const struct _lv_obj_t * obj, uint32_t part)
  92:lvgl/lvgl/src/widgets/../core/lv_obj_style_gen.h **** {
  93:lvgl/lvgl/src/widgets/../core/lv_obj_style_gen.h ****     lv_style_value_t v = lv_obj_get_style_prop(obj, part, LV_STYLE_PAD_TOP);
  94:lvgl/lvgl/src/widgets/../core/lv_obj_style_gen.h ****     return (lv_coord_t)v.num;
  95:lvgl/lvgl/src/widgets/../core/lv_obj_style_gen.h **** }
  96:lvgl/lvgl/src/widgets/../core/lv_obj_style_gen.h **** 
  97:lvgl/lvgl/src/widgets/../core/lv_obj_style_gen.h **** static inline lv_coord_t lv_obj_get_style_pad_bottom(const struct _lv_obj_t * obj, uint32_t part)
  98:lvgl/lvgl/src/widgets/../core/lv_obj_style_gen.h **** {
  99:lvgl/lvgl/src/widgets/../core/lv_obj_style_gen.h ****     lv_style_value_t v = lv_obj_get_style_prop(obj, part, LV_STYLE_PAD_BOTTOM);
 100:lvgl/lvgl/src/widgets/../core/lv_obj_style_gen.h ****     return (lv_coord_t)v.num;
 101:lvgl/lvgl/src/widgets/../core/lv_obj_style_gen.h **** }
 102:lvgl/lvgl/src/widgets/../core/lv_obj_style_gen.h **** 
 103:lvgl/lvgl/src/widgets/../core/lv_obj_style_gen.h **** static inline lv_coord_t lv_obj_get_style_pad_left(const struct _lv_obj_t * obj, uint32_t part)
  86              		.loc 2 103 26 view .LVU19
  87              	.LBB80:
 104:lvgl/lvgl/src/widgets/../core/lv_obj_style_gen.h **** {
 105:lvgl/lvgl/src/widgets/../core/lv_obj_style_gen.h ****     lv_style_value_t v = lv_obj_get_style_prop(obj, part, LV_STYLE_PAD_LEFT);
  88              		.loc 2 105 5 view .LVU20
  89              		.loc 2 105 26 is_stmt 0 view .LVU21
  90 002a 41F21202 		movw	r2, #4114
ARM GAS  C:\Users\gx\AppData\Local\Temp\ccCs6Xqg.s 			page 12


  91              	.LVL5:
  92              		.loc 2 105 26 view .LVU22
  93 002e 4FF44031 		mov	r1, #196608
  94 0032 5046     		mov	r0, r10
  95 0034 FFF7FEFF 		bl	lv_obj_get_style_prop
  96              	.LVL6:
  97 0038 8046     		mov	r8, r0
  98              	.LVL7:
 106:lvgl/lvgl/src/widgets/../core/lv_obj_style_gen.h ****     return (lv_coord_t)v.num;
  99              		.loc 2 106 5 is_stmt 1 view .LVU23
 100              		.loc 2 106 5 is_stmt 0 view .LVU24
 101              	.LBE80:
 102              	.LBE79:
 434:lvgl/lvgl/src/widgets/lv_slider.c ****     lv_coord_t knob_right = lv_obj_get_style_pad_right(obj,  LV_PART_KNOB);
 103              		.loc 1 434 5 is_stmt 1 view .LVU25
 104              	.LBB81:
 105              	.LBI81:
 107:lvgl/lvgl/src/widgets/../core/lv_obj_style_gen.h **** }
 108:lvgl/lvgl/src/widgets/../core/lv_obj_style_gen.h **** 
 109:lvgl/lvgl/src/widgets/../core/lv_obj_style_gen.h **** static inline lv_coord_t lv_obj_get_style_pad_right(const struct _lv_obj_t * obj, uint32_t part)
 106              		.loc 2 109 26 view .LVU26
 107              	.LBB82:
 110:lvgl/lvgl/src/widgets/../core/lv_obj_style_gen.h **** {
 111:lvgl/lvgl/src/widgets/../core/lv_obj_style_gen.h ****     lv_style_value_t v = lv_obj_get_style_prop(obj, part, LV_STYLE_PAD_RIGHT);
 108              		.loc 2 111 5 view .LVU27
 109              		.loc 2 111 26 is_stmt 0 view .LVU28
 110 003a 41F21302 		movw	r2, #4115
 111 003e 4FF44031 		mov	r1, #196608
 112 0042 5046     		mov	r0, r10
 113 0044 FFF7FEFF 		bl	lv_obj_get_style_prop
 114              	.LVL8:
 115 0048 8146     		mov	r9, r0
 116              	.LVL9:
 112:lvgl/lvgl/src/widgets/../core/lv_obj_style_gen.h ****     return (lv_coord_t)v.num;
 117              		.loc 2 112 5 is_stmt 1 view .LVU29
 118              		.loc 2 112 5 is_stmt 0 view .LVU30
 119              	.LBE82:
 120              	.LBE81:
 435:lvgl/lvgl/src/widgets/lv_slider.c ****     lv_coord_t knob_top = lv_obj_get_style_pad_top(obj,    LV_PART_KNOB);
 121              		.loc 1 435 5 is_stmt 1 view .LVU31
 122              	.LBB83:
 123              	.LBI83:
  91:lvgl/lvgl/src/widgets/../core/lv_obj_style_gen.h **** {
 124              		.loc 2 91 26 view .LVU32
 125              	.LBB84:
  93:lvgl/lvgl/src/widgets/../core/lv_obj_style_gen.h ****     return (lv_coord_t)v.num;
 126              		.loc 2 93 5 view .LVU33
  93:lvgl/lvgl/src/widgets/../core/lv_obj_style_gen.h ****     return (lv_coord_t)v.num;
 127              		.loc 2 93 26 is_stmt 0 view .LVU34
 128 004a 41F21002 		movw	r2, #4112
 129 004e 4FF44031 		mov	r1, #196608
 130 0052 5046     		mov	r0, r10
 131 0054 FFF7FEFF 		bl	lv_obj_get_style_prop
 132              	.LVL10:
 133 0058 0646     		mov	r6, r0
 134              	.LVL11:
  94:lvgl/lvgl/src/widgets/../core/lv_obj_style_gen.h **** }
ARM GAS  C:\Users\gx\AppData\Local\Temp\ccCs6Xqg.s 			page 13


 135              		.loc 2 94 5 is_stmt 1 view .LVU35
  94:lvgl/lvgl/src/widgets/../core/lv_obj_style_gen.h **** }
 136              		.loc 2 94 5 is_stmt 0 view .LVU36
 137              	.LBE84:
 138              	.LBE83:
 436:lvgl/lvgl/src/widgets/lv_slider.c ****     lv_coord_t knob_bottom = lv_obj_get_style_pad_bottom(obj, LV_PART_KNOB);
 139              		.loc 1 436 5 is_stmt 1 view .LVU37
 140              	.LBB85:
 141              	.LBI85:
  97:lvgl/lvgl/src/widgets/../core/lv_obj_style_gen.h **** {
 142              		.loc 2 97 26 view .LVU38
 143              	.LBB86:
  99:lvgl/lvgl/src/widgets/../core/lv_obj_style_gen.h ****     return (lv_coord_t)v.num;
 144              		.loc 2 99 5 view .LVU39
  99:lvgl/lvgl/src/widgets/../core/lv_obj_style_gen.h ****     return (lv_coord_t)v.num;
 145              		.loc 2 99 26 is_stmt 0 view .LVU40
 146 005a 41F21102 		movw	r2, #4113
 147 005e 4FF44031 		mov	r1, #196608
 148 0062 5046     		mov	r0, r10
 149 0064 FFF7FEFF 		bl	lv_obj_get_style_prop
 150              	.LVL12:
 151 0068 0746     		mov	r7, r0
 152              	.LVL13:
 100:lvgl/lvgl/src/widgets/../core/lv_obj_style_gen.h **** }
 153              		.loc 2 100 5 is_stmt 1 view .LVU41
 100:lvgl/lvgl/src/widgets/../core/lv_obj_style_gen.h **** }
 154              		.loc 2 100 5 is_stmt 0 view .LVU42
 155              	.LBE86:
 156              	.LBE85:
 437:lvgl/lvgl/src/widgets/lv_slider.c **** 
 438:lvgl/lvgl/src/widgets/lv_slider.c ****     lv_coord_t transf_w = lv_obj_get_style_transform_width(obj, LV_PART_KNOB);
 157              		.loc 1 438 5 is_stmt 1 view .LVU43
 158              	.LBB87:
 159              	.LBI87:
  55:lvgl/lvgl/src/widgets/../core/lv_obj_style_gen.h **** {
 160              		.loc 2 55 26 view .LVU44
 161              	.LBB88:
  57:lvgl/lvgl/src/widgets/../core/lv_obj_style_gen.h ****     return (lv_coord_t)v.num;
 162              		.loc 2 57 5 view .LVU45
  57:lvgl/lvgl/src/widgets/../core/lv_obj_style_gen.h ****     return (lv_coord_t)v.num;
 163              		.loc 2 57 26 is_stmt 0 view .LVU46
 164 006a 40F60A02 		movw	r2, #2058
 165 006e 4FF44031 		mov	r1, #196608
 166 0072 5046     		mov	r0, r10
 167 0074 FFF7FEFF 		bl	lv_obj_get_style_prop
 168              	.LVL14:
 169 0078 0546     		mov	r5, r0
 170              	.LVL15:
  58:lvgl/lvgl/src/widgets/../core/lv_obj_style_gen.h **** }
 171              		.loc 2 58 5 is_stmt 1 view .LVU47
  58:lvgl/lvgl/src/widgets/../core/lv_obj_style_gen.h **** }
 172              		.loc 2 58 5 is_stmt 0 view .LVU48
 173              	.LBE88:
 174              	.LBE87:
 439:lvgl/lvgl/src/widgets/lv_slider.c ****     lv_coord_t transf_h = lv_obj_get_style_transform_height(obj, LV_PART_KNOB);
 175              		.loc 1 439 5 is_stmt 1 view .LVU49
 176              	.LBB89:
ARM GAS  C:\Users\gx\AppData\Local\Temp\ccCs6Xqg.s 			page 14


 177              	.LBI89:
  61:lvgl/lvgl/src/widgets/../core/lv_obj_style_gen.h **** {
 178              		.loc 2 61 26 view .LVU50
 179              	.LBB90:
  63:lvgl/lvgl/src/widgets/../core/lv_obj_style_gen.h ****     return (lv_coord_t)v.num;
 180              		.loc 2 63 5 view .LVU51
  63:lvgl/lvgl/src/widgets/../core/lv_obj_style_gen.h ****     return (lv_coord_t)v.num;
 181              		.loc 2 63 26 is_stmt 0 view .LVU52
 182 007a 40F60B02 		movw	r2, #2059
 183 007e 4FF44031 		mov	r1, #196608
 184 0082 5046     		mov	r0, r10
 185 0084 FFF7FEFF 		bl	lv_obj_get_style_prop
 186              	.LVL16:
  64:lvgl/lvgl/src/widgets/../core/lv_obj_style_gen.h **** }
 187              		.loc 2 64 5 is_stmt 1 view .LVU53
  64:lvgl/lvgl/src/widgets/../core/lv_obj_style_gen.h **** }
 188              		.loc 2 64 5 is_stmt 0 view .LVU54
 189              	.LBE90:
 190              	.LBE89:
 440:lvgl/lvgl/src/widgets/lv_slider.c **** 
 441:lvgl/lvgl/src/widgets/lv_slider.c ****     /*Apply the paddings on the knob area*/
 442:lvgl/lvgl/src/widgets/lv_slider.c ****     knob_area->x1 -= knob_left + transf_w;
 191              		.loc 1 442 5 is_stmt 1 view .LVU55
 192              		.loc 1 442 32 is_stmt 0 view .LVU56
 193 0088 ABB2     		uxth	r3, r5
 194 008a 9844     		add	r8, r8, r3
 195              	.LVL17:
 196              		.loc 1 442 32 view .LVU57
 197 008c 1FFA88F8 		uxth	r8, r8
 198              		.loc 1 442 19 view .LVU58
 199 0090 2288     		ldrh	r2, [r4]
 200 0092 A2EB0808 		sub	r8, r2, r8
 201 0096 A4F80080 		strh	r8, [r4]	@ movhi
 443:lvgl/lvgl/src/widgets/lv_slider.c ****     knob_area->x2 += knob_right + transf_w;
 202              		.loc 1 443 5 is_stmt 1 view .LVU59
 203              		.loc 1 443 33 is_stmt 0 view .LVU60
 204 009a 4B44     		add	r3, r3, r9
 205              		.loc 1 443 19 view .LVU61
 206 009c A288     		ldrh	r2, [r4, #4]
 207 009e 12FA83F3 		uxtah	r3, r2, r3
 208 00a2 A380     		strh	r3, [r4, #4]	@ movhi
 444:lvgl/lvgl/src/widgets/lv_slider.c ****     knob_area->y1 -= knob_top + transf_h;
 209              		.loc 1 444 5 is_stmt 1 view .LVU62
 210              		.loc 1 444 31 is_stmt 0 view .LVU63
 211 00a4 80B2     		uxth	r0, r0
 212              		.loc 1 444 31 view .LVU64
 213 00a6 0644     		add	r6, r6, r0
 214              	.LVL18:
 215              		.loc 1 444 31 view .LVU65
 216 00a8 B6B2     		uxth	r6, r6
 217              		.loc 1 444 19 view .LVU66
 218 00aa 6388     		ldrh	r3, [r4, #2]
 219 00ac 9E1B     		subs	r6, r3, r6
 220 00ae 6680     		strh	r6, [r4, #2]	@ movhi
 445:lvgl/lvgl/src/widgets/lv_slider.c ****     knob_area->y2 += knob_bottom + transf_h;
 221              		.loc 1 445 5 is_stmt 1 view .LVU67
 222              		.loc 1 445 34 is_stmt 0 view .LVU68
ARM GAS  C:\Users\gx\AppData\Local\Temp\ccCs6Xqg.s 			page 15


 223 00b0 3844     		add	r0, r0, r7
 224              	.LVL19:
 225              		.loc 1 445 19 view .LVU69
 226 00b2 E788     		ldrh	r7, [r4, #6]
 227              	.LVL20:
 228              		.loc 1 445 19 view .LVU70
 229 00b4 17FA80F0 		uxtah	r0, r7, r0
 230 00b8 E080     		strh	r0, [r4, #6]	@ movhi
 446:lvgl/lvgl/src/widgets/lv_slider.c **** }
 231              		.loc 1 446 1 view .LVU71
 232 00ba BDE8F087 		pop	{r4, r5, r6, r7, r8, r9, r10, pc}
 233              	.LVL21:
 234              	.L2:
 427:lvgl/lvgl/src/widgets/lv_slider.c ****         knob_area->y2 = knob_area->y1 + knob_size - 1;
 235              		.loc 1 427 9 is_stmt 1 view .LVU72
 427:lvgl/lvgl/src/widgets/lv_slider.c ****         knob_area->y2 = knob_area->y1 + knob_size - 1;
 236              		.loc 1 427 23 is_stmt 0 view .LVU73
 237 00be 4988     		ldrh	r1, [r1, #2]
 238              	.LVL22:
 427:lvgl/lvgl/src/widgets/lv_slider.c ****         knob_area->y2 = knob_area->y1 + knob_size - 1;
 239              		.loc 1 427 23 view .LVU74
 240 00c0 A1EB6201 		sub	r1, r1, r2, asr #1
 241 00c4 8BB2     		uxth	r3, r1
 242              	.LVL23:
 427:lvgl/lvgl/src/widgets/lv_slider.c ****         knob_area->y2 = knob_area->y1 + knob_size - 1;
 243              		.loc 1 427 23 view .LVU75
 244 00c6 6380     		strh	r3, [r4, #2]	@ movhi
 428:lvgl/lvgl/src/widgets/lv_slider.c ****         knob_area->x1 = obj->coords.x1;
 245              		.loc 1 428 9 is_stmt 1 view .LVU76
 428:lvgl/lvgl/src/widgets/lv_slider.c ****         knob_area->x1 = obj->coords.x1;
 246              		.loc 1 428 39 is_stmt 0 view .LVU77
 247 00c8 1344     		add	r3, r3, r2
 248 00ca 9BB2     		uxth	r3, r3
 428:lvgl/lvgl/src/widgets/lv_slider.c ****         knob_area->x1 = obj->coords.x1;
 249              		.loc 1 428 51 view .LVU78
 250 00cc 013B     		subs	r3, r3, #1
 428:lvgl/lvgl/src/widgets/lv_slider.c ****         knob_area->x1 = obj->coords.x1;
 251              		.loc 1 428 23 view .LVU79
 252 00ce E380     		strh	r3, [r4, #6]	@ movhi
 429:lvgl/lvgl/src/widgets/lv_slider.c ****         knob_area->x2 = obj->coords.x2;
 253              		.loc 1 429 9 is_stmt 1 view .LVU80
 429:lvgl/lvgl/src/widgets/lv_slider.c ****         knob_area->x2 = obj->coords.x2;
 254              		.loc 1 429 36 is_stmt 0 view .LVU81
 255 00d0 B0F91430 		ldrsh	r3, [r0, #20]
 429:lvgl/lvgl/src/widgets/lv_slider.c ****         knob_area->x2 = obj->coords.x2;
 256              		.loc 1 429 23 view .LVU82
 257 00d4 2380     		strh	r3, [r4]	@ movhi
 430:lvgl/lvgl/src/widgets/lv_slider.c ****     }
 258              		.loc 1 430 9 is_stmt 1 view .LVU83
 430:lvgl/lvgl/src/widgets/lv_slider.c ****     }
 259              		.loc 1 430 36 is_stmt 0 view .LVU84
 260 00d6 B0F91830 		ldrsh	r3, [r0, #24]
 430:lvgl/lvgl/src/widgets/lv_slider.c ****     }
 261              		.loc 1 430 23 view .LVU85
 262 00da A380     		strh	r3, [r4, #4]	@ movhi
 263 00dc A5E7     		b	.L3
 264              		.cfi_endproc
ARM GAS  C:\Users\gx\AppData\Local\Temp\ccCs6Xqg.s 			page 16


 265              	.LFE172:
 267              		.section	.text.draw_knob,"ax",%progbits
 268              		.align	1
 269              		.syntax unified
 270              		.thumb
 271              		.thumb_func
 272              		.fpu fpv4-sp-d16
 274              	draw_knob:
 275              	.LVL24:
 276              	.LFB171:
 322:lvgl/lvgl/src/widgets/lv_slider.c ****     lv_obj_t * obj = lv_event_get_target(e);
 277              		.loc 1 322 1 is_stmt 1 view -0
 278              		.cfi_startproc
 279              		@ args = 0, pretend = 0, frame = 192
 280              		@ frame_needed = 0, uses_anonymous_args = 0
 322:lvgl/lvgl/src/widgets/lv_slider.c ****     lv_obj_t * obj = lv_event_get_target(e);
 281              		.loc 1 322 1 is_stmt 0 view .LVU87
 282 0000 2DE9F04F 		push	{r4, r5, r6, r7, r8, r9, r10, fp, lr}
 283              	.LCFI1:
 284              		.cfi_def_cfa_offset 36
 285              		.cfi_offset 4, -36
 286              		.cfi_offset 5, -32
 287              		.cfi_offset 6, -28
 288              		.cfi_offset 7, -24
 289              		.cfi_offset 8, -20
 290              		.cfi_offset 9, -16
 291              		.cfi_offset 10, -12
 292              		.cfi_offset 11, -8
 293              		.cfi_offset 14, -4
 294 0004 B1B0     		sub	sp, sp, #196
 295              	.LCFI2:
 296              		.cfi_def_cfa_offset 232
 297 0006 0546     		mov	r5, r0
 323:lvgl/lvgl/src/widgets/lv_slider.c ****     lv_slider_t * slider = (lv_slider_t *)obj;
 298              		.loc 1 323 5 is_stmt 1 view .LVU88
 323:lvgl/lvgl/src/widgets/lv_slider.c ****     lv_slider_t * slider = (lv_slider_t *)obj;
 299              		.loc 1 323 22 is_stmt 0 view .LVU89
 300 0008 FFF7FEFF 		bl	lv_event_get_target
 301              	.LVL25:
 323:lvgl/lvgl/src/widgets/lv_slider.c ****     lv_slider_t * slider = (lv_slider_t *)obj;
 302              		.loc 1 323 22 view .LVU90
 303 000c 0446     		mov	r4, r0
 304              	.LVL26:
 324:lvgl/lvgl/src/widgets/lv_slider.c ****     const lv_area_t * clip_area = lv_event_get_param(e);
 305              		.loc 1 324 5 is_stmt 1 view .LVU91
 325:lvgl/lvgl/src/widgets/lv_slider.c ****     lv_base_dir_t base_dir = lv_obj_get_style_base_dir(obj, LV_PART_MAIN);
 306              		.loc 1 325 5 view .LVU92
 325:lvgl/lvgl/src/widgets/lv_slider.c ****     lv_base_dir_t base_dir = lv_obj_get_style_base_dir(obj, LV_PART_MAIN);
 307              		.loc 1 325 35 is_stmt 0 view .LVU93
 308 000e 2846     		mov	r0, r5
 309              	.LVL27:
 325:lvgl/lvgl/src/widgets/lv_slider.c ****     lv_base_dir_t base_dir = lv_obj_get_style_base_dir(obj, LV_PART_MAIN);
 310              		.loc 1 325 35 view .LVU94
 311 0010 FFF7FEFF 		bl	lv_event_get_param
 312              	.LVL28:
 313 0014 0746     		mov	r7, r0
 314              	.LVL29:
ARM GAS  C:\Users\gx\AppData\Local\Temp\ccCs6Xqg.s 			page 17


 326:lvgl/lvgl/src/widgets/lv_slider.c **** 
 315              		.loc 1 326 5 is_stmt 1 view .LVU95
 316              	.LBB91:
 317              	.LBI91:
 113:lvgl/lvgl/src/widgets/../core/lv_obj_style_gen.h **** }
 114:lvgl/lvgl/src/widgets/../core/lv_obj_style_gen.h **** 
 115:lvgl/lvgl/src/widgets/../core/lv_obj_style_gen.h **** static inline lv_coord_t lv_obj_get_style_pad_row(const struct _lv_obj_t * obj, uint32_t part)
 116:lvgl/lvgl/src/widgets/../core/lv_obj_style_gen.h **** {
 117:lvgl/lvgl/src/widgets/../core/lv_obj_style_gen.h ****     lv_style_value_t v = lv_obj_get_style_prop(obj, part, LV_STYLE_PAD_ROW);
 118:lvgl/lvgl/src/widgets/../core/lv_obj_style_gen.h ****     return (lv_coord_t)v.num;
 119:lvgl/lvgl/src/widgets/../core/lv_obj_style_gen.h **** }
 120:lvgl/lvgl/src/widgets/../core/lv_obj_style_gen.h **** 
 121:lvgl/lvgl/src/widgets/../core/lv_obj_style_gen.h **** static inline lv_coord_t lv_obj_get_style_pad_column(const struct _lv_obj_t * obj, uint32_t part)
 122:lvgl/lvgl/src/widgets/../core/lv_obj_style_gen.h **** {
 123:lvgl/lvgl/src/widgets/../core/lv_obj_style_gen.h ****     lv_style_value_t v = lv_obj_get_style_prop(obj, part, LV_STYLE_PAD_COLUMN);
 124:lvgl/lvgl/src/widgets/../core/lv_obj_style_gen.h ****     return (lv_coord_t)v.num;
 125:lvgl/lvgl/src/widgets/../core/lv_obj_style_gen.h **** }
 126:lvgl/lvgl/src/widgets/../core/lv_obj_style_gen.h **** 
 127:lvgl/lvgl/src/widgets/../core/lv_obj_style_gen.h **** static inline lv_coord_t lv_obj_get_style_radius(const struct _lv_obj_t * obj, uint32_t part)
 128:lvgl/lvgl/src/widgets/../core/lv_obj_style_gen.h **** {
 129:lvgl/lvgl/src/widgets/../core/lv_obj_style_gen.h ****     lv_style_value_t v = lv_obj_get_style_prop(obj, part, LV_STYLE_RADIUS);
 130:lvgl/lvgl/src/widgets/../core/lv_obj_style_gen.h ****     return (lv_coord_t)v.num;
 131:lvgl/lvgl/src/widgets/../core/lv_obj_style_gen.h **** }
 132:lvgl/lvgl/src/widgets/../core/lv_obj_style_gen.h **** 
 133:lvgl/lvgl/src/widgets/../core/lv_obj_style_gen.h **** static inline bool lv_obj_get_style_clip_corner(const struct _lv_obj_t * obj, uint32_t part)
 134:lvgl/lvgl/src/widgets/../core/lv_obj_style_gen.h **** {
 135:lvgl/lvgl/src/widgets/../core/lv_obj_style_gen.h ****     lv_style_value_t v = lv_obj_get_style_prop(obj, part, LV_STYLE_CLIP_CORNER);
 136:lvgl/lvgl/src/widgets/../core/lv_obj_style_gen.h ****     return (bool)v.num;
 137:lvgl/lvgl/src/widgets/../core/lv_obj_style_gen.h **** }
 138:lvgl/lvgl/src/widgets/../core/lv_obj_style_gen.h **** 
 139:lvgl/lvgl/src/widgets/../core/lv_obj_style_gen.h **** static inline lv_opa_t lv_obj_get_style_opa(const struct _lv_obj_t * obj, uint32_t part)
 140:lvgl/lvgl/src/widgets/../core/lv_obj_style_gen.h **** {
 141:lvgl/lvgl/src/widgets/../core/lv_obj_style_gen.h ****     lv_style_value_t v = lv_obj_get_style_prop(obj, part, LV_STYLE_OPA);
 142:lvgl/lvgl/src/widgets/../core/lv_obj_style_gen.h ****     return (lv_opa_t)v.num;
 143:lvgl/lvgl/src/widgets/../core/lv_obj_style_gen.h **** }
 144:lvgl/lvgl/src/widgets/../core/lv_obj_style_gen.h **** 
 145:lvgl/lvgl/src/widgets/../core/lv_obj_style_gen.h **** static inline const lv_color_filter_dsc_t * lv_obj_get_style_color_filter_dsc(const struct _lv_obj_
 146:lvgl/lvgl/src/widgets/../core/lv_obj_style_gen.h **** {
 147:lvgl/lvgl/src/widgets/../core/lv_obj_style_gen.h ****     lv_style_value_t v = lv_obj_get_style_prop(obj, part, LV_STYLE_COLOR_FILTER_DSC);
 148:lvgl/lvgl/src/widgets/../core/lv_obj_style_gen.h ****     return (const lv_color_filter_dsc_t *)v.ptr;
 149:lvgl/lvgl/src/widgets/../core/lv_obj_style_gen.h **** }
 150:lvgl/lvgl/src/widgets/../core/lv_obj_style_gen.h **** 
 151:lvgl/lvgl/src/widgets/../core/lv_obj_style_gen.h **** static inline lv_opa_t lv_obj_get_style_color_filter_opa(const struct _lv_obj_t * obj, uint32_t par
 152:lvgl/lvgl/src/widgets/../core/lv_obj_style_gen.h **** {
 153:lvgl/lvgl/src/widgets/../core/lv_obj_style_gen.h ****     lv_style_value_t v = lv_obj_get_style_prop(obj, part, LV_STYLE_COLOR_FILTER_OPA);
 154:lvgl/lvgl/src/widgets/../core/lv_obj_style_gen.h ****     return (lv_opa_t)v.num;
 155:lvgl/lvgl/src/widgets/../core/lv_obj_style_gen.h **** }
 156:lvgl/lvgl/src/widgets/../core/lv_obj_style_gen.h **** 
 157:lvgl/lvgl/src/widgets/../core/lv_obj_style_gen.h **** static inline uint32_t lv_obj_get_style_anim_time(const struct _lv_obj_t * obj, uint32_t part)
 158:lvgl/lvgl/src/widgets/../core/lv_obj_style_gen.h **** {
 159:lvgl/lvgl/src/widgets/../core/lv_obj_style_gen.h ****     lv_style_value_t v = lv_obj_get_style_prop(obj, part, LV_STYLE_ANIM_TIME);
 160:lvgl/lvgl/src/widgets/../core/lv_obj_style_gen.h ****     return (uint32_t)v.num;
 161:lvgl/lvgl/src/widgets/../core/lv_obj_style_gen.h **** }
 162:lvgl/lvgl/src/widgets/../core/lv_obj_style_gen.h **** 
 163:lvgl/lvgl/src/widgets/../core/lv_obj_style_gen.h **** static inline uint32_t lv_obj_get_style_anim_speed(const struct _lv_obj_t * obj, uint32_t part)
 164:lvgl/lvgl/src/widgets/../core/lv_obj_style_gen.h **** {
 165:lvgl/lvgl/src/widgets/../core/lv_obj_style_gen.h ****     lv_style_value_t v = lv_obj_get_style_prop(obj, part, LV_STYLE_ANIM_SPEED);
ARM GAS  C:\Users\gx\AppData\Local\Temp\ccCs6Xqg.s 			page 18


 166:lvgl/lvgl/src/widgets/../core/lv_obj_style_gen.h ****     return (uint32_t)v.num;
 167:lvgl/lvgl/src/widgets/../core/lv_obj_style_gen.h **** }
 168:lvgl/lvgl/src/widgets/../core/lv_obj_style_gen.h **** 
 169:lvgl/lvgl/src/widgets/../core/lv_obj_style_gen.h **** static inline const lv_style_transition_dsc_t * lv_obj_get_style_transition(const struct _lv_obj_t 
 170:lvgl/lvgl/src/widgets/../core/lv_obj_style_gen.h **** {
 171:lvgl/lvgl/src/widgets/../core/lv_obj_style_gen.h ****     lv_style_value_t v = lv_obj_get_style_prop(obj, part, LV_STYLE_TRANSITION);
 172:lvgl/lvgl/src/widgets/../core/lv_obj_style_gen.h ****     return (const lv_style_transition_dsc_t *)v.ptr;
 173:lvgl/lvgl/src/widgets/../core/lv_obj_style_gen.h **** }
 174:lvgl/lvgl/src/widgets/../core/lv_obj_style_gen.h **** 
 175:lvgl/lvgl/src/widgets/../core/lv_obj_style_gen.h **** static inline lv_blend_mode_t lv_obj_get_style_blend_mode(const struct _lv_obj_t * obj, uint32_t pa
 176:lvgl/lvgl/src/widgets/../core/lv_obj_style_gen.h **** {
 177:lvgl/lvgl/src/widgets/../core/lv_obj_style_gen.h ****     lv_style_value_t v = lv_obj_get_style_prop(obj, part, LV_STYLE_BLEND_MODE);
 178:lvgl/lvgl/src/widgets/../core/lv_obj_style_gen.h ****     return (lv_blend_mode_t)v.num;
 179:lvgl/lvgl/src/widgets/../core/lv_obj_style_gen.h **** }
 180:lvgl/lvgl/src/widgets/../core/lv_obj_style_gen.h **** 
 181:lvgl/lvgl/src/widgets/../core/lv_obj_style_gen.h **** static inline uint16_t lv_obj_get_style_layout(const struct _lv_obj_t * obj, uint32_t part)
 182:lvgl/lvgl/src/widgets/../core/lv_obj_style_gen.h **** {
 183:lvgl/lvgl/src/widgets/../core/lv_obj_style_gen.h ****     lv_style_value_t v = lv_obj_get_style_prop(obj, part, LV_STYLE_LAYOUT);
 184:lvgl/lvgl/src/widgets/../core/lv_obj_style_gen.h ****     return (uint16_t)v.num;
 185:lvgl/lvgl/src/widgets/../core/lv_obj_style_gen.h **** }
 186:lvgl/lvgl/src/widgets/../core/lv_obj_style_gen.h **** 
 187:lvgl/lvgl/src/widgets/../core/lv_obj_style_gen.h **** static inline lv_base_dir_t lv_obj_get_style_base_dir(const struct _lv_obj_t * obj, uint32_t part)
 318              		.loc 2 187 29 view .LVU96
 319              	.LBB92:
 188:lvgl/lvgl/src/widgets/../core/lv_obj_style_gen.h **** {
 189:lvgl/lvgl/src/widgets/../core/lv_obj_style_gen.h ****     lv_style_value_t v = lv_obj_get_style_prop(obj, part, LV_STYLE_BASE_DIR);
 320              		.loc 2 189 5 view .LVU97
 321              		.loc 2 189 26 is_stmt 0 view .LVU98
 322 0016 41F26A42 		movw	r2, #5226
 323 001a 0021     		movs	r1, #0
 324 001c 2046     		mov	r0, r4
 325              	.LVL30:
 326              		.loc 2 189 26 view .LVU99
 327 001e FFF7FEFF 		bl	lv_obj_get_style_prop
 328              	.LVL31:
 190:lvgl/lvgl/src/widgets/../core/lv_obj_style_gen.h ****     return (lv_base_dir_t)v.num;
 329              		.loc 2 190 5 is_stmt 1 view .LVU100
 330              		.loc 2 190 12 is_stmt 0 view .LVU101
 331 0022 5FFA80F9 		uxtb	r9, r0
 332              	.LVL32:
 333              		.loc 2 190 12 view .LVU102
 334              	.LBE92:
 335              	.LBE91:
 328:lvgl/lvgl/src/widgets/lv_slider.c ****     lv_coord_t objh = lv_obj_get_height(obj);
 336              		.loc 1 328 5 is_stmt 1 view .LVU103
 328:lvgl/lvgl/src/widgets/lv_slider.c ****     lv_coord_t objh = lv_obj_get_height(obj);
 337              		.loc 1 328 23 is_stmt 0 view .LVU104
 338 0026 2046     		mov	r0, r4
 339 0028 FFF7FEFF 		bl	lv_obj_get_width
 340              	.LVL33:
 341 002c 0646     		mov	r6, r0
 342              	.LVL34:
 329:lvgl/lvgl/src/widgets/lv_slider.c ****     bool hor = objw >= objh ? true : false;
 343              		.loc 1 329 5 is_stmt 1 view .LVU105
 329:lvgl/lvgl/src/widgets/lv_slider.c ****     bool hor = objw >= objh ? true : false;
 344              		.loc 1 329 23 is_stmt 0 view .LVU106
 345 002e 2046     		mov	r0, r4
ARM GAS  C:\Users\gx\AppData\Local\Temp\ccCs6Xqg.s 			page 19


 346 0030 FFF7FEFF 		bl	lv_obj_get_height
 347              	.LVL35:
 348 0034 0546     		mov	r5, r0
 349              	.LVL36:
 330:lvgl/lvgl/src/widgets/lv_slider.c ****     lv_coord_t knob_size = hor ? objh : objw;
 350              		.loc 1 330 5 is_stmt 1 view .LVU107
 330:lvgl/lvgl/src/widgets/lv_slider.c ****     lv_coord_t knob_size = hor ? objh : objw;
 351              		.loc 1 330 10 is_stmt 0 view .LVU108
 352 0036 8642     		cmp	r6, r0
 353 0038 ACBF     		ite	ge
 354 003a 4FF0010B 		movge	fp, #1
 355 003e 4FF0000B 		movlt	fp, #0
 356              	.LVL37:
 331:lvgl/lvgl/src/widgets/lv_slider.c ****     bool sym = false;
 357              		.loc 1 331 5 is_stmt 1 view .LVU109
 331:lvgl/lvgl/src/widgets/lv_slider.c ****     bool sym = false;
 358              		.loc 1 331 16 is_stmt 0 view .LVU110
 359 0042 61DB     		blt	.L35
 360 0044 0190     		str	r0, [sp, #4]
 361              	.L6:
 362              	.LVL38:
 332:lvgl/lvgl/src/widgets/lv_slider.c ****     if(slider->bar.mode == LV_BAR_MODE_SYMMETRICAL && slider->bar.min_value < 0 && slider->bar.max_
 363              		.loc 1 332 5 is_stmt 1 discriminator 4 view .LVU111
 333:lvgl/lvgl/src/widgets/lv_slider.c **** 
 364              		.loc 1 333 5 discriminator 4 view .LVU112
 333:lvgl/lvgl/src/widgets/lv_slider.c **** 
 365              		.loc 1 333 25 is_stmt 0 discriminator 4 view .LVU113
 366 0046 94F85C30 		ldrb	r3, [r4, #92]	@ zero_extendqisi2
 367 004a 03F00303 		and	r3, r3, #3
 333:lvgl/lvgl/src/widgets/lv_slider.c **** 
 368              		.loc 1 333 7 discriminator 4 view .LVU114
 369 004e 012B     		cmp	r3, #1
 370 0050 5CD0     		beq	.L41
 332:lvgl/lvgl/src/widgets/lv_slider.c ****     if(slider->bar.mode == LV_BAR_MODE_SYMMETRICAL && slider->bar.min_value < 0 && slider->bar.max_
 371              		.loc 1 332 10 view .LVU115
 372 0052 0023     		movs	r3, #0
 373              	.L7:
 374              	.LVL39:
 335:lvgl/lvgl/src/widgets/lv_slider.c **** 
 375              		.loc 1 335 5 is_stmt 1 view .LVU116
 338:lvgl/lvgl/src/widgets/lv_slider.c ****         if(!sym) {
 376              		.loc 1 338 5 view .LVU117
 338:lvgl/lvgl/src/widgets/lv_slider.c ****         if(!sym) {
 377              		.loc 1 338 7 is_stmt 0 view .LVU118
 378 0054 AE42     		cmp	r6, r5
 379 0056 C0F2A080 		blt	.L8
 339:lvgl/lvgl/src/widgets/lv_slider.c ****             knob_area.x1 = LV_SLIDER_KNOB_COORD(hor, base_dir == LV_BASE_DIR_RTL, slider->bar.indic
 380              		.loc 1 339 9 is_stmt 1 view .LVU119
 339:lvgl/lvgl/src/widgets/lv_slider.c ****             knob_area.x1 = LV_SLIDER_KNOB_COORD(hor, base_dir == LV_BASE_DIR_RTL, slider->bar.indic
 381              		.loc 1 339 11 is_stmt 0 view .LVU120
 382 005a 002B     		cmp	r3, #0
 383 005c 6ED1     		bne	.L9
 340:lvgl/lvgl/src/widgets/lv_slider.c ****         }
 384              		.loc 1 340 13 is_stmt 1 view .LVU121
 340:lvgl/lvgl/src/widgets/lv_slider.c ****         }
 385              		.loc 1 340 26 is_stmt 0 view .LVU122
 386 005e AE42     		cmp	r6, r5
ARM GAS  C:\Users\gx\AppData\Local\Temp\ccCs6Xqg.s 			page 20


 387 0060 63DB     		blt	.L10
 340:lvgl/lvgl/src/widgets/lv_slider.c ****         }
 388              		.loc 1 340 26 discriminator 1 view .LVU123
 389 0062 B9F1010F 		cmp	r9, #1
 390 0066 5DD0     		beq	.L42
 340:lvgl/lvgl/src/widgets/lv_slider.c ****         }
 391              		.loc 1 340 26 discriminator 4 view .LVU124
 392 0068 B4F93830 		ldrsh	r3, [r4, #56]
 393              	.LVL40:
 394              	.L12:
 340:lvgl/lvgl/src/widgets/lv_slider.c ****         }
 395              		.loc 1 340 26 discriminator 12 view .LVU125
 396 006c ADF8B830 		strh	r3, [sp, #184]	@ movhi
 397              	.L14:
 366:lvgl/lvgl/src/widgets/lv_slider.c ****     lv_draw_rect_dsc_init(&knob_rect_dsc);
 398              		.loc 1 366 5 is_stmt 1 view .LVU126
 367:lvgl/lvgl/src/widgets/lv_slider.c ****     lv_obj_init_draw_rect_dsc(obj, LV_PART_KNOB, &knob_rect_dsc);
 399              		.loc 1 367 5 view .LVU127
 400 0070 0DF18408 		add	r8, sp, #132
 401 0074 4046     		mov	r0, r8
 402              	.LVL41:
 367:lvgl/lvgl/src/widgets/lv_slider.c ****     lv_obj_init_draw_rect_dsc(obj, LV_PART_KNOB, &knob_rect_dsc);
 403              		.loc 1 367 5 is_stmt 0 view .LVU128
 404 0076 FFF7FEFF 		bl	lv_draw_rect_dsc_init
 405              	.LVL42:
 368:lvgl/lvgl/src/widgets/lv_slider.c **** 
 406              		.loc 1 368 5 is_stmt 1 view .LVU129
 407 007a 4246     		mov	r2, r8
 408 007c 4FF44031 		mov	r1, #196608
 409 0080 2046     		mov	r0, r4
 410 0082 FFF7FEFF 		bl	lv_obj_init_draw_rect_dsc
 411              	.LVL43:
 370:lvgl/lvgl/src/widgets/lv_slider.c ****     lv_area_copy(&slider->right_knob_area, &knob_area);
 412              		.loc 1 370 5 view .LVU130
 413 0086 5B46     		mov	r3, fp
 414 0088 019A     		ldr	r2, [sp, #4]
 415 008a 2EA9     		add	r1, sp, #184
 416 008c 2046     		mov	r0, r4
 417 008e FFF7FEFF 		bl	position_knob
 418              	.LVL44:
 371:lvgl/lvgl/src/widgets/lv_slider.c **** 
 419              		.loc 1 371 5 view .LVU131
 420 0092 04F1680A 		add	r10, r4, #104
 421              	.LVL45:
 422              	.LBB93:
 423              	.LBI93:
 424              		.file 3 "d:\\practise\\f407_disc\\lvgl\\lvgl\\src\\misc\\lv_area.h"
   1:d:\practise\f407_disc\lvgl\lvgl\src\misc\lv_area.h **** /**
   2:d:\practise\f407_disc\lvgl\lvgl\src\misc\lv_area.h ****  * @file lv_area.h
   3:d:\practise\f407_disc\lvgl\lvgl\src\misc\lv_area.h ****  *
   4:d:\practise\f407_disc\lvgl\lvgl\src\misc\lv_area.h ****  */
   5:d:\practise\f407_disc\lvgl\lvgl\src\misc\lv_area.h **** 
   6:d:\practise\f407_disc\lvgl\lvgl\src\misc\lv_area.h **** #ifndef LV_AREA_H
   7:d:\practise\f407_disc\lvgl\lvgl\src\misc\lv_area.h **** #define LV_AREA_H
   8:d:\practise\f407_disc\lvgl\lvgl\src\misc\lv_area.h **** 
   9:d:\practise\f407_disc\lvgl\lvgl\src\misc\lv_area.h **** #ifdef __cplusplus
  10:d:\practise\f407_disc\lvgl\lvgl\src\misc\lv_area.h **** extern "C" {
ARM GAS  C:\Users\gx\AppData\Local\Temp\ccCs6Xqg.s 			page 21


  11:d:\practise\f407_disc\lvgl\lvgl\src\misc\lv_area.h **** #endif
  12:d:\practise\f407_disc\lvgl\lvgl\src\misc\lv_area.h **** 
  13:d:\practise\f407_disc\lvgl\lvgl\src\misc\lv_area.h **** /*********************
  14:d:\practise\f407_disc\lvgl\lvgl\src\misc\lv_area.h ****  *      INCLUDES
  15:d:\practise\f407_disc\lvgl\lvgl\src\misc\lv_area.h ****  *********************/
  16:d:\practise\f407_disc\lvgl\lvgl\src\misc\lv_area.h **** #include "../lv_conf_internal.h"
  17:d:\practise\f407_disc\lvgl\lvgl\src\misc\lv_area.h **** #include <string.h>
  18:d:\practise\f407_disc\lvgl\lvgl\src\misc\lv_area.h **** #include <stdbool.h>
  19:d:\practise\f407_disc\lvgl\lvgl\src\misc\lv_area.h **** #include <stdint.h>
  20:d:\practise\f407_disc\lvgl\lvgl\src\misc\lv_area.h **** 
  21:d:\practise\f407_disc\lvgl\lvgl\src\misc\lv_area.h **** /*********************
  22:d:\practise\f407_disc\lvgl\lvgl\src\misc\lv_area.h ****  *      DEFINES
  23:d:\practise\f407_disc\lvgl\lvgl\src\misc\lv_area.h ****  *********************/
  24:d:\practise\f407_disc\lvgl\lvgl\src\misc\lv_area.h **** 
  25:d:\practise\f407_disc\lvgl\lvgl\src\misc\lv_area.h **** #define _LV_COORD_MAX_REDUCE    8192
  26:d:\practise\f407_disc\lvgl\lvgl\src\misc\lv_area.h **** 
  27:d:\practise\f407_disc\lvgl\lvgl\src\misc\lv_area.h **** #if LV_USE_LARGE_COORD
  28:d:\practise\f407_disc\lvgl\lvgl\src\misc\lv_area.h **** typedef int32_t lv_coord_t;
  29:d:\practise\f407_disc\lvgl\lvgl\src\misc\lv_area.h **** #else
  30:d:\practise\f407_disc\lvgl\lvgl\src\misc\lv_area.h **** typedef int16_t lv_coord_t;
  31:d:\practise\f407_disc\lvgl\lvgl\src\misc\lv_area.h **** #endif
  32:d:\practise\f407_disc\lvgl\lvgl\src\misc\lv_area.h **** 
  33:d:\practise\f407_disc\lvgl\lvgl\src\misc\lv_area.h **** /*To allow some special values in the end reduce the max value*/
  34:d:\practise\f407_disc\lvgl\lvgl\src\misc\lv_area.h **** #define LV_COORD_MAX ((lv_coord_t)((uint32_t)((uint32_t)1 << (8 * sizeof(lv_coord_t) - 1)) - _LV_CO
  35:d:\practise\f407_disc\lvgl\lvgl\src\misc\lv_area.h **** #define LV_COORD_MIN (-LV_COORD_MAX)
  36:d:\practise\f407_disc\lvgl\lvgl\src\misc\lv_area.h **** 
  37:d:\practise\f407_disc\lvgl\lvgl\src\misc\lv_area.h **** LV_EXPORT_CONST_INT(LV_COORD_MAX);
  38:d:\practise\f407_disc\lvgl\lvgl\src\misc\lv_area.h **** LV_EXPORT_CONST_INT(LV_COORD_MIN);
  39:d:\practise\f407_disc\lvgl\lvgl\src\misc\lv_area.h **** 
  40:d:\practise\f407_disc\lvgl\lvgl\src\misc\lv_area.h **** /**********************
  41:d:\practise\f407_disc\lvgl\lvgl\src\misc\lv_area.h ****  *      TYPEDEFS
  42:d:\practise\f407_disc\lvgl\lvgl\src\misc\lv_area.h ****  **********************/
  43:d:\practise\f407_disc\lvgl\lvgl\src\misc\lv_area.h **** 
  44:d:\practise\f407_disc\lvgl\lvgl\src\misc\lv_area.h **** /**
  45:d:\practise\f407_disc\lvgl\lvgl\src\misc\lv_area.h ****  * Represents a point on the screen.
  46:d:\practise\f407_disc\lvgl\lvgl\src\misc\lv_area.h ****  */
  47:d:\practise\f407_disc\lvgl\lvgl\src\misc\lv_area.h **** typedef struct {
  48:d:\practise\f407_disc\lvgl\lvgl\src\misc\lv_area.h ****     lv_coord_t x;
  49:d:\practise\f407_disc\lvgl\lvgl\src\misc\lv_area.h ****     lv_coord_t y;
  50:d:\practise\f407_disc\lvgl\lvgl\src\misc\lv_area.h **** } lv_point_t;
  51:d:\practise\f407_disc\lvgl\lvgl\src\misc\lv_area.h **** 
  52:d:\practise\f407_disc\lvgl\lvgl\src\misc\lv_area.h **** /** Represents an area of the screen.*/
  53:d:\practise\f407_disc\lvgl\lvgl\src\misc\lv_area.h **** typedef struct {
  54:d:\practise\f407_disc\lvgl\lvgl\src\misc\lv_area.h ****     lv_coord_t x1;
  55:d:\practise\f407_disc\lvgl\lvgl\src\misc\lv_area.h ****     lv_coord_t y1;
  56:d:\practise\f407_disc\lvgl\lvgl\src\misc\lv_area.h ****     lv_coord_t x2;
  57:d:\practise\f407_disc\lvgl\lvgl\src\misc\lv_area.h ****     lv_coord_t y2;
  58:d:\practise\f407_disc\lvgl\lvgl\src\misc\lv_area.h **** } lv_area_t;
  59:d:\practise\f407_disc\lvgl\lvgl\src\misc\lv_area.h **** 
  60:d:\practise\f407_disc\lvgl\lvgl\src\misc\lv_area.h **** /** Alignments*/
  61:d:\practise\f407_disc\lvgl\lvgl\src\misc\lv_area.h **** enum {
  62:d:\practise\f407_disc\lvgl\lvgl\src\misc\lv_area.h ****     LV_ALIGN_DEFAULT = 0,
  63:d:\practise\f407_disc\lvgl\lvgl\src\misc\lv_area.h ****     LV_ALIGN_TOP_LEFT,
  64:d:\practise\f407_disc\lvgl\lvgl\src\misc\lv_area.h ****     LV_ALIGN_TOP_MID,
  65:d:\practise\f407_disc\lvgl\lvgl\src\misc\lv_area.h ****     LV_ALIGN_TOP_RIGHT,
  66:d:\practise\f407_disc\lvgl\lvgl\src\misc\lv_area.h ****     LV_ALIGN_BOTTOM_LEFT,
  67:d:\practise\f407_disc\lvgl\lvgl\src\misc\lv_area.h ****     LV_ALIGN_BOTTOM_MID,
ARM GAS  C:\Users\gx\AppData\Local\Temp\ccCs6Xqg.s 			page 22


  68:d:\practise\f407_disc\lvgl\lvgl\src\misc\lv_area.h ****     LV_ALIGN_BOTTOM_RIGHT,
  69:d:\practise\f407_disc\lvgl\lvgl\src\misc\lv_area.h ****     LV_ALIGN_LEFT_MID,
  70:d:\practise\f407_disc\lvgl\lvgl\src\misc\lv_area.h ****     LV_ALIGN_RIGHT_MID,
  71:d:\practise\f407_disc\lvgl\lvgl\src\misc\lv_area.h ****     LV_ALIGN_CENTER,
  72:d:\practise\f407_disc\lvgl\lvgl\src\misc\lv_area.h **** 
  73:d:\practise\f407_disc\lvgl\lvgl\src\misc\lv_area.h ****     LV_ALIGN_OUT_TOP_LEFT,
  74:d:\practise\f407_disc\lvgl\lvgl\src\misc\lv_area.h ****     LV_ALIGN_OUT_TOP_MID,
  75:d:\practise\f407_disc\lvgl\lvgl\src\misc\lv_area.h ****     LV_ALIGN_OUT_TOP_RIGHT,
  76:d:\practise\f407_disc\lvgl\lvgl\src\misc\lv_area.h ****     LV_ALIGN_OUT_BOTTOM_LEFT,
  77:d:\practise\f407_disc\lvgl\lvgl\src\misc\lv_area.h ****     LV_ALIGN_OUT_BOTTOM_MID,
  78:d:\practise\f407_disc\lvgl\lvgl\src\misc\lv_area.h ****     LV_ALIGN_OUT_BOTTOM_RIGHT,
  79:d:\practise\f407_disc\lvgl\lvgl\src\misc\lv_area.h ****     LV_ALIGN_OUT_LEFT_TOP,
  80:d:\practise\f407_disc\lvgl\lvgl\src\misc\lv_area.h ****     LV_ALIGN_OUT_LEFT_MID,
  81:d:\practise\f407_disc\lvgl\lvgl\src\misc\lv_area.h ****     LV_ALIGN_OUT_LEFT_BOTTOM,
  82:d:\practise\f407_disc\lvgl\lvgl\src\misc\lv_area.h ****     LV_ALIGN_OUT_RIGHT_TOP,
  83:d:\practise\f407_disc\lvgl\lvgl\src\misc\lv_area.h ****     LV_ALIGN_OUT_RIGHT_MID,
  84:d:\practise\f407_disc\lvgl\lvgl\src\misc\lv_area.h ****     LV_ALIGN_OUT_RIGHT_BOTTOM,
  85:d:\practise\f407_disc\lvgl\lvgl\src\misc\lv_area.h **** };
  86:d:\practise\f407_disc\lvgl\lvgl\src\misc\lv_area.h **** typedef uint8_t lv_align_t;
  87:d:\practise\f407_disc\lvgl\lvgl\src\misc\lv_area.h **** 
  88:d:\practise\f407_disc\lvgl\lvgl\src\misc\lv_area.h **** enum {
  89:d:\practise\f407_disc\lvgl\lvgl\src\misc\lv_area.h ****     LV_DIR_NONE     = 0x00,
  90:d:\practise\f407_disc\lvgl\lvgl\src\misc\lv_area.h ****     LV_DIR_LEFT     = (1 << 0),
  91:d:\practise\f407_disc\lvgl\lvgl\src\misc\lv_area.h ****     LV_DIR_RIGHT    = (1 << 1),
  92:d:\practise\f407_disc\lvgl\lvgl\src\misc\lv_area.h ****     LV_DIR_TOP      = (1 << 2),
  93:d:\practise\f407_disc\lvgl\lvgl\src\misc\lv_area.h ****     LV_DIR_BOTTOM   = (1 << 3),
  94:d:\practise\f407_disc\lvgl\lvgl\src\misc\lv_area.h ****     LV_DIR_HOR      = LV_DIR_LEFT | LV_DIR_RIGHT,
  95:d:\practise\f407_disc\lvgl\lvgl\src\misc\lv_area.h ****     LV_DIR_VER      = LV_DIR_TOP | LV_DIR_BOTTOM,
  96:d:\practise\f407_disc\lvgl\lvgl\src\misc\lv_area.h ****     LV_DIR_ALL      = LV_DIR_HOR | LV_DIR_VER,
  97:d:\practise\f407_disc\lvgl\lvgl\src\misc\lv_area.h **** };
  98:d:\practise\f407_disc\lvgl\lvgl\src\misc\lv_area.h **** 
  99:d:\practise\f407_disc\lvgl\lvgl\src\misc\lv_area.h **** typedef uint8_t lv_dir_t;
 100:d:\practise\f407_disc\lvgl\lvgl\src\misc\lv_area.h **** 
 101:d:\practise\f407_disc\lvgl\lvgl\src\misc\lv_area.h **** /**********************
 102:d:\practise\f407_disc\lvgl\lvgl\src\misc\lv_area.h ****  * GLOBAL PROTOTYPES
 103:d:\practise\f407_disc\lvgl\lvgl\src\misc\lv_area.h ****  **********************/
 104:d:\practise\f407_disc\lvgl\lvgl\src\misc\lv_area.h **** 
 105:d:\practise\f407_disc\lvgl\lvgl\src\misc\lv_area.h **** /**
 106:d:\practise\f407_disc\lvgl\lvgl\src\misc\lv_area.h ****  * Initialize an area
 107:d:\practise\f407_disc\lvgl\lvgl\src\misc\lv_area.h ****  * @param area_p pointer to an area
 108:d:\practise\f407_disc\lvgl\lvgl\src\misc\lv_area.h ****  * @param x1 left coordinate of the area
 109:d:\practise\f407_disc\lvgl\lvgl\src\misc\lv_area.h ****  * @param y1 top coordinate of the area
 110:d:\practise\f407_disc\lvgl\lvgl\src\misc\lv_area.h ****  * @param x2 right coordinate of the area
 111:d:\practise\f407_disc\lvgl\lvgl\src\misc\lv_area.h ****  * @param y2 bottom coordinate of the area
 112:d:\practise\f407_disc\lvgl\lvgl\src\misc\lv_area.h ****  */
 113:d:\practise\f407_disc\lvgl\lvgl\src\misc\lv_area.h **** void lv_area_set(lv_area_t * area_p, lv_coord_t x1, lv_coord_t y1, lv_coord_t x2, lv_coord_t y2);
 114:d:\practise\f407_disc\lvgl\lvgl\src\misc\lv_area.h **** 
 115:d:\practise\f407_disc\lvgl\lvgl\src\misc\lv_area.h **** /**
 116:d:\practise\f407_disc\lvgl\lvgl\src\misc\lv_area.h ****  * Copy an area
 117:d:\practise\f407_disc\lvgl\lvgl\src\misc\lv_area.h ****  * @param dest pointer to the destination area
 118:d:\practise\f407_disc\lvgl\lvgl\src\misc\lv_area.h ****  * @param src pointer to the source area
 119:d:\practise\f407_disc\lvgl\lvgl\src\misc\lv_area.h ****  */
 120:d:\practise\f407_disc\lvgl\lvgl\src\misc\lv_area.h **** inline static void lv_area_copy(lv_area_t * dest, const lv_area_t * src)
 425              		.loc 3 120 20 view .LVU132
 426              	.LBB94:
 121:d:\practise\f407_disc\lvgl\lvgl\src\misc\lv_area.h **** {
 122:d:\practise\f407_disc\lvgl\lvgl\src\misc\lv_area.h ****     dest->x1 = src->x1;
ARM GAS  C:\Users\gx\AppData\Local\Temp\ccCs6Xqg.s 			page 23


 427              		.loc 3 122 5 view .LVU133
 428              		.loc 3 122 19 is_stmt 0 view .LVU134
 429 0096 BDF9B830 		ldrsh	r3, [sp, #184]
 430              		.loc 3 122 14 view .LVU135
 431 009a A4F86830 		strh	r3, [r4, #104]	@ movhi
 123:d:\practise\f407_disc\lvgl\lvgl\src\misc\lv_area.h ****     dest->y1 = src->y1;
 432              		.loc 3 123 5 is_stmt 1 view .LVU136
 433              		.loc 3 123 19 is_stmt 0 view .LVU137
 434 009e BDF9BA30 		ldrsh	r3, [sp, #186]
 435              		.loc 3 123 14 view .LVU138
 436 00a2 A4F86A30 		strh	r3, [r4, #106]	@ movhi
 124:d:\practise\f407_disc\lvgl\lvgl\src\misc\lv_area.h ****     dest->x2 = src->x2;
 437              		.loc 3 124 5 is_stmt 1 view .LVU139
 438              		.loc 3 124 19 is_stmt 0 view .LVU140
 439 00a6 BDF9BC30 		ldrsh	r3, [sp, #188]
 440              		.loc 3 124 14 view .LVU141
 441 00aa A4F86C30 		strh	r3, [r4, #108]	@ movhi
 125:d:\practise\f407_disc\lvgl\lvgl\src\misc\lv_area.h ****     dest->y2 = src->y2;
 442              		.loc 3 125 5 is_stmt 1 view .LVU142
 443              		.loc 3 125 19 is_stmt 0 view .LVU143
 444 00ae BDF9BE30 		ldrsh	r3, [sp, #190]
 445              		.loc 3 125 14 view .LVU144
 446 00b2 A4F86E30 		strh	r3, [r4, #110]	@ movhi
 447              	.LVL46:
 448              		.loc 3 125 14 view .LVU145
 449              	.LBE94:
 450              	.LBE93:
 373:lvgl/lvgl/src/widgets/lv_slider.c ****     lv_obj_draw_dsc_init(&part_draw_dsc, clip_area);
 451              		.loc 1 373 5 is_stmt 1 view .LVU146
 374:lvgl/lvgl/src/widgets/lv_slider.c ****     part_draw_dsc.part = LV_PART_KNOB;
 452              		.loc 1 374 5 view .LVU147
 453 00b6 3946     		mov	r1, r7
 454 00b8 10A8     		add	r0, sp, #64
 455 00ba FFF7FEFF 		bl	lv_obj_draw_dsc_init
 456              	.LVL47:
 375:lvgl/lvgl/src/widgets/lv_slider.c ****     part_draw_dsc.class_p = MY_CLASS;
 457              		.loc 1 375 5 view .LVU148
 375:lvgl/lvgl/src/widgets/lv_slider.c ****     part_draw_dsc.class_p = MY_CLASS;
 458              		.loc 1 375 24 is_stmt 0 view .LVU149
 459 00be 4FF44033 		mov	r3, #196608
 460 00c2 1C93     		str	r3, [sp, #112]
 376:lvgl/lvgl/src/widgets/lv_slider.c ****     part_draw_dsc.type = LV_SLIDER_DRAW_PART_KNOB;
 461              		.loc 1 376 5 is_stmt 1 view .LVU150
 376:lvgl/lvgl/src/widgets/lv_slider.c ****     part_draw_dsc.type = LV_SLIDER_DRAW_PART_KNOB;
 462              		.loc 1 376 27 is_stmt 0 view .LVU151
 463 00c4 704B     		ldr	r3, .L49
 464 00c6 1193     		str	r3, [sp, #68]
 377:lvgl/lvgl/src/widgets/lv_slider.c ****     part_draw_dsc.id = 0;
 465              		.loc 1 377 5 is_stmt 1 view .LVU152
 377:lvgl/lvgl/src/widgets/lv_slider.c ****     part_draw_dsc.id = 0;
 466              		.loc 1 377 24 is_stmt 0 view .LVU153
 467 00c8 0023     		movs	r3, #0
 468 00ca 1293     		str	r3, [sp, #72]
 378:lvgl/lvgl/src/widgets/lv_slider.c ****     part_draw_dsc.draw_area = &slider->right_knob_area;
 469              		.loc 1 378 5 is_stmt 1 view .LVU154
 378:lvgl/lvgl/src/widgets/lv_slider.c ****     part_draw_dsc.draw_area = &slider->right_knob_area;
 470              		.loc 1 378 22 is_stmt 0 view .LVU155
ARM GAS  C:\Users\gx\AppData\Local\Temp\ccCs6Xqg.s 			page 24


 471 00cc 1D93     		str	r3, [sp, #116]
 379:lvgl/lvgl/src/widgets/lv_slider.c ****     part_draw_dsc.rect_dsc = &knob_rect_dsc;
 472              		.loc 1 379 5 is_stmt 1 view .LVU156
 379:lvgl/lvgl/src/widgets/lv_slider.c ****     part_draw_dsc.rect_dsc = &knob_rect_dsc;
 473              		.loc 1 379 29 is_stmt 0 view .LVU157
 474 00ce CDF84CA0 		str	r10, [sp, #76]
 380:lvgl/lvgl/src/widgets/lv_slider.c **** 
 475              		.loc 1 380 5 is_stmt 1 view .LVU158
 380:lvgl/lvgl/src/widgets/lv_slider.c **** 
 476              		.loc 1 380 28 is_stmt 0 view .LVU159
 477 00d2 CDF85080 		str	r8, [sp, #80]
 382:lvgl/lvgl/src/widgets/lv_slider.c ****         lv_event_send(obj, LV_EVENT_DRAW_PART_BEGIN, &part_draw_dsc);
 478              		.loc 1 382 5 is_stmt 1 view .LVU160
 479              	.LVL48:
 480              	.LBB95:
 481              	.LBI95:
 482              		.file 4 "lvgl/lvgl/src/widgets/lv_slider.h"
   1:lvgl/lvgl/src/widgets/lv_slider.h **** /**
   2:lvgl/lvgl/src/widgets/lv_slider.h ****  * @file lv_slider.h
   3:lvgl/lvgl/src/widgets/lv_slider.h ****  *
   4:lvgl/lvgl/src/widgets/lv_slider.h ****  */
   5:lvgl/lvgl/src/widgets/lv_slider.h **** 
   6:lvgl/lvgl/src/widgets/lv_slider.h **** #ifndef LV_SLIDER_H
   7:lvgl/lvgl/src/widgets/lv_slider.h **** #define LV_SLIDER_H
   8:lvgl/lvgl/src/widgets/lv_slider.h **** 
   9:lvgl/lvgl/src/widgets/lv_slider.h **** #ifdef __cplusplus
  10:lvgl/lvgl/src/widgets/lv_slider.h **** extern "C" {
  11:lvgl/lvgl/src/widgets/lv_slider.h **** #endif
  12:lvgl/lvgl/src/widgets/lv_slider.h **** 
  13:lvgl/lvgl/src/widgets/lv_slider.h **** /*********************
  14:lvgl/lvgl/src/widgets/lv_slider.h ****  *      INCLUDES
  15:lvgl/lvgl/src/widgets/lv_slider.h ****  *********************/
  16:lvgl/lvgl/src/widgets/lv_slider.h **** #include "../lv_conf_internal.h"
  17:lvgl/lvgl/src/widgets/lv_slider.h **** 
  18:lvgl/lvgl/src/widgets/lv_slider.h **** #if LV_USE_SLIDER != 0
  19:lvgl/lvgl/src/widgets/lv_slider.h **** 
  20:lvgl/lvgl/src/widgets/lv_slider.h **** /*Testing of dependencies*/
  21:lvgl/lvgl/src/widgets/lv_slider.h **** #if LV_USE_BAR == 0
  22:lvgl/lvgl/src/widgets/lv_slider.h **** #error "lv_slider: lv_bar is required. Enable it in lv_conf.h (LV_USE_BAR 1)"
  23:lvgl/lvgl/src/widgets/lv_slider.h **** #endif
  24:lvgl/lvgl/src/widgets/lv_slider.h **** 
  25:lvgl/lvgl/src/widgets/lv_slider.h **** #include "../core/lv_obj.h"
  26:lvgl/lvgl/src/widgets/lv_slider.h **** #include "lv_bar.h"
  27:lvgl/lvgl/src/widgets/lv_slider.h **** 
  28:lvgl/lvgl/src/widgets/lv_slider.h **** /*********************
  29:lvgl/lvgl/src/widgets/lv_slider.h ****  *      DEFINES
  30:lvgl/lvgl/src/widgets/lv_slider.h ****  *********************/
  31:lvgl/lvgl/src/widgets/lv_slider.h **** 
  32:lvgl/lvgl/src/widgets/lv_slider.h **** /**********************
  33:lvgl/lvgl/src/widgets/lv_slider.h ****  *      TYPEDEFS
  34:lvgl/lvgl/src/widgets/lv_slider.h ****  **********************/
  35:lvgl/lvgl/src/widgets/lv_slider.h **** 
  36:lvgl/lvgl/src/widgets/lv_slider.h **** enum {
  37:lvgl/lvgl/src/widgets/lv_slider.h ****     LV_SLIDER_MODE_NORMAL = LV_BAR_MODE_NORMAL,
  38:lvgl/lvgl/src/widgets/lv_slider.h ****     LV_SLIDER_MODE_SYMMETRICAL = LV_BAR_MODE_SYMMETRICAL,
  39:lvgl/lvgl/src/widgets/lv_slider.h ****     LV_SLIDER_MODE_RANGE = LV_BAR_MODE_RANGE
  40:lvgl/lvgl/src/widgets/lv_slider.h **** };
ARM GAS  C:\Users\gx\AppData\Local\Temp\ccCs6Xqg.s 			page 25


  41:lvgl/lvgl/src/widgets/lv_slider.h **** typedef uint8_t lv_slider_mode_t;
  42:lvgl/lvgl/src/widgets/lv_slider.h **** 
  43:lvgl/lvgl/src/widgets/lv_slider.h **** typedef struct {
  44:lvgl/lvgl/src/widgets/lv_slider.h ****     lv_bar_t bar;       /*Add the ancestor's type first*/
  45:lvgl/lvgl/src/widgets/lv_slider.h ****     lv_area_t left_knob_area;
  46:lvgl/lvgl/src/widgets/lv_slider.h ****     lv_area_t right_knob_area;
  47:lvgl/lvgl/src/widgets/lv_slider.h ****     int32_t * value_to_set; /*Which bar value to set*/
  48:lvgl/lvgl/src/widgets/lv_slider.h ****     uint8_t dragging : 1;       /*1: the slider is being dragged*/
  49:lvgl/lvgl/src/widgets/lv_slider.h ****     uint8_t left_knob_focus : 1; /*1: with encoder now the right knob can be adjusted*/
  50:lvgl/lvgl/src/widgets/lv_slider.h **** }lv_slider_t;
  51:lvgl/lvgl/src/widgets/lv_slider.h **** 
  52:lvgl/lvgl/src/widgets/lv_slider.h **** extern const lv_obj_class_t lv_slider_class;
  53:lvgl/lvgl/src/widgets/lv_slider.h **** 
  54:lvgl/lvgl/src/widgets/lv_slider.h **** /**
  55:lvgl/lvgl/src/widgets/lv_slider.h ****  * `type` field in `lv_obj_draw_part_dsc_t` if `class_p = lv_slider_class`
  56:lvgl/lvgl/src/widgets/lv_slider.h ****  * Used in `LV_EVENT_DRAW_PART_BEGIN` and `LV_EVENT_DRAW_PART_END`
  57:lvgl/lvgl/src/widgets/lv_slider.h ****  */
  58:lvgl/lvgl/src/widgets/lv_slider.h **** typedef enum {
  59:lvgl/lvgl/src/widgets/lv_slider.h ****     LV_SLIDER_DRAW_PART_KNOB,           /**< The main (right) knob's rectangle*/
  60:lvgl/lvgl/src/widgets/lv_slider.h ****     LV_SLIDER_DRAW_PART_KNOB_LEFT,      /**< The left knob's rectangle*/
  61:lvgl/lvgl/src/widgets/lv_slider.h **** }lv_slider_draw_part_type_t;
  62:lvgl/lvgl/src/widgets/lv_slider.h **** 
  63:lvgl/lvgl/src/widgets/lv_slider.h **** /**********************
  64:lvgl/lvgl/src/widgets/lv_slider.h ****  * GLOBAL PROTOTYPES
  65:lvgl/lvgl/src/widgets/lv_slider.h ****  **********************/
  66:lvgl/lvgl/src/widgets/lv_slider.h **** 
  67:lvgl/lvgl/src/widgets/lv_slider.h **** /**
  68:lvgl/lvgl/src/widgets/lv_slider.h ****  * Create a slider objects
  69:lvgl/lvgl/src/widgets/lv_slider.h ****  * @param parent    pointer to an object, it will be the parent of the new slider.
  70:lvgl/lvgl/src/widgets/lv_slider.h ****  * @return          pointer to the created slider
  71:lvgl/lvgl/src/widgets/lv_slider.h ****  */
  72:lvgl/lvgl/src/widgets/lv_slider.h **** lv_obj_t * lv_slider_create(lv_obj_t * parent);
  73:lvgl/lvgl/src/widgets/lv_slider.h **** 
  74:lvgl/lvgl/src/widgets/lv_slider.h **** /*=====================
  75:lvgl/lvgl/src/widgets/lv_slider.h ****  * Setter functions
  76:lvgl/lvgl/src/widgets/lv_slider.h ****  *====================*/
  77:lvgl/lvgl/src/widgets/lv_slider.h **** 
  78:lvgl/lvgl/src/widgets/lv_slider.h **** /**
  79:lvgl/lvgl/src/widgets/lv_slider.h ****  * Set a new value on the slider
  80:lvgl/lvgl/src/widgets/lv_slider.h ****  * @param obj       pointer to a slider object
  81:lvgl/lvgl/src/widgets/lv_slider.h ****  * @param value     the new value
  82:lvgl/lvgl/src/widgets/lv_slider.h ****  * @param anim      LV_ANIM_ON: set the value with an animation; LV_ANIM_OFF: change the value imme
  83:lvgl/lvgl/src/widgets/lv_slider.h ****  */
  84:lvgl/lvgl/src/widgets/lv_slider.h **** static inline void lv_slider_set_value(lv_obj_t * obj, int32_t value, lv_anim_enable_t anim)
  85:lvgl/lvgl/src/widgets/lv_slider.h **** {
  86:lvgl/lvgl/src/widgets/lv_slider.h ****     lv_bar_set_value(obj, value, anim);
  87:lvgl/lvgl/src/widgets/lv_slider.h **** }
  88:lvgl/lvgl/src/widgets/lv_slider.h **** 
  89:lvgl/lvgl/src/widgets/lv_slider.h **** /**
  90:lvgl/lvgl/src/widgets/lv_slider.h ****  * Set a new value for the left knob of a slider
  91:lvgl/lvgl/src/widgets/lv_slider.h ****  * @param obj       pointer to a slider object
  92:lvgl/lvgl/src/widgets/lv_slider.h ****  * @param value     new value
  93:lvgl/lvgl/src/widgets/lv_slider.h ****  * @param anim      LV_ANIM_ON: set the value with an animation; LV_ANIM_OFF: change the value imme
  94:lvgl/lvgl/src/widgets/lv_slider.h ****  */
  95:lvgl/lvgl/src/widgets/lv_slider.h **** static inline void lv_slider_set_left_value(lv_obj_t * obj, int32_t value, lv_anim_enable_t anim)
  96:lvgl/lvgl/src/widgets/lv_slider.h **** {
  97:lvgl/lvgl/src/widgets/lv_slider.h ****     lv_bar_set_start_value(obj, value, anim);
ARM GAS  C:\Users\gx\AppData\Local\Temp\ccCs6Xqg.s 			page 26


  98:lvgl/lvgl/src/widgets/lv_slider.h **** }
  99:lvgl/lvgl/src/widgets/lv_slider.h **** 
 100:lvgl/lvgl/src/widgets/lv_slider.h **** /**
 101:lvgl/lvgl/src/widgets/lv_slider.h ****  * Set minimum and the maximum values of a bar
 102:lvgl/lvgl/src/widgets/lv_slider.h ****  * @param obj       pointer to the slider object
 103:lvgl/lvgl/src/widgets/lv_slider.h ****  * @param min       minimum value
 104:lvgl/lvgl/src/widgets/lv_slider.h ****  * @param max       maximum value
 105:lvgl/lvgl/src/widgets/lv_slider.h ****  */
 106:lvgl/lvgl/src/widgets/lv_slider.h **** static inline void lv_slider_set_range(lv_obj_t * obj, int32_t min, int32_t max)
 107:lvgl/lvgl/src/widgets/lv_slider.h **** {
 108:lvgl/lvgl/src/widgets/lv_slider.h ****     lv_bar_set_range(obj, min, max);
 109:lvgl/lvgl/src/widgets/lv_slider.h **** }
 110:lvgl/lvgl/src/widgets/lv_slider.h **** 
 111:lvgl/lvgl/src/widgets/lv_slider.h **** /**
 112:lvgl/lvgl/src/widgets/lv_slider.h ****  * Set the mode of slider.
 113:lvgl/lvgl/src/widgets/lv_slider.h ****  * @param obj       pointer to a slider object
 114:lvgl/lvgl/src/widgets/lv_slider.h ****  * @param mode      the mode of the slider. See ::lv_slider_mode_t
 115:lvgl/lvgl/src/widgets/lv_slider.h ****  */
 116:lvgl/lvgl/src/widgets/lv_slider.h **** static inline void lv_slider_set_mode(lv_obj_t * obj, lv_slider_mode_t mode)
 117:lvgl/lvgl/src/widgets/lv_slider.h **** {
 118:lvgl/lvgl/src/widgets/lv_slider.h ****     lv_bar_set_mode(obj, (lv_bar_mode_t)mode);
 119:lvgl/lvgl/src/widgets/lv_slider.h **** }
 120:lvgl/lvgl/src/widgets/lv_slider.h **** 
 121:lvgl/lvgl/src/widgets/lv_slider.h **** /*=====================
 122:lvgl/lvgl/src/widgets/lv_slider.h ****  * Getter functions
 123:lvgl/lvgl/src/widgets/lv_slider.h ****  *====================*/
 124:lvgl/lvgl/src/widgets/lv_slider.h **** 
 125:lvgl/lvgl/src/widgets/lv_slider.h **** /**
 126:lvgl/lvgl/src/widgets/lv_slider.h ****  * Get the value of the main knob of a slider
 127:lvgl/lvgl/src/widgets/lv_slider.h ****  * @param obj       pointer to a slider object
 128:lvgl/lvgl/src/widgets/lv_slider.h ****  * @return          the value of the main knob of the slider
 129:lvgl/lvgl/src/widgets/lv_slider.h ****  */
 130:lvgl/lvgl/src/widgets/lv_slider.h **** static inline int32_t lv_slider_get_value(const lv_obj_t * obj)
 131:lvgl/lvgl/src/widgets/lv_slider.h **** {
 132:lvgl/lvgl/src/widgets/lv_slider.h ****     return lv_bar_get_value(obj);
 133:lvgl/lvgl/src/widgets/lv_slider.h **** }
 134:lvgl/lvgl/src/widgets/lv_slider.h **** 
 135:lvgl/lvgl/src/widgets/lv_slider.h **** /**
 136:lvgl/lvgl/src/widgets/lv_slider.h ****  * Get the value of the left knob of a slider
 137:lvgl/lvgl/src/widgets/lv_slider.h ****  * @param obj       pointer to a slider object
 138:lvgl/lvgl/src/widgets/lv_slider.h ****  * @return          the value of the left knob of the slider
 139:lvgl/lvgl/src/widgets/lv_slider.h ****  */
 140:lvgl/lvgl/src/widgets/lv_slider.h **** static inline int32_t lv_slider_get_left_value(const lv_obj_t * obj)
 141:lvgl/lvgl/src/widgets/lv_slider.h **** {
 142:lvgl/lvgl/src/widgets/lv_slider.h ****     return lv_bar_get_start_value(obj);
 143:lvgl/lvgl/src/widgets/lv_slider.h **** }
 144:lvgl/lvgl/src/widgets/lv_slider.h **** 
 145:lvgl/lvgl/src/widgets/lv_slider.h **** /**
 146:lvgl/lvgl/src/widgets/lv_slider.h ****  * Get the minimum value of a slider
 147:lvgl/lvgl/src/widgets/lv_slider.h ****  * @param obj       pointer to a slider object
 148:lvgl/lvgl/src/widgets/lv_slider.h ****  * @return          the minimum value of the slider
 149:lvgl/lvgl/src/widgets/lv_slider.h ****  */
 150:lvgl/lvgl/src/widgets/lv_slider.h **** static inline int32_t lv_slider_get_min_value(const lv_obj_t * obj)
 151:lvgl/lvgl/src/widgets/lv_slider.h **** {
 152:lvgl/lvgl/src/widgets/lv_slider.h ****     return lv_bar_get_min_value(obj);
 153:lvgl/lvgl/src/widgets/lv_slider.h **** }
 154:lvgl/lvgl/src/widgets/lv_slider.h **** 
ARM GAS  C:\Users\gx\AppData\Local\Temp\ccCs6Xqg.s 			page 27


 155:lvgl/lvgl/src/widgets/lv_slider.h **** /**
 156:lvgl/lvgl/src/widgets/lv_slider.h ****  * Get the maximum value of a slider
 157:lvgl/lvgl/src/widgets/lv_slider.h ****  * @param obj       pointer to a slider object
 158:lvgl/lvgl/src/widgets/lv_slider.h ****  * @return          the maximum value of the slider
 159:lvgl/lvgl/src/widgets/lv_slider.h ****  */
 160:lvgl/lvgl/src/widgets/lv_slider.h **** static inline int32_t lv_slider_get_max_value(const lv_obj_t * obj)
 161:lvgl/lvgl/src/widgets/lv_slider.h **** {
 162:lvgl/lvgl/src/widgets/lv_slider.h ****     return lv_bar_get_max_value(obj);
 163:lvgl/lvgl/src/widgets/lv_slider.h **** }
 164:lvgl/lvgl/src/widgets/lv_slider.h **** 
 165:lvgl/lvgl/src/widgets/lv_slider.h **** /**
 166:lvgl/lvgl/src/widgets/lv_slider.h ****  * Give the slider is being dragged or not
 167:lvgl/lvgl/src/widgets/lv_slider.h ****  * @param obj       pointer to a slider object
 168:lvgl/lvgl/src/widgets/lv_slider.h ****  * @return          true: drag in progress false: not dragged
 169:lvgl/lvgl/src/widgets/lv_slider.h ****  */
 170:lvgl/lvgl/src/widgets/lv_slider.h **** bool lv_slider_is_dragged(const lv_obj_t * obj);
 171:lvgl/lvgl/src/widgets/lv_slider.h **** 
 172:lvgl/lvgl/src/widgets/lv_slider.h **** /**
 173:lvgl/lvgl/src/widgets/lv_slider.h ****  * Get the mode of the slider.
 174:lvgl/lvgl/src/widgets/lv_slider.h ****  * @param obj       pointer to a bar object
 175:lvgl/lvgl/src/widgets/lv_slider.h ****  * @return          see ::lv_slider_mode_t
 176:lvgl/lvgl/src/widgets/lv_slider.h ****  */
 177:lvgl/lvgl/src/widgets/lv_slider.h **** static inline lv_slider_mode_t lv_slider_get_mode(lv_obj_t * slider)
 483              		.loc 4 177 32 view .LVU161
 484              	.LBB96:
 178:lvgl/lvgl/src/widgets/lv_slider.h **** {
 179:lvgl/lvgl/src/widgets/lv_slider.h ****     lv_bar_mode_t mode = lv_bar_get_mode(slider);
 485              		.loc 4 179 5 view .LVU162
 486              		.loc 4 179 26 is_stmt 0 view .LVU163
 487 00d6 2046     		mov	r0, r4
 488 00d8 FFF7FEFF 		bl	lv_bar_get_mode
 489              	.LVL49:
 180:lvgl/lvgl/src/widgets/lv_slider.h ****     if(mode == LV_BAR_MODE_SYMMETRICAL) return LV_SLIDER_MODE_SYMMETRICAL;
 490              		.loc 4 180 5 is_stmt 1 view .LVU164
 491              		.loc 4 180 7 is_stmt 0 view .LVU165
 492 00dc 0128     		cmp	r0, #1
 493 00de 01D0     		beq	.L26
 181:lvgl/lvgl/src/widgets/lv_slider.h ****     else if(mode == LV_BAR_MODE_RANGE) return LV_SLIDER_MODE_RANGE;
 494              		.loc 4 181 10 is_stmt 1 view .LVU166
 495              		.loc 4 181 12 is_stmt 0 view .LVU167
 496 00e0 0228     		cmp	r0, #2
 497 00e2 6DD0     		beq	.L43
 498              	.L26:
 499              	.LVL50:
 500              		.loc 4 181 12 view .LVU168
 501              	.LBE96:
 502              	.LBE95:
 383:lvgl/lvgl/src/widgets/lv_slider.c ****         lv_draw_rect(&slider->right_knob_area, clip_area, &knob_rect_dsc);
 503              		.loc 1 383 9 is_stmt 1 view .LVU169
 504 00e4 10AA     		add	r2, sp, #64
 505 00e6 1A21     		movs	r1, #26
 506 00e8 2046     		mov	r0, r4
 507 00ea FFF7FEFF 		bl	lv_event_send
 508              	.LVL51:
 384:lvgl/lvgl/src/widgets/lv_slider.c ****         lv_event_send(obj, LV_EVENT_DRAW_PART_END, &part_draw_dsc);
 509              		.loc 1 384 9 view .LVU170
 510 00ee 21AA     		add	r2, sp, #132
ARM GAS  C:\Users\gx\AppData\Local\Temp\ccCs6Xqg.s 			page 28


 511 00f0 3946     		mov	r1, r7
 512 00f2 5046     		mov	r0, r10
 513 00f4 FFF7FEFF 		bl	lv_draw_rect
 514              	.LVL52:
 385:lvgl/lvgl/src/widgets/lv_slider.c ****     } else {
 515              		.loc 1 385 9 view .LVU171
 516 00f8 10AA     		add	r2, sp, #64
 517 00fa 1B21     		movs	r1, #27
 518 00fc 2046     		mov	r0, r4
 519 00fe FFF7FEFF 		bl	lv_event_send
 520              	.LVL53:
 521              	.L5:
 415:lvgl/lvgl/src/widgets/lv_slider.c **** 
 522              		.loc 1 415 1 is_stmt 0 view .LVU172
 523 0102 31B0     		add	sp, sp, #196
 524              	.LCFI3:
 525              		.cfi_remember_state
 526              		.cfi_def_cfa_offset 36
 527              		@ sp needed
 528 0104 BDE8F08F 		pop	{r4, r5, r6, r7, r8, r9, r10, fp, pc}
 529              	.LVL54:
 530              	.L35:
 531              	.LCFI4:
 532              		.cfi_restore_state
 331:lvgl/lvgl/src/widgets/lv_slider.c ****     bool sym = false;
 533              		.loc 1 331 16 view .LVU173
 534 0108 0196     		str	r6, [sp, #4]
 535 010a 9CE7     		b	.L6
 536              	.LVL55:
 537              	.L41:
 333:lvgl/lvgl/src/widgets/lv_slider.c **** 
 538              		.loc 1 333 66 discriminator 1 view .LVU174
 539 010c A36A     		ldr	r3, [r4, #40]
 333:lvgl/lvgl/src/widgets/lv_slider.c **** 
 540              		.loc 1 333 52 discriminator 1 view .LVU175
 541 010e 002B     		cmp	r3, #0
 542 0110 01DB     		blt	.L44
 332:lvgl/lvgl/src/widgets/lv_slider.c ****     if(slider->bar.mode == LV_BAR_MODE_SYMMETRICAL && slider->bar.min_value < 0 && slider->bar.max_
 543              		.loc 1 332 10 view .LVU176
 544 0112 0023     		movs	r3, #0
 545 0114 9EE7     		b	.L7
 546              	.L44:
 333:lvgl/lvgl/src/widgets/lv_slider.c **** 
 547              		.loc 1 333 95 discriminator 2 view .LVU177
 548 0116 E36A     		ldr	r3, [r4, #44]
 333:lvgl/lvgl/src/widgets/lv_slider.c **** 
 549              		.loc 1 333 81 discriminator 2 view .LVU178
 550 0118 002B     		cmp	r3, #0
 551 011a 01DD     		ble	.L45
 333:lvgl/lvgl/src/widgets/lv_slider.c **** 
 552              		.loc 1 333 115 view .LVU179
 553 011c 0123     		movs	r3, #1
 554 011e 99E7     		b	.L7
 555              	.L45:
 332:lvgl/lvgl/src/widgets/lv_slider.c ****     if(slider->bar.mode == LV_BAR_MODE_SYMMETRICAL && slider->bar.min_value < 0 && slider->bar.max_
 556              		.loc 1 332 10 view .LVU180
 557 0120 0023     		movs	r3, #0
ARM GAS  C:\Users\gx\AppData\Local\Temp\ccCs6Xqg.s 			page 29


 558 0122 97E7     		b	.L7
 559              	.LVL56:
 560              	.L42:
 340:lvgl/lvgl/src/widgets/lv_slider.c ****         }
 561              		.loc 1 340 26 discriminator 3 view .LVU181
 562 0124 B4F93430 		ldrsh	r3, [r4, #52]
 563              	.LVL57:
 340:lvgl/lvgl/src/widgets/lv_slider.c ****         }
 564              		.loc 1 340 26 discriminator 3 view .LVU182
 565 0128 A0E7     		b	.L12
 566              	.LVL58:
 567              	.L10:
 340:lvgl/lvgl/src/widgets/lv_slider.c ****         }
 568              		.loc 1 340 26 discriminator 2 view .LVU183
 569 012a B9F1010F 		cmp	r9, #1
 570 012e 02D0     		beq	.L46
 340:lvgl/lvgl/src/widgets/lv_slider.c ****         }
 571              		.loc 1 340 26 discriminator 9 view .LVU184
 572 0130 B4F93A30 		ldrsh	r3, [r4, #58]
 573              	.LVL59:
 340:lvgl/lvgl/src/widgets/lv_slider.c ****         }
 574              		.loc 1 340 26 discriminator 9 view .LVU185
 575 0134 9AE7     		b	.L12
 576              	.LVL60:
 577              	.L46:
 340:lvgl/lvgl/src/widgets/lv_slider.c ****         }
 578              		.loc 1 340 26 discriminator 8 view .LVU186
 579 0136 B4F93630 		ldrsh	r3, [r4, #54]
 580              	.LVL61:
 340:lvgl/lvgl/src/widgets/lv_slider.c ****         }
 581              		.loc 1 340 26 discriminator 8 view .LVU187
 582 013a 97E7     		b	.L12
 583              	.LVL62:
 584              	.L9:
 343:lvgl/lvgl/src/widgets/lv_slider.c ****                 knob_area.x1 = LV_SLIDER_KNOB_COORD(hor, base_dir == LV_BASE_DIR_RTL, slider->bar.i
 585              		.loc 1 343 13 is_stmt 1 view .LVU188
 343:lvgl/lvgl/src/widgets/lv_slider.c ****                 knob_area.x1 = LV_SLIDER_KNOB_COORD(hor, base_dir == LV_BASE_DIR_RTL, slider->bar.i
 586              		.loc 1 343 27 is_stmt 0 view .LVU189
 587 013c 636A     		ldr	r3, [r4, #36]
 588              	.LVL63:
 343:lvgl/lvgl/src/widgets/lv_slider.c ****                 knob_area.x1 = LV_SLIDER_KNOB_COORD(hor, base_dir == LV_BASE_DIR_RTL, slider->bar.i
 589              		.loc 1 343 15 view .LVU190
 590 013e 002B     		cmp	r3, #0
 591 0140 15DB     		blt	.L15
 344:lvgl/lvgl/src/widgets/lv_slider.c ****             }
 592              		.loc 1 344 17 is_stmt 1 view .LVU191
 344:lvgl/lvgl/src/widgets/lv_slider.c ****             }
 593              		.loc 1 344 30 is_stmt 0 view .LVU192
 594 0142 AE42     		cmp	r6, r5
 595 0144 0ADB     		blt	.L16
 344:lvgl/lvgl/src/widgets/lv_slider.c ****             }
 596              		.loc 1 344 30 discriminator 1 view .LVU193
 597 0146 B9F1010F 		cmp	r9, #1
 598 014a 04D0     		beq	.L47
 344:lvgl/lvgl/src/widgets/lv_slider.c ****             }
 599              		.loc 1 344 30 discriminator 4 view .LVU194
 600 014c B4F93830 		ldrsh	r3, [r4, #56]
ARM GAS  C:\Users\gx\AppData\Local\Temp\ccCs6Xqg.s 			page 30


 601              	.L18:
 344:lvgl/lvgl/src/widgets/lv_slider.c ****             }
 602              		.loc 1 344 30 discriminator 12 view .LVU195
 603 0150 ADF8B830 		strh	r3, [sp, #184]	@ movhi
 604 0154 8CE7     		b	.L14
 605              	.L47:
 344:lvgl/lvgl/src/widgets/lv_slider.c ****             }
 606              		.loc 1 344 30 discriminator 3 view .LVU196
 607 0156 B4F93430 		ldrsh	r3, [r4, #52]
 608 015a F9E7     		b	.L18
 609              	.L16:
 344:lvgl/lvgl/src/widgets/lv_slider.c ****             }
 610              		.loc 1 344 30 discriminator 2 view .LVU197
 611 015c B9F1010F 		cmp	r9, #1
 612 0160 02D0     		beq	.L48
 344:lvgl/lvgl/src/widgets/lv_slider.c ****             }
 613              		.loc 1 344 30 discriminator 9 view .LVU198
 614 0162 B4F93A30 		ldrsh	r3, [r4, #58]
 615 0166 F3E7     		b	.L18
 616              	.L48:
 344:lvgl/lvgl/src/widgets/lv_slider.c ****             }
 617              		.loc 1 344 30 discriminator 8 view .LVU199
 618 0168 B4F93630 		ldrsh	r3, [r4, #54]
 619 016c F0E7     		b	.L18
 620              	.L15:
 347:lvgl/lvgl/src/widgets/lv_slider.c ****             }
 621              		.loc 1 347 17 is_stmt 1 view .LVU200
 347:lvgl/lvgl/src/widgets/lv_slider.c ****             }
 622              		.loc 1 347 30 is_stmt 0 view .LVU201
 623 016e AE42     		cmp	r6, r5
 624 0170 0ADB     		blt	.L20
 347:lvgl/lvgl/src/widgets/lv_slider.c ****             }
 625              		.loc 1 347 30 discriminator 1 view .LVU202
 626 0172 B9F1010F 		cmp	r9, #1
 627 0176 04D0     		beq	.L21
 347:lvgl/lvgl/src/widgets/lv_slider.c ****             }
 628              		.loc 1 347 30 discriminator 3 view .LVU203
 629 0178 B4F93430 		ldrsh	r3, [r4, #52]
 630              	.L22:
 347:lvgl/lvgl/src/widgets/lv_slider.c ****             }
 631              		.loc 1 347 30 discriminator 12 view .LVU204
 632 017c ADF8B830 		strh	r3, [sp, #184]	@ movhi
 633 0180 76E7     		b	.L14
 634              	.L21:
 347:lvgl/lvgl/src/widgets/lv_slider.c ****             }
 635              		.loc 1 347 30 discriminator 4 view .LVU205
 636 0182 B4F93830 		ldrsh	r3, [r4, #56]
 637 0186 F9E7     		b	.L22
 638              	.L20:
 347:lvgl/lvgl/src/widgets/lv_slider.c ****             }
 639              		.loc 1 347 30 discriminator 2 view .LVU206
 640 0188 B9F1010F 		cmp	r9, #1
 641 018c 02D0     		beq	.L23
 347:lvgl/lvgl/src/widgets/lv_slider.c ****             }
 642              		.loc 1 347 30 discriminator 8 view .LVU207
 643 018e B4F93630 		ldrsh	r3, [r4, #54]
 644 0192 F3E7     		b	.L22
ARM GAS  C:\Users\gx\AppData\Local\Temp\ccCs6Xqg.s 			page 31


 645              	.L23:
 347:lvgl/lvgl/src/widgets/lv_slider.c ****             }
 646              		.loc 1 347 30 discriminator 9 view .LVU208
 647 0194 B4F93A30 		ldrsh	r3, [r4, #58]
 648 0198 F0E7     		b	.L22
 649              	.LVL64:
 650              	.L8:
 353:lvgl/lvgl/src/widgets/lv_slider.c ****             knob_area.y1 = slider->bar.indic_area.y1;
 651              		.loc 1 353 9 is_stmt 1 view .LVU209
 353:lvgl/lvgl/src/widgets/lv_slider.c ****             knob_area.y1 = slider->bar.indic_area.y1;
 652              		.loc 1 353 11 is_stmt 0 view .LVU210
 653 019a 23B9     		cbnz	r3, .L24
 354:lvgl/lvgl/src/widgets/lv_slider.c ****         }
 654              		.loc 1 354 13 is_stmt 1 view .LVU211
 354:lvgl/lvgl/src/widgets/lv_slider.c ****         }
 655              		.loc 1 354 50 is_stmt 0 view .LVU212
 656 019c B4F93630 		ldrsh	r3, [r4, #54]
 657              	.LVL65:
 354:lvgl/lvgl/src/widgets/lv_slider.c ****         }
 658              		.loc 1 354 26 view .LVU213
 659 01a0 ADF8BA30 		strh	r3, [sp, #186]	@ movhi
 660 01a4 64E7     		b	.L14
 661              	.LVL66:
 662              	.L24:
 357:lvgl/lvgl/src/widgets/lv_slider.c ****                 knob_area.y1 = slider->bar.indic_area.y1;
 663              		.loc 1 357 13 is_stmt 1 view .LVU214
 357:lvgl/lvgl/src/widgets/lv_slider.c ****                 knob_area.y1 = slider->bar.indic_area.y1;
 664              		.loc 1 357 27 is_stmt 0 view .LVU215
 665 01a6 636A     		ldr	r3, [r4, #36]
 666              	.LVL67:
 357:lvgl/lvgl/src/widgets/lv_slider.c ****                 knob_area.y1 = slider->bar.indic_area.y1;
 667              		.loc 1 357 15 view .LVU216
 668 01a8 002B     		cmp	r3, #0
 669 01aa 04DB     		blt	.L25
 358:lvgl/lvgl/src/widgets/lv_slider.c ****             }
 670              		.loc 1 358 17 is_stmt 1 view .LVU217
 358:lvgl/lvgl/src/widgets/lv_slider.c ****             }
 671              		.loc 1 358 54 is_stmt 0 view .LVU218
 672 01ac B4F93630 		ldrsh	r3, [r4, #54]
 358:lvgl/lvgl/src/widgets/lv_slider.c ****             }
 673              		.loc 1 358 30 view .LVU219
 674 01b0 ADF8BA30 		strh	r3, [sp, #186]	@ movhi
 675 01b4 5CE7     		b	.L14
 676              	.L25:
 361:lvgl/lvgl/src/widgets/lv_slider.c ****             }
 677              		.loc 1 361 17 is_stmt 1 view .LVU220
 361:lvgl/lvgl/src/widgets/lv_slider.c ****             }
 678              		.loc 1 361 54 is_stmt 0 view .LVU221
 679 01b6 B4F93A30 		ldrsh	r3, [r4, #58]
 361:lvgl/lvgl/src/widgets/lv_slider.c ****             }
 680              		.loc 1 361 30 view .LVU222
 681 01ba ADF8BA30 		strh	r3, [sp, #186]	@ movhi
 682 01be 57E7     		b	.L14
 683              	.LVL68:
 684              	.L43:
 685              	.LBB97:
 388:lvgl/lvgl/src/widgets/lv_slider.c ****         lv_memcpy(&knob_rect_dsc_tmp, &knob_rect_dsc, sizeof(lv_draw_rect_dsc_t));
ARM GAS  C:\Users\gx\AppData\Local\Temp\ccCs6Xqg.s 			page 32


 686              		.loc 1 388 9 is_stmt 1 view .LVU223
 389:lvgl/lvgl/src/widgets/lv_slider.c **** 
 687              		.loc 1 389 9 view .LVU224
 688 01c0 3422     		movs	r2, #52
 689 01c2 21A9     		add	r1, sp, #132
 690 01c4 03A8     		add	r0, sp, #12
 691 01c6 FFF7FEFF 		bl	lv_memcpy
 692              	.LVL69:
 391:lvgl/lvgl/src/widgets/lv_slider.c ****         lv_draw_rect(&slider->right_knob_area, clip_area, &knob_rect_dsc);
 693              		.loc 1 391 9 view .LVU225
 694 01ca 10AA     		add	r2, sp, #64
 695 01cc 1A21     		movs	r1, #26
 696 01ce 2046     		mov	r0, r4
 697 01d0 FFF7FEFF 		bl	lv_event_send
 698              	.LVL70:
 392:lvgl/lvgl/src/widgets/lv_slider.c ****         lv_event_send(obj, LV_EVENT_DRAW_PART_END, &part_draw_dsc);
 699              		.loc 1 392 9 view .LVU226
 700 01d4 21AA     		add	r2, sp, #132
 701 01d6 3946     		mov	r1, r7
 702 01d8 5046     		mov	r0, r10
 703 01da FFF7FEFF 		bl	lv_draw_rect
 704              	.LVL71:
 393:lvgl/lvgl/src/widgets/lv_slider.c **** 
 705              		.loc 1 393 9 view .LVU227
 706 01de 10AA     		add	r2, sp, #64
 707 01e0 1B21     		movs	r1, #27
 708 01e2 2046     		mov	r0, r4
 709 01e4 FFF7FEFF 		bl	lv_event_send
 710              	.LVL72:
 396:lvgl/lvgl/src/widgets/lv_slider.c ****             knob_area.x1 = LV_SLIDER_KNOB_COORD(hor, base_dir != LV_BASE_DIR_RTL, slider->bar.indic
 711              		.loc 1 396 9 view .LVU228
 396:lvgl/lvgl/src/widgets/lv_slider.c ****             knob_area.x1 = LV_SLIDER_KNOB_COORD(hor, base_dir != LV_BASE_DIR_RTL, slider->bar.indic
 712              		.loc 1 396 11 is_stmt 0 view .LVU229
 713 01e8 AE42     		cmp	r6, r5
 714 01ea 04DA     		bge	.L27
 400:lvgl/lvgl/src/widgets/lv_slider.c ****         }
 715              		.loc 1 400 13 is_stmt 1 view .LVU230
 400:lvgl/lvgl/src/widgets/lv_slider.c ****         }
 716              		.loc 1 400 50 is_stmt 0 view .LVU231
 717 01ec B4F93A30 		ldrsh	r3, [r4, #58]
 400:lvgl/lvgl/src/widgets/lv_slider.c ****         }
 718              		.loc 1 400 26 view .LVU232
 719 01f0 ADF8BA30 		strh	r3, [sp, #186]	@ movhi
 720 01f4 08E0     		b	.L34
 721              	.L27:
 397:lvgl/lvgl/src/widgets/lv_slider.c ****         }
 722              		.loc 1 397 13 is_stmt 1 view .LVU233
 397:lvgl/lvgl/src/widgets/lv_slider.c ****         }
 723              		.loc 1 397 26 is_stmt 0 view .LVU234
 724 01f6 AE42     		cmp	r6, r5
 725 01f8 3CDB     		blt	.L30
 397:lvgl/lvgl/src/widgets/lv_slider.c ****         }
 726              		.loc 1 397 26 discriminator 1 view .LVU235
 727 01fa B9F1010F 		cmp	r9, #1
 728 01fe 36D0     		beq	.L31
 397:lvgl/lvgl/src/widgets/lv_slider.c ****         }
 729              		.loc 1 397 26 discriminator 3 view .LVU236
ARM GAS  C:\Users\gx\AppData\Local\Temp\ccCs6Xqg.s 			page 33


 730 0200 B4F93430 		ldrsh	r3, [r4, #52]
 731              	.L32:
 397:lvgl/lvgl/src/widgets/lv_slider.c ****         }
 732              		.loc 1 397 26 discriminator 12 view .LVU237
 733 0204 ADF8B830 		strh	r3, [sp, #184]	@ movhi
 734              	.L34:
 402:lvgl/lvgl/src/widgets/lv_slider.c ****         lv_area_copy(&slider->left_knob_area, &knob_area);
 735              		.loc 1 402 9 is_stmt 1 view .LVU238
 736 0208 5B46     		mov	r3, fp
 737 020a 019A     		ldr	r2, [sp, #4]
 738 020c 2EA9     		add	r1, sp, #184
 739 020e 2046     		mov	r0, r4
 740 0210 FFF7FEFF 		bl	position_knob
 741              	.LVL73:
 403:lvgl/lvgl/src/widgets/lv_slider.c **** 
 742              		.loc 1 403 9 view .LVU239
 743 0214 04F16006 		add	r6, r4, #96
 744              	.LVL74:
 745              	.LBB98:
 746              	.LBI98:
 120:d:\practise\f407_disc\lvgl\lvgl\src\misc\lv_area.h **** {
 747              		.loc 3 120 20 view .LVU240
 748              	.LBB99:
 122:d:\practise\f407_disc\lvgl\lvgl\src\misc\lv_area.h ****     dest->y1 = src->y1;
 749              		.loc 3 122 5 view .LVU241
 122:d:\practise\f407_disc\lvgl\lvgl\src\misc\lv_area.h ****     dest->y1 = src->y1;
 750              		.loc 3 122 19 is_stmt 0 view .LVU242
 751 0218 BDF9B830 		ldrsh	r3, [sp, #184]
 122:d:\practise\f407_disc\lvgl\lvgl\src\misc\lv_area.h ****     dest->y1 = src->y1;
 752              		.loc 3 122 14 view .LVU243
 753 021c A4F86030 		strh	r3, [r4, #96]	@ movhi
 123:d:\practise\f407_disc\lvgl\lvgl\src\misc\lv_area.h ****     dest->x2 = src->x2;
 754              		.loc 3 123 5 is_stmt 1 view .LVU244
 123:d:\practise\f407_disc\lvgl\lvgl\src\misc\lv_area.h ****     dest->x2 = src->x2;
 755              		.loc 3 123 19 is_stmt 0 view .LVU245
 756 0220 BDF9BA30 		ldrsh	r3, [sp, #186]
 123:d:\practise\f407_disc\lvgl\lvgl\src\misc\lv_area.h ****     dest->x2 = src->x2;
 757              		.loc 3 123 14 view .LVU246
 758 0224 A4F86230 		strh	r3, [r4, #98]	@ movhi
 124:d:\practise\f407_disc\lvgl\lvgl\src\misc\lv_area.h ****     dest->y2 = src->y2;
 759              		.loc 3 124 5 is_stmt 1 view .LVU247
 124:d:\practise\f407_disc\lvgl\lvgl\src\misc\lv_area.h ****     dest->y2 = src->y2;
 760              		.loc 3 124 19 is_stmt 0 view .LVU248
 761 0228 BDF9BC30 		ldrsh	r3, [sp, #188]
 124:d:\practise\f407_disc\lvgl\lvgl\src\misc\lv_area.h ****     dest->y2 = src->y2;
 762              		.loc 3 124 14 view .LVU249
 763 022c A4F86430 		strh	r3, [r4, #100]	@ movhi
 764              		.loc 3 125 5 is_stmt 1 view .LVU250
 765              		.loc 3 125 19 is_stmt 0 view .LVU251
 766 0230 BDF9BE30 		ldrsh	r3, [sp, #190]
 767              		.loc 3 125 14 view .LVU252
 768 0234 A4F86630 		strh	r3, [r4, #102]	@ movhi
 769              	.LVL75:
 770              		.loc 3 125 14 view .LVU253
 771              	.LBE99:
 772              	.LBE98:
 405:lvgl/lvgl/src/widgets/lv_slider.c ****         part_draw_dsc.type = LV_SLIDER_DRAW_PART_KNOB_LEFT;
ARM GAS  C:\Users\gx\AppData\Local\Temp\ccCs6Xqg.s 			page 34


 773              		.loc 1 405 9 is_stmt 1 view .LVU254
 774 0238 21AD     		add	r5, sp, #132
 775 023a 3422     		movs	r2, #52
 776 023c 03A9     		add	r1, sp, #12
 777 023e 2846     		mov	r0, r5
 778 0240 FFF7FEFF 		bl	lv_memcpy
 779              	.LVL76:
 406:lvgl/lvgl/src/widgets/lv_slider.c ****         part_draw_dsc.draw_area = &slider->left_knob_area;
 780              		.loc 1 406 9 view .LVU255
 406:lvgl/lvgl/src/widgets/lv_slider.c ****         part_draw_dsc.draw_area = &slider->left_knob_area;
 781              		.loc 1 406 28 is_stmt 0 view .LVU256
 782 0244 0123     		movs	r3, #1
 783 0246 1293     		str	r3, [sp, #72]
 407:lvgl/lvgl/src/widgets/lv_slider.c ****         part_draw_dsc.rect_dsc = &knob_rect_dsc;
 784              		.loc 1 407 9 is_stmt 1 view .LVU257
 407:lvgl/lvgl/src/widgets/lv_slider.c ****         part_draw_dsc.rect_dsc = &knob_rect_dsc;
 785              		.loc 1 407 33 is_stmt 0 view .LVU258
 786 0248 1396     		str	r6, [sp, #76]
 408:lvgl/lvgl/src/widgets/lv_slider.c ****         part_draw_dsc.id = 1;
 787              		.loc 1 408 9 is_stmt 1 view .LVU259
 408:lvgl/lvgl/src/widgets/lv_slider.c ****         part_draw_dsc.id = 1;
 788              		.loc 1 408 32 is_stmt 0 view .LVU260
 789 024a 1495     		str	r5, [sp, #80]
 409:lvgl/lvgl/src/widgets/lv_slider.c **** 
 790              		.loc 1 409 9 is_stmt 1 view .LVU261
 409:lvgl/lvgl/src/widgets/lv_slider.c **** 
 791              		.loc 1 409 26 is_stmt 0 view .LVU262
 792 024c 1D93     		str	r3, [sp, #116]
 411:lvgl/lvgl/src/widgets/lv_slider.c ****         lv_draw_rect(&slider->left_knob_area, clip_area, &knob_rect_dsc);
 793              		.loc 1 411 9 is_stmt 1 view .LVU263
 794 024e 10AA     		add	r2, sp, #64
 795 0250 1A21     		movs	r1, #26
 796 0252 2046     		mov	r0, r4
 797 0254 FFF7FEFF 		bl	lv_event_send
 798              	.LVL77:
 412:lvgl/lvgl/src/widgets/lv_slider.c ****         lv_event_send(obj, LV_EVENT_DRAW_PART_END, &part_draw_dsc);
 799              		.loc 1 412 9 view .LVU264
 800 0258 2A46     		mov	r2, r5
 801 025a 3946     		mov	r1, r7
 802 025c 3046     		mov	r0, r6
 803 025e FFF7FEFF 		bl	lv_draw_rect
 804              	.LVL78:
 413:lvgl/lvgl/src/widgets/lv_slider.c ****     }
 805              		.loc 1 413 9 view .LVU265
 806 0262 10AA     		add	r2, sp, #64
 807 0264 1B21     		movs	r1, #27
 808 0266 2046     		mov	r0, r4
 809 0268 FFF7FEFF 		bl	lv_event_send
 810              	.LVL79:
 811              	.LBE97:
 415:lvgl/lvgl/src/widgets/lv_slider.c **** 
 812              		.loc 1 415 1 is_stmt 0 view .LVU266
 813 026c 49E7     		b	.L5
 814              	.LVL80:
 815              	.L31:
 816              	.LBB100:
 397:lvgl/lvgl/src/widgets/lv_slider.c ****         }
ARM GAS  C:\Users\gx\AppData\Local\Temp\ccCs6Xqg.s 			page 35


 817              		.loc 1 397 26 discriminator 4 view .LVU267
 818 026e B4F93830 		ldrsh	r3, [r4, #56]
 819 0272 C7E7     		b	.L32
 820              	.L30:
 397:lvgl/lvgl/src/widgets/lv_slider.c ****         }
 821              		.loc 1 397 26 discriminator 2 view .LVU268
 822 0274 B9F1010F 		cmp	r9, #1
 823 0278 02D0     		beq	.L33
 397:lvgl/lvgl/src/widgets/lv_slider.c ****         }
 824              		.loc 1 397 26 discriminator 8 view .LVU269
 825 027a B4F93630 		ldrsh	r3, [r4, #54]
 826 027e C1E7     		b	.L32
 827              	.L33:
 397:lvgl/lvgl/src/widgets/lv_slider.c ****         }
 828              		.loc 1 397 26 discriminator 9 view .LVU270
 829 0280 B4F93A30 		ldrsh	r3, [r4, #58]
 830 0284 BEE7     		b	.L32
 831              	.L50:
 832 0286 00BF     		.align	2
 833              	.L49:
 834 0288 00000000 		.word	.LANCHOR0
 835              	.LBE100:
 836              		.cfi_endproc
 837              	.LFE171:
 839              		.section	.text.lv_slider_event,"ax",%progbits
 840              		.align	1
 841              		.syntax unified
 842              		.thumb
 843              		.thumb_func
 844              		.fpu fpv4-sp-d16
 846              	lv_slider_event:
 847              	.LVL81:
 848              	.LFB170:
  95:lvgl/lvgl/src/widgets/lv_slider.c ****     LV_UNUSED(class_p);
 849              		.loc 1 95 1 is_stmt 1 view -0
 850              		.cfi_startproc
 851              		@ args = 0, pretend = 0, frame = 24
 852              		@ frame_needed = 0, uses_anonymous_args = 0
  95:lvgl/lvgl/src/widgets/lv_slider.c ****     LV_UNUSED(class_p);
 853              		.loc 1 95 1 is_stmt 0 view .LVU272
 854 0000 2DE9F04F 		push	{r4, r5, r6, r7, r8, r9, r10, fp, lr}
 855              	.LCFI5:
 856              		.cfi_def_cfa_offset 36
 857              		.cfi_offset 4, -36
 858              		.cfi_offset 5, -32
 859              		.cfi_offset 6, -28
 860              		.cfi_offset 7, -24
 861              		.cfi_offset 8, -20
 862              		.cfi_offset 9, -16
 863              		.cfi_offset 10, -12
 864              		.cfi_offset 11, -8
 865              		.cfi_offset 14, -4
 866 0004 87B0     		sub	sp, sp, #28
 867              	.LCFI6:
 868              		.cfi_def_cfa_offset 64
 869 0006 0C46     		mov	r4, r1
  96:lvgl/lvgl/src/widgets/lv_slider.c **** 
ARM GAS  C:\Users\gx\AppData\Local\Temp\ccCs6Xqg.s 			page 36


 870              		.loc 1 96 5 is_stmt 1 view .LVU273
  98:lvgl/lvgl/src/widgets/lv_slider.c **** 
 871              		.loc 1 98 5 view .LVU274
 101:lvgl/lvgl/src/widgets/lv_slider.c ****     if(res != LV_RES_OK) return;
 872              		.loc 1 101 5 view .LVU275
 101:lvgl/lvgl/src/widgets/lv_slider.c ****     if(res != LV_RES_OK) return;
 873              		.loc 1 101 11 is_stmt 0 view .LVU276
 874 0008 D048     		ldr	r0, .L114
 875              	.LVL82:
 101:lvgl/lvgl/src/widgets/lv_slider.c ****     if(res != LV_RES_OK) return;
 876              		.loc 1 101 11 view .LVU277
 877 000a FFF7FEFF 		bl	lv_obj_event_base
 878              	.LVL83:
 102:lvgl/lvgl/src/widgets/lv_slider.c **** 
 879              		.loc 1 102 5 is_stmt 1 view .LVU278
 102:lvgl/lvgl/src/widgets/lv_slider.c **** 
 880              		.loc 1 102 7 is_stmt 0 view .LVU279
 881 000e 0128     		cmp	r0, #1
 882 0010 02D0     		beq	.L100
 883              	.LVL84:
 884              	.L51:
 319:lvgl/lvgl/src/widgets/lv_slider.c **** 
 885              		.loc 1 319 1 view .LVU280
 886 0012 07B0     		add	sp, sp, #28
 887              	.LCFI7:
 888              		.cfi_remember_state
 889              		.cfi_def_cfa_offset 36
 890              		@ sp needed
 891 0014 BDE8F08F 		pop	{r4, r5, r6, r7, r8, r9, r10, fp, pc}
 892              	.LVL85:
 893              	.L100:
 894              	.LCFI8:
 895              		.cfi_restore_state
 104:lvgl/lvgl/src/widgets/lv_slider.c ****     lv_obj_t * obj = lv_event_get_target(e);
 896              		.loc 1 104 5 is_stmt 1 view .LVU281
 104:lvgl/lvgl/src/widgets/lv_slider.c ****     lv_obj_t * obj = lv_event_get_target(e);
 897              		.loc 1 104 28 is_stmt 0 view .LVU282
 898 0018 2046     		mov	r0, r4
 899              	.LVL86:
 104:lvgl/lvgl/src/widgets/lv_slider.c ****     lv_obj_t * obj = lv_event_get_target(e);
 900              		.loc 1 104 28 view .LVU283
 901 001a FFF7FEFF 		bl	lv_event_get_code
 902              	.LVL87:
 903 001e 0646     		mov	r6, r0
 904              	.LVL88:
 105:lvgl/lvgl/src/widgets/lv_slider.c ****     lv_slider_t * slider = (lv_slider_t *)obj;
 905              		.loc 1 105 5 is_stmt 1 view .LVU284
 105:lvgl/lvgl/src/widgets/lv_slider.c ****     lv_slider_t * slider = (lv_slider_t *)obj;
 906              		.loc 1 105 22 is_stmt 0 view .LVU285
 907 0020 2046     		mov	r0, r4
 908 0022 FFF7FEFF 		bl	lv_event_get_target
 909              	.LVL89:
 910 0026 0546     		mov	r5, r0
 911              	.LVL90:
 106:lvgl/lvgl/src/widgets/lv_slider.c ****     lv_slider_mode_t type = lv_slider_get_mode(obj);
 912              		.loc 1 106 5 is_stmt 1 view .LVU286
 107:lvgl/lvgl/src/widgets/lv_slider.c **** 
ARM GAS  C:\Users\gx\AppData\Local\Temp\ccCs6Xqg.s 			page 37


 913              		.loc 1 107 5 view .LVU287
 914              	.LBB101:
 915              	.LBI101:
 177:lvgl/lvgl/src/widgets/lv_slider.h **** {
 916              		.loc 4 177 32 view .LVU288
 917              	.LBB102:
 179:lvgl/lvgl/src/widgets/lv_slider.h ****     if(mode == LV_BAR_MODE_SYMMETRICAL) return LV_SLIDER_MODE_SYMMETRICAL;
 918              		.loc 4 179 5 view .LVU289
 179:lvgl/lvgl/src/widgets/lv_slider.h ****     if(mode == LV_BAR_MODE_SYMMETRICAL) return LV_SLIDER_MODE_SYMMETRICAL;
 919              		.loc 4 179 26 is_stmt 0 view .LVU290
 920 0028 FFF7FEFF 		bl	lv_bar_get_mode
 921              	.LVL91:
 179:lvgl/lvgl/src/widgets/lv_slider.h ****     if(mode == LV_BAR_MODE_SYMMETRICAL) return LV_SLIDER_MODE_SYMMETRICAL;
 922              		.loc 4 179 26 view .LVU291
 923 002c 0746     		mov	r7, r0
 924              	.LVL92:
 180:lvgl/lvgl/src/widgets/lv_slider.h ****     else if(mode == LV_BAR_MODE_RANGE) return LV_SLIDER_MODE_RANGE;
 925              		.loc 4 180 5 is_stmt 1 view .LVU292
 180:lvgl/lvgl/src/widgets/lv_slider.h ****     else if(mode == LV_BAR_MODE_RANGE) return LV_SLIDER_MODE_RANGE;
 926              		.loc 4 180 7 is_stmt 0 view .LVU293
 927 002e 0128     		cmp	r0, #1
 928 0030 02D0     		beq	.L53
 929              		.loc 4 181 10 is_stmt 1 view .LVU294
 930              		.loc 4 181 12 is_stmt 0 view .LVU295
 931 0032 0228     		cmp	r0, #2
 932 0034 00D0     		beq	.L53
 182:lvgl/lvgl/src/widgets/lv_slider.h ****     else return LV_SLIDER_MODE_NORMAL;
 933              		.loc 4 182 17 view .LVU296
 934 0036 0027     		movs	r7, #0
 935              	.L53:
 936              	.LVL93:
 937              		.loc 4 182 17 view .LVU297
 938              	.LBE102:
 939              	.LBE101:
 110:lvgl/lvgl/src/widgets/lv_slider.c ****         lv_hit_test_info_t * info = lv_event_get_param(e);
 940              		.loc 1 110 5 is_stmt 1 view .LVU298
 110:lvgl/lvgl/src/widgets/lv_slider.c ****         lv_hit_test_info_t * info = lv_event_get_param(e);
 941              		.loc 1 110 7 is_stmt 0 view .LVU299
 942 0038 112E     		cmp	r6, #17
 943 003a 1CD0     		beq	.L101
 121:lvgl/lvgl/src/widgets/lv_slider.c ****         lv_obj_invalidate(obj);
 944              		.loc 1 121 10 is_stmt 1 view .LVU300
 121:lvgl/lvgl/src/widgets/lv_slider.c ****         lv_obj_invalidate(obj);
 945              		.loc 1 121 12 is_stmt 0 view .LVU301
 946 003c 012E     		cmp	r6, #1
 947 003e 31D0     		beq	.L102
 185:lvgl/lvgl/src/widgets/lv_slider.c ****         lv_indev_t * indev = lv_indev_get_act();
 948              		.loc 1 185 10 is_stmt 1 view .LVU302
 185:lvgl/lvgl/src/widgets/lv_slider.c ****         lv_indev_t * indev = lv_indev_get_act();
 949              		.loc 1 185 12 is_stmt 0 view .LVU303
 950 0040 022E     		cmp	r6, #2
 951 0042 00F0F280 		beq	.L103
 952              	.L69:
 243:lvgl/lvgl/src/widgets/lv_slider.c ****         slider->dragging = false;
 953              		.loc 1 243 10 is_stmt 1 view .LVU304
 243:lvgl/lvgl/src/widgets/lv_slider.c ****         slider->dragging = false;
 954              		.loc 1 243 12 is_stmt 0 view .LVU305
ARM GAS  C:\Users\gx\AppData\Local\Temp\ccCs6Xqg.s 			page 38


 955 0046 082E     		cmp	r6, #8
 956 0048 00F08281 		beq	.L79
 243:lvgl/lvgl/src/widgets/lv_slider.c ****         slider->dragging = false;
 957              		.loc 1 243 39 discriminator 1 view .LVU306
 958 004c 032E     		cmp	r6, #3
 959 004e 00F07F81 		beq	.L79
 269:lvgl/lvgl/src/widgets/lv_slider.c ****         lv_indev_type_t indev_type = lv_indev_get_type(lv_indev_get_act());
 960              		.loc 1 269 10 is_stmt 1 view .LVU307
 269:lvgl/lvgl/src/widgets/lv_slider.c ****         lv_indev_type_t indev_type = lv_indev_get_type(lv_indev_get_act());
 961              		.loc 1 269 12 is_stmt 0 view .LVU308
 962 0052 0E2E     		cmp	r6, #14
 963 0054 00F0B981 		beq	.L104
 275:lvgl/lvgl/src/widgets/lv_slider.c ****         lv_obj_refresh_ext_draw_size(obj);
 964              		.loc 1 275 10 is_stmt 1 view .LVU309
 275:lvgl/lvgl/src/widgets/lv_slider.c ****         lv_obj_refresh_ext_draw_size(obj);
 965              		.loc 1 275 12 is_stmt 0 view .LVU310
 966 0058 232E     		cmp	r6, #35
 967 005a 00F0C681 		beq	.L105
 278:lvgl/lvgl/src/widgets/lv_slider.c ****         lv_coord_t knob_left = lv_obj_get_style_pad_left(obj, LV_PART_KNOB);
 968              		.loc 1 278 10 is_stmt 1 view .LVU311
 278:lvgl/lvgl/src/widgets/lv_slider.c ****         lv_coord_t knob_left = lv_obj_get_style_pad_left(obj, LV_PART_KNOB);
 969              		.loc 1 278 12 is_stmt 0 view .LVU312
 970 005e 132E     		cmp	r6, #19
 971 0060 00F0C781 		beq	.L106
 299:lvgl/lvgl/src/widgets/lv_slider.c ****         char c = *((char *)lv_event_get_param(e));
 972              		.loc 1 299 10 is_stmt 1 view .LVU313
 299:lvgl/lvgl/src/widgets/lv_slider.c ****         char c = *((char *)lv_event_get_param(e));
 973              		.loc 1 299 12 is_stmt 0 view .LVU314
 974 0064 0D2E     		cmp	r6, #13
 975 0066 00F04682 		beq	.L107
 316:lvgl/lvgl/src/widgets/lv_slider.c ****         draw_knob(e);
 976              		.loc 1 316 12 is_stmt 1 view .LVU315
 316:lvgl/lvgl/src/widgets/lv_slider.c ****         draw_knob(e);
 977              		.loc 1 316 14 is_stmt 0 view .LVU316
 978 006a 152E     		cmp	r6, #21
 979 006c D1D1     		bne	.L51
 317:lvgl/lvgl/src/widgets/lv_slider.c ****     }
 980              		.loc 1 317 9 is_stmt 1 view .LVU317
 981 006e 2046     		mov	r0, r4
 982 0070 FFF7FEFF 		bl	draw_knob
 983              	.LVL94:
 984 0074 CDE7     		b	.L51
 985              	.L101:
 986              	.LBB103:
 111:lvgl/lvgl/src/widgets/lv_slider.c **** 
 987              		.loc 1 111 9 view .LVU318
 111:lvgl/lvgl/src/widgets/lv_slider.c **** 
 988              		.loc 1 111 37 is_stmt 0 view .LVU319
 989 0076 2046     		mov	r0, r4
 990 0078 FFF7FEFF 		bl	lv_event_get_param
 991              	.LVL95:
 992 007c 0446     		mov	r4, r0
 993              	.LVL96:
 114:lvgl/lvgl/src/widgets/lv_slider.c **** 
 994              		.loc 1 114 9 is_stmt 1 view .LVU320
 114:lvgl/lvgl/src/widgets/lv_slider.c **** 
 995              		.loc 1 114 21 is_stmt 0 view .LVU321
ARM GAS  C:\Users\gx\AppData\Local\Temp\ccCs6Xqg.s 			page 39


 996 007e 0022     		movs	r2, #0
 997 0080 0168     		ldr	r1, [r0]
 998 0082 05F16800 		add	r0, r5, #104
 999              	.LVL97:
 114:lvgl/lvgl/src/widgets/lv_slider.c **** 
 1000              		.loc 1 114 21 view .LVU322
 1001 0086 FFF7FEFF 		bl	_lv_area_is_point_on
 1002              	.LVL98:
 114:lvgl/lvgl/src/widgets/lv_slider.c **** 
 1003              		.loc 1 114 19 view .LVU323
 1004 008a 2071     		strb	r0, [r4, #4]
 117:lvgl/lvgl/src/widgets/lv_slider.c ****             info->res = _lv_area_is_point_on(&slider->left_knob_area, info->point, 0);
 1005              		.loc 1 117 9 is_stmt 1 view .LVU324
 117:lvgl/lvgl/src/widgets/lv_slider.c ****             info->res = _lv_area_is_point_on(&slider->left_knob_area, info->point, 0);
 1006              		.loc 1 117 11 is_stmt 0 view .LVU325
 1007 008c 0028     		cmp	r0, #0
 1008 008e C0D1     		bne	.L51
 117:lvgl/lvgl/src/widgets/lv_slider.c ****             info->res = _lv_area_is_point_on(&slider->left_knob_area, info->point, 0);
 1009              		.loc 1 117 33 discriminator 1 view .LVU326
 1010 0090 022F     		cmp	r7, #2
 1011 0092 BED1     		bne	.L51
 118:lvgl/lvgl/src/widgets/lv_slider.c ****         }
 1012              		.loc 1 118 13 is_stmt 1 view .LVU327
 118:lvgl/lvgl/src/widgets/lv_slider.c ****         }
 1013              		.loc 1 118 25 is_stmt 0 view .LVU328
 1014 0094 0022     		movs	r2, #0
 1015 0096 2168     		ldr	r1, [r4]
 1016 0098 05F16000 		add	r0, r5, #96
 1017 009c FFF7FEFF 		bl	_lv_area_is_point_on
 1018              	.LVL99:
 118:lvgl/lvgl/src/widgets/lv_slider.c ****         }
 1019              		.loc 1 118 23 view .LVU329
 1020 00a0 2071     		strb	r0, [r4, #4]
 1021 00a2 B6E7     		b	.L51
 1022              	.LVL100:
 1023              	.L102:
 118:lvgl/lvgl/src/widgets/lv_slider.c ****         }
 1024              		.loc 1 118 23 view .LVU330
 1025              	.LBE103:
 1026              	.LBB104:
 122:lvgl/lvgl/src/widgets/lv_slider.c **** 
 1027              		.loc 1 122 9 is_stmt 1 view .LVU331
 1028 00a4 2846     		mov	r0, r5
 1029 00a6 FFF7FEFF 		bl	lv_obj_invalidate
 1030              	.LVL101:
 124:lvgl/lvgl/src/widgets/lv_slider.c ****         slider->dragging = true;
 1031              		.loc 1 124 9 view .LVU332
 125:lvgl/lvgl/src/widgets/lv_slider.c ****         if(type == LV_SLIDER_MODE_NORMAL || type == LV_SLIDER_MODE_SYMMETRICAL) {
 1032              		.loc 1 125 9 view .LVU333
 125:lvgl/lvgl/src/widgets/lv_slider.c ****         if(type == LV_SLIDER_MODE_NORMAL || type == LV_SLIDER_MODE_SYMMETRICAL) {
 1033              		.loc 1 125 26 is_stmt 0 view .LVU334
 1034 00aa 95F87430 		ldrb	r3, [r5, #116]	@ zero_extendqisi2
 1035 00ae 43F00103 		orr	r3, r3, #1
 1036 00b2 85F87430 		strb	r3, [r5, #116]
 126:lvgl/lvgl/src/widgets/lv_slider.c ****             slider->value_to_set = &slider->bar.cur_value;
 1037              		.loc 1 126 9 is_stmt 1 view .LVU335
 126:lvgl/lvgl/src/widgets/lv_slider.c ****             slider->value_to_set = &slider->bar.cur_value;
ARM GAS  C:\Users\gx\AppData\Local\Temp\ccCs6Xqg.s 			page 40


 1038              		.loc 1 126 11 is_stmt 0 view .LVU336
 1039 00b6 012F     		cmp	r7, #1
 1040 00b8 55D9     		bls	.L108
 129:lvgl/lvgl/src/widgets/lv_slider.c ****             lv_indev_get_point(lv_indev_get_act(), &p);
 1041              		.loc 1 129 14 is_stmt 1 view .LVU337
 129:lvgl/lvgl/src/widgets/lv_slider.c ****             lv_indev_get_point(lv_indev_get_act(), &p);
 1042              		.loc 1 129 16 is_stmt 0 view .LVU338
 1043 00ba 022F     		cmp	r7, #2
 1044 00bc A9D1     		bne	.L51
 1045              	.LBB105:
 130:lvgl/lvgl/src/widgets/lv_slider.c ****             bool hor = lv_obj_get_width(obj) >= lv_obj_get_height(obj);
 1046              		.loc 1 130 13 is_stmt 1 view .LVU339
 130:lvgl/lvgl/src/widgets/lv_slider.c ****             bool hor = lv_obj_get_width(obj) >= lv_obj_get_height(obj);
 1047              		.loc 1 130 32 is_stmt 0 view .LVU340
 1048 00be FFF7FEFF 		bl	lv_indev_get_act
 1049              	.LVL102:
 130:lvgl/lvgl/src/widgets/lv_slider.c ****             bool hor = lv_obj_get_width(obj) >= lv_obj_get_height(obj);
 1050              		.loc 1 130 13 view .LVU341
 1051 00c2 05A9     		add	r1, sp, #20
 1052 00c4 FFF7FEFF 		bl	lv_indev_get_point
 1053              	.LVL103:
 131:lvgl/lvgl/src/widgets/lv_slider.c ****             lv_base_dir_t base_dir = lv_obj_get_style_base_dir(obj, LV_PART_MAIN);
 1054              		.loc 1 131 13 is_stmt 1 view .LVU342
 131:lvgl/lvgl/src/widgets/lv_slider.c ****             lv_base_dir_t base_dir = lv_obj_get_style_base_dir(obj, LV_PART_MAIN);
 1055              		.loc 1 131 24 is_stmt 0 view .LVU343
 1056 00c8 2846     		mov	r0, r5
 1057 00ca FFF7FEFF 		bl	lv_obj_get_width
 1058              	.LVL104:
 1059 00ce 0646     		mov	r6, r0
 1060              	.LVL105:
 131:lvgl/lvgl/src/widgets/lv_slider.c ****             lv_base_dir_t base_dir = lv_obj_get_style_base_dir(obj, LV_PART_MAIN);
 1061              		.loc 1 131 49 view .LVU344
 1062 00d0 2846     		mov	r0, r5
 1063 00d2 FFF7FEFF 		bl	lv_obj_get_height
 1064              	.LVL106:
 1065 00d6 0446     		mov	r4, r0
 1066              	.LVL107:
 132:lvgl/lvgl/src/widgets/lv_slider.c **** 
 1067              		.loc 1 132 13 is_stmt 1 view .LVU345
 1068              	.LBB106:
 1069              	.LBI106:
 187:lvgl/lvgl/src/widgets/../core/lv_obj_style_gen.h **** {
 1070              		.loc 2 187 29 view .LVU346
 1071              	.LBB107:
 189:lvgl/lvgl/src/widgets/../core/lv_obj_style_gen.h ****     return (lv_base_dir_t)v.num;
 1072              		.loc 2 189 5 view .LVU347
 189:lvgl/lvgl/src/widgets/../core/lv_obj_style_gen.h ****     return (lv_base_dir_t)v.num;
 1073              		.loc 2 189 26 is_stmt 0 view .LVU348
 1074 00d8 41F26A42 		movw	r2, #5226
 1075 00dc 0021     		movs	r1, #0
 1076 00de 2846     		mov	r0, r5
 1077 00e0 FFF7FEFF 		bl	lv_obj_get_style_prop
 1078              	.LVL108:
 1079              		.loc 2 190 5 is_stmt 1 view .LVU349
 1080              		.loc 2 190 12 is_stmt 0 view .LVU350
 1081 00e4 C3B2     		uxtb	r3, r0
 1082              	.LVL109:
ARM GAS  C:\Users\gx\AppData\Local\Temp\ccCs6Xqg.s 			page 41


 1083              		.loc 2 190 12 view .LVU351
 1084              	.LBE107:
 1085              	.LBE106:
 134:lvgl/lvgl/src/widgets/lv_slider.c ****             if(hor) {
 1086              		.loc 1 134 13 is_stmt 1 view .LVU352
 135:lvgl/lvgl/src/widgets/lv_slider.c ****                 if((base_dir != LV_BASE_DIR_RTL && p.x > slider->right_knob_area.x2) || (base_dir =
 1087              		.loc 1 135 13 view .LVU353
 135:lvgl/lvgl/src/widgets/lv_slider.c ****                 if((base_dir != LV_BASE_DIR_RTL && p.x > slider->right_knob_area.x2) || (base_dir =
 1088              		.loc 1 135 15 is_stmt 0 view .LVU354
 1089 00e6 A642     		cmp	r6, r4
 1090 00e8 5FDB     		blt	.L58
 136:lvgl/lvgl/src/widgets/lv_slider.c ****                                                                                       p.x < slider-
 1091              		.loc 1 136 17 is_stmt 1 view .LVU355
 136:lvgl/lvgl/src/widgets/lv_slider.c ****                                                                                       p.x < slider-
 1092              		.loc 1 136 19 is_stmt 0 view .LVU356
 1093 00ea 012B     		cmp	r3, #1
 1094 00ec 05D0     		beq	.L59
 136:lvgl/lvgl/src/widgets/lv_slider.c ****                                                                                       p.x < slider-
 1095              		.loc 1 136 53 discriminator 1 view .LVU357
 1096 00ee BDF91410 		ldrsh	r1, [sp, #20]
 136:lvgl/lvgl/src/widgets/lv_slider.c ****                                                                                       p.x < slider-
 1097              		.loc 1 136 81 discriminator 1 view .LVU358
 1098 00f2 B5F96C20 		ldrsh	r2, [r5, #108]
 136:lvgl/lvgl/src/widgets/lv_slider.c ****                                                                                       p.x < slider-
 1099              		.loc 1 136 49 discriminator 1 view .LVU359
 1100 00f6 9142     		cmp	r1, r2
 1101 00f8 3FDC     		bgt	.L60
 1102              	.L59:
 136:lvgl/lvgl/src/widgets/lv_slider.c ****                                                                                       p.x < slider-
 1103              		.loc 1 136 86 discriminator 3 view .LVU360
 1104 00fa 012B     		cmp	r3, #1
 1105 00fc 37D0     		beq	.L109
 1106              	.L61:
 140:lvgl/lvgl/src/widgets/lv_slider.c ****                                                                                           p.x > sli
 1107              		.loc 1 140 22 is_stmt 1 view .LVU361
 140:lvgl/lvgl/src/widgets/lv_slider.c ****                                                                                           p.x > sli
 1108              		.loc 1 140 24 is_stmt 0 view .LVU362
 1109 00fe 012B     		cmp	r3, #1
 1110 0100 05D0     		beq	.L62
 140:lvgl/lvgl/src/widgets/lv_slider.c ****                                                                                           p.x > sli
 1111              		.loc 1 140 58 discriminator 1 view .LVU363
 1112 0102 BDF91410 		ldrsh	r1, [sp, #20]
 140:lvgl/lvgl/src/widgets/lv_slider.c ****                                                                                           p.x > sli
 1113              		.loc 1 140 85 discriminator 1 view .LVU364
 1114 0106 B5F96020 		ldrsh	r2, [r5, #96]
 140:lvgl/lvgl/src/widgets/lv_slider.c ****                                                                                           p.x > sli
 1115              		.loc 1 140 54 discriminator 1 view .LVU365
 1116 010a 9142     		cmp	r1, r2
 1117 010c 3FDB     		blt	.L63
 1118              	.L62:
 140:lvgl/lvgl/src/widgets/lv_slider.c ****                                                                                           p.x > sli
 1119              		.loc 1 140 90 discriminator 3 view .LVU366
 1120 010e 012B     		cmp	r3, #1
 1121 0110 37D0     		beq	.L110
 1122              	.LVL110:
 1123              	.L64:
 146:lvgl/lvgl/src/widgets/lv_slider.c ****                     dist_right = LV_ABS((slider->right_knob_area.x1 + (slider->right_knob_area.x2 -
ARM GAS  C:\Users\gx\AppData\Local\Temp\ccCs6Xqg.s 			page 42


 1124              		.loc 1 146 21 is_stmt 1 view .LVU367
 146:lvgl/lvgl/src/widgets/lv_slider.c ****                     dist_right = LV_ABS((slider->right_knob_area.x1 + (slider->right_knob_area.x2 -
 1125              		.loc 1 146 33 is_stmt 0 view .LVU368
 1126 0112 B5F96030 		ldrsh	r3, [r5, #96]
 1127 0116 B5F96420 		ldrsh	r2, [r5, #100]
 1128 011a D21A     		subs	r2, r2, r3
 1129 011c 02EBD272 		add	r2, r2, r2, lsr #31
 1130 0120 03EB6202 		add	r2, r3, r2, asr #1
 1131 0124 BDF91400 		ldrsh	r0, [sp, #20]
 1132              	.LVL111:
 146:lvgl/lvgl/src/widgets/lv_slider.c ****                     dist_right = LV_ABS((slider->right_knob_area.x1 + (slider->right_knob_area.x2 -
 1133              		.loc 1 146 33 view .LVU369
 1134 0128 121A     		subs	r2, r2, r0
 1135 012a 002A     		cmp	r2, #0
 1136 012c B8BF     		it	lt
 1137 012e 5242     		rsblt	r2, r2, #0
 146:lvgl/lvgl/src/widgets/lv_slider.c ****                     dist_right = LV_ABS((slider->right_knob_area.x1 + (slider->right_knob_area.x2 -
 1138              		.loc 1 146 31 view .LVU370
 1139 0130 12B2     		sxth	r2, r2
 1140              	.LVL112:
 147:lvgl/lvgl/src/widgets/lv_slider.c **** 
 1141              		.loc 1 147 21 is_stmt 1 view .LVU371
 147:lvgl/lvgl/src/widgets/lv_slider.c **** 
 1142              		.loc 1 147 34 is_stmt 0 view .LVU372
 1143 0132 B5F96830 		ldrsh	r3, [r5, #104]
 1144 0136 B5F96C10 		ldrsh	r1, [r5, #108]
 1145 013a C91A     		subs	r1, r1, r3
 1146 013c 01EBD171 		add	r1, r1, r1, lsr #31
 1147 0140 03EB6103 		add	r3, r3, r1, asr #1
 1148 0144 1B1A     		subs	r3, r3, r0
 1149 0146 002B     		cmp	r3, #0
 1150 0148 B8BF     		it	lt
 1151 014a 5B42     		rsblt	r3, r3, #0
 147:lvgl/lvgl/src/widgets/lv_slider.c **** 
 1152              		.loc 1 147 32 view .LVU373
 1153 014c 1BB2     		sxth	r3, r3
 1154              	.LVL113:
 150:lvgl/lvgl/src/widgets/lv_slider.c ****                         slider->value_to_set = &slider->bar.cur_value;
 1155              		.loc 1 150 21 is_stmt 1 view .LVU374
 150:lvgl/lvgl/src/widgets/lv_slider.c ****                         slider->value_to_set = &slider->bar.cur_value;
 1156              		.loc 1 150 23 is_stmt 0 view .LVU375
 1157 014e 9A42     		cmp	r2, r3
 1158 0150 21DD     		ble	.L65
 151:lvgl/lvgl/src/widgets/lv_slider.c ****                         slider->left_knob_focus = 0;
 1159              		.loc 1 151 25 is_stmt 1 view .LVU376
 151:lvgl/lvgl/src/widgets/lv_slider.c ****                         slider->left_knob_focus = 0;
 1160              		.loc 1 151 48 is_stmt 0 view .LVU377
 1161 0152 05F12403 		add	r3, r5, #36
 1162              	.LVL114:
 151:lvgl/lvgl/src/widgets/lv_slider.c ****                         slider->left_knob_focus = 0;
 1163              		.loc 1 151 46 view .LVU378
 1164 0156 2B67     		str	r3, [r5, #112]
 152:lvgl/lvgl/src/widgets/lv_slider.c ****                     }
 1165              		.loc 1 152 25 is_stmt 1 view .LVU379
 152:lvgl/lvgl/src/widgets/lv_slider.c ****                     }
 1166              		.loc 1 152 49 is_stmt 0 view .LVU380
 1167 0158 95F87430 		ldrb	r3, [r5, #116]	@ zero_extendqisi2
ARM GAS  C:\Users\gx\AppData\Local\Temp\ccCs6Xqg.s 			page 43


 1168 015c 6FF34103 		bfc	r3, #1, #1
 1169 0160 85F87430 		strb	r3, [r5, #116]
 1170 0164 55E7     		b	.L51
 1171              	.LVL115:
 1172              	.L108:
 152:lvgl/lvgl/src/widgets/lv_slider.c ****                     }
 1173              		.loc 1 152 49 view .LVU381
 1174              	.LBE105:
 127:lvgl/lvgl/src/widgets/lv_slider.c ****         }
 1175              		.loc 1 127 13 is_stmt 1 view .LVU382
 127:lvgl/lvgl/src/widgets/lv_slider.c ****         }
 1176              		.loc 1 127 36 is_stmt 0 view .LVU383
 1177 0166 05F12403 		add	r3, r5, #36
 127:lvgl/lvgl/src/widgets/lv_slider.c ****         }
 1178              		.loc 1 127 34 view .LVU384
 1179 016a 2B67     		str	r3, [r5, #112]
 1180 016c 51E7     		b	.L51
 1181              	.LVL116:
 1182              	.L109:
 1183              	.LBB108:
 137:lvgl/lvgl/src/widgets/lv_slider.c ****                     slider->value_to_set = &slider->bar.cur_value;
 1184              		.loc 1 137 88 discriminator 4 view .LVU385
 1185 016e BDF91410 		ldrsh	r1, [sp, #20]
 137:lvgl/lvgl/src/widgets/lv_slider.c ****                     slider->value_to_set = &slider->bar.cur_value;
 1186              		.loc 1 137 116 discriminator 4 view .LVU386
 1187 0172 B5F96820 		ldrsh	r2, [r5, #104]
 136:lvgl/lvgl/src/widgets/lv_slider.c ****                                                                                       p.x < slider-
 1188              		.loc 1 136 118 discriminator 4 view .LVU387
 1189 0176 9142     		cmp	r1, r2
 1190 0178 C1DA     		bge	.L61
 1191              	.L60:
 138:lvgl/lvgl/src/widgets/lv_slider.c ****                 }
 1192              		.loc 1 138 21 is_stmt 1 view .LVU388
 138:lvgl/lvgl/src/widgets/lv_slider.c ****                 }
 1193              		.loc 1 138 44 is_stmt 0 view .LVU389
 1194 017a 05F12403 		add	r3, r5, #36
 1195              	.LVL117:
 138:lvgl/lvgl/src/widgets/lv_slider.c ****                 }
 1196              		.loc 1 138 42 view .LVU390
 1197 017e 2B67     		str	r3, [r5, #112]
 1198 0180 47E7     		b	.L51
 1199              	.LVL118:
 1200              	.L110:
 141:lvgl/lvgl/src/widgets/lv_slider.c ****                     slider->value_to_set = &slider->bar.start_value;
 1201              		.loc 1 141 92 discriminator 4 view .LVU391
 1202 0182 BDF91420 		ldrsh	r2, [sp, #20]
 141:lvgl/lvgl/src/widgets/lv_slider.c ****                     slider->value_to_set = &slider->bar.start_value;
 1203              		.loc 1 141 119 discriminator 4 view .LVU392
 1204 0186 B5F96430 		ldrsh	r3, [r5, #100]
 1205              	.LVL119:
 140:lvgl/lvgl/src/widgets/lv_slider.c ****                                                                                           p.x > sli
 1206              		.loc 1 140 122 discriminator 4 view .LVU393
 1207 018a 9A42     		cmp	r2, r3
 1208 018c C1DD     		ble	.L64
 1209              	.L63:
 142:lvgl/lvgl/src/widgets/lv_slider.c ****                 }
 1210              		.loc 1 142 21 is_stmt 1 view .LVU394
ARM GAS  C:\Users\gx\AppData\Local\Temp\ccCs6Xqg.s 			page 44


 142:lvgl/lvgl/src/widgets/lv_slider.c ****                 }
 1211              		.loc 1 142 44 is_stmt 0 view .LVU395
 1212 018e 05F13003 		add	r3, r5, #48
 142:lvgl/lvgl/src/widgets/lv_slider.c ****                 }
 1213              		.loc 1 142 42 view .LVU396
 1214 0192 2B67     		str	r3, [r5, #112]
 1215 0194 3DE7     		b	.L51
 1216              	.LVL120:
 1217              	.L65:
 155:lvgl/lvgl/src/widgets/lv_slider.c ****                         slider->left_knob_focus = 1;
 1218              		.loc 1 155 25 is_stmt 1 view .LVU397
 155:lvgl/lvgl/src/widgets/lv_slider.c ****                         slider->left_knob_focus = 1;
 1219              		.loc 1 155 48 is_stmt 0 view .LVU398
 1220 0196 05F13003 		add	r3, r5, #48
 1221              	.LVL121:
 155:lvgl/lvgl/src/widgets/lv_slider.c ****                         slider->left_knob_focus = 1;
 1222              		.loc 1 155 46 view .LVU399
 1223 019a 2B67     		str	r3, [r5, #112]
 156:lvgl/lvgl/src/widgets/lv_slider.c ****                     }
 1224              		.loc 1 156 25 is_stmt 1 view .LVU400
 156:lvgl/lvgl/src/widgets/lv_slider.c ****                     }
 1225              		.loc 1 156 49 is_stmt 0 view .LVU401
 1226 019c 95F87430 		ldrb	r3, [r5, #116]	@ zero_extendqisi2
 1227 01a0 43F00203 		orr	r3, r3, #2
 1228 01a4 85F87430 		strb	r3, [r5, #116]
 1229 01a8 33E7     		b	.L51
 1230              	.LVL122:
 1231              	.L58:
 161:lvgl/lvgl/src/widgets/lv_slider.c ****                     slider->value_to_set = &slider->bar.cur_value;
 1232              		.loc 1 161 17 is_stmt 1 view .LVU402
 161:lvgl/lvgl/src/widgets/lv_slider.c ****                     slider->value_to_set = &slider->bar.cur_value;
 1233              		.loc 1 161 21 is_stmt 0 view .LVU403
 1234 01aa BDF91610 		ldrsh	r1, [sp, #22]
 161:lvgl/lvgl/src/widgets/lv_slider.c ****                     slider->value_to_set = &slider->bar.cur_value;
 1235              		.loc 1 161 49 view .LVU404
 1236 01ae B5F96A30 		ldrsh	r3, [r5, #106]
 1237              	.LVL123:
 161:lvgl/lvgl/src/widgets/lv_slider.c ****                     slider->value_to_set = &slider->bar.cur_value;
 1238              		.loc 1 161 19 view .LVU405
 1239 01b2 9942     		cmp	r1, r3
 1240 01b4 03DA     		bge	.L66
 162:lvgl/lvgl/src/widgets/lv_slider.c ****                 }
 1241              		.loc 1 162 21 is_stmt 1 view .LVU406
 162:lvgl/lvgl/src/widgets/lv_slider.c ****                 }
 1242              		.loc 1 162 44 is_stmt 0 view .LVU407
 1243 01b6 05F12403 		add	r3, r5, #36
 162:lvgl/lvgl/src/widgets/lv_slider.c ****                 }
 1244              		.loc 1 162 42 view .LVU408
 1245 01ba 2B67     		str	r3, [r5, #112]
 1246 01bc 29E7     		b	.L51
 1247              	.L66:
 164:lvgl/lvgl/src/widgets/lv_slider.c ****                     slider->value_to_set = &slider->bar.start_value;
 1248              		.loc 1 164 22 is_stmt 1 view .LVU409
 164:lvgl/lvgl/src/widgets/lv_slider.c ****                     slider->value_to_set = &slider->bar.start_value;
 1249              		.loc 1 164 53 is_stmt 0 view .LVU410
 1250 01be B5F96600 		ldrsh	r0, [r5, #102]
 1251              	.LVL124:
ARM GAS  C:\Users\gx\AppData\Local\Temp\ccCs6Xqg.s 			page 45


 164:lvgl/lvgl/src/widgets/lv_slider.c ****                     slider->value_to_set = &slider->bar.start_value;
 1252              		.loc 1 164 24 view .LVU411
 1253 01c2 8142     		cmp	r1, r0
 1254 01c4 03DD     		ble	.L67
 165:lvgl/lvgl/src/widgets/lv_slider.c ****                 }
 1255              		.loc 1 165 21 is_stmt 1 view .LVU412
 165:lvgl/lvgl/src/widgets/lv_slider.c ****                 }
 1256              		.loc 1 165 44 is_stmt 0 view .LVU413
 1257 01c6 05F13003 		add	r3, r5, #48
 165:lvgl/lvgl/src/widgets/lv_slider.c ****                 }
 1258              		.loc 1 165 42 view .LVU414
 1259 01ca 2B67     		str	r3, [r5, #112]
 1260 01cc 21E7     		b	.L51
 1261              	.L67:
 169:lvgl/lvgl/src/widgets/lv_slider.c ****                     dist_right = LV_ABS((slider->right_knob_area.y1 + (slider->right_knob_area.y2 -
 1262              		.loc 1 169 21 is_stmt 1 view .LVU415
 169:lvgl/lvgl/src/widgets/lv_slider.c ****                     dist_right = LV_ABS((slider->right_knob_area.y1 + (slider->right_knob_area.y2 -
 1263              		.loc 1 169 33 is_stmt 0 view .LVU416
 1264 01ce B5F96220 		ldrsh	r2, [r5, #98]
 1265 01d2 801A     		subs	r0, r0, r2
 1266 01d4 00EBD070 		add	r0, r0, r0, lsr #31
 1267 01d8 02EB6002 		add	r2, r2, r0, asr #1
 1268 01dc 521A     		subs	r2, r2, r1
 1269 01de 002A     		cmp	r2, #0
 1270 01e0 B8BF     		it	lt
 1271 01e2 5242     		rsblt	r2, r2, #0
 169:lvgl/lvgl/src/widgets/lv_slider.c ****                     dist_right = LV_ABS((slider->right_knob_area.y1 + (slider->right_knob_area.y2 -
 1272              		.loc 1 169 31 view .LVU417
 1273 01e4 12B2     		sxth	r2, r2
 1274              	.LVL125:
 170:lvgl/lvgl/src/widgets/lv_slider.c **** 
 1275              		.loc 1 170 21 is_stmt 1 view .LVU418
 170:lvgl/lvgl/src/widgets/lv_slider.c **** 
 1276              		.loc 1 170 34 is_stmt 0 view .LVU419
 1277 01e6 B5F96E00 		ldrsh	r0, [r5, #110]
 1278 01ea C01A     		subs	r0, r0, r3
 1279 01ec 00EBD070 		add	r0, r0, r0, lsr #31
 1280 01f0 03EB6003 		add	r3, r3, r0, asr #1
 1281 01f4 5B1A     		subs	r3, r3, r1
 1282 01f6 002B     		cmp	r3, #0
 1283 01f8 B8BF     		it	lt
 1284 01fa 5B42     		rsblt	r3, r3, #0
 170:lvgl/lvgl/src/widgets/lv_slider.c **** 
 1285              		.loc 1 170 32 view .LVU420
 1286 01fc 1BB2     		sxth	r3, r3
 1287              	.LVL126:
 173:lvgl/lvgl/src/widgets/lv_slider.c ****                         slider->value_to_set = &slider->bar.cur_value;
 1288              		.loc 1 173 21 is_stmt 1 view .LVU421
 173:lvgl/lvgl/src/widgets/lv_slider.c ****                         slider->value_to_set = &slider->bar.cur_value;
 1289              		.loc 1 173 23 is_stmt 0 view .LVU422
 1290 01fe 9A42     		cmp	r2, r3
 1291 0200 09DD     		ble	.L68
 174:lvgl/lvgl/src/widgets/lv_slider.c ****                         slider->left_knob_focus = 0;
 1292              		.loc 1 174 25 is_stmt 1 view .LVU423
 174:lvgl/lvgl/src/widgets/lv_slider.c ****                         slider->left_knob_focus = 0;
 1293              		.loc 1 174 48 is_stmt 0 view .LVU424
 1294 0202 05F12403 		add	r3, r5, #36
ARM GAS  C:\Users\gx\AppData\Local\Temp\ccCs6Xqg.s 			page 46


 1295              	.LVL127:
 174:lvgl/lvgl/src/widgets/lv_slider.c ****                         slider->left_knob_focus = 0;
 1296              		.loc 1 174 46 view .LVU425
 1297 0206 2B67     		str	r3, [r5, #112]
 175:lvgl/lvgl/src/widgets/lv_slider.c ****                     }
 1298              		.loc 1 175 25 is_stmt 1 view .LVU426
 175:lvgl/lvgl/src/widgets/lv_slider.c ****                     }
 1299              		.loc 1 175 49 is_stmt 0 view .LVU427
 1300 0208 95F87430 		ldrb	r3, [r5, #116]	@ zero_extendqisi2
 1301 020c 6FF34103 		bfc	r3, #1, #1
 1302 0210 85F87430 		strb	r3, [r5, #116]
 1303 0214 FDE6     		b	.L51
 1304              	.LVL128:
 1305              	.L68:
 178:lvgl/lvgl/src/widgets/lv_slider.c ****                         slider->left_knob_focus = 1;
 1306              		.loc 1 178 25 is_stmt 1 view .LVU428
 178:lvgl/lvgl/src/widgets/lv_slider.c ****                         slider->left_knob_focus = 1;
 1307              		.loc 1 178 48 is_stmt 0 view .LVU429
 1308 0216 05F13003 		add	r3, r5, #48
 1309              	.LVL129:
 178:lvgl/lvgl/src/widgets/lv_slider.c ****                         slider->left_knob_focus = 1;
 1310              		.loc 1 178 46 view .LVU430
 1311 021a 2B67     		str	r3, [r5, #112]
 179:lvgl/lvgl/src/widgets/lv_slider.c ****                     }
 1312              		.loc 1 179 25 is_stmt 1 view .LVU431
 179:lvgl/lvgl/src/widgets/lv_slider.c ****                     }
 1313              		.loc 1 179 49 is_stmt 0 view .LVU432
 1314 021c 95F87430 		ldrb	r3, [r5, #116]	@ zero_extendqisi2
 1315 0220 43F00203 		orr	r3, r3, #2
 1316 0224 85F87430 		strb	r3, [r5, #116]
 1317 0228 F3E6     		b	.L51
 1318              	.LVL130:
 1319              	.L103:
 179:lvgl/lvgl/src/widgets/lv_slider.c ****                     }
 1320              		.loc 1 179 49 view .LVU433
 1321              	.LBE108:
 1322              	.LBE104:
 185:lvgl/lvgl/src/widgets/lv_slider.c ****         lv_indev_t * indev = lv_indev_get_act();
 1323              		.loc 1 185 48 discriminator 1 view .LVU434
 1324 022a 2B6F     		ldr	r3, [r5, #112]
 185:lvgl/lvgl/src/widgets/lv_slider.c ****         lv_indev_t * indev = lv_indev_get_act();
 1325              		.loc 1 185 39 discriminator 1 view .LVU435
 1326 022c 002B     		cmp	r3, #0
 1327 022e 3FF40AAF 		beq	.L69
 1328              	.LBB109:
 186:lvgl/lvgl/src/widgets/lv_slider.c ****         if(lv_indev_get_type(indev) != LV_INDEV_TYPE_POINTER) return;
 1329              		.loc 1 186 9 is_stmt 1 view .LVU436
 186:lvgl/lvgl/src/widgets/lv_slider.c ****         if(lv_indev_get_type(indev) != LV_INDEV_TYPE_POINTER) return;
 1330              		.loc 1 186 30 is_stmt 0 view .LVU437
 1331 0232 FFF7FEFF 		bl	lv_indev_get_act
 1332              	.LVL131:
 1333 0236 0446     		mov	r4, r0
 1334              	.LVL132:
 187:lvgl/lvgl/src/widgets/lv_slider.c **** 
 1335              		.loc 1 187 9 is_stmt 1 view .LVU438
 187:lvgl/lvgl/src/widgets/lv_slider.c **** 
 1336              		.loc 1 187 12 is_stmt 0 view .LVU439
ARM GAS  C:\Users\gx\AppData\Local\Temp\ccCs6Xqg.s 			page 47


 1337 0238 FFF7FEFF 		bl	lv_indev_get_type
 1338              	.LVL133:
 187:lvgl/lvgl/src/widgets/lv_slider.c **** 
 1339              		.loc 1 187 11 view .LVU440
 1340 023c 0128     		cmp	r0, #1
 1341 023e 7FF4E8AE 		bne	.L51
 189:lvgl/lvgl/src/widgets/lv_slider.c ****         lv_indev_get_point(indev, &p);
 1342              		.loc 1 189 9 is_stmt 1 view .LVU441
 190:lvgl/lvgl/src/widgets/lv_slider.c ****         lv_base_dir_t base_dir = lv_obj_get_style_base_dir(obj, LV_PART_MAIN);
 1343              		.loc 1 190 9 view .LVU442
 1344 0242 05A9     		add	r1, sp, #20
 1345 0244 2046     		mov	r0, r4
 1346 0246 FFF7FEFF 		bl	lv_indev_get_point
 1347              	.LVL134:
 191:lvgl/lvgl/src/widgets/lv_slider.c **** 
 1348              		.loc 1 191 9 view .LVU443
 1349              	.LBB110:
 1350              	.LBI110:
 187:lvgl/lvgl/src/widgets/../core/lv_obj_style_gen.h **** {
 1351              		.loc 2 187 29 view .LVU444
 1352              	.LBB111:
 189:lvgl/lvgl/src/widgets/../core/lv_obj_style_gen.h ****     return (lv_base_dir_t)v.num;
 1353              		.loc 2 189 5 view .LVU445
 189:lvgl/lvgl/src/widgets/../core/lv_obj_style_gen.h ****     return (lv_base_dir_t)v.num;
 1354              		.loc 2 189 26 is_stmt 0 view .LVU446
 1355 024a 41F26A42 		movw	r2, #5226
 1356 024e 0021     		movs	r1, #0
 1357 0250 2846     		mov	r0, r5
 1358 0252 FFF7FEFF 		bl	lv_obj_get_style_prop
 1359              	.LVL135:
 1360              		.loc 2 190 5 is_stmt 1 view .LVU447
 1361              		.loc 2 190 12 is_stmt 0 view .LVU448
 1362 0256 5FFA80F9 		uxtb	r9, r0
 1363              	.LVL136:
 1364              		.loc 2 190 12 view .LVU449
 1365              	.LBE111:
 1366              	.LBE110:
 193:lvgl/lvgl/src/widgets/lv_slider.c ****         lv_coord_t h = lv_obj_get_height(obj);
 1367              		.loc 1 193 9 is_stmt 1 view .LVU450
 193:lvgl/lvgl/src/widgets/lv_slider.c ****         lv_coord_t h = lv_obj_get_height(obj);
 1368              		.loc 1 193 24 is_stmt 0 view .LVU451
 1369 025a 2846     		mov	r0, r5
 1370 025c FFF7FEFF 		bl	lv_obj_get_width
 1371              	.LVL137:
 1372 0260 0646     		mov	r6, r0
 1373              	.LVL138:
 194:lvgl/lvgl/src/widgets/lv_slider.c **** 
 1374              		.loc 1 194 9 is_stmt 1 view .LVU452
 194:lvgl/lvgl/src/widgets/lv_slider.c **** 
 1375              		.loc 1 194 24 is_stmt 0 view .LVU453
 1376 0262 2846     		mov	r0, r5
 1377 0264 FFF7FEFF 		bl	lv_obj_get_height
 1378              	.LVL139:
 1379 0268 0446     		mov	r4, r0
 1380              	.LVL140:
 196:lvgl/lvgl/src/widgets/lv_slider.c ****         lv_coord_t bg_right = lv_obj_get_style_pad_right(obj,  LV_PART_MAIN);
 1381              		.loc 1 196 9 is_stmt 1 view .LVU454
ARM GAS  C:\Users\gx\AppData\Local\Temp\ccCs6Xqg.s 			page 48


 1382              	.LBB112:
 1383              	.LBI112:
 103:lvgl/lvgl/src/widgets/../core/lv_obj_style_gen.h **** {
 1384              		.loc 2 103 26 view .LVU455
 1385              	.LBB113:
 105:lvgl/lvgl/src/widgets/../core/lv_obj_style_gen.h ****     return (lv_coord_t)v.num;
 1386              		.loc 2 105 5 view .LVU456
 105:lvgl/lvgl/src/widgets/../core/lv_obj_style_gen.h ****     return (lv_coord_t)v.num;
 1387              		.loc 2 105 26 is_stmt 0 view .LVU457
 1388 026a 41F21202 		movw	r2, #4114
 1389 026e 0021     		movs	r1, #0
 1390 0270 2846     		mov	r0, r5
 1391 0272 FFF7FEFF 		bl	lv_obj_get_style_prop
 1392              	.LVL141:
 1393 0276 8046     		mov	r8, r0
 106:lvgl/lvgl/src/widgets/../core/lv_obj_style_gen.h **** }
 1394              		.loc 2 106 5 is_stmt 1 view .LVU458
 106:lvgl/lvgl/src/widgets/../core/lv_obj_style_gen.h **** }
 1395              		.loc 2 106 12 is_stmt 0 view .LVU459
 1396 0278 0FFA80FA 		sxth	r10, r0
 1397              	.LVL142:
 106:lvgl/lvgl/src/widgets/../core/lv_obj_style_gen.h **** }
 1398              		.loc 2 106 12 view .LVU460
 1399              	.LBE113:
 1400              	.LBE112:
 197:lvgl/lvgl/src/widgets/lv_slider.c ****         lv_coord_t bg_top = lv_obj_get_style_pad_top(obj,    LV_PART_MAIN);
 1401              		.loc 1 197 9 is_stmt 1 view .LVU461
 1402              	.LBB114:
 1403              	.LBI114:
 109:lvgl/lvgl/src/widgets/../core/lv_obj_style_gen.h **** {
 1404              		.loc 2 109 26 view .LVU462
 1405              	.LBB115:
 111:lvgl/lvgl/src/widgets/../core/lv_obj_style_gen.h ****     return (lv_coord_t)v.num;
 1406              		.loc 2 111 5 view .LVU463
 111:lvgl/lvgl/src/widgets/../core/lv_obj_style_gen.h ****     return (lv_coord_t)v.num;
 1407              		.loc 2 111 26 is_stmt 0 view .LVU464
 1408 027c 41F21302 		movw	r2, #4115
 1409 0280 0021     		movs	r1, #0
 1410 0282 2846     		mov	r0, r5
 1411 0284 FFF7FEFF 		bl	lv_obj_get_style_prop
 1412              	.LVL143:
 1413 0288 0746     		mov	r7, r0
 1414              	.LVL144:
 112:lvgl/lvgl/src/widgets/../core/lv_obj_style_gen.h **** }
 1415              		.loc 2 112 5 is_stmt 1 view .LVU465
 112:lvgl/lvgl/src/widgets/../core/lv_obj_style_gen.h **** }
 1416              		.loc 2 112 12 is_stmt 0 view .LVU466
 1417 028a 0FFA80FB 		sxth	fp, r0
 1418              	.LVL145:
 112:lvgl/lvgl/src/widgets/../core/lv_obj_style_gen.h **** }
 1419              		.loc 2 112 12 view .LVU467
 1420              	.LBE115:
 1421              	.LBE114:
 198:lvgl/lvgl/src/widgets/lv_slider.c ****         lv_coord_t bg_bottom = lv_obj_get_style_pad_bottom(obj, LV_PART_MAIN);
 1422              		.loc 1 198 9 is_stmt 1 view .LVU468
 1423              	.LBB116:
 1424              	.LBI116:
ARM GAS  C:\Users\gx\AppData\Local\Temp\ccCs6Xqg.s 			page 49


  91:lvgl/lvgl/src/widgets/../core/lv_obj_style_gen.h **** {
 1425              		.loc 2 91 26 view .LVU469
 1426              	.LBB117:
  93:lvgl/lvgl/src/widgets/../core/lv_obj_style_gen.h ****     return (lv_coord_t)v.num;
 1427              		.loc 2 93 5 view .LVU470
  93:lvgl/lvgl/src/widgets/../core/lv_obj_style_gen.h ****     return (lv_coord_t)v.num;
 1428              		.loc 2 93 26 is_stmt 0 view .LVU471
 1429 028e 41F21002 		movw	r2, #4112
 1430 0292 0021     		movs	r1, #0
 1431 0294 2846     		mov	r0, r5
 1432 0296 FFF7FEFF 		bl	lv_obj_get_style_prop
 1433              	.LVL146:
 1434 029a 0190     		str	r0, [sp, #4]
  94:lvgl/lvgl/src/widgets/../core/lv_obj_style_gen.h **** }
 1435              		.loc 2 94 5 is_stmt 1 view .LVU472
 1436              	.LVL147:
  94:lvgl/lvgl/src/widgets/../core/lv_obj_style_gen.h **** }
 1437              		.loc 2 94 5 is_stmt 0 view .LVU473
 1438              	.LBE117:
 1439              	.LBE116:
 199:lvgl/lvgl/src/widgets/lv_slider.c **** 
 1440              		.loc 1 199 9 is_stmt 1 view .LVU474
 1441              	.LBB118:
 1442              	.LBI118:
  97:lvgl/lvgl/src/widgets/../core/lv_obj_style_gen.h **** {
 1443              		.loc 2 97 26 view .LVU475
 1444              	.LBB119:
  99:lvgl/lvgl/src/widgets/../core/lv_obj_style_gen.h ****     return (lv_coord_t)v.num;
 1445              		.loc 2 99 5 view .LVU476
  99:lvgl/lvgl/src/widgets/../core/lv_obj_style_gen.h ****     return (lv_coord_t)v.num;
 1446              		.loc 2 99 26 is_stmt 0 view .LVU477
 1447 029c 41F21102 		movw	r2, #4113
 1448 02a0 0021     		movs	r1, #0
 1449 02a2 2846     		mov	r0, r5
 1450 02a4 FFF7FEFF 		bl	lv_obj_get_style_prop
 1451              	.LVL148:
 100:lvgl/lvgl/src/widgets/../core/lv_obj_style_gen.h **** }
 1452              		.loc 2 100 5 is_stmt 1 view .LVU478
 100:lvgl/lvgl/src/widgets/../core/lv_obj_style_gen.h **** }
 1453              		.loc 2 100 12 is_stmt 0 view .LVU479
 1454 02a8 0FFA80FC 		sxth	ip, r0
 1455              	.LVL149:
 100:lvgl/lvgl/src/widgets/../core/lv_obj_style_gen.h **** }
 1456              		.loc 2 100 12 view .LVU480
 1457              	.LBE119:
 1458              	.LBE118:
 201:lvgl/lvgl/src/widgets/lv_slider.c ****         int32_t new_value = 0;
 1459              		.loc 1 201 9 is_stmt 1 view .LVU481
 201:lvgl/lvgl/src/widgets/lv_slider.c ****         int32_t new_value = 0;
 1460              		.loc 1 201 36 is_stmt 0 view .LVU482
 1461 02ac E96A     		ldr	r1, [r5, #44]
 201:lvgl/lvgl/src/widgets/lv_slider.c ****         int32_t new_value = 0;
 1462              		.loc 1 201 60 view .LVU483
 1463 02ae AA6A     		ldr	r2, [r5, #40]
 201:lvgl/lvgl/src/widgets/lv_slider.c ****         int32_t new_value = 0;
 1464              		.loc 1 201 17 view .LVU484
 1465 02b0 8B1A     		subs	r3, r1, r2
ARM GAS  C:\Users\gx\AppData\Local\Temp\ccCs6Xqg.s 			page 50


 1466              	.LVL150:
 202:lvgl/lvgl/src/widgets/lv_slider.c ****         int32_t real_max_value = slider->bar.max_value;
 1467              		.loc 1 202 9 is_stmt 1 view .LVU485
 203:lvgl/lvgl/src/widgets/lv_slider.c ****         int32_t real_min_value = slider->bar.min_value;
 1468              		.loc 1 203 9 view .LVU486
 204:lvgl/lvgl/src/widgets/lv_slider.c **** 
 1469              		.loc 1 204 9 view .LVU487
 206:lvgl/lvgl/src/widgets/lv_slider.c ****             lv_coord_t indic_w = w - bg_left - bg_right;
 1470              		.loc 1 206 9 view .LVU488
 206:lvgl/lvgl/src/widgets/lv_slider.c ****             lv_coord_t indic_w = w - bg_left - bg_right;
 1471              		.loc 1 206 11 is_stmt 0 view .LVU489
 1472 02b2 A642     		cmp	r6, r4
 1473 02b4 34DB     		blt	.L71
 1474              	.LBB120:
 207:lvgl/lvgl/src/widgets/lv_slider.c ****             if(base_dir == LV_BASE_DIR_RTL) {
 1475              		.loc 1 207 13 is_stmt 1 view .LVU490
 207:lvgl/lvgl/src/widgets/lv_slider.c ****             if(base_dir == LV_BASE_DIR_RTL) {
 1476              		.loc 1 207 36 is_stmt 0 view .LVU491
 1477 02b6 A6EB0800 		sub	r0, r6, r8
 1478 02ba 80B2     		uxth	r0, r0
 207:lvgl/lvgl/src/widgets/lv_slider.c ****             if(base_dir == LV_BASE_DIR_RTL) {
 1479              		.loc 1 207 46 view .LVU492
 1480 02bc C01B     		subs	r0, r0, r7
 207:lvgl/lvgl/src/widgets/lv_slider.c ****             if(base_dir == LV_BASE_DIR_RTL) {
 1481              		.loc 1 207 24 view .LVU493
 1482 02be 00B2     		sxth	r0, r0
 1483              	.LVL151:
 208:lvgl/lvgl/src/widgets/lv_slider.c ****                 new_value = (obj->coords.x2 - bg_right) - p.x; /*Make the point relative to the ind
 1484              		.loc 1 208 13 is_stmt 1 view .LVU494
 208:lvgl/lvgl/src/widgets/lv_slider.c ****                 new_value = (obj->coords.x2 - bg_right) - p.x; /*Make the point relative to the ind
 1485              		.loc 1 208 15 is_stmt 0 view .LVU495
 1486 02c0 B9F1010F 		cmp	r9, #1
 1487 02c4 24D0     		beq	.L111
 212:lvgl/lvgl/src/widgets/lv_slider.c ****             }
 1488              		.loc 1 212 17 is_stmt 1 view .LVU496
 212:lvgl/lvgl/src/widgets/lv_slider.c ****             }
 1489              		.loc 1 212 30 is_stmt 0 view .LVU497
 1490 02c6 BDF91440 		ldrsh	r4, [sp, #20]
 1491              	.LVL152:
 212:lvgl/lvgl/src/widgets/lv_slider.c ****             }
 1492              		.loc 1 212 47 view .LVU498
 1493 02ca B5F91460 		ldrsh	r6, [r5, #20]
 1494              	.LVL153:
 212:lvgl/lvgl/src/widgets/lv_slider.c ****             }
 1495              		.loc 1 212 51 view .LVU499
 1496 02ce B244     		add	r10, r10, r6
 1497              	.LVL154:
 212:lvgl/lvgl/src/widgets/lv_slider.c ****             }
 1498              		.loc 1 212 27 view .LVU500
 1499 02d0 A4EB0A04 		sub	r4, r4, r10
 1500              	.LVL155:
 1501              	.L73:
 214:lvgl/lvgl/src/widgets/lv_slider.c ****             new_value += slider->bar.min_value;
 1502              		.loc 1 214 13 is_stmt 1 view .LVU501
 214:lvgl/lvgl/src/widgets/lv_slider.c ****             new_value += slider->bar.min_value;
 1503              		.loc 1 214 36 is_stmt 0 view .LVU502
 1504 02d4 03FB04F3 		mul	r3, r3, r4
ARM GAS  C:\Users\gx\AppData\Local\Temp\ccCs6Xqg.s 			page 51


 1505              	.LVL156:
 214:lvgl/lvgl/src/widgets/lv_slider.c ****             new_value += slider->bar.min_value;
 1506              		.loc 1 214 23 view .LVU503
 1507 02d8 93FBF0F3 		sdiv	r3, r3, r0
 1508              	.LVL157:
 215:lvgl/lvgl/src/widgets/lv_slider.c ****         }
 1509              		.loc 1 215 13 is_stmt 1 view .LVU504
 215:lvgl/lvgl/src/widgets/lv_slider.c ****         }
 1510              		.loc 1 215 23 is_stmt 0 view .LVU505
 1511 02dc 1344     		add	r3, r3, r2
 1512              	.LVL158:
 1513              	.L74:
 215:lvgl/lvgl/src/widgets/lv_slider.c ****         }
 1514              		.loc 1 215 23 view .LVU506
 1515              	.LBE120:
 226:lvgl/lvgl/src/widgets/lv_slider.c ****             real_max_value = slider->bar.cur_value;
 1516              		.loc 1 226 9 is_stmt 1 view .LVU507
 226:lvgl/lvgl/src/widgets/lv_slider.c ****             real_max_value = slider->bar.cur_value;
 1517              		.loc 1 226 18 is_stmt 0 view .LVU508
 1518 02de 286F     		ldr	r0, [r5, #112]
 226:lvgl/lvgl/src/widgets/lv_slider.c ****             real_max_value = slider->bar.cur_value;
 1519              		.loc 1 226 36 view .LVU509
 1520 02e0 05F13004 		add	r4, r5, #48
 226:lvgl/lvgl/src/widgets/lv_slider.c ****             real_max_value = slider->bar.cur_value;
 1521              		.loc 1 226 11 view .LVU510
 1522 02e4 A042     		cmp	r0, r4
 1523 02e6 2CD0     		beq	.L112
 230:lvgl/lvgl/src/widgets/lv_slider.c ****         }
 1524              		.loc 1 230 13 is_stmt 1 view .LVU511
 230:lvgl/lvgl/src/widgets/lv_slider.c ****         }
 1525              		.loc 1 230 28 is_stmt 0 view .LVU512
 1526 02e8 2A6B     		ldr	r2, [r5, #48]
 1527              	.LVL159:
 1528              	.L76:
 233:lvgl/lvgl/src/widgets/lv_slider.c ****         else if(new_value > real_max_value) new_value = real_max_value;
 1529              		.loc 1 233 9 is_stmt 1 view .LVU513
 233:lvgl/lvgl/src/widgets/lv_slider.c ****         else if(new_value > real_max_value) new_value = real_max_value;
 1530              		.loc 1 233 11 is_stmt 0 view .LVU514
 1531 02ea 9342     		cmp	r3, r2
 1532 02ec 02DB     		blt	.L77
 234:lvgl/lvgl/src/widgets/lv_slider.c ****         if(*slider->value_to_set != new_value) {
 1533              		.loc 1 234 14 is_stmt 1 view .LVU515
 234:lvgl/lvgl/src/widgets/lv_slider.c ****         if(*slider->value_to_set != new_value) {
 1534              		.loc 1 234 16 is_stmt 0 view .LVU516
 1535 02ee 8B42     		cmp	r3, r1
 1536 02f0 29DC     		bgt	.L98
 1537 02f2 1A46     		mov	r2, r3
 1538              	.LVL160:
 1539              	.L77:
 235:lvgl/lvgl/src/widgets/lv_slider.c ****             *slider->value_to_set = new_value;
 1540              		.loc 1 235 9 is_stmt 1 view .LVU517
 235:lvgl/lvgl/src/widgets/lv_slider.c ****             *slider->value_to_set = new_value;
 1541              		.loc 1 235 12 is_stmt 0 view .LVU518
 1542 02f4 0368     		ldr	r3, [r0]
 235:lvgl/lvgl/src/widgets/lv_slider.c ****             *slider->value_to_set = new_value;
 1543              		.loc 1 235 11 view .LVU519
 1544 02f6 9342     		cmp	r3, r2
ARM GAS  C:\Users\gx\AppData\Local\Temp\ccCs6Xqg.s 			page 52


 1545 02f8 3FF48BAE 		beq	.L51
 236:lvgl/lvgl/src/widgets/lv_slider.c ****             lv_obj_invalidate(obj);
 1546              		.loc 1 236 13 is_stmt 1 view .LVU520
 236:lvgl/lvgl/src/widgets/lv_slider.c ****             lv_obj_invalidate(obj);
 1547              		.loc 1 236 35 is_stmt 0 view .LVU521
 1548 02fc 0260     		str	r2, [r0]
 1549              	.LVL161:
 237:lvgl/lvgl/src/widgets/lv_slider.c ****             res = lv_event_send(obj, LV_EVENT_VALUE_CHANGED, NULL);
 1550              		.loc 1 237 13 is_stmt 1 view .LVU522
 1551 02fe 2846     		mov	r0, r5
 1552 0300 FFF7FEFF 		bl	lv_obj_invalidate
 1553              	.LVL162:
 238:lvgl/lvgl/src/widgets/lv_slider.c ****             if(res != LV_RES_OK) return;
 1554              		.loc 1 238 13 view .LVU523
 238:lvgl/lvgl/src/widgets/lv_slider.c ****             if(res != LV_RES_OK) return;
 1555              		.loc 1 238 19 is_stmt 0 view .LVU524
 1556 0304 0022     		movs	r2, #0
 1557 0306 1C21     		movs	r1, #28
 1558 0308 2846     		mov	r0, r5
 1559 030a FFF7FEFF 		bl	lv_event_send
 1560              	.LVL163:
 239:lvgl/lvgl/src/widgets/lv_slider.c ****         }
 1561              		.loc 1 239 13 is_stmt 1 view .LVU525
 1562 030e 80E6     		b	.L51
 1563              	.LVL164:
 1564              	.L111:
 1565              	.LBB121:
 209:lvgl/lvgl/src/widgets/lv_slider.c ****             }
 1566              		.loc 1 209 17 view .LVU526
 209:lvgl/lvgl/src/widgets/lv_slider.c ****             }
 1567              		.loc 1 209 41 is_stmt 0 view .LVU527
 1568 0310 B5F91840 		ldrsh	r4, [r5, #24]
 1569              	.LVL165:
 209:lvgl/lvgl/src/widgets/lv_slider.c ****             }
 1570              		.loc 1 209 45 view .LVU528
 1571 0314 A4EB0B04 		sub	r4, r4, fp
 209:lvgl/lvgl/src/widgets/lv_slider.c ****             }
 1572              		.loc 1 209 60 view .LVU529
 1573 0318 BDF91460 		ldrsh	r6, [sp, #20]
 1574              	.LVL166:
 209:lvgl/lvgl/src/widgets/lv_slider.c ****             }
 1575              		.loc 1 209 27 view .LVU530
 1576 031c A41B     		subs	r4, r4, r6
 1577              	.LVL167:
 209:lvgl/lvgl/src/widgets/lv_slider.c ****             }
 1578              		.loc 1 209 27 view .LVU531
 1579 031e D9E7     		b	.L73
 1580              	.LVL168:
 1581              	.L71:
 209:lvgl/lvgl/src/widgets/lv_slider.c ****             }
 1582              		.loc 1 209 27 view .LVU532
 1583              	.LBE121:
 1584              	.LBB122:
 218:lvgl/lvgl/src/widgets/lv_slider.c ****             new_value = p.y - (obj->coords.y2 + bg_bottom); /*Make the point relative to the indica
 1585              		.loc 1 218 13 is_stmt 1 view .LVU533
 218:lvgl/lvgl/src/widgets/lv_slider.c ****             new_value = p.y - (obj->coords.y2 + bg_bottom); /*Make the point relative to the indica
 1586              		.loc 1 218 36 is_stmt 0 view .LVU534
ARM GAS  C:\Users\gx\AppData\Local\Temp\ccCs6Xqg.s 			page 53


 1587 0320 201A     		subs	r0, r4, r0
 1588 0322 80B2     		uxth	r0, r0
 218:lvgl/lvgl/src/widgets/lv_slider.c ****             new_value = p.y - (obj->coords.y2 + bg_bottom); /*Make the point relative to the indica
 1589              		.loc 1 218 48 view .LVU535
 1590 0324 019C     		ldr	r4, [sp, #4]
 1591              	.LVL169:
 218:lvgl/lvgl/src/widgets/lv_slider.c ****             new_value = p.y - (obj->coords.y2 + bg_bottom); /*Make the point relative to the indica
 1592              		.loc 1 218 48 view .LVU536
 1593 0326 001B     		subs	r0, r0, r4
 218:lvgl/lvgl/src/widgets/lv_slider.c ****             new_value = p.y - (obj->coords.y2 + bg_bottom); /*Make the point relative to the indica
 1594              		.loc 1 218 24 view .LVU537
 1595 0328 00B2     		sxth	r0, r0
 1596              	.LVL170:
 219:lvgl/lvgl/src/widgets/lv_slider.c ****             new_value = (-new_value * range) / indic_h;
 1597              		.loc 1 219 13 is_stmt 1 view .LVU538
 219:lvgl/lvgl/src/widgets/lv_slider.c ****             new_value = (-new_value * range) / indic_h;
 1598              		.loc 1 219 26 is_stmt 0 view .LVU539
 1599 032a BDF91660 		ldrsh	r6, [sp, #22]
 1600              	.LVL171:
 219:lvgl/lvgl/src/widgets/lv_slider.c ****             new_value = (-new_value * range) / indic_h;
 1601              		.loc 1 219 43 view .LVU540
 1602 032e B5F91A40 		ldrsh	r4, [r5, #26]
 219:lvgl/lvgl/src/widgets/lv_slider.c ****             new_value = (-new_value * range) / indic_h;
 1603              		.loc 1 219 47 view .LVU541
 1604 0332 6444     		add	r4, r4, ip
 1605              	.LVL172:
 220:lvgl/lvgl/src/widgets/lv_slider.c ****             new_value += slider->bar.min_value;
 1606              		.loc 1 220 13 is_stmt 1 view .LVU542
 220:lvgl/lvgl/src/widgets/lv_slider.c ****             new_value += slider->bar.min_value;
 1607              		.loc 1 220 26 is_stmt 0 view .LVU543
 1608 0334 A41B     		subs	r4, r4, r6
 1609              	.LVL173:
 220:lvgl/lvgl/src/widgets/lv_slider.c ****             new_value += slider->bar.min_value;
 1610              		.loc 1 220 37 view .LVU544
 1611 0336 03FB04F3 		mul	r3, r3, r4
 1612              	.LVL174:
 220:lvgl/lvgl/src/widgets/lv_slider.c ****             new_value += slider->bar.min_value;
 1613              		.loc 1 220 23 view .LVU545
 1614 033a 93FBF0F3 		sdiv	r3, r3, r0
 1615              	.LVL175:
 221:lvgl/lvgl/src/widgets/lv_slider.c **** 
 1616              		.loc 1 221 13 is_stmt 1 view .LVU546
 221:lvgl/lvgl/src/widgets/lv_slider.c **** 
 1617              		.loc 1 221 23 is_stmt 0 view .LVU547
 1618 033e 1344     		add	r3, r3, r2
 1619              	.LVL176:
 221:lvgl/lvgl/src/widgets/lv_slider.c **** 
 1620              		.loc 1 221 23 view .LVU548
 1621 0340 CDE7     		b	.L74
 1622              	.LVL177:
 1623              	.L112:
 221:lvgl/lvgl/src/widgets/lv_slider.c **** 
 1624              		.loc 1 221 23 view .LVU549
 1625              	.LBE122:
 227:lvgl/lvgl/src/widgets/lv_slider.c ****         }
 1626              		.loc 1 227 13 is_stmt 1 view .LVU550
 227:lvgl/lvgl/src/widgets/lv_slider.c ****         }
ARM GAS  C:\Users\gx\AppData\Local\Temp\ccCs6Xqg.s 			page 54


 1627              		.loc 1 227 28 is_stmt 0 view .LVU551
 1628 0342 696A     		ldr	r1, [r5, #36]
 1629              	.LVL178:
 227:lvgl/lvgl/src/widgets/lv_slider.c ****         }
 1630              		.loc 1 227 28 view .LVU552
 1631 0344 D1E7     		b	.L76
 1632              	.LVL179:
 1633              	.L98:
 234:lvgl/lvgl/src/widgets/lv_slider.c ****         if(*slider->value_to_set != new_value) {
 1634              		.loc 1 234 55 view .LVU553
 1635 0346 0A46     		mov	r2, r1
 1636              	.LVL180:
 234:lvgl/lvgl/src/widgets/lv_slider.c ****         if(*slider->value_to_set != new_value) {
 1637              		.loc 1 234 55 view .LVU554
 1638 0348 D4E7     		b	.L77
 1639              	.L115:
 1640 034a 00BF     		.align	2
 1641              	.L114:
 1642 034c 00000000 		.word	.LANCHOR0
 1643              	.LVL181:
 1644              	.L79:
 234:lvgl/lvgl/src/widgets/lv_slider.c ****         if(*slider->value_to_set != new_value) {
 1645              		.loc 1 234 55 view .LVU555
 1646              	.LBE109:
 1647              	.LBB123:
 244:lvgl/lvgl/src/widgets/lv_slider.c ****         slider->value_to_set = NULL;
 1648              		.loc 1 244 9 is_stmt 1 view .LVU556
 244:lvgl/lvgl/src/widgets/lv_slider.c ****         slider->value_to_set = NULL;
 1649              		.loc 1 244 26 is_stmt 0 view .LVU557
 1650 0350 95F87430 		ldrb	r3, [r5, #116]	@ zero_extendqisi2
 1651 0354 6FF30003 		bfc	r3, #0, #1
 1652 0358 85F87430 		strb	r3, [r5, #116]
 245:lvgl/lvgl/src/widgets/lv_slider.c **** 
 1653              		.loc 1 245 9 is_stmt 1 view .LVU558
 245:lvgl/lvgl/src/widgets/lv_slider.c **** 
 1654              		.loc 1 245 30 is_stmt 0 view .LVU559
 1655 035c 0023     		movs	r3, #0
 1656 035e 2B67     		str	r3, [r5, #112]
 247:lvgl/lvgl/src/widgets/lv_slider.c **** 
 1657              		.loc 1 247 9 is_stmt 1 view .LVU560
 1658 0360 2846     		mov	r0, r5
 1659 0362 FFF7FEFF 		bl	lv_obj_invalidate
 1660              	.LVL182:
 250:lvgl/lvgl/src/widgets/lv_slider.c ****         bool editing     = lv_group_get_editing(g);
 1661              		.loc 1 250 9 view .LVU561
 250:lvgl/lvgl/src/widgets/lv_slider.c ****         bool editing     = lv_group_get_editing(g);
 1662              		.loc 1 250 28 is_stmt 0 view .LVU562
 1663 0366 2846     		mov	r0, r5
 1664 0368 FFF7FEFF 		bl	lv_obj_get_group
 1665              	.LVL183:
 1666 036c 0646     		mov	r6, r0
 1667              	.LVL184:
 251:lvgl/lvgl/src/widgets/lv_slider.c ****         lv_indev_type_t indev_type = lv_indev_get_type(lv_indev_get_act());
 1668              		.loc 1 251 9 is_stmt 1 view .LVU563
 251:lvgl/lvgl/src/widgets/lv_slider.c ****         lv_indev_type_t indev_type = lv_indev_get_type(lv_indev_get_act());
 1669              		.loc 1 251 28 is_stmt 0 view .LVU564
 1670 036e FFF7FEFF 		bl	lv_group_get_editing
ARM GAS  C:\Users\gx\AppData\Local\Temp\ccCs6Xqg.s 			page 55


 1671              	.LVL185:
 251:lvgl/lvgl/src/widgets/lv_slider.c ****         lv_indev_type_t indev_type = lv_indev_get_type(lv_indev_get_act());
 1672              		.loc 1 251 28 view .LVU565
 1673 0372 0446     		mov	r4, r0
 1674              	.LVL186:
 252:lvgl/lvgl/src/widgets/lv_slider.c ****         if(indev_type == LV_INDEV_TYPE_ENCODER) {
 1675              		.loc 1 252 9 is_stmt 1 view .LVU566
 252:lvgl/lvgl/src/widgets/lv_slider.c ****         if(indev_type == LV_INDEV_TYPE_ENCODER) {
 1676              		.loc 1 252 56 is_stmt 0 view .LVU567
 1677 0374 FFF7FEFF 		bl	lv_indev_get_act
 1678              	.LVL187:
 252:lvgl/lvgl/src/widgets/lv_slider.c ****         if(indev_type == LV_INDEV_TYPE_ENCODER) {
 1679              		.loc 1 252 38 view .LVU568
 1680 0378 FFF7FEFF 		bl	lv_indev_get_type
 1681              	.LVL188:
 253:lvgl/lvgl/src/widgets/lv_slider.c ****             if(editing) {
 1682              		.loc 1 253 9 is_stmt 1 view .LVU569
 253:lvgl/lvgl/src/widgets/lv_slider.c ****             if(editing) {
 1683              		.loc 1 253 11 is_stmt 0 view .LVU570
 1684 037c 0428     		cmp	r0, #4
 1685 037e 7FF448AE 		bne	.L51
 254:lvgl/lvgl/src/widgets/lv_slider.c ****                 if(lv_slider_get_mode(obj) == LV_SLIDER_MODE_RANGE) {
 1686              		.loc 1 254 13 is_stmt 1 view .LVU571
 254:lvgl/lvgl/src/widgets/lv_slider.c ****                 if(lv_slider_get_mode(obj) == LV_SLIDER_MODE_RANGE) {
 1687              		.loc 1 254 15 is_stmt 0 view .LVU572
 1688 0382 002C     		cmp	r4, #0
 1689 0384 3FF445AE 		beq	.L51
 255:lvgl/lvgl/src/widgets/lv_slider.c ****                     if(slider->left_knob_focus == 0) slider->left_knob_focus = 1;
 1690              		.loc 1 255 17 is_stmt 1 view .LVU573
 1691              	.LVL189:
 1692              	.LBB124:
 1693              	.LBI124:
 177:lvgl/lvgl/src/widgets/lv_slider.h **** {
 1694              		.loc 4 177 32 view .LVU574
 1695              	.LBB125:
 179:lvgl/lvgl/src/widgets/lv_slider.h ****     if(mode == LV_BAR_MODE_SYMMETRICAL) return LV_SLIDER_MODE_SYMMETRICAL;
 1696              		.loc 4 179 5 view .LVU575
 179:lvgl/lvgl/src/widgets/lv_slider.h ****     if(mode == LV_BAR_MODE_SYMMETRICAL) return LV_SLIDER_MODE_SYMMETRICAL;
 1697              		.loc 4 179 26 is_stmt 0 view .LVU576
 1698 0388 2846     		mov	r0, r5
 1699              	.LVL190:
 179:lvgl/lvgl/src/widgets/lv_slider.h ****     if(mode == LV_BAR_MODE_SYMMETRICAL) return LV_SLIDER_MODE_SYMMETRICAL;
 1700              		.loc 4 179 26 view .LVU577
 1701 038a FFF7FEFF 		bl	lv_bar_get_mode
 1702              	.LVL191:
 180:lvgl/lvgl/src/widgets/lv_slider.h ****     else if(mode == LV_BAR_MODE_RANGE) return LV_SLIDER_MODE_RANGE;
 1703              		.loc 4 180 5 is_stmt 1 view .LVU578
 180:lvgl/lvgl/src/widgets/lv_slider.h ****     else if(mode == LV_BAR_MODE_RANGE) return LV_SLIDER_MODE_RANGE;
 1704              		.loc 4 180 7 is_stmt 0 view .LVU579
 1705 038e 0128     		cmp	r0, #1
 1706 0390 01D0     		beq	.L81
 181:lvgl/lvgl/src/widgets/lv_slider.h ****     else return LV_SLIDER_MODE_NORMAL;
 1707              		.loc 4 181 10 is_stmt 1 view .LVU580
 181:lvgl/lvgl/src/widgets/lv_slider.h ****     else return LV_SLIDER_MODE_NORMAL;
 1708              		.loc 4 181 12 is_stmt 0 view .LVU581
 1709 0392 0228     		cmp	r0, #2
 1710 0394 04D0     		beq	.L113
ARM GAS  C:\Users\gx\AppData\Local\Temp\ccCs6Xqg.s 			page 56


 1711              	.L81:
 1712              	.LVL192:
 181:lvgl/lvgl/src/widgets/lv_slider.h ****     else return LV_SLIDER_MODE_NORMAL;
 1713              		.loc 4 181 12 view .LVU582
 1714              	.LBE125:
 1715              	.LBE124:
 263:lvgl/lvgl/src/widgets/lv_slider.c ****                 }
 1716              		.loc 1 263 21 is_stmt 1 view .LVU583
 1717 0396 0021     		movs	r1, #0
 1718 0398 3046     		mov	r0, r6
 1719 039a FFF7FEFF 		bl	lv_group_set_editing
 1720              	.LVL193:
 1721 039e 38E6     		b	.L51
 1722              	.LVL194:
 1723              	.L113:
 256:lvgl/lvgl/src/widgets/lv_slider.c ****                     else {
 1724              		.loc 1 256 21 view .LVU584
 256:lvgl/lvgl/src/widgets/lv_slider.c ****                     else {
 1725              		.loc 1 256 48 is_stmt 0 view .LVU585
 1726 03a0 95F87430 		ldrb	r3, [r5, #116]	@ zero_extendqisi2
 256:lvgl/lvgl/src/widgets/lv_slider.c ****                     else {
 1727              		.loc 1 256 23 view .LVU586
 1728 03a4 13F0020F 		tst	r3, #2
 1729 03a8 04D1     		bne	.L82
 256:lvgl/lvgl/src/widgets/lv_slider.c ****                     else {
 1730              		.loc 1 256 54 is_stmt 1 discriminator 1 view .LVU587
 256:lvgl/lvgl/src/widgets/lv_slider.c ****                     else {
 1731              		.loc 1 256 78 is_stmt 0 discriminator 1 view .LVU588
 1732 03aa 43F00203 		orr	r3, r3, #2
 1733 03ae 85F87430 		strb	r3, [r5, #116]
 1734 03b2 2EE6     		b	.L51
 1735              	.L82:
 258:lvgl/lvgl/src/widgets/lv_slider.c ****                         lv_group_set_editing(g, false);
 1736              		.loc 1 258 25 is_stmt 1 view .LVU589
 258:lvgl/lvgl/src/widgets/lv_slider.c ****                         lv_group_set_editing(g, false);
 1737              		.loc 1 258 49 is_stmt 0 view .LVU590
 1738 03b4 95F87430 		ldrb	r3, [r5, #116]	@ zero_extendqisi2
 1739 03b8 6FF34103 		bfc	r3, #1, #1
 1740 03bc 85F87430 		strb	r3, [r5, #116]
 259:lvgl/lvgl/src/widgets/lv_slider.c ****                     }
 1741              		.loc 1 259 25 is_stmt 1 view .LVU591
 1742 03c0 0021     		movs	r1, #0
 1743 03c2 3046     		mov	r0, r6
 1744 03c4 FFF7FEFF 		bl	lv_group_set_editing
 1745              	.LVL195:
 1746 03c8 23E6     		b	.L51
 1747              	.LVL196:
 1748              	.L104:
 259:lvgl/lvgl/src/widgets/lv_slider.c ****                     }
 1749              		.loc 1 259 25 is_stmt 0 view .LVU592
 1750              	.LBE123:
 1751              	.LBB126:
 270:lvgl/lvgl/src/widgets/lv_slider.c ****         if(indev_type == LV_INDEV_TYPE_ENCODER || indev_type == LV_INDEV_TYPE_KEYPAD) {
 1752              		.loc 1 270 9 is_stmt 1 view .LVU593
 270:lvgl/lvgl/src/widgets/lv_slider.c ****         if(indev_type == LV_INDEV_TYPE_ENCODER || indev_type == LV_INDEV_TYPE_KEYPAD) {
 1753              		.loc 1 270 56 is_stmt 0 view .LVU594
 1754 03ca FFF7FEFF 		bl	lv_indev_get_act
ARM GAS  C:\Users\gx\AppData\Local\Temp\ccCs6Xqg.s 			page 57


 1755              	.LVL197:
 270:lvgl/lvgl/src/widgets/lv_slider.c ****         if(indev_type == LV_INDEV_TYPE_ENCODER || indev_type == LV_INDEV_TYPE_KEYPAD) {
 1756              		.loc 1 270 38 view .LVU595
 1757 03ce FFF7FEFF 		bl	lv_indev_get_type
 1758              	.LVL198:
 271:lvgl/lvgl/src/widgets/lv_slider.c ****             slider->left_knob_focus = 0;
 1759              		.loc 1 271 9 is_stmt 1 view .LVU596
 271:lvgl/lvgl/src/widgets/lv_slider.c ****             slider->left_knob_focus = 0;
 1760              		.loc 1 271 11 is_stmt 0 view .LVU597
 1761 03d2 0428     		cmp	r0, #4
 1762 03d4 02D0     		beq	.L84
 271:lvgl/lvgl/src/widgets/lv_slider.c ****             slider->left_knob_focus = 0;
 1763              		.loc 1 271 48 discriminator 1 view .LVU598
 1764 03d6 0228     		cmp	r0, #2
 1765 03d8 7FF41BAE 		bne	.L51
 1766              	.L84:
 272:lvgl/lvgl/src/widgets/lv_slider.c ****         }
 1767              		.loc 1 272 13 is_stmt 1 view .LVU599
 272:lvgl/lvgl/src/widgets/lv_slider.c ****         }
 1768              		.loc 1 272 37 is_stmt 0 view .LVU600
 1769 03dc 95F87430 		ldrb	r3, [r5, #116]	@ zero_extendqisi2
 1770 03e0 6FF34103 		bfc	r3, #1, #1
 1771 03e4 85F87430 		strb	r3, [r5, #116]
 1772 03e8 13E6     		b	.L51
 1773              	.LVL199:
 1774              	.L105:
 272:lvgl/lvgl/src/widgets/lv_slider.c ****         }
 1775              		.loc 1 272 37 view .LVU601
 1776              	.LBE126:
 276:lvgl/lvgl/src/widgets/lv_slider.c ****     }
 1777              		.loc 1 276 9 is_stmt 1 view .LVU602
 1778 03ea 2846     		mov	r0, r5
 1779 03ec FFF7FEFF 		bl	lv_obj_refresh_ext_draw_size
 1780              	.LVL200:
 1781 03f0 0FE6     		b	.L51
 1782              	.L106:
 1783              	.LBB127:
 279:lvgl/lvgl/src/widgets/lv_slider.c ****         lv_coord_t knob_right = lv_obj_get_style_pad_right(obj,LV_PART_KNOB);
 1784              		.loc 1 279 9 view .LVU603
 1785              	.LVL201:
 1786              	.LBB128:
 1787              	.LBI128:
 103:lvgl/lvgl/src/widgets/../core/lv_obj_style_gen.h **** {
 1788              		.loc 2 103 26 view .LVU604
 1789              	.LBB129:
 105:lvgl/lvgl/src/widgets/../core/lv_obj_style_gen.h ****     return (lv_coord_t)v.num;
 1790              		.loc 2 105 5 view .LVU605
 105:lvgl/lvgl/src/widgets/../core/lv_obj_style_gen.h ****     return (lv_coord_t)v.num;
 1791              		.loc 2 105 26 is_stmt 0 view .LVU606
 1792 03f2 41F21202 		movw	r2, #4114
 1793 03f6 4FF44031 		mov	r1, #196608
 1794 03fa 2846     		mov	r0, r5
 1795 03fc FFF7FEFF 		bl	lv_obj_get_style_prop
 1796              	.LVL202:
 106:lvgl/lvgl/src/widgets/../core/lv_obj_style_gen.h **** }
 1797              		.loc 2 106 5 is_stmt 1 view .LVU607
 106:lvgl/lvgl/src/widgets/../core/lv_obj_style_gen.h **** }
ARM GAS  C:\Users\gx\AppData\Local\Temp\ccCs6Xqg.s 			page 58


 1798              		.loc 2 106 12 is_stmt 0 view .LVU608
 1799 0400 03B2     		sxth	r3, r0
 1800 0402 0193     		str	r3, [sp, #4]
 1801              	.LVL203:
 106:lvgl/lvgl/src/widgets/../core/lv_obj_style_gen.h **** }
 1802              		.loc 2 106 12 view .LVU609
 1803              	.LBE129:
 1804              	.LBE128:
 280:lvgl/lvgl/src/widgets/lv_slider.c ****         lv_coord_t knob_top = lv_obj_get_style_pad_top(obj, LV_PART_KNOB);
 1805              		.loc 1 280 9 is_stmt 1 view .LVU610
 1806              	.LBB130:
 1807              	.LBI130:
 109:lvgl/lvgl/src/widgets/../core/lv_obj_style_gen.h **** {
 1808              		.loc 2 109 26 view .LVU611
 1809              	.LBB131:
 111:lvgl/lvgl/src/widgets/../core/lv_obj_style_gen.h ****     return (lv_coord_t)v.num;
 1810              		.loc 2 111 5 view .LVU612
 111:lvgl/lvgl/src/widgets/../core/lv_obj_style_gen.h ****     return (lv_coord_t)v.num;
 1811              		.loc 2 111 26 is_stmt 0 view .LVU613
 1812 0404 41F21302 		movw	r2, #4115
 1813 0408 4FF44031 		mov	r1, #196608
 1814 040c 2846     		mov	r0, r5
 1815 040e FFF7FEFF 		bl	lv_obj_get_style_prop
 1816              	.LVL204:
 112:lvgl/lvgl/src/widgets/../core/lv_obj_style_gen.h **** }
 1817              		.loc 2 112 5 is_stmt 1 view .LVU614
 112:lvgl/lvgl/src/widgets/../core/lv_obj_style_gen.h **** }
 1818              		.loc 2 112 12 is_stmt 0 view .LVU615
 1819 0412 0FFA80F8 		sxth	r8, r0
 1820              	.LVL205:
 112:lvgl/lvgl/src/widgets/../core/lv_obj_style_gen.h **** }
 1821              		.loc 2 112 12 view .LVU616
 1822              	.LBE131:
 1823              	.LBE130:
 281:lvgl/lvgl/src/widgets/lv_slider.c ****         lv_coord_t knob_bottom = lv_obj_get_style_pad_bottom(obj, LV_PART_KNOB);
 1824              		.loc 1 281 9 is_stmt 1 view .LVU617
 1825              	.LBB132:
 1826              	.LBI132:
  91:lvgl/lvgl/src/widgets/../core/lv_obj_style_gen.h **** {
 1827              		.loc 2 91 26 view .LVU618
 1828              	.LBB133:
  93:lvgl/lvgl/src/widgets/../core/lv_obj_style_gen.h ****     return (lv_coord_t)v.num;
 1829              		.loc 2 93 5 view .LVU619
  93:lvgl/lvgl/src/widgets/../core/lv_obj_style_gen.h ****     return (lv_coord_t)v.num;
 1830              		.loc 2 93 26 is_stmt 0 view .LVU620
 1831 0416 41F21002 		movw	r2, #4112
 1832 041a 4FF44031 		mov	r1, #196608
 1833 041e 2846     		mov	r0, r5
 1834 0420 FFF7FEFF 		bl	lv_obj_get_style_prop
 1835              	.LVL206:
  94:lvgl/lvgl/src/widgets/../core/lv_obj_style_gen.h **** }
 1836              		.loc 2 94 5 is_stmt 1 view .LVU621
  94:lvgl/lvgl/src/widgets/../core/lv_obj_style_gen.h **** }
 1837              		.loc 2 94 12 is_stmt 0 view .LVU622
 1838 0424 0FFA80FB 		sxth	fp, r0
 1839              	.LVL207:
  94:lvgl/lvgl/src/widgets/../core/lv_obj_style_gen.h **** }
ARM GAS  C:\Users\gx\AppData\Local\Temp\ccCs6Xqg.s 			page 59


 1840              		.loc 2 94 12 view .LVU623
 1841              	.LBE133:
 1842              	.LBE132:
 282:lvgl/lvgl/src/widgets/lv_slider.c **** 
 1843              		.loc 1 282 9 is_stmt 1 view .LVU624
 1844              	.LBB134:
 1845              	.LBI134:
  97:lvgl/lvgl/src/widgets/../core/lv_obj_style_gen.h **** {
 1846              		.loc 2 97 26 view .LVU625
 1847              	.LBB135:
  99:lvgl/lvgl/src/widgets/../core/lv_obj_style_gen.h ****     return (lv_coord_t)v.num;
 1848              		.loc 2 99 5 view .LVU626
  99:lvgl/lvgl/src/widgets/../core/lv_obj_style_gen.h ****     return (lv_coord_t)v.num;
 1849              		.loc 2 99 26 is_stmt 0 view .LVU627
 1850 0428 41F21102 		movw	r2, #4113
 1851 042c 4FF44031 		mov	r1, #196608
 1852 0430 2846     		mov	r0, r5
 1853 0432 FFF7FEFF 		bl	lv_obj_get_style_prop
 1854              	.LVL208:
 100:lvgl/lvgl/src/widgets/../core/lv_obj_style_gen.h **** }
 1855              		.loc 2 100 5 is_stmt 1 view .LVU628
 100:lvgl/lvgl/src/widgets/../core/lv_obj_style_gen.h **** }
 1856              		.loc 2 100 12 is_stmt 0 view .LVU629
 1857 0436 06B2     		sxth	r6, r0
 1858              	.LVL209:
 100:lvgl/lvgl/src/widgets/../core/lv_obj_style_gen.h **** }
 1859              		.loc 2 100 12 view .LVU630
 1860              	.LBE135:
 1861              	.LBE134:
 285:lvgl/lvgl/src/widgets/lv_slider.c ****         lv_coord_t trans_w = lv_obj_get_style_transform_width(obj, LV_PART_KNOB);
 1862              		.loc 1 285 9 is_stmt 1 view .LVU631
 1863              	.LBB136:
 1864              	.LBI136:
  79:lvgl/lvgl/src/widgets/../core/lv_obj_style_gen.h **** {
 1865              		.loc 2 79 26 view .LVU632
 1866              	.LBB137:
  81:lvgl/lvgl/src/widgets/../core/lv_obj_style_gen.h ****     return (lv_coord_t)v.num;
 1867              		.loc 2 81 5 view .LVU633
  81:lvgl/lvgl/src/widgets/../core/lv_obj_style_gen.h ****     return (lv_coord_t)v.num;
 1868              		.loc 2 81 26 is_stmt 0 view .LVU634
 1869 0438 43F60E02 		movw	r2, #14350
 1870 043c 4FF44031 		mov	r1, #196608
 1871 0440 2846     		mov	r0, r5
 1872 0442 FFF7FEFF 		bl	lv_obj_get_style_prop
 1873              	.LVL210:
  82:lvgl/lvgl/src/widgets/../core/lv_obj_style_gen.h **** }
 1874              		.loc 2 82 5 is_stmt 1 view .LVU635
  82:lvgl/lvgl/src/widgets/../core/lv_obj_style_gen.h **** }
 1875              		.loc 2 82 12 is_stmt 0 view .LVU636
 1876 0446 07B2     		sxth	r7, r0
 1877              	.LVL211:
  82:lvgl/lvgl/src/widgets/../core/lv_obj_style_gen.h **** }
 1878              		.loc 2 82 12 view .LVU637
 1879              	.LBE137:
 1880              	.LBE136:
 286:lvgl/lvgl/src/widgets/lv_slider.c ****         lv_coord_t trans_h = lv_obj_get_style_transform_height(obj, LV_PART_KNOB);
 1881              		.loc 1 286 9 is_stmt 1 view .LVU638
ARM GAS  C:\Users\gx\AppData\Local\Temp\ccCs6Xqg.s 			page 60


 1882              	.LBB138:
 1883              	.LBI138:
  55:lvgl/lvgl/src/widgets/../core/lv_obj_style_gen.h **** {
 1884              		.loc 2 55 26 view .LVU639
 1885              	.LBB139:
  57:lvgl/lvgl/src/widgets/../core/lv_obj_style_gen.h ****     return (lv_coord_t)v.num;
 1886              		.loc 2 57 5 view .LVU640
  57:lvgl/lvgl/src/widgets/../core/lv_obj_style_gen.h ****     return (lv_coord_t)v.num;
 1887              		.loc 2 57 26 is_stmt 0 view .LVU641
 1888 0448 40F60A02 		movw	r2, #2058
 1889 044c 4FF44031 		mov	r1, #196608
 1890 0450 2846     		mov	r0, r5
 1891 0452 FFF7FEFF 		bl	lv_obj_get_style_prop
 1892              	.LVL212:
  58:lvgl/lvgl/src/widgets/../core/lv_obj_style_gen.h **** }
 1893              		.loc 2 58 5 is_stmt 1 view .LVU642
  58:lvgl/lvgl/src/widgets/../core/lv_obj_style_gen.h **** }
 1894              		.loc 2 58 12 is_stmt 0 view .LVU643
 1895 0456 0FFA80FA 		sxth	r10, r0
 1896              	.LVL213:
  58:lvgl/lvgl/src/widgets/../core/lv_obj_style_gen.h **** }
 1897              		.loc 2 58 12 view .LVU644
 1898              	.LBE139:
 1899              	.LBE138:
 287:lvgl/lvgl/src/widgets/lv_slider.c ****         lv_coord_t knob_size = LV_MIN(lv_obj_get_width(obj) + 2 * trans_w, lv_obj_get_height(obj) +
 1900              		.loc 1 287 9 is_stmt 1 view .LVU645
 1901              	.LBB140:
 1902              	.LBI140:
  61:lvgl/lvgl/src/widgets/../core/lv_obj_style_gen.h **** {
 1903              		.loc 2 61 26 view .LVU646
 1904              	.LBB141:
  63:lvgl/lvgl/src/widgets/../core/lv_obj_style_gen.h ****     return (lv_coord_t)v.num;
 1905              		.loc 2 63 5 view .LVU647
  63:lvgl/lvgl/src/widgets/../core/lv_obj_style_gen.h ****     return (lv_coord_t)v.num;
 1906              		.loc 2 63 26 is_stmt 0 view .LVU648
 1907 045a 40F60B02 		movw	r2, #2059
 1908 045e 4FF44031 		mov	r1, #196608
 1909 0462 2846     		mov	r0, r5
 1910 0464 FFF7FEFF 		bl	lv_obj_get_style_prop
 1911              	.LVL214:
  64:lvgl/lvgl/src/widgets/../core/lv_obj_style_gen.h **** }
 1912              		.loc 2 64 5 is_stmt 1 view .LVU649
  64:lvgl/lvgl/src/widgets/../core/lv_obj_style_gen.h **** }
 1913              		.loc 2 64 12 is_stmt 0 view .LVU650
 1914 0468 0FFA80F9 		sxth	r9, r0
 1915              	.LVL215:
  64:lvgl/lvgl/src/widgets/../core/lv_obj_style_gen.h **** }
 1916              		.loc 2 64 12 view .LVU651
 1917              	.LBE141:
 1918              	.LBE140:
 288:lvgl/lvgl/src/widgets/lv_slider.c ****         knob_size = (knob_size * zoom) >> 8;
 1919              		.loc 1 288 9 is_stmt 1 view .LVU652
 288:lvgl/lvgl/src/widgets/lv_slider.c ****         knob_size = (knob_size * zoom) >> 8;
 1920              		.loc 1 288 32 is_stmt 0 view .LVU653
 1921 046c 2846     		mov	r0, r5
 1922 046e FFF7FEFF 		bl	lv_obj_get_width
 1923              	.LVL216:
ARM GAS  C:\Users\gx\AppData\Local\Temp\ccCs6Xqg.s 			page 61


 1924 0472 4FEA4A03 		lsl	r3, r10, #1
 1925 0476 0293     		str	r3, [sp, #8]
 1926 0478 00EB4A0A 		add	r10, r0, r10, lsl #1
 1927              	.LVL217:
 288:lvgl/lvgl/src/widgets/lv_slider.c ****         knob_size = (knob_size * zoom) >> 8;
 1928              		.loc 1 288 32 view .LVU654
 1929 047c 2846     		mov	r0, r5
 1930 047e FFF7FEFF 		bl	lv_obj_get_height
 1931              	.LVL218:
 1932 0482 4FEA4902 		lsl	r2, r9, #1
 1933 0486 0392     		str	r2, [sp, #12]
 1934 0488 00EB4909 		add	r9, r0, r9, lsl #1
 1935              	.LVL219:
 288:lvgl/lvgl/src/widgets/lv_slider.c ****         knob_size = (knob_size * zoom) >> 8;
 1936              		.loc 1 288 20 view .LVU655
 1937 048c CA45     		cmp	r10, r9
 1938 048e 2ADA     		bge	.L87
 288:lvgl/lvgl/src/widgets/lv_slider.c ****         knob_size = (knob_size * zoom) >> 8;
 1939              		.loc 1 288 32 discriminator 1 view .LVU656
 1940 0490 2846     		mov	r0, r5
 1941 0492 FFF7FEFF 		bl	lv_obj_get_width
 1942              	.LVL220:
 1943 0496 029B     		ldr	r3, [sp, #8]
 1944 0498 0344     		add	r3, r3, r0
 288:lvgl/lvgl/src/widgets/lv_slider.c ****         knob_size = (knob_size * zoom) >> 8;
 1945              		.loc 1 288 20 discriminator 1 view .LVU657
 1946 049a 43F34F03 		sbfx	r3, r3, #1, #16
 1947              	.L88:
 1948              	.LVL221:
 289:lvgl/lvgl/src/widgets/lv_slider.c ****         knob_size += LV_MAX(LV_MAX(knob_left, knob_right), LV_MAX(knob_bottom, knob_top));
 1949              		.loc 1 289 9 is_stmt 1 discriminator 4 view .LVU658
 289:lvgl/lvgl/src/widgets/lv_slider.c ****         knob_size += LV_MAX(LV_MAX(knob_left, knob_right), LV_MAX(knob_bottom, knob_top));
 1950              		.loc 1 289 32 is_stmt 0 discriminator 4 view .LVU659
 1951 049e 07FB03F3 		mul	r3, r7, r3
 1952              	.LVL222:
 290:lvgl/lvgl/src/widgets/lv_slider.c ****         knob_size += 2;         /*For rounding error*/
 1953              		.loc 1 290 9 is_stmt 1 discriminator 4 view .LVU660
 290:lvgl/lvgl/src/widgets/lv_slider.c ****         knob_size += 2;         /*For rounding error*/
 1954              		.loc 1 290 22 is_stmt 0 discriminator 4 view .LVU661
 1955 04a2 5E45     		cmp	r6, fp
 1956 04a4 B8BF     		it	lt
 1957 04a6 5E46     		movlt	r6, fp
 1958              	.LVL223:
 290:lvgl/lvgl/src/widgets/lv_slider.c ****         knob_size += 2;         /*For rounding error*/
 1959              		.loc 1 290 22 discriminator 4 view .LVU662
 1960 04a8 019A     		ldr	r2, [sp, #4]
 1961 04aa 9045     		cmp	r8, r2
 1962 04ac B8BF     		it	lt
 1963 04ae 9046     		movlt	r8, r2
 1964              	.LVL224:
 290:lvgl/lvgl/src/widgets/lv_slider.c ****         knob_size += 2;         /*For rounding error*/
 1965              		.loc 1 290 22 discriminator 4 view .LVU663
 1966 04b0 4645     		cmp	r6, r8
 1967 04b2 B8BF     		it	lt
 1968 04b4 4646     		movlt	r6, r8
 1969 04b6 B6B2     		uxth	r6, r6
 290:lvgl/lvgl/src/widgets/lv_slider.c ****         knob_size += 2;         /*For rounding error*/
ARM GAS  C:\Users\gx\AppData\Local\Temp\ccCs6Xqg.s 			page 62


 1970              		.loc 1 290 19 discriminator 4 view .LVU664
 1971 04b8 06EB2326 		add	r6, r6, r3, asr #8
 1972 04bc B6B2     		uxth	r6, r6
 1973              	.LVL225:
 291:lvgl/lvgl/src/widgets/lv_slider.c ****         knob_size += lv_obj_calculate_ext_draw_size(obj, LV_PART_KNOB);
 1974              		.loc 1 291 9 is_stmt 1 discriminator 4 view .LVU665
 291:lvgl/lvgl/src/widgets/lv_slider.c ****         knob_size += lv_obj_calculate_ext_draw_size(obj, LV_PART_KNOB);
 1975              		.loc 1 291 19 is_stmt 0 discriminator 4 view .LVU666
 1976 04be 0236     		adds	r6, r6, #2
 1977              	.LVL226:
 291:lvgl/lvgl/src/widgets/lv_slider.c ****         knob_size += lv_obj_calculate_ext_draw_size(obj, LV_PART_KNOB);
 1978              		.loc 1 291 19 discriminator 4 view .LVU667
 1979 04c0 B6B2     		uxth	r6, r6
 1980              	.LVL227:
 292:lvgl/lvgl/src/widgets/lv_slider.c **** 
 1981              		.loc 1 292 9 is_stmt 1 discriminator 4 view .LVU668
 292:lvgl/lvgl/src/widgets/lv_slider.c **** 
 1982              		.loc 1 292 22 is_stmt 0 discriminator 4 view .LVU669
 1983 04c2 4FF44031 		mov	r1, #196608
 1984 04c6 2846     		mov	r0, r5
 1985 04c8 FFF7FEFF 		bl	lv_obj_calculate_ext_draw_size
 1986              	.LVL228:
 292:lvgl/lvgl/src/widgets/lv_slider.c **** 
 1987              		.loc 1 292 19 discriminator 4 view .LVU670
 1988 04cc 16FA80F5 		uxtah	r5, r6, r0
 1989              	.LVL229:
 292:lvgl/lvgl/src/widgets/lv_slider.c **** 
 1990              		.loc 1 292 19 discriminator 4 view .LVU671
 1991 04d0 2DB2     		sxth	r5, r5
 1992              	.LVL230:
 295:lvgl/lvgl/src/widgets/lv_slider.c ****         *s  = LV_MAX(*s, knob_size);
 1993              		.loc 1 295 9 is_stmt 1 discriminator 4 view .LVU672
 295:lvgl/lvgl/src/widgets/lv_slider.c ****         *s  = LV_MAX(*s, knob_size);
 1994              		.loc 1 295 26 is_stmt 0 discriminator 4 view .LVU673
 1995 04d2 2046     		mov	r0, r4
 1996 04d4 FFF7FEFF 		bl	lv_event_get_param
 1997              	.LVL231:
 296:lvgl/lvgl/src/widgets/lv_slider.c **** 
 1998              		.loc 1 296 9 is_stmt 1 discriminator 4 view .LVU674
 296:lvgl/lvgl/src/widgets/lv_slider.c **** 
 1999              		.loc 1 296 15 is_stmt 0 discriminator 4 view .LVU675
 2000 04d8 B0F90030 		ldrsh	r3, [r0]
 2001 04dc 9D42     		cmp	r5, r3
 2002 04de B8BF     		it	lt
 2003 04e0 1D46     		movlt	r5, r3
 2004              	.LVL232:
 296:lvgl/lvgl/src/widgets/lv_slider.c **** 
 2005              		.loc 1 296 13 discriminator 4 view .LVU676
 2006 04e2 0580     		strh	r5, [r0]	@ movhi
 2007              	.LBE127:
 2008 04e4 95E5     		b	.L51
 2009              	.LVL233:
 2010              	.L87:
 2011              	.LBB142:
 288:lvgl/lvgl/src/widgets/lv_slider.c ****         knob_size = (knob_size * zoom) >> 8;
 2012              		.loc 1 288 32 discriminator 2 view .LVU677
 2013 04e6 2846     		mov	r0, r5
ARM GAS  C:\Users\gx\AppData\Local\Temp\ccCs6Xqg.s 			page 63


 2014 04e8 FFF7FEFF 		bl	lv_obj_get_height
 2015              	.LVL234:
 2016 04ec 039B     		ldr	r3, [sp, #12]
 2017 04ee 0344     		add	r3, r3, r0
 288:lvgl/lvgl/src/widgets/lv_slider.c ****         knob_size = (knob_size * zoom) >> 8;
 2018              		.loc 1 288 20 discriminator 2 view .LVU678
 2019 04f0 43F34F03 		sbfx	r3, r3, #1, #16
 2020 04f4 D3E7     		b	.L88
 2021              	.LVL235:
 2022              	.L107:
 288:lvgl/lvgl/src/widgets/lv_slider.c ****         knob_size = (knob_size * zoom) >> 8;
 2023              		.loc 1 288 20 discriminator 2 view .LVU679
 2024              	.LBE142:
 2025              	.LBB143:
 300:lvgl/lvgl/src/widgets/lv_slider.c **** 
 2026              		.loc 1 300 9 is_stmt 1 view .LVU680
 300:lvgl/lvgl/src/widgets/lv_slider.c **** 
 2027              		.loc 1 300 28 is_stmt 0 view .LVU681
 2028 04f6 2046     		mov	r0, r4
 2029 04f8 FFF7FEFF 		bl	lv_event_get_param
 2030              	.LVL236:
 300:lvgl/lvgl/src/widgets/lv_slider.c **** 
 2031              		.loc 1 300 14 view .LVU682
 2032 04fc 0378     		ldrb	r3, [r0]	@ zero_extendqisi2
 2033              	.LVL237:
 302:lvgl/lvgl/src/widgets/lv_slider.c ****             if(!slider->left_knob_focus) lv_slider_set_value(obj, lv_slider_get_value(obj) + 1, LV_
 2034              		.loc 1 302 9 is_stmt 1 view .LVU683
 302:lvgl/lvgl/src/widgets/lv_slider.c ****             if(!slider->left_knob_focus) lv_slider_set_value(obj, lv_slider_get_value(obj) + 1, LV_
 2035              		.loc 1 302 11 is_stmt 0 view .LVU684
 2036 04fe 132B     		cmp	r3, #19
 2037 0500 19D0     		beq	.L90
 302:lvgl/lvgl/src/widgets/lv_slider.c ****             if(!slider->left_knob_focus) lv_slider_set_value(obj, lv_slider_get_value(obj) + 1, LV_
 2038              		.loc 1 302 30 discriminator 1 view .LVU685
 2039 0502 112B     		cmp	r3, #17
 2040 0504 17D0     		beq	.L90
 309:lvgl/lvgl/src/widgets/lv_slider.c ****             if(!slider->left_knob_focus) lv_slider_set_value(obj, lv_slider_get_value(obj) - 1, LV_
 2041              		.loc 1 309 14 is_stmt 1 view .LVU686
 309:lvgl/lvgl/src/widgets/lv_slider.c ****             if(!slider->left_knob_focus) lv_slider_set_value(obj, lv_slider_get_value(obj) - 1, LV_
 2042              		.loc 1 309 16 is_stmt 0 view .LVU687
 2043 0506 142B     		cmp	r3, #20
 2044 0508 02D0     		beq	.L94
 309:lvgl/lvgl/src/widgets/lv_slider.c ****             if(!slider->left_knob_focus) lv_slider_set_value(obj, lv_slider_get_value(obj) - 1, LV_
 2045              		.loc 1 309 34 discriminator 1 view .LVU688
 2046 050a 122B     		cmp	r3, #18
 2047 050c 7FF481AD 		bne	.L51
 2048              	.L94:
 310:lvgl/lvgl/src/widgets/lv_slider.c ****             else lv_slider_set_left_value(obj, lv_slider_get_left_value(obj) - 1, LV_ANIM_ON);
 2049              		.loc 1 310 13 is_stmt 1 view .LVU689
 310:lvgl/lvgl/src/widgets/lv_slider.c ****             else lv_slider_set_left_value(obj, lv_slider_get_left_value(obj) - 1, LV_ANIM_ON);
 2050              		.loc 1 310 16 is_stmt 0 view .LVU690
 2051 0510 95F87430 		ldrb	r3, [r5, #116]	@ zero_extendqisi2
 2052              	.LVL238:
 310:lvgl/lvgl/src/widgets/lv_slider.c ****             else lv_slider_set_left_value(obj, lv_slider_get_left_value(obj) - 1, LV_ANIM_ON);
 2053              		.loc 1 310 15 view .LVU691
 2054 0514 13F0020F 		tst	r3, #2
 2055 0518 29D1     		bne	.L95
 310:lvgl/lvgl/src/widgets/lv_slider.c ****             else lv_slider_set_left_value(obj, lv_slider_get_left_value(obj) - 1, LV_ANIM_ON);
ARM GAS  C:\Users\gx\AppData\Local\Temp\ccCs6Xqg.s 			page 64


 2056              		.loc 1 310 42 is_stmt 1 view .LVU692
 2057              	.LVL239:
 2058              	.LBB144:
 2059              	.LBI144:
 130:lvgl/lvgl/src/widgets/lv_slider.h **** {
 2060              		.loc 4 130 23 view .LVU693
 2061              	.LBB145:
 132:lvgl/lvgl/src/widgets/lv_slider.h **** }
 2062              		.loc 4 132 5 view .LVU694
 132:lvgl/lvgl/src/widgets/lv_slider.h **** }
 2063              		.loc 4 132 12 is_stmt 0 view .LVU695
 2064 051a 2846     		mov	r0, r5
 2065              	.LVL240:
 132:lvgl/lvgl/src/widgets/lv_slider.h **** }
 2066              		.loc 4 132 12 view .LVU696
 2067 051c FFF7FEFF 		bl	lv_bar_get_value
 2068              	.LVL241:
 132:lvgl/lvgl/src/widgets/lv_slider.h **** }
 2069              		.loc 4 132 12 view .LVU697
 2070              	.LBE145:
 2071              	.LBE144:
 2072              	.LBB146:
 2073              	.LBI146:
  84:lvgl/lvgl/src/widgets/lv_slider.h **** {
 2074              		.loc 4 84 20 is_stmt 1 view .LVU698
 2075              	.LBB147:
  86:lvgl/lvgl/src/widgets/lv_slider.h **** }
 2076              		.loc 4 86 5 view .LVU699
 2077 0520 0122     		movs	r2, #1
 2078 0522 411E     		subs	r1, r0, #1
 2079              	.LVL242:
  86:lvgl/lvgl/src/widgets/lv_slider.h **** }
 2080              		.loc 4 86 5 is_stmt 0 view .LVU700
 2081 0524 2846     		mov	r0, r5
 2082 0526 FFF7FEFF 		bl	lv_bar_set_value
 2083              	.LVL243:
 2084              	.L96:
  86:lvgl/lvgl/src/widgets/lv_slider.h **** }
 2085              		.loc 4 86 5 view .LVU701
 2086              	.LBE147:
 2087              	.LBE146:
 313:lvgl/lvgl/src/widgets/lv_slider.c ****             if(res != LV_RES_OK) return;
 2088              		.loc 1 313 13 is_stmt 1 view .LVU702
 313:lvgl/lvgl/src/widgets/lv_slider.c ****             if(res != LV_RES_OK) return;
 2089              		.loc 1 313 19 is_stmt 0 view .LVU703
 2090 052a 0022     		movs	r2, #0
 2091 052c 1C21     		movs	r1, #28
 2092 052e 2846     		mov	r0, r5
 2093 0530 FFF7FEFF 		bl	lv_event_send
 2094              	.LVL244:
 314:lvgl/lvgl/src/widgets/lv_slider.c ****         }
 2095              		.loc 1 314 13 is_stmt 1 view .LVU704
 2096 0534 6DE5     		b	.L51
 2097              	.LVL245:
 2098              	.L90:
 303:lvgl/lvgl/src/widgets/lv_slider.c ****             else lv_slider_set_left_value(obj, lv_slider_get_left_value(obj) + 1, LV_ANIM_ON);
 2099              		.loc 1 303 13 view .LVU705
ARM GAS  C:\Users\gx\AppData\Local\Temp\ccCs6Xqg.s 			page 65


 303:lvgl/lvgl/src/widgets/lv_slider.c ****             else lv_slider_set_left_value(obj, lv_slider_get_left_value(obj) + 1, LV_ANIM_ON);
 2100              		.loc 1 303 16 is_stmt 0 view .LVU706
 2101 0536 95F87430 		ldrb	r3, [r5, #116]	@ zero_extendqisi2
 2102              	.LVL246:
 303:lvgl/lvgl/src/widgets/lv_slider.c ****             else lv_slider_set_left_value(obj, lv_slider_get_left_value(obj) + 1, LV_ANIM_ON);
 2103              		.loc 1 303 15 view .LVU707
 2104 053a 13F0020F 		tst	r3, #2
 2105 053e 0DD1     		bne	.L92
 303:lvgl/lvgl/src/widgets/lv_slider.c ****             else lv_slider_set_left_value(obj, lv_slider_get_left_value(obj) + 1, LV_ANIM_ON);
 2106              		.loc 1 303 42 is_stmt 1 view .LVU708
 2107              	.LVL247:
 2108              	.LBB148:
 2109              	.LBI148:
 130:lvgl/lvgl/src/widgets/lv_slider.h **** {
 2110              		.loc 4 130 23 view .LVU709
 2111              	.LBB149:
 132:lvgl/lvgl/src/widgets/lv_slider.h **** }
 2112              		.loc 4 132 5 view .LVU710
 132:lvgl/lvgl/src/widgets/lv_slider.h **** }
 2113              		.loc 4 132 12 is_stmt 0 view .LVU711
 2114 0540 2846     		mov	r0, r5
 2115              	.LVL248:
 132:lvgl/lvgl/src/widgets/lv_slider.h **** }
 2116              		.loc 4 132 12 view .LVU712
 2117 0542 FFF7FEFF 		bl	lv_bar_get_value
 2118              	.LVL249:
 132:lvgl/lvgl/src/widgets/lv_slider.h **** }
 2119              		.loc 4 132 12 view .LVU713
 2120              	.LBE149:
 2121              	.LBE148:
 2122              	.LBB150:
 2123              	.LBI150:
  84:lvgl/lvgl/src/widgets/lv_slider.h **** {
 2124              		.loc 4 84 20 is_stmt 1 view .LVU714
 2125              	.LBB151:
  86:lvgl/lvgl/src/widgets/lv_slider.h **** }
 2126              		.loc 4 86 5 view .LVU715
 2127 0546 0122     		movs	r2, #1
 2128 0548 8118     		adds	r1, r0, r2
 2129              	.LVL250:
  86:lvgl/lvgl/src/widgets/lv_slider.h **** }
 2130              		.loc 4 86 5 is_stmt 0 view .LVU716
 2131 054a 2846     		mov	r0, r5
 2132 054c FFF7FEFF 		bl	lv_bar_set_value
 2133              	.LVL251:
 2134              	.L93:
  86:lvgl/lvgl/src/widgets/lv_slider.h **** }
 2135              		.loc 4 86 5 view .LVU717
 2136              	.LBE151:
 2137              	.LBE150:
 306:lvgl/lvgl/src/widgets/lv_slider.c ****             if(res != LV_RES_OK) return;
 2138              		.loc 1 306 13 is_stmt 1 view .LVU718
 306:lvgl/lvgl/src/widgets/lv_slider.c ****             if(res != LV_RES_OK) return;
 2139              		.loc 1 306 19 is_stmt 0 view .LVU719
 2140 0550 0022     		movs	r2, #0
 2141 0552 1C21     		movs	r1, #28
 2142 0554 2846     		mov	r0, r5
ARM GAS  C:\Users\gx\AppData\Local\Temp\ccCs6Xqg.s 			page 66


 2143 0556 FFF7FEFF 		bl	lv_event_send
 2144              	.LVL252:
 307:lvgl/lvgl/src/widgets/lv_slider.c ****         }
 2145              		.loc 1 307 13 is_stmt 1 view .LVU720
 2146 055a 5AE5     		b	.L51
 2147              	.LVL253:
 2148              	.L92:
 304:lvgl/lvgl/src/widgets/lv_slider.c **** 
 2149              		.loc 1 304 18 view .LVU721
 2150              	.LBB152:
 2151              	.LBI152:
 140:lvgl/lvgl/src/widgets/lv_slider.h **** {
 2152              		.loc 4 140 23 view .LVU722
 2153              	.LBB153:
 142:lvgl/lvgl/src/widgets/lv_slider.h **** }
 2154              		.loc 4 142 5 view .LVU723
 142:lvgl/lvgl/src/widgets/lv_slider.h **** }
 2155              		.loc 4 142 12 is_stmt 0 view .LVU724
 2156 055c 2846     		mov	r0, r5
 2157              	.LVL254:
 142:lvgl/lvgl/src/widgets/lv_slider.h **** }
 2158              		.loc 4 142 12 view .LVU725
 2159 055e FFF7FEFF 		bl	lv_bar_get_start_value
 2160              	.LVL255:
 142:lvgl/lvgl/src/widgets/lv_slider.h **** }
 2161              		.loc 4 142 12 view .LVU726
 2162              	.LBE153:
 2163              	.LBE152:
 2164              	.LBB154:
 2165              	.LBI154:
  95:lvgl/lvgl/src/widgets/lv_slider.h **** {
 2166              		.loc 4 95 20 is_stmt 1 view .LVU727
 2167              	.LBB155:
  97:lvgl/lvgl/src/widgets/lv_slider.h **** }
 2168              		.loc 4 97 5 view .LVU728
 2169 0562 0122     		movs	r2, #1
 2170 0564 8118     		adds	r1, r0, r2
 2171              	.LVL256:
  97:lvgl/lvgl/src/widgets/lv_slider.h **** }
 2172              		.loc 4 97 5 is_stmt 0 view .LVU729
 2173 0566 2846     		mov	r0, r5
 2174 0568 FFF7FEFF 		bl	lv_bar_set_start_value
 2175              	.LVL257:
  98:lvgl/lvgl/src/widgets/lv_slider.h **** 
 2176              		.loc 4 98 1 view .LVU730
 2177 056c F0E7     		b	.L93
 2178              	.LVL258:
 2179              	.L95:
  98:lvgl/lvgl/src/widgets/lv_slider.h **** 
 2180              		.loc 4 98 1 view .LVU731
 2181              	.LBE155:
 2182              	.LBE154:
 311:lvgl/lvgl/src/widgets/lv_slider.c **** 
 2183              		.loc 1 311 18 is_stmt 1 view .LVU732
 2184              	.LBB156:
 2185              	.LBI156:
 140:lvgl/lvgl/src/widgets/lv_slider.h **** {
ARM GAS  C:\Users\gx\AppData\Local\Temp\ccCs6Xqg.s 			page 67


 2186              		.loc 4 140 23 view .LVU733
 2187              	.LBB157:
 142:lvgl/lvgl/src/widgets/lv_slider.h **** }
 2188              		.loc 4 142 5 view .LVU734
 142:lvgl/lvgl/src/widgets/lv_slider.h **** }
 2189              		.loc 4 142 12 is_stmt 0 view .LVU735
 2190 056e 2846     		mov	r0, r5
 2191              	.LVL259:
 142:lvgl/lvgl/src/widgets/lv_slider.h **** }
 2192              		.loc 4 142 12 view .LVU736
 2193 0570 FFF7FEFF 		bl	lv_bar_get_start_value
 2194              	.LVL260:
 142:lvgl/lvgl/src/widgets/lv_slider.h **** }
 2195              		.loc 4 142 12 view .LVU737
 2196              	.LBE157:
 2197              	.LBE156:
 2198              	.LBB158:
 2199              	.LBI158:
  95:lvgl/lvgl/src/widgets/lv_slider.h **** {
 2200              		.loc 4 95 20 is_stmt 1 view .LVU738
 2201              	.LBB159:
  97:lvgl/lvgl/src/widgets/lv_slider.h **** }
 2202              		.loc 4 97 5 view .LVU739
 2203 0574 0122     		movs	r2, #1
 2204 0576 411E     		subs	r1, r0, #1
 2205              	.LVL261:
  97:lvgl/lvgl/src/widgets/lv_slider.h **** }
 2206              		.loc 4 97 5 is_stmt 0 view .LVU740
 2207 0578 2846     		mov	r0, r5
 2208 057a FFF7FEFF 		bl	lv_bar_set_start_value
 2209              	.LVL262:
  98:lvgl/lvgl/src/widgets/lv_slider.h **** 
 2210              		.loc 4 98 1 view .LVU741
 2211 057e D4E7     		b	.L96
 2212              	.LBE159:
 2213              	.LBE158:
 2214              	.LBE143:
 2215              		.cfi_endproc
 2216              	.LFE170:
 2218              		.section	.text.lv_slider_constructor,"ax",%progbits
 2219              		.align	1
 2220              		.syntax unified
 2221              		.thumb
 2222              		.thumb_func
 2223              		.fpu fpv4-sp-d16
 2225              	lv_slider_constructor:
 2226              	.LVL263:
 2227              	.LFB169:
  80:lvgl/lvgl/src/widgets/lv_slider.c ****     LV_UNUSED(class_p);
 2228              		.loc 1 80 1 is_stmt 1 view -0
 2229              		.cfi_startproc
 2230              		@ args = 0, pretend = 0, frame = 0
 2231              		@ frame_needed = 0, uses_anonymous_args = 0
  80:lvgl/lvgl/src/widgets/lv_slider.c ****     LV_UNUSED(class_p);
 2232              		.loc 1 80 1 is_stmt 0 view .LVU743
 2233 0000 38B5     		push	{r3, r4, r5, lr}
 2234              	.LCFI9:
ARM GAS  C:\Users\gx\AppData\Local\Temp\ccCs6Xqg.s 			page 68


 2235              		.cfi_def_cfa_offset 16
 2236              		.cfi_offset 3, -16
 2237              		.cfi_offset 4, -12
 2238              		.cfi_offset 5, -8
 2239              		.cfi_offset 14, -4
 2240 0002 0C46     		mov	r4, r1
  81:lvgl/lvgl/src/widgets/lv_slider.c ****     lv_slider_t * slider = (lv_slider_t *)obj;
 2241              		.loc 1 81 5 is_stmt 1 view .LVU744
  82:lvgl/lvgl/src/widgets/lv_slider.c **** 
 2242              		.loc 1 82 5 view .LVU745
 2243              	.LVL264:
  85:lvgl/lvgl/src/widgets/lv_slider.c ****     slider->dragging = 0;
 2244              		.loc 1 85 5 view .LVU746
  85:lvgl/lvgl/src/widgets/lv_slider.c ****     slider->dragging = 0;
 2245              		.loc 1 85 26 is_stmt 0 view .LVU747
 2246 0004 0025     		movs	r5, #0
 2247 0006 0D67     		str	r5, [r1, #112]
  86:lvgl/lvgl/src/widgets/lv_slider.c ****     slider->left_knob_focus = 0;
 2248              		.loc 1 86 5 is_stmt 1 view .LVU748
  86:lvgl/lvgl/src/widgets/lv_slider.c ****     slider->left_knob_focus = 0;
 2249              		.loc 1 86 22 is_stmt 0 view .LVU749
 2250 0008 91F87430 		ldrb	r3, [r1, #116]	@ zero_extendqisi2
  87:lvgl/lvgl/src/widgets/lv_slider.c **** 
 2251              		.loc 1 87 5 is_stmt 1 view .LVU750
  87:lvgl/lvgl/src/widgets/lv_slider.c **** 
 2252              		.loc 1 87 29 is_stmt 0 view .LVU751
 2253 000c 03F0FE03 		and	r3, r3, #254
 2254 0010 65F34103 		bfi	r3, r5, #1, #1
 2255 0014 81F87430 		strb	r3, [r1, #116]
  89:lvgl/lvgl/src/widgets/lv_slider.c ****     lv_obj_clear_flag(obj, LV_OBJ_FLAG_SCROLLABLE);
 2256              		.loc 1 89 5 is_stmt 1 view .LVU752
 2257 0018 4FF48071 		mov	r1, #256
 2258              	.LVL265:
  89:lvgl/lvgl/src/widgets/lv_slider.c ****     lv_obj_clear_flag(obj, LV_OBJ_FLAG_SCROLLABLE);
 2259              		.loc 1 89 5 is_stmt 0 view .LVU753
 2260 001c 2046     		mov	r0, r4
 2261              	.LVL266:
  89:lvgl/lvgl/src/widgets/lv_slider.c ****     lv_obj_clear_flag(obj, LV_OBJ_FLAG_SCROLLABLE);
 2262              		.loc 1 89 5 view .LVU754
 2263 001e FFF7FEFF 		bl	lv_obj_clear_flag
 2264              	.LVL267:
  90:lvgl/lvgl/src/widgets/lv_slider.c ****     lv_obj_set_ext_click_area(obj, LV_DPX(8));
 2265              		.loc 1 90 5 is_stmt 1 view .LVU755
 2266 0022 1021     		movs	r1, #16
 2267 0024 2046     		mov	r0, r4
 2268 0026 FFF7FEFF 		bl	lv_obj_clear_flag
 2269              	.LVL268:
  91:lvgl/lvgl/src/widgets/lv_slider.c **** }
 2270              		.loc 1 91 5 view .LVU756
  91:lvgl/lvgl/src/widgets/lv_slider.c **** }
 2271              		.loc 1 91 36 is_stmt 0 view .LVU757
 2272 002a 2846     		mov	r0, r5
 2273 002c FFF7FEFF 		bl	lv_disp_get_dpi
 2274              	.LVL269:
  91:lvgl/lvgl/src/widgets/lv_slider.c **** }
 2275              		.loc 1 91 5 view .LVU758
 2276 0030 1D28     		cmp	r0, #29
ARM GAS  C:\Users\gx\AppData\Local\Temp\ccCs6Xqg.s 			page 69


 2277 0032 04DC     		bgt	.L120
 2278 0034 0121     		movs	r1, #1
 2279              	.L117:
  91:lvgl/lvgl/src/widgets/lv_slider.c **** }
 2280              		.loc 1 91 5 discriminator 4 view .LVU759
 2281 0036 2046     		mov	r0, r4
 2282 0038 FFF7FEFF 		bl	lv_obj_set_ext_click_area
 2283              	.LVL270:
  92:lvgl/lvgl/src/widgets/lv_slider.c **** 
 2284              		.loc 1 92 1 discriminator 4 view .LVU760
 2285 003c 38BD     		pop	{r3, r4, r5, pc}
 2286              	.LVL271:
 2287              	.L120:
  91:lvgl/lvgl/src/widgets/lv_slider.c **** }
 2288              		.loc 1 91 36 discriminator 1 view .LVU761
 2289 003e 2846     		mov	r0, r5
 2290 0040 FFF7FEFF 		bl	lv_disp_get_dpi
 2291              	.LVL272:
 2292 0044 0A30     		adds	r0, r0, #10
 2293 0046 044B     		ldr	r3, .L121
 2294 0048 83FB0023 		smull	r2, r3, r3, r0
 2295 004c C117     		asrs	r1, r0, #31
 2296 004e C1EBE301 		rsb	r1, r1, r3, asr #3
  91:lvgl/lvgl/src/widgets/lv_slider.c **** }
 2297              		.loc 1 91 5 discriminator 1 view .LVU762
 2298 0052 09B2     		sxth	r1, r1
 2299 0054 EFE7     		b	.L117
 2300              	.L122:
 2301 0056 00BF     		.align	2
 2302              	.L121:
 2303 0058 67666666 		.word	1717986919
 2304              		.cfi_endproc
 2305              	.LFE169:
 2307              		.section	.text.lv_slider_create,"ax",%progbits
 2308              		.align	1
 2309              		.global	lv_slider_create
 2310              		.syntax unified
 2311              		.thumb
 2312              		.thumb_func
 2313              		.fpu fpv4-sp-d16
 2315              	lv_slider_create:
 2316              	.LVL273:
 2317              	.LFB167:
  60:lvgl/lvgl/src/widgets/lv_slider.c ****     LV_LOG_INFO("begin")
 2318              		.loc 1 60 1 is_stmt 1 view -0
 2319              		.cfi_startproc
 2320              		@ args = 0, pretend = 0, frame = 0
 2321              		@ frame_needed = 0, uses_anonymous_args = 0
  60:lvgl/lvgl/src/widgets/lv_slider.c ****     LV_LOG_INFO("begin")
 2322              		.loc 1 60 1 is_stmt 0 view .LVU764
 2323 0000 10B5     		push	{r4, lr}
 2324              	.LCFI10:
 2325              		.cfi_def_cfa_offset 8
 2326              		.cfi_offset 4, -8
 2327              		.cfi_offset 14, -4
 2328 0002 0146     		mov	r1, r0
  61:lvgl/lvgl/src/widgets/lv_slider.c ****     lv_obj_t * obj = lv_obj_class_create_obj(MY_CLASS, parent);
ARM GAS  C:\Users\gx\AppData\Local\Temp\ccCs6Xqg.s 			page 70


 2329              		.loc 1 61 5 is_stmt 1 view .LVU765
  61:lvgl/lvgl/src/widgets/lv_slider.c ****     lv_obj_t * obj = lv_obj_class_create_obj(MY_CLASS, parent);
 2330              		.loc 1 61 5 view .LVU766
  61:lvgl/lvgl/src/widgets/lv_slider.c ****     lv_obj_t * obj = lv_obj_class_create_obj(MY_CLASS, parent);
 2331              		.loc 1 61 5 view .LVU767
  62:lvgl/lvgl/src/widgets/lv_slider.c ****     lv_obj_class_init_obj(obj);
 2332              		.loc 1 62 5 view .LVU768
  62:lvgl/lvgl/src/widgets/lv_slider.c ****     lv_obj_class_init_obj(obj);
 2333              		.loc 1 62 22 is_stmt 0 view .LVU769
 2334 0004 0348     		ldr	r0, .L125
 2335              	.LVL274:
  62:lvgl/lvgl/src/widgets/lv_slider.c ****     lv_obj_class_init_obj(obj);
 2336              		.loc 1 62 22 view .LVU770
 2337 0006 FFF7FEFF 		bl	lv_obj_class_create_obj
 2338              	.LVL275:
  62:lvgl/lvgl/src/widgets/lv_slider.c ****     lv_obj_class_init_obj(obj);
 2339              		.loc 1 62 22 view .LVU771
 2340 000a 0446     		mov	r4, r0
 2341              	.LVL276:
  63:lvgl/lvgl/src/widgets/lv_slider.c ****     return obj;
 2342              		.loc 1 63 5 is_stmt 1 view .LVU772
 2343 000c FFF7FEFF 		bl	lv_obj_class_init_obj
 2344              	.LVL277:
  64:lvgl/lvgl/src/widgets/lv_slider.c **** }
 2345              		.loc 1 64 5 view .LVU773
  65:lvgl/lvgl/src/widgets/lv_slider.c **** 
 2346              		.loc 1 65 1 is_stmt 0 view .LVU774
 2347 0010 2046     		mov	r0, r4
 2348 0012 10BD     		pop	{r4, pc}
 2349              	.LVL278:
 2350              	.L126:
  65:lvgl/lvgl/src/widgets/lv_slider.c **** 
 2351              		.loc 1 65 1 view .LVU775
 2352              		.align	2
 2353              	.L125:
 2354 0014 00000000 		.word	.LANCHOR0
 2355              		.cfi_endproc
 2356              	.LFE167:
 2358              		.section	.text.lv_slider_is_dragged,"ax",%progbits
 2359              		.align	1
 2360              		.global	lv_slider_is_dragged
 2361              		.syntax unified
 2362              		.thumb
 2363              		.thumb_func
 2364              		.fpu fpv4-sp-d16
 2366              	lv_slider_is_dragged:
 2367              	.LVL279:
 2368              	.LFB168:
  68:lvgl/lvgl/src/widgets/lv_slider.c ****     LV_ASSERT_OBJ(obj, MY_CLASS);
 2369              		.loc 1 68 1 is_stmt 1 view -0
 2370              		.cfi_startproc
 2371              		@ args = 0, pretend = 0, frame = 0
 2372              		@ frame_needed = 0, uses_anonymous_args = 0
 2373              		@ link register save eliminated.
  69:lvgl/lvgl/src/widgets/lv_slider.c ****     lv_slider_t * slider = (lv_slider_t *)obj;
 2374              		.loc 1 69 5 view .LVU777
  69:lvgl/lvgl/src/widgets/lv_slider.c ****     lv_slider_t * slider = (lv_slider_t *)obj;
ARM GAS  C:\Users\gx\AppData\Local\Temp\ccCs6Xqg.s 			page 71


 2375              		.loc 1 69 5 view .LVU778
  69:lvgl/lvgl/src/widgets/lv_slider.c ****     lv_slider_t * slider = (lv_slider_t *)obj;
 2376              		.loc 1 69 5 view .LVU779
  70:lvgl/lvgl/src/widgets/lv_slider.c **** 
 2377              		.loc 1 70 5 view .LVU780
  72:lvgl/lvgl/src/widgets/lv_slider.c **** }
 2378              		.loc 1 72 5 view .LVU781
  72:lvgl/lvgl/src/widgets/lv_slider.c **** }
 2379              		.loc 1 72 29 is_stmt 0 view .LVU782
 2380 0000 90F87400 		ldrb	r0, [r0, #116]	@ zero_extendqisi2
 2381              	.LVL280:
  73:lvgl/lvgl/src/widgets/lv_slider.c **** 
 2382              		.loc 1 73 1 view .LVU783
 2383 0004 00F00100 		and	r0, r0, #1
 2384 0008 7047     		bx	lr
 2385              		.cfi_endproc
 2386              	.LFE168:
 2388              		.global	lv_slider_class
 2389              		.section	.rodata.lv_slider_class,"a"
 2390              		.align	2
 2391              		.set	.LANCHOR0,. + 0
 2394              	lv_slider_class:
 2395 0000 00000000 		.word	lv_bar_class
 2396 0004 00000000 		.word	lv_slider_constructor
 2397 0008 00000000 		.space	8
 2397      00000000 
 2398 0010 00000000 		.word	lv_slider_event
 2399 0014 00000000 		.space	4
 2400 0018 85       		.byte	133
 2401 0019 07       		.byte	7
 2402 001a 00       		.byte	0
 2403 001b 00       		.space	1
 2404              		.text
 2405              	.Letext0:
 2406              		.file 5 "c:\\program files (x86)\\gnu arm embedded toolchain\\9 2020-q2-update\\arm-none-eabi\\inc
 2407              		.file 6 "c:\\program files (x86)\\gnu arm embedded toolchain\\9 2020-q2-update\\arm-none-eabi\\inc
 2408              		.file 7 "c:\\program files (x86)\\gnu arm embedded toolchain\\9 2020-q2-update\\lib\\gcc\\arm-none
 2409              		.file 8 "c:\\program files (x86)\\gnu arm embedded toolchain\\9 2020-q2-update\\arm-none-eabi\\inc
 2410              		.file 9 "c:\\program files (x86)\\gnu arm embedded toolchain\\9 2020-q2-update\\arm-none-eabi\\inc
 2411              		.file 10 "c:\\program files (x86)\\gnu arm embedded toolchain\\9 2020-q2-update\\arm-none-eabi\\in
 2412              		.file 11 "d:\\practise\\f407_disc\\lvgl\\lvgl\\src\\font\\lv_font.h"
 2413              		.file 12 "lvgl/lvgl/src/widgets/../core/../misc/lv_types.h"
 2414              		.file 13 "lvgl/lvgl/src/widgets/../core/../misc/lv_color.h"
 2415              		.file 14 "lvgl/lvgl/src/widgets/../core/../misc/lv_anim.h"
 2416              		.file 15 "lvgl/lvgl/src/widgets/../core/../misc/lv_txt.h"
 2417              		.file 16 "lvgl/lvgl/src/widgets/../core/../misc/lv_bidi.h"
 2418              		.file 17 "lvgl/lvgl/src/widgets/../core/../misc/lv_style.h"
 2419              		.file 18 "d:\\practise\\f407_disc\\lvgl\\lvgl\\src\\misc\\lv_ll.h"
 2420              		.file 19 "d:\\practise\\f407_disc\\lvgl\\lvgl\\src\\misc\\lv_timer.h"
 2421              		.file 20 "lvgl/lvgl/src/widgets/../core/../hal/lv_hal_disp.h"
 2422              		.file 21 "lvgl/lvgl/src/widgets/../core/lv_theme.h"
 2423              		.file 22 "lvgl/lvgl/src/widgets/../core/lv_obj.h"
 2424              		.file 23 "lvgl/lvgl/src/widgets/../core/../hal/lv_hal_indev.h"
 2425              		.file 24 "lvgl/lvgl/src/widgets/../core/lv_group.h"
 2426              		.file 25 "lvgl/lvgl/src/widgets/../core/lv_obj_scroll.h"
 2427              		.file 26 "lvgl/lvgl/src/widgets/../core/lv_obj_style.h"
 2428              		.file 27 "lvgl/lvgl/src/widgets/../core/../draw/lv_draw_rect.h"
ARM GAS  C:\Users\gx\AppData\Local\Temp\ccCs6Xqg.s 			page 72


 2429              		.file 28 "lvgl/lvgl/src/widgets/../core/../draw/lv_draw_label.h"
 2430              		.file 29 "lvgl/lvgl/src/widgets/../core/../draw/lv_draw_img.h"
 2431              		.file 30 "lvgl/lvgl/src/widgets/../core/../draw/lv_draw_line.h"
 2432              		.file 31 "lvgl/lvgl/src/widgets/../core/../draw/lv_draw_arc.h"
 2433              		.file 32 "lvgl/lvgl/src/widgets/../core/lv_obj_draw.h"
 2434              		.file 33 "lvgl/lvgl/src/widgets/../core/lv_obj_class.h"
 2435              		.file 34 "lvgl/lvgl/src/widgets/../core/lv_event.h"
 2436              		.file 35 "lvgl/lvgl/src/widgets/lv_btn.h"
 2437              		.file 36 "lvgl/lvgl/src/widgets/lv_label.h"
 2438              		.file 37 "lvgl/lvgl/src/widgets/lv_bar.h"
 2439              		.file 38 "lvgl/lvgl/src/widgets/lv_img.h"
 2440              		.file 39 "d:\\practise\\f407_disc\\lvgl\\lvgl\\src\\misc\\lv_mem.h"
 2441              		.file 40 "lvgl/lvgl/src/widgets/../core/lv_obj_pos.h"
 2442              		.file 41 "lvgl/lvgl/src/widgets/../core/lv_indev.h"
ARM GAS  C:\Users\gx\AppData\Local\Temp\ccCs6Xqg.s 			page 73

