ARM GAS  C:\Users\gx\AppData\Local\Temp\ccSIsGPa.s 			page 1


   1              		.cpu cortex-m4
   2              		.eabi_attribute 27, 1
   3              		.eabi_attribute 28, 1
   4              		.eabi_attribute 20, 1
   5              		.eabi_attribute 21, 1
   6              		.eabi_attribute 23, 3
   7              		.eabi_attribute 24, 1
   8              		.eabi_attribute 25, 1
   9              		.eabi_attribute 26, 1
  10              		.eabi_attribute 30, 1
  11              		.eabi_attribute 34, 1
  12              		.eabi_attribute 18, 4
  13              		.file	"lv_table.c"
  14              		.text
  15              	.Ltext0:
  16              		.cfi_sections	.debug_frame
  17              		.section	.text.get_row_height,"ax",%progbits
  18              		.align	1
  19              		.arch armv7e-m
  20              		.syntax unified
  21              		.thumb
  22              		.thumb_func
  23              		.fpu fpv4-sp-d16
  25              	get_row_height:
  26              	.LVL0:
  27              	.LFB171:
  28              		.file 1 "lvgl/lvgl/src/widgets/lv_table.c"
   1:lvgl/lvgl/src/widgets/lv_table.c **** /**
   2:lvgl/lvgl/src/widgets/lv_table.c ****  * @file lv_table.c
   3:lvgl/lvgl/src/widgets/lv_table.c ****  *
   4:lvgl/lvgl/src/widgets/lv_table.c ****  */
   5:lvgl/lvgl/src/widgets/lv_table.c **** 
   6:lvgl/lvgl/src/widgets/lv_table.c **** /*********************
   7:lvgl/lvgl/src/widgets/lv_table.c ****  *      INCLUDES
   8:lvgl/lvgl/src/widgets/lv_table.c ****  *********************/
   9:lvgl/lvgl/src/widgets/lv_table.c **** #include "lv_table.h"
  10:lvgl/lvgl/src/widgets/lv_table.c **** #if LV_USE_TABLE != 0
  11:lvgl/lvgl/src/widgets/lv_table.c **** 
  12:lvgl/lvgl/src/widgets/lv_table.c **** #include "../core/lv_indev.h"
  13:lvgl/lvgl/src/widgets/lv_table.c **** #include "../misc/lv_assert.h"
  14:lvgl/lvgl/src/widgets/lv_table.c **** #include "../misc/lv_txt.h"
  15:lvgl/lvgl/src/widgets/lv_table.c **** #include "../misc/lv_txt_ap.h"
  16:lvgl/lvgl/src/widgets/lv_table.c **** #include "../misc/lv_math.h"
  17:lvgl/lvgl/src/widgets/lv_table.c **** #include "../misc/lv_printf.h"
  18:lvgl/lvgl/src/widgets/lv_table.c **** #include "../draw/lv_draw.h"
  19:lvgl/lvgl/src/widgets/lv_table.c **** 
  20:lvgl/lvgl/src/widgets/lv_table.c **** /*********************
  21:lvgl/lvgl/src/widgets/lv_table.c ****  *      DEFINES
  22:lvgl/lvgl/src/widgets/lv_table.c ****  *********************/
  23:lvgl/lvgl/src/widgets/lv_table.c **** #define MY_CLASS &lv_table_class
  24:lvgl/lvgl/src/widgets/lv_table.c **** 
  25:lvgl/lvgl/src/widgets/lv_table.c **** /**********************
  26:lvgl/lvgl/src/widgets/lv_table.c ****  *      TYPEDEFS
  27:lvgl/lvgl/src/widgets/lv_table.c ****  **********************/
  28:lvgl/lvgl/src/widgets/lv_table.c **** 
  29:lvgl/lvgl/src/widgets/lv_table.c **** /**********************
  30:lvgl/lvgl/src/widgets/lv_table.c ****  *  STATIC PROTOTYPES
ARM GAS  C:\Users\gx\AppData\Local\Temp\ccSIsGPa.s 			page 2


  31:lvgl/lvgl/src/widgets/lv_table.c ****  **********************/
  32:lvgl/lvgl/src/widgets/lv_table.c **** static void lv_table_constructor(const lv_obj_class_t * class_p, lv_obj_t * obj);
  33:lvgl/lvgl/src/widgets/lv_table.c **** static void lv_table_destructor(const lv_obj_class_t * class_p, lv_obj_t * obj);
  34:lvgl/lvgl/src/widgets/lv_table.c **** static void lv_table_event(const lv_obj_class_t * class_p, lv_event_t * e);
  35:lvgl/lvgl/src/widgets/lv_table.c **** static void draw_main(lv_event_t * e);
  36:lvgl/lvgl/src/widgets/lv_table.c **** static lv_coord_t get_row_height(lv_obj_t * obj, uint16_t row_id, const lv_font_t * font,
  37:lvgl/lvgl/src/widgets/lv_table.c ****                                  lv_coord_t letter_space, lv_coord_t line_space,
  38:lvgl/lvgl/src/widgets/lv_table.c ****                                  lv_coord_t cell_left, lv_coord_t cell_right, lv_coord_t cell_top, 
  39:lvgl/lvgl/src/widgets/lv_table.c **** static void refr_size(lv_obj_t * obj, uint32_t strat_row);
  40:lvgl/lvgl/src/widgets/lv_table.c **** static lv_res_t get_pressed_cell(lv_obj_t * obj, uint16_t * row, uint16_t * col);
  41:lvgl/lvgl/src/widgets/lv_table.c **** 
  42:lvgl/lvgl/src/widgets/lv_table.c **** /**********************
  43:lvgl/lvgl/src/widgets/lv_table.c ****  *  STATIC VARIABLES
  44:lvgl/lvgl/src/widgets/lv_table.c ****  **********************/
  45:lvgl/lvgl/src/widgets/lv_table.c **** const lv_obj_class_t lv_table_class  = {
  46:lvgl/lvgl/src/widgets/lv_table.c ****     .constructor_cb = lv_table_constructor,
  47:lvgl/lvgl/src/widgets/lv_table.c ****     .destructor_cb = lv_table_destructor,
  48:lvgl/lvgl/src/widgets/lv_table.c ****     .event_cb = lv_table_event,
  49:lvgl/lvgl/src/widgets/lv_table.c ****     .width_def = LV_SIZE_CONTENT,
  50:lvgl/lvgl/src/widgets/lv_table.c ****     .height_def = LV_SIZE_CONTENT,
  51:lvgl/lvgl/src/widgets/lv_table.c ****     .base_class = &lv_obj_class,
  52:lvgl/lvgl/src/widgets/lv_table.c ****     .editable = LV_OBJ_CLASS_EDITABLE_TRUE,
  53:lvgl/lvgl/src/widgets/lv_table.c ****     .group_def = LV_OBJ_CLASS_GROUP_DEF_TRUE,
  54:lvgl/lvgl/src/widgets/lv_table.c ****     .instance_size = sizeof(lv_table_t),
  55:lvgl/lvgl/src/widgets/lv_table.c **** };
  56:lvgl/lvgl/src/widgets/lv_table.c **** /**********************
  57:lvgl/lvgl/src/widgets/lv_table.c ****  *      MACROS
  58:lvgl/lvgl/src/widgets/lv_table.c ****  **********************/
  59:lvgl/lvgl/src/widgets/lv_table.c **** 
  60:lvgl/lvgl/src/widgets/lv_table.c **** /**********************
  61:lvgl/lvgl/src/widgets/lv_table.c ****  *   GLOBAL FUNCTIONS
  62:lvgl/lvgl/src/widgets/lv_table.c ****  **********************/
  63:lvgl/lvgl/src/widgets/lv_table.c **** 
  64:lvgl/lvgl/src/widgets/lv_table.c **** lv_obj_t * lv_table_create(lv_obj_t * parent)
  65:lvgl/lvgl/src/widgets/lv_table.c **** {
  66:lvgl/lvgl/src/widgets/lv_table.c ****     LV_LOG_INFO("begin")
  67:lvgl/lvgl/src/widgets/lv_table.c ****     lv_obj_t * obj = lv_obj_class_create_obj(MY_CLASS, parent);
  68:lvgl/lvgl/src/widgets/lv_table.c ****     lv_obj_class_init_obj(obj);
  69:lvgl/lvgl/src/widgets/lv_table.c ****     return obj;
  70:lvgl/lvgl/src/widgets/lv_table.c **** }
  71:lvgl/lvgl/src/widgets/lv_table.c **** 
  72:lvgl/lvgl/src/widgets/lv_table.c **** /*=====================
  73:lvgl/lvgl/src/widgets/lv_table.c ****  * Setter functions
  74:lvgl/lvgl/src/widgets/lv_table.c ****  *====================*/
  75:lvgl/lvgl/src/widgets/lv_table.c **** 
  76:lvgl/lvgl/src/widgets/lv_table.c **** void lv_table_set_cell_value(lv_obj_t * obj, uint16_t row, uint16_t col, const char * txt)
  77:lvgl/lvgl/src/widgets/lv_table.c **** {
  78:lvgl/lvgl/src/widgets/lv_table.c ****     LV_ASSERT_OBJ(obj, MY_CLASS);
  79:lvgl/lvgl/src/widgets/lv_table.c ****     LV_ASSERT_NULL(txt);
  80:lvgl/lvgl/src/widgets/lv_table.c **** 
  81:lvgl/lvgl/src/widgets/lv_table.c ****     lv_table_t * table = (lv_table_t *)obj;
  82:lvgl/lvgl/src/widgets/lv_table.c **** 
  83:lvgl/lvgl/src/widgets/lv_table.c ****     /*Auto expand*/
  84:lvgl/lvgl/src/widgets/lv_table.c ****     if(col >= table->col_cnt) lv_table_set_col_cnt(obj, col + 1);
  85:lvgl/lvgl/src/widgets/lv_table.c ****     if(row >= table->row_cnt) lv_table_set_row_cnt(obj, row + 1);
  86:lvgl/lvgl/src/widgets/lv_table.c **** 
  87:lvgl/lvgl/src/widgets/lv_table.c ****     uint32_t cell = row * table->col_cnt + col;
ARM GAS  C:\Users\gx\AppData\Local\Temp\ccSIsGPa.s 			page 3


  88:lvgl/lvgl/src/widgets/lv_table.c ****     lv_table_cell_ctrl_t ctrl = 0;
  89:lvgl/lvgl/src/widgets/lv_table.c **** 
  90:lvgl/lvgl/src/widgets/lv_table.c ****     /*Save the control byte*/
  91:lvgl/lvgl/src/widgets/lv_table.c ****     if(table->cell_data[cell]) ctrl = table->cell_data[cell][0];
  92:lvgl/lvgl/src/widgets/lv_table.c **** 
  93:lvgl/lvgl/src/widgets/lv_table.c **** #if LV_USE_ARABIC_PERSIAN_CHARS
  94:lvgl/lvgl/src/widgets/lv_table.c ****     /*Get the size of the Arabic text and process it*/
  95:lvgl/lvgl/src/widgets/lv_table.c ****     size_t len_ap = _lv_txt_ap_calc_bytes_cnt(txt);
  96:lvgl/lvgl/src/widgets/lv_table.c ****     table->cell_data[cell] = lv_mem_realloc(table->cell_data[cell], len_ap + 1);
  97:lvgl/lvgl/src/widgets/lv_table.c ****     LV_ASSERT_MALLOC(table->cell_data[cell]);
  98:lvgl/lvgl/src/widgets/lv_table.c ****     if(table->cell_data[cell] == NULL) return;
  99:lvgl/lvgl/src/widgets/lv_table.c **** 
 100:lvgl/lvgl/src/widgets/lv_table.c ****     _lv_txt_ap_proc(txt, &table->cell_data[cell][1]);
 101:lvgl/lvgl/src/widgets/lv_table.c **** #else
 102:lvgl/lvgl/src/widgets/lv_table.c ****     table->cell_data[cell] = lv_mem_realloc(table->cell_data[cell], strlen(txt) + 2); /*+1: trailin
 103:lvgl/lvgl/src/widgets/lv_table.c ****     LV_ASSERT_MALLOC(table->cell_data[cell]);
 104:lvgl/lvgl/src/widgets/lv_table.c **** 
 105:lvgl/lvgl/src/widgets/lv_table.c ****     strcpy(table->cell_data[cell] + 1, txt);  /*+1 to skip the format byte*/
 106:lvgl/lvgl/src/widgets/lv_table.c **** #endif
 107:lvgl/lvgl/src/widgets/lv_table.c **** 
 108:lvgl/lvgl/src/widgets/lv_table.c ****     table->cell_data[cell][0] = ctrl;
 109:lvgl/lvgl/src/widgets/lv_table.c ****     refr_size(obj, row);
 110:lvgl/lvgl/src/widgets/lv_table.c **** 
 111:lvgl/lvgl/src/widgets/lv_table.c ****     lv_obj_invalidate(obj);
 112:lvgl/lvgl/src/widgets/lv_table.c **** }
 113:lvgl/lvgl/src/widgets/lv_table.c **** 
 114:lvgl/lvgl/src/widgets/lv_table.c **** void lv_table_set_cell_value_fmt(lv_obj_t * obj, uint16_t row, uint16_t col, const char * fmt, ...)
 115:lvgl/lvgl/src/widgets/lv_table.c **** {
 116:lvgl/lvgl/src/widgets/lv_table.c ****     LV_ASSERT_OBJ(obj, MY_CLASS);
 117:lvgl/lvgl/src/widgets/lv_table.c ****     LV_ASSERT_NULL(fmt);
 118:lvgl/lvgl/src/widgets/lv_table.c **** 
 119:lvgl/lvgl/src/widgets/lv_table.c ****     lv_table_t * table = (lv_table_t *)obj;
 120:lvgl/lvgl/src/widgets/lv_table.c ****     if(col >= table->col_cnt) {
 121:lvgl/lvgl/src/widgets/lv_table.c ****         LV_LOG_WARN("lv_table_set_cell_value: invalid column");
 122:lvgl/lvgl/src/widgets/lv_table.c ****         return;
 123:lvgl/lvgl/src/widgets/lv_table.c ****     }
 124:lvgl/lvgl/src/widgets/lv_table.c **** 
 125:lvgl/lvgl/src/widgets/lv_table.c ****     /*Auto expand*/
 126:lvgl/lvgl/src/widgets/lv_table.c ****     if(row >= table->row_cnt) {
 127:lvgl/lvgl/src/widgets/lv_table.c ****         lv_table_set_row_cnt(obj, row + 1);
 128:lvgl/lvgl/src/widgets/lv_table.c ****     }
 129:lvgl/lvgl/src/widgets/lv_table.c **** 
 130:lvgl/lvgl/src/widgets/lv_table.c ****     uint32_t cell = row * table->col_cnt + col;
 131:lvgl/lvgl/src/widgets/lv_table.c ****     lv_table_cell_ctrl_t ctrl = 0;
 132:lvgl/lvgl/src/widgets/lv_table.c **** 
 133:lvgl/lvgl/src/widgets/lv_table.c ****     /*Save the control byte*/
 134:lvgl/lvgl/src/widgets/lv_table.c ****     if(table->cell_data[cell]) ctrl= table->cell_data[cell][0];
 135:lvgl/lvgl/src/widgets/lv_table.c **** 
 136:lvgl/lvgl/src/widgets/lv_table.c ****     va_list ap, ap2;
 137:lvgl/lvgl/src/widgets/lv_table.c ****     va_start(ap, fmt);
 138:lvgl/lvgl/src/widgets/lv_table.c ****     va_copy(ap2, ap);
 139:lvgl/lvgl/src/widgets/lv_table.c **** 
 140:lvgl/lvgl/src/widgets/lv_table.c ****     /*Allocate space for the new text by using trick from C99 standard section 7.19.6.12*/
 141:lvgl/lvgl/src/widgets/lv_table.c ****     uint32_t len = lv_vsnprintf(NULL, 0, fmt, ap);
 142:lvgl/lvgl/src/widgets/lv_table.c ****     va_end(ap);
 143:lvgl/lvgl/src/widgets/lv_table.c **** 
 144:lvgl/lvgl/src/widgets/lv_table.c **** #if LV_USE_ARABIC_PERSIAN_CHARS
ARM GAS  C:\Users\gx\AppData\Local\Temp\ccSIsGPa.s 			page 4


 145:lvgl/lvgl/src/widgets/lv_table.c ****     /*Put together the text according to the format string*/
 146:lvgl/lvgl/src/widgets/lv_table.c ****     char * raw_txt = lv_mem_buf_get(len + 1);
 147:lvgl/lvgl/src/widgets/lv_table.c ****     LV_ASSERT_MALLOC(raw_txt);
 148:lvgl/lvgl/src/widgets/lv_table.c ****     if(raw_txt == NULL) {
 149:lvgl/lvgl/src/widgets/lv_table.c ****         va_end(ap2);
 150:lvgl/lvgl/src/widgets/lv_table.c ****         return;
 151:lvgl/lvgl/src/widgets/lv_table.c ****     }
 152:lvgl/lvgl/src/widgets/lv_table.c **** 
 153:lvgl/lvgl/src/widgets/lv_table.c ****     lv_vsnprintf(raw_txt, len + 1, fmt, ap2);
 154:lvgl/lvgl/src/widgets/lv_table.c **** 
 155:lvgl/lvgl/src/widgets/lv_table.c ****     /*Get the size of the Arabic text and process it*/
 156:lvgl/lvgl/src/widgets/lv_table.c ****     size_t len_ap = _lv_txt_ap_calc_bytes_cnt(raw_txt);
 157:lvgl/lvgl/src/widgets/lv_table.c ****     table->cell_data[cell] = lv_mem_realloc(table->cell_data[cell], len_ap + 1);
 158:lvgl/lvgl/src/widgets/lv_table.c ****     LV_ASSERT_MALLOC(table->cell_data[cell]);
 159:lvgl/lvgl/src/widgets/lv_table.c ****     if(table->cell_data[cell] == NULL) {
 160:lvgl/lvgl/src/widgets/lv_table.c ****         va_end(ap2);
 161:lvgl/lvgl/src/widgets/lv_table.c ****         return;
 162:lvgl/lvgl/src/widgets/lv_table.c ****     }
 163:lvgl/lvgl/src/widgets/lv_table.c ****     _lv_txt_ap_proc(raw_txt, &table->cell_data[cell][1]);
 164:lvgl/lvgl/src/widgets/lv_table.c **** 
 165:lvgl/lvgl/src/widgets/lv_table.c ****     lv_mem_buf_release(raw_txt);
 166:lvgl/lvgl/src/widgets/lv_table.c **** #else
 167:lvgl/lvgl/src/widgets/lv_table.c ****     table->cell_data[cell] = lv_mem_realloc(table->cell_data[cell], len + 2); /*+1: trailing '\0; +
 168:lvgl/lvgl/src/widgets/lv_table.c ****     LV_ASSERT_MALLOC(table->cell_data[cell]);
 169:lvgl/lvgl/src/widgets/lv_table.c ****     if(table->cell_data[cell] == NULL) {
 170:lvgl/lvgl/src/widgets/lv_table.c ****         va_end(ap2);
 171:lvgl/lvgl/src/widgets/lv_table.c ****         return;
 172:lvgl/lvgl/src/widgets/lv_table.c ****     }
 173:lvgl/lvgl/src/widgets/lv_table.c **** 
 174:lvgl/lvgl/src/widgets/lv_table.c ****     table->cell_data[cell][len + 1] = 0; /*Ensure NULL termination*/
 175:lvgl/lvgl/src/widgets/lv_table.c **** 
 176:lvgl/lvgl/src/widgets/lv_table.c ****     lv_vsnprintf(&table->cell_data[cell][1], len + 1, fmt, ap2);
 177:lvgl/lvgl/src/widgets/lv_table.c **** #endif
 178:lvgl/lvgl/src/widgets/lv_table.c **** 
 179:lvgl/lvgl/src/widgets/lv_table.c ****     va_end(ap2);
 180:lvgl/lvgl/src/widgets/lv_table.c **** 
 181:lvgl/lvgl/src/widgets/lv_table.c ****     table->cell_data[cell][0] = ctrl;
 182:lvgl/lvgl/src/widgets/lv_table.c **** 
 183:lvgl/lvgl/src/widgets/lv_table.c ****     /*Refresh the row height*/
 184:lvgl/lvgl/src/widgets/lv_table.c ****     lv_coord_t cell_left = lv_obj_get_style_pad_left(obj, LV_PART_ITEMS);
 185:lvgl/lvgl/src/widgets/lv_table.c ****     lv_coord_t cell_right = lv_obj_get_style_pad_right(obj, LV_PART_ITEMS);
 186:lvgl/lvgl/src/widgets/lv_table.c ****     lv_coord_t cell_top = lv_obj_get_style_pad_top(obj, LV_PART_ITEMS);
 187:lvgl/lvgl/src/widgets/lv_table.c ****     lv_coord_t cell_bottom = lv_obj_get_style_pad_bottom(obj, LV_PART_ITEMS);
 188:lvgl/lvgl/src/widgets/lv_table.c **** 
 189:lvgl/lvgl/src/widgets/lv_table.c ****     lv_coord_t letter_space = lv_obj_get_style_text_letter_space(obj, LV_PART_ITEMS);
 190:lvgl/lvgl/src/widgets/lv_table.c ****     lv_coord_t line_space = lv_obj_get_style_text_line_space(obj, LV_PART_ITEMS);
 191:lvgl/lvgl/src/widgets/lv_table.c ****     const lv_font_t * font = lv_obj_get_style_text_font(obj, LV_PART_ITEMS);
 192:lvgl/lvgl/src/widgets/lv_table.c **** 
 193:lvgl/lvgl/src/widgets/lv_table.c ****     lv_coord_t h = get_row_height(obj, row, font, letter_space, line_space,
 194:lvgl/lvgl/src/widgets/lv_table.c ****                                        cell_left, cell_right, cell_top, cell_bottom);
 195:lvgl/lvgl/src/widgets/lv_table.c **** 
 196:lvgl/lvgl/src/widgets/lv_table.c **** 
 197:lvgl/lvgl/src/widgets/lv_table.c ****     lv_coord_t minh = lv_obj_get_style_min_height(obj, LV_PART_ITEMS);
 198:lvgl/lvgl/src/widgets/lv_table.c ****     lv_coord_t maxh = lv_obj_get_style_max_height(obj, LV_PART_ITEMS);
 199:lvgl/lvgl/src/widgets/lv_table.c **** 
 200:lvgl/lvgl/src/widgets/lv_table.c ****     table->row_h[row] = LV_CLAMP(minh, h, maxh);
 201:lvgl/lvgl/src/widgets/lv_table.c **** 
ARM GAS  C:\Users\gx\AppData\Local\Temp\ccSIsGPa.s 			page 5


 202:lvgl/lvgl/src/widgets/lv_table.c ****     lv_obj_invalidate(obj);
 203:lvgl/lvgl/src/widgets/lv_table.c **** }
 204:lvgl/lvgl/src/widgets/lv_table.c **** 
 205:lvgl/lvgl/src/widgets/lv_table.c **** void lv_table_set_row_cnt(lv_obj_t * obj, uint16_t row_cnt)
 206:lvgl/lvgl/src/widgets/lv_table.c **** {
 207:lvgl/lvgl/src/widgets/lv_table.c ****     LV_ASSERT_OBJ(obj, MY_CLASS);
 208:lvgl/lvgl/src/widgets/lv_table.c **** 
 209:lvgl/lvgl/src/widgets/lv_table.c ****     lv_table_t * table = (lv_table_t *)obj;
 210:lvgl/lvgl/src/widgets/lv_table.c ****     uint16_t old_row_cnt = table->row_cnt;
 211:lvgl/lvgl/src/widgets/lv_table.c ****     table->row_cnt         = row_cnt;
 212:lvgl/lvgl/src/widgets/lv_table.c **** 
 213:lvgl/lvgl/src/widgets/lv_table.c ****     table->row_h = lv_mem_realloc(table->row_h, table->row_cnt * sizeof(table->row_h[0]));
 214:lvgl/lvgl/src/widgets/lv_table.c ****     LV_ASSERT_MALLOC(table->row_h);
 215:lvgl/lvgl/src/widgets/lv_table.c ****     if(table->row_h == NULL) return;
 216:lvgl/lvgl/src/widgets/lv_table.c **** 
 217:lvgl/lvgl/src/widgets/lv_table.c ****     /*Free the unused cells*/
 218:lvgl/lvgl/src/widgets/lv_table.c ****     if(old_row_cnt > row_cnt) {
 219:lvgl/lvgl/src/widgets/lv_table.c ****         uint16_t old_cell_cnt = old_row_cnt * table->col_cnt;
 220:lvgl/lvgl/src/widgets/lv_table.c ****         uint32_t new_cell_cnt = table->col_cnt * table->row_cnt;
 221:lvgl/lvgl/src/widgets/lv_table.c ****         uint32_t i;
 222:lvgl/lvgl/src/widgets/lv_table.c ****         for(i = new_cell_cnt; i < old_cell_cnt; i++) {
 223:lvgl/lvgl/src/widgets/lv_table.c ****             lv_mem_free(table->cell_data[i]);
 224:lvgl/lvgl/src/widgets/lv_table.c ****         }
 225:lvgl/lvgl/src/widgets/lv_table.c ****     }
 226:lvgl/lvgl/src/widgets/lv_table.c **** 
 227:lvgl/lvgl/src/widgets/lv_table.c ****     table->cell_data = lv_mem_realloc(table->cell_data, table->row_cnt * table->col_cnt * sizeof(ch
 228:lvgl/lvgl/src/widgets/lv_table.c ****     LV_ASSERT_MALLOC(table->cell_data);
 229:lvgl/lvgl/src/widgets/lv_table.c ****     if(table->cell_data == NULL) return;
 230:lvgl/lvgl/src/widgets/lv_table.c **** 
 231:lvgl/lvgl/src/widgets/lv_table.c ****     /*Initialize the new fields*/
 232:lvgl/lvgl/src/widgets/lv_table.c ****     if(old_row_cnt < row_cnt) {
 233:lvgl/lvgl/src/widgets/lv_table.c ****         uint32_t old_cell_cnt = old_row_cnt * table->col_cnt;
 234:lvgl/lvgl/src/widgets/lv_table.c ****         uint32_t new_cell_cnt = table->col_cnt * table->row_cnt;
 235:lvgl/lvgl/src/widgets/lv_table.c ****         lv_memset_00(&table->cell_data[old_cell_cnt], (new_cell_cnt - old_cell_cnt) * sizeof(table-
 236:lvgl/lvgl/src/widgets/lv_table.c ****     }
 237:lvgl/lvgl/src/widgets/lv_table.c **** 
 238:lvgl/lvgl/src/widgets/lv_table.c ****     refr_size(obj, 0) ;
 239:lvgl/lvgl/src/widgets/lv_table.c **** }
 240:lvgl/lvgl/src/widgets/lv_table.c **** 
 241:lvgl/lvgl/src/widgets/lv_table.c **** void lv_table_set_col_cnt(lv_obj_t * obj, uint16_t col_cnt)
 242:lvgl/lvgl/src/widgets/lv_table.c **** {
 243:lvgl/lvgl/src/widgets/lv_table.c ****     LV_ASSERT_OBJ(obj, MY_CLASS);
 244:lvgl/lvgl/src/widgets/lv_table.c **** 
 245:lvgl/lvgl/src/widgets/lv_table.c ****     lv_table_t * table = (lv_table_t *)obj;
 246:lvgl/lvgl/src/widgets/lv_table.c ****     uint16_t old_col_cnt = table->col_cnt;
 247:lvgl/lvgl/src/widgets/lv_table.c ****     table->col_cnt         = col_cnt;
 248:lvgl/lvgl/src/widgets/lv_table.c ****     table->col_w = lv_mem_realloc(table->col_w, col_cnt * sizeof(table->row_h[0]));
 249:lvgl/lvgl/src/widgets/lv_table.c ****     LV_ASSERT_MALLOC(table->col_w);
 250:lvgl/lvgl/src/widgets/lv_table.c ****     if(table->col_w == NULL) return;
 251:lvgl/lvgl/src/widgets/lv_table.c **** 
 252:lvgl/lvgl/src/widgets/lv_table.c ****     /*Free the unused cells*/
 253:lvgl/lvgl/src/widgets/lv_table.c ****     if(old_col_cnt > col_cnt) {
 254:lvgl/lvgl/src/widgets/lv_table.c ****        uint16_t old_cell_cnt = old_col_cnt * table->row_cnt;
 255:lvgl/lvgl/src/widgets/lv_table.c ****        uint32_t new_cell_cnt = table->col_cnt * table->row_cnt;
 256:lvgl/lvgl/src/widgets/lv_table.c ****        uint32_t i;
 257:lvgl/lvgl/src/widgets/lv_table.c ****        for(i = new_cell_cnt; i < old_cell_cnt; i++) {
 258:lvgl/lvgl/src/widgets/lv_table.c ****            lv_mem_free(table->cell_data[i]);
ARM GAS  C:\Users\gx\AppData\Local\Temp\ccSIsGPa.s 			page 6


 259:lvgl/lvgl/src/widgets/lv_table.c ****        }
 260:lvgl/lvgl/src/widgets/lv_table.c ****    }
 261:lvgl/lvgl/src/widgets/lv_table.c **** 
 262:lvgl/lvgl/src/widgets/lv_table.c ****     char ** new_cell_data = lv_mem_alloc(table->row_cnt * table->col_cnt * sizeof(char *));
 263:lvgl/lvgl/src/widgets/lv_table.c ****     LV_ASSERT_MALLOC(new_cell_data);
 264:lvgl/lvgl/src/widgets/lv_table.c ****     if(new_cell_data == NULL) return;
 265:lvgl/lvgl/src/widgets/lv_table.c ****     uint32_t new_cell_cnt = table->col_cnt * table->row_cnt;
 266:lvgl/lvgl/src/widgets/lv_table.c ****     lv_memset_00(new_cell_data, new_cell_cnt * sizeof(table->cell_data[0]));
 267:lvgl/lvgl/src/widgets/lv_table.c **** 
 268:lvgl/lvgl/src/widgets/lv_table.c ****     /*Initialize the new fields*/
 269:lvgl/lvgl/src/widgets/lv_table.c ****     if(old_col_cnt < col_cnt) {
 270:lvgl/lvgl/src/widgets/lv_table.c ****         uint32_t col;
 271:lvgl/lvgl/src/widgets/lv_table.c ****         for(col = old_col_cnt; col < col_cnt; col++) {
 272:lvgl/lvgl/src/widgets/lv_table.c ****             table->col_w[col] = LV_DPI_DEF;
 273:lvgl/lvgl/src/widgets/lv_table.c ****         }
 274:lvgl/lvgl/src/widgets/lv_table.c ****     }
 275:lvgl/lvgl/src/widgets/lv_table.c **** 
 276:lvgl/lvgl/src/widgets/lv_table.c ****     /*The new column(s) messes up the mapping of `cell_data`*/
 277:lvgl/lvgl/src/widgets/lv_table.c ****     uint32_t old_col_start;
 278:lvgl/lvgl/src/widgets/lv_table.c ****     uint32_t new_col_start;
 279:lvgl/lvgl/src/widgets/lv_table.c ****     uint32_t min_col_cnt = LV_MIN(old_col_cnt, col_cnt);
 280:lvgl/lvgl/src/widgets/lv_table.c ****     uint32_t row;
 281:lvgl/lvgl/src/widgets/lv_table.c ****     for(row = 0; row < table->row_cnt; row++) {
 282:lvgl/lvgl/src/widgets/lv_table.c ****         old_col_start = row * old_col_cnt;
 283:lvgl/lvgl/src/widgets/lv_table.c ****         new_col_start = row * col_cnt;
 284:lvgl/lvgl/src/widgets/lv_table.c **** 
 285:lvgl/lvgl/src/widgets/lv_table.c ****         lv_memcpy_small(&new_cell_data[new_col_start], &table->cell_data[old_col_start], sizeof(new
 286:lvgl/lvgl/src/widgets/lv_table.c ****     }
 287:lvgl/lvgl/src/widgets/lv_table.c **** 
 288:lvgl/lvgl/src/widgets/lv_table.c ****     lv_mem_free(table->cell_data);
 289:lvgl/lvgl/src/widgets/lv_table.c ****     table->cell_data = new_cell_data;
 290:lvgl/lvgl/src/widgets/lv_table.c **** 
 291:lvgl/lvgl/src/widgets/lv_table.c **** 
 292:lvgl/lvgl/src/widgets/lv_table.c ****     refr_size(obj, 0) ;
 293:lvgl/lvgl/src/widgets/lv_table.c **** }
 294:lvgl/lvgl/src/widgets/lv_table.c **** 
 295:lvgl/lvgl/src/widgets/lv_table.c **** void lv_table_set_col_width(lv_obj_t * obj, uint16_t col_id, lv_coord_t w)
 296:lvgl/lvgl/src/widgets/lv_table.c **** {
 297:lvgl/lvgl/src/widgets/lv_table.c ****     LV_ASSERT_OBJ(obj, MY_CLASS);
 298:lvgl/lvgl/src/widgets/lv_table.c **** 
 299:lvgl/lvgl/src/widgets/lv_table.c ****     lv_table_t * table = (lv_table_t *)obj;
 300:lvgl/lvgl/src/widgets/lv_table.c **** 
 301:lvgl/lvgl/src/widgets/lv_table.c ****     /*Auto expand*/
 302:lvgl/lvgl/src/widgets/lv_table.c ****     if(col_id >= table->col_cnt) lv_table_set_col_cnt(obj, col_id + 1);
 303:lvgl/lvgl/src/widgets/lv_table.c **** 
 304:lvgl/lvgl/src/widgets/lv_table.c ****     table->col_w[col_id] = w;
 305:lvgl/lvgl/src/widgets/lv_table.c ****     refr_size(obj, 0) ;
 306:lvgl/lvgl/src/widgets/lv_table.c **** }
 307:lvgl/lvgl/src/widgets/lv_table.c **** 
 308:lvgl/lvgl/src/widgets/lv_table.c **** void lv_table_add_cell_ctrl(lv_obj_t * obj, uint16_t row, uint16_t col, lv_table_cell_ctrl_t ctrl)
 309:lvgl/lvgl/src/widgets/lv_table.c **** {
 310:lvgl/lvgl/src/widgets/lv_table.c ****     LV_ASSERT_OBJ(obj, MY_CLASS);
 311:lvgl/lvgl/src/widgets/lv_table.c **** 
 312:lvgl/lvgl/src/widgets/lv_table.c ****     lv_table_t * table = (lv_table_t *)obj;
 313:lvgl/lvgl/src/widgets/lv_table.c **** 
 314:lvgl/lvgl/src/widgets/lv_table.c ****     /*Auto expand*/
 315:lvgl/lvgl/src/widgets/lv_table.c ****     if(col >= table->col_cnt) lv_table_set_col_cnt(obj, col + 1);
ARM GAS  C:\Users\gx\AppData\Local\Temp\ccSIsGPa.s 			page 7


 316:lvgl/lvgl/src/widgets/lv_table.c ****     if(row >= table->row_cnt) lv_table_set_row_cnt(obj, row + 1);
 317:lvgl/lvgl/src/widgets/lv_table.c **** 
 318:lvgl/lvgl/src/widgets/lv_table.c ****     uint32_t cell = row * table->col_cnt + col;
 319:lvgl/lvgl/src/widgets/lv_table.c **** 
 320:lvgl/lvgl/src/widgets/lv_table.c ****     if(table->cell_data[cell] == NULL) {
 321:lvgl/lvgl/src/widgets/lv_table.c ****         table->cell_data[cell]    = lv_mem_alloc(2); /*+1: trailing '\0; +1: format byte*/
 322:lvgl/lvgl/src/widgets/lv_table.c ****         LV_ASSERT_MALLOC(table->cell_data[cell]);
 323:lvgl/lvgl/src/widgets/lv_table.c ****         if(table->cell_data[cell] == NULL) return;
 324:lvgl/lvgl/src/widgets/lv_table.c **** 
 325:lvgl/lvgl/src/widgets/lv_table.c ****         table->cell_data[cell][0] = 0;
 326:lvgl/lvgl/src/widgets/lv_table.c ****         table->cell_data[cell][1] = '\0';
 327:lvgl/lvgl/src/widgets/lv_table.c ****     }
 328:lvgl/lvgl/src/widgets/lv_table.c **** 
 329:lvgl/lvgl/src/widgets/lv_table.c ****     table->cell_data[cell][0] |= ctrl;
 330:lvgl/lvgl/src/widgets/lv_table.c **** }
 331:lvgl/lvgl/src/widgets/lv_table.c **** 
 332:lvgl/lvgl/src/widgets/lv_table.c **** void lv_table_clear_cell_ctrl(lv_obj_t * obj, uint16_t row, uint16_t col, lv_table_cell_ctrl_t ctrl
 333:lvgl/lvgl/src/widgets/lv_table.c **** {
 334:lvgl/lvgl/src/widgets/lv_table.c ****     LV_ASSERT_OBJ(obj, MY_CLASS);
 335:lvgl/lvgl/src/widgets/lv_table.c **** 
 336:lvgl/lvgl/src/widgets/lv_table.c ****     lv_table_t * table = (lv_table_t *)obj;
 337:lvgl/lvgl/src/widgets/lv_table.c **** 
 338:lvgl/lvgl/src/widgets/lv_table.c ****     /*Auto expand*/
 339:lvgl/lvgl/src/widgets/lv_table.c ****     if(col >= table->col_cnt) lv_table_set_col_cnt(obj, col + 1);
 340:lvgl/lvgl/src/widgets/lv_table.c ****     if(row >= table->row_cnt) lv_table_set_row_cnt(obj, row + 1);
 341:lvgl/lvgl/src/widgets/lv_table.c **** 
 342:lvgl/lvgl/src/widgets/lv_table.c ****     uint32_t cell = row * table->col_cnt + col;
 343:lvgl/lvgl/src/widgets/lv_table.c **** 
 344:lvgl/lvgl/src/widgets/lv_table.c ****     if(table->cell_data[cell] == NULL) {
 345:lvgl/lvgl/src/widgets/lv_table.c ****         table->cell_data[cell]    = lv_mem_alloc(2); /*+1: trailing '\0; +1: format byte*/
 346:lvgl/lvgl/src/widgets/lv_table.c ****         LV_ASSERT_MALLOC(table->cell_data[cell]);
 347:lvgl/lvgl/src/widgets/lv_table.c ****         if(table->cell_data[cell] == NULL) return;
 348:lvgl/lvgl/src/widgets/lv_table.c **** 
 349:lvgl/lvgl/src/widgets/lv_table.c ****         table->cell_data[cell][0] = 0;
 350:lvgl/lvgl/src/widgets/lv_table.c ****         table->cell_data[cell][1] = '\0';
 351:lvgl/lvgl/src/widgets/lv_table.c ****     }
 352:lvgl/lvgl/src/widgets/lv_table.c **** 
 353:lvgl/lvgl/src/widgets/lv_table.c ****     table->cell_data[cell][0] &= (~ctrl);
 354:lvgl/lvgl/src/widgets/lv_table.c **** }
 355:lvgl/lvgl/src/widgets/lv_table.c **** 
 356:lvgl/lvgl/src/widgets/lv_table.c **** /*=====================
 357:lvgl/lvgl/src/widgets/lv_table.c ****  * Getter functions
 358:lvgl/lvgl/src/widgets/lv_table.c ****  *====================*/
 359:lvgl/lvgl/src/widgets/lv_table.c **** 
 360:lvgl/lvgl/src/widgets/lv_table.c **** const char * lv_table_get_cell_value(lv_obj_t * obj, uint16_t row, uint16_t col)
 361:lvgl/lvgl/src/widgets/lv_table.c **** {
 362:lvgl/lvgl/src/widgets/lv_table.c ****     LV_ASSERT_OBJ(obj, MY_CLASS);
 363:lvgl/lvgl/src/widgets/lv_table.c **** 
 364:lvgl/lvgl/src/widgets/lv_table.c ****     lv_table_t * table = (lv_table_t *)obj;
 365:lvgl/lvgl/src/widgets/lv_table.c ****     if(row >= table->row_cnt || col >= table->col_cnt) {
 366:lvgl/lvgl/src/widgets/lv_table.c ****         LV_LOG_WARN("lv_table_set_cell_value: invalid row or column");
 367:lvgl/lvgl/src/widgets/lv_table.c ****         return "";
 368:lvgl/lvgl/src/widgets/lv_table.c ****     }
 369:lvgl/lvgl/src/widgets/lv_table.c ****     uint32_t cell = row * table->col_cnt + col;
 370:lvgl/lvgl/src/widgets/lv_table.c **** 
 371:lvgl/lvgl/src/widgets/lv_table.c ****     if(table->cell_data[cell] == NULL) return "";
 372:lvgl/lvgl/src/widgets/lv_table.c **** 
ARM GAS  C:\Users\gx\AppData\Local\Temp\ccSIsGPa.s 			page 8


 373:lvgl/lvgl/src/widgets/lv_table.c ****     return &table->cell_data[cell][1]; /*Skip the format byte*/
 374:lvgl/lvgl/src/widgets/lv_table.c **** }
 375:lvgl/lvgl/src/widgets/lv_table.c **** 
 376:lvgl/lvgl/src/widgets/lv_table.c **** uint16_t lv_table_get_row_cnt(lv_obj_t * obj)
 377:lvgl/lvgl/src/widgets/lv_table.c **** {
 378:lvgl/lvgl/src/widgets/lv_table.c ****     LV_ASSERT_OBJ(obj, MY_CLASS);
 379:lvgl/lvgl/src/widgets/lv_table.c **** 
 380:lvgl/lvgl/src/widgets/lv_table.c ****     lv_table_t * table = (lv_table_t *)obj;
 381:lvgl/lvgl/src/widgets/lv_table.c ****     return table->row_cnt;
 382:lvgl/lvgl/src/widgets/lv_table.c **** }
 383:lvgl/lvgl/src/widgets/lv_table.c **** 
 384:lvgl/lvgl/src/widgets/lv_table.c **** uint16_t lv_table_get_col_cnt(lv_obj_t * obj)
 385:lvgl/lvgl/src/widgets/lv_table.c **** {
 386:lvgl/lvgl/src/widgets/lv_table.c ****     LV_ASSERT_OBJ(obj, MY_CLASS);
 387:lvgl/lvgl/src/widgets/lv_table.c **** 
 388:lvgl/lvgl/src/widgets/lv_table.c ****     lv_table_t * table = (lv_table_t *)obj;
 389:lvgl/lvgl/src/widgets/lv_table.c ****     return table->col_cnt;
 390:lvgl/lvgl/src/widgets/lv_table.c **** }
 391:lvgl/lvgl/src/widgets/lv_table.c **** 
 392:lvgl/lvgl/src/widgets/lv_table.c **** lv_coord_t lv_table_get_col_width(lv_obj_t * obj, uint16_t col)
 393:lvgl/lvgl/src/widgets/lv_table.c **** {
 394:lvgl/lvgl/src/widgets/lv_table.c ****     LV_ASSERT_OBJ(obj, MY_CLASS);
 395:lvgl/lvgl/src/widgets/lv_table.c **** 
 396:lvgl/lvgl/src/widgets/lv_table.c ****     lv_table_t * table = (lv_table_t *)obj;
 397:lvgl/lvgl/src/widgets/lv_table.c **** 
 398:lvgl/lvgl/src/widgets/lv_table.c ****     if(col >= table->col_cnt) {
 399:lvgl/lvgl/src/widgets/lv_table.c ****         LV_LOG_WARN("lv_table_set_col_width: too big 'col_id'. Must be < LV_TABLE_COL_MAX.");
 400:lvgl/lvgl/src/widgets/lv_table.c ****         return 0;
 401:lvgl/lvgl/src/widgets/lv_table.c ****     }
 402:lvgl/lvgl/src/widgets/lv_table.c **** 
 403:lvgl/lvgl/src/widgets/lv_table.c ****     return table->col_w[col];
 404:lvgl/lvgl/src/widgets/lv_table.c **** }
 405:lvgl/lvgl/src/widgets/lv_table.c **** 
 406:lvgl/lvgl/src/widgets/lv_table.c **** bool lv_table_has_cell_ctrl(lv_obj_t * obj, uint16_t row, uint16_t col, lv_table_cell_ctrl_t ctrl)
 407:lvgl/lvgl/src/widgets/lv_table.c **** {
 408:lvgl/lvgl/src/widgets/lv_table.c ****     LV_ASSERT_OBJ(obj, MY_CLASS);
 409:lvgl/lvgl/src/widgets/lv_table.c **** 
 410:lvgl/lvgl/src/widgets/lv_table.c ****     lv_table_t * table = (lv_table_t *)obj;
 411:lvgl/lvgl/src/widgets/lv_table.c ****     if(row >= table->row_cnt || col >= table->col_cnt) {
 412:lvgl/lvgl/src/widgets/lv_table.c ****         LV_LOG_WARN("lv_table_get_cell_crop: invalid row or column");
 413:lvgl/lvgl/src/widgets/lv_table.c ****         return false;
 414:lvgl/lvgl/src/widgets/lv_table.c ****     }
 415:lvgl/lvgl/src/widgets/lv_table.c ****     uint32_t cell = row * table->col_cnt + col;
 416:lvgl/lvgl/src/widgets/lv_table.c **** 
 417:lvgl/lvgl/src/widgets/lv_table.c ****     if(table->cell_data[cell] == NULL) return false;
 418:lvgl/lvgl/src/widgets/lv_table.c ****     else return (table->cell_data[cell][0] & ctrl) == ctrl ? true : false;
 419:lvgl/lvgl/src/widgets/lv_table.c **** }
 420:lvgl/lvgl/src/widgets/lv_table.c **** 
 421:lvgl/lvgl/src/widgets/lv_table.c **** void lv_table_get_selected_cell(lv_obj_t * obj, uint16_t * row, uint16_t * col)
 422:lvgl/lvgl/src/widgets/lv_table.c **** {
 423:lvgl/lvgl/src/widgets/lv_table.c ****     lv_table_t * table = (lv_table_t *)obj;
 424:lvgl/lvgl/src/widgets/lv_table.c ****     *row = table->row_act;
 425:lvgl/lvgl/src/widgets/lv_table.c ****     *col = table->col_act;
 426:lvgl/lvgl/src/widgets/lv_table.c **** }
 427:lvgl/lvgl/src/widgets/lv_table.c **** 
 428:lvgl/lvgl/src/widgets/lv_table.c **** /**********************
 429:lvgl/lvgl/src/widgets/lv_table.c ****  *   STATIC FUNCTIONS
ARM GAS  C:\Users\gx\AppData\Local\Temp\ccSIsGPa.s 			page 9


 430:lvgl/lvgl/src/widgets/lv_table.c ****  **********************/
 431:lvgl/lvgl/src/widgets/lv_table.c **** 
 432:lvgl/lvgl/src/widgets/lv_table.c **** static void lv_table_constructor(const lv_obj_class_t * class_p, lv_obj_t * obj)
 433:lvgl/lvgl/src/widgets/lv_table.c **** {
 434:lvgl/lvgl/src/widgets/lv_table.c ****     LV_UNUSED(class_p);
 435:lvgl/lvgl/src/widgets/lv_table.c ****     LV_TRACE_OBJ_CREATE("begin");
 436:lvgl/lvgl/src/widgets/lv_table.c **** 
 437:lvgl/lvgl/src/widgets/lv_table.c ****     lv_table_t * table = (lv_table_t *)obj;
 438:lvgl/lvgl/src/widgets/lv_table.c **** 
 439:lvgl/lvgl/src/widgets/lv_table.c ****     table->col_cnt = 1;
 440:lvgl/lvgl/src/widgets/lv_table.c ****     table->row_cnt = 1;
 441:lvgl/lvgl/src/widgets/lv_table.c ****     table->col_w = lv_mem_alloc(table->col_cnt * sizeof(table->col_w[0]));
 442:lvgl/lvgl/src/widgets/lv_table.c ****     table->row_h = lv_mem_alloc(table->row_cnt * sizeof(table->row_h[0]));
 443:lvgl/lvgl/src/widgets/lv_table.c ****     table->col_w[0] = LV_DPI_DEF;
 444:lvgl/lvgl/src/widgets/lv_table.c ****     table->row_h[0] = LV_DPI_DEF;
 445:lvgl/lvgl/src/widgets/lv_table.c ****     table->cell_data = lv_mem_realloc(table->cell_data, table->row_cnt * table->col_cnt * sizeof(ch
 446:lvgl/lvgl/src/widgets/lv_table.c ****     table->cell_data[0] = NULL;
 447:lvgl/lvgl/src/widgets/lv_table.c **** 
 448:lvgl/lvgl/src/widgets/lv_table.c ****     LV_TRACE_OBJ_CREATE("finished");
 449:lvgl/lvgl/src/widgets/lv_table.c **** }
 450:lvgl/lvgl/src/widgets/lv_table.c **** 
 451:lvgl/lvgl/src/widgets/lv_table.c **** static void lv_table_destructor(const lv_obj_class_t * class_p, lv_obj_t * obj)
 452:lvgl/lvgl/src/widgets/lv_table.c **** {
 453:lvgl/lvgl/src/widgets/lv_table.c ****     LV_UNUSED(class_p);
 454:lvgl/lvgl/src/widgets/lv_table.c ****     lv_table_t * table = (lv_table_t *)obj;
 455:lvgl/lvgl/src/widgets/lv_table.c ****     /*Free the cell texts*/
 456:lvgl/lvgl/src/widgets/lv_table.c ****     uint16_t i;
 457:lvgl/lvgl/src/widgets/lv_table.c ****     for(i = 0; i < table->col_cnt * table->row_cnt; i++) {
 458:lvgl/lvgl/src/widgets/lv_table.c ****         if(table->cell_data[i]) {
 459:lvgl/lvgl/src/widgets/lv_table.c ****             lv_mem_free(table->cell_data[i]);
 460:lvgl/lvgl/src/widgets/lv_table.c ****             table->cell_data[i] = NULL;
 461:lvgl/lvgl/src/widgets/lv_table.c ****         }
 462:lvgl/lvgl/src/widgets/lv_table.c ****     }
 463:lvgl/lvgl/src/widgets/lv_table.c **** 
 464:lvgl/lvgl/src/widgets/lv_table.c ****     if(table->cell_data) lv_mem_free(table->cell_data);
 465:lvgl/lvgl/src/widgets/lv_table.c ****     if(table->row_h) lv_mem_free(table->row_h);
 466:lvgl/lvgl/src/widgets/lv_table.c **** }
 467:lvgl/lvgl/src/widgets/lv_table.c **** 
 468:lvgl/lvgl/src/widgets/lv_table.c **** static void lv_table_event(const lv_obj_class_t * class_p, lv_event_t * e)
 469:lvgl/lvgl/src/widgets/lv_table.c **** {
 470:lvgl/lvgl/src/widgets/lv_table.c ****     LV_UNUSED(class_p);
 471:lvgl/lvgl/src/widgets/lv_table.c **** 
 472:lvgl/lvgl/src/widgets/lv_table.c ****     lv_res_t res;
 473:lvgl/lvgl/src/widgets/lv_table.c **** 
 474:lvgl/lvgl/src/widgets/lv_table.c ****     /*Call the ancestor's event handler*/
 475:lvgl/lvgl/src/widgets/lv_table.c ****     res = lv_obj_event_base(MY_CLASS, e);
 476:lvgl/lvgl/src/widgets/lv_table.c ****     if(res != LV_RES_OK) return;
 477:lvgl/lvgl/src/widgets/lv_table.c **** 
 478:lvgl/lvgl/src/widgets/lv_table.c ****     lv_event_code_t code = lv_event_get_code(e);
 479:lvgl/lvgl/src/widgets/lv_table.c ****     lv_obj_t * obj = lv_event_get_target(e);
 480:lvgl/lvgl/src/widgets/lv_table.c ****     lv_table_t * table = (lv_table_t *)obj;
 481:lvgl/lvgl/src/widgets/lv_table.c **** 
 482:lvgl/lvgl/src/widgets/lv_table.c ****     if(code == LV_EVENT_STYLE_CHANGED) {
 483:lvgl/lvgl/src/widgets/lv_table.c ****         refr_size(obj, 0);
 484:lvgl/lvgl/src/widgets/lv_table.c ****     }
 485:lvgl/lvgl/src/widgets/lv_table.c ****     else if(code == LV_EVENT_GET_SELF_SIZE) {
 486:lvgl/lvgl/src/widgets/lv_table.c ****         lv_point_t * p = lv_event_get_param(e);
ARM GAS  C:\Users\gx\AppData\Local\Temp\ccSIsGPa.s 			page 10


 487:lvgl/lvgl/src/widgets/lv_table.c ****         uint32_t i;
 488:lvgl/lvgl/src/widgets/lv_table.c ****         lv_coord_t w = 0;
 489:lvgl/lvgl/src/widgets/lv_table.c ****         for(i = 0; i < table->col_cnt; i++) w += table->col_w[i];
 490:lvgl/lvgl/src/widgets/lv_table.c **** 
 491:lvgl/lvgl/src/widgets/lv_table.c ****         lv_coord_t h = 0;
 492:lvgl/lvgl/src/widgets/lv_table.c ****         for(i = 0; i < table->row_cnt; i++) h += table->row_h[i];
 493:lvgl/lvgl/src/widgets/lv_table.c **** 
 494:lvgl/lvgl/src/widgets/lv_table.c ****         p->x = w;
 495:lvgl/lvgl/src/widgets/lv_table.c ****         p->y = h;
 496:lvgl/lvgl/src/widgets/lv_table.c ****     }
 497:lvgl/lvgl/src/widgets/lv_table.c ****     else if(code == LV_EVENT_PRESSED || code == LV_EVENT_PRESSING) {
 498:lvgl/lvgl/src/widgets/lv_table.c ****         uint16_t col;
 499:lvgl/lvgl/src/widgets/lv_table.c ****         uint16_t row;
 500:lvgl/lvgl/src/widgets/lv_table.c ****         lv_res_t pr_res = get_pressed_cell(obj, &row, &col);
 501:lvgl/lvgl/src/widgets/lv_table.c **** 
 502:lvgl/lvgl/src/widgets/lv_table.c ****         if(pr_res == LV_RES_OK && (table->col_act != col || table->row_act != row)) {
 503:lvgl/lvgl/src/widgets/lv_table.c ****             table->col_act = col;
 504:lvgl/lvgl/src/widgets/lv_table.c ****             table->row_act = row;
 505:lvgl/lvgl/src/widgets/lv_table.c ****         }
 506:lvgl/lvgl/src/widgets/lv_table.c ****         lv_obj_invalidate(obj);
 507:lvgl/lvgl/src/widgets/lv_table.c ****     }
 508:lvgl/lvgl/src/widgets/lv_table.c ****     else if(code == LV_EVENT_RELEASED) {
 509:lvgl/lvgl/src/widgets/lv_table.c ****         lv_obj_invalidate(obj);
 510:lvgl/lvgl/src/widgets/lv_table.c ****         lv_indev_t * indev = lv_indev_get_act();
 511:lvgl/lvgl/src/widgets/lv_table.c ****         lv_obj_t * scroll_obj = lv_indev_get_scroll_obj(indev);
 512:lvgl/lvgl/src/widgets/lv_table.c ****         if(table->col_act != LV_TABLE_CELL_NONE && table->row_act != LV_TABLE_CELL_NONE && scroll_o
 513:lvgl/lvgl/src/widgets/lv_table.c ****             res = lv_event_send(obj, LV_EVENT_VALUE_CHANGED, NULL);
 514:lvgl/lvgl/src/widgets/lv_table.c ****             if(res != LV_RES_OK) return;
 515:lvgl/lvgl/src/widgets/lv_table.c ****         }
 516:lvgl/lvgl/src/widgets/lv_table.c **** 
 517:lvgl/lvgl/src/widgets/lv_table.c ****         lv_indev_type_t indev_type = lv_indev_get_type(lv_indev_get_act());
 518:lvgl/lvgl/src/widgets/lv_table.c ****         if(indev_type == LV_INDEV_TYPE_POINTER || indev_type == LV_INDEV_TYPE_BUTTON) {
 519:lvgl/lvgl/src/widgets/lv_table.c ****             table->col_act = LV_TABLE_CELL_NONE;
 520:lvgl/lvgl/src/widgets/lv_table.c ****             table->row_act = LV_TABLE_CELL_NONE;
 521:lvgl/lvgl/src/widgets/lv_table.c ****         }
 522:lvgl/lvgl/src/widgets/lv_table.c ****     }
 523:lvgl/lvgl/src/widgets/lv_table.c ****     else if(code == LV_EVENT_FOCUSED) {
 524:lvgl/lvgl/src/widgets/lv_table.c ****         lv_obj_invalidate(obj);
 525:lvgl/lvgl/src/widgets/lv_table.c ****     } else if(code == LV_EVENT_KEY) {
 526:lvgl/lvgl/src/widgets/lv_table.c ****         int32_t c = *((int32_t *)lv_event_get_param(e));
 527:lvgl/lvgl/src/widgets/lv_table.c ****         int32_t col = table->col_act;
 528:lvgl/lvgl/src/widgets/lv_table.c ****         int32_t row = table->row_act;
 529:lvgl/lvgl/src/widgets/lv_table.c ****         if(col == LV_TABLE_CELL_NONE || row == LV_TABLE_CELL_NONE) {
 530:lvgl/lvgl/src/widgets/lv_table.c ****             table->col_act = 0;
 531:lvgl/lvgl/src/widgets/lv_table.c ****             table->row_act = 0;
 532:lvgl/lvgl/src/widgets/lv_table.c ****             lv_obj_invalidate(obj);
 533:lvgl/lvgl/src/widgets/lv_table.c ****             return;
 534:lvgl/lvgl/src/widgets/lv_table.c ****         }
 535:lvgl/lvgl/src/widgets/lv_table.c **** 
 536:lvgl/lvgl/src/widgets/lv_table.c ****         if(col >= table->col_cnt) col = 0;
 537:lvgl/lvgl/src/widgets/lv_table.c ****         if(row >= table->row_cnt) row = 0;
 538:lvgl/lvgl/src/widgets/lv_table.c **** 
 539:lvgl/lvgl/src/widgets/lv_table.c ****         if(c == LV_KEY_LEFT) col--;
 540:lvgl/lvgl/src/widgets/lv_table.c ****         else if(c == LV_KEY_RIGHT) col++;
 541:lvgl/lvgl/src/widgets/lv_table.c ****         else if(c == LV_KEY_UP) row--;
 542:lvgl/lvgl/src/widgets/lv_table.c ****         else if(c == LV_KEY_DOWN) row++;
 543:lvgl/lvgl/src/widgets/lv_table.c ****         else return;
ARM GAS  C:\Users\gx\AppData\Local\Temp\ccSIsGPa.s 			page 11


 544:lvgl/lvgl/src/widgets/lv_table.c **** 
 545:lvgl/lvgl/src/widgets/lv_table.c ****         if(col >= table->col_cnt) {
 546:lvgl/lvgl/src/widgets/lv_table.c ****             if(row < table->row_cnt - 1) {
 547:lvgl/lvgl/src/widgets/lv_table.c ****                 col = 0;
 548:lvgl/lvgl/src/widgets/lv_table.c ****                 row++;
 549:lvgl/lvgl/src/widgets/lv_table.c ****             } else {
 550:lvgl/lvgl/src/widgets/lv_table.c ****                 col = table->col_cnt - 1;
 551:lvgl/lvgl/src/widgets/lv_table.c ****             }
 552:lvgl/lvgl/src/widgets/lv_table.c ****         } else if (col < 0) {
 553:lvgl/lvgl/src/widgets/lv_table.c ****             if(row != 0) {
 554:lvgl/lvgl/src/widgets/lv_table.c ****                 col = table->col_cnt - 1;
 555:lvgl/lvgl/src/widgets/lv_table.c ****                 row--;
 556:lvgl/lvgl/src/widgets/lv_table.c ****             } else {
 557:lvgl/lvgl/src/widgets/lv_table.c ****                 col = 0;
 558:lvgl/lvgl/src/widgets/lv_table.c ****             }
 559:lvgl/lvgl/src/widgets/lv_table.c ****         }
 560:lvgl/lvgl/src/widgets/lv_table.c **** 
 561:lvgl/lvgl/src/widgets/lv_table.c ****         if(row >= table->row_cnt) {
 562:lvgl/lvgl/src/widgets/lv_table.c ****             row = table->row_cnt - 1;
 563:lvgl/lvgl/src/widgets/lv_table.c ****         } else if(row < 0) {
 564:lvgl/lvgl/src/widgets/lv_table.c ****             row = 0;
 565:lvgl/lvgl/src/widgets/lv_table.c ****         }
 566:lvgl/lvgl/src/widgets/lv_table.c **** 
 567:lvgl/lvgl/src/widgets/lv_table.c ****         if(table->col_act != col || table->row_act != row) {
 568:lvgl/lvgl/src/widgets/lv_table.c ****             table->col_act = col;
 569:lvgl/lvgl/src/widgets/lv_table.c ****             table->row_act = row;
 570:lvgl/lvgl/src/widgets/lv_table.c ****             lv_obj_invalidate(obj);
 571:lvgl/lvgl/src/widgets/lv_table.c **** 
 572:lvgl/lvgl/src/widgets/lv_table.c ****             res = lv_event_send(obj, LV_EVENT_VALUE_CHANGED, NULL);
 573:lvgl/lvgl/src/widgets/lv_table.c ****             if(res != LV_RES_OK) return;
 574:lvgl/lvgl/src/widgets/lv_table.c ****         }
 575:lvgl/lvgl/src/widgets/lv_table.c ****     } else if(code == LV_EVENT_DRAW_MAIN) {
 576:lvgl/lvgl/src/widgets/lv_table.c ****         draw_main(e);
 577:lvgl/lvgl/src/widgets/lv_table.c ****     }
 578:lvgl/lvgl/src/widgets/lv_table.c **** }
 579:lvgl/lvgl/src/widgets/lv_table.c **** 
 580:lvgl/lvgl/src/widgets/lv_table.c **** 
 581:lvgl/lvgl/src/widgets/lv_table.c **** static void draw_main(lv_event_t * e)
 582:lvgl/lvgl/src/widgets/lv_table.c **** {
 583:lvgl/lvgl/src/widgets/lv_table.c ****     lv_obj_t * obj = lv_event_get_target(e);
 584:lvgl/lvgl/src/widgets/lv_table.c ****     lv_table_t * table = (lv_table_t *)obj;
 585:lvgl/lvgl/src/widgets/lv_table.c ****     const lv_area_t * clip_area_ori = lv_event_get_param(e);
 586:lvgl/lvgl/src/widgets/lv_table.c ****     lv_area_t clip_area;
 587:lvgl/lvgl/src/widgets/lv_table.c ****     if(!_lv_area_intersect(&clip_area, &obj->coords, clip_area_ori)) return;
 588:lvgl/lvgl/src/widgets/lv_table.c **** 
 589:lvgl/lvgl/src/widgets/lv_table.c **** 
 590:lvgl/lvgl/src/widgets/lv_table.c ****     lv_point_t txt_size;
 591:lvgl/lvgl/src/widgets/lv_table.c ****     lv_area_t cell_area;
 592:lvgl/lvgl/src/widgets/lv_table.c ****     lv_area_t txt_area;
 593:lvgl/lvgl/src/widgets/lv_table.c ****     lv_text_flag_t txt_flags;
 594:lvgl/lvgl/src/widgets/lv_table.c **** 
 595:lvgl/lvgl/src/widgets/lv_table.c ****     lv_coord_t bg_top = lv_obj_get_style_pad_top(obj, LV_PART_MAIN);
 596:lvgl/lvgl/src/widgets/lv_table.c ****     lv_coord_t bg_bottom = lv_obj_get_style_pad_bottom(obj, LV_PART_MAIN);
 597:lvgl/lvgl/src/widgets/lv_table.c ****     lv_coord_t bg_left = lv_obj_get_style_pad_left(obj, LV_PART_MAIN);
 598:lvgl/lvgl/src/widgets/lv_table.c ****     lv_coord_t bg_right = lv_obj_get_style_pad_right(obj, LV_PART_MAIN);
 599:lvgl/lvgl/src/widgets/lv_table.c **** 
 600:lvgl/lvgl/src/widgets/lv_table.c ****     lv_coord_t cell_left = lv_obj_get_style_pad_left(obj, LV_PART_ITEMS);
ARM GAS  C:\Users\gx\AppData\Local\Temp\ccSIsGPa.s 			page 12


 601:lvgl/lvgl/src/widgets/lv_table.c ****     lv_coord_t cell_right = lv_obj_get_style_pad_right(obj, LV_PART_ITEMS);
 602:lvgl/lvgl/src/widgets/lv_table.c ****     lv_coord_t cell_top = lv_obj_get_style_pad_top(obj, LV_PART_ITEMS);
 603:lvgl/lvgl/src/widgets/lv_table.c ****     lv_coord_t cell_bottom = lv_obj_get_style_pad_bottom(obj, LV_PART_ITEMS);
 604:lvgl/lvgl/src/widgets/lv_table.c **** 
 605:lvgl/lvgl/src/widgets/lv_table.c ****     lv_state_t state_ori = obj->state;
 606:lvgl/lvgl/src/widgets/lv_table.c ****     obj->state = LV_STATE_DEFAULT;
 607:lvgl/lvgl/src/widgets/lv_table.c ****     obj->skip_trans = 1;
 608:lvgl/lvgl/src/widgets/lv_table.c ****     lv_draw_rect_dsc_t rect_dsc_def;
 609:lvgl/lvgl/src/widgets/lv_table.c ****     lv_draw_rect_dsc_t rect_dsc_act; /*Passed to the event to modify it*/
 610:lvgl/lvgl/src/widgets/lv_table.c ****     lv_draw_rect_dsc_init(&rect_dsc_def);
 611:lvgl/lvgl/src/widgets/lv_table.c ****     lv_obj_init_draw_rect_dsc(obj, LV_PART_ITEMS, &rect_dsc_def);
 612:lvgl/lvgl/src/widgets/lv_table.c **** 
 613:lvgl/lvgl/src/widgets/lv_table.c ****     lv_draw_label_dsc_t label_dsc_def;
 614:lvgl/lvgl/src/widgets/lv_table.c ****     lv_draw_label_dsc_t label_dsc_act;  /*Passed to the event to modify it*/
 615:lvgl/lvgl/src/widgets/lv_table.c ****     lv_draw_label_dsc_init(&label_dsc_def);
 616:lvgl/lvgl/src/widgets/lv_table.c ****     lv_obj_init_draw_label_dsc(obj, LV_PART_ITEMS, &label_dsc_def);
 617:lvgl/lvgl/src/widgets/lv_table.c ****     obj->state = state_ori;
 618:lvgl/lvgl/src/widgets/lv_table.c ****     obj->skip_trans = 0;
 619:lvgl/lvgl/src/widgets/lv_table.c **** 
 620:lvgl/lvgl/src/widgets/lv_table.c ****     uint16_t col;
 621:lvgl/lvgl/src/widgets/lv_table.c ****     uint16_t row;
 622:lvgl/lvgl/src/widgets/lv_table.c ****     uint16_t cell = 0;
 623:lvgl/lvgl/src/widgets/lv_table.c **** 
 624:lvgl/lvgl/src/widgets/lv_table.c ****     cell_area.y2 = obj->coords.y1 + bg_top - 1 - lv_obj_get_scroll_y(obj) ;
 625:lvgl/lvgl/src/widgets/lv_table.c ****     lv_coord_t scroll_x = lv_obj_get_scroll_x(obj) ;
 626:lvgl/lvgl/src/widgets/lv_table.c ****     bool rtl = lv_obj_get_style_base_dir(obj, LV_PART_MAIN) == LV_BASE_DIR_RTL ? true : false;
 627:lvgl/lvgl/src/widgets/lv_table.c **** 
 628:lvgl/lvgl/src/widgets/lv_table.c ****     /*Handle custom drawer*/
 629:lvgl/lvgl/src/widgets/lv_table.c ****     lv_obj_draw_part_dsc_t part_draw_dsc;
 630:lvgl/lvgl/src/widgets/lv_table.c ****     lv_obj_draw_dsc_init(&part_draw_dsc, &clip_area);
 631:lvgl/lvgl/src/widgets/lv_table.c ****     part_draw_dsc.part = LV_PART_ITEMS;
 632:lvgl/lvgl/src/widgets/lv_table.c ****     part_draw_dsc.class_p = MY_CLASS;
 633:lvgl/lvgl/src/widgets/lv_table.c ****     part_draw_dsc.type = LV_TABLE_DRAW_PART_CELL;
 634:lvgl/lvgl/src/widgets/lv_table.c ****     part_draw_dsc.rect_dsc = &rect_dsc_act;
 635:lvgl/lvgl/src/widgets/lv_table.c ****     part_draw_dsc.label_dsc = &label_dsc_act;
 636:lvgl/lvgl/src/widgets/lv_table.c **** 
 637:lvgl/lvgl/src/widgets/lv_table.c ****     for(row = 0; row < table->row_cnt; row++) {
 638:lvgl/lvgl/src/widgets/lv_table.c ****         lv_coord_t h_row = table->row_h[row];
 639:lvgl/lvgl/src/widgets/lv_table.c **** 
 640:lvgl/lvgl/src/widgets/lv_table.c ****         cell_area.y1 = cell_area.y2 + 1;
 641:lvgl/lvgl/src/widgets/lv_table.c ****         cell_area.y2 = cell_area.y1 + h_row - 1;
 642:lvgl/lvgl/src/widgets/lv_table.c **** 
 643:lvgl/lvgl/src/widgets/lv_table.c ****         if(cell_area.y1 > clip_area.y2) return;
 644:lvgl/lvgl/src/widgets/lv_table.c **** 
 645:lvgl/lvgl/src/widgets/lv_table.c ****         if(rtl) cell_area.x1 = obj->coords.x2 - bg_right - 1 - scroll_x;
 646:lvgl/lvgl/src/widgets/lv_table.c ****         else cell_area.x2 = obj->coords.x1 + bg_left - 1 - scroll_x;
 647:lvgl/lvgl/src/widgets/lv_table.c **** 
 648:lvgl/lvgl/src/widgets/lv_table.c ****         for(col = 0; col < table->col_cnt; col++) {
 649:lvgl/lvgl/src/widgets/lv_table.c ****             lv_table_cell_ctrl_t ctrl = 0;
 650:lvgl/lvgl/src/widgets/lv_table.c ****             if(table->cell_data[cell]) ctrl = table->cell_data[cell][0];
 651:lvgl/lvgl/src/widgets/lv_table.c **** 
 652:lvgl/lvgl/src/widgets/lv_table.c ****             if(rtl) {
 653:lvgl/lvgl/src/widgets/lv_table.c ****                 cell_area.x2 = cell_area.x1 - 1;
 654:lvgl/lvgl/src/widgets/lv_table.c ****                 cell_area.x1 = cell_area.x2 - table->col_w[col] + 1;
 655:lvgl/lvgl/src/widgets/lv_table.c ****             }
 656:lvgl/lvgl/src/widgets/lv_table.c ****             else {
 657:lvgl/lvgl/src/widgets/lv_table.c ****                 cell_area.x1 = cell_area.x2 + 1;
ARM GAS  C:\Users\gx\AppData\Local\Temp\ccSIsGPa.s 			page 13


 658:lvgl/lvgl/src/widgets/lv_table.c ****                 cell_area.x2 = cell_area.x1 + table->col_w[col] - 1;
 659:lvgl/lvgl/src/widgets/lv_table.c ****             }
 660:lvgl/lvgl/src/widgets/lv_table.c **** 
 661:lvgl/lvgl/src/widgets/lv_table.c ****             uint16_t col_merge = 0;
 662:lvgl/lvgl/src/widgets/lv_table.c ****             for(col_merge = 0; col_merge + col < table->col_cnt - 1; col_merge++) {
 663:lvgl/lvgl/src/widgets/lv_table.c ****                 if(table->cell_data[cell + col_merge]) {
 664:lvgl/lvgl/src/widgets/lv_table.c ****                     char * next_cell_data = table->cell_data[cell + col_merge];
 665:lvgl/lvgl/src/widgets/lv_table.c ****                     if(next_cell_data) ctrl = next_cell_data[0];
 666:lvgl/lvgl/src/widgets/lv_table.c ****                     if(ctrl & LV_TABLE_CELL_CTRL_MERGE_RIGHT)
 667:lvgl/lvgl/src/widgets/lv_table.c ****                         if(rtl) cell_area.x1 -= table->col_w[col + col_merge + 1];
 668:lvgl/lvgl/src/widgets/lv_table.c ****                         else cell_area.x2 += table->col_w[col + col_merge + 1];
 669:lvgl/lvgl/src/widgets/lv_table.c ****                     else {
 670:lvgl/lvgl/src/widgets/lv_table.c ****                         break;
 671:lvgl/lvgl/src/widgets/lv_table.c ****                     }
 672:lvgl/lvgl/src/widgets/lv_table.c ****                 }
 673:lvgl/lvgl/src/widgets/lv_table.c ****                 else {
 674:lvgl/lvgl/src/widgets/lv_table.c ****                     break;
 675:lvgl/lvgl/src/widgets/lv_table.c ****                 }
 676:lvgl/lvgl/src/widgets/lv_table.c ****             }
 677:lvgl/lvgl/src/widgets/lv_table.c **** 
 678:lvgl/lvgl/src/widgets/lv_table.c ****             if(cell_area.y2 < clip_area.y1) {
 679:lvgl/lvgl/src/widgets/lv_table.c ****                 cell += col_merge + 1;
 680:lvgl/lvgl/src/widgets/lv_table.c ****                 col += col_merge;
 681:lvgl/lvgl/src/widgets/lv_table.c ****                 continue;
 682:lvgl/lvgl/src/widgets/lv_table.c ****             }
 683:lvgl/lvgl/src/widgets/lv_table.c **** 
 684:lvgl/lvgl/src/widgets/lv_table.c ****             /*Expand the cell area with a half border to avoid drawing 2 borders next to each other
 685:lvgl/lvgl/src/widgets/lv_table.c ****             lv_area_t cell_area_border;
 686:lvgl/lvgl/src/widgets/lv_table.c ****             lv_area_copy(&cell_area_border, &cell_area);
 687:lvgl/lvgl/src/widgets/lv_table.c ****             if((rect_dsc_def.border_side & LV_BORDER_SIDE_LEFT) && cell_area_border.x1 > obj->coord
 688:lvgl/lvgl/src/widgets/lv_table.c ****                 cell_area_border.x1 -= rect_dsc_def.border_width / 2;
 689:lvgl/lvgl/src/widgets/lv_table.c ****             }
 690:lvgl/lvgl/src/widgets/lv_table.c ****             if((rect_dsc_def.border_side & LV_BORDER_SIDE_TOP) && cell_area_border.y1 > obj->coords
 691:lvgl/lvgl/src/widgets/lv_table.c ****                 cell_area_border.y1 -= rect_dsc_def.border_width / 2;
 692:lvgl/lvgl/src/widgets/lv_table.c ****             }
 693:lvgl/lvgl/src/widgets/lv_table.c ****             if((rect_dsc_def.border_side & LV_BORDER_SIDE_RIGHT) && cell_area_border.x2 < obj->coor
 694:lvgl/lvgl/src/widgets/lv_table.c ****                 cell_area_border.x2 += rect_dsc_def.border_width / 2 + (rect_dsc_def.border_width &
 695:lvgl/lvgl/src/widgets/lv_table.c ****             }
 696:lvgl/lvgl/src/widgets/lv_table.c ****             if((rect_dsc_def.border_side & LV_BORDER_SIDE_BOTTOM) &&
 697:lvgl/lvgl/src/widgets/lv_table.c ****                     cell_area_border.y2 < obj->coords.y2 - bg_bottom - 1) {
 698:lvgl/lvgl/src/widgets/lv_table.c ****                 cell_area_border.y2 += rect_dsc_def.border_width / 2 + (rect_dsc_def.border_width &
 699:lvgl/lvgl/src/widgets/lv_table.c ****             }
 700:lvgl/lvgl/src/widgets/lv_table.c **** 
 701:lvgl/lvgl/src/widgets/lv_table.c ****             lv_state_t cell_state = LV_STATE_DEFAULT;
 702:lvgl/lvgl/src/widgets/lv_table.c ****             if(row == table->row_act && col == table->col_act) {
 703:lvgl/lvgl/src/widgets/lv_table.c ****                 if(!(obj->state & LV_STATE_SCROLLED) && (obj->state & LV_STATE_PRESSED)) cell_state
 704:lvgl/lvgl/src/widgets/lv_table.c ****                 if(obj->state & LV_STATE_FOCUSED) cell_state |= LV_STATE_FOCUSED;
 705:lvgl/lvgl/src/widgets/lv_table.c ****                 if(obj->state & LV_STATE_FOCUS_KEY) cell_state |= LV_STATE_FOCUS_KEY;
 706:lvgl/lvgl/src/widgets/lv_table.c ****                 if(obj->state & LV_STATE_EDITED) cell_state |= LV_STATE_EDITED;
 707:lvgl/lvgl/src/widgets/lv_table.c ****             }
 708:lvgl/lvgl/src/widgets/lv_table.c **** 
 709:lvgl/lvgl/src/widgets/lv_table.c ****             /*Set up the draw descriptors*/
 710:lvgl/lvgl/src/widgets/lv_table.c ****             if(cell_state == LV_STATE_DEFAULT) {
 711:lvgl/lvgl/src/widgets/lv_table.c ****                 lv_memcpy(&rect_dsc_act, &rect_dsc_def, sizeof(lv_draw_rect_dsc_t));
 712:lvgl/lvgl/src/widgets/lv_table.c ****                 lv_memcpy(&label_dsc_act, &label_dsc_def, sizeof(lv_draw_label_dsc_t));
 713:lvgl/lvgl/src/widgets/lv_table.c ****             }
 714:lvgl/lvgl/src/widgets/lv_table.c ****             /*In other cases get the styles directly without caching them*/
ARM GAS  C:\Users\gx\AppData\Local\Temp\ccSIsGPa.s 			page 14


 715:lvgl/lvgl/src/widgets/lv_table.c ****             else {
 716:lvgl/lvgl/src/widgets/lv_table.c ****                 obj->state = cell_state;
 717:lvgl/lvgl/src/widgets/lv_table.c ****                 obj->skip_trans = 1;
 718:lvgl/lvgl/src/widgets/lv_table.c ****                 lv_draw_rect_dsc_init(&rect_dsc_act);
 719:lvgl/lvgl/src/widgets/lv_table.c ****                 lv_draw_label_dsc_init(&label_dsc_act);
 720:lvgl/lvgl/src/widgets/lv_table.c ****                 lv_obj_init_draw_rect_dsc(obj, LV_PART_ITEMS, &rect_dsc_act);
 721:lvgl/lvgl/src/widgets/lv_table.c ****                 lv_obj_init_draw_label_dsc(obj, LV_PART_ITEMS, &label_dsc_act);
 722:lvgl/lvgl/src/widgets/lv_table.c ****                 obj->state = state_ori;
 723:lvgl/lvgl/src/widgets/lv_table.c ****                 obj->skip_trans = 0;
 724:lvgl/lvgl/src/widgets/lv_table.c ****             }
 725:lvgl/lvgl/src/widgets/lv_table.c **** 
 726:lvgl/lvgl/src/widgets/lv_table.c ****             part_draw_dsc.draw_area = &cell_area_border;
 727:lvgl/lvgl/src/widgets/lv_table.c ****             part_draw_dsc.id = row * table->col_cnt + col;
 728:lvgl/lvgl/src/widgets/lv_table.c ****             lv_event_send(obj, LV_EVENT_DRAW_PART_BEGIN, &part_draw_dsc);
 729:lvgl/lvgl/src/widgets/lv_table.c **** 
 730:lvgl/lvgl/src/widgets/lv_table.c ****             lv_draw_rect(&cell_area_border, &clip_area, &rect_dsc_act);
 731:lvgl/lvgl/src/widgets/lv_table.c **** 
 732:lvgl/lvgl/src/widgets/lv_table.c ****             if(table->cell_data[cell]) {
 733:lvgl/lvgl/src/widgets/lv_table.c ****                 txt_area.x1 = cell_area.x1 + cell_left;
 734:lvgl/lvgl/src/widgets/lv_table.c ****                 txt_area.x2 = cell_area.x2 - cell_right;
 735:lvgl/lvgl/src/widgets/lv_table.c ****                 txt_area.y1 = cell_area.y1 + cell_top;
 736:lvgl/lvgl/src/widgets/lv_table.c ****                 txt_area.y2 = cell_area.y2 - cell_bottom;
 737:lvgl/lvgl/src/widgets/lv_table.c **** 
 738:lvgl/lvgl/src/widgets/lv_table.c ****                 /*Align the content to the middle if not cropped*/
 739:lvgl/lvgl/src/widgets/lv_table.c ****                 bool crop = ctrl & LV_TABLE_CELL_CTRL_TEXT_CROP ? true : false;
 740:lvgl/lvgl/src/widgets/lv_table.c ****                 if(crop) txt_flags = LV_TEXT_FLAG_EXPAND;
 741:lvgl/lvgl/src/widgets/lv_table.c ****                 else txt_flags = LV_TEXT_FLAG_NONE;
 742:lvgl/lvgl/src/widgets/lv_table.c **** 
 743:lvgl/lvgl/src/widgets/lv_table.c ****                 lv_txt_get_size(&txt_size, table->cell_data[cell] + 1, label_dsc_def.font,
 744:lvgl/lvgl/src/widgets/lv_table.c ****                         label_dsc_act.letter_space, label_dsc_act.line_space,
 745:lvgl/lvgl/src/widgets/lv_table.c ****                         lv_area_get_width(&txt_area), txt_flags);
 746:lvgl/lvgl/src/widgets/lv_table.c **** 
 747:lvgl/lvgl/src/widgets/lv_table.c ****                 /*Align the content to the middle if not cropped*/
 748:lvgl/lvgl/src/widgets/lv_table.c ****                 if(!crop) {
 749:lvgl/lvgl/src/widgets/lv_table.c ****                     txt_area.y1 = cell_area.y1 + h_row / 2 - txt_size.y / 2;
 750:lvgl/lvgl/src/widgets/lv_table.c ****                     txt_area.y2 = cell_area.y1 + h_row / 2 + txt_size.y / 2;
 751:lvgl/lvgl/src/widgets/lv_table.c ****                 }
 752:lvgl/lvgl/src/widgets/lv_table.c **** 
 753:lvgl/lvgl/src/widgets/lv_table.c ****                 lv_area_t label_mask;
 754:lvgl/lvgl/src/widgets/lv_table.c ****                 bool label_mask_ok;
 755:lvgl/lvgl/src/widgets/lv_table.c ****                 label_mask_ok = _lv_area_intersect(&label_mask, &clip_area, &cell_area);
 756:lvgl/lvgl/src/widgets/lv_table.c ****                 if(label_mask_ok) {
 757:lvgl/lvgl/src/widgets/lv_table.c ****                     lv_draw_label(&txt_area, &label_mask, &label_dsc_act, table->cell_data[cell] + 
 758:lvgl/lvgl/src/widgets/lv_table.c ****                 }
 759:lvgl/lvgl/src/widgets/lv_table.c ****             }
 760:lvgl/lvgl/src/widgets/lv_table.c **** 
 761:lvgl/lvgl/src/widgets/lv_table.c ****             lv_event_send(obj, LV_EVENT_DRAW_PART_END, &part_draw_dsc);
 762:lvgl/lvgl/src/widgets/lv_table.c **** 
 763:lvgl/lvgl/src/widgets/lv_table.c ****             cell += col_merge + 1;
 764:lvgl/lvgl/src/widgets/lv_table.c ****             col += col_merge;
 765:lvgl/lvgl/src/widgets/lv_table.c ****         }
 766:lvgl/lvgl/src/widgets/lv_table.c ****     }
 767:lvgl/lvgl/src/widgets/lv_table.c **** }
 768:lvgl/lvgl/src/widgets/lv_table.c **** 
 769:lvgl/lvgl/src/widgets/lv_table.c **** static void refr_size(lv_obj_t * obj, uint32_t strat_row)
 770:lvgl/lvgl/src/widgets/lv_table.c **** {
 771:lvgl/lvgl/src/widgets/lv_table.c ****     lv_table_t * table = (lv_table_t *)obj;
ARM GAS  C:\Users\gx\AppData\Local\Temp\ccSIsGPa.s 			page 15


 772:lvgl/lvgl/src/widgets/lv_table.c **** 
 773:lvgl/lvgl/src/widgets/lv_table.c ****     uint32_t i;
 774:lvgl/lvgl/src/widgets/lv_table.c **** 
 775:lvgl/lvgl/src/widgets/lv_table.c ****     lv_coord_t cell_left = lv_obj_get_style_pad_left(obj, LV_PART_ITEMS);
 776:lvgl/lvgl/src/widgets/lv_table.c ****     lv_coord_t cell_right = lv_obj_get_style_pad_right(obj, LV_PART_ITEMS);
 777:lvgl/lvgl/src/widgets/lv_table.c ****     lv_coord_t cell_top = lv_obj_get_style_pad_top(obj, LV_PART_ITEMS);
 778:lvgl/lvgl/src/widgets/lv_table.c ****     lv_coord_t cell_bottom = lv_obj_get_style_pad_bottom(obj, LV_PART_ITEMS);
 779:lvgl/lvgl/src/widgets/lv_table.c **** 
 780:lvgl/lvgl/src/widgets/lv_table.c ****     lv_coord_t letter_space = lv_obj_get_style_text_letter_space(obj, LV_PART_ITEMS);
 781:lvgl/lvgl/src/widgets/lv_table.c ****     lv_coord_t line_space = lv_obj_get_style_text_line_space(obj, LV_PART_ITEMS);
 782:lvgl/lvgl/src/widgets/lv_table.c ****     const lv_font_t * font = lv_obj_get_style_text_font(obj, LV_PART_ITEMS);
 783:lvgl/lvgl/src/widgets/lv_table.c **** 
 784:lvgl/lvgl/src/widgets/lv_table.c ****     lv_coord_t minh = lv_obj_get_style_min_height(obj, LV_PART_ITEMS);
 785:lvgl/lvgl/src/widgets/lv_table.c ****     lv_coord_t maxh = lv_obj_get_style_max_height(obj, LV_PART_ITEMS);
 786:lvgl/lvgl/src/widgets/lv_table.c **** 
 787:lvgl/lvgl/src/widgets/lv_table.c ****     for(i = strat_row; i < table->row_cnt; i++) {
 788:lvgl/lvgl/src/widgets/lv_table.c ****         table->row_h[i] = get_row_height(obj, i, font, letter_space, line_space,
 789:lvgl/lvgl/src/widgets/lv_table.c ****                                        cell_left, cell_right, cell_top, cell_bottom);
 790:lvgl/lvgl/src/widgets/lv_table.c ****         table->row_h[i] = LV_CLAMP(minh, table->row_h[i], maxh);
 791:lvgl/lvgl/src/widgets/lv_table.c ****     }
 792:lvgl/lvgl/src/widgets/lv_table.c **** 
 793:lvgl/lvgl/src/widgets/lv_table.c ****     lv_obj_refresh_self_size(obj) ;
 794:lvgl/lvgl/src/widgets/lv_table.c **** }
 795:lvgl/lvgl/src/widgets/lv_table.c **** 
 796:lvgl/lvgl/src/widgets/lv_table.c **** static lv_coord_t get_row_height(lv_obj_t * obj, uint16_t row_id, const lv_font_t * font,
 797:lvgl/lvgl/src/widgets/lv_table.c ****                                  lv_coord_t letter_space, lv_coord_t line_space,
 798:lvgl/lvgl/src/widgets/lv_table.c ****                                  lv_coord_t cell_left, lv_coord_t cell_right, lv_coord_t cell_top, 
 799:lvgl/lvgl/src/widgets/lv_table.c **** {
  29              		.loc 1 799 1 view -0
  30              		.cfi_startproc
  31              		@ args = 20, pretend = 0, frame = 48
  32              		@ frame_needed = 0, uses_anonymous_args = 0
  33              		.loc 1 799 1 is_stmt 0 view .LVU1
  34 0000 2DE9F04F 		push	{r4, r5, r6, r7, r8, r9, r10, fp, lr}
  35              	.LCFI0:
  36              		.cfi_def_cfa_offset 36
  37              		.cfi_offset 4, -36
  38              		.cfi_offset 5, -32
  39              		.cfi_offset 6, -28
  40              		.cfi_offset 7, -24
  41              		.cfi_offset 8, -20
  42              		.cfi_offset 9, -16
  43              		.cfi_offset 10, -12
  44              		.cfi_offset 11, -8
  45              		.cfi_offset 14, -4
  46 0004 91B0     		sub	sp, sp, #68
  47              	.LCFI1:
  48              		.cfi_def_cfa_offset 104
  49 0006 8046     		mov	r8, r0
  50 0008 0592     		str	r2, [sp, #20]
  51 000a 0A93     		str	r3, [sp, #40]
  52 000c BDF96830 		ldrsh	r3, [sp, #104]
  53              	.LVL1:
  54              		.loc 1 799 1 view .LVU2
  55 0010 0B93     		str	r3, [sp, #44]
  56 0012 BDF96C30 		ldrsh	r3, [sp, #108]
  57 0016 0C93     		str	r3, [sp, #48]
ARM GAS  C:\Users\gx\AppData\Local\Temp\ccSIsGPa.s 			page 16


  58 0018 BDF97030 		ldrsh	r3, [sp, #112]
  59 001c 0D93     		str	r3, [sp, #52]
  60 001e BDF97430 		ldrsh	r3, [sp, #116]
  61 0022 0693     		str	r3, [sp, #24]
  62 0024 BDF97800 		ldrsh	r0, [sp, #120]
  63              	.LVL2:
  64              		.loc 1 799 1 view .LVU3
  65 0028 0790     		str	r0, [sp, #28]
 800:lvgl/lvgl/src/widgets/lv_table.c ****     lv_table_t * table = (lv_table_t *)obj;
  66              		.loc 1 800 5 is_stmt 1 view .LVU4
  67              	.LVL3:
 801:lvgl/lvgl/src/widgets/lv_table.c ****     lv_point_t txt_size;
  68              		.loc 1 801 5 view .LVU5
 802:lvgl/lvgl/src/widgets/lv_table.c ****     lv_coord_t txt_w;
  69              		.loc 1 802 5 view .LVU6
 803:lvgl/lvgl/src/widgets/lv_table.c **** 
 804:lvgl/lvgl/src/widgets/lv_table.c ****     uint16_t row_start = row_id * table->col_cnt;
  70              		.loc 1 804 5 view .LVU7
  71              		.loc 1 804 40 is_stmt 0 view .LVU8
  72 002a B8F82490 		ldrh	r9, [r8, #36]
  73              		.loc 1 804 14 view .LVU9
  74 002e 19FB01F9 		smulbb	r9, r9, r1
  75 0032 1FFA89F9 		uxth	r9, r9
  76              	.LVL4:
 805:lvgl/lvgl/src/widgets/lv_table.c ****     uint16_t cell;
  77              		.loc 1 805 5 is_stmt 1 view .LVU10
 806:lvgl/lvgl/src/widgets/lv_table.c ****     uint16_t col;
  78              		.loc 1 806 5 view .LVU11
 807:lvgl/lvgl/src/widgets/lv_table.c ****     lv_coord_t h_max = lv_font_get_line_height(font) + cell_top + cell_bottom;
  79              		.loc 1 807 5 view .LVU12
  80              	.LBB86:
  81              	.LBI86:
  82              		.file 2 "d:\\practise\\f407_disc\\lvgl\\lvgl\\src\\font\\lv_font.h"
   1:d:\practise\f407_disc\lvgl\lvgl\src\font\lv_font.h **** /**
   2:d:\practise\f407_disc\lvgl\lvgl\src\font\lv_font.h ****  * @file lv_font.h
   3:d:\practise\f407_disc\lvgl\lvgl\src\font\lv_font.h ****  *
   4:d:\practise\f407_disc\lvgl\lvgl\src\font\lv_font.h ****  */
   5:d:\practise\f407_disc\lvgl\lvgl\src\font\lv_font.h **** 
   6:d:\practise\f407_disc\lvgl\lvgl\src\font\lv_font.h **** #ifndef LV_FONT_H
   7:d:\practise\f407_disc\lvgl\lvgl\src\font\lv_font.h **** #define LV_FONT_H
   8:d:\practise\f407_disc\lvgl\lvgl\src\font\lv_font.h **** 
   9:d:\practise\f407_disc\lvgl\lvgl\src\font\lv_font.h **** #ifdef __cplusplus
  10:d:\practise\f407_disc\lvgl\lvgl\src\font\lv_font.h **** extern "C" {
  11:d:\practise\f407_disc\lvgl\lvgl\src\font\lv_font.h **** #endif
  12:d:\practise\f407_disc\lvgl\lvgl\src\font\lv_font.h **** 
  13:d:\practise\f407_disc\lvgl\lvgl\src\font\lv_font.h **** /*********************
  14:d:\practise\f407_disc\lvgl\lvgl\src\font\lv_font.h ****  *      INCLUDES
  15:d:\practise\f407_disc\lvgl\lvgl\src\font\lv_font.h ****  *********************/
  16:d:\practise\f407_disc\lvgl\lvgl\src\font\lv_font.h **** #include "../lv_conf_internal.h"
  17:d:\practise\f407_disc\lvgl\lvgl\src\font\lv_font.h **** #include <stdint.h>
  18:d:\practise\f407_disc\lvgl\lvgl\src\font\lv_font.h **** #include <stddef.h>
  19:d:\practise\f407_disc\lvgl\lvgl\src\font\lv_font.h **** #include <stdbool.h>
  20:d:\practise\f407_disc\lvgl\lvgl\src\font\lv_font.h **** 
  21:d:\practise\f407_disc\lvgl\lvgl\src\font\lv_font.h **** #include "lv_symbol_def.h"
  22:d:\practise\f407_disc\lvgl\lvgl\src\font\lv_font.h **** #include "../misc/lv_area.h"
  23:d:\practise\f407_disc\lvgl\lvgl\src\font\lv_font.h **** 
  24:d:\practise\f407_disc\lvgl\lvgl\src\font\lv_font.h **** /*********************
ARM GAS  C:\Users\gx\AppData\Local\Temp\ccSIsGPa.s 			page 17


  25:d:\practise\f407_disc\lvgl\lvgl\src\font\lv_font.h ****  *      DEFINES
  26:d:\practise\f407_disc\lvgl\lvgl\src\font\lv_font.h ****  *********************/
  27:d:\practise\f407_disc\lvgl\lvgl\src\font\lv_font.h **** 
  28:d:\practise\f407_disc\lvgl\lvgl\src\font\lv_font.h **** /**********************
  29:d:\practise\f407_disc\lvgl\lvgl\src\font\lv_font.h ****  *      TYPEDEFS
  30:d:\practise\f407_disc\lvgl\lvgl\src\font\lv_font.h ****  **********************/
  31:d:\practise\f407_disc\lvgl\lvgl\src\font\lv_font.h **** 
  32:d:\practise\f407_disc\lvgl\lvgl\src\font\lv_font.h **** /*------------------
  33:d:\practise\f407_disc\lvgl\lvgl\src\font\lv_font.h ****  * General types
  34:d:\practise\f407_disc\lvgl\lvgl\src\font\lv_font.h ****  *-----------------*/
  35:d:\practise\f407_disc\lvgl\lvgl\src\font\lv_font.h **** 
  36:d:\practise\f407_disc\lvgl\lvgl\src\font\lv_font.h **** /** Describes the properties of a glyph.*/
  37:d:\practise\f407_disc\lvgl\lvgl\src\font\lv_font.h **** typedef struct {
  38:d:\practise\f407_disc\lvgl\lvgl\src\font\lv_font.h ****     uint16_t adv_w; /**< The glyph needs this space. Draw the next glyph after this width.*/
  39:d:\practise\f407_disc\lvgl\lvgl\src\font\lv_font.h ****     uint16_t box_w;  /**< Width of the glyph's bounding box*/
  40:d:\practise\f407_disc\lvgl\lvgl\src\font\lv_font.h ****     uint16_t box_h;  /**< Height of the glyph's bounding box*/
  41:d:\practise\f407_disc\lvgl\lvgl\src\font\lv_font.h ****     int16_t ofs_x;   /**< x offset of the bounding box*/
  42:d:\practise\f407_disc\lvgl\lvgl\src\font\lv_font.h ****     int16_t ofs_y;  /**< y offset of the bounding box*/
  43:d:\practise\f407_disc\lvgl\lvgl\src\font\lv_font.h ****     uint8_t bpp;   /**< Bit-per-pixel: 1, 2, 4, 8*/
  44:d:\practise\f407_disc\lvgl\lvgl\src\font\lv_font.h **** } lv_font_glyph_dsc_t;
  45:d:\practise\f407_disc\lvgl\lvgl\src\font\lv_font.h **** 
  46:d:\practise\f407_disc\lvgl\lvgl\src\font\lv_font.h **** /** The bitmaps might be upscaled by 3 to achieve subpixel rendering.*/
  47:d:\practise\f407_disc\lvgl\lvgl\src\font\lv_font.h **** enum {
  48:d:\practise\f407_disc\lvgl\lvgl\src\font\lv_font.h ****     LV_FONT_SUBPX_NONE,
  49:d:\practise\f407_disc\lvgl\lvgl\src\font\lv_font.h ****     LV_FONT_SUBPX_HOR,
  50:d:\practise\f407_disc\lvgl\lvgl\src\font\lv_font.h ****     LV_FONT_SUBPX_VER,
  51:d:\practise\f407_disc\lvgl\lvgl\src\font\lv_font.h ****     LV_FONT_SUBPX_BOTH,
  52:d:\practise\f407_disc\lvgl\lvgl\src\font\lv_font.h **** };
  53:d:\practise\f407_disc\lvgl\lvgl\src\font\lv_font.h **** 
  54:d:\practise\f407_disc\lvgl\lvgl\src\font\lv_font.h **** typedef uint8_t lv_font_subpx_t;
  55:d:\practise\f407_disc\lvgl\lvgl\src\font\lv_font.h **** 
  56:d:\practise\f407_disc\lvgl\lvgl\src\font\lv_font.h **** struct _lv_font_t;
  57:d:\practise\f407_disc\lvgl\lvgl\src\font\lv_font.h **** 
  58:d:\practise\f407_disc\lvgl\lvgl\src\font\lv_font.h **** /** Describe the properties of a font*/
  59:d:\practise\f407_disc\lvgl\lvgl\src\font\lv_font.h **** typedef struct _lv_font_t {
  60:d:\practise\f407_disc\lvgl\lvgl\src\font\lv_font.h ****     /** Get a glyph's descriptor from a font*/
  61:d:\practise\f407_disc\lvgl\lvgl\src\font\lv_font.h ****     bool (*get_glyph_dsc)(const struct _lv_font_t *, lv_font_glyph_dsc_t *, uint32_t letter, uint32
  62:d:\practise\f407_disc\lvgl\lvgl\src\font\lv_font.h **** 
  63:d:\practise\f407_disc\lvgl\lvgl\src\font\lv_font.h ****     /** Get a glyph's bitmap from a font*/
  64:d:\practise\f407_disc\lvgl\lvgl\src\font\lv_font.h ****     const uint8_t * (*get_glyph_bitmap)(const struct _lv_font_t *, uint32_t);
  65:d:\practise\f407_disc\lvgl\lvgl\src\font\lv_font.h **** 
  66:d:\practise\f407_disc\lvgl\lvgl\src\font\lv_font.h ****     /*Pointer to the font in a font pack (must have the same line height)*/
  67:d:\practise\f407_disc\lvgl\lvgl\src\font\lv_font.h ****     lv_coord_t line_height;         /**< The real line height where any text fits*/
  68:d:\practise\f407_disc\lvgl\lvgl\src\font\lv_font.h ****     lv_coord_t base_line;           /**< Base line measured from the top of the line_height*/
  69:d:\practise\f407_disc\lvgl\lvgl\src\font\lv_font.h ****     uint8_t subpx  : 2;             /**< An element of `lv_font_subpx_t`*/
  70:d:\practise\f407_disc\lvgl\lvgl\src\font\lv_font.h **** 
  71:d:\practise\f407_disc\lvgl\lvgl\src\font\lv_font.h ****     int8_t underline_position;      /**< Distance between the top of the underline and base line (<
  72:d:\practise\f407_disc\lvgl\lvgl\src\font\lv_font.h ****     int8_t underline_thickness;     /**< Thickness of the underline*/
  73:d:\practise\f407_disc\lvgl\lvgl\src\font\lv_font.h **** 
  74:d:\practise\f407_disc\lvgl\lvgl\src\font\lv_font.h ****     const void * dsc;                     /**< Store implementation specific or run_time data or ca
  75:d:\practise\f407_disc\lvgl\lvgl\src\font\lv_font.h **** #if LV_USE_USER_DATA
  76:d:\practise\f407_disc\lvgl\lvgl\src\font\lv_font.h ****     void * user_data;               /**< Custom user data for font.*/
  77:d:\practise\f407_disc\lvgl\lvgl\src\font\lv_font.h **** #endif
  78:d:\practise\f407_disc\lvgl\lvgl\src\font\lv_font.h **** 
  79:d:\practise\f407_disc\lvgl\lvgl\src\font\lv_font.h **** } lv_font_t;
  80:d:\practise\f407_disc\lvgl\lvgl\src\font\lv_font.h **** 
  81:d:\practise\f407_disc\lvgl\lvgl\src\font\lv_font.h **** /**********************
ARM GAS  C:\Users\gx\AppData\Local\Temp\ccSIsGPa.s 			page 18


  82:d:\practise\f407_disc\lvgl\lvgl\src\font\lv_font.h ****  * GLOBAL PROTOTYPES
  83:d:\practise\f407_disc\lvgl\lvgl\src\font\lv_font.h ****  **********************/
  84:d:\practise\f407_disc\lvgl\lvgl\src\font\lv_font.h **** 
  85:d:\practise\f407_disc\lvgl\lvgl\src\font\lv_font.h **** /**
  86:d:\practise\f407_disc\lvgl\lvgl\src\font\lv_font.h ****  * Return with the bitmap of a font.
  87:d:\practise\f407_disc\lvgl\lvgl\src\font\lv_font.h ****  * @param font_p pointer to a font
  88:d:\practise\f407_disc\lvgl\lvgl\src\font\lv_font.h ****  * @param letter an UNICODE character code
  89:d:\practise\f407_disc\lvgl\lvgl\src\font\lv_font.h ****  * @return pointer to the bitmap of the letter
  90:d:\practise\f407_disc\lvgl\lvgl\src\font\lv_font.h ****  */
  91:d:\practise\f407_disc\lvgl\lvgl\src\font\lv_font.h **** const uint8_t * lv_font_get_glyph_bitmap(const lv_font_t * font_p, uint32_t letter);
  92:d:\practise\f407_disc\lvgl\lvgl\src\font\lv_font.h **** 
  93:d:\practise\f407_disc\lvgl\lvgl\src\font\lv_font.h **** /**
  94:d:\practise\f407_disc\lvgl\lvgl\src\font\lv_font.h ****  * Get the descriptor of a glyph
  95:d:\practise\f407_disc\lvgl\lvgl\src\font\lv_font.h ****  * @param font_p pointer to font
  96:d:\practise\f407_disc\lvgl\lvgl\src\font\lv_font.h ****  * @param dsc_out store the result descriptor here
  97:d:\practise\f407_disc\lvgl\lvgl\src\font\lv_font.h ****  * @param letter an UNICODE letter code
  98:d:\practise\f407_disc\lvgl\lvgl\src\font\lv_font.h ****  * @return true: descriptor is successfully loaded into `dsc_out`.
  99:d:\practise\f407_disc\lvgl\lvgl\src\font\lv_font.h ****  *         false: the letter was not found, no data is loaded to `dsc_out`
 100:d:\practise\f407_disc\lvgl\lvgl\src\font\lv_font.h ****  */
 101:d:\practise\f407_disc\lvgl\lvgl\src\font\lv_font.h **** bool lv_font_get_glyph_dsc(const lv_font_t * font_p, lv_font_glyph_dsc_t * dsc_out, uint32_t letter
 102:d:\practise\f407_disc\lvgl\lvgl\src\font\lv_font.h ****                            uint32_t letter_next);
 103:d:\practise\f407_disc\lvgl\lvgl\src\font\lv_font.h **** 
 104:d:\practise\f407_disc\lvgl\lvgl\src\font\lv_font.h **** /**
 105:d:\practise\f407_disc\lvgl\lvgl\src\font\lv_font.h ****  * Get the width of a glyph with kerning
 106:d:\practise\f407_disc\lvgl\lvgl\src\font\lv_font.h ****  * @param font pointer to a font
 107:d:\practise\f407_disc\lvgl\lvgl\src\font\lv_font.h ****  * @param letter an UNICODE letter
 108:d:\practise\f407_disc\lvgl\lvgl\src\font\lv_font.h ****  * @param letter_next the next letter after `letter`. Used for kerning
 109:d:\practise\f407_disc\lvgl\lvgl\src\font\lv_font.h ****  * @return the width of the glyph
 110:d:\practise\f407_disc\lvgl\lvgl\src\font\lv_font.h ****  */
 111:d:\practise\f407_disc\lvgl\lvgl\src\font\lv_font.h **** uint16_t lv_font_get_glyph_width(const lv_font_t * font, uint32_t letter, uint32_t letter_next);
 112:d:\practise\f407_disc\lvgl\lvgl\src\font\lv_font.h **** 
 113:d:\practise\f407_disc\lvgl\lvgl\src\font\lv_font.h **** /**
 114:d:\practise\f407_disc\lvgl\lvgl\src\font\lv_font.h ****  * Get the line height of a font. All characters fit into this height
 115:d:\practise\f407_disc\lvgl\lvgl\src\font\lv_font.h ****  * @param font_p pointer to a font
 116:d:\practise\f407_disc\lvgl\lvgl\src\font\lv_font.h ****  * @return the height of a font
 117:d:\practise\f407_disc\lvgl\lvgl\src\font\lv_font.h ****  */
 118:d:\practise\f407_disc\lvgl\lvgl\src\font\lv_font.h **** static inline lv_coord_t lv_font_get_line_height(const lv_font_t * font_p)
  83              		.loc 2 118 26 view .LVU13
  84              	.LBB87:
 119:d:\practise\f407_disc\lvgl\lvgl\src\font\lv_font.h **** {
 120:d:\practise\f407_disc\lvgl\lvgl\src\font\lv_font.h ****     return font_p->line_height;
  85              		.loc 2 120 5 view .LVU14
  86              		.loc 2 120 18 is_stmt 0 view .LVU15
  87 0036 B2F90870 		ldrsh	r7, [r2, #8]
  88              	.LVL5:
  89              		.loc 2 120 18 view .LVU16
  90              	.LBE87:
  91              	.LBE86:
  92              		.loc 1 807 54 view .LVU17
  93 003a 9BB2     		uxth	r3, r3
  94 003c 0893     		str	r3, [sp, #32]
  95 003e 13FA87F7 		uxtah	r7, r3, r7
  96              		.loc 1 807 65 view .LVU18
  97 0042 83B2     		uxth	r3, r0
  98 0044 0993     		str	r3, [sp, #36]
  99 0046 13FA87F7 		uxtah	r7, r3, r7
 100              		.loc 1 807 16 view .LVU19
ARM GAS  C:\Users\gx\AppData\Local\Temp\ccSIsGPa.s 			page 19


 101 004a 3FB2     		sxth	r7, r7
 102              	.LVL6:
 808:lvgl/lvgl/src/widgets/lv_table.c **** 
 809:lvgl/lvgl/src/widgets/lv_table.c ****     for(cell = row_start, col = 0; cell < row_start + table->col_cnt; cell++, col++) {
 103              		.loc 1 809 5 is_stmt 1 view .LVU20
 104              		.loc 1 809 14 is_stmt 0 view .LVU21
 105 004c 4E46     		mov	r6, r9
 106              		.loc 1 809 31 view .LVU22
 107 004e 0025     		movs	r5, #0
 108              		.loc 1 809 5 view .LVU23
 109 0050 2DE0     		b	.L2
 110              	.LVL7:
 111              	.L10:
 112              	.LBB88:
 113              	.LBB89:
 810:lvgl/lvgl/src/widgets/lv_table.c ****         if(table->cell_data[cell] != NULL) {
 811:lvgl/lvgl/src/widgets/lv_table.c ****             txt_w              = table->col_w[col];
 812:lvgl/lvgl/src/widgets/lv_table.c ****             uint16_t col_merge = 0;
 813:lvgl/lvgl/src/widgets/lv_table.c ****             for(col_merge = 0; col_merge + col < table->col_cnt - 1; col_merge++) {
 814:lvgl/lvgl/src/widgets/lv_table.c **** 
 815:lvgl/lvgl/src/widgets/lv_table.c ****                 if(table->cell_data[cell + col_merge] != NULL) {
 816:lvgl/lvgl/src/widgets/lv_table.c ****                     lv_table_cell_ctrl_t ctrl = 0;
 817:lvgl/lvgl/src/widgets/lv_table.c ****                     char * next_cell_data = table->cell_data[cell + col_merge];
 818:lvgl/lvgl/src/widgets/lv_table.c ****                     if(next_cell_data) ctrl = next_cell_data[0];
 819:lvgl/lvgl/src/widgets/lv_table.c ****                     if(ctrl & LV_TABLE_CELL_CTRL_MERGE_RIGHT)
 820:lvgl/lvgl/src/widgets/lv_table.c ****                         txt_w += table->col_w[col + col_merge + 1];
 114              		.loc 1 820 25 is_stmt 1 discriminator 2 view .LVU24
 115              		.loc 1 820 46 is_stmt 0 discriminator 2 view .LVU25
 116 0052 0132     		adds	r2, r2, #1
 117 0054 3BF81220 		ldrh	r2, [fp, r2, lsl #1]
 118              		.loc 1 820 31 discriminator 2 view .LVU26
 119 0058 1344     		add	r3, r3, r2
 120              	.LVL8:
 121              		.loc 1 820 31 discriminator 2 view .LVU27
 122 005a 1BB2     		sxth	r3, r3
 123              	.LVL9:
 124              		.loc 1 820 31 discriminator 2 view .LVU28
 125              	.LBE89:
 813:lvgl/lvgl/src/widgets/lv_table.c **** 
 126              		.loc 1 813 70 is_stmt 1 discriminator 2 view .LVU29
 813:lvgl/lvgl/src/widgets/lv_table.c **** 
 127              		.loc 1 813 79 is_stmt 0 discriminator 2 view .LVU30
 128 005c 0134     		adds	r4, r4, #1
 129              	.LVL10:
 813:lvgl/lvgl/src/widgets/lv_table.c **** 
 130              		.loc 1 813 79 discriminator 2 view .LVU31
 131 005e A4B2     		uxth	r4, r4
 132              	.LVL11:
 133              	.L4:
 813:lvgl/lvgl/src/widgets/lv_table.c **** 
 134              		.loc 1 813 32 is_stmt 1 discriminator 1 view .LVU32
 813:lvgl/lvgl/src/widgets/lv_table.c **** 
 135              		.loc 1 813 42 is_stmt 0 discriminator 1 view .LVU33
 136 0060 2A19     		adds	r2, r5, r4
 813:lvgl/lvgl/src/widgets/lv_table.c **** 
 137              		.loc 1 813 65 discriminator 1 view .LVU34
 138 0062 0CF1FF30 		add	r0, ip, #-1
ARM GAS  C:\Users\gx\AppData\Local\Temp\ccSIsGPa.s 			page 20


 813:lvgl/lvgl/src/widgets/lv_table.c **** 
 139              		.loc 1 813 13 discriminator 1 view .LVU35
 140 0066 8242     		cmp	r2, r0
 141 0068 08DA     		bge	.L5
 815:lvgl/lvgl/src/widgets/lv_table.c ****                     lv_table_cell_ctrl_t ctrl = 0;
 142              		.loc 1 815 17 is_stmt 1 view .LVU36
 815:lvgl/lvgl/src/widgets/lv_table.c ****                     lv_table_cell_ctrl_t ctrl = 0;
 143              		.loc 1 815 42 is_stmt 0 view .LVU37
 144 006a 04EB0A00 		add	r0, r4, r10
 815:lvgl/lvgl/src/widgets/lv_table.c ****                     lv_table_cell_ctrl_t ctrl = 0;
 145              		.loc 1 815 36 view .LVU38
 146 006e 51F82000 		ldr	r0, [r1, r0, lsl #2]
 815:lvgl/lvgl/src/widgets/lv_table.c ****                     lv_table_cell_ctrl_t ctrl = 0;
 147              		.loc 1 815 19 view .LVU39
 148 0072 18B1     		cbz	r0, .L5
 149              	.LBB90:
 816:lvgl/lvgl/src/widgets/lv_table.c ****                     char * next_cell_data = table->cell_data[cell + col_merge];
 150              		.loc 1 816 21 is_stmt 1 discriminator 1 view .LVU40
 151              	.LVL12:
 817:lvgl/lvgl/src/widgets/lv_table.c ****                     if(next_cell_data) ctrl = next_cell_data[0];
 152              		.loc 1 817 21 discriminator 1 view .LVU41
 818:lvgl/lvgl/src/widgets/lv_table.c ****                     if(ctrl & LV_TABLE_CELL_CTRL_MERGE_RIGHT)
 153              		.loc 1 818 21 discriminator 1 view .LVU42
 818:lvgl/lvgl/src/widgets/lv_table.c ****                     if(ctrl & LV_TABLE_CELL_CTRL_MERGE_RIGHT)
 154              		.loc 1 818 40 discriminator 1 view .LVU43
 818:lvgl/lvgl/src/widgets/lv_table.c ****                     if(ctrl & LV_TABLE_CELL_CTRL_MERGE_RIGHT)
 155              		.loc 1 818 45 is_stmt 0 discriminator 1 view .LVU44
 156 0074 0078     		ldrb	r0, [r0]	@ zero_extendqisi2
 157              	.LVL13:
 819:lvgl/lvgl/src/widgets/lv_table.c ****                         txt_w += table->col_w[col + col_merge + 1];
 158              		.loc 1 819 21 is_stmt 1 discriminator 1 view .LVU45
 819:lvgl/lvgl/src/widgets/lv_table.c ****                         txt_w += table->col_w[col + col_merge + 1];
 159              		.loc 1 819 23 is_stmt 0 discriminator 1 view .LVU46
 160 0076 10F0010F 		tst	r0, #1
 161 007a EAD1     		bne	.L10
 162              	.LVL14:
 163              	.L5:
 819:lvgl/lvgl/src/widgets/lv_table.c ****                         txt_w += table->col_w[col + col_merge + 1];
 164              		.loc 1 819 23 discriminator 1 view .LVU47
 165              	.LBE90:
 821:lvgl/lvgl/src/widgets/lv_table.c ****                     else
 822:lvgl/lvgl/src/widgets/lv_table.c ****                         break;
 823:lvgl/lvgl/src/widgets/lv_table.c ****                 }
 824:lvgl/lvgl/src/widgets/lv_table.c ****                 else {
 825:lvgl/lvgl/src/widgets/lv_table.c ****                     break;
 826:lvgl/lvgl/src/widgets/lv_table.c ****                 }
 827:lvgl/lvgl/src/widgets/lv_table.c ****             }
 828:lvgl/lvgl/src/widgets/lv_table.c **** 
 829:lvgl/lvgl/src/widgets/lv_table.c ****             lv_table_cell_ctrl_t ctrl = 0;
 166              		.loc 1 829 13 is_stmt 1 discriminator 1 view .LVU48
 830:lvgl/lvgl/src/widgets/lv_table.c ****             if(table->cell_data[cell]) ctrl = table->cell_data[cell][0];
 167              		.loc 1 830 13 discriminator 1 view .LVU49
 168              		.loc 1 830 40 discriminator 1 view .LVU50
 169              		.loc 1 830 45 is_stmt 0 discriminator 1 view .LVU51
 170 007c 9EF80020 		ldrb	r2, [lr]	@ zero_extendqisi2
 171              	.LVL15:
 831:lvgl/lvgl/src/widgets/lv_table.c **** 
ARM GAS  C:\Users\gx\AppData\Local\Temp\ccSIsGPa.s 			page 21


 832:lvgl/lvgl/src/widgets/lv_table.c ****             /*With text crop assume 1 line*/
 833:lvgl/lvgl/src/widgets/lv_table.c ****             if(ctrl & LV_TABLE_CELL_CTRL_TEXT_CROP) {
 172              		.loc 1 833 13 is_stmt 1 discriminator 1 view .LVU52
 173              		.loc 1 833 15 is_stmt 0 discriminator 1 view .LVU53
 174 0080 12F0020F 		tst	r2, #2
 175 0084 27D0     		beq	.L7
 834:lvgl/lvgl/src/widgets/lv_table.c ****                 h_max = LV_MAX(lv_font_get_line_height(font) + cell_top + cell_bottom,
 176              		.loc 1 834 17 is_stmt 1 view .LVU54
 177              	.LVL16:
 178              	.LBB91:
 179              	.LBI91:
 118:d:\practise\f407_disc\lvgl\lvgl\src\font\lv_font.h **** {
 180              		.loc 2 118 26 view .LVU55
 181              	.LBB92:
 182              		.loc 2 120 5 view .LVU56
 183              		.loc 2 120 18 is_stmt 0 view .LVU57
 184 0086 059B     		ldr	r3, [sp, #20]
 185              	.LVL17:
 186              		.loc 2 120 18 view .LVU58
 187 0088 B3F90830 		ldrsh	r3, [r3, #8]
 188              	.LVL18:
 189              		.loc 2 120 18 view .LVU59
 190              	.LBE92:
 191              	.LBE91:
 192              		.loc 1 834 25 view .LVU60
 193 008c 069A     		ldr	r2, [sp, #24]
 194              	.LVL19:
 195              		.loc 1 834 25 view .LVU61
 196 008e 1A44     		add	r2, r2, r3
 197 0090 0799     		ldr	r1, [sp, #28]
 198 0092 0A44     		add	r2, r2, r1
 199              		.loc 1 834 23 view .LVU62
 200 0094 BA42     		cmp	r2, r7
 201 0096 06DD     		ble	.L3
 202              	.LVL20:
 203              		.loc 1 834 23 view .LVU63
 204              	.LBE88:
 205              		.loc 2 120 5 is_stmt 1 view .LVU64
 206              	.LBB93:
 207              		.loc 1 834 25 is_stmt 0 view .LVU65
 208 0098 089A     		ldr	r2, [sp, #32]
 209 009a 12FA83F7 		uxtah	r7, r2, r3
 210              	.LVL21:
 211              		.loc 1 834 25 view .LVU66
 212 009e 099B     		ldr	r3, [sp, #36]
 213 00a0 13FA87F7 		uxtah	r7, r3, r7
 214              		.loc 1 834 23 view .LVU67
 215 00a4 3FB2     		sxth	r7, r7
 216              	.LVL22:
 217              	.L3:
 218              		.loc 1 834 23 view .LVU68
 219              	.LBE93:
 809:lvgl/lvgl/src/widgets/lv_table.c ****         if(table->cell_data[cell] != NULL) {
 220              		.loc 1 809 71 is_stmt 1 discriminator 2 view .LVU69
 809:lvgl/lvgl/src/widgets/lv_table.c ****         if(table->cell_data[cell] != NULL) {
 221              		.loc 1 809 75 is_stmt 0 discriminator 2 view .LVU70
 222 00a6 0136     		adds	r6, r6, #1
ARM GAS  C:\Users\gx\AppData\Local\Temp\ccSIsGPa.s 			page 22


 223              	.LVL23:
 809:lvgl/lvgl/src/widgets/lv_table.c ****         if(table->cell_data[cell] != NULL) {
 224              		.loc 1 809 75 discriminator 2 view .LVU71
 225 00a8 B6B2     		uxth	r6, r6
 226              	.LVL24:
 809:lvgl/lvgl/src/widgets/lv_table.c ****         if(table->cell_data[cell] != NULL) {
 227              		.loc 1 809 82 discriminator 2 view .LVU72
 228 00aa 0135     		adds	r5, r5, #1
 229              	.LVL25:
 809:lvgl/lvgl/src/widgets/lv_table.c ****         if(table->cell_data[cell] != NULL) {
 230              		.loc 1 809 82 discriminator 2 view .LVU73
 231 00ac ADB2     		uxth	r5, r5
 232              	.LVL26:
 233              	.L2:
 809:lvgl/lvgl/src/widgets/lv_table.c ****         if(table->cell_data[cell] != NULL) {
 234              		.loc 1 809 36 is_stmt 1 discriminator 1 view .LVU74
 809:lvgl/lvgl/src/widgets/lv_table.c ****         if(table->cell_data[cell] != NULL) {
 235              		.loc 1 809 41 is_stmt 0 discriminator 1 view .LVU75
 236 00ae B246     		mov	r10, r6
 809:lvgl/lvgl/src/widgets/lv_table.c ****         if(table->cell_data[cell] != NULL) {
 237              		.loc 1 809 60 discriminator 1 view .LVU76
 238 00b0 B8F824C0 		ldrh	ip, [r8, #36]
 809:lvgl/lvgl/src/widgets/lv_table.c ****         if(table->cell_data[cell] != NULL) {
 239              		.loc 1 809 53 discriminator 1 view .LVU77
 240 00b4 09EB0C03 		add	r3, r9, ip
 809:lvgl/lvgl/src/widgets/lv_table.c ****         if(table->cell_data[cell] != NULL) {
 241              		.loc 1 809 5 discriminator 1 view .LVU78
 242 00b8 9E42     		cmp	r6, r3
 243 00ba 2DDA     		bge	.L11
 810:lvgl/lvgl/src/widgets/lv_table.c ****             txt_w              = table->col_w[col];
 244              		.loc 1 810 9 is_stmt 1 view .LVU79
 810:lvgl/lvgl/src/widgets/lv_table.c ****             txt_w              = table->col_w[col];
 245              		.loc 1 810 17 is_stmt 0 view .LVU80
 246 00bc D8F82810 		ldr	r1, [r8, #40]
 810:lvgl/lvgl/src/widgets/lv_table.c ****             txt_w              = table->col_w[col];
 247              		.loc 1 810 28 view .LVU81
 248 00c0 51F826E0 		ldr	lr, [r1, r6, lsl #2]
 810:lvgl/lvgl/src/widgets/lv_table.c ****             txt_w              = table->col_w[col];
 249              		.loc 1 810 11 view .LVU82
 250 00c4 BEF1000F 		cmp	lr, #0
 251 00c8 EDD0     		beq	.L3
 252              	.LBB94:
 811:lvgl/lvgl/src/widgets/lv_table.c ****             uint16_t col_merge = 0;
 253              		.loc 1 811 13 is_stmt 1 view .LVU83
 811:lvgl/lvgl/src/widgets/lv_table.c ****             uint16_t col_merge = 0;
 254              		.loc 1 811 39 is_stmt 0 view .LVU84
 255 00ca D8F830B0 		ldr	fp, [r8, #48]
 811:lvgl/lvgl/src/widgets/lv_table.c ****             uint16_t col_merge = 0;
 256              		.loc 1 811 32 view .LVU85
 257 00ce 3BF91530 		ldrsh	r3, [fp, r5, lsl #1]
 258              	.LVL27:
 812:lvgl/lvgl/src/widgets/lv_table.c ****             for(col_merge = 0; col_merge + col < table->col_cnt - 1; col_merge++) {
 259              		.loc 1 812 13 is_stmt 1 view .LVU86
 813:lvgl/lvgl/src/widgets/lv_table.c **** 
 260              		.loc 1 813 13 view .LVU87
 813:lvgl/lvgl/src/widgets/lv_table.c **** 
 261              		.loc 1 813 27 is_stmt 0 view .LVU88
ARM GAS  C:\Users\gx\AppData\Local\Temp\ccSIsGPa.s 			page 23


 262 00d2 0024     		movs	r4, #0
 813:lvgl/lvgl/src/widgets/lv_table.c **** 
 263              		.loc 1 813 13 view .LVU89
 264 00d4 C4E7     		b	.L4
 265              	.LVL28:
 266              	.L7:
 835:lvgl/lvgl/src/widgets/lv_table.c ****                                     h_max);
 836:lvgl/lvgl/src/widgets/lv_table.c ****             }
 837:lvgl/lvgl/src/widgets/lv_table.c ****             /*Without text crop calculate the height of the text in the cell*/
 838:lvgl/lvgl/src/widgets/lv_table.c ****             else {
 839:lvgl/lvgl/src/widgets/lv_table.c ****                 txt_w -= cell_left + cell_right;
 267              		.loc 1 839 17 is_stmt 1 view .LVU90
 268              		.loc 1 839 36 is_stmt 0 view .LVU91
 269 00d6 0C9A     		ldr	r2, [sp, #48]
 270              	.LVL29:
 271              		.loc 1 839 36 view .LVU92
 272 00d8 0D99     		ldr	r1, [sp, #52]
 273 00da 0A44     		add	r2, r2, r1
 274 00dc 92B2     		uxth	r2, r2
 275              		.loc 1 839 23 view .LVU93
 276 00de 9B1A     		subs	r3, r3, r2
 277              	.LVL30:
 278              		.loc 1 839 23 view .LVU94
 279 00e0 1BB2     		sxth	r3, r3
 280              	.LVL31:
 840:lvgl/lvgl/src/widgets/lv_table.c **** 
 841:lvgl/lvgl/src/widgets/lv_table.c ****                 lv_txt_get_size(&txt_size, table->cell_data[cell] + 1, font,
 281              		.loc 1 841 17 is_stmt 1 view .LVU95
 282 00e2 0022     		movs	r2, #0
 283 00e4 0292     		str	r2, [sp, #8]
 284              	.LVL32:
 285              		.loc 1 841 17 is_stmt 0 view .LVU96
 286 00e6 0193     		str	r3, [sp, #4]
 287 00e8 0B9B     		ldr	r3, [sp, #44]
 288              	.LVL33:
 289              		.loc 1 841 17 view .LVU97
 290 00ea 0093     		str	r3, [sp]
 291 00ec 0A9B     		ldr	r3, [sp, #40]
 292 00ee 059A     		ldr	r2, [sp, #20]
 293 00f0 0EF10101 		add	r1, lr, #1
 294 00f4 0FA8     		add	r0, sp, #60
 295 00f6 FFF7FEFF 		bl	lv_txt_get_size
 296              	.LVL34:
 842:lvgl/lvgl/src/widgets/lv_table.c ****                                  letter_space, line_space, txt_w, LV_TEXT_FLAG_NONE);
 843:lvgl/lvgl/src/widgets/lv_table.c **** 
 844:lvgl/lvgl/src/widgets/lv_table.c ****                 h_max = LV_MAX(txt_size.y + cell_top + cell_bottom, h_max);
 297              		.loc 1 844 17 is_stmt 1 view .LVU98
 298              		.loc 1 844 25 is_stmt 0 view .LVU99
 299 00fa BDF93E30 		ldrsh	r3, [sp, #62]
 300 00fe 069A     		ldr	r2, [sp, #24]
 301 0100 1344     		add	r3, r3, r2
 302 0102 079A     		ldr	r2, [sp, #28]
 303 0104 1344     		add	r3, r3, r2
 304 0106 9F42     		cmp	r7, r3
 305 0108 B8BF     		it	lt
 306 010a 1F46     		movlt	r7, r3
 307              	.LVL35:
ARM GAS  C:\Users\gx\AppData\Local\Temp\ccSIsGPa.s 			page 24


 308              		.loc 1 844 23 view .LVU100
 309 010c 3FB2     		sxth	r7, r7
 310              	.LVL36:
 845:lvgl/lvgl/src/widgets/lv_table.c ****                 cell += col_merge;
 311              		.loc 1 845 17 is_stmt 1 view .LVU101
 312              		.loc 1 845 22 is_stmt 0 view .LVU102
 313 010e 2644     		add	r6, r6, r4
 314              	.LVL37:
 315              		.loc 1 845 22 view .LVU103
 316 0110 B6B2     		uxth	r6, r6
 317              	.LVL38:
 846:lvgl/lvgl/src/widgets/lv_table.c ****                 col += col_merge;
 318              		.loc 1 846 17 is_stmt 1 view .LVU104
 319              		.loc 1 846 21 is_stmt 0 view .LVU105
 320 0112 2544     		add	r5, r5, r4
 321              	.LVL39:
 322              		.loc 1 846 21 view .LVU106
 323 0114 ADB2     		uxth	r5, r5
 324              	.LVL40:
 325              		.loc 1 846 21 view .LVU107
 326 0116 C6E7     		b	.L3
 327              	.LVL41:
 328              	.L11:
 329              		.loc 1 846 21 view .LVU108
 330              	.LBE94:
 847:lvgl/lvgl/src/widgets/lv_table.c ****             }
 848:lvgl/lvgl/src/widgets/lv_table.c ****         }
 849:lvgl/lvgl/src/widgets/lv_table.c ****     }
 850:lvgl/lvgl/src/widgets/lv_table.c **** 
 851:lvgl/lvgl/src/widgets/lv_table.c ****     return h_max;
 331              		.loc 1 851 5 is_stmt 1 view .LVU109
 852:lvgl/lvgl/src/widgets/lv_table.c **** }
 332              		.loc 1 852 1 is_stmt 0 view .LVU110
 333 0118 3846     		mov	r0, r7
 334 011a 11B0     		add	sp, sp, #68
 335              	.LCFI2:
 336              		.cfi_def_cfa_offset 36
 337              		@ sp needed
 338 011c BDE8F08F 		pop	{r4, r5, r6, r7, r8, r9, r10, fp, pc}
 339              		.loc 1 852 1 view .LVU111
 340              		.cfi_endproc
 341              	.LFE171:
 343              		.section	.text.refr_size,"ax",%progbits
 344              		.align	1
 345              		.syntax unified
 346              		.thumb
 347              		.thumb_func
 348              		.fpu fpv4-sp-d16
 350              	refr_size:
 351              	.LVL42:
 352              	.LFB170:
 770:lvgl/lvgl/src/widgets/lv_table.c ****     lv_table_t * table = (lv_table_t *)obj;
 353              		.loc 1 770 1 is_stmt 1 view -0
 354              		.cfi_startproc
 355              		@ args = 0, pretend = 0, frame = 16
 356              		@ frame_needed = 0, uses_anonymous_args = 0
 770:lvgl/lvgl/src/widgets/lv_table.c ****     lv_table_t * table = (lv_table_t *)obj;
ARM GAS  C:\Users\gx\AppData\Local\Temp\ccSIsGPa.s 			page 25


 357              		.loc 1 770 1 is_stmt 0 view .LVU113
 358 0000 2DE9F04F 		push	{r4, r5, r6, r7, r8, r9, r10, fp, lr}
 359              	.LCFI3:
 360              		.cfi_def_cfa_offset 36
 361              		.cfi_offset 4, -36
 362              		.cfi_offset 5, -32
 363              		.cfi_offset 6, -28
 364              		.cfi_offset 7, -24
 365              		.cfi_offset 8, -20
 366              		.cfi_offset 9, -16
 367              		.cfi_offset 10, -12
 368              		.cfi_offset 11, -8
 369              		.cfi_offset 14, -4
 370 0004 8BB0     		sub	sp, sp, #44
 371              	.LCFI4:
 372              		.cfi_def_cfa_offset 80
 373 0006 0546     		mov	r5, r0
 374 0008 0C46     		mov	r4, r1
 771:lvgl/lvgl/src/widgets/lv_table.c **** 
 375              		.loc 1 771 5 is_stmt 1 view .LVU114
 376              	.LVL43:
 773:lvgl/lvgl/src/widgets/lv_table.c **** 
 377              		.loc 1 773 5 view .LVU115
 775:lvgl/lvgl/src/widgets/lv_table.c ****     lv_coord_t cell_right = lv_obj_get_style_pad_right(obj, LV_PART_ITEMS);
 378              		.loc 1 775 5 view .LVU116
 379              	.LBB95:
 380              	.LBI95:
 381              		.file 3 "lvgl/lvgl/src/widgets/../core/lv_obj_style_gen.h"
   1:lvgl/lvgl/src/widgets/../core/lv_obj_style_gen.h **** static inline lv_coord_t lv_obj_get_style_width(const struct _lv_obj_t * obj, uint32_t part)
   2:lvgl/lvgl/src/widgets/../core/lv_obj_style_gen.h **** {
   3:lvgl/lvgl/src/widgets/../core/lv_obj_style_gen.h ****     lv_style_value_t v = lv_obj_get_style_prop(obj, part, LV_STYLE_WIDTH);
   4:lvgl/lvgl/src/widgets/../core/lv_obj_style_gen.h ****     return (lv_coord_t)v.num;
   5:lvgl/lvgl/src/widgets/../core/lv_obj_style_gen.h **** }
   6:lvgl/lvgl/src/widgets/../core/lv_obj_style_gen.h **** 
   7:lvgl/lvgl/src/widgets/../core/lv_obj_style_gen.h **** static inline lv_coord_t lv_obj_get_style_min_width(const struct _lv_obj_t * obj, uint32_t part)
   8:lvgl/lvgl/src/widgets/../core/lv_obj_style_gen.h **** {
   9:lvgl/lvgl/src/widgets/../core/lv_obj_style_gen.h ****     lv_style_value_t v = lv_obj_get_style_prop(obj, part, LV_STYLE_MIN_WIDTH);
  10:lvgl/lvgl/src/widgets/../core/lv_obj_style_gen.h ****     return (lv_coord_t)v.num;
  11:lvgl/lvgl/src/widgets/../core/lv_obj_style_gen.h **** }
  12:lvgl/lvgl/src/widgets/../core/lv_obj_style_gen.h **** 
  13:lvgl/lvgl/src/widgets/../core/lv_obj_style_gen.h **** static inline lv_coord_t lv_obj_get_style_max_width(const struct _lv_obj_t * obj, uint32_t part)
  14:lvgl/lvgl/src/widgets/../core/lv_obj_style_gen.h **** {
  15:lvgl/lvgl/src/widgets/../core/lv_obj_style_gen.h ****     lv_style_value_t v = lv_obj_get_style_prop(obj, part, LV_STYLE_MAX_WIDTH);
  16:lvgl/lvgl/src/widgets/../core/lv_obj_style_gen.h ****     return (lv_coord_t)v.num;
  17:lvgl/lvgl/src/widgets/../core/lv_obj_style_gen.h **** }
  18:lvgl/lvgl/src/widgets/../core/lv_obj_style_gen.h **** 
  19:lvgl/lvgl/src/widgets/../core/lv_obj_style_gen.h **** static inline lv_coord_t lv_obj_get_style_height(const struct _lv_obj_t * obj, uint32_t part)
  20:lvgl/lvgl/src/widgets/../core/lv_obj_style_gen.h **** {
  21:lvgl/lvgl/src/widgets/../core/lv_obj_style_gen.h ****     lv_style_value_t v = lv_obj_get_style_prop(obj, part, LV_STYLE_HEIGHT);
  22:lvgl/lvgl/src/widgets/../core/lv_obj_style_gen.h ****     return (lv_coord_t)v.num;
  23:lvgl/lvgl/src/widgets/../core/lv_obj_style_gen.h **** }
  24:lvgl/lvgl/src/widgets/../core/lv_obj_style_gen.h **** 
  25:lvgl/lvgl/src/widgets/../core/lv_obj_style_gen.h **** static inline lv_coord_t lv_obj_get_style_min_height(const struct _lv_obj_t * obj, uint32_t part)
  26:lvgl/lvgl/src/widgets/../core/lv_obj_style_gen.h **** {
  27:lvgl/lvgl/src/widgets/../core/lv_obj_style_gen.h ****     lv_style_value_t v = lv_obj_get_style_prop(obj, part, LV_STYLE_MIN_HEIGHT);
  28:lvgl/lvgl/src/widgets/../core/lv_obj_style_gen.h ****     return (lv_coord_t)v.num;
  29:lvgl/lvgl/src/widgets/../core/lv_obj_style_gen.h **** }
ARM GAS  C:\Users\gx\AppData\Local\Temp\ccSIsGPa.s 			page 26


  30:lvgl/lvgl/src/widgets/../core/lv_obj_style_gen.h **** 
  31:lvgl/lvgl/src/widgets/../core/lv_obj_style_gen.h **** static inline lv_coord_t lv_obj_get_style_max_height(const struct _lv_obj_t * obj, uint32_t part)
  32:lvgl/lvgl/src/widgets/../core/lv_obj_style_gen.h **** {
  33:lvgl/lvgl/src/widgets/../core/lv_obj_style_gen.h ****     lv_style_value_t v = lv_obj_get_style_prop(obj, part, LV_STYLE_MAX_HEIGHT);
  34:lvgl/lvgl/src/widgets/../core/lv_obj_style_gen.h ****     return (lv_coord_t)v.num;
  35:lvgl/lvgl/src/widgets/../core/lv_obj_style_gen.h **** }
  36:lvgl/lvgl/src/widgets/../core/lv_obj_style_gen.h **** 
  37:lvgl/lvgl/src/widgets/../core/lv_obj_style_gen.h **** static inline lv_coord_t lv_obj_get_style_x(const struct _lv_obj_t * obj, uint32_t part)
  38:lvgl/lvgl/src/widgets/../core/lv_obj_style_gen.h **** {
  39:lvgl/lvgl/src/widgets/../core/lv_obj_style_gen.h ****     lv_style_value_t v = lv_obj_get_style_prop(obj, part, LV_STYLE_X);
  40:lvgl/lvgl/src/widgets/../core/lv_obj_style_gen.h ****     return (lv_coord_t)v.num;
  41:lvgl/lvgl/src/widgets/../core/lv_obj_style_gen.h **** }
  42:lvgl/lvgl/src/widgets/../core/lv_obj_style_gen.h **** 
  43:lvgl/lvgl/src/widgets/../core/lv_obj_style_gen.h **** static inline lv_coord_t lv_obj_get_style_y(const struct _lv_obj_t * obj, uint32_t part)
  44:lvgl/lvgl/src/widgets/../core/lv_obj_style_gen.h **** {
  45:lvgl/lvgl/src/widgets/../core/lv_obj_style_gen.h ****     lv_style_value_t v = lv_obj_get_style_prop(obj, part, LV_STYLE_Y);
  46:lvgl/lvgl/src/widgets/../core/lv_obj_style_gen.h ****     return (lv_coord_t)v.num;
  47:lvgl/lvgl/src/widgets/../core/lv_obj_style_gen.h **** }
  48:lvgl/lvgl/src/widgets/../core/lv_obj_style_gen.h **** 
  49:lvgl/lvgl/src/widgets/../core/lv_obj_style_gen.h **** static inline lv_align_t lv_obj_get_style_align(const struct _lv_obj_t * obj, uint32_t part)
  50:lvgl/lvgl/src/widgets/../core/lv_obj_style_gen.h **** {
  51:lvgl/lvgl/src/widgets/../core/lv_obj_style_gen.h ****     lv_style_value_t v = lv_obj_get_style_prop(obj, part, LV_STYLE_ALIGN);
  52:lvgl/lvgl/src/widgets/../core/lv_obj_style_gen.h ****     return (lv_align_t)v.num;
  53:lvgl/lvgl/src/widgets/../core/lv_obj_style_gen.h **** }
  54:lvgl/lvgl/src/widgets/../core/lv_obj_style_gen.h **** 
  55:lvgl/lvgl/src/widgets/../core/lv_obj_style_gen.h **** static inline lv_coord_t lv_obj_get_style_transform_width(const struct _lv_obj_t * obj, uint32_t pa
  56:lvgl/lvgl/src/widgets/../core/lv_obj_style_gen.h **** {
  57:lvgl/lvgl/src/widgets/../core/lv_obj_style_gen.h ****     lv_style_value_t v = lv_obj_get_style_prop(obj, part, LV_STYLE_TRANSFORM_WIDTH);
  58:lvgl/lvgl/src/widgets/../core/lv_obj_style_gen.h ****     return (lv_coord_t)v.num;
  59:lvgl/lvgl/src/widgets/../core/lv_obj_style_gen.h **** }
  60:lvgl/lvgl/src/widgets/../core/lv_obj_style_gen.h **** 
  61:lvgl/lvgl/src/widgets/../core/lv_obj_style_gen.h **** static inline lv_coord_t lv_obj_get_style_transform_height(const struct _lv_obj_t * obj, uint32_t p
  62:lvgl/lvgl/src/widgets/../core/lv_obj_style_gen.h **** {
  63:lvgl/lvgl/src/widgets/../core/lv_obj_style_gen.h ****     lv_style_value_t v = lv_obj_get_style_prop(obj, part, LV_STYLE_TRANSFORM_HEIGHT);
  64:lvgl/lvgl/src/widgets/../core/lv_obj_style_gen.h ****     return (lv_coord_t)v.num;
  65:lvgl/lvgl/src/widgets/../core/lv_obj_style_gen.h **** }
  66:lvgl/lvgl/src/widgets/../core/lv_obj_style_gen.h **** 
  67:lvgl/lvgl/src/widgets/../core/lv_obj_style_gen.h **** static inline lv_coord_t lv_obj_get_style_translate_x(const struct _lv_obj_t * obj, uint32_t part)
  68:lvgl/lvgl/src/widgets/../core/lv_obj_style_gen.h **** {
  69:lvgl/lvgl/src/widgets/../core/lv_obj_style_gen.h ****     lv_style_value_t v = lv_obj_get_style_prop(obj, part, LV_STYLE_TRANSLATE_X);
  70:lvgl/lvgl/src/widgets/../core/lv_obj_style_gen.h ****     return (lv_coord_t)v.num;
  71:lvgl/lvgl/src/widgets/../core/lv_obj_style_gen.h **** }
  72:lvgl/lvgl/src/widgets/../core/lv_obj_style_gen.h **** 
  73:lvgl/lvgl/src/widgets/../core/lv_obj_style_gen.h **** static inline lv_coord_t lv_obj_get_style_translate_y(const struct _lv_obj_t * obj, uint32_t part)
  74:lvgl/lvgl/src/widgets/../core/lv_obj_style_gen.h **** {
  75:lvgl/lvgl/src/widgets/../core/lv_obj_style_gen.h ****     lv_style_value_t v = lv_obj_get_style_prop(obj, part, LV_STYLE_TRANSLATE_Y);
  76:lvgl/lvgl/src/widgets/../core/lv_obj_style_gen.h ****     return (lv_coord_t)v.num;
  77:lvgl/lvgl/src/widgets/../core/lv_obj_style_gen.h **** }
  78:lvgl/lvgl/src/widgets/../core/lv_obj_style_gen.h **** 
  79:lvgl/lvgl/src/widgets/../core/lv_obj_style_gen.h **** static inline lv_coord_t lv_obj_get_style_transform_zoom(const struct _lv_obj_t * obj, uint32_t par
  80:lvgl/lvgl/src/widgets/../core/lv_obj_style_gen.h **** {
  81:lvgl/lvgl/src/widgets/../core/lv_obj_style_gen.h ****     lv_style_value_t v = lv_obj_get_style_prop(obj, part, LV_STYLE_TRANSFORM_ZOOM);
  82:lvgl/lvgl/src/widgets/../core/lv_obj_style_gen.h ****     return (lv_coord_t)v.num;
  83:lvgl/lvgl/src/widgets/../core/lv_obj_style_gen.h **** }
  84:lvgl/lvgl/src/widgets/../core/lv_obj_style_gen.h **** 
  85:lvgl/lvgl/src/widgets/../core/lv_obj_style_gen.h **** static inline lv_coord_t lv_obj_get_style_transform_angle(const struct _lv_obj_t * obj, uint32_t pa
  86:lvgl/lvgl/src/widgets/../core/lv_obj_style_gen.h **** {
ARM GAS  C:\Users\gx\AppData\Local\Temp\ccSIsGPa.s 			page 27


  87:lvgl/lvgl/src/widgets/../core/lv_obj_style_gen.h ****     lv_style_value_t v = lv_obj_get_style_prop(obj, part, LV_STYLE_TRANSFORM_ANGLE);
  88:lvgl/lvgl/src/widgets/../core/lv_obj_style_gen.h ****     return (lv_coord_t)v.num;
  89:lvgl/lvgl/src/widgets/../core/lv_obj_style_gen.h **** }
  90:lvgl/lvgl/src/widgets/../core/lv_obj_style_gen.h **** 
  91:lvgl/lvgl/src/widgets/../core/lv_obj_style_gen.h **** static inline lv_coord_t lv_obj_get_style_pad_top(const struct _lv_obj_t * obj, uint32_t part)
  92:lvgl/lvgl/src/widgets/../core/lv_obj_style_gen.h **** {
  93:lvgl/lvgl/src/widgets/../core/lv_obj_style_gen.h ****     lv_style_value_t v = lv_obj_get_style_prop(obj, part, LV_STYLE_PAD_TOP);
  94:lvgl/lvgl/src/widgets/../core/lv_obj_style_gen.h ****     return (lv_coord_t)v.num;
  95:lvgl/lvgl/src/widgets/../core/lv_obj_style_gen.h **** }
  96:lvgl/lvgl/src/widgets/../core/lv_obj_style_gen.h **** 
  97:lvgl/lvgl/src/widgets/../core/lv_obj_style_gen.h **** static inline lv_coord_t lv_obj_get_style_pad_bottom(const struct _lv_obj_t * obj, uint32_t part)
  98:lvgl/lvgl/src/widgets/../core/lv_obj_style_gen.h **** {
  99:lvgl/lvgl/src/widgets/../core/lv_obj_style_gen.h ****     lv_style_value_t v = lv_obj_get_style_prop(obj, part, LV_STYLE_PAD_BOTTOM);
 100:lvgl/lvgl/src/widgets/../core/lv_obj_style_gen.h ****     return (lv_coord_t)v.num;
 101:lvgl/lvgl/src/widgets/../core/lv_obj_style_gen.h **** }
 102:lvgl/lvgl/src/widgets/../core/lv_obj_style_gen.h **** 
 103:lvgl/lvgl/src/widgets/../core/lv_obj_style_gen.h **** static inline lv_coord_t lv_obj_get_style_pad_left(const struct _lv_obj_t * obj, uint32_t part)
 382              		.loc 3 103 26 view .LVU117
 383              	.LBB96:
 104:lvgl/lvgl/src/widgets/../core/lv_obj_style_gen.h **** {
 105:lvgl/lvgl/src/widgets/../core/lv_obj_style_gen.h ****     lv_style_value_t v = lv_obj_get_style_prop(obj, part, LV_STYLE_PAD_LEFT);
 384              		.loc 3 105 5 view .LVU118
 385              		.loc 3 105 26 is_stmt 0 view .LVU119
 386 000a 41F21202 		movw	r2, #4114
 387 000e 4FF4A021 		mov	r1, #327680
 388              	.LVL44:
 389              		.loc 3 105 26 view .LVU120
 390 0012 FFF7FEFF 		bl	lv_obj_get_style_prop
 391              	.LVL45:
 106:lvgl/lvgl/src/widgets/../core/lv_obj_style_gen.h ****     return (lv_coord_t)v.num;
 392              		.loc 3 106 5 is_stmt 1 view .LVU121
 393              		.loc 3 106 12 is_stmt 0 view .LVU122
 394 0016 0FFA80FB 		sxth	fp, r0
 395              	.LVL46:
 396              		.loc 3 106 12 view .LVU123
 397              	.LBE96:
 398              	.LBE95:
 776:lvgl/lvgl/src/widgets/lv_table.c ****     lv_coord_t cell_top = lv_obj_get_style_pad_top(obj, LV_PART_ITEMS);
 399              		.loc 1 776 5 is_stmt 1 view .LVU124
 400              	.LBB97:
 401              	.LBI97:
 107:lvgl/lvgl/src/widgets/../core/lv_obj_style_gen.h **** }
 108:lvgl/lvgl/src/widgets/../core/lv_obj_style_gen.h **** 
 109:lvgl/lvgl/src/widgets/../core/lv_obj_style_gen.h **** static inline lv_coord_t lv_obj_get_style_pad_right(const struct _lv_obj_t * obj, uint32_t part)
 402              		.loc 3 109 26 view .LVU125
 403              	.LBB98:
 110:lvgl/lvgl/src/widgets/../core/lv_obj_style_gen.h **** {
 111:lvgl/lvgl/src/widgets/../core/lv_obj_style_gen.h ****     lv_style_value_t v = lv_obj_get_style_prop(obj, part, LV_STYLE_PAD_RIGHT);
 404              		.loc 3 111 5 view .LVU126
 405              		.loc 3 111 26 is_stmt 0 view .LVU127
 406 001a 41F21302 		movw	r2, #4115
 407 001e 4FF4A021 		mov	r1, #327680
 408 0022 2846     		mov	r0, r5
 409 0024 FFF7FEFF 		bl	lv_obj_get_style_prop
 410              	.LVL47:
 112:lvgl/lvgl/src/widgets/../core/lv_obj_style_gen.h ****     return (lv_coord_t)v.num;
 411              		.loc 3 112 5 is_stmt 1 view .LVU128
ARM GAS  C:\Users\gx\AppData\Local\Temp\ccSIsGPa.s 			page 28


 412              		.loc 3 112 12 is_stmt 0 view .LVU129
 413 0028 0FFA80FA 		sxth	r10, r0
 414              	.LVL48:
 415              		.loc 3 112 12 view .LVU130
 416              	.LBE98:
 417              	.LBE97:
 777:lvgl/lvgl/src/widgets/lv_table.c ****     lv_coord_t cell_bottom = lv_obj_get_style_pad_bottom(obj, LV_PART_ITEMS);
 418              		.loc 1 777 5 is_stmt 1 view .LVU131
 419              	.LBB99:
 420              	.LBI99:
  91:lvgl/lvgl/src/widgets/../core/lv_obj_style_gen.h **** {
 421              		.loc 3 91 26 view .LVU132
 422              	.LBB100:
  93:lvgl/lvgl/src/widgets/../core/lv_obj_style_gen.h ****     return (lv_coord_t)v.num;
 423              		.loc 3 93 5 view .LVU133
  93:lvgl/lvgl/src/widgets/../core/lv_obj_style_gen.h ****     return (lv_coord_t)v.num;
 424              		.loc 3 93 26 is_stmt 0 view .LVU134
 425 002c 41F21002 		movw	r2, #4112
 426 0030 4FF4A021 		mov	r1, #327680
 427 0034 2846     		mov	r0, r5
 428 0036 FFF7FEFF 		bl	lv_obj_get_style_prop
 429              	.LVL49:
  94:lvgl/lvgl/src/widgets/../core/lv_obj_style_gen.h **** }
 430              		.loc 3 94 5 is_stmt 1 view .LVU135
  94:lvgl/lvgl/src/widgets/../core/lv_obj_style_gen.h **** }
 431              		.loc 3 94 12 is_stmt 0 view .LVU136
 432 003a 0FFA80F9 		sxth	r9, r0
 433              	.LVL50:
  94:lvgl/lvgl/src/widgets/../core/lv_obj_style_gen.h **** }
 434              		.loc 3 94 12 view .LVU137
 435              	.LBE100:
 436              	.LBE99:
 778:lvgl/lvgl/src/widgets/lv_table.c **** 
 437              		.loc 1 778 5 is_stmt 1 view .LVU138
 438              	.LBB101:
 439              	.LBI101:
  97:lvgl/lvgl/src/widgets/../core/lv_obj_style_gen.h **** {
 440              		.loc 3 97 26 view .LVU139
 441              	.LBB102:
  99:lvgl/lvgl/src/widgets/../core/lv_obj_style_gen.h ****     return (lv_coord_t)v.num;
 442              		.loc 3 99 5 view .LVU140
  99:lvgl/lvgl/src/widgets/../core/lv_obj_style_gen.h ****     return (lv_coord_t)v.num;
 443              		.loc 3 99 26 is_stmt 0 view .LVU141
 444 003e 41F21102 		movw	r2, #4113
 445 0042 4FF4A021 		mov	r1, #327680
 446 0046 2846     		mov	r0, r5
 447 0048 FFF7FEFF 		bl	lv_obj_get_style_prop
 448              	.LVL51:
 100:lvgl/lvgl/src/widgets/../core/lv_obj_style_gen.h **** }
 449              		.loc 3 100 5 is_stmt 1 view .LVU142
 100:lvgl/lvgl/src/widgets/../core/lv_obj_style_gen.h **** }
 450              		.loc 3 100 12 is_stmt 0 view .LVU143
 451 004c 03B2     		sxth	r3, r0
 452 004e 0993     		str	r3, [sp, #36]
 453              	.LVL52:
 100:lvgl/lvgl/src/widgets/../core/lv_obj_style_gen.h **** }
 454              		.loc 3 100 12 view .LVU144
ARM GAS  C:\Users\gx\AppData\Local\Temp\ccSIsGPa.s 			page 29


 455              	.LBE102:
 456              	.LBE101:
 780:lvgl/lvgl/src/widgets/lv_table.c ****     lv_coord_t line_space = lv_obj_get_style_text_line_space(obj, LV_PART_ITEMS);
 457              		.loc 1 780 5 is_stmt 1 view .LVU145
 458              	.LBB103:
 459              	.LBI103:
 113:lvgl/lvgl/src/widgets/../core/lv_obj_style_gen.h **** }
 114:lvgl/lvgl/src/widgets/../core/lv_obj_style_gen.h **** 
 115:lvgl/lvgl/src/widgets/../core/lv_obj_style_gen.h **** static inline lv_coord_t lv_obj_get_style_pad_row(const struct _lv_obj_t * obj, uint32_t part)
 116:lvgl/lvgl/src/widgets/../core/lv_obj_style_gen.h **** {
 117:lvgl/lvgl/src/widgets/../core/lv_obj_style_gen.h ****     lv_style_value_t v = lv_obj_get_style_prop(obj, part, LV_STYLE_PAD_ROW);
 118:lvgl/lvgl/src/widgets/../core/lv_obj_style_gen.h ****     return (lv_coord_t)v.num;
 119:lvgl/lvgl/src/widgets/../core/lv_obj_style_gen.h **** }
 120:lvgl/lvgl/src/widgets/../core/lv_obj_style_gen.h **** 
 121:lvgl/lvgl/src/widgets/../core/lv_obj_style_gen.h **** static inline lv_coord_t lv_obj_get_style_pad_column(const struct _lv_obj_t * obj, uint32_t part)
 122:lvgl/lvgl/src/widgets/../core/lv_obj_style_gen.h **** {
 123:lvgl/lvgl/src/widgets/../core/lv_obj_style_gen.h ****     lv_style_value_t v = lv_obj_get_style_prop(obj, part, LV_STYLE_PAD_COLUMN);
 124:lvgl/lvgl/src/widgets/../core/lv_obj_style_gen.h ****     return (lv_coord_t)v.num;
 125:lvgl/lvgl/src/widgets/../core/lv_obj_style_gen.h **** }
 126:lvgl/lvgl/src/widgets/../core/lv_obj_style_gen.h **** 
 127:lvgl/lvgl/src/widgets/../core/lv_obj_style_gen.h **** static inline lv_coord_t lv_obj_get_style_radius(const struct _lv_obj_t * obj, uint32_t part)
 128:lvgl/lvgl/src/widgets/../core/lv_obj_style_gen.h **** {
 129:lvgl/lvgl/src/widgets/../core/lv_obj_style_gen.h ****     lv_style_value_t v = lv_obj_get_style_prop(obj, part, LV_STYLE_RADIUS);
 130:lvgl/lvgl/src/widgets/../core/lv_obj_style_gen.h ****     return (lv_coord_t)v.num;
 131:lvgl/lvgl/src/widgets/../core/lv_obj_style_gen.h **** }
 132:lvgl/lvgl/src/widgets/../core/lv_obj_style_gen.h **** 
 133:lvgl/lvgl/src/widgets/../core/lv_obj_style_gen.h **** static inline bool lv_obj_get_style_clip_corner(const struct _lv_obj_t * obj, uint32_t part)
 134:lvgl/lvgl/src/widgets/../core/lv_obj_style_gen.h **** {
 135:lvgl/lvgl/src/widgets/../core/lv_obj_style_gen.h ****     lv_style_value_t v = lv_obj_get_style_prop(obj, part, LV_STYLE_CLIP_CORNER);
 136:lvgl/lvgl/src/widgets/../core/lv_obj_style_gen.h ****     return (bool)v.num;
 137:lvgl/lvgl/src/widgets/../core/lv_obj_style_gen.h **** }
 138:lvgl/lvgl/src/widgets/../core/lv_obj_style_gen.h **** 
 139:lvgl/lvgl/src/widgets/../core/lv_obj_style_gen.h **** static inline lv_opa_t lv_obj_get_style_opa(const struct _lv_obj_t * obj, uint32_t part)
 140:lvgl/lvgl/src/widgets/../core/lv_obj_style_gen.h **** {
 141:lvgl/lvgl/src/widgets/../core/lv_obj_style_gen.h ****     lv_style_value_t v = lv_obj_get_style_prop(obj, part, LV_STYLE_OPA);
 142:lvgl/lvgl/src/widgets/../core/lv_obj_style_gen.h ****     return (lv_opa_t)v.num;
 143:lvgl/lvgl/src/widgets/../core/lv_obj_style_gen.h **** }
 144:lvgl/lvgl/src/widgets/../core/lv_obj_style_gen.h **** 
 145:lvgl/lvgl/src/widgets/../core/lv_obj_style_gen.h **** static inline const lv_color_filter_dsc_t * lv_obj_get_style_color_filter_dsc(const struct _lv_obj_
 146:lvgl/lvgl/src/widgets/../core/lv_obj_style_gen.h **** {
 147:lvgl/lvgl/src/widgets/../core/lv_obj_style_gen.h ****     lv_style_value_t v = lv_obj_get_style_prop(obj, part, LV_STYLE_COLOR_FILTER_DSC);
 148:lvgl/lvgl/src/widgets/../core/lv_obj_style_gen.h ****     return (const lv_color_filter_dsc_t *)v.ptr;
 149:lvgl/lvgl/src/widgets/../core/lv_obj_style_gen.h **** }
 150:lvgl/lvgl/src/widgets/../core/lv_obj_style_gen.h **** 
 151:lvgl/lvgl/src/widgets/../core/lv_obj_style_gen.h **** static inline lv_opa_t lv_obj_get_style_color_filter_opa(const struct _lv_obj_t * obj, uint32_t par
 152:lvgl/lvgl/src/widgets/../core/lv_obj_style_gen.h **** {
 153:lvgl/lvgl/src/widgets/../core/lv_obj_style_gen.h ****     lv_style_value_t v = lv_obj_get_style_prop(obj, part, LV_STYLE_COLOR_FILTER_OPA);
 154:lvgl/lvgl/src/widgets/../core/lv_obj_style_gen.h ****     return (lv_opa_t)v.num;
 155:lvgl/lvgl/src/widgets/../core/lv_obj_style_gen.h **** }
 156:lvgl/lvgl/src/widgets/../core/lv_obj_style_gen.h **** 
 157:lvgl/lvgl/src/widgets/../core/lv_obj_style_gen.h **** static inline uint32_t lv_obj_get_style_anim_time(const struct _lv_obj_t * obj, uint32_t part)
 158:lvgl/lvgl/src/widgets/../core/lv_obj_style_gen.h **** {
 159:lvgl/lvgl/src/widgets/../core/lv_obj_style_gen.h ****     lv_style_value_t v = lv_obj_get_style_prop(obj, part, LV_STYLE_ANIM_TIME);
 160:lvgl/lvgl/src/widgets/../core/lv_obj_style_gen.h ****     return (uint32_t)v.num;
 161:lvgl/lvgl/src/widgets/../core/lv_obj_style_gen.h **** }
 162:lvgl/lvgl/src/widgets/../core/lv_obj_style_gen.h **** 
 163:lvgl/lvgl/src/widgets/../core/lv_obj_style_gen.h **** static inline uint32_t lv_obj_get_style_anim_speed(const struct _lv_obj_t * obj, uint32_t part)
ARM GAS  C:\Users\gx\AppData\Local\Temp\ccSIsGPa.s 			page 30


 164:lvgl/lvgl/src/widgets/../core/lv_obj_style_gen.h **** {
 165:lvgl/lvgl/src/widgets/../core/lv_obj_style_gen.h ****     lv_style_value_t v = lv_obj_get_style_prop(obj, part, LV_STYLE_ANIM_SPEED);
 166:lvgl/lvgl/src/widgets/../core/lv_obj_style_gen.h ****     return (uint32_t)v.num;
 167:lvgl/lvgl/src/widgets/../core/lv_obj_style_gen.h **** }
 168:lvgl/lvgl/src/widgets/../core/lv_obj_style_gen.h **** 
 169:lvgl/lvgl/src/widgets/../core/lv_obj_style_gen.h **** static inline const lv_style_transition_dsc_t * lv_obj_get_style_transition(const struct _lv_obj_t 
 170:lvgl/lvgl/src/widgets/../core/lv_obj_style_gen.h **** {
 171:lvgl/lvgl/src/widgets/../core/lv_obj_style_gen.h ****     lv_style_value_t v = lv_obj_get_style_prop(obj, part, LV_STYLE_TRANSITION);
 172:lvgl/lvgl/src/widgets/../core/lv_obj_style_gen.h ****     return (const lv_style_transition_dsc_t *)v.ptr;
 173:lvgl/lvgl/src/widgets/../core/lv_obj_style_gen.h **** }
 174:lvgl/lvgl/src/widgets/../core/lv_obj_style_gen.h **** 
 175:lvgl/lvgl/src/widgets/../core/lv_obj_style_gen.h **** static inline lv_blend_mode_t lv_obj_get_style_blend_mode(const struct _lv_obj_t * obj, uint32_t pa
 176:lvgl/lvgl/src/widgets/../core/lv_obj_style_gen.h **** {
 177:lvgl/lvgl/src/widgets/../core/lv_obj_style_gen.h ****     lv_style_value_t v = lv_obj_get_style_prop(obj, part, LV_STYLE_BLEND_MODE);
 178:lvgl/lvgl/src/widgets/../core/lv_obj_style_gen.h ****     return (lv_blend_mode_t)v.num;
 179:lvgl/lvgl/src/widgets/../core/lv_obj_style_gen.h **** }
 180:lvgl/lvgl/src/widgets/../core/lv_obj_style_gen.h **** 
 181:lvgl/lvgl/src/widgets/../core/lv_obj_style_gen.h **** static inline uint16_t lv_obj_get_style_layout(const struct _lv_obj_t * obj, uint32_t part)
 182:lvgl/lvgl/src/widgets/../core/lv_obj_style_gen.h **** {
 183:lvgl/lvgl/src/widgets/../core/lv_obj_style_gen.h ****     lv_style_value_t v = lv_obj_get_style_prop(obj, part, LV_STYLE_LAYOUT);
 184:lvgl/lvgl/src/widgets/../core/lv_obj_style_gen.h ****     return (uint16_t)v.num;
 185:lvgl/lvgl/src/widgets/../core/lv_obj_style_gen.h **** }
 186:lvgl/lvgl/src/widgets/../core/lv_obj_style_gen.h **** 
 187:lvgl/lvgl/src/widgets/../core/lv_obj_style_gen.h **** static inline lv_base_dir_t lv_obj_get_style_base_dir(const struct _lv_obj_t * obj, uint32_t part)
 188:lvgl/lvgl/src/widgets/../core/lv_obj_style_gen.h **** {
 189:lvgl/lvgl/src/widgets/../core/lv_obj_style_gen.h ****     lv_style_value_t v = lv_obj_get_style_prop(obj, part, LV_STYLE_BASE_DIR);
 190:lvgl/lvgl/src/widgets/../core/lv_obj_style_gen.h ****     return (lv_base_dir_t)v.num;
 191:lvgl/lvgl/src/widgets/../core/lv_obj_style_gen.h **** }
 192:lvgl/lvgl/src/widgets/../core/lv_obj_style_gen.h **** 
 193:lvgl/lvgl/src/widgets/../core/lv_obj_style_gen.h **** static inline lv_color_t lv_obj_get_style_bg_color(const struct _lv_obj_t * obj, uint32_t part)
 194:lvgl/lvgl/src/widgets/../core/lv_obj_style_gen.h **** {
 195:lvgl/lvgl/src/widgets/../core/lv_obj_style_gen.h ****     lv_style_value_t v = lv_obj_get_style_prop(obj, part, LV_STYLE_BG_COLOR);
 196:lvgl/lvgl/src/widgets/../core/lv_obj_style_gen.h ****     return v.color;
 197:lvgl/lvgl/src/widgets/../core/lv_obj_style_gen.h **** }
 198:lvgl/lvgl/src/widgets/../core/lv_obj_style_gen.h **** 
 199:lvgl/lvgl/src/widgets/../core/lv_obj_style_gen.h **** static inline lv_color_t lv_obj_get_style_bg_color_filtered(const struct _lv_obj_t * obj, uint32_t 
 200:lvgl/lvgl/src/widgets/../core/lv_obj_style_gen.h **** {
 201:lvgl/lvgl/src/widgets/../core/lv_obj_style_gen.h ****     lv_style_value_t v = lv_obj_get_style_prop(obj, part, LV_STYLE_BG_COLOR_FILTERED);
 202:lvgl/lvgl/src/widgets/../core/lv_obj_style_gen.h ****     return v.color;
 203:lvgl/lvgl/src/widgets/../core/lv_obj_style_gen.h **** }
 204:lvgl/lvgl/src/widgets/../core/lv_obj_style_gen.h **** 
 205:lvgl/lvgl/src/widgets/../core/lv_obj_style_gen.h **** static inline lv_opa_t lv_obj_get_style_bg_opa(const struct _lv_obj_t * obj, uint32_t part)
 206:lvgl/lvgl/src/widgets/../core/lv_obj_style_gen.h **** {
 207:lvgl/lvgl/src/widgets/../core/lv_obj_style_gen.h ****     lv_style_value_t v = lv_obj_get_style_prop(obj, part, LV_STYLE_BG_OPA);
 208:lvgl/lvgl/src/widgets/../core/lv_obj_style_gen.h ****     return (lv_opa_t)v.num;
 209:lvgl/lvgl/src/widgets/../core/lv_obj_style_gen.h **** }
 210:lvgl/lvgl/src/widgets/../core/lv_obj_style_gen.h **** 
 211:lvgl/lvgl/src/widgets/../core/lv_obj_style_gen.h **** static inline lv_color_t lv_obj_get_style_bg_grad_color(const struct _lv_obj_t * obj, uint32_t part
 212:lvgl/lvgl/src/widgets/../core/lv_obj_style_gen.h **** {
 213:lvgl/lvgl/src/widgets/../core/lv_obj_style_gen.h ****     lv_style_value_t v = lv_obj_get_style_prop(obj, part, LV_STYLE_BG_GRAD_COLOR);
 214:lvgl/lvgl/src/widgets/../core/lv_obj_style_gen.h ****     return v.color;
 215:lvgl/lvgl/src/widgets/../core/lv_obj_style_gen.h **** }
 216:lvgl/lvgl/src/widgets/../core/lv_obj_style_gen.h **** 
 217:lvgl/lvgl/src/widgets/../core/lv_obj_style_gen.h **** static inline lv_color_t lv_obj_get_style_bg_grad_color_filtered(const struct _lv_obj_t * obj, uint
 218:lvgl/lvgl/src/widgets/../core/lv_obj_style_gen.h **** {
 219:lvgl/lvgl/src/widgets/../core/lv_obj_style_gen.h ****     lv_style_value_t v = lv_obj_get_style_prop(obj, part, LV_STYLE_BG_GRAD_COLOR_FILTERED);
 220:lvgl/lvgl/src/widgets/../core/lv_obj_style_gen.h ****     return v.color;
ARM GAS  C:\Users\gx\AppData\Local\Temp\ccSIsGPa.s 			page 31


 221:lvgl/lvgl/src/widgets/../core/lv_obj_style_gen.h **** }
 222:lvgl/lvgl/src/widgets/../core/lv_obj_style_gen.h **** 
 223:lvgl/lvgl/src/widgets/../core/lv_obj_style_gen.h **** static inline lv_grad_dir_t lv_obj_get_style_bg_grad_dir(const struct _lv_obj_t * obj, uint32_t par
 224:lvgl/lvgl/src/widgets/../core/lv_obj_style_gen.h **** {
 225:lvgl/lvgl/src/widgets/../core/lv_obj_style_gen.h ****     lv_style_value_t v = lv_obj_get_style_prop(obj, part, LV_STYLE_BG_GRAD_DIR);
 226:lvgl/lvgl/src/widgets/../core/lv_obj_style_gen.h ****     return (lv_grad_dir_t)v.num;
 227:lvgl/lvgl/src/widgets/../core/lv_obj_style_gen.h **** }
 228:lvgl/lvgl/src/widgets/../core/lv_obj_style_gen.h **** 
 229:lvgl/lvgl/src/widgets/../core/lv_obj_style_gen.h **** static inline lv_coord_t lv_obj_get_style_bg_main_stop(const struct _lv_obj_t * obj, uint32_t part)
 230:lvgl/lvgl/src/widgets/../core/lv_obj_style_gen.h **** {
 231:lvgl/lvgl/src/widgets/../core/lv_obj_style_gen.h ****     lv_style_value_t v = lv_obj_get_style_prop(obj, part, LV_STYLE_BG_MAIN_STOP);
 232:lvgl/lvgl/src/widgets/../core/lv_obj_style_gen.h ****     return (lv_coord_t)v.num;
 233:lvgl/lvgl/src/widgets/../core/lv_obj_style_gen.h **** }
 234:lvgl/lvgl/src/widgets/../core/lv_obj_style_gen.h **** 
 235:lvgl/lvgl/src/widgets/../core/lv_obj_style_gen.h **** static inline lv_coord_t lv_obj_get_style_bg_grad_stop(const struct _lv_obj_t * obj, uint32_t part)
 236:lvgl/lvgl/src/widgets/../core/lv_obj_style_gen.h **** {
 237:lvgl/lvgl/src/widgets/../core/lv_obj_style_gen.h ****     lv_style_value_t v = lv_obj_get_style_prop(obj, part, LV_STYLE_BG_GRAD_STOP);
 238:lvgl/lvgl/src/widgets/../core/lv_obj_style_gen.h ****     return (lv_coord_t)v.num;
 239:lvgl/lvgl/src/widgets/../core/lv_obj_style_gen.h **** }
 240:lvgl/lvgl/src/widgets/../core/lv_obj_style_gen.h **** 
 241:lvgl/lvgl/src/widgets/../core/lv_obj_style_gen.h **** static inline const void * lv_obj_get_style_bg_img_src(const struct _lv_obj_t * obj, uint32_t part)
 242:lvgl/lvgl/src/widgets/../core/lv_obj_style_gen.h **** {
 243:lvgl/lvgl/src/widgets/../core/lv_obj_style_gen.h ****     lv_style_value_t v = lv_obj_get_style_prop(obj, part, LV_STYLE_BG_IMG_SRC);
 244:lvgl/lvgl/src/widgets/../core/lv_obj_style_gen.h ****     return (const void *)v.ptr;
 245:lvgl/lvgl/src/widgets/../core/lv_obj_style_gen.h **** }
 246:lvgl/lvgl/src/widgets/../core/lv_obj_style_gen.h **** 
 247:lvgl/lvgl/src/widgets/../core/lv_obj_style_gen.h **** static inline lv_opa_t lv_obj_get_style_bg_img_opa(const struct _lv_obj_t * obj, uint32_t part)
 248:lvgl/lvgl/src/widgets/../core/lv_obj_style_gen.h **** {
 249:lvgl/lvgl/src/widgets/../core/lv_obj_style_gen.h ****     lv_style_value_t v = lv_obj_get_style_prop(obj, part, LV_STYLE_BG_IMG_OPA);
 250:lvgl/lvgl/src/widgets/../core/lv_obj_style_gen.h ****     return (lv_opa_t)v.num;
 251:lvgl/lvgl/src/widgets/../core/lv_obj_style_gen.h **** }
 252:lvgl/lvgl/src/widgets/../core/lv_obj_style_gen.h **** 
 253:lvgl/lvgl/src/widgets/../core/lv_obj_style_gen.h **** static inline lv_color_t lv_obj_get_style_bg_img_recolor(const struct _lv_obj_t * obj, uint32_t par
 254:lvgl/lvgl/src/widgets/../core/lv_obj_style_gen.h **** {
 255:lvgl/lvgl/src/widgets/../core/lv_obj_style_gen.h ****     lv_style_value_t v = lv_obj_get_style_prop(obj, part, LV_STYLE_BG_IMG_RECOLOR);
 256:lvgl/lvgl/src/widgets/../core/lv_obj_style_gen.h ****     return v.color;
 257:lvgl/lvgl/src/widgets/../core/lv_obj_style_gen.h **** }
 258:lvgl/lvgl/src/widgets/../core/lv_obj_style_gen.h **** 
 259:lvgl/lvgl/src/widgets/../core/lv_obj_style_gen.h **** static inline lv_color_t lv_obj_get_style_bg_img_recolor_filtered(const struct _lv_obj_t * obj, uin
 260:lvgl/lvgl/src/widgets/../core/lv_obj_style_gen.h **** {
 261:lvgl/lvgl/src/widgets/../core/lv_obj_style_gen.h ****     lv_style_value_t v = lv_obj_get_style_prop(obj, part, LV_STYLE_BG_IMG_RECOLOR_FILTERED);
 262:lvgl/lvgl/src/widgets/../core/lv_obj_style_gen.h ****     return v.color;
 263:lvgl/lvgl/src/widgets/../core/lv_obj_style_gen.h **** }
 264:lvgl/lvgl/src/widgets/../core/lv_obj_style_gen.h **** 
 265:lvgl/lvgl/src/widgets/../core/lv_obj_style_gen.h **** static inline lv_opa_t lv_obj_get_style_bg_img_recolor_opa(const struct _lv_obj_t * obj, uint32_t p
 266:lvgl/lvgl/src/widgets/../core/lv_obj_style_gen.h **** {
 267:lvgl/lvgl/src/widgets/../core/lv_obj_style_gen.h ****     lv_style_value_t v = lv_obj_get_style_prop(obj, part, LV_STYLE_BG_IMG_RECOLOR_OPA);
 268:lvgl/lvgl/src/widgets/../core/lv_obj_style_gen.h ****     return (lv_opa_t)v.num;
 269:lvgl/lvgl/src/widgets/../core/lv_obj_style_gen.h **** }
 270:lvgl/lvgl/src/widgets/../core/lv_obj_style_gen.h **** 
 271:lvgl/lvgl/src/widgets/../core/lv_obj_style_gen.h **** static inline bool lv_obj_get_style_bg_img_tiled(const struct _lv_obj_t * obj, uint32_t part)
 272:lvgl/lvgl/src/widgets/../core/lv_obj_style_gen.h **** {
 273:lvgl/lvgl/src/widgets/../core/lv_obj_style_gen.h ****     lv_style_value_t v = lv_obj_get_style_prop(obj, part, LV_STYLE_BG_IMG_TILED);
 274:lvgl/lvgl/src/widgets/../core/lv_obj_style_gen.h ****     return (bool)v.num;
 275:lvgl/lvgl/src/widgets/../core/lv_obj_style_gen.h **** }
 276:lvgl/lvgl/src/widgets/../core/lv_obj_style_gen.h **** 
 277:lvgl/lvgl/src/widgets/../core/lv_obj_style_gen.h **** static inline lv_color_t lv_obj_get_style_border_color(const struct _lv_obj_t * obj, uint32_t part)
ARM GAS  C:\Users\gx\AppData\Local\Temp\ccSIsGPa.s 			page 32


 278:lvgl/lvgl/src/widgets/../core/lv_obj_style_gen.h **** {
 279:lvgl/lvgl/src/widgets/../core/lv_obj_style_gen.h ****     lv_style_value_t v = lv_obj_get_style_prop(obj, part, LV_STYLE_BORDER_COLOR);
 280:lvgl/lvgl/src/widgets/../core/lv_obj_style_gen.h ****     return v.color;
 281:lvgl/lvgl/src/widgets/../core/lv_obj_style_gen.h **** }
 282:lvgl/lvgl/src/widgets/../core/lv_obj_style_gen.h **** 
 283:lvgl/lvgl/src/widgets/../core/lv_obj_style_gen.h **** static inline lv_color_t lv_obj_get_style_border_color_filtered(const struct _lv_obj_t * obj, uint3
 284:lvgl/lvgl/src/widgets/../core/lv_obj_style_gen.h **** {
 285:lvgl/lvgl/src/widgets/../core/lv_obj_style_gen.h ****     lv_style_value_t v = lv_obj_get_style_prop(obj, part, LV_STYLE_BORDER_COLOR_FILTERED);
 286:lvgl/lvgl/src/widgets/../core/lv_obj_style_gen.h ****     return v.color;
 287:lvgl/lvgl/src/widgets/../core/lv_obj_style_gen.h **** }
 288:lvgl/lvgl/src/widgets/../core/lv_obj_style_gen.h **** 
 289:lvgl/lvgl/src/widgets/../core/lv_obj_style_gen.h **** static inline lv_opa_t lv_obj_get_style_border_opa(const struct _lv_obj_t * obj, uint32_t part)
 290:lvgl/lvgl/src/widgets/../core/lv_obj_style_gen.h **** {
 291:lvgl/lvgl/src/widgets/../core/lv_obj_style_gen.h ****     lv_style_value_t v = lv_obj_get_style_prop(obj, part, LV_STYLE_BORDER_OPA);
 292:lvgl/lvgl/src/widgets/../core/lv_obj_style_gen.h ****     return (lv_opa_t)v.num;
 293:lvgl/lvgl/src/widgets/../core/lv_obj_style_gen.h **** }
 294:lvgl/lvgl/src/widgets/../core/lv_obj_style_gen.h **** 
 295:lvgl/lvgl/src/widgets/../core/lv_obj_style_gen.h **** static inline lv_coord_t lv_obj_get_style_border_width(const struct _lv_obj_t * obj, uint32_t part)
 296:lvgl/lvgl/src/widgets/../core/lv_obj_style_gen.h **** {
 297:lvgl/lvgl/src/widgets/../core/lv_obj_style_gen.h ****     lv_style_value_t v = lv_obj_get_style_prop(obj, part, LV_STYLE_BORDER_WIDTH);
 298:lvgl/lvgl/src/widgets/../core/lv_obj_style_gen.h ****     return (lv_coord_t)v.num;
 299:lvgl/lvgl/src/widgets/../core/lv_obj_style_gen.h **** }
 300:lvgl/lvgl/src/widgets/../core/lv_obj_style_gen.h **** 
 301:lvgl/lvgl/src/widgets/../core/lv_obj_style_gen.h **** static inline lv_border_side_t lv_obj_get_style_border_side(const struct _lv_obj_t * obj, uint32_t 
 302:lvgl/lvgl/src/widgets/../core/lv_obj_style_gen.h **** {
 303:lvgl/lvgl/src/widgets/../core/lv_obj_style_gen.h ****     lv_style_value_t v = lv_obj_get_style_prop(obj, part, LV_STYLE_BORDER_SIDE);
 304:lvgl/lvgl/src/widgets/../core/lv_obj_style_gen.h ****     return (lv_border_side_t)v.num;
 305:lvgl/lvgl/src/widgets/../core/lv_obj_style_gen.h **** }
 306:lvgl/lvgl/src/widgets/../core/lv_obj_style_gen.h **** 
 307:lvgl/lvgl/src/widgets/../core/lv_obj_style_gen.h **** static inline bool lv_obj_get_style_border_post(const struct _lv_obj_t * obj, uint32_t part)
 308:lvgl/lvgl/src/widgets/../core/lv_obj_style_gen.h **** {
 309:lvgl/lvgl/src/widgets/../core/lv_obj_style_gen.h ****     lv_style_value_t v = lv_obj_get_style_prop(obj, part, LV_STYLE_BORDER_POST);
 310:lvgl/lvgl/src/widgets/../core/lv_obj_style_gen.h ****     return (bool)v.num;
 311:lvgl/lvgl/src/widgets/../core/lv_obj_style_gen.h **** }
 312:lvgl/lvgl/src/widgets/../core/lv_obj_style_gen.h **** 
 313:lvgl/lvgl/src/widgets/../core/lv_obj_style_gen.h **** static inline lv_color_t lv_obj_get_style_text_color(const struct _lv_obj_t * obj, uint32_t part)
 314:lvgl/lvgl/src/widgets/../core/lv_obj_style_gen.h **** {
 315:lvgl/lvgl/src/widgets/../core/lv_obj_style_gen.h ****     lv_style_value_t v = lv_obj_get_style_prop(obj, part, LV_STYLE_TEXT_COLOR);
 316:lvgl/lvgl/src/widgets/../core/lv_obj_style_gen.h ****     return v.color;
 317:lvgl/lvgl/src/widgets/../core/lv_obj_style_gen.h **** }
 318:lvgl/lvgl/src/widgets/../core/lv_obj_style_gen.h **** 
 319:lvgl/lvgl/src/widgets/../core/lv_obj_style_gen.h **** static inline lv_color_t lv_obj_get_style_text_color_filtered(const struct _lv_obj_t * obj, uint32_
 320:lvgl/lvgl/src/widgets/../core/lv_obj_style_gen.h **** {
 321:lvgl/lvgl/src/widgets/../core/lv_obj_style_gen.h ****     lv_style_value_t v = lv_obj_get_style_prop(obj, part, LV_STYLE_TEXT_COLOR_FILTERED);
 322:lvgl/lvgl/src/widgets/../core/lv_obj_style_gen.h ****     return v.color;
 323:lvgl/lvgl/src/widgets/../core/lv_obj_style_gen.h **** }
 324:lvgl/lvgl/src/widgets/../core/lv_obj_style_gen.h **** 
 325:lvgl/lvgl/src/widgets/../core/lv_obj_style_gen.h **** static inline lv_opa_t lv_obj_get_style_text_opa(const struct _lv_obj_t * obj, uint32_t part)
 326:lvgl/lvgl/src/widgets/../core/lv_obj_style_gen.h **** {
 327:lvgl/lvgl/src/widgets/../core/lv_obj_style_gen.h ****     lv_style_value_t v = lv_obj_get_style_prop(obj, part, LV_STYLE_TEXT_OPA);
 328:lvgl/lvgl/src/widgets/../core/lv_obj_style_gen.h ****     return (lv_opa_t)v.num;
 329:lvgl/lvgl/src/widgets/../core/lv_obj_style_gen.h **** }
 330:lvgl/lvgl/src/widgets/../core/lv_obj_style_gen.h **** 
 331:lvgl/lvgl/src/widgets/../core/lv_obj_style_gen.h **** static inline const lv_font_t * lv_obj_get_style_text_font(const struct _lv_obj_t * obj, uint32_t p
 332:lvgl/lvgl/src/widgets/../core/lv_obj_style_gen.h **** {
 333:lvgl/lvgl/src/widgets/../core/lv_obj_style_gen.h ****     lv_style_value_t v = lv_obj_get_style_prop(obj, part, LV_STYLE_TEXT_FONT);
 334:lvgl/lvgl/src/widgets/../core/lv_obj_style_gen.h ****     return (const lv_font_t *)v.ptr;
ARM GAS  C:\Users\gx\AppData\Local\Temp\ccSIsGPa.s 			page 33


 335:lvgl/lvgl/src/widgets/../core/lv_obj_style_gen.h **** }
 336:lvgl/lvgl/src/widgets/../core/lv_obj_style_gen.h **** 
 337:lvgl/lvgl/src/widgets/../core/lv_obj_style_gen.h **** static inline lv_coord_t lv_obj_get_style_text_letter_space(const struct _lv_obj_t * obj, uint32_t 
 460              		.loc 3 337 26 view .LVU146
 461              	.LBB104:
 338:lvgl/lvgl/src/widgets/../core/lv_obj_style_gen.h **** {
 339:lvgl/lvgl/src/widgets/../core/lv_obj_style_gen.h ****     lv_style_value_t v = lv_obj_get_style_prop(obj, part, LV_STYLE_TEXT_LETTER_SPACE);
 462              		.loc 3 339 5 view .LVU147
 463              		.loc 3 339 26 is_stmt 0 view .LVU148
 464 0050 41F25A42 		movw	r2, #5210
 465 0054 4FF4A021 		mov	r1, #327680
 466 0058 2846     		mov	r0, r5
 467 005a FFF7FEFF 		bl	lv_obj_get_style_prop
 468              	.LVL53:
 340:lvgl/lvgl/src/widgets/../core/lv_obj_style_gen.h ****     return (lv_coord_t)v.num;
 469              		.loc 3 340 5 is_stmt 1 view .LVU149
 470              		.loc 3 340 12 is_stmt 0 view .LVU150
 471 005e 03B2     		sxth	r3, r0
 472 0060 0893     		str	r3, [sp, #32]
 473              	.LVL54:
 474              		.loc 3 340 12 view .LVU151
 475              	.LBE104:
 476              	.LBE103:
 781:lvgl/lvgl/src/widgets/lv_table.c ****     const lv_font_t * font = lv_obj_get_style_text_font(obj, LV_PART_ITEMS);
 477              		.loc 1 781 5 is_stmt 1 view .LVU152
 478              	.LBB105:
 479              	.LBI105:
 341:lvgl/lvgl/src/widgets/../core/lv_obj_style_gen.h **** }
 342:lvgl/lvgl/src/widgets/../core/lv_obj_style_gen.h **** 
 343:lvgl/lvgl/src/widgets/../core/lv_obj_style_gen.h **** static inline lv_coord_t lv_obj_get_style_text_line_space(const struct _lv_obj_t * obj, uint32_t pa
 480              		.loc 3 343 26 view .LVU153
 481              	.LBB106:
 344:lvgl/lvgl/src/widgets/../core/lv_obj_style_gen.h **** {
 345:lvgl/lvgl/src/widgets/../core/lv_obj_style_gen.h ****     lv_style_value_t v = lv_obj_get_style_prop(obj, part, LV_STYLE_TEXT_LINE_SPACE);
 482              		.loc 3 345 5 view .LVU154
 483              		.loc 3 345 26 is_stmt 0 view .LVU155
 484 0062 41F25B42 		movw	r2, #5211
 485 0066 4FF4A021 		mov	r1, #327680
 486 006a 2846     		mov	r0, r5
 487 006c FFF7FEFF 		bl	lv_obj_get_style_prop
 488              	.LVL55:
 346:lvgl/lvgl/src/widgets/../core/lv_obj_style_gen.h ****     return (lv_coord_t)v.num;
 489              		.loc 3 346 5 is_stmt 1 view .LVU156
 490              		.loc 3 346 12 is_stmt 0 view .LVU157
 491 0070 03B2     		sxth	r3, r0
 492 0072 0793     		str	r3, [sp, #28]
 493              	.LVL56:
 494              		.loc 3 346 12 view .LVU158
 495              	.LBE106:
 496              	.LBE105:
 782:lvgl/lvgl/src/widgets/lv_table.c **** 
 497              		.loc 1 782 5 is_stmt 1 view .LVU159
 498              	.LBB107:
 499              	.LBI107:
 331:lvgl/lvgl/src/widgets/../core/lv_obj_style_gen.h **** {
 500              		.loc 3 331 33 view .LVU160
 501              	.LBB108:
ARM GAS  C:\Users\gx\AppData\Local\Temp\ccSIsGPa.s 			page 34


 333:lvgl/lvgl/src/widgets/../core/lv_obj_style_gen.h ****     return (const lv_font_t *)v.ptr;
 502              		.loc 3 333 5 view .LVU161
 333:lvgl/lvgl/src/widgets/../core/lv_obj_style_gen.h ****     return (const lv_font_t *)v.ptr;
 503              		.loc 3 333 26 is_stmt 0 view .LVU162
 504 0074 41F25942 		movw	r2, #5209
 505 0078 4FF4A021 		mov	r1, #327680
 506 007c 2846     		mov	r0, r5
 507 007e FFF7FEFF 		bl	lv_obj_get_style_prop
 508              	.LVL57:
 509 0082 0690     		str	r0, [sp, #24]
 334:lvgl/lvgl/src/widgets/../core/lv_obj_style_gen.h **** }
 510              		.loc 3 334 5 is_stmt 1 view .LVU163
 511              	.LVL58:
 334:lvgl/lvgl/src/widgets/../core/lv_obj_style_gen.h **** }
 512              		.loc 3 334 5 is_stmt 0 view .LVU164
 513              	.LBE108:
 514              	.LBE107:
 784:lvgl/lvgl/src/widgets/lv_table.c ****     lv_coord_t maxh = lv_obj_get_style_max_height(obj, LV_PART_ITEMS);
 515              		.loc 1 784 5 is_stmt 1 view .LVU165
 516              	.LBB109:
 517              	.LBI109:
  25:lvgl/lvgl/src/widgets/../core/lv_obj_style_gen.h **** {
 518              		.loc 3 25 26 view .LVU166
 519              	.LBB110:
  27:lvgl/lvgl/src/widgets/../core/lv_obj_style_gen.h ****     return (lv_coord_t)v.num;
 520              		.loc 3 27 5 view .LVU167
  27:lvgl/lvgl/src/widgets/../core/lv_obj_style_gen.h ****     return (lv_coord_t)v.num;
 521              		.loc 3 27 26 is_stmt 0 view .LVU168
 522 0084 41F20502 		movw	r2, #4101
 523 0088 4FF4A021 		mov	r1, #327680
 524 008c 2846     		mov	r0, r5
 525              	.LVL59:
  27:lvgl/lvgl/src/widgets/../core/lv_obj_style_gen.h ****     return (lv_coord_t)v.num;
 526              		.loc 3 27 26 view .LVU169
 527 008e FFF7FEFF 		bl	lv_obj_get_style_prop
 528              	.LVL60:
  28:lvgl/lvgl/src/widgets/../core/lv_obj_style_gen.h **** }
 529              		.loc 3 28 5 is_stmt 1 view .LVU170
  28:lvgl/lvgl/src/widgets/../core/lv_obj_style_gen.h **** }
 530              		.loc 3 28 12 is_stmt 0 view .LVU171
 531 0092 0FFA80F8 		sxth	r8, r0
 532              	.LVL61:
  28:lvgl/lvgl/src/widgets/../core/lv_obj_style_gen.h **** }
 533              		.loc 3 28 12 view .LVU172
 534              	.LBE110:
 535              	.LBE109:
 785:lvgl/lvgl/src/widgets/lv_table.c **** 
 536              		.loc 1 785 5 is_stmt 1 view .LVU173
 537              	.LBB111:
 538              	.LBI111:
  31:lvgl/lvgl/src/widgets/../core/lv_obj_style_gen.h **** {
 539              		.loc 3 31 26 view .LVU174
 540              	.LBB112:
  33:lvgl/lvgl/src/widgets/../core/lv_obj_style_gen.h ****     return (lv_coord_t)v.num;
 541              		.loc 3 33 5 view .LVU175
  33:lvgl/lvgl/src/widgets/../core/lv_obj_style_gen.h ****     return (lv_coord_t)v.num;
 542              		.loc 3 33 26 is_stmt 0 view .LVU176
ARM GAS  C:\Users\gx\AppData\Local\Temp\ccSIsGPa.s 			page 35


 543 0096 41F20602 		movw	r2, #4102
 544 009a 4FF4A021 		mov	r1, #327680
 545 009e 2846     		mov	r0, r5
 546 00a0 FFF7FEFF 		bl	lv_obj_get_style_prop
 547              	.LVL62:
  34:lvgl/lvgl/src/widgets/../core/lv_obj_style_gen.h **** }
 548              		.loc 3 34 5 is_stmt 1 view .LVU177
  34:lvgl/lvgl/src/widgets/../core/lv_obj_style_gen.h **** }
 549              		.loc 3 34 12 is_stmt 0 view .LVU178
 550 00a4 07B2     		sxth	r7, r0
 551              	.LVL63:
  34:lvgl/lvgl/src/widgets/../core/lv_obj_style_gen.h **** }
 552              		.loc 3 34 12 view .LVU179
 553              	.LBE112:
 554              	.LBE111:
 787:lvgl/lvgl/src/widgets/lv_table.c ****         table->row_h[i] = get_row_height(obj, i, font, letter_space, line_space,
 555              		.loc 1 787 5 is_stmt 1 view .LVU180
 556              	.L13:
 787:lvgl/lvgl/src/widgets/lv_table.c ****         table->row_h[i] = get_row_height(obj, i, font, letter_space, line_space,
 557              		.loc 1 787 24 discriminator 1 view .LVU181
 787:lvgl/lvgl/src/widgets/lv_table.c ****         table->row_h[i] = get_row_height(obj, i, font, letter_space, line_space,
 558              		.loc 1 787 33 is_stmt 0 discriminator 1 view .LVU182
 559 00a6 EB8C     		ldrh	r3, [r5, #38]
 787:lvgl/lvgl/src/widgets/lv_table.c ****         table->row_h[i] = get_row_height(obj, i, font, letter_space, line_space,
 560              		.loc 1 787 5 discriminator 1 view .LVU183
 561 00a8 A342     		cmp	r3, r4
 562 00aa 1FD9     		bls	.L16
 788:lvgl/lvgl/src/widgets/lv_table.c ****                                        cell_left, cell_right, cell_top, cell_bottom);
 563              		.loc 1 788 9 is_stmt 1 discriminator 3 view .LVU184
 788:lvgl/lvgl/src/widgets/lv_table.c ****                                        cell_left, cell_right, cell_top, cell_bottom);
 564              		.loc 1 788 14 is_stmt 0 discriminator 3 view .LVU185
 565 00ac EE6A     		ldr	r6, [r5, #44]
 788:lvgl/lvgl/src/widgets/lv_table.c ****                                        cell_left, cell_right, cell_top, cell_bottom);
 566              		.loc 1 788 27 discriminator 3 view .LVU186
 567 00ae 099B     		ldr	r3, [sp, #36]
 568 00b0 0493     		str	r3, [sp, #16]
 569 00b2 CDF80C90 		str	r9, [sp, #12]
 570 00b6 CDF808A0 		str	r10, [sp, #8]
 571 00ba CDF804B0 		str	fp, [sp, #4]
 572 00be 079B     		ldr	r3, [sp, #28]
 573 00c0 0093     		str	r3, [sp]
 574 00c2 089B     		ldr	r3, [sp, #32]
 575 00c4 069A     		ldr	r2, [sp, #24]
 576 00c6 A1B2     		uxth	r1, r4
 577 00c8 2846     		mov	r0, r5
 578 00ca FFF7FEFF 		bl	get_row_height
 579              	.LVL64:
 788:lvgl/lvgl/src/widgets/lv_table.c ****                                        cell_left, cell_right, cell_top, cell_bottom);
 580              		.loc 1 788 25 discriminator 3 view .LVU187
 581 00ce 26F81400 		strh	r0, [r6, r4, lsl #1]	@ movhi
 790:lvgl/lvgl/src/widgets/lv_table.c ****     }
 582              		.loc 1 790 9 is_stmt 1 discriminator 3 view .LVU188
 790:lvgl/lvgl/src/widgets/lv_table.c ****     }
 583              		.loc 1 790 27 is_stmt 0 discriminator 3 view .LVU189
 584 00d2 EA6A     		ldr	r2, [r5, #44]
 585 00d4 32F91430 		ldrsh	r3, [r2, r4, lsl #1]
 586 00d8 BB42     		cmp	r3, r7
ARM GAS  C:\Users\gx\AppData\Local\Temp\ccSIsGPa.s 			page 36


 587 00da A8BF     		it	ge
 588 00dc 3B46     		movge	r3, r7
 589 00de 4345     		cmp	r3, r8
 590 00e0 B8BF     		it	lt
 591 00e2 4346     		movlt	r3, r8
 790:lvgl/lvgl/src/widgets/lv_table.c ****     }
 592              		.loc 1 790 25 discriminator 3 view .LVU190
 593 00e4 22F81430 		strh	r3, [r2, r4, lsl #1]	@ movhi
 787:lvgl/lvgl/src/widgets/lv_table.c ****         table->row_h[i] = get_row_height(obj, i, font, letter_space, line_space,
 594              		.loc 1 787 44 is_stmt 1 discriminator 3 view .LVU191
 787:lvgl/lvgl/src/widgets/lv_table.c ****         table->row_h[i] = get_row_height(obj, i, font, letter_space, line_space,
 595              		.loc 1 787 45 is_stmt 0 discriminator 3 view .LVU192
 596 00e8 0134     		adds	r4, r4, #1
 597              	.LVL65:
 787:lvgl/lvgl/src/widgets/lv_table.c ****         table->row_h[i] = get_row_height(obj, i, font, letter_space, line_space,
 598              		.loc 1 787 45 discriminator 3 view .LVU193
 599 00ea DCE7     		b	.L13
 600              	.L16:
 793:lvgl/lvgl/src/widgets/lv_table.c **** }
 601              		.loc 1 793 5 is_stmt 1 view .LVU194
 602 00ec 2846     		mov	r0, r5
 603 00ee FFF7FEFF 		bl	lv_obj_refresh_self_size
 604              	.LVL66:
 794:lvgl/lvgl/src/widgets/lv_table.c **** 
 605              		.loc 1 794 1 is_stmt 0 view .LVU195
 606 00f2 0BB0     		add	sp, sp, #44
 607              	.LCFI5:
 608              		.cfi_def_cfa_offset 36
 609              		@ sp needed
 610 00f4 BDE8F08F 		pop	{r4, r5, r6, r7, r8, r9, r10, fp, pc}
 794:lvgl/lvgl/src/widgets/lv_table.c **** 
 611              		.loc 1 794 1 view .LVU196
 612              		.cfi_endproc
 613              	.LFE170:
 615              		.section	.text.get_pressed_cell,"ax",%progbits
 616              		.align	1
 617              		.syntax unified
 618              		.thumb
 619              		.thumb_func
 620              		.fpu fpv4-sp-d16
 622              	get_pressed_cell:
 623              	.LVL67:
 624              	.LFB172:
 853:lvgl/lvgl/src/widgets/lv_table.c **** 
 854:lvgl/lvgl/src/widgets/lv_table.c **** static lv_res_t get_pressed_cell(lv_obj_t * obj, uint16_t * row, uint16_t * col)
 855:lvgl/lvgl/src/widgets/lv_table.c **** {
 625              		.loc 1 855 1 is_stmt 1 view -0
 626              		.cfi_startproc
 627              		@ args = 0, pretend = 0, frame = 8
 628              		@ frame_needed = 0, uses_anonymous_args = 0
 629              		.loc 1 855 1 is_stmt 0 view .LVU198
 630 0000 2DE9F041 		push	{r4, r5, r6, r7, r8, lr}
 631              	.LCFI6:
 632              		.cfi_def_cfa_offset 24
 633              		.cfi_offset 4, -24
 634              		.cfi_offset 5, -20
 635              		.cfi_offset 6, -16
ARM GAS  C:\Users\gx\AppData\Local\Temp\ccSIsGPa.s 			page 37


 636              		.cfi_offset 7, -12
 637              		.cfi_offset 8, -8
 638              		.cfi_offset 14, -4
 639 0004 82B0     		sub	sp, sp, #8
 640              	.LCFI7:
 641              		.cfi_def_cfa_offset 32
 642 0006 0446     		mov	r4, r0
 643 0008 0D46     		mov	r5, r1
 644 000a 1646     		mov	r6, r2
 856:lvgl/lvgl/src/widgets/lv_table.c ****    lv_table_t * table = (lv_table_t *)obj;
 645              		.loc 1 856 4 is_stmt 1 view .LVU199
 646              	.LVL68:
 857:lvgl/lvgl/src/widgets/lv_table.c **** 
 858:lvgl/lvgl/src/widgets/lv_table.c ****     lv_indev_type_t type = lv_indev_get_type(lv_indev_get_act());
 647              		.loc 1 858 5 view .LVU200
 648              		.loc 1 858 46 is_stmt 0 view .LVU201
 649 000c FFF7FEFF 		bl	lv_indev_get_act
 650              	.LVL69:
 651              		.loc 1 858 28 view .LVU202
 652 0010 FFF7FEFF 		bl	lv_indev_get_type
 653              	.LVL70:
 859:lvgl/lvgl/src/widgets/lv_table.c ****     if(type != LV_INDEV_TYPE_POINTER && type != LV_INDEV_TYPE_BUTTON) {
 654              		.loc 1 859 5 is_stmt 1 view .LVU203
 655              		.loc 1 859 7 is_stmt 0 view .LVU204
 656 0014 0128     		cmp	r0, #1
 657 0016 0DD0     		beq	.L18
 658              		.loc 1 859 38 discriminator 1 view .LVU205
 659 0018 0328     		cmp	r0, #3
 660 001a 0BD0     		beq	.L18
 860:lvgl/lvgl/src/widgets/lv_table.c ****         if(col) *col = LV_TABLE_CELL_NONE;
 661              		.loc 1 860 9 is_stmt 1 view .LVU206
 662              		.loc 1 860 11 is_stmt 0 view .LVU207
 663 001c 16B1     		cbz	r6, .L19
 664              		.loc 1 860 17 is_stmt 1 discriminator 1 view .LVU208
 665              		.loc 1 860 22 is_stmt 0 discriminator 1 view .LVU209
 666 001e 4FF6FF73 		movw	r3, #65535
 667 0022 3380     		strh	r3, [r6]	@ movhi
 668              	.L19:
 861:lvgl/lvgl/src/widgets/lv_table.c ****         if(row) *row = LV_TABLE_CELL_NONE;
 669              		.loc 1 861 9 is_stmt 1 view .LVU210
 670              		.loc 1 861 11 is_stmt 0 view .LVU211
 671 0024 15B1     		cbz	r5, .L20
 672              		.loc 1 861 17 is_stmt 1 discriminator 1 view .LVU212
 673              		.loc 1 861 22 is_stmt 0 discriminator 1 view .LVU213
 674 0026 4FF6FF73 		movw	r3, #65535
 675 002a 2B80     		strh	r3, [r5]	@ movhi
 676              	.L20:
 862:lvgl/lvgl/src/widgets/lv_table.c ****         return LV_RES_INV;
 677              		.loc 1 862 9 is_stmt 1 view .LVU214
 678              		.loc 1 862 16 is_stmt 0 view .LVU215
 679 002c 0020     		movs	r0, #0
 680              	.LVL71:
 681              	.L21:
 863:lvgl/lvgl/src/widgets/lv_table.c ****     }
 864:lvgl/lvgl/src/widgets/lv_table.c **** 
 865:lvgl/lvgl/src/widgets/lv_table.c ****     lv_point_t p;
 866:lvgl/lvgl/src/widgets/lv_table.c ****     lv_indev_get_point(lv_indev_get_act(), &p);
ARM GAS  C:\Users\gx\AppData\Local\Temp\ccSIsGPa.s 			page 38


 867:lvgl/lvgl/src/widgets/lv_table.c **** 
 868:lvgl/lvgl/src/widgets/lv_table.c ****     lv_coord_t tmp;
 869:lvgl/lvgl/src/widgets/lv_table.c ****     if(col) {
 870:lvgl/lvgl/src/widgets/lv_table.c ****         lv_coord_t x = p.x + lv_obj_get_scroll_x(obj);
 871:lvgl/lvgl/src/widgets/lv_table.c **** 
 872:lvgl/lvgl/src/widgets/lv_table.c ****         if(lv_obj_get_style_base_dir(obj, LV_PART_MAIN) == LV_BASE_DIR_RTL) {
 873:lvgl/lvgl/src/widgets/lv_table.c ****             x = obj->coords.x2 - lv_obj_get_style_pad_right(obj, LV_PART_MAIN) - x;
 874:lvgl/lvgl/src/widgets/lv_table.c ****         }
 875:lvgl/lvgl/src/widgets/lv_table.c ****         else {
 876:lvgl/lvgl/src/widgets/lv_table.c ****             x -= obj->coords.x1;
 877:lvgl/lvgl/src/widgets/lv_table.c ****             x -= lv_obj_get_style_pad_left(obj, LV_PART_MAIN);
 878:lvgl/lvgl/src/widgets/lv_table.c ****         }
 879:lvgl/lvgl/src/widgets/lv_table.c **** 
 880:lvgl/lvgl/src/widgets/lv_table.c ****         *col = 0;
 881:lvgl/lvgl/src/widgets/lv_table.c ****         tmp = 0;
 882:lvgl/lvgl/src/widgets/lv_table.c ****         for(*col = 0; *col < table->col_cnt; (*col)++) {
 883:lvgl/lvgl/src/widgets/lv_table.c ****             tmp += table->col_w[*col];
 884:lvgl/lvgl/src/widgets/lv_table.c ****             if(x < tmp) break;
 885:lvgl/lvgl/src/widgets/lv_table.c ****         }
 886:lvgl/lvgl/src/widgets/lv_table.c ****     }
 887:lvgl/lvgl/src/widgets/lv_table.c **** 
 888:lvgl/lvgl/src/widgets/lv_table.c ****     if(row) {
 889:lvgl/lvgl/src/widgets/lv_table.c ****         lv_coord_t y = p.y + lv_obj_get_scroll_y(obj);;
 890:lvgl/lvgl/src/widgets/lv_table.c ****         y -= obj->coords.y1;
 891:lvgl/lvgl/src/widgets/lv_table.c ****         y -= lv_obj_get_style_pad_top(obj, LV_PART_MAIN);
 892:lvgl/lvgl/src/widgets/lv_table.c **** 
 893:lvgl/lvgl/src/widgets/lv_table.c ****         *row = 0;
 894:lvgl/lvgl/src/widgets/lv_table.c ****         tmp = 0;
 895:lvgl/lvgl/src/widgets/lv_table.c **** 
 896:lvgl/lvgl/src/widgets/lv_table.c ****         for(*row = 0; *row < table->row_cnt; (*row)++) {
 897:lvgl/lvgl/src/widgets/lv_table.c ****             tmp += table->row_h[*row];
 898:lvgl/lvgl/src/widgets/lv_table.c ****             if(y < tmp) break;
 899:lvgl/lvgl/src/widgets/lv_table.c ****         }
 900:lvgl/lvgl/src/widgets/lv_table.c ****     }
 901:lvgl/lvgl/src/widgets/lv_table.c **** 
 902:lvgl/lvgl/src/widgets/lv_table.c ****     return LV_RES_OK;
 903:lvgl/lvgl/src/widgets/lv_table.c **** }
 682              		.loc 1 903 1 view .LVU216
 683 002e 02B0     		add	sp, sp, #8
 684              	.LCFI8:
 685              		.cfi_remember_state
 686              		.cfi_def_cfa_offset 24
 687              		@ sp needed
 688 0030 BDE8F081 		pop	{r4, r5, r6, r7, r8, pc}
 689              	.LVL72:
 690              	.L18:
 691              	.LCFI9:
 692              		.cfi_restore_state
 865:lvgl/lvgl/src/widgets/lv_table.c ****     lv_indev_get_point(lv_indev_get_act(), &p);
 693              		.loc 1 865 5 is_stmt 1 view .LVU217
 866:lvgl/lvgl/src/widgets/lv_table.c **** 
 694              		.loc 1 866 5 view .LVU218
 866:lvgl/lvgl/src/widgets/lv_table.c **** 
 695              		.loc 1 866 24 is_stmt 0 view .LVU219
 696 0034 FFF7FEFF 		bl	lv_indev_get_act
 697              	.LVL73:
 866:lvgl/lvgl/src/widgets/lv_table.c **** 
ARM GAS  C:\Users\gx\AppData\Local\Temp\ccSIsGPa.s 			page 39


 698              		.loc 1 866 5 view .LVU220
 699 0038 01A9     		add	r1, sp, #4
 700 003a FFF7FEFF 		bl	lv_indev_get_point
 701              	.LVL74:
 868:lvgl/lvgl/src/widgets/lv_table.c ****     if(col) {
 702              		.loc 1 868 5 is_stmt 1 view .LVU221
 869:lvgl/lvgl/src/widgets/lv_table.c ****         lv_coord_t x = p.x + lv_obj_get_scroll_x(obj);
 703              		.loc 1 869 5 view .LVU222
 869:lvgl/lvgl/src/widgets/lv_table.c ****         lv_coord_t x = p.x + lv_obj_get_scroll_x(obj);
 704              		.loc 1 869 7 is_stmt 0 view .LVU223
 705 003e 002E     		cmp	r6, #0
 706 0040 3BD0     		beq	.L22
 707              	.LBB113:
 870:lvgl/lvgl/src/widgets/lv_table.c **** 
 708              		.loc 1 870 9 is_stmt 1 view .LVU224
 870:lvgl/lvgl/src/widgets/lv_table.c **** 
 709              		.loc 1 870 25 is_stmt 0 view .LVU225
 710 0042 BDF80470 		ldrh	r7, [sp, #4]
 870:lvgl/lvgl/src/widgets/lv_table.c **** 
 711              		.loc 1 870 30 view .LVU226
 712 0046 2046     		mov	r0, r4
 713 0048 FFF7FEFF 		bl	lv_obj_get_scroll_x
 714              	.LVL75:
 870:lvgl/lvgl/src/widgets/lv_table.c **** 
 715              		.loc 1 870 28 view .LVU227
 716 004c 17FA80F0 		uxtah	r0, r7, r0
 717 0050 87B2     		uxth	r7, r0
 718              	.LVL76:
 872:lvgl/lvgl/src/widgets/lv_table.c ****             x = obj->coords.x2 - lv_obj_get_style_pad_right(obj, LV_PART_MAIN) - x;
 719              		.loc 1 872 9 is_stmt 1 view .LVU228
 720              	.LBB114:
 721              	.LBI114:
 187:lvgl/lvgl/src/widgets/../core/lv_obj_style_gen.h **** {
 722              		.loc 3 187 29 view .LVU229
 723              	.LBB115:
 189:lvgl/lvgl/src/widgets/../core/lv_obj_style_gen.h ****     return (lv_base_dir_t)v.num;
 724              		.loc 3 189 5 view .LVU230
 189:lvgl/lvgl/src/widgets/../core/lv_obj_style_gen.h ****     return (lv_base_dir_t)v.num;
 725              		.loc 3 189 26 is_stmt 0 view .LVU231
 726 0052 41F26A42 		movw	r2, #5226
 727 0056 0021     		movs	r1, #0
 728 0058 2046     		mov	r0, r4
 729 005a FFF7FEFF 		bl	lv_obj_get_style_prop
 730              	.LVL77:
 190:lvgl/lvgl/src/widgets/../core/lv_obj_style_gen.h **** }
 731              		.loc 3 190 5 is_stmt 1 view .LVU232
 190:lvgl/lvgl/src/widgets/../core/lv_obj_style_gen.h **** }
 732              		.loc 3 190 12 is_stmt 0 view .LVU233
 733 005e C0B2     		uxtb	r0, r0
 734              	.LVL78:
 190:lvgl/lvgl/src/widgets/../core/lv_obj_style_gen.h **** }
 735              		.loc 3 190 12 view .LVU234
 736              	.LBE115:
 737              	.LBE114:
 872:lvgl/lvgl/src/widgets/lv_table.c ****             x = obj->coords.x2 - lv_obj_get_style_pad_right(obj, LV_PART_MAIN) - x;
 738              		.loc 1 872 11 view .LVU235
 739 0060 0128     		cmp	r0, #1
ARM GAS  C:\Users\gx\AppData\Local\Temp\ccSIsGPa.s 			page 40


 740 0062 1BD0     		beq	.L32
 876:lvgl/lvgl/src/widgets/lv_table.c ****             x -= lv_obj_get_style_pad_left(obj, LV_PART_MAIN);
 741              		.loc 1 876 13 is_stmt 1 view .LVU236
 876:lvgl/lvgl/src/widgets/lv_table.c ****             x -= lv_obj_get_style_pad_left(obj, LV_PART_MAIN);
 742              		.loc 1 876 29 is_stmt 0 view .LVU237
 743 0064 A08A     		ldrh	r0, [r4, #20]
 876:lvgl/lvgl/src/widgets/lv_table.c ****             x -= lv_obj_get_style_pad_left(obj, LV_PART_MAIN);
 744              		.loc 1 876 15 view .LVU238
 745 0066 3F1A     		subs	r7, r7, r0
 746              	.LVL79:
 876:lvgl/lvgl/src/widgets/lv_table.c ****             x -= lv_obj_get_style_pad_left(obj, LV_PART_MAIN);
 747              		.loc 1 876 15 view .LVU239
 748 0068 BFB2     		uxth	r7, r7
 749              	.LVL80:
 877:lvgl/lvgl/src/widgets/lv_table.c ****         }
 750              		.loc 1 877 13 is_stmt 1 view .LVU240
 751              	.LBB116:
 752              	.LBI116:
 103:lvgl/lvgl/src/widgets/../core/lv_obj_style_gen.h **** {
 753              		.loc 3 103 26 view .LVU241
 754              	.LBB117:
 105:lvgl/lvgl/src/widgets/../core/lv_obj_style_gen.h ****     return (lv_coord_t)v.num;
 755              		.loc 3 105 5 view .LVU242
 105:lvgl/lvgl/src/widgets/../core/lv_obj_style_gen.h ****     return (lv_coord_t)v.num;
 756              		.loc 3 105 26 is_stmt 0 view .LVU243
 757 006a 41F21202 		movw	r2, #4114
 758 006e 0021     		movs	r1, #0
 759 0070 2046     		mov	r0, r4
 760 0072 FFF7FEFF 		bl	lv_obj_get_style_prop
 761              	.LVL81:
 106:lvgl/lvgl/src/widgets/../core/lv_obj_style_gen.h **** }
 762              		.loc 3 106 5 is_stmt 1 view .LVU244
 106:lvgl/lvgl/src/widgets/../core/lv_obj_style_gen.h **** }
 763              		.loc 3 106 5 is_stmt 0 view .LVU245
 764              	.LBE117:
 765              	.LBE116:
 877:lvgl/lvgl/src/widgets/lv_table.c ****         }
 766              		.loc 1 877 18 view .LVU246
 767 0076 80B2     		uxth	r0, r0
 877:lvgl/lvgl/src/widgets/lv_table.c ****         }
 768              		.loc 1 877 15 view .LVU247
 769 0078 381A     		subs	r0, r7, r0
 770 007a 00B2     		sxth	r0, r0
 771              	.LVL82:
 772              	.L24:
 880:lvgl/lvgl/src/widgets/lv_table.c ****         tmp = 0;
 773              		.loc 1 880 9 is_stmt 1 view .LVU248
 880:lvgl/lvgl/src/widgets/lv_table.c ****         tmp = 0;
 774              		.loc 1 880 14 is_stmt 0 view .LVU249
 775 007c 0021     		movs	r1, #0
 776 007e 3180     		strh	r1, [r6]	@ movhi
 881:lvgl/lvgl/src/widgets/lv_table.c ****         for(*col = 0; *col < table->col_cnt; (*col)++) {
 777              		.loc 1 881 9 is_stmt 1 view .LVU250
 778              	.LVL83:
 882:lvgl/lvgl/src/widgets/lv_table.c ****             tmp += table->col_w[*col];
 779              		.loc 1 882 9 view .LVU251
 780              	.L25:
ARM GAS  C:\Users\gx\AppData\Local\Temp\ccSIsGPa.s 			page 41


 882:lvgl/lvgl/src/widgets/lv_table.c ****             tmp += table->col_w[*col];
 781              		.loc 1 882 23 discriminator 1 view .LVU252
 782 0080 3388     		ldrh	r3, [r6]
 882:lvgl/lvgl/src/widgets/lv_table.c ****             tmp += table->col_w[*col];
 783              		.loc 1 882 35 is_stmt 0 discriminator 1 view .LVU253
 784 0082 A28C     		ldrh	r2, [r4, #36]
 882:lvgl/lvgl/src/widgets/lv_table.c ****             tmp += table->col_w[*col];
 785              		.loc 1 882 9 discriminator 1 view .LVU254
 786 0084 9342     		cmp	r3, r2
 787 0086 18D2     		bcs	.L22
 883:lvgl/lvgl/src/widgets/lv_table.c ****             if(x < tmp) break;
 788              		.loc 1 883 13 is_stmt 1 view .LVU255
 883:lvgl/lvgl/src/widgets/lv_table.c ****             if(x < tmp) break;
 789              		.loc 1 883 25 is_stmt 0 view .LVU256
 790 0088 226B     		ldr	r2, [r4, #48]
 883:lvgl/lvgl/src/widgets/lv_table.c ****             if(x < tmp) break;
 791              		.loc 1 883 32 view .LVU257
 792 008a 32F81320 		ldrh	r2, [r2, r3, lsl #1]
 883:lvgl/lvgl/src/widgets/lv_table.c ****             if(x < tmp) break;
 793              		.loc 1 883 17 view .LVU258
 794 008e 1144     		add	r1, r1, r2
 795              	.LVL84:
 883:lvgl/lvgl/src/widgets/lv_table.c ****             if(x < tmp) break;
 796              		.loc 1 883 17 view .LVU259
 797 0090 09B2     		sxth	r1, r1
 798              	.LVL85:
 884:lvgl/lvgl/src/widgets/lv_table.c ****         }
 799              		.loc 1 884 13 is_stmt 1 view .LVU260
 884:lvgl/lvgl/src/widgets/lv_table.c ****         }
 800              		.loc 1 884 15 is_stmt 0 view .LVU261
 801 0092 8842     		cmp	r0, r1
 802 0094 11DB     		blt	.L22
 882:lvgl/lvgl/src/widgets/lv_table.c ****             tmp += table->col_w[*col];
 803              		.loc 1 882 46 is_stmt 1 discriminator 2 view .LVU262
 882:lvgl/lvgl/src/widgets/lv_table.c ****             tmp += table->col_w[*col];
 804              		.loc 1 882 52 is_stmt 0 discriminator 2 view .LVU263
 805 0096 0133     		adds	r3, r3, #1
 806 0098 3380     		strh	r3, [r6]	@ movhi
 807 009a F1E7     		b	.L25
 808              	.LVL86:
 809              	.L32:
 873:lvgl/lvgl/src/widgets/lv_table.c ****         }
 810              		.loc 1 873 13 is_stmt 1 view .LVU264
 873:lvgl/lvgl/src/widgets/lv_table.c ****         }
 811              		.loc 1 873 28 is_stmt 0 view .LVU265
 812 009c B4F81880 		ldrh	r8, [r4, #24]
 813              	.LVL87:
 814              	.LBB118:
 815              	.LBI118:
 109:lvgl/lvgl/src/widgets/../core/lv_obj_style_gen.h **** {
 816              		.loc 3 109 26 is_stmt 1 view .LVU266
 817              	.LBB119:
 111:lvgl/lvgl/src/widgets/../core/lv_obj_style_gen.h ****     return (lv_coord_t)v.num;
 818              		.loc 3 111 5 view .LVU267
 111:lvgl/lvgl/src/widgets/../core/lv_obj_style_gen.h ****     return (lv_coord_t)v.num;
 819              		.loc 3 111 26 is_stmt 0 view .LVU268
 820 00a0 41F21302 		movw	r2, #4115
ARM GAS  C:\Users\gx\AppData\Local\Temp\ccSIsGPa.s 			page 42


 821 00a4 0021     		movs	r1, #0
 822 00a6 2046     		mov	r0, r4
 823 00a8 FFF7FEFF 		bl	lv_obj_get_style_prop
 824              	.LVL88:
 112:lvgl/lvgl/src/widgets/../core/lv_obj_style_gen.h **** }
 825              		.loc 3 112 5 is_stmt 1 view .LVU269
 112:lvgl/lvgl/src/widgets/../core/lv_obj_style_gen.h **** }
 826              		.loc 3 112 5 is_stmt 0 view .LVU270
 827              	.LBE119:
 828              	.LBE118:
 873:lvgl/lvgl/src/widgets/lv_table.c ****         }
 829              		.loc 1 873 34 view .LVU271
 830 00ac 80B2     		uxth	r0, r0
 873:lvgl/lvgl/src/widgets/lv_table.c ****         }
 831              		.loc 1 873 32 view .LVU272
 832 00ae A8EB0000 		sub	r0, r8, r0
 833 00b2 80B2     		uxth	r0, r0
 873:lvgl/lvgl/src/widgets/lv_table.c ****         }
 834              		.loc 1 873 80 view .LVU273
 835 00b4 C71B     		subs	r7, r0, r7
 836              	.LVL89:
 873:lvgl/lvgl/src/widgets/lv_table.c ****         }
 837              		.loc 1 873 15 view .LVU274
 838 00b6 38B2     		sxth	r0, r7
 839              	.LVL90:
 873:lvgl/lvgl/src/widgets/lv_table.c ****         }
 840              		.loc 1 873 15 view .LVU275
 841 00b8 E0E7     		b	.L24
 842              	.LVL91:
 843              	.L22:
 873:lvgl/lvgl/src/widgets/lv_table.c ****         }
 844              		.loc 1 873 15 view .LVU276
 845              	.LBE113:
 888:lvgl/lvgl/src/widgets/lv_table.c ****         lv_coord_t y = p.y + lv_obj_get_scroll_y(obj);;
 846              		.loc 1 888 5 is_stmt 1 view .LVU277
 888:lvgl/lvgl/src/widgets/lv_table.c ****         lv_coord_t y = p.y + lv_obj_get_scroll_y(obj);;
 847              		.loc 1 888 7 is_stmt 0 view .LVU278
 848 00ba 2DB3     		cbz	r5, .L29
 849              	.LBB120:
 889:lvgl/lvgl/src/widgets/lv_table.c ****         y -= obj->coords.y1;
 850              		.loc 1 889 9 is_stmt 1 view .LVU279
 889:lvgl/lvgl/src/widgets/lv_table.c ****         y -= obj->coords.y1;
 851              		.loc 1 889 25 is_stmt 0 view .LVU280
 852 00bc BDF80660 		ldrh	r6, [sp, #6]
 853              	.LVL92:
 889:lvgl/lvgl/src/widgets/lv_table.c ****         y -= obj->coords.y1;
 854              		.loc 1 889 30 view .LVU281
 855 00c0 2046     		mov	r0, r4
 856 00c2 FFF7FEFF 		bl	lv_obj_get_scroll_y
 857              	.LVL93:
 889:lvgl/lvgl/src/widgets/lv_table.c ****         y -= obj->coords.y1;
 858              		.loc 1 889 28 view .LVU282
 859 00c6 16FA80F6 		uxtah	r6, r6, r0
 860 00ca B6B2     		uxth	r6, r6
 861              	.LVL94:
 889:lvgl/lvgl/src/widgets/lv_table.c ****         y -= obj->coords.y1;
 862              		.loc 1 889 55 is_stmt 1 view .LVU283
ARM GAS  C:\Users\gx\AppData\Local\Temp\ccSIsGPa.s 			page 43


 890:lvgl/lvgl/src/widgets/lv_table.c ****         y -= lv_obj_get_style_pad_top(obj, LV_PART_MAIN);
 863              		.loc 1 890 9 view .LVU284
 890:lvgl/lvgl/src/widgets/lv_table.c ****         y -= lv_obj_get_style_pad_top(obj, LV_PART_MAIN);
 864              		.loc 1 890 25 is_stmt 0 view .LVU285
 865 00cc E18A     		ldrh	r1, [r4, #22]
 890:lvgl/lvgl/src/widgets/lv_table.c ****         y -= lv_obj_get_style_pad_top(obj, LV_PART_MAIN);
 866              		.loc 1 890 11 view .LVU286
 867 00ce 761A     		subs	r6, r6, r1
 868              	.LVL95:
 890:lvgl/lvgl/src/widgets/lv_table.c ****         y -= lv_obj_get_style_pad_top(obj, LV_PART_MAIN);
 869              		.loc 1 890 11 view .LVU287
 870 00d0 B6B2     		uxth	r6, r6
 871              	.LVL96:
 891:lvgl/lvgl/src/widgets/lv_table.c **** 
 872              		.loc 1 891 9 is_stmt 1 view .LVU288
 873              	.LBB121:
 874              	.LBI121:
  91:lvgl/lvgl/src/widgets/../core/lv_obj_style_gen.h **** {
 875              		.loc 3 91 26 view .LVU289
 876              	.LBB122:
  93:lvgl/lvgl/src/widgets/../core/lv_obj_style_gen.h ****     return (lv_coord_t)v.num;
 877              		.loc 3 93 5 view .LVU290
  93:lvgl/lvgl/src/widgets/../core/lv_obj_style_gen.h ****     return (lv_coord_t)v.num;
 878              		.loc 3 93 26 is_stmt 0 view .LVU291
 879 00d2 41F21002 		movw	r2, #4112
 880 00d6 0021     		movs	r1, #0
 881 00d8 2046     		mov	r0, r4
 882 00da FFF7FEFF 		bl	lv_obj_get_style_prop
 883              	.LVL97:
  94:lvgl/lvgl/src/widgets/../core/lv_obj_style_gen.h **** }
 884              		.loc 3 94 5 is_stmt 1 view .LVU292
  94:lvgl/lvgl/src/widgets/../core/lv_obj_style_gen.h **** }
 885              		.loc 3 94 5 is_stmt 0 view .LVU293
 886              	.LBE122:
 887              	.LBE121:
 891:lvgl/lvgl/src/widgets/lv_table.c **** 
 888              		.loc 1 891 14 view .LVU294
 889 00de 81B2     		uxth	r1, r0
 891:lvgl/lvgl/src/widgets/lv_table.c **** 
 890              		.loc 1 891 11 view .LVU295
 891 00e0 711A     		subs	r1, r6, r1
 892 00e2 09B2     		sxth	r1, r1
 893              	.LVL98:
 893:lvgl/lvgl/src/widgets/lv_table.c ****         tmp = 0;
 894              		.loc 1 893 9 is_stmt 1 view .LVU296
 893:lvgl/lvgl/src/widgets/lv_table.c ****         tmp = 0;
 895              		.loc 1 893 14 is_stmt 0 view .LVU297
 896 00e4 0022     		movs	r2, #0
 897 00e6 2A80     		strh	r2, [r5]	@ movhi
 894:lvgl/lvgl/src/widgets/lv_table.c **** 
 898              		.loc 1 894 9 is_stmt 1 view .LVU298
 899              	.LVL99:
 896:lvgl/lvgl/src/widgets/lv_table.c ****             tmp += table->row_h[*row];
 900              		.loc 1 896 9 view .LVU299
 901              	.L27:
 896:lvgl/lvgl/src/widgets/lv_table.c ****             tmp += table->row_h[*row];
 902              		.loc 1 896 23 discriminator 1 view .LVU300
ARM GAS  C:\Users\gx\AppData\Local\Temp\ccSIsGPa.s 			page 44


 903 00e8 2B88     		ldrh	r3, [r5]
 896:lvgl/lvgl/src/widgets/lv_table.c ****             tmp += table->row_h[*row];
 904              		.loc 1 896 35 is_stmt 0 discriminator 1 view .LVU301
 905 00ea E08C     		ldrh	r0, [r4, #38]
 896:lvgl/lvgl/src/widgets/lv_table.c ****             tmp += table->row_h[*row];
 906              		.loc 1 896 9 discriminator 1 view .LVU302
 907 00ec 8342     		cmp	r3, r0
 908 00ee 09D2     		bcs	.L33
 897:lvgl/lvgl/src/widgets/lv_table.c ****             if(y < tmp) break;
 909              		.loc 1 897 13 is_stmt 1 view .LVU303
 897:lvgl/lvgl/src/widgets/lv_table.c ****             if(y < tmp) break;
 910              		.loc 1 897 25 is_stmt 0 view .LVU304
 911 00f0 E06A     		ldr	r0, [r4, #44]
 897:lvgl/lvgl/src/widgets/lv_table.c ****             if(y < tmp) break;
 912              		.loc 1 897 32 view .LVU305
 913 00f2 30F81300 		ldrh	r0, [r0, r3, lsl #1]
 897:lvgl/lvgl/src/widgets/lv_table.c ****             if(y < tmp) break;
 914              		.loc 1 897 17 view .LVU306
 915 00f6 0244     		add	r2, r2, r0
 916              	.LVL100:
 897:lvgl/lvgl/src/widgets/lv_table.c ****             if(y < tmp) break;
 917              		.loc 1 897 17 view .LVU307
 918 00f8 12B2     		sxth	r2, r2
 919              	.LVL101:
 898:lvgl/lvgl/src/widgets/lv_table.c ****         }
 920              		.loc 1 898 13 is_stmt 1 view .LVU308
 898:lvgl/lvgl/src/widgets/lv_table.c ****         }
 921              		.loc 1 898 15 is_stmt 0 view .LVU309
 922 00fa 9142     		cmp	r1, r2
 923 00fc 06DB     		blt	.L30
 896:lvgl/lvgl/src/widgets/lv_table.c ****             tmp += table->row_h[*row];
 924              		.loc 1 896 46 is_stmt 1 discriminator 2 view .LVU310
 896:lvgl/lvgl/src/widgets/lv_table.c ****             tmp += table->row_h[*row];
 925              		.loc 1 896 52 is_stmt 0 discriminator 2 view .LVU311
 926 00fe 0133     		adds	r3, r3, #1
 927 0100 2B80     		strh	r3, [r5]	@ movhi
 928 0102 F1E7     		b	.L27
 929              	.L33:
 896:lvgl/lvgl/src/widgets/lv_table.c ****             tmp += table->row_h[*row];
 930              		.loc 1 896 52 discriminator 2 view .LVU312
 931              	.LBE120:
 902:lvgl/lvgl/src/widgets/lv_table.c **** }
 932              		.loc 1 902 12 view .LVU313
 933 0104 0120     		movs	r0, #1
 934              	.LBB123:
 935 0106 92E7     		b	.L21
 936              	.LVL102:
 937              	.L29:
 902:lvgl/lvgl/src/widgets/lv_table.c **** }
 938              		.loc 1 902 12 view .LVU314
 939              	.LBE123:
 940 0108 0120     		movs	r0, #1
 941 010a 90E7     		b	.L21
 942              	.LVL103:
 943              	.L30:
 902:lvgl/lvgl/src/widgets/lv_table.c **** }
 944              		.loc 1 902 12 view .LVU315
ARM GAS  C:\Users\gx\AppData\Local\Temp\ccSIsGPa.s 			page 45


 945 010c 0120     		movs	r0, #1
 946 010e 8EE7     		b	.L21
 947              		.cfi_endproc
 948              	.LFE172:
 950              		.section	.text.draw_main,"ax",%progbits
 951              		.align	1
 952              		.syntax unified
 953              		.thumb
 954              		.thumb_func
 955              		.fpu fpv4-sp-d16
 957              	draw_main:
 958              	.LVL104:
 959              	.LFB169:
 582:lvgl/lvgl/src/widgets/lv_table.c ****     lv_obj_t * obj = lv_event_get_target(e);
 960              		.loc 1 582 1 is_stmt 1 view -0
 961              		.cfi_startproc
 962              		@ args = 0, pretend = 0, frame = 344
 963              		@ frame_needed = 0, uses_anonymous_args = 0
 582:lvgl/lvgl/src/widgets/lv_table.c ****     lv_obj_t * obj = lv_event_get_target(e);
 964              		.loc 1 582 1 is_stmt 0 view .LVU317
 965 0000 2DE9F04F 		push	{r4, r5, r6, r7, r8, r9, r10, fp, lr}
 966              	.LCFI10:
 967              		.cfi_def_cfa_offset 36
 968              		.cfi_offset 4, -36
 969              		.cfi_offset 5, -32
 970              		.cfi_offset 6, -28
 971              		.cfi_offset 7, -24
 972              		.cfi_offset 8, -20
 973              		.cfi_offset 9, -16
 974              		.cfi_offset 10, -12
 975              		.cfi_offset 11, -8
 976              		.cfi_offset 14, -4
 977 0004 DBB0     		sub	sp, sp, #364
 978              	.LCFI11:
 979              		.cfi_def_cfa_offset 400
 980 0006 0446     		mov	r4, r0
 583:lvgl/lvgl/src/widgets/lv_table.c ****     lv_table_t * table = (lv_table_t *)obj;
 981              		.loc 1 583 5 is_stmt 1 view .LVU318
 583:lvgl/lvgl/src/widgets/lv_table.c ****     lv_table_t * table = (lv_table_t *)obj;
 982              		.loc 1 583 22 is_stmt 0 view .LVU319
 983 0008 FFF7FEFF 		bl	lv_event_get_target
 984              	.LVL105:
 583:lvgl/lvgl/src/widgets/lv_table.c ****     lv_table_t * table = (lv_table_t *)obj;
 985              		.loc 1 583 22 view .LVU320
 986 000c 0746     		mov	r7, r0
 987              	.LVL106:
 584:lvgl/lvgl/src/widgets/lv_table.c ****     const lv_area_t * clip_area_ori = lv_event_get_param(e);
 988              		.loc 1 584 5 is_stmt 1 view .LVU321
 585:lvgl/lvgl/src/widgets/lv_table.c ****     lv_area_t clip_area;
 989              		.loc 1 585 5 view .LVU322
 585:lvgl/lvgl/src/widgets/lv_table.c ****     lv_area_t clip_area;
 990              		.loc 1 585 39 is_stmt 0 view .LVU323
 991 000e 2046     		mov	r0, r4
 992              	.LVL107:
 585:lvgl/lvgl/src/widgets/lv_table.c ****     lv_area_t clip_area;
 993              		.loc 1 585 39 view .LVU324
 994 0010 FFF7FEFF 		bl	lv_event_get_param
ARM GAS  C:\Users\gx\AppData\Local\Temp\ccSIsGPa.s 			page 46


 995              	.LVL108:
 996 0014 0246     		mov	r2, r0
 997              	.LVL109:
 586:lvgl/lvgl/src/widgets/lv_table.c ****     if(!_lv_area_intersect(&clip_area, &obj->coords, clip_area_ori)) return;
 998              		.loc 1 586 5 is_stmt 1 view .LVU325
 587:lvgl/lvgl/src/widgets/lv_table.c **** 
 999              		.loc 1 587 5 view .LVU326
 587:lvgl/lvgl/src/widgets/lv_table.c **** 
 1000              		.loc 1 587 9 is_stmt 0 view .LVU327
 1001 0016 07F11401 		add	r1, r7, #20
 1002 001a 58A8     		add	r0, sp, #352
 1003              	.LVL110:
 587:lvgl/lvgl/src/widgets/lv_table.c **** 
 1004              		.loc 1 587 9 view .LVU328
 1005 001c FFF7FEFF 		bl	_lv_area_intersect
 1006              	.LVL111:
 587:lvgl/lvgl/src/widgets/lv_table.c **** 
 1007              		.loc 1 587 7 view .LVU329
 1008 0020 10B9     		cbnz	r0, .L71
 1009              	.LVL112:
 1010              	.L34:
 767:lvgl/lvgl/src/widgets/lv_table.c **** 
 1011              		.loc 1 767 1 view .LVU330
 1012 0022 5BB0     		add	sp, sp, #364
 1013              	.LCFI12:
 1014              		.cfi_remember_state
 1015              		.cfi_def_cfa_offset 36
 1016              		@ sp needed
 1017 0024 BDE8F08F 		pop	{r4, r5, r6, r7, r8, r9, r10, fp, pc}
 1018              	.LVL113:
 1019              	.L71:
 1020              	.LCFI13:
 1021              		.cfi_restore_state
 590:lvgl/lvgl/src/widgets/lv_table.c ****     lv_area_t cell_area;
 1022              		.loc 1 590 5 is_stmt 1 view .LVU331
 591:lvgl/lvgl/src/widgets/lv_table.c ****     lv_area_t txt_area;
 1023              		.loc 1 591 5 view .LVU332
 592:lvgl/lvgl/src/widgets/lv_table.c ****     lv_text_flag_t txt_flags;
 1024              		.loc 1 592 5 view .LVU333
 593:lvgl/lvgl/src/widgets/lv_table.c **** 
 1025              		.loc 1 593 5 view .LVU334
 595:lvgl/lvgl/src/widgets/lv_table.c ****     lv_coord_t bg_bottom = lv_obj_get_style_pad_bottom(obj, LV_PART_MAIN);
 1026              		.loc 1 595 5 view .LVU335
 1027              	.LBB124:
 1028              	.LBI124:
  91:lvgl/lvgl/src/widgets/../core/lv_obj_style_gen.h **** {
 1029              		.loc 3 91 26 view .LVU336
 1030              	.LBB125:
  93:lvgl/lvgl/src/widgets/../core/lv_obj_style_gen.h ****     return (lv_coord_t)v.num;
 1031              		.loc 3 93 5 view .LVU337
  93:lvgl/lvgl/src/widgets/../core/lv_obj_style_gen.h ****     return (lv_coord_t)v.num;
 1032              		.loc 3 93 26 is_stmt 0 view .LVU338
 1033 0028 41F21002 		movw	r2, #4112
 1034 002c 0021     		movs	r1, #0
 1035 002e 3846     		mov	r0, r7
 1036 0030 FFF7FEFF 		bl	lv_obj_get_style_prop
 1037              	.LVL114:
ARM GAS  C:\Users\gx\AppData\Local\Temp\ccSIsGPa.s 			page 47


 1038 0034 0446     		mov	r4, r0
 1039              	.LVL115:
  94:lvgl/lvgl/src/widgets/../core/lv_obj_style_gen.h **** }
 1040              		.loc 3 94 5 is_stmt 1 view .LVU339
  94:lvgl/lvgl/src/widgets/../core/lv_obj_style_gen.h **** }
 1041              		.loc 3 94 12 is_stmt 0 view .LVU340
 1042 0036 03B2     		sxth	r3, r0
 1043 0038 0F93     		str	r3, [sp, #60]
 1044              	.LVL116:
  94:lvgl/lvgl/src/widgets/../core/lv_obj_style_gen.h **** }
 1045              		.loc 3 94 12 view .LVU341
 1046              	.LBE125:
 1047              	.LBE124:
 596:lvgl/lvgl/src/widgets/lv_table.c ****     lv_coord_t bg_left = lv_obj_get_style_pad_left(obj, LV_PART_MAIN);
 1048              		.loc 1 596 5 is_stmt 1 view .LVU342
 1049              	.LBB126:
 1050              	.LBI126:
  97:lvgl/lvgl/src/widgets/../core/lv_obj_style_gen.h **** {
 1051              		.loc 3 97 26 view .LVU343
 1052              	.LBB127:
  99:lvgl/lvgl/src/widgets/../core/lv_obj_style_gen.h ****     return (lv_coord_t)v.num;
 1053              		.loc 3 99 5 view .LVU344
  99:lvgl/lvgl/src/widgets/../core/lv_obj_style_gen.h ****     return (lv_coord_t)v.num;
 1054              		.loc 3 99 26 is_stmt 0 view .LVU345
 1055 003a 41F21102 		movw	r2, #4113
 1056 003e 0021     		movs	r1, #0
 1057 0040 3846     		mov	r0, r7
  99:lvgl/lvgl/src/widgets/../core/lv_obj_style_gen.h ****     return (lv_coord_t)v.num;
 1058              		.loc 3 99 26 view .LVU346
 1059 0042 FFF7FEFF 		bl	lv_obj_get_style_prop
 1060              	.LVL117:
 100:lvgl/lvgl/src/widgets/../core/lv_obj_style_gen.h **** }
 1061              		.loc 3 100 5 is_stmt 1 view .LVU347
 100:lvgl/lvgl/src/widgets/../core/lv_obj_style_gen.h **** }
 1062              		.loc 3 100 12 is_stmt 0 view .LVU348
 1063 0046 03B2     		sxth	r3, r0
 1064 0048 0E93     		str	r3, [sp, #56]
 1065              	.LVL118:
 100:lvgl/lvgl/src/widgets/../core/lv_obj_style_gen.h **** }
 1066              		.loc 3 100 12 view .LVU349
 1067              	.LBE127:
 1068              	.LBE126:
 597:lvgl/lvgl/src/widgets/lv_table.c ****     lv_coord_t bg_right = lv_obj_get_style_pad_right(obj, LV_PART_MAIN);
 1069              		.loc 1 597 5 is_stmt 1 view .LVU350
 1070              	.LBB128:
 1071              	.LBI128:
 103:lvgl/lvgl/src/widgets/../core/lv_obj_style_gen.h **** {
 1072              		.loc 3 103 26 view .LVU351
 1073              	.LBB129:
 105:lvgl/lvgl/src/widgets/../core/lv_obj_style_gen.h ****     return (lv_coord_t)v.num;
 1074              		.loc 3 105 5 view .LVU352
 105:lvgl/lvgl/src/widgets/../core/lv_obj_style_gen.h ****     return (lv_coord_t)v.num;
 1075              		.loc 3 105 26 is_stmt 0 view .LVU353
 1076 004a 41F21202 		movw	r2, #4114
 1077 004e 0021     		movs	r1, #0
 1078 0050 3846     		mov	r0, r7
 1079 0052 FFF7FEFF 		bl	lv_obj_get_style_prop
ARM GAS  C:\Users\gx\AppData\Local\Temp\ccSIsGPa.s 			page 48


 1080              	.LVL119:
 1081 0056 1190     		str	r0, [sp, #68]
 106:lvgl/lvgl/src/widgets/../core/lv_obj_style_gen.h **** }
 1082              		.loc 3 106 5 is_stmt 1 view .LVU354
 106:lvgl/lvgl/src/widgets/../core/lv_obj_style_gen.h **** }
 1083              		.loc 3 106 12 is_stmt 0 view .LVU355
 1084 0058 03B2     		sxth	r3, r0
 1085 005a 0D93     		str	r3, [sp, #52]
 1086              	.LVL120:
 106:lvgl/lvgl/src/widgets/../core/lv_obj_style_gen.h **** }
 1087              		.loc 3 106 12 view .LVU356
 1088              	.LBE129:
 1089              	.LBE128:
 598:lvgl/lvgl/src/widgets/lv_table.c **** 
 1090              		.loc 1 598 5 is_stmt 1 view .LVU357
 1091              	.LBB130:
 1092              	.LBI130:
 109:lvgl/lvgl/src/widgets/../core/lv_obj_style_gen.h **** {
 1093              		.loc 3 109 26 view .LVU358
 1094              	.LBB131:
 111:lvgl/lvgl/src/widgets/../core/lv_obj_style_gen.h ****     return (lv_coord_t)v.num;
 1095              		.loc 3 111 5 view .LVU359
 111:lvgl/lvgl/src/widgets/../core/lv_obj_style_gen.h ****     return (lv_coord_t)v.num;
 1096              		.loc 3 111 26 is_stmt 0 view .LVU360
 1097 005c 41F21302 		movw	r2, #4115
 1098 0060 0021     		movs	r1, #0
 1099 0062 3846     		mov	r0, r7
 1100 0064 FFF7FEFF 		bl	lv_obj_get_style_prop
 1101              	.LVL121:
 1102 0068 1390     		str	r0, [sp, #76]
 112:lvgl/lvgl/src/widgets/../core/lv_obj_style_gen.h **** }
 1103              		.loc 3 112 5 is_stmt 1 view .LVU361
 112:lvgl/lvgl/src/widgets/../core/lv_obj_style_gen.h **** }
 1104              		.loc 3 112 12 is_stmt 0 view .LVU362
 1105 006a 03B2     		sxth	r3, r0
 1106 006c 0C93     		str	r3, [sp, #48]
 1107              	.LVL122:
 112:lvgl/lvgl/src/widgets/../core/lv_obj_style_gen.h **** }
 1108              		.loc 3 112 12 view .LVU363
 1109              	.LBE131:
 1110              	.LBE130:
 600:lvgl/lvgl/src/widgets/lv_table.c ****     lv_coord_t cell_right = lv_obj_get_style_pad_right(obj, LV_PART_ITEMS);
 1111              		.loc 1 600 5 is_stmt 1 view .LVU364
 1112              	.LBB132:
 1113              	.LBI132:
 103:lvgl/lvgl/src/widgets/../core/lv_obj_style_gen.h **** {
 1114              		.loc 3 103 26 view .LVU365
 1115              	.LBB133:
 105:lvgl/lvgl/src/widgets/../core/lv_obj_style_gen.h ****     return (lv_coord_t)v.num;
 1116              		.loc 3 105 5 view .LVU366
 105:lvgl/lvgl/src/widgets/../core/lv_obj_style_gen.h ****     return (lv_coord_t)v.num;
 1117              		.loc 3 105 26 is_stmt 0 view .LVU367
 1118 006e 41F21202 		movw	r2, #4114
 1119 0072 4FF4A021 		mov	r1, #327680
 1120 0076 3846     		mov	r0, r7
 1121 0078 FFF7FEFF 		bl	lv_obj_get_style_prop
 1122              	.LVL123:
ARM GAS  C:\Users\gx\AppData\Local\Temp\ccSIsGPa.s 			page 49


 1123 007c 0A90     		str	r0, [sp, #40]
 106:lvgl/lvgl/src/widgets/../core/lv_obj_style_gen.h **** }
 1124              		.loc 3 106 5 is_stmt 1 view .LVU368
 1125              	.LVL124:
 106:lvgl/lvgl/src/widgets/../core/lv_obj_style_gen.h **** }
 1126              		.loc 3 106 5 is_stmt 0 view .LVU369
 1127              	.LBE133:
 1128              	.LBE132:
 601:lvgl/lvgl/src/widgets/lv_table.c ****     lv_coord_t cell_top = lv_obj_get_style_pad_top(obj, LV_PART_ITEMS);
 1129              		.loc 1 601 5 is_stmt 1 view .LVU370
 1130              	.LBB134:
 1131              	.LBI134:
 109:lvgl/lvgl/src/widgets/../core/lv_obj_style_gen.h **** {
 1132              		.loc 3 109 26 view .LVU371
 1133              	.LBB135:
 111:lvgl/lvgl/src/widgets/../core/lv_obj_style_gen.h ****     return (lv_coord_t)v.num;
 1134              		.loc 3 111 5 view .LVU372
 111:lvgl/lvgl/src/widgets/../core/lv_obj_style_gen.h ****     return (lv_coord_t)v.num;
 1135              		.loc 3 111 26 is_stmt 0 view .LVU373
 1136 007e 41F21302 		movw	r2, #4115
 1137 0082 4FF4A021 		mov	r1, #327680
 1138 0086 3846     		mov	r0, r7
 1139 0088 FFF7FEFF 		bl	lv_obj_get_style_prop
 1140              	.LVL125:
 1141 008c 0990     		str	r0, [sp, #36]
 112:lvgl/lvgl/src/widgets/../core/lv_obj_style_gen.h **** }
 1142              		.loc 3 112 5 is_stmt 1 view .LVU374
 1143              	.LVL126:
 112:lvgl/lvgl/src/widgets/../core/lv_obj_style_gen.h **** }
 1144              		.loc 3 112 5 is_stmt 0 view .LVU375
 1145              	.LBE135:
 1146              	.LBE134:
 602:lvgl/lvgl/src/widgets/lv_table.c ****     lv_coord_t cell_bottom = lv_obj_get_style_pad_bottom(obj, LV_PART_ITEMS);
 1147              		.loc 1 602 5 is_stmt 1 view .LVU376
 1148              	.LBB136:
 1149              	.LBI136:
  91:lvgl/lvgl/src/widgets/../core/lv_obj_style_gen.h **** {
 1150              		.loc 3 91 26 view .LVU377
 1151              	.LBB137:
  93:lvgl/lvgl/src/widgets/../core/lv_obj_style_gen.h ****     return (lv_coord_t)v.num;
 1152              		.loc 3 93 5 view .LVU378
  93:lvgl/lvgl/src/widgets/../core/lv_obj_style_gen.h ****     return (lv_coord_t)v.num;
 1153              		.loc 3 93 26 is_stmt 0 view .LVU379
 1154 008e 41F21002 		movw	r2, #4112
 1155 0092 4FF4A021 		mov	r1, #327680
 1156 0096 3846     		mov	r0, r7
 1157 0098 FFF7FEFF 		bl	lv_obj_get_style_prop
 1158              	.LVL127:
 1159 009c 0890     		str	r0, [sp, #32]
  94:lvgl/lvgl/src/widgets/../core/lv_obj_style_gen.h **** }
 1160              		.loc 3 94 5 is_stmt 1 view .LVU380
 1161              	.LVL128:
  94:lvgl/lvgl/src/widgets/../core/lv_obj_style_gen.h **** }
 1162              		.loc 3 94 5 is_stmt 0 view .LVU381
 1163              	.LBE137:
 1164              	.LBE136:
 603:lvgl/lvgl/src/widgets/lv_table.c **** 
ARM GAS  C:\Users\gx\AppData\Local\Temp\ccSIsGPa.s 			page 50


 1165              		.loc 1 603 5 is_stmt 1 view .LVU382
 1166              	.LBB138:
 1167              	.LBI138:
  97:lvgl/lvgl/src/widgets/../core/lv_obj_style_gen.h **** {
 1168              		.loc 3 97 26 view .LVU383
 1169              	.LBB139:
  99:lvgl/lvgl/src/widgets/../core/lv_obj_style_gen.h ****     return (lv_coord_t)v.num;
 1170              		.loc 3 99 5 view .LVU384
  99:lvgl/lvgl/src/widgets/../core/lv_obj_style_gen.h ****     return (lv_coord_t)v.num;
 1171              		.loc 3 99 26 is_stmt 0 view .LVU385
 1172 009e 41F21102 		movw	r2, #4113
 1173 00a2 4FF4A021 		mov	r1, #327680
 1174 00a6 3846     		mov	r0, r7
 1175 00a8 FFF7FEFF 		bl	lv_obj_get_style_prop
 1176              	.LVL129:
 1177 00ac 0790     		str	r0, [sp, #28]
 100:lvgl/lvgl/src/widgets/../core/lv_obj_style_gen.h **** }
 1178              		.loc 3 100 5 is_stmt 1 view .LVU386
 1179              	.LVL130:
 100:lvgl/lvgl/src/widgets/../core/lv_obj_style_gen.h **** }
 1180              		.loc 3 100 5 is_stmt 0 view .LVU387
 1181              	.LBE139:
 1182              	.LBE138:
 605:lvgl/lvgl/src/widgets/lv_table.c ****     obj->state = LV_STATE_DEFAULT;
 1183              		.loc 1 605 5 is_stmt 1 view .LVU388
 605:lvgl/lvgl/src/widgets/lv_table.c ****     obj->state = LV_STATE_DEFAULT;
 1184              		.loc 1 605 16 is_stmt 0 view .LVU389
 1185 00ae 3E8C     		ldrh	r6, [r7, #32]
 1186 00b0 1296     		str	r6, [sp, #72]
 1187              	.LVL131:
 606:lvgl/lvgl/src/widgets/lv_table.c ****     obj->skip_trans = 1;
 1188              		.loc 1 606 5 is_stmt 1 view .LVU390
 606:lvgl/lvgl/src/widgets/lv_table.c ****     obj->skip_trans = 1;
 1189              		.loc 1 606 16 is_stmt 0 view .LVU391
 1190 00b2 0025     		movs	r5, #0
 1191 00b4 3D84     		strh	r5, [r7, #32]	@ movhi
 607:lvgl/lvgl/src/widgets/lv_table.c ****     lv_draw_rect_dsc_t rect_dsc_def;
 1192              		.loc 1 607 5 is_stmt 1 view .LVU392
 607:lvgl/lvgl/src/widgets/lv_table.c ****     lv_draw_rect_dsc_t rect_dsc_def;
 1193              		.loc 1 607 21 is_stmt 0 view .LVU393
 1194 00b6 97F82230 		ldrb	r3, [r7, #34]	@ zero_extendqisi2
 1195 00ba 43F00403 		orr	r3, r3, #4
 1196 00be 87F82230 		strb	r3, [r7, #34]
 608:lvgl/lvgl/src/widgets/lv_table.c ****     lv_draw_rect_dsc_t rect_dsc_act; /*Passed to the event to modify it*/
 1197              		.loc 1 608 5 is_stmt 1 view .LVU394
 609:lvgl/lvgl/src/widgets/lv_table.c ****     lv_draw_rect_dsc_init(&rect_dsc_def);
 1198              		.loc 1 609 5 view .LVU395
 610:lvgl/lvgl/src/widgets/lv_table.c ****     lv_obj_init_draw_rect_dsc(obj, LV_PART_ITEMS, &rect_dsc_def);
 1199              		.loc 1 610 5 view .LVU396
 1200 00c2 46A8     		add	r0, sp, #280
 1201 00c4 FFF7FEFF 		bl	lv_draw_rect_dsc_init
 1202              	.LVL132:
 611:lvgl/lvgl/src/widgets/lv_table.c **** 
 1203              		.loc 1 611 5 view .LVU397
 1204 00c8 46AA     		add	r2, sp, #280
 1205 00ca 4FF4A021 		mov	r1, #327680
 1206 00ce 3846     		mov	r0, r7
ARM GAS  C:\Users\gx\AppData\Local\Temp\ccSIsGPa.s 			page 51


 1207 00d0 FFF7FEFF 		bl	lv_obj_init_draw_rect_dsc
 1208              	.LVL133:
 613:lvgl/lvgl/src/widgets/lv_table.c ****     lv_draw_label_dsc_t label_dsc_act;  /*Passed to the event to modify it*/
 1209              		.loc 1 613 5 view .LVU398
 614:lvgl/lvgl/src/widgets/lv_table.c ****     lv_draw_label_dsc_init(&label_dsc_def);
 1210              		.loc 1 614 5 view .LVU399
 615:lvgl/lvgl/src/widgets/lv_table.c ****     lv_obj_init_draw_label_dsc(obj, LV_PART_ITEMS, &label_dsc_def);
 1211              		.loc 1 615 5 view .LVU400
 1212 00d4 31A8     		add	r0, sp, #196
 1213 00d6 FFF7FEFF 		bl	lv_draw_label_dsc_init
 1214              	.LVL134:
 616:lvgl/lvgl/src/widgets/lv_table.c ****     obj->state = state_ori;
 1215              		.loc 1 616 5 view .LVU401
 1216 00da 31AA     		add	r2, sp, #196
 1217 00dc 4FF4A021 		mov	r1, #327680
 1218 00e0 3846     		mov	r0, r7
 1219 00e2 FFF7FEFF 		bl	lv_obj_init_draw_label_dsc
 1220              	.LVL135:
 617:lvgl/lvgl/src/widgets/lv_table.c ****     obj->skip_trans = 0;
 1221              		.loc 1 617 5 view .LVU402
 617:lvgl/lvgl/src/widgets/lv_table.c ****     obj->skip_trans = 0;
 1222              		.loc 1 617 16 is_stmt 0 view .LVU403
 1223 00e6 3E84     		strh	r6, [r7, #32]	@ movhi
 618:lvgl/lvgl/src/widgets/lv_table.c **** 
 1224              		.loc 1 618 5 is_stmt 1 view .LVU404
 618:lvgl/lvgl/src/widgets/lv_table.c **** 
 1225              		.loc 1 618 21 is_stmt 0 view .LVU405
 1226 00e8 97F82230 		ldrb	r3, [r7, #34]	@ zero_extendqisi2
 1227 00ec 65F38203 		bfi	r3, r5, #2, #1
 1228 00f0 87F82230 		strb	r3, [r7, #34]
 620:lvgl/lvgl/src/widgets/lv_table.c ****     uint16_t row;
 1229              		.loc 1 620 5 is_stmt 1 view .LVU406
 621:lvgl/lvgl/src/widgets/lv_table.c ****     uint16_t cell = 0;
 1230              		.loc 1 621 5 view .LVU407
 622:lvgl/lvgl/src/widgets/lv_table.c **** 
 1231              		.loc 1 622 5 view .LVU408
 1232              	.LVL136:
 624:lvgl/lvgl/src/widgets/lv_table.c ****     lv_coord_t scroll_x = lv_obj_get_scroll_x(obj) ;
 1233              		.loc 1 624 5 view .LVU409
 624:lvgl/lvgl/src/widgets/lv_table.c ****     lv_coord_t scroll_x = lv_obj_get_scroll_x(obj) ;
 1234              		.loc 1 624 31 is_stmt 0 view .LVU410
 1235 00f4 FB8A     		ldrh	r3, [r7, #22]
 1236              	.LVL137:
 624:lvgl/lvgl/src/widgets/lv_table.c ****     lv_coord_t scroll_x = lv_obj_get_scroll_x(obj) ;
 1237              		.loc 1 624 35 view .LVU411
 1238 00f6 1C44     		add	r4, r4, r3
 1239              	.LVL138:
 624:lvgl/lvgl/src/widgets/lv_table.c ****     lv_coord_t scroll_x = lv_obj_get_scroll_x(obj) ;
 1240              		.loc 1 624 35 view .LVU412
 1241 00f8 A4B2     		uxth	r4, r4
 624:lvgl/lvgl/src/widgets/lv_table.c ****     lv_coord_t scroll_x = lv_obj_get_scroll_x(obj) ;
 1242              		.loc 1 624 50 view .LVU413
 1243 00fa 3846     		mov	r0, r7
 1244 00fc FFF7FEFF 		bl	lv_obj_get_scroll_y
 1245              	.LVL139:
 624:lvgl/lvgl/src/widgets/lv_table.c ****     lv_coord_t scroll_x = lv_obj_get_scroll_x(obj) ;
 1246              		.loc 1 624 48 view .LVU414
ARM GAS  C:\Users\gx\AppData\Local\Temp\ccSIsGPa.s 			page 52


 1247 0100 231A     		subs	r3, r4, r0
 1248 0102 013B     		subs	r3, r3, #1
 624:lvgl/lvgl/src/widgets/lv_table.c ****     lv_coord_t scroll_x = lv_obj_get_scroll_x(obj) ;
 1249              		.loc 1 624 18 view .LVU415
 1250 0104 ADF85A31 		strh	r3, [sp, #346]	@ movhi
 625:lvgl/lvgl/src/widgets/lv_table.c ****     bool rtl = lv_obj_get_style_base_dir(obj, LV_PART_MAIN) == LV_BASE_DIR_RTL ? true : false;
 1251              		.loc 1 625 5 is_stmt 1 view .LVU416
 625:lvgl/lvgl/src/widgets/lv_table.c ****     bool rtl = lv_obj_get_style_base_dir(obj, LV_PART_MAIN) == LV_BASE_DIR_RTL ? true : false;
 1252              		.loc 1 625 27 is_stmt 0 view .LVU417
 1253 0108 3846     		mov	r0, r7
 1254 010a FFF7FEFF 		bl	lv_obj_get_scroll_x
 1255              	.LVL140:
 1256 010e 1090     		str	r0, [sp, #64]
 1257              	.LVL141:
 626:lvgl/lvgl/src/widgets/lv_table.c **** 
 1258              		.loc 1 626 5 is_stmt 1 view .LVU418
 1259              	.LBB140:
 1260              	.LBI140:
 187:lvgl/lvgl/src/widgets/../core/lv_obj_style_gen.h **** {
 1261              		.loc 3 187 29 view .LVU419
 1262              	.LBB141:
 189:lvgl/lvgl/src/widgets/../core/lv_obj_style_gen.h ****     return (lv_base_dir_t)v.num;
 1263              		.loc 3 189 5 view .LVU420
 189:lvgl/lvgl/src/widgets/../core/lv_obj_style_gen.h ****     return (lv_base_dir_t)v.num;
 1264              		.loc 3 189 26 is_stmt 0 view .LVU421
 1265 0110 41F26A42 		movw	r2, #5226
 1266 0114 2946     		mov	r1, r5
 1267 0116 3846     		mov	r0, r7
 1268 0118 FFF7FEFF 		bl	lv_obj_get_style_prop
 1269              	.LVL142:
 190:lvgl/lvgl/src/widgets/../core/lv_obj_style_gen.h **** }
 1270              		.loc 3 190 5 is_stmt 1 view .LVU422
 190:lvgl/lvgl/src/widgets/../core/lv_obj_style_gen.h **** }
 1271              		.loc 3 190 12 is_stmt 0 view .LVU423
 1272 011c 5FFA80FB 		uxtb	fp, r0
 1273              	.LVL143:
 190:lvgl/lvgl/src/widgets/../core/lv_obj_style_gen.h **** }
 1274              		.loc 3 190 12 view .LVU424
 1275              	.LBE141:
 1276              	.LBE140:
 629:lvgl/lvgl/src/widgets/lv_table.c ****     lv_obj_draw_dsc_init(&part_draw_dsc, &clip_area);
 1277              		.loc 1 629 5 is_stmt 1 view .LVU425
 630:lvgl/lvgl/src/widgets/lv_table.c ****     part_draw_dsc.part = LV_PART_ITEMS;
 1278              		.loc 1 630 5 view .LVU426
 1279 0120 58A9     		add	r1, sp, #352
 1280 0122 18A8     		add	r0, sp, #96
 1281 0124 FFF7FEFF 		bl	lv_obj_draw_dsc_init
 1282              	.LVL144:
 631:lvgl/lvgl/src/widgets/lv_table.c ****     part_draw_dsc.class_p = MY_CLASS;
 1283              		.loc 1 631 5 view .LVU427
 631:lvgl/lvgl/src/widgets/lv_table.c ****     part_draw_dsc.class_p = MY_CLASS;
 1284              		.loc 1 631 24 is_stmt 0 view .LVU428
 1285 0128 4FF4A023 		mov	r3, #327680
 1286 012c 2493     		str	r3, [sp, #144]
 632:lvgl/lvgl/src/widgets/lv_table.c ****     part_draw_dsc.type = LV_TABLE_DRAW_PART_CELL;
 1287              		.loc 1 632 5 is_stmt 1 view .LVU429
 632:lvgl/lvgl/src/widgets/lv_table.c ****     part_draw_dsc.type = LV_TABLE_DRAW_PART_CELL;
ARM GAS  C:\Users\gx\AppData\Local\Temp\ccSIsGPa.s 			page 53


 1288              		.loc 1 632 27 is_stmt 0 view .LVU430
 1289 012e B54B     		ldr	r3, .L78
 1290 0130 1993     		str	r3, [sp, #100]
 633:lvgl/lvgl/src/widgets/lv_table.c ****     part_draw_dsc.rect_dsc = &rect_dsc_act;
 1291              		.loc 1 633 5 is_stmt 1 view .LVU431
 633:lvgl/lvgl/src/widgets/lv_table.c ****     part_draw_dsc.rect_dsc = &rect_dsc_act;
 1292              		.loc 1 633 24 is_stmt 0 view .LVU432
 1293 0132 1A95     		str	r5, [sp, #104]
 634:lvgl/lvgl/src/widgets/lv_table.c ****     part_draw_dsc.label_dsc = &label_dsc_act;
 1294              		.loc 1 634 5 is_stmt 1 view .LVU433
 634:lvgl/lvgl/src/widgets/lv_table.c ****     part_draw_dsc.label_dsc = &label_dsc_act;
 1295              		.loc 1 634 28 is_stmt 0 view .LVU434
 1296 0134 39AB     		add	r3, sp, #228
 1297 0136 1C93     		str	r3, [sp, #112]
 635:lvgl/lvgl/src/widgets/lv_table.c **** 
 1298              		.loc 1 635 5 is_stmt 1 view .LVU435
 635:lvgl/lvgl/src/widgets/lv_table.c **** 
 1299              		.loc 1 635 29 is_stmt 0 view .LVU436
 1300 0138 29AB     		add	r3, sp, #164
 1301 013a 1D93     		str	r3, [sp, #116]
 637:lvgl/lvgl/src/widgets/lv_table.c ****         lv_coord_t h_row = table->row_h[row];
 1302              		.loc 1 637 5 is_stmt 1 view .LVU437
 1303              	.LVL145:
 622:lvgl/lvgl/src/widgets/lv_table.c **** 
 1304              		.loc 1 622 14 is_stmt 0 view .LVU438
 1305 013c AA46     		mov	r10, r5
 637:lvgl/lvgl/src/widgets/lv_table.c ****         lv_coord_t h_row = table->row_h[row];
 1306              		.loc 1 637 13 view .LVU439
 1307 013e 0695     		str	r5, [sp, #24]
 637:lvgl/lvgl/src/widgets/lv_table.c ****         lv_coord_t h_row = table->row_h[row];
 1308              		.loc 1 637 5 view .LVU440
 1309 0140 AEE1     		b	.L36
 1310              	.LVL146:
 1311              	.L77:
 1312              	.LBB142:
 645:lvgl/lvgl/src/widgets/lv_table.c ****         else cell_area.x2 = obj->coords.x1 + bg_left - 1 - scroll_x;
 1313              		.loc 1 645 17 is_stmt 1 discriminator 1 view .LVU441
 645:lvgl/lvgl/src/widgets/lv_table.c ****         else cell_area.x2 = obj->coords.x1 + bg_left - 1 - scroll_x;
 1314              		.loc 1 645 43 is_stmt 0 discriminator 1 view .LVU442
 1315 0142 3B8B     		ldrh	r3, [r7, #24]
 645:lvgl/lvgl/src/widgets/lv_table.c ****         else cell_area.x2 = obj->coords.x1 + bg_left - 1 - scroll_x;
 1316              		.loc 1 645 47 discriminator 1 view .LVU443
 1317 0144 139A     		ldr	r2, [sp, #76]
 1318 0146 9B1A     		subs	r3, r3, r2
 1319 0148 9BB2     		uxth	r3, r3
 645:lvgl/lvgl/src/widgets/lv_table.c ****         else cell_area.x2 = obj->coords.x1 + bg_left - 1 - scroll_x;
 1320              		.loc 1 645 62 discriminator 1 view .LVU444
 1321 014a 109A     		ldr	r2, [sp, #64]
 1322 014c 9B1A     		subs	r3, r3, r2
 1323 014e 013B     		subs	r3, r3, #1
 645:lvgl/lvgl/src/widgets/lv_table.c ****         else cell_area.x2 = obj->coords.x1 + bg_left - 1 - scroll_x;
 1324              		.loc 1 645 30 discriminator 1 view .LVU445
 1325 0150 ADF85431 		strh	r3, [sp, #340]	@ movhi
 1326 0154 CCE1     		b	.L38
 1327              	.LVL147:
 1328              	.L68:
 1329              	.LBB143:
ARM GAS  C:\Users\gx\AppData\Local\Temp\ccSIsGPa.s 			page 54


 649:lvgl/lvgl/src/widgets/lv_table.c ****             if(table->cell_data[cell]) ctrl = table->cell_data[cell][0];
 1330              		.loc 1 649 34 view .LVU446
 1331 0156 0026     		movs	r6, #0
 1332 0158 35E1     		b	.L39
 1333              	.LVL148:
 1334              	.L76:
 653:lvgl/lvgl/src/widgets/lv_table.c ****                 cell_area.x1 = cell_area.x2 - table->col_w[col] + 1;
 1335              		.loc 1 653 17 is_stmt 1 view .LVU447
 653:lvgl/lvgl/src/widgets/lv_table.c ****                 cell_area.x1 = cell_area.x2 - table->col_w[col] + 1;
 1336              		.loc 1 653 41 is_stmt 0 view .LVU448
 1337 015a BDF85421 		ldrh	r2, [sp, #340]
 653:lvgl/lvgl/src/widgets/lv_table.c ****                 cell_area.x1 = cell_area.x2 - table->col_w[col] + 1;
 1338              		.loc 1 653 45 view .LVU449
 1339 015e 013A     		subs	r2, r2, #1
 1340 0160 93B2     		uxth	r3, r2
 653:lvgl/lvgl/src/widgets/lv_table.c ****                 cell_area.x1 = cell_area.x2 - table->col_w[col] + 1;
 1341              		.loc 1 653 30 view .LVU450
 1342 0162 ADF85821 		strh	r2, [sp, #344]	@ movhi
 654:lvgl/lvgl/src/widgets/lv_table.c ****             }
 1343              		.loc 1 654 17 is_stmt 1 view .LVU451
 654:lvgl/lvgl/src/widgets/lv_table.c ****             }
 1344              		.loc 1 654 52 is_stmt 0 view .LVU452
 1345 0166 3A6B     		ldr	r2, [r7, #48]
 654:lvgl/lvgl/src/widgets/lv_table.c ****             }
 1346              		.loc 1 654 59 view .LVU453
 1347 0168 32F81520 		ldrh	r2, [r2, r5, lsl #1]
 654:lvgl/lvgl/src/widgets/lv_table.c ****             }
 1348              		.loc 1 654 45 view .LVU454
 1349 016c 9B1A     		subs	r3, r3, r2
 1350 016e 9BB2     		uxth	r3, r3
 654:lvgl/lvgl/src/widgets/lv_table.c ****             }
 1351              		.loc 1 654 65 view .LVU455
 1352 0170 0133     		adds	r3, r3, #1
 654:lvgl/lvgl/src/widgets/lv_table.c ****             }
 1353              		.loc 1 654 30 view .LVU456
 1354 0172 ADF85431 		strh	r3, [sp, #340]	@ movhi
 1355 0176 38E1     		b	.L41
 1356              	.LVL149:
 1357              	.L43:
 1358              	.LBB144:
 668:lvgl/lvgl/src/widgets/lv_table.c ****                     else {
 1359              		.loc 1 668 30 is_stmt 1 view .LVU457
 668:lvgl/lvgl/src/widgets/lv_table.c ****                     else {
 1360              		.loc 1 668 51 is_stmt 0 view .LVU458
 1361 0178 3A6B     		ldr	r2, [r7, #48]
 1362              	.LVL150:
 668:lvgl/lvgl/src/widgets/lv_table.c ****                     else {
 1363              		.loc 1 668 58 view .LVU459
 1364 017a 0133     		adds	r3, r3, #1
 1365 017c 32F81330 		ldrh	r3, [r2, r3, lsl #1]
 668:lvgl/lvgl/src/widgets/lv_table.c ****                     else {
 1366              		.loc 1 668 43 view .LVU460
 1367 0180 BDF85821 		ldrh	r2, [sp, #344]
 1368 0184 1344     		add	r3, r3, r2
 1369 0186 ADF85831 		strh	r3, [sp, #344]	@ movhi
 1370              	.LVL151:
 1371              	.L44:
ARM GAS  C:\Users\gx\AppData\Local\Temp\ccSIsGPa.s 			page 55


 668:lvgl/lvgl/src/widgets/lv_table.c ****                     else {
 1372              		.loc 1 668 43 view .LVU461
 1373              	.LBE144:
 662:lvgl/lvgl/src/widgets/lv_table.c ****                 if(table->cell_data[cell + col_merge]) {
 1374              		.loc 1 662 70 is_stmt 1 discriminator 2 view .LVU462
 662:lvgl/lvgl/src/widgets/lv_table.c ****                 if(table->cell_data[cell + col_merge]) {
 1375              		.loc 1 662 79 is_stmt 0 discriminator 2 view .LVU463
 1376 018a 0134     		adds	r4, r4, #1
 1377              	.LVL152:
 662:lvgl/lvgl/src/widgets/lv_table.c ****                 if(table->cell_data[cell + col_merge]) {
 1378              		.loc 1 662 79 discriminator 2 view .LVU464
 1379 018c A4B2     		uxth	r4, r4
 1380              	.LVL153:
 1381              	.L45:
 662:lvgl/lvgl/src/widgets/lv_table.c ****                 if(table->cell_data[cell + col_merge]) {
 1382              		.loc 1 662 32 is_stmt 1 discriminator 1 view .LVU465
 662:lvgl/lvgl/src/widgets/lv_table.c ****                 if(table->cell_data[cell + col_merge]) {
 1383              		.loc 1 662 42 is_stmt 0 discriminator 1 view .LVU466
 1384 018e 0595     		str	r5, [sp, #20]
 1385 0190 6319     		adds	r3, r4, r5
 662:lvgl/lvgl/src/widgets/lv_table.c ****                 if(table->cell_data[cell + col_merge]) {
 1386              		.loc 1 662 65 discriminator 1 view .LVU467
 1387 0192 4A1E     		subs	r2, r1, #1
 662:lvgl/lvgl/src/widgets/lv_table.c ****                 if(table->cell_data[cell + col_merge]) {
 1388              		.loc 1 662 13 discriminator 1 view .LVU468
 1389 0194 9342     		cmp	r3, r2
 1390 0196 15DA     		bge	.L42
 663:lvgl/lvgl/src/widgets/lv_table.c ****                     char * next_cell_data = table->cell_data[cell + col_merge];
 1391              		.loc 1 663 17 is_stmt 1 view .LVU469
 663:lvgl/lvgl/src/widgets/lv_table.c ****                     char * next_cell_data = table->cell_data[cell + col_merge];
 1392              		.loc 1 663 42 is_stmt 0 view .LVU470
 1393 0198 0AEB0402 		add	r2, r10, r4
 663:lvgl/lvgl/src/widgets/lv_table.c ****                     char * next_cell_data = table->cell_data[cell + col_merge];
 1394              		.loc 1 663 36 view .LVU471
 1395 019c 50F82220 		ldr	r2, [r0, r2, lsl #2]
 663:lvgl/lvgl/src/widgets/lv_table.c ****                     char * next_cell_data = table->cell_data[cell + col_merge];
 1396              		.loc 1 663 19 view .LVU472
 1397 01a0 82B1     		cbz	r2, .L42
 1398              	.LBB145:
 664:lvgl/lvgl/src/widgets/lv_table.c ****                     if(next_cell_data) ctrl = next_cell_data[0];
 1399              		.loc 1 664 21 is_stmt 1 discriminator 1 view .LVU473
 1400              	.LVL154:
 665:lvgl/lvgl/src/widgets/lv_table.c ****                     if(ctrl & LV_TABLE_CELL_CTRL_MERGE_RIGHT)
 1401              		.loc 1 665 21 discriminator 1 view .LVU474
 665:lvgl/lvgl/src/widgets/lv_table.c ****                     if(ctrl & LV_TABLE_CELL_CTRL_MERGE_RIGHT)
 1402              		.loc 1 665 40 discriminator 1 view .LVU475
 665:lvgl/lvgl/src/widgets/lv_table.c ****                     if(ctrl & LV_TABLE_CELL_CTRL_MERGE_RIGHT)
 1403              		.loc 1 665 45 is_stmt 0 discriminator 1 view .LVU476
 1404 01a2 1678     		ldrb	r6, [r2]	@ zero_extendqisi2
 1405              	.LVL155:
 666:lvgl/lvgl/src/widgets/lv_table.c ****                         if(rtl) cell_area.x1 -= table->col_w[col + col_merge + 1];
 1406              		.loc 1 666 21 is_stmt 1 discriminator 1 view .LVU477
 666:lvgl/lvgl/src/widgets/lv_table.c ****                         if(rtl) cell_area.x1 -= table->col_w[col + col_merge + 1];
 1407              		.loc 1 666 23 is_stmt 0 discriminator 1 view .LVU478
 1408 01a4 16F0010F 		tst	r6, #1
 1409 01a8 0CD0     		beq	.L42
 667:lvgl/lvgl/src/widgets/lv_table.c ****                         else cell_area.x2 += table->col_w[col + col_merge + 1];
ARM GAS  C:\Users\gx\AppData\Local\Temp\ccSIsGPa.s 			page 56


 1410              		.loc 1 667 25 is_stmt 1 view .LVU479
 667:lvgl/lvgl/src/widgets/lv_table.c ****                         else cell_area.x2 += table->col_w[col + col_merge + 1];
 1411              		.loc 1 667 27 is_stmt 0 view .LVU480
 1412 01aa BBF1010F 		cmp	fp, #1
 1413 01ae E3D1     		bne	.L43
 667:lvgl/lvgl/src/widgets/lv_table.c ****                         else cell_area.x2 += table->col_w[col + col_merge + 1];
 1414              		.loc 1 667 33 is_stmt 1 discriminator 1 view .LVU481
 667:lvgl/lvgl/src/widgets/lv_table.c ****                         else cell_area.x2 += table->col_w[col + col_merge + 1];
 1415              		.loc 1 667 54 is_stmt 0 discriminator 1 view .LVU482
 1416 01b0 3A6B     		ldr	r2, [r7, #48]
 1417              	.LVL156:
 667:lvgl/lvgl/src/widgets/lv_table.c ****                         else cell_area.x2 += table->col_w[col + col_merge + 1];
 1418              		.loc 1 667 61 discriminator 1 view .LVU483
 1419 01b2 0133     		adds	r3, r3, #1
 1420 01b4 32F81320 		ldrh	r2, [r2, r3, lsl #1]
 667:lvgl/lvgl/src/widgets/lv_table.c ****                         else cell_area.x2 += table->col_w[col + col_merge + 1];
 1421              		.loc 1 667 46 discriminator 1 view .LVU484
 1422 01b8 BDF85431 		ldrh	r3, [sp, #340]
 1423 01bc 9B1A     		subs	r3, r3, r2
 1424 01be ADF85431 		strh	r3, [sp, #340]	@ movhi
 1425              	.LVL157:
 667:lvgl/lvgl/src/widgets/lv_table.c ****                         else cell_area.x2 += table->col_w[col + col_merge + 1];
 1426              		.loc 1 667 46 discriminator 1 view .LVU485
 1427 01c2 E2E7     		b	.L44
 1428              	.L42:
 667:lvgl/lvgl/src/widgets/lv_table.c ****                         else cell_area.x2 += table->col_w[col + col_merge + 1];
 1429              		.loc 1 667 46 discriminator 1 view .LVU486
 1430              	.LBE145:
 678:lvgl/lvgl/src/widgets/lv_table.c ****                 cell += col_merge + 1;
 1431              		.loc 1 678 13 is_stmt 1 view .LVU487
 678:lvgl/lvgl/src/widgets/lv_table.c ****                 cell += col_merge + 1;
 1432              		.loc 1 678 25 is_stmt 0 view .LVU488
 1433 01c4 BDF95A31 		ldrsh	r3, [sp, #346]
 678:lvgl/lvgl/src/widgets/lv_table.c ****                 cell += col_merge + 1;
 1434              		.loc 1 678 40 view .LVU489
 1435 01c8 BDF96221 		ldrsh	r2, [sp, #354]
 678:lvgl/lvgl/src/widgets/lv_table.c ****                 cell += col_merge + 1;
 1436              		.loc 1 678 15 view .LVU490
 1437 01cc 9342     		cmp	r3, r2
 1438 01ce C0F20E81 		blt	.L72
 685:lvgl/lvgl/src/widgets/lv_table.c ****             lv_area_copy(&cell_area_border, &cell_area);
 1439              		.loc 1 685 13 is_stmt 1 view .LVU491
 686:lvgl/lvgl/src/widgets/lv_table.c ****             if((rect_dsc_def.border_side & LV_BORDER_SIDE_LEFT) && cell_area_border.x1 > obj->coord
 1440              		.loc 1 686 13 view .LVU492
 1441              	.LVL158:
 1442              	.LBB146:
 1443              	.LBI146:
 1444              		.file 4 "d:\\practise\\f407_disc\\lvgl\\lvgl\\src\\misc\\lv_area.h"
   1:d:\practise\f407_disc\lvgl\lvgl\src\misc\lv_area.h **** /**
   2:d:\practise\f407_disc\lvgl\lvgl\src\misc\lv_area.h ****  * @file lv_area.h
   3:d:\practise\f407_disc\lvgl\lvgl\src\misc\lv_area.h ****  *
   4:d:\practise\f407_disc\lvgl\lvgl\src\misc\lv_area.h ****  */
   5:d:\practise\f407_disc\lvgl\lvgl\src\misc\lv_area.h **** 
   6:d:\practise\f407_disc\lvgl\lvgl\src\misc\lv_area.h **** #ifndef LV_AREA_H
   7:d:\practise\f407_disc\lvgl\lvgl\src\misc\lv_area.h **** #define LV_AREA_H
   8:d:\practise\f407_disc\lvgl\lvgl\src\misc\lv_area.h **** 
   9:d:\practise\f407_disc\lvgl\lvgl\src\misc\lv_area.h **** #ifdef __cplusplus
ARM GAS  C:\Users\gx\AppData\Local\Temp\ccSIsGPa.s 			page 57


  10:d:\practise\f407_disc\lvgl\lvgl\src\misc\lv_area.h **** extern "C" {
  11:d:\practise\f407_disc\lvgl\lvgl\src\misc\lv_area.h **** #endif
  12:d:\practise\f407_disc\lvgl\lvgl\src\misc\lv_area.h **** 
  13:d:\practise\f407_disc\lvgl\lvgl\src\misc\lv_area.h **** /*********************
  14:d:\practise\f407_disc\lvgl\lvgl\src\misc\lv_area.h ****  *      INCLUDES
  15:d:\practise\f407_disc\lvgl\lvgl\src\misc\lv_area.h ****  *********************/
  16:d:\practise\f407_disc\lvgl\lvgl\src\misc\lv_area.h **** #include "../lv_conf_internal.h"
  17:d:\practise\f407_disc\lvgl\lvgl\src\misc\lv_area.h **** #include <string.h>
  18:d:\practise\f407_disc\lvgl\lvgl\src\misc\lv_area.h **** #include <stdbool.h>
  19:d:\practise\f407_disc\lvgl\lvgl\src\misc\lv_area.h **** #include <stdint.h>
  20:d:\practise\f407_disc\lvgl\lvgl\src\misc\lv_area.h **** 
  21:d:\practise\f407_disc\lvgl\lvgl\src\misc\lv_area.h **** /*********************
  22:d:\practise\f407_disc\lvgl\lvgl\src\misc\lv_area.h ****  *      DEFINES
  23:d:\practise\f407_disc\lvgl\lvgl\src\misc\lv_area.h ****  *********************/
  24:d:\practise\f407_disc\lvgl\lvgl\src\misc\lv_area.h **** 
  25:d:\practise\f407_disc\lvgl\lvgl\src\misc\lv_area.h **** #define _LV_COORD_MAX_REDUCE    8192
  26:d:\practise\f407_disc\lvgl\lvgl\src\misc\lv_area.h **** 
  27:d:\practise\f407_disc\lvgl\lvgl\src\misc\lv_area.h **** #if LV_USE_LARGE_COORD
  28:d:\practise\f407_disc\lvgl\lvgl\src\misc\lv_area.h **** typedef int32_t lv_coord_t;
  29:d:\practise\f407_disc\lvgl\lvgl\src\misc\lv_area.h **** #else
  30:d:\practise\f407_disc\lvgl\lvgl\src\misc\lv_area.h **** typedef int16_t lv_coord_t;
  31:d:\practise\f407_disc\lvgl\lvgl\src\misc\lv_area.h **** #endif
  32:d:\practise\f407_disc\lvgl\lvgl\src\misc\lv_area.h **** 
  33:d:\practise\f407_disc\lvgl\lvgl\src\misc\lv_area.h **** /*To allow some special values in the end reduce the max value*/
  34:d:\practise\f407_disc\lvgl\lvgl\src\misc\lv_area.h **** #define LV_COORD_MAX ((lv_coord_t)((uint32_t)((uint32_t)1 << (8 * sizeof(lv_coord_t) - 1)) - _LV_CO
  35:d:\practise\f407_disc\lvgl\lvgl\src\misc\lv_area.h **** #define LV_COORD_MIN (-LV_COORD_MAX)
  36:d:\practise\f407_disc\lvgl\lvgl\src\misc\lv_area.h **** 
  37:d:\practise\f407_disc\lvgl\lvgl\src\misc\lv_area.h **** LV_EXPORT_CONST_INT(LV_COORD_MAX);
  38:d:\practise\f407_disc\lvgl\lvgl\src\misc\lv_area.h **** LV_EXPORT_CONST_INT(LV_COORD_MIN);
  39:d:\practise\f407_disc\lvgl\lvgl\src\misc\lv_area.h **** 
  40:d:\practise\f407_disc\lvgl\lvgl\src\misc\lv_area.h **** /**********************
  41:d:\practise\f407_disc\lvgl\lvgl\src\misc\lv_area.h ****  *      TYPEDEFS
  42:d:\practise\f407_disc\lvgl\lvgl\src\misc\lv_area.h ****  **********************/
  43:d:\practise\f407_disc\lvgl\lvgl\src\misc\lv_area.h **** 
  44:d:\practise\f407_disc\lvgl\lvgl\src\misc\lv_area.h **** /**
  45:d:\practise\f407_disc\lvgl\lvgl\src\misc\lv_area.h ****  * Represents a point on the screen.
  46:d:\practise\f407_disc\lvgl\lvgl\src\misc\lv_area.h ****  */
  47:d:\practise\f407_disc\lvgl\lvgl\src\misc\lv_area.h **** typedef struct {
  48:d:\practise\f407_disc\lvgl\lvgl\src\misc\lv_area.h ****     lv_coord_t x;
  49:d:\practise\f407_disc\lvgl\lvgl\src\misc\lv_area.h ****     lv_coord_t y;
  50:d:\practise\f407_disc\lvgl\lvgl\src\misc\lv_area.h **** } lv_point_t;
  51:d:\practise\f407_disc\lvgl\lvgl\src\misc\lv_area.h **** 
  52:d:\practise\f407_disc\lvgl\lvgl\src\misc\lv_area.h **** /** Represents an area of the screen.*/
  53:d:\practise\f407_disc\lvgl\lvgl\src\misc\lv_area.h **** typedef struct {
  54:d:\practise\f407_disc\lvgl\lvgl\src\misc\lv_area.h ****     lv_coord_t x1;
  55:d:\practise\f407_disc\lvgl\lvgl\src\misc\lv_area.h ****     lv_coord_t y1;
  56:d:\practise\f407_disc\lvgl\lvgl\src\misc\lv_area.h ****     lv_coord_t x2;
  57:d:\practise\f407_disc\lvgl\lvgl\src\misc\lv_area.h ****     lv_coord_t y2;
  58:d:\practise\f407_disc\lvgl\lvgl\src\misc\lv_area.h **** } lv_area_t;
  59:d:\practise\f407_disc\lvgl\lvgl\src\misc\lv_area.h **** 
  60:d:\practise\f407_disc\lvgl\lvgl\src\misc\lv_area.h **** /** Alignments*/
  61:d:\practise\f407_disc\lvgl\lvgl\src\misc\lv_area.h **** enum {
  62:d:\practise\f407_disc\lvgl\lvgl\src\misc\lv_area.h ****     LV_ALIGN_DEFAULT = 0,
  63:d:\practise\f407_disc\lvgl\lvgl\src\misc\lv_area.h ****     LV_ALIGN_TOP_LEFT,
  64:d:\practise\f407_disc\lvgl\lvgl\src\misc\lv_area.h ****     LV_ALIGN_TOP_MID,
  65:d:\practise\f407_disc\lvgl\lvgl\src\misc\lv_area.h ****     LV_ALIGN_TOP_RIGHT,
  66:d:\practise\f407_disc\lvgl\lvgl\src\misc\lv_area.h ****     LV_ALIGN_BOTTOM_LEFT,
ARM GAS  C:\Users\gx\AppData\Local\Temp\ccSIsGPa.s 			page 58


  67:d:\practise\f407_disc\lvgl\lvgl\src\misc\lv_area.h ****     LV_ALIGN_BOTTOM_MID,
  68:d:\practise\f407_disc\lvgl\lvgl\src\misc\lv_area.h ****     LV_ALIGN_BOTTOM_RIGHT,
  69:d:\practise\f407_disc\lvgl\lvgl\src\misc\lv_area.h ****     LV_ALIGN_LEFT_MID,
  70:d:\practise\f407_disc\lvgl\lvgl\src\misc\lv_area.h ****     LV_ALIGN_RIGHT_MID,
  71:d:\practise\f407_disc\lvgl\lvgl\src\misc\lv_area.h ****     LV_ALIGN_CENTER,
  72:d:\practise\f407_disc\lvgl\lvgl\src\misc\lv_area.h **** 
  73:d:\practise\f407_disc\lvgl\lvgl\src\misc\lv_area.h ****     LV_ALIGN_OUT_TOP_LEFT,
  74:d:\practise\f407_disc\lvgl\lvgl\src\misc\lv_area.h ****     LV_ALIGN_OUT_TOP_MID,
  75:d:\practise\f407_disc\lvgl\lvgl\src\misc\lv_area.h ****     LV_ALIGN_OUT_TOP_RIGHT,
  76:d:\practise\f407_disc\lvgl\lvgl\src\misc\lv_area.h ****     LV_ALIGN_OUT_BOTTOM_LEFT,
  77:d:\practise\f407_disc\lvgl\lvgl\src\misc\lv_area.h ****     LV_ALIGN_OUT_BOTTOM_MID,
  78:d:\practise\f407_disc\lvgl\lvgl\src\misc\lv_area.h ****     LV_ALIGN_OUT_BOTTOM_RIGHT,
  79:d:\practise\f407_disc\lvgl\lvgl\src\misc\lv_area.h ****     LV_ALIGN_OUT_LEFT_TOP,
  80:d:\practise\f407_disc\lvgl\lvgl\src\misc\lv_area.h ****     LV_ALIGN_OUT_LEFT_MID,
  81:d:\practise\f407_disc\lvgl\lvgl\src\misc\lv_area.h ****     LV_ALIGN_OUT_LEFT_BOTTOM,
  82:d:\practise\f407_disc\lvgl\lvgl\src\misc\lv_area.h ****     LV_ALIGN_OUT_RIGHT_TOP,
  83:d:\practise\f407_disc\lvgl\lvgl\src\misc\lv_area.h ****     LV_ALIGN_OUT_RIGHT_MID,
  84:d:\practise\f407_disc\lvgl\lvgl\src\misc\lv_area.h ****     LV_ALIGN_OUT_RIGHT_BOTTOM,
  85:d:\practise\f407_disc\lvgl\lvgl\src\misc\lv_area.h **** };
  86:d:\practise\f407_disc\lvgl\lvgl\src\misc\lv_area.h **** typedef uint8_t lv_align_t;
  87:d:\practise\f407_disc\lvgl\lvgl\src\misc\lv_area.h **** 
  88:d:\practise\f407_disc\lvgl\lvgl\src\misc\lv_area.h **** enum {
  89:d:\practise\f407_disc\lvgl\lvgl\src\misc\lv_area.h ****     LV_DIR_NONE     = 0x00,
  90:d:\practise\f407_disc\lvgl\lvgl\src\misc\lv_area.h ****     LV_DIR_LEFT     = (1 << 0),
  91:d:\practise\f407_disc\lvgl\lvgl\src\misc\lv_area.h ****     LV_DIR_RIGHT    = (1 << 1),
  92:d:\practise\f407_disc\lvgl\lvgl\src\misc\lv_area.h ****     LV_DIR_TOP      = (1 << 2),
  93:d:\practise\f407_disc\lvgl\lvgl\src\misc\lv_area.h ****     LV_DIR_BOTTOM   = (1 << 3),
  94:d:\practise\f407_disc\lvgl\lvgl\src\misc\lv_area.h ****     LV_DIR_HOR      = LV_DIR_LEFT | LV_DIR_RIGHT,
  95:d:\practise\f407_disc\lvgl\lvgl\src\misc\lv_area.h ****     LV_DIR_VER      = LV_DIR_TOP | LV_DIR_BOTTOM,
  96:d:\practise\f407_disc\lvgl\lvgl\src\misc\lv_area.h ****     LV_DIR_ALL      = LV_DIR_HOR | LV_DIR_VER,
  97:d:\practise\f407_disc\lvgl\lvgl\src\misc\lv_area.h **** };
  98:d:\practise\f407_disc\lvgl\lvgl\src\misc\lv_area.h **** 
  99:d:\practise\f407_disc\lvgl\lvgl\src\misc\lv_area.h **** typedef uint8_t lv_dir_t;
 100:d:\practise\f407_disc\lvgl\lvgl\src\misc\lv_area.h **** 
 101:d:\practise\f407_disc\lvgl\lvgl\src\misc\lv_area.h **** /**********************
 102:d:\practise\f407_disc\lvgl\lvgl\src\misc\lv_area.h ****  * GLOBAL PROTOTYPES
 103:d:\practise\f407_disc\lvgl\lvgl\src\misc\lv_area.h ****  **********************/
 104:d:\practise\f407_disc\lvgl\lvgl\src\misc\lv_area.h **** 
 105:d:\practise\f407_disc\lvgl\lvgl\src\misc\lv_area.h **** /**
 106:d:\practise\f407_disc\lvgl\lvgl\src\misc\lv_area.h ****  * Initialize an area
 107:d:\practise\f407_disc\lvgl\lvgl\src\misc\lv_area.h ****  * @param area_p pointer to an area
 108:d:\practise\f407_disc\lvgl\lvgl\src\misc\lv_area.h ****  * @param x1 left coordinate of the area
 109:d:\practise\f407_disc\lvgl\lvgl\src\misc\lv_area.h ****  * @param y1 top coordinate of the area
 110:d:\practise\f407_disc\lvgl\lvgl\src\misc\lv_area.h ****  * @param x2 right coordinate of the area
 111:d:\practise\f407_disc\lvgl\lvgl\src\misc\lv_area.h ****  * @param y2 bottom coordinate of the area
 112:d:\practise\f407_disc\lvgl\lvgl\src\misc\lv_area.h ****  */
 113:d:\practise\f407_disc\lvgl\lvgl\src\misc\lv_area.h **** void lv_area_set(lv_area_t * area_p, lv_coord_t x1, lv_coord_t y1, lv_coord_t x2, lv_coord_t y2);
 114:d:\practise\f407_disc\lvgl\lvgl\src\misc\lv_area.h **** 
 115:d:\practise\f407_disc\lvgl\lvgl\src\misc\lv_area.h **** /**
 116:d:\practise\f407_disc\lvgl\lvgl\src\misc\lv_area.h ****  * Copy an area
 117:d:\practise\f407_disc\lvgl\lvgl\src\misc\lv_area.h ****  * @param dest pointer to the destination area
 118:d:\practise\f407_disc\lvgl\lvgl\src\misc\lv_area.h ****  * @param src pointer to the source area
 119:d:\practise\f407_disc\lvgl\lvgl\src\misc\lv_area.h ****  */
 120:d:\practise\f407_disc\lvgl\lvgl\src\misc\lv_area.h **** inline static void lv_area_copy(lv_area_t * dest, const lv_area_t * src)
 1445              		.loc 4 120 20 view .LVU493
 1446              	.LBB147:
 121:d:\practise\f407_disc\lvgl\lvgl\src\misc\lv_area.h **** {
ARM GAS  C:\Users\gx\AppData\Local\Temp\ccSIsGPa.s 			page 59


 122:d:\practise\f407_disc\lvgl\lvgl\src\misc\lv_area.h ****     dest->x1 = src->x1;
 1447              		.loc 4 122 5 view .LVU494
 1448              		.loc 4 122 19 is_stmt 0 view .LVU495
 1449 01d2 BDF95401 		ldrsh	r0, [sp, #340]
 1450              		.loc 4 122 14 view .LVU496
 1451 01d6 ADF85000 		strh	r0, [sp, #80]	@ movhi
 123:d:\practise\f407_disc\lvgl\lvgl\src\misc\lv_area.h ****     dest->y1 = src->y1;
 1452              		.loc 4 123 5 is_stmt 1 view .LVU497
 1453              		.loc 4 123 19 is_stmt 0 view .LVU498
 1454 01da BDF95691 		ldrsh	r9, [sp, #342]
 1455              		.loc 4 123 14 view .LVU499
 1456 01de ADF85290 		strh	r9, [sp, #82]	@ movhi
 124:d:\practise\f407_disc\lvgl\lvgl\src\misc\lv_area.h ****     dest->x2 = src->x2;
 1457              		.loc 4 124 5 is_stmt 1 view .LVU500
 1458              		.loc 4 124 19 is_stmt 0 view .LVU501
 1459 01e2 BDF958C1 		ldrsh	ip, [sp, #344]
 1460              		.loc 4 124 14 view .LVU502
 1461 01e6 ADF854C0 		strh	ip, [sp, #84]	@ movhi
 125:d:\practise\f407_disc\lvgl\lvgl\src\misc\lv_area.h ****     dest->y2 = src->y2;
 1462              		.loc 4 125 5 is_stmt 1 view .LVU503
 1463              		.loc 4 125 14 is_stmt 0 view .LVU504
 1464 01ea ADF85630 		strh	r3, [sp, #86]	@ movhi
 1465              	.LVL159:
 1466              		.loc 4 125 14 view .LVU505
 1467              	.LBE147:
 1468              	.LBE146:
 687:lvgl/lvgl/src/widgets/lv_table.c ****                 cell_area_border.x1 -= rect_dsc_def.border_width / 2;
 1469              		.loc 1 687 13 is_stmt 1 view .LVU506
 687:lvgl/lvgl/src/widgets/lv_table.c ****                 cell_area_border.x1 -= rect_dsc_def.border_width / 2;
 1470              		.loc 1 687 29 is_stmt 0 view .LVU507
 1471 01ee 9DF837E1 		ldrb	lr, [sp, #311]	@ zero_extendqisi2
 1472 01f2 CEF34402 		ubfx	r2, lr, #1, #5
 687:lvgl/lvgl/src/widgets/lv_table.c ****                 cell_area_border.x1 -= rect_dsc_def.border_width / 2;
 1473              		.loc 1 687 15 view .LVU508
 1474 01f6 1EF0080F 		tst	lr, #8
 1475 01fa 0DD0     		beq	.L49
 687:lvgl/lvgl/src/widgets/lv_table.c ****                 cell_area_border.x1 -= rect_dsc_def.border_width / 2;
 1476              		.loc 1 687 101 discriminator 1 view .LVU509
 1477 01fc B7F914E0 		ldrsh	lr, [r7, #20]
 687:lvgl/lvgl/src/widgets/lv_table.c ****                 cell_area_border.x1 -= rect_dsc_def.border_width / 2;
 1478              		.loc 1 687 105 discriminator 1 view .LVU510
 1479 0200 0D99     		ldr	r1, [sp, #52]
 1480 0202 8E44     		add	lr, lr, r1
 687:lvgl/lvgl/src/widgets/lv_table.c ****                 cell_area_border.x1 -= rect_dsc_def.border_width / 2;
 1481              		.loc 1 687 65 discriminator 1 view .LVU511
 1482 0204 7045     		cmp	r0, lr
 1483 0206 07DD     		ble	.L49
 688:lvgl/lvgl/src/widgets/lv_table.c ****             }
 1484              		.loc 1 688 17 is_stmt 1 view .LVU512
 688:lvgl/lvgl/src/widgets/lv_table.c ****             }
 1485              		.loc 1 688 52 is_stmt 0 view .LVU513
 1486 0208 BDF934E1 		ldrsh	lr, [sp, #308]
 688:lvgl/lvgl/src/widgets/lv_table.c ****             }
 1487              		.loc 1 688 37 view .LVU514
 1488 020c 0EEBDE7E 		add	lr, lr, lr, lsr #31
 1489 0210 A0EB6E00 		sub	r0, r0, lr, asr #1
 1490 0214 ADF85000 		strh	r0, [sp, #80]	@ movhi
ARM GAS  C:\Users\gx\AppData\Local\Temp\ccSIsGPa.s 			page 60


 1491              	.L49:
 690:lvgl/lvgl/src/widgets/lv_table.c ****                 cell_area_border.y1 -= rect_dsc_def.border_width / 2;
 1492              		.loc 1 690 13 is_stmt 1 view .LVU515
 690:lvgl/lvgl/src/widgets/lv_table.c ****                 cell_area_border.y1 -= rect_dsc_def.border_width / 2;
 1493              		.loc 1 690 15 is_stmt 0 view .LVU516
 1494 0218 12F0020F 		tst	r2, #2
 1495 021c 0DD0     		beq	.L50
 690:lvgl/lvgl/src/widgets/lv_table.c ****                 cell_area_border.y1 -= rect_dsc_def.border_width / 2;
 1496              		.loc 1 690 100 discriminator 1 view .LVU517
 1497 021e B7F91600 		ldrsh	r0, [r7, #22]
 690:lvgl/lvgl/src/widgets/lv_table.c ****                 cell_area_border.y1 -= rect_dsc_def.border_width / 2;
 1498              		.loc 1 690 104 discriminator 1 view .LVU518
 1499 0222 0F99     		ldr	r1, [sp, #60]
 1500 0224 0844     		add	r0, r0, r1
 690:lvgl/lvgl/src/widgets/lv_table.c ****                 cell_area_border.y1 -= rect_dsc_def.border_width / 2;
 1501              		.loc 1 690 64 discriminator 1 view .LVU519
 1502 0226 8145     		cmp	r9, r0
 1503 0228 07DD     		ble	.L50
 691:lvgl/lvgl/src/widgets/lv_table.c ****             }
 1504              		.loc 1 691 17 is_stmt 1 view .LVU520
 691:lvgl/lvgl/src/widgets/lv_table.c ****             }
 1505              		.loc 1 691 52 is_stmt 0 view .LVU521
 1506 022a BDF93401 		ldrsh	r0, [sp, #308]
 691:lvgl/lvgl/src/widgets/lv_table.c ****             }
 1507              		.loc 1 691 37 view .LVU522
 1508 022e 00EBD070 		add	r0, r0, r0, lsr #31
 1509 0232 A9EB6001 		sub	r1, r9, r0, asr #1
 1510 0236 ADF85210 		strh	r1, [sp, #82]	@ movhi
 1511              	.L50:
 693:lvgl/lvgl/src/widgets/lv_table.c ****                 cell_area_border.x2 += rect_dsc_def.border_width / 2 + (rect_dsc_def.border_width &
 1512              		.loc 1 693 13 is_stmt 1 view .LVU523
 693:lvgl/lvgl/src/widgets/lv_table.c ****                 cell_area_border.x2 += rect_dsc_def.border_width / 2 + (rect_dsc_def.border_width &
 1513              		.loc 1 693 15 is_stmt 0 view .LVU524
 1514 023a 12F0080F 		tst	r2, #8
 1515 023e 12D0     		beq	.L51
 693:lvgl/lvgl/src/widgets/lv_table.c ****                 cell_area_border.x2 += rect_dsc_def.border_width / 2 + (rect_dsc_def.border_width &
 1516              		.loc 1 693 102 discriminator 1 view .LVU525
 1517 0240 B7F91810 		ldrsh	r1, [r7, #24]
 693:lvgl/lvgl/src/widgets/lv_table.c ****                 cell_area_border.x2 += rect_dsc_def.border_width / 2 + (rect_dsc_def.border_width &
 1518              		.loc 1 693 106 discriminator 1 view .LVU526
 1519 0244 0C98     		ldr	r0, [sp, #48]
 1520 0246 091A     		subs	r1, r1, r0
 693:lvgl/lvgl/src/widgets/lv_table.c ****                 cell_area_border.x2 += rect_dsc_def.border_width / 2 + (rect_dsc_def.border_width &
 1521              		.loc 1 693 117 discriminator 1 view .LVU527
 1522 0248 0139     		subs	r1, r1, #1
 693:lvgl/lvgl/src/widgets/lv_table.c ****                 cell_area_border.x2 += rect_dsc_def.border_width / 2 + (rect_dsc_def.border_width &
 1523              		.loc 1 693 66 discriminator 1 view .LVU528
 1524 024a 8C45     		cmp	ip, r1
 1525 024c 0BDA     		bge	.L51
 694:lvgl/lvgl/src/widgets/lv_table.c ****             }
 1526              		.loc 1 694 17 is_stmt 1 view .LVU529
 694:lvgl/lvgl/src/widgets/lv_table.c ****             }
 1527              		.loc 1 694 52 is_stmt 0 view .LVU530
 1528 024e BDF93401 		ldrsh	r0, [sp, #308]
 694:lvgl/lvgl/src/widgets/lv_table.c ****             }
 1529              		.loc 1 694 99 view .LVU531
 1530 0252 00F00101 		and	r1, r0, #1
ARM GAS  C:\Users\gx\AppData\Local\Temp\ccSIsGPa.s 			page 61


 694:lvgl/lvgl/src/widgets/lv_table.c ****             }
 1531              		.loc 1 694 70 view .LVU532
 1532 0256 00EBD070 		add	r0, r0, r0, lsr #31
 1533 025a 01EB6001 		add	r1, r1, r0, asr #1
 694:lvgl/lvgl/src/widgets/lv_table.c ****             }
 1534              		.loc 1 694 37 view .LVU533
 1535 025e 1CFA81FC 		uxtah	ip, ip, r1
 1536 0262 ADF854C0 		strh	ip, [sp, #84]	@ movhi
 1537              	.L51:
 696:lvgl/lvgl/src/widgets/lv_table.c ****                     cell_area_border.y2 < obj->coords.y2 - bg_bottom - 1) {
 1538              		.loc 1 696 13 is_stmt 1 view .LVU534
 696:lvgl/lvgl/src/widgets/lv_table.c ****                     cell_area_border.y2 < obj->coords.y2 - bg_bottom - 1) {
 1539              		.loc 1 696 15 is_stmt 0 view .LVU535
 1540 0266 12F0010F 		tst	r2, #1
 1541 026a 12D0     		beq	.L52
 697:lvgl/lvgl/src/widgets/lv_table.c ****                 cell_area_border.y2 += rect_dsc_def.border_width / 2 + (rect_dsc_def.border_width &
 1542              		.loc 1 697 54 discriminator 1 view .LVU536
 1543 026c B7F91A20 		ldrsh	r2, [r7, #26]
 697:lvgl/lvgl/src/widgets/lv_table.c ****                 cell_area_border.y2 += rect_dsc_def.border_width / 2 + (rect_dsc_def.border_width &
 1544              		.loc 1 697 58 discriminator 1 view .LVU537
 1545 0270 0E99     		ldr	r1, [sp, #56]
 1546 0272 521A     		subs	r2, r2, r1
 697:lvgl/lvgl/src/widgets/lv_table.c ****                 cell_area_border.y2 += rect_dsc_def.border_width / 2 + (rect_dsc_def.border_width &
 1547              		.loc 1 697 70 discriminator 1 view .LVU538
 1548 0274 013A     		subs	r2, r2, #1
 696:lvgl/lvgl/src/widgets/lv_table.c ****                     cell_area_border.y2 < obj->coords.y2 - bg_bottom - 1) {
 1549              		.loc 1 696 67 discriminator 1 view .LVU539
 1550 0276 9342     		cmp	r3, r2
 1551 0278 0BDA     		bge	.L52
 698:lvgl/lvgl/src/widgets/lv_table.c ****             }
 1552              		.loc 1 698 17 is_stmt 1 view .LVU540
 698:lvgl/lvgl/src/widgets/lv_table.c ****             }
 1553              		.loc 1 698 52 is_stmt 0 view .LVU541
 1554 027a BDF93411 		ldrsh	r1, [sp, #308]
 698:lvgl/lvgl/src/widgets/lv_table.c ****             }
 1555              		.loc 1 698 99 view .LVU542
 1556 027e 01F00102 		and	r2, r1, #1
 698:lvgl/lvgl/src/widgets/lv_table.c ****             }
 1557              		.loc 1 698 70 view .LVU543
 1558 0282 01EBD171 		add	r1, r1, r1, lsr #31
 1559 0286 02EB6102 		add	r2, r2, r1, asr #1
 698:lvgl/lvgl/src/widgets/lv_table.c ****             }
 1560              		.loc 1 698 37 view .LVU544
 1561 028a 13FA82F3 		uxtah	r3, r3, r2
 1562 028e ADF85630 		strh	r3, [sp, #86]	@ movhi
 1563              	.L52:
 701:lvgl/lvgl/src/widgets/lv_table.c ****             if(row == table->row_act && col == table->col_act) {
 1564              		.loc 1 701 13 is_stmt 1 view .LVU545
 1565              	.LVL160:
 702:lvgl/lvgl/src/widgets/lv_table.c ****                 if(!(obj->state & LV_STATE_SCROLLED) && (obj->state & LV_STATE_PRESSED)) cell_state
 1566              		.loc 1 702 13 view .LVU546
 702:lvgl/lvgl/src/widgets/lv_table.c ****                 if(!(obj->state & LV_STATE_SCROLLED) && (obj->state & LV_STATE_PRESSED)) cell_state
 1567              		.loc 1 702 28 is_stmt 0 view .LVU547
 1568 0292 FB8E     		ldrh	r3, [r7, #54]
 702:lvgl/lvgl/src/widgets/lv_table.c ****                 if(!(obj->state & LV_STATE_SCROLLED) && (obj->state & LV_STATE_PRESSED)) cell_state
 1569              		.loc 1 702 15 view .LVU548
 1570 0294 069A     		ldr	r2, [sp, #24]
ARM GAS  C:\Users\gx\AppData\Local\Temp\ccSIsGPa.s 			page 62


 1571 0296 9342     		cmp	r3, r2
 1572 0298 03D1     		bne	.L53
 702:lvgl/lvgl/src/widgets/lv_table.c ****                 if(!(obj->state & LV_STATE_SCROLLED) && (obj->state & LV_STATE_PRESSED)) cell_state
 1573              		.loc 1 702 53 discriminator 1 view .LVU549
 1574 029a BB8E     		ldrh	r3, [r7, #52]
 702:lvgl/lvgl/src/widgets/lv_table.c ****                 if(!(obj->state & LV_STATE_SCROLLED) && (obj->state & LV_STATE_PRESSED)) cell_state
 1575              		.loc 1 702 38 discriminator 1 view .LVU550
 1576 029c AB42     		cmp	r3, r5
 1577 029e 00F0B380 		beq	.L73
 1578              	.LVL161:
 1579              	.L53:
 711:lvgl/lvgl/src/widgets/lv_table.c ****                 lv_memcpy(&label_dsc_act, &label_dsc_def, sizeof(lv_draw_label_dsc_t));
 1580              		.loc 1 711 17 is_stmt 1 view .LVU551
 1581 02a2 3422     		movs	r2, #52
 1582 02a4 46A9     		add	r1, sp, #280
 1583 02a6 39A8     		add	r0, sp, #228
 1584 02a8 FFF7FEFF 		bl	lv_memcpy
 1585              	.LVL162:
 712:lvgl/lvgl/src/widgets/lv_table.c ****             }
 1586              		.loc 1 712 17 view .LVU552
 1587 02ac 2022     		movs	r2, #32
 1588 02ae 31A9     		add	r1, sp, #196
 1589 02b0 29A8     		add	r0, sp, #164
 1590 02b2 FFF7FEFF 		bl	lv_memcpy
 1591              	.LVL163:
 1592              	.L59:
 726:lvgl/lvgl/src/widgets/lv_table.c ****             part_draw_dsc.id = row * table->col_cnt + col;
 1593              		.loc 1 726 13 view .LVU553
 726:lvgl/lvgl/src/widgets/lv_table.c ****             part_draw_dsc.id = row * table->col_cnt + col;
 1594              		.loc 1 726 37 is_stmt 0 view .LVU554
 1595 02b6 0DF15009 		add	r9, sp, #80
 1596 02ba CDF86C90 		str	r9, [sp, #108]
 727:lvgl/lvgl/src/widgets/lv_table.c ****             lv_event_send(obj, LV_EVENT_DRAW_PART_BEGIN, &part_draw_dsc);
 1597              		.loc 1 727 13 is_stmt 1 view .LVU555
 727:lvgl/lvgl/src/widgets/lv_table.c ****             lv_event_send(obj, LV_EVENT_DRAW_PART_BEGIN, &part_draw_dsc);
 1598              		.loc 1 727 43 is_stmt 0 view .LVU556
 1599 02be BB8C     		ldrh	r3, [r7, #36]
 727:lvgl/lvgl/src/widgets/lv_table.c ****             lv_event_send(obj, LV_EVENT_DRAW_PART_BEGIN, &part_draw_dsc);
 1600              		.loc 1 727 53 view .LVU557
 1601 02c0 069A     		ldr	r2, [sp, #24]
 1602 02c2 0599     		ldr	r1, [sp, #20]
 1603 02c4 03FB0213 		mla	r3, r3, r2, r1
 727:lvgl/lvgl/src/widgets/lv_table.c ****             lv_event_send(obj, LV_EVENT_DRAW_PART_BEGIN, &part_draw_dsc);
 1604              		.loc 1 727 30 view .LVU558
 1605 02c8 2593     		str	r3, [sp, #148]
 728:lvgl/lvgl/src/widgets/lv_table.c **** 
 1606              		.loc 1 728 13 is_stmt 1 view .LVU559
 1607 02ca 18AA     		add	r2, sp, #96
 1608 02cc 1A21     		movs	r1, #26
 1609 02ce 3846     		mov	r0, r7
 1610 02d0 FFF7FEFF 		bl	lv_event_send
 1611              	.LVL164:
 730:lvgl/lvgl/src/widgets/lv_table.c **** 
 1612              		.loc 1 730 13 view .LVU560
 1613 02d4 39AA     		add	r2, sp, #228
 1614 02d6 58A9     		add	r1, sp, #352
 1615 02d8 4846     		mov	r0, r9
ARM GAS  C:\Users\gx\AppData\Local\Temp\ccSIsGPa.s 			page 63


 1616 02da FFF7FEFF 		bl	lv_draw_rect
 1617              	.LVL165:
 732:lvgl/lvgl/src/widgets/lv_table.c ****                 txt_area.x1 = cell_area.x1 + cell_left;
 1618              		.loc 1 732 13 view .LVU561
 732:lvgl/lvgl/src/widgets/lv_table.c ****                 txt_area.x1 = cell_area.x1 + cell_left;
 1619              		.loc 1 732 21 is_stmt 0 view .LVU562
 1620 02de B96A     		ldr	r1, [r7, #40]
 732:lvgl/lvgl/src/widgets/lv_table.c ****                 txt_area.x1 = cell_area.x1 + cell_left;
 1621              		.loc 1 732 32 view .LVU563
 1622 02e0 51F80830 		ldr	r3, [r1, r8]
 732:lvgl/lvgl/src/widgets/lv_table.c ****                 txt_area.x1 = cell_area.x1 + cell_left;
 1623              		.loc 1 732 15 view .LVU564
 1624 02e4 002B     		cmp	r3, #0
 1625 02e6 52D0     		beq	.L60
 1626              	.LBB148:
 733:lvgl/lvgl/src/widgets/lv_table.c ****                 txt_area.x2 = cell_area.x2 - cell_right;
 1627              		.loc 1 733 17 is_stmt 1 view .LVU565
 733:lvgl/lvgl/src/widgets/lv_table.c ****                 txt_area.x2 = cell_area.x2 - cell_right;
 1628              		.loc 1 733 40 is_stmt 0 view .LVU566
 1629 02e8 BDF85431 		ldrh	r3, [sp, #340]
 733:lvgl/lvgl/src/widgets/lv_table.c ****                 txt_area.x2 = cell_area.x2 - cell_right;
 1630              		.loc 1 733 44 view .LVU567
 1631 02ec 0A9A     		ldr	r2, [sp, #40]
 1632 02ee 1344     		add	r3, r3, r2
 1633 02f0 98B2     		uxth	r0, r3
 733:lvgl/lvgl/src/widgets/lv_table.c ****                 txt_area.x2 = cell_area.x2 - cell_right;
 1634              		.loc 1 733 29 view .LVU568
 1635 02f2 ADF84C31 		strh	r3, [sp, #332]	@ movhi
 734:lvgl/lvgl/src/widgets/lv_table.c ****                 txt_area.y1 = cell_area.y1 + cell_top;
 1636              		.loc 1 734 17 is_stmt 1 view .LVU569
 734:lvgl/lvgl/src/widgets/lv_table.c ****                 txt_area.y1 = cell_area.y1 + cell_top;
 1637              		.loc 1 734 40 is_stmt 0 view .LVU570
 1638 02f6 BDF85821 		ldrh	r2, [sp, #344]
 734:lvgl/lvgl/src/widgets/lv_table.c ****                 txt_area.y1 = cell_area.y1 + cell_top;
 1639              		.loc 1 734 44 view .LVU571
 1640 02fa 099B     		ldr	r3, [sp, #36]
 1641 02fc D21A     		subs	r2, r2, r3
 1642 02fe 1FFA82FC 		uxth	ip, r2
 734:lvgl/lvgl/src/widgets/lv_table.c ****                 txt_area.y1 = cell_area.y1 + cell_top;
 1643              		.loc 1 734 29 view .LVU572
 1644 0302 ADF85021 		strh	r2, [sp, #336]	@ movhi
 735:lvgl/lvgl/src/widgets/lv_table.c ****                 txt_area.y2 = cell_area.y2 - cell_bottom;
 1645              		.loc 1 735 17 is_stmt 1 view .LVU573
 735:lvgl/lvgl/src/widgets/lv_table.c ****                 txt_area.y2 = cell_area.y2 - cell_bottom;
 1646              		.loc 1 735 40 is_stmt 0 view .LVU574
 1647 0306 BDF85621 		ldrh	r2, [sp, #342]
 735:lvgl/lvgl/src/widgets/lv_table.c ****                 txt_area.y2 = cell_area.y2 - cell_bottom;
 1648              		.loc 1 735 44 view .LVU575
 1649 030a 089B     		ldr	r3, [sp, #32]
 1650 030c 1A44     		add	r2, r2, r3
 735:lvgl/lvgl/src/widgets/lv_table.c ****                 txt_area.y2 = cell_area.y2 - cell_bottom;
 1651              		.loc 1 735 29 view .LVU576
 1652 030e ADF84E21 		strh	r2, [sp, #334]	@ movhi
 736:lvgl/lvgl/src/widgets/lv_table.c **** 
 1653              		.loc 1 736 17 is_stmt 1 view .LVU577
 736:lvgl/lvgl/src/widgets/lv_table.c **** 
 1654              		.loc 1 736 40 is_stmt 0 view .LVU578
ARM GAS  C:\Users\gx\AppData\Local\Temp\ccSIsGPa.s 			page 64


 1655 0312 BDF85A21 		ldrh	r2, [sp, #346]
 736:lvgl/lvgl/src/widgets/lv_table.c **** 
 1656              		.loc 1 736 44 view .LVU579
 1657 0316 079B     		ldr	r3, [sp, #28]
 1658 0318 D21A     		subs	r2, r2, r3
 736:lvgl/lvgl/src/widgets/lv_table.c **** 
 1659              		.loc 1 736 29 view .LVU580
 1660 031a ADF85221 		strh	r2, [sp, #338]	@ movhi
 739:lvgl/lvgl/src/widgets/lv_table.c ****                 if(crop) txt_flags = LV_TEXT_FLAG_EXPAND;
 1661              		.loc 1 739 17 is_stmt 1 view .LVU581
 739:lvgl/lvgl/src/widgets/lv_table.c ****                 if(crop) txt_flags = LV_TEXT_FLAG_EXPAND;
 1662              		.loc 1 739 72 is_stmt 0 view .LVU582
 1663 031e C6F34009 		ubfx	r9, r6, #1, #1
 1664              	.LVL166:
 740:lvgl/lvgl/src/widgets/lv_table.c ****                 else txt_flags = LV_TEXT_FLAG_NONE;
 1665              		.loc 1 740 17 is_stmt 1 view .LVU583
 740:lvgl/lvgl/src/widgets/lv_table.c ****                 else txt_flags = LV_TEXT_FLAG_NONE;
 1666              		.loc 1 740 19 is_stmt 0 view .LVU584
 1667 0322 16F0020F 		tst	r6, #2
 1668 0326 00F0A980 		beq	.L69
 740:lvgl/lvgl/src/widgets/lv_table.c ****                 else txt_flags = LV_TEXT_FLAG_NONE;
 1669              		.loc 1 740 36 view .LVU585
 1670 032a 0222     		movs	r2, #2
 1671              	.L61:
 1672              	.LVL167:
 743:lvgl/lvgl/src/widgets/lv_table.c ****                         label_dsc_act.letter_space, label_dsc_act.line_space,
 1673              		.loc 1 743 17 is_stmt 1 view .LVU586
 743:lvgl/lvgl/src/widgets/lv_table.c ****                         label_dsc_act.letter_space, label_dsc_act.line_space,
 1674              		.loc 1 743 60 is_stmt 0 view .LVU587
 1675 032c 51F80810 		ldr	r1, [r1, r8]
 1676              	.LVL168:
 1677              	.LBB149:
 1678              	.LBI149:
 126:d:\practise\f407_disc\lvgl\lvgl\src\misc\lv_area.h **** }
 127:d:\practise\f407_disc\lvgl\lvgl\src\misc\lv_area.h **** 
 128:d:\practise\f407_disc\lvgl\lvgl\src\misc\lv_area.h **** /**
 129:d:\practise\f407_disc\lvgl\lvgl\src\misc\lv_area.h ****  * Get the width of an area
 130:d:\practise\f407_disc\lvgl\lvgl\src\misc\lv_area.h ****  * @param area_p pointer to an area
 131:d:\practise\f407_disc\lvgl\lvgl\src\misc\lv_area.h ****  * @return the width of the area (if x1 == x2 -> width = 1)
 132:d:\practise\f407_disc\lvgl\lvgl\src\misc\lv_area.h ****  */
 133:d:\practise\f407_disc\lvgl\lvgl\src\misc\lv_area.h **** static inline lv_coord_t lv_area_get_width(const lv_area_t * area_p)
 1679              		.loc 4 133 26 is_stmt 1 view .LVU588
 1680              	.LBB150:
 134:d:\practise\f407_disc\lvgl\lvgl\src\misc\lv_area.h **** {
 135:d:\practise\f407_disc\lvgl\lvgl\src\misc\lv_area.h ****     return (lv_coord_t)(area_p->x2 - area_p->x1 + 1);
 1681              		.loc 4 135 5 view .LVU589
 1682              		.loc 4 135 36 is_stmt 0 view .LVU590
 1683 0330 ACEB0003 		sub	r3, ip, r0
 1684 0334 9BB2     		uxth	r3, r3
 1685              		.loc 4 135 49 view .LVU591
 1686 0336 0133     		adds	r3, r3, #1
 1687              		.loc 4 135 12 view .LVU592
 1688 0338 1BB2     		sxth	r3, r3
 1689              	.LVL169:
 1690              		.loc 4 135 12 view .LVU593
 1691              	.LBE150:
 1692              	.LBE149:
ARM GAS  C:\Users\gx\AppData\Local\Temp\ccSIsGPa.s 			page 65


 743:lvgl/lvgl/src/widgets/lv_table.c ****                         label_dsc_act.letter_space, label_dsc_act.line_space,
 1693              		.loc 1 743 17 view .LVU594
 1694 033a 0292     		str	r2, [sp, #8]
 1695 033c 0193     		str	r3, [sp, #4]
 1696 033e BDF9B630 		ldrsh	r3, [sp, #182]
 1697 0342 0093     		str	r3, [sp]
 1698 0344 BDF9B830 		ldrsh	r3, [sp, #184]
 1699 0348 319A     		ldr	r2, [sp, #196]
 1700              	.LVL170:
 743:lvgl/lvgl/src/widgets/lv_table.c ****                         label_dsc_act.letter_space, label_dsc_act.line_space,
 1701              		.loc 1 743 17 view .LVU595
 1702 034a 0131     		adds	r1, r1, #1
 1703 034c 57A8     		add	r0, sp, #348
 1704 034e FFF7FEFF 		bl	lv_txt_get_size
 1705              	.LVL171:
 748:lvgl/lvgl/src/widgets/lv_table.c ****                     txt_area.y1 = cell_area.y1 + h_row / 2 - txt_size.y / 2;
 1706              		.loc 1 748 17 is_stmt 1 view .LVU596
 748:lvgl/lvgl/src/widgets/lv_table.c ****                     txt_area.y1 = cell_area.y1 + h_row / 2 - txt_size.y / 2;
 1707              		.loc 1 748 19 is_stmt 0 view .LVU597
 1708 0352 B9F1000F 		cmp	r9, #0
 1709 0356 13D1     		bne	.L62
 749:lvgl/lvgl/src/widgets/lv_table.c ****                     txt_area.y2 = cell_area.y1 + h_row / 2 + txt_size.y / 2;
 1710              		.loc 1 749 21 is_stmt 1 view .LVU598
 749:lvgl/lvgl/src/widgets/lv_table.c ****                     txt_area.y2 = cell_area.y1 + h_row / 2 + txt_size.y / 2;
 1711              		.loc 1 749 44 is_stmt 0 view .LVU599
 1712 0358 BDF85631 		ldrh	r3, [sp, #342]
 749:lvgl/lvgl/src/widgets/lv_table.c ****                     txt_area.y2 = cell_area.y1 + h_row / 2 + txt_size.y / 2;
 1713              		.loc 1 749 48 view .LVU600
 1714 035c 0B9A     		ldr	r2, [sp, #44]
 1715 035e 02EBD272 		add	r2, r2, r2, lsr #31
 1716 0362 03EB6203 		add	r3, r3, r2, asr #1
 1717 0366 9BB2     		uxth	r3, r3
 749:lvgl/lvgl/src/widgets/lv_table.c ****                     txt_area.y2 = cell_area.y1 + h_row / 2 + txt_size.y / 2;
 1718              		.loc 1 749 70 view .LVU601
 1719 0368 BDF95E21 		ldrsh	r2, [sp, #350]
 749:lvgl/lvgl/src/widgets/lv_table.c ****                     txt_area.y2 = cell_area.y1 + h_row / 2 + txt_size.y / 2;
 1720              		.loc 1 749 60 view .LVU602
 1721 036c 02EBD272 		add	r2, r2, r2, lsr #31
 1722 0370 C2F34F02 		ubfx	r2, r2, #1, #16
 1723 0374 991A     		subs	r1, r3, r2
 749:lvgl/lvgl/src/widgets/lv_table.c ****                     txt_area.y2 = cell_area.y1 + h_row / 2 + txt_size.y / 2;
 1724              		.loc 1 749 33 view .LVU603
 1725 0376 ADF84E11 		strh	r1, [sp, #334]	@ movhi
 750:lvgl/lvgl/src/widgets/lv_table.c ****                 }
 1726              		.loc 1 750 21 is_stmt 1 view .LVU604
 750:lvgl/lvgl/src/widgets/lv_table.c ****                 }
 1727              		.loc 1 750 60 is_stmt 0 view .LVU605
 1728 037a 1344     		add	r3, r3, r2
 750:lvgl/lvgl/src/widgets/lv_table.c ****                 }
 1729              		.loc 1 750 33 view .LVU606
 1730 037c ADF85231 		strh	r3, [sp, #338]	@ movhi
 1731              	.L62:
 753:lvgl/lvgl/src/widgets/lv_table.c ****                 bool label_mask_ok;
 1732              		.loc 1 753 17 is_stmt 1 view .LVU607
 754:lvgl/lvgl/src/widgets/lv_table.c ****                 label_mask_ok = _lv_area_intersect(&label_mask, &clip_area, &cell_area);
 1733              		.loc 1 754 17 view .LVU608
 755:lvgl/lvgl/src/widgets/lv_table.c ****                 if(label_mask_ok) {
ARM GAS  C:\Users\gx\AppData\Local\Temp\ccSIsGPa.s 			page 66


 1734              		.loc 1 755 17 view .LVU609
 755:lvgl/lvgl/src/widgets/lv_table.c ****                 if(label_mask_ok) {
 1735              		.loc 1 755 33 is_stmt 0 view .LVU610
 1736 0380 55AA     		add	r2, sp, #340
 1737 0382 58A9     		add	r1, sp, #352
 1738 0384 16A8     		add	r0, sp, #88
 1739 0386 FFF7FEFF 		bl	_lv_area_intersect
 1740              	.LVL172:
 756:lvgl/lvgl/src/widgets/lv_table.c ****                     lv_draw_label(&txt_area, &label_mask, &label_dsc_act, table->cell_data[cell] + 
 1741              		.loc 1 756 17 is_stmt 1 view .LVU611
 756:lvgl/lvgl/src/widgets/lv_table.c ****                     lv_draw_label(&txt_area, &label_mask, &label_dsc_act, table->cell_data[cell] + 
 1742              		.loc 1 756 19 is_stmt 0 view .LVU612
 1743 038a 0028     		cmp	r0, #0
 1744 038c 78D1     		bne	.L74
 1745              	.LVL173:
 1746              	.L60:
 756:lvgl/lvgl/src/widgets/lv_table.c ****                     lv_draw_label(&txt_area, &label_mask, &label_dsc_act, table->cell_data[cell] + 
 1747              		.loc 1 756 19 view .LVU613
 1748              	.LBE148:
 761:lvgl/lvgl/src/widgets/lv_table.c **** 
 1749              		.loc 1 761 13 is_stmt 1 discriminator 1 view .LVU614
 1750 038e 18AA     		add	r2, sp, #96
 1751 0390 1B21     		movs	r1, #27
 1752 0392 3846     		mov	r0, r7
 1753 0394 FFF7FEFF 		bl	lv_event_send
 1754              	.LVL174:
 763:lvgl/lvgl/src/widgets/lv_table.c ****             col += col_merge;
 1755              		.loc 1 763 13 discriminator 1 view .LVU615
 763:lvgl/lvgl/src/widgets/lv_table.c ****             col += col_merge;
 1756              		.loc 1 763 18 is_stmt 0 discriminator 1 view .LVU616
 1757 0398 A244     		add	r10, r10, r4
 1758              	.LVL175:
 763:lvgl/lvgl/src/widgets/lv_table.c ****             col += col_merge;
 1759              		.loc 1 763 18 discriminator 1 view .LVU617
 1760 039a 1FFA8AFA 		uxth	r10, r10
 1761 039e 0AF1010A 		add	r10, r10, #1
 1762 03a2 1FFA8AFA 		uxth	r10, r10
 1763              	.LVL176:
 764:lvgl/lvgl/src/widgets/lv_table.c ****         }
 1764              		.loc 1 764 13 is_stmt 1 discriminator 1 view .LVU618
 764:lvgl/lvgl/src/widgets/lv_table.c ****         }
 1765              		.loc 1 764 17 is_stmt 0 discriminator 1 view .LVU619
 1766 03a6 2544     		add	r5, r5, r4
 1767              	.LVL177:
 764:lvgl/lvgl/src/widgets/lv_table.c ****         }
 1768              		.loc 1 764 17 discriminator 1 view .LVU620
 1769 03a8 ADB2     		uxth	r5, r5
 1770              	.LVL178:
 1771              	.L48:
 764:lvgl/lvgl/src/widgets/lv_table.c ****         }
 1772              		.loc 1 764 17 discriminator 1 view .LVU621
 1773              	.LBE143:
 648:lvgl/lvgl/src/widgets/lv_table.c ****             lv_table_cell_ctrl_t ctrl = 0;
 1774              		.loc 1 648 44 is_stmt 1 discriminator 2 view .LVU622
 648:lvgl/lvgl/src/widgets/lv_table.c ****             lv_table_cell_ctrl_t ctrl = 0;
 1775              		.loc 1 648 47 is_stmt 0 discriminator 2 view .LVU623
 1776 03aa 0135     		adds	r5, r5, #1
ARM GAS  C:\Users\gx\AppData\Local\Temp\ccSIsGPa.s 			page 67


 1777              	.LVL179:
 648:lvgl/lvgl/src/widgets/lv_table.c ****             lv_table_cell_ctrl_t ctrl = 0;
 1778              		.loc 1 648 47 discriminator 2 view .LVU624
 1779 03ac ADB2     		uxth	r5, r5
 1780              	.LVL180:
 1781              	.L64:
 648:lvgl/lvgl/src/widgets/lv_table.c ****             lv_table_cell_ctrl_t ctrl = 0;
 1782              		.loc 1 648 22 is_stmt 1 discriminator 1 view .LVU625
 648:lvgl/lvgl/src/widgets/lv_table.c ****             lv_table_cell_ctrl_t ctrl = 0;
 1783              		.loc 1 648 33 is_stmt 0 discriminator 1 view .LVU626
 1784 03ae B98C     		ldrh	r1, [r7, #36]
 648:lvgl/lvgl/src/widgets/lv_table.c ****             lv_table_cell_ctrl_t ctrl = 0;
 1785              		.loc 1 648 9 discriminator 1 view .LVU627
 1786 03b0 A942     		cmp	r1, r5
 1787 03b2 71D9     		bls	.L75
 1788              	.LBB153:
 649:lvgl/lvgl/src/widgets/lv_table.c ****             if(table->cell_data[cell]) ctrl = table->cell_data[cell][0];
 1789              		.loc 1 649 13 is_stmt 1 view .LVU628
 1790              	.LVL181:
 650:lvgl/lvgl/src/widgets/lv_table.c **** 
 1791              		.loc 1 650 13 view .LVU629
 650:lvgl/lvgl/src/widgets/lv_table.c **** 
 1792              		.loc 1 650 21 is_stmt 0 view .LVU630
 1793 03b4 B86A     		ldr	r0, [r7, #40]
 650:lvgl/lvgl/src/widgets/lv_table.c **** 
 1794              		.loc 1 650 32 view .LVU631
 1795 03b6 4FEA8A08 		lsl	r8, r10, #2
 1796 03ba 50F82A30 		ldr	r3, [r0, r10, lsl #2]
 650:lvgl/lvgl/src/widgets/lv_table.c **** 
 1797              		.loc 1 650 15 view .LVU632
 1798 03be 002B     		cmp	r3, #0
 1799 03c0 3FF4C9AE 		beq	.L68
 650:lvgl/lvgl/src/widgets/lv_table.c **** 
 1800              		.loc 1 650 40 is_stmt 1 discriminator 1 view .LVU633
 650:lvgl/lvgl/src/widgets/lv_table.c **** 
 1801              		.loc 1 650 45 is_stmt 0 discriminator 1 view .LVU634
 1802 03c4 1E78     		ldrb	r6, [r3]	@ zero_extendqisi2
 1803              	.LVL182:
 1804              	.L39:
 652:lvgl/lvgl/src/widgets/lv_table.c ****                 cell_area.x2 = cell_area.x1 - 1;
 1805              		.loc 1 652 13 is_stmt 1 view .LVU635
 652:lvgl/lvgl/src/widgets/lv_table.c ****                 cell_area.x2 = cell_area.x1 - 1;
 1806              		.loc 1 652 15 is_stmt 0 view .LVU636
 1807 03c6 BBF1010F 		cmp	fp, #1
 1808 03ca 3FF4C6AE 		beq	.L76
 657:lvgl/lvgl/src/widgets/lv_table.c ****                 cell_area.x2 = cell_area.x1 + table->col_w[col] - 1;
 1809              		.loc 1 657 17 is_stmt 1 view .LVU637
 657:lvgl/lvgl/src/widgets/lv_table.c ****                 cell_area.x2 = cell_area.x1 + table->col_w[col] - 1;
 1810              		.loc 1 657 41 is_stmt 0 view .LVU638
 1811 03ce BDF85831 		ldrh	r3, [sp, #344]
 657:lvgl/lvgl/src/widgets/lv_table.c ****                 cell_area.x2 = cell_area.x1 + table->col_w[col] - 1;
 1812              		.loc 1 657 45 view .LVU639
 1813 03d2 0133     		adds	r3, r3, #1
 657:lvgl/lvgl/src/widgets/lv_table.c ****                 cell_area.x2 = cell_area.x1 + table->col_w[col] - 1;
 1814              		.loc 1 657 30 view .LVU640
 1815 03d4 ADF85431 		strh	r3, [sp, #340]	@ movhi
 658:lvgl/lvgl/src/widgets/lv_table.c ****             }
ARM GAS  C:\Users\gx\AppData\Local\Temp\ccSIsGPa.s 			page 68


 1816              		.loc 1 658 17 is_stmt 1 view .LVU641
 658:lvgl/lvgl/src/widgets/lv_table.c ****             }
 1817              		.loc 1 658 52 is_stmt 0 view .LVU642
 1818 03d8 3A6B     		ldr	r2, [r7, #48]
 658:lvgl/lvgl/src/widgets/lv_table.c ****             }
 1819              		.loc 1 658 59 view .LVU643
 1820 03da 32F81520 		ldrh	r2, [r2, r5, lsl #1]
 658:lvgl/lvgl/src/widgets/lv_table.c ****             }
 1821              		.loc 1 658 45 view .LVU644
 1822 03de 12FA83F3 		uxtah	r3, r2, r3
 1823 03e2 9BB2     		uxth	r3, r3
 658:lvgl/lvgl/src/widgets/lv_table.c ****             }
 1824              		.loc 1 658 65 view .LVU645
 1825 03e4 013B     		subs	r3, r3, #1
 658:lvgl/lvgl/src/widgets/lv_table.c ****             }
 1826              		.loc 1 658 30 view .LVU646
 1827 03e6 ADF85831 		strh	r3, [sp, #344]	@ movhi
 1828              	.L41:
 649:lvgl/lvgl/src/widgets/lv_table.c ****             if(table->cell_data[cell]) ctrl = table->cell_data[cell][0];
 1829              		.loc 1 649 34 discriminator 1 view .LVU647
 1830 03ea 0024     		movs	r4, #0
 1831 03ec CFE6     		b	.L45
 1832              	.LVL183:
 1833              	.L72:
 679:lvgl/lvgl/src/widgets/lv_table.c ****                 col += col_merge;
 1834              		.loc 1 679 17 is_stmt 1 view .LVU648
 679:lvgl/lvgl/src/widgets/lv_table.c ****                 col += col_merge;
 1835              		.loc 1 679 22 is_stmt 0 view .LVU649
 1836 03ee A244     		add	r10, r10, r4
 1837              	.LVL184:
 679:lvgl/lvgl/src/widgets/lv_table.c ****                 col += col_merge;
 1838              		.loc 1 679 22 view .LVU650
 1839 03f0 1FFA8AFA 		uxth	r10, r10
 1840 03f4 0AF1010A 		add	r10, r10, #1
 1841 03f8 1FFA8AFA 		uxth	r10, r10
 1842              	.LVL185:
 680:lvgl/lvgl/src/widgets/lv_table.c ****                 continue;
 1843              		.loc 1 680 17 is_stmt 1 view .LVU651
 680:lvgl/lvgl/src/widgets/lv_table.c ****                 continue;
 1844              		.loc 1 680 21 is_stmt 0 view .LVU652
 1845 03fc 2544     		add	r5, r5, r4
 1846              	.LVL186:
 680:lvgl/lvgl/src/widgets/lv_table.c ****                 continue;
 1847              		.loc 1 680 21 view .LVU653
 1848 03fe ADB2     		uxth	r5, r5
 1849              	.LVL187:
 681:lvgl/lvgl/src/widgets/lv_table.c ****             }
 1850              		.loc 1 681 17 is_stmt 1 view .LVU654
 1851 0400 D3E7     		b	.L48
 1852              	.L79:
 1853 0402 00BF     		.align	2
 1854              	.L78:
 1855 0404 00000000 		.word	.LANCHOR0
 1856              	.LVL188:
 1857              	.L73:
 703:lvgl/lvgl/src/widgets/lv_table.c ****                 if(obj->state & LV_STATE_FOCUSED) cell_state |= LV_STATE_FOCUSED;
 1858              		.loc 1 703 17 view .LVU655
ARM GAS  C:\Users\gx\AppData\Local\Temp\ccSIsGPa.s 			page 69


