ARM GAS  C:\Users\gx\AppData\Local\Temp\ccQfGIQ4.s 			page 1


   1              		.cpu cortex-m4
   2              		.eabi_attribute 27, 1
   3              		.eabi_attribute 28, 1
   4              		.eabi_attribute 20, 1
   5              		.eabi_attribute 21, 1
   6              		.eabi_attribute 23, 3
   7              		.eabi_attribute 24, 1
   8              		.eabi_attribute 25, 1
   9              		.eabi_attribute 26, 1
  10              		.eabi_attribute 30, 1
  11              		.eabi_attribute 34, 1
  12              		.eabi_attribute 18, 4
  13              		.file	"lv_theme_default.c"
  14              		.text
  15              	.Ltext0:
  16              		.cfi_sections	.debug_frame
  17              		.section	.text.theme_apply,"ax",%progbits
  18              		.align	1
  19              		.arch armv7e-m
  20              		.syntax unified
  21              		.thumb
  22              		.thumb_func
  23              		.fpu fpv4-sp-d16
  25              	theme_apply:
  26              	.LVL0:
  27              	.LFB194:
  28              		.file 1 "lvgl/lvgl/src/extra/themes/default/lv_theme_default.c"
   1:lvgl/lvgl/src/extra/themes/default/lv_theme_default.c **** /**
   2:lvgl/lvgl/src/extra/themes/default/lv_theme_default.c ****  * @file lv_theme_defau.c
   3:lvgl/lvgl/src/extra/themes/default/lv_theme_default.c ****  *
   4:lvgl/lvgl/src/extra/themes/default/lv_theme_default.c ****  */
   5:lvgl/lvgl/src/extra/themes/default/lv_theme_default.c **** 
   6:lvgl/lvgl/src/extra/themes/default/lv_theme_default.c **** /*********************
   7:lvgl/lvgl/src/extra/themes/default/lv_theme_default.c ****  *      INCLUDES
   8:lvgl/lvgl/src/extra/themes/default/lv_theme_default.c ****  *********************/
   9:lvgl/lvgl/src/extra/themes/default/lv_theme_default.c **** #include "../../../lvgl.h" /*To see all the widgets*/
  10:lvgl/lvgl/src/extra/themes/default/lv_theme_default.c **** 
  11:lvgl/lvgl/src/extra/themes/default/lv_theme_default.c **** #if LV_USE_THEME_DEFAULT
  12:lvgl/lvgl/src/extra/themes/default/lv_theme_default.c **** 
  13:lvgl/lvgl/src/extra/themes/default/lv_theme_default.c **** #include "lv_theme_default.h"
  14:lvgl/lvgl/src/extra/themes/default/lv_theme_default.c **** #include "../../../misc/lv_gc.h"
  15:lvgl/lvgl/src/extra/themes/default/lv_theme_default.c **** 
  16:lvgl/lvgl/src/extra/themes/default/lv_theme_default.c **** /*********************
  17:lvgl/lvgl/src/extra/themes/default/lv_theme_default.c ****  *      DEFINES
  18:lvgl/lvgl/src/extra/themes/default/lv_theme_default.c ****  *********************/
  19:lvgl/lvgl/src/extra/themes/default/lv_theme_default.c **** #define MODE_DARK 1
  20:lvgl/lvgl/src/extra/themes/default/lv_theme_default.c **** #define RADIUS_DEFAULT (disp_size == DISP_LARGE ? lv_disp_dpx(theme.disp, 12) : lv_disp_dpx(theme.d
  21:lvgl/lvgl/src/extra/themes/default/lv_theme_default.c **** 
  22:lvgl/lvgl/src/extra/themes/default/lv_theme_default.c **** /*SCREEN*/
  23:lvgl/lvgl/src/extra/themes/default/lv_theme_default.c **** #define LIGHT_COLOR_SCR        lv_palette_lighten(LV_PALETTE_GREY, 4)
  24:lvgl/lvgl/src/extra/themes/default/lv_theme_default.c **** #define LIGHT_COLOR_CARD       lv_color_white()
  25:lvgl/lvgl/src/extra/themes/default/lv_theme_default.c **** #define LIGHT_COLOR_TEXT       lv_palette_darken(LV_PALETTE_GREY, 4)
  26:lvgl/lvgl/src/extra/themes/default/lv_theme_default.c **** #define LIGHT_COLOR_GREY       lv_palette_lighten(LV_PALETTE_GREY, 2)
  27:lvgl/lvgl/src/extra/themes/default/lv_theme_default.c **** #define DARK_COLOR_SCR         lv_color_hex(0x15171A)
  28:lvgl/lvgl/src/extra/themes/default/lv_theme_default.c **** #define DARK_COLOR_CARD        lv_color_hex(0x282b30)
  29:lvgl/lvgl/src/extra/themes/default/lv_theme_default.c **** #define DARK_COLOR_TEXT        lv_palette_lighten(LV_PALETTE_GREY, 5)
  30:lvgl/lvgl/src/extra/themes/default/lv_theme_default.c **** #define DARK_COLOR_GREY        lv_color_hex(0x2f3237)
ARM GAS  C:\Users\gx\AppData\Local\Temp\ccQfGIQ4.s 			page 2


  31:lvgl/lvgl/src/extra/themes/default/lv_theme_default.c **** 
  32:lvgl/lvgl/src/extra/themes/default/lv_theme_default.c **** #define TRANSITION_TIME         LV_THEME_DEFAULT_TRANSITON_TIME
  33:lvgl/lvgl/src/extra/themes/default/lv_theme_default.c **** #define BORDER_WIDTH            lv_disp_dpx(theme.disp, 2)
  34:lvgl/lvgl/src/extra/themes/default/lv_theme_default.c **** #define OUTLINE_WIDTH           lv_disp_dpx(theme.disp, 3)
  35:lvgl/lvgl/src/extra/themes/default/lv_theme_default.c **** 
  36:lvgl/lvgl/src/extra/themes/default/lv_theme_default.c **** #define PAD_DEF     (disp_size == DISP_LARGE ? lv_disp_dpx(theme.disp, 24) : disp_size == DISP_MEDI
  37:lvgl/lvgl/src/extra/themes/default/lv_theme_default.c **** #define PAD_SMALL   (disp_size == DISP_LARGE ? lv_disp_dpx(theme.disp, 14) : disp_size == DISP_MEDI
  38:lvgl/lvgl/src/extra/themes/default/lv_theme_default.c **** #define PAD_TINY   (disp_size == DISP_LARGE ? lv_disp_dpx(theme.disp, 8) : disp_size == DISP_MEDIUM
  39:lvgl/lvgl/src/extra/themes/default/lv_theme_default.c **** 
  40:lvgl/lvgl/src/extra/themes/default/lv_theme_default.c **** /**********************
  41:lvgl/lvgl/src/extra/themes/default/lv_theme_default.c ****  *      TYPEDEFS
  42:lvgl/lvgl/src/extra/themes/default/lv_theme_default.c ****  **********************/
  43:lvgl/lvgl/src/extra/themes/default/lv_theme_default.c **** typedef struct {
  44:lvgl/lvgl/src/extra/themes/default/lv_theme_default.c ****     lv_style_t scr;
  45:lvgl/lvgl/src/extra/themes/default/lv_theme_default.c ****     lv_style_t scrollbar;
  46:lvgl/lvgl/src/extra/themes/default/lv_theme_default.c ****     lv_style_t scrollbar_scrolled;
  47:lvgl/lvgl/src/extra/themes/default/lv_theme_default.c ****     lv_style_t card;
  48:lvgl/lvgl/src/extra/themes/default/lv_theme_default.c ****     lv_style_t btn;
  49:lvgl/lvgl/src/extra/themes/default/lv_theme_default.c **** 
  50:lvgl/lvgl/src/extra/themes/default/lv_theme_default.c ****     /*Utility*/
  51:lvgl/lvgl/src/extra/themes/default/lv_theme_default.c ****     lv_style_t bg_color_primary;
  52:lvgl/lvgl/src/extra/themes/default/lv_theme_default.c ****     lv_style_t bg_color_primary_muted;
  53:lvgl/lvgl/src/extra/themes/default/lv_theme_default.c ****     lv_style_t bg_color_secondary;
  54:lvgl/lvgl/src/extra/themes/default/lv_theme_default.c ****     lv_style_t bg_color_secondary_muted;
  55:lvgl/lvgl/src/extra/themes/default/lv_theme_default.c ****     lv_style_t bg_color_grey;
  56:lvgl/lvgl/src/extra/themes/default/lv_theme_default.c ****     lv_style_t bg_color_white;
  57:lvgl/lvgl/src/extra/themes/default/lv_theme_default.c ****     lv_style_t pressed;
  58:lvgl/lvgl/src/extra/themes/default/lv_theme_default.c ****     lv_style_t disabled;
  59:lvgl/lvgl/src/extra/themes/default/lv_theme_default.c ****     lv_style_t pad_zero;
  60:lvgl/lvgl/src/extra/themes/default/lv_theme_default.c ****     lv_style_t pad_tiny;
  61:lvgl/lvgl/src/extra/themes/default/lv_theme_default.c ****     lv_style_t pad_small;
  62:lvgl/lvgl/src/extra/themes/default/lv_theme_default.c ****     lv_style_t pad_normal;
  63:lvgl/lvgl/src/extra/themes/default/lv_theme_default.c ****     lv_style_t pad_gap;
  64:lvgl/lvgl/src/extra/themes/default/lv_theme_default.c ****     lv_style_t line_space_large;
  65:lvgl/lvgl/src/extra/themes/default/lv_theme_default.c ****     lv_style_t text_align_center;
  66:lvgl/lvgl/src/extra/themes/default/lv_theme_default.c ****     lv_style_t outline_primary;
  67:lvgl/lvgl/src/extra/themes/default/lv_theme_default.c ****     lv_style_t outline_secondary;
  68:lvgl/lvgl/src/extra/themes/default/lv_theme_default.c ****     lv_style_t circle;
  69:lvgl/lvgl/src/extra/themes/default/lv_theme_default.c ****     lv_style_t no_radius;
  70:lvgl/lvgl/src/extra/themes/default/lv_theme_default.c ****     lv_style_t clip_corner;
  71:lvgl/lvgl/src/extra/themes/default/lv_theme_default.c **** #if LV_THEME_DEFAULT_GROW
  72:lvgl/lvgl/src/extra/themes/default/lv_theme_default.c ****     lv_style_t grow;
  73:lvgl/lvgl/src/extra/themes/default/lv_theme_default.c **** #endif
  74:lvgl/lvgl/src/extra/themes/default/lv_theme_default.c ****     lv_style_t transition_delayed;
  75:lvgl/lvgl/src/extra/themes/default/lv_theme_default.c ****     lv_style_t transition_normal;
  76:lvgl/lvgl/src/extra/themes/default/lv_theme_default.c ****     lv_style_t anim;
  77:lvgl/lvgl/src/extra/themes/default/lv_theme_default.c **** 
  78:lvgl/lvgl/src/extra/themes/default/lv_theme_default.c ****     /*Parts*/
  79:lvgl/lvgl/src/extra/themes/default/lv_theme_default.c ****     lv_style_t knob;
  80:lvgl/lvgl/src/extra/themes/default/lv_theme_default.c ****     lv_style_t indic;
  81:lvgl/lvgl/src/extra/themes/default/lv_theme_default.c **** 
  82:lvgl/lvgl/src/extra/themes/default/lv_theme_default.c **** #if LV_USE_ARC
  83:lvgl/lvgl/src/extra/themes/default/lv_theme_default.c ****     lv_style_t arc_indic;
  84:lvgl/lvgl/src/extra/themes/default/lv_theme_default.c ****     lv_style_t arc_indic_primary;
  85:lvgl/lvgl/src/extra/themes/default/lv_theme_default.c **** #endif
  86:lvgl/lvgl/src/extra/themes/default/lv_theme_default.c **** 
  87:lvgl/lvgl/src/extra/themes/default/lv_theme_default.c **** #if LV_USE_CHART
ARM GAS  C:\Users\gx\AppData\Local\Temp\ccQfGIQ4.s 			page 3


  88:lvgl/lvgl/src/extra/themes/default/lv_theme_default.c ****     lv_style_t chart_series, chart_indic, chart_ticks, chart_bg;
  89:lvgl/lvgl/src/extra/themes/default/lv_theme_default.c **** #endif
  90:lvgl/lvgl/src/extra/themes/default/lv_theme_default.c **** 
  91:lvgl/lvgl/src/extra/themes/default/lv_theme_default.c **** #if LV_USE_DROPDOWN
  92:lvgl/lvgl/src/extra/themes/default/lv_theme_default.c ****     lv_style_t dropdown_list;
  93:lvgl/lvgl/src/extra/themes/default/lv_theme_default.c **** #endif
  94:lvgl/lvgl/src/extra/themes/default/lv_theme_default.c **** 
  95:lvgl/lvgl/src/extra/themes/default/lv_theme_default.c **** #if LV_USE_CHECKBOX
  96:lvgl/lvgl/src/extra/themes/default/lv_theme_default.c ****     lv_style_t cb_marker, cb_marker_checked;
  97:lvgl/lvgl/src/extra/themes/default/lv_theme_default.c **** #endif
  98:lvgl/lvgl/src/extra/themes/default/lv_theme_default.c **** 
  99:lvgl/lvgl/src/extra/themes/default/lv_theme_default.c **** #if LV_USE_SWITCH
 100:lvgl/lvgl/src/extra/themes/default/lv_theme_default.c ****     lv_style_t switch_knob;
 101:lvgl/lvgl/src/extra/themes/default/lv_theme_default.c **** #endif
 102:lvgl/lvgl/src/extra/themes/default/lv_theme_default.c **** 
 103:lvgl/lvgl/src/extra/themes/default/lv_theme_default.c **** #if LV_USE_LINE
 104:lvgl/lvgl/src/extra/themes/default/lv_theme_default.c ****     lv_style_t line;
 105:lvgl/lvgl/src/extra/themes/default/lv_theme_default.c **** #endif
 106:lvgl/lvgl/src/extra/themes/default/lv_theme_default.c **** 
 107:lvgl/lvgl/src/extra/themes/default/lv_theme_default.c **** #if LV_USE_TABLE
 108:lvgl/lvgl/src/extra/themes/default/lv_theme_default.c ****     lv_style_t table_cell;
 109:lvgl/lvgl/src/extra/themes/default/lv_theme_default.c **** #endif
 110:lvgl/lvgl/src/extra/themes/default/lv_theme_default.c **** 
 111:lvgl/lvgl/src/extra/themes/default/lv_theme_default.c **** #if LV_USE_METER
 112:lvgl/lvgl/src/extra/themes/default/lv_theme_default.c ****     lv_style_t meter_marker, meter_indic;
 113:lvgl/lvgl/src/extra/themes/default/lv_theme_default.c **** #endif
 114:lvgl/lvgl/src/extra/themes/default/lv_theme_default.c **** 
 115:lvgl/lvgl/src/extra/themes/default/lv_theme_default.c **** #if LV_USE_TEXTAREA
 116:lvgl/lvgl/src/extra/themes/default/lv_theme_default.c ****     lv_style_t ta_cursor, ta_placeholder;
 117:lvgl/lvgl/src/extra/themes/default/lv_theme_default.c **** #endif
 118:lvgl/lvgl/src/extra/themes/default/lv_theme_default.c **** 
 119:lvgl/lvgl/src/extra/themes/default/lv_theme_default.c **** #if LV_USE_CALENDAR
 120:lvgl/lvgl/src/extra/themes/default/lv_theme_default.c ****     lv_style_t calendar_bg, calendar_day;
 121:lvgl/lvgl/src/extra/themes/default/lv_theme_default.c **** #endif
 122:lvgl/lvgl/src/extra/themes/default/lv_theme_default.c **** 
 123:lvgl/lvgl/src/extra/themes/default/lv_theme_default.c **** #if LV_USE_COLORWHEEL
 124:lvgl/lvgl/src/extra/themes/default/lv_theme_default.c ****     lv_style_t colorwheel_main;
 125:lvgl/lvgl/src/extra/themes/default/lv_theme_default.c **** #endif
 126:lvgl/lvgl/src/extra/themes/default/lv_theme_default.c **** 
 127:lvgl/lvgl/src/extra/themes/default/lv_theme_default.c **** #if LV_USE_MSGBOX
 128:lvgl/lvgl/src/extra/themes/default/lv_theme_default.c ****     lv_style_t msgbox_bg, msgbox_btn_bg;
 129:lvgl/lvgl/src/extra/themes/default/lv_theme_default.c **** #endif
 130:lvgl/lvgl/src/extra/themes/default/lv_theme_default.c **** 
 131:lvgl/lvgl/src/extra/themes/default/lv_theme_default.c **** #if LV_USE_KEYBOARD
 132:lvgl/lvgl/src/extra/themes/default/lv_theme_default.c ****     lv_style_t keyboard_btn_bg;
 133:lvgl/lvgl/src/extra/themes/default/lv_theme_default.c **** #endif
 134:lvgl/lvgl/src/extra/themes/default/lv_theme_default.c **** 
 135:lvgl/lvgl/src/extra/themes/default/lv_theme_default.c **** #if LV_USE_LIST
 136:lvgl/lvgl/src/extra/themes/default/lv_theme_default.c ****     lv_style_t list_bg, list_btn, list_item_grow, list_label;
 137:lvgl/lvgl/src/extra/themes/default/lv_theme_default.c **** #endif
 138:lvgl/lvgl/src/extra/themes/default/lv_theme_default.c **** 
 139:lvgl/lvgl/src/extra/themes/default/lv_theme_default.c **** #if LV_USE_TABVIEW
 140:lvgl/lvgl/src/extra/themes/default/lv_theme_default.c ****     lv_style_t tab_bg_focus, tab_btn;
 141:lvgl/lvgl/src/extra/themes/default/lv_theme_default.c **** #endif
 142:lvgl/lvgl/src/extra/themes/default/lv_theme_default.c **** #if LV_USE_LED
 143:lvgl/lvgl/src/extra/themes/default/lv_theme_default.c ****     lv_style_t led;
 144:lvgl/lvgl/src/extra/themes/default/lv_theme_default.c **** #endif
ARM GAS  C:\Users\gx\AppData\Local\Temp\ccQfGIQ4.s 			page 4


 145:lvgl/lvgl/src/extra/themes/default/lv_theme_default.c **** } my_theme_styles_t;
 146:lvgl/lvgl/src/extra/themes/default/lv_theme_default.c **** 
 147:lvgl/lvgl/src/extra/themes/default/lv_theme_default.c **** typedef struct {
 148:lvgl/lvgl/src/extra/themes/default/lv_theme_default.c ****     lv_theme_t base;
 149:lvgl/lvgl/src/extra/themes/default/lv_theme_default.c ****     uint8_t light :1;
 150:lvgl/lvgl/src/extra/themes/default/lv_theme_default.c **** }my_theme_t;
 151:lvgl/lvgl/src/extra/themes/default/lv_theme_default.c **** 
 152:lvgl/lvgl/src/extra/themes/default/lv_theme_default.c **** typedef enum {
 153:lvgl/lvgl/src/extra/themes/default/lv_theme_default.c ****     DISP_SMALL = 3,
 154:lvgl/lvgl/src/extra/themes/default/lv_theme_default.c ****     DISP_MEDIUM = 2,
 155:lvgl/lvgl/src/extra/themes/default/lv_theme_default.c ****     DISP_LARGE = 1,
 156:lvgl/lvgl/src/extra/themes/default/lv_theme_default.c **** }disp_size_t;
 157:lvgl/lvgl/src/extra/themes/default/lv_theme_default.c **** 
 158:lvgl/lvgl/src/extra/themes/default/lv_theme_default.c **** /**********************
 159:lvgl/lvgl/src/extra/themes/default/lv_theme_default.c ****  *  STATIC PROTOTYPES
 160:lvgl/lvgl/src/extra/themes/default/lv_theme_default.c ****  **********************/
 161:lvgl/lvgl/src/extra/themes/default/lv_theme_default.c **** static void theme_apply(lv_theme_t * th, lv_obj_t * obj);
 162:lvgl/lvgl/src/extra/themes/default/lv_theme_default.c **** static void style_init_reset(lv_style_t * style);
 163:lvgl/lvgl/src/extra/themes/default/lv_theme_default.c **** 
 164:lvgl/lvgl/src/extra/themes/default/lv_theme_default.c **** /**********************
 165:lvgl/lvgl/src/extra/themes/default/lv_theme_default.c ****  *  STATIC VARIABLES
 166:lvgl/lvgl/src/extra/themes/default/lv_theme_default.c ****  **********************/
 167:lvgl/lvgl/src/extra/themes/default/lv_theme_default.c **** static my_theme_styles_t * styles;
 168:lvgl/lvgl/src/extra/themes/default/lv_theme_default.c **** static lv_theme_t theme;
 169:lvgl/lvgl/src/extra/themes/default/lv_theme_default.c **** static disp_size_t disp_size;
 170:lvgl/lvgl/src/extra/themes/default/lv_theme_default.c **** static bool inited;
 171:lvgl/lvgl/src/extra/themes/default/lv_theme_default.c **** static lv_color_t color_scr;
 172:lvgl/lvgl/src/extra/themes/default/lv_theme_default.c **** static lv_color_t color_text;
 173:lvgl/lvgl/src/extra/themes/default/lv_theme_default.c **** static lv_color_t color_card;
 174:lvgl/lvgl/src/extra/themes/default/lv_theme_default.c **** static lv_color_t color_grey;
 175:lvgl/lvgl/src/extra/themes/default/lv_theme_default.c **** 
 176:lvgl/lvgl/src/extra/themes/default/lv_theme_default.c **** 
 177:lvgl/lvgl/src/extra/themes/default/lv_theme_default.c **** /**********************
 178:lvgl/lvgl/src/extra/themes/default/lv_theme_default.c ****  *      MACROS
 179:lvgl/lvgl/src/extra/themes/default/lv_theme_default.c ****  **********************/
 180:lvgl/lvgl/src/extra/themes/default/lv_theme_default.c **** 
 181:lvgl/lvgl/src/extra/themes/default/lv_theme_default.c **** /**********************
 182:lvgl/lvgl/src/extra/themes/default/lv_theme_default.c ****  *   STATIC FUNCTIONS
 183:lvgl/lvgl/src/extra/themes/default/lv_theme_default.c ****  **********************/
 184:lvgl/lvgl/src/extra/themes/default/lv_theme_default.c **** 
 185:lvgl/lvgl/src/extra/themes/default/lv_theme_default.c **** 
 186:lvgl/lvgl/src/extra/themes/default/lv_theme_default.c **** static lv_color_t dark_color_filter_cb(const lv_color_filter_dsc_t * f, lv_color_t c, lv_opa_t opa)
 187:lvgl/lvgl/src/extra/themes/default/lv_theme_default.c **** {
 188:lvgl/lvgl/src/extra/themes/default/lv_theme_default.c ****     LV_UNUSED(f);
 189:lvgl/lvgl/src/extra/themes/default/lv_theme_default.c ****     return lv_color_darken(c, opa);
 190:lvgl/lvgl/src/extra/themes/default/lv_theme_default.c **** }
 191:lvgl/lvgl/src/extra/themes/default/lv_theme_default.c **** 
 192:lvgl/lvgl/src/extra/themes/default/lv_theme_default.c **** static lv_color_t grey_filter_cb(const lv_color_filter_dsc_t * f, lv_color_t color, lv_opa_t opa)
 193:lvgl/lvgl/src/extra/themes/default/lv_theme_default.c **** {
 194:lvgl/lvgl/src/extra/themes/default/lv_theme_default.c ****     LV_UNUSED(f);
 195:lvgl/lvgl/src/extra/themes/default/lv_theme_default.c ****     if(theme.flags & MODE_DARK) return lv_color_mix(lv_palette_darken(LV_PALETTE_GREY, 2), color, o
 196:lvgl/lvgl/src/extra/themes/default/lv_theme_default.c ****     else return lv_color_mix(lv_palette_lighten(LV_PALETTE_GREY, 2), color, opa);
 197:lvgl/lvgl/src/extra/themes/default/lv_theme_default.c **** }
 198:lvgl/lvgl/src/extra/themes/default/lv_theme_default.c **** 
 199:lvgl/lvgl/src/extra/themes/default/lv_theme_default.c **** static void style_init(void)
 200:lvgl/lvgl/src/extra/themes/default/lv_theme_default.c **** {
 201:lvgl/lvgl/src/extra/themes/default/lv_theme_default.c ****     static const lv_style_prop_t trans_props[] = {
ARM GAS  C:\Users\gx\AppData\Local\Temp\ccQfGIQ4.s 			page 5


 202:lvgl/lvgl/src/extra/themes/default/lv_theme_default.c ****             LV_STYLE_BG_OPA, LV_STYLE_BG_COLOR,
 203:lvgl/lvgl/src/extra/themes/default/lv_theme_default.c ****             LV_STYLE_TRANSFORM_WIDTH, LV_STYLE_TRANSFORM_HEIGHT,
 204:lvgl/lvgl/src/extra/themes/default/lv_theme_default.c ****             LV_STYLE_TRANSLATE_Y, LV_STYLE_TRANSLATE_X,
 205:lvgl/lvgl/src/extra/themes/default/lv_theme_default.c ****             LV_STYLE_TRANSFORM_ZOOM, LV_STYLE_TRANSFORM_ANGLE,
 206:lvgl/lvgl/src/extra/themes/default/lv_theme_default.c ****             LV_STYLE_COLOR_FILTER_OPA, LV_STYLE_COLOR_FILTER_DSC,
 207:lvgl/lvgl/src/extra/themes/default/lv_theme_default.c ****             0
 208:lvgl/lvgl/src/extra/themes/default/lv_theme_default.c ****     };
 209:lvgl/lvgl/src/extra/themes/default/lv_theme_default.c **** 
 210:lvgl/lvgl/src/extra/themes/default/lv_theme_default.c ****     color_scr = theme.flags & MODE_DARK ? DARK_COLOR_SCR : LIGHT_COLOR_SCR;
 211:lvgl/lvgl/src/extra/themes/default/lv_theme_default.c ****     color_text = theme.flags & MODE_DARK ? DARK_COLOR_TEXT : LIGHT_COLOR_TEXT;
 212:lvgl/lvgl/src/extra/themes/default/lv_theme_default.c ****     color_card = theme.flags & MODE_DARK ? DARK_COLOR_CARD : LIGHT_COLOR_CARD;
 213:lvgl/lvgl/src/extra/themes/default/lv_theme_default.c ****     color_grey = theme.flags & MODE_DARK ? DARK_COLOR_GREY : LIGHT_COLOR_GREY;
 214:lvgl/lvgl/src/extra/themes/default/lv_theme_default.c **** 
 215:lvgl/lvgl/src/extra/themes/default/lv_theme_default.c ****     static lv_style_transition_dsc_t trans_delayed;
 216:lvgl/lvgl/src/extra/themes/default/lv_theme_default.c ****     lv_style_transition_dsc_init(&trans_delayed, trans_props, lv_anim_path_linear, TRANSITION_TIME,
 217:lvgl/lvgl/src/extra/themes/default/lv_theme_default.c **** 
 218:lvgl/lvgl/src/extra/themes/default/lv_theme_default.c ****     static lv_style_transition_dsc_t trans_normal;
 219:lvgl/lvgl/src/extra/themes/default/lv_theme_default.c ****     lv_style_transition_dsc_init(&trans_normal, trans_props, lv_anim_path_linear, TRANSITION_TIME, 
 220:lvgl/lvgl/src/extra/themes/default/lv_theme_default.c **** 
 221:lvgl/lvgl/src/extra/themes/default/lv_theme_default.c ****     style_init_reset(&styles->transition_delayed);
 222:lvgl/lvgl/src/extra/themes/default/lv_theme_default.c ****     lv_style_set_transition(&styles->transition_delayed, &trans_delayed); /*Go back to default stat
 223:lvgl/lvgl/src/extra/themes/default/lv_theme_default.c **** 
 224:lvgl/lvgl/src/extra/themes/default/lv_theme_default.c ****     style_init_reset(&styles->transition_normal);
 225:lvgl/lvgl/src/extra/themes/default/lv_theme_default.c ****     lv_style_set_transition(&styles->transition_normal, &trans_normal); /*Go back to default state 
 226:lvgl/lvgl/src/extra/themes/default/lv_theme_default.c **** 
 227:lvgl/lvgl/src/extra/themes/default/lv_theme_default.c ****     style_init_reset(&styles->scrollbar);
 228:lvgl/lvgl/src/extra/themes/default/lv_theme_default.c ****     lv_style_set_bg_color(&styles->scrollbar, (theme.flags & MODE_DARK) ? lv_palette_darken(LV_PALE
 229:lvgl/lvgl/src/extra/themes/default/lv_theme_default.c ****     lv_style_set_radius(&styles->scrollbar, LV_RADIUS_CIRCLE);
 230:lvgl/lvgl/src/extra/themes/default/lv_theme_default.c ****     lv_style_set_pad_right(&styles->scrollbar, lv_disp_dpx(theme.disp, 7));
 231:lvgl/lvgl/src/extra/themes/default/lv_theme_default.c ****     lv_style_set_pad_top(&styles->scrollbar,  lv_disp_dpx(theme.disp, 7));
 232:lvgl/lvgl/src/extra/themes/default/lv_theme_default.c ****     lv_style_set_size(&styles->scrollbar,  lv_disp_dpx(theme.disp, 5));
 233:lvgl/lvgl/src/extra/themes/default/lv_theme_default.c ****     lv_style_set_bg_opa(&styles->scrollbar,  LV_OPA_40);
 234:lvgl/lvgl/src/extra/themes/default/lv_theme_default.c ****     lv_style_set_transition(&styles->scrollbar, &trans_normal);
 235:lvgl/lvgl/src/extra/themes/default/lv_theme_default.c **** 
 236:lvgl/lvgl/src/extra/themes/default/lv_theme_default.c ****     style_init_reset(&styles->scrollbar_scrolled);
 237:lvgl/lvgl/src/extra/themes/default/lv_theme_default.c ****     lv_style_set_bg_opa(&styles->scrollbar_scrolled,  LV_OPA_COVER);
 238:lvgl/lvgl/src/extra/themes/default/lv_theme_default.c **** 
 239:lvgl/lvgl/src/extra/themes/default/lv_theme_default.c ****     style_init_reset(&styles->scr);
 240:lvgl/lvgl/src/extra/themes/default/lv_theme_default.c ****     lv_style_set_bg_opa(&styles->scr, LV_OPA_COVER);
 241:lvgl/lvgl/src/extra/themes/default/lv_theme_default.c ****     lv_style_set_bg_color(&styles->scr, color_scr);
 242:lvgl/lvgl/src/extra/themes/default/lv_theme_default.c ****     lv_style_set_text_color(&styles->scr, color_text);
 243:lvgl/lvgl/src/extra/themes/default/lv_theme_default.c ****     lv_style_set_pad_row(&styles->scr, PAD_SMALL);
 244:lvgl/lvgl/src/extra/themes/default/lv_theme_default.c ****     lv_style_set_pad_column(&styles->scr, PAD_SMALL);
 245:lvgl/lvgl/src/extra/themes/default/lv_theme_default.c **** 
 246:lvgl/lvgl/src/extra/themes/default/lv_theme_default.c ****     style_init_reset(&styles->card);
 247:lvgl/lvgl/src/extra/themes/default/lv_theme_default.c ****     lv_style_set_radius(&styles->card, RADIUS_DEFAULT);
 248:lvgl/lvgl/src/extra/themes/default/lv_theme_default.c ****     lv_style_set_bg_opa(&styles->card, LV_OPA_COVER);
 249:lvgl/lvgl/src/extra/themes/default/lv_theme_default.c ****     lv_style_set_bg_color(&styles->card, color_card);
 250:lvgl/lvgl/src/extra/themes/default/lv_theme_default.c ****     lv_style_set_border_color(&styles->card, color_grey);
 251:lvgl/lvgl/src/extra/themes/default/lv_theme_default.c ****     lv_style_set_border_width(&styles->card, BORDER_WIDTH);
 252:lvgl/lvgl/src/extra/themes/default/lv_theme_default.c ****     lv_style_set_border_post(&styles->card, true);
 253:lvgl/lvgl/src/extra/themes/default/lv_theme_default.c ****     lv_style_set_text_color(&styles->card, color_text);
 254:lvgl/lvgl/src/extra/themes/default/lv_theme_default.c ****     lv_style_set_pad_all(&styles->card, PAD_DEF);
 255:lvgl/lvgl/src/extra/themes/default/lv_theme_default.c ****     lv_style_set_pad_row(&styles->card, PAD_SMALL);
 256:lvgl/lvgl/src/extra/themes/default/lv_theme_default.c ****     lv_style_set_pad_column(&styles->card, PAD_SMALL);
 257:lvgl/lvgl/src/extra/themes/default/lv_theme_default.c ****     lv_style_set_line_color(&styles->card, lv_palette_main(LV_PALETTE_GREY));
 258:lvgl/lvgl/src/extra/themes/default/lv_theme_default.c ****     lv_style_set_line_width(&styles->card, lv_disp_dpx(theme.disp, 1));
ARM GAS  C:\Users\gx\AppData\Local\Temp\ccQfGIQ4.s 			page 6


 259:lvgl/lvgl/src/extra/themes/default/lv_theme_default.c **** 
 260:lvgl/lvgl/src/extra/themes/default/lv_theme_default.c ****     style_init_reset(&styles->outline_primary);
 261:lvgl/lvgl/src/extra/themes/default/lv_theme_default.c ****     lv_style_set_outline_color(&styles->outline_primary, theme.color_primary);
 262:lvgl/lvgl/src/extra/themes/default/lv_theme_default.c ****     lv_style_set_outline_width(&styles->outline_primary, OUTLINE_WIDTH);
 263:lvgl/lvgl/src/extra/themes/default/lv_theme_default.c ****     lv_style_set_outline_pad(&styles->outline_primary, OUTLINE_WIDTH);
 264:lvgl/lvgl/src/extra/themes/default/lv_theme_default.c ****     lv_style_set_outline_opa(&styles->outline_primary, LV_OPA_50);
 265:lvgl/lvgl/src/extra/themes/default/lv_theme_default.c **** 
 266:lvgl/lvgl/src/extra/themes/default/lv_theme_default.c ****     style_init_reset(&styles->outline_secondary);
 267:lvgl/lvgl/src/extra/themes/default/lv_theme_default.c ****     lv_style_set_outline_color(&styles->outline_secondary, theme.color_secondary);
 268:lvgl/lvgl/src/extra/themes/default/lv_theme_default.c ****     lv_style_set_outline_width(&styles->outline_secondary, OUTLINE_WIDTH);
 269:lvgl/lvgl/src/extra/themes/default/lv_theme_default.c ****     lv_style_set_outline_opa(&styles->outline_secondary, LV_OPA_50);
 270:lvgl/lvgl/src/extra/themes/default/lv_theme_default.c **** 
 271:lvgl/lvgl/src/extra/themes/default/lv_theme_default.c ****     style_init_reset(&styles->btn);
 272:lvgl/lvgl/src/extra/themes/default/lv_theme_default.c ****     lv_style_set_radius(&styles->btn, (disp_size == DISP_LARGE ? lv_disp_dpx(theme.disp, 16) : disp
 273:lvgl/lvgl/src/extra/themes/default/lv_theme_default.c ****     lv_style_set_bg_opa(&styles->btn, LV_OPA_COVER);
 274:lvgl/lvgl/src/extra/themes/default/lv_theme_default.c ****     lv_style_set_bg_color(&styles->btn, color_grey);
 275:lvgl/lvgl/src/extra/themes/default/lv_theme_default.c ****     if(!(theme.flags & MODE_DARK)) {
 276:lvgl/lvgl/src/extra/themes/default/lv_theme_default.c ****         lv_style_set_shadow_color(&styles->btn, lv_palette_lighten(LV_PALETTE_GREY, 3));
 277:lvgl/lvgl/src/extra/themes/default/lv_theme_default.c ****         lv_style_set_shadow_width(&styles->btn, 1);
 278:lvgl/lvgl/src/extra/themes/default/lv_theme_default.c ****         lv_style_set_shadow_ofs_y(&styles->btn, lv_disp_dpx(theme.disp, 4));
 279:lvgl/lvgl/src/extra/themes/default/lv_theme_default.c ****     }
 280:lvgl/lvgl/src/extra/themes/default/lv_theme_default.c ****     lv_style_set_text_color(&styles->btn, color_text);
 281:lvgl/lvgl/src/extra/themes/default/lv_theme_default.c ****     lv_style_set_pad_hor(&styles->btn, PAD_DEF);
 282:lvgl/lvgl/src/extra/themes/default/lv_theme_default.c ****     lv_style_set_pad_ver(&styles->btn, PAD_SMALL);
 283:lvgl/lvgl/src/extra/themes/default/lv_theme_default.c ****     lv_style_set_pad_column(&styles->btn, lv_disp_dpx(theme.disp, 5));
 284:lvgl/lvgl/src/extra/themes/default/lv_theme_default.c ****     lv_style_set_pad_row(&styles->btn, lv_disp_dpx(theme.disp, 5));
 285:lvgl/lvgl/src/extra/themes/default/lv_theme_default.c **** 
 286:lvgl/lvgl/src/extra/themes/default/lv_theme_default.c ****     static lv_color_filter_dsc_t dark_filter;
 287:lvgl/lvgl/src/extra/themes/default/lv_theme_default.c ****     lv_color_filter_dsc_init(&dark_filter, dark_color_filter_cb);
 288:lvgl/lvgl/src/extra/themes/default/lv_theme_default.c **** 
 289:lvgl/lvgl/src/extra/themes/default/lv_theme_default.c ****     static lv_color_filter_dsc_t grey_filter;
 290:lvgl/lvgl/src/extra/themes/default/lv_theme_default.c ****     lv_color_filter_dsc_init(&grey_filter, grey_filter_cb);
 291:lvgl/lvgl/src/extra/themes/default/lv_theme_default.c **** 
 292:lvgl/lvgl/src/extra/themes/default/lv_theme_default.c ****     style_init_reset(&styles->pressed);
 293:lvgl/lvgl/src/extra/themes/default/lv_theme_default.c ****     lv_style_set_color_filter_dsc(&styles->pressed, &dark_filter);
 294:lvgl/lvgl/src/extra/themes/default/lv_theme_default.c ****     lv_style_set_color_filter_opa(&styles->pressed, 35);
 295:lvgl/lvgl/src/extra/themes/default/lv_theme_default.c **** 
 296:lvgl/lvgl/src/extra/themes/default/lv_theme_default.c ****     style_init_reset(&styles->disabled);
 297:lvgl/lvgl/src/extra/themes/default/lv_theme_default.c ****     lv_style_set_color_filter_dsc(&styles->disabled, &grey_filter);
 298:lvgl/lvgl/src/extra/themes/default/lv_theme_default.c ****     lv_style_set_color_filter_opa(&styles->disabled, LV_OPA_50);
 299:lvgl/lvgl/src/extra/themes/default/lv_theme_default.c **** 
 300:lvgl/lvgl/src/extra/themes/default/lv_theme_default.c ****     style_init_reset(&styles->clip_corner);
 301:lvgl/lvgl/src/extra/themes/default/lv_theme_default.c ****     lv_style_set_clip_corner(&styles->clip_corner, true);
 302:lvgl/lvgl/src/extra/themes/default/lv_theme_default.c **** 
 303:lvgl/lvgl/src/extra/themes/default/lv_theme_default.c ****     style_init_reset(&styles->pad_normal);
 304:lvgl/lvgl/src/extra/themes/default/lv_theme_default.c ****     lv_style_set_pad_all(&styles->pad_normal, PAD_DEF);
 305:lvgl/lvgl/src/extra/themes/default/lv_theme_default.c ****     lv_style_set_pad_row(&styles->pad_normal, PAD_DEF);
 306:lvgl/lvgl/src/extra/themes/default/lv_theme_default.c ****     lv_style_set_pad_column(&styles->pad_normal, PAD_DEF);
 307:lvgl/lvgl/src/extra/themes/default/lv_theme_default.c **** 
 308:lvgl/lvgl/src/extra/themes/default/lv_theme_default.c ****     style_init_reset(&styles->pad_small);
 309:lvgl/lvgl/src/extra/themes/default/lv_theme_default.c ****     lv_style_set_pad_all(&styles->pad_small, PAD_SMALL);
 310:lvgl/lvgl/src/extra/themes/default/lv_theme_default.c ****     lv_style_set_pad_gap(&styles->pad_small, PAD_SMALL);
 311:lvgl/lvgl/src/extra/themes/default/lv_theme_default.c **** 
 312:lvgl/lvgl/src/extra/themes/default/lv_theme_default.c ****     style_init_reset(&styles->pad_gap);
 313:lvgl/lvgl/src/extra/themes/default/lv_theme_default.c ****     lv_style_set_pad_row(&styles->pad_gap, lv_disp_dpx(theme.disp, 10));
 314:lvgl/lvgl/src/extra/themes/default/lv_theme_default.c ****     lv_style_set_pad_column(&styles->pad_gap, lv_disp_dpx(theme.disp, 10));
 315:lvgl/lvgl/src/extra/themes/default/lv_theme_default.c **** 
ARM GAS  C:\Users\gx\AppData\Local\Temp\ccQfGIQ4.s 			page 7


 316:lvgl/lvgl/src/extra/themes/default/lv_theme_default.c ****     style_init_reset(&styles->line_space_large);
 317:lvgl/lvgl/src/extra/themes/default/lv_theme_default.c ****     lv_style_set_text_line_space(&styles->line_space_large, lv_disp_dpx(theme.disp, 20));
 318:lvgl/lvgl/src/extra/themes/default/lv_theme_default.c **** 
 319:lvgl/lvgl/src/extra/themes/default/lv_theme_default.c ****     style_init_reset(&styles->text_align_center);
 320:lvgl/lvgl/src/extra/themes/default/lv_theme_default.c ****     lv_style_set_text_align(&styles->text_align_center, LV_TEXT_ALIGN_CENTER);
 321:lvgl/lvgl/src/extra/themes/default/lv_theme_default.c **** 
 322:lvgl/lvgl/src/extra/themes/default/lv_theme_default.c ****     style_init_reset(&styles->pad_zero);
 323:lvgl/lvgl/src/extra/themes/default/lv_theme_default.c ****     lv_style_set_pad_all(&styles->pad_zero, 0);
 324:lvgl/lvgl/src/extra/themes/default/lv_theme_default.c ****     lv_style_set_pad_row(&styles->pad_zero, 0);
 325:lvgl/lvgl/src/extra/themes/default/lv_theme_default.c ****     lv_style_set_pad_column(&styles->pad_zero, 0);
 326:lvgl/lvgl/src/extra/themes/default/lv_theme_default.c **** 
 327:lvgl/lvgl/src/extra/themes/default/lv_theme_default.c ****     style_init_reset(&styles->pad_tiny);
 328:lvgl/lvgl/src/extra/themes/default/lv_theme_default.c ****     lv_style_set_pad_all(&styles->pad_tiny, PAD_TINY);
 329:lvgl/lvgl/src/extra/themes/default/lv_theme_default.c ****     lv_style_set_pad_row(&styles->pad_tiny, PAD_TINY);
 330:lvgl/lvgl/src/extra/themes/default/lv_theme_default.c ****     lv_style_set_pad_column(&styles->pad_tiny, PAD_TINY);
 331:lvgl/lvgl/src/extra/themes/default/lv_theme_default.c **** 
 332:lvgl/lvgl/src/extra/themes/default/lv_theme_default.c ****     style_init_reset(&styles->bg_color_primary);
 333:lvgl/lvgl/src/extra/themes/default/lv_theme_default.c ****     lv_style_set_bg_color(&styles->bg_color_primary, theme.color_primary);
 334:lvgl/lvgl/src/extra/themes/default/lv_theme_default.c ****     lv_style_set_text_color(&styles->bg_color_primary, lv_color_white());
 335:lvgl/lvgl/src/extra/themes/default/lv_theme_default.c ****     lv_style_set_bg_opa(&styles->bg_color_primary, LV_OPA_COVER);
 336:lvgl/lvgl/src/extra/themes/default/lv_theme_default.c **** 
 337:lvgl/lvgl/src/extra/themes/default/lv_theme_default.c ****     style_init_reset(&styles->bg_color_primary_muted);
 338:lvgl/lvgl/src/extra/themes/default/lv_theme_default.c ****     lv_style_set_bg_color(&styles->bg_color_primary_muted, theme.color_primary);
 339:lvgl/lvgl/src/extra/themes/default/lv_theme_default.c ****     lv_style_set_text_color(&styles->bg_color_primary_muted, theme.color_primary);
 340:lvgl/lvgl/src/extra/themes/default/lv_theme_default.c ****     lv_style_set_bg_opa(&styles->bg_color_primary_muted, LV_OPA_20);
 341:lvgl/lvgl/src/extra/themes/default/lv_theme_default.c **** 
 342:lvgl/lvgl/src/extra/themes/default/lv_theme_default.c ****     style_init_reset(&styles->bg_color_secondary);
 343:lvgl/lvgl/src/extra/themes/default/lv_theme_default.c ****     lv_style_set_bg_color(&styles->bg_color_secondary, theme.color_secondary);
 344:lvgl/lvgl/src/extra/themes/default/lv_theme_default.c ****     lv_style_set_text_color(&styles->bg_color_secondary, lv_color_white());
 345:lvgl/lvgl/src/extra/themes/default/lv_theme_default.c ****     lv_style_set_bg_opa(&styles->bg_color_secondary, LV_OPA_COVER);
 346:lvgl/lvgl/src/extra/themes/default/lv_theme_default.c **** 
 347:lvgl/lvgl/src/extra/themes/default/lv_theme_default.c ****     style_init_reset(&styles->bg_color_secondary_muted);
 348:lvgl/lvgl/src/extra/themes/default/lv_theme_default.c ****     lv_style_set_bg_color(&styles->bg_color_secondary_muted, theme.color_secondary);
 349:lvgl/lvgl/src/extra/themes/default/lv_theme_default.c ****     lv_style_set_text_color(&styles->bg_color_secondary_muted, theme.color_secondary);
 350:lvgl/lvgl/src/extra/themes/default/lv_theme_default.c ****     lv_style_set_bg_opa(&styles->bg_color_secondary_muted, LV_OPA_20);
 351:lvgl/lvgl/src/extra/themes/default/lv_theme_default.c **** 
 352:lvgl/lvgl/src/extra/themes/default/lv_theme_default.c ****     style_init_reset(&styles->bg_color_grey);
 353:lvgl/lvgl/src/extra/themes/default/lv_theme_default.c ****     lv_style_set_bg_color(&styles->bg_color_grey, color_grey);
 354:lvgl/lvgl/src/extra/themes/default/lv_theme_default.c ****     lv_style_set_bg_opa(&styles->bg_color_grey, LV_OPA_COVER);
 355:lvgl/lvgl/src/extra/themes/default/lv_theme_default.c ****     lv_style_set_text_color(&styles->bg_color_grey, color_text);
 356:lvgl/lvgl/src/extra/themes/default/lv_theme_default.c **** 
 357:lvgl/lvgl/src/extra/themes/default/lv_theme_default.c ****     style_init_reset(&styles->bg_color_white);
 358:lvgl/lvgl/src/extra/themes/default/lv_theme_default.c ****     lv_style_set_bg_color(&styles->bg_color_white, color_card);
 359:lvgl/lvgl/src/extra/themes/default/lv_theme_default.c ****     lv_style_set_bg_opa(&styles->bg_color_white, LV_OPA_COVER);
 360:lvgl/lvgl/src/extra/themes/default/lv_theme_default.c ****     lv_style_set_text_color(&styles->bg_color_white, color_text);
 361:lvgl/lvgl/src/extra/themes/default/lv_theme_default.c **** 
 362:lvgl/lvgl/src/extra/themes/default/lv_theme_default.c ****     style_init_reset(&styles->circle);
 363:lvgl/lvgl/src/extra/themes/default/lv_theme_default.c ****     lv_style_set_radius(&styles->circle, LV_RADIUS_CIRCLE);
 364:lvgl/lvgl/src/extra/themes/default/lv_theme_default.c **** 
 365:lvgl/lvgl/src/extra/themes/default/lv_theme_default.c ****     style_init_reset(&styles->no_radius);
 366:lvgl/lvgl/src/extra/themes/default/lv_theme_default.c ****     lv_style_set_radius(&styles->no_radius, 0);
 367:lvgl/lvgl/src/extra/themes/default/lv_theme_default.c **** 
 368:lvgl/lvgl/src/extra/themes/default/lv_theme_default.c **** #if LV_THEME_DEFAULT_GROW
 369:lvgl/lvgl/src/extra/themes/default/lv_theme_default.c ****     style_init_reset(&styles->grow);
 370:lvgl/lvgl/src/extra/themes/default/lv_theme_default.c ****     lv_style_set_transform_width(&styles->grow, lv_disp_dpx(theme.disp, 3));
 371:lvgl/lvgl/src/extra/themes/default/lv_theme_default.c ****     lv_style_set_transform_height(&styles->grow, lv_disp_dpx(theme.disp, 3));
 372:lvgl/lvgl/src/extra/themes/default/lv_theme_default.c **** #endif
ARM GAS  C:\Users\gx\AppData\Local\Temp\ccQfGIQ4.s 			page 8


 373:lvgl/lvgl/src/extra/themes/default/lv_theme_default.c **** 
 374:lvgl/lvgl/src/extra/themes/default/lv_theme_default.c ****     style_init_reset(&styles->knob);
 375:lvgl/lvgl/src/extra/themes/default/lv_theme_default.c ****     lv_style_set_bg_color(&styles->knob, theme.color_primary);
 376:lvgl/lvgl/src/extra/themes/default/lv_theme_default.c ****     lv_style_set_bg_opa(&styles->knob, LV_OPA_COVER);
 377:lvgl/lvgl/src/extra/themes/default/lv_theme_default.c ****     lv_style_set_pad_all(&styles->knob, lv_disp_dpx(theme.disp, 6));
 378:lvgl/lvgl/src/extra/themes/default/lv_theme_default.c ****     lv_style_set_radius(&styles->knob, LV_RADIUS_CIRCLE);
 379:lvgl/lvgl/src/extra/themes/default/lv_theme_default.c **** 
 380:lvgl/lvgl/src/extra/themes/default/lv_theme_default.c ****     style_init_reset(&styles->anim);
 381:lvgl/lvgl/src/extra/themes/default/lv_theme_default.c ****     lv_style_set_anim_time(&styles->anim, 200);
 382:lvgl/lvgl/src/extra/themes/default/lv_theme_default.c **** 
 383:lvgl/lvgl/src/extra/themes/default/lv_theme_default.c **** #if LV_USE_ARC
 384:lvgl/lvgl/src/extra/themes/default/lv_theme_default.c ****     style_init_reset(&styles->arc_indic);
 385:lvgl/lvgl/src/extra/themes/default/lv_theme_default.c ****     lv_style_set_arc_color(&styles->arc_indic, color_grey);
 386:lvgl/lvgl/src/extra/themes/default/lv_theme_default.c ****     lv_style_set_arc_width(&styles->arc_indic, lv_disp_dpx(theme.disp, 15));
 387:lvgl/lvgl/src/extra/themes/default/lv_theme_default.c ****     lv_style_set_arc_rounded(&styles->arc_indic, true);
 388:lvgl/lvgl/src/extra/themes/default/lv_theme_default.c **** 
 389:lvgl/lvgl/src/extra/themes/default/lv_theme_default.c ****     style_init_reset(&styles->arc_indic_primary);
 390:lvgl/lvgl/src/extra/themes/default/lv_theme_default.c ****     lv_style_set_arc_color(&styles->arc_indic_primary, theme.color_primary);
 391:lvgl/lvgl/src/extra/themes/default/lv_theme_default.c **** #endif
 392:lvgl/lvgl/src/extra/themes/default/lv_theme_default.c **** 
 393:lvgl/lvgl/src/extra/themes/default/lv_theme_default.c **** #if LV_USE_DROPDOWN
 394:lvgl/lvgl/src/extra/themes/default/lv_theme_default.c ****     style_init_reset(&styles->dropdown_list);
 395:lvgl/lvgl/src/extra/themes/default/lv_theme_default.c ****     lv_style_set_max_height(&styles->dropdown_list, LV_DPI_DEF * 2);
 396:lvgl/lvgl/src/extra/themes/default/lv_theme_default.c **** #endif
 397:lvgl/lvgl/src/extra/themes/default/lv_theme_default.c **** #if LV_USE_CHECKBOX
 398:lvgl/lvgl/src/extra/themes/default/lv_theme_default.c ****     style_init_reset(&styles->cb_marker);
 399:lvgl/lvgl/src/extra/themes/default/lv_theme_default.c ****     lv_style_set_pad_all(&styles->cb_marker, lv_disp_dpx(theme.disp, 3));
 400:lvgl/lvgl/src/extra/themes/default/lv_theme_default.c ****     lv_style_set_border_width(&styles->cb_marker, BORDER_WIDTH);
 401:lvgl/lvgl/src/extra/themes/default/lv_theme_default.c ****     lv_style_set_border_color(&styles->cb_marker, theme.color_primary);
 402:lvgl/lvgl/src/extra/themes/default/lv_theme_default.c ****     lv_style_set_bg_color(&styles->cb_marker, color_card);
 403:lvgl/lvgl/src/extra/themes/default/lv_theme_default.c ****     lv_style_set_bg_opa(&styles->cb_marker, LV_OPA_COVER);
 404:lvgl/lvgl/src/extra/themes/default/lv_theme_default.c ****     lv_style_set_radius(&styles->cb_marker, RADIUS_DEFAULT / 2);
 405:lvgl/lvgl/src/extra/themes/default/lv_theme_default.c **** 
 406:lvgl/lvgl/src/extra/themes/default/lv_theme_default.c ****     style_init_reset(&styles->cb_marker_checked);
 407:lvgl/lvgl/src/extra/themes/default/lv_theme_default.c ****     lv_style_set_bg_img_src(&styles->cb_marker_checked, LV_SYMBOL_OK);
 408:lvgl/lvgl/src/extra/themes/default/lv_theme_default.c ****     lv_style_set_text_color(&styles->cb_marker_checked, lv_color_white());
 409:lvgl/lvgl/src/extra/themes/default/lv_theme_default.c ****     lv_style_set_text_font(&styles->cb_marker_checked, theme.font_small);
 410:lvgl/lvgl/src/extra/themes/default/lv_theme_default.c **** #endif
 411:lvgl/lvgl/src/extra/themes/default/lv_theme_default.c **** 
 412:lvgl/lvgl/src/extra/themes/default/lv_theme_default.c **** #if LV_USE_SWITCH
 413:lvgl/lvgl/src/extra/themes/default/lv_theme_default.c ****     style_init_reset(&styles->switch_knob);
 414:lvgl/lvgl/src/extra/themes/default/lv_theme_default.c ****     lv_style_set_pad_all(&styles->switch_knob, - lv_disp_dpx(theme.disp, 4));
 415:lvgl/lvgl/src/extra/themes/default/lv_theme_default.c ****     lv_style_set_bg_color(&styles->switch_knob, lv_color_white());
 416:lvgl/lvgl/src/extra/themes/default/lv_theme_default.c **** #endif
 417:lvgl/lvgl/src/extra/themes/default/lv_theme_default.c **** 
 418:lvgl/lvgl/src/extra/themes/default/lv_theme_default.c **** #if LV_USE_LINE
 419:lvgl/lvgl/src/extra/themes/default/lv_theme_default.c ****     style_init_reset(&styles->line);
 420:lvgl/lvgl/src/extra/themes/default/lv_theme_default.c ****     lv_style_set_line_width(&styles->line, 1);
 421:lvgl/lvgl/src/extra/themes/default/lv_theme_default.c ****     lv_style_set_line_color(&styles->line, color_text);
 422:lvgl/lvgl/src/extra/themes/default/lv_theme_default.c **** #endif
 423:lvgl/lvgl/src/extra/themes/default/lv_theme_default.c **** 
 424:lvgl/lvgl/src/extra/themes/default/lv_theme_default.c **** #if LV_USE_CHART
 425:lvgl/lvgl/src/extra/themes/default/lv_theme_default.c ****     style_init_reset(&styles->chart_bg);
 426:lvgl/lvgl/src/extra/themes/default/lv_theme_default.c ****     lv_style_set_border_post(&styles->chart_bg, false);
 427:lvgl/lvgl/src/extra/themes/default/lv_theme_default.c ****     lv_style_set_pad_column(&styles->chart_bg, lv_disp_dpx(theme.disp, 10));
 428:lvgl/lvgl/src/extra/themes/default/lv_theme_default.c ****     lv_style_set_line_color(&styles->chart_bg, color_grey);
 429:lvgl/lvgl/src/extra/themes/default/lv_theme_default.c **** 
ARM GAS  C:\Users\gx\AppData\Local\Temp\ccQfGIQ4.s 			page 9


 430:lvgl/lvgl/src/extra/themes/default/lv_theme_default.c ****     style_init_reset(&styles->chart_series);
 431:lvgl/lvgl/src/extra/themes/default/lv_theme_default.c ****     lv_style_set_line_width(&styles->chart_series, lv_disp_dpx(theme.disp, 3));
 432:lvgl/lvgl/src/extra/themes/default/lv_theme_default.c ****     lv_style_set_radius(&styles->chart_series, lv_disp_dpx(theme.disp, 3));
 433:lvgl/lvgl/src/extra/themes/default/lv_theme_default.c ****     lv_style_set_size(&styles->chart_series, lv_disp_dpx(theme.disp, 8));
 434:lvgl/lvgl/src/extra/themes/default/lv_theme_default.c ****     lv_style_set_pad_column(&styles->chart_series, lv_disp_dpx(theme.disp, 2));
 435:lvgl/lvgl/src/extra/themes/default/lv_theme_default.c **** 
 436:lvgl/lvgl/src/extra/themes/default/lv_theme_default.c ****     style_init_reset(&styles->chart_indic);
 437:lvgl/lvgl/src/extra/themes/default/lv_theme_default.c ****     lv_style_set_radius(&styles->chart_indic,LV_RADIUS_CIRCLE);
 438:lvgl/lvgl/src/extra/themes/default/lv_theme_default.c ****     lv_style_set_size(&styles->chart_indic, lv_disp_dpx(theme.disp, 8));
 439:lvgl/lvgl/src/extra/themes/default/lv_theme_default.c ****     lv_style_set_bg_color(&styles->chart_indic, theme.color_primary);
 440:lvgl/lvgl/src/extra/themes/default/lv_theme_default.c ****     lv_style_set_bg_opa(&styles->chart_indic, LV_OPA_COVER);
 441:lvgl/lvgl/src/extra/themes/default/lv_theme_default.c **** 
 442:lvgl/lvgl/src/extra/themes/default/lv_theme_default.c ****     style_init_reset(&styles->chart_ticks);
 443:lvgl/lvgl/src/extra/themes/default/lv_theme_default.c ****     lv_style_set_line_width(&styles->chart_ticks, lv_disp_dpx(theme.disp, 1));
 444:lvgl/lvgl/src/extra/themes/default/lv_theme_default.c ****     lv_style_set_line_color(&styles->chart_ticks, color_text);
 445:lvgl/lvgl/src/extra/themes/default/lv_theme_default.c ****     lv_style_set_pad_all(&styles->chart_ticks, lv_disp_dpx(theme.disp, 2));
 446:lvgl/lvgl/src/extra/themes/default/lv_theme_default.c ****     lv_style_set_text_color(&styles->chart_ticks, lv_palette_main(LV_PALETTE_GREY));
 447:lvgl/lvgl/src/extra/themes/default/lv_theme_default.c **** #endif
 448:lvgl/lvgl/src/extra/themes/default/lv_theme_default.c **** 
 449:lvgl/lvgl/src/extra/themes/default/lv_theme_default.c **** #if LV_USE_METER
 450:lvgl/lvgl/src/extra/themes/default/lv_theme_default.c ****     style_init_reset(&styles->meter_marker);
 451:lvgl/lvgl/src/extra/themes/default/lv_theme_default.c ****     lv_style_set_line_width(&styles->meter_marker, lv_disp_dpx(theme.disp, 5));
 452:lvgl/lvgl/src/extra/themes/default/lv_theme_default.c ****     lv_style_set_line_color(&styles->meter_marker, color_text);
 453:lvgl/lvgl/src/extra/themes/default/lv_theme_default.c ****     lv_style_set_size(&styles->meter_marker, lv_disp_dpx(theme.disp, 20));
 454:lvgl/lvgl/src/extra/themes/default/lv_theme_default.c ****     lv_style_set_pad_left(&styles->meter_marker, lv_disp_dpx(theme.disp, 15));
 455:lvgl/lvgl/src/extra/themes/default/lv_theme_default.c **** 
 456:lvgl/lvgl/src/extra/themes/default/lv_theme_default.c ****     style_init_reset(&styles->meter_indic);
 457:lvgl/lvgl/src/extra/themes/default/lv_theme_default.c ****     lv_style_set_radius(&styles->meter_indic, LV_RADIUS_CIRCLE);
 458:lvgl/lvgl/src/extra/themes/default/lv_theme_default.c ****     lv_style_set_bg_color(&styles->meter_indic, color_text);
 459:lvgl/lvgl/src/extra/themes/default/lv_theme_default.c ****     lv_style_set_bg_opa(&styles->meter_indic, LV_OPA_COVER);
 460:lvgl/lvgl/src/extra/themes/default/lv_theme_default.c ****     lv_style_set_size(&styles->meter_indic, lv_disp_dpx(theme.disp, 15));
 461:lvgl/lvgl/src/extra/themes/default/lv_theme_default.c **** #endif
 462:lvgl/lvgl/src/extra/themes/default/lv_theme_default.c **** 
 463:lvgl/lvgl/src/extra/themes/default/lv_theme_default.c **** #if LV_USE_TABLE
 464:lvgl/lvgl/src/extra/themes/default/lv_theme_default.c ****     style_init_reset(&styles->table_cell);
 465:lvgl/lvgl/src/extra/themes/default/lv_theme_default.c ****     lv_style_set_border_width(&styles->table_cell, lv_disp_dpx(theme.disp, 1));
 466:lvgl/lvgl/src/extra/themes/default/lv_theme_default.c ****     lv_style_set_border_color(&styles->table_cell, color_grey);
 467:lvgl/lvgl/src/extra/themes/default/lv_theme_default.c ****     lv_style_set_border_side(&styles->table_cell, LV_BORDER_SIDE_TOP | LV_BORDER_SIDE_BOTTOM );
 468:lvgl/lvgl/src/extra/themes/default/lv_theme_default.c **** #endif
 469:lvgl/lvgl/src/extra/themes/default/lv_theme_default.c **** 
 470:lvgl/lvgl/src/extra/themes/default/lv_theme_default.c **** #if LV_USE_TEXTAREA
 471:lvgl/lvgl/src/extra/themes/default/lv_theme_default.c ****     style_init_reset(&styles->ta_cursor);
 472:lvgl/lvgl/src/extra/themes/default/lv_theme_default.c ****     lv_style_set_border_color(&styles->ta_cursor, color_text);
 473:lvgl/lvgl/src/extra/themes/default/lv_theme_default.c ****     lv_style_set_border_width(&styles->ta_cursor, lv_disp_dpx(theme.disp, 2));
 474:lvgl/lvgl/src/extra/themes/default/lv_theme_default.c ****     lv_style_set_pad_left(&styles->ta_cursor, lv_disp_dpx(theme.disp, 1));
 475:lvgl/lvgl/src/extra/themes/default/lv_theme_default.c ****     lv_style_set_border_side(&styles->ta_cursor, LV_BORDER_SIDE_LEFT);
 476:lvgl/lvgl/src/extra/themes/default/lv_theme_default.c ****     lv_style_set_anim_time(&styles->ta_cursor, 400);
 477:lvgl/lvgl/src/extra/themes/default/lv_theme_default.c **** 
 478:lvgl/lvgl/src/extra/themes/default/lv_theme_default.c ****     style_init_reset(&styles->ta_placeholder);
 479:lvgl/lvgl/src/extra/themes/default/lv_theme_default.c ****     lv_style_set_text_color(&styles->ta_placeholder, (theme.flags & MODE_DARK) ? lv_palette_darken(
 480:lvgl/lvgl/src/extra/themes/default/lv_theme_default.c **** #endif
 481:lvgl/lvgl/src/extra/themes/default/lv_theme_default.c **** 
 482:lvgl/lvgl/src/extra/themes/default/lv_theme_default.c **** #if LV_USE_CALENDAR
 483:lvgl/lvgl/src/extra/themes/default/lv_theme_default.c ****     style_init_reset(&styles->calendar_bg);
 484:lvgl/lvgl/src/extra/themes/default/lv_theme_default.c ****     lv_style_set_pad_all(&styles->calendar_bg, PAD_SMALL);
 485:lvgl/lvgl/src/extra/themes/default/lv_theme_default.c ****     lv_style_set_pad_gap(&styles->calendar_bg, PAD_SMALL / 2);
 486:lvgl/lvgl/src/extra/themes/default/lv_theme_default.c ****     lv_style_set_radius(&styles->calendar_bg, 0);
ARM GAS  C:\Users\gx\AppData\Local\Temp\ccQfGIQ4.s 			page 10


 487:lvgl/lvgl/src/extra/themes/default/lv_theme_default.c **** 
 488:lvgl/lvgl/src/extra/themes/default/lv_theme_default.c ****     style_init_reset(&styles->calendar_day);
 489:lvgl/lvgl/src/extra/themes/default/lv_theme_default.c ****     lv_style_set_border_width(&styles->calendar_day, lv_disp_dpx(theme.disp, 1));
 490:lvgl/lvgl/src/extra/themes/default/lv_theme_default.c ****     lv_style_set_border_color(&styles->calendar_day, color_grey);
 491:lvgl/lvgl/src/extra/themes/default/lv_theme_default.c ****     lv_style_set_bg_color(&styles->calendar_day, color_card);
 492:lvgl/lvgl/src/extra/themes/default/lv_theme_default.c ****     lv_style_set_bg_opa(&styles->calendar_day, LV_OPA_20);
 493:lvgl/lvgl/src/extra/themes/default/lv_theme_default.c **** #endif
 494:lvgl/lvgl/src/extra/themes/default/lv_theme_default.c **** 
 495:lvgl/lvgl/src/extra/themes/default/lv_theme_default.c **** #if LV_USE_COLORWHEEL
 496:lvgl/lvgl/src/extra/themes/default/lv_theme_default.c ****     style_init_reset(&styles->colorwheel_main);
 497:lvgl/lvgl/src/extra/themes/default/lv_theme_default.c ****     lv_style_set_arc_width(&styles->colorwheel_main, lv_disp_dpx(theme.disp, 10));
 498:lvgl/lvgl/src/extra/themes/default/lv_theme_default.c **** #endif
 499:lvgl/lvgl/src/extra/themes/default/lv_theme_default.c **** 
 500:lvgl/lvgl/src/extra/themes/default/lv_theme_default.c **** #if LV_USE_MSGBOX
 501:lvgl/lvgl/src/extra/themes/default/lv_theme_default.c ****     /*To add space for for the button shadow*/
 502:lvgl/lvgl/src/extra/themes/default/lv_theme_default.c ****     style_init_reset(&styles->msgbox_btn_bg);
 503:lvgl/lvgl/src/extra/themes/default/lv_theme_default.c ****     lv_style_set_pad_all(&styles->msgbox_btn_bg, lv_disp_dpx(theme.disp, 4));
 504:lvgl/lvgl/src/extra/themes/default/lv_theme_default.c **** 
 505:lvgl/lvgl/src/extra/themes/default/lv_theme_default.c ****     style_init_reset(&styles->msgbox_bg);
 506:lvgl/lvgl/src/extra/themes/default/lv_theme_default.c ****     lv_style_set_max_width(&styles->msgbox_bg, lv_pct(100));
 507:lvgl/lvgl/src/extra/themes/default/lv_theme_default.c **** #endif
 508:lvgl/lvgl/src/extra/themes/default/lv_theme_default.c **** #if LV_USE_KEYBOARD
 509:lvgl/lvgl/src/extra/themes/default/lv_theme_default.c ****     style_init_reset(&styles->keyboard_btn_bg);
 510:lvgl/lvgl/src/extra/themes/default/lv_theme_default.c ****     lv_style_set_shadow_width(&styles->keyboard_btn_bg, 0);
 511:lvgl/lvgl/src/extra/themes/default/lv_theme_default.c ****     lv_style_set_radius(&styles->keyboard_btn_bg, disp_size == DISP_SMALL ? RADIUS_DEFAULT / 2 : RA
 512:lvgl/lvgl/src/extra/themes/default/lv_theme_default.c **** #endif
 513:lvgl/lvgl/src/extra/themes/default/lv_theme_default.c **** 
 514:lvgl/lvgl/src/extra/themes/default/lv_theme_default.c **** #if LV_USE_TABVIEW
 515:lvgl/lvgl/src/extra/themes/default/lv_theme_default.c ****     style_init_reset(&styles->tab_btn);
 516:lvgl/lvgl/src/extra/themes/default/lv_theme_default.c ****     lv_style_set_border_color(&styles->tab_btn, theme.color_primary);
 517:lvgl/lvgl/src/extra/themes/default/lv_theme_default.c ****     lv_style_set_border_width(&styles->tab_btn, BORDER_WIDTH * 2);
 518:lvgl/lvgl/src/extra/themes/default/lv_theme_default.c ****     lv_style_set_border_side(&styles->tab_btn, LV_BORDER_SIDE_BOTTOM);
 519:lvgl/lvgl/src/extra/themes/default/lv_theme_default.c **** 
 520:lvgl/lvgl/src/extra/themes/default/lv_theme_default.c ****     style_init_reset(&styles->tab_bg_focus);
 521:lvgl/lvgl/src/extra/themes/default/lv_theme_default.c ****     lv_style_set_outline_pad(&styles->tab_bg_focus, -BORDER_WIDTH);
 522:lvgl/lvgl/src/extra/themes/default/lv_theme_default.c **** #endif
 523:lvgl/lvgl/src/extra/themes/default/lv_theme_default.c **** 
 524:lvgl/lvgl/src/extra/themes/default/lv_theme_default.c **** #if LV_USE_LIST
 525:lvgl/lvgl/src/extra/themes/default/lv_theme_default.c ****     style_init_reset(&styles->list_bg);
 526:lvgl/lvgl/src/extra/themes/default/lv_theme_default.c ****     lv_style_set_pad_hor(&styles->list_bg, PAD_DEF);
 527:lvgl/lvgl/src/extra/themes/default/lv_theme_default.c ****     lv_style_set_pad_ver(&styles->list_bg, 0);
 528:lvgl/lvgl/src/extra/themes/default/lv_theme_default.c ****     lv_style_set_pad_gap(&styles->list_bg, 0);
 529:lvgl/lvgl/src/extra/themes/default/lv_theme_default.c ****     lv_style_set_clip_corner(&styles->list_bg, true);
 530:lvgl/lvgl/src/extra/themes/default/lv_theme_default.c **** 
 531:lvgl/lvgl/src/extra/themes/default/lv_theme_default.c ****     style_init_reset(&styles->list_btn);
 532:lvgl/lvgl/src/extra/themes/default/lv_theme_default.c ****     lv_style_set_border_width(&styles->list_btn, lv_disp_dpx(theme.disp, 1));
 533:lvgl/lvgl/src/extra/themes/default/lv_theme_default.c ****     lv_style_set_border_color(&styles->list_btn, color_grey);
 534:lvgl/lvgl/src/extra/themes/default/lv_theme_default.c ****     lv_style_set_border_side(&styles->list_btn, LV_BORDER_SIDE_BOTTOM);
 535:lvgl/lvgl/src/extra/themes/default/lv_theme_default.c ****     lv_style_set_pad_all(&styles->list_btn, PAD_SMALL);
 536:lvgl/lvgl/src/extra/themes/default/lv_theme_default.c ****     lv_style_set_pad_column(&styles->list_btn, PAD_SMALL);
 537:lvgl/lvgl/src/extra/themes/default/lv_theme_default.c **** 
 538:lvgl/lvgl/src/extra/themes/default/lv_theme_default.c ****     style_init_reset(&styles->list_item_grow);
 539:lvgl/lvgl/src/extra/themes/default/lv_theme_default.c ****     lv_style_set_transform_width(&styles->list_item_grow, PAD_DEF);
 540:lvgl/lvgl/src/extra/themes/default/lv_theme_default.c **** #endif
 541:lvgl/lvgl/src/extra/themes/default/lv_theme_default.c **** 
 542:lvgl/lvgl/src/extra/themes/default/lv_theme_default.c **** 
 543:lvgl/lvgl/src/extra/themes/default/lv_theme_default.c **** #if LV_USE_LED
ARM GAS  C:\Users\gx\AppData\Local\Temp\ccQfGIQ4.s 			page 11


 544:lvgl/lvgl/src/extra/themes/default/lv_theme_default.c ****     style_init_reset(&styles->led);
 545:lvgl/lvgl/src/extra/themes/default/lv_theme_default.c ****     lv_style_set_bg_opa(&styles->led, LV_OPA_COVER);
 546:lvgl/lvgl/src/extra/themes/default/lv_theme_default.c ****     lv_style_set_bg_color(&styles->led, lv_color_white());
 547:lvgl/lvgl/src/extra/themes/default/lv_theme_default.c ****     lv_style_set_bg_grad_color(&styles->led, lv_palette_main(LV_PALETTE_GREY));
 548:lvgl/lvgl/src/extra/themes/default/lv_theme_default.c ****     lv_style_set_radius(&styles->led, LV_RADIUS_CIRCLE);
 549:lvgl/lvgl/src/extra/themes/default/lv_theme_default.c ****     lv_style_set_shadow_width(&styles->led, lv_disp_dpx(theme.disp, 15));
 550:lvgl/lvgl/src/extra/themes/default/lv_theme_default.c ****     lv_style_set_shadow_color(&styles->led, lv_color_white());
 551:lvgl/lvgl/src/extra/themes/default/lv_theme_default.c ****     lv_style_set_shadow_spread(&styles->led, lv_disp_dpx(theme.disp, 5));
 552:lvgl/lvgl/src/extra/themes/default/lv_theme_default.c **** #endif
 553:lvgl/lvgl/src/extra/themes/default/lv_theme_default.c **** }
 554:lvgl/lvgl/src/extra/themes/default/lv_theme_default.c **** 
 555:lvgl/lvgl/src/extra/themes/default/lv_theme_default.c **** /**********************
 556:lvgl/lvgl/src/extra/themes/default/lv_theme_default.c ****  *   GLOBAL FUNCTIONS
 557:lvgl/lvgl/src/extra/themes/default/lv_theme_default.c ****  **********************/
 558:lvgl/lvgl/src/extra/themes/default/lv_theme_default.c **** 
 559:lvgl/lvgl/src/extra/themes/default/lv_theme_default.c **** lv_theme_t * lv_theme_default_init(lv_disp_t * disp, lv_color_t color_primary, lv_color_t color_sec
 560:lvgl/lvgl/src/extra/themes/default/lv_theme_default.c **** {
 561:lvgl/lvgl/src/extra/themes/default/lv_theme_default.c **** 
 562:lvgl/lvgl/src/extra/themes/default/lv_theme_default.c ****     /*This trick is required only to avoid the garbage collection of
 563:lvgl/lvgl/src/extra/themes/default/lv_theme_default.c ****      *styles' data if LVGL is used in a binding (e.g. Micropython)
 564:lvgl/lvgl/src/extra/themes/default/lv_theme_default.c ****      *In a general case styles could be in simple `static lv_style_t my_style...` variables*/
 565:lvgl/lvgl/src/extra/themes/default/lv_theme_default.c ****     if(!inited) {
 566:lvgl/lvgl/src/extra/themes/default/lv_theme_default.c ****         LV_GC_ROOT(_lv_theme_default_styles) = lv_mem_alloc(sizeof(my_theme_styles_t));
 567:lvgl/lvgl/src/extra/themes/default/lv_theme_default.c ****         styles = (my_theme_styles_t *)LV_GC_ROOT(_lv_theme_default_styles);
 568:lvgl/lvgl/src/extra/themes/default/lv_theme_default.c ****     }
 569:lvgl/lvgl/src/extra/themes/default/lv_theme_default.c **** 
 570:lvgl/lvgl/src/extra/themes/default/lv_theme_default.c ****     if(LV_HOR_RES <= 320) disp_size = DISP_SMALL;
 571:lvgl/lvgl/src/extra/themes/default/lv_theme_default.c ****     else if(LV_HOR_RES < 720) disp_size = DISP_MEDIUM;
 572:lvgl/lvgl/src/extra/themes/default/lv_theme_default.c ****     else disp_size = DISP_LARGE;
 573:lvgl/lvgl/src/extra/themes/default/lv_theme_default.c **** 
 574:lvgl/lvgl/src/extra/themes/default/lv_theme_default.c ****     theme.disp = disp;
 575:lvgl/lvgl/src/extra/themes/default/lv_theme_default.c ****     theme.color_primary = color_primary;
 576:lvgl/lvgl/src/extra/themes/default/lv_theme_default.c ****     theme.color_secondary = color_secondary;
 577:lvgl/lvgl/src/extra/themes/default/lv_theme_default.c ****     theme.font_small = font;
 578:lvgl/lvgl/src/extra/themes/default/lv_theme_default.c ****     theme.font_normal = font;
 579:lvgl/lvgl/src/extra/themes/default/lv_theme_default.c ****     theme.font_large = font;
 580:lvgl/lvgl/src/extra/themes/default/lv_theme_default.c ****     theme.apply_cb = theme_apply;
 581:lvgl/lvgl/src/extra/themes/default/lv_theme_default.c ****     theme.flags = dark ? MODE_DARK : 0;
 582:lvgl/lvgl/src/extra/themes/default/lv_theme_default.c **** 
 583:lvgl/lvgl/src/extra/themes/default/lv_theme_default.c ****     style_init();
 584:lvgl/lvgl/src/extra/themes/default/lv_theme_default.c **** 
 585:lvgl/lvgl/src/extra/themes/default/lv_theme_default.c ****     inited = true;
 586:lvgl/lvgl/src/extra/themes/default/lv_theme_default.c **** 
 587:lvgl/lvgl/src/extra/themes/default/lv_theme_default.c ****     if(disp == NULL || lv_disp_get_theme(disp) == &theme) lv_obj_report_style_change(NULL);
 588:lvgl/lvgl/src/extra/themes/default/lv_theme_default.c **** 
 589:lvgl/lvgl/src/extra/themes/default/lv_theme_default.c ****     return (lv_theme_t *)&theme;
 590:lvgl/lvgl/src/extra/themes/default/lv_theme_default.c **** }
 591:lvgl/lvgl/src/extra/themes/default/lv_theme_default.c **** 
 592:lvgl/lvgl/src/extra/themes/default/lv_theme_default.c **** bool lv_theme_default_is_inited(void)
 593:lvgl/lvgl/src/extra/themes/default/lv_theme_default.c **** {
 594:lvgl/lvgl/src/extra/themes/default/lv_theme_default.c ****     return inited;
 595:lvgl/lvgl/src/extra/themes/default/lv_theme_default.c **** }
 596:lvgl/lvgl/src/extra/themes/default/lv_theme_default.c **** 
 597:lvgl/lvgl/src/extra/themes/default/lv_theme_default.c **** 
 598:lvgl/lvgl/src/extra/themes/default/lv_theme_default.c **** static void theme_apply(lv_theme_t * th, lv_obj_t * obj)
 599:lvgl/lvgl/src/extra/themes/default/lv_theme_default.c **** {
  29              		.loc 1 599 1 view -0
ARM GAS  C:\Users\gx\AppData\Local\Temp\ccQfGIQ4.s 			page 12


  30              		.cfi_startproc
  31              		@ args = 0, pretend = 0, frame = 0
  32              		@ frame_needed = 0, uses_anonymous_args = 0
  33              		.loc 1 599 1 is_stmt 0 view .LVU1
  34 0000 70B5     		push	{r4, r5, r6, lr}
  35              	.LCFI0:
  36              		.cfi_def_cfa_offset 16
  37              		.cfi_offset 4, -16
  38              		.cfi_offset 5, -12
  39              		.cfi_offset 6, -8
  40              		.cfi_offset 14, -4
  41 0002 0C46     		mov	r4, r1
 600:lvgl/lvgl/src/extra/themes/default/lv_theme_default.c ****     LV_UNUSED(th);
  42              		.loc 1 600 5 is_stmt 1 view .LVU2
 601:lvgl/lvgl/src/extra/themes/default/lv_theme_default.c **** 
 602:lvgl/lvgl/src/extra/themes/default/lv_theme_default.c ****     if(lv_obj_get_parent(obj) == NULL) {
  43              		.loc 1 602 5 view .LVU3
  44              		.loc 1 602 8 is_stmt 0 view .LVU4
  45 0004 0846     		mov	r0, r1
  46              	.LVL1:
  47              		.loc 1 602 8 view .LVU5
  48 0006 FFF7FEFF 		bl	lv_obj_get_parent
  49              	.LVL2:
  50              		.loc 1 602 7 view .LVU6
  51 000a 78B1     		cbz	r0, .L42
 603:lvgl/lvgl/src/extra/themes/default/lv_theme_default.c ****         lv_obj_add_style(obj, &styles->scr, 0);
 604:lvgl/lvgl/src/extra/themes/default/lv_theme_default.c ****         lv_obj_add_style(obj, &styles->scrollbar, LV_PART_SCROLLBAR);
 605:lvgl/lvgl/src/extra/themes/default/lv_theme_default.c ****         lv_obj_add_style(obj, &styles->scrollbar_scrolled, LV_PART_SCROLLBAR | LV_STATE_SCROLLED);
 606:lvgl/lvgl/src/extra/themes/default/lv_theme_default.c ****         return;
 607:lvgl/lvgl/src/extra/themes/default/lv_theme_default.c ****     }
 608:lvgl/lvgl/src/extra/themes/default/lv_theme_default.c **** 
 609:lvgl/lvgl/src/extra/themes/default/lv_theme_default.c ****     if(lv_obj_check_type(obj, &lv_obj_class)) {
  52              		.loc 1 609 5 is_stmt 1 view .LVU7
  53              		.loc 1 609 8 is_stmt 0 view .LVU8
  54 000c AD49     		ldr	r1, .L53
  55 000e 2046     		mov	r0, r4
  56 0010 FFF7FEFF 		bl	lv_obj_check_type
  57              	.LVL3:
  58              		.loc 1 609 7 view .LVU9
  59 0014 0028     		cmp	r0, #0
  60 0016 00F08E80 		beq	.L4
  61              	.LBB80:
 610:lvgl/lvgl/src/extra/themes/default/lv_theme_default.c **** #if LV_USE_TABVIEW
 611:lvgl/lvgl/src/extra/themes/default/lv_theme_default.c ****         lv_obj_t * parent = lv_obj_get_parent(obj);
  62              		.loc 1 611 9 is_stmt 1 view .LVU10
  63              		.loc 1 611 29 is_stmt 0 view .LVU11
  64 001a 2046     		mov	r0, r4
  65 001c FFF7FEFF 		bl	lv_obj_get_parent
  66              	.LVL4:
  67 0020 0546     		mov	r5, r0
  68              	.LVL5:
 612:lvgl/lvgl/src/extra/themes/default/lv_theme_default.c ****         /*Tabview content area*/
 613:lvgl/lvgl/src/extra/themes/default/lv_theme_default.c ****         if(lv_obj_check_type(parent, &lv_tabview_class)) {
  69              		.loc 1 613 9 is_stmt 1 view .LVU12
  70              		.loc 1 613 12 is_stmt 0 view .LVU13
  71 0022 A949     		ldr	r1, .L53+4
  72 0024 FFF7FEFF 		bl	lv_obj_check_type
ARM GAS  C:\Users\gx\AppData\Local\Temp\ccQfGIQ4.s 			page 13


  73              	.LVL6:
  74              		.loc 1 613 11 view .LVU14
  75 0028 A0B1     		cbz	r0, .L43
  76              	.LVL7:
  77              	.L1:
  78              		.loc 1 613 11 view .LVU15
  79              	.LBE80:
 614:lvgl/lvgl/src/extra/themes/default/lv_theme_default.c ****             return;
 615:lvgl/lvgl/src/extra/themes/default/lv_theme_default.c ****         }
 616:lvgl/lvgl/src/extra/themes/default/lv_theme_default.c ****         /*Tabview pages*/
 617:lvgl/lvgl/src/extra/themes/default/lv_theme_default.c ****         else if(lv_obj_check_type(lv_obj_get_parent(parent), &lv_tabview_class)) {
 618:lvgl/lvgl/src/extra/themes/default/lv_theme_default.c ****             lv_obj_add_style(obj, &styles->pad_normal, 0);
 619:lvgl/lvgl/src/extra/themes/default/lv_theme_default.c ****             lv_obj_add_style(obj, &styles->scrollbar, LV_PART_SCROLLBAR);
 620:lvgl/lvgl/src/extra/themes/default/lv_theme_default.c ****             lv_obj_add_style(obj, &styles->scrollbar_scrolled, LV_PART_SCROLLBAR | LV_STATE_SCROLLE
 621:lvgl/lvgl/src/extra/themes/default/lv_theme_default.c ****             return;
 622:lvgl/lvgl/src/extra/themes/default/lv_theme_default.c ****         }
 623:lvgl/lvgl/src/extra/themes/default/lv_theme_default.c **** #endif
 624:lvgl/lvgl/src/extra/themes/default/lv_theme_default.c **** 
 625:lvgl/lvgl/src/extra/themes/default/lv_theme_default.c **** #if LV_USE_WIN
 626:lvgl/lvgl/src/extra/themes/default/lv_theme_default.c ****         /*Header*/
 627:lvgl/lvgl/src/extra/themes/default/lv_theme_default.c ****         if(lv_obj_get_child_id(obj) == 0 && lv_obj_check_type(lv_obj_get_parent(obj), &lv_win_class
 628:lvgl/lvgl/src/extra/themes/default/lv_theme_default.c ****             lv_obj_add_style(obj, &styles->bg_color_grey, 0);
 629:lvgl/lvgl/src/extra/themes/default/lv_theme_default.c ****             lv_obj_add_style(obj, &styles->pad_tiny, 0);
 630:lvgl/lvgl/src/extra/themes/default/lv_theme_default.c ****             return;
 631:lvgl/lvgl/src/extra/themes/default/lv_theme_default.c ****         }
 632:lvgl/lvgl/src/extra/themes/default/lv_theme_default.c ****         /*Content*/
 633:lvgl/lvgl/src/extra/themes/default/lv_theme_default.c ****         else if(lv_obj_get_child_id(obj) == 1 && lv_obj_check_type(lv_obj_get_parent(obj), &lv_win_
 634:lvgl/lvgl/src/extra/themes/default/lv_theme_default.c ****             lv_obj_add_style(obj, &styles->scr, 0);
 635:lvgl/lvgl/src/extra/themes/default/lv_theme_default.c ****             lv_obj_add_style(obj, &styles->pad_normal, 0);
 636:lvgl/lvgl/src/extra/themes/default/lv_theme_default.c ****             lv_obj_add_style(obj, &styles->scrollbar, LV_PART_SCROLLBAR);
 637:lvgl/lvgl/src/extra/themes/default/lv_theme_default.c ****             lv_obj_add_style(obj, &styles->scrollbar_scrolled, LV_PART_SCROLLBAR | LV_STATE_SCROLLE
 638:lvgl/lvgl/src/extra/themes/default/lv_theme_default.c ****             return;
 639:lvgl/lvgl/src/extra/themes/default/lv_theme_default.c ****         }
 640:lvgl/lvgl/src/extra/themes/default/lv_theme_default.c **** #endif
 641:lvgl/lvgl/src/extra/themes/default/lv_theme_default.c ****         lv_obj_add_style(obj, &styles->card, 0);
 642:lvgl/lvgl/src/extra/themes/default/lv_theme_default.c ****         lv_obj_add_style(obj, &styles->scrollbar, LV_PART_SCROLLBAR);
 643:lvgl/lvgl/src/extra/themes/default/lv_theme_default.c ****         lv_obj_add_style(obj, &styles->scrollbar_scrolled, LV_PART_SCROLLBAR | LV_STATE_SCROLLED);
 644:lvgl/lvgl/src/extra/themes/default/lv_theme_default.c ****     }
 645:lvgl/lvgl/src/extra/themes/default/lv_theme_default.c ****     #if LV_USE_BTN
 646:lvgl/lvgl/src/extra/themes/default/lv_theme_default.c ****     else if(lv_obj_check_type(obj, &lv_btn_class)) {
 647:lvgl/lvgl/src/extra/themes/default/lv_theme_default.c ****         lv_obj_add_style(obj, &styles->btn, 0);
 648:lvgl/lvgl/src/extra/themes/default/lv_theme_default.c ****         lv_obj_add_style(obj, &styles->bg_color_primary, 0);
 649:lvgl/lvgl/src/extra/themes/default/lv_theme_default.c ****         lv_obj_add_style(obj, &styles->transition_delayed, 0);
 650:lvgl/lvgl/src/extra/themes/default/lv_theme_default.c ****         lv_obj_add_style(obj, &styles->pressed, LV_STATE_PRESSED);
 651:lvgl/lvgl/src/extra/themes/default/lv_theme_default.c ****         lv_obj_add_style(obj, &styles->transition_normal, LV_STATE_PRESSED);
 652:lvgl/lvgl/src/extra/themes/default/lv_theme_default.c ****         lv_obj_add_style(obj, &styles->outline_primary, LV_STATE_FOCUS_KEY);
 653:lvgl/lvgl/src/extra/themes/default/lv_theme_default.c **** #if LV_THEME_DEFAULT_GROW
 654:lvgl/lvgl/src/extra/themes/default/lv_theme_default.c ****         lv_obj_add_style(obj, &styles->grow, LV_STATE_PRESSED);
 655:lvgl/lvgl/src/extra/themes/default/lv_theme_default.c **** #endif
 656:lvgl/lvgl/src/extra/themes/default/lv_theme_default.c ****         lv_obj_add_style(obj, &styles->bg_color_secondary, LV_STATE_CHECKED);
 657:lvgl/lvgl/src/extra/themes/default/lv_theme_default.c ****         lv_obj_add_style(obj, &styles->disabled, LV_STATE_DISABLED);
 658:lvgl/lvgl/src/extra/themes/default/lv_theme_default.c ****     }
 659:lvgl/lvgl/src/extra/themes/default/lv_theme_default.c **** #endif
 660:lvgl/lvgl/src/extra/themes/default/lv_theme_default.c **** 
 661:lvgl/lvgl/src/extra/themes/default/lv_theme_default.c **** #if LV_USE_LINE
 662:lvgl/lvgl/src/extra/themes/default/lv_theme_default.c ****     else if(lv_obj_check_type(obj, &lv_line_class)) {
 663:lvgl/lvgl/src/extra/themes/default/lv_theme_default.c ****         lv_obj_add_style(obj, &styles->line, 0);
ARM GAS  C:\Users\gx\AppData\Local\Temp\ccQfGIQ4.s 			page 14


 664:lvgl/lvgl/src/extra/themes/default/lv_theme_default.c ****     }
 665:lvgl/lvgl/src/extra/themes/default/lv_theme_default.c **** #endif
 666:lvgl/lvgl/src/extra/themes/default/lv_theme_default.c **** 
 667:lvgl/lvgl/src/extra/themes/default/lv_theme_default.c **** #if LV_USE_BTNMATRIX
 668:lvgl/lvgl/src/extra/themes/default/lv_theme_default.c ****     else if(lv_obj_check_type(obj, &lv_btnmatrix_class)) {
 669:lvgl/lvgl/src/extra/themes/default/lv_theme_default.c **** #if LV_USE_MSGBOX
 670:lvgl/lvgl/src/extra/themes/default/lv_theme_default.c ****         if(lv_obj_check_type(lv_obj_get_parent(obj), &lv_msgbox_class)) {
 671:lvgl/lvgl/src/extra/themes/default/lv_theme_default.c ****             lv_obj_add_style(obj, &styles->msgbox_btn_bg, 0);
 672:lvgl/lvgl/src/extra/themes/default/lv_theme_default.c ****             lv_obj_add_style(obj, &styles->pad_gap, 0);
 673:lvgl/lvgl/src/extra/themes/default/lv_theme_default.c ****             lv_obj_add_style(obj, &styles->btn, LV_PART_ITEMS);
 674:lvgl/lvgl/src/extra/themes/default/lv_theme_default.c ****             lv_obj_add_style(obj, &styles->pressed, LV_PART_ITEMS | LV_STATE_PRESSED);
 675:lvgl/lvgl/src/extra/themes/default/lv_theme_default.c ****             lv_obj_add_style(obj, &styles->disabled, LV_PART_ITEMS | LV_STATE_DISABLED);
 676:lvgl/lvgl/src/extra/themes/default/lv_theme_default.c ****             lv_obj_add_style(obj, &styles->bg_color_primary, LV_PART_ITEMS | LV_STATE_CHECKED);
 677:lvgl/lvgl/src/extra/themes/default/lv_theme_default.c ****             lv_obj_add_style(obj, &styles->bg_color_primary_muted, LV_PART_ITEMS | LV_STATE_FOCUS_K
 678:lvgl/lvgl/src/extra/themes/default/lv_theme_default.c ****             lv_obj_add_style(obj, &styles->bg_color_secondary_muted, LV_PART_ITEMS | LV_STATE_EDITE
 679:lvgl/lvgl/src/extra/themes/default/lv_theme_default.c ****             return;
 680:lvgl/lvgl/src/extra/themes/default/lv_theme_default.c ****         }
 681:lvgl/lvgl/src/extra/themes/default/lv_theme_default.c **** #endif
 682:lvgl/lvgl/src/extra/themes/default/lv_theme_default.c **** #if LV_USE_TABVIEW
 683:lvgl/lvgl/src/extra/themes/default/lv_theme_default.c ****         if(lv_obj_check_type(lv_obj_get_parent(obj), &lv_tabview_class)) {
 684:lvgl/lvgl/src/extra/themes/default/lv_theme_default.c ****             lv_obj_add_style(obj, &styles->bg_color_white, 0);
 685:lvgl/lvgl/src/extra/themes/default/lv_theme_default.c ****             lv_obj_add_style(obj, &styles->outline_primary, LV_STATE_FOCUS_KEY);
 686:lvgl/lvgl/src/extra/themes/default/lv_theme_default.c ****             lv_obj_add_style(obj, &styles->tab_bg_focus, LV_STATE_FOCUS_KEY);
 687:lvgl/lvgl/src/extra/themes/default/lv_theme_default.c ****             lv_obj_add_style(obj, &styles->pressed, LV_PART_ITEMS | LV_STATE_PRESSED);
 688:lvgl/lvgl/src/extra/themes/default/lv_theme_default.c ****             lv_obj_add_style(obj, &styles->bg_color_primary_muted, LV_PART_ITEMS | LV_STATE_CHECKED
 689:lvgl/lvgl/src/extra/themes/default/lv_theme_default.c ****             lv_obj_add_style(obj, &styles->tab_btn, LV_PART_ITEMS | LV_STATE_CHECKED);
 690:lvgl/lvgl/src/extra/themes/default/lv_theme_default.c ****             lv_obj_add_style(obj, &styles->outline_primary, LV_PART_ITEMS | LV_STATE_FOCUS_KEY);
 691:lvgl/lvgl/src/extra/themes/default/lv_theme_default.c ****             lv_obj_add_style(obj, &styles->outline_secondary, LV_PART_ITEMS | LV_STATE_EDITED);
 692:lvgl/lvgl/src/extra/themes/default/lv_theme_default.c ****             lv_obj_add_style(obj, &styles->tab_bg_focus, LV_PART_ITEMS | LV_STATE_FOCUS_KEY);
 693:lvgl/lvgl/src/extra/themes/default/lv_theme_default.c ****             return;
 694:lvgl/lvgl/src/extra/themes/default/lv_theme_default.c ****         }
 695:lvgl/lvgl/src/extra/themes/default/lv_theme_default.c **** #endif
 696:lvgl/lvgl/src/extra/themes/default/lv_theme_default.c ****         lv_obj_add_style(obj, &styles->card, 0);
 697:lvgl/lvgl/src/extra/themes/default/lv_theme_default.c ****         lv_obj_add_style(obj, &styles->outline_primary, LV_STATE_FOCUS_KEY);
 698:lvgl/lvgl/src/extra/themes/default/lv_theme_default.c ****         lv_obj_add_style(obj, &styles->outline_secondary, LV_STATE_EDITED);
 699:lvgl/lvgl/src/extra/themes/default/lv_theme_default.c ****         lv_obj_add_style(obj, &styles->btn, LV_PART_ITEMS);
 700:lvgl/lvgl/src/extra/themes/default/lv_theme_default.c ****         lv_obj_add_style(obj, &styles->disabled, LV_PART_ITEMS | LV_STATE_DISABLED);
 701:lvgl/lvgl/src/extra/themes/default/lv_theme_default.c ****         lv_obj_add_style(obj, &styles->pressed, LV_PART_ITEMS | LV_STATE_PRESSED);
 702:lvgl/lvgl/src/extra/themes/default/lv_theme_default.c ****         lv_obj_add_style(obj, &styles->bg_color_primary, LV_PART_ITEMS | LV_STATE_CHECKED);
 703:lvgl/lvgl/src/extra/themes/default/lv_theme_default.c ****         lv_obj_add_style(obj, &styles->outline_primary, LV_PART_ITEMS | LV_STATE_FOCUS_KEY);
 704:lvgl/lvgl/src/extra/themes/default/lv_theme_default.c ****         lv_obj_add_style(obj, &styles->outline_secondary, LV_PART_ITEMS | LV_STATE_EDITED);
 705:lvgl/lvgl/src/extra/themes/default/lv_theme_default.c ****     }
 706:lvgl/lvgl/src/extra/themes/default/lv_theme_default.c **** #endif
 707:lvgl/lvgl/src/extra/themes/default/lv_theme_default.c **** 
 708:lvgl/lvgl/src/extra/themes/default/lv_theme_default.c **** #if LV_USE_BAR
 709:lvgl/lvgl/src/extra/themes/default/lv_theme_default.c ****     else if(lv_obj_check_type(obj, &lv_bar_class)) {
 710:lvgl/lvgl/src/extra/themes/default/lv_theme_default.c ****         lv_obj_add_style(obj, &styles->bg_color_primary_muted, 0);
 711:lvgl/lvgl/src/extra/themes/default/lv_theme_default.c ****         lv_obj_add_style(obj, &styles->circle, 0);
 712:lvgl/lvgl/src/extra/themes/default/lv_theme_default.c ****         lv_obj_add_style(obj, &styles->outline_primary, LV_STATE_FOCUS_KEY);
 713:lvgl/lvgl/src/extra/themes/default/lv_theme_default.c ****         lv_obj_add_style(obj, &styles->outline_secondary, LV_STATE_EDITED);
 714:lvgl/lvgl/src/extra/themes/default/lv_theme_default.c ****         lv_obj_add_style(obj, &styles->bg_color_primary, LV_PART_INDICATOR);
 715:lvgl/lvgl/src/extra/themes/default/lv_theme_default.c ****         lv_obj_add_style(obj, &styles->circle, LV_PART_INDICATOR);
 716:lvgl/lvgl/src/extra/themes/default/lv_theme_default.c ****     }
 717:lvgl/lvgl/src/extra/themes/default/lv_theme_default.c **** #endif
 718:lvgl/lvgl/src/extra/themes/default/lv_theme_default.c **** 
 719:lvgl/lvgl/src/extra/themes/default/lv_theme_default.c **** #if LV_USE_SLIDER
 720:lvgl/lvgl/src/extra/themes/default/lv_theme_default.c ****     else if(lv_obj_check_type(obj, &lv_slider_class)) {
ARM GAS  C:\Users\gx\AppData\Local\Temp\ccQfGIQ4.s 			page 15


 721:lvgl/lvgl/src/extra/themes/default/lv_theme_default.c ****         lv_obj_add_style(obj, &styles->bg_color_primary_muted, 0);
 722:lvgl/lvgl/src/extra/themes/default/lv_theme_default.c ****         lv_obj_add_style(obj, &styles->circle, 0);
 723:lvgl/lvgl/src/extra/themes/default/lv_theme_default.c ****         lv_obj_add_style(obj, &styles->outline_primary, LV_STATE_FOCUS_KEY);
 724:lvgl/lvgl/src/extra/themes/default/lv_theme_default.c ****         lv_obj_add_style(obj, &styles->outline_secondary, LV_STATE_EDITED);
 725:lvgl/lvgl/src/extra/themes/default/lv_theme_default.c ****         lv_obj_add_style(obj, &styles->bg_color_primary, LV_PART_INDICATOR);
 726:lvgl/lvgl/src/extra/themes/default/lv_theme_default.c ****         lv_obj_add_style(obj, &styles->circle, LV_PART_INDICATOR);
 727:lvgl/lvgl/src/extra/themes/default/lv_theme_default.c ****         lv_obj_add_style(obj, &styles->knob, LV_PART_KNOB);
 728:lvgl/lvgl/src/extra/themes/default/lv_theme_default.c **** #if LV_THEME_DEFAULT_GROW
 729:lvgl/lvgl/src/extra/themes/default/lv_theme_default.c ****         lv_obj_add_style(obj, &styles->grow, LV_PART_KNOB | LV_STATE_PRESSED);
 730:lvgl/lvgl/src/extra/themes/default/lv_theme_default.c **** #endif
 731:lvgl/lvgl/src/extra/themes/default/lv_theme_default.c ****         lv_obj_add_style(obj, &styles->transition_delayed, LV_PART_KNOB);
 732:lvgl/lvgl/src/extra/themes/default/lv_theme_default.c ****         lv_obj_add_style(obj, &styles->transition_normal, LV_PART_KNOB | LV_STATE_PRESSED);
 733:lvgl/lvgl/src/extra/themes/default/lv_theme_default.c ****     }
 734:lvgl/lvgl/src/extra/themes/default/lv_theme_default.c **** #endif
 735:lvgl/lvgl/src/extra/themes/default/lv_theme_default.c **** 
 736:lvgl/lvgl/src/extra/themes/default/lv_theme_default.c **** #if LV_USE_TABLE
 737:lvgl/lvgl/src/extra/themes/default/lv_theme_default.c ****     else if(lv_obj_check_type(obj, &lv_table_class)) {
 738:lvgl/lvgl/src/extra/themes/default/lv_theme_default.c ****         lv_obj_add_style(obj, &styles->card, 0);
 739:lvgl/lvgl/src/extra/themes/default/lv_theme_default.c ****         lv_obj_add_style(obj, &styles->pad_zero, 0);
 740:lvgl/lvgl/src/extra/themes/default/lv_theme_default.c ****         lv_obj_add_style(obj, &styles->no_radius, 0);
 741:lvgl/lvgl/src/extra/themes/default/lv_theme_default.c ****         lv_obj_add_style(obj, &styles->outline_primary, LV_STATE_FOCUS_KEY);
 742:lvgl/lvgl/src/extra/themes/default/lv_theme_default.c ****         lv_obj_add_style(obj, &styles->outline_secondary, LV_STATE_EDITED);
 743:lvgl/lvgl/src/extra/themes/default/lv_theme_default.c ****         lv_obj_add_style(obj, &styles->scrollbar, LV_PART_SCROLLBAR);
 744:lvgl/lvgl/src/extra/themes/default/lv_theme_default.c ****         lv_obj_add_style(obj, &styles->scrollbar_scrolled, LV_PART_SCROLLBAR | LV_STATE_SCROLLED);
 745:lvgl/lvgl/src/extra/themes/default/lv_theme_default.c ****         lv_obj_add_style(obj, &styles->bg_color_white, LV_PART_ITEMS);
 746:lvgl/lvgl/src/extra/themes/default/lv_theme_default.c ****         lv_obj_add_style(obj, &styles->table_cell, LV_PART_ITEMS);
 747:lvgl/lvgl/src/extra/themes/default/lv_theme_default.c ****         lv_obj_add_style(obj, &styles->pad_normal, LV_PART_ITEMS);
 748:lvgl/lvgl/src/extra/themes/default/lv_theme_default.c ****         lv_obj_add_style(obj, &styles->pressed, LV_PART_ITEMS | LV_STATE_PRESSED);
 749:lvgl/lvgl/src/extra/themes/default/lv_theme_default.c ****         lv_obj_add_style(obj, &styles->bg_color_primary, LV_PART_ITEMS | LV_STATE_FOCUS_KEY);
 750:lvgl/lvgl/src/extra/themes/default/lv_theme_default.c ****         lv_obj_add_style(obj, &styles->bg_color_secondary, LV_PART_ITEMS | LV_STATE_EDITED);
 751:lvgl/lvgl/src/extra/themes/default/lv_theme_default.c ****     }
 752:lvgl/lvgl/src/extra/themes/default/lv_theme_default.c **** #endif
 753:lvgl/lvgl/src/extra/themes/default/lv_theme_default.c **** 
 754:lvgl/lvgl/src/extra/themes/default/lv_theme_default.c **** #if LV_USE_CHECKBOX
 755:lvgl/lvgl/src/extra/themes/default/lv_theme_default.c ****     else if(lv_obj_check_type(obj, &lv_checkbox_class)) {
 756:lvgl/lvgl/src/extra/themes/default/lv_theme_default.c ****         lv_obj_add_style(obj, &styles->pad_gap, 0);
 757:lvgl/lvgl/src/extra/themes/default/lv_theme_default.c ****         lv_obj_add_style(obj, &styles->outline_primary, LV_STATE_FOCUS_KEY);
 758:lvgl/lvgl/src/extra/themes/default/lv_theme_default.c ****         lv_obj_add_style(obj, &styles->disabled, LV_PART_INDICATOR | LV_STATE_DISABLED);
 759:lvgl/lvgl/src/extra/themes/default/lv_theme_default.c ****         lv_obj_add_style(obj, &styles->cb_marker, LV_PART_INDICATOR);
 760:lvgl/lvgl/src/extra/themes/default/lv_theme_default.c ****         lv_obj_add_style(obj, &styles->bg_color_primary, LV_PART_INDICATOR | LV_STATE_CHECKED);
 761:lvgl/lvgl/src/extra/themes/default/lv_theme_default.c ****         lv_obj_add_style(obj, &styles->cb_marker_checked, LV_PART_INDICATOR | LV_STATE_CHECKED);
 762:lvgl/lvgl/src/extra/themes/default/lv_theme_default.c ****         lv_obj_add_style(obj, &styles->pressed, LV_PART_INDICATOR | LV_STATE_PRESSED);
 763:lvgl/lvgl/src/extra/themes/default/lv_theme_default.c **** #if LV_THEME_DEFAULT_GROW
 764:lvgl/lvgl/src/extra/themes/default/lv_theme_default.c ****         lv_obj_add_style(obj, &styles->grow, LV_PART_INDICATOR | LV_STATE_PRESSED);
 765:lvgl/lvgl/src/extra/themes/default/lv_theme_default.c **** #endif
 766:lvgl/lvgl/src/extra/themes/default/lv_theme_default.c ****         lv_obj_add_style(obj, &styles->transition_normal, LV_PART_INDICATOR | LV_STATE_PRESSED);
 767:lvgl/lvgl/src/extra/themes/default/lv_theme_default.c ****         lv_obj_add_style(obj, &styles->transition_delayed, LV_PART_INDICATOR);
 768:lvgl/lvgl/src/extra/themes/default/lv_theme_default.c ****     }
 769:lvgl/lvgl/src/extra/themes/default/lv_theme_default.c **** #endif
 770:lvgl/lvgl/src/extra/themes/default/lv_theme_default.c **** 
 771:lvgl/lvgl/src/extra/themes/default/lv_theme_default.c **** #if LV_USE_SWITCH
 772:lvgl/lvgl/src/extra/themes/default/lv_theme_default.c ****     else if(lv_obj_check_type(obj, &lv_switch_class)) {
 773:lvgl/lvgl/src/extra/themes/default/lv_theme_default.c ****         lv_obj_add_style(obj, &styles->bg_color_grey, 0);
 774:lvgl/lvgl/src/extra/themes/default/lv_theme_default.c ****         lv_obj_add_style(obj, &styles->circle, 0);
 775:lvgl/lvgl/src/extra/themes/default/lv_theme_default.c ****         lv_obj_add_style(obj, &styles->disabled, LV_STATE_DISABLED);
 776:lvgl/lvgl/src/extra/themes/default/lv_theme_default.c ****         lv_obj_add_style(obj, &styles->outline_primary, LV_STATE_FOCUS_KEY);
 777:lvgl/lvgl/src/extra/themes/default/lv_theme_default.c ****         lv_obj_add_style(obj, &styles->bg_color_primary, LV_PART_INDICATOR | LV_STATE_CHECKED);
ARM GAS  C:\Users\gx\AppData\Local\Temp\ccQfGIQ4.s 			page 16


 778:lvgl/lvgl/src/extra/themes/default/lv_theme_default.c ****         lv_obj_add_style(obj, &styles->circle, LV_PART_INDICATOR);
 779:lvgl/lvgl/src/extra/themes/default/lv_theme_default.c ****         lv_obj_add_style(obj, &styles->disabled, LV_PART_INDICATOR | LV_STATE_DISABLED);
 780:lvgl/lvgl/src/extra/themes/default/lv_theme_default.c ****         lv_obj_add_style(obj, &styles->knob, LV_PART_KNOB);
 781:lvgl/lvgl/src/extra/themes/default/lv_theme_default.c ****         lv_obj_add_style(obj, &styles->bg_color_white, LV_PART_KNOB);
 782:lvgl/lvgl/src/extra/themes/default/lv_theme_default.c ****         lv_obj_add_style(obj, &styles->switch_knob, LV_PART_KNOB);
 783:lvgl/lvgl/src/extra/themes/default/lv_theme_default.c ****         lv_obj_add_style(obj, &styles->disabled, LV_PART_KNOB | LV_STATE_DISABLED);
 784:lvgl/lvgl/src/extra/themes/default/lv_theme_default.c ****     }
 785:lvgl/lvgl/src/extra/themes/default/lv_theme_default.c **** #endif
 786:lvgl/lvgl/src/extra/themes/default/lv_theme_default.c **** 
 787:lvgl/lvgl/src/extra/themes/default/lv_theme_default.c **** #if LV_USE_CHART
 788:lvgl/lvgl/src/extra/themes/default/lv_theme_default.c ****     else if(lv_obj_check_type(obj, &lv_chart_class)) {
 789:lvgl/lvgl/src/extra/themes/default/lv_theme_default.c ****         lv_obj_add_style(obj, &styles->card, 0);
 790:lvgl/lvgl/src/extra/themes/default/lv_theme_default.c ****         lv_obj_add_style(obj, &styles->pad_small, 0);
 791:lvgl/lvgl/src/extra/themes/default/lv_theme_default.c ****         lv_obj_add_style(obj, &styles->chart_bg, 0);
 792:lvgl/lvgl/src/extra/themes/default/lv_theme_default.c ****         lv_obj_add_style(obj, &styles->scrollbar, LV_PART_SCROLLBAR);
 793:lvgl/lvgl/src/extra/themes/default/lv_theme_default.c ****         lv_obj_add_style(obj, &styles->scrollbar_scrolled, LV_PART_SCROLLBAR | LV_STATE_SCROLLED);
 794:lvgl/lvgl/src/extra/themes/default/lv_theme_default.c ****         lv_obj_add_style(obj, &styles->chart_series, LV_PART_ITEMS);
 795:lvgl/lvgl/src/extra/themes/default/lv_theme_default.c ****         lv_obj_add_style(obj, &styles->chart_indic, LV_PART_INDICATOR);
 796:lvgl/lvgl/src/extra/themes/default/lv_theme_default.c ****         lv_obj_add_style(obj, &styles->chart_ticks, LV_PART_TICKS);
 797:lvgl/lvgl/src/extra/themes/default/lv_theme_default.c ****         lv_obj_add_style(obj, &styles->chart_series, LV_PART_CURSOR);
 798:lvgl/lvgl/src/extra/themes/default/lv_theme_default.c ****     }
 799:lvgl/lvgl/src/extra/themes/default/lv_theme_default.c **** #endif
 800:lvgl/lvgl/src/extra/themes/default/lv_theme_default.c **** 
 801:lvgl/lvgl/src/extra/themes/default/lv_theme_default.c **** #if LV_USE_ROLLER
 802:lvgl/lvgl/src/extra/themes/default/lv_theme_default.c ****     else if(lv_obj_check_type(obj, &lv_roller_class)) {
 803:lvgl/lvgl/src/extra/themes/default/lv_theme_default.c ****         lv_obj_add_style(obj, &styles->card, 0);
 804:lvgl/lvgl/src/extra/themes/default/lv_theme_default.c ****         lv_obj_add_style(obj, &styles->anim, 0);
 805:lvgl/lvgl/src/extra/themes/default/lv_theme_default.c ****         lv_obj_add_style(obj, &styles->line_space_large, 0);
 806:lvgl/lvgl/src/extra/themes/default/lv_theme_default.c ****         lv_obj_add_style(obj, &styles->text_align_center, 0);
 807:lvgl/lvgl/src/extra/themes/default/lv_theme_default.c ****         lv_obj_add_style(obj, &styles->outline_primary, LV_STATE_FOCUS_KEY);
 808:lvgl/lvgl/src/extra/themes/default/lv_theme_default.c ****         lv_obj_add_style(obj, &styles->outline_secondary, LV_STATE_EDITED);
 809:lvgl/lvgl/src/extra/themes/default/lv_theme_default.c ****         lv_obj_add_style(obj, &styles->bg_color_primary, LV_PART_SELECTED);
 810:lvgl/lvgl/src/extra/themes/default/lv_theme_default.c ****     }
 811:lvgl/lvgl/src/extra/themes/default/lv_theme_default.c **** #endif
 812:lvgl/lvgl/src/extra/themes/default/lv_theme_default.c **** 
 813:lvgl/lvgl/src/extra/themes/default/lv_theme_default.c **** #if LV_USE_DROPDOWN
 814:lvgl/lvgl/src/extra/themes/default/lv_theme_default.c ****     else if(lv_obj_check_type(obj, &lv_dropdown_class)) {
 815:lvgl/lvgl/src/extra/themes/default/lv_theme_default.c ****         lv_obj_add_style(obj, &styles->card, 0);
 816:lvgl/lvgl/src/extra/themes/default/lv_theme_default.c ****         lv_obj_add_style(obj, &styles->pad_small, 0);
 817:lvgl/lvgl/src/extra/themes/default/lv_theme_default.c ****         lv_obj_add_style(obj, &styles->transition_delayed, 0);
 818:lvgl/lvgl/src/extra/themes/default/lv_theme_default.c ****         lv_obj_add_style(obj, &styles->transition_normal, LV_STATE_PRESSED);
 819:lvgl/lvgl/src/extra/themes/default/lv_theme_default.c ****         lv_obj_add_style(obj, &styles->pressed, LV_STATE_PRESSED);
 820:lvgl/lvgl/src/extra/themes/default/lv_theme_default.c ****         lv_obj_add_style(obj, &styles->outline_primary, LV_STATE_FOCUS_KEY);
 821:lvgl/lvgl/src/extra/themes/default/lv_theme_default.c ****         lv_obj_add_style(obj, &styles->outline_secondary, LV_STATE_EDITED);
 822:lvgl/lvgl/src/extra/themes/default/lv_theme_default.c ****         lv_obj_add_style(obj, &styles->transition_normal, LV_PART_INDICATOR);
 823:lvgl/lvgl/src/extra/themes/default/lv_theme_default.c ****     }
 824:lvgl/lvgl/src/extra/themes/default/lv_theme_default.c ****     else if(lv_obj_check_type(obj, &lv_dropdownlist_class)) {
 825:lvgl/lvgl/src/extra/themes/default/lv_theme_default.c ****         lv_obj_add_style(obj, &styles->card, 0);
 826:lvgl/lvgl/src/extra/themes/default/lv_theme_default.c ****         lv_obj_add_style(obj, &styles->clip_corner, 0);
 827:lvgl/lvgl/src/extra/themes/default/lv_theme_default.c ****         lv_obj_add_style(obj, &styles->line_space_large, 0);
 828:lvgl/lvgl/src/extra/themes/default/lv_theme_default.c ****         lv_obj_add_style(obj, &styles->dropdown_list, 0);
 829:lvgl/lvgl/src/extra/themes/default/lv_theme_default.c ****         lv_obj_add_style(obj, &styles->scrollbar, LV_PART_SCROLLBAR);
 830:lvgl/lvgl/src/extra/themes/default/lv_theme_default.c ****         lv_obj_add_style(obj, &styles->scrollbar_scrolled, LV_PART_SCROLLBAR | LV_STATE_SCROLLED);
 831:lvgl/lvgl/src/extra/themes/default/lv_theme_default.c ****         lv_obj_add_style(obj, &styles->bg_color_white, LV_PART_SELECTED);
 832:lvgl/lvgl/src/extra/themes/default/lv_theme_default.c ****         lv_obj_add_style(obj, &styles->bg_color_primary, LV_PART_SELECTED | LV_STATE_CHECKED);
 833:lvgl/lvgl/src/extra/themes/default/lv_theme_default.c ****         lv_obj_add_style(obj, &styles->pressed, LV_PART_SELECTED | LV_STATE_PRESSED);
 834:lvgl/lvgl/src/extra/themes/default/lv_theme_default.c ****     }
ARM GAS  C:\Users\gx\AppData\Local\Temp\ccQfGIQ4.s 			page 17


 835:lvgl/lvgl/src/extra/themes/default/lv_theme_default.c **** #endif
 836:lvgl/lvgl/src/extra/themes/default/lv_theme_default.c **** 
 837:lvgl/lvgl/src/extra/themes/default/lv_theme_default.c **** #if LV_USE_ARC
 838:lvgl/lvgl/src/extra/themes/default/lv_theme_default.c ****     else if(lv_obj_check_type(obj, &lv_arc_class)) {
 839:lvgl/lvgl/src/extra/themes/default/lv_theme_default.c ****         lv_obj_add_style(obj, &styles->arc_indic, 0);
 840:lvgl/lvgl/src/extra/themes/default/lv_theme_default.c ****         lv_obj_add_style(obj, &styles->arc_indic, LV_PART_INDICATOR);
 841:lvgl/lvgl/src/extra/themes/default/lv_theme_default.c ****         lv_obj_add_style(obj, &styles->arc_indic_primary, LV_PART_INDICATOR);
 842:lvgl/lvgl/src/extra/themes/default/lv_theme_default.c ****         lv_obj_add_style(obj, &styles->knob, LV_PART_KNOB);
 843:lvgl/lvgl/src/extra/themes/default/lv_theme_default.c ****     }
 844:lvgl/lvgl/src/extra/themes/default/lv_theme_default.c **** #endif
 845:lvgl/lvgl/src/extra/themes/default/lv_theme_default.c **** 
 846:lvgl/lvgl/src/extra/themes/default/lv_theme_default.c **** 
 847:lvgl/lvgl/src/extra/themes/default/lv_theme_default.c **** #if LV_USE_SPINNER
 848:lvgl/lvgl/src/extra/themes/default/lv_theme_default.c ****     else if(lv_obj_check_type(obj, &lv_spinner_class)) {
 849:lvgl/lvgl/src/extra/themes/default/lv_theme_default.c ****         lv_obj_add_style(obj, &styles->arc_indic, 0);
 850:lvgl/lvgl/src/extra/themes/default/lv_theme_default.c ****         lv_obj_add_style(obj, &styles->arc_indic, LV_PART_INDICATOR);
 851:lvgl/lvgl/src/extra/themes/default/lv_theme_default.c ****         lv_obj_add_style(obj, &styles->arc_indic_primary, LV_PART_INDICATOR);
 852:lvgl/lvgl/src/extra/themes/default/lv_theme_default.c ****     }
 853:lvgl/lvgl/src/extra/themes/default/lv_theme_default.c **** #endif
 854:lvgl/lvgl/src/extra/themes/default/lv_theme_default.c **** 
 855:lvgl/lvgl/src/extra/themes/default/lv_theme_default.c **** #if LV_USE_METER
 856:lvgl/lvgl/src/extra/themes/default/lv_theme_default.c ****     else if(lv_obj_check_type(obj, &lv_meter_class)) {
 857:lvgl/lvgl/src/extra/themes/default/lv_theme_default.c ****         lv_obj_add_style(obj, &styles->card, 0);
 858:lvgl/lvgl/src/extra/themes/default/lv_theme_default.c ****         lv_obj_add_style(obj, &styles->circle, 0);
 859:lvgl/lvgl/src/extra/themes/default/lv_theme_default.c ****         lv_obj_add_style(obj, &styles->meter_indic, LV_PART_INDICATOR);
 860:lvgl/lvgl/src/extra/themes/default/lv_theme_default.c ****     }
 861:lvgl/lvgl/src/extra/themes/default/lv_theme_default.c **** #endif
 862:lvgl/lvgl/src/extra/themes/default/lv_theme_default.c **** 
 863:lvgl/lvgl/src/extra/themes/default/lv_theme_default.c **** #if LV_USE_TEXTAREA
 864:lvgl/lvgl/src/extra/themes/default/lv_theme_default.c ****     else if(lv_obj_check_type(obj, &lv_textarea_class)) {
 865:lvgl/lvgl/src/extra/themes/default/lv_theme_default.c ****         lv_obj_add_style(obj, &styles->card, 0);
 866:lvgl/lvgl/src/extra/themes/default/lv_theme_default.c ****         lv_obj_add_style(obj, &styles->pad_small, 0);
 867:lvgl/lvgl/src/extra/themes/default/lv_theme_default.c ****         lv_obj_add_style(obj, &styles->outline_primary, LV_STATE_FOCUS_KEY);
 868:lvgl/lvgl/src/extra/themes/default/lv_theme_default.c ****         lv_obj_add_style(obj, &styles->outline_secondary, LV_STATE_EDITED);
 869:lvgl/lvgl/src/extra/themes/default/lv_theme_default.c ****         lv_obj_add_style(obj, &styles->scrollbar, LV_PART_SCROLLBAR);
 870:lvgl/lvgl/src/extra/themes/default/lv_theme_default.c ****         lv_obj_add_style(obj, &styles->scrollbar_scrolled, LV_PART_SCROLLBAR | LV_STATE_SCROLLED);
 871:lvgl/lvgl/src/extra/themes/default/lv_theme_default.c ****         lv_obj_add_style(obj, &styles->ta_cursor, LV_PART_CURSOR | LV_STATE_FOCUSED);
 872:lvgl/lvgl/src/extra/themes/default/lv_theme_default.c ****         lv_obj_add_style(obj, &styles->ta_placeholder, LV_PART_TEXTAREA_PLACEHOLDER);
 873:lvgl/lvgl/src/extra/themes/default/lv_theme_default.c ****     }
 874:lvgl/lvgl/src/extra/themes/default/lv_theme_default.c **** #endif
 875:lvgl/lvgl/src/extra/themes/default/lv_theme_default.c **** 
 876:lvgl/lvgl/src/extra/themes/default/lv_theme_default.c **** #if LV_USE_CALENDAR
 877:lvgl/lvgl/src/extra/themes/default/lv_theme_default.c ****     else if(lv_obj_check_type(obj, &lv_calendar_class)) {
 878:lvgl/lvgl/src/extra/themes/default/lv_theme_default.c ****         lv_obj_add_style(obj, &styles->card, 0);
 879:lvgl/lvgl/src/extra/themes/default/lv_theme_default.c ****         lv_obj_add_style(obj, &styles->calendar_bg, 0);
 880:lvgl/lvgl/src/extra/themes/default/lv_theme_default.c ****         lv_obj_add_style(obj, &styles->outline_primary, LV_STATE_FOCUS_KEY);
 881:lvgl/lvgl/src/extra/themes/default/lv_theme_default.c ****         lv_obj_add_style(obj, &styles->outline_secondary, LV_STATE_EDITED);
 882:lvgl/lvgl/src/extra/themes/default/lv_theme_default.c ****         lv_obj_add_style(obj, &styles->calendar_day, LV_PART_ITEMS);
 883:lvgl/lvgl/src/extra/themes/default/lv_theme_default.c ****         lv_obj_add_style(obj, &styles->pressed, LV_PART_ITEMS | LV_STATE_PRESSED);
 884:lvgl/lvgl/src/extra/themes/default/lv_theme_default.c ****         lv_obj_add_style(obj, &styles->disabled, LV_PART_ITEMS | LV_STATE_DISABLED);
 885:lvgl/lvgl/src/extra/themes/default/lv_theme_default.c ****         lv_obj_add_style(obj, &styles->outline_primary, LV_PART_ITEMS | LV_STATE_FOCUS_KEY);
 886:lvgl/lvgl/src/extra/themes/default/lv_theme_default.c ****         lv_obj_add_style(obj, &styles->outline_secondary, LV_PART_ITEMS | LV_STATE_EDITED);
 887:lvgl/lvgl/src/extra/themes/default/lv_theme_default.c ****     }
 888:lvgl/lvgl/src/extra/themes/default/lv_theme_default.c **** #endif
 889:lvgl/lvgl/src/extra/themes/default/lv_theme_default.c **** 
 890:lvgl/lvgl/src/extra/themes/default/lv_theme_default.c **** #if LV_USE_CALENDAR_HEADER_ARROW
 891:lvgl/lvgl/src/extra/themes/default/lv_theme_default.c ****     else if(lv_obj_check_type(obj, &lv_calendar_header_arrow_class)) {
ARM GAS  C:\Users\gx\AppData\Local\Temp\ccQfGIQ4.s 			page 18


 892:lvgl/lvgl/src/extra/themes/default/lv_theme_default.c ****         lv_obj_add_style(obj, &styles->card, 0);
 893:lvgl/lvgl/src/extra/themes/default/lv_theme_default.c ****     }
 894:lvgl/lvgl/src/extra/themes/default/lv_theme_default.c **** #endif
 895:lvgl/lvgl/src/extra/themes/default/lv_theme_default.c **** 
 896:lvgl/lvgl/src/extra/themes/default/lv_theme_default.c **** #if LV_USE_CALENDAR_HEADER_DROPDOWN
 897:lvgl/lvgl/src/extra/themes/default/lv_theme_default.c ****     else if(lv_obj_check_type(obj, &lv_calendar_header_dropdown_class)) {
 898:lvgl/lvgl/src/extra/themes/default/lv_theme_default.c ****         lv_obj_add_style(obj, &styles->card, 0);
 899:lvgl/lvgl/src/extra/themes/default/lv_theme_default.c ****     }
 900:lvgl/lvgl/src/extra/themes/default/lv_theme_default.c **** #endif
 901:lvgl/lvgl/src/extra/themes/default/lv_theme_default.c **** 
 902:lvgl/lvgl/src/extra/themes/default/lv_theme_default.c **** #if LV_USE_KEYBOARD
 903:lvgl/lvgl/src/extra/themes/default/lv_theme_default.c ****     else if(lv_obj_check_type(obj, &lv_keyboard_class)) {
 904:lvgl/lvgl/src/extra/themes/default/lv_theme_default.c ****         lv_obj_add_style(obj, &styles->scr, 0);
 905:lvgl/lvgl/src/extra/themes/default/lv_theme_default.c ****         lv_obj_add_style(obj, disp_size == DISP_LARGE ? &styles->pad_small : &styles->pad_tiny, 0);
 906:lvgl/lvgl/src/extra/themes/default/lv_theme_default.c ****         lv_obj_add_style(obj, &styles->outline_primary, LV_STATE_FOCUS_KEY);
 907:lvgl/lvgl/src/extra/themes/default/lv_theme_default.c ****         lv_obj_add_style(obj, &styles->outline_secondary, LV_STATE_EDITED);
 908:lvgl/lvgl/src/extra/themes/default/lv_theme_default.c ****         lv_obj_add_style(obj, &styles->btn, LV_PART_ITEMS);
 909:lvgl/lvgl/src/extra/themes/default/lv_theme_default.c ****         lv_obj_add_style(obj, &styles->disabled, LV_PART_ITEMS | LV_STATE_DISABLED);
 910:lvgl/lvgl/src/extra/themes/default/lv_theme_default.c ****         lv_obj_add_style(obj, &styles->bg_color_white, LV_PART_ITEMS);
 911:lvgl/lvgl/src/extra/themes/default/lv_theme_default.c ****         lv_obj_add_style(obj, &styles->keyboard_btn_bg, LV_PART_ITEMS);
 912:lvgl/lvgl/src/extra/themes/default/lv_theme_default.c ****         lv_obj_add_style(obj, &styles->pressed, LV_PART_ITEMS | LV_STATE_PRESSED);
 913:lvgl/lvgl/src/extra/themes/default/lv_theme_default.c ****         lv_obj_add_style(obj, &styles->bg_color_grey, LV_PART_ITEMS | LV_STATE_CHECKED);
 914:lvgl/lvgl/src/extra/themes/default/lv_theme_default.c ****         lv_obj_add_style(obj, &styles->bg_color_primary_muted, LV_PART_ITEMS | LV_STATE_FOCUS_KEY);
 915:lvgl/lvgl/src/extra/themes/default/lv_theme_default.c ****         lv_obj_add_style(obj, &styles->bg_color_secondary_muted, LV_PART_ITEMS | LV_STATE_EDITED);
 916:lvgl/lvgl/src/extra/themes/default/lv_theme_default.c ****     }
 917:lvgl/lvgl/src/extra/themes/default/lv_theme_default.c **** #endif
 918:lvgl/lvgl/src/extra/themes/default/lv_theme_default.c **** #if LV_USE_LIST
 919:lvgl/lvgl/src/extra/themes/default/lv_theme_default.c ****     else if(lv_obj_check_type(obj, &lv_list_class)) {
 920:lvgl/lvgl/src/extra/themes/default/lv_theme_default.c ****         lv_obj_add_style(obj, &styles->card, 0);
 921:lvgl/lvgl/src/extra/themes/default/lv_theme_default.c ****         lv_obj_add_style(obj, &styles->list_bg, 0);
 922:lvgl/lvgl/src/extra/themes/default/lv_theme_default.c ****         lv_obj_add_style(obj, &styles->scrollbar, LV_PART_SCROLLBAR);
 923:lvgl/lvgl/src/extra/themes/default/lv_theme_default.c ****         lv_obj_add_style(obj, &styles->scrollbar_scrolled, LV_PART_SCROLLBAR | LV_STATE_SCROLLED);
 924:lvgl/lvgl/src/extra/themes/default/lv_theme_default.c ****         return;
 925:lvgl/lvgl/src/extra/themes/default/lv_theme_default.c ****     }
 926:lvgl/lvgl/src/extra/themes/default/lv_theme_default.c ****     else if(lv_obj_check_type(obj, &lv_list_text_class)) {
 927:lvgl/lvgl/src/extra/themes/default/lv_theme_default.c ****         lv_obj_add_style(obj, &styles->bg_color_grey, 0);
 928:lvgl/lvgl/src/extra/themes/default/lv_theme_default.c ****         lv_obj_add_style(obj, &styles->list_item_grow, 0);
 929:lvgl/lvgl/src/extra/themes/default/lv_theme_default.c ****     }
 930:lvgl/lvgl/src/extra/themes/default/lv_theme_default.c ****     else if(lv_obj_check_type(obj, &lv_list_btn_class)) {
 931:lvgl/lvgl/src/extra/themes/default/lv_theme_default.c ****         lv_obj_add_style(obj, &styles->bg_color_white, 0);
 932:lvgl/lvgl/src/extra/themes/default/lv_theme_default.c ****         lv_obj_add_style(obj, &styles->list_btn, 0);
 933:lvgl/lvgl/src/extra/themes/default/lv_theme_default.c ****         lv_obj_add_style(obj, &styles->bg_color_primary, LV_STATE_FOCUS_KEY);
 934:lvgl/lvgl/src/extra/themes/default/lv_theme_default.c ****         lv_obj_add_style(obj, &styles->list_item_grow, LV_STATE_FOCUS_KEY);
 935:lvgl/lvgl/src/extra/themes/default/lv_theme_default.c ****         lv_obj_add_style(obj, &styles->list_item_grow, LV_STATE_PRESSED);
 936:lvgl/lvgl/src/extra/themes/default/lv_theme_default.c ****         lv_obj_add_style(obj, &styles->pressed, LV_STATE_PRESSED);
 937:lvgl/lvgl/src/extra/themes/default/lv_theme_default.c **** 
 938:lvgl/lvgl/src/extra/themes/default/lv_theme_default.c ****     }
 939:lvgl/lvgl/src/extra/themes/default/lv_theme_default.c **** #endif
 940:lvgl/lvgl/src/extra/themes/default/lv_theme_default.c **** #if LV_USE_MSGBOX
 941:lvgl/lvgl/src/extra/themes/default/lv_theme_default.c ****     else if(lv_obj_check_type(obj, &lv_msgbox_class)) {
 942:lvgl/lvgl/src/extra/themes/default/lv_theme_default.c ****         lv_obj_add_style(obj, &styles->card, 0);
 943:lvgl/lvgl/src/extra/themes/default/lv_theme_default.c ****         lv_obj_add_style(obj, &styles->msgbox_bg, 0);
 944:lvgl/lvgl/src/extra/themes/default/lv_theme_default.c ****         return;
 945:lvgl/lvgl/src/extra/themes/default/lv_theme_default.c ****     }
 946:lvgl/lvgl/src/extra/themes/default/lv_theme_default.c **** #endif
 947:lvgl/lvgl/src/extra/themes/default/lv_theme_default.c **** #if LV_USE_SPINBOX
 948:lvgl/lvgl/src/extra/themes/default/lv_theme_default.c ****     else if(lv_obj_check_type(obj, &lv_spinbox_class)) {
ARM GAS  C:\Users\gx\AppData\Local\Temp\ccQfGIQ4.s 			page 19


 949:lvgl/lvgl/src/extra/themes/default/lv_theme_default.c ****         lv_obj_add_style(obj, &styles->card, 0);
 950:lvgl/lvgl/src/extra/themes/default/lv_theme_default.c ****         lv_obj_add_style(obj, &styles->pad_small, 0);
 951:lvgl/lvgl/src/extra/themes/default/lv_theme_default.c ****         lv_obj_add_style(obj, &styles->outline_primary, LV_STATE_FOCUS_KEY);
 952:lvgl/lvgl/src/extra/themes/default/lv_theme_default.c ****         lv_obj_add_style(obj, &styles->outline_secondary, LV_STATE_EDITED);
 953:lvgl/lvgl/src/extra/themes/default/lv_theme_default.c ****         lv_obj_add_style(obj, &styles->bg_color_primary, LV_PART_CURSOR);
 954:lvgl/lvgl/src/extra/themes/default/lv_theme_default.c ****     }
 955:lvgl/lvgl/src/extra/themes/default/lv_theme_default.c **** #endif
 956:lvgl/lvgl/src/extra/themes/default/lv_theme_default.c **** #if LV_USE_TILEVIEW
 957:lvgl/lvgl/src/extra/themes/default/lv_theme_default.c ****     else if(lv_obj_check_type(obj, &lv_tileview_class)) {
 958:lvgl/lvgl/src/extra/themes/default/lv_theme_default.c ****         lv_obj_add_style(obj, &styles->scr, 0);
 959:lvgl/lvgl/src/extra/themes/default/lv_theme_default.c ****         lv_obj_add_style(obj, &styles->scrollbar, LV_PART_SCROLLBAR);
 960:lvgl/lvgl/src/extra/themes/default/lv_theme_default.c ****         lv_obj_add_style(obj, &styles->scrollbar_scrolled, LV_PART_SCROLLBAR | LV_STATE_SCROLLED);
 961:lvgl/lvgl/src/extra/themes/default/lv_theme_default.c ****     }
 962:lvgl/lvgl/src/extra/themes/default/lv_theme_default.c ****     else if(lv_obj_check_type(obj, &lv_tileview_tile_class)) {
 963:lvgl/lvgl/src/extra/themes/default/lv_theme_default.c ****         lv_obj_add_style(obj, &styles->scrollbar, LV_PART_SCROLLBAR);
 964:lvgl/lvgl/src/extra/themes/default/lv_theme_default.c ****         lv_obj_add_style(obj, &styles->scrollbar_scrolled, LV_PART_SCROLLBAR | LV_STATE_SCROLLED);
 965:lvgl/lvgl/src/extra/themes/default/lv_theme_default.c ****     }
 966:lvgl/lvgl/src/extra/themes/default/lv_theme_default.c **** #endif
 967:lvgl/lvgl/src/extra/themes/default/lv_theme_default.c **** 
 968:lvgl/lvgl/src/extra/themes/default/lv_theme_default.c **** #if LV_USE_TABVIEW
 969:lvgl/lvgl/src/extra/themes/default/lv_theme_default.c ****     if(lv_obj_check_type(obj, &lv_tabview_class)) {
 970:lvgl/lvgl/src/extra/themes/default/lv_theme_default.c ****         lv_obj_add_style(obj, &styles->scr, 0);
 971:lvgl/lvgl/src/extra/themes/default/lv_theme_default.c ****         lv_obj_add_style(obj, &styles->pad_zero, 0);
 972:lvgl/lvgl/src/extra/themes/default/lv_theme_default.c ****         return;
 973:lvgl/lvgl/src/extra/themes/default/lv_theme_default.c ****     }
 974:lvgl/lvgl/src/extra/themes/default/lv_theme_default.c **** #endif
 975:lvgl/lvgl/src/extra/themes/default/lv_theme_default.c **** 
 976:lvgl/lvgl/src/extra/themes/default/lv_theme_default.c **** #if LV_USE_COLORWHEEL
 977:lvgl/lvgl/src/extra/themes/default/lv_theme_default.c ****     else if(lv_obj_check_type(obj, &lv_colorwheel_class)) {
 978:lvgl/lvgl/src/extra/themes/default/lv_theme_default.c ****         lv_obj_add_style(obj, &styles->colorwheel_main, 0);
 979:lvgl/lvgl/src/extra/themes/default/lv_theme_default.c ****         lv_obj_add_style(obj, &styles->pad_normal, 0);
 980:lvgl/lvgl/src/extra/themes/default/lv_theme_default.c ****         lv_obj_add_style(obj, &styles->bg_color_white, LV_PART_KNOB);
 981:lvgl/lvgl/src/extra/themes/default/lv_theme_default.c ****         lv_obj_add_style(obj, &styles->pad_normal, LV_PART_KNOB);
 982:lvgl/lvgl/src/extra/themes/default/lv_theme_default.c ****     }
 983:lvgl/lvgl/src/extra/themes/default/lv_theme_default.c **** #endif
 984:lvgl/lvgl/src/extra/themes/default/lv_theme_default.c **** 
 985:lvgl/lvgl/src/extra/themes/default/lv_theme_default.c **** #if LV_USE_LED
 986:lvgl/lvgl/src/extra/themes/default/lv_theme_default.c ****     else if(lv_obj_check_type(obj, &lv_led_class)) {
 987:lvgl/lvgl/src/extra/themes/default/lv_theme_default.c ****             lv_obj_add_style(obj, &styles->led, 0);
 988:lvgl/lvgl/src/extra/themes/default/lv_theme_default.c ****         }
 989:lvgl/lvgl/src/extra/themes/default/lv_theme_default.c **** #endif
 990:lvgl/lvgl/src/extra/themes/default/lv_theme_default.c **** }
  80              		.loc 1 990 1 view .LVU16
  81 002a 70BD     		pop	{r4, r5, r6, pc}
  82              	.LVL8:
  83              	.L42:
 603:lvgl/lvgl/src/extra/themes/default/lv_theme_default.c ****         lv_obj_add_style(obj, &styles->scrollbar, LV_PART_SCROLLBAR);
  84              		.loc 1 603 9 is_stmt 1 view .LVU17
 603:lvgl/lvgl/src/extra/themes/default/lv_theme_default.c ****         lv_obj_add_style(obj, &styles->scrollbar, LV_PART_SCROLLBAR);
  85              		.loc 1 603 38 is_stmt 0 view .LVU18
  86 002c A74D     		ldr	r5, .L53+8
 603:lvgl/lvgl/src/extra/themes/default/lv_theme_default.c ****         lv_obj_add_style(obj, &styles->scrollbar, LV_PART_SCROLLBAR);
  87              		.loc 1 603 9 view .LVU19
  88 002e 0022     		movs	r2, #0
  89 0030 2968     		ldr	r1, [r5]
  90 0032 2046     		mov	r0, r4
  91 0034 FFF7FEFF 		bl	lv_obj_add_style
ARM GAS  C:\Users\gx\AppData\Local\Temp\ccQfGIQ4.s 			page 20


  92              	.LVL9:
 604:lvgl/lvgl/src/extra/themes/default/lv_theme_default.c ****         lv_obj_add_style(obj, &styles->scrollbar_scrolled, LV_PART_SCROLLBAR | LV_STATE_SCROLLED);
  93              		.loc 1 604 9 is_stmt 1 view .LVU20
 604:lvgl/lvgl/src/extra/themes/default/lv_theme_default.c ****         lv_obj_add_style(obj, &styles->scrollbar_scrolled, LV_PART_SCROLLBAR | LV_STATE_SCROLLED);
  94              		.loc 1 604 38 is_stmt 0 view .LVU21
  95 0038 2968     		ldr	r1, [r5]
 604:lvgl/lvgl/src/extra/themes/default/lv_theme_default.c ****         lv_obj_add_style(obj, &styles->scrollbar_scrolled, LV_PART_SCROLLBAR | LV_STATE_SCROLLED);
  96              		.loc 1 604 9 view .LVU22
  97 003a 4FF48032 		mov	r2, #65536
  98 003e 0831     		adds	r1, r1, #8
  99 0040 2046     		mov	r0, r4
 100 0042 FFF7FEFF 		bl	lv_obj_add_style
 101              	.LVL10:
 605:lvgl/lvgl/src/extra/themes/default/lv_theme_default.c ****         return;
 102              		.loc 1 605 9 is_stmt 1 view .LVU23
 605:lvgl/lvgl/src/extra/themes/default/lv_theme_default.c ****         return;
 103              		.loc 1 605 38 is_stmt 0 view .LVU24
 104 0046 2968     		ldr	r1, [r5]
 605:lvgl/lvgl/src/extra/themes/default/lv_theme_default.c ****         return;
 105              		.loc 1 605 9 view .LVU25
 106 0048 A14A     		ldr	r2, .L53+12
 107 004a 1031     		adds	r1, r1, #16
 108 004c 2046     		mov	r0, r4
 109 004e FFF7FEFF 		bl	lv_obj_add_style
 110              	.LVL11:
 606:lvgl/lvgl/src/extra/themes/default/lv_theme_default.c ****     }
 111              		.loc 1 606 9 is_stmt 1 view .LVU26
 112 0052 EAE7     		b	.L1
 113              	.LVL12:
 114              	.L43:
 115              	.LBB81:
 617:lvgl/lvgl/src/extra/themes/default/lv_theme_default.c ****             lv_obj_add_style(obj, &styles->pad_normal, 0);
 116              		.loc 1 617 14 view .LVU27
 617:lvgl/lvgl/src/extra/themes/default/lv_theme_default.c ****             lv_obj_add_style(obj, &styles->pad_normal, 0);
 117              		.loc 1 617 35 is_stmt 0 view .LVU28
 118 0054 2846     		mov	r0, r5
 119 0056 FFF7FEFF 		bl	lv_obj_get_parent
 120              	.LVL13:
 617:lvgl/lvgl/src/extra/themes/default/lv_theme_default.c ****             lv_obj_add_style(obj, &styles->pad_normal, 0);
 121              		.loc 1 617 17 view .LVU29
 122 005a 9B49     		ldr	r1, .L53+4
 123 005c FFF7FEFF 		bl	lv_obj_check_type
 124              	.LVL14:
 617:lvgl/lvgl/src/extra/themes/default/lv_theme_default.c ****             lv_obj_add_style(obj, &styles->pad_normal, 0);
 125              		.loc 1 617 16 view .LVU30
 126 0060 20BB     		cbnz	r0, .L44
 627:lvgl/lvgl/src/extra/themes/default/lv_theme_default.c ****             lv_obj_add_style(obj, &styles->bg_color_grey, 0);
 127              		.loc 1 627 9 is_stmt 1 view .LVU31
 627:lvgl/lvgl/src/extra/themes/default/lv_theme_default.c ****             lv_obj_add_style(obj, &styles->bg_color_grey, 0);
 128              		.loc 1 627 12 is_stmt 0 view .LVU32
 129 0062 2046     		mov	r0, r4
 130 0064 FFF7FEFF 		bl	lv_obj_get_child_id
 131              	.LVL15:
 627:lvgl/lvgl/src/extra/themes/default/lv_theme_default.c ****             lv_obj_add_style(obj, &styles->bg_color_grey, 0);
 132              		.loc 1 627 11 view .LVU33
 133 0068 30B9     		cbnz	r0, .L6
 627:lvgl/lvgl/src/extra/themes/default/lv_theme_default.c ****             lv_obj_add_style(obj, &styles->bg_color_grey, 0);
ARM GAS  C:\Users\gx\AppData\Local\Temp\ccQfGIQ4.s 			page 21


 134              		.loc 1 627 63 discriminator 1 view .LVU34
 135 006a 2046     		mov	r0, r4
 136 006c FFF7FEFF 		bl	lv_obj_get_parent
 137              	.LVL16:
 627:lvgl/lvgl/src/extra/themes/default/lv_theme_default.c ****             lv_obj_add_style(obj, &styles->bg_color_grey, 0);
 138              		.loc 1 627 45 discriminator 1 view .LVU35
 139 0070 9849     		ldr	r1, .L53+16
 140 0072 FFF7FEFF 		bl	lv_obj_check_type
 141              	.LVL17:
 627:lvgl/lvgl/src/extra/themes/default/lv_theme_default.c ****             lv_obj_add_style(obj, &styles->bg_color_grey, 0);
 142              		.loc 1 627 42 discriminator 1 view .LVU36
 143 0076 70BB     		cbnz	r0, .L45
 144              	.L6:
 633:lvgl/lvgl/src/extra/themes/default/lv_theme_default.c ****             lv_obj_add_style(obj, &styles->scr, 0);
 145              		.loc 1 633 14 is_stmt 1 view .LVU37
 633:lvgl/lvgl/src/extra/themes/default/lv_theme_default.c ****             lv_obj_add_style(obj, &styles->scr, 0);
 146              		.loc 1 633 17 is_stmt 0 view .LVU38
 147 0078 2046     		mov	r0, r4
 148 007a FFF7FEFF 		bl	lv_obj_get_child_id
 149              	.LVL18:
 633:lvgl/lvgl/src/extra/themes/default/lv_theme_default.c ****             lv_obj_add_style(obj, &styles->scr, 0);
 150              		.loc 1 633 16 view .LVU39
 151 007e 0128     		cmp	r0, #1
 152 0080 37D0     		beq	.L46
 153              	.L7:
 641:lvgl/lvgl/src/extra/themes/default/lv_theme_default.c ****         lv_obj_add_style(obj, &styles->scrollbar, LV_PART_SCROLLBAR);
 154              		.loc 1 641 9 is_stmt 1 view .LVU40
 641:lvgl/lvgl/src/extra/themes/default/lv_theme_default.c ****         lv_obj_add_style(obj, &styles->scrollbar, LV_PART_SCROLLBAR);
 155              		.loc 1 641 38 is_stmt 0 view .LVU41
 156 0082 924D     		ldr	r5, .L53+8
 157              	.LVL19:
 641:lvgl/lvgl/src/extra/themes/default/lv_theme_default.c ****         lv_obj_add_style(obj, &styles->scrollbar, LV_PART_SCROLLBAR);
 158              		.loc 1 641 38 view .LVU42
 159 0084 2968     		ldr	r1, [r5]
 641:lvgl/lvgl/src/extra/themes/default/lv_theme_default.c ****         lv_obj_add_style(obj, &styles->scrollbar, LV_PART_SCROLLBAR);
 160              		.loc 1 641 9 view .LVU43
 161 0086 0022     		movs	r2, #0
 162 0088 1831     		adds	r1, r1, #24
 163 008a 2046     		mov	r0, r4
 164 008c FFF7FEFF 		bl	lv_obj_add_style
 165              	.LVL20:
 642:lvgl/lvgl/src/extra/themes/default/lv_theme_default.c ****         lv_obj_add_style(obj, &styles->scrollbar_scrolled, LV_PART_SCROLLBAR | LV_STATE_SCROLLED);
 166              		.loc 1 642 9 is_stmt 1 view .LVU44
 642:lvgl/lvgl/src/extra/themes/default/lv_theme_default.c ****         lv_obj_add_style(obj, &styles->scrollbar_scrolled, LV_PART_SCROLLBAR | LV_STATE_SCROLLED);
 167              		.loc 1 642 38 is_stmt 0 view .LVU45
 168 0090 2968     		ldr	r1, [r5]
 642:lvgl/lvgl/src/extra/themes/default/lv_theme_default.c ****         lv_obj_add_style(obj, &styles->scrollbar_scrolled, LV_PART_SCROLLBAR | LV_STATE_SCROLLED);
 169              		.loc 1 642 9 view .LVU46
 170 0092 4FF48032 		mov	r2, #65536
 171 0096 0831     		adds	r1, r1, #8
 172 0098 2046     		mov	r0, r4
 173 009a FFF7FEFF 		bl	lv_obj_add_style
 174              	.LVL21:
 643:lvgl/lvgl/src/extra/themes/default/lv_theme_default.c ****     }
 175              		.loc 1 643 9 is_stmt 1 view .LVU47
 643:lvgl/lvgl/src/extra/themes/default/lv_theme_default.c ****     }
 176              		.loc 1 643 38 is_stmt 0 view .LVU48
ARM GAS  C:\Users\gx\AppData\Local\Temp\ccQfGIQ4.s 			page 22


 177 009e 2968     		ldr	r1, [r5]
 643:lvgl/lvgl/src/extra/themes/default/lv_theme_default.c ****     }
 178              		.loc 1 643 9 view .LVU49
 179 00a0 8B4A     		ldr	r2, .L53+12
 180 00a2 1031     		adds	r1, r1, #16
 181 00a4 2046     		mov	r0, r4
 182 00a6 FFF7FEFF 		bl	lv_obj_add_style
 183              	.LVL22:
 184              	.LBE81:
 185 00aa 81E0     		b	.L8
 186              	.LVL23:
 187              	.L44:
 188              	.LBB82:
 618:lvgl/lvgl/src/extra/themes/default/lv_theme_default.c ****             lv_obj_add_style(obj, &styles->scrollbar, LV_PART_SCROLLBAR);
 189              		.loc 1 618 13 is_stmt 1 view .LVU50
 618:lvgl/lvgl/src/extra/themes/default/lv_theme_default.c ****             lv_obj_add_style(obj, &styles->scrollbar, LV_PART_SCROLLBAR);
 190              		.loc 1 618 42 is_stmt 0 view .LVU51
 191 00ac 874D     		ldr	r5, .L53+8
 192              	.LVL24:
 618:lvgl/lvgl/src/extra/themes/default/lv_theme_default.c ****             lv_obj_add_style(obj, &styles->scrollbar, LV_PART_SCROLLBAR);
 193              		.loc 1 618 42 view .LVU52
 194 00ae 2968     		ldr	r1, [r5]
 618:lvgl/lvgl/src/extra/themes/default/lv_theme_default.c ****             lv_obj_add_style(obj, &styles->scrollbar, LV_PART_SCROLLBAR);
 195              		.loc 1 618 13 view .LVU53
 196 00b0 0022     		movs	r2, #0
 197 00b2 8031     		adds	r1, r1, #128
 198 00b4 2046     		mov	r0, r4
 199 00b6 FFF7FEFF 		bl	lv_obj_add_style
 200              	.LVL25:
 619:lvgl/lvgl/src/extra/themes/default/lv_theme_default.c ****             lv_obj_add_style(obj, &styles->scrollbar_scrolled, LV_PART_SCROLLBAR | LV_STATE_SCROLLE
 201              		.loc 1 619 13 is_stmt 1 view .LVU54
 619:lvgl/lvgl/src/extra/themes/default/lv_theme_default.c ****             lv_obj_add_style(obj, &styles->scrollbar_scrolled, LV_PART_SCROLLBAR | LV_STATE_SCROLLE
 202              		.loc 1 619 42 is_stmt 0 view .LVU55
 203 00ba 2968     		ldr	r1, [r5]
 619:lvgl/lvgl/src/extra/themes/default/lv_theme_default.c ****             lv_obj_add_style(obj, &styles->scrollbar_scrolled, LV_PART_SCROLLBAR | LV_STATE_SCROLLE
 204              		.loc 1 619 13 view .LVU56
 205 00bc 4FF48032 		mov	r2, #65536
 206 00c0 0831     		adds	r1, r1, #8
 207 00c2 2046     		mov	r0, r4
 208 00c4 FFF7FEFF 		bl	lv_obj_add_style
 209              	.LVL26:
 620:lvgl/lvgl/src/extra/themes/default/lv_theme_default.c ****             return;
 210              		.loc 1 620 13 is_stmt 1 view .LVU57
 620:lvgl/lvgl/src/extra/themes/default/lv_theme_default.c ****             return;
 211              		.loc 1 620 42 is_stmt 0 view .LVU58
 212 00c8 2968     		ldr	r1, [r5]
 620:lvgl/lvgl/src/extra/themes/default/lv_theme_default.c ****             return;
 213              		.loc 1 620 13 view .LVU59
 214 00ca 814A     		ldr	r2, .L53+12
 215 00cc 1031     		adds	r1, r1, #16
 216 00ce 2046     		mov	r0, r4
 217 00d0 FFF7FEFF 		bl	lv_obj_add_style
 218              	.LVL27:
 621:lvgl/lvgl/src/extra/themes/default/lv_theme_default.c ****         }
 219              		.loc 1 621 13 is_stmt 1 view .LVU60
 220 00d4 A9E7     		b	.L1
 221              	.LVL28:
ARM GAS  C:\Users\gx\AppData\Local\Temp\ccQfGIQ4.s 			page 23


 222              	.L45:
 628:lvgl/lvgl/src/extra/themes/default/lv_theme_default.c ****             lv_obj_add_style(obj, &styles->pad_tiny, 0);
 223              		.loc 1 628 13 view .LVU61
 628:lvgl/lvgl/src/extra/themes/default/lv_theme_default.c ****             lv_obj_add_style(obj, &styles->pad_tiny, 0);
 224              		.loc 1 628 42 is_stmt 0 view .LVU62
 225 00d6 7D4D     		ldr	r5, .L53+8
 226              	.LVL29:
 628:lvgl/lvgl/src/extra/themes/default/lv_theme_default.c ****             lv_obj_add_style(obj, &styles->pad_tiny, 0);
 227              		.loc 1 628 42 view .LVU63
 228 00d8 2968     		ldr	r1, [r5]
 628:lvgl/lvgl/src/extra/themes/default/lv_theme_default.c ****             lv_obj_add_style(obj, &styles->pad_tiny, 0);
 229              		.loc 1 628 13 view .LVU64
 230 00da 0022     		movs	r2, #0
 231 00dc 4831     		adds	r1, r1, #72
 232 00de 2046     		mov	r0, r4
 233 00e0 FFF7FEFF 		bl	lv_obj_add_style
 234              	.LVL30:
 629:lvgl/lvgl/src/extra/themes/default/lv_theme_default.c ****             return;
 235              		.loc 1 629 13 is_stmt 1 view .LVU65
 629:lvgl/lvgl/src/extra/themes/default/lv_theme_default.c ****             return;
 236              		.loc 1 629 42 is_stmt 0 view .LVU66
 237 00e4 2968     		ldr	r1, [r5]
 629:lvgl/lvgl/src/extra/themes/default/lv_theme_default.c ****             return;
 238              		.loc 1 629 13 view .LVU67
 239 00e6 0022     		movs	r2, #0
 240 00e8 7031     		adds	r1, r1, #112
 241 00ea 2046     		mov	r0, r4
 242 00ec FFF7FEFF 		bl	lv_obj_add_style
 243              	.LVL31:
 630:lvgl/lvgl/src/extra/themes/default/lv_theme_default.c ****         }
 244              		.loc 1 630 13 is_stmt 1 view .LVU68
 245 00f0 9BE7     		b	.L1
 246              	.LVL32:
 247              	.L46:
 633:lvgl/lvgl/src/extra/themes/default/lv_theme_default.c ****             lv_obj_add_style(obj, &styles->scr, 0);
 248              		.loc 1 633 68 is_stmt 0 discriminator 1 view .LVU69
 249 00f2 2046     		mov	r0, r4
 250 00f4 FFF7FEFF 		bl	lv_obj_get_parent
 251              	.LVL33:
 633:lvgl/lvgl/src/extra/themes/default/lv_theme_default.c ****             lv_obj_add_style(obj, &styles->scr, 0);
 252              		.loc 1 633 50 discriminator 1 view .LVU70
 253 00f8 7649     		ldr	r1, .L53+16
 254 00fa FFF7FEFF 		bl	lv_obj_check_type
 255              	.LVL34:
 633:lvgl/lvgl/src/extra/themes/default/lv_theme_default.c ****             lv_obj_add_style(obj, &styles->scr, 0);
 256              		.loc 1 633 47 discriminator 1 view .LVU71
 257 00fe 0028     		cmp	r0, #0
 258 0100 BFD0     		beq	.L7
 634:lvgl/lvgl/src/extra/themes/default/lv_theme_default.c ****             lv_obj_add_style(obj, &styles->pad_normal, 0);
 259              		.loc 1 634 13 is_stmt 1 view .LVU72
 634:lvgl/lvgl/src/extra/themes/default/lv_theme_default.c ****             lv_obj_add_style(obj, &styles->pad_normal, 0);
 260              		.loc 1 634 42 is_stmt 0 view .LVU73
 261 0102 724D     		ldr	r5, .L53+8
 262              	.LVL35:
 634:lvgl/lvgl/src/extra/themes/default/lv_theme_default.c ****             lv_obj_add_style(obj, &styles->pad_normal, 0);
 263              		.loc 1 634 13 view .LVU74
 264 0104 0022     		movs	r2, #0
ARM GAS  C:\Users\gx\AppData\Local\Temp\ccQfGIQ4.s 			page 24


 265 0106 2968     		ldr	r1, [r5]
 266 0108 2046     		mov	r0, r4
 267 010a FFF7FEFF 		bl	lv_obj_add_style
 268              	.LVL36:
 635:lvgl/lvgl/src/extra/themes/default/lv_theme_default.c ****             lv_obj_add_style(obj, &styles->scrollbar, LV_PART_SCROLLBAR);
 269              		.loc 1 635 13 is_stmt 1 view .LVU75
 635:lvgl/lvgl/src/extra/themes/default/lv_theme_default.c ****             lv_obj_add_style(obj, &styles->scrollbar, LV_PART_SCROLLBAR);
 270              		.loc 1 635 42 is_stmt 0 view .LVU76
 271 010e 2968     		ldr	r1, [r5]
 635:lvgl/lvgl/src/extra/themes/default/lv_theme_default.c ****             lv_obj_add_style(obj, &styles->scrollbar, LV_PART_SCROLLBAR);
 272              		.loc 1 635 13 view .LVU77
 273 0110 0022     		movs	r2, #0
 274 0112 8031     		adds	r1, r1, #128
 275 0114 2046     		mov	r0, r4
 276 0116 FFF7FEFF 		bl	lv_obj_add_style
 277              	.LVL37:
 636:lvgl/lvgl/src/extra/themes/default/lv_theme_default.c ****             lv_obj_add_style(obj, &styles->scrollbar_scrolled, LV_PART_SCROLLBAR | LV_STATE_SCROLLE
 278              		.loc 1 636 13 is_stmt 1 view .LVU78
 636:lvgl/lvgl/src/extra/themes/default/lv_theme_default.c ****             lv_obj_add_style(obj, &styles->scrollbar_scrolled, LV_PART_SCROLLBAR | LV_STATE_SCROLLE
 279              		.loc 1 636 42 is_stmt 0 view .LVU79
 280 011a 2968     		ldr	r1, [r5]
 636:lvgl/lvgl/src/extra/themes/default/lv_theme_default.c ****             lv_obj_add_style(obj, &styles->scrollbar_scrolled, LV_PART_SCROLLBAR | LV_STATE_SCROLLE
 281              		.loc 1 636 13 view .LVU80
 282 011c 4FF48032 		mov	r2, #65536
 283 0120 0831     		adds	r1, r1, #8
 284 0122 2046     		mov	r0, r4
 285 0124 FFF7FEFF 		bl	lv_obj_add_style
 286              	.LVL38:
 637:lvgl/lvgl/src/extra/themes/default/lv_theme_default.c ****             return;
 287              		.loc 1 637 13 is_stmt 1 view .LVU81
 637:lvgl/lvgl/src/extra/themes/default/lv_theme_default.c ****             return;
 288              		.loc 1 637 42 is_stmt 0 view .LVU82
 289 0128 2968     		ldr	r1, [r5]
 637:lvgl/lvgl/src/extra/themes/default/lv_theme_default.c ****             return;
 290              		.loc 1 637 13 view .LVU83
 291 012a 694A     		ldr	r2, .L53+12
 292 012c 1031     		adds	r1, r1, #16
 293 012e 2046     		mov	r0, r4
 294 0130 FFF7FEFF 		bl	lv_obj_add_style
 295              	.LVL39:
 638:lvgl/lvgl/src/extra/themes/default/lv_theme_default.c ****         }
 296              		.loc 1 638 13 is_stmt 1 view .LVU84
 297 0134 79E7     		b	.L1
 298              	.L4:
 638:lvgl/lvgl/src/extra/themes/default/lv_theme_default.c ****         }
 299              		.loc 1 638 13 is_stmt 0 view .LVU85
 300              	.LBE82:
 646:lvgl/lvgl/src/extra/themes/default/lv_theme_default.c ****         lv_obj_add_style(obj, &styles->btn, 0);
 301              		.loc 1 646 10 is_stmt 1 view .LVU86
 646:lvgl/lvgl/src/extra/themes/default/lv_theme_default.c ****         lv_obj_add_style(obj, &styles->btn, 0);
 302              		.loc 1 646 13 is_stmt 0 view .LVU87
 303 0136 6849     		ldr	r1, .L53+20
 304 0138 2046     		mov	r0, r4
 305 013a FFF7FEFF 		bl	lv_obj_check_type
 306              	.LVL40:
 646:lvgl/lvgl/src/extra/themes/default/lv_theme_default.c ****         lv_obj_add_style(obj, &styles->btn, 0);
 307              		.loc 1 646 12 view .LVU88
ARM GAS  C:\Users\gx\AppData\Local\Temp\ccQfGIQ4.s 			page 25


 308 013e 0028     		cmp	r0, #0
 309 0140 61D0     		beq	.L9
 647:lvgl/lvgl/src/extra/themes/default/lv_theme_default.c ****         lv_obj_add_style(obj, &styles->bg_color_primary, 0);
 310              		.loc 1 647 9 is_stmt 1 view .LVU89
 647:lvgl/lvgl/src/extra/themes/default/lv_theme_default.c ****         lv_obj_add_style(obj, &styles->bg_color_primary, 0);
 311              		.loc 1 647 38 is_stmt 0 view .LVU90
 312 0142 624D     		ldr	r5, .L53+8
 313 0144 2968     		ldr	r1, [r5]
 647:lvgl/lvgl/src/extra/themes/default/lv_theme_default.c ****         lv_obj_add_style(obj, &styles->bg_color_primary, 0);
 314              		.loc 1 647 9 view .LVU91
 315 0146 0022     		movs	r2, #0
 316 0148 2031     		adds	r1, r1, #32
 317 014a 2046     		mov	r0, r4
 318 014c FFF7FEFF 		bl	lv_obj_add_style
 319              	.LVL41:
 648:lvgl/lvgl/src/extra/themes/default/lv_theme_default.c ****         lv_obj_add_style(obj, &styles->transition_delayed, 0);
 320              		.loc 1 648 9 is_stmt 1 view .LVU92
 648:lvgl/lvgl/src/extra/themes/default/lv_theme_default.c ****         lv_obj_add_style(obj, &styles->transition_delayed, 0);
 321              		.loc 1 648 38 is_stmt 0 view .LVU93
 322 0150 2968     		ldr	r1, [r5]
 648:lvgl/lvgl/src/extra/themes/default/lv_theme_default.c ****         lv_obj_add_style(obj, &styles->transition_delayed, 0);
 323              		.loc 1 648 9 view .LVU94
 324 0152 0022     		movs	r2, #0
 325 0154 2831     		adds	r1, r1, #40
 326 0156 2046     		mov	r0, r4
 327 0158 FFF7FEFF 		bl	lv_obj_add_style
 328              	.LVL42:
 649:lvgl/lvgl/src/extra/themes/default/lv_theme_default.c ****         lv_obj_add_style(obj, &styles->pressed, LV_STATE_PRESSED);
 329              		.loc 1 649 9 is_stmt 1 view .LVU95
 649:lvgl/lvgl/src/extra/themes/default/lv_theme_default.c ****         lv_obj_add_style(obj, &styles->pressed, LV_STATE_PRESSED);
 330              		.loc 1 649 38 is_stmt 0 view .LVU96
 331 015c 2968     		ldr	r1, [r5]
 649:lvgl/lvgl/src/extra/themes/default/lv_theme_default.c ****         lv_obj_add_style(obj, &styles->pressed, LV_STATE_PRESSED);
 332              		.loc 1 649 9 view .LVU97
 333 015e 0022     		movs	r2, #0
 334 0160 D031     		adds	r1, r1, #208
 335 0162 2046     		mov	r0, r4
 336 0164 FFF7FEFF 		bl	lv_obj_add_style
 337              	.LVL43:
 650:lvgl/lvgl/src/extra/themes/default/lv_theme_default.c ****         lv_obj_add_style(obj, &styles->transition_normal, LV_STATE_PRESSED);
 338              		.loc 1 650 9 is_stmt 1 view .LVU98
 650:lvgl/lvgl/src/extra/themes/default/lv_theme_default.c ****         lv_obj_add_style(obj, &styles->transition_normal, LV_STATE_PRESSED);
 339              		.loc 1 650 38 is_stmt 0 view .LVU99
 340 0168 2968     		ldr	r1, [r5]
 650:lvgl/lvgl/src/extra/themes/default/lv_theme_default.c ****         lv_obj_add_style(obj, &styles->transition_normal, LV_STATE_PRESSED);
 341              		.loc 1 650 9 view .LVU100
 342 016a 2022     		movs	r2, #32
 343 016c 5831     		adds	r1, r1, #88
 344 016e 2046     		mov	r0, r4
 345 0170 FFF7FEFF 		bl	lv_obj_add_style
 346              	.LVL44:
 651:lvgl/lvgl/src/extra/themes/default/lv_theme_default.c ****         lv_obj_add_style(obj, &styles->outline_primary, LV_STATE_FOCUS_KEY);
 347              		.loc 1 651 9 is_stmt 1 view .LVU101
 651:lvgl/lvgl/src/extra/themes/default/lv_theme_default.c ****         lv_obj_add_style(obj, &styles->outline_primary, LV_STATE_FOCUS_KEY);
 348              		.loc 1 651 38 is_stmt 0 view .LVU102
 349 0174 2968     		ldr	r1, [r5]
 651:lvgl/lvgl/src/extra/themes/default/lv_theme_default.c ****         lv_obj_add_style(obj, &styles->outline_primary, LV_STATE_FOCUS_KEY);
ARM GAS  C:\Users\gx\AppData\Local\Temp\ccQfGIQ4.s 			page 26


 350              		.loc 1 651 9 view .LVU103
 351 0176 2022     		movs	r2, #32
 352 0178 D831     		adds	r1, r1, #216
 353 017a 2046     		mov	r0, r4
 354 017c FFF7FEFF 		bl	lv_obj_add_style
 355              	.LVL45:
 652:lvgl/lvgl/src/extra/themes/default/lv_theme_default.c **** #if LV_THEME_DEFAULT_GROW
 356              		.loc 1 652 9 is_stmt 1 view .LVU104
 652:lvgl/lvgl/src/extra/themes/default/lv_theme_default.c **** #if LV_THEME_DEFAULT_GROW
 357              		.loc 1 652 38 is_stmt 0 view .LVU105
 358 0180 2968     		ldr	r1, [r5]
 652:lvgl/lvgl/src/extra/themes/default/lv_theme_default.c **** #if LV_THEME_DEFAULT_GROW
 359              		.loc 1 652 9 view .LVU106
 360 0182 0422     		movs	r2, #4
 361 0184 A031     		adds	r1, r1, #160
 362 0186 2046     		mov	r0, r4
 363 0188 FFF7FEFF 		bl	lv_obj_add_style
 364              	.LVL46:
 654:lvgl/lvgl/src/extra/themes/default/lv_theme_default.c **** #endif
 365              		.loc 1 654 9 is_stmt 1 view .LVU107
 654:lvgl/lvgl/src/extra/themes/default/lv_theme_default.c **** #endif
 366              		.loc 1 654 38 is_stmt 0 view .LVU108
 367 018c 2968     		ldr	r1, [r5]
 654:lvgl/lvgl/src/extra/themes/default/lv_theme_default.c **** #endif
 368              		.loc 1 654 9 view .LVU109
 369 018e 2022     		movs	r2, #32
 370 0190 C831     		adds	r1, r1, #200
 371 0192 2046     		mov	r0, r4
 372 0194 FFF7FEFF 		bl	lv_obj_add_style
 373              	.LVL47:
 656:lvgl/lvgl/src/extra/themes/default/lv_theme_default.c ****         lv_obj_add_style(obj, &styles->disabled, LV_STATE_DISABLED);
 374              		.loc 1 656 9 is_stmt 1 view .LVU110
 656:lvgl/lvgl/src/extra/themes/default/lv_theme_default.c ****         lv_obj_add_style(obj, &styles->disabled, LV_STATE_DISABLED);
 375              		.loc 1 656 38 is_stmt 0 view .LVU111
 376 0198 2968     		ldr	r1, [r5]
 656:lvgl/lvgl/src/extra/themes/default/lv_theme_default.c ****         lv_obj_add_style(obj, &styles->disabled, LV_STATE_DISABLED);
 377              		.loc 1 656 9 view .LVU112
 378 019a 0122     		movs	r2, #1
 379 019c 3831     		adds	r1, r1, #56
 380 019e 2046     		mov	r0, r4
 381 01a0 FFF7FEFF 		bl	lv_obj_add_style
 382              	.LVL48:
 657:lvgl/lvgl/src/extra/themes/default/lv_theme_default.c ****     }
 383              		.loc 1 657 9 is_stmt 1 view .LVU113
 657:lvgl/lvgl/src/extra/themes/default/lv_theme_default.c ****     }
 384              		.loc 1 657 38 is_stmt 0 view .LVU114
 385 01a4 2968     		ldr	r1, [r5]
 657:lvgl/lvgl/src/extra/themes/default/lv_theme_default.c ****     }
 386              		.loc 1 657 9 view .LVU115
 387 01a6 8022     		movs	r2, #128
 388 01a8 6031     		adds	r1, r1, #96
 389 01aa 2046     		mov	r0, r4
 390 01ac FFF7FEFF 		bl	lv_obj_add_style
 391              	.LVL49:
 392              	.L8:
 969:lvgl/lvgl/src/extra/themes/default/lv_theme_default.c ****         lv_obj_add_style(obj, &styles->scr, 0);
 393              		.loc 1 969 5 is_stmt 1 view .LVU116
ARM GAS  C:\Users\gx\AppData\Local\Temp\ccQfGIQ4.s 			page 27


 969:lvgl/lvgl/src/extra/themes/default/lv_theme_default.c ****         lv_obj_add_style(obj, &styles->scr, 0);
 394              		.loc 1 969 8 is_stmt 0 view .LVU117
 395 01b0 4549     		ldr	r1, .L53+4
 396 01b2 2046     		mov	r0, r4
 397 01b4 FFF7FEFF 		bl	lv_obj_check_type
 398              	.LVL50:
 969:lvgl/lvgl/src/extra/themes/default/lv_theme_default.c ****         lv_obj_add_style(obj, &styles->scr, 0);
 399              		.loc 1 969 7 view .LVU118
 400 01b8 0028     		cmp	r0, #0
 401 01ba 40F0F485 		bne	.L47
 977:lvgl/lvgl/src/extra/themes/default/lv_theme_default.c ****         lv_obj_add_style(obj, &styles->colorwheel_main, 0);
 402              		.loc 1 977 10 is_stmt 1 view .LVU119
 977:lvgl/lvgl/src/extra/themes/default/lv_theme_default.c ****         lv_obj_add_style(obj, &styles->colorwheel_main, 0);
 403              		.loc 1 977 13 is_stmt 0 view .LVU120
 404 01be 4749     		ldr	r1, .L53+24
 405 01c0 2046     		mov	r0, r4
 406 01c2 FFF7FEFF 		bl	lv_obj_check_type
 407              	.LVL51:
 977:lvgl/lvgl/src/extra/themes/default/lv_theme_default.c ****         lv_obj_add_style(obj, &styles->colorwheel_main, 0);
 408              		.loc 1 977 12 view .LVU121
 409 01c6 0028     		cmp	r0, #0
 410 01c8 00F0FB85 		beq	.L40
 978:lvgl/lvgl/src/extra/themes/default/lv_theme_default.c ****         lv_obj_add_style(obj, &styles->pad_normal, 0);
 411              		.loc 1 978 9 is_stmt 1 view .LVU122
 978:lvgl/lvgl/src/extra/themes/default/lv_theme_default.c ****         lv_obj_add_style(obj, &styles->pad_normal, 0);
 412              		.loc 1 978 38 is_stmt 0 view .LVU123
 413 01cc 3F4D     		ldr	r5, .L53+8
 414 01ce 2968     		ldr	r1, [r5]
 978:lvgl/lvgl/src/extra/themes/default/lv_theme_default.c ****         lv_obj_add_style(obj, &styles->pad_normal, 0);
 415              		.loc 1 978 9 view .LVU124
 416 01d0 0022     		movs	r2, #0
 417 01d2 01F5C471 		add	r1, r1, #392
 418 01d6 2046     		mov	r0, r4
 419 01d8 FFF7FEFF 		bl	lv_obj_add_style
 420              	.LVL52:
 979:lvgl/lvgl/src/extra/themes/default/lv_theme_default.c ****         lv_obj_add_style(obj, &styles->bg_color_white, LV_PART_KNOB);
 421              		.loc 1 979 9 is_stmt 1 view .LVU125
 979:lvgl/lvgl/src/extra/themes/default/lv_theme_default.c ****         lv_obj_add_style(obj, &styles->bg_color_white, LV_PART_KNOB);
 422              		.loc 1 979 38 is_stmt 0 view .LVU126
 423 01dc 2968     		ldr	r1, [r5]
 979:lvgl/lvgl/src/extra/themes/default/lv_theme_default.c ****         lv_obj_add_style(obj, &styles->bg_color_white, LV_PART_KNOB);
 424              		.loc 1 979 9 view .LVU127
 425 01de 0022     		movs	r2, #0
 426 01e0 8031     		adds	r1, r1, #128
 427 01e2 2046     		mov	r0, r4
 428 01e4 FFF7FEFF 		bl	lv_obj_add_style
 429              	.LVL53:
 980:lvgl/lvgl/src/extra/themes/default/lv_theme_default.c ****         lv_obj_add_style(obj, &styles->pad_normal, LV_PART_KNOB);
 430              		.loc 1 980 9 is_stmt 1 view .LVU128
 980:lvgl/lvgl/src/extra/themes/default/lv_theme_default.c ****         lv_obj_add_style(obj, &styles->pad_normal, LV_PART_KNOB);
 431              		.loc 1 980 38 is_stmt 0 view .LVU129
 432 01e8 2968     		ldr	r1, [r5]
 980:lvgl/lvgl/src/extra/themes/default/lv_theme_default.c ****         lv_obj_add_style(obj, &styles->pad_normal, LV_PART_KNOB);
 433              		.loc 1 980 9 view .LVU130
 434 01ea 4FF44032 		mov	r2, #196608
 435 01ee 5031     		adds	r1, r1, #80
 436 01f0 2046     		mov	r0, r4
ARM GAS  C:\Users\gx\AppData\Local\Temp\ccQfGIQ4.s 			page 28


 437 01f2 FFF7FEFF 		bl	lv_obj_add_style
 438              	.LVL54:
 981:lvgl/lvgl/src/extra/themes/default/lv_theme_default.c ****     }
 439              		.loc 1 981 9 is_stmt 1 view .LVU131
 981:lvgl/lvgl/src/extra/themes/default/lv_theme_default.c ****     }
 440              		.loc 1 981 38 is_stmt 0 view .LVU132
 441 01f6 2968     		ldr	r1, [r5]
 981:lvgl/lvgl/src/extra/themes/default/lv_theme_default.c ****     }
 442              		.loc 1 981 9 view .LVU133
 443 01f8 4FF44032 		mov	r2, #196608
 444 01fc 8031     		adds	r1, r1, #128
 445 01fe 2046     		mov	r0, r4
 446 0200 FFF7FEFF 		bl	lv_obj_add_style
 447              	.LVL55:
 448 0204 11E7     		b	.L1
 449              	.L9:
 662:lvgl/lvgl/src/extra/themes/default/lv_theme_default.c ****         lv_obj_add_style(obj, &styles->line, 0);
 450              		.loc 1 662 10 is_stmt 1 view .LVU134
 662:lvgl/lvgl/src/extra/themes/default/lv_theme_default.c ****         lv_obj_add_style(obj, &styles->line, 0);
 451              		.loc 1 662 13 is_stmt 0 view .LVU135
 452 0206 3649     		ldr	r1, .L53+28
 453 0208 2046     		mov	r0, r4
 454 020a FFF7FEFF 		bl	lv_obj_check_type
 455              	.LVL56:
 662:lvgl/lvgl/src/extra/themes/default/lv_theme_default.c ****         lv_obj_add_style(obj, &styles->line, 0);
 456              		.loc 1 662 12 view .LVU136
 457 020e 40B1     		cbz	r0, .L10
 663:lvgl/lvgl/src/extra/themes/default/lv_theme_default.c ****     }
 458              		.loc 1 663 9 is_stmt 1 view .LVU137
 663:lvgl/lvgl/src/extra/themes/default/lv_theme_default.c ****     }
 459              		.loc 1 663 38 is_stmt 0 view .LVU138
 460 0210 2E4B     		ldr	r3, .L53+8
 461 0212 1968     		ldr	r1, [r3]
 663:lvgl/lvgl/src/extra/themes/default/lv_theme_default.c ****     }
 462              		.loc 1 663 9 view .LVU139
 463 0214 0022     		movs	r2, #0
 464 0216 01F5A471 		add	r1, r1, #328
 465 021a 2046     		mov	r0, r4
 466 021c FFF7FEFF 		bl	lv_obj_add_style
 467              	.LVL57:
 468 0220 C6E7     		b	.L8
 469              	.L10:
 668:lvgl/lvgl/src/extra/themes/default/lv_theme_default.c **** #if LV_USE_MSGBOX
 470              		.loc 1 668 10 is_stmt 1 view .LVU140
 668:lvgl/lvgl/src/extra/themes/default/lv_theme_default.c **** #if LV_USE_MSGBOX
 471              		.loc 1 668 13 is_stmt 0 view .LVU141
 472 0222 3049     		ldr	r1, .L53+32
 473 0224 2046     		mov	r0, r4
 474 0226 FFF7FEFF 		bl	lv_obj_check_type
 475              	.LVL58:
 668:lvgl/lvgl/src/extra/themes/default/lv_theme_default.c **** #if LV_USE_MSGBOX
 476              		.loc 1 668 12 view .LVU142
 477 022a 0028     		cmp	r0, #0
 478 022c 00F0D980 		beq	.L11
 670:lvgl/lvgl/src/extra/themes/default/lv_theme_default.c ****             lv_obj_add_style(obj, &styles->msgbox_btn_bg, 0);
 479              		.loc 1 670 9 is_stmt 1 view .LVU143
 670:lvgl/lvgl/src/extra/themes/default/lv_theme_default.c ****             lv_obj_add_style(obj, &styles->msgbox_btn_bg, 0);
ARM GAS  C:\Users\gx\AppData\Local\Temp\ccQfGIQ4.s 			page 29


 480              		.loc 1 670 30 is_stmt 0 view .LVU144
 481 0230 2046     		mov	r0, r4
 482 0232 FFF7FEFF 		bl	lv_obj_get_parent
 483              	.LVL59:
 670:lvgl/lvgl/src/extra/themes/default/lv_theme_default.c ****             lv_obj_add_style(obj, &styles->msgbox_btn_bg, 0);
 484              		.loc 1 670 12 view .LVU145
 485 0236 2C49     		ldr	r1, .L53+36
 486 0238 FFF7FEFF 		bl	lv_obj_check_type
 487              	.LVL60:
 670:lvgl/lvgl/src/extra/themes/default/lv_theme_default.c ****             lv_obj_add_style(obj, &styles->msgbox_btn_bg, 0);
 488              		.loc 1 670 11 view .LVU146
 489 023c 0028     		cmp	r0, #0
 490 023e 5FD1     		bne	.L48
 683:lvgl/lvgl/src/extra/themes/default/lv_theme_default.c ****             lv_obj_add_style(obj, &styles->bg_color_white, 0);
 491              		.loc 1 683 9 is_stmt 1 view .LVU147
 683:lvgl/lvgl/src/extra/themes/default/lv_theme_default.c ****             lv_obj_add_style(obj, &styles->bg_color_white, 0);
 492              		.loc 1 683 30 is_stmt 0 view .LVU148
 493 0240 2046     		mov	r0, r4
 494 0242 FFF7FEFF 		bl	lv_obj_get_parent
 495              	.LVL61:
 683:lvgl/lvgl/src/extra/themes/default/lv_theme_default.c ****             lv_obj_add_style(obj, &styles->bg_color_white, 0);
 496              		.loc 1 683 12 view .LVU149
 497 0246 2049     		ldr	r1, .L53+4
 498 0248 FFF7FEFF 		bl	lv_obj_check_type
 499              	.LVL62:
 683:lvgl/lvgl/src/extra/themes/default/lv_theme_default.c ****             lv_obj_add_style(obj, &styles->bg_color_white, 0);
 500              		.loc 1 683 11 view .LVU150
 501 024c 0028     		cmp	r0, #0
 502 024e 40F08B80 		bne	.L49
 696:lvgl/lvgl/src/extra/themes/default/lv_theme_default.c ****         lv_obj_add_style(obj, &styles->outline_primary, LV_STATE_FOCUS_KEY);
 503              		.loc 1 696 9 is_stmt 1 view .LVU151
 696:lvgl/lvgl/src/extra/themes/default/lv_theme_default.c ****         lv_obj_add_style(obj, &styles->outline_primary, LV_STATE_FOCUS_KEY);
 504              		.loc 1 696 38 is_stmt 0 view .LVU152
 505 0252 1E4D     		ldr	r5, .L53+8
 506 0254 2968     		ldr	r1, [r5]
 696:lvgl/lvgl/src/extra/themes/default/lv_theme_default.c ****         lv_obj_add_style(obj, &styles->outline_primary, LV_STATE_FOCUS_KEY);
 507              		.loc 1 696 9 view .LVU153
 508 0256 0022     		movs	r2, #0
 509 0258 1831     		adds	r1, r1, #24
 510 025a 2046     		mov	r0, r4
 511 025c FFF7FEFF 		bl	lv_obj_add_style
 512              	.LVL63:
 697:lvgl/lvgl/src/extra/themes/default/lv_theme_default.c ****         lv_obj_add_style(obj, &styles->outline_secondary, LV_STATE_EDITED);
 513              		.loc 1 697 9 is_stmt 1 view .LVU154
 697:lvgl/lvgl/src/extra/themes/default/lv_theme_default.c ****         lv_obj_add_style(obj, &styles->outline_secondary, LV_STATE_EDITED);
 514              		.loc 1 697 38 is_stmt 0 view .LVU155
 515 0260 2968     		ldr	r1, [r5]
 697:lvgl/lvgl/src/extra/themes/default/lv_theme_default.c ****         lv_obj_add_style(obj, &styles->outline_secondary, LV_STATE_EDITED);
 516              		.loc 1 697 9 view .LVU156
 517 0262 0422     		movs	r2, #4
 518 0264 A031     		adds	r1, r1, #160
 519 0266 2046     		mov	r0, r4
 520 0268 FFF7FEFF 		bl	lv_obj_add_style
 521              	.LVL64:
 698:lvgl/lvgl/src/extra/themes/default/lv_theme_default.c ****         lv_obj_add_style(obj, &styles->btn, LV_PART_ITEMS);
 522              		.loc 1 698 9 is_stmt 1 view .LVU157
 698:lvgl/lvgl/src/extra/themes/default/lv_theme_default.c ****         lv_obj_add_style(obj, &styles->btn, LV_PART_ITEMS);
ARM GAS  C:\Users\gx\AppData\Local\Temp\ccQfGIQ4.s 			page 30


 523              		.loc 1 698 38 is_stmt 0 view .LVU158
 524 026c 2968     		ldr	r1, [r5]
 698:lvgl/lvgl/src/extra/themes/default/lv_theme_default.c ****         lv_obj_add_style(obj, &styles->btn, LV_PART_ITEMS);
 525              		.loc 1 698 9 view .LVU159
 526 026e 0822     		movs	r2, #8
 527 0270 A831     		adds	r1, r1, #168
 528 0272 2046     		mov	r0, r4
 529 0274 FFF7FEFF 		bl	lv_obj_add_style
 530              	.LVL65:
 699:lvgl/lvgl/src/extra/themes/default/lv_theme_default.c ****         lv_obj_add_style(obj, &styles->disabled, LV_PART_ITEMS | LV_STATE_DISABLED);
 531              		.loc 1 699 9 is_stmt 1 view .LVU160
 699:lvgl/lvgl/src/extra/themes/default/lv_theme_default.c ****         lv_obj_add_style(obj, &styles->disabled, LV_PART_ITEMS | LV_STATE_DISABLED);
 532              		.loc 1 699 38 is_stmt 0 view .LVU161
 533 0278 2968     		ldr	r1, [r5]
 699:lvgl/lvgl/src/extra/themes/default/lv_theme_default.c ****         lv_obj_add_style(obj, &styles->disabled, LV_PART_ITEMS | LV_STATE_DISABLED);
 534              		.loc 1 699 9 view .LVU162
 535 027a 4FF4A022 		mov	r2, #327680
 536 027e 2031     		adds	r1, r1, #32
 537 0280 2046     		mov	r0, r4
 538 0282 FFF7FEFF 		bl	lv_obj_add_style
 539              	.LVL66:
 700:lvgl/lvgl/src/extra/themes/default/lv_theme_default.c ****         lv_obj_add_style(obj, &styles->pressed, LV_PART_ITEMS | LV_STATE_PRESSED);
 540              		.loc 1 700 9 is_stmt 1 view .LVU163
 700:lvgl/lvgl/src/extra/themes/default/lv_theme_default.c ****         lv_obj_add_style(obj, &styles->pressed, LV_PART_ITEMS | LV_STATE_PRESSED);
 541              		.loc 1 700 38 is_stmt 0 view .LVU164
 542 0286 2968     		ldr	r1, [r5]
 700:lvgl/lvgl/src/extra/themes/default/lv_theme_default.c ****         lv_obj_add_style(obj, &styles->pressed, LV_PART_ITEMS | LV_STATE_PRESSED);
 543              		.loc 1 700 9 view .LVU165
 544 0288 184A     		ldr	r2, .L53+40
 545 028a 6031     		adds	r1, r1, #96
 546 028c 2046     		mov	r0, r4
 547 028e FFF7FEFF 		bl	lv_obj_add_style
 548              	.LVL67:
 701:lvgl/lvgl/src/extra/themes/default/lv_theme_default.c ****         lv_obj_add_style(obj, &styles->bg_color_primary, LV_PART_ITEMS | LV_STATE_CHECKED);
 549              		.loc 1 701 9 is_stmt 1 view .LVU166
 701:lvgl/lvgl/src/extra/themes/default/lv_theme_default.c ****         lv_obj_add_style(obj, &styles->bg_color_primary, LV_PART_ITEMS | LV_STATE_CHECKED);
 550              		.loc 1 701 38 is_stmt 0 view .LVU167
 551 0292 2968     		ldr	r1, [r5]
 701:lvgl/lvgl/src/extra/themes/default/lv_theme_default.c ****         lv_obj_add_style(obj, &styles->bg_color_primary, LV_PART_ITEMS | LV_STATE_CHECKED);
 552              		.loc 1 701 9 view .LVU168
 553 0294 164A     		ldr	r2, .L53+44
 554 0296 5831     		adds	r1, r1, #88
 555 0298 2046     		mov	r0, r4
 556 029a FFF7FEFF 		bl	lv_obj_add_style
 557              	.LVL68:
 702:lvgl/lvgl/src/extra/themes/default/lv_theme_default.c ****         lv_obj_add_style(obj, &styles->outline_primary, LV_PART_ITEMS | LV_STATE_FOCUS_KEY);
 558              		.loc 1 702 9 is_stmt 1 view .LVU169
 702:lvgl/lvgl/src/extra/themes/default/lv_theme_default.c ****         lv_obj_add_style(obj, &styles->outline_primary, LV_PART_ITEMS | LV_STATE_FOCUS_KEY);
 559              		.loc 1 702 38 is_stmt 0 view .LVU170
 560 029e 2968     		ldr	r1, [r5]
 702:lvgl/lvgl/src/extra/themes/default/lv_theme_default.c ****         lv_obj_add_style(obj, &styles->outline_primary, LV_PART_ITEMS | LV_STATE_FOCUS_KEY);
 561              		.loc 1 702 9 view .LVU171
 562 02a0 144A     		ldr	r2, .L53+48
 563 02a2 2831     		adds	r1, r1, #40
 564 02a4 2046     		mov	r0, r4
 565 02a6 FFF7FEFF 		bl	lv_obj_add_style
 566              	.LVL69:
ARM GAS  C:\Users\gx\AppData\Local\Temp\ccQfGIQ4.s 			page 31


 703:lvgl/lvgl/src/extra/themes/default/lv_theme_default.c ****         lv_obj_add_style(obj, &styles->outline_secondary, LV_PART_ITEMS | LV_STATE_EDITED);
 567              		.loc 1 703 9 is_stmt 1 view .LVU172
 703:lvgl/lvgl/src/extra/themes/default/lv_theme_default.c ****         lv_obj_add_style(obj, &styles->outline_secondary, LV_PART_ITEMS | LV_STATE_EDITED);
 568              		.loc 1 703 38 is_stmt 0 view .LVU173
 569 02aa 2968     		ldr	r1, [r5]
 703:lvgl/lvgl/src/extra/themes/default/lv_theme_default.c ****         lv_obj_add_style(obj, &styles->outline_secondary, LV_PART_ITEMS | LV_STATE_EDITED);
 570              		.loc 1 703 9 view .LVU174
 571 02ac 124A     		ldr	r2, .L53+52
 572 02ae A031     		adds	r1, r1, #160
 573 02b0 2046     		mov	r0, r4
 574 02b2 FFF7FEFF 		bl	lv_obj_add_style
 575              	.LVL70:
 704:lvgl/lvgl/src/extra/themes/default/lv_theme_default.c ****     }
 576              		.loc 1 704 9 is_stmt 1 view .LVU175
 704:lvgl/lvgl/src/extra/themes/default/lv_theme_default.c ****     }
 577              		.loc 1 704 38 is_stmt 0 view .LVU176
 578 02b6 2968     		ldr	r1, [r5]
 704:lvgl/lvgl/src/extra/themes/default/lv_theme_default.c ****     }
 579              		.loc 1 704 9 view .LVU177
 580 02b8 104A     		ldr	r2, .L53+56
 581 02ba A831     		adds	r1, r1, #168
 582 02bc 2046     		mov	r0, r4
 583 02be FFF7FEFF 		bl	lv_obj_add_style
 584              	.LVL71:
 585 02c2 75E7     		b	.L8
 586              	.L54:
 587              		.align	2
 588              	.L53:
 589 02c4 00000000 		.word	lv_obj_class
 590 02c8 00000000 		.word	lv_tabview_class
 591 02cc 00000000 		.word	.LANCHOR0
 592 02d0 40000100 		.word	65600
 593 02d4 00000000 		.word	lv_win_class
 594 02d8 00000000 		.word	lv_btn_class
 595 02dc 00000000 		.word	lv_colorwheel_class
 596 02e0 00000000 		.word	lv_line_class
 597 02e4 00000000 		.word	lv_btnmatrix_class
 598 02e8 00000000 		.word	lv_msgbox_class
 599 02ec 80000500 		.word	327808
 600 02f0 20000500 		.word	327712
 601 02f4 01000500 		.word	327681
 602 02f8 04000500 		.word	327684
 603 02fc 08000500 		.word	327688
 604              	.L48:
 671:lvgl/lvgl/src/extra/themes/default/lv_theme_default.c ****             lv_obj_add_style(obj, &styles->pad_gap, 0);
 605              		.loc 1 671 13 is_stmt 1 view .LVU178
 671:lvgl/lvgl/src/extra/themes/default/lv_theme_default.c ****             lv_obj_add_style(obj, &styles->pad_gap, 0);
 606              		.loc 1 671 42 is_stmt 0 view .LVU179
 607 0300 C54D     		ldr	r5, .L55
 608 0302 2968     		ldr	r1, [r5]
 671:lvgl/lvgl/src/extra/themes/default/lv_theme_default.c ****             lv_obj_add_style(obj, &styles->pad_gap, 0);
 609              		.loc 1 671 13 view .LVU180
 610 0304 0022     		movs	r2, #0
 611 0306 01F5CC71 		add	r1, r1, #408
 612 030a 2046     		mov	r0, r4
 613 030c FFF7FEFF 		bl	lv_obj_add_style
 614              	.LVL72:
ARM GAS  C:\Users\gx\AppData\Local\Temp\ccQfGIQ4.s 			page 32


 672:lvgl/lvgl/src/extra/themes/default/lv_theme_default.c ****             lv_obj_add_style(obj, &styles->btn, LV_PART_ITEMS);
 615              		.loc 1 672 13 is_stmt 1 view .LVU181
 672:lvgl/lvgl/src/extra/themes/default/lv_theme_default.c ****             lv_obj_add_style(obj, &styles->btn, LV_PART_ITEMS);
 616              		.loc 1 672 42 is_stmt 0 view .LVU182
 617 0310 2968     		ldr	r1, [r5]
 672:lvgl/lvgl/src/extra/themes/default/lv_theme_default.c ****             lv_obj_add_style(obj, &styles->btn, LV_PART_ITEMS);
 618              		.loc 1 672 13 view .LVU183
 619 0312 0022     		movs	r2, #0
 620 0314 8831     		adds	r1, r1, #136
 621 0316 2046     		mov	r0, r4
 622 0318 FFF7FEFF 		bl	lv_obj_add_style
 623              	.LVL73:
 673:lvgl/lvgl/src/extra/themes/default/lv_theme_default.c ****             lv_obj_add_style(obj, &styles->pressed, LV_PART_ITEMS | LV_STATE_PRESSED);
 624              		.loc 1 673 13 is_stmt 1 view .LVU184
 673:lvgl/lvgl/src/extra/themes/default/lv_theme_default.c ****             lv_obj_add_style(obj, &styles->pressed, LV_PART_ITEMS | LV_STATE_PRESSED);
 625              		.loc 1 673 42 is_stmt 0 view .LVU185
 626 031c 2968     		ldr	r1, [r5]
 673:lvgl/lvgl/src/extra/themes/default/lv_theme_default.c ****             lv_obj_add_style(obj, &styles->pressed, LV_PART_ITEMS | LV_STATE_PRESSED);
 627              		.loc 1 673 13 view .LVU186
 628 031e 4FF4A022 		mov	r2, #327680
 629 0322 2031     		adds	r1, r1, #32
 630 0324 2046     		mov	r0, r4
 631 0326 FFF7FEFF 		bl	lv_obj_add_style
 632              	.LVL74:
 674:lvgl/lvgl/src/extra/themes/default/lv_theme_default.c ****             lv_obj_add_style(obj, &styles->disabled, LV_PART_ITEMS | LV_STATE_DISABLED);
 633              		.loc 1 674 13 is_stmt 1 view .LVU187
 674:lvgl/lvgl/src/extra/themes/default/lv_theme_default.c ****             lv_obj_add_style(obj, &styles->disabled, LV_PART_ITEMS | LV_STATE_DISABLED);
 634              		.loc 1 674 42 is_stmt 0 view .LVU188
 635 032a 2968     		ldr	r1, [r5]
 674:lvgl/lvgl/src/extra/themes/default/lv_theme_default.c ****             lv_obj_add_style(obj, &styles->disabled, LV_PART_ITEMS | LV_STATE_DISABLED);
 636              		.loc 1 674 13 view .LVU189
 637 032c BB4A     		ldr	r2, .L55+4
 638 032e 5831     		adds	r1, r1, #88
 639 0330 2046     		mov	r0, r4
 640 0332 FFF7FEFF 		bl	lv_obj_add_style
 641              	.LVL75:
 675:lvgl/lvgl/src/extra/themes/default/lv_theme_default.c ****             lv_obj_add_style(obj, &styles->bg_color_primary, LV_PART_ITEMS | LV_STATE_CHECKED);
 642              		.loc 1 675 13 is_stmt 1 view .LVU190
 675:lvgl/lvgl/src/extra/themes/default/lv_theme_default.c ****             lv_obj_add_style(obj, &styles->bg_color_primary, LV_PART_ITEMS | LV_STATE_CHECKED);
 643              		.loc 1 675 42 is_stmt 0 view .LVU191
 644 0336 2968     		ldr	r1, [r5]
 675:lvgl/lvgl/src/extra/themes/default/lv_theme_default.c ****             lv_obj_add_style(obj, &styles->bg_color_primary, LV_PART_ITEMS | LV_STATE_CHECKED);
 645              		.loc 1 675 13 view .LVU192
 646 0338 B94A     		ldr	r2, .L55+8
 647 033a 6031     		adds	r1, r1, #96
 648 033c 2046     		mov	r0, r4
 649 033e FFF7FEFF 		bl	lv_obj_add_style
 650              	.LVL76:
 676:lvgl/lvgl/src/extra/themes/default/lv_theme_default.c ****             lv_obj_add_style(obj, &styles->bg_color_primary_muted, LV_PART_ITEMS | LV_STATE_FOCUS_K
 651              		.loc 1 676 13 is_stmt 1 view .LVU193
 676:lvgl/lvgl/src/extra/themes/default/lv_theme_default.c ****             lv_obj_add_style(obj, &styles->bg_color_primary_muted, LV_PART_ITEMS | LV_STATE_FOCUS_K
 652              		.loc 1 676 42 is_stmt 0 view .LVU194
 653 0342 2968     		ldr	r1, [r5]
 676:lvgl/lvgl/src/extra/themes/default/lv_theme_default.c ****             lv_obj_add_style(obj, &styles->bg_color_primary_muted, LV_PART_ITEMS | LV_STATE_FOCUS_K
 654              		.loc 1 676 13 view .LVU195
 655 0344 B74A     		ldr	r2, .L55+12
 656 0346 2831     		adds	r1, r1, #40
ARM GAS  C:\Users\gx\AppData\Local\Temp\ccQfGIQ4.s 			page 33


 657 0348 2046     		mov	r0, r4
 658 034a FFF7FEFF 		bl	lv_obj_add_style
 659              	.LVL77:
 677:lvgl/lvgl/src/extra/themes/default/lv_theme_default.c ****             lv_obj_add_style(obj, &styles->bg_color_secondary_muted, LV_PART_ITEMS | LV_STATE_EDITE
 660              		.loc 1 677 13 is_stmt 1 view .LVU196
 677:lvgl/lvgl/src/extra/themes/default/lv_theme_default.c ****             lv_obj_add_style(obj, &styles->bg_color_secondary_muted, LV_PART_ITEMS | LV_STATE_EDITE
 661              		.loc 1 677 42 is_stmt 0 view .LVU197
 662 034e 2968     		ldr	r1, [r5]
 677:lvgl/lvgl/src/extra/themes/default/lv_theme_default.c ****             lv_obj_add_style(obj, &styles->bg_color_secondary_muted, LV_PART_ITEMS | LV_STATE_EDITE
 663              		.loc 1 677 13 view .LVU198
 664 0350 B54A     		ldr	r2, .L55+16
 665 0352 3031     		adds	r1, r1, #48
 666 0354 2046     		mov	r0, r4
 667 0356 FFF7FEFF 		bl	lv_obj_add_style
 668              	.LVL78:
 678:lvgl/lvgl/src/extra/themes/default/lv_theme_default.c ****             return;
 669              		.loc 1 678 13 is_stmt 1 view .LVU199
 678:lvgl/lvgl/src/extra/themes/default/lv_theme_default.c ****             return;
 670              		.loc 1 678 42 is_stmt 0 view .LVU200
 671 035a 2968     		ldr	r1, [r5]
 678:lvgl/lvgl/src/extra/themes/default/lv_theme_default.c ****             return;
 672              		.loc 1 678 13 view .LVU201
 673 035c B34A     		ldr	r2, .L55+20
 674 035e 4031     		adds	r1, r1, #64
 675 0360 2046     		mov	r0, r4
 676 0362 FFF7FEFF 		bl	lv_obj_add_style
 677              	.LVL79:
 679:lvgl/lvgl/src/extra/themes/default/lv_theme_default.c ****         }
 678              		.loc 1 679 13 is_stmt 1 view .LVU202
 679 0366 60E6     		b	.L1
 680              	.L49:
 684:lvgl/lvgl/src/extra/themes/default/lv_theme_default.c ****             lv_obj_add_style(obj, &styles->outline_primary, LV_STATE_FOCUS_KEY);
 681              		.loc 1 684 13 view .LVU203
 684:lvgl/lvgl/src/extra/themes/default/lv_theme_default.c ****             lv_obj_add_style(obj, &styles->outline_primary, LV_STATE_FOCUS_KEY);
 682              		.loc 1 684 42 is_stmt 0 view .LVU204
 683 0368 AB4D     		ldr	r5, .L55
 684 036a 2968     		ldr	r1, [r5]
 684:lvgl/lvgl/src/extra/themes/default/lv_theme_default.c ****             lv_obj_add_style(obj, &styles->outline_primary, LV_STATE_FOCUS_KEY);
 685              		.loc 1 684 13 view .LVU205
 686 036c 0022     		movs	r2, #0
 687 036e 5031     		adds	r1, r1, #80
 688 0370 2046     		mov	r0, r4
 689 0372 FFF7FEFF 		bl	lv_obj_add_style
 690              	.LVL80:
 685:lvgl/lvgl/src/extra/themes/default/lv_theme_default.c ****             lv_obj_add_style(obj, &styles->tab_bg_focus, LV_STATE_FOCUS_KEY);
 691              		.loc 1 685 13 is_stmt 1 view .LVU206
 685:lvgl/lvgl/src/extra/themes/default/lv_theme_default.c ****             lv_obj_add_style(obj, &styles->tab_bg_focus, LV_STATE_FOCUS_KEY);
 692              		.loc 1 685 42 is_stmt 0 view .LVU207
 693 0376 2968     		ldr	r1, [r5]
 685:lvgl/lvgl/src/extra/themes/default/lv_theme_default.c ****             lv_obj_add_style(obj, &styles->tab_bg_focus, LV_STATE_FOCUS_KEY);
 694              		.loc 1 685 13 view .LVU208
 695 0378 0422     		movs	r2, #4
 696 037a A031     		adds	r1, r1, #160
 697 037c 2046     		mov	r0, r4
 698 037e FFF7FEFF 		bl	lv_obj_add_style
 699              	.LVL81:
 686:lvgl/lvgl/src/extra/themes/default/lv_theme_default.c ****             lv_obj_add_style(obj, &styles->pressed, LV_PART_ITEMS | LV_STATE_PRESSED);
ARM GAS  C:\Users\gx\AppData\Local\Temp\ccQfGIQ4.s 			page 34


 700              		.loc 1 686 13 is_stmt 1 view .LVU209
 686:lvgl/lvgl/src/extra/themes/default/lv_theme_default.c ****             lv_obj_add_style(obj, &styles->pressed, LV_PART_ITEMS | LV_STATE_PRESSED);
 701              		.loc 1 686 42 is_stmt 0 view .LVU210
 702 0382 2968     		ldr	r1, [r5]
 686:lvgl/lvgl/src/extra/themes/default/lv_theme_default.c ****             lv_obj_add_style(obj, &styles->pressed, LV_PART_ITEMS | LV_STATE_PRESSED);
 703              		.loc 1 686 13 view .LVU211
 704 0384 0422     		movs	r2, #4
 705 0386 01F5E471 		add	r1, r1, #456
 706 038a 2046     		mov	r0, r4
 707 038c FFF7FEFF 		bl	lv_obj_add_style
 708              	.LVL82:
 687:lvgl/lvgl/src/extra/themes/default/lv_theme_default.c ****             lv_obj_add_style(obj, &styles->bg_color_primary_muted, LV_PART_ITEMS | LV_STATE_CHECKED
 709              		.loc 1 687 13 is_stmt 1 view .LVU212
 687:lvgl/lvgl/src/extra/themes/default/lv_theme_default.c ****             lv_obj_add_style(obj, &styles->bg_color_primary_muted, LV_PART_ITEMS | LV_STATE_CHECKED
 710              		.loc 1 687 42 is_stmt 0 view .LVU213
 711 0390 2968     		ldr	r1, [r5]
 687:lvgl/lvgl/src/extra/themes/default/lv_theme_default.c ****             lv_obj_add_style(obj, &styles->bg_color_primary_muted, LV_PART_ITEMS | LV_STATE_CHECKED
 712              		.loc 1 687 13 view .LVU214
 713 0392 A24A     		ldr	r2, .L55+4
 714 0394 5831     		adds	r1, r1, #88
 715 0396 2046     		mov	r0, r4
 716 0398 FFF7FEFF 		bl	lv_obj_add_style
 717              	.LVL83:
 688:lvgl/lvgl/src/extra/themes/default/lv_theme_default.c ****             lv_obj_add_style(obj, &styles->tab_btn, LV_PART_ITEMS | LV_STATE_CHECKED);
 718              		.loc 1 688 13 is_stmt 1 view .LVU215
 688:lvgl/lvgl/src/extra/themes/default/lv_theme_default.c ****             lv_obj_add_style(obj, &styles->tab_btn, LV_PART_ITEMS | LV_STATE_CHECKED);
 719              		.loc 1 688 42 is_stmt 0 view .LVU216
 720 039c 2968     		ldr	r1, [r5]
 688:lvgl/lvgl/src/extra/themes/default/lv_theme_default.c ****             lv_obj_add_style(obj, &styles->tab_btn, LV_PART_ITEMS | LV_STATE_CHECKED);
 721              		.loc 1 688 13 view .LVU217
 722 039e A14E     		ldr	r6, .L55+12
 723 03a0 3246     		mov	r2, r6
 724 03a2 3031     		adds	r1, r1, #48
 725 03a4 2046     		mov	r0, r4
 726 03a6 FFF7FEFF 		bl	lv_obj_add_style
 727              	.LVL84:
 689:lvgl/lvgl/src/extra/themes/default/lv_theme_default.c ****             lv_obj_add_style(obj, &styles->outline_primary, LV_PART_ITEMS | LV_STATE_FOCUS_KEY);
 728              		.loc 1 689 13 is_stmt 1 view .LVU218
 689:lvgl/lvgl/src/extra/themes/default/lv_theme_default.c ****             lv_obj_add_style(obj, &styles->outline_primary, LV_PART_ITEMS | LV_STATE_FOCUS_KEY);
 729              		.loc 1 689 42 is_stmt 0 view .LVU219
 730 03aa 2968     		ldr	r1, [r5]
 689:lvgl/lvgl/src/extra/themes/default/lv_theme_default.c ****             lv_obj_add_style(obj, &styles->outline_primary, LV_PART_ITEMS | LV_STATE_FOCUS_KEY);
 731              		.loc 1 689 13 view .LVU220
 732 03ac 3246     		mov	r2, r6
 733 03ae 01F5E871 		add	r1, r1, #464
 734 03b2 2046     		mov	r0, r4
 735 03b4 FFF7FEFF 		bl	lv_obj_add_style
 736              	.LVL85:
 690:lvgl/lvgl/src/extra/themes/default/lv_theme_default.c ****             lv_obj_add_style(obj, &styles->outline_secondary, LV_PART_ITEMS | LV_STATE_EDITED);
 737              		.loc 1 690 13 is_stmt 1 view .LVU221
 690:lvgl/lvgl/src/extra/themes/default/lv_theme_default.c ****             lv_obj_add_style(obj, &styles->outline_secondary, LV_PART_ITEMS | LV_STATE_EDITED);
 738              		.loc 1 690 42 is_stmt 0 view .LVU222
 739 03b8 2968     		ldr	r1, [r5]
 690:lvgl/lvgl/src/extra/themes/default/lv_theme_default.c ****             lv_obj_add_style(obj, &styles->outline_secondary, LV_PART_ITEMS | LV_STATE_EDITED);
 740              		.loc 1 690 13 view .LVU223
 741 03ba 0336     		adds	r6, r6, #3
 742 03bc 3246     		mov	r2, r6
ARM GAS  C:\Users\gx\AppData\Local\Temp\ccQfGIQ4.s 			page 35


 743 03be A031     		adds	r1, r1, #160
 744 03c0 2046     		mov	r0, r4
 745 03c2 FFF7FEFF 		bl	lv_obj_add_style
 746              	.LVL86:
 691:lvgl/lvgl/src/extra/themes/default/lv_theme_default.c ****             lv_obj_add_style(obj, &styles->tab_bg_focus, LV_PART_ITEMS | LV_STATE_FOCUS_KEY);
 747              		.loc 1 691 13 is_stmt 1 view .LVU224
 691:lvgl/lvgl/src/extra/themes/default/lv_theme_default.c ****             lv_obj_add_style(obj, &styles->tab_bg_focus, LV_PART_ITEMS | LV_STATE_FOCUS_KEY);
 748              		.loc 1 691 42 is_stmt 0 view .LVU225
 749 03c6 2968     		ldr	r1, [r5]
 691:lvgl/lvgl/src/extra/themes/default/lv_theme_default.c ****             lv_obj_add_style(obj, &styles->tab_bg_focus, LV_PART_ITEMS | LV_STATE_FOCUS_KEY);
 750              		.loc 1 691 13 view .LVU226
 751 03c8 984A     		ldr	r2, .L55+20
 752 03ca A831     		adds	r1, r1, #168
 753 03cc 2046     		mov	r0, r4
 754 03ce FFF7FEFF 		bl	lv_obj_add_style
 755              	.LVL87:
 692:lvgl/lvgl/src/extra/themes/default/lv_theme_default.c ****             return;
 756              		.loc 1 692 13 is_stmt 1 view .LVU227
 692:lvgl/lvgl/src/extra/themes/default/lv_theme_default.c ****             return;
 757              		.loc 1 692 42 is_stmt 0 view .LVU228
 758 03d2 2968     		ldr	r1, [r5]
 692:lvgl/lvgl/src/extra/themes/default/lv_theme_default.c ****             return;
 759              		.loc 1 692 13 view .LVU229
 760 03d4 3246     		mov	r2, r6
 761 03d6 01F5E471 		add	r1, r1, #456
 762 03da 2046     		mov	r0, r4
 763 03dc FFF7FEFF 		bl	lv_obj_add_style
 764              	.LVL88:
 693:lvgl/lvgl/src/extra/themes/default/lv_theme_default.c ****         }
 765              		.loc 1 693 13 is_stmt 1 view .LVU230
 766 03e0 23E6     		b	.L1
 767              	.L11:
 709:lvgl/lvgl/src/extra/themes/default/lv_theme_default.c ****         lv_obj_add_style(obj, &styles->bg_color_primary_muted, 0);
 768              		.loc 1 709 10 view .LVU231
 709:lvgl/lvgl/src/extra/themes/default/lv_theme_default.c ****         lv_obj_add_style(obj, &styles->bg_color_primary_muted, 0);
 769              		.loc 1 709 13 is_stmt 0 view .LVU232
 770 03e2 9349     		ldr	r1, .L55+24
 771 03e4 2046     		mov	r0, r4
 772 03e6 FFF7FEFF 		bl	lv_obj_check_type
 773              	.LVL89:
 709:lvgl/lvgl/src/extra/themes/default/lv_theme_default.c ****         lv_obj_add_style(obj, &styles->bg_color_primary_muted, 0);
 774              		.loc 1 709 12 view .LVU233
 775 03ea 38B3     		cbz	r0, .L14
 710:lvgl/lvgl/src/extra/themes/default/lv_theme_default.c ****         lv_obj_add_style(obj, &styles->circle, 0);
 776              		.loc 1 710 9 is_stmt 1 view .LVU234
 710:lvgl/lvgl/src/extra/themes/default/lv_theme_default.c ****         lv_obj_add_style(obj, &styles->circle, 0);
 777              		.loc 1 710 38 is_stmt 0 view .LVU235
 778 03ec 8A4D     		ldr	r5, .L55
 779 03ee 2968     		ldr	r1, [r5]
 710:lvgl/lvgl/src/extra/themes/default/lv_theme_default.c ****         lv_obj_add_style(obj, &styles->circle, 0);
 780              		.loc 1 710 9 view .LVU236
 781 03f0 0022     		movs	r2, #0
 782 03f2 3031     		adds	r1, r1, #48
 783 03f4 2046     		mov	r0, r4
 784 03f6 FFF7FEFF 		bl	lv_obj_add_style
 785              	.LVL90:
 711:lvgl/lvgl/src/extra/themes/default/lv_theme_default.c ****         lv_obj_add_style(obj, &styles->outline_primary, LV_STATE_FOCUS_KEY);
ARM GAS  C:\Users\gx\AppData\Local\Temp\ccQfGIQ4.s 			page 36


 786              		.loc 1 711 9 is_stmt 1 view .LVU237
 711:lvgl/lvgl/src/extra/themes/default/lv_theme_default.c ****         lv_obj_add_style(obj, &styles->outline_primary, LV_STATE_FOCUS_KEY);
 787              		.loc 1 711 38 is_stmt 0 view .LVU238
 788 03fa 2968     		ldr	r1, [r5]
 711:lvgl/lvgl/src/extra/themes/default/lv_theme_default.c ****         lv_obj_add_style(obj, &styles->outline_primary, LV_STATE_FOCUS_KEY);
 789              		.loc 1 711 9 view .LVU239
 790 03fc 0022     		movs	r2, #0
 791 03fe B031     		adds	r1, r1, #176
 792 0400 2046     		mov	r0, r4
 793 0402 FFF7FEFF 		bl	lv_obj_add_style
 794              	.LVL91:
 712:lvgl/lvgl/src/extra/themes/default/lv_theme_default.c ****         lv_obj_add_style(obj, &styles->outline_secondary, LV_STATE_EDITED);
 795              		.loc 1 712 9 is_stmt 1 view .LVU240
 712:lvgl/lvgl/src/extra/themes/default/lv_theme_default.c ****         lv_obj_add_style(obj, &styles->outline_secondary, LV_STATE_EDITED);
 796              		.loc 1 712 38 is_stmt 0 view .LVU241
 797 0406 2968     		ldr	r1, [r5]
 712:lvgl/lvgl/src/extra/themes/default/lv_theme_default.c ****         lv_obj_add_style(obj, &styles->outline_secondary, LV_STATE_EDITED);
 798              		.loc 1 712 9 view .LVU242
 799 0408 0422     		movs	r2, #4
 800 040a A031     		adds	r1, r1, #160
 801 040c 2046     		mov	r0, r4
 802 040e FFF7FEFF 		bl	lv_obj_add_style
 803              	.LVL92:
 713:lvgl/lvgl/src/extra/themes/default/lv_theme_default.c ****         lv_obj_add_style(obj, &styles->bg_color_primary, LV_PART_INDICATOR);
 804              		.loc 1 713 9 is_stmt 1 view .LVU243
 713:lvgl/lvgl/src/extra/themes/default/lv_theme_default.c ****         lv_obj_add_style(obj, &styles->bg_color_primary, LV_PART_INDICATOR);
 805              		.loc 1 713 38 is_stmt 0 view .LVU244
 806 0412 2968     		ldr	r1, [r5]
 713:lvgl/lvgl/src/extra/themes/default/lv_theme_default.c ****         lv_obj_add_style(obj, &styles->bg_color_primary, LV_PART_INDICATOR);
 807              		.loc 1 713 9 view .LVU245
 808 0414 0822     		movs	r2, #8
 809 0416 A831     		adds	r1, r1, #168
 810 0418 2046     		mov	r0, r4
 811 041a FFF7FEFF 		bl	lv_obj_add_style
 812              	.LVL93:
 714:lvgl/lvgl/src/extra/themes/default/lv_theme_default.c ****         lv_obj_add_style(obj, &styles->circle, LV_PART_INDICATOR);
 813              		.loc 1 714 9 is_stmt 1 view .LVU246
 714:lvgl/lvgl/src/extra/themes/default/lv_theme_default.c ****         lv_obj_add_style(obj, &styles->circle, LV_PART_INDICATOR);
 814              		.loc 1 714 38 is_stmt 0 view .LVU247
 815 041e 2968     		ldr	r1, [r5]
 714:lvgl/lvgl/src/extra/themes/default/lv_theme_default.c ****         lv_obj_add_style(obj, &styles->circle, LV_PART_INDICATOR);
 816              		.loc 1 714 9 view .LVU248
 817 0420 4FF40032 		mov	r2, #131072
 818 0424 2831     		adds	r1, r1, #40
 819 0426 2046     		mov	r0, r4
 820 0428 FFF7FEFF 		bl	lv_obj_add_style
 821              	.LVL94:
 715:lvgl/lvgl/src/extra/themes/default/lv_theme_default.c ****     }
 822              		.loc 1 715 9 is_stmt 1 view .LVU249
 715:lvgl/lvgl/src/extra/themes/default/lv_theme_default.c ****     }
 823              		.loc 1 715 38 is_stmt 0 view .LVU250
 824 042c 2968     		ldr	r1, [r5]
 715:lvgl/lvgl/src/extra/themes/default/lv_theme_default.c ****     }
 825              		.loc 1 715 9 view .LVU251
 826 042e 4FF40032 		mov	r2, #131072
 827 0432 B031     		adds	r1, r1, #176
 828 0434 2046     		mov	r0, r4
ARM GAS  C:\Users\gx\AppData\Local\Temp\ccQfGIQ4.s 			page 37


 829 0436 FFF7FEFF 		bl	lv_obj_add_style
 830              	.LVL95:
 831 043a B9E6     		b	.L8
 832              	.L14:
 720:lvgl/lvgl/src/extra/themes/default/lv_theme_default.c ****         lv_obj_add_style(obj, &styles->bg_color_primary_muted, 0);
 833              		.loc 1 720 10 is_stmt 1 view .LVU252
 720:lvgl/lvgl/src/extra/themes/default/lv_theme_default.c ****         lv_obj_add_style(obj, &styles->bg_color_primary_muted, 0);
 834              		.loc 1 720 13 is_stmt 0 view .LVU253
 835 043c 7D49     		ldr	r1, .L55+28
 836 043e 2046     		mov	r0, r4
 837 0440 FFF7FEFF 		bl	lv_obj_check_type
 838              	.LVL96:
 720:lvgl/lvgl/src/extra/themes/default/lv_theme_default.c ****         lv_obj_add_style(obj, &styles->bg_color_primary_muted, 0);
 839              		.loc 1 720 12 view .LVU254
 840 0444 0028     		cmp	r0, #0
 841 0446 42D0     		beq	.L15
 721:lvgl/lvgl/src/extra/themes/default/lv_theme_default.c ****         lv_obj_add_style(obj, &styles->circle, 0);
 842              		.loc 1 721 9 is_stmt 1 view .LVU255
 721:lvgl/lvgl/src/extra/themes/default/lv_theme_default.c ****         lv_obj_add_style(obj, &styles->circle, 0);
 843              		.loc 1 721 38 is_stmt 0 view .LVU256
 844 0448 734D     		ldr	r5, .L55
 845 044a 2968     		ldr	r1, [r5]
 721:lvgl/lvgl/src/extra/themes/default/lv_theme_default.c ****         lv_obj_add_style(obj, &styles->circle, 0);
 846              		.loc 1 721 9 view .LVU257
 847 044c 0022     		movs	r2, #0
 848 044e 3031     		adds	r1, r1, #48
 849 0450 2046     		mov	r0, r4
 850 0452 FFF7FEFF 		bl	lv_obj_add_style
 851              	.LVL97:
 722:lvgl/lvgl/src/extra/themes/default/lv_theme_default.c ****         lv_obj_add_style(obj, &styles->outline_primary, LV_STATE_FOCUS_KEY);
 852              		.loc 1 722 9 is_stmt 1 view .LVU258
 722:lvgl/lvgl/src/extra/themes/default/lv_theme_default.c ****         lv_obj_add_style(obj, &styles->outline_primary, LV_STATE_FOCUS_KEY);
 853              		.loc 1 722 38 is_stmt 0 view .LVU259
 854 0456 2968     		ldr	r1, [r5]
 722:lvgl/lvgl/src/extra/themes/default/lv_theme_default.c ****         lv_obj_add_style(obj, &styles->outline_primary, LV_STATE_FOCUS_KEY);
 855              		.loc 1 722 9 view .LVU260
 856 0458 0022     		movs	r2, #0
 857 045a B031     		adds	r1, r1, #176
 858 045c 2046     		mov	r0, r4
 859 045e FFF7FEFF 		bl	lv_obj_add_style
 860              	.LVL98:
 723:lvgl/lvgl/src/extra/themes/default/lv_theme_default.c ****         lv_obj_add_style(obj, &styles->outline_secondary, LV_STATE_EDITED);
 861              		.loc 1 723 9 is_stmt 1 view .LVU261
 723:lvgl/lvgl/src/extra/themes/default/lv_theme_default.c ****         lv_obj_add_style(obj, &styles->outline_secondary, LV_STATE_EDITED);
 862              		.loc 1 723 38 is_stmt 0 view .LVU262
 863 0462 2968     		ldr	r1, [r5]
 723:lvgl/lvgl/src/extra/themes/default/lv_theme_default.c ****         lv_obj_add_style(obj, &styles->outline_secondary, LV_STATE_EDITED);
 864              		.loc 1 723 9 view .LVU263
 865 0464 0422     		movs	r2, #4
 866 0466 A031     		adds	r1, r1, #160
 867 0468 2046     		mov	r0, r4
 868 046a FFF7FEFF 		bl	lv_obj_add_style
 869              	.LVL99:
 724:lvgl/lvgl/src/extra/themes/default/lv_theme_default.c ****         lv_obj_add_style(obj, &styles->bg_color_primary, LV_PART_INDICATOR);
 870              		.loc 1 724 9 is_stmt 1 view .LVU264
 724:lvgl/lvgl/src/extra/themes/default/lv_theme_default.c ****         lv_obj_add_style(obj, &styles->bg_color_primary, LV_PART_INDICATOR);
 871              		.loc 1 724 38 is_stmt 0 view .LVU265
ARM GAS  C:\Users\gx\AppData\Local\Temp\ccQfGIQ4.s 			page 38


 872 046e 2968     		ldr	r1, [r5]
 724:lvgl/lvgl/src/extra/themes/default/lv_theme_default.c ****         lv_obj_add_style(obj, &styles->bg_color_primary, LV_PART_INDICATOR);
 873              		.loc 1 724 9 view .LVU266
 874 0470 0822     		movs	r2, #8
 875 0472 A831     		adds	r1, r1, #168
 876 0474 2046     		mov	r0, r4
 877 0476 FFF7FEFF 		bl	lv_obj_add_style
 878              	.LVL100:
 725:lvgl/lvgl/src/extra/themes/default/lv_theme_default.c ****         lv_obj_add_style(obj, &styles->circle, LV_PART_INDICATOR);
 879              		.loc 1 725 9 is_stmt 1 view .LVU267
 725:lvgl/lvgl/src/extra/themes/default/lv_theme_default.c ****         lv_obj_add_style(obj, &styles->circle, LV_PART_INDICATOR);
 880              		.loc 1 725 38 is_stmt 0 view .LVU268
 881 047a 2968     		ldr	r1, [r5]
 725:lvgl/lvgl/src/extra/themes/default/lv_theme_default.c ****         lv_obj_add_style(obj, &styles->circle, LV_PART_INDICATOR);
 882              		.loc 1 725 9 view .LVU269
 883 047c 4FF40032 		mov	r2, #131072
 884 0480 2831     		adds	r1, r1, #40
 885 0482 2046     		mov	r0, r4
 886 0484 FFF7FEFF 		bl	lv_obj_add_style
 887              	.LVL101:
 726:lvgl/lvgl/src/extra/themes/default/lv_theme_default.c ****         lv_obj_add_style(obj, &styles->knob, LV_PART_KNOB);
 888              		.loc 1 726 9 is_stmt 1 view .LVU270
 726:lvgl/lvgl/src/extra/themes/default/lv_theme_default.c ****         lv_obj_add_style(obj, &styles->knob, LV_PART_KNOB);
 889              		.loc 1 726 38 is_stmt 0 view .LVU271
 890 0488 2968     		ldr	r1, [r5]
 726:lvgl/lvgl/src/extra/themes/default/lv_theme_default.c ****         lv_obj_add_style(obj, &styles->knob, LV_PART_KNOB);
 891              		.loc 1 726 9 view .LVU272
 892 048a 4FF40032 		mov	r2, #131072
 893 048e B031     		adds	r1, r1, #176
 894 0490 2046     		mov	r0, r4
 895 0492 FFF7FEFF 		bl	lv_obj_add_style
 896              	.LVL102:
 727:lvgl/lvgl/src/extra/themes/default/lv_theme_default.c **** #if LV_THEME_DEFAULT_GROW
 897              		.loc 1 727 9 is_stmt 1 view .LVU273
 727:lvgl/lvgl/src/extra/themes/default/lv_theme_default.c **** #if LV_THEME_DEFAULT_GROW
 898              		.loc 1 727 38 is_stmt 0 view .LVU274
 899 0496 2968     		ldr	r1, [r5]
 727:lvgl/lvgl/src/extra/themes/default/lv_theme_default.c **** #if LV_THEME_DEFAULT_GROW
 900              		.loc 1 727 9 view .LVU275
 901 0498 4FF44032 		mov	r2, #196608
 902 049c E831     		adds	r1, r1, #232
 903 049e 2046     		mov	r0, r4
 904 04a0 FFF7FEFF 		bl	lv_obj_add_style
 905              	.LVL103:
 729:lvgl/lvgl/src/extra/themes/default/lv_theme_default.c **** #endif
 906              		.loc 1 729 9 is_stmt 1 view .LVU276
 729:lvgl/lvgl/src/extra/themes/default/lv_theme_default.c **** #endif
 907              		.loc 1 729 38 is_stmt 0 view .LVU277
 908 04a4 2968     		ldr	r1, [r5]
 729:lvgl/lvgl/src/extra/themes/default/lv_theme_default.c **** #endif
 909              		.loc 1 729 9 view .LVU278
 910 04a6 644E     		ldr	r6, .L55+32
 911 04a8 3246     		mov	r2, r6
 912 04aa C831     		adds	r1, r1, #200
 913 04ac 2046     		mov	r0, r4
 914 04ae FFF7FEFF 		bl	lv_obj_add_style
 915              	.LVL104:
ARM GAS  C:\Users\gx\AppData\Local\Temp\ccQfGIQ4.s 			page 39


 731:lvgl/lvgl/src/extra/themes/default/lv_theme_default.c ****         lv_obj_add_style(obj, &styles->transition_normal, LV_PART_KNOB | LV_STATE_PRESSED);
 916              		.loc 1 731 9 is_stmt 1 view .LVU279
 731:lvgl/lvgl/src/extra/themes/default/lv_theme_default.c ****         lv_obj_add_style(obj, &styles->transition_normal, LV_PART_KNOB | LV_STATE_PRESSED);
 917              		.loc 1 731 38 is_stmt 0 view .LVU280
 918 04b2 2968     		ldr	r1, [r5]
 731:lvgl/lvgl/src/extra/themes/default/lv_theme_default.c ****         lv_obj_add_style(obj, &styles->transition_normal, LV_PART_KNOB | LV_STATE_PRESSED);
 919              		.loc 1 731 9 view .LVU281
 920 04b4 4FF44032 		mov	r2, #196608
 921 04b8 D031     		adds	r1, r1, #208
 922 04ba 2046     		mov	r0, r4
 923 04bc FFF7FEFF 		bl	lv_obj_add_style
 924              	.LVL105:
 732:lvgl/lvgl/src/extra/themes/default/lv_theme_default.c ****     }
 925              		.loc 1 732 9 is_stmt 1 view .LVU282
 732:lvgl/lvgl/src/extra/themes/default/lv_theme_default.c ****     }
 926              		.loc 1 732 38 is_stmt 0 view .LVU283
 927 04c0 2968     		ldr	r1, [r5]
 732:lvgl/lvgl/src/extra/themes/default/lv_theme_default.c ****     }
 928              		.loc 1 732 9 view .LVU284
 929 04c2 3246     		mov	r2, r6
 930 04c4 D831     		adds	r1, r1, #216
 931 04c6 2046     		mov	r0, r4
 932 04c8 FFF7FEFF 		bl	lv_obj_add_style
 933              	.LVL106:
 934 04cc 70E6     		b	.L8
 935              	.L15:
 737:lvgl/lvgl/src/extra/themes/default/lv_theme_default.c ****         lv_obj_add_style(obj, &styles->card, 0);
 936              		.loc 1 737 10 is_stmt 1 view .LVU285
 737:lvgl/lvgl/src/extra/themes/default/lv_theme_default.c ****         lv_obj_add_style(obj, &styles->card, 0);
 937              		.loc 1 737 13 is_stmt 0 view .LVU286
 938 04ce 5B49     		ldr	r1, .L55+36
 939 04d0 2046     		mov	r0, r4
 940 04d2 FFF7FEFF 		bl	lv_obj_check_type
 941              	.LVL107:
 737:lvgl/lvgl/src/extra/themes/default/lv_theme_default.c ****         lv_obj_add_style(obj, &styles->card, 0);
 942              		.loc 1 737 12 view .LVU287
 943 04d6 0028     		cmp	r0, #0
 944 04d8 54D0     		beq	.L16
 738:lvgl/lvgl/src/extra/themes/default/lv_theme_default.c ****         lv_obj_add_style(obj, &styles->pad_zero, 0);
 945              		.loc 1 738 9 is_stmt 1 view .LVU288
 738:lvgl/lvgl/src/extra/themes/default/lv_theme_default.c ****         lv_obj_add_style(obj, &styles->pad_zero, 0);
 946              		.loc 1 738 38 is_stmt 0 view .LVU289
 947 04da 4F4D     		ldr	r5, .L55
 948 04dc 2968     		ldr	r1, [r5]
 738:lvgl/lvgl/src/extra/themes/default/lv_theme_default.c ****         lv_obj_add_style(obj, &styles->pad_zero, 0);
 949              		.loc 1 738 9 view .LVU290
 950 04de 0022     		movs	r2, #0
 951 04e0 1831     		adds	r1, r1, #24
 952 04e2 2046     		mov	r0, r4
 953 04e4 FFF7FEFF 		bl	lv_obj_add_style
 954              	.LVL108:
 739:lvgl/lvgl/src/extra/themes/default/lv_theme_default.c ****         lv_obj_add_style(obj, &styles->no_radius, 0);
 955              		.loc 1 739 9 is_stmt 1 view .LVU291
 739:lvgl/lvgl/src/extra/themes/default/lv_theme_default.c ****         lv_obj_add_style(obj, &styles->no_radius, 0);
 956              		.loc 1 739 38 is_stmt 0 view .LVU292
 957 04e8 2968     		ldr	r1, [r5]
 739:lvgl/lvgl/src/extra/themes/default/lv_theme_default.c ****         lv_obj_add_style(obj, &styles->no_radius, 0);
ARM GAS  C:\Users\gx\AppData\Local\Temp\ccQfGIQ4.s 			page 40


 958              		.loc 1 739 9 view .LVU293
 959 04ea 0022     		movs	r2, #0
 960 04ec 6831     		adds	r1, r1, #104
 961 04ee 2046     		mov	r0, r4
 962 04f0 FFF7FEFF 		bl	lv_obj_add_style
 963              	.LVL109:
 740:lvgl/lvgl/src/extra/themes/default/lv_theme_default.c ****         lv_obj_add_style(obj, &styles->outline_primary, LV_STATE_FOCUS_KEY);
 964              		.loc 1 740 9 is_stmt 1 view .LVU294
 740:lvgl/lvgl/src/extra/themes/default/lv_theme_default.c ****         lv_obj_add_style(obj, &styles->outline_primary, LV_STATE_FOCUS_KEY);
 965              		.loc 1 740 38 is_stmt 0 view .LVU295
 966 04f4 2968     		ldr	r1, [r5]
 740:lvgl/lvgl/src/extra/themes/default/lv_theme_default.c ****         lv_obj_add_style(obj, &styles->outline_primary, LV_STATE_FOCUS_KEY);
 967              		.loc 1 740 9 view .LVU296
 968 04f6 0022     		movs	r2, #0
 969 04f8 B831     		adds	r1, r1, #184
 970 04fa 2046     		mov	r0, r4
 971 04fc FFF7FEFF 		bl	lv_obj_add_style
 972              	.LVL110:
 741:lvgl/lvgl/src/extra/themes/default/lv_theme_default.c ****         lv_obj_add_style(obj, &styles->outline_secondary, LV_STATE_EDITED);
 973              		.loc 1 741 9 is_stmt 1 view .LVU297
 741:lvgl/lvgl/src/extra/themes/default/lv_theme_default.c ****         lv_obj_add_style(obj, &styles->outline_secondary, LV_STATE_EDITED);
 974              		.loc 1 741 38 is_stmt 0 view .LVU298
 975 0500 2968     		ldr	r1, [r5]
 741:lvgl/lvgl/src/extra/themes/default/lv_theme_default.c ****         lv_obj_add_style(obj, &styles->outline_secondary, LV_STATE_EDITED);
 976              		.loc 1 741 9 view .LVU299
 977 0502 0422     		movs	r2, #4
 978 0504 A031     		adds	r1, r1, #160
 979 0506 2046     		mov	r0, r4
 980 0508 FFF7FEFF 		bl	lv_obj_add_style
 981              	.LVL111:
 742:lvgl/lvgl/src/extra/themes/default/lv_theme_default.c ****         lv_obj_add_style(obj, &styles->scrollbar, LV_PART_SCROLLBAR);
 982              		.loc 1 742 9 is_stmt 1 view .LVU300
 742:lvgl/lvgl/src/extra/themes/default/lv_theme_default.c ****         lv_obj_add_style(obj, &styles->scrollbar, LV_PART_SCROLLBAR);
 983              		.loc 1 742 38 is_stmt 0 view .LVU301
 984 050c 2968     		ldr	r1, [r5]
 742:lvgl/lvgl/src/extra/themes/default/lv_theme_default.c ****         lv_obj_add_style(obj, &styles->scrollbar, LV_PART_SCROLLBAR);
 985              		.loc 1 742 9 view .LVU302
 986 050e 0822     		movs	r2, #8
 987 0510 A831     		adds	r1, r1, #168
 988 0512 2046     		mov	r0, r4
 989 0514 FFF7FEFF 		bl	lv_obj_add_style
 990              	.LVL112:
 743:lvgl/lvgl/src/extra/themes/default/lv_theme_default.c ****         lv_obj_add_style(obj, &styles->scrollbar_scrolled, LV_PART_SCROLLBAR | LV_STATE_SCROLLED);
 991              		.loc 1 743 9 is_stmt 1 view .LVU303
 743:lvgl/lvgl/src/extra/themes/default/lv_theme_default.c ****         lv_obj_add_style(obj, &styles->scrollbar_scrolled, LV_PART_SCROLLBAR | LV_STATE_SCROLLED);
 992              		.loc 1 743 38 is_stmt 0 view .LVU304
 993 0518 2968     		ldr	r1, [r5]
 743:lvgl/lvgl/src/extra/themes/default/lv_theme_default.c ****         lv_obj_add_style(obj, &styles->scrollbar_scrolled, LV_PART_SCROLLBAR | LV_STATE_SCROLLED);
 994              		.loc 1 743 9 view .LVU305
 995 051a 4FF48032 		mov	r2, #65536
 996 051e 0831     		adds	r1, r1, #8
 997 0520 2046     		mov	r0, r4
 998 0522 FFF7FEFF 		bl	lv_obj_add_style
 999              	.LVL113:
 744:lvgl/lvgl/src/extra/themes/default/lv_theme_default.c ****         lv_obj_add_style(obj, &styles->bg_color_white, LV_PART_ITEMS);
 1000              		.loc 1 744 9 is_stmt 1 view .LVU306
 744:lvgl/lvgl/src/extra/themes/default/lv_theme_default.c ****         lv_obj_add_style(obj, &styles->bg_color_white, LV_PART_ITEMS);
ARM GAS  C:\Users\gx\AppData\Local\Temp\ccQfGIQ4.s 			page 41


 1001              		.loc 1 744 38 is_stmt 0 view .LVU307
 1002 0526 2968     		ldr	r1, [r5]
 744:lvgl/lvgl/src/extra/themes/default/lv_theme_default.c ****         lv_obj_add_style(obj, &styles->bg_color_white, LV_PART_ITEMS);
 1003              		.loc 1 744 9 view .LVU308
 1004 0528 454A     		ldr	r2, .L55+40
 1005 052a 1031     		adds	r1, r1, #16
 1006 052c 2046     		mov	r0, r4
 1007 052e FFF7FEFF 		bl	lv_obj_add_style
 1008              	.LVL114:
 745:lvgl/lvgl/src/extra/themes/default/lv_theme_default.c ****         lv_obj_add_style(obj, &styles->table_cell, LV_PART_ITEMS);
 1009              		.loc 1 745 9 is_stmt 1 view .LVU309
 745:lvgl/lvgl/src/extra/themes/default/lv_theme_default.c ****         lv_obj_add_style(obj, &styles->table_cell, LV_PART_ITEMS);
 1010              		.loc 1 745 38 is_stmt 0 view .LVU310
 1011 0532 2968     		ldr	r1, [r5]
 745:lvgl/lvgl/src/extra/themes/default/lv_theme_default.c ****         lv_obj_add_style(obj, &styles->table_cell, LV_PART_ITEMS);
 1012              		.loc 1 745 9 view .LVU311
 1013 0534 4FF4A022 		mov	r2, #327680
 1014 0538 5031     		adds	r1, r1, #80
 1015 053a 2046     		mov	r0, r4
 1016 053c FFF7FEFF 		bl	lv_obj_add_style
 1017              	.LVL115:
 746:lvgl/lvgl/src/extra/themes/default/lv_theme_default.c ****         lv_obj_add_style(obj, &styles->pad_normal, LV_PART_ITEMS);
 1018              		.loc 1 746 9 is_stmt 1 view .LVU312
 746:lvgl/lvgl/src/extra/themes/default/lv_theme_default.c ****         lv_obj_add_style(obj, &styles->pad_normal, LV_PART_ITEMS);
 1019              		.loc 1 746 38 is_stmt 0 view .LVU313
 1020 0540 2968     		ldr	r1, [r5]
 746:lvgl/lvgl/src/extra/themes/default/lv_theme_default.c ****         lv_obj_add_style(obj, &styles->pad_normal, LV_PART_ITEMS);
 1021              		.loc 1 746 9 view .LVU314
 1022 0542 4FF4A022 		mov	r2, #327680
 1023 0546 01F5A871 		add	r1, r1, #336
 1024 054a 2046     		mov	r0, r4
 1025 054c FFF7FEFF 		bl	lv_obj_add_style
 1026              	.LVL116:
 747:lvgl/lvgl/src/extra/themes/default/lv_theme_default.c ****         lv_obj_add_style(obj, &styles->pressed, LV_PART_ITEMS | LV_STATE_PRESSED);
 1027              		.loc 1 747 9 is_stmt 1 view .LVU315
 747:lvgl/lvgl/src/extra/themes/default/lv_theme_default.c ****         lv_obj_add_style(obj, &styles->pressed, LV_PART_ITEMS | LV_STATE_PRESSED);
 1028              		.loc 1 747 38 is_stmt 0 view .LVU316
 1029 0550 2968     		ldr	r1, [r5]
 747:lvgl/lvgl/src/extra/themes/default/lv_theme_default.c ****         lv_obj_add_style(obj, &styles->pressed, LV_PART_ITEMS | LV_STATE_PRESSED);
 1030              		.loc 1 747 9 view .LVU317
 1031 0552 4FF4A022 		mov	r2, #327680
 1032 0556 8031     		adds	r1, r1, #128
 1033 0558 2046     		mov	r0, r4
 1034 055a FFF7FEFF 		bl	lv_obj_add_style
 1035              	.LVL117:
 748:lvgl/lvgl/src/extra/themes/default/lv_theme_default.c ****         lv_obj_add_style(obj, &styles->bg_color_primary, LV_PART_ITEMS | LV_STATE_FOCUS_KEY);
 1036              		.loc 1 748 9 is_stmt 1 view .LVU318
 748:lvgl/lvgl/src/extra/themes/default/lv_theme_default.c ****         lv_obj_add_style(obj, &styles->bg_color_primary, LV_PART_ITEMS | LV_STATE_FOCUS_KEY);
 1037              		.loc 1 748 38 is_stmt 0 view .LVU319
 1038 055e 2968     		ldr	r1, [r5]
 748:lvgl/lvgl/src/extra/themes/default/lv_theme_default.c ****         lv_obj_add_style(obj, &styles->bg_color_primary, LV_PART_ITEMS | LV_STATE_FOCUS_KEY);
 1039              		.loc 1 748 9 view .LVU320
 1040 0560 2E4A     		ldr	r2, .L55+4
 1041 0562 5831     		adds	r1, r1, #88
 1042 0564 2046     		mov	r0, r4
 1043 0566 FFF7FEFF 		bl	lv_obj_add_style
 1044              	.LVL118:
ARM GAS  C:\Users\gx\AppData\Local\Temp\ccQfGIQ4.s 			page 42


 749:lvgl/lvgl/src/extra/themes/default/lv_theme_default.c ****         lv_obj_add_style(obj, &styles->bg_color_secondary, LV_PART_ITEMS | LV_STATE_EDITED);
 1045              		.loc 1 749 9 is_stmt 1 view .LVU321
 749:lvgl/lvgl/src/extra/themes/default/lv_theme_default.c ****         lv_obj_add_style(obj, &styles->bg_color_secondary, LV_PART_ITEMS | LV_STATE_EDITED);
 1046              		.loc 1 749 38 is_stmt 0 view .LVU322
 1047 056a 2968     		ldr	r1, [r5]
 749:lvgl/lvgl/src/extra/themes/default/lv_theme_default.c ****         lv_obj_add_style(obj, &styles->bg_color_secondary, LV_PART_ITEMS | LV_STATE_EDITED);
 1048              		.loc 1 749 9 view .LVU323
 1049 056c 2E4A     		ldr	r2, .L55+16
 1050 056e 2831     		adds	r1, r1, #40
 1051 0570 2046     		mov	r0, r4
 1052 0572 FFF7FEFF 		bl	lv_obj_add_style
 1053              	.LVL119:
 750:lvgl/lvgl/src/extra/themes/default/lv_theme_default.c ****     }
 1054              		.loc 1 750 9 is_stmt 1 view .LVU324
 750:lvgl/lvgl/src/extra/themes/default/lv_theme_default.c ****     }
 1055              		.loc 1 750 38 is_stmt 0 view .LVU325
 1056 0576 2968     		ldr	r1, [r5]
 750:lvgl/lvgl/src/extra/themes/default/lv_theme_default.c ****     }
 1057              		.loc 1 750 9 view .LVU326
 1058 0578 2C4A     		ldr	r2, .L55+20
 1059 057a 3831     		adds	r1, r1, #56
 1060 057c 2046     		mov	r0, r4
 1061 057e FFF7FEFF 		bl	lv_obj_add_style
 1062              	.LVL120:
 1063 0582 15E6     		b	.L8
 1064              	.L16:
 755:lvgl/lvgl/src/extra/themes/default/lv_theme_default.c ****         lv_obj_add_style(obj, &styles->pad_gap, 0);
 1065              		.loc 1 755 10 is_stmt 1 view .LVU327
 755:lvgl/lvgl/src/extra/themes/default/lv_theme_default.c ****         lv_obj_add_style(obj, &styles->pad_gap, 0);
 1066              		.loc 1 755 13 is_stmt 0 view .LVU328
 1067 0584 2F49     		ldr	r1, .L55+44
 1068 0586 2046     		mov	r0, r4
 1069 0588 FFF7FEFF 		bl	lv_obj_check_type
 1070              	.LVL121:
 755:lvgl/lvgl/src/extra/themes/default/lv_theme_default.c ****         lv_obj_add_style(obj, &styles->pad_gap, 0);
 1071              		.loc 1 755 12 view .LVU329
 1072 058c 0028     		cmp	r0, #0
 1073 058e 5FD0     		beq	.L17
 756:lvgl/lvgl/src/extra/themes/default/lv_theme_default.c ****         lv_obj_add_style(obj, &styles->outline_primary, LV_STATE_FOCUS_KEY);
 1074              		.loc 1 756 9 is_stmt 1 view .LVU330
 756:lvgl/lvgl/src/extra/themes/default/lv_theme_default.c ****         lv_obj_add_style(obj, &styles->outline_primary, LV_STATE_FOCUS_KEY);
 1075              		.loc 1 756 38 is_stmt 0 view .LVU331
 1076 0590 214D     		ldr	r5, .L55
 1077 0592 2968     		ldr	r1, [r5]
 756:lvgl/lvgl/src/extra/themes/default/lv_theme_default.c ****         lv_obj_add_style(obj, &styles->outline_primary, LV_STATE_FOCUS_KEY);
 1078              		.loc 1 756 9 view .LVU332
 1079 0594 0022     		movs	r2, #0
 1080 0596 8831     		adds	r1, r1, #136
 1081 0598 2046     		mov	r0, r4
 1082 059a FFF7FEFF 		bl	lv_obj_add_style
 1083              	.LVL122:
 757:lvgl/lvgl/src/extra/themes/default/lv_theme_default.c ****         lv_obj_add_style(obj, &styles->disabled, LV_PART_INDICATOR | LV_STATE_DISABLED);
 1084              		.loc 1 757 9 is_stmt 1 view .LVU333
 757:lvgl/lvgl/src/extra/themes/default/lv_theme_default.c ****         lv_obj_add_style(obj, &styles->disabled, LV_PART_INDICATOR | LV_STATE_DISABLED);
 1085              		.loc 1 757 38 is_stmt 0 view .LVU334
 1086 059e 2968     		ldr	r1, [r5]
 757:lvgl/lvgl/src/extra/themes/default/lv_theme_default.c ****         lv_obj_add_style(obj, &styles->disabled, LV_PART_INDICATOR | LV_STATE_DISABLED);
ARM GAS  C:\Users\gx\AppData\Local\Temp\ccQfGIQ4.s 			page 43


 1087              		.loc 1 757 9 view .LVU335
 1088 05a0 0422     		movs	r2, #4
 1089 05a2 A031     		adds	r1, r1, #160
 1090 05a4 2046     		mov	r0, r4
 1091 05a6 FFF7FEFF 		bl	lv_obj_add_style
 1092              	.LVL123:
 758:lvgl/lvgl/src/extra/themes/default/lv_theme_default.c ****         lv_obj_add_style(obj, &styles->cb_marker, LV_PART_INDICATOR);
 1093              		.loc 1 758 9 is_stmt 1 view .LVU336
 758:lvgl/lvgl/src/extra/themes/default/lv_theme_default.c ****         lv_obj_add_style(obj, &styles->cb_marker, LV_PART_INDICATOR);
 1094              		.loc 1 758 38 is_stmt 0 view .LVU337
 1095 05aa 2968     		ldr	r1, [r5]
 758:lvgl/lvgl/src/extra/themes/default/lv_theme_default.c ****         lv_obj_add_style(obj, &styles->cb_marker, LV_PART_INDICATOR);
 1096              		.loc 1 758 9 view .LVU338
 1097 05ac 264A     		ldr	r2, .L55+48
 1098 05ae 6031     		adds	r1, r1, #96
 1099 05b0 2046     		mov	r0, r4
 1100 05b2 FFF7FEFF 		bl	lv_obj_add_style
 1101              	.LVL124:
 759:lvgl/lvgl/src/extra/themes/default/lv_theme_default.c ****         lv_obj_add_style(obj, &styles->bg_color_primary, LV_PART_INDICATOR | LV_STATE_CHECKED);
 1102              		.loc 1 759 9 is_stmt 1 view .LVU339
 759:lvgl/lvgl/src/extra/themes/default/lv_theme_default.c ****         lv_obj_add_style(obj, &styles->bg_color_primary, LV_PART_INDICATOR | LV_STATE_CHECKED);
 1103              		.loc 1 759 38 is_stmt 0 view .LVU340
 1104 05b6 2968     		ldr	r1, [r5]
 759:lvgl/lvgl/src/extra/themes/default/lv_theme_default.c ****         lv_obj_add_style(obj, &styles->bg_color_primary, LV_PART_INDICATOR | LV_STATE_CHECKED);
 1105              		.loc 1 759 9 view .LVU341
 1106 05b8 4FF40032 		mov	r2, #131072
 1107 05bc 01F59871 		add	r1, r1, #304
 1108 05c0 2046     		mov	r0, r4
 1109 05c2 FFF7FEFF 		bl	lv_obj_add_style
 1110              	.LVL125:
 760:lvgl/lvgl/src/extra/themes/default/lv_theme_default.c ****         lv_obj_add_style(obj, &styles->cb_marker_checked, LV_PART_INDICATOR | LV_STATE_CHECKED);
 1111              		.loc 1 760 9 is_stmt 1 view .LVU342
 760:lvgl/lvgl/src/extra/themes/default/lv_theme_default.c ****         lv_obj_add_style(obj, &styles->cb_marker_checked, LV_PART_INDICATOR | LV_STATE_CHECKED);
 1112              		.loc 1 760 38 is_stmt 0 view .LVU343
 1113 05c6 2968     		ldr	r1, [r5]
 760:lvgl/lvgl/src/extra/themes/default/lv_theme_default.c ****         lv_obj_add_style(obj, &styles->cb_marker_checked, LV_PART_INDICATOR | LV_STATE_CHECKED);
 1114              		.loc 1 760 9 view .LVU344
 1115 05c8 204E     		ldr	r6, .L55+52
 1116 05ca 3246     		mov	r2, r6
 1117 05cc 2831     		adds	r1, r1, #40
 1118 05ce 2046     		mov	r0, r4
 1119 05d0 FFF7FEFF 		bl	lv_obj_add_style
 1120              	.LVL126:
 761:lvgl/lvgl/src/extra/themes/default/lv_theme_default.c ****         lv_obj_add_style(obj, &styles->pressed, LV_PART_INDICATOR | LV_STATE_PRESSED);
 1121              		.loc 1 761 9 is_stmt 1 view .LVU345
 761:lvgl/lvgl/src/extra/themes/default/lv_theme_default.c ****         lv_obj_add_style(obj, &styles->pressed, LV_PART_INDICATOR | LV_STATE_PRESSED);
 1122              		.loc 1 761 38 is_stmt 0 view .LVU346
 1123 05d4 2968     		ldr	r1, [r5]
 761:lvgl/lvgl/src/extra/themes/default/lv_theme_default.c ****         lv_obj_add_style(obj, &styles->pressed, LV_PART_INDICATOR | LV_STATE_PRESSED);
 1124              		.loc 1 761 9 view .LVU347
 1125 05d6 3246     		mov	r2, r6
 1126 05d8 01F59C71 		add	r1, r1, #312
 1127 05dc 2046     		mov	r0, r4
 1128 05de FFF7FEFF 		bl	lv_obj_add_style
 1129              	.LVL127:
 762:lvgl/lvgl/src/extra/themes/default/lv_theme_default.c **** #if LV_THEME_DEFAULT_GROW
 1130              		.loc 1 762 9 is_stmt 1 view .LVU348
ARM GAS  C:\Users\gx\AppData\Local\Temp\ccQfGIQ4.s 			page 44


 762:lvgl/lvgl/src/extra/themes/default/lv_theme_default.c **** #if LV_THEME_DEFAULT_GROW
 1131              		.loc 1 762 38 is_stmt 0 view .LVU349
 1132 05e2 2968     		ldr	r1, [r5]
 762:lvgl/lvgl/src/extra/themes/default/lv_theme_default.c **** #if LV_THEME_DEFAULT_GROW
 1133              		.loc 1 762 9 view .LVU350
 1134 05e4 1F36     		adds	r6, r6, #31
 1135 05e6 3246     		mov	r2, r6
 1136 05e8 5831     		adds	r1, r1, #88
 1137 05ea 2046     		mov	r0, r4
 1138 05ec FFF7FEFF 		bl	lv_obj_add_style
 1139              	.LVL128:
 764:lvgl/lvgl/src/extra/themes/default/lv_theme_default.c **** #endif
 1140              		.loc 1 764 9 is_stmt 1 view .LVU351
 764:lvgl/lvgl/src/extra/themes/default/lv_theme_default.c **** #endif
 1141              		.loc 1 764 38 is_stmt 0 view .LVU352
 1142 05f0 2968     		ldr	r1, [r5]
 764:lvgl/lvgl/src/extra/themes/default/lv_theme_default.c **** #endif
 1143              		.loc 1 764 9 view .LVU353
 1144 05f2 3246     		mov	r2, r6
 1145 05f4 C831     		adds	r1, r1, #200
 1146 05f6 2046     		mov	r0, r4
 1147 05f8 FFF7FEFF 		bl	lv_obj_add_style
 1148              	.LVL129:
 766:lvgl/lvgl/src/extra/themes/default/lv_theme_default.c ****         lv_obj_add_style(obj, &styles->transition_delayed, LV_PART_INDICATOR);
 1149              		.loc 1 766 9 is_stmt 1 view .LVU354
 766:lvgl/lvgl/src/extra/themes/default/lv_theme_default.c ****         lv_obj_add_style(obj, &styles->transition_delayed, LV_PART_INDICATOR);
 1150              		.loc 1 766 38 is_stmt 0 view .LVU355
 1151 05fc 2968     		ldr	r1, [r5]
 766:lvgl/lvgl/src/extra/themes/default/lv_theme_default.c ****         lv_obj_add_style(obj, &styles->transition_delayed, LV_PART_INDICATOR);
 1152              		.loc 1 766 9 view .LVU356
 1153 05fe 3246     		mov	r2, r6
 1154 0600 D831     		adds	r1, r1, #216
 1155 0602 2046     		mov	r0, r4
 1156 0604 FFF7FEFF 		bl	lv_obj_add_style
 1157              	.LVL130:
 767:lvgl/lvgl/src/extra/themes/default/lv_theme_default.c ****     }
 1158              		.loc 1 767 9 is_stmt 1 view .LVU357
 767:lvgl/lvgl/src/extra/themes/default/lv_theme_default.c ****     }
 1159              		.loc 1 767 38 is_stmt 0 view .LVU358
 1160 0608 2968     		ldr	r1, [r5]
 767:lvgl/lvgl/src/extra/themes/default/lv_theme_default.c ****     }
 1161              		.loc 1 767 9 view .LVU359
 1162 060a 4FF40032 		mov	r2, #131072
 1163 060e D031     		adds	r1, r1, #208
 1164 0610 2046     		mov	r0, r4
 1165 0612 FFF7FEFF 		bl	lv_obj_add_style
 1166              	.LVL131:
 1167 0616 CBE5     		b	.L8
 1168              	.L56:
 1169              		.align	2
 1170              	.L55:
 1171 0618 00000000 		.word	.LANCHOR0
 1172 061c 20000500 		.word	327712
 1173 0620 80000500 		.word	327808
 1174 0624 01000500 		.word	327681
 1175 0628 04000500 		.word	327684
 1176 062c 08000500 		.word	327688
ARM GAS  C:\Users\gx\AppData\Local\Temp\ccQfGIQ4.s 			page 45


 1177 0630 00000000 		.word	lv_bar_class
 1178 0634 00000000 		.word	lv_slider_class
 1179 0638 20000300 		.word	196640
 1180 063c 00000000 		.word	lv_table_class
 1181 0640 40000100 		.word	65600
 1182 0644 00000000 		.word	lv_checkbox_class
 1183 0648 80000200 		.word	131200
 1184 064c 01000200 		.word	131073
 1185              	.L17:
 772:lvgl/lvgl/src/extra/themes/default/lv_theme_default.c ****         lv_obj_add_style(obj, &styles->bg_color_grey, 0);
 1186              		.loc 1 772 10 is_stmt 1 view .LVU360
 772:lvgl/lvgl/src/extra/themes/default/lv_theme_default.c ****         lv_obj_add_style(obj, &styles->bg_color_grey, 0);
 1187              		.loc 1 772 13 is_stmt 0 view .LVU361
 1188 0650 C049     		ldr	r1, .L57
 1189 0652 2046     		mov	r0, r4
 1190 0654 FFF7FEFF 		bl	lv_obj_check_type
 1191              	.LVL132:
 772:lvgl/lvgl/src/extra/themes/default/lv_theme_default.c ****         lv_obj_add_style(obj, &styles->bg_color_grey, 0);
 1192              		.loc 1 772 12 view .LVU362
 1193 0658 0028     		cmp	r0, #0
 1194 065a 48D0     		beq	.L18
 773:lvgl/lvgl/src/extra/themes/default/lv_theme_default.c ****         lv_obj_add_style(obj, &styles->circle, 0);
 1195              		.loc 1 773 9 is_stmt 1 view .LVU363
 773:lvgl/lvgl/src/extra/themes/default/lv_theme_default.c ****         lv_obj_add_style(obj, &styles->circle, 0);
 1196              		.loc 1 773 38 is_stmt 0 view .LVU364
 1197 065c BE4D     		ldr	r5, .L57+4
 1198 065e 2968     		ldr	r1, [r5]
 773:lvgl/lvgl/src/extra/themes/default/lv_theme_default.c ****         lv_obj_add_style(obj, &styles->circle, 0);
 1199              		.loc 1 773 9 view .LVU365
 1200 0660 0022     		movs	r2, #0
 1201 0662 4831     		adds	r1, r1, #72
 1202 0664 2046     		mov	r0, r4
 1203 0666 FFF7FEFF 		bl	lv_obj_add_style
 1204              	.LVL133:
 774:lvgl/lvgl/src/extra/themes/default/lv_theme_default.c ****         lv_obj_add_style(obj, &styles->disabled, LV_STATE_DISABLED);
 1205              		.loc 1 774 9 is_stmt 1 view .LVU366
 774:lvgl/lvgl/src/extra/themes/default/lv_theme_default.c ****         lv_obj_add_style(obj, &styles->disabled, LV_STATE_DISABLED);
 1206              		.loc 1 774 38 is_stmt 0 view .LVU367
 1207 066a 2968     		ldr	r1, [r5]
 774:lvgl/lvgl/src/extra/themes/default/lv_theme_default.c ****         lv_obj_add_style(obj, &styles->disabled, LV_STATE_DISABLED);
 1208              		.loc 1 774 9 view .LVU368
 1209 066c 0022     		movs	r2, #0
 1210 066e B031     		adds	r1, r1, #176
 1211 0670 2046     		mov	r0, r4
 1212 0672 FFF7FEFF 		bl	lv_obj_add_style
 1213              	.LVL134:
 775:lvgl/lvgl/src/extra/themes/default/lv_theme_default.c ****         lv_obj_add_style(obj, &styles->outline_primary, LV_STATE_FOCUS_KEY);
 1214              		.loc 1 775 9 is_stmt 1 view .LVU369
 775:lvgl/lvgl/src/extra/themes/default/lv_theme_default.c ****         lv_obj_add_style(obj, &styles->outline_primary, LV_STATE_FOCUS_KEY);
 1215              		.loc 1 775 38 is_stmt 0 view .LVU370
 1216 0676 2968     		ldr	r1, [r5]
 775:lvgl/lvgl/src/extra/themes/default/lv_theme_default.c ****         lv_obj_add_style(obj, &styles->outline_primary, LV_STATE_FOCUS_KEY);
 1217              		.loc 1 775 9 view .LVU371
 1218 0678 8022     		movs	r2, #128
 1219 067a 6031     		adds	r1, r1, #96
 1220 067c 2046     		mov	r0, r4
 1221 067e FFF7FEFF 		bl	lv_obj_add_style
ARM GAS  C:\Users\gx\AppData\Local\Temp\ccQfGIQ4.s 			page 46


 1222              	.LVL135:
 776:lvgl/lvgl/src/extra/themes/default/lv_theme_default.c ****         lv_obj_add_style(obj, &styles->bg_color_primary, LV_PART_INDICATOR | LV_STATE_CHECKED);
 1223              		.loc 1 776 9 is_stmt 1 view .LVU372
 776:lvgl/lvgl/src/extra/themes/default/lv_theme_default.c ****         lv_obj_add_style(obj, &styles->bg_color_primary, LV_PART_INDICATOR | LV_STATE_CHECKED);
 1224              		.loc 1 776 38 is_stmt 0 view .LVU373
 1225 0682 2968     		ldr	r1, [r5]
 776:lvgl/lvgl/src/extra/themes/default/lv_theme_default.c ****         lv_obj_add_style(obj, &styles->bg_color_primary, LV_PART_INDICATOR | LV_STATE_CHECKED);
 1226              		.loc 1 776 9 view .LVU374
 1227 0684 0422     		movs	r2, #4
 1228 0686 A031     		adds	r1, r1, #160
 1229 0688 2046     		mov	r0, r4
 1230 068a FFF7FEFF 		bl	lv_obj_add_style
 1231              	.LVL136:
 777:lvgl/lvgl/src/extra/themes/default/lv_theme_default.c ****         lv_obj_add_style(obj, &styles->circle, LV_PART_INDICATOR);
 1232              		.loc 1 777 9 is_stmt 1 view .LVU375
 777:lvgl/lvgl/src/extra/themes/default/lv_theme_default.c ****         lv_obj_add_style(obj, &styles->circle, LV_PART_INDICATOR);
 1233              		.loc 1 777 38 is_stmt 0 view .LVU376
 1234 068e 2968     		ldr	r1, [r5]
 777:lvgl/lvgl/src/extra/themes/default/lv_theme_default.c ****         lv_obj_add_style(obj, &styles->circle, LV_PART_INDICATOR);
 1235              		.loc 1 777 9 view .LVU377
 1236 0690 B24A     		ldr	r2, .L57+8
 1237 0692 2831     		adds	r1, r1, #40
 1238 0694 2046     		mov	r0, r4
 1239 0696 FFF7FEFF 		bl	lv_obj_add_style
 1240              	.LVL137:
 778:lvgl/lvgl/src/extra/themes/default/lv_theme_default.c ****         lv_obj_add_style(obj, &styles->disabled, LV_PART_INDICATOR | LV_STATE_DISABLED);
 1241              		.loc 1 778 9 is_stmt 1 view .LVU378
 778:lvgl/lvgl/src/extra/themes/default/lv_theme_default.c ****         lv_obj_add_style(obj, &styles->disabled, LV_PART_INDICATOR | LV_STATE_DISABLED);
 1242              		.loc 1 778 38 is_stmt 0 view .LVU379
 1243 069a 2968     		ldr	r1, [r5]
 778:lvgl/lvgl/src/extra/themes/default/lv_theme_default.c ****         lv_obj_add_style(obj, &styles->disabled, LV_PART_INDICATOR | LV_STATE_DISABLED);
 1244              		.loc 1 778 9 view .LVU380
 1245 069c 4FF40032 		mov	r2, #131072
 1246 06a0 B031     		adds	r1, r1, #176
 1247 06a2 2046     		mov	r0, r4
 1248 06a4 FFF7FEFF 		bl	lv_obj_add_style
 1249              	.LVL138:
 779:lvgl/lvgl/src/extra/themes/default/lv_theme_default.c ****         lv_obj_add_style(obj, &styles->knob, LV_PART_KNOB);
 1250              		.loc 1 779 9 is_stmt 1 view .LVU381
 779:lvgl/lvgl/src/extra/themes/default/lv_theme_default.c ****         lv_obj_add_style(obj, &styles->knob, LV_PART_KNOB);
 1251              		.loc 1 779 38 is_stmt 0 view .LVU382
 1252 06a8 2968     		ldr	r1, [r5]
 779:lvgl/lvgl/src/extra/themes/default/lv_theme_default.c ****         lv_obj_add_style(obj, &styles->knob, LV_PART_KNOB);
 1253              		.loc 1 779 9 view .LVU383
 1254 06aa AD4A     		ldr	r2, .L57+12
 1255 06ac 6031     		adds	r1, r1, #96
 1256 06ae 2046     		mov	r0, r4
 1257 06b0 FFF7FEFF 		bl	lv_obj_add_style
 1258              	.LVL139:
 780:lvgl/lvgl/src/extra/themes/default/lv_theme_default.c ****         lv_obj_add_style(obj, &styles->bg_color_white, LV_PART_KNOB);
 1259              		.loc 1 780 9 is_stmt 1 view .LVU384
 780:lvgl/lvgl/src/extra/themes/default/lv_theme_default.c ****         lv_obj_add_style(obj, &styles->bg_color_white, LV_PART_KNOB);
 1260              		.loc 1 780 38 is_stmt 0 view .LVU385
 1261 06b4 2968     		ldr	r1, [r5]
 780:lvgl/lvgl/src/extra/themes/default/lv_theme_default.c ****         lv_obj_add_style(obj, &styles->bg_color_white, LV_PART_KNOB);
 1262              		.loc 1 780 9 view .LVU386
 1263 06b6 4FF44032 		mov	r2, #196608
ARM GAS  C:\Users\gx\AppData\Local\Temp\ccQfGIQ4.s 			page 47


 1264 06ba E831     		adds	r1, r1, #232
 1265 06bc 2046     		mov	r0, r4
 1266 06be FFF7FEFF 		bl	lv_obj_add_style
 1267              	.LVL140:
 781:lvgl/lvgl/src/extra/themes/default/lv_theme_default.c ****         lv_obj_add_style(obj, &styles->switch_knob, LV_PART_KNOB);
 1268              		.loc 1 781 9 is_stmt 1 view .LVU387
 781:lvgl/lvgl/src/extra/themes/default/lv_theme_default.c ****         lv_obj_add_style(obj, &styles->switch_knob, LV_PART_KNOB);
 1269              		.loc 1 781 38 is_stmt 0 view .LVU388
 1270 06c2 2968     		ldr	r1, [r5]
 781:lvgl/lvgl/src/extra/themes/default/lv_theme_default.c ****         lv_obj_add_style(obj, &styles->switch_knob, LV_PART_KNOB);
 1271              		.loc 1 781 9 view .LVU389
 1272 06c4 4FF44032 		mov	r2, #196608
 1273 06c8 5031     		adds	r1, r1, #80
 1274 06ca 2046     		mov	r0, r4
 1275 06cc FFF7FEFF 		bl	lv_obj_add_style
 1276              	.LVL141:
 782:lvgl/lvgl/src/extra/themes/default/lv_theme_default.c ****         lv_obj_add_style(obj, &styles->disabled, LV_PART_KNOB | LV_STATE_DISABLED);
 1277              		.loc 1 782 9 is_stmt 1 view .LVU390
 782:lvgl/lvgl/src/extra/themes/default/lv_theme_default.c ****         lv_obj_add_style(obj, &styles->disabled, LV_PART_KNOB | LV_STATE_DISABLED);
 1278              		.loc 1 782 38 is_stmt 0 view .LVU391
 1279 06d0 2968     		ldr	r1, [r5]
 782:lvgl/lvgl/src/extra/themes/default/lv_theme_default.c ****         lv_obj_add_style(obj, &styles->disabled, LV_PART_KNOB | LV_STATE_DISABLED);
 1280              		.loc 1 782 9 view .LVU392
 1281 06d2 4FF44032 		mov	r2, #196608
 1282 06d6 01F5A071 		add	r1, r1, #320
 1283 06da 2046     		mov	r0, r4
 1284 06dc FFF7FEFF 		bl	lv_obj_add_style
 1285              	.LVL142:
 783:lvgl/lvgl/src/extra/themes/default/lv_theme_default.c ****     }
 1286              		.loc 1 783 9 is_stmt 1 view .LVU393
 783:lvgl/lvgl/src/extra/themes/default/lv_theme_default.c ****     }
 1287              		.loc 1 783 38 is_stmt 0 view .LVU394
 1288 06e0 2968     		ldr	r1, [r5]
 783:lvgl/lvgl/src/extra/themes/default/lv_theme_default.c ****     }
 1289              		.loc 1 783 9 view .LVU395
 1290 06e2 A04A     		ldr	r2, .L57+16
 1291 06e4 6031     		adds	r1, r1, #96
 1292 06e6 2046     		mov	r0, r4
 1293 06e8 FFF7FEFF 		bl	lv_obj_add_style
 1294              	.LVL143:
 1295 06ec 60E5     		b	.L8
 1296              	.L18:
 788:lvgl/lvgl/src/extra/themes/default/lv_theme_default.c ****         lv_obj_add_style(obj, &styles->card, 0);
 1297              		.loc 1 788 10 is_stmt 1 view .LVU396
 788:lvgl/lvgl/src/extra/themes/default/lv_theme_default.c ****         lv_obj_add_style(obj, &styles->card, 0);
 1298              		.loc 1 788 13 is_stmt 0 view .LVU397
 1299 06ee 9E49     		ldr	r1, .L57+20
 1300 06f0 2046     		mov	r0, r4
 1301 06f2 FFF7FEFF 		bl	lv_obj_check_type
 1302              	.LVL144:
 788:lvgl/lvgl/src/extra/themes/default/lv_theme_default.c ****         lv_obj_add_style(obj, &styles->card, 0);
 1303              		.loc 1 788 12 view .LVU398
 1304 06f6 0028     		cmp	r0, #0
 1305 06f8 41D0     		beq	.L19
 789:lvgl/lvgl/src/extra/themes/default/lv_theme_default.c ****         lv_obj_add_style(obj, &styles->pad_small, 0);
 1306              		.loc 1 789 9 is_stmt 1 view .LVU399
 789:lvgl/lvgl/src/extra/themes/default/lv_theme_default.c ****         lv_obj_add_style(obj, &styles->pad_small, 0);
ARM GAS  C:\Users\gx\AppData\Local\Temp\ccQfGIQ4.s 			page 48


 1307              		.loc 1 789 38 is_stmt 0 view .LVU400
 1308 06fa 974D     		ldr	r5, .L57+4
 1309 06fc 2968     		ldr	r1, [r5]
 789:lvgl/lvgl/src/extra/themes/default/lv_theme_default.c ****         lv_obj_add_style(obj, &styles->pad_small, 0);
 1310              		.loc 1 789 9 view .LVU401
 1311 06fe 0022     		movs	r2, #0
 1312 0700 1831     		adds	r1, r1, #24
 1313 0702 2046     		mov	r0, r4
 1314 0704 FFF7FEFF 		bl	lv_obj_add_style
 1315              	.LVL145:
 790:lvgl/lvgl/src/extra/themes/default/lv_theme_default.c ****         lv_obj_add_style(obj, &styles->chart_bg, 0);
 1316              		.loc 1 790 9 is_stmt 1 view .LVU402
 790:lvgl/lvgl/src/extra/themes/default/lv_theme_default.c ****         lv_obj_add_style(obj, &styles->chart_bg, 0);
 1317              		.loc 1 790 38 is_stmt 0 view .LVU403
 1318 0708 2968     		ldr	r1, [r5]
 790:lvgl/lvgl/src/extra/themes/default/lv_theme_default.c ****         lv_obj_add_style(obj, &styles->chart_bg, 0);
 1319              		.loc 1 790 9 view .LVU404
 1320 070a 0022     		movs	r2, #0
 1321 070c 7831     		adds	r1, r1, #120
 1322 070e 2046     		mov	r0, r4
 1323 0710 FFF7FEFF 		bl	lv_obj_add_style
 1324              	.LVL146:
 791:lvgl/lvgl/src/extra/themes/default/lv_theme_default.c ****         lv_obj_add_style(obj, &styles->scrollbar, LV_PART_SCROLLBAR);
 1325              		.loc 1 791 9 is_stmt 1 view .LVU405
 791:lvgl/lvgl/src/extra/themes/default/lv_theme_default.c ****         lv_obj_add_style(obj, &styles->scrollbar, LV_PART_SCROLLBAR);
 1326              		.loc 1 791 38 is_stmt 0 view .LVU406
 1327 0714 2968     		ldr	r1, [r5]
 791:lvgl/lvgl/src/extra/themes/default/lv_theme_default.c ****         lv_obj_add_style(obj, &styles->scrollbar, LV_PART_SCROLLBAR);
 1328              		.loc 1 791 9 view .LVU407
 1329 0716 0022     		movs	r2, #0
 1330 0718 01F59071 		add	r1, r1, #288
 1331 071c 2046     		mov	r0, r4
 1332 071e FFF7FEFF 		bl	lv_obj_add_style
 1333              	.LVL147:
 792:lvgl/lvgl/src/extra/themes/default/lv_theme_default.c ****         lv_obj_add_style(obj, &styles->scrollbar_scrolled, LV_PART_SCROLLBAR | LV_STATE_SCROLLED);
 1334              		.loc 1 792 9 is_stmt 1 view .LVU408
 792:lvgl/lvgl/src/extra/themes/default/lv_theme_default.c ****         lv_obj_add_style(obj, &styles->scrollbar_scrolled, LV_PART_SCROLLBAR | LV_STATE_SCROLLED);
 1335              		.loc 1 792 38 is_stmt 0 view .LVU409
 1336 0722 2968     		ldr	r1, [r5]
 792:lvgl/lvgl/src/extra/themes/default/lv_theme_default.c ****         lv_obj_add_style(obj, &styles->scrollbar_scrolled, LV_PART_SCROLLBAR | LV_STATE_SCROLLED);
 1337              		.loc 1 792 9 view .LVU410
 1338 0724 4FF48032 		mov	r2, #65536
 1339 0728 0831     		adds	r1, r1, #8
 1340 072a 2046     		mov	r0, r4
 1341 072c FFF7FEFF 		bl	lv_obj_add_style
 1342              	.LVL148:
 793:lvgl/lvgl/src/extra/themes/default/lv_theme_default.c ****         lv_obj_add_style(obj, &styles->chart_series, LV_PART_ITEMS);
 1343              		.loc 1 793 9 is_stmt 1 view .LVU411
 793:lvgl/lvgl/src/extra/themes/default/lv_theme_default.c ****         lv_obj_add_style(obj, &styles->chart_series, LV_PART_ITEMS);
 1344              		.loc 1 793 38 is_stmt 0 view .LVU412
 1345 0730 2968     		ldr	r1, [r5]
 793:lvgl/lvgl/src/extra/themes/default/lv_theme_default.c ****         lv_obj_add_style(obj, &styles->chart_series, LV_PART_ITEMS);
 1346              		.loc 1 793 9 view .LVU413
 1347 0732 8E4A     		ldr	r2, .L57+24
 1348 0734 1031     		adds	r1, r1, #16
 1349 0736 2046     		mov	r0, r4
 1350 0738 FFF7FEFF 		bl	lv_obj_add_style
ARM GAS  C:\Users\gx\AppData\Local\Temp\ccQfGIQ4.s 			page 49


 1351              	.LVL149:
 794:lvgl/lvgl/src/extra/themes/default/lv_theme_default.c ****         lv_obj_add_style(obj, &styles->chart_indic, LV_PART_INDICATOR);
 1352              		.loc 1 794 9 is_stmt 1 view .LVU414
 794:lvgl/lvgl/src/extra/themes/default/lv_theme_default.c ****         lv_obj_add_style(obj, &styles->chart_indic, LV_PART_INDICATOR);
 1353              		.loc 1 794 38 is_stmt 0 view .LVU415
 1354 073c 2968     		ldr	r1, [r5]
 794:lvgl/lvgl/src/extra/themes/default/lv_theme_default.c ****         lv_obj_add_style(obj, &styles->chart_indic, LV_PART_INDICATOR);
 1355              		.loc 1 794 9 view .LVU416
 1356 073e 4FF4A022 		mov	r2, #327680
 1357 0742 01F58471 		add	r1, r1, #264
 1358 0746 2046     		mov	r0, r4
 1359 0748 FFF7FEFF 		bl	lv_obj_add_style
 1360              	.LVL150:
 795:lvgl/lvgl/src/extra/themes/default/lv_theme_default.c ****         lv_obj_add_style(obj, &styles->chart_ticks, LV_PART_TICKS);
 1361              		.loc 1 795 9 is_stmt 1 view .LVU417
 795:lvgl/lvgl/src/extra/themes/default/lv_theme_default.c ****         lv_obj_add_style(obj, &styles->chart_ticks, LV_PART_TICKS);
 1362              		.loc 1 795 38 is_stmt 0 view .LVU418
 1363 074c 2968     		ldr	r1, [r5]
 795:lvgl/lvgl/src/extra/themes/default/lv_theme_default.c ****         lv_obj_add_style(obj, &styles->chart_ticks, LV_PART_TICKS);
 1364              		.loc 1 795 9 view .LVU419
 1365 074e 4FF40032 		mov	r2, #131072
 1366 0752 01F58871 		add	r1, r1, #272
 1367 0756 2046     		mov	r0, r4
 1368 0758 FFF7FEFF 		bl	lv_obj_add_style
 1369              	.LVL151:
 796:lvgl/lvgl/src/extra/themes/default/lv_theme_default.c ****         lv_obj_add_style(obj, &styles->chart_series, LV_PART_CURSOR);
 1370              		.loc 1 796 9 is_stmt 1 view .LVU420
 796:lvgl/lvgl/src/extra/themes/default/lv_theme_default.c ****         lv_obj_add_style(obj, &styles->chart_series, LV_PART_CURSOR);
 1371              		.loc 1 796 38 is_stmt 0 view .LVU421
 1372 075c 2968     		ldr	r1, [r5]
 796:lvgl/lvgl/src/extra/themes/default/lv_theme_default.c ****         lv_obj_add_style(obj, &styles->chart_series, LV_PART_CURSOR);
 1373              		.loc 1 796 9 view .LVU422
 1374 075e 4FF4C022 		mov	r2, #393216
 1375 0762 01F58C71 		add	r1, r1, #280
 1376 0766 2046     		mov	r0, r4
 1377 0768 FFF7FEFF 		bl	lv_obj_add_style
 1378              	.LVL152:
 797:lvgl/lvgl/src/extra/themes/default/lv_theme_default.c ****     }
 1379              		.loc 1 797 9 is_stmt 1 view .LVU423
 797:lvgl/lvgl/src/extra/themes/default/lv_theme_default.c ****     }
 1380              		.loc 1 797 38 is_stmt 0 view .LVU424
 1381 076c 2968     		ldr	r1, [r5]
 797:lvgl/lvgl/src/extra/themes/default/lv_theme_default.c ****     }
 1382              		.loc 1 797 9 view .LVU425
 1383 076e 4FF4E022 		mov	r2, #458752
 1384 0772 01F58471 		add	r1, r1, #264
 1385 0776 2046     		mov	r0, r4
 1386 0778 FFF7FEFF 		bl	lv_obj_add_style
 1387              	.LVL153:
 1388 077c 18E5     		b	.L8
 1389              	.L19:
 802:lvgl/lvgl/src/extra/themes/default/lv_theme_default.c ****         lv_obj_add_style(obj, &styles->card, 0);
 1390              		.loc 1 802 10 is_stmt 1 view .LVU426
 802:lvgl/lvgl/src/extra/themes/default/lv_theme_default.c ****         lv_obj_add_style(obj, &styles->card, 0);
 1391              		.loc 1 802 13 is_stmt 0 view .LVU427
 1392 077e 7C49     		ldr	r1, .L57+28
 1393 0780 2046     		mov	r0, r4
ARM GAS  C:\Users\gx\AppData\Local\Temp\ccQfGIQ4.s 			page 50


 1394 0782 FFF7FEFF 		bl	lv_obj_check_type
 1395              	.LVL154:
 802:lvgl/lvgl/src/extra/themes/default/lv_theme_default.c ****         lv_obj_add_style(obj, &styles->card, 0);
 1396              		.loc 1 802 12 view .LVU428
 1397 0786 60B3     		cbz	r0, .L20
 803:lvgl/lvgl/src/extra/themes/default/lv_theme_default.c ****         lv_obj_add_style(obj, &styles->anim, 0);
 1398              		.loc 1 803 9 is_stmt 1 view .LVU429
 803:lvgl/lvgl/src/extra/themes/default/lv_theme_default.c ****         lv_obj_add_style(obj, &styles->anim, 0);
 1399              		.loc 1 803 38 is_stmt 0 view .LVU430
 1400 0788 734D     		ldr	r5, .L57+4
 1401 078a 2968     		ldr	r1, [r5]
 803:lvgl/lvgl/src/extra/themes/default/lv_theme_default.c ****         lv_obj_add_style(obj, &styles->anim, 0);
 1402              		.loc 1 803 9 view .LVU431
 1403 078c 0022     		movs	r2, #0
 1404 078e 1831     		adds	r1, r1, #24
 1405 0790 2046     		mov	r0, r4
 1406 0792 FFF7FEFF 		bl	lv_obj_add_style
 1407              	.LVL155:
 804:lvgl/lvgl/src/extra/themes/default/lv_theme_default.c ****         lv_obj_add_style(obj, &styles->line_space_large, 0);
 1408              		.loc 1 804 9 is_stmt 1 view .LVU432
 804:lvgl/lvgl/src/extra/themes/default/lv_theme_default.c ****         lv_obj_add_style(obj, &styles->line_space_large, 0);
 1409              		.loc 1 804 38 is_stmt 0 view .LVU433
 1410 0796 2968     		ldr	r1, [r5]
 804:lvgl/lvgl/src/extra/themes/default/lv_theme_default.c ****         lv_obj_add_style(obj, &styles->line_space_large, 0);
 1411              		.loc 1 804 9 view .LVU434
 1412 0798 0022     		movs	r2, #0
 1413 079a E031     		adds	r1, r1, #224
 1414 079c 2046     		mov	r0, r4
 1415 079e FFF7FEFF 		bl	lv_obj_add_style
 1416              	.LVL156:
 805:lvgl/lvgl/src/extra/themes/default/lv_theme_default.c ****         lv_obj_add_style(obj, &styles->text_align_center, 0);
 1417              		.loc 1 805 9 is_stmt 1 view .LVU435
 805:lvgl/lvgl/src/extra/themes/default/lv_theme_default.c ****         lv_obj_add_style(obj, &styles->text_align_center, 0);
 1418              		.loc 1 805 38 is_stmt 0 view .LVU436
 1419 07a2 2968     		ldr	r1, [r5]
 805:lvgl/lvgl/src/extra/themes/default/lv_theme_default.c ****         lv_obj_add_style(obj, &styles->text_align_center, 0);
 1420              		.loc 1 805 9 view .LVU437
 1421 07a4 0022     		movs	r2, #0
 1422 07a6 9031     		adds	r1, r1, #144
 1423 07a8 2046     		mov	r0, r4
 1424 07aa FFF7FEFF 		bl	lv_obj_add_style
 1425              	.LVL157:
 806:lvgl/lvgl/src/extra/themes/default/lv_theme_default.c ****         lv_obj_add_style(obj, &styles->outline_primary, LV_STATE_FOCUS_KEY);
 1426              		.loc 1 806 9 is_stmt 1 view .LVU438
 806:lvgl/lvgl/src/extra/themes/default/lv_theme_default.c ****         lv_obj_add_style(obj, &styles->outline_primary, LV_STATE_FOCUS_KEY);
 1427              		.loc 1 806 38 is_stmt 0 view .LVU439
 1428 07ae 2968     		ldr	r1, [r5]
 806:lvgl/lvgl/src/extra/themes/default/lv_theme_default.c ****         lv_obj_add_style(obj, &styles->outline_primary, LV_STATE_FOCUS_KEY);
 1429              		.loc 1 806 9 view .LVU440
 1430 07b0 0022     		movs	r2, #0
 1431 07b2 9831     		adds	r1, r1, #152
 1432 07b4 2046     		mov	r0, r4
 1433 07b6 FFF7FEFF 		bl	lv_obj_add_style
 1434              	.LVL158:
 807:lvgl/lvgl/src/extra/themes/default/lv_theme_default.c ****         lv_obj_add_style(obj, &styles->outline_secondary, LV_STATE_EDITED);
 1435              		.loc 1 807 9 is_stmt 1 view .LVU441
 807:lvgl/lvgl/src/extra/themes/default/lv_theme_default.c ****         lv_obj_add_style(obj, &styles->outline_secondary, LV_STATE_EDITED);
ARM GAS  C:\Users\gx\AppData\Local\Temp\ccQfGIQ4.s 			page 51


 1436              		.loc 1 807 38 is_stmt 0 view .LVU442
 1437 07ba 2968     		ldr	r1, [r5]
 807:lvgl/lvgl/src/extra/themes/default/lv_theme_default.c ****         lv_obj_add_style(obj, &styles->outline_secondary, LV_STATE_EDITED);
 1438              		.loc 1 807 9 view .LVU443
 1439 07bc 0422     		movs	r2, #4
 1440 07be A031     		adds	r1, r1, #160
 1441 07c0 2046     		mov	r0, r4
 1442 07c2 FFF7FEFF 		bl	lv_obj_add_style
 1443              	.LVL159:
 808:lvgl/lvgl/src/extra/themes/default/lv_theme_default.c ****         lv_obj_add_style(obj, &styles->bg_color_primary, LV_PART_SELECTED);
 1444              		.loc 1 808 9 is_stmt 1 view .LVU444
 808:lvgl/lvgl/src/extra/themes/default/lv_theme_default.c ****         lv_obj_add_style(obj, &styles->bg_color_primary, LV_PART_SELECTED);
 1445              		.loc 1 808 38 is_stmt 0 view .LVU445
 1446 07c6 2968     		ldr	r1, [r5]
 808:lvgl/lvgl/src/extra/themes/default/lv_theme_default.c ****         lv_obj_add_style(obj, &styles->bg_color_primary, LV_PART_SELECTED);
 1447              		.loc 1 808 9 view .LVU446
 1448 07c8 0822     		movs	r2, #8
 1449 07ca A831     		adds	r1, r1, #168
 1450 07cc 2046     		mov	r0, r4
 1451 07ce FFF7FEFF 		bl	lv_obj_add_style
 1452              	.LVL160:
 809:lvgl/lvgl/src/extra/themes/default/lv_theme_default.c ****     }
 1453              		.loc 1 809 9 is_stmt 1 view .LVU447
 809:lvgl/lvgl/src/extra/themes/default/lv_theme_default.c ****     }
 1454              		.loc 1 809 38 is_stmt 0 view .LVU448
 1455 07d2 2968     		ldr	r1, [r5]
 809:lvgl/lvgl/src/extra/themes/default/lv_theme_default.c ****     }
 1456              		.loc 1 809 9 view .LVU449
 1457 07d4 4FF48022 		mov	r2, #262144
 1458 07d8 2831     		adds	r1, r1, #40
 1459 07da 2046     		mov	r0, r4
 1460 07dc FFF7FEFF 		bl	lv_obj_add_style
 1461              	.LVL161:
 1462 07e0 E6E4     		b	.L8
 1463              	.L20:
 814:lvgl/lvgl/src/extra/themes/default/lv_theme_default.c ****         lv_obj_add_style(obj, &styles->card, 0);
 1464              		.loc 1 814 10 is_stmt 1 view .LVU450
 814:lvgl/lvgl/src/extra/themes/default/lv_theme_default.c ****         lv_obj_add_style(obj, &styles->card, 0);
 1465              		.loc 1 814 13 is_stmt 0 view .LVU451
 1466 07e2 6449     		ldr	r1, .L57+32
 1467 07e4 2046     		mov	r0, r4
 1468 07e6 FFF7FEFF 		bl	lv_obj_check_type
 1469              	.LVL162:
 814:lvgl/lvgl/src/extra/themes/default/lv_theme_default.c ****         lv_obj_add_style(obj, &styles->card, 0);
 1470              		.loc 1 814 12 view .LVU452
 1471 07ea 90B3     		cbz	r0, .L21
 815:lvgl/lvgl/src/extra/themes/default/lv_theme_default.c ****         lv_obj_add_style(obj, &styles->pad_small, 0);
 1472              		.loc 1 815 9 is_stmt 1 view .LVU453
 815:lvgl/lvgl/src/extra/themes/default/lv_theme_default.c ****         lv_obj_add_style(obj, &styles->pad_small, 0);
 1473              		.loc 1 815 38 is_stmt 0 view .LVU454
 1474 07ec 5A4D     		ldr	r5, .L57+4
 1475 07ee 2968     		ldr	r1, [r5]
 815:lvgl/lvgl/src/extra/themes/default/lv_theme_default.c ****         lv_obj_add_style(obj, &styles->pad_small, 0);
 1476              		.loc 1 815 9 view .LVU455
 1477 07f0 0022     		movs	r2, #0
 1478 07f2 1831     		adds	r1, r1, #24
 1479 07f4 2046     		mov	r0, r4
ARM GAS  C:\Users\gx\AppData\Local\Temp\ccQfGIQ4.s 			page 52


 1480 07f6 FFF7FEFF 		bl	lv_obj_add_style
 1481              	.LVL163:
 816:lvgl/lvgl/src/extra/themes/default/lv_theme_default.c ****         lv_obj_add_style(obj, &styles->transition_delayed, 0);
 1482              		.loc 1 816 9 is_stmt 1 view .LVU456
 816:lvgl/lvgl/src/extra/themes/default/lv_theme_default.c ****         lv_obj_add_style(obj, &styles->transition_delayed, 0);
 1483              		.loc 1 816 38 is_stmt 0 view .LVU457
 1484 07fa 2968     		ldr	r1, [r5]
 816:lvgl/lvgl/src/extra/themes/default/lv_theme_default.c ****         lv_obj_add_style(obj, &styles->transition_delayed, 0);
 1485              		.loc 1 816 9 view .LVU458
 1486 07fc 0022     		movs	r2, #0
 1487 07fe 7831     		adds	r1, r1, #120
 1488 0800 2046     		mov	r0, r4
 1489 0802 FFF7FEFF 		bl	lv_obj_add_style
 1490              	.LVL164:
 817:lvgl/lvgl/src/extra/themes/default/lv_theme_default.c ****         lv_obj_add_style(obj, &styles->transition_normal, LV_STATE_PRESSED);
 1491              		.loc 1 817 9 is_stmt 1 view .LVU459
 817:lvgl/lvgl/src/extra/themes/default/lv_theme_default.c ****         lv_obj_add_style(obj, &styles->transition_normal, LV_STATE_PRESSED);
 1492              		.loc 1 817 38 is_stmt 0 view .LVU460
 1493 0806 2968     		ldr	r1, [r5]
 817:lvgl/lvgl/src/extra/themes/default/lv_theme_default.c ****         lv_obj_add_style(obj, &styles->transition_normal, LV_STATE_PRESSED);
 1494              		.loc 1 817 9 view .LVU461
 1495 0808 0022     		movs	r2, #0
 1496 080a D031     		adds	r1, r1, #208
 1497 080c 2046     		mov	r0, r4
 1498 080e FFF7FEFF 		bl	lv_obj_add_style
 1499              	.LVL165:
 818:lvgl/lvgl/src/extra/themes/default/lv_theme_default.c ****         lv_obj_add_style(obj, &styles->pressed, LV_STATE_PRESSED);
 1500              		.loc 1 818 9 is_stmt 1 view .LVU462
 818:lvgl/lvgl/src/extra/themes/default/lv_theme_default.c ****         lv_obj_add_style(obj, &styles->pressed, LV_STATE_PRESSED);
 1501              		.loc 1 818 38 is_stmt 0 view .LVU463
 1502 0812 2968     		ldr	r1, [r5]
 818:lvgl/lvgl/src/extra/themes/default/lv_theme_default.c ****         lv_obj_add_style(obj, &styles->pressed, LV_STATE_PRESSED);
 1503              		.loc 1 818 9 view .LVU464
 1504 0814 2022     		movs	r2, #32
 1505 0816 D831     		adds	r1, r1, #216
 1506 0818 2046     		mov	r0, r4
 1507 081a FFF7FEFF 		bl	lv_obj_add_style
 1508              	.LVL166:
 819:lvgl/lvgl/src/extra/themes/default/lv_theme_default.c ****         lv_obj_add_style(obj, &styles->outline_primary, LV_STATE_FOCUS_KEY);
 1509              		.loc 1 819 9 is_stmt 1 view .LVU465
 819:lvgl/lvgl/src/extra/themes/default/lv_theme_default.c ****         lv_obj_add_style(obj, &styles->outline_primary, LV_STATE_FOCUS_KEY);
 1510              		.loc 1 819 38 is_stmt 0 view .LVU466
 1511 081e 2968     		ldr	r1, [r5]
 819:lvgl/lvgl/src/extra/themes/default/lv_theme_default.c ****         lv_obj_add_style(obj, &styles->outline_primary, LV_STATE_FOCUS_KEY);
 1512              		.loc 1 819 9 view .LVU467
 1513 0820 2022     		movs	r2, #32
 1514 0822 5831     		adds	r1, r1, #88
 1515 0824 2046     		mov	r0, r4
 1516 0826 FFF7FEFF 		bl	lv_obj_add_style
 1517              	.LVL167:
 820:lvgl/lvgl/src/extra/themes/default/lv_theme_default.c ****         lv_obj_add_style(obj, &styles->outline_secondary, LV_STATE_EDITED);
 1518              		.loc 1 820 9 is_stmt 1 view .LVU468
 820:lvgl/lvgl/src/extra/themes/default/lv_theme_default.c ****         lv_obj_add_style(obj, &styles->outline_secondary, LV_STATE_EDITED);
 1519              		.loc 1 820 38 is_stmt 0 view .LVU469
 1520 082a 2968     		ldr	r1, [r5]
 820:lvgl/lvgl/src/extra/themes/default/lv_theme_default.c ****         lv_obj_add_style(obj, &styles->outline_secondary, LV_STATE_EDITED);
 1521              		.loc 1 820 9 view .LVU470
ARM GAS  C:\Users\gx\AppData\Local\Temp\ccQfGIQ4.s 			page 53


 1522 082c 0422     		movs	r2, #4
 1523 082e A031     		adds	r1, r1, #160
 1524 0830 2046     		mov	r0, r4
 1525 0832 FFF7FEFF 		bl	lv_obj_add_style
 1526              	.LVL168:
 821:lvgl/lvgl/src/extra/themes/default/lv_theme_default.c ****         lv_obj_add_style(obj, &styles->transition_normal, LV_PART_INDICATOR);
 1527              		.loc 1 821 9 is_stmt 1 view .LVU471
 821:lvgl/lvgl/src/extra/themes/default/lv_theme_default.c ****         lv_obj_add_style(obj, &styles->transition_normal, LV_PART_INDICATOR);
 1528              		.loc 1 821 38 is_stmt 0 view .LVU472
 1529 0836 2968     		ldr	r1, [r5]
 821:lvgl/lvgl/src/extra/themes/default/lv_theme_default.c ****         lv_obj_add_style(obj, &styles->transition_normal, LV_PART_INDICATOR);
 1530              		.loc 1 821 9 view .LVU473
 1531 0838 0822     		movs	r2, #8
 1532 083a A831     		adds	r1, r1, #168
 1533 083c 2046     		mov	r0, r4
 1534 083e FFF7FEFF 		bl	lv_obj_add_style
 1535              	.LVL169:
 822:lvgl/lvgl/src/extra/themes/default/lv_theme_default.c ****     }
 1536              		.loc 1 822 9 is_stmt 1 view .LVU474
 822:lvgl/lvgl/src/extra/themes/default/lv_theme_default.c ****     }
 1537              		.loc 1 822 38 is_stmt 0 view .LVU475
 1538 0842 2968     		ldr	r1, [r5]
 822:lvgl/lvgl/src/extra/themes/default/lv_theme_default.c ****     }
 1539              		.loc 1 822 9 view .LVU476
 1540 0844 4FF40032 		mov	r2, #131072
 1541 0848 D831     		adds	r1, r1, #216
 1542 084a 2046     		mov	r0, r4
 1543 084c FFF7FEFF 		bl	lv_obj_add_style
 1544              	.LVL170:
 1545 0850 AEE4     		b	.L8
 1546              	.L21:
 824:lvgl/lvgl/src/extra/themes/default/lv_theme_default.c ****         lv_obj_add_style(obj, &styles->card, 0);
 1547              		.loc 1 824 10 is_stmt 1 view .LVU477
 824:lvgl/lvgl/src/extra/themes/default/lv_theme_default.c ****         lv_obj_add_style(obj, &styles->card, 0);
 1548              		.loc 1 824 13 is_stmt 0 view .LVU478
 1549 0852 4949     		ldr	r1, .L57+36
 1550 0854 2046     		mov	r0, r4
 1551 0856 FFF7FEFF 		bl	lv_obj_check_type
 1552              	.LVL171:
 824:lvgl/lvgl/src/extra/themes/default/lv_theme_default.c ****         lv_obj_add_style(obj, &styles->card, 0);
 1553              		.loc 1 824 12 view .LVU479
 1554 085a 0028     		cmp	r0, #0
 1555 085c 3AD0     		beq	.L22
 825:lvgl/lvgl/src/extra/themes/default/lv_theme_default.c ****         lv_obj_add_style(obj, &styles->clip_corner, 0);
 1556              		.loc 1 825 9 is_stmt 1 view .LVU480
 825:lvgl/lvgl/src/extra/themes/default/lv_theme_default.c ****         lv_obj_add_style(obj, &styles->clip_corner, 0);
 1557              		.loc 1 825 38 is_stmt 0 view .LVU481
 1558 085e 3E4D     		ldr	r5, .L57+4
 1559 0860 2968     		ldr	r1, [r5]
 825:lvgl/lvgl/src/extra/themes/default/lv_theme_default.c ****         lv_obj_add_style(obj, &styles->clip_corner, 0);
 1560              		.loc 1 825 9 view .LVU482
 1561 0862 0022     		movs	r2, #0
 1562 0864 1831     		adds	r1, r1, #24
 1563 0866 2046     		mov	r0, r4
 1564 0868 FFF7FEFF 		bl	lv_obj_add_style
 1565              	.LVL172:
 826:lvgl/lvgl/src/extra/themes/default/lv_theme_default.c ****         lv_obj_add_style(obj, &styles->line_space_large, 0);
ARM GAS  C:\Users\gx\AppData\Local\Temp\ccQfGIQ4.s 			page 54


 1566              		.loc 1 826 9 is_stmt 1 view .LVU483
 826:lvgl/lvgl/src/extra/themes/default/lv_theme_default.c ****         lv_obj_add_style(obj, &styles->line_space_large, 0);
 1567              		.loc 1 826 38 is_stmt 0 view .LVU484
 1568 086c 2968     		ldr	r1, [r5]
 826:lvgl/lvgl/src/extra/themes/default/lv_theme_default.c ****         lv_obj_add_style(obj, &styles->line_space_large, 0);
 1569              		.loc 1 826 9 view .LVU485
 1570 086e 0022     		movs	r2, #0
 1571 0870 C031     		adds	r1, r1, #192
 1572 0872 2046     		mov	r0, r4
 1573 0874 FFF7FEFF 		bl	lv_obj_add_style
 1574              	.LVL173:
 827:lvgl/lvgl/src/extra/themes/default/lv_theme_default.c ****         lv_obj_add_style(obj, &styles->dropdown_list, 0);
 1575              		.loc 1 827 9 is_stmt 1 view .LVU486
 827:lvgl/lvgl/src/extra/themes/default/lv_theme_default.c ****         lv_obj_add_style(obj, &styles->dropdown_list, 0);
 1576              		.loc 1 827 38 is_stmt 0 view .LVU487
 1577 0878 2968     		ldr	r1, [r5]
 827:lvgl/lvgl/src/extra/themes/default/lv_theme_default.c ****         lv_obj_add_style(obj, &styles->dropdown_list, 0);
 1578              		.loc 1 827 9 view .LVU488
 1579 087a 0022     		movs	r2, #0
 1580 087c 9031     		adds	r1, r1, #144
 1581 087e 2046     		mov	r0, r4
 1582 0880 FFF7FEFF 		bl	lv_obj_add_style
 1583              	.LVL174:
 828:lvgl/lvgl/src/extra/themes/default/lv_theme_default.c ****         lv_obj_add_style(obj, &styles->scrollbar, LV_PART_SCROLLBAR);
 1584              		.loc 1 828 9 is_stmt 1 view .LVU489
 828:lvgl/lvgl/src/extra/themes/default/lv_theme_default.c ****         lv_obj_add_style(obj, &styles->scrollbar, LV_PART_SCROLLBAR);
 1585              		.loc 1 828 38 is_stmt 0 view .LVU490
 1586 0884 2968     		ldr	r1, [r5]
 828:lvgl/lvgl/src/extra/themes/default/lv_theme_default.c ****         lv_obj_add_style(obj, &styles->scrollbar, LV_PART_SCROLLBAR);
 1587              		.loc 1 828 9 view .LVU491
 1588 0886 0022     		movs	r2, #0
 1589 0888 01F59471 		add	r1, r1, #296
 1590 088c 2046     		mov	r0, r4
 1591 088e FFF7FEFF 		bl	lv_obj_add_style
 1592              	.LVL175:
 829:lvgl/lvgl/src/extra/themes/default/lv_theme_default.c ****         lv_obj_add_style(obj, &styles->scrollbar_scrolled, LV_PART_SCROLLBAR | LV_STATE_SCROLLED);
 1593              		.loc 1 829 9 is_stmt 1 view .LVU492
 829:lvgl/lvgl/src/extra/themes/default/lv_theme_default.c ****         lv_obj_add_style(obj, &styles->scrollbar_scrolled, LV_PART_SCROLLBAR | LV_STATE_SCROLLED);
 1594              		.loc 1 829 38 is_stmt 0 view .LVU493
 1595 0892 2968     		ldr	r1, [r5]
 829:lvgl/lvgl/src/extra/themes/default/lv_theme_default.c ****         lv_obj_add_style(obj, &styles->scrollbar_scrolled, LV_PART_SCROLLBAR | LV_STATE_SCROLLED);
 1596              		.loc 1 829 9 view .LVU494
 1597 0894 4FF48032 		mov	r2, #65536
 1598 0898 0831     		adds	r1, r1, #8
 1599 089a 2046     		mov	r0, r4
 1600 089c FFF7FEFF 		bl	lv_obj_add_style
 1601              	.LVL176:
 830:lvgl/lvgl/src/extra/themes/default/lv_theme_default.c ****         lv_obj_add_style(obj, &styles->bg_color_white, LV_PART_SELECTED);
 1602              		.loc 1 830 9 is_stmt 1 view .LVU495
 830:lvgl/lvgl/src/extra/themes/default/lv_theme_default.c ****         lv_obj_add_style(obj, &styles->bg_color_white, LV_PART_SELECTED);
 1603              		.loc 1 830 38 is_stmt 0 view .LVU496
 1604 08a0 2968     		ldr	r1, [r5]
 830:lvgl/lvgl/src/extra/themes/default/lv_theme_default.c ****         lv_obj_add_style(obj, &styles->bg_color_white, LV_PART_SELECTED);
 1605              		.loc 1 830 9 view .LVU497
 1606 08a2 324A     		ldr	r2, .L57+24
 1607 08a4 1031     		adds	r1, r1, #16
 1608 08a6 2046     		mov	r0, r4
ARM GAS  C:\Users\gx\AppData\Local\Temp\ccQfGIQ4.s 			page 55


 1609 08a8 FFF7FEFF 		bl	lv_obj_add_style
 1610              	.LVL177:
 831:lvgl/lvgl/src/extra/themes/default/lv_theme_default.c ****         lv_obj_add_style(obj, &styles->bg_color_primary, LV_PART_SELECTED | LV_STATE_CHECKED);
 1611              		.loc 1 831 9 is_stmt 1 view .LVU498
 831:lvgl/lvgl/src/extra/themes/default/lv_theme_default.c ****         lv_obj_add_style(obj, &styles->bg_color_primary, LV_PART_SELECTED | LV_STATE_CHECKED);
 1612              		.loc 1 831 38 is_stmt 0 view .LVU499
 1613 08ac 2968     		ldr	r1, [r5]
 831:lvgl/lvgl/src/extra/themes/default/lv_theme_default.c ****         lv_obj_add_style(obj, &styles->bg_color_primary, LV_PART_SELECTED | LV_STATE_CHECKED);
 1614              		.loc 1 831 9 view .LVU500
 1615 08ae 4FF48022 		mov	r2, #262144
 1616 08b2 5031     		adds	r1, r1, #80
 1617 08b4 2046     		mov	r0, r4
 1618 08b6 FFF7FEFF 		bl	lv_obj_add_style
 1619              	.LVL178:
 832:lvgl/lvgl/src/extra/themes/default/lv_theme_default.c ****         lv_obj_add_style(obj, &styles->pressed, LV_PART_SELECTED | LV_STATE_PRESSED);
 1620              		.loc 1 832 9 is_stmt 1 view .LVU501
 832:lvgl/lvgl/src/extra/themes/default/lv_theme_default.c ****         lv_obj_add_style(obj, &styles->pressed, LV_PART_SELECTED | LV_STATE_PRESSED);
 1621              		.loc 1 832 38 is_stmt 0 view .LVU502
 1622 08ba 2968     		ldr	r1, [r5]
 832:lvgl/lvgl/src/extra/themes/default/lv_theme_default.c ****         lv_obj_add_style(obj, &styles->pressed, LV_PART_SELECTED | LV_STATE_PRESSED);
 1623              		.loc 1 832 9 view .LVU503
 1624 08bc 2F4A     		ldr	r2, .L57+40
 1625 08be 2831     		adds	r1, r1, #40
 1626 08c0 2046     		mov	r0, r4
 1627 08c2 FFF7FEFF 		bl	lv_obj_add_style
 1628              	.LVL179:
 833:lvgl/lvgl/src/extra/themes/default/lv_theme_default.c ****     }
 1629              		.loc 1 833 9 is_stmt 1 view .LVU504
 833:lvgl/lvgl/src/extra/themes/default/lv_theme_default.c ****     }
 1630              		.loc 1 833 38 is_stmt 0 view .LVU505
 1631 08c6 2968     		ldr	r1, [r5]
 833:lvgl/lvgl/src/extra/themes/default/lv_theme_default.c ****     }
 1632              		.loc 1 833 9 view .LVU506
 1633 08c8 2D4A     		ldr	r2, .L57+44
 1634 08ca 5831     		adds	r1, r1, #88
 1635 08cc 2046     		mov	r0, r4
 1636 08ce FFF7FEFF 		bl	lv_obj_add_style
 1637              	.LVL180:
 1638 08d2 6DE4     		b	.L8
 1639              	.L22:
 838:lvgl/lvgl/src/extra/themes/default/lv_theme_default.c ****         lv_obj_add_style(obj, &styles->arc_indic, 0);
 1640              		.loc 1 838 10 is_stmt 1 view .LVU507
 838:lvgl/lvgl/src/extra/themes/default/lv_theme_default.c ****         lv_obj_add_style(obj, &styles->arc_indic, 0);
 1641              		.loc 1 838 13 is_stmt 0 view .LVU508
 1642 08d4 2B49     		ldr	r1, .L57+48
 1643 08d6 2046     		mov	r0, r4
 1644 08d8 FFF7FEFF 		bl	lv_obj_check_type
 1645              	.LVL181:
 838:lvgl/lvgl/src/extra/themes/default/lv_theme_default.c ****         lv_obj_add_style(obj, &styles->arc_indic, 0);
 1646              		.loc 1 838 12 view .LVU509
 1647 08dc E8B1     		cbz	r0, .L23
 839:lvgl/lvgl/src/extra/themes/default/lv_theme_default.c ****         lv_obj_add_style(obj, &styles->arc_indic, LV_PART_INDICATOR);
 1648              		.loc 1 839 9 is_stmt 1 view .LVU510
 839:lvgl/lvgl/src/extra/themes/default/lv_theme_default.c ****         lv_obj_add_style(obj, &styles->arc_indic, LV_PART_INDICATOR);
 1649              		.loc 1 839 38 is_stmt 0 view .LVU511
 1650 08de 1E4D     		ldr	r5, .L57+4
 1651 08e0 2968     		ldr	r1, [r5]
ARM GAS  C:\Users\gx\AppData\Local\Temp\ccQfGIQ4.s 			page 56


 839:lvgl/lvgl/src/extra/themes/default/lv_theme_default.c ****         lv_obj_add_style(obj, &styles->arc_indic, LV_PART_INDICATOR);
 1652              		.loc 1 839 9 view .LVU512
 1653 08e2 0022     		movs	r2, #0
 1654 08e4 F831     		adds	r1, r1, #248
 1655 08e6 2046     		mov	r0, r4
 1656 08e8 FFF7FEFF 		bl	lv_obj_add_style
 1657              	.LVL182:
 840:lvgl/lvgl/src/extra/themes/default/lv_theme_default.c ****         lv_obj_add_style(obj, &styles->arc_indic_primary, LV_PART_INDICATOR);
 1658              		.loc 1 840 9 is_stmt 1 view .LVU513
 840:lvgl/lvgl/src/extra/themes/default/lv_theme_default.c ****         lv_obj_add_style(obj, &styles->arc_indic_primary, LV_PART_INDICATOR);
 1659              		.loc 1 840 38 is_stmt 0 view .LVU514
 1660 08ec 2968     		ldr	r1, [r5]
 840:lvgl/lvgl/src/extra/themes/default/lv_theme_default.c ****         lv_obj_add_style(obj, &styles->arc_indic_primary, LV_PART_INDICATOR);
 1661              		.loc 1 840 9 view .LVU515
 1662 08ee 4FF40032 		mov	r2, #131072
 1663 08f2 F831     		adds	r1, r1, #248
 1664 08f4 2046     		mov	r0, r4
 1665 08f6 FFF7FEFF 		bl	lv_obj_add_style
 1666              	.LVL183:
 841:lvgl/lvgl/src/extra/themes/default/lv_theme_default.c ****         lv_obj_add_style(obj, &styles->knob, LV_PART_KNOB);
 1667              		.loc 1 841 9 is_stmt 1 view .LVU516
 841:lvgl/lvgl/src/extra/themes/default/lv_theme_default.c ****         lv_obj_add_style(obj, &styles->knob, LV_PART_KNOB);
 1668              		.loc 1 841 38 is_stmt 0 view .LVU517
 1669 08fa 2968     		ldr	r1, [r5]
 841:lvgl/lvgl/src/extra/themes/default/lv_theme_default.c ****         lv_obj_add_style(obj, &styles->knob, LV_PART_KNOB);
 1670              		.loc 1 841 9 view .LVU518
 1671 08fc 4FF40032 		mov	r2, #131072
 1672 0900 01F58071 		add	r1, r1, #256
 1673 0904 2046     		mov	r0, r4
 1674 0906 FFF7FEFF 		bl	lv_obj_add_style
 1675              	.LVL184:
 842:lvgl/lvgl/src/extra/themes/default/lv_theme_default.c ****     }
 1676              		.loc 1 842 9 is_stmt 1 view .LVU519
 842:lvgl/lvgl/src/extra/themes/default/lv_theme_default.c ****     }
 1677              		.loc 1 842 38 is_stmt 0 view .LVU520
 1678 090a 2968     		ldr	r1, [r5]
 842:lvgl/lvgl/src/extra/themes/default/lv_theme_default.c ****     }
 1679              		.loc 1 842 9 view .LVU521
 1680 090c 4FF44032 		mov	r2, #196608
 1681 0910 E831     		adds	r1, r1, #232
 1682 0912 2046     		mov	r0, r4
 1683 0914 FFF7FEFF 		bl	lv_obj_add_style
 1684              	.LVL185:
 1685 0918 4AE4     		b	.L8
 1686              	.L23:
 848:lvgl/lvgl/src/extra/themes/default/lv_theme_default.c ****         lv_obj_add_style(obj, &styles->arc_indic, 0);
 1687              		.loc 1 848 10 is_stmt 1 view .LVU522
 848:lvgl/lvgl/src/extra/themes/default/lv_theme_default.c ****         lv_obj_add_style(obj, &styles->arc_indic, 0);
 1688              		.loc 1 848 13 is_stmt 0 view .LVU523
 1689 091a 1B49     		ldr	r1, .L57+52
 1690 091c 2046     		mov	r0, r4
 1691 091e FFF7FEFF 		bl	lv_obj_check_type
 1692              	.LVL186:
 848:lvgl/lvgl/src/extra/themes/default/lv_theme_default.c ****         lv_obj_add_style(obj, &styles->arc_indic, 0);
 1693              		.loc 1 848 12 view .LVU524
 1694 0922 98B3     		cbz	r0, .L24
 849:lvgl/lvgl/src/extra/themes/default/lv_theme_default.c ****         lv_obj_add_style(obj, &styles->arc_indic, LV_PART_INDICATOR);
ARM GAS  C:\Users\gx\AppData\Local\Temp\ccQfGIQ4.s 			page 57


 1695              		.loc 1 849 9 is_stmt 1 view .LVU525
 849:lvgl/lvgl/src/extra/themes/default/lv_theme_default.c ****         lv_obj_add_style(obj, &styles->arc_indic, LV_PART_INDICATOR);
 1696              		.loc 1 849 38 is_stmt 0 view .LVU526
 1697 0924 0C4D     		ldr	r5, .L57+4
 1698 0926 2968     		ldr	r1, [r5]
 849:lvgl/lvgl/src/extra/themes/default/lv_theme_default.c ****         lv_obj_add_style(obj, &styles->arc_indic, LV_PART_INDICATOR);
 1699              		.loc 1 849 9 view .LVU527
 1700 0928 0022     		movs	r2, #0
 1701 092a F831     		adds	r1, r1, #248
 1702 092c 2046     		mov	r0, r4
 1703 092e FFF7FEFF 		bl	lv_obj_add_style
 1704              	.LVL187:
 850:lvgl/lvgl/src/extra/themes/default/lv_theme_default.c ****         lv_obj_add_style(obj, &styles->arc_indic_primary, LV_PART_INDICATOR);
 1705              		.loc 1 850 9 is_stmt 1 view .LVU528
 850:lvgl/lvgl/src/extra/themes/default/lv_theme_default.c ****         lv_obj_add_style(obj, &styles->arc_indic_primary, LV_PART_INDICATOR);
 1706              		.loc 1 850 38 is_stmt 0 view .LVU529
 1707 0932 2968     		ldr	r1, [r5]
 850:lvgl/lvgl/src/extra/themes/default/lv_theme_default.c ****         lv_obj_add_style(obj, &styles->arc_indic_primary, LV_PART_INDICATOR);
 1708              		.loc 1 850 9 view .LVU530
 1709 0934 4FF40032 		mov	r2, #131072
 1710 0938 F831     		adds	r1, r1, #248
 1711 093a 2046     		mov	r0, r4
 1712 093c FFF7FEFF 		bl	lv_obj_add_style
 1713              	.LVL188:
 851:lvgl/lvgl/src/extra/themes/default/lv_theme_default.c ****     }
 1714              		.loc 1 851 9 is_stmt 1 view .LVU531
 851:lvgl/lvgl/src/extra/themes/default/lv_theme_default.c ****     }
 1715              		.loc 1 851 38 is_stmt 0 view .LVU532
 1716 0940 2968     		ldr	r1, [r5]
 851:lvgl/lvgl/src/extra/themes/default/lv_theme_default.c ****     }
 1717              		.loc 1 851 9 view .LVU533
 1718 0942 4FF40032 		mov	r2, #131072
 1719 0946 01F58071 		add	r1, r1, #256
 1720 094a 2046     		mov	r0, r4
 1721 094c FFF7FEFF 		bl	lv_obj_add_style
 1722              	.LVL189:
 1723 0950 2EE4     		b	.L8
 1724              	.L58:
 1725 0952 00BF     		.align	2
 1726              	.L57:
 1727 0954 00000000 		.word	lv_switch_class
 1728 0958 00000000 		.word	.LANCHOR0
 1729 095c 01000200 		.word	131073
 1730 0960 80000200 		.word	131200
 1731 0964 80000300 		.word	196736
 1732 0968 00000000 		.word	lv_chart_class
 1733 096c 40000100 		.word	65600
 1734 0970 00000000 		.word	lv_roller_class
 1735 0974 00000000 		.word	lv_dropdown_class
 1736 0978 00000000 		.word	lv_dropdownlist_class
 1737 097c 01000400 		.word	262145
 1738 0980 20000400 		.word	262176
 1739 0984 00000000 		.word	lv_arc_class
 1740 0988 00000000 		.word	lv_spinner_class
 1741              	.L24:
 856:lvgl/lvgl/src/extra/themes/default/lv_theme_default.c ****         lv_obj_add_style(obj, &styles->card, 0);
 1742              		.loc 1 856 10 is_stmt 1 view .LVU534
ARM GAS  C:\Users\gx\AppData\Local\Temp\ccQfGIQ4.s 			page 58


 856:lvgl/lvgl/src/extra/themes/default/lv_theme_default.c ****         lv_obj_add_style(obj, &styles->card, 0);
 1743              		.loc 1 856 13 is_stmt 0 view .LVU535
 1744 098c BD49     		ldr	r1, .L59
 1745 098e 2046     		mov	r0, r4
 1746 0990 FFF7FEFF 		bl	lv_obj_check_type
 1747              	.LVL190:
 856:lvgl/lvgl/src/extra/themes/default/lv_theme_default.c ****         lv_obj_add_style(obj, &styles->card, 0);
 1748              		.loc 1 856 12 view .LVU536
 1749 0994 B0B1     		cbz	r0, .L25
 857:lvgl/lvgl/src/extra/themes/default/lv_theme_default.c ****         lv_obj_add_style(obj, &styles->circle, 0);
 1750              		.loc 1 857 9 is_stmt 1 view .LVU537
 857:lvgl/lvgl/src/extra/themes/default/lv_theme_default.c ****         lv_obj_add_style(obj, &styles->circle, 0);
 1751              		.loc 1 857 38 is_stmt 0 view .LVU538
 1752 0996 BC4D     		ldr	r5, .L59+4
 1753 0998 2968     		ldr	r1, [r5]
 857:lvgl/lvgl/src/extra/themes/default/lv_theme_default.c ****         lv_obj_add_style(obj, &styles->circle, 0);
 1754              		.loc 1 857 9 view .LVU539
 1755 099a 0022     		movs	r2, #0
 1756 099c 1831     		adds	r1, r1, #24
 1757 099e 2046     		mov	r0, r4
 1758 09a0 FFF7FEFF 		bl	lv_obj_add_style
 1759              	.LVL191:
 858:lvgl/lvgl/src/extra/themes/default/lv_theme_default.c ****         lv_obj_add_style(obj, &styles->meter_indic, LV_PART_INDICATOR);
 1760              		.loc 1 858 9 is_stmt 1 view .LVU540
 858:lvgl/lvgl/src/extra/themes/default/lv_theme_default.c ****         lv_obj_add_style(obj, &styles->meter_indic, LV_PART_INDICATOR);
 1761              		.loc 1 858 38 is_stmt 0 view .LVU541
 1762 09a4 2968     		ldr	r1, [r5]
 858:lvgl/lvgl/src/extra/themes/default/lv_theme_default.c ****         lv_obj_add_style(obj, &styles->meter_indic, LV_PART_INDICATOR);
 1763              		.loc 1 858 9 view .LVU542
 1764 09a6 0022     		movs	r2, #0
 1765 09a8 B031     		adds	r1, r1, #176
 1766 09aa 2046     		mov	r0, r4
 1767 09ac FFF7FEFF 		bl	lv_obj_add_style
 1768              	.LVL192:
 859:lvgl/lvgl/src/extra/themes/default/lv_theme_default.c ****     }
 1769              		.loc 1 859 9 is_stmt 1 view .LVU543
 859:lvgl/lvgl/src/extra/themes/default/lv_theme_default.c ****     }
 1770              		.loc 1 859 38 is_stmt 0 view .LVU544
 1771 09b0 2968     		ldr	r1, [r5]
 859:lvgl/lvgl/src/extra/themes/default/lv_theme_default.c ****     }
 1772              		.loc 1 859 9 view .LVU545
 1773 09b2 4FF40032 		mov	r2, #131072
 1774 09b6 01F5B071 		add	r1, r1, #352
 1775 09ba 2046     		mov	r0, r4
 1776 09bc FFF7FEFF 		bl	lv_obj_add_style
 1777              	.LVL193:
 1778 09c0 FFF7F6BB 		b	.L8
 1779              	.L25:
 864:lvgl/lvgl/src/extra/themes/default/lv_theme_default.c ****         lv_obj_add_style(obj, &styles->card, 0);
 1780              		.loc 1 864 10 is_stmt 1 view .LVU546
 864:lvgl/lvgl/src/extra/themes/default/lv_theme_default.c ****         lv_obj_add_style(obj, &styles->card, 0);
 1781              		.loc 1 864 13 is_stmt 0 view .LVU547
 1782 09c4 B149     		ldr	r1, .L59+8
 1783 09c6 2046     		mov	r0, r4
 1784 09c8 FFF7FEFF 		bl	lv_obj_check_type
 1785              	.LVL194:
 864:lvgl/lvgl/src/extra/themes/default/lv_theme_default.c ****         lv_obj_add_style(obj, &styles->card, 0);
ARM GAS  C:\Users\gx\AppData\Local\Temp\ccQfGIQ4.s 			page 59


 1786              		.loc 1 864 12 view .LVU548
 1787 09cc 0028     		cmp	r0, #0
 1788 09ce 36D0     		beq	.L26
 865:lvgl/lvgl/src/extra/themes/default/lv_theme_default.c ****         lv_obj_add_style(obj, &styles->pad_small, 0);
 1789              		.loc 1 865 9 is_stmt 1 view .LVU549
 865:lvgl/lvgl/src/extra/themes/default/lv_theme_default.c ****         lv_obj_add_style(obj, &styles->pad_small, 0);
 1790              		.loc 1 865 38 is_stmt 0 view .LVU550
 1791 09d0 AD4D     		ldr	r5, .L59+4
 1792 09d2 2968     		ldr	r1, [r5]
 865:lvgl/lvgl/src/extra/themes/default/lv_theme_default.c ****         lv_obj_add_style(obj, &styles->pad_small, 0);
 1793              		.loc 1 865 9 view .LVU551
 1794 09d4 0022     		movs	r2, #0
 1795 09d6 1831     		adds	r1, r1, #24
 1796 09d8 2046     		mov	r0, r4
 1797 09da FFF7FEFF 		bl	lv_obj_add_style
 1798              	.LVL195:
 866:lvgl/lvgl/src/extra/themes/default/lv_theme_default.c ****         lv_obj_add_style(obj, &styles->outline_primary, LV_STATE_FOCUS_KEY);
 1799              		.loc 1 866 9 is_stmt 1 view .LVU552
 866:lvgl/lvgl/src/extra/themes/default/lv_theme_default.c ****         lv_obj_add_style(obj, &styles->outline_primary, LV_STATE_FOCUS_KEY);
 1800              		.loc 1 866 38 is_stmt 0 view .LVU553
 1801 09de 2968     		ldr	r1, [r5]
 866:lvgl/lvgl/src/extra/themes/default/lv_theme_default.c ****         lv_obj_add_style(obj, &styles->outline_primary, LV_STATE_FOCUS_KEY);
 1802              		.loc 1 866 9 view .LVU554
 1803 09e0 0022     		movs	r2, #0
 1804 09e2 7831     		adds	r1, r1, #120
 1805 09e4 2046     		mov	r0, r4
 1806 09e6 FFF7FEFF 		bl	lv_obj_add_style
 1807              	.LVL196:
 867:lvgl/lvgl/src/extra/themes/default/lv_theme_default.c ****         lv_obj_add_style(obj, &styles->outline_secondary, LV_STATE_EDITED);
 1808              		.loc 1 867 9 is_stmt 1 view .LVU555
 867:lvgl/lvgl/src/extra/themes/default/lv_theme_default.c ****         lv_obj_add_style(obj, &styles->outline_secondary, LV_STATE_EDITED);
 1809              		.loc 1 867 38 is_stmt 0 view .LVU556
 1810 09ea 2968     		ldr	r1, [r5]
 867:lvgl/lvgl/src/extra/themes/default/lv_theme_default.c ****         lv_obj_add_style(obj, &styles->outline_secondary, LV_STATE_EDITED);
 1811              		.loc 1 867 9 view .LVU557
 1812 09ec 0422     		movs	r2, #4
 1813 09ee A031     		adds	r1, r1, #160
 1814 09f0 2046     		mov	r0, r4
 1815 09f2 FFF7FEFF 		bl	lv_obj_add_style
 1816              	.LVL197:
 868:lvgl/lvgl/src/extra/themes/default/lv_theme_default.c ****         lv_obj_add_style(obj, &styles->scrollbar, LV_PART_SCROLLBAR);
 1817              		.loc 1 868 9 is_stmt 1 view .LVU558
 868:lvgl/lvgl/src/extra/themes/default/lv_theme_default.c ****         lv_obj_add_style(obj, &styles->scrollbar, LV_PART_SCROLLBAR);
 1818              		.loc 1 868 38 is_stmt 0 view .LVU559
 1819 09f6 2968     		ldr	r1, [r5]
 868:lvgl/lvgl/src/extra/themes/default/lv_theme_default.c ****         lv_obj_add_style(obj, &styles->scrollbar, LV_PART_SCROLLBAR);
 1820              		.loc 1 868 9 view .LVU560
 1821 09f8 0822     		movs	r2, #8
 1822 09fa A831     		adds	r1, r1, #168
 1823 09fc 2046     		mov	r0, r4
 1824 09fe FFF7FEFF 		bl	lv_obj_add_style
 1825              	.LVL198:
 869:lvgl/lvgl/src/extra/themes/default/lv_theme_default.c ****         lv_obj_add_style(obj, &styles->scrollbar_scrolled, LV_PART_SCROLLBAR | LV_STATE_SCROLLED);
 1826              		.loc 1 869 9 is_stmt 1 view .LVU561
 869:lvgl/lvgl/src/extra/themes/default/lv_theme_default.c ****         lv_obj_add_style(obj, &styles->scrollbar_scrolled, LV_PART_SCROLLBAR | LV_STATE_SCROLLED);
 1827              		.loc 1 869 38 is_stmt 0 view .LVU562
 1828 0a02 2968     		ldr	r1, [r5]
ARM GAS  C:\Users\gx\AppData\Local\Temp\ccQfGIQ4.s 			page 60


 869:lvgl/lvgl/src/extra/themes/default/lv_theme_default.c ****         lv_obj_add_style(obj, &styles->scrollbar_scrolled, LV_PART_SCROLLBAR | LV_STATE_SCROLLED);
 1829              		.loc 1 869 9 view .LVU563
 1830 0a04 4FF48032 		mov	r2, #65536
 1831 0a08 0831     		adds	r1, r1, #8
 1832 0a0a 2046     		mov	r0, r4
 1833 0a0c FFF7FEFF 		bl	lv_obj_add_style
 1834              	.LVL199:
 870:lvgl/lvgl/src/extra/themes/default/lv_theme_default.c ****         lv_obj_add_style(obj, &styles->ta_cursor, LV_PART_CURSOR | LV_STATE_FOCUSED);
 1835              		.loc 1 870 9 is_stmt 1 view .LVU564
 870:lvgl/lvgl/src/extra/themes/default/lv_theme_default.c ****         lv_obj_add_style(obj, &styles->ta_cursor, LV_PART_CURSOR | LV_STATE_FOCUSED);
 1836              		.loc 1 870 38 is_stmt 0 view .LVU565
 1837 0a10 2968     		ldr	r1, [r5]
 870:lvgl/lvgl/src/extra/themes/default/lv_theme_default.c ****         lv_obj_add_style(obj, &styles->ta_cursor, LV_PART_CURSOR | LV_STATE_FOCUSED);
 1838              		.loc 1 870 9 view .LVU566
 1839 0a12 9F4A     		ldr	r2, .L59+12
 1840 0a14 1031     		adds	r1, r1, #16
 1841 0a16 2046     		mov	r0, r4
 1842 0a18 FFF7FEFF 		bl	lv_obj_add_style
 1843              	.LVL200:
 871:lvgl/lvgl/src/extra/themes/default/lv_theme_default.c ****         lv_obj_add_style(obj, &styles->ta_placeholder, LV_PART_TEXTAREA_PLACEHOLDER);
 1844              		.loc 1 871 9 is_stmt 1 view .LVU567
 871:lvgl/lvgl/src/extra/themes/default/lv_theme_default.c ****         lv_obj_add_style(obj, &styles->ta_placeholder, LV_PART_TEXTAREA_PLACEHOLDER);
 1845              		.loc 1 871 38 is_stmt 0 view .LVU568
 1846 0a1c 2968     		ldr	r1, [r5]
 871:lvgl/lvgl/src/extra/themes/default/lv_theme_default.c ****         lv_obj_add_style(obj, &styles->ta_placeholder, LV_PART_TEXTAREA_PLACEHOLDER);
 1847              		.loc 1 871 9 view .LVU569
 1848 0a1e 9D4A     		ldr	r2, .L59+16
 1849 0a20 01F5B471 		add	r1, r1, #360
 1850 0a24 2046     		mov	r0, r4
 1851 0a26 FFF7FEFF 		bl	lv_obj_add_style
 1852              	.LVL201:
 872:lvgl/lvgl/src/extra/themes/default/lv_theme_default.c ****     }
 1853              		.loc 1 872 9 is_stmt 1 view .LVU570
 872:lvgl/lvgl/src/extra/themes/default/lv_theme_default.c ****     }
 1854              		.loc 1 872 38 is_stmt 0 view .LVU571
 1855 0a2a 2968     		ldr	r1, [r5]
 872:lvgl/lvgl/src/extra/themes/default/lv_theme_default.c ****     }
 1856              		.loc 1 872 9 view .LVU572
 1857 0a2c 4FF40022 		mov	r2, #524288
 1858 0a30 01F5B871 		add	r1, r1, #368
 1859 0a34 2046     		mov	r0, r4
 1860 0a36 FFF7FEFF 		bl	lv_obj_add_style
 1861              	.LVL202:
 1862 0a3a FFF7B9BB 		b	.L8
 1863              	.L26:
 877:lvgl/lvgl/src/extra/themes/default/lv_theme_default.c ****         lv_obj_add_style(obj, &styles->card, 0);
 1864              		.loc 1 877 10 is_stmt 1 view .LVU573
 877:lvgl/lvgl/src/extra/themes/default/lv_theme_default.c ****         lv_obj_add_style(obj, &styles->card, 0);
 1865              		.loc 1 877 13 is_stmt 0 view .LVU574
 1866 0a3e 9649     		ldr	r1, .L59+20
 1867 0a40 2046     		mov	r0, r4
 1868 0a42 FFF7FEFF 		bl	lv_obj_check_type
 1869              	.LVL203:
 877:lvgl/lvgl/src/extra/themes/default/lv_theme_default.c ****         lv_obj_add_style(obj, &styles->card, 0);
 1870              		.loc 1 877 12 view .LVU575
 1871 0a46 0028     		cmp	r0, #0
 1872 0a48 3BD0     		beq	.L27
ARM GAS  C:\Users\gx\AppData\Local\Temp\ccQfGIQ4.s 			page 61


 878:lvgl/lvgl/src/extra/themes/default/lv_theme_default.c ****         lv_obj_add_style(obj, &styles->calendar_bg, 0);
 1873              		.loc 1 878 9 is_stmt 1 view .LVU576
 878:lvgl/lvgl/src/extra/themes/default/lv_theme_default.c ****         lv_obj_add_style(obj, &styles->calendar_bg, 0);
 1874              		.loc 1 878 38 is_stmt 0 view .LVU577
 1875 0a4a 8F4D     		ldr	r5, .L59+4
 1876 0a4c 2968     		ldr	r1, [r5]
 878:lvgl/lvgl/src/extra/themes/default/lv_theme_default.c ****         lv_obj_add_style(obj, &styles->calendar_bg, 0);
 1877              		.loc 1 878 9 view .LVU578
 1878 0a4e 0022     		movs	r2, #0
 1879 0a50 1831     		adds	r1, r1, #24
 1880 0a52 2046     		mov	r0, r4
 1881 0a54 FFF7FEFF 		bl	lv_obj_add_style
 1882              	.LVL204:
 879:lvgl/lvgl/src/extra/themes/default/lv_theme_default.c ****         lv_obj_add_style(obj, &styles->outline_primary, LV_STATE_FOCUS_KEY);
 1883              		.loc 1 879 9 is_stmt 1 view .LVU579
 879:lvgl/lvgl/src/extra/themes/default/lv_theme_default.c ****         lv_obj_add_style(obj, &styles->outline_primary, LV_STATE_FOCUS_KEY);
 1884              		.loc 1 879 38 is_stmt 0 view .LVU580
 1885 0a58 2968     		ldr	r1, [r5]
 879:lvgl/lvgl/src/extra/themes/default/lv_theme_default.c ****         lv_obj_add_style(obj, &styles->outline_primary, LV_STATE_FOCUS_KEY);
 1886              		.loc 1 879 9 view .LVU581
 1887 0a5a 0022     		movs	r2, #0
 1888 0a5c 01F5BC71 		add	r1, r1, #376
 1889 0a60 2046     		mov	r0, r4
 1890 0a62 FFF7FEFF 		bl	lv_obj_add_style
 1891              	.LVL205:
 880:lvgl/lvgl/src/extra/themes/default/lv_theme_default.c ****         lv_obj_add_style(obj, &styles->outline_secondary, LV_STATE_EDITED);
 1892              		.loc 1 880 9 is_stmt 1 view .LVU582
 880:lvgl/lvgl/src/extra/themes/default/lv_theme_default.c ****         lv_obj_add_style(obj, &styles->outline_secondary, LV_STATE_EDITED);
 1893              		.loc 1 880 38 is_stmt 0 view .LVU583
 1894 0a66 2968     		ldr	r1, [r5]
 880:lvgl/lvgl/src/extra/themes/default/lv_theme_default.c ****         lv_obj_add_style(obj, &styles->outline_secondary, LV_STATE_EDITED);
 1895              		.loc 1 880 9 view .LVU584
 1896 0a68 0422     		movs	r2, #4
 1897 0a6a A031     		adds	r1, r1, #160
 1898 0a6c 2046     		mov	r0, r4
 1899 0a6e FFF7FEFF 		bl	lv_obj_add_style
 1900              	.LVL206:
 881:lvgl/lvgl/src/extra/themes/default/lv_theme_default.c ****         lv_obj_add_style(obj, &styles->calendar_day, LV_PART_ITEMS);
 1901              		.loc 1 881 9 is_stmt 1 view .LVU585
 881:lvgl/lvgl/src/extra/themes/default/lv_theme_default.c ****         lv_obj_add_style(obj, &styles->calendar_day, LV_PART_ITEMS);
 1902              		.loc 1 881 38 is_stmt 0 view .LVU586
 1903 0a72 2968     		ldr	r1, [r5]
 881:lvgl/lvgl/src/extra/themes/default/lv_theme_default.c ****         lv_obj_add_style(obj, &styles->calendar_day, LV_PART_ITEMS);
 1904              		.loc 1 881 9 view .LVU587
 1905 0a74 0822     		movs	r2, #8
 1906 0a76 A831     		adds	r1, r1, #168
 1907 0a78 2046     		mov	r0, r4
 1908 0a7a FFF7FEFF 		bl	lv_obj_add_style
 1909              	.LVL207:
 882:lvgl/lvgl/src/extra/themes/default/lv_theme_default.c ****         lv_obj_add_style(obj, &styles->pressed, LV_PART_ITEMS | LV_STATE_PRESSED);
 1910              		.loc 1 882 9 is_stmt 1 view .LVU588
 882:lvgl/lvgl/src/extra/themes/default/lv_theme_default.c ****         lv_obj_add_style(obj, &styles->pressed, LV_PART_ITEMS | LV_STATE_PRESSED);
 1911              		.loc 1 882 38 is_stmt 0 view .LVU589
 1912 0a7e 2968     		ldr	r1, [r5]
 882:lvgl/lvgl/src/extra/themes/default/lv_theme_default.c ****         lv_obj_add_style(obj, &styles->pressed, LV_PART_ITEMS | LV_STATE_PRESSED);
 1913              		.loc 1 882 9 view .LVU590
 1914 0a80 4FF4A022 		mov	r2, #327680
ARM GAS  C:\Users\gx\AppData\Local\Temp\ccQfGIQ4.s 			page 62


 1915 0a84 01F5C071 		add	r1, r1, #384
 1916 0a88 2046     		mov	r0, r4
 1917 0a8a FFF7FEFF 		bl	lv_obj_add_style
 1918              	.LVL208:
 883:lvgl/lvgl/src/extra/themes/default/lv_theme_default.c ****         lv_obj_add_style(obj, &styles->disabled, LV_PART_ITEMS | LV_STATE_DISABLED);
 1919              		.loc 1 883 9 is_stmt 1 view .LVU591
 883:lvgl/lvgl/src/extra/themes/default/lv_theme_default.c ****         lv_obj_add_style(obj, &styles->disabled, LV_PART_ITEMS | LV_STATE_DISABLED);
 1920              		.loc 1 883 38 is_stmt 0 view .LVU592
 1921 0a8e 2968     		ldr	r1, [r5]
 883:lvgl/lvgl/src/extra/themes/default/lv_theme_default.c ****         lv_obj_add_style(obj, &styles->disabled, LV_PART_ITEMS | LV_STATE_DISABLED);
 1922              		.loc 1 883 9 view .LVU593
 1923 0a90 824A     		ldr	r2, .L59+24
 1924 0a92 5831     		adds	r1, r1, #88
 1925 0a94 2046     		mov	r0, r4
 1926 0a96 FFF7FEFF 		bl	lv_obj_add_style
 1927              	.LVL209:
 884:lvgl/lvgl/src/extra/themes/default/lv_theme_default.c ****         lv_obj_add_style(obj, &styles->outline_primary, LV_PART_ITEMS | LV_STATE_FOCUS_KEY);
 1928              		.loc 1 884 9 is_stmt 1 view .LVU594
 884:lvgl/lvgl/src/extra/themes/default/lv_theme_default.c ****         lv_obj_add_style(obj, &styles->outline_primary, LV_PART_ITEMS | LV_STATE_FOCUS_KEY);
 1929              		.loc 1 884 38 is_stmt 0 view .LVU595
 1930 0a9a 2968     		ldr	r1, [r5]
 884:lvgl/lvgl/src/extra/themes/default/lv_theme_default.c ****         lv_obj_add_style(obj, &styles->outline_primary, LV_PART_ITEMS | LV_STATE_FOCUS_KEY);
 1931              		.loc 1 884 9 view .LVU596
 1932 0a9c 804A     		ldr	r2, .L59+28
 1933 0a9e 6031     		adds	r1, r1, #96
 1934 0aa0 2046     		mov	r0, r4
 1935 0aa2 FFF7FEFF 		bl	lv_obj_add_style
 1936              	.LVL210:
 885:lvgl/lvgl/src/extra/themes/default/lv_theme_default.c ****         lv_obj_add_style(obj, &styles->outline_secondary, LV_PART_ITEMS | LV_STATE_EDITED);
 1937              		.loc 1 885 9 is_stmt 1 view .LVU597
 885:lvgl/lvgl/src/extra/themes/default/lv_theme_default.c ****         lv_obj_add_style(obj, &styles->outline_secondary, LV_PART_ITEMS | LV_STATE_EDITED);
 1938              		.loc 1 885 38 is_stmt 0 view .LVU598
 1939 0aa6 2968     		ldr	r1, [r5]
 885:lvgl/lvgl/src/extra/themes/default/lv_theme_default.c ****         lv_obj_add_style(obj, &styles->outline_secondary, LV_PART_ITEMS | LV_STATE_EDITED);
 1940              		.loc 1 885 9 view .LVU599
 1941 0aa8 7E4A     		ldr	r2, .L59+32
 1942 0aaa A031     		adds	r1, r1, #160
 1943 0aac 2046     		mov	r0, r4
 1944 0aae FFF7FEFF 		bl	lv_obj_add_style
 1945              	.LVL211:
 886:lvgl/lvgl/src/extra/themes/default/lv_theme_default.c ****     }
 1946              		.loc 1 886 9 is_stmt 1 view .LVU600
 886:lvgl/lvgl/src/extra/themes/default/lv_theme_default.c ****     }
 1947              		.loc 1 886 38 is_stmt 0 view .LVU601
 1948 0ab2 2968     		ldr	r1, [r5]
 886:lvgl/lvgl/src/extra/themes/default/lv_theme_default.c ****     }
 1949              		.loc 1 886 9 view .LVU602
 1950 0ab4 7C4A     		ldr	r2, .L59+36
 1951 0ab6 A831     		adds	r1, r1, #168
 1952 0ab8 2046     		mov	r0, r4
 1953 0aba FFF7FEFF 		bl	lv_obj_add_style
 1954              	.LVL212:
 1955 0abe FFF777BB 		b	.L8
 1956              	.L27:
 891:lvgl/lvgl/src/extra/themes/default/lv_theme_default.c ****         lv_obj_add_style(obj, &styles->card, 0);
 1957              		.loc 1 891 10 is_stmt 1 view .LVU603
 891:lvgl/lvgl/src/extra/themes/default/lv_theme_default.c ****         lv_obj_add_style(obj, &styles->card, 0);
ARM GAS  C:\Users\gx\AppData\Local\Temp\ccQfGIQ4.s 			page 63


 1958              		.loc 1 891 13 is_stmt 0 view .LVU604
 1959 0ac2 7A49     		ldr	r1, .L59+40
 1960 0ac4 2046     		mov	r0, r4
 1961 0ac6 FFF7FEFF 		bl	lv_obj_check_type
 1962              	.LVL213:
 891:lvgl/lvgl/src/extra/themes/default/lv_theme_default.c ****         lv_obj_add_style(obj, &styles->card, 0);
 1963              		.loc 1 891 12 view .LVU605
 1964 0aca 40B1     		cbz	r0, .L28
 892:lvgl/lvgl/src/extra/themes/default/lv_theme_default.c ****     }
 1965              		.loc 1 892 9 is_stmt 1 view .LVU606
 892:lvgl/lvgl/src/extra/themes/default/lv_theme_default.c ****     }
 1966              		.loc 1 892 38 is_stmt 0 view .LVU607
 1967 0acc 6E4B     		ldr	r3, .L59+4
 1968 0ace 1968     		ldr	r1, [r3]
 892:lvgl/lvgl/src/extra/themes/default/lv_theme_default.c ****     }
 1969              		.loc 1 892 9 view .LVU608
 1970 0ad0 0022     		movs	r2, #0
 1971 0ad2 1831     		adds	r1, r1, #24
 1972 0ad4 2046     		mov	r0, r4
 1973 0ad6 FFF7FEFF 		bl	lv_obj_add_style
 1974              	.LVL214:
 1975 0ada FFF769BB 		b	.L8
 1976              	.L28:
 897:lvgl/lvgl/src/extra/themes/default/lv_theme_default.c ****         lv_obj_add_style(obj, &styles->card, 0);
 1977              		.loc 1 897 10 is_stmt 1 view .LVU609
 897:lvgl/lvgl/src/extra/themes/default/lv_theme_default.c ****         lv_obj_add_style(obj, &styles->card, 0);
 1978              		.loc 1 897 13 is_stmt 0 view .LVU610
 1979 0ade 7449     		ldr	r1, .L59+44
 1980 0ae0 2046     		mov	r0, r4
 1981 0ae2 FFF7FEFF 		bl	lv_obj_check_type
 1982              	.LVL215:
 897:lvgl/lvgl/src/extra/themes/default/lv_theme_default.c ****         lv_obj_add_style(obj, &styles->card, 0);
 1983              		.loc 1 897 12 view .LVU611
 1984 0ae6 40B1     		cbz	r0, .L29
 898:lvgl/lvgl/src/extra/themes/default/lv_theme_default.c ****     }
 1985              		.loc 1 898 9 is_stmt 1 view .LVU612
 898:lvgl/lvgl/src/extra/themes/default/lv_theme_default.c ****     }
 1986              		.loc 1 898 38 is_stmt 0 view .LVU613
 1987 0ae8 674B     		ldr	r3, .L59+4
 1988 0aea 1968     		ldr	r1, [r3]
 898:lvgl/lvgl/src/extra/themes/default/lv_theme_default.c ****     }
 1989              		.loc 1 898 9 view .LVU614
 1990 0aec 0022     		movs	r2, #0
 1991 0aee 1831     		adds	r1, r1, #24
 1992 0af0 2046     		mov	r0, r4
 1993 0af2 FFF7FEFF 		bl	lv_obj_add_style
 1994              	.LVL216:
 1995 0af6 FFF75BBB 		b	.L8
 1996              	.L29:
 903:lvgl/lvgl/src/extra/themes/default/lv_theme_default.c ****         lv_obj_add_style(obj, &styles->scr, 0);
 1997              		.loc 1 903 10 is_stmt 1 view .LVU615
 903:lvgl/lvgl/src/extra/themes/default/lv_theme_default.c ****         lv_obj_add_style(obj, &styles->scr, 0);
 1998              		.loc 1 903 13 is_stmt 0 view .LVU616
 1999 0afa 6E49     		ldr	r1, .L59+48
 2000 0afc 2046     		mov	r0, r4
 2001 0afe FFF7FEFF 		bl	lv_obj_check_type
 2002              	.LVL217:
ARM GAS  C:\Users\gx\AppData\Local\Temp\ccQfGIQ4.s 			page 64


 903:lvgl/lvgl/src/extra/themes/default/lv_theme_default.c ****         lv_obj_add_style(obj, &styles->scr, 0);
 2003              		.loc 1 903 12 view .LVU617
 2004 0b02 0028     		cmp	r0, #0
 2005 0b04 57D0     		beq	.L30
 904:lvgl/lvgl/src/extra/themes/default/lv_theme_default.c ****         lv_obj_add_style(obj, disp_size == DISP_LARGE ? &styles->pad_small : &styles->pad_tiny, 0);
 2006              		.loc 1 904 9 is_stmt 1 view .LVU618
 2007 0b06 0022     		movs	r2, #0
 2008 0b08 5F4B     		ldr	r3, .L59+4
 2009 0b0a 1968     		ldr	r1, [r3]
 2010 0b0c 2046     		mov	r0, r4
 2011 0b0e FFF7FEFF 		bl	lv_obj_add_style
 2012              	.LVL218:
 905:lvgl/lvgl/src/extra/themes/default/lv_theme_default.c ****         lv_obj_add_style(obj, &styles->outline_primary, LV_STATE_FOCUS_KEY);
 2013              		.loc 1 905 9 view .LVU619
 905:lvgl/lvgl/src/extra/themes/default/lv_theme_default.c ****         lv_obj_add_style(obj, &styles->outline_primary, LV_STATE_FOCUS_KEY);
 2014              		.loc 1 905 41 is_stmt 0 view .LVU620
 2015 0b12 694B     		ldr	r3, .L59+52
 2016 0b14 1B78     		ldrb	r3, [r3]	@ zero_extendqisi2
 905:lvgl/lvgl/src/extra/themes/default/lv_theme_default.c ****         lv_obj_add_style(obj, &styles->outline_primary, LV_STATE_FOCUS_KEY);
 2017              		.loc 1 905 9 view .LVU621
 2018 0b16 012B     		cmp	r3, #1
 2019 0b18 49D0     		beq	.L50
 905:lvgl/lvgl/src/extra/themes/default/lv_theme_default.c ****         lv_obj_add_style(obj, &styles->outline_primary, LV_STATE_FOCUS_KEY);
 2020              		.loc 1 905 85 discriminator 2 view .LVU622
 2021 0b1a 5B4B     		ldr	r3, .L59+4
 2022 0b1c 1968     		ldr	r1, [r3]
 905:lvgl/lvgl/src/extra/themes/default/lv_theme_default.c ****         lv_obj_add_style(obj, &styles->outline_primary, LV_STATE_FOCUS_KEY);
 2023              		.loc 1 905 9 discriminator 2 view .LVU623
 2024 0b1e 7031     		adds	r1, r1, #112
 2025              	.L32:
 905:lvgl/lvgl/src/extra/themes/default/lv_theme_default.c ****         lv_obj_add_style(obj, &styles->outline_primary, LV_STATE_FOCUS_KEY);
 2026              		.loc 1 905 9 discriminator 4 view .LVU624
 2027 0b20 0022     		movs	r2, #0
 2028 0b22 2046     		mov	r0, r4
 2029 0b24 FFF7FEFF 		bl	lv_obj_add_style
 2030              	.LVL219:
 906:lvgl/lvgl/src/extra/themes/default/lv_theme_default.c ****         lv_obj_add_style(obj, &styles->outline_secondary, LV_STATE_EDITED);
 2031              		.loc 1 906 9 is_stmt 1 discriminator 4 view .LVU625
 906:lvgl/lvgl/src/extra/themes/default/lv_theme_default.c ****         lv_obj_add_style(obj, &styles->outline_secondary, LV_STATE_EDITED);
 2032              		.loc 1 906 38 is_stmt 0 discriminator 4 view .LVU626
 2033 0b28 574D     		ldr	r5, .L59+4
 2034 0b2a 2968     		ldr	r1, [r5]
 906:lvgl/lvgl/src/extra/themes/default/lv_theme_default.c ****         lv_obj_add_style(obj, &styles->outline_secondary, LV_STATE_EDITED);
 2035              		.loc 1 906 9 discriminator 4 view .LVU627
 2036 0b2c 0422     		movs	r2, #4
 2037 0b2e A031     		adds	r1, r1, #160
 2038 0b30 2046     		mov	r0, r4
 2039 0b32 FFF7FEFF 		bl	lv_obj_add_style
 2040              	.LVL220:
 907:lvgl/lvgl/src/extra/themes/default/lv_theme_default.c ****         lv_obj_add_style(obj, &styles->btn, LV_PART_ITEMS);
 2041              		.loc 1 907 9 is_stmt 1 discriminator 4 view .LVU628
 907:lvgl/lvgl/src/extra/themes/default/lv_theme_default.c ****         lv_obj_add_style(obj, &styles->btn, LV_PART_ITEMS);
 2042              		.loc 1 907 38 is_stmt 0 discriminator 4 view .LVU629
 2043 0b36 2968     		ldr	r1, [r5]
 907:lvgl/lvgl/src/extra/themes/default/lv_theme_default.c ****         lv_obj_add_style(obj, &styles->btn, LV_PART_ITEMS);
 2044              		.loc 1 907 9 discriminator 4 view .LVU630
 2045 0b38 0822     		movs	r2, #8
ARM GAS  C:\Users\gx\AppData\Local\Temp\ccQfGIQ4.s 			page 65


 2046 0b3a A831     		adds	r1, r1, #168
 2047 0b3c 2046     		mov	r0, r4
 2048 0b3e FFF7FEFF 		bl	lv_obj_add_style
 2049              	.LVL221:
 908:lvgl/lvgl/src/extra/themes/default/lv_theme_default.c ****         lv_obj_add_style(obj, &styles->disabled, LV_PART_ITEMS | LV_STATE_DISABLED);
 2050              		.loc 1 908 9 is_stmt 1 discriminator 4 view .LVU631
 908:lvgl/lvgl/src/extra/themes/default/lv_theme_default.c ****         lv_obj_add_style(obj, &styles->disabled, LV_PART_ITEMS | LV_STATE_DISABLED);
 2051              		.loc 1 908 38 is_stmt 0 discriminator 4 view .LVU632
 2052 0b42 2968     		ldr	r1, [r5]
 908:lvgl/lvgl/src/extra/themes/default/lv_theme_default.c ****         lv_obj_add_style(obj, &styles->disabled, LV_PART_ITEMS | LV_STATE_DISABLED);
 2053              		.loc 1 908 9 discriminator 4 view .LVU633
 2054 0b44 4FF4A022 		mov	r2, #327680
 2055 0b48 2031     		adds	r1, r1, #32
 2056 0b4a 2046     		mov	r0, r4
 2057 0b4c FFF7FEFF 		bl	lv_obj_add_style
 2058              	.LVL222:
 909:lvgl/lvgl/src/extra/themes/default/lv_theme_default.c ****         lv_obj_add_style(obj, &styles->bg_color_white, LV_PART_ITEMS);
 2059              		.loc 1 909 9 is_stmt 1 discriminator 4 view .LVU634
 909:lvgl/lvgl/src/extra/themes/default/lv_theme_default.c ****         lv_obj_add_style(obj, &styles->bg_color_white, LV_PART_ITEMS);
 2060              		.loc 1 909 38 is_stmt 0 discriminator 4 view .LVU635
 2061 0b50 2968     		ldr	r1, [r5]
 909:lvgl/lvgl/src/extra/themes/default/lv_theme_default.c ****         lv_obj_add_style(obj, &styles->bg_color_white, LV_PART_ITEMS);
 2062              		.loc 1 909 9 discriminator 4 view .LVU636
 2063 0b52 534A     		ldr	r2, .L59+28
 2064 0b54 6031     		adds	r1, r1, #96
 2065 0b56 2046     		mov	r0, r4
 2066 0b58 FFF7FEFF 		bl	lv_obj_add_style
 2067              	.LVL223:
 910:lvgl/lvgl/src/extra/themes/default/lv_theme_default.c ****         lv_obj_add_style(obj, &styles->keyboard_btn_bg, LV_PART_ITEMS);
 2068              		.loc 1 910 9 is_stmt 1 discriminator 4 view .LVU637
 910:lvgl/lvgl/src/extra/themes/default/lv_theme_default.c ****         lv_obj_add_style(obj, &styles->keyboard_btn_bg, LV_PART_ITEMS);
 2069              		.loc 1 910 38 is_stmt 0 discriminator 4 view .LVU638
 2070 0b5c 2968     		ldr	r1, [r5]
 910:lvgl/lvgl/src/extra/themes/default/lv_theme_default.c ****         lv_obj_add_style(obj, &styles->keyboard_btn_bg, LV_PART_ITEMS);
 2071              		.loc 1 910 9 discriminator 4 view .LVU639
 2072 0b5e 4FF4A022 		mov	r2, #327680
 2073 0b62 5031     		adds	r1, r1, #80
 2074 0b64 2046     		mov	r0, r4
 2075 0b66 FFF7FEFF 		bl	lv_obj_add_style
 2076              	.LVL224:
 911:lvgl/lvgl/src/extra/themes/default/lv_theme_default.c ****         lv_obj_add_style(obj, &styles->pressed, LV_PART_ITEMS | LV_STATE_PRESSED);
 2077              		.loc 1 911 9 is_stmt 1 discriminator 4 view .LVU640
 911:lvgl/lvgl/src/extra/themes/default/lv_theme_default.c ****         lv_obj_add_style(obj, &styles->pressed, LV_PART_ITEMS | LV_STATE_PRESSED);
 2078              		.loc 1 911 38 is_stmt 0 discriminator 4 view .LVU641
 2079 0b6a 2968     		ldr	r1, [r5]
 911:lvgl/lvgl/src/extra/themes/default/lv_theme_default.c ****         lv_obj_add_style(obj, &styles->pressed, LV_PART_ITEMS | LV_STATE_PRESSED);
 2080              		.loc 1 911 9 discriminator 4 view .LVU642
 2081 0b6c 4FF4A022 		mov	r2, #327680
 2082 0b70 01F5D071 		add	r1, r1, #416
 2083 0b74 2046     		mov	r0, r4
 2084 0b76 FFF7FEFF 		bl	lv_obj_add_style
 2085              	.LVL225:
 912:lvgl/lvgl/src/extra/themes/default/lv_theme_default.c ****         lv_obj_add_style(obj, &styles->bg_color_grey, LV_PART_ITEMS | LV_STATE_CHECKED);
 2086              		.loc 1 912 9 is_stmt 1 discriminator 4 view .LVU643
 912:lvgl/lvgl/src/extra/themes/default/lv_theme_default.c ****         lv_obj_add_style(obj, &styles->bg_color_grey, LV_PART_ITEMS | LV_STATE_CHECKED);
 2087              		.loc 1 912 38 is_stmt 0 discriminator 4 view .LVU644
 2088 0b7a 2968     		ldr	r1, [r5]
ARM GAS  C:\Users\gx\AppData\Local\Temp\ccQfGIQ4.s 			page 66


 912:lvgl/lvgl/src/extra/themes/default/lv_theme_default.c ****         lv_obj_add_style(obj, &styles->bg_color_grey, LV_PART_ITEMS | LV_STATE_CHECKED);
 2089              		.loc 1 912 9 discriminator 4 view .LVU645
 2090 0b7c 474A     		ldr	r2, .L59+24
 2091 0b7e 5831     		adds	r1, r1, #88
 2092 0b80 2046     		mov	r0, r4
 2093 0b82 FFF7FEFF 		bl	lv_obj_add_style
 2094              	.LVL226:
 913:lvgl/lvgl/src/extra/themes/default/lv_theme_default.c ****         lv_obj_add_style(obj, &styles->bg_color_primary_muted, LV_PART_ITEMS | LV_STATE_FOCUS_KEY);
 2095              		.loc 1 913 9 is_stmt 1 discriminator 4 view .LVU646
 913:lvgl/lvgl/src/extra/themes/default/lv_theme_default.c ****         lv_obj_add_style(obj, &styles->bg_color_primary_muted, LV_PART_ITEMS | LV_STATE_FOCUS_KEY);
 2096              		.loc 1 913 38 is_stmt 0 discriminator 4 view .LVU647
 2097 0b86 2968     		ldr	r1, [r5]
 913:lvgl/lvgl/src/extra/themes/default/lv_theme_default.c ****         lv_obj_add_style(obj, &styles->bg_color_primary_muted, LV_PART_ITEMS | LV_STATE_FOCUS_KEY);
 2098              		.loc 1 913 9 discriminator 4 view .LVU648
 2099 0b88 4C4A     		ldr	r2, .L59+56
 2100 0b8a 4831     		adds	r1, r1, #72
 2101 0b8c 2046     		mov	r0, r4
 2102 0b8e FFF7FEFF 		bl	lv_obj_add_style
 2103              	.LVL227:
 914:lvgl/lvgl/src/extra/themes/default/lv_theme_default.c ****         lv_obj_add_style(obj, &styles->bg_color_secondary_muted, LV_PART_ITEMS | LV_STATE_EDITED);
 2104              		.loc 1 914 9 is_stmt 1 discriminator 4 view .LVU649
 914:lvgl/lvgl/src/extra/themes/default/lv_theme_default.c ****         lv_obj_add_style(obj, &styles->bg_color_secondary_muted, LV_PART_ITEMS | LV_STATE_EDITED);
 2105              		.loc 1 914 38 is_stmt 0 discriminator 4 view .LVU650
 2106 0b92 2968     		ldr	r1, [r5]
 914:lvgl/lvgl/src/extra/themes/default/lv_theme_default.c ****         lv_obj_add_style(obj, &styles->bg_color_secondary_muted, LV_PART_ITEMS | LV_STATE_EDITED);
 2107              		.loc 1 914 9 discriminator 4 view .LVU651
 2108 0b94 434A     		ldr	r2, .L59+32
 2109 0b96 3031     		adds	r1, r1, #48
 2110 0b98 2046     		mov	r0, r4
 2111 0b9a FFF7FEFF 		bl	lv_obj_add_style
 2112              	.LVL228:
 915:lvgl/lvgl/src/extra/themes/default/lv_theme_default.c ****     }
 2113              		.loc 1 915 9 is_stmt 1 discriminator 4 view .LVU652
 915:lvgl/lvgl/src/extra/themes/default/lv_theme_default.c ****     }
 2114              		.loc 1 915 38 is_stmt 0 discriminator 4 view .LVU653
 2115 0b9e 2968     		ldr	r1, [r5]
 915:lvgl/lvgl/src/extra/themes/default/lv_theme_default.c ****     }
 2116              		.loc 1 915 9 discriminator 4 view .LVU654
 2117 0ba0 414A     		ldr	r2, .L59+36
 2118 0ba2 4031     		adds	r1, r1, #64
 2119 0ba4 2046     		mov	r0, r4
 2120 0ba6 FFF7FEFF 		bl	lv_obj_add_style
 2121              	.LVL229:
 2122 0baa FFF701BB 		b	.L8
 2123              	.L50:
 905:lvgl/lvgl/src/extra/themes/default/lv_theme_default.c ****         lv_obj_add_style(obj, &styles->outline_primary, LV_STATE_FOCUS_KEY);
 2124              		.loc 1 905 64 discriminator 1 view .LVU655
 2125 0bae 364B     		ldr	r3, .L59+4
 2126 0bb0 1968     		ldr	r1, [r3]
 905:lvgl/lvgl/src/extra/themes/default/lv_theme_default.c ****         lv_obj_add_style(obj, &styles->outline_primary, LV_STATE_FOCUS_KEY);
 2127              		.loc 1 905 9 discriminator 1 view .LVU656
 2128 0bb2 7831     		adds	r1, r1, #120
 2129 0bb4 B4E7     		b	.L32
 2130              	.L30:
 919:lvgl/lvgl/src/extra/themes/default/lv_theme_default.c ****         lv_obj_add_style(obj, &styles->card, 0);
 2131              		.loc 1 919 10 is_stmt 1 view .LVU657
 919:lvgl/lvgl/src/extra/themes/default/lv_theme_default.c ****         lv_obj_add_style(obj, &styles->card, 0);
ARM GAS  C:\Users\gx\AppData\Local\Temp\ccQfGIQ4.s 			page 67


 2132              		.loc 1 919 13 is_stmt 0 view .LVU658
 2133 0bb6 4249     		ldr	r1, .L59+60
 2134 0bb8 2046     		mov	r0, r4
 2135 0bba FFF7FEFF 		bl	lv_obj_check_type
 2136              	.LVL230:
 919:lvgl/lvgl/src/extra/themes/default/lv_theme_default.c ****         lv_obj_add_style(obj, &styles->card, 0);
 2137              		.loc 1 919 12 view .LVU659
 2138 0bbe A0B9     		cbnz	r0, .L51
 926:lvgl/lvgl/src/extra/themes/default/lv_theme_default.c ****         lv_obj_add_style(obj, &styles->bg_color_grey, 0);
 2139              		.loc 1 926 10 is_stmt 1 view .LVU660
 926:lvgl/lvgl/src/extra/themes/default/lv_theme_default.c ****         lv_obj_add_style(obj, &styles->bg_color_grey, 0);
 2140              		.loc 1 926 13 is_stmt 0 view .LVU661
 2141 0bc0 4049     		ldr	r1, .L59+64
 2142 0bc2 2046     		mov	r0, r4
 2143 0bc4 FFF7FEFF 		bl	lv_obj_check_type
 2144              	.LVL231:
 926:lvgl/lvgl/src/extra/themes/default/lv_theme_default.c ****         lv_obj_add_style(obj, &styles->bg_color_grey, 0);
 2145              		.loc 1 926 12 view .LVU662
 2146 0bc8 60B3     		cbz	r0, .L34
 927:lvgl/lvgl/src/extra/themes/default/lv_theme_default.c ****         lv_obj_add_style(obj, &styles->list_item_grow, 0);
 2147              		.loc 1 927 9 is_stmt 1 view .LVU663
 927:lvgl/lvgl/src/extra/themes/default/lv_theme_default.c ****         lv_obj_add_style(obj, &styles->list_item_grow, 0);
 2148              		.loc 1 927 38 is_stmt 0 view .LVU664
 2149 0bca 2F4D     		ldr	r5, .L59+4
 2150 0bcc 2968     		ldr	r1, [r5]
 927:lvgl/lvgl/src/extra/themes/default/lv_theme_default.c ****         lv_obj_add_style(obj, &styles->list_item_grow, 0);
 2151              		.loc 1 927 9 view .LVU665
 2152 0bce 0022     		movs	r2, #0
 2153 0bd0 4831     		adds	r1, r1, #72
 2154 0bd2 2046     		mov	r0, r4
 2155 0bd4 FFF7FEFF 		bl	lv_obj_add_style
 2156              	.LVL232:
 928:lvgl/lvgl/src/extra/themes/default/lv_theme_default.c ****     }
 2157              		.loc 1 928 9 is_stmt 1 view .LVU666
 928:lvgl/lvgl/src/extra/themes/default/lv_theme_default.c ****     }
 2158              		.loc 1 928 38 is_stmt 0 view .LVU667
 2159 0bd8 2968     		ldr	r1, [r5]
 928:lvgl/lvgl/src/extra/themes/default/lv_theme_default.c ****     }
 2160              		.loc 1 928 9 view .LVU668
 2161 0bda 0022     		movs	r2, #0
 2162 0bdc 01F5DC71 		add	r1, r1, #440
 2163 0be0 2046     		mov	r0, r4
 2164 0be2 FFF7FEFF 		bl	lv_obj_add_style
 2165              	.LVL233:
 2166 0be6 FFF7E3BA 		b	.L8
 2167              	.L51:
 920:lvgl/lvgl/src/extra/themes/default/lv_theme_default.c ****         lv_obj_add_style(obj, &styles->list_bg, 0);
 2168              		.loc 1 920 9 is_stmt 1 view .LVU669
 920:lvgl/lvgl/src/extra/themes/default/lv_theme_default.c ****         lv_obj_add_style(obj, &styles->list_bg, 0);
 2169              		.loc 1 920 38 is_stmt 0 view .LVU670
 2170 0bea 274D     		ldr	r5, .L59+4
 2171 0bec 2968     		ldr	r1, [r5]
 920:lvgl/lvgl/src/extra/themes/default/lv_theme_default.c ****         lv_obj_add_style(obj, &styles->list_bg, 0);
 2172              		.loc 1 920 9 view .LVU671
 2173 0bee 0022     		movs	r2, #0
 2174 0bf0 1831     		adds	r1, r1, #24
 2175 0bf2 2046     		mov	r0, r4
ARM GAS  C:\Users\gx\AppData\Local\Temp\ccQfGIQ4.s 			page 68


 2176 0bf4 FFF7FEFF 		bl	lv_obj_add_style
 2177              	.LVL234:
 921:lvgl/lvgl/src/extra/themes/default/lv_theme_default.c ****         lv_obj_add_style(obj, &styles->scrollbar, LV_PART_SCROLLBAR);
 2178              		.loc 1 921 9 is_stmt 1 view .LVU672
 921:lvgl/lvgl/src/extra/themes/default/lv_theme_default.c ****         lv_obj_add_style(obj, &styles->scrollbar, LV_PART_SCROLLBAR);
 2179              		.loc 1 921 38 is_stmt 0 view .LVU673
 2180 0bf8 2968     		ldr	r1, [r5]
 921:lvgl/lvgl/src/extra/themes/default/lv_theme_default.c ****         lv_obj_add_style(obj, &styles->scrollbar, LV_PART_SCROLLBAR);
 2181              		.loc 1 921 9 view .LVU674
 2182 0bfa 0022     		movs	r2, #0
 2183 0bfc 01F5D471 		add	r1, r1, #424
 2184 0c00 2046     		mov	r0, r4
 2185 0c02 FFF7FEFF 		bl	lv_obj_add_style
 2186              	.LVL235:
 922:lvgl/lvgl/src/extra/themes/default/lv_theme_default.c ****         lv_obj_add_style(obj, &styles->scrollbar_scrolled, LV_PART_SCROLLBAR | LV_STATE_SCROLLED);
 2187              		.loc 1 922 9 is_stmt 1 view .LVU675
 922:lvgl/lvgl/src/extra/themes/default/lv_theme_default.c ****         lv_obj_add_style(obj, &styles->scrollbar_scrolled, LV_PART_SCROLLBAR | LV_STATE_SCROLLED);
 2188              		.loc 1 922 38 is_stmt 0 view .LVU676
 2189 0c06 2968     		ldr	r1, [r5]
 922:lvgl/lvgl/src/extra/themes/default/lv_theme_default.c ****         lv_obj_add_style(obj, &styles->scrollbar_scrolled, LV_PART_SCROLLBAR | LV_STATE_SCROLLED);
 2190              		.loc 1 922 9 view .LVU677
 2191 0c08 4FF48032 		mov	r2, #65536
 2192 0c0c 0831     		adds	r1, r1, #8
 2193 0c0e 2046     		mov	r0, r4
 2194 0c10 FFF7FEFF 		bl	lv_obj_add_style
 2195              	.LVL236:
 923:lvgl/lvgl/src/extra/themes/default/lv_theme_default.c ****         return;
 2196              		.loc 1 923 9 is_stmt 1 view .LVU678
 923:lvgl/lvgl/src/extra/themes/default/lv_theme_default.c ****         return;
 2197              		.loc 1 923 38 is_stmt 0 view .LVU679
 2198 0c14 2968     		ldr	r1, [r5]
 923:lvgl/lvgl/src/extra/themes/default/lv_theme_default.c ****         return;
 2199              		.loc 1 923 9 view .LVU680
 2200 0c16 1E4A     		ldr	r2, .L59+12
 2201 0c18 1031     		adds	r1, r1, #16
 2202 0c1a 2046     		mov	r0, r4
 2203 0c1c FFF7FEFF 		bl	lv_obj_add_style
 2204              	.LVL237:
 924:lvgl/lvgl/src/extra/themes/default/lv_theme_default.c ****     }
 2205              		.loc 1 924 9 is_stmt 1 view .LVU681
 2206 0c20 FFF703BA 		b	.L1
 2207              	.L34:
 930:lvgl/lvgl/src/extra/themes/default/lv_theme_default.c ****         lv_obj_add_style(obj, &styles->bg_color_white, 0);
 2208              		.loc 1 930 10 view .LVU682
 930:lvgl/lvgl/src/extra/themes/default/lv_theme_default.c ****         lv_obj_add_style(obj, &styles->bg_color_white, 0);
 2209              		.loc 1 930 13 is_stmt 0 view .LVU683
 2210 0c24 2849     		ldr	r1, .L59+68
 2211 0c26 2046     		mov	r0, r4
 2212 0c28 FFF7FEFF 		bl	lv_obj_check_type
 2213              	.LVL238:
 930:lvgl/lvgl/src/extra/themes/default/lv_theme_default.c ****         lv_obj_add_style(obj, &styles->bg_color_white, 0);
 2214              		.loc 1 930 12 view .LVU684
 2215 0c2c 0028     		cmp	r0, #0
 2216 0c2e 4DD0     		beq	.L35
 931:lvgl/lvgl/src/extra/themes/default/lv_theme_default.c ****         lv_obj_add_style(obj, &styles->list_btn, 0);
 2217              		.loc 1 931 9 is_stmt 1 view .LVU685
 931:lvgl/lvgl/src/extra/themes/default/lv_theme_default.c ****         lv_obj_add_style(obj, &styles->list_btn, 0);
ARM GAS  C:\Users\gx\AppData\Local\Temp\ccQfGIQ4.s 			page 69


 2218              		.loc 1 931 38 is_stmt 0 view .LVU686
 2219 0c30 154D     		ldr	r5, .L59+4
 2220 0c32 2968     		ldr	r1, [r5]
 931:lvgl/lvgl/src/extra/themes/default/lv_theme_default.c ****         lv_obj_add_style(obj, &styles->list_btn, 0);
 2221              		.loc 1 931 9 view .LVU687
 2222 0c34 0022     		movs	r2, #0
 2223 0c36 5031     		adds	r1, r1, #80
 2224 0c38 2046     		mov	r0, r4
 2225 0c3a FFF7FEFF 		bl	lv_obj_add_style
 2226              	.LVL239:
 932:lvgl/lvgl/src/extra/themes/default/lv_theme_default.c ****         lv_obj_add_style(obj, &styles->bg_color_primary, LV_STATE_FOCUS_KEY);
 2227              		.loc 1 932 9 is_stmt 1 view .LVU688
 932:lvgl/lvgl/src/extra/themes/default/lv_theme_default.c ****         lv_obj_add_style(obj, &styles->bg_color_primary, LV_STATE_FOCUS_KEY);
 2228              		.loc 1 932 38 is_stmt 0 view .LVU689
 2229 0c3e 2968     		ldr	r1, [r5]
 932:lvgl/lvgl/src/extra/themes/default/lv_theme_default.c ****         lv_obj_add_style(obj, &styles->bg_color_primary, LV_STATE_FOCUS_KEY);
 2230              		.loc 1 932 9 view .LVU690
 2231 0c40 0022     		movs	r2, #0
 2232 0c42 01F5D871 		add	r1, r1, #432
 2233 0c46 2046     		mov	r0, r4
 2234 0c48 FFF7FEFF 		bl	lv_obj_add_style
 2235              	.LVL240:
 933:lvgl/lvgl/src/extra/themes/default/lv_theme_default.c ****         lv_obj_add_style(obj, &styles->list_item_grow, LV_STATE_FOCUS_KEY);
 2236              		.loc 1 933 9 is_stmt 1 view .LVU691
 933:lvgl/lvgl/src/extra/themes/default/lv_theme_default.c ****         lv_obj_add_style(obj, &styles->list_item_grow, LV_STATE_FOCUS_KEY);
 2237              		.loc 1 933 38 is_stmt 0 view .LVU692
 2238 0c4c 2968     		ldr	r1, [r5]
 933:lvgl/lvgl/src/extra/themes/default/lv_theme_default.c ****         lv_obj_add_style(obj, &styles->list_item_grow, LV_STATE_FOCUS_KEY);
 2239              		.loc 1 933 9 view .LVU693
 2240 0c4e 0422     		movs	r2, #4
 2241 0c50 2831     		adds	r1, r1, #40
 2242 0c52 2046     		mov	r0, r4
 2243 0c54 FFF7FEFF 		bl	lv_obj_add_style
 2244              	.LVL241:
 934:lvgl/lvgl/src/extra/themes/default/lv_theme_default.c ****         lv_obj_add_style(obj, &styles->list_item_grow, LV_STATE_PRESSED);
 2245              		.loc 1 934 9 is_stmt 1 view .LVU694
 934:lvgl/lvgl/src/extra/themes/default/lv_theme_default.c ****         lv_obj_add_style(obj, &styles->list_item_grow, LV_STATE_PRESSED);
 2246              		.loc 1 934 38 is_stmt 0 view .LVU695
 2247 0c58 2968     		ldr	r1, [r5]
 934:lvgl/lvgl/src/extra/themes/default/lv_theme_default.c ****         lv_obj_add_style(obj, &styles->list_item_grow, LV_STATE_PRESSED);
 2248              		.loc 1 934 9 view .LVU696
 2249 0c5a 0422     		movs	r2, #4
 2250 0c5c 01F5DC71 		add	r1, r1, #440
 2251 0c60 2046     		mov	r0, r4
 2252 0c62 FFF7FEFF 		bl	lv_obj_add_style
 2253              	.LVL242:
 935:lvgl/lvgl/src/extra/themes/default/lv_theme_default.c ****         lv_obj_add_style(obj, &styles->pressed, LV_STATE_PRESSED);
 2254              		.loc 1 935 9 is_stmt 1 view .LVU697
 935:lvgl/lvgl/src/extra/themes/default/lv_theme_default.c ****         lv_obj_add_style(obj, &styles->pressed, LV_STATE_PRESSED);
 2255              		.loc 1 935 38 is_stmt 0 view .LVU698
 2256 0c66 2968     		ldr	r1, [r5]
 935:lvgl/lvgl/src/extra/themes/default/lv_theme_default.c ****         lv_obj_add_style(obj, &styles->pressed, LV_STATE_PRESSED);
 2257              		.loc 1 935 9 view .LVU699
 2258 0c68 2022     		movs	r2, #32
 2259 0c6a 01F5DC71 		add	r1, r1, #440
 2260 0c6e 2046     		mov	r0, r4
 2261 0c70 FFF7FEFF 		bl	lv_obj_add_style
ARM GAS  C:\Users\gx\AppData\Local\Temp\ccQfGIQ4.s 			page 70


 2262              	.LVL243:
 936:lvgl/lvgl/src/extra/themes/default/lv_theme_default.c **** 
 2263              		.loc 1 936 9 is_stmt 1 view .LVU700
 936:lvgl/lvgl/src/extra/themes/default/lv_theme_default.c **** 
 2264              		.loc 1 936 38 is_stmt 0 view .LVU701
 2265 0c74 2968     		ldr	r1, [r5]
 936:lvgl/lvgl/src/extra/themes/default/lv_theme_default.c **** 
 2266              		.loc 1 936 9 view .LVU702
 2267 0c76 2022     		movs	r2, #32
 2268 0c78 5831     		adds	r1, r1, #88
 2269 0c7a 2046     		mov	r0, r4
 2270 0c7c FFF7FEFF 		bl	lv_obj_add_style
 2271              	.LVL244:
 2272 0c80 FFF796BA 		b	.L8
 2273              	.L60:
 2274              		.align	2
 2275              	.L59:
 2276 0c84 00000000 		.word	lv_meter_class
 2277 0c88 00000000 		.word	.LANCHOR0
 2278 0c8c 00000000 		.word	lv_textarea_class
 2279 0c90 40000100 		.word	65600
 2280 0c94 02000700 		.word	458754
 2281 0c98 00000000 		.word	lv_calendar_class
 2282 0c9c 20000500 		.word	327712
 2283 0ca0 80000500 		.word	327808
 2284 0ca4 04000500 		.word	327684
 2285 0ca8 08000500 		.word	327688
 2286 0cac 00000000 		.word	lv_calendar_header_arrow_class
 2287 0cb0 00000000 		.word	lv_calendar_header_dropdown_class
 2288 0cb4 00000000 		.word	lv_keyboard_class
 2289 0cb8 00000000 		.word	.LANCHOR1
 2290 0cbc 01000500 		.word	327681
 2291 0cc0 00000000 		.word	lv_list_class
 2292 0cc4 00000000 		.word	lv_list_text_class
 2293 0cc8 00000000 		.word	lv_list_btn_class
 2294              	.L35:
 941:lvgl/lvgl/src/extra/themes/default/lv_theme_default.c ****         lv_obj_add_style(obj, &styles->card, 0);
 2295              		.loc 1 941 10 is_stmt 1 view .LVU703
 941:lvgl/lvgl/src/extra/themes/default/lv_theme_default.c ****         lv_obj_add_style(obj, &styles->card, 0);
 2296              		.loc 1 941 13 is_stmt 0 view .LVU704
 2297 0ccc 4549     		ldr	r1, .L61
 2298 0cce 2046     		mov	r0, r4
 2299 0cd0 FFF7FEFF 		bl	lv_obj_check_type
 2300              	.LVL245:
 941:lvgl/lvgl/src/extra/themes/default/lv_theme_default.c ****         lv_obj_add_style(obj, &styles->card, 0);
 2301              		.loc 1 941 12 view .LVU705
 2302 0cd4 30BB     		cbnz	r0, .L52
 948:lvgl/lvgl/src/extra/themes/default/lv_theme_default.c ****         lv_obj_add_style(obj, &styles->card, 0);
 2303              		.loc 1 948 10 is_stmt 1 view .LVU706
 948:lvgl/lvgl/src/extra/themes/default/lv_theme_default.c ****         lv_obj_add_style(obj, &styles->card, 0);
 2304              		.loc 1 948 13 is_stmt 0 view .LVU707
 2305 0cd6 4449     		ldr	r1, .L61+4
 2306 0cd8 2046     		mov	r0, r4
 2307 0cda FFF7FEFF 		bl	lv_obj_check_type
 2308              	.LVL246:
 948:lvgl/lvgl/src/extra/themes/default/lv_theme_default.c ****         lv_obj_add_style(obj, &styles->card, 0);
 2309              		.loc 1 948 12 view .LVU708
ARM GAS  C:\Users\gx\AppData\Local\Temp\ccQfGIQ4.s 			page 71


 2310 0cde 88B3     		cbz	r0, .L37
 949:lvgl/lvgl/src/extra/themes/default/lv_theme_default.c ****         lv_obj_add_style(obj, &styles->pad_small, 0);
 2311              		.loc 1 949 9 is_stmt 1 view .LVU709
 949:lvgl/lvgl/src/extra/themes/default/lv_theme_default.c ****         lv_obj_add_style(obj, &styles->pad_small, 0);
 2312              		.loc 1 949 38 is_stmt 0 view .LVU710
 2313 0ce0 424D     		ldr	r5, .L61+8
 2314 0ce2 2968     		ldr	r1, [r5]
 949:lvgl/lvgl/src/extra/themes/default/lv_theme_default.c ****         lv_obj_add_style(obj, &styles->pad_small, 0);
 2315              		.loc 1 949 9 view .LVU711
 2316 0ce4 0022     		movs	r2, #0
 2317 0ce6 1831     		adds	r1, r1, #24
 2318 0ce8 2046     		mov	r0, r4
 2319 0cea FFF7FEFF 		bl	lv_obj_add_style
 2320              	.LVL247:
 950:lvgl/lvgl/src/extra/themes/default/lv_theme_default.c ****         lv_obj_add_style(obj, &styles->outline_primary, LV_STATE_FOCUS_KEY);
 2321              		.loc 1 950 9 is_stmt 1 view .LVU712
 950:lvgl/lvgl/src/extra/themes/default/lv_theme_default.c ****         lv_obj_add_style(obj, &styles->outline_primary, LV_STATE_FOCUS_KEY);
 2322              		.loc 1 950 38 is_stmt 0 view .LVU713
 2323 0cee 2968     		ldr	r1, [r5]
 950:lvgl/lvgl/src/extra/themes/default/lv_theme_default.c ****         lv_obj_add_style(obj, &styles->outline_primary, LV_STATE_FOCUS_KEY);
 2324              		.loc 1 950 9 view .LVU714
 2325 0cf0 0022     		movs	r2, #0
 2326 0cf2 7831     		adds	r1, r1, #120
 2327 0cf4 2046     		mov	r0, r4
 2328 0cf6 FFF7FEFF 		bl	lv_obj_add_style
 2329              	.LVL248:
 951:lvgl/lvgl/src/extra/themes/default/lv_theme_default.c ****         lv_obj_add_style(obj, &styles->outline_secondary, LV_STATE_EDITED);
 2330              		.loc 1 951 9 is_stmt 1 view .LVU715
 951:lvgl/lvgl/src/extra/themes/default/lv_theme_default.c ****         lv_obj_add_style(obj, &styles->outline_secondary, LV_STATE_EDITED);
 2331              		.loc 1 951 38 is_stmt 0 view .LVU716
 2332 0cfa 2968     		ldr	r1, [r5]
 951:lvgl/lvgl/src/extra/themes/default/lv_theme_default.c ****         lv_obj_add_style(obj, &styles->outline_secondary, LV_STATE_EDITED);
 2333              		.loc 1 951 9 view .LVU717
 2334 0cfc 0422     		movs	r2, #4
 2335 0cfe A031     		adds	r1, r1, #160
 2336 0d00 2046     		mov	r0, r4
 2337 0d02 FFF7FEFF 		bl	lv_obj_add_style
 2338              	.LVL249:
 952:lvgl/lvgl/src/extra/themes/default/lv_theme_default.c ****         lv_obj_add_style(obj, &styles->bg_color_primary, LV_PART_CURSOR);
 2339              		.loc 1 952 9 is_stmt 1 view .LVU718
 952:lvgl/lvgl/src/extra/themes/default/lv_theme_default.c ****         lv_obj_add_style(obj, &styles->bg_color_primary, LV_PART_CURSOR);
 2340              		.loc 1 952 38 is_stmt 0 view .LVU719
 2341 0d06 2968     		ldr	r1, [r5]
 952:lvgl/lvgl/src/extra/themes/default/lv_theme_default.c ****         lv_obj_add_style(obj, &styles->bg_color_primary, LV_PART_CURSOR);
 2342              		.loc 1 952 9 view .LVU720
 2343 0d08 0822     		movs	r2, #8
 2344 0d0a A831     		adds	r1, r1, #168
 2345 0d0c 2046     		mov	r0, r4
 2346 0d0e FFF7FEFF 		bl	lv_obj_add_style
 2347              	.LVL250:
 953:lvgl/lvgl/src/extra/themes/default/lv_theme_default.c ****     }
 2348              		.loc 1 953 9 is_stmt 1 view .LVU721
 953:lvgl/lvgl/src/extra/themes/default/lv_theme_default.c ****     }
 2349              		.loc 1 953 38 is_stmt 0 view .LVU722
 2350 0d12 2968     		ldr	r1, [r5]
 953:lvgl/lvgl/src/extra/themes/default/lv_theme_default.c ****     }
 2351              		.loc 1 953 9 view .LVU723
ARM GAS  C:\Users\gx\AppData\Local\Temp\ccQfGIQ4.s 			page 72


 2352 0d14 4FF4E022 		mov	r2, #458752
 2353 0d18 2831     		adds	r1, r1, #40
 2354 0d1a 2046     		mov	r0, r4
 2355 0d1c FFF7FEFF 		bl	lv_obj_add_style
 2356              	.LVL251:
 2357 0d20 FFF746BA 		b	.L8
 2358              	.L52:
 942:lvgl/lvgl/src/extra/themes/default/lv_theme_default.c ****         lv_obj_add_style(obj, &styles->msgbox_bg, 0);
 2359              		.loc 1 942 9 is_stmt 1 view .LVU724
 942:lvgl/lvgl/src/extra/themes/default/lv_theme_default.c ****         lv_obj_add_style(obj, &styles->msgbox_bg, 0);
 2360              		.loc 1 942 38 is_stmt 0 view .LVU725
 2361 0d24 314D     		ldr	r5, .L61+8
 2362 0d26 2968     		ldr	r1, [r5]
 942:lvgl/lvgl/src/extra/themes/default/lv_theme_default.c ****         lv_obj_add_style(obj, &styles->msgbox_bg, 0);
 2363              		.loc 1 942 9 view .LVU726
 2364 0d28 0022     		movs	r2, #0
 2365 0d2a 1831     		adds	r1, r1, #24
 2366 0d2c 2046     		mov	r0, r4
 2367 0d2e FFF7FEFF 		bl	lv_obj_add_style
 2368              	.LVL252:
 943:lvgl/lvgl/src/extra/themes/default/lv_theme_default.c ****         return;
 2369              		.loc 1 943 9 is_stmt 1 view .LVU727
 943:lvgl/lvgl/src/extra/themes/default/lv_theme_default.c ****         return;
 2370              		.loc 1 943 38 is_stmt 0 view .LVU728
 2371 0d32 2968     		ldr	r1, [r5]
 943:lvgl/lvgl/src/extra/themes/default/lv_theme_default.c ****         return;
 2372              		.loc 1 943 9 view .LVU729
 2373 0d34 0022     		movs	r2, #0
 2374 0d36 01F5C871 		add	r1, r1, #400
 2375 0d3a 2046     		mov	r0, r4
 2376 0d3c FFF7FEFF 		bl	lv_obj_add_style
 2377              	.LVL253:
 944:lvgl/lvgl/src/extra/themes/default/lv_theme_default.c ****     }
 2378              		.loc 1 944 9 is_stmt 1 view .LVU730
 2379 0d40 FFF773B9 		b	.L1
 2380              	.L37:
 957:lvgl/lvgl/src/extra/themes/default/lv_theme_default.c ****         lv_obj_add_style(obj, &styles->scr, 0);
 2381              		.loc 1 957 10 view .LVU731
 957:lvgl/lvgl/src/extra/themes/default/lv_theme_default.c ****         lv_obj_add_style(obj, &styles->scr, 0);
 2382              		.loc 1 957 13 is_stmt 0 view .LVU732
 2383 0d44 2A49     		ldr	r1, .L61+12
 2384 0d46 2046     		mov	r0, r4
 2385 0d48 FFF7FEFF 		bl	lv_obj_check_type
 2386              	.LVL254:
 957:lvgl/lvgl/src/extra/themes/default/lv_theme_default.c ****         lv_obj_add_style(obj, &styles->scr, 0);
 2387              		.loc 1 957 12 view .LVU733
 2388 0d4c A0B1     		cbz	r0, .L38
 958:lvgl/lvgl/src/extra/themes/default/lv_theme_default.c ****         lv_obj_add_style(obj, &styles->scrollbar, LV_PART_SCROLLBAR);
 2389              		.loc 1 958 9 is_stmt 1 view .LVU734
 958:lvgl/lvgl/src/extra/themes/default/lv_theme_default.c ****         lv_obj_add_style(obj, &styles->scrollbar, LV_PART_SCROLLBAR);
 2390              		.loc 1 958 38 is_stmt 0 view .LVU735
 2391 0d4e 274D     		ldr	r5, .L61+8
 958:lvgl/lvgl/src/extra/themes/default/lv_theme_default.c ****         lv_obj_add_style(obj, &styles->scrollbar, LV_PART_SCROLLBAR);
 2392              		.loc 1 958 9 view .LVU736
 2393 0d50 0022     		movs	r2, #0
 2394 0d52 2968     		ldr	r1, [r5]
 2395 0d54 2046     		mov	r0, r4
ARM GAS  C:\Users\gx\AppData\Local\Temp\ccQfGIQ4.s 			page 73


 2396 0d56 FFF7FEFF 		bl	lv_obj_add_style
 2397              	.LVL255:
 959:lvgl/lvgl/src/extra/themes/default/lv_theme_default.c ****         lv_obj_add_style(obj, &styles->scrollbar_scrolled, LV_PART_SCROLLBAR | LV_STATE_SCROLLED);
 2398              		.loc 1 959 9 is_stmt 1 view .LVU737
 959:lvgl/lvgl/src/extra/themes/default/lv_theme_default.c ****         lv_obj_add_style(obj, &styles->scrollbar_scrolled, LV_PART_SCROLLBAR | LV_STATE_SCROLLED);
 2399              		.loc 1 959 38 is_stmt 0 view .LVU738
 2400 0d5a 2968     		ldr	r1, [r5]
 959:lvgl/lvgl/src/extra/themes/default/lv_theme_default.c ****         lv_obj_add_style(obj, &styles->scrollbar_scrolled, LV_PART_SCROLLBAR | LV_STATE_SCROLLED);
 2401              		.loc 1 959 9 view .LVU739
 2402 0d5c 4FF48032 		mov	r2, #65536
 2403 0d60 0831     		adds	r1, r1, #8
 2404 0d62 2046     		mov	r0, r4
 2405 0d64 FFF7FEFF 		bl	lv_obj_add_style
 2406              	.LVL256:
 960:lvgl/lvgl/src/extra/themes/default/lv_theme_default.c ****     }
 2407              		.loc 1 960 9 is_stmt 1 view .LVU740
 960:lvgl/lvgl/src/extra/themes/default/lv_theme_default.c ****     }
 2408              		.loc 1 960 38 is_stmt 0 view .LVU741
 2409 0d68 2968     		ldr	r1, [r5]
 960:lvgl/lvgl/src/extra/themes/default/lv_theme_default.c ****     }
 2410              		.loc 1 960 9 view .LVU742
 2411 0d6a 224A     		ldr	r2, .L61+16
 2412 0d6c 1031     		adds	r1, r1, #16
 2413 0d6e 2046     		mov	r0, r4
 2414 0d70 FFF7FEFF 		bl	lv_obj_add_style
 2415              	.LVL257:
 2416 0d74 FFF71CBA 		b	.L8
 2417              	.L38:
 962:lvgl/lvgl/src/extra/themes/default/lv_theme_default.c ****         lv_obj_add_style(obj, &styles->scrollbar, LV_PART_SCROLLBAR);
 2418              		.loc 1 962 10 is_stmt 1 view .LVU743
 962:lvgl/lvgl/src/extra/themes/default/lv_theme_default.c ****         lv_obj_add_style(obj, &styles->scrollbar, LV_PART_SCROLLBAR);
 2419              		.loc 1 962 13 is_stmt 0 view .LVU744
 2420 0d78 1F49     		ldr	r1, .L61+20
 2421 0d7a 2046     		mov	r0, r4
 2422 0d7c FFF7FEFF 		bl	lv_obj_check_type
 2423              	.LVL258:
 962:lvgl/lvgl/src/extra/themes/default/lv_theme_default.c ****         lv_obj_add_style(obj, &styles->scrollbar, LV_PART_SCROLLBAR);
 2424              		.loc 1 962 12 view .LVU745
 2425 0d80 0028     		cmp	r0, #0
 2426 0d82 3FF415AA 		beq	.L8
 963:lvgl/lvgl/src/extra/themes/default/lv_theme_default.c ****         lv_obj_add_style(obj, &styles->scrollbar_scrolled, LV_PART_SCROLLBAR | LV_STATE_SCROLLED);
 2427              		.loc 1 963 9 is_stmt 1 view .LVU746
 963:lvgl/lvgl/src/extra/themes/default/lv_theme_default.c ****         lv_obj_add_style(obj, &styles->scrollbar_scrolled, LV_PART_SCROLLBAR | LV_STATE_SCROLLED);
 2428              		.loc 1 963 38 is_stmt 0 view .LVU747
 2429 0d86 194D     		ldr	r5, .L61+8
 2430 0d88 2968     		ldr	r1, [r5]
 963:lvgl/lvgl/src/extra/themes/default/lv_theme_default.c ****         lv_obj_add_style(obj, &styles->scrollbar_scrolled, LV_PART_SCROLLBAR | LV_STATE_SCROLLED);
 2431              		.loc 1 963 9 view .LVU748
 2432 0d8a 4FF48032 		mov	r2, #65536
 2433 0d8e 0831     		adds	r1, r1, #8
 2434 0d90 2046     		mov	r0, r4
 2435 0d92 FFF7FEFF 		bl	lv_obj_add_style
 2436              	.LVL259:
 964:lvgl/lvgl/src/extra/themes/default/lv_theme_default.c ****     }
 2437              		.loc 1 964 9 is_stmt 1 view .LVU749
 964:lvgl/lvgl/src/extra/themes/default/lv_theme_default.c ****     }
 2438              		.loc 1 964 38 is_stmt 0 view .LVU750
ARM GAS  C:\Users\gx\AppData\Local\Temp\ccQfGIQ4.s 			page 74


 2439 0d96 2968     		ldr	r1, [r5]
 964:lvgl/lvgl/src/extra/themes/default/lv_theme_default.c ****     }
 2440              		.loc 1 964 9 view .LVU751
 2441 0d98 164A     		ldr	r2, .L61+16
 2442 0d9a 1031     		adds	r1, r1, #16
 2443 0d9c 2046     		mov	r0, r4
 2444 0d9e FFF7FEFF 		bl	lv_obj_add_style
 2445              	.LVL260:
 2446 0da2 FFF705BA 		b	.L8
 2447              	.L47:
 970:lvgl/lvgl/src/extra/themes/default/lv_theme_default.c ****         lv_obj_add_style(obj, &styles->pad_zero, 0);
 2448              		.loc 1 970 9 is_stmt 1 view .LVU752
 970:lvgl/lvgl/src/extra/themes/default/lv_theme_default.c ****         lv_obj_add_style(obj, &styles->pad_zero, 0);
 2449              		.loc 1 970 38 is_stmt 0 view .LVU753
 2450 0da6 114D     		ldr	r5, .L61+8
 970:lvgl/lvgl/src/extra/themes/default/lv_theme_default.c ****         lv_obj_add_style(obj, &styles->pad_zero, 0);
 2451              		.loc 1 970 9 view .LVU754
 2452 0da8 0022     		movs	r2, #0
 2453 0daa 2968     		ldr	r1, [r5]
 2454 0dac 2046     		mov	r0, r4
 2455 0dae FFF7FEFF 		bl	lv_obj_add_style
 2456              	.LVL261:
 971:lvgl/lvgl/src/extra/themes/default/lv_theme_default.c ****         return;
 2457              		.loc 1 971 9 is_stmt 1 view .LVU755
 971:lvgl/lvgl/src/extra/themes/default/lv_theme_default.c ****         return;
 2458              		.loc 1 971 38 is_stmt 0 view .LVU756
 2459 0db2 2968     		ldr	r1, [r5]
 971:lvgl/lvgl/src/extra/themes/default/lv_theme_default.c ****         return;
 2460              		.loc 1 971 9 view .LVU757
 2461 0db4 0022     		movs	r2, #0
 2462 0db6 6831     		adds	r1, r1, #104
 2463 0db8 2046     		mov	r0, r4
 2464 0dba FFF7FEFF 		bl	lv_obj_add_style
 2465              	.LVL262:
 972:lvgl/lvgl/src/extra/themes/default/lv_theme_default.c ****     }
 2466              		.loc 1 972 9 is_stmt 1 view .LVU758
 2467 0dbe FFF734B9 		b	.L1
 2468              	.L40:
 986:lvgl/lvgl/src/extra/themes/default/lv_theme_default.c ****             lv_obj_add_style(obj, &styles->led, 0);
 2469              		.loc 1 986 10 view .LVU759
 986:lvgl/lvgl/src/extra/themes/default/lv_theme_default.c ****             lv_obj_add_style(obj, &styles->led, 0);
 2470              		.loc 1 986 13 is_stmt 0 view .LVU760
 2471 0dc2 0E49     		ldr	r1, .L61+24
 2472 0dc4 2046     		mov	r0, r4
 2473 0dc6 FFF7FEFF 		bl	lv_obj_check_type
 2474              	.LVL263:
 986:lvgl/lvgl/src/extra/themes/default/lv_theme_default.c ****             lv_obj_add_style(obj, &styles->led, 0);
 2475              		.loc 1 986 12 view .LVU761
 2476 0dca 0028     		cmp	r0, #0
 2477 0dcc 3FF42DA9 		beq	.L1
 987:lvgl/lvgl/src/extra/themes/default/lv_theme_default.c ****         }
 2478              		.loc 1 987 13 is_stmt 1 view .LVU762
 987:lvgl/lvgl/src/extra/themes/default/lv_theme_default.c ****         }
 2479              		.loc 1 987 42 is_stmt 0 view .LVU763
 2480 0dd0 064B     		ldr	r3, .L61+8
 2481 0dd2 1968     		ldr	r1, [r3]
 987:lvgl/lvgl/src/extra/themes/default/lv_theme_default.c ****         }
ARM GAS  C:\Users\gx\AppData\Local\Temp\ccQfGIQ4.s 			page 75


 2482              		.loc 1 987 13 view .LVU764
 2483 0dd4 0022     		movs	r2, #0
 2484 0dd6 01F5EC71 		add	r1, r1, #472
 2485 0dda 2046     		mov	r0, r4
 2486 0ddc FFF7FEFF 		bl	lv_obj_add_style
 2487              	.LVL264:
 2488 0de0 FFF723B9 		b	.L1
 2489              	.L62:
 2490              		.align	2
 2491              	.L61:
 2492 0de4 00000000 		.word	lv_msgbox_class
 2493 0de8 00000000 		.word	lv_spinbox_class
 2494 0dec 00000000 		.word	.LANCHOR0
 2495 0df0 00000000 		.word	lv_tileview_class
 2496 0df4 40000100 		.word	65600
 2497 0df8 00000000 		.word	lv_tileview_tile_class
 2498 0dfc 00000000 		.word	lv_led_class
 2499              		.cfi_endproc
 2500              	.LFE194:
 2502              		.section	.text.grey_filter_cb,"ax",%progbits
 2503              		.align	1
 2504              		.syntax unified
 2505              		.thumb
 2506              		.thumb_func
 2507              		.fpu fpv4-sp-d16
 2509              	grey_filter_cb:
 2510              	.LVL265:
 2511              	.LFB190:
 193:lvgl/lvgl/src/extra/themes/default/lv_theme_default.c ****     LV_UNUSED(f);
 2512              		.loc 1 193 1 is_stmt 1 view -0
 2513              		.cfi_startproc
 2514              		@ args = 0, pretend = 0, frame = 0
 2515              		@ frame_needed = 0, uses_anonymous_args = 0
 193:lvgl/lvgl/src/extra/themes/default/lv_theme_default.c ****     LV_UNUSED(f);
 2516              		.loc 1 193 1 is_stmt 0 view .LVU766
 2517 0000 38B5     		push	{r3, r4, r5, lr}
 2518              	.LCFI1:
 2519              		.cfi_def_cfa_offset 16
 2520              		.cfi_offset 3, -16
 2521              		.cfi_offset 4, -12
 2522              		.cfi_offset 5, -8
 2523              		.cfi_offset 14, -4
 2524 0002 0D46     		mov	r5, r1	@ movhi
 2525              	.LVL266:
 193:lvgl/lvgl/src/extra/themes/default/lv_theme_default.c ****     LV_UNUSED(f);
 2526              		.loc 1 193 1 view .LVU767
 2527 0004 1446     		mov	r4, r2
 194:lvgl/lvgl/src/extra/themes/default/lv_theme_default.c ****     if(theme.flags & MODE_DARK) return lv_color_mix(lv_palette_darken(LV_PALETTE_GREY, 2), color, o
 2528              		.loc 1 194 5 is_stmt 1 view .LVU768
 195:lvgl/lvgl/src/extra/themes/default/lv_theme_default.c ****     else return lv_color_mix(lv_palette_lighten(LV_PALETTE_GREY, 2), color, opa);
 2529              		.loc 1 195 5 view .LVU769
 195:lvgl/lvgl/src/extra/themes/default/lv_theme_default.c ****     else return lv_color_mix(lv_palette_lighten(LV_PALETTE_GREY, 2), color, opa);
 2530              		.loc 1 195 13 is_stmt 0 view .LVU770
 2531 0006 1A4B     		ldr	r3, .L67
 2532 0008 1B6A     		ldr	r3, [r3, #32]
 195:lvgl/lvgl/src/extra/themes/default/lv_theme_default.c ****     else return lv_color_mix(lv_palette_lighten(LV_PALETTE_GREY, 2), color, opa);
 2533              		.loc 1 195 7 view .LVU771
ARM GAS  C:\Users\gx\AppData\Local\Temp\ccQfGIQ4.s 			page 76


 2534 000a 13F0010F 		tst	r3, #1
 2535 000e 17D0     		beq	.L64
 195:lvgl/lvgl/src/extra/themes/default/lv_theme_default.c ****     else return lv_color_mix(lv_palette_lighten(LV_PALETTE_GREY, 2), color, opa);
 2536              		.loc 1 195 33 is_stmt 1 discriminator 1 view .LVU772
 195:lvgl/lvgl/src/extra/themes/default/lv_theme_default.c ****     else return lv_color_mix(lv_palette_lighten(LV_PALETTE_GREY, 2), color, opa);
 2537              		.loc 1 195 40 is_stmt 0 discriminator 1 view .LVU773
 2538 0010 0221     		movs	r1, #2
 2539 0012 1220     		movs	r0, #18
 2540              	.LVL267:
 195:lvgl/lvgl/src/extra/themes/default/lv_theme_default.c ****     else return lv_color_mix(lv_palette_lighten(LV_PALETTE_GREY, 2), color, opa);
 2541              		.loc 1 195 40 discriminator 1 view .LVU774
 2542 0014 FFF7FEFF 		bl	lv_palette_darken
 2543              	.LVL268:
 2544              	.LBB83:
 2545              	.LBI83:
 2546              		.file 2 "d:\\practise\\f407_disc\\lvgl\\lvgl\\src\\misc\\lv_color.h"
   1:d:\practise\f407_disc\lvgl\lvgl\src\misc\lv_color.h **** /**
   2:d:\practise\f407_disc\lvgl\lvgl\src\misc\lv_color.h ****  * @file lv_color.h
   3:d:\practise\f407_disc\lvgl\lvgl\src\misc\lv_color.h ****  *
   4:d:\practise\f407_disc\lvgl\lvgl\src\misc\lv_color.h ****  */
   5:d:\practise\f407_disc\lvgl\lvgl\src\misc\lv_color.h **** 
   6:d:\practise\f407_disc\lvgl\lvgl\src\misc\lv_color.h **** #ifndef LV_COLOR_H
   7:d:\practise\f407_disc\lvgl\lvgl\src\misc\lv_color.h **** #define LV_COLOR_H
   8:d:\practise\f407_disc\lvgl\lvgl\src\misc\lv_color.h **** 
   9:d:\practise\f407_disc\lvgl\lvgl\src\misc\lv_color.h **** #ifdef __cplusplus
  10:d:\practise\f407_disc\lvgl\lvgl\src\misc\lv_color.h **** extern "C" {
  11:d:\practise\f407_disc\lvgl\lvgl\src\misc\lv_color.h **** #endif
  12:d:\practise\f407_disc\lvgl\lvgl\src\misc\lv_color.h **** 
  13:d:\practise\f407_disc\lvgl\lvgl\src\misc\lv_color.h **** /*********************
  14:d:\practise\f407_disc\lvgl\lvgl\src\misc\lv_color.h ****  *      INCLUDES
  15:d:\practise\f407_disc\lvgl\lvgl\src\misc\lv_color.h ****  *********************/
  16:d:\practise\f407_disc\lvgl\lvgl\src\misc\lv_color.h **** #include "../lv_conf_internal.h"
  17:d:\practise\f407_disc\lvgl\lvgl\src\misc\lv_color.h **** #include "lv_math.h"
  18:d:\practise\f407_disc\lvgl\lvgl\src\misc\lv_color.h **** #include "lv_types.h"
  19:d:\practise\f407_disc\lvgl\lvgl\src\misc\lv_color.h **** 
  20:d:\practise\f407_disc\lvgl\lvgl\src\misc\lv_color.h **** /*Error checking*/
  21:d:\practise\f407_disc\lvgl\lvgl\src\misc\lv_color.h **** #if LV_COLOR_DEPTH == 24
  22:d:\practise\f407_disc\lvgl\lvgl\src\misc\lv_color.h **** #error "LV_COLOR_DEPTH 24 is deprecated. Use LV_COLOR_DEPTH 32 instead (lv_conf.h)"
  23:d:\practise\f407_disc\lvgl\lvgl\src\misc\lv_color.h **** #endif
  24:d:\practise\f407_disc\lvgl\lvgl\src\misc\lv_color.h **** 
  25:d:\practise\f407_disc\lvgl\lvgl\src\misc\lv_color.h **** #if LV_COLOR_DEPTH != 32 && LV_COLOR_SCREEN_TRANSP != 0
  26:d:\practise\f407_disc\lvgl\lvgl\src\misc\lv_color.h **** #error "LV_COLOR_SCREEN_TRANSP requires LV_COLOR_DEPTH == 32. Set it in lv_conf.h"
  27:d:\practise\f407_disc\lvgl\lvgl\src\misc\lv_color.h **** #endif
  28:d:\practise\f407_disc\lvgl\lvgl\src\misc\lv_color.h **** 
  29:d:\practise\f407_disc\lvgl\lvgl\src\misc\lv_color.h **** #if LV_COLOR_DEPTH != 16 && LV_COLOR_16_SWAP != 0
  30:d:\practise\f407_disc\lvgl\lvgl\src\misc\lv_color.h **** #error "LV_COLOR_16_SWAP requires LV_COLOR_DEPTH == 16. Set it in lv_conf.h"
  31:d:\practise\f407_disc\lvgl\lvgl\src\misc\lv_color.h **** #endif
  32:d:\practise\f407_disc\lvgl\lvgl\src\misc\lv_color.h **** 
  33:d:\practise\f407_disc\lvgl\lvgl\src\misc\lv_color.h **** #include <stdint.h>
  34:d:\practise\f407_disc\lvgl\lvgl\src\misc\lv_color.h **** 
  35:d:\practise\f407_disc\lvgl\lvgl\src\misc\lv_color.h **** /*********************
  36:d:\practise\f407_disc\lvgl\lvgl\src\misc\lv_color.h ****  *      DEFINES
  37:d:\practise\f407_disc\lvgl\lvgl\src\misc\lv_color.h ****  *********************/
  38:d:\practise\f407_disc\lvgl\lvgl\src\misc\lv_color.h **** 
  39:d:\practise\f407_disc\lvgl\lvgl\src\misc\lv_color.h **** /**
  40:d:\practise\f407_disc\lvgl\lvgl\src\misc\lv_color.h ****  * Opacity percentages.
  41:d:\practise\f407_disc\lvgl\lvgl\src\misc\lv_color.h ****  */
ARM GAS  C:\Users\gx\AppData\Local\Temp\ccQfGIQ4.s 			page 77


  42:d:\practise\f407_disc\lvgl\lvgl\src\misc\lv_color.h **** enum {
  43:d:\practise\f407_disc\lvgl\lvgl\src\misc\lv_color.h ****     LV_OPA_TRANSP = 0,
  44:d:\practise\f407_disc\lvgl\lvgl\src\misc\lv_color.h ****     LV_OPA_0      = 0,
  45:d:\practise\f407_disc\lvgl\lvgl\src\misc\lv_color.h ****     LV_OPA_10     = 25,
  46:d:\practise\f407_disc\lvgl\lvgl\src\misc\lv_color.h ****     LV_OPA_20     = 51,
  47:d:\practise\f407_disc\lvgl\lvgl\src\misc\lv_color.h ****     LV_OPA_30     = 76,
  48:d:\practise\f407_disc\lvgl\lvgl\src\misc\lv_color.h ****     LV_OPA_40     = 102,
  49:d:\practise\f407_disc\lvgl\lvgl\src\misc\lv_color.h ****     LV_OPA_50     = 127,
  50:d:\practise\f407_disc\lvgl\lvgl\src\misc\lv_color.h ****     LV_OPA_60     = 153,
  51:d:\practise\f407_disc\lvgl\lvgl\src\misc\lv_color.h ****     LV_OPA_70     = 178,
  52:d:\practise\f407_disc\lvgl\lvgl\src\misc\lv_color.h ****     LV_OPA_80     = 204,
  53:d:\practise\f407_disc\lvgl\lvgl\src\misc\lv_color.h ****     LV_OPA_90     = 229,
  54:d:\practise\f407_disc\lvgl\lvgl\src\misc\lv_color.h ****     LV_OPA_100    = 255,
  55:d:\practise\f407_disc\lvgl\lvgl\src\misc\lv_color.h ****     LV_OPA_COVER  = 255,
  56:d:\practise\f407_disc\lvgl\lvgl\src\misc\lv_color.h **** };
  57:d:\practise\f407_disc\lvgl\lvgl\src\misc\lv_color.h **** 
  58:d:\practise\f407_disc\lvgl\lvgl\src\misc\lv_color.h **** #define LV_OPA_MIN 2    /*Opacities below this will be transparent*/
  59:d:\practise\f407_disc\lvgl\lvgl\src\misc\lv_color.h **** #define LV_OPA_MAX 253  /*Opacities above this will fully cover*/
  60:d:\practise\f407_disc\lvgl\lvgl\src\misc\lv_color.h **** 
  61:d:\practise\f407_disc\lvgl\lvgl\src\misc\lv_color.h **** #if LV_COLOR_DEPTH == 1
  62:d:\practise\f407_disc\lvgl\lvgl\src\misc\lv_color.h **** #define LV_COLOR_SIZE 8
  63:d:\practise\f407_disc\lvgl\lvgl\src\misc\lv_color.h **** #elif LV_COLOR_DEPTH == 8
  64:d:\practise\f407_disc\lvgl\lvgl\src\misc\lv_color.h **** #define LV_COLOR_SIZE 8
  65:d:\practise\f407_disc\lvgl\lvgl\src\misc\lv_color.h **** #elif LV_COLOR_DEPTH == 16
  66:d:\practise\f407_disc\lvgl\lvgl\src\misc\lv_color.h **** #define LV_COLOR_SIZE 16
  67:d:\practise\f407_disc\lvgl\lvgl\src\misc\lv_color.h **** #elif LV_COLOR_DEPTH == 32
  68:d:\practise\f407_disc\lvgl\lvgl\src\misc\lv_color.h **** #define LV_COLOR_SIZE 32
  69:d:\practise\f407_disc\lvgl\lvgl\src\misc\lv_color.h **** #else
  70:d:\practise\f407_disc\lvgl\lvgl\src\misc\lv_color.h **** #error "Invalid LV_COLOR_DEPTH in lv_conf.h! Set it to 1, 8, 16 or 32!"
  71:d:\practise\f407_disc\lvgl\lvgl\src\misc\lv_color.h **** #endif
  72:d:\practise\f407_disc\lvgl\lvgl\src\misc\lv_color.h **** 
  73:d:\practise\f407_disc\lvgl\lvgl\src\misc\lv_color.h **** /**
  74:d:\practise\f407_disc\lvgl\lvgl\src\misc\lv_color.h ****  * Adjust color mix functions rounding.
  75:d:\practise\f407_disc\lvgl\lvgl\src\misc\lv_color.h ****  * GPUs might calculate color mix (blending) differently.
  76:d:\practise\f407_disc\lvgl\lvgl\src\misc\lv_color.h ****  * Should be in range of 0..254
  77:d:\practise\f407_disc\lvgl\lvgl\src\misc\lv_color.h ****  * 0: no adjustment, get the integer part of the result (round down)
  78:d:\practise\f407_disc\lvgl\lvgl\src\misc\lv_color.h ****  * 64: round up from x.75
  79:d:\practise\f407_disc\lvgl\lvgl\src\misc\lv_color.h ****  * 128: round up from half
  80:d:\practise\f407_disc\lvgl\lvgl\src\misc\lv_color.h ****  * 192: round up from x.25
  81:d:\practise\f407_disc\lvgl\lvgl\src\misc\lv_color.h ****  * 254: round up*/
  82:d:\practise\f407_disc\lvgl\lvgl\src\misc\lv_color.h **** #ifndef LV_COLOR_MIX_ROUND_OFS
  83:d:\practise\f407_disc\lvgl\lvgl\src\misc\lv_color.h **** #if LV_COLOR_DEPTH == 32
  84:d:\practise\f407_disc\lvgl\lvgl\src\misc\lv_color.h **** #define LV_COLOR_MIX_ROUND_OFS 0
  85:d:\practise\f407_disc\lvgl\lvgl\src\misc\lv_color.h **** #else
  86:d:\practise\f407_disc\lvgl\lvgl\src\misc\lv_color.h **** #define LV_COLOR_MIX_ROUND_OFS 128
  87:d:\practise\f407_disc\lvgl\lvgl\src\misc\lv_color.h **** #endif
  88:d:\practise\f407_disc\lvgl\lvgl\src\misc\lv_color.h **** #endif
  89:d:\practise\f407_disc\lvgl\lvgl\src\misc\lv_color.h **** 
  90:d:\practise\f407_disc\lvgl\lvgl\src\misc\lv_color.h **** #if defined(__cplusplus) && !defined(_LV_COLOR_HAS_MODERN_CPP)
  91:d:\practise\f407_disc\lvgl\lvgl\src\misc\lv_color.h **** /**
  92:d:\practise\f407_disc\lvgl\lvgl\src\misc\lv_color.h **** * MSVC compiler's definition of the __cplusplus indicating 199711L regardless to C++ standard versi
  93:d:\practise\f407_disc\lvgl\lvgl\src\misc\lv_color.h **** * see https://devblogs.microsoft.com/cppblog/msvc-now-correctly-reports-cplusplus
  94:d:\practise\f407_disc\lvgl\lvgl\src\misc\lv_color.h **** * so we use _MSC_VER macro instead of __cplusplus
  95:d:\practise\f407_disc\lvgl\lvgl\src\misc\lv_color.h **** */
  96:d:\practise\f407_disc\lvgl\lvgl\src\misc\lv_color.h **** #ifdef _MSC_VER
  97:d:\practise\f407_disc\lvgl\lvgl\src\misc\lv_color.h **** #if _MSC_VER >= 1900 /*Visual Studio 2015*/
  98:d:\practise\f407_disc\lvgl\lvgl\src\misc\lv_color.h **** #define _LV_COLOR_HAS_MODERN_CPP 1
ARM GAS  C:\Users\gx\AppData\Local\Temp\ccQfGIQ4.s 			page 78


  99:d:\practise\f407_disc\lvgl\lvgl\src\misc\lv_color.h **** #endif
 100:d:\practise\f407_disc\lvgl\lvgl\src\misc\lv_color.h **** #else
 101:d:\practise\f407_disc\lvgl\lvgl\src\misc\lv_color.h **** #if __cplusplus >= 201103L
 102:d:\practise\f407_disc\lvgl\lvgl\src\misc\lv_color.h **** #define _LV_COLOR_HAS_MODERN_CPP 1
 103:d:\practise\f407_disc\lvgl\lvgl\src\misc\lv_color.h **** #endif
 104:d:\practise\f407_disc\lvgl\lvgl\src\misc\lv_color.h **** #endif
 105:d:\practise\f407_disc\lvgl\lvgl\src\misc\lv_color.h **** #endif /*__cplusplus*/
 106:d:\practise\f407_disc\lvgl\lvgl\src\misc\lv_color.h **** 
 107:d:\practise\f407_disc\lvgl\lvgl\src\misc\lv_color.h **** #ifndef _LV_COLOR_HAS_MODERN_CPP
 108:d:\practise\f407_disc\lvgl\lvgl\src\misc\lv_color.h **** #define _LV_COLOR_HAS_MODERN_CPP 0
 109:d:\practise\f407_disc\lvgl\lvgl\src\misc\lv_color.h **** #endif
 110:d:\practise\f407_disc\lvgl\lvgl\src\misc\lv_color.h **** 
 111:d:\practise\f407_disc\lvgl\lvgl\src\misc\lv_color.h **** #if _LV_COLOR_HAS_MODERN_CPP
 112:d:\practise\f407_disc\lvgl\lvgl\src\misc\lv_color.h **** /*Fix msvc compiler error C4576 inside C++ code*/
 113:d:\practise\f407_disc\lvgl\lvgl\src\misc\lv_color.h **** #define _LV_COLOR_MAKE_TYPE_HELPER lv_color_t
 114:d:\practise\f407_disc\lvgl\lvgl\src\misc\lv_color.h **** #else
 115:d:\practise\f407_disc\lvgl\lvgl\src\misc\lv_color.h **** #define _LV_COLOR_MAKE_TYPE_HELPER (lv_color_t)
 116:d:\practise\f407_disc\lvgl\lvgl\src\misc\lv_color.h **** #endif
 117:d:\practise\f407_disc\lvgl\lvgl\src\misc\lv_color.h **** 
 118:d:\practise\f407_disc\lvgl\lvgl\src\misc\lv_color.h **** /*---------------------------------------
 119:d:\practise\f407_disc\lvgl\lvgl\src\misc\lv_color.h ****  * Macros for all existing color depths
 120:d:\practise\f407_disc\lvgl\lvgl\src\misc\lv_color.h ****  * to set/get values of the color channels
 121:d:\practise\f407_disc\lvgl\lvgl\src\misc\lv_color.h ****  *------------------------------------------*/
 122:d:\practise\f407_disc\lvgl\lvgl\src\misc\lv_color.h **** # define LV_COLOR_SET_R1(c, v) (c).ch.red = (uint8_t)((v) & 0x1)
 123:d:\practise\f407_disc\lvgl\lvgl\src\misc\lv_color.h **** # define LV_COLOR_SET_G1(c, v) (c).ch.green = (uint8_t)((v) & 0x1)
 124:d:\practise\f407_disc\lvgl\lvgl\src\misc\lv_color.h **** # define LV_COLOR_SET_B1(c, v) (c).ch.blue = (uint8_t)((v) & 0x1)
 125:d:\practise\f407_disc\lvgl\lvgl\src\misc\lv_color.h **** # define LV_COLOR_SET_A1(c, v) do {} while(0)
 126:d:\practise\f407_disc\lvgl\lvgl\src\misc\lv_color.h **** 
 127:d:\practise\f407_disc\lvgl\lvgl\src\misc\lv_color.h **** # define LV_COLOR_GET_R1(c) (c).ch.red
 128:d:\practise\f407_disc\lvgl\lvgl\src\misc\lv_color.h **** # define LV_COLOR_GET_G1(c) (c).ch.green
 129:d:\practise\f407_disc\lvgl\lvgl\src\misc\lv_color.h **** # define LV_COLOR_GET_B1(c) (c).ch.blue
 130:d:\practise\f407_disc\lvgl\lvgl\src\misc\lv_color.h **** # define LV_COLOR_GET_A1(c) 0xFF
 131:d:\practise\f407_disc\lvgl\lvgl\src\misc\lv_color.h **** 
 132:d:\practise\f407_disc\lvgl\lvgl\src\misc\lv_color.h **** # define _LV_COLOR_ZERO_INITIALIZER1 {0x00}
 133:d:\practise\f407_disc\lvgl\lvgl\src\misc\lv_color.h **** # define LV_COLOR_MAKE1(r8, g8, b8)  {(uint8_t)((b8 >> 7) | (g8 >> 7) | (r8 >> 7))}
 134:d:\practise\f407_disc\lvgl\lvgl\src\misc\lv_color.h **** 
 135:d:\practise\f407_disc\lvgl\lvgl\src\misc\lv_color.h **** # define LV_COLOR_SET_R8(c, v) (c).ch.red = (uint8_t)((v) & 0x7U)
 136:d:\practise\f407_disc\lvgl\lvgl\src\misc\lv_color.h **** # define LV_COLOR_SET_G8(c, v) (c).ch.green = (uint8_t)((v) & 0x7U)
 137:d:\practise\f407_disc\lvgl\lvgl\src\misc\lv_color.h **** # define LV_COLOR_SET_B8(c, v) (c).ch.blue = (uint8_t)((v) & 0x3U)
 138:d:\practise\f407_disc\lvgl\lvgl\src\misc\lv_color.h **** # define LV_COLOR_SET_A8(c, v) do {} while(0)
 139:d:\practise\f407_disc\lvgl\lvgl\src\misc\lv_color.h **** 
 140:d:\practise\f407_disc\lvgl\lvgl\src\misc\lv_color.h **** # define LV_COLOR_GET_R8(c) (c).ch.red
 141:d:\practise\f407_disc\lvgl\lvgl\src\misc\lv_color.h **** # define LV_COLOR_GET_G8(c) (c).ch.green
 142:d:\practise\f407_disc\lvgl\lvgl\src\misc\lv_color.h **** # define LV_COLOR_GET_B8(c) (c).ch.blue
 143:d:\practise\f407_disc\lvgl\lvgl\src\misc\lv_color.h **** # define LV_COLOR_GET_A8(c) 0xFF
 144:d:\practise\f407_disc\lvgl\lvgl\src\misc\lv_color.h **** 
 145:d:\practise\f407_disc\lvgl\lvgl\src\misc\lv_color.h **** # define _LV_COLOR_ZERO_INITIALIZER8 {{0x00, 0x00, 0x00}}
 146:d:\practise\f407_disc\lvgl\lvgl\src\misc\lv_color.h **** # define LV_COLOR_MAKE8(r8, g8, b8) {{(uint8_t)((b8 >> 6) & 0x3U), (uint8_t)((g8 >> 5) & 0x7U), (ui
 147:d:\practise\f407_disc\lvgl\lvgl\src\misc\lv_color.h **** 
 148:d:\practise\f407_disc\lvgl\lvgl\src\misc\lv_color.h **** # define LV_COLOR_SET_R16(c, v) (c).ch.red = (uint8_t)((v) & 0x1FU)
 149:d:\practise\f407_disc\lvgl\lvgl\src\misc\lv_color.h **** #if LV_COLOR_16_SWAP == 0
 150:d:\practise\f407_disc\lvgl\lvgl\src\misc\lv_color.h **** # define LV_COLOR_SET_G16(c, v) (c).ch.green = (uint8_t)((v) & 0x3FU)
 151:d:\practise\f407_disc\lvgl\lvgl\src\misc\lv_color.h **** #else
 152:d:\practise\f407_disc\lvgl\lvgl\src\misc\lv_color.h **** # define LV_COLOR_SET_G16(c, v) {(c).ch.green_h = (uint8_t)(((v) >> 3) & 0x7); (c).ch.green_l = (ui
 153:d:\practise\f407_disc\lvgl\lvgl\src\misc\lv_color.h **** #endif
 154:d:\practise\f407_disc\lvgl\lvgl\src\misc\lv_color.h **** # define LV_COLOR_SET_B16(c, v) (c).ch.blue = (uint8_t)((v) & 0x1FU)
 155:d:\practise\f407_disc\lvgl\lvgl\src\misc\lv_color.h **** # define LV_COLOR_SET_A16(c, v) do {} while(0)
ARM GAS  C:\Users\gx\AppData\Local\Temp\ccQfGIQ4.s 			page 79


 156:d:\practise\f407_disc\lvgl\lvgl\src\misc\lv_color.h **** 
 157:d:\practise\f407_disc\lvgl\lvgl\src\misc\lv_color.h **** # define LV_COLOR_GET_R16(c) (c).ch.red
 158:d:\practise\f407_disc\lvgl\lvgl\src\misc\lv_color.h **** #if LV_COLOR_16_SWAP == 0
 159:d:\practise\f407_disc\lvgl\lvgl\src\misc\lv_color.h **** # define LV_COLOR_GET_G16(c) (c).ch.green
 160:d:\practise\f407_disc\lvgl\lvgl\src\misc\lv_color.h **** #else
 161:d:\practise\f407_disc\lvgl\lvgl\src\misc\lv_color.h **** # define LV_COLOR_GET_G16(c) (((c).ch.green_h << 3) + (c).ch.green_l)
 162:d:\practise\f407_disc\lvgl\lvgl\src\misc\lv_color.h **** #endif
 163:d:\practise\f407_disc\lvgl\lvgl\src\misc\lv_color.h **** # define LV_COLOR_GET_B16(c) (c).ch.blue
 164:d:\practise\f407_disc\lvgl\lvgl\src\misc\lv_color.h **** # define LV_COLOR_GET_A16(c) 0xFF
 165:d:\practise\f407_disc\lvgl\lvgl\src\misc\lv_color.h **** 
 166:d:\practise\f407_disc\lvgl\lvgl\src\misc\lv_color.h **** #if LV_COLOR_16_SWAP == 0
 167:d:\practise\f407_disc\lvgl\lvgl\src\misc\lv_color.h **** # define _LV_COLOR_ZERO_INITIALIZER16  {{0x00, 0x00, 0x00}}
 168:d:\practise\f407_disc\lvgl\lvgl\src\misc\lv_color.h **** # define LV_COLOR_MAKE16(r8, g8, b8) {{(uint8_t)((b8 >> 3) & 0x1FU), (uint8_t)((g8 >> 2) & 0x3FU), 
 169:d:\practise\f407_disc\lvgl\lvgl\src\misc\lv_color.h **** #else
 170:d:\practise\f407_disc\lvgl\lvgl\src\misc\lv_color.h **** # define _LV_COLOR_ZERO_INITIALIZER16 {{0x00, 0x00, 0x00, 0x00}}
 171:d:\practise\f407_disc\lvgl\lvgl\src\misc\lv_color.h **** # define LV_COLOR_MAKE16(r8, g8, b8) {{(uint8_t)((g8 >> 5) & 0x7U), (uint8_t)((r8 >> 3) & 0x1FU), (
 172:d:\practise\f407_disc\lvgl\lvgl\src\misc\lv_color.h **** #endif
 173:d:\practise\f407_disc\lvgl\lvgl\src\misc\lv_color.h **** 
 174:d:\practise\f407_disc\lvgl\lvgl\src\misc\lv_color.h **** # define LV_COLOR_SET_R32(c, v) (c).ch.red = (uint8_t)((v) & 0xFF)
 175:d:\practise\f407_disc\lvgl\lvgl\src\misc\lv_color.h **** # define LV_COLOR_SET_G32(c, v) (c).ch.green = (uint8_t)((v) & 0xFF)
 176:d:\practise\f407_disc\lvgl\lvgl\src\misc\lv_color.h **** # define LV_COLOR_SET_B32(c, v) (c).ch.blue = (uint8_t)((v) & 0xFF)
 177:d:\practise\f407_disc\lvgl\lvgl\src\misc\lv_color.h **** # define LV_COLOR_SET_A32(c, v) (c).ch.alpha = (uint8_t)((v) & 0xFF)
 178:d:\practise\f407_disc\lvgl\lvgl\src\misc\lv_color.h **** 
 179:d:\practise\f407_disc\lvgl\lvgl\src\misc\lv_color.h **** # define LV_COLOR_GET_R32(c) (c).ch.red
 180:d:\practise\f407_disc\lvgl\lvgl\src\misc\lv_color.h **** # define LV_COLOR_GET_G32(c) (c).ch.green
 181:d:\practise\f407_disc\lvgl\lvgl\src\misc\lv_color.h **** # define LV_COLOR_GET_B32(c) (c).ch.blue
 182:d:\practise\f407_disc\lvgl\lvgl\src\misc\lv_color.h **** # define LV_COLOR_GET_A32(c) (c).ch.alpha
 183:d:\practise\f407_disc\lvgl\lvgl\src\misc\lv_color.h **** 
 184:d:\practise\f407_disc\lvgl\lvgl\src\misc\lv_color.h **** # define _LV_COLOR_ZERO_INITIALIZER32  {{0x00, 0x00, 0x00, 0x00}}
 185:d:\practise\f407_disc\lvgl\lvgl\src\misc\lv_color.h **** # define LV_COLOR_MAKE32(r8, g8, b8) {{b8, g8, r8, 0xff}} /*Fix 0xff alpha*/
 186:d:\practise\f407_disc\lvgl\lvgl\src\misc\lv_color.h **** 
 187:d:\practise\f407_disc\lvgl\lvgl\src\misc\lv_color.h **** /*---------------------------------------
 188:d:\practise\f407_disc\lvgl\lvgl\src\misc\lv_color.h ****  * Macros for the current color depth
 189:d:\practise\f407_disc\lvgl\lvgl\src\misc\lv_color.h ****  * to set/get values of the color channels
 190:d:\practise\f407_disc\lvgl\lvgl\src\misc\lv_color.h ****  *------------------------------------------*/
 191:d:\practise\f407_disc\lvgl\lvgl\src\misc\lv_color.h **** #define LV_COLOR_SET_R(c, v) LV_CONCAT(LV_COLOR_SET_R, LV_COLOR_DEPTH)(c, v)
 192:d:\practise\f407_disc\lvgl\lvgl\src\misc\lv_color.h **** #define LV_COLOR_SET_G(c, v) LV_CONCAT(LV_COLOR_SET_G, LV_COLOR_DEPTH)(c, v)
 193:d:\practise\f407_disc\lvgl\lvgl\src\misc\lv_color.h **** #define LV_COLOR_SET_B(c, v) LV_CONCAT(LV_COLOR_SET_B, LV_COLOR_DEPTH)(c, v)
 194:d:\practise\f407_disc\lvgl\lvgl\src\misc\lv_color.h **** #define LV_COLOR_SET_A(c, v) LV_CONCAT(LV_COLOR_SET_A, LV_COLOR_DEPTH)(c, v)
 195:d:\practise\f407_disc\lvgl\lvgl\src\misc\lv_color.h **** 
 196:d:\practise\f407_disc\lvgl\lvgl\src\misc\lv_color.h **** #define LV_COLOR_GET_R(c) LV_CONCAT(LV_COLOR_GET_R, LV_COLOR_DEPTH)(c)
 197:d:\practise\f407_disc\lvgl\lvgl\src\misc\lv_color.h **** #define LV_COLOR_GET_G(c) LV_CONCAT(LV_COLOR_GET_G, LV_COLOR_DEPTH)(c)
 198:d:\practise\f407_disc\lvgl\lvgl\src\misc\lv_color.h **** #define LV_COLOR_GET_B(c) LV_CONCAT(LV_COLOR_GET_B, LV_COLOR_DEPTH)(c)
 199:d:\practise\f407_disc\lvgl\lvgl\src\misc\lv_color.h **** #define LV_COLOR_GET_A(c) LV_CONCAT(LV_COLOR_GET_A, LV_COLOR_DEPTH)(c)
 200:d:\practise\f407_disc\lvgl\lvgl\src\misc\lv_color.h **** 
 201:d:\practise\f407_disc\lvgl\lvgl\src\misc\lv_color.h **** #define _LV_COLOR_ZERO_INITIALIZER LV_CONCAT(_LV_COLOR_ZERO_INITIALIZER, LV_COLOR_DEPTH)
 202:d:\practise\f407_disc\lvgl\lvgl\src\misc\lv_color.h **** #define LV_COLOR_MAKE(r8, g8, b8) LV_CONCAT(LV_COLOR_MAKE, LV_COLOR_DEPTH)(r8, g8, b8)
 203:d:\practise\f407_disc\lvgl\lvgl\src\misc\lv_color.h **** 
 204:d:\practise\f407_disc\lvgl\lvgl\src\misc\lv_color.h **** #define LV_UDIV255(x) ((uint32_t)((uint32_t) (x) * 0x8081) >> 0x17)
 205:d:\practise\f407_disc\lvgl\lvgl\src\misc\lv_color.h **** 
 206:d:\practise\f407_disc\lvgl\lvgl\src\misc\lv_color.h **** /**********************
 207:d:\practise\f407_disc\lvgl\lvgl\src\misc\lv_color.h ****  *      TYPEDEFS
 208:d:\practise\f407_disc\lvgl\lvgl\src\misc\lv_color.h ****  **********************/
 209:d:\practise\f407_disc\lvgl\lvgl\src\misc\lv_color.h **** 
 210:d:\practise\f407_disc\lvgl\lvgl\src\misc\lv_color.h **** typedef union {
 211:d:\practise\f407_disc\lvgl\lvgl\src\misc\lv_color.h ****     uint8_t full; /*must be declared first to set all bits of byte via initializer list*/
 212:d:\practise\f407_disc\lvgl\lvgl\src\misc\lv_color.h ****     union {
ARM GAS  C:\Users\gx\AppData\Local\Temp\ccQfGIQ4.s 			page 80


 213:d:\practise\f407_disc\lvgl\lvgl\src\misc\lv_color.h ****         uint8_t blue : 1;
 214:d:\practise\f407_disc\lvgl\lvgl\src\misc\lv_color.h ****         uint8_t green : 1;
 215:d:\practise\f407_disc\lvgl\lvgl\src\misc\lv_color.h ****         uint8_t red : 1;
 216:d:\practise\f407_disc\lvgl\lvgl\src\misc\lv_color.h ****     } ch;
 217:d:\practise\f407_disc\lvgl\lvgl\src\misc\lv_color.h **** } lv_color1_t;
 218:d:\practise\f407_disc\lvgl\lvgl\src\misc\lv_color.h **** 
 219:d:\practise\f407_disc\lvgl\lvgl\src\misc\lv_color.h **** typedef union {
 220:d:\practise\f407_disc\lvgl\lvgl\src\misc\lv_color.h ****     struct {
 221:d:\practise\f407_disc\lvgl\lvgl\src\misc\lv_color.h ****         uint8_t blue : 2;
 222:d:\practise\f407_disc\lvgl\lvgl\src\misc\lv_color.h ****         uint8_t green : 3;
 223:d:\practise\f407_disc\lvgl\lvgl\src\misc\lv_color.h ****         uint8_t red : 3;
 224:d:\practise\f407_disc\lvgl\lvgl\src\misc\lv_color.h ****     } ch;
 225:d:\practise\f407_disc\lvgl\lvgl\src\misc\lv_color.h ****     uint8_t full;
 226:d:\practise\f407_disc\lvgl\lvgl\src\misc\lv_color.h **** } lv_color8_t;
 227:d:\practise\f407_disc\lvgl\lvgl\src\misc\lv_color.h **** 
 228:d:\practise\f407_disc\lvgl\lvgl\src\misc\lv_color.h **** typedef union {
 229:d:\practise\f407_disc\lvgl\lvgl\src\misc\lv_color.h ****     struct {
 230:d:\practise\f407_disc\lvgl\lvgl\src\misc\lv_color.h **** #if LV_COLOR_16_SWAP == 0
 231:d:\practise\f407_disc\lvgl\lvgl\src\misc\lv_color.h ****         uint16_t blue : 5;
 232:d:\practise\f407_disc\lvgl\lvgl\src\misc\lv_color.h ****         uint16_t green : 6;
 233:d:\practise\f407_disc\lvgl\lvgl\src\misc\lv_color.h ****         uint16_t red : 5;
 234:d:\practise\f407_disc\lvgl\lvgl\src\misc\lv_color.h **** #else
 235:d:\practise\f407_disc\lvgl\lvgl\src\misc\lv_color.h ****         uint16_t green_h : 3;
 236:d:\practise\f407_disc\lvgl\lvgl\src\misc\lv_color.h ****         uint16_t red : 5;
 237:d:\practise\f407_disc\lvgl\lvgl\src\misc\lv_color.h ****         uint16_t blue : 5;
 238:d:\practise\f407_disc\lvgl\lvgl\src\misc\lv_color.h ****         uint16_t green_l : 3;
 239:d:\practise\f407_disc\lvgl\lvgl\src\misc\lv_color.h **** #endif
 240:d:\practise\f407_disc\lvgl\lvgl\src\misc\lv_color.h ****     } ch;
 241:d:\practise\f407_disc\lvgl\lvgl\src\misc\lv_color.h ****     uint16_t full;
 242:d:\practise\f407_disc\lvgl\lvgl\src\misc\lv_color.h **** } lv_color16_t;
 243:d:\practise\f407_disc\lvgl\lvgl\src\misc\lv_color.h **** 
 244:d:\practise\f407_disc\lvgl\lvgl\src\misc\lv_color.h **** typedef union {
 245:d:\practise\f407_disc\lvgl\lvgl\src\misc\lv_color.h ****     struct {
 246:d:\practise\f407_disc\lvgl\lvgl\src\misc\lv_color.h ****         uint8_t blue;
 247:d:\practise\f407_disc\lvgl\lvgl\src\misc\lv_color.h ****         uint8_t green;
 248:d:\practise\f407_disc\lvgl\lvgl\src\misc\lv_color.h ****         uint8_t red;
 249:d:\practise\f407_disc\lvgl\lvgl\src\misc\lv_color.h ****         uint8_t alpha;
 250:d:\practise\f407_disc\lvgl\lvgl\src\misc\lv_color.h ****     } ch;
 251:d:\practise\f407_disc\lvgl\lvgl\src\misc\lv_color.h ****     uint32_t full;
 252:d:\practise\f407_disc\lvgl\lvgl\src\misc\lv_color.h **** } lv_color32_t;
 253:d:\practise\f407_disc\lvgl\lvgl\src\misc\lv_color.h **** 
 254:d:\practise\f407_disc\lvgl\lvgl\src\misc\lv_color.h **** typedef LV_CONCAT3(uint, LV_COLOR_SIZE, _t) lv_color_int_t;
 255:d:\practise\f407_disc\lvgl\lvgl\src\misc\lv_color.h **** typedef LV_CONCAT3(lv_color, LV_COLOR_DEPTH, _t) lv_color_t;
 256:d:\practise\f407_disc\lvgl\lvgl\src\misc\lv_color.h **** 
 257:d:\practise\f407_disc\lvgl\lvgl\src\misc\lv_color.h **** typedef struct {
 258:d:\practise\f407_disc\lvgl\lvgl\src\misc\lv_color.h ****     uint16_t h;
 259:d:\practise\f407_disc\lvgl\lvgl\src\misc\lv_color.h ****     uint8_t s;
 260:d:\practise\f407_disc\lvgl\lvgl\src\misc\lv_color.h ****     uint8_t v;
 261:d:\practise\f407_disc\lvgl\lvgl\src\misc\lv_color.h **** } lv_color_hsv_t;
 262:d:\practise\f407_disc\lvgl\lvgl\src\misc\lv_color.h **** 
 263:d:\practise\f407_disc\lvgl\lvgl\src\misc\lv_color.h **** //! @cond Doxygen_Suppress
 264:d:\practise\f407_disc\lvgl\lvgl\src\misc\lv_color.h **** /*No idea where the guard is required but else throws warnings in the docs*/
 265:d:\practise\f407_disc\lvgl\lvgl\src\misc\lv_color.h **** typedef uint8_t lv_opa_t;
 266:d:\practise\f407_disc\lvgl\lvgl\src\misc\lv_color.h **** //! @endcond
 267:d:\practise\f407_disc\lvgl\lvgl\src\misc\lv_color.h **** 
 268:d:\practise\f407_disc\lvgl\lvgl\src\misc\lv_color.h **** struct _lv_color_filter_dsc_t;
 269:d:\practise\f407_disc\lvgl\lvgl\src\misc\lv_color.h **** 
ARM GAS  C:\Users\gx\AppData\Local\Temp\ccQfGIQ4.s 			page 81


 270:d:\practise\f407_disc\lvgl\lvgl\src\misc\lv_color.h **** typedef lv_color_t (*lv_color_filter_cb_t)(const struct _lv_color_filter_dsc_t *, lv_color_t, lv_op
 271:d:\practise\f407_disc\lvgl\lvgl\src\misc\lv_color.h **** 
 272:d:\practise\f407_disc\lvgl\lvgl\src\misc\lv_color.h **** typedef struct _lv_color_filter_dsc_t {
 273:d:\practise\f407_disc\lvgl\lvgl\src\misc\lv_color.h ****     lv_color_filter_cb_t filter_cb;
 274:d:\practise\f407_disc\lvgl\lvgl\src\misc\lv_color.h ****     void * user_data;
 275:d:\practise\f407_disc\lvgl\lvgl\src\misc\lv_color.h **** }lv_color_filter_dsc_t;
 276:d:\practise\f407_disc\lvgl\lvgl\src\misc\lv_color.h **** 
 277:d:\practise\f407_disc\lvgl\lvgl\src\misc\lv_color.h **** 
 278:d:\practise\f407_disc\lvgl\lvgl\src\misc\lv_color.h **** typedef enum {
 279:d:\practise\f407_disc\lvgl\lvgl\src\misc\lv_color.h ****     LV_PALETTE_RED,
 280:d:\practise\f407_disc\lvgl\lvgl\src\misc\lv_color.h ****     LV_PALETTE_PINK,
 281:d:\practise\f407_disc\lvgl\lvgl\src\misc\lv_color.h ****     LV_PALETTE_PURPLE,
 282:d:\practise\f407_disc\lvgl\lvgl\src\misc\lv_color.h ****     LV_PALETTE_DEEP_PURPLE,
 283:d:\practise\f407_disc\lvgl\lvgl\src\misc\lv_color.h ****     LV_PALETTE_INDIGO,
 284:d:\practise\f407_disc\lvgl\lvgl\src\misc\lv_color.h ****     LV_PALETTE_BLUE,
 285:d:\practise\f407_disc\lvgl\lvgl\src\misc\lv_color.h ****     LV_PALETTE_LIGHT_BLUE,
 286:d:\practise\f407_disc\lvgl\lvgl\src\misc\lv_color.h ****     LV_PALETTE_CYAN,
 287:d:\practise\f407_disc\lvgl\lvgl\src\misc\lv_color.h ****     LV_PALETTE_TEAL,
 288:d:\practise\f407_disc\lvgl\lvgl\src\misc\lv_color.h ****     LV_PALETTE_GREEN,
 289:d:\practise\f407_disc\lvgl\lvgl\src\misc\lv_color.h ****     LV_PALETTE_LIGHT_GREEN,
 290:d:\practise\f407_disc\lvgl\lvgl\src\misc\lv_color.h ****     LV_PALETTE_LIME,
 291:d:\practise\f407_disc\lvgl\lvgl\src\misc\lv_color.h ****     LV_PALETTE_YELLOW,
 292:d:\practise\f407_disc\lvgl\lvgl\src\misc\lv_color.h ****     LV_PALETTE_AMBER,
 293:d:\practise\f407_disc\lvgl\lvgl\src\misc\lv_color.h ****     LV_PALETTE_ORANGE,
 294:d:\practise\f407_disc\lvgl\lvgl\src\misc\lv_color.h ****     LV_PALETTE_DEEP_ORANGE,
 295:d:\practise\f407_disc\lvgl\lvgl\src\misc\lv_color.h ****     LV_PALETTE_BROWN,
 296:d:\practise\f407_disc\lvgl\lvgl\src\misc\lv_color.h ****     LV_PALETTE_BLUE_GREY,
 297:d:\practise\f407_disc\lvgl\lvgl\src\misc\lv_color.h ****     LV_PALETTE_GREY,
 298:d:\practise\f407_disc\lvgl\lvgl\src\misc\lv_color.h ****     _LV_PALETTE_LAST,
 299:d:\practise\f407_disc\lvgl\lvgl\src\misc\lv_color.h ****     LV_PALETTE_NONE = 0xff,
 300:d:\practise\f407_disc\lvgl\lvgl\src\misc\lv_color.h **** }lv_palette_t;
 301:d:\practise\f407_disc\lvgl\lvgl\src\misc\lv_color.h **** 
 302:d:\practise\f407_disc\lvgl\lvgl\src\misc\lv_color.h **** /**********************
 303:d:\practise\f407_disc\lvgl\lvgl\src\misc\lv_color.h ****  * GLOBAL PROTOTYPES
 304:d:\practise\f407_disc\lvgl\lvgl\src\misc\lv_color.h ****  **********************/
 305:d:\practise\f407_disc\lvgl\lvgl\src\misc\lv_color.h **** 
 306:d:\practise\f407_disc\lvgl\lvgl\src\misc\lv_color.h **** /*In color conversations:
 307:d:\practise\f407_disc\lvgl\lvgl\src\misc\lv_color.h ****  * - When converting to bigger color type the LSB weight of 1 LSB is calculated
 308:d:\practise\f407_disc\lvgl\lvgl\src\misc\lv_color.h ****  *   E.g. 16 bit Red has 5 bits
 309:d:\practise\f407_disc\lvgl\lvgl\src\misc\lv_color.h ****  *         8 bit Red has 3 bits
 310:d:\practise\f407_disc\lvgl\lvgl\src\misc\lv_color.h ****  *        ----------------------
 311:d:\practise\f407_disc\lvgl\lvgl\src\misc\lv_color.h ****  *        8 bit red LSB = (2^5 - 1) / (2^3 - 1) = 31 / 7 = 4
 312:d:\practise\f407_disc\lvgl\lvgl\src\misc\lv_color.h ****  *
 313:d:\practise\f407_disc\lvgl\lvgl\src\misc\lv_color.h ****  * - When calculating to smaller color type simply shift out the LSBs
 314:d:\practise\f407_disc\lvgl\lvgl\src\misc\lv_color.h ****  *   E.g.  8 bit Red has 3 bits
 315:d:\practise\f407_disc\lvgl\lvgl\src\misc\lv_color.h ****  *        16 bit Red has 5 bits
 316:d:\practise\f407_disc\lvgl\lvgl\src\misc\lv_color.h ****  *        ----------------------
 317:d:\practise\f407_disc\lvgl\lvgl\src\misc\lv_color.h ****  *         Shift right with 5 - 3 = 2
 318:d:\practise\f407_disc\lvgl\lvgl\src\misc\lv_color.h ****  */
 319:d:\practise\f407_disc\lvgl\lvgl\src\misc\lv_color.h **** static inline uint8_t lv_color_to1(lv_color_t color)
 320:d:\practise\f407_disc\lvgl\lvgl\src\misc\lv_color.h **** {
 321:d:\practise\f407_disc\lvgl\lvgl\src\misc\lv_color.h **** #if LV_COLOR_DEPTH == 1
 322:d:\practise\f407_disc\lvgl\lvgl\src\misc\lv_color.h ****     return color.full;
 323:d:\practise\f407_disc\lvgl\lvgl\src\misc\lv_color.h **** #elif LV_COLOR_DEPTH == 8
 324:d:\practise\f407_disc\lvgl\lvgl\src\misc\lv_color.h ****     if((LV_COLOR_GET_R(color) & 0x4) || (LV_COLOR_GET_G(color) & 0x4) || (LV_COLOR_GET_B(color) & 0
 325:d:\practise\f407_disc\lvgl\lvgl\src\misc\lv_color.h ****         return 1;
 326:d:\practise\f407_disc\lvgl\lvgl\src\misc\lv_color.h ****     }
ARM GAS  C:\Users\gx\AppData\Local\Temp\ccQfGIQ4.s 			page 82


 327:d:\practise\f407_disc\lvgl\lvgl\src\misc\lv_color.h ****     else {
 328:d:\practise\f407_disc\lvgl\lvgl\src\misc\lv_color.h ****         return 0;
 329:d:\practise\f407_disc\lvgl\lvgl\src\misc\lv_color.h ****     }
 330:d:\practise\f407_disc\lvgl\lvgl\src\misc\lv_color.h **** #elif LV_COLOR_DEPTH == 16
 331:d:\practise\f407_disc\lvgl\lvgl\src\misc\lv_color.h ****     if((LV_COLOR_GET_R(color) & 0x10) || (LV_COLOR_GET_G(color) & 0x20) || (LV_COLOR_GET_B(color) &
 332:d:\practise\f407_disc\lvgl\lvgl\src\misc\lv_color.h ****         return 1;
 333:d:\practise\f407_disc\lvgl\lvgl\src\misc\lv_color.h ****     }
 334:d:\practise\f407_disc\lvgl\lvgl\src\misc\lv_color.h ****     else {
 335:d:\practise\f407_disc\lvgl\lvgl\src\misc\lv_color.h ****         return 0;
 336:d:\practise\f407_disc\lvgl\lvgl\src\misc\lv_color.h ****     }
 337:d:\practise\f407_disc\lvgl\lvgl\src\misc\lv_color.h **** #elif LV_COLOR_DEPTH == 32
 338:d:\practise\f407_disc\lvgl\lvgl\src\misc\lv_color.h ****     if((LV_COLOR_GET_R(color) & 0x80) || (LV_COLOR_GET_G(color) & 0x80) || (LV_COLOR_GET_B(color) &
 339:d:\practise\f407_disc\lvgl\lvgl\src\misc\lv_color.h ****         return 1;
 340:d:\practise\f407_disc\lvgl\lvgl\src\misc\lv_color.h ****     }
 341:d:\practise\f407_disc\lvgl\lvgl\src\misc\lv_color.h ****     else {
 342:d:\practise\f407_disc\lvgl\lvgl\src\misc\lv_color.h ****         return 0;
 343:d:\practise\f407_disc\lvgl\lvgl\src\misc\lv_color.h ****     }
 344:d:\practise\f407_disc\lvgl\lvgl\src\misc\lv_color.h **** #endif
 345:d:\practise\f407_disc\lvgl\lvgl\src\misc\lv_color.h **** }
 346:d:\practise\f407_disc\lvgl\lvgl\src\misc\lv_color.h **** 
 347:d:\practise\f407_disc\lvgl\lvgl\src\misc\lv_color.h **** static inline uint8_t lv_color_to8(lv_color_t color)
 348:d:\practise\f407_disc\lvgl\lvgl\src\misc\lv_color.h **** {
 349:d:\practise\f407_disc\lvgl\lvgl\src\misc\lv_color.h **** #if LV_COLOR_DEPTH == 1
 350:d:\practise\f407_disc\lvgl\lvgl\src\misc\lv_color.h ****     if(color.full == 0)
 351:d:\practise\f407_disc\lvgl\lvgl\src\misc\lv_color.h ****         return 0;
 352:d:\practise\f407_disc\lvgl\lvgl\src\misc\lv_color.h ****     else
 353:d:\practise\f407_disc\lvgl\lvgl\src\misc\lv_color.h ****         return 0xFF;
 354:d:\practise\f407_disc\lvgl\lvgl\src\misc\lv_color.h **** #elif LV_COLOR_DEPTH == 8
 355:d:\practise\f407_disc\lvgl\lvgl\src\misc\lv_color.h ****     return color.full;
 356:d:\practise\f407_disc\lvgl\lvgl\src\misc\lv_color.h **** #elif LV_COLOR_DEPTH == 16
 357:d:\practise\f407_disc\lvgl\lvgl\src\misc\lv_color.h ****     lv_color8_t ret;
 358:d:\practise\f407_disc\lvgl\lvgl\src\misc\lv_color.h ****     LV_COLOR_SET_R8(ret, LV_COLOR_GET_R(color) >> 2); /*5 - 3  = 2*/
 359:d:\practise\f407_disc\lvgl\lvgl\src\misc\lv_color.h ****     LV_COLOR_SET_G8(ret, LV_COLOR_GET_G(color) >> 3); /*6 - 3  = 3*/
 360:d:\practise\f407_disc\lvgl\lvgl\src\misc\lv_color.h ****     LV_COLOR_SET_B8(ret, LV_COLOR_GET_B(color) >> 3); /*5 - 2  = 3*/
 361:d:\practise\f407_disc\lvgl\lvgl\src\misc\lv_color.h ****     return ret.full;
 362:d:\practise\f407_disc\lvgl\lvgl\src\misc\lv_color.h **** #elif LV_COLOR_DEPTH == 32
 363:d:\practise\f407_disc\lvgl\lvgl\src\misc\lv_color.h ****     lv_color8_t ret;
 364:d:\practise\f407_disc\lvgl\lvgl\src\misc\lv_color.h ****     LV_COLOR_SET_R8(ret, LV_COLOR_GET_R(color) >> 5); /*8 - 3  = 5*/
 365:d:\practise\f407_disc\lvgl\lvgl\src\misc\lv_color.h ****     LV_COLOR_SET_G8(ret, LV_COLOR_GET_G(color) >> 5); /*8 - 3  = 5*/
 366:d:\practise\f407_disc\lvgl\lvgl\src\misc\lv_color.h ****     LV_COLOR_SET_B8(ret, LV_COLOR_GET_B(color) >> 6); /*8 - 2  = 6*/
 367:d:\practise\f407_disc\lvgl\lvgl\src\misc\lv_color.h ****     return ret.full;
 368:d:\practise\f407_disc\lvgl\lvgl\src\misc\lv_color.h **** #endif
 369:d:\practise\f407_disc\lvgl\lvgl\src\misc\lv_color.h **** }
 370:d:\practise\f407_disc\lvgl\lvgl\src\misc\lv_color.h **** 
 371:d:\practise\f407_disc\lvgl\lvgl\src\misc\lv_color.h **** static inline uint16_t lv_color_to16(lv_color_t color)
 372:d:\practise\f407_disc\lvgl\lvgl\src\misc\lv_color.h **** {
 373:d:\practise\f407_disc\lvgl\lvgl\src\misc\lv_color.h **** #if LV_COLOR_DEPTH == 1
 374:d:\practise\f407_disc\lvgl\lvgl\src\misc\lv_color.h ****     if(color.full == 0)
 375:d:\practise\f407_disc\lvgl\lvgl\src\misc\lv_color.h ****         return 0;
 376:d:\practise\f407_disc\lvgl\lvgl\src\misc\lv_color.h ****     else
 377:d:\practise\f407_disc\lvgl\lvgl\src\misc\lv_color.h ****         return 0xFFFF;
 378:d:\practise\f407_disc\lvgl\lvgl\src\misc\lv_color.h **** #elif LV_COLOR_DEPTH == 8
 379:d:\practise\f407_disc\lvgl\lvgl\src\misc\lv_color.h ****     lv_color16_t ret;
 380:d:\practise\f407_disc\lvgl\lvgl\src\misc\lv_color.h ****     LV_COLOR_SET_R16(ret, LV_COLOR_GET_R(color) * 4);  /*(2^5 - 1)/(2^3 - 1) = 31/7 = 4*/
 381:d:\practise\f407_disc\lvgl\lvgl\src\misc\lv_color.h ****     LV_COLOR_SET_G16(ret, LV_COLOR_GET_G(color) * 9);  /*(2^6 - 1)/(2^3 - 1) = 63/7 = 9*/
 382:d:\practise\f407_disc\lvgl\lvgl\src\misc\lv_color.h ****     LV_COLOR_SET_B16(ret, LV_COLOR_GET_B(color) * 10); /*(2^5 - 1)/(2^2 - 1) = 31/3 = 10*/
 383:d:\practise\f407_disc\lvgl\lvgl\src\misc\lv_color.h ****     return ret.full;
ARM GAS  C:\Users\gx\AppData\Local\Temp\ccQfGIQ4.s 			page 83


 384:d:\practise\f407_disc\lvgl\lvgl\src\misc\lv_color.h **** #elif LV_COLOR_DEPTH == 16
 385:d:\practise\f407_disc\lvgl\lvgl\src\misc\lv_color.h ****     return color.full;
 386:d:\practise\f407_disc\lvgl\lvgl\src\misc\lv_color.h **** #elif LV_COLOR_DEPTH == 32
 387:d:\practise\f407_disc\lvgl\lvgl\src\misc\lv_color.h ****     lv_color16_t ret;
 388:d:\practise\f407_disc\lvgl\lvgl\src\misc\lv_color.h ****     LV_COLOR_SET_R16(ret, LV_COLOR_GET_R(color) >> 3); /*8 - 5  = 3*/
 389:d:\practise\f407_disc\lvgl\lvgl\src\misc\lv_color.h ****     LV_COLOR_SET_G16(ret, LV_COLOR_GET_G(color) >> 2); /*8 - 6  = 2*/
 390:d:\practise\f407_disc\lvgl\lvgl\src\misc\lv_color.h ****     LV_COLOR_SET_B16(ret, LV_COLOR_GET_B(color) >> 3); /*8 - 5  = 3*/
 391:d:\practise\f407_disc\lvgl\lvgl\src\misc\lv_color.h ****     return ret.full;
 392:d:\practise\f407_disc\lvgl\lvgl\src\misc\lv_color.h **** #endif
 393:d:\practise\f407_disc\lvgl\lvgl\src\misc\lv_color.h **** }
 394:d:\practise\f407_disc\lvgl\lvgl\src\misc\lv_color.h **** 
 395:d:\practise\f407_disc\lvgl\lvgl\src\misc\lv_color.h **** static inline uint32_t lv_color_to32(lv_color_t color)
 396:d:\practise\f407_disc\lvgl\lvgl\src\misc\lv_color.h **** {
 397:d:\practise\f407_disc\lvgl\lvgl\src\misc\lv_color.h **** #if LV_COLOR_DEPTH == 1
 398:d:\practise\f407_disc\lvgl\lvgl\src\misc\lv_color.h ****     if(color.full == 0)
 399:d:\practise\f407_disc\lvgl\lvgl\src\misc\lv_color.h ****         return 0xFF000000;
 400:d:\practise\f407_disc\lvgl\lvgl\src\misc\lv_color.h ****     else
 401:d:\practise\f407_disc\lvgl\lvgl\src\misc\lv_color.h ****         return 0xFFFFFFFF;
 402:d:\practise\f407_disc\lvgl\lvgl\src\misc\lv_color.h **** #elif LV_COLOR_DEPTH == 8
 403:d:\practise\f407_disc\lvgl\lvgl\src\misc\lv_color.h ****     lv_color32_t ret;
 404:d:\practise\f407_disc\lvgl\lvgl\src\misc\lv_color.h ****     LV_COLOR_SET_R32(ret, LV_COLOR_GET_R(color) * 36); /*(2^8 - 1)/(2^3 - 1) = 255/7 = 36*/
 405:d:\practise\f407_disc\lvgl\lvgl\src\misc\lv_color.h ****     LV_COLOR_SET_G32(ret, LV_COLOR_GET_G(color) * 36); /*(2^8 - 1)/(2^3 - 1) = 255/7 = 36*/
 406:d:\practise\f407_disc\lvgl\lvgl\src\misc\lv_color.h ****     LV_COLOR_SET_B32(ret, LV_COLOR_GET_B(color) * 85); /*(2^8 - 1)/(2^2 - 1) = 255/3 = 85*/
 407:d:\practise\f407_disc\lvgl\lvgl\src\misc\lv_color.h ****     LV_COLOR_SET_A32(ret, 0xFF);
 408:d:\practise\f407_disc\lvgl\lvgl\src\misc\lv_color.h ****     return ret.full;
 409:d:\practise\f407_disc\lvgl\lvgl\src\misc\lv_color.h **** #elif LV_COLOR_DEPTH == 16
 410:d:\practise\f407_disc\lvgl\lvgl\src\misc\lv_color.h ****     /**
 411:d:\practise\f407_disc\lvgl\lvgl\src\misc\lv_color.h ****      * The floating point math for conversion is:
 412:d:\practise\f407_disc\lvgl\lvgl\src\misc\lv_color.h ****      *  valueto = valuefrom * ( (2^bitsto - 1) / (float)(2^bitsfrom - 1) )
 413:d:\practise\f407_disc\lvgl\lvgl\src\misc\lv_color.h ****      * The faster integer math for conversion is:
 414:d:\practise\f407_disc\lvgl\lvgl\src\misc\lv_color.h ****      *  valueto = ( valuefrom * multiplier + adder ) >> divisor
 415:d:\practise\f407_disc\lvgl\lvgl\src\misc\lv_color.h ****      *   multiplier = FLOOR( ( (2^bitsto - 1) << divisor ) / (float)(2^bitsfrom - 1) )
 416:d:\practise\f407_disc\lvgl\lvgl\src\misc\lv_color.h ****      *
 417:d:\practise\f407_disc\lvgl\lvgl\src\misc\lv_color.h ****      * Find the first divisor where ( adder >> divisor ) <= 0
 418:d:\practise\f407_disc\lvgl\lvgl\src\misc\lv_color.h ****      *
 419:d:\practise\f407_disc\lvgl\lvgl\src\misc\lv_color.h ****      * 5-bit to 8-bit: ( 31 * multiplier + adder ) >> divisor = 255
 420:d:\practise\f407_disc\lvgl\lvgl\src\misc\lv_color.h ****      * divisor  multiplier  adder  min (0)  max (31)
 421:d:\practise\f407_disc\lvgl\lvgl\src\misc\lv_color.h ****      *       0           8      7        7       255
 422:d:\practise\f407_disc\lvgl\lvgl\src\misc\lv_color.h ****      *       1          16     14        7       255
 423:d:\practise\f407_disc\lvgl\lvgl\src\misc\lv_color.h ****      *       2          32     28        7       255
 424:d:\practise\f407_disc\lvgl\lvgl\src\misc\lv_color.h ****      *       3          65     25        3       255
 425:d:\practise\f407_disc\lvgl\lvgl\src\misc\lv_color.h ****      *       4         131     19        1       255
 426:d:\practise\f407_disc\lvgl\lvgl\src\misc\lv_color.h ****      *       5         263      7        0       255
 427:d:\practise\f407_disc\lvgl\lvgl\src\misc\lv_color.h ****      *
 428:d:\practise\f407_disc\lvgl\lvgl\src\misc\lv_color.h ****      * 6-bit to 8-bit: 255 = ( 63 * multiplier + adder ) >> divisor
 429:d:\practise\f407_disc\lvgl\lvgl\src\misc\lv_color.h ****      * divisor  multiplier  adder  min (0)  max (63)
 430:d:\practise\f407_disc\lvgl\lvgl\src\misc\lv_color.h ****      *       0           4      3        3       255
 431:d:\practise\f407_disc\lvgl\lvgl\src\misc\lv_color.h ****      *       1           8      6        3       255
 432:d:\practise\f407_disc\lvgl\lvgl\src\misc\lv_color.h ****      *       2          16     12        3       255
 433:d:\practise\f407_disc\lvgl\lvgl\src\misc\lv_color.h ****      *       3          32     24        3       255
 434:d:\practise\f407_disc\lvgl\lvgl\src\misc\lv_color.h ****      *       4          64     48        3       255
 435:d:\practise\f407_disc\lvgl\lvgl\src\misc\lv_color.h ****      *       5         129     33        1       255
 436:d:\practise\f407_disc\lvgl\lvgl\src\misc\lv_color.h ****      *       6         259      3        0       255
 437:d:\practise\f407_disc\lvgl\lvgl\src\misc\lv_color.h ****      */
 438:d:\practise\f407_disc\lvgl\lvgl\src\misc\lv_color.h **** 
 439:d:\practise\f407_disc\lvgl\lvgl\src\misc\lv_color.h ****     lv_color32_t ret;
 440:d:\practise\f407_disc\lvgl\lvgl\src\misc\lv_color.h ****     LV_COLOR_SET_R32(ret, (LV_COLOR_GET_R(color) * 263 + 7) >> 5);
ARM GAS  C:\Users\gx\AppData\Local\Temp\ccQfGIQ4.s 			page 84


 441:d:\practise\f407_disc\lvgl\lvgl\src\misc\lv_color.h ****     LV_COLOR_SET_G32(ret, (LV_COLOR_GET_G(color) * 259 + 3) >> 6);
 442:d:\practise\f407_disc\lvgl\lvgl\src\misc\lv_color.h ****     LV_COLOR_SET_B32(ret, (LV_COLOR_GET_B(color) * 263 + 7) >> 5);
 443:d:\practise\f407_disc\lvgl\lvgl\src\misc\lv_color.h ****     LV_COLOR_SET_A32(ret, 0xFF);
 444:d:\practise\f407_disc\lvgl\lvgl\src\misc\lv_color.h ****     return ret.full;
 445:d:\practise\f407_disc\lvgl\lvgl\src\misc\lv_color.h **** #elif LV_COLOR_DEPTH == 32
 446:d:\practise\f407_disc\lvgl\lvgl\src\misc\lv_color.h ****     return color.full;
 447:d:\practise\f407_disc\lvgl\lvgl\src\misc\lv_color.h **** #endif
 448:d:\practise\f407_disc\lvgl\lvgl\src\misc\lv_color.h **** }
 449:d:\practise\f407_disc\lvgl\lvgl\src\misc\lv_color.h **** 
 450:d:\practise\f407_disc\lvgl\lvgl\src\misc\lv_color.h **** //! @cond Doxygen_Suppress
 451:d:\practise\f407_disc\lvgl\lvgl\src\misc\lv_color.h **** 
 452:d:\practise\f407_disc\lvgl\lvgl\src\misc\lv_color.h **** /**
 453:d:\practise\f407_disc\lvgl\lvgl\src\misc\lv_color.h ****  * Mix two colors with a given ratio.
 454:d:\practise\f407_disc\lvgl\lvgl\src\misc\lv_color.h ****  * @param c1 the first color to mix (usually the foreground)
 455:d:\practise\f407_disc\lvgl\lvgl\src\misc\lv_color.h ****  * @param c2 the second color to mix (usually the background)
 456:d:\practise\f407_disc\lvgl\lvgl\src\misc\lv_color.h ****  * @param mix The ratio of the colors. 0: full `c2`, 255: full `c1`, 127: half `c1` and half`c2`
 457:d:\practise\f407_disc\lvgl\lvgl\src\misc\lv_color.h ****  * @return the mixed color
 458:d:\practise\f407_disc\lvgl\lvgl\src\misc\lv_color.h ****  */
 459:d:\practise\f407_disc\lvgl\lvgl\src\misc\lv_color.h **** LV_ATTRIBUTE_FAST_MEM static inline lv_color_t lv_color_mix(lv_color_t c1, lv_color_t c2, uint8_t m
 2547              		.loc 2 459 48 is_stmt 1 discriminator 1 view .LVU775
 2548              	.LBB84:
 460:d:\practise\f407_disc\lvgl\lvgl\src\misc\lv_color.h **** {
 461:d:\practise\f407_disc\lvgl\lvgl\src\misc\lv_color.h ****     lv_color_t ret;
 2549              		.loc 2 461 5 discriminator 1 view .LVU776
 462:d:\practise\f407_disc\lvgl\lvgl\src\misc\lv_color.h **** 
 463:d:\practise\f407_disc\lvgl\lvgl\src\misc\lv_color.h **** #if LV_COLOR_DEPTH == 16 && LV_COLOR_16_SWAP == 0
 464:d:\practise\f407_disc\lvgl\lvgl\src\misc\lv_color.h ****     /*Source: https://stackoverflow.com/a/50012418/1999969*/
 465:d:\practise\f407_disc\lvgl\lvgl\src\misc\lv_color.h ****     mix = ( mix + 4 ) >> 3;
 2550              		.loc 2 465 5 discriminator 1 view .LVU777
 2551              		.loc 2 465 17 is_stmt 0 discriminator 1 view .LVU778
 2552 0018 0434     		adds	r4, r4, #4
 2553              	.LVL269:
 466:d:\practise\f407_disc\lvgl\lvgl\src\misc\lv_color.h ****     uint32_t bg = (uint32_t)((uint32_t)c2.full | ((uint32_t)c2.full << 16)) & 0x7E0F81F; /*0b000001
 2554              		.loc 2 466 5 is_stmt 1 discriminator 1 view .LVU779
 2555              		.loc 2 466 42 is_stmt 0 discriminator 1 view .LVU780
 2556 001a ABB2     		uxth	r3, r5
 2557              		.loc 2 466 19 discriminator 1 view .LVU781
 2558 001c 43EA0541 		orr	r1, r3, r5, lsl #16
 2559              		.loc 2 466 14 discriminator 1 view .LVU782
 2560 0020 144A     		ldr	r2, .L67+4
 2561 0022 1140     		ands	r1, r1, r2
 2562              	.LVL270:
 467:d:\practise\f407_disc\lvgl\lvgl\src\misc\lv_color.h ****     uint32_t fg = (uint32_t)((uint32_t)c1.full | (uint32_t)(c1.full << 16)) & 0x7E0F81F;
 2563              		.loc 2 467 5 is_stmt 1 discriminator 1 view .LVU783
 2564              		.loc 2 467 42 is_stmt 0 discriminator 1 view .LVU784
 2565 0024 83B2     		uxth	r3, r0
 2566              		.loc 2 467 19 discriminator 1 view .LVU785
 2567 0026 43EA0040 		orr	r0, r3, r0, lsl #16
 2568              		.loc 2 467 14 discriminator 1 view .LVU786
 2569 002a 1040     		ands	r0, r0, r2
 2570              	.LVL271:
 468:d:\practise\f407_disc\lvgl\lvgl\src\misc\lv_color.h ****     uint32_t result = ((((fg - bg) * mix) >> 5) + bg) & 0x7E0F81F;
 2571              		.loc 2 468 5 is_stmt 1 discriminator 1 view .LVU787
 2572              		.loc 2 468 30 is_stmt 0 discriminator 1 view .LVU788
 2573 002c 401A     		subs	r0, r0, r1
 2574              	.LVL272:
 2575              		.loc 2 468 36 discriminator 1 view .LVU789
ARM GAS  C:\Users\gx\AppData\Local\Temp\ccQfGIQ4.s 			page 85


 2576 002e E408     		lsrs	r4, r4, #3
 2577              	.LVL273:
 2578              		.loc 2 468 36 discriminator 1 view .LVU790
 2579 0030 00FB04F4 		mul	r4, r0, r4
 2580              		.loc 2 468 49 discriminator 1 view .LVU791
 2581 0034 01EB5410 		add	r0, r1, r4, lsr #5
 2582              		.loc 2 468 14 discriminator 1 view .LVU792
 2583 0038 1040     		ands	r0, r0, r2
 2584              	.LVL274:
 469:d:\practise\f407_disc\lvgl\lvgl\src\misc\lv_color.h ****     ret.full = (uint16_t)((result >> 16) | result);
 2585              		.loc 2 469 5 is_stmt 1 discriminator 1 view .LVU793
 470:d:\practise\f407_disc\lvgl\lvgl\src\misc\lv_color.h **** #elif LV_COLOR_DEPTH != 1
 471:d:\practise\f407_disc\lvgl\lvgl\src\misc\lv_color.h ****     /*LV_COLOR_DEPTH == 8, 16 or 32*/
 472:d:\practise\f407_disc\lvgl\lvgl\src\misc\lv_color.h ****     LV_COLOR_SET_R(ret, LV_UDIV255((uint16_t) LV_COLOR_GET_R(c1) * mix + LV_COLOR_GET_R(c2) *
 473:d:\practise\f407_disc\lvgl\lvgl\src\misc\lv_color.h ****                                         (255 - mix) + LV_COLOR_MIX_ROUND_OFS));
 474:d:\practise\f407_disc\lvgl\lvgl\src\misc\lv_color.h ****     LV_COLOR_SET_G(ret, LV_UDIV255((uint16_t) LV_COLOR_GET_G(c1) * mix + LV_COLOR_GET_G(c2) *
 475:d:\practise\f407_disc\lvgl\lvgl\src\misc\lv_color.h ****                                         (255 - mix) + LV_COLOR_MIX_ROUND_OFS));
 476:d:\practise\f407_disc\lvgl\lvgl\src\misc\lv_color.h ****     LV_COLOR_SET_B(ret, LV_UDIV255((uint16_t) LV_COLOR_GET_B(c1) * mix + LV_COLOR_GET_B(c2) *
 477:d:\practise\f407_disc\lvgl\lvgl\src\misc\lv_color.h ****                                         (255 - mix) + LV_COLOR_MIX_ROUND_OFS));
 478:d:\practise\f407_disc\lvgl\lvgl\src\misc\lv_color.h ****     LV_COLOR_SET_A(ret, 0xFF);
 479:d:\practise\f407_disc\lvgl\lvgl\src\misc\lv_color.h **** #else
 480:d:\practise\f407_disc\lvgl\lvgl\src\misc\lv_color.h ****     /*LV_COLOR_DEPTH == 1*/
 481:d:\practise\f407_disc\lvgl\lvgl\src\misc\lv_color.h ****     ret.full = mix > LV_OPA_50 ? c1.full : c2.full;
 482:d:\practise\f407_disc\lvgl\lvgl\src\misc\lv_color.h **** #endif
 483:d:\practise\f407_disc\lvgl\lvgl\src\misc\lv_color.h **** 
 484:d:\practise\f407_disc\lvgl\lvgl\src\misc\lv_color.h ****     return ret;
 2586              		.loc 2 484 5 discriminator 1 view .LVU794
 2587 003a 40EA1040 		orr	r0, r0, r0, lsr #16
 2588              	.LVL275:
 2589              	.L65:
 2590              		.loc 2 484 5 is_stmt 0 discriminator 1 view .LVU795
 2591              	.LBE84:
 2592              	.LBE83:
 197:lvgl/lvgl/src/extra/themes/default/lv_theme_default.c **** 
 2593              		.loc 1 197 1 view .LVU796
 2594 003e 38BD     		pop	{r3, r4, r5, pc}
 2595              	.LVL276:
 2596              	.L64:
 196:lvgl/lvgl/src/extra/themes/default/lv_theme_default.c **** }
 2597              		.loc 1 196 10 is_stmt 1 view .LVU797
 196:lvgl/lvgl/src/extra/themes/default/lv_theme_default.c **** }
 2598              		.loc 1 196 17 is_stmt 0 view .LVU798
 2599 0040 0221     		movs	r1, #2
 2600 0042 1220     		movs	r0, #18
 2601              	.LVL277:
 196:lvgl/lvgl/src/extra/themes/default/lv_theme_default.c **** }
 2602              		.loc 1 196 17 view .LVU799
 2603 0044 FFF7FEFF 		bl	lv_palette_lighten
 2604              	.LVL278:
 2605              	.LBB85:
 2606              	.LBI85:
 459:d:\practise\f407_disc\lvgl\lvgl\src\misc\lv_color.h **** {
 2607              		.loc 2 459 48 is_stmt 1 view .LVU800
 2608              	.LBB86:
 461:d:\practise\f407_disc\lvgl\lvgl\src\misc\lv_color.h **** 
 2609              		.loc 2 461 5 view .LVU801
 465:d:\practise\f407_disc\lvgl\lvgl\src\misc\lv_color.h ****     uint32_t bg = (uint32_t)((uint32_t)c2.full | ((uint32_t)c2.full << 16)) & 0x7E0F81F; /*0b000001
ARM GAS  C:\Users\gx\AppData\Local\Temp\ccQfGIQ4.s 			page 86


 2610              		.loc 2 465 5 view .LVU802
 465:d:\practise\f407_disc\lvgl\lvgl\src\misc\lv_color.h ****     uint32_t bg = (uint32_t)((uint32_t)c2.full | ((uint32_t)c2.full << 16)) & 0x7E0F81F; /*0b000001
 2611              		.loc 2 465 17 is_stmt 0 view .LVU803
 2612 0048 0434     		adds	r4, r4, #4
 2613              	.LVL279:
 466:d:\practise\f407_disc\lvgl\lvgl\src\misc\lv_color.h ****     uint32_t fg = (uint32_t)((uint32_t)c1.full | (uint32_t)(c1.full << 16)) & 0x7E0F81F;
 2614              		.loc 2 466 5 is_stmt 1 view .LVU804
 466:d:\practise\f407_disc\lvgl\lvgl\src\misc\lv_color.h ****     uint32_t fg = (uint32_t)((uint32_t)c1.full | (uint32_t)(c1.full << 16)) & 0x7E0F81F;
 2615              		.loc 2 466 42 is_stmt 0 view .LVU805
 2616 004a ABB2     		uxth	r3, r5
 466:d:\practise\f407_disc\lvgl\lvgl\src\misc\lv_color.h ****     uint32_t fg = (uint32_t)((uint32_t)c1.full | (uint32_t)(c1.full << 16)) & 0x7E0F81F;
 2617              		.loc 2 466 19 view .LVU806
 2618 004c 43EA0541 		orr	r1, r3, r5, lsl #16
 466:d:\practise\f407_disc\lvgl\lvgl\src\misc\lv_color.h ****     uint32_t fg = (uint32_t)((uint32_t)c1.full | (uint32_t)(c1.full << 16)) & 0x7E0F81F;
 2619              		.loc 2 466 14 view .LVU807
 2620 0050 084A     		ldr	r2, .L67+4
 2621 0052 1140     		ands	r1, r1, r2
 2622              	.LVL280:
 467:d:\practise\f407_disc\lvgl\lvgl\src\misc\lv_color.h ****     uint32_t result = ((((fg - bg) * mix) >> 5) + bg) & 0x7E0F81F;
 2623              		.loc 2 467 5 is_stmt 1 view .LVU808
 467:d:\practise\f407_disc\lvgl\lvgl\src\misc\lv_color.h ****     uint32_t result = ((((fg - bg) * mix) >> 5) + bg) & 0x7E0F81F;
 2624              		.loc 2 467 42 is_stmt 0 view .LVU809
 2625 0054 83B2     		uxth	r3, r0
 467:d:\practise\f407_disc\lvgl\lvgl\src\misc\lv_color.h ****     uint32_t result = ((((fg - bg) * mix) >> 5) + bg) & 0x7E0F81F;
 2626              		.loc 2 467 19 view .LVU810
 2627 0056 43EA0040 		orr	r0, r3, r0, lsl #16
 467:d:\practise\f407_disc\lvgl\lvgl\src\misc\lv_color.h ****     uint32_t result = ((((fg - bg) * mix) >> 5) + bg) & 0x7E0F81F;
 2628              		.loc 2 467 14 view .LVU811
 2629 005a 1040     		ands	r0, r0, r2
 2630              	.LVL281:
 468:d:\practise\f407_disc\lvgl\lvgl\src\misc\lv_color.h ****     ret.full = (uint16_t)((result >> 16) | result);
 2631              		.loc 2 468 5 is_stmt 1 view .LVU812
 468:d:\practise\f407_disc\lvgl\lvgl\src\misc\lv_color.h ****     ret.full = (uint16_t)((result >> 16) | result);
 2632              		.loc 2 468 30 is_stmt 0 view .LVU813
 2633 005c 401A     		subs	r0, r0, r1
 2634              	.LVL282:
 468:d:\practise\f407_disc\lvgl\lvgl\src\misc\lv_color.h ****     ret.full = (uint16_t)((result >> 16) | result);
 2635              		.loc 2 468 36 view .LVU814
 2636 005e E408     		lsrs	r4, r4, #3
 2637              	.LVL283:
 468:d:\practise\f407_disc\lvgl\lvgl\src\misc\lv_color.h ****     ret.full = (uint16_t)((result >> 16) | result);
 2638              		.loc 2 468 36 view .LVU815
 2639 0060 00FB04F4 		mul	r4, r0, r4
 468:d:\practise\f407_disc\lvgl\lvgl\src\misc\lv_color.h ****     ret.full = (uint16_t)((result >> 16) | result);
 2640              		.loc 2 468 49 view .LVU816
 2641 0064 01EB5410 		add	r0, r1, r4, lsr #5
 468:d:\practise\f407_disc\lvgl\lvgl\src\misc\lv_color.h ****     ret.full = (uint16_t)((result >> 16) | result);
 2642              		.loc 2 468 14 view .LVU817
 2643 0068 1040     		ands	r0, r0, r2
 2644              	.LVL284:
 469:d:\practise\f407_disc\lvgl\lvgl\src\misc\lv_color.h **** #elif LV_COLOR_DEPTH != 1
 2645              		.loc 2 469 5 is_stmt 1 view .LVU818
 2646              		.loc 2 484 5 view .LVU819
 2647 006a 40EA1040 		orr	r0, r0, r0, lsr #16
 2648              	.LVL285:
 2649              		.loc 2 484 5 is_stmt 0 view .LVU820
 2650              	.LBE86:
ARM GAS  C:\Users\gx\AppData\Local\Temp\ccQfGIQ4.s 			page 87


 2651              	.LBE85:
 196:lvgl/lvgl/src/extra/themes/default/lv_theme_default.c **** }
 2652              		.loc 1 196 17 view .LVU821
 2653 006e E6E7     		b	.L65
 2654              	.L68:
 2655              		.align	2
 2656              	.L67:
 2657 0070 00000000 		.word	.LANCHOR2
 2658 0074 1FF8E007 		.word	132184095
 2659              		.cfi_endproc
 2660              	.LFE190:
 2662              		.section	.text.dark_color_filter_cb,"ax",%progbits
 2663              		.align	1
 2664              		.syntax unified
 2665              		.thumb
 2666              		.thumb_func
 2667              		.fpu fpv4-sp-d16
 2669              	dark_color_filter_cb:
 2670              	.LVL286:
 2671              	.LFB189:
 187:lvgl/lvgl/src/extra/themes/default/lv_theme_default.c ****     LV_UNUSED(f);
 2672              		.loc 1 187 1 is_stmt 1 view -0
 2673              		.cfi_startproc
 2674              		@ args = 0, pretend = 0, frame = 0
 2675              		@ frame_needed = 0, uses_anonymous_args = 0
 187:lvgl/lvgl/src/extra/themes/default/lv_theme_default.c ****     LV_UNUSED(f);
 2676              		.loc 1 187 1 is_stmt 0 view .LVU823
 2677 0000 08B5     		push	{r3, lr}
 2678              	.LCFI2:
 2679              		.cfi_def_cfa_offset 8
 2680              		.cfi_offset 3, -8
 2681              		.cfi_offset 14, -4
 2682 0002 0846     		mov	r0, r1	@ movhi
 2683              	.LVL287:
 188:lvgl/lvgl/src/extra/themes/default/lv_theme_default.c ****     return lv_color_darken(c, opa);
 2684              		.loc 1 188 5 is_stmt 1 view .LVU824
 189:lvgl/lvgl/src/extra/themes/default/lv_theme_default.c **** }
 2685              		.loc 1 189 5 view .LVU825
 189:lvgl/lvgl/src/extra/themes/default/lv_theme_default.c **** }
 2686              		.loc 1 189 12 is_stmt 0 view .LVU826
 2687 0004 1146     		mov	r1, r2
 2688              	.LVL288:
 189:lvgl/lvgl/src/extra/themes/default/lv_theme_default.c **** }
 2689              		.loc 1 189 12 view .LVU827
 2690 0006 FFF7FEFF 		bl	lv_color_darken
 2691              	.LVL289:
 190:lvgl/lvgl/src/extra/themes/default/lv_theme_default.c **** 
 2692              		.loc 1 190 1 view .LVU828
 2693 000a 08BD     		pop	{r3, pc}
 2694              		.cfi_endproc
 2695              	.LFE189:
 2697              		.section	.text.style_init_reset,"ax",%progbits
 2698              		.align	1
 2699              		.syntax unified
 2700              		.thumb
 2701              		.thumb_func
 2702              		.fpu fpv4-sp-d16
ARM GAS  C:\Users\gx\AppData\Local\Temp\ccQfGIQ4.s 			page 88


 2704              	style_init_reset:
 2705              	.LVL290:
 2706              	.LFB195:
 991:lvgl/lvgl/src/extra/themes/default/lv_theme_default.c **** 
 992:lvgl/lvgl/src/extra/themes/default/lv_theme_default.c **** /**********************
 993:lvgl/lvgl/src/extra/themes/default/lv_theme_default.c ****  *   STATIC FUNCTIONS
 994:lvgl/lvgl/src/extra/themes/default/lv_theme_default.c ****  **********************/
 995:lvgl/lvgl/src/extra/themes/default/lv_theme_default.c **** 
 996:lvgl/lvgl/src/extra/themes/default/lv_theme_default.c **** static void style_init_reset(lv_style_t * style)
 997:lvgl/lvgl/src/extra/themes/default/lv_theme_default.c **** {
 2707              		.loc 1 997 1 is_stmt 1 view -0
 2708              		.cfi_startproc
 2709              		@ args = 0, pretend = 0, frame = 0
 2710              		@ frame_needed = 0, uses_anonymous_args = 0
 2711              		.loc 1 997 1 is_stmt 0 view .LVU830
 2712 0000 08B5     		push	{r3, lr}
 2713              	.LCFI3:
 2714              		.cfi_def_cfa_offset 8
 2715              		.cfi_offset 3, -8
 2716              		.cfi_offset 14, -4
 998:lvgl/lvgl/src/extra/themes/default/lv_theme_default.c ****     if(inited) lv_style_reset(style);
 2717              		.loc 1 998 5 is_stmt 1 view .LVU831
 2718              		.loc 1 998 8 is_stmt 0 view .LVU832
 2719 0002 044B     		ldr	r3, .L75
 2720 0004 1B78     		ldrb	r3, [r3]	@ zero_extendqisi2
 2721              		.loc 1 998 7 view .LVU833
 2722 0006 13B1     		cbz	r3, .L72
 2723              		.loc 1 998 16 is_stmt 1 discriminator 1 view .LVU834
 2724 0008 FFF7FEFF 		bl	lv_style_reset
 2725              	.LVL291:
 2726              	.L71:
 999:lvgl/lvgl/src/extra/themes/default/lv_theme_default.c ****     else lv_style_init(style);
1000:lvgl/lvgl/src/extra/themes/default/lv_theme_default.c **** }
 2727              		.loc 1 1000 1 is_stmt 0 view .LVU835
 2728 000c 08BD     		pop	{r3, pc}
 2729              	.LVL292:
 2730              	.L72:
 999:lvgl/lvgl/src/extra/themes/default/lv_theme_default.c ****     else lv_style_init(style);
 2731              		.loc 1 999 10 is_stmt 1 view .LVU836
 2732 000e FFF7FEFF 		bl	lv_style_init
 2733              	.LVL293:
 2734              		.loc 1 1000 1 is_stmt 0 view .LVU837
 2735 0012 FBE7     		b	.L71
 2736              	.L76:
 2737              		.align	2
 2738              	.L75:
 2739 0014 00000000 		.word	.LANCHOR3
 2740              		.cfi_endproc
 2741              	.LFE195:
 2743              		.section	.rodata.style_init.str1.4,"aMS",%progbits,1
 2744              		.align	2
 2745              	.LC0:
 2746 0000 EF808C00 		.ascii	"\357\200\214\000"
 2747              		.section	.text.style_init,"ax",%progbits
 2748              		.align	1
 2749              		.syntax unified
 2750              		.thumb
ARM GAS  C:\Users\gx\AppData\Local\Temp\ccQfGIQ4.s 			page 89


 2751              		.thumb_func
 2752              		.fpu fpv4-sp-d16
 2754              	style_init:
 2755              	.LFB191:
 200:lvgl/lvgl/src/extra/themes/default/lv_theme_default.c ****     static const lv_style_prop_t trans_props[] = {
 2756              		.loc 1 200 1 is_stmt 1 view -0
 2757              		.cfi_startproc
 2758              		@ args = 0, pretend = 0, frame = 0
 2759              		@ frame_needed = 0, uses_anonymous_args = 0
 2760 0000 2DE9F041 		push	{r4, r5, r6, r7, r8, lr}
 2761              	.LCFI4:
 2762              		.cfi_def_cfa_offset 24
 2763              		.cfi_offset 4, -24
 2764              		.cfi_offset 5, -20
 2765              		.cfi_offset 6, -16
 2766              		.cfi_offset 7, -12
 2767              		.cfi_offset 8, -8
 2768              		.cfi_offset 14, -4
 2769 0004 82B0     		sub	sp, sp, #8
 2770              	.LCFI5:
 2771              		.cfi_def_cfa_offset 32
 201:lvgl/lvgl/src/extra/themes/default/lv_theme_default.c ****             LV_STYLE_BG_OPA, LV_STYLE_BG_COLOR,
 2772              		.loc 1 201 5 view .LVU839
 210:lvgl/lvgl/src/extra/themes/default/lv_theme_default.c ****     color_text = theme.flags & MODE_DARK ? DARK_COLOR_TEXT : LIGHT_COLOR_TEXT;
 2773              		.loc 1 210 5 view .LVU840
 210:lvgl/lvgl/src/extra/themes/default/lv_theme_default.c ****     color_text = theme.flags & MODE_DARK ? DARK_COLOR_TEXT : LIGHT_COLOR_TEXT;
 2774              		.loc 1 210 22 is_stmt 0 view .LVU841
 2775 0006 CB4B     		ldr	r3, .L570
 2776 0008 1B6A     		ldr	r3, [r3, #32]
 210:lvgl/lvgl/src/extra/themes/default/lv_theme_default.c ****     color_text = theme.flags & MODE_DARK ? DARK_COLOR_TEXT : LIGHT_COLOR_TEXT;
 2777              		.loc 1 210 15 view .LVU842
 2778 000a 13F0010F 		tst	r3, #1
 2779 000e 01F07882 		beq	.L78
 2780              	.LVL294:
 2781              	.LBB405:
 2782              	.LBI405:
 485:d:\practise\f407_disc\lvgl\lvgl\src\misc\lv_color.h **** }
 486:d:\practise\f407_disc\lvgl\lvgl\src\misc\lv_color.h **** 
 487:d:\practise\f407_disc\lvgl\lvgl\src\misc\lv_color.h **** LV_ATTRIBUTE_FAST_MEM static inline void lv_color_premult(lv_color_t c, uint8_t mix, uint16_t * out
 488:d:\practise\f407_disc\lvgl\lvgl\src\misc\lv_color.h **** {
 489:d:\practise\f407_disc\lvgl\lvgl\src\misc\lv_color.h **** #if LV_COLOR_DEPTH != 1
 490:d:\practise\f407_disc\lvgl\lvgl\src\misc\lv_color.h ****     out[0] = (uint16_t) LV_COLOR_GET_R(c) * mix;
 491:d:\practise\f407_disc\lvgl\lvgl\src\misc\lv_color.h ****     out[1] = (uint16_t) LV_COLOR_GET_G(c) * mix;
 492:d:\practise\f407_disc\lvgl\lvgl\src\misc\lv_color.h ****     out[2] = (uint16_t) LV_COLOR_GET_B(c) * mix;
 493:d:\practise\f407_disc\lvgl\lvgl\src\misc\lv_color.h **** #else
 494:d:\practise\f407_disc\lvgl\lvgl\src\misc\lv_color.h ****     (void) mix;
 495:d:\practise\f407_disc\lvgl\lvgl\src\misc\lv_color.h ****     /*Pre-multiplication can't be used with 1 bpp*/
 496:d:\practise\f407_disc\lvgl\lvgl\src\misc\lv_color.h ****     out[0] = LV_COLOR_GET_R(c);
 497:d:\practise\f407_disc\lvgl\lvgl\src\misc\lv_color.h ****     out[1] = LV_COLOR_GET_G(c);
 498:d:\practise\f407_disc\lvgl\lvgl\src\misc\lv_color.h ****     out[2] = LV_COLOR_GET_B(c);
 499:d:\practise\f407_disc\lvgl\lvgl\src\misc\lv_color.h **** #endif
 500:d:\practise\f407_disc\lvgl\lvgl\src\misc\lv_color.h **** 
 501:d:\practise\f407_disc\lvgl\lvgl\src\misc\lv_color.h **** }
 502:d:\practise\f407_disc\lvgl\lvgl\src\misc\lv_color.h **** 
 503:d:\practise\f407_disc\lvgl\lvgl\src\misc\lv_color.h **** /**
 504:d:\practise\f407_disc\lvgl\lvgl\src\misc\lv_color.h ****  * Mix two colors with a given ratio. It runs faster then `lv_color_mix` but requires some pre comp
 505:d:\practise\f407_disc\lvgl\lvgl\src\misc\lv_color.h ****  * @param premult_c1 The first color. Should be preprocessed with `lv_color_premult(c1)`
ARM GAS  C:\Users\gx\AppData\Local\Temp\ccQfGIQ4.s 			page 90


 506:d:\practise\f407_disc\lvgl\lvgl\src\misc\lv_color.h ****  * @param c2 The second color. As it is no pre computation required on it
 507:d:\practise\f407_disc\lvgl\lvgl\src\misc\lv_color.h ****  * @param mix The ratio of the colors. 0: full `c1`, 255: full `c2`, 127: half `c1` and half `c2`.
 508:d:\practise\f407_disc\lvgl\lvgl\src\misc\lv_color.h ****  *            Should be modified like mix = `255 - mix`
 509:d:\practise\f407_disc\lvgl\lvgl\src\misc\lv_color.h ****  * @return the mixed color
 510:d:\practise\f407_disc\lvgl\lvgl\src\misc\lv_color.h ****  * @note 255 won't give clearly `c1`.
 511:d:\practise\f407_disc\lvgl\lvgl\src\misc\lv_color.h ****  */
 512:d:\practise\f407_disc\lvgl\lvgl\src\misc\lv_color.h **** LV_ATTRIBUTE_FAST_MEM static inline lv_color_t lv_color_mix_premult(uint16_t * premult_c1, lv_color
 513:d:\practise\f407_disc\lvgl\lvgl\src\misc\lv_color.h **** {
 514:d:\practise\f407_disc\lvgl\lvgl\src\misc\lv_color.h ****     lv_color_t ret;
 515:d:\practise\f407_disc\lvgl\lvgl\src\misc\lv_color.h **** #if LV_COLOR_DEPTH == 16 && LV_COLOR_16_SWAP == 0
 516:d:\practise\f407_disc\lvgl\lvgl\src\misc\lv_color.h ****     /*For compatibility with lv_color_mix on 16 bit color depth*/
 517:d:\practise\f407_disc\lvgl\lvgl\src\misc\lv_color.h ****     LV_COLOR_SET_R(ret, (premult_c1[0] + LV_COLOR_GET_R(c2) * mix) >> 8);
 518:d:\practise\f407_disc\lvgl\lvgl\src\misc\lv_color.h ****     LV_COLOR_SET_G(ret, (premult_c1[1] + LV_COLOR_GET_G(c2) * mix) >> 8);
 519:d:\practise\f407_disc\lvgl\lvgl\src\misc\lv_color.h ****     LV_COLOR_SET_B(ret, (premult_c1[2] + LV_COLOR_GET_B(c2) * mix) >> 8);
 520:d:\practise\f407_disc\lvgl\lvgl\src\misc\lv_color.h **** #elif LV_COLOR_DEPTH != 1
 521:d:\practise\f407_disc\lvgl\lvgl\src\misc\lv_color.h ****     /*LV_COLOR_DEPTH == 8 or 32*/
 522:d:\practise\f407_disc\lvgl\lvgl\src\misc\lv_color.h ****     LV_COLOR_SET_R(ret, LV_UDIV255(premult_c1[0] + LV_COLOR_GET_R(c2) * mix + LV_COLOR_MIX_ROUND_OF
 523:d:\practise\f407_disc\lvgl\lvgl\src\misc\lv_color.h ****     LV_COLOR_SET_G(ret, LV_UDIV255(premult_c1[1] + LV_COLOR_GET_G(c2) * mix + LV_COLOR_MIX_ROUND_OF
 524:d:\practise\f407_disc\lvgl\lvgl\src\misc\lv_color.h ****     LV_COLOR_SET_B(ret, LV_UDIV255(premult_c1[2] + LV_COLOR_GET_B(c2) * mix + LV_COLOR_MIX_ROUND_OF
 525:d:\practise\f407_disc\lvgl\lvgl\src\misc\lv_color.h ****     LV_COLOR_SET_A(ret, 0xFF);
 526:d:\practise\f407_disc\lvgl\lvgl\src\misc\lv_color.h **** #else
 527:d:\practise\f407_disc\lvgl\lvgl\src\misc\lv_color.h ****     /*LV_COLOR_DEPTH == 1*/
 528:d:\practise\f407_disc\lvgl\lvgl\src\misc\lv_color.h ****     /*Restore color1*/
 529:d:\practise\f407_disc\lvgl\lvgl\src\misc\lv_color.h ****     lv_color_t c1;
 530:d:\practise\f407_disc\lvgl\lvgl\src\misc\lv_color.h ****     LV_COLOR_SET_R(c1, premult_c1[0]);
 531:d:\practise\f407_disc\lvgl\lvgl\src\misc\lv_color.h ****     LV_COLOR_SET_G(c1, premult_c1[1]);
 532:d:\practise\f407_disc\lvgl\lvgl\src\misc\lv_color.h ****     LV_COLOR_SET_B(c1, premult_c1[2]);
 533:d:\practise\f407_disc\lvgl\lvgl\src\misc\lv_color.h ****     ret.full = mix > LV_OPA_50 ? c2.full : c1.full;
 534:d:\practise\f407_disc\lvgl\lvgl\src\misc\lv_color.h **** #endif
 535:d:\practise\f407_disc\lvgl\lvgl\src\misc\lv_color.h **** 
 536:d:\practise\f407_disc\lvgl\lvgl\src\misc\lv_color.h ****     return ret;
 537:d:\practise\f407_disc\lvgl\lvgl\src\misc\lv_color.h **** }
 538:d:\practise\f407_disc\lvgl\lvgl\src\misc\lv_color.h **** 
 539:d:\practise\f407_disc\lvgl\lvgl\src\misc\lv_color.h **** /**
 540:d:\practise\f407_disc\lvgl\lvgl\src\misc\lv_color.h ****  * Mix two colors. Both color can have alpha value.
 541:d:\practise\f407_disc\lvgl\lvgl\src\misc\lv_color.h ****  * @param bg_color background color
 542:d:\practise\f407_disc\lvgl\lvgl\src\misc\lv_color.h ****  * @param bg_opa alpha of the background color
 543:d:\practise\f407_disc\lvgl\lvgl\src\misc\lv_color.h ****  * @param fg_color foreground color
 544:d:\practise\f407_disc\lvgl\lvgl\src\misc\lv_color.h ****  * @param fg_opa alpha of the foreground color
 545:d:\practise\f407_disc\lvgl\lvgl\src\misc\lv_color.h ****  * @param res_color the result color
 546:d:\practise\f407_disc\lvgl\lvgl\src\misc\lv_color.h ****  * @param res_opa the result opacity
 547:d:\practise\f407_disc\lvgl\lvgl\src\misc\lv_color.h ****  */
 548:d:\practise\f407_disc\lvgl\lvgl\src\misc\lv_color.h **** LV_ATTRIBUTE_FAST_MEM static inline void lv_color_mix_with_alpha(lv_color_t bg_color, lv_opa_t bg_o
 549:d:\practise\f407_disc\lvgl\lvgl\src\misc\lv_color.h ****                                                                  lv_color_t fg_color, lv_opa_t fg_o
 550:d:\practise\f407_disc\lvgl\lvgl\src\misc\lv_color.h ****                                                                  lv_color_t * res_color, lv_opa_t *
 551:d:\practise\f407_disc\lvgl\lvgl\src\misc\lv_color.h **** {
 552:d:\practise\f407_disc\lvgl\lvgl\src\misc\lv_color.h ****     /*Pick the foreground if it's fully opaque or the Background is fully transparent*/
 553:d:\practise\f407_disc\lvgl\lvgl\src\misc\lv_color.h ****     if(fg_opa >= LV_OPA_MAX || bg_opa <= LV_OPA_MIN) {
 554:d:\practise\f407_disc\lvgl\lvgl\src\misc\lv_color.h ****         res_color->full = fg_color.full;
 555:d:\practise\f407_disc\lvgl\lvgl\src\misc\lv_color.h ****         *res_opa = fg_opa;
 556:d:\practise\f407_disc\lvgl\lvgl\src\misc\lv_color.h ****     }
 557:d:\practise\f407_disc\lvgl\lvgl\src\misc\lv_color.h ****     /*Transparent foreground: use the Background*/
 558:d:\practise\f407_disc\lvgl\lvgl\src\misc\lv_color.h ****     else if(fg_opa <= LV_OPA_MIN) {
 559:d:\practise\f407_disc\lvgl\lvgl\src\misc\lv_color.h ****         res_color->full = bg_color.full;
 560:d:\practise\f407_disc\lvgl\lvgl\src\misc\lv_color.h ****         *res_opa = bg_opa;
 561:d:\practise\f407_disc\lvgl\lvgl\src\misc\lv_color.h ****     }
 562:d:\practise\f407_disc\lvgl\lvgl\src\misc\lv_color.h ****     /*Opaque background: use simple mix*/
ARM GAS  C:\Users\gx\AppData\Local\Temp\ccQfGIQ4.s 			page 91


 563:d:\practise\f407_disc\lvgl\lvgl\src\misc\lv_color.h ****     else if(bg_opa >= LV_OPA_MAX) {
 564:d:\practise\f407_disc\lvgl\lvgl\src\misc\lv_color.h ****         *res_color = lv_color_mix(fg_color, bg_color, fg_opa);
 565:d:\practise\f407_disc\lvgl\lvgl\src\misc\lv_color.h ****         *res_opa = LV_OPA_COVER;
 566:d:\practise\f407_disc\lvgl\lvgl\src\misc\lv_color.h ****     }
 567:d:\practise\f407_disc\lvgl\lvgl\src\misc\lv_color.h ****     /*Both colors have alpha. Expensive calculation need to be applied*/
 568:d:\practise\f407_disc\lvgl\lvgl\src\misc\lv_color.h ****     else {
 569:d:\practise\f407_disc\lvgl\lvgl\src\misc\lv_color.h ****         /*Save the parameters and the result. If they will be asked again don't compute again*/
 570:d:\practise\f407_disc\lvgl\lvgl\src\misc\lv_color.h ****         static lv_opa_t fg_opa_save     = 0;
 571:d:\practise\f407_disc\lvgl\lvgl\src\misc\lv_color.h ****         static lv_opa_t bg_opa_save     = 0;
 572:d:\practise\f407_disc\lvgl\lvgl\src\misc\lv_color.h ****         static lv_color_t fg_color_save = _LV_COLOR_ZERO_INITIALIZER;
 573:d:\practise\f407_disc\lvgl\lvgl\src\misc\lv_color.h ****         static lv_color_t bg_color_save = _LV_COLOR_ZERO_INITIALIZER;
 574:d:\practise\f407_disc\lvgl\lvgl\src\misc\lv_color.h ****         static lv_color_t res_color_saved = _LV_COLOR_ZERO_INITIALIZER;
 575:d:\practise\f407_disc\lvgl\lvgl\src\misc\lv_color.h ****         static lv_opa_t res_opa_saved = 0;
 576:d:\practise\f407_disc\lvgl\lvgl\src\misc\lv_color.h **** 
 577:d:\practise\f407_disc\lvgl\lvgl\src\misc\lv_color.h ****         if(fg_opa != fg_opa_save || bg_opa != bg_opa_save || fg_color.full != fg_color_save.full ||
 578:d:\practise\f407_disc\lvgl\lvgl\src\misc\lv_color.h ****            bg_color.full != bg_color_save.full) {
 579:d:\practise\f407_disc\lvgl\lvgl\src\misc\lv_color.h ****             fg_opa_save        = fg_opa;
 580:d:\practise\f407_disc\lvgl\lvgl\src\misc\lv_color.h ****             bg_opa_save        = bg_opa;
 581:d:\practise\f407_disc\lvgl\lvgl\src\misc\lv_color.h ****             fg_color_save.full = fg_color.full;
 582:d:\practise\f407_disc\lvgl\lvgl\src\misc\lv_color.h ****             bg_color_save.full = bg_color.full;
 583:d:\practise\f407_disc\lvgl\lvgl\src\misc\lv_color.h ****             /*Info:
 584:d:\practise\f407_disc\lvgl\lvgl\src\misc\lv_color.h ****              * https://en.wikipedia.org/wiki/Alpha_compositing#Analytical_derivation_of_the_over_op
 585:d:\practise\f407_disc\lvgl\lvgl\src\misc\lv_color.h ****             res_opa_saved = 255 - ((uint16_t)((uint16_t)(255 - fg_opa) * (255 - bg_opa)) >> 8);
 586:d:\practise\f407_disc\lvgl\lvgl\src\misc\lv_color.h ****             if(res_opa_saved == 0) {
 587:d:\practise\f407_disc\lvgl\lvgl\src\misc\lv_color.h ****                 while(1)
 588:d:\practise\f407_disc\lvgl\lvgl\src\misc\lv_color.h ****                     ;
 589:d:\practise\f407_disc\lvgl\lvgl\src\misc\lv_color.h ****             }
 590:d:\practise\f407_disc\lvgl\lvgl\src\misc\lv_color.h ****             lv_opa_t ratio = (uint16_t)((uint16_t)fg_opa * 255) / res_opa_saved;
 591:d:\practise\f407_disc\lvgl\lvgl\src\misc\lv_color.h ****             res_color_saved = lv_color_mix(fg_color, bg_color, ratio);
 592:d:\practise\f407_disc\lvgl\lvgl\src\misc\lv_color.h **** 
 593:d:\practise\f407_disc\lvgl\lvgl\src\misc\lv_color.h ****         }
 594:d:\practise\f407_disc\lvgl\lvgl\src\misc\lv_color.h **** 
 595:d:\practise\f407_disc\lvgl\lvgl\src\misc\lv_color.h ****         res_color->full = res_color_saved.full;
 596:d:\practise\f407_disc\lvgl\lvgl\src\misc\lv_color.h ****         *res_opa = res_opa_saved;
 597:d:\practise\f407_disc\lvgl\lvgl\src\misc\lv_color.h ****     }
 598:d:\practise\f407_disc\lvgl\lvgl\src\misc\lv_color.h **** }
 599:d:\practise\f407_disc\lvgl\lvgl\src\misc\lv_color.h **** 
 600:d:\practise\f407_disc\lvgl\lvgl\src\misc\lv_color.h **** //! @endcond
 601:d:\practise\f407_disc\lvgl\lvgl\src\misc\lv_color.h **** 
 602:d:\practise\f407_disc\lvgl\lvgl\src\misc\lv_color.h **** /**
 603:d:\practise\f407_disc\lvgl\lvgl\src\misc\lv_color.h ****  * Get the brightness of a color
 604:d:\practise\f407_disc\lvgl\lvgl\src\misc\lv_color.h ****  * @param color a color
 605:d:\practise\f407_disc\lvgl\lvgl\src\misc\lv_color.h ****  * @return the brightness [0..255]
 606:d:\practise\f407_disc\lvgl\lvgl\src\misc\lv_color.h ****  */
 607:d:\practise\f407_disc\lvgl\lvgl\src\misc\lv_color.h **** static inline uint8_t lv_color_brightness(lv_color_t color)
 608:d:\practise\f407_disc\lvgl\lvgl\src\misc\lv_color.h **** {
 609:d:\practise\f407_disc\lvgl\lvgl\src\misc\lv_color.h ****     lv_color32_t c32;
 610:d:\practise\f407_disc\lvgl\lvgl\src\misc\lv_color.h ****     c32.full        = lv_color_to32(color);
 611:d:\practise\f407_disc\lvgl\lvgl\src\misc\lv_color.h ****     uint16_t bright = (uint16_t)(3u * LV_COLOR_GET_R32(c32) + LV_COLOR_GET_B32(c32) + 4u * LV_COLOR
 612:d:\practise\f407_disc\lvgl\lvgl\src\misc\lv_color.h ****     return (uint8_t)(bright >> 3);
 613:d:\practise\f407_disc\lvgl\lvgl\src\misc\lv_color.h **** }
 614:d:\practise\f407_disc\lvgl\lvgl\src\misc\lv_color.h **** 
 615:d:\practise\f407_disc\lvgl\lvgl\src\misc\lv_color.h **** static inline lv_color_t lv_color_make(uint8_t r, uint8_t g, uint8_t b)
 616:d:\practise\f407_disc\lvgl\lvgl\src\misc\lv_color.h **** {
 617:d:\practise\f407_disc\lvgl\lvgl\src\misc\lv_color.h ****     return _LV_COLOR_MAKE_TYPE_HELPER LV_COLOR_MAKE(r, g, b);
 618:d:\practise\f407_disc\lvgl\lvgl\src\misc\lv_color.h **** }
 619:d:\practise\f407_disc\lvgl\lvgl\src\misc\lv_color.h **** 
ARM GAS  C:\Users\gx\AppData\Local\Temp\ccQfGIQ4.s 			page 92


 620:d:\practise\f407_disc\lvgl\lvgl\src\misc\lv_color.h **** static inline lv_color_t lv_color_hex(uint32_t c)
 2783              		.loc 2 620 26 is_stmt 1 view .LVU843
 2784              	.LBE405:
 621:d:\practise\f407_disc\lvgl\lvgl\src\misc\lv_color.h **** {
 622:d:\practise\f407_disc\lvgl\lvgl\src\misc\lv_color.h ****     return lv_color_make((uint8_t)((c >> 16) & 0xFF), (uint8_t)((c >> 8) & 0xFF), (uint8_t)(c & 0xF
 2785              		.loc 2 622 5 view .LVU844
 2786              	.LBB408:
 2787              	.LBB406:
 2788              	.LBI406:
 615:d:\practise\f407_disc\lvgl\lvgl\src\misc\lv_color.h **** {
 2789              		.loc 2 615 26 view .LVU845
 2790              	.LBB407:
 617:d:\practise\f407_disc\lvgl\lvgl\src\misc\lv_color.h **** }
 2791              		.loc 2 617 5 view .LVU846
 617:d:\practise\f407_disc\lvgl\lvgl\src\misc\lv_color.h **** }
 2792              		.loc 2 617 12 is_stmt 0 view .LVU847
 2793 0012 4FF00003 		mov	r3, #0	@ movhi
 2794 0016 0322     		movs	r2, #3
 2795 0018 62F30403 		bfi	r3, r2, #0, #5
 2796 001c 0522     		movs	r2, #5
 2797 001e 62F34A13 		bfi	r3, r2, #5, #6
 2798 0022 0222     		movs	r2, #2
 2799 0024 62F3CF23 		bfi	r3, r2, #11, #5
 2800              	.LVL295:
 617:d:\practise\f407_disc\lvgl\lvgl\src\misc\lv_color.h **** }
 2801              		.loc 2 617 12 view .LVU848
 2802              	.LBE407:
 2803              	.LBE406:
 2804              	.LBE408:
 210:lvgl/lvgl/src/extra/themes/default/lv_theme_default.c ****     color_text = theme.flags & MODE_DARK ? DARK_COLOR_TEXT : LIGHT_COLOR_TEXT;
 2805              		.loc 1 210 43 view .LVU849
 2806 0028 C34A     		ldr	r2, .L570+4
 2807 002a 1380     		strh	r3, [r2]	@ movhi
 2808              	.L79:
 211:lvgl/lvgl/src/extra/themes/default/lv_theme_default.c ****     color_card = theme.flags & MODE_DARK ? DARK_COLOR_CARD : LIGHT_COLOR_CARD;
 2809              		.loc 1 211 5 is_stmt 1 view .LVU850
 211:lvgl/lvgl/src/extra/themes/default/lv_theme_default.c ****     color_card = theme.flags & MODE_DARK ? DARK_COLOR_CARD : LIGHT_COLOR_CARD;
 2810              		.loc 1 211 23 is_stmt 0 view .LVU851
 2811 002c C14B     		ldr	r3, .L570
 2812 002e 1B6A     		ldr	r3, [r3, #32]
 211:lvgl/lvgl/src/extra/themes/default/lv_theme_default.c ****     color_card = theme.flags & MODE_DARK ? DARK_COLOR_CARD : LIGHT_COLOR_CARD;
 2813              		.loc 1 211 16 view .LVU852
 2814 0030 13F0010F 		tst	r3, #1
 2815 0034 01F06D82 		beq	.L80
 211:lvgl/lvgl/src/extra/themes/default/lv_theme_default.c ****     color_card = theme.flags & MODE_DARK ? DARK_COLOR_CARD : LIGHT_COLOR_CARD;
 2816              		.loc 1 211 44 discriminator 1 view .LVU853
 2817 0038 0521     		movs	r1, #5
 2818 003a 1220     		movs	r0, #18
 2819 003c FFF7FEFF 		bl	lv_palette_lighten
 2820              	.LVL296:
 2821 0040 BE4B     		ldr	r3, .L570+8
 2822 0042 1880     		strh	r0, [r3]	@ movhi
 2823              	.L81:
 212:lvgl/lvgl/src/extra/themes/default/lv_theme_default.c ****     color_grey = theme.flags & MODE_DARK ? DARK_COLOR_GREY : LIGHT_COLOR_GREY;
 2824              		.loc 1 212 5 is_stmt 1 view .LVU854
 212:lvgl/lvgl/src/extra/themes/default/lv_theme_default.c ****     color_grey = theme.flags & MODE_DARK ? DARK_COLOR_GREY : LIGHT_COLOR_GREY;
 2825              		.loc 1 212 23 is_stmt 0 view .LVU855
ARM GAS  C:\Users\gx\AppData\Local\Temp\ccQfGIQ4.s 			page 93


 2826 0044 BB4B     		ldr	r3, .L570
 2827 0046 1B6A     		ldr	r3, [r3, #32]
 212:lvgl/lvgl/src/extra/themes/default/lv_theme_default.c ****     color_grey = theme.flags & MODE_DARK ? DARK_COLOR_GREY : LIGHT_COLOR_GREY;
 2828              		.loc 1 212 16 view .LVU856
 2829 0048 13F00103 		ands	r3, r3, #1
 2830 004c 01F06982 		beq	.L82
 2831              	.LVL297:
 2832              	.LBB409:
 2833              	.LBI409:
 620:d:\practise\f407_disc\lvgl\lvgl\src\misc\lv_color.h **** {
 2834              		.loc 2 620 26 is_stmt 1 view .LVU857
 2835              	.LBE409:
 2836              		.loc 2 622 5 view .LVU858
 2837              	.LBB412:
 2838              	.LBB410:
 2839              	.LBI410:
 615:d:\practise\f407_disc\lvgl\lvgl\src\misc\lv_color.h **** {
 2840              		.loc 2 615 26 view .LVU859
 2841              	.LBB411:
 617:d:\practise\f407_disc\lvgl\lvgl\src\misc\lv_color.h **** }
 2842              		.loc 2 617 5 view .LVU860
 617:d:\practise\f407_disc\lvgl\lvgl\src\misc\lv_color.h **** }
 2843              		.loc 2 617 12 is_stmt 0 view .LVU861
 2844 0050 4FF00002 		mov	r2, #0	@ movhi
 2845 0054 0621     		movs	r1, #6
 2846 0056 61F30402 		bfi	r2, r1, #0, #5
 2847 005a 0A21     		movs	r1, #10
 2848 005c 61F34A12 		bfi	r2, r1, #5, #6
 2849 0060 0521     		movs	r1, #5
 2850 0062 61F3CF22 		bfi	r2, r1, #11, #5
 2851              	.LVL298:
 617:d:\practise\f407_disc\lvgl\lvgl\src\misc\lv_color.h **** }
 2852              		.loc 2 617 12 view .LVU862
 2853              	.LBE411:
 2854              	.LBE410:
 2855              	.LBE412:
 212:lvgl/lvgl/src/extra/themes/default/lv_theme_default.c ****     color_grey = theme.flags & MODE_DARK ? DARK_COLOR_GREY : LIGHT_COLOR_GREY;
 2856              		.loc 1 212 44 view .LVU863
 2857 0066 B649     		ldr	r1, .L570+12
 2858 0068 0A80     		strh	r2, [r1]	@ movhi
 2859              	.L83:
 213:lvgl/lvgl/src/extra/themes/default/lv_theme_default.c **** 
 2860              		.loc 1 213 5 is_stmt 1 view .LVU864
 213:lvgl/lvgl/src/extra/themes/default/lv_theme_default.c **** 
 2861              		.loc 1 213 16 is_stmt 0 view .LVU865
 2862 006a 002B     		cmp	r3, #0
 2863 006c 01F05F82 		beq	.L84
 2864              	.LVL299:
 2865              	.LBB413:
 2866              	.LBI413:
 620:d:\practise\f407_disc\lvgl\lvgl\src\misc\lv_color.h **** {
 2867              		.loc 2 620 26 is_stmt 1 view .LVU866
 2868              	.LBE413:
 2869              		.loc 2 622 5 view .LVU867
 2870              	.LBB416:
 2871              	.LBB414:
 2872              	.LBI414:
ARM GAS  C:\Users\gx\AppData\Local\Temp\ccQfGIQ4.s 			page 94


 615:d:\practise\f407_disc\lvgl\lvgl\src\misc\lv_color.h **** {
 2873              		.loc 2 615 26 view .LVU868
 2874              	.LBB415:
 617:d:\practise\f407_disc\lvgl\lvgl\src\misc\lv_color.h **** }
 2875              		.loc 2 617 5 view .LVU869
 617:d:\practise\f407_disc\lvgl\lvgl\src\misc\lv_color.h **** }
 2876              		.loc 2 617 12 is_stmt 0 view .LVU870
 2877 0070 4FF00003 		mov	r3, #0	@ movhi
 2878 0074 0622     		movs	r2, #6
 2879 0076 62F30403 		bfi	r3, r2, #0, #5
 2880 007a 0C22     		movs	r2, #12
 2881 007c 62F34A13 		bfi	r3, r2, #5, #6
 2882 0080 0522     		movs	r2, #5
 2883 0082 62F3CF23 		bfi	r3, r2, #11, #5
 2884              	.LVL300:
 617:d:\practise\f407_disc\lvgl\lvgl\src\misc\lv_color.h **** }
 2885              		.loc 2 617 12 view .LVU871
 2886              	.LBE415:
 2887              	.LBE414:
 2888              	.LBE416:
 213:lvgl/lvgl/src/extra/themes/default/lv_theme_default.c **** 
 2889              		.loc 1 213 44 view .LVU872
 2890 0086 AF4A     		ldr	r2, .L570+16
 2891 0088 1380     		strh	r3, [r2]	@ movhi
 2892              	.L85:
 215:lvgl/lvgl/src/extra/themes/default/lv_theme_default.c ****     lv_style_transition_dsc_init(&trans_delayed, trans_props, lv_anim_path_linear, TRANSITION_TIME,
 2893              		.loc 1 215 5 is_stmt 1 view .LVU873
 216:lvgl/lvgl/src/extra/themes/default/lv_theme_default.c **** 
 2894              		.loc 1 216 5 view .LVU874
 2895 008a DFF8D082 		ldr	r8, .L570+40
 2896 008e AE4F     		ldr	r7, .L570+20
 2897 0090 AE4E     		ldr	r6, .L570+24
 2898 0092 0024     		movs	r4, #0
 2899 0094 0194     		str	r4, [sp, #4]
 2900 0096 4623     		movs	r3, #70
 2901 0098 0093     		str	r3, [sp]
 2902 009a 5023     		movs	r3, #80
 2903 009c 4246     		mov	r2, r8
 2904 009e 3946     		mov	r1, r7
 2905 00a0 3046     		mov	r0, r6
 2906 00a2 FFF7FEFF 		bl	lv_style_transition_dsc_init
 2907              	.LVL301:
 218:lvgl/lvgl/src/extra/themes/default/lv_theme_default.c ****     lv_style_transition_dsc_init(&trans_normal, trans_props, lv_anim_path_linear, TRANSITION_TIME, 
 2908              		.loc 1 218 5 view .LVU875
 219:lvgl/lvgl/src/extra/themes/default/lv_theme_default.c **** 
 2909              		.loc 1 219 5 view .LVU876
 2910 00a6 AA4D     		ldr	r5, .L570+28
 2911 00a8 0194     		str	r4, [sp, #4]
 2912 00aa 0094     		str	r4, [sp]
 2913 00ac 5023     		movs	r3, #80
 2914 00ae 4246     		mov	r2, r8
 2915 00b0 3946     		mov	r1, r7
 2916 00b2 2846     		mov	r0, r5
 2917 00b4 FFF7FEFF 		bl	lv_style_transition_dsc_init
 2918              	.LVL302:
 221:lvgl/lvgl/src/extra/themes/default/lv_theme_default.c ****     lv_style_set_transition(&styles->transition_delayed, &trans_delayed); /*Go back to default stat
 2919              		.loc 1 221 5 view .LVU877
ARM GAS  C:\Users\gx\AppData\Local\Temp\ccQfGIQ4.s 			page 95


 221:lvgl/lvgl/src/extra/themes/default/lv_theme_default.c ****     lv_style_set_transition(&styles->transition_delayed, &trans_delayed); /*Go back to default stat
 2920              		.loc 1 221 29 is_stmt 0 view .LVU878
 2921 00b8 A64C     		ldr	r4, .L570+32
 2922 00ba 2068     		ldr	r0, [r4]
 221:lvgl/lvgl/src/extra/themes/default/lv_theme_default.c ****     lv_style_set_transition(&styles->transition_delayed, &trans_delayed); /*Go back to default stat
 2923              		.loc 1 221 5 view .LVU879
 2924 00bc D030     		adds	r0, r0, #208
 2925 00be FFF7FEFF 		bl	style_init_reset
 2926              	.LVL303:
 222:lvgl/lvgl/src/extra/themes/default/lv_theme_default.c **** 
 2927              		.loc 1 222 5 is_stmt 1 view .LVU880
 222:lvgl/lvgl/src/extra/themes/default/lv_theme_default.c **** 
 2928              		.loc 1 222 36 is_stmt 0 view .LVU881
 2929 00c2 2068     		ldr	r0, [r4]
 222:lvgl/lvgl/src/extra/themes/default/lv_theme_default.c **** 
 2930              		.loc 1 222 5 view .LVU882
 2931 00c4 3146     		mov	r1, r6
 2932 00c6 D030     		adds	r0, r0, #208
 2933 00c8 FFF7FEFF 		bl	lv_style_set_transition
 2934              	.LVL304:
 224:lvgl/lvgl/src/extra/themes/default/lv_theme_default.c ****     lv_style_set_transition(&styles->transition_normal, &trans_normal); /*Go back to default state 
 2935              		.loc 1 224 5 is_stmt 1 view .LVU883
 224:lvgl/lvgl/src/extra/themes/default/lv_theme_default.c ****     lv_style_set_transition(&styles->transition_normal, &trans_normal); /*Go back to default state 
 2936              		.loc 1 224 29 is_stmt 0 view .LVU884
 2937 00cc 2068     		ldr	r0, [r4]
 224:lvgl/lvgl/src/extra/themes/default/lv_theme_default.c ****     lv_style_set_transition(&styles->transition_normal, &trans_normal); /*Go back to default state 
 2938              		.loc 1 224 5 view .LVU885
 2939 00ce D830     		adds	r0, r0, #216
 2940 00d0 FFF7FEFF 		bl	style_init_reset
 2941              	.LVL305:
 225:lvgl/lvgl/src/extra/themes/default/lv_theme_default.c **** 
 2942              		.loc 1 225 5 is_stmt 1 view .LVU886
 225:lvgl/lvgl/src/extra/themes/default/lv_theme_default.c **** 
 2943              		.loc 1 225 36 is_stmt 0 view .LVU887
 2944 00d4 2068     		ldr	r0, [r4]
 225:lvgl/lvgl/src/extra/themes/default/lv_theme_default.c **** 
 2945              		.loc 1 225 5 view .LVU888
 2946 00d6 2946     		mov	r1, r5
 2947 00d8 D830     		adds	r0, r0, #216
 2948 00da FFF7FEFF 		bl	lv_style_set_transition
 2949              	.LVL306:
 227:lvgl/lvgl/src/extra/themes/default/lv_theme_default.c ****     lv_style_set_bg_color(&styles->scrollbar, (theme.flags & MODE_DARK) ? lv_palette_darken(LV_PALE
 2950              		.loc 1 227 5 is_stmt 1 view .LVU889
 227:lvgl/lvgl/src/extra/themes/default/lv_theme_default.c ****     lv_style_set_bg_color(&styles->scrollbar, (theme.flags & MODE_DARK) ? lv_palette_darken(LV_PALE
 2951              		.loc 1 227 29 is_stmt 0 view .LVU890
 2952 00de 2068     		ldr	r0, [r4]
 227:lvgl/lvgl/src/extra/themes/default/lv_theme_default.c ****     lv_style_set_bg_color(&styles->scrollbar, (theme.flags & MODE_DARK) ? lv_palette_darken(LV_PALE
 2953              		.loc 1 227 5 view .LVU891
 2954 00e0 0830     		adds	r0, r0, #8
 2955 00e2 FFF7FEFF 		bl	style_init_reset
 2956              	.LVL307:
 228:lvgl/lvgl/src/extra/themes/default/lv_theme_default.c ****     lv_style_set_radius(&styles->scrollbar, LV_RADIUS_CIRCLE);
 2957              		.loc 1 228 5 is_stmt 1 view .LVU892
 228:lvgl/lvgl/src/extra/themes/default/lv_theme_default.c ****     lv_style_set_radius(&styles->scrollbar, LV_RADIUS_CIRCLE);
 2958              		.loc 1 228 34 is_stmt 0 view .LVU893
 2959 00e6 2468     		ldr	r4, [r4]
 228:lvgl/lvgl/src/extra/themes/default/lv_theme_default.c ****     lv_style_set_radius(&styles->scrollbar, LV_RADIUS_CIRCLE);
ARM GAS  C:\Users\gx\AppData\Local\Temp\ccQfGIQ4.s 			page 96


 2960              		.loc 1 228 5 view .LVU894
 2961 00e8 0834     		adds	r4, r4, #8
 228:lvgl/lvgl/src/extra/themes/default/lv_theme_default.c ****     lv_style_set_radius(&styles->scrollbar, LV_RADIUS_CIRCLE);
 2962              		.loc 1 228 53 view .LVU895
 2963 00ea 924B     		ldr	r3, .L570
 2964 00ec 1B6A     		ldr	r3, [r3, #32]
 228:lvgl/lvgl/src/extra/themes/default/lv_theme_default.c ****     lv_style_set_radius(&styles->scrollbar, LV_RADIUS_CIRCLE);
 2965              		.loc 1 228 5 view .LVU896
 2966 00ee 13F0010F 		tst	r3, #1
 2967 00f2 01F02482 		beq	.L86
 228:lvgl/lvgl/src/extra/themes/default/lv_theme_default.c ****     lv_style_set_radius(&styles->scrollbar, LV_RADIUS_CIRCLE);
 2968              		.loc 1 228 75 discriminator 1 view .LVU897
 2969 00f6 0221     		movs	r1, #2
 2970 00f8 1220     		movs	r0, #18
 2971 00fa FFF7FEFF 		bl	lv_palette_darken
 2972              	.LVL308:
 2973 00fe 0146     		mov	r1, r0	@ movhi
 2974              	.L87:
 228:lvgl/lvgl/src/extra/themes/default/lv_theme_default.c ****     lv_style_set_radius(&styles->scrollbar, LV_RADIUS_CIRCLE);
 2975              		.loc 1 228 5 discriminator 4 view .LVU898
 2976 0100 2046     		mov	r0, r4
 2977 0102 FFF7FEFF 		bl	lv_style_set_bg_color
 2978              	.LVL309:
 229:lvgl/lvgl/src/extra/themes/default/lv_theme_default.c ****     lv_style_set_pad_right(&styles->scrollbar, lv_disp_dpx(theme.disp, 7));
 2979              		.loc 1 229 5 is_stmt 1 discriminator 4 view .LVU899
 229:lvgl/lvgl/src/extra/themes/default/lv_theme_default.c ****     lv_style_set_pad_right(&styles->scrollbar, lv_disp_dpx(theme.disp, 7));
 2980              		.loc 1 229 32 is_stmt 0 discriminator 4 view .LVU900
 2981 0106 934C     		ldr	r4, .L570+32
 2982 0108 2068     		ldr	r0, [r4]
 229:lvgl/lvgl/src/extra/themes/default/lv_theme_default.c ****     lv_style_set_pad_right(&styles->scrollbar, lv_disp_dpx(theme.disp, 7));
 2983              		.loc 1 229 5 discriminator 4 view .LVU901
 2984 010a 47F6FF71 		movw	r1, #32767
 2985 010e 0830     		adds	r0, r0, #8
 2986 0110 FFF7FEFF 		bl	lv_style_set_radius
 2987              	.LVL310:
 230:lvgl/lvgl/src/extra/themes/default/lv_theme_default.c ****     lv_style_set_pad_top(&styles->scrollbar,  lv_disp_dpx(theme.disp, 7));
 2988              		.loc 1 230 5 is_stmt 1 discriminator 4 view .LVU902
 230:lvgl/lvgl/src/extra/themes/default/lv_theme_default.c ****     lv_style_set_pad_top(&styles->scrollbar,  lv_disp_dpx(theme.disp, 7));
 2989              		.loc 1 230 35 is_stmt 0 discriminator 4 view .LVU903
 2990 0114 2468     		ldr	r4, [r4]
 230:lvgl/lvgl/src/extra/themes/default/lv_theme_default.c ****     lv_style_set_pad_top(&styles->scrollbar,  lv_disp_dpx(theme.disp, 7));
 2991              		.loc 1 230 5 discriminator 4 view .LVU904
 2992 0116 0834     		adds	r4, r4, #8
 230:lvgl/lvgl/src/extra/themes/default/lv_theme_default.c ****     lv_style_set_pad_top(&styles->scrollbar,  lv_disp_dpx(theme.disp, 7));
 2993              		.loc 1 230 65 discriminator 4 view .LVU905
 2994 0118 864B     		ldr	r3, .L570
 2995 011a DD68     		ldr	r5, [r3, #12]
 2996              	.LVL311:
 2997              	.LBB417:
 2998              	.LBI417:
 2999              		.file 3 "d:\\practise\\f407_disc\\lvgl\\lvgl\\src/core/lv_disp.h"
   1:d:\practise\f407_disc\lvgl\lvgl\src/core\lv_disp.h **** /**
   2:d:\practise\f407_disc\lvgl\lvgl\src/core\lv_disp.h ****  * @file lv_disp.h
   3:d:\practise\f407_disc\lvgl\lvgl\src/core\lv_disp.h ****  *
   4:d:\practise\f407_disc\lvgl\lvgl\src/core\lv_disp.h ****  */
   5:d:\practise\f407_disc\lvgl\lvgl\src/core\lv_disp.h **** 
   6:d:\practise\f407_disc\lvgl\lvgl\src/core\lv_disp.h **** #ifndef LV_DISP_H
ARM GAS  C:\Users\gx\AppData\Local\Temp\ccQfGIQ4.s 			page 97


   7:d:\practise\f407_disc\lvgl\lvgl\src/core\lv_disp.h **** #define LV_DISP_H
   8:d:\practise\f407_disc\lvgl\lvgl\src/core\lv_disp.h **** 
   9:d:\practise\f407_disc\lvgl\lvgl\src/core\lv_disp.h **** #ifdef __cplusplus
  10:d:\practise\f407_disc\lvgl\lvgl\src/core\lv_disp.h **** extern "C" {
  11:d:\practise\f407_disc\lvgl\lvgl\src/core\lv_disp.h **** #endif
  12:d:\practise\f407_disc\lvgl\lvgl\src/core\lv_disp.h **** 
  13:d:\practise\f407_disc\lvgl\lvgl\src/core\lv_disp.h **** /*********************
  14:d:\practise\f407_disc\lvgl\lvgl\src/core\lv_disp.h ****  *      INCLUDES
  15:d:\practise\f407_disc\lvgl\lvgl\src/core\lv_disp.h ****  *********************/
  16:d:\practise\f407_disc\lvgl\lvgl\src/core\lv_disp.h **** #include "../hal/lv_hal.h"
  17:d:\practise\f407_disc\lvgl\lvgl\src/core\lv_disp.h **** #include "lv_obj.h"
  18:d:\practise\f407_disc\lvgl\lvgl\src/core\lv_disp.h **** #include "lv_theme.h"
  19:d:\practise\f407_disc\lvgl\lvgl\src/core\lv_disp.h **** 
  20:d:\practise\f407_disc\lvgl\lvgl\src/core\lv_disp.h **** /*********************
  21:d:\practise\f407_disc\lvgl\lvgl\src/core\lv_disp.h ****  *      DEFINES
  22:d:\practise\f407_disc\lvgl\lvgl\src/core\lv_disp.h ****  *********************/
  23:d:\practise\f407_disc\lvgl\lvgl\src/core\lv_disp.h **** 
  24:d:\practise\f407_disc\lvgl\lvgl\src/core\lv_disp.h **** /**********************
  25:d:\practise\f407_disc\lvgl\lvgl\src/core\lv_disp.h ****  *      TYPEDEFS
  26:d:\practise\f407_disc\lvgl\lvgl\src/core\lv_disp.h ****  **********************/
  27:d:\practise\f407_disc\lvgl\lvgl\src/core\lv_disp.h **** 
  28:d:\practise\f407_disc\lvgl\lvgl\src/core\lv_disp.h **** typedef enum {
  29:d:\practise\f407_disc\lvgl\lvgl\src/core\lv_disp.h ****     LV_SCR_LOAD_ANIM_NONE,
  30:d:\practise\f407_disc\lvgl\lvgl\src/core\lv_disp.h ****     LV_SCR_LOAD_ANIM_OVER_LEFT,
  31:d:\practise\f407_disc\lvgl\lvgl\src/core\lv_disp.h ****     LV_SCR_LOAD_ANIM_OVER_RIGHT,
  32:d:\practise\f407_disc\lvgl\lvgl\src/core\lv_disp.h ****     LV_SCR_LOAD_ANIM_OVER_TOP,
  33:d:\practise\f407_disc\lvgl\lvgl\src/core\lv_disp.h ****     LV_SCR_LOAD_ANIM_OVER_BOTTOM,
  34:d:\practise\f407_disc\lvgl\lvgl\src/core\lv_disp.h ****     LV_SCR_LOAD_ANIM_MOVE_LEFT,
  35:d:\practise\f407_disc\lvgl\lvgl\src/core\lv_disp.h ****     LV_SCR_LOAD_ANIM_MOVE_RIGHT,
  36:d:\practise\f407_disc\lvgl\lvgl\src/core\lv_disp.h ****     LV_SCR_LOAD_ANIM_MOVE_TOP,
  37:d:\practise\f407_disc\lvgl\lvgl\src/core\lv_disp.h ****     LV_SCR_LOAD_ANIM_MOVE_BOTTOM,
  38:d:\practise\f407_disc\lvgl\lvgl\src/core\lv_disp.h ****     LV_SCR_LOAD_ANIM_FADE_ON,
  39:d:\practise\f407_disc\lvgl\lvgl\src/core\lv_disp.h **** } lv_scr_load_anim_t;
  40:d:\practise\f407_disc\lvgl\lvgl\src/core\lv_disp.h **** 
  41:d:\practise\f407_disc\lvgl\lvgl\src/core\lv_disp.h **** /**********************
  42:d:\practise\f407_disc\lvgl\lvgl\src/core\lv_disp.h ****  * GLOBAL PROTOTYPES
  43:d:\practise\f407_disc\lvgl\lvgl\src/core\lv_disp.h ****  **********************/
  44:d:\practise\f407_disc\lvgl\lvgl\src/core\lv_disp.h **** 
  45:d:\practise\f407_disc\lvgl\lvgl\src/core\lv_disp.h **** /**
  46:d:\practise\f407_disc\lvgl\lvgl\src/core\lv_disp.h ****  * Return with a pointer to the active screen
  47:d:\practise\f407_disc\lvgl\lvgl\src/core\lv_disp.h ****  * @param disp pointer to display which active screen should be get. (NULL to use the default
  48:d:\practise\f407_disc\lvgl\lvgl\src/core\lv_disp.h ****  * screen)
  49:d:\practise\f407_disc\lvgl\lvgl\src/core\lv_disp.h ****  * @return pointer to the active screen object (loaded by 'lv_scr_load()')
  50:d:\practise\f407_disc\lvgl\lvgl\src/core\lv_disp.h ****  */
  51:d:\practise\f407_disc\lvgl\lvgl\src/core\lv_disp.h **** lv_obj_t * lv_disp_get_scr_act(lv_disp_t * disp);
  52:d:\practise\f407_disc\lvgl\lvgl\src/core\lv_disp.h **** 
  53:d:\practise\f407_disc\lvgl\lvgl\src/core\lv_disp.h **** /**
  54:d:\practise\f407_disc\lvgl\lvgl\src/core\lv_disp.h ****  * Return with a pointer to the previous screen. Only used during screen transitions.
  55:d:\practise\f407_disc\lvgl\lvgl\src/core\lv_disp.h ****  * @param disp pointer to display which previous screen should be get. (NULL to use the default
  56:d:\practise\f407_disc\lvgl\lvgl\src/core\lv_disp.h ****  * screen)
  57:d:\practise\f407_disc\lvgl\lvgl\src/core\lv_disp.h ****  * @return pointer to the previous screen object or NULL if not used now
  58:d:\practise\f407_disc\lvgl\lvgl\src/core\lv_disp.h ****  */
  59:d:\practise\f407_disc\lvgl\lvgl\src/core\lv_disp.h **** lv_obj_t * lv_disp_get_scr_prev(lv_disp_t * disp);
  60:d:\practise\f407_disc\lvgl\lvgl\src/core\lv_disp.h **** 
  61:d:\practise\f407_disc\lvgl\lvgl\src/core\lv_disp.h **** /**
  62:d:\practise\f407_disc\lvgl\lvgl\src/core\lv_disp.h ****  * Make a screen active
  63:d:\practise\f407_disc\lvgl\lvgl\src/core\lv_disp.h ****  * @param scr pointer to a screen
ARM GAS  C:\Users\gx\AppData\Local\Temp\ccQfGIQ4.s 			page 98


  64:d:\practise\f407_disc\lvgl\lvgl\src/core\lv_disp.h ****  */
  65:d:\practise\f407_disc\lvgl\lvgl\src/core\lv_disp.h **** void lv_disp_load_scr(lv_obj_t * scr);
  66:d:\practise\f407_disc\lvgl\lvgl\src/core\lv_disp.h **** 
  67:d:\practise\f407_disc\lvgl\lvgl\src/core\lv_disp.h **** /**
  68:d:\practise\f407_disc\lvgl\lvgl\src/core\lv_disp.h ****  * Return with the top layer. (Same on every screen and it is above the normal screen layer)
  69:d:\practise\f407_disc\lvgl\lvgl\src/core\lv_disp.h ****  * @param disp pointer to display which top layer should be get. (NULL to use the default screen)
  70:d:\practise\f407_disc\lvgl\lvgl\src/core\lv_disp.h ****  * @return pointer to the top layer object  (transparent screen sized lv_obj)
  71:d:\practise\f407_disc\lvgl\lvgl\src/core\lv_disp.h ****  */
  72:d:\practise\f407_disc\lvgl\lvgl\src/core\lv_disp.h **** lv_obj_t * lv_disp_get_layer_top(lv_disp_t * disp);
  73:d:\practise\f407_disc\lvgl\lvgl\src/core\lv_disp.h **** 
  74:d:\practise\f407_disc\lvgl\lvgl\src/core\lv_disp.h **** /**
  75:d:\practise\f407_disc\lvgl\lvgl\src/core\lv_disp.h ****  * Return with the sys. layer. (Same on every screen and it is above the normal screen and the top
  76:d:\practise\f407_disc\lvgl\lvgl\src/core\lv_disp.h ****  * layer)
  77:d:\practise\f407_disc\lvgl\lvgl\src/core\lv_disp.h ****  * @param disp pointer to display which sys. layer  should be get. (NULL to use the default screen)
  78:d:\practise\f407_disc\lvgl\lvgl\src/core\lv_disp.h ****  * @return pointer to the sys layer object  (transparent screen sized lv_obj)
  79:d:\practise\f407_disc\lvgl\lvgl\src/core\lv_disp.h ****  */
  80:d:\practise\f407_disc\lvgl\lvgl\src/core\lv_disp.h **** lv_obj_t * lv_disp_get_layer_sys(lv_disp_t * disp);
  81:d:\practise\f407_disc\lvgl\lvgl\src/core\lv_disp.h **** 
  82:d:\practise\f407_disc\lvgl\lvgl\src/core\lv_disp.h **** /**
  83:d:\practise\f407_disc\lvgl\lvgl\src/core\lv_disp.h ****  * Get the theme of a display
  84:d:\practise\f407_disc\lvgl\lvgl\src/core\lv_disp.h ****  * @param disp pointer to a display
  85:d:\practise\f407_disc\lvgl\lvgl\src/core\lv_disp.h ****  * @return the display's theme (can be NULL)
  86:d:\practise\f407_disc\lvgl\lvgl\src/core\lv_disp.h ****  */
  87:d:\practise\f407_disc\lvgl\lvgl\src/core\lv_disp.h **** void lv_disp_set_theme(lv_disp_t * disp, lv_theme_t * th);
  88:d:\practise\f407_disc\lvgl\lvgl\src/core\lv_disp.h **** 
  89:d:\practise\f407_disc\lvgl\lvgl\src/core\lv_disp.h **** /**
  90:d:\practise\f407_disc\lvgl\lvgl\src/core\lv_disp.h ****  * Get the theme of a display
  91:d:\practise\f407_disc\lvgl\lvgl\src/core\lv_disp.h ****  * @param disp pointer to a display
  92:d:\practise\f407_disc\lvgl\lvgl\src/core\lv_disp.h ****  * @return the display's theme (can be NULL)
  93:d:\practise\f407_disc\lvgl\lvgl\src/core\lv_disp.h ****  */
  94:d:\practise\f407_disc\lvgl\lvgl\src/core\lv_disp.h **** lv_theme_t * lv_disp_get_theme(lv_disp_t * disp);
  95:d:\practise\f407_disc\lvgl\lvgl\src/core\lv_disp.h **** 
  96:d:\practise\f407_disc\lvgl\lvgl\src/core\lv_disp.h **** /**
  97:d:\practise\f407_disc\lvgl\lvgl\src/core\lv_disp.h ****  * Set the background color of a display
  98:d:\practise\f407_disc\lvgl\lvgl\src/core\lv_disp.h ****  * @param disp pointer to a display
  99:d:\practise\f407_disc\lvgl\lvgl\src/core\lv_disp.h ****  * @param color color of the background
 100:d:\practise\f407_disc\lvgl\lvgl\src/core\lv_disp.h ****  */
 101:d:\practise\f407_disc\lvgl\lvgl\src/core\lv_disp.h **** void lv_disp_set_bg_color(lv_disp_t * disp, lv_color_t color);
 102:d:\practise\f407_disc\lvgl\lvgl\src/core\lv_disp.h **** 
 103:d:\practise\f407_disc\lvgl\lvgl\src/core\lv_disp.h **** /**
 104:d:\practise\f407_disc\lvgl\lvgl\src/core\lv_disp.h ****  * Set the background image of a display
 105:d:\practise\f407_disc\lvgl\lvgl\src/core\lv_disp.h ****  * @param disp pointer to a display
 106:d:\practise\f407_disc\lvgl\lvgl\src/core\lv_disp.h ****  * @param img_src path to file or pointer to an `lv_img_dsc_t` variable
 107:d:\practise\f407_disc\lvgl\lvgl\src/core\lv_disp.h ****  */
 108:d:\practise\f407_disc\lvgl\lvgl\src/core\lv_disp.h **** void lv_disp_set_bg_image(lv_disp_t * disp, const void  * img_src);
 109:d:\practise\f407_disc\lvgl\lvgl\src/core\lv_disp.h **** 
 110:d:\practise\f407_disc\lvgl\lvgl\src/core\lv_disp.h **** /**
 111:d:\practise\f407_disc\lvgl\lvgl\src/core\lv_disp.h ****  * Opacity of the background
 112:d:\practise\f407_disc\lvgl\lvgl\src/core\lv_disp.h ****  * @param disp pointer to a display
 113:d:\practise\f407_disc\lvgl\lvgl\src/core\lv_disp.h ****  * @param opa opacity (0..255)
 114:d:\practise\f407_disc\lvgl\lvgl\src/core\lv_disp.h ****  */
 115:d:\practise\f407_disc\lvgl\lvgl\src/core\lv_disp.h **** void lv_disp_set_bg_opa(lv_disp_t * disp, lv_opa_t opa);
 116:d:\practise\f407_disc\lvgl\lvgl\src/core\lv_disp.h **** 
 117:d:\practise\f407_disc\lvgl\lvgl\src/core\lv_disp.h **** /**
 118:d:\practise\f407_disc\lvgl\lvgl\src/core\lv_disp.h ****  * Switch screen with animation
 119:d:\practise\f407_disc\lvgl\lvgl\src/core\lv_disp.h ****  * @param scr pointer to the new screen to load
 120:d:\practise\f407_disc\lvgl\lvgl\src/core\lv_disp.h ****  * @param anim_type type of the animation from `lv_scr_load_anim_t`. E.g.  `LV_SCR_LOAD_ANIM_MOVE_L
ARM GAS  C:\Users\gx\AppData\Local\Temp\ccQfGIQ4.s 			page 99


 121:d:\practise\f407_disc\lvgl\lvgl\src/core\lv_disp.h ****  * @param time time of the animation
 122:d:\practise\f407_disc\lvgl\lvgl\src/core\lv_disp.h ****  * @param delay delay before the transition
 123:d:\practise\f407_disc\lvgl\lvgl\src/core\lv_disp.h ****  * @param auto_del true: automatically delete the old screen
 124:d:\practise\f407_disc\lvgl\lvgl\src/core\lv_disp.h ****  */
 125:d:\practise\f407_disc\lvgl\lvgl\src/core\lv_disp.h **** void lv_scr_load_anim(lv_obj_t * scr, lv_scr_load_anim_t anim_type, uint32_t time, uint32_t delay, 
 126:d:\practise\f407_disc\lvgl\lvgl\src/core\lv_disp.h **** 
 127:d:\practise\f407_disc\lvgl\lvgl\src/core\lv_disp.h **** /**
 128:d:\practise\f407_disc\lvgl\lvgl\src/core\lv_disp.h ****  * Get elapsed time since last user activity on a display (e.g. click)
 129:d:\practise\f407_disc\lvgl\lvgl\src/core\lv_disp.h ****  * @param disp pointer to an display (NULL to get the overall smallest inactivity)
 130:d:\practise\f407_disc\lvgl\lvgl\src/core\lv_disp.h ****  * @return elapsed ticks (milliseconds) since the last activity
 131:d:\practise\f407_disc\lvgl\lvgl\src/core\lv_disp.h ****  */
 132:d:\practise\f407_disc\lvgl\lvgl\src/core\lv_disp.h **** uint32_t lv_disp_get_inactive_time(const lv_disp_t * disp);
 133:d:\practise\f407_disc\lvgl\lvgl\src/core\lv_disp.h **** 
 134:d:\practise\f407_disc\lvgl\lvgl\src/core\lv_disp.h **** /**
 135:d:\practise\f407_disc\lvgl\lvgl\src/core\lv_disp.h ****  * Manually trigger an activity on a display
 136:d:\practise\f407_disc\lvgl\lvgl\src/core\lv_disp.h ****  * @param disp pointer to an display (NULL to use the default display)
 137:d:\practise\f407_disc\lvgl\lvgl\src/core\lv_disp.h ****  */
 138:d:\practise\f407_disc\lvgl\lvgl\src/core\lv_disp.h **** void lv_disp_trig_activity(lv_disp_t * disp);
 139:d:\practise\f407_disc\lvgl\lvgl\src/core\lv_disp.h **** 
 140:d:\practise\f407_disc\lvgl\lvgl\src/core\lv_disp.h **** /**
 141:d:\practise\f407_disc\lvgl\lvgl\src/core\lv_disp.h ****  * Clean any CPU cache that is related to the display.
 142:d:\practise\f407_disc\lvgl\lvgl\src/core\lv_disp.h ****  * @param disp pointer to an display (NULL to use the default display)
 143:d:\practise\f407_disc\lvgl\lvgl\src/core\lv_disp.h ****  */
 144:d:\practise\f407_disc\lvgl\lvgl\src/core\lv_disp.h **** void lv_disp_clean_dcache(lv_disp_t * disp);
 145:d:\practise\f407_disc\lvgl\lvgl\src/core\lv_disp.h **** 
 146:d:\practise\f407_disc\lvgl\lvgl\src/core\lv_disp.h **** /**
 147:d:\practise\f407_disc\lvgl\lvgl\src/core\lv_disp.h ****  * Get a pointer to the screen refresher timer to
 148:d:\practise\f407_disc\lvgl\lvgl\src/core\lv_disp.h ****  * modify its parameters with `lv_timer_...` functions.
 149:d:\practise\f407_disc\lvgl\lvgl\src/core\lv_disp.h ****  * @param disp pointer to a display
 150:d:\practise\f407_disc\lvgl\lvgl\src/core\lv_disp.h ****  * @return pointer to the display refresher timer. (NULL on error)
 151:d:\practise\f407_disc\lvgl\lvgl\src/core\lv_disp.h ****  */
 152:d:\practise\f407_disc\lvgl\lvgl\src/core\lv_disp.h **** lv_timer_t * _lv_disp_get_refr_timer(lv_disp_t * disp);
 153:d:\practise\f407_disc\lvgl\lvgl\src/core\lv_disp.h **** 
 154:d:\practise\f407_disc\lvgl\lvgl\src/core\lv_disp.h **** /*------------------------------------------------
 155:d:\practise\f407_disc\lvgl\lvgl\src/core\lv_disp.h ****  * To improve backward compatibility
 156:d:\practise\f407_disc\lvgl\lvgl\src/core\lv_disp.h ****  * Recommended only if you have one display
 157:d:\practise\f407_disc\lvgl\lvgl\src/core\lv_disp.h ****  *------------------------------------------------*/
 158:d:\practise\f407_disc\lvgl\lvgl\src/core\lv_disp.h **** 
 159:d:\practise\f407_disc\lvgl\lvgl\src/core\lv_disp.h **** /**
 160:d:\practise\f407_disc\lvgl\lvgl\src/core\lv_disp.h ****  * Get the active screen of the default display
 161:d:\practise\f407_disc\lvgl\lvgl\src/core\lv_disp.h ****  * @return pointer to the active screen
 162:d:\practise\f407_disc\lvgl\lvgl\src/core\lv_disp.h ****  */
 163:d:\practise\f407_disc\lvgl\lvgl\src/core\lv_disp.h **** static inline lv_obj_t * lv_scr_act(void)
 164:d:\practise\f407_disc\lvgl\lvgl\src/core\lv_disp.h **** {
 165:d:\practise\f407_disc\lvgl\lvgl\src/core\lv_disp.h ****     return lv_disp_get_scr_act(lv_disp_get_default());
 166:d:\practise\f407_disc\lvgl\lvgl\src/core\lv_disp.h **** }
 167:d:\practise\f407_disc\lvgl\lvgl\src/core\lv_disp.h **** 
 168:d:\practise\f407_disc\lvgl\lvgl\src/core\lv_disp.h **** /**
 169:d:\practise\f407_disc\lvgl\lvgl\src/core\lv_disp.h ****  * Get the top layer  of the default display
 170:d:\practise\f407_disc\lvgl\lvgl\src/core\lv_disp.h ****  * @return pointer to the top layer
 171:d:\practise\f407_disc\lvgl\lvgl\src/core\lv_disp.h ****  */
 172:d:\practise\f407_disc\lvgl\lvgl\src/core\lv_disp.h **** static inline lv_obj_t * lv_layer_top(void)
 173:d:\practise\f407_disc\lvgl\lvgl\src/core\lv_disp.h **** {
 174:d:\practise\f407_disc\lvgl\lvgl\src/core\lv_disp.h ****     return lv_disp_get_layer_top(lv_disp_get_default());
 175:d:\practise\f407_disc\lvgl\lvgl\src/core\lv_disp.h **** }
 176:d:\practise\f407_disc\lvgl\lvgl\src/core\lv_disp.h **** 
 177:d:\practise\f407_disc\lvgl\lvgl\src/core\lv_disp.h **** /**
ARM GAS  C:\Users\gx\AppData\Local\Temp\ccQfGIQ4.s 			page 100


 178:d:\practise\f407_disc\lvgl\lvgl\src/core\lv_disp.h ****  * Get the active screen of the default display
 179:d:\practise\f407_disc\lvgl\lvgl\src/core\lv_disp.h ****  * @return  pointer to the sys layer
 180:d:\practise\f407_disc\lvgl\lvgl\src/core\lv_disp.h ****  */
 181:d:\practise\f407_disc\lvgl\lvgl\src/core\lv_disp.h **** static inline lv_obj_t * lv_layer_sys(void)
 182:d:\practise\f407_disc\lvgl\lvgl\src/core\lv_disp.h **** {
 183:d:\practise\f407_disc\lvgl\lvgl\src/core\lv_disp.h ****     return lv_disp_get_layer_sys(lv_disp_get_default());
 184:d:\practise\f407_disc\lvgl\lvgl\src/core\lv_disp.h **** }
 185:d:\practise\f407_disc\lvgl\lvgl\src/core\lv_disp.h **** 
 186:d:\practise\f407_disc\lvgl\lvgl\src/core\lv_disp.h **** static inline void lv_scr_load(lv_obj_t * scr)
 187:d:\practise\f407_disc\lvgl\lvgl\src/core\lv_disp.h **** {
 188:d:\practise\f407_disc\lvgl\lvgl\src/core\lv_disp.h ****     lv_disp_load_scr(scr);
 189:d:\practise\f407_disc\lvgl\lvgl\src/core\lv_disp.h **** }
 190:d:\practise\f407_disc\lvgl\lvgl\src/core\lv_disp.h **** 
 191:d:\practise\f407_disc\lvgl\lvgl\src/core\lv_disp.h **** /**********************
 192:d:\practise\f407_disc\lvgl\lvgl\src/core\lv_disp.h ****  *      MACROS
 193:d:\practise\f407_disc\lvgl\lvgl\src/core\lv_disp.h ****  **********************/
 194:d:\practise\f407_disc\lvgl\lvgl\src/core\lv_disp.h **** 
 195:d:\practise\f407_disc\lvgl\lvgl\src/core\lv_disp.h **** /*------------------------------------------------
 196:d:\practise\f407_disc\lvgl\lvgl\src/core\lv_disp.h ****  * To improve backward compatibility
 197:d:\practise\f407_disc\lvgl\lvgl\src/core\lv_disp.h ****  * Recommended only if you have one display
 198:d:\practise\f407_disc\lvgl\lvgl\src/core\lv_disp.h ****  *------------------------------------------------*/
 199:d:\practise\f407_disc\lvgl\lvgl\src/core\lv_disp.h **** 
 200:d:\practise\f407_disc\lvgl\lvgl\src/core\lv_disp.h **** #ifndef LV_HOR_RES
 201:d:\practise\f407_disc\lvgl\lvgl\src/core\lv_disp.h **** /**
 202:d:\practise\f407_disc\lvgl\lvgl\src/core\lv_disp.h ****  * The horizontal resolution of the currently active display.
 203:d:\practise\f407_disc\lvgl\lvgl\src/core\lv_disp.h ****  */
 204:d:\practise\f407_disc\lvgl\lvgl\src/core\lv_disp.h **** #define LV_HOR_RES lv_disp_get_hor_res(lv_disp_get_default())
 205:d:\practise\f407_disc\lvgl\lvgl\src/core\lv_disp.h **** #endif
 206:d:\practise\f407_disc\lvgl\lvgl\src/core\lv_disp.h **** 
 207:d:\practise\f407_disc\lvgl\lvgl\src/core\lv_disp.h **** #ifndef LV_VER_RES
 208:d:\practise\f407_disc\lvgl\lvgl\src/core\lv_disp.h **** /**
 209:d:\practise\f407_disc\lvgl\lvgl\src/core\lv_disp.h ****  * The vertical resolution of the currently active display.
 210:d:\practise\f407_disc\lvgl\lvgl\src/core\lv_disp.h ****  */
 211:d:\practise\f407_disc\lvgl\lvgl\src/core\lv_disp.h **** #define LV_VER_RES lv_disp_get_ver_res(lv_disp_get_default())
 212:d:\practise\f407_disc\lvgl\lvgl\src/core\lv_disp.h **** #endif
 213:d:\practise\f407_disc\lvgl\lvgl\src/core\lv_disp.h **** 
 214:d:\practise\f407_disc\lvgl\lvgl\src/core\lv_disp.h **** /**
 215:d:\practise\f407_disc\lvgl\lvgl\src/core\lv_disp.h ****  * Scale the given number of pixels (a distance or size) relative to a 160 DPI display
 216:d:\practise\f407_disc\lvgl\lvgl\src/core\lv_disp.h ****  * considering the DPI of the default display.
 217:d:\practise\f407_disc\lvgl\lvgl\src/core\lv_disp.h ****  * It ensures that e.g. `lv_dpx(100)` will have the same physical size regardless to the
 218:d:\practise\f407_disc\lvgl\lvgl\src/core\lv_disp.h ****  * DPI of the display.
 219:d:\practise\f407_disc\lvgl\lvgl\src/core\lv_disp.h ****  * @param n     the number of pixels to scale
 220:d:\practise\f407_disc\lvgl\lvgl\src/core\lv_disp.h ****  * @return      `n x current_dpi/160`
 221:d:\practise\f407_disc\lvgl\lvgl\src/core\lv_disp.h ****  */
 222:d:\practise\f407_disc\lvgl\lvgl\src/core\lv_disp.h **** static inline lv_coord_t lv_dpx(lv_coord_t n)
 223:d:\practise\f407_disc\lvgl\lvgl\src/core\lv_disp.h **** {
 224:d:\practise\f407_disc\lvgl\lvgl\src/core\lv_disp.h ****     return LV_DPX(n);
 225:d:\practise\f407_disc\lvgl\lvgl\src/core\lv_disp.h **** }
 226:d:\practise\f407_disc\lvgl\lvgl\src/core\lv_disp.h **** 
 227:d:\practise\f407_disc\lvgl\lvgl\src/core\lv_disp.h **** /**
 228:d:\practise\f407_disc\lvgl\lvgl\src/core\lv_disp.h ****  * Scale the given number of pixels (a distance or size) relative to a 160 DPI display
 229:d:\practise\f407_disc\lvgl\lvgl\src/core\lv_disp.h ****  * considering the DPI of the given display.
 230:d:\practise\f407_disc\lvgl\lvgl\src/core\lv_disp.h ****  * It ensures that e.g. `lv_dpx(100)` will have the same physical size regardless to the
 231:d:\practise\f407_disc\lvgl\lvgl\src/core\lv_disp.h ****  * DPI of the display.
 232:d:\practise\f407_disc\lvgl\lvgl\src/core\lv_disp.h ****  * @param obj   an display whose dpi should be considered
 233:d:\practise\f407_disc\lvgl\lvgl\src/core\lv_disp.h ****  * @param n     the number of pixels to scale
 234:d:\practise\f407_disc\lvgl\lvgl\src/core\lv_disp.h ****  * @return      `n x current_dpi/160`
ARM GAS  C:\Users\gx\AppData\Local\Temp\ccQfGIQ4.s 			page 101


 235:d:\practise\f407_disc\lvgl\lvgl\src/core\lv_disp.h ****  */
 236:d:\practise\f407_disc\lvgl\lvgl\src/core\lv_disp.h **** static inline lv_coord_t lv_disp_dpx(const lv_disp_t * disp, lv_coord_t n)
 3000              		.loc 3 236 26 is_stmt 1 discriminator 4 view .LVU906
 3001              	.LBB418:
 237:d:\practise\f407_disc\lvgl\lvgl\src/core\lv_disp.h **** {
 238:d:\practise\f407_disc\lvgl\lvgl\src/core\lv_disp.h ****     return _LV_DPX_CALC(lv_disp_get_dpi(disp), n);
 3002              		.loc 3 238 5 discriminator 4 view .LVU907
 3003              		.loc 3 238 12 is_stmt 0 discriminator 4 view .LVU908
 3004 011c 2846     		mov	r0, r5
 3005 011e FFF7FEFF 		bl	lv_disp_get_dpi
 3006              	.LVL312:
 3007 0122 C0EBC000 		rsb	r0, r0, r0, lsl #3
 3008 0126 EF28     		cmp	r0, #239
 3009 0128 01F30F82 		bgt	.L402
 3010              		.loc 3 238 12 view .LVU909
 3011 012c 0121     		movs	r1, #1
 3012              	.L88:
 3013              	.LVL313:
 3014              		.loc 3 238 12 view .LVU910
 3015              	.LBE418:
 3016              	.LBE417:
 230:lvgl/lvgl/src/extra/themes/default/lv_theme_default.c ****     lv_style_set_pad_top(&styles->scrollbar,  lv_disp_dpx(theme.disp, 7));
 3017              		.loc 1 230 5 view .LVU911
 3018 012e 2046     		mov	r0, r4
 3019 0130 FFF7FEFF 		bl	lv_style_set_pad_right
 3020              	.LVL314:
 231:lvgl/lvgl/src/extra/themes/default/lv_theme_default.c ****     lv_style_set_size(&styles->scrollbar,  lv_disp_dpx(theme.disp, 5));
 3021              		.loc 1 231 5 is_stmt 1 view .LVU912
 231:lvgl/lvgl/src/extra/themes/default/lv_theme_default.c ****     lv_style_set_size(&styles->scrollbar,  lv_disp_dpx(theme.disp, 5));
 3022              		.loc 1 231 33 is_stmt 0 view .LVU913
 3023 0134 874B     		ldr	r3, .L570+32
 3024 0136 1C68     		ldr	r4, [r3]
 231:lvgl/lvgl/src/extra/themes/default/lv_theme_default.c ****     lv_style_set_size(&styles->scrollbar,  lv_disp_dpx(theme.disp, 5));
 3025              		.loc 1 231 5 view .LVU914
 3026 0138 0834     		adds	r4, r4, #8
 231:lvgl/lvgl/src/extra/themes/default/lv_theme_default.c ****     lv_style_set_size(&styles->scrollbar,  lv_disp_dpx(theme.disp, 5));
 3027              		.loc 1 231 64 view .LVU915
 3028 013a 7E4B     		ldr	r3, .L570
 3029 013c DD68     		ldr	r5, [r3, #12]
 3030              	.LVL315:
 3031              	.LBB420:
 3032              	.LBI420:
 236:d:\practise\f407_disc\lvgl\lvgl\src/core\lv_disp.h **** {
 3033              		.loc 3 236 26 is_stmt 1 view .LVU916
 3034              	.LBB421:
 3035              		.loc 3 238 5 view .LVU917
 3036              		.loc 3 238 12 is_stmt 0 view .LVU918
 3037 013e 2846     		mov	r0, r5
 3038 0140 FFF7FEFF 		bl	lv_disp_get_dpi
 3039              	.LVL316:
 3040 0144 C0EBC000 		rsb	r0, r0, r0, lsl #3
 3041 0148 EF28     		cmp	r0, #239
 3042 014a 01F30D82 		bgt	.L403
 3043 014e 0121     		movs	r1, #1
 3044              	.L89:
 3045              	.LVL317:
 3046              		.loc 3 238 12 view .LVU919
ARM GAS  C:\Users\gx\AppData\Local\Temp\ccQfGIQ4.s 			page 102


 3047              	.LBE421:
 3048              	.LBE420:
 231:lvgl/lvgl/src/extra/themes/default/lv_theme_default.c ****     lv_style_set_size(&styles->scrollbar,  lv_disp_dpx(theme.disp, 5));
 3049              		.loc 1 231 5 view .LVU920
 3050 0150 2046     		mov	r0, r4
 3051 0152 FFF7FEFF 		bl	lv_style_set_pad_top
 3052              	.LVL318:
 232:lvgl/lvgl/src/extra/themes/default/lv_theme_default.c ****     lv_style_set_bg_opa(&styles->scrollbar,  LV_OPA_40);
 3053              		.loc 1 232 5 is_stmt 1 view .LVU921
 232:lvgl/lvgl/src/extra/themes/default/lv_theme_default.c ****     lv_style_set_bg_opa(&styles->scrollbar,  LV_OPA_40);
 3054              		.loc 1 232 30 is_stmt 0 view .LVU922
 3055 0156 7F4B     		ldr	r3, .L570+32
 3056 0158 1D68     		ldr	r5, [r3]
 232:lvgl/lvgl/src/extra/themes/default/lv_theme_default.c ****     lv_style_set_bg_opa(&styles->scrollbar,  LV_OPA_40);
 3057              		.loc 1 232 5 view .LVU923
 3058 015a 0835     		adds	r5, r5, #8
 232:lvgl/lvgl/src/extra/themes/default/lv_theme_default.c ****     lv_style_set_bg_opa(&styles->scrollbar,  LV_OPA_40);
 3059              		.loc 1 232 61 view .LVU924
 3060 015c 754B     		ldr	r3, .L570
 3061 015e DC68     		ldr	r4, [r3, #12]
 3062              	.LVL319:
 3063              	.LBB423:
 3064              	.LBI423:
 236:d:\practise\f407_disc\lvgl\lvgl\src/core\lv_disp.h **** {
 3065              		.loc 3 236 26 is_stmt 1 view .LVU925
 3066              	.LBB424:
 3067              		.loc 3 238 5 view .LVU926
 3068              		.loc 3 238 12 is_stmt 0 view .LVU927
 3069 0160 2046     		mov	r0, r4
 3070 0162 FFF7FEFF 		bl	lv_disp_get_dpi
 3071              	.LVL320:
 3072 0166 00EB8000 		add	r0, r0, r0, lsl #2
 3073 016a EF28     		cmp	r0, #239
 3074 016c 01F30B82 		bgt	.L404
 3075 0170 0124     		movs	r4, #1
 3076              	.LVL321:
 3077              	.L90:
 3078              		.loc 3 238 12 view .LVU928
 3079              	.LBE424:
 3080              	.LBE423:
 3081              	.LBB426:
 3082              	.LBI426:
 3083              		.file 4 "d:\\practise\\f407_disc\\lvgl\\lvgl\\src\\misc\\lv_style.h"
   1:d:\practise\f407_disc\lvgl\lvgl\src\misc\lv_style.h **** /**
   2:d:\practise\f407_disc\lvgl\lvgl\src\misc\lv_style.h ****  * @file lv_style.h
   3:d:\practise\f407_disc\lvgl\lvgl\src\misc\lv_style.h ****  *
   4:d:\practise\f407_disc\lvgl\lvgl\src\misc\lv_style.h ****  */
   5:d:\practise\f407_disc\lvgl\lvgl\src\misc\lv_style.h **** 
   6:d:\practise\f407_disc\lvgl\lvgl\src\misc\lv_style.h **** #ifndef LV_STYLE_H
   7:d:\practise\f407_disc\lvgl\lvgl\src\misc\lv_style.h **** #define LV_STYLE_H
   8:d:\practise\f407_disc\lvgl\lvgl\src\misc\lv_style.h **** 
   9:d:\practise\f407_disc\lvgl\lvgl\src\misc\lv_style.h **** #ifdef __cplusplus
  10:d:\practise\f407_disc\lvgl\lvgl\src\misc\lv_style.h **** extern "C" {
  11:d:\practise\f407_disc\lvgl\lvgl\src\misc\lv_style.h **** #endif
  12:d:\practise\f407_disc\lvgl\lvgl\src\misc\lv_style.h **** 
  13:d:\practise\f407_disc\lvgl\lvgl\src\misc\lv_style.h **** /*********************
  14:d:\practise\f407_disc\lvgl\lvgl\src\misc\lv_style.h ****  *      INCLUDES
ARM GAS  C:\Users\gx\AppData\Local\Temp\ccQfGIQ4.s 			page 103


  15:d:\practise\f407_disc\lvgl\lvgl\src\misc\lv_style.h ****  *********************/
  16:d:\practise\f407_disc\lvgl\lvgl\src\misc\lv_style.h **** #include <stdbool.h>
  17:d:\practise\f407_disc\lvgl\lvgl\src\misc\lv_style.h **** #include "../font/lv_font.h"
  18:d:\practise\f407_disc\lvgl\lvgl\src\misc\lv_style.h **** #include "lv_color.h"
  19:d:\practise\f407_disc\lvgl\lvgl\src\misc\lv_style.h **** #include "lv_area.h"
  20:d:\practise\f407_disc\lvgl\lvgl\src\misc\lv_style.h **** #include "lv_anim.h"
  21:d:\practise\f407_disc\lvgl\lvgl\src\misc\lv_style.h **** #include "lv_txt.h"
  22:d:\practise\f407_disc\lvgl\lvgl\src\misc\lv_style.h **** #include "lv_types.h"
  23:d:\practise\f407_disc\lvgl\lvgl\src\misc\lv_style.h **** #include "lv_assert.h"
  24:d:\practise\f407_disc\lvgl\lvgl\src\misc\lv_style.h **** #include "lv_bidi.h"
  25:d:\practise\f407_disc\lvgl\lvgl\src\misc\lv_style.h **** 
  26:d:\practise\f407_disc\lvgl\lvgl\src\misc\lv_style.h **** /*********************
  27:d:\practise\f407_disc\lvgl\lvgl\src\misc\lv_style.h ****  *      DEFINES
  28:d:\practise\f407_disc\lvgl\lvgl\src\misc\lv_style.h ****  *********************/
  29:d:\practise\f407_disc\lvgl\lvgl\src\misc\lv_style.h **** 
  30:d:\practise\f407_disc\lvgl\lvgl\src\misc\lv_style.h **** #define LV_STYLE_SENTINEL_VALUE     0xAABBCCDD
  31:d:\practise\f407_disc\lvgl\lvgl\src\misc\lv_style.h **** 
  32:d:\practise\f407_disc\lvgl\lvgl\src\misc\lv_style.h **** /**
  33:d:\practise\f407_disc\lvgl\lvgl\src\misc\lv_style.h ****  * Flags for style properties
  34:d:\practise\f407_disc\lvgl\lvgl\src\misc\lv_style.h ****  */
  35:d:\practise\f407_disc\lvgl\lvgl\src\misc\lv_style.h **** #define LV_STYLE_PROP_INHERIT               (1 << 10)  /*Inherited*/
  36:d:\practise\f407_disc\lvgl\lvgl\src\misc\lv_style.h **** #define LV_STYLE_PROP_EXT_DRAW              (1 << 11)  /*Requires ext. draw size update when change
  37:d:\practise\f407_disc\lvgl\lvgl\src\misc\lv_style.h **** #define LV_STYLE_PROP_LAYOUT_REFR           (1 << 12)  /*Requires layout update when changed*/
  38:d:\practise\f407_disc\lvgl\lvgl\src\misc\lv_style.h **** #define LV_STYLE_PROP_PARENT_LAYOUT_REFR    (1 << 13)  /*Requires layout update on parent when chan
  39:d:\practise\f407_disc\lvgl\lvgl\src\misc\lv_style.h **** #define LV_STYLE_PROP_FILTER                (1 << 14)  /*Apply color filter*/
  40:d:\practise\f407_disc\lvgl\lvgl\src\misc\lv_style.h **** 
  41:d:\practise\f407_disc\lvgl\lvgl\src\misc\lv_style.h **** /**
  42:d:\practise\f407_disc\lvgl\lvgl\src\misc\lv_style.h ****  * Other constants
  43:d:\practise\f407_disc\lvgl\lvgl\src\misc\lv_style.h ****  */
  44:d:\practise\f407_disc\lvgl\lvgl\src\misc\lv_style.h **** #define LV_IMG_ZOOM_NONE            256        /*Value for not zooming the image*/
  45:d:\practise\f407_disc\lvgl\lvgl\src\misc\lv_style.h **** LV_EXPORT_CONST_INT(LV_IMG_ZOOM_NONE);
  46:d:\practise\f407_disc\lvgl\lvgl\src\misc\lv_style.h **** 
  47:d:\practise\f407_disc\lvgl\lvgl\src\misc\lv_style.h **** #if LV_USE_ASSERT_STYLE
  48:d:\practise\f407_disc\lvgl\lvgl\src\misc\lv_style.h **** #define LV_STYLE_CONST_INIT(var_name, prop_array) const lv_style_t var_name = { .sentinel = LV_STYL
  49:d:\practise\f407_disc\lvgl\lvgl\src\misc\lv_style.h **** #else
  50:d:\practise\f407_disc\lvgl\lvgl\src\misc\lv_style.h **** #define LV_STYLE_CONST_INIT(var_name, prop_array) const lv_style_t var_name = { .v_p = { .const_pro
  51:d:\practise\f407_disc\lvgl\lvgl\src\misc\lv_style.h **** #endif
  52:d:\practise\f407_disc\lvgl\lvgl\src\misc\lv_style.h **** 
  53:d:\practise\f407_disc\lvgl\lvgl\src\misc\lv_style.h **** /**********************
  54:d:\practise\f407_disc\lvgl\lvgl\src\misc\lv_style.h ****  *      TYPEDEFS
  55:d:\practise\f407_disc\lvgl\lvgl\src\misc\lv_style.h ****  **********************/
  56:d:\practise\f407_disc\lvgl\lvgl\src\misc\lv_style.h **** 
  57:d:\practise\f407_disc\lvgl\lvgl\src\misc\lv_style.h **** /**
  58:d:\practise\f407_disc\lvgl\lvgl\src\misc\lv_style.h ****  * Possible options how to blend opaque drawings
  59:d:\practise\f407_disc\lvgl\lvgl\src\misc\lv_style.h ****  */
  60:d:\practise\f407_disc\lvgl\lvgl\src\misc\lv_style.h **** enum {
  61:d:\practise\f407_disc\lvgl\lvgl\src\misc\lv_style.h ****     LV_BLEND_MODE_NORMAL,     /**< Simply mix according to the opacity value*/
  62:d:\practise\f407_disc\lvgl\lvgl\src\misc\lv_style.h ****     LV_BLEND_MODE_ADDITIVE,   /**< Add the respective color channels*/
  63:d:\practise\f407_disc\lvgl\lvgl\src\misc\lv_style.h ****     LV_BLEND_MODE_SUBTRACTIVE,/**< Subtract the foreground from the background*/
  64:d:\practise\f407_disc\lvgl\lvgl\src\misc\lv_style.h **** };
  65:d:\practise\f407_disc\lvgl\lvgl\src\misc\lv_style.h **** 
  66:d:\practise\f407_disc\lvgl\lvgl\src\misc\lv_style.h **** typedef uint8_t lv_blend_mode_t;
  67:d:\practise\f407_disc\lvgl\lvgl\src\misc\lv_style.h **** 
  68:d:\practise\f407_disc\lvgl\lvgl\src\misc\lv_style.h **** /**
  69:d:\practise\f407_disc\lvgl\lvgl\src\misc\lv_style.h ****  * Some options to apply decorations on texts.
  70:d:\practise\f407_disc\lvgl\lvgl\src\misc\lv_style.h ****  * 'OR'ed values can be used.
  71:d:\practise\f407_disc\lvgl\lvgl\src\misc\lv_style.h ****  */
ARM GAS  C:\Users\gx\AppData\Local\Temp\ccQfGIQ4.s 			page 104


  72:d:\practise\f407_disc\lvgl\lvgl\src\misc\lv_style.h **** enum {
  73:d:\practise\f407_disc\lvgl\lvgl\src\misc\lv_style.h ****     LV_TEXT_DECOR_NONE          = 0x00,
  74:d:\practise\f407_disc\lvgl\lvgl\src\misc\lv_style.h ****     LV_TEXT_DECOR_UNDERLINE     = 0x01,
  75:d:\practise\f407_disc\lvgl\lvgl\src\misc\lv_style.h ****     LV_TEXT_DECOR_STRIKETHROUGH = 0x02,
  76:d:\practise\f407_disc\lvgl\lvgl\src\misc\lv_style.h **** };
  77:d:\practise\f407_disc\lvgl\lvgl\src\misc\lv_style.h **** 
  78:d:\practise\f407_disc\lvgl\lvgl\src\misc\lv_style.h **** typedef uint8_t lv_text_decor_t;
  79:d:\practise\f407_disc\lvgl\lvgl\src\misc\lv_style.h **** 
  80:d:\practise\f407_disc\lvgl\lvgl\src\misc\lv_style.h **** /**
  81:d:\practise\f407_disc\lvgl\lvgl\src\misc\lv_style.h ****  * Selects on which sides border should be drawn
  82:d:\practise\f407_disc\lvgl\lvgl\src\misc\lv_style.h ****  * 'OR'ed values can be used.
  83:d:\practise\f407_disc\lvgl\lvgl\src\misc\lv_style.h ****  */
  84:d:\practise\f407_disc\lvgl\lvgl\src\misc\lv_style.h **** enum {
  85:d:\practise\f407_disc\lvgl\lvgl\src\misc\lv_style.h ****     LV_BORDER_SIDE_NONE     = 0x00,
  86:d:\practise\f407_disc\lvgl\lvgl\src\misc\lv_style.h ****     LV_BORDER_SIDE_BOTTOM   = 0x01,
  87:d:\practise\f407_disc\lvgl\lvgl\src\misc\lv_style.h ****     LV_BORDER_SIDE_TOP      = 0x02,
  88:d:\practise\f407_disc\lvgl\lvgl\src\misc\lv_style.h ****     LV_BORDER_SIDE_LEFT     = 0x04,
  89:d:\practise\f407_disc\lvgl\lvgl\src\misc\lv_style.h ****     LV_BORDER_SIDE_RIGHT    = 0x08,
  90:d:\practise\f407_disc\lvgl\lvgl\src\misc\lv_style.h ****     LV_BORDER_SIDE_FULL     = 0x0F,
  91:d:\practise\f407_disc\lvgl\lvgl\src\misc\lv_style.h ****     LV_BORDER_SIDE_INTERNAL = 0x10, /**< FOR matrix-like objects (e.g. Button matrix)*/
  92:d:\practise\f407_disc\lvgl\lvgl\src\misc\lv_style.h **** };
  93:d:\practise\f407_disc\lvgl\lvgl\src\misc\lv_style.h **** typedef uint8_t lv_border_side_t;
  94:d:\practise\f407_disc\lvgl\lvgl\src\misc\lv_style.h **** 
  95:d:\practise\f407_disc\lvgl\lvgl\src\misc\lv_style.h **** /**
  96:d:\practise\f407_disc\lvgl\lvgl\src\misc\lv_style.h ****  * The direction of the gradient.
  97:d:\practise\f407_disc\lvgl\lvgl\src\misc\lv_style.h ****  */
  98:d:\practise\f407_disc\lvgl\lvgl\src\misc\lv_style.h **** enum {
  99:d:\practise\f407_disc\lvgl\lvgl\src\misc\lv_style.h ****     LV_GRAD_DIR_NONE, /**< No gradient (the `grad_color` property is ignored)*/
 100:d:\practise\f407_disc\lvgl\lvgl\src\misc\lv_style.h ****     LV_GRAD_DIR_VER,  /**< Vertical (top to bottom) gradient*/
 101:d:\practise\f407_disc\lvgl\lvgl\src\misc\lv_style.h ****     LV_GRAD_DIR_HOR,  /**< Horizontal (left to right) gradient*/
 102:d:\practise\f407_disc\lvgl\lvgl\src\misc\lv_style.h **** };
 103:d:\practise\f407_disc\lvgl\lvgl\src\misc\lv_style.h **** 
 104:d:\practise\f407_disc\lvgl\lvgl\src\misc\lv_style.h **** typedef uint8_t lv_grad_dir_t;
 105:d:\practise\f407_disc\lvgl\lvgl\src\misc\lv_style.h **** 
 106:d:\practise\f407_disc\lvgl\lvgl\src\misc\lv_style.h **** /**
 107:d:\practise\f407_disc\lvgl\lvgl\src\misc\lv_style.h ****  * A common type to handle all the property types in the same way.
 108:d:\practise\f407_disc\lvgl\lvgl\src\misc\lv_style.h ****  */
 109:d:\practise\f407_disc\lvgl\lvgl\src\misc\lv_style.h **** typedef union {
 110:d:\practise\f407_disc\lvgl\lvgl\src\misc\lv_style.h ****     int32_t num;         /**< Number integer number (opacity, enums, booleans or "normal" numbers)*
 111:d:\practise\f407_disc\lvgl\lvgl\src\misc\lv_style.h ****     const void * ptr;    /**< Constant pointers  (font, cone text, etc)*/
 112:d:\practise\f407_disc\lvgl\lvgl\src\misc\lv_style.h ****     lv_color_t color;    /**< Colors*/
 113:d:\practise\f407_disc\lvgl\lvgl\src\misc\lv_style.h **** }lv_style_value_t;
 114:d:\practise\f407_disc\lvgl\lvgl\src\misc\lv_style.h **** 
 115:d:\practise\f407_disc\lvgl\lvgl\src\misc\lv_style.h **** /**
 116:d:\practise\f407_disc\lvgl\lvgl\src\misc\lv_style.h ****  * Enumeration of all built in style properties
 117:d:\practise\f407_disc\lvgl\lvgl\src\misc\lv_style.h ****  */
 118:d:\practise\f407_disc\lvgl\lvgl\src\misc\lv_style.h **** typedef enum {
 119:d:\practise\f407_disc\lvgl\lvgl\src\misc\lv_style.h ****     LV_STYLE_PROP_INV                = 0,
 120:d:\practise\f407_disc\lvgl\lvgl\src\misc\lv_style.h **** 
 121:d:\practise\f407_disc\lvgl\lvgl\src\misc\lv_style.h ****     /*Group 0*/
 122:d:\practise\f407_disc\lvgl\lvgl\src\misc\lv_style.h ****     LV_STYLE_WIDTH                   = 1 | LV_STYLE_PROP_LAYOUT_REFR,
 123:d:\practise\f407_disc\lvgl\lvgl\src\misc\lv_style.h ****     LV_STYLE_MIN_WIDTH               = 2 | LV_STYLE_PROP_LAYOUT_REFR,
 124:d:\practise\f407_disc\lvgl\lvgl\src\misc\lv_style.h ****     LV_STYLE_MAX_WIDTH               = 3 | LV_STYLE_PROP_LAYOUT_REFR,
 125:d:\practise\f407_disc\lvgl\lvgl\src\misc\lv_style.h ****     LV_STYLE_HEIGHT                  = 4 | LV_STYLE_PROP_LAYOUT_REFR,
 126:d:\practise\f407_disc\lvgl\lvgl\src\misc\lv_style.h ****     LV_STYLE_MIN_HEIGHT              = 5 | LV_STYLE_PROP_LAYOUT_REFR,
 127:d:\practise\f407_disc\lvgl\lvgl\src\misc\lv_style.h ****     LV_STYLE_MAX_HEIGHT              = 6 | LV_STYLE_PROP_LAYOUT_REFR,
 128:d:\practise\f407_disc\lvgl\lvgl\src\misc\lv_style.h ****     LV_STYLE_X                       = 7 | LV_STYLE_PROP_LAYOUT_REFR,
ARM GAS  C:\Users\gx\AppData\Local\Temp\ccQfGIQ4.s 			page 105


 129:d:\practise\f407_disc\lvgl\lvgl\src\misc\lv_style.h ****     LV_STYLE_Y                       = 8 | LV_STYLE_PROP_LAYOUT_REFR,
 130:d:\practise\f407_disc\lvgl\lvgl\src\misc\lv_style.h ****     LV_STYLE_ALIGN                   = 9 | LV_STYLE_PROP_LAYOUT_REFR,
 131:d:\practise\f407_disc\lvgl\lvgl\src\misc\lv_style.h ****     LV_STYLE_TRANSFORM_WIDTH         = 10 | LV_STYLE_PROP_EXT_DRAW,
 132:d:\practise\f407_disc\lvgl\lvgl\src\misc\lv_style.h ****     LV_STYLE_TRANSFORM_HEIGHT        = 11 | LV_STYLE_PROP_EXT_DRAW,
 133:d:\practise\f407_disc\lvgl\lvgl\src\misc\lv_style.h ****     LV_STYLE_TRANSLATE_X             = 12 | LV_STYLE_PROP_LAYOUT_REFR | LV_STYLE_PROP_PARENT_LAYOUT
 134:d:\practise\f407_disc\lvgl\lvgl\src\misc\lv_style.h ****     LV_STYLE_TRANSLATE_Y             = 13 | LV_STYLE_PROP_LAYOUT_REFR | LV_STYLE_PROP_PARENT_LAYOUT
 135:d:\practise\f407_disc\lvgl\lvgl\src\misc\lv_style.h ****     LV_STYLE_TRANSFORM_ZOOM          = 14 | LV_STYLE_PROP_EXT_DRAW | LV_STYLE_PROP_LAYOUT_REFR | LV
 136:d:\practise\f407_disc\lvgl\lvgl\src\misc\lv_style.h ****     LV_STYLE_TRANSFORM_ANGLE         = 15 | LV_STYLE_PROP_EXT_DRAW | LV_STYLE_PROP_LAYOUT_REFR | LV
 137:d:\practise\f407_disc\lvgl\lvgl\src\misc\lv_style.h **** 
 138:d:\practise\f407_disc\lvgl\lvgl\src\misc\lv_style.h ****     /*Group 1*/
 139:d:\practise\f407_disc\lvgl\lvgl\src\misc\lv_style.h ****     LV_STYLE_PAD_TOP                 = 16 | LV_STYLE_PROP_LAYOUT_REFR,
 140:d:\practise\f407_disc\lvgl\lvgl\src\misc\lv_style.h ****     LV_STYLE_PAD_BOTTOM              = 17 | LV_STYLE_PROP_LAYOUT_REFR,
 141:d:\practise\f407_disc\lvgl\lvgl\src\misc\lv_style.h ****     LV_STYLE_PAD_LEFT                = 18 | LV_STYLE_PROP_LAYOUT_REFR,
 142:d:\practise\f407_disc\lvgl\lvgl\src\misc\lv_style.h ****     LV_STYLE_PAD_RIGHT               = 19 | LV_STYLE_PROP_LAYOUT_REFR,
 143:d:\practise\f407_disc\lvgl\lvgl\src\misc\lv_style.h ****     LV_STYLE_PAD_ROW                 = 20 | LV_STYLE_PROP_LAYOUT_REFR,
 144:d:\practise\f407_disc\lvgl\lvgl\src\misc\lv_style.h ****     LV_STYLE_PAD_COLUMN              = 21 | LV_STYLE_PROP_LAYOUT_REFR,
 145:d:\practise\f407_disc\lvgl\lvgl\src\misc\lv_style.h **** 
 146:d:\practise\f407_disc\lvgl\lvgl\src\misc\lv_style.h ****     /*Group 2*/
 147:d:\practise\f407_disc\lvgl\lvgl\src\misc\lv_style.h ****     LV_STYLE_BG_COLOR                = 32,
 148:d:\practise\f407_disc\lvgl\lvgl\src\misc\lv_style.h ****     LV_STYLE_BG_COLOR_FILTERED       = 32 | LV_STYLE_PROP_FILTER,
 149:d:\practise\f407_disc\lvgl\lvgl\src\misc\lv_style.h ****     LV_STYLE_BG_OPA                  = 33,
 150:d:\practise\f407_disc\lvgl\lvgl\src\misc\lv_style.h ****     LV_STYLE_BG_GRAD_COLOR           = 34,
 151:d:\practise\f407_disc\lvgl\lvgl\src\misc\lv_style.h ****     LV_STYLE_BG_GRAD_COLOR_FILTERED  = 34 | LV_STYLE_PROP_FILTER,
 152:d:\practise\f407_disc\lvgl\lvgl\src\misc\lv_style.h ****     LV_STYLE_BG_GRAD_DIR             = 35,
 153:d:\practise\f407_disc\lvgl\lvgl\src\misc\lv_style.h ****     LV_STYLE_BG_MAIN_STOP            = 36,
 154:d:\practise\f407_disc\lvgl\lvgl\src\misc\lv_style.h ****     LV_STYLE_BG_GRAD_STOP            = 37,
 155:d:\practise\f407_disc\lvgl\lvgl\src\misc\lv_style.h **** 
 156:d:\practise\f407_disc\lvgl\lvgl\src\misc\lv_style.h ****     LV_STYLE_BG_IMG_SRC              = 38,
 157:d:\practise\f407_disc\lvgl\lvgl\src\misc\lv_style.h ****     LV_STYLE_BG_IMG_OPA              = 39,
 158:d:\practise\f407_disc\lvgl\lvgl\src\misc\lv_style.h ****     LV_STYLE_BG_IMG_RECOLOR          = 40,
 159:d:\practise\f407_disc\lvgl\lvgl\src\misc\lv_style.h ****     LV_STYLE_BG_IMG_RECOLOR_FILTERED = 40 | LV_STYLE_PROP_FILTER,
 160:d:\practise\f407_disc\lvgl\lvgl\src\misc\lv_style.h ****     LV_STYLE_BG_IMG_RECOLOR_OPA      = 41,
 161:d:\practise\f407_disc\lvgl\lvgl\src\misc\lv_style.h ****     LV_STYLE_BG_IMG_TILED            = 42,
 162:d:\practise\f407_disc\lvgl\lvgl\src\misc\lv_style.h **** 
 163:d:\practise\f407_disc\lvgl\lvgl\src\misc\lv_style.h ****     /*Group 3*/
 164:d:\practise\f407_disc\lvgl\lvgl\src\misc\lv_style.h ****     LV_STYLE_BORDER_COLOR            = 48,
 165:d:\practise\f407_disc\lvgl\lvgl\src\misc\lv_style.h ****     LV_STYLE_BORDER_COLOR_FILTERED   = 48 | LV_STYLE_PROP_FILTER,
 166:d:\practise\f407_disc\lvgl\lvgl\src\misc\lv_style.h ****     LV_STYLE_BORDER_OPA              = 49,
 167:d:\practise\f407_disc\lvgl\lvgl\src\misc\lv_style.h ****     LV_STYLE_BORDER_WIDTH            = 50 | LV_STYLE_PROP_LAYOUT_REFR,
 168:d:\practise\f407_disc\lvgl\lvgl\src\misc\lv_style.h ****     LV_STYLE_BORDER_SIDE             = 51,
 169:d:\practise\f407_disc\lvgl\lvgl\src\misc\lv_style.h ****     LV_STYLE_BORDER_POST             = 52,
 170:d:\practise\f407_disc\lvgl\lvgl\src\misc\lv_style.h **** 
 171:d:\practise\f407_disc\lvgl\lvgl\src\misc\lv_style.h ****     LV_STYLE_OUTLINE_WIDTH           = 58 | LV_STYLE_PROP_EXT_DRAW,
 172:d:\practise\f407_disc\lvgl\lvgl\src\misc\lv_style.h ****     LV_STYLE_OUTLINE_COLOR           = 59,
 173:d:\practise\f407_disc\lvgl\lvgl\src\misc\lv_style.h ****     LV_STYLE_OUTLINE_COLOR_FILTERED  = 59 | LV_STYLE_PROP_FILTER,
 174:d:\practise\f407_disc\lvgl\lvgl\src\misc\lv_style.h ****     LV_STYLE_OUTLINE_OPA             = 60 | LV_STYLE_PROP_EXT_DRAW,
 175:d:\practise\f407_disc\lvgl\lvgl\src\misc\lv_style.h ****     LV_STYLE_OUTLINE_PAD             = 61 | LV_STYLE_PROP_EXT_DRAW,
 176:d:\practise\f407_disc\lvgl\lvgl\src\misc\lv_style.h **** 
 177:d:\practise\f407_disc\lvgl\lvgl\src\misc\lv_style.h ****     /*Group 4*/
 178:d:\practise\f407_disc\lvgl\lvgl\src\misc\lv_style.h ****     LV_STYLE_SHADOW_WIDTH            = 64 | LV_STYLE_PROP_EXT_DRAW,
 179:d:\practise\f407_disc\lvgl\lvgl\src\misc\lv_style.h ****     LV_STYLE_SHADOW_OFS_X            = 65 | LV_STYLE_PROP_EXT_DRAW,
 180:d:\practise\f407_disc\lvgl\lvgl\src\misc\lv_style.h ****     LV_STYLE_SHADOW_OFS_Y            = 66 | LV_STYLE_PROP_EXT_DRAW,
 181:d:\practise\f407_disc\lvgl\lvgl\src\misc\lv_style.h ****     LV_STYLE_SHADOW_SPREAD           = 67 | LV_STYLE_PROP_EXT_DRAW,
 182:d:\practise\f407_disc\lvgl\lvgl\src\misc\lv_style.h ****     LV_STYLE_SHADOW_COLOR            = 68,
 183:d:\practise\f407_disc\lvgl\lvgl\src\misc\lv_style.h ****     LV_STYLE_SHADOW_COLOR_FILTERED   = 68 | LV_STYLE_PROP_FILTER,
 184:d:\practise\f407_disc\lvgl\lvgl\src\misc\lv_style.h ****     LV_STYLE_SHADOW_OPA              = 69 | LV_STYLE_PROP_EXT_DRAW,
 185:d:\practise\f407_disc\lvgl\lvgl\src\misc\lv_style.h **** 
ARM GAS  C:\Users\gx\AppData\Local\Temp\ccQfGIQ4.s 			page 106


 186:d:\practise\f407_disc\lvgl\lvgl\src\misc\lv_style.h ****     LV_STYLE_IMG_OPA                 = 70,
 187:d:\practise\f407_disc\lvgl\lvgl\src\misc\lv_style.h ****     LV_STYLE_IMG_RECOLOR             = 71,
 188:d:\practise\f407_disc\lvgl\lvgl\src\misc\lv_style.h ****     LV_STYLE_IMG_RECOLOR_FILTERED    = 71 | LV_STYLE_PROP_FILTER,
 189:d:\practise\f407_disc\lvgl\lvgl\src\misc\lv_style.h ****     LV_STYLE_IMG_RECOLOR_OPA         = 72,
 190:d:\practise\f407_disc\lvgl\lvgl\src\misc\lv_style.h **** 
 191:d:\practise\f407_disc\lvgl\lvgl\src\misc\lv_style.h ****     LV_STYLE_LINE_WIDTH              = 73 | LV_STYLE_PROP_EXT_DRAW,
 192:d:\practise\f407_disc\lvgl\lvgl\src\misc\lv_style.h ****     LV_STYLE_LINE_DASH_WIDTH         = 74,
 193:d:\practise\f407_disc\lvgl\lvgl\src\misc\lv_style.h ****     LV_STYLE_LINE_DASH_GAP           = 75,
 194:d:\practise\f407_disc\lvgl\lvgl\src\misc\lv_style.h ****     LV_STYLE_LINE_ROUNDED            = 76,
 195:d:\practise\f407_disc\lvgl\lvgl\src\misc\lv_style.h ****     LV_STYLE_LINE_COLOR              = 77,
 196:d:\practise\f407_disc\lvgl\lvgl\src\misc\lv_style.h ****     LV_STYLE_LINE_COLOR_FILTERED     = 77 | LV_STYLE_PROP_FILTER,
 197:d:\practise\f407_disc\lvgl\lvgl\src\misc\lv_style.h ****     LV_STYLE_LINE_OPA                = 78,
 198:d:\practise\f407_disc\lvgl\lvgl\src\misc\lv_style.h **** 
 199:d:\practise\f407_disc\lvgl\lvgl\src\misc\lv_style.h ****     /*Group 5*/
 200:d:\practise\f407_disc\lvgl\lvgl\src\misc\lv_style.h ****     LV_STYLE_ARC_WIDTH               = 80 | LV_STYLE_PROP_EXT_DRAW,
 201:d:\practise\f407_disc\lvgl\lvgl\src\misc\lv_style.h ****     LV_STYLE_ARC_ROUNDED             = 81,
 202:d:\practise\f407_disc\lvgl\lvgl\src\misc\lv_style.h ****     LV_STYLE_ARC_COLOR               = 82,
 203:d:\practise\f407_disc\lvgl\lvgl\src\misc\lv_style.h ****     LV_STYLE_ARC_COLOR_FILTERED      = 82 | LV_STYLE_PROP_FILTER,
 204:d:\practise\f407_disc\lvgl\lvgl\src\misc\lv_style.h ****     LV_STYLE_ARC_OPA                 = 83,
 205:d:\practise\f407_disc\lvgl\lvgl\src\misc\lv_style.h ****     LV_STYLE_ARC_IMG_SRC             = 84,
 206:d:\practise\f407_disc\lvgl\lvgl\src\misc\lv_style.h **** 
 207:d:\practise\f407_disc\lvgl\lvgl\src\misc\lv_style.h ****     LV_STYLE_TEXT_COLOR              = 87 | LV_STYLE_PROP_INHERIT,
 208:d:\practise\f407_disc\lvgl\lvgl\src\misc\lv_style.h ****     LV_STYLE_TEXT_COLOR_FILTERED     = 87 | LV_STYLE_PROP_INHERIT | LV_STYLE_PROP_FILTER,
 209:d:\practise\f407_disc\lvgl\lvgl\src\misc\lv_style.h ****     LV_STYLE_TEXT_OPA                = 88 | LV_STYLE_PROP_INHERIT,
 210:d:\practise\f407_disc\lvgl\lvgl\src\misc\lv_style.h ****     LV_STYLE_TEXT_FONT               = 89 | LV_STYLE_PROP_INHERIT | LV_STYLE_PROP_LAYOUT_REFR,
 211:d:\practise\f407_disc\lvgl\lvgl\src\misc\lv_style.h ****     LV_STYLE_TEXT_LETTER_SPACE       = 90 | LV_STYLE_PROP_INHERIT | LV_STYLE_PROP_LAYOUT_REFR,
 212:d:\practise\f407_disc\lvgl\lvgl\src\misc\lv_style.h ****     LV_STYLE_TEXT_LINE_SPACE         = 91 | LV_STYLE_PROP_INHERIT | LV_STYLE_PROP_LAYOUT_REFR,
 213:d:\practise\f407_disc\lvgl\lvgl\src\misc\lv_style.h ****     LV_STYLE_TEXT_DECOR              = 92 | LV_STYLE_PROP_INHERIT,
 214:d:\practise\f407_disc\lvgl\lvgl\src\misc\lv_style.h ****     LV_STYLE_TEXT_ALIGN              = 93 | LV_STYLE_PROP_INHERIT | LV_STYLE_PROP_LAYOUT_REFR,
 215:d:\practise\f407_disc\lvgl\lvgl\src\misc\lv_style.h **** 
 216:d:\practise\f407_disc\lvgl\lvgl\src\misc\lv_style.h ****     /*Group 6*/
 217:d:\practise\f407_disc\lvgl\lvgl\src\misc\lv_style.h ****     LV_STYLE_RADIUS                  = 96,
 218:d:\practise\f407_disc\lvgl\lvgl\src\misc\lv_style.h ****     LV_STYLE_CLIP_CORNER             = 97,
 219:d:\practise\f407_disc\lvgl\lvgl\src\misc\lv_style.h ****     LV_STYLE_OPA                     = 98 | LV_STYLE_PROP_INHERIT,
 220:d:\practise\f407_disc\lvgl\lvgl\src\misc\lv_style.h ****     LV_STYLE_COLOR_FILTER_DSC        = 99,
 221:d:\practise\f407_disc\lvgl\lvgl\src\misc\lv_style.h ****     LV_STYLE_COLOR_FILTER_OPA        = 100,
 222:d:\practise\f407_disc\lvgl\lvgl\src\misc\lv_style.h ****     LV_STYLE_ANIM_TIME               = 101,
 223:d:\practise\f407_disc\lvgl\lvgl\src\misc\lv_style.h ****     LV_STYLE_ANIM_SPEED              = 102,
 224:d:\practise\f407_disc\lvgl\lvgl\src\misc\lv_style.h ****     LV_STYLE_TRANSITION              = 103,
 225:d:\practise\f407_disc\lvgl\lvgl\src\misc\lv_style.h ****     LV_STYLE_BLEND_MODE              = 104,
 226:d:\practise\f407_disc\lvgl\lvgl\src\misc\lv_style.h ****     LV_STYLE_LAYOUT                  = 105 | LV_STYLE_PROP_LAYOUT_REFR,
 227:d:\practise\f407_disc\lvgl\lvgl\src\misc\lv_style.h ****     LV_STYLE_BASE_DIR                = 106 | LV_STYLE_PROP_INHERIT | LV_STYLE_PROP_LAYOUT_REFR,
 228:d:\practise\f407_disc\lvgl\lvgl\src\misc\lv_style.h **** 
 229:d:\practise\f407_disc\lvgl\lvgl\src\misc\lv_style.h ****     _LV_STYLE_LAST_BUILT_IN_PROP     = 111,
 230:d:\practise\f407_disc\lvgl\lvgl\src\misc\lv_style.h **** 
 231:d:\practise\f407_disc\lvgl\lvgl\src\misc\lv_style.h ****     LV_STYLE_PROP_ANY                = 0xFFFF
 232:d:\practise\f407_disc\lvgl\lvgl\src\misc\lv_style.h **** }lv_style_prop_t;
 233:d:\practise\f407_disc\lvgl\lvgl\src\misc\lv_style.h **** 
 234:d:\practise\f407_disc\lvgl\lvgl\src\misc\lv_style.h **** /**
 235:d:\practise\f407_disc\lvgl\lvgl\src\misc\lv_style.h ****  * Descriptor for style transitions
 236:d:\practise\f407_disc\lvgl\lvgl\src\misc\lv_style.h ****  */
 237:d:\practise\f407_disc\lvgl\lvgl\src\misc\lv_style.h **** typedef struct {
 238:d:\practise\f407_disc\lvgl\lvgl\src\misc\lv_style.h ****     const lv_style_prop_t * props; /**< An array with the properties to animate.*/
 239:d:\practise\f407_disc\lvgl\lvgl\src\misc\lv_style.h **** #if LV_USE_USER_DATA
 240:d:\practise\f407_disc\lvgl\lvgl\src\misc\lv_style.h ****     void * user_data;              /**< A custom user data that will be passed to the animation's u
 241:d:\practise\f407_disc\lvgl\lvgl\src\misc\lv_style.h **** #endif
 242:d:\practise\f407_disc\lvgl\lvgl\src\misc\lv_style.h ****     lv_anim_path_cb_t path_xcb;     /**< A path for the animation.*/
ARM GAS  C:\Users\gx\AppData\Local\Temp\ccQfGIQ4.s 			page 107


 243:d:\practise\f407_disc\lvgl\lvgl\src\misc\lv_style.h ****     uint32_t time;                 /**< Duration of the transition in [ms]*/
 244:d:\practise\f407_disc\lvgl\lvgl\src\misc\lv_style.h ****     uint32_t delay;                /**< Delay before the transition in [ms]*/
 245:d:\practise\f407_disc\lvgl\lvgl\src\misc\lv_style.h **** }lv_style_transition_dsc_t;
 246:d:\practise\f407_disc\lvgl\lvgl\src\misc\lv_style.h **** 
 247:d:\practise\f407_disc\lvgl\lvgl\src\misc\lv_style.h **** /**
 248:d:\practise\f407_disc\lvgl\lvgl\src\misc\lv_style.h ****  * Descriptor of a constant style property.
 249:d:\practise\f407_disc\lvgl\lvgl\src\misc\lv_style.h ****  */
 250:d:\practise\f407_disc\lvgl\lvgl\src\misc\lv_style.h **** typedef struct {
 251:d:\practise\f407_disc\lvgl\lvgl\src\misc\lv_style.h ****     lv_style_prop_t prop;
 252:d:\practise\f407_disc\lvgl\lvgl\src\misc\lv_style.h ****     lv_style_value_t value;
 253:d:\practise\f407_disc\lvgl\lvgl\src\misc\lv_style.h **** } lv_style_const_prop_t;
 254:d:\practise\f407_disc\lvgl\lvgl\src\misc\lv_style.h **** 
 255:d:\practise\f407_disc\lvgl\lvgl\src\misc\lv_style.h **** /**
 256:d:\practise\f407_disc\lvgl\lvgl\src\misc\lv_style.h ****  * Descriptor of a style (a collection of properties and values).
 257:d:\practise\f407_disc\lvgl\lvgl\src\misc\lv_style.h ****  */
 258:d:\practise\f407_disc\lvgl\lvgl\src\misc\lv_style.h **** typedef struct {
 259:d:\practise\f407_disc\lvgl\lvgl\src\misc\lv_style.h **** 
 260:d:\practise\f407_disc\lvgl\lvgl\src\misc\lv_style.h **** #if LV_USE_ASSERT_STYLE
 261:d:\practise\f407_disc\lvgl\lvgl\src\misc\lv_style.h ****     uint32_t sentinel;
 262:d:\practise\f407_disc\lvgl\lvgl\src\misc\lv_style.h **** #endif
 263:d:\practise\f407_disc\lvgl\lvgl\src\misc\lv_style.h **** 
 264:d:\practise\f407_disc\lvgl\lvgl\src\misc\lv_style.h ****     /*If there is only one property store it directly.
 265:d:\practise\f407_disc\lvgl\lvgl\src\misc\lv_style.h ****      *For more properties allocate an array*/
 266:d:\practise\f407_disc\lvgl\lvgl\src\misc\lv_style.h ****     union {
 267:d:\practise\f407_disc\lvgl\lvgl\src\misc\lv_style.h ****         lv_style_value_t value1;
 268:d:\practise\f407_disc\lvgl\lvgl\src\misc\lv_style.h ****         uint8_t * values_and_props;
 269:d:\practise\f407_disc\lvgl\lvgl\src\misc\lv_style.h ****         const lv_style_const_prop_t * const_props;
 270:d:\practise\f407_disc\lvgl\lvgl\src\misc\lv_style.h ****     } v_p;
 271:d:\practise\f407_disc\lvgl\lvgl\src\misc\lv_style.h **** 
 272:d:\practise\f407_disc\lvgl\lvgl\src\misc\lv_style.h ****     uint16_t prop1 :15;
 273:d:\practise\f407_disc\lvgl\lvgl\src\misc\lv_style.h ****     uint16_t is_const :1;
 274:d:\practise\f407_disc\lvgl\lvgl\src\misc\lv_style.h ****     uint8_t has_group;
 275:d:\practise\f407_disc\lvgl\lvgl\src\misc\lv_style.h ****     uint8_t prop_cnt;
 276:d:\practise\f407_disc\lvgl\lvgl\src\misc\lv_style.h **** } lv_style_t;
 277:d:\practise\f407_disc\lvgl\lvgl\src\misc\lv_style.h **** 
 278:d:\practise\f407_disc\lvgl\lvgl\src\misc\lv_style.h **** /**********************
 279:d:\practise\f407_disc\lvgl\lvgl\src\misc\lv_style.h ****  * GLOBAL PROTOTYPES
 280:d:\practise\f407_disc\lvgl\lvgl\src\misc\lv_style.h ****  **********************/
 281:d:\practise\f407_disc\lvgl\lvgl\src\misc\lv_style.h **** 
 282:d:\practise\f407_disc\lvgl\lvgl\src\misc\lv_style.h **** 
 283:d:\practise\f407_disc\lvgl\lvgl\src\misc\lv_style.h **** /**
 284:d:\practise\f407_disc\lvgl\lvgl\src\misc\lv_style.h ****  * Initialize a style
 285:d:\practise\f407_disc\lvgl\lvgl\src\misc\lv_style.h ****  * @param style pointer to a style to initialize
 286:d:\practise\f407_disc\lvgl\lvgl\src\misc\lv_style.h ****  * @note Do not call `lv_style_init` on styles that are already have some properties
 287:d:\practise\f407_disc\lvgl\lvgl\src\misc\lv_style.h ****  *       because this function won't free the used memory just set a default state for the style.
 288:d:\practise\f407_disc\lvgl\lvgl\src\misc\lv_style.h ****  *       In other words be sure to initialize styles only once!
 289:d:\practise\f407_disc\lvgl\lvgl\src\misc\lv_style.h ****  */
 290:d:\practise\f407_disc\lvgl\lvgl\src\misc\lv_style.h **** void lv_style_init(lv_style_t * style);
 291:d:\practise\f407_disc\lvgl\lvgl\src\misc\lv_style.h **** 
 292:d:\practise\f407_disc\lvgl\lvgl\src\misc\lv_style.h **** /**
 293:d:\practise\f407_disc\lvgl\lvgl\src\misc\lv_style.h ****  * Clear all properties from a style and free all allocated memories.
 294:d:\practise\f407_disc\lvgl\lvgl\src\misc\lv_style.h ****  * @param style pointer to a style
 295:d:\practise\f407_disc\lvgl\lvgl\src\misc\lv_style.h ****  */
 296:d:\practise\f407_disc\lvgl\lvgl\src\misc\lv_style.h **** void lv_style_reset(lv_style_t * style);
 297:d:\practise\f407_disc\lvgl\lvgl\src\misc\lv_style.h **** 
 298:d:\practise\f407_disc\lvgl\lvgl\src\misc\lv_style.h **** /**
 299:d:\practise\f407_disc\lvgl\lvgl\src\misc\lv_style.h ****  * Register a new style property for custom usage
ARM GAS  C:\Users\gx\AppData\Local\Temp\ccQfGIQ4.s 			page 108


 300:d:\practise\f407_disc\lvgl\lvgl\src\misc\lv_style.h ****  * @return a new property ID.
 301:d:\practise\f407_disc\lvgl\lvgl\src\misc\lv_style.h ****  * @example
 302:d:\practise\f407_disc\lvgl\lvgl\src\misc\lv_style.h ****  * lv_style_prop_t MY_PROP;
 303:d:\practise\f407_disc\lvgl\lvgl\src\misc\lv_style.h ****  * static inline void lv_style_set_my_prop(lv_style_t * style, lv_color_t value) {
 304:d:\practise\f407_disc\lvgl\lvgl\src\misc\lv_style.h ****  * lv_style_value_t v = {.color = value}; lv_style_set_prop(style, MY_PROP, v); }
 305:d:\practise\f407_disc\lvgl\lvgl\src\misc\lv_style.h ****  *
 306:d:\practise\f407_disc\lvgl\lvgl\src\misc\lv_style.h ****  * ...
 307:d:\practise\f407_disc\lvgl\lvgl\src\misc\lv_style.h ****  * MY_PROP = lv_style_register_prop();
 308:d:\practise\f407_disc\lvgl\lvgl\src\misc\lv_style.h ****  * ...
 309:d:\practise\f407_disc\lvgl\lvgl\src\misc\lv_style.h ****  * lv_style_set_my_prop(&style1, lv_palette_main(LV_PALETTE_RED));
 310:d:\practise\f407_disc\lvgl\lvgl\src\misc\lv_style.h ****  */
 311:d:\practise\f407_disc\lvgl\lvgl\src\misc\lv_style.h **** lv_style_prop_t lv_style_register_prop(void);
 312:d:\practise\f407_disc\lvgl\lvgl\src\misc\lv_style.h **** 
 313:d:\practise\f407_disc\lvgl\lvgl\src\misc\lv_style.h **** /**
 314:d:\practise\f407_disc\lvgl\lvgl\src\misc\lv_style.h ****  * Remove a property from a style
 315:d:\practise\f407_disc\lvgl\lvgl\src\misc\lv_style.h ****  * @param style pointer to a style
 316:d:\practise\f407_disc\lvgl\lvgl\src\misc\lv_style.h ****  * @param prop  a style property ORed with a state.
 317:d:\practise\f407_disc\lvgl\lvgl\src\misc\lv_style.h ****  * @return true: the property was found and removed; false: the property wasn't found
 318:d:\practise\f407_disc\lvgl\lvgl\src\misc\lv_style.h ****  */
 319:d:\practise\f407_disc\lvgl\lvgl\src\misc\lv_style.h **** bool lv_style_remove_prop(lv_style_t * style, lv_style_prop_t prop);
 320:d:\practise\f407_disc\lvgl\lvgl\src\misc\lv_style.h **** 
 321:d:\practise\f407_disc\lvgl\lvgl\src\misc\lv_style.h **** /**
 322:d:\practise\f407_disc\lvgl\lvgl\src\misc\lv_style.h ****  * Set the value of property in a style.
 323:d:\practise\f407_disc\lvgl\lvgl\src\misc\lv_style.h ****  * This function shouldn't be used directly by the user.
 324:d:\practise\f407_disc\lvgl\lvgl\src\misc\lv_style.h ****  * Instead use `lv_style_set_<prop_name>()`. E.g. `lv_style_set_bg_color()`
 325:d:\practise\f407_disc\lvgl\lvgl\src\misc\lv_style.h ****  * @param style pointer to style
 326:d:\practise\f407_disc\lvgl\lvgl\src\misc\lv_style.h ****  * @param prop the ID of a property (e.g. `LV_STLYE_BG_COLOR`)
 327:d:\practise\f407_disc\lvgl\lvgl\src\misc\lv_style.h ****  * @param value `lv_style_value_t` variable in which a filed is set according to the type of `prop`
 328:d:\practise\f407_disc\lvgl\lvgl\src\misc\lv_style.h ****  */
 329:d:\practise\f407_disc\lvgl\lvgl\src\misc\lv_style.h **** void lv_style_set_prop(lv_style_t * style, lv_style_prop_t prop, lv_style_value_t value);
 330:d:\practise\f407_disc\lvgl\lvgl\src\misc\lv_style.h **** 
 331:d:\practise\f407_disc\lvgl\lvgl\src\misc\lv_style.h **** /**
 332:d:\practise\f407_disc\lvgl\lvgl\src\misc\lv_style.h ****  * Get the value of a property
 333:d:\practise\f407_disc\lvgl\lvgl\src\misc\lv_style.h ****  * @param style pointer to a style
 334:d:\practise\f407_disc\lvgl\lvgl\src\misc\lv_style.h ****  * @param prop  the ID of a property
 335:d:\practise\f407_disc\lvgl\lvgl\src\misc\lv_style.h ****  * @param value pointer to a `lv_style_value_t` variable to store the value
 336:d:\practise\f407_disc\lvgl\lvgl\src\misc\lv_style.h ****  * @return LV_RES_INV: the property wsn't found in the style (`value` is unchanged)
 337:d:\practise\f407_disc\lvgl\lvgl\src\misc\lv_style.h ****  *         LV_RES_OK: the property was fond, and `value` is set accordingly
 338:d:\practise\f407_disc\lvgl\lvgl\src\misc\lv_style.h ****  * @note For performance reasons there are no sanity check on `style`
 339:d:\practise\f407_disc\lvgl\lvgl\src\misc\lv_style.h ****  */
 340:d:\practise\f407_disc\lvgl\lvgl\src\misc\lv_style.h **** lv_res_t lv_style_get_prop(lv_style_t * style, lv_style_prop_t prop, lv_style_value_t * value);
 341:d:\practise\f407_disc\lvgl\lvgl\src\misc\lv_style.h **** 
 342:d:\practise\f407_disc\lvgl\lvgl\src\misc\lv_style.h **** 
 343:d:\practise\f407_disc\lvgl\lvgl\src\misc\lv_style.h **** /**
 344:d:\practise\f407_disc\lvgl\lvgl\src\misc\lv_style.h ****  * Get the value of a property
 345:d:\practise\f407_disc\lvgl\lvgl\src\misc\lv_style.h ****  * @param style pointer to a style
 346:d:\practise\f407_disc\lvgl\lvgl\src\misc\lv_style.h ****  * @param prop  the ID of a property
 347:d:\practise\f407_disc\lvgl\lvgl\src\misc\lv_style.h ****  * @param value pointer to a `lv_style_value_t` variable to store the value
 348:d:\practise\f407_disc\lvgl\lvgl\src\misc\lv_style.h ****  * @return LV_RES_INV: the property wsn't found in the style (`value` is unchanged)
 349:d:\practise\f407_disc\lvgl\lvgl\src\misc\lv_style.h ****  *         LV_RES_OK: the property was fond, and `value` is set accordingly
 350:d:\practise\f407_disc\lvgl\lvgl\src\misc\lv_style.h ****  * @note For performance reasons there are no sanity check on `style`
 351:d:\practise\f407_disc\lvgl\lvgl\src\misc\lv_style.h ****  * @note This function is the same as ::lv_style_get_prop but inlined. Use it only on performance c
 352:d:\practise\f407_disc\lvgl\lvgl\src\misc\lv_style.h ****  */
 353:d:\practise\f407_disc\lvgl\lvgl\src\misc\lv_style.h **** static inline lv_res_t lv_style_get_prop_inlined(lv_style_t * style, lv_style_prop_t prop, lv_style
 354:d:\practise\f407_disc\lvgl\lvgl\src\misc\lv_style.h **** {
 355:d:\practise\f407_disc\lvgl\lvgl\src\misc\lv_style.h ****     if(style->is_const) {
 356:d:\practise\f407_disc\lvgl\lvgl\src\misc\lv_style.h ****         const lv_style_const_prop_t *const_prop;
ARM GAS  C:\Users\gx\AppData\Local\Temp\ccQfGIQ4.s 			page 109


 357:d:\practise\f407_disc\lvgl\lvgl\src\misc\lv_style.h ****         for(const_prop = style->v_p.const_props; const_prop->prop != LV_STYLE_PROP_INV; const_prop+
 358:d:\practise\f407_disc\lvgl\lvgl\src\misc\lv_style.h ****             if(const_prop->prop == prop) {
 359:d:\practise\f407_disc\lvgl\lvgl\src\misc\lv_style.h ****                 *value = const_prop->value;
 360:d:\practise\f407_disc\lvgl\lvgl\src\misc\lv_style.h ****                 return LV_RES_OK;
 361:d:\practise\f407_disc\lvgl\lvgl\src\misc\lv_style.h ****             }
 362:d:\practise\f407_disc\lvgl\lvgl\src\misc\lv_style.h ****         }
 363:d:\practise\f407_disc\lvgl\lvgl\src\misc\lv_style.h ****         return LV_RES_INV;
 364:d:\practise\f407_disc\lvgl\lvgl\src\misc\lv_style.h ****     }
 365:d:\practise\f407_disc\lvgl\lvgl\src\misc\lv_style.h **** 
 366:d:\practise\f407_disc\lvgl\lvgl\src\misc\lv_style.h ****     if(style->prop_cnt == 0) return LV_RES_INV;
 367:d:\practise\f407_disc\lvgl\lvgl\src\misc\lv_style.h **** 
 368:d:\practise\f407_disc\lvgl\lvgl\src\misc\lv_style.h ****     if(style->prop_cnt > 1) {
 369:d:\practise\f407_disc\lvgl\lvgl\src\misc\lv_style.h ****         uint8_t * tmp = style->v_p.values_and_props + style->prop_cnt * sizeof(lv_style_value_t);
 370:d:\practise\f407_disc\lvgl\lvgl\src\misc\lv_style.h ****         uint16_t * props = (uint16_t *)tmp;
 371:d:\practise\f407_disc\lvgl\lvgl\src\misc\lv_style.h ****         uint32_t i;
 372:d:\practise\f407_disc\lvgl\lvgl\src\misc\lv_style.h ****         for(i = 0; i < style->prop_cnt; i++) {
 373:d:\practise\f407_disc\lvgl\lvgl\src\misc\lv_style.h ****             if(props[i] == prop) {
 374:d:\practise\f407_disc\lvgl\lvgl\src\misc\lv_style.h ****                 lv_style_value_t * values = (lv_style_value_t *)style->v_p.values_and_props;
 375:d:\practise\f407_disc\lvgl\lvgl\src\misc\lv_style.h ****                 *value = values[i];
 376:d:\practise\f407_disc\lvgl\lvgl\src\misc\lv_style.h ****                 return LV_RES_OK;
 377:d:\practise\f407_disc\lvgl\lvgl\src\misc\lv_style.h ****             }
 378:d:\practise\f407_disc\lvgl\lvgl\src\misc\lv_style.h ****         }
 379:d:\practise\f407_disc\lvgl\lvgl\src\misc\lv_style.h ****     } else if(style->prop1 == prop) {
 380:d:\practise\f407_disc\lvgl\lvgl\src\misc\lv_style.h ****         *value = style->v_p.value1;
 381:d:\practise\f407_disc\lvgl\lvgl\src\misc\lv_style.h ****         return LV_RES_OK;
 382:d:\practise\f407_disc\lvgl\lvgl\src\misc\lv_style.h ****     }
 383:d:\practise\f407_disc\lvgl\lvgl\src\misc\lv_style.h ****     return LV_RES_INV;
 384:d:\practise\f407_disc\lvgl\lvgl\src\misc\lv_style.h **** }
 385:d:\practise\f407_disc\lvgl\lvgl\src\misc\lv_style.h **** 
 386:d:\practise\f407_disc\lvgl\lvgl\src\misc\lv_style.h **** /**
 387:d:\practise\f407_disc\lvgl\lvgl\src\misc\lv_style.h ****  * Initialize a transition descriptor.
 388:d:\practise\f407_disc\lvgl\lvgl\src\misc\lv_style.h ****  * @param tr        pointer to a transition descriptor to initialize
 389:d:\practise\f407_disc\lvgl\lvgl\src\misc\lv_style.h ****  * @param props     an array with the properties to transition. The last element must be zero.
 390:d:\practise\f407_disc\lvgl\lvgl\src\misc\lv_style.h ****  * @param path_cb   an animation path (ease) callback. If `NULL` liner path will be used.
 391:d:\practise\f407_disc\lvgl\lvgl\src\misc\lv_style.h ****  * @param time      duration of the transition in [ms]
 392:d:\practise\f407_disc\lvgl\lvgl\src\misc\lv_style.h ****  * @param delay     delay before the transition in [ms]
 393:d:\practise\f407_disc\lvgl\lvgl\src\misc\lv_style.h ****  * @param user_data any custom data that will be saved in the transition animation and will be avai
 394:d:\practise\f407_disc\lvgl\lvgl\src\misc\lv_style.h ****  * @example
 395:d:\practise\f407_disc\lvgl\lvgl\src\misc\lv_style.h ****  * const static lv_style_prop_t trans_props[] = { LV_STYLE_BG_OPA, LV_STYLE_BG_COLOR, 0 };
 396:d:\practise\f407_disc\lvgl\lvgl\src\misc\lv_style.h ****  *  static lv_style_transition_dsc_t trans1;
 397:d:\practise\f407_disc\lvgl\lvgl\src\misc\lv_style.h ****  *  lv_style_transition_dsc_init(&trans1, trans_props, NULL, 300, 0, NULL);
 398:d:\practise\f407_disc\lvgl\lvgl\src\misc\lv_style.h ****  */
 399:d:\practise\f407_disc\lvgl\lvgl\src\misc\lv_style.h **** void lv_style_transition_dsc_init(lv_style_transition_dsc_t * tr, const lv_style_prop_t props[], lv
 400:d:\practise\f407_disc\lvgl\lvgl\src\misc\lv_style.h **** 
 401:d:\practise\f407_disc\lvgl\lvgl\src\misc\lv_style.h **** /**
 402:d:\practise\f407_disc\lvgl\lvgl\src\misc\lv_style.h ****  * Get the default value of a property
 403:d:\practise\f407_disc\lvgl\lvgl\src\misc\lv_style.h ****  * @param prop the ID of a property
 404:d:\practise\f407_disc\lvgl\lvgl\src\misc\lv_style.h ****  * @return the default value
 405:d:\practise\f407_disc\lvgl\lvgl\src\misc\lv_style.h ****  */
 406:d:\practise\f407_disc\lvgl\lvgl\src\misc\lv_style.h **** lv_style_value_t lv_style_prop_get_default(lv_style_prop_t prop);
 407:d:\practise\f407_disc\lvgl\lvgl\src\misc\lv_style.h **** 
 408:d:\practise\f407_disc\lvgl\lvgl\src\misc\lv_style.h **** /**
 409:d:\practise\f407_disc\lvgl\lvgl\src\misc\lv_style.h ****  * Checks if a style is empty (has no properties)
 410:d:\practise\f407_disc\lvgl\lvgl\src\misc\lv_style.h ****  * @param style pointer to a style
 411:d:\practise\f407_disc\lvgl\lvgl\src\misc\lv_style.h ****  * @return
 412:d:\practise\f407_disc\lvgl\lvgl\src\misc\lv_style.h ****  */
 413:d:\practise\f407_disc\lvgl\lvgl\src\misc\lv_style.h **** bool lv_style_is_empty(const lv_style_t * style);
ARM GAS  C:\Users\gx\AppData\Local\Temp\ccQfGIQ4.s 			page 110


 414:d:\practise\f407_disc\lvgl\lvgl\src\misc\lv_style.h **** 
 415:d:\practise\f407_disc\lvgl\lvgl\src\misc\lv_style.h **** /**
 416:d:\practise\f407_disc\lvgl\lvgl\src\misc\lv_style.h ****  * Tell the group of a property. If the a property from a group is set in a style the (1 << group) 
 417:d:\practise\f407_disc\lvgl\lvgl\src\misc\lv_style.h ****  * It allows early skipping the style if the property is not exists in the style at all.
 418:d:\practise\f407_disc\lvgl\lvgl\src\misc\lv_style.h ****  * @param prop a style property
 419:d:\practise\f407_disc\lvgl\lvgl\src\misc\lv_style.h ****  * @return the group [0..7] 7 means all the custom properties with index > 112
 420:d:\practise\f407_disc\lvgl\lvgl\src\misc\lv_style.h ****  */
 421:d:\practise\f407_disc\lvgl\lvgl\src\misc\lv_style.h **** uint8_t _lv_style_get_prop_group(lv_style_prop_t prop);
 422:d:\practise\f407_disc\lvgl\lvgl\src\misc\lv_style.h **** 
 423:d:\practise\f407_disc\lvgl\lvgl\src\misc\lv_style.h **** #include "lv_style_gen.h"
 424:d:\practise\f407_disc\lvgl\lvgl\src\misc\lv_style.h **** 
 425:d:\practise\f407_disc\lvgl\lvgl\src\misc\lv_style.h **** static inline void lv_style_set_pad_all(lv_style_t * style, lv_coord_t value) {
 426:d:\practise\f407_disc\lvgl\lvgl\src\misc\lv_style.h ****     lv_style_set_pad_left(style, value);
 427:d:\practise\f407_disc\lvgl\lvgl\src\misc\lv_style.h ****     lv_style_set_pad_right(style, value);
 428:d:\practise\f407_disc\lvgl\lvgl\src\misc\lv_style.h ****     lv_style_set_pad_top(style, value);
 429:d:\practise\f407_disc\lvgl\lvgl\src\misc\lv_style.h ****     lv_style_set_pad_bottom(style, value);
 430:d:\practise\f407_disc\lvgl\lvgl\src\misc\lv_style.h **** }
 431:d:\practise\f407_disc\lvgl\lvgl\src\misc\lv_style.h **** 
 432:d:\practise\f407_disc\lvgl\lvgl\src\misc\lv_style.h **** static inline void lv_style_set_pad_hor(lv_style_t * style, lv_coord_t value) {
 433:d:\practise\f407_disc\lvgl\lvgl\src\misc\lv_style.h ****     lv_style_set_pad_left(style, value);
 434:d:\practise\f407_disc\lvgl\lvgl\src\misc\lv_style.h ****     lv_style_set_pad_right(style, value);
 435:d:\practise\f407_disc\lvgl\lvgl\src\misc\lv_style.h **** }
 436:d:\practise\f407_disc\lvgl\lvgl\src\misc\lv_style.h **** 
 437:d:\practise\f407_disc\lvgl\lvgl\src\misc\lv_style.h **** static inline void lv_style_set_pad_ver(lv_style_t * style, lv_coord_t value) {
 438:d:\practise\f407_disc\lvgl\lvgl\src\misc\lv_style.h ****     lv_style_set_pad_top(style, value);
 439:d:\practise\f407_disc\lvgl\lvgl\src\misc\lv_style.h ****     lv_style_set_pad_bottom(style, value);
 440:d:\practise\f407_disc\lvgl\lvgl\src\misc\lv_style.h **** }
 441:d:\practise\f407_disc\lvgl\lvgl\src\misc\lv_style.h **** 
 442:d:\practise\f407_disc\lvgl\lvgl\src\misc\lv_style.h **** static inline void lv_style_set_pad_gap(lv_style_t * style, lv_coord_t value) {
 443:d:\practise\f407_disc\lvgl\lvgl\src\misc\lv_style.h ****     lv_style_set_pad_row(style, value);
 444:d:\practise\f407_disc\lvgl\lvgl\src\misc\lv_style.h ****     lv_style_set_pad_column(style, value);
 445:d:\practise\f407_disc\lvgl\lvgl\src\misc\lv_style.h **** }
 446:d:\practise\f407_disc\lvgl\lvgl\src\misc\lv_style.h **** 
 447:d:\practise\f407_disc\lvgl\lvgl\src\misc\lv_style.h **** static inline void lv_style_set_size(lv_style_t * style, lv_coord_t value) {
 3084              		.loc 4 447 20 is_stmt 1 view .LVU929
 3085              	.LBB427:
 448:d:\practise\f407_disc\lvgl\lvgl\src\misc\lv_style.h ****     lv_style_set_width(style, value);
 3086              		.loc 4 448 5 view .LVU930
 3087 0172 2146     		mov	r1, r4
 3088 0174 2846     		mov	r0, r5
 3089 0176 FFF7FEFF 		bl	lv_style_set_width
 3090              	.LVL322:
 449:d:\practise\f407_disc\lvgl\lvgl\src\misc\lv_style.h ****     lv_style_set_height(style, value);
 3091              		.loc 4 449 5 view .LVU931
 3092 017a 2146     		mov	r1, r4
 3093 017c 2846     		mov	r0, r5
 3094 017e FFF7FEFF 		bl	lv_style_set_height
 3095              	.LVL323:
 3096              		.loc 4 449 5 is_stmt 0 view .LVU932
 3097              	.LBE427:
 3098              	.LBE426:
 233:lvgl/lvgl/src/extra/themes/default/lv_theme_default.c ****     lv_style_set_transition(&styles->scrollbar, &trans_normal);
 3099              		.loc 1 233 5 is_stmt 1 view .LVU933
 233:lvgl/lvgl/src/extra/themes/default/lv_theme_default.c ****     lv_style_set_transition(&styles->scrollbar, &trans_normal);
 3100              		.loc 1 233 32 is_stmt 0 view .LVU934
 3101 0182 744C     		ldr	r4, .L570+32
 3102 0184 2068     		ldr	r0, [r4]
ARM GAS  C:\Users\gx\AppData\Local\Temp\ccQfGIQ4.s 			page 111


 233:lvgl/lvgl/src/extra/themes/default/lv_theme_default.c ****     lv_style_set_transition(&styles->scrollbar, &trans_normal);
 3103              		.loc 1 233 5 view .LVU935
 3104 0186 6621     		movs	r1, #102
 3105 0188 0830     		adds	r0, r0, #8
 3106 018a FFF7FEFF 		bl	lv_style_set_bg_opa
 3107              	.LVL324:
 234:lvgl/lvgl/src/extra/themes/default/lv_theme_default.c **** 
 3108              		.loc 1 234 5 is_stmt 1 view .LVU936
 234:lvgl/lvgl/src/extra/themes/default/lv_theme_default.c **** 
 3109              		.loc 1 234 36 is_stmt 0 view .LVU937
 3110 018e 2068     		ldr	r0, [r4]
 234:lvgl/lvgl/src/extra/themes/default/lv_theme_default.c **** 
 3111              		.loc 1 234 5 view .LVU938
 3112 0190 6F49     		ldr	r1, .L570+28
 3113 0192 0830     		adds	r0, r0, #8
 3114 0194 FFF7FEFF 		bl	lv_style_set_transition
 3115              	.LVL325:
 236:lvgl/lvgl/src/extra/themes/default/lv_theme_default.c ****     lv_style_set_bg_opa(&styles->scrollbar_scrolled,  LV_OPA_COVER);
 3116              		.loc 1 236 5 is_stmt 1 view .LVU939
 236:lvgl/lvgl/src/extra/themes/default/lv_theme_default.c ****     lv_style_set_bg_opa(&styles->scrollbar_scrolled,  LV_OPA_COVER);
 3117              		.loc 1 236 29 is_stmt 0 view .LVU940
 3118 0198 2068     		ldr	r0, [r4]
 236:lvgl/lvgl/src/extra/themes/default/lv_theme_default.c ****     lv_style_set_bg_opa(&styles->scrollbar_scrolled,  LV_OPA_COVER);
 3119              		.loc 1 236 5 view .LVU941
 3120 019a 1030     		adds	r0, r0, #16
 3121 019c FFF7FEFF 		bl	style_init_reset
 3122              	.LVL326:
 237:lvgl/lvgl/src/extra/themes/default/lv_theme_default.c **** 
 3123              		.loc 1 237 5 is_stmt 1 view .LVU942
 237:lvgl/lvgl/src/extra/themes/default/lv_theme_default.c **** 
 3124              		.loc 1 237 32 is_stmt 0 view .LVU943
 3125 01a0 2068     		ldr	r0, [r4]
 237:lvgl/lvgl/src/extra/themes/default/lv_theme_default.c **** 
 3126              		.loc 1 237 5 view .LVU944
 3127 01a2 FF21     		movs	r1, #255
 3128 01a4 1030     		adds	r0, r0, #16
 3129 01a6 FFF7FEFF 		bl	lv_style_set_bg_opa
 3130              	.LVL327:
 239:lvgl/lvgl/src/extra/themes/default/lv_theme_default.c ****     lv_style_set_bg_opa(&styles->scr, LV_OPA_COVER);
 3131              		.loc 1 239 5 is_stmt 1 view .LVU945
 3132 01aa 2068     		ldr	r0, [r4]
 3133 01ac FFF7FEFF 		bl	style_init_reset
 3134              	.LVL328:
 240:lvgl/lvgl/src/extra/themes/default/lv_theme_default.c ****     lv_style_set_bg_color(&styles->scr, color_scr);
 3135              		.loc 1 240 5 view .LVU946
 3136 01b0 FF21     		movs	r1, #255
 3137 01b2 2068     		ldr	r0, [r4]
 3138 01b4 FFF7FEFF 		bl	lv_style_set_bg_opa
 3139              	.LVL329:
 241:lvgl/lvgl/src/extra/themes/default/lv_theme_default.c ****     lv_style_set_text_color(&styles->scr, color_text);
 3140              		.loc 1 241 5 view .LVU947
 3141 01b8 5F4B     		ldr	r3, .L570+4
 3142 01ba 1988     		ldrh	r1, [r3]
 3143 01bc 2068     		ldr	r0, [r4]
 3144 01be FFF7FEFF 		bl	lv_style_set_bg_color
 3145              	.LVL330:
 242:lvgl/lvgl/src/extra/themes/default/lv_theme_default.c ****     lv_style_set_pad_row(&styles->scr, PAD_SMALL);
ARM GAS  C:\Users\gx\AppData\Local\Temp\ccQfGIQ4.s 			page 112


 3146              		.loc 1 242 5 view .LVU948
 3147 01c2 5E4B     		ldr	r3, .L570+8
 3148 01c4 1988     		ldrh	r1, [r3]
 3149 01c6 2068     		ldr	r0, [r4]
 3150 01c8 FFF7FEFF 		bl	lv_style_set_text_color
 3151              	.LVL331:
 243:lvgl/lvgl/src/extra/themes/default/lv_theme_default.c ****     lv_style_set_pad_column(&styles->scr, PAD_SMALL);
 3152              		.loc 1 243 5 view .LVU949
 243:lvgl/lvgl/src/extra/themes/default/lv_theme_default.c ****     lv_style_set_pad_column(&styles->scr, PAD_SMALL);
 3153              		.loc 1 243 33 is_stmt 0 view .LVU950
 3154 01cc 2468     		ldr	r4, [r4]
 243:lvgl/lvgl/src/extra/themes/default/lv_theme_default.c ****     lv_style_set_pad_column(&styles->scr, PAD_SMALL);
 3155              		.loc 1 243 40 view .LVU951
 3156 01ce 624B     		ldr	r3, .L570+36
 3157 01d0 1B78     		ldrb	r3, [r3]	@ zero_extendqisi2
 243:lvgl/lvgl/src/extra/themes/default/lv_theme_default.c ****     lv_style_set_pad_column(&styles->scr, PAD_SMALL);
 3158              		.loc 1 243 5 view .LVU952
 3159 01d2 012B     		cmp	r3, #1
 3160 01d4 01F0E681 		beq	.L405
 243:lvgl/lvgl/src/extra/themes/default/lv_theme_default.c ****     lv_style_set_pad_column(&styles->scr, PAD_SMALL);
 3161              		.loc 1 243 5 discriminator 2 view .LVU953
 3162 01d8 022B     		cmp	r3, #2
 3163 01da 01F00082 		beq	.L406
 243:lvgl/lvgl/src/extra/themes/default/lv_theme_default.c ****     lv_style_set_pad_column(&styles->scr, PAD_SMALL);
 3164              		.loc 1 243 40 discriminator 5 view .LVU954
 3165 01de 554B     		ldr	r3, .L570
 3166 01e0 DD68     		ldr	r5, [r3, #12]
 3167              	.LVL332:
 3168              	.LBB428:
 3169              	.LBI428:
 236:d:\practise\f407_disc\lvgl\lvgl\src/core\lv_disp.h **** {
 3170              		.loc 3 236 26 is_stmt 1 discriminator 5 view .LVU955
 3171              	.LBB429:
 3172              		.loc 3 238 5 discriminator 5 view .LVU956
 3173              		.loc 3 238 12 is_stmt 0 discriminator 5 view .LVU957
 3174 01e2 2846     		mov	r0, r5
 3175 01e4 FFF7FEFF 		bl	lv_disp_get_dpi
 3176              	.LVL333:
 3177 01e8 00EB8000 		add	r0, r0, r0, lsl #2
 3178 01ec 4000     		lsls	r0, r0, #1
 3179 01ee EF28     		cmp	r0, #239
 3180 01f0 01F31282 		bgt	.L407
 3181              		.loc 3 238 12 view .LVU958
 3182 01f4 0121     		movs	r1, #1
 3183              	.LVL334:
 3184              	.L93:
 3185              		.loc 3 238 12 view .LVU959
 3186              	.LBE429:
 3187              	.LBE428:
 243:lvgl/lvgl/src/extra/themes/default/lv_theme_default.c ****     lv_style_set_pad_column(&styles->scr, PAD_SMALL);
 3188              		.loc 1 243 5 discriminator 8 view .LVU960
 3189 01f6 2046     		mov	r0, r4
 3190 01f8 FFF7FEFF 		bl	lv_style_set_pad_row
 3191              	.LVL335:
 244:lvgl/lvgl/src/extra/themes/default/lv_theme_default.c **** 
 3192              		.loc 1 244 5 is_stmt 1 discriminator 8 view .LVU961
 244:lvgl/lvgl/src/extra/themes/default/lv_theme_default.c **** 
ARM GAS  C:\Users\gx\AppData\Local\Temp\ccQfGIQ4.s 			page 113


 3193              		.loc 1 244 36 is_stmt 0 discriminator 8 view .LVU962
 3194 01fc 554B     		ldr	r3, .L570+32
 3195 01fe 1C68     		ldr	r4, [r3]
 244:lvgl/lvgl/src/extra/themes/default/lv_theme_default.c **** 
 3196              		.loc 1 244 43 discriminator 8 view .LVU963
 3197 0200 554B     		ldr	r3, .L570+36
 3198 0202 1B78     		ldrb	r3, [r3]	@ zero_extendqisi2
 244:lvgl/lvgl/src/extra/themes/default/lv_theme_default.c **** 
 3199              		.loc 1 244 5 discriminator 8 view .LVU964
 3200 0204 012B     		cmp	r3, #1
 3201 0206 01F01782 		beq	.L408
 244:lvgl/lvgl/src/extra/themes/default/lv_theme_default.c **** 
 3202              		.loc 1 244 5 discriminator 2 view .LVU965
 3203 020a 022B     		cmp	r3, #2
 3204 020c 01F03182 		beq	.L409
 244:lvgl/lvgl/src/extra/themes/default/lv_theme_default.c **** 
 3205              		.loc 1 244 43 discriminator 5 view .LVU966
 3206 0210 484B     		ldr	r3, .L570
 3207 0212 DD68     		ldr	r5, [r3, #12]
 3208              	.LVL336:
 3209              	.LBB431:
 3210              	.LBI431:
 236:d:\practise\f407_disc\lvgl\lvgl\src/core\lv_disp.h **** {
 3211              		.loc 3 236 26 is_stmt 1 discriminator 5 view .LVU967
 3212              	.LBB432:
 3213              		.loc 3 238 5 discriminator 5 view .LVU968
 3214              		.loc 3 238 12 is_stmt 0 discriminator 5 view .LVU969
 3215 0214 2846     		mov	r0, r5
 3216 0216 FFF7FEFF 		bl	lv_disp_get_dpi
 3217              	.LVL337:
 3218 021a 00EB8000 		add	r0, r0, r0, lsl #2
 3219 021e 4000     		lsls	r0, r0, #1
 3220 0220 EF28     		cmp	r0, #239
 3221 0222 01F34382 		bgt	.L410
 3222              		.loc 3 238 12 view .LVU970
 3223 0226 0121     		movs	r1, #1
 3224              	.LVL338:
 3225              	.L99:
 3226              		.loc 3 238 12 view .LVU971
 3227              	.LBE432:
 3228              	.LBE431:
 244:lvgl/lvgl/src/extra/themes/default/lv_theme_default.c **** 
 3229              		.loc 1 244 5 discriminator 8 view .LVU972
 3230 0228 2046     		mov	r0, r4
 3231 022a FFF7FEFF 		bl	lv_style_set_pad_column
 3232              	.LVL339:
 246:lvgl/lvgl/src/extra/themes/default/lv_theme_default.c ****     lv_style_set_radius(&styles->card, RADIUS_DEFAULT);
 3233              		.loc 1 246 5 is_stmt 1 discriminator 8 view .LVU973
 246:lvgl/lvgl/src/extra/themes/default/lv_theme_default.c ****     lv_style_set_radius(&styles->card, RADIUS_DEFAULT);
 3234              		.loc 1 246 29 is_stmt 0 discriminator 8 view .LVU974
 3235 022e 494C     		ldr	r4, .L570+32
 3236 0230 2068     		ldr	r0, [r4]
 246:lvgl/lvgl/src/extra/themes/default/lv_theme_default.c ****     lv_style_set_radius(&styles->card, RADIUS_DEFAULT);
 3237              		.loc 1 246 5 discriminator 8 view .LVU975
 3238 0232 1830     		adds	r0, r0, #24
 3239 0234 FFF7FEFF 		bl	style_init_reset
 3240              	.LVL340:
ARM GAS  C:\Users\gx\AppData\Local\Temp\ccQfGIQ4.s 			page 114


 247:lvgl/lvgl/src/extra/themes/default/lv_theme_default.c ****     lv_style_set_bg_opa(&styles->card, LV_OPA_COVER);
 3241              		.loc 1 247 5 is_stmt 1 discriminator 8 view .LVU976
 247:lvgl/lvgl/src/extra/themes/default/lv_theme_default.c ****     lv_style_set_bg_opa(&styles->card, LV_OPA_COVER);
 3242              		.loc 1 247 32 is_stmt 0 discriminator 8 view .LVU977
 3243 0238 2468     		ldr	r4, [r4]
 247:lvgl/lvgl/src/extra/themes/default/lv_theme_default.c ****     lv_style_set_bg_opa(&styles->card, LV_OPA_COVER);
 3244              		.loc 1 247 5 discriminator 8 view .LVU978
 3245 023a 1834     		adds	r4, r4, #24
 247:lvgl/lvgl/src/extra/themes/default/lv_theme_default.c ****     lv_style_set_bg_opa(&styles->card, LV_OPA_COVER);
 3246              		.loc 1 247 40 discriminator 8 view .LVU979
 3247 023c 464B     		ldr	r3, .L570+36
 3248 023e 1B78     		ldrb	r3, [r3]	@ zero_extendqisi2
 247:lvgl/lvgl/src/extra/themes/default/lv_theme_default.c ****     lv_style_set_bg_opa(&styles->card, LV_OPA_COVER);
 3249              		.loc 1 247 5 discriminator 8 view .LVU980
 3250 0240 012B     		cmp	r3, #1
 3251 0242 01F04382 		beq	.L411
 247:lvgl/lvgl/src/extra/themes/default/lv_theme_default.c ****     lv_style_set_bg_opa(&styles->card, LV_OPA_COVER);
 3252              		.loc 1 247 40 discriminator 2 view .LVU981
 3253 0246 3B4B     		ldr	r3, .L570
 3254 0248 DD68     		ldr	r5, [r3, #12]
 3255              	.LVL341:
 3256              	.LBB434:
 3257              	.LBI434:
 236:d:\practise\f407_disc\lvgl\lvgl\src/core\lv_disp.h **** {
 3258              		.loc 3 236 26 is_stmt 1 discriminator 2 view .LVU982
 3259              	.LBB435:
 3260              		.loc 3 238 5 discriminator 2 view .LVU983
 3261              		.loc 3 238 12 is_stmt 0 discriminator 2 view .LVU984
 3262 024a 2846     		mov	r0, r5
 3263 024c FFF7FEFF 		bl	lv_disp_get_dpi
 3264              	.LVL342:
 3265 0250 C000     		lsls	r0, r0, #3
 3266 0252 EF28     		cmp	r0, #239
 3267 0254 01F35782 		bgt	.L412
 3268              		.loc 3 238 12 view .LVU985
 3269 0258 0121     		movs	r1, #1
 3270              	.LVL343:
 3271              	.L105:
 3272              		.loc 3 238 12 view .LVU986
 3273              	.LBE435:
 3274              	.LBE434:
 247:lvgl/lvgl/src/extra/themes/default/lv_theme_default.c ****     lv_style_set_bg_opa(&styles->card, LV_OPA_COVER);
 3275              		.loc 1 247 5 discriminator 4 view .LVU987
 3276 025a 2046     		mov	r0, r4
 3277 025c FFF7FEFF 		bl	lv_style_set_radius
 3278              	.LVL344:
 248:lvgl/lvgl/src/extra/themes/default/lv_theme_default.c ****     lv_style_set_bg_color(&styles->card, color_card);
 3279              		.loc 1 248 5 is_stmt 1 discriminator 4 view .LVU988
 248:lvgl/lvgl/src/extra/themes/default/lv_theme_default.c ****     lv_style_set_bg_color(&styles->card, color_card);
 3280              		.loc 1 248 32 is_stmt 0 discriminator 4 view .LVU989
 3281 0260 3C4C     		ldr	r4, .L570+32
 3282 0262 2068     		ldr	r0, [r4]
 248:lvgl/lvgl/src/extra/themes/default/lv_theme_default.c ****     lv_style_set_bg_color(&styles->card, color_card);
 3283              		.loc 1 248 5 discriminator 4 view .LVU990
 3284 0264 FF21     		movs	r1, #255
 3285 0266 1830     		adds	r0, r0, #24
 3286 0268 FFF7FEFF 		bl	lv_style_set_bg_opa
ARM GAS  C:\Users\gx\AppData\Local\Temp\ccQfGIQ4.s 			page 115


 3287              	.LVL345:
 249:lvgl/lvgl/src/extra/themes/default/lv_theme_default.c ****     lv_style_set_border_color(&styles->card, color_grey);
 3288              		.loc 1 249 5 is_stmt 1 discriminator 4 view .LVU991
 249:lvgl/lvgl/src/extra/themes/default/lv_theme_default.c ****     lv_style_set_border_color(&styles->card, color_grey);
 3289              		.loc 1 249 34 is_stmt 0 discriminator 4 view .LVU992
 3290 026c 2068     		ldr	r0, [r4]
 249:lvgl/lvgl/src/extra/themes/default/lv_theme_default.c ****     lv_style_set_border_color(&styles->card, color_grey);
 3291              		.loc 1 249 5 discriminator 4 view .LVU993
 3292 026e 344B     		ldr	r3, .L570+12
 3293 0270 1988     		ldrh	r1, [r3]
 3294 0272 1830     		adds	r0, r0, #24
 3295 0274 FFF7FEFF 		bl	lv_style_set_bg_color
 3296              	.LVL346:
 250:lvgl/lvgl/src/extra/themes/default/lv_theme_default.c ****     lv_style_set_border_width(&styles->card, BORDER_WIDTH);
 3297              		.loc 1 250 5 is_stmt 1 discriminator 4 view .LVU994
 250:lvgl/lvgl/src/extra/themes/default/lv_theme_default.c ****     lv_style_set_border_width(&styles->card, BORDER_WIDTH);
 3298              		.loc 1 250 38 is_stmt 0 discriminator 4 view .LVU995
 3299 0278 2068     		ldr	r0, [r4]
 250:lvgl/lvgl/src/extra/themes/default/lv_theme_default.c ****     lv_style_set_border_width(&styles->card, BORDER_WIDTH);
 3300              		.loc 1 250 5 discriminator 4 view .LVU996
 3301 027a 324B     		ldr	r3, .L570+16
 3302 027c 1988     		ldrh	r1, [r3]
 3303 027e 1830     		adds	r0, r0, #24
 3304 0280 FFF7FEFF 		bl	lv_style_set_border_color
 3305              	.LVL347:
 251:lvgl/lvgl/src/extra/themes/default/lv_theme_default.c ****     lv_style_set_border_post(&styles->card, true);
 3306              		.loc 1 251 5 is_stmt 1 discriminator 4 view .LVU997
 251:lvgl/lvgl/src/extra/themes/default/lv_theme_default.c ****     lv_style_set_border_post(&styles->card, true);
 3307              		.loc 1 251 38 is_stmt 0 discriminator 4 view .LVU998
 3308 0284 2468     		ldr	r4, [r4]
 251:lvgl/lvgl/src/extra/themes/default/lv_theme_default.c ****     lv_style_set_border_post(&styles->card, true);
 3309              		.loc 1 251 5 discriminator 4 view .LVU999
 3310 0286 1834     		adds	r4, r4, #24
 251:lvgl/lvgl/src/extra/themes/default/lv_theme_default.c ****     lv_style_set_border_post(&styles->card, true);
 3311              		.loc 1 251 46 discriminator 4 view .LVU1000
 3312 0288 2A4B     		ldr	r3, .L570
 3313 028a DD68     		ldr	r5, [r3, #12]
 3314              	.LVL348:
 3315              	.LBB437:
 3316              	.LBI437:
 236:d:\practise\f407_disc\lvgl\lvgl\src/core\lv_disp.h **** {
 3317              		.loc 3 236 26 is_stmt 1 discriminator 4 view .LVU1001
 3318              	.LBB438:
 3319              		.loc 3 238 5 discriminator 4 view .LVU1002
 3320              		.loc 3 238 12 is_stmt 0 discriminator 4 view .LVU1003
 3321 028c 2846     		mov	r0, r5
 3322 028e FFF7FEFF 		bl	lv_disp_get_dpi
 3323              	.LVL349:
 3324 0292 4000     		lsls	r0, r0, #1
 3325 0294 EF28     		cmp	r0, #239
 3326 0296 01F34482 		bgt	.L413
 3327              		.loc 3 238 12 view .LVU1004
 3328 029a 0121     		movs	r1, #1
 3329              	.L107:
 3330              	.LVL350:
 3331              		.loc 3 238 12 view .LVU1005
 3332              	.LBE438:
ARM GAS  C:\Users\gx\AppData\Local\Temp\ccQfGIQ4.s 			page 116


 3333              	.LBE437:
 251:lvgl/lvgl/src/extra/themes/default/lv_theme_default.c ****     lv_style_set_border_post(&styles->card, true);
 3334              		.loc 1 251 5 view .LVU1006
 3335 029c 2046     		mov	r0, r4
 3336 029e FFF7FEFF 		bl	lv_style_set_border_width
 3337              	.LVL351:
 252:lvgl/lvgl/src/extra/themes/default/lv_theme_default.c ****     lv_style_set_text_color(&styles->card, color_text);
 3338              		.loc 1 252 5 is_stmt 1 view .LVU1007
 252:lvgl/lvgl/src/extra/themes/default/lv_theme_default.c ****     lv_style_set_text_color(&styles->card, color_text);
 3339              		.loc 1 252 37 is_stmt 0 view .LVU1008
 3340 02a2 2C4C     		ldr	r4, .L570+32
 3341 02a4 2068     		ldr	r0, [r4]
 252:lvgl/lvgl/src/extra/themes/default/lv_theme_default.c ****     lv_style_set_text_color(&styles->card, color_text);
 3342              		.loc 1 252 5 view .LVU1009
 3343 02a6 0121     		movs	r1, #1
 3344 02a8 1830     		adds	r0, r0, #24
 3345 02aa FFF7FEFF 		bl	lv_style_set_border_post
 3346              	.LVL352:
 253:lvgl/lvgl/src/extra/themes/default/lv_theme_default.c ****     lv_style_set_pad_all(&styles->card, PAD_DEF);
 3347              		.loc 1 253 5 is_stmt 1 view .LVU1010
 253:lvgl/lvgl/src/extra/themes/default/lv_theme_default.c ****     lv_style_set_pad_all(&styles->card, PAD_DEF);
 3348              		.loc 1 253 36 is_stmt 0 view .LVU1011
 3349 02ae 2068     		ldr	r0, [r4]
 253:lvgl/lvgl/src/extra/themes/default/lv_theme_default.c ****     lv_style_set_pad_all(&styles->card, PAD_DEF);
 3350              		.loc 1 253 5 view .LVU1012
 3351 02b0 224B     		ldr	r3, .L570+8
 3352 02b2 1988     		ldrh	r1, [r3]
 3353 02b4 1830     		adds	r0, r0, #24
 3354 02b6 FFF7FEFF 		bl	lv_style_set_text_color
 3355              	.LVL353:
 254:lvgl/lvgl/src/extra/themes/default/lv_theme_default.c ****     lv_style_set_pad_row(&styles->card, PAD_SMALL);
 3356              		.loc 1 254 5 is_stmt 1 view .LVU1013
 254:lvgl/lvgl/src/extra/themes/default/lv_theme_default.c ****     lv_style_set_pad_row(&styles->card, PAD_SMALL);
 3357              		.loc 1 254 33 is_stmt 0 view .LVU1014
 3358 02ba 2568     		ldr	r5, [r4]
 254:lvgl/lvgl/src/extra/themes/default/lv_theme_default.c ****     lv_style_set_pad_row(&styles->card, PAD_SMALL);
 3359              		.loc 1 254 5 view .LVU1015
 3360 02bc 1835     		adds	r5, r5, #24
 254:lvgl/lvgl/src/extra/themes/default/lv_theme_default.c ****     lv_style_set_pad_row(&styles->card, PAD_SMALL);
 3361              		.loc 1 254 41 view .LVU1016
 3362 02be 264B     		ldr	r3, .L570+36
 3363 02c0 1B78     		ldrb	r3, [r3]	@ zero_extendqisi2
 254:lvgl/lvgl/src/extra/themes/default/lv_theme_default.c ****     lv_style_set_pad_row(&styles->card, PAD_SMALL);
 3364              		.loc 1 254 5 view .LVU1017
 3365 02c2 012B     		cmp	r3, #1
 3366 02c4 01F03B82 		beq	.L414
 254:lvgl/lvgl/src/extra/themes/default/lv_theme_default.c ****     lv_style_set_pad_row(&styles->card, PAD_SMALL);
 3367              		.loc 1 254 5 discriminator 2 view .LVU1018
 3368 02c8 022B     		cmp	r3, #2
 3369 02ca 01F05582 		beq	.L415
 254:lvgl/lvgl/src/extra/themes/default/lv_theme_default.c ****     lv_style_set_pad_row(&styles->card, PAD_SMALL);
 3370              		.loc 1 254 41 discriminator 5 view .LVU1019
 3371 02ce 194B     		ldr	r3, .L570
 3372 02d0 DC68     		ldr	r4, [r3, #12]
 3373              	.LVL354:
 3374              	.LBB440:
 3375              	.LBI440:
ARM GAS  C:\Users\gx\AppData\Local\Temp\ccQfGIQ4.s 			page 117


 236:d:\practise\f407_disc\lvgl\lvgl\src/core\lv_disp.h **** {
 3376              		.loc 3 236 26 is_stmt 1 discriminator 5 view .LVU1020
 3377              	.LBB441:
 3378              		.loc 3 238 5 discriminator 5 view .LVU1021
 3379              		.loc 3 238 12 is_stmt 0 discriminator 5 view .LVU1022
 3380 02d2 2046     		mov	r0, r4
 3381 02d4 FFF7FEFF 		bl	lv_disp_get_dpi
 3382              	.LVL355:
 3383 02d8 0001     		lsls	r0, r0, #4
 3384 02da EF28     		cmp	r0, #239
 3385 02dc 01F37882 		bgt	.L416
 3386              		.loc 3 238 12 view .LVU1023
 3387 02e0 0124     		movs	r4, #1
 3388              	.LVL356:
 3389              	.L110:
 3390              		.loc 3 238 12 view .LVU1024
 3391              	.LBE441:
 3392              	.LBE440:
 3393              	.LBB443:
 3394              	.LBI443:
 425:d:\practise\f407_disc\lvgl\lvgl\src\misc\lv_style.h ****     lv_style_set_pad_left(style, value);
 3395              		.loc 4 425 20 is_stmt 1 discriminator 8 view .LVU1025
 3396              	.LBB444:
 426:d:\practise\f407_disc\lvgl\lvgl\src\misc\lv_style.h ****     lv_style_set_pad_right(style, value);
 3397              		.loc 4 426 5 discriminator 8 view .LVU1026
 3398 02e2 2146     		mov	r1, r4
 3399 02e4 2846     		mov	r0, r5
 3400 02e6 FFF7FEFF 		bl	lv_style_set_pad_left
 3401              	.LVL357:
 427:d:\practise\f407_disc\lvgl\lvgl\src\misc\lv_style.h ****     lv_style_set_pad_top(style, value);
 3402              		.loc 4 427 5 discriminator 8 view .LVU1027
 3403 02ea 2146     		mov	r1, r4
 3404 02ec 2846     		mov	r0, r5
 3405 02ee FFF7FEFF 		bl	lv_style_set_pad_right
 3406              	.LVL358:
 428:d:\practise\f407_disc\lvgl\lvgl\src\misc\lv_style.h ****     lv_style_set_pad_bottom(style, value);
 3407              		.loc 4 428 5 discriminator 8 view .LVU1028
 3408 02f2 2146     		mov	r1, r4
 3409 02f4 2846     		mov	r0, r5
 3410 02f6 FFF7FEFF 		bl	lv_style_set_pad_top
 3411              	.LVL359:
 429:d:\practise\f407_disc\lvgl\lvgl\src\misc\lv_style.h **** }
 3412              		.loc 4 429 5 discriminator 8 view .LVU1029
 3413 02fa 2146     		mov	r1, r4
 3414 02fc 2846     		mov	r0, r5
 3415 02fe FFF7FEFF 		bl	lv_style_set_pad_bottom
 3416              	.LVL360:
 429:d:\practise\f407_disc\lvgl\lvgl\src\misc\lv_style.h **** }
 3417              		.loc 4 429 5 is_stmt 0 discriminator 8 view .LVU1030
 3418              	.LBE444:
 3419              	.LBE443:
 255:lvgl/lvgl/src/extra/themes/default/lv_theme_default.c ****     lv_style_set_pad_column(&styles->card, PAD_SMALL);
 3420              		.loc 1 255 5 is_stmt 1 discriminator 8 view .LVU1031
 255:lvgl/lvgl/src/extra/themes/default/lv_theme_default.c ****     lv_style_set_pad_column(&styles->card, PAD_SMALL);
 3421              		.loc 1 255 33 is_stmt 0 discriminator 8 view .LVU1032
 3422 0302 144B     		ldr	r3, .L570+32
 3423 0304 1C68     		ldr	r4, [r3]
ARM GAS  C:\Users\gx\AppData\Local\Temp\ccQfGIQ4.s 			page 118


 255:lvgl/lvgl/src/extra/themes/default/lv_theme_default.c ****     lv_style_set_pad_column(&styles->card, PAD_SMALL);
 3424              		.loc 1 255 5 discriminator 8 view .LVU1033
 3425 0306 1834     		adds	r4, r4, #24
 255:lvgl/lvgl/src/extra/themes/default/lv_theme_default.c ****     lv_style_set_pad_column(&styles->card, PAD_SMALL);
 3426              		.loc 1 255 41 discriminator 8 view .LVU1034
 3427 0308 134B     		ldr	r3, .L570+36
 3428 030a 1B78     		ldrb	r3, [r3]	@ zero_extendqisi2
 255:lvgl/lvgl/src/extra/themes/default/lv_theme_default.c ****     lv_style_set_pad_column(&styles->card, PAD_SMALL);
 3429              		.loc 1 255 5 discriminator 8 view .LVU1035
 3430 030c 012B     		cmp	r3, #1
 3431 030e 01F06D82 		beq	.L417
 255:lvgl/lvgl/src/extra/themes/default/lv_theme_default.c ****     lv_style_set_pad_column(&styles->card, PAD_SMALL);
 3432              		.loc 1 255 5 discriminator 2 view .LVU1036
 3433 0312 022B     		cmp	r3, #2
 3434 0314 01F08782 		beq	.L418
 255:lvgl/lvgl/src/extra/themes/default/lv_theme_default.c ****     lv_style_set_pad_column(&styles->card, PAD_SMALL);
 3435              		.loc 1 255 41 discriminator 5 view .LVU1037
 3436 0318 064B     		ldr	r3, .L570
 3437 031a DD68     		ldr	r5, [r3, #12]
 3438              	.LVL361:
 3439              	.LBB445:
 3440              	.LBI445:
 236:d:\practise\f407_disc\lvgl\lvgl\src/core\lv_disp.h **** {
 3441              		.loc 3 236 26 is_stmt 1 discriminator 5 view .LVU1038
 3442              	.LBB446:
 3443              		.loc 3 238 5 discriminator 5 view .LVU1039
 3444              		.loc 3 238 12 is_stmt 0 discriminator 5 view .LVU1040
 3445 031c 2846     		mov	r0, r5
 3446 031e FFF7FEFF 		bl	lv_disp_get_dpi
 3447              	.LVL362:
 3448 0322 00EB8000 		add	r0, r0, r0, lsl #2
 3449 0326 4000     		lsls	r0, r0, #1
 3450 0328 EF28     		cmp	r0, #239
 3451 032a 01F39982 		bgt	.L419
 3452              		.loc 3 238 12 view .LVU1041
 3453 032e 0121     		movs	r1, #1
 3454 0330 16E0     		b	.L571
 3455              	.L572:
 3456 0332 00BF     		.align	2
 3457              	.L570:
 3458 0334 00000000 		.word	.LANCHOR2
 3459 0338 00000000 		.word	.LANCHOR4
 3460 033c 00000000 		.word	.LANCHOR5
 3461 0340 00000000 		.word	.LANCHOR6
 3462 0344 00000000 		.word	.LANCHOR7
 3463 0348 00000000 		.word	.LANCHOR8
 3464 034c 00000000 		.word	.LANCHOR9
 3465 0350 00000000 		.word	.LANCHOR10
 3466 0354 00000000 		.word	.LANCHOR0
 3467 0358 00000000 		.word	.LANCHOR1
 3468 035c 00000000 		.word	lv_anim_path_linear
 3469              	.L571:
 3470              	.LVL363:
 3471              	.L116:
 3472              		.loc 3 238 12 view .LVU1042
 3473              	.LBE446:
 3474              	.LBE445:
ARM GAS  C:\Users\gx\AppData\Local\Temp\ccQfGIQ4.s 			page 119


 255:lvgl/lvgl/src/extra/themes/default/lv_theme_default.c ****     lv_style_set_pad_column(&styles->card, PAD_SMALL);
 3475              		.loc 1 255 5 discriminator 8 view .LVU1043
 3476 0360 2046     		mov	r0, r4
 3477 0362 FFF7FEFF 		bl	lv_style_set_pad_row
 3478              	.LVL364:
 256:lvgl/lvgl/src/extra/themes/default/lv_theme_default.c ****     lv_style_set_line_color(&styles->card, lv_palette_main(LV_PALETTE_GREY));
 3479              		.loc 1 256 5 is_stmt 1 discriminator 8 view .LVU1044
 256:lvgl/lvgl/src/extra/themes/default/lv_theme_default.c ****     lv_style_set_line_color(&styles->card, lv_palette_main(LV_PALETTE_GREY));
 3480              		.loc 1 256 36 is_stmt 0 discriminator 8 view .LVU1045
 3481 0366 CA4B     		ldr	r3, .L573
 3482 0368 1C68     		ldr	r4, [r3]
 256:lvgl/lvgl/src/extra/themes/default/lv_theme_default.c ****     lv_style_set_line_color(&styles->card, lv_palette_main(LV_PALETTE_GREY));
 3483              		.loc 1 256 5 discriminator 8 view .LVU1046
 3484 036a 1834     		adds	r4, r4, #24
 256:lvgl/lvgl/src/extra/themes/default/lv_theme_default.c ****     lv_style_set_line_color(&styles->card, lv_palette_main(LV_PALETTE_GREY));
 3485              		.loc 1 256 44 discriminator 8 view .LVU1047
 3486 036c C94B     		ldr	r3, .L573+4
 3487 036e 1B78     		ldrb	r3, [r3]	@ zero_extendqisi2
 256:lvgl/lvgl/src/extra/themes/default/lv_theme_default.c ****     lv_style_set_line_color(&styles->card, lv_palette_main(LV_PALETTE_GREY));
 3488              		.loc 1 256 5 discriminator 8 view .LVU1048
 3489 0370 012B     		cmp	r3, #1
 3490 0372 01F08582 		beq	.L420
 256:lvgl/lvgl/src/extra/themes/default/lv_theme_default.c ****     lv_style_set_line_color(&styles->card, lv_palette_main(LV_PALETTE_GREY));
 3491              		.loc 1 256 5 discriminator 2 view .LVU1049
 3492 0376 022B     		cmp	r3, #2
 3493 0378 01F09F82 		beq	.L421
 256:lvgl/lvgl/src/extra/themes/default/lv_theme_default.c ****     lv_style_set_line_color(&styles->card, lv_palette_main(LV_PALETTE_GREY));
 3494              		.loc 1 256 44 discriminator 5 view .LVU1050
 3495 037c C64B     		ldr	r3, .L573+8
 3496 037e DD68     		ldr	r5, [r3, #12]
 3497              	.LVL365:
 3498              	.LBB448:
 3499              	.LBI448:
 236:d:\practise\f407_disc\lvgl\lvgl\src/core\lv_disp.h **** {
 3500              		.loc 3 236 26 is_stmt 1 discriminator 5 view .LVU1051
 3501              	.LBB449:
 3502              		.loc 3 238 5 discriminator 5 view .LVU1052
 3503              		.loc 3 238 12 is_stmt 0 discriminator 5 view .LVU1053
 3504 0380 2846     		mov	r0, r5
 3505 0382 FFF7FEFF 		bl	lv_disp_get_dpi
 3506              	.LVL366:
 3507 0386 00EB8000 		add	r0, r0, r0, lsl #2
 3508 038a 4000     		lsls	r0, r0, #1
 3509 038c EF28     		cmp	r0, #239
 3510 038e 01F3B182 		bgt	.L422
 3511              		.loc 3 238 12 view .LVU1054
 3512 0392 0121     		movs	r1, #1
 3513              	.LVL367:
 3514              	.L122:
 3515              		.loc 3 238 12 view .LVU1055
 3516              	.LBE449:
 3517              	.LBE448:
 256:lvgl/lvgl/src/extra/themes/default/lv_theme_default.c ****     lv_style_set_line_color(&styles->card, lv_palette_main(LV_PALETTE_GREY));
 3518              		.loc 1 256 5 discriminator 8 view .LVU1056
 3519 0394 2046     		mov	r0, r4
 3520 0396 FFF7FEFF 		bl	lv_style_set_pad_column
 3521              	.LVL368:
ARM GAS  C:\Users\gx\AppData\Local\Temp\ccQfGIQ4.s 			page 120


 257:lvgl/lvgl/src/extra/themes/default/lv_theme_default.c ****     lv_style_set_line_width(&styles->card, lv_disp_dpx(theme.disp, 1));
 3522              		.loc 1 257 5 is_stmt 1 discriminator 8 view .LVU1057
 257:lvgl/lvgl/src/extra/themes/default/lv_theme_default.c ****     lv_style_set_line_width(&styles->card, lv_disp_dpx(theme.disp, 1));
 3523              		.loc 1 257 36 is_stmt 0 discriminator 8 view .LVU1058
 3524 039a BD4C     		ldr	r4, .L573
 3525 039c 2568     		ldr	r5, [r4]
 257:lvgl/lvgl/src/extra/themes/default/lv_theme_default.c ****     lv_style_set_line_width(&styles->card, lv_disp_dpx(theme.disp, 1));
 3526              		.loc 1 257 5 discriminator 8 view .LVU1059
 3527 039e 1220     		movs	r0, #18
 3528 03a0 FFF7FEFF 		bl	lv_palette_main
 3529              	.LVL369:
 3530 03a4 0146     		mov	r1, r0	@ movhi
 3531 03a6 05F11800 		add	r0, r5, #24
 3532 03aa FFF7FEFF 		bl	lv_style_set_line_color
 3533              	.LVL370:
 258:lvgl/lvgl/src/extra/themes/default/lv_theme_default.c **** 
 3534              		.loc 1 258 5 is_stmt 1 discriminator 8 view .LVU1060
 258:lvgl/lvgl/src/extra/themes/default/lv_theme_default.c **** 
 3535              		.loc 1 258 36 is_stmt 0 discriminator 8 view .LVU1061
 3536 03ae 2468     		ldr	r4, [r4]
 258:lvgl/lvgl/src/extra/themes/default/lv_theme_default.c **** 
 3537              		.loc 1 258 5 discriminator 8 view .LVU1062
 3538 03b0 1834     		adds	r4, r4, #24
 258:lvgl/lvgl/src/extra/themes/default/lv_theme_default.c **** 
 3539              		.loc 1 258 61 discriminator 8 view .LVU1063
 3540 03b2 B94B     		ldr	r3, .L573+8
 3541 03b4 DD68     		ldr	r5, [r3, #12]
 3542              	.LVL371:
 3543              	.LBB451:
 3544              	.LBI451:
 236:d:\practise\f407_disc\lvgl\lvgl\src/core\lv_disp.h **** {
 3545              		.loc 3 236 26 is_stmt 1 discriminator 8 view .LVU1064
 3546              	.LBB452:
 3547              		.loc 3 238 5 discriminator 8 view .LVU1065
 3548              		.loc 3 238 12 is_stmt 0 discriminator 8 view .LVU1066
 3549 03b6 2846     		mov	r0, r5
 3550 03b8 FFF7FEFF 		bl	lv_disp_get_dpi
 3551              	.LVL372:
 3552 03bc EF28     		cmp	r0, #239
 3553 03be 01F3A982 		bgt	.L423
 3554              		.loc 3 238 12 view .LVU1067
 3555 03c2 0121     		movs	r1, #1
 3556              	.L126:
 3557              	.LVL373:
 3558              		.loc 3 238 12 view .LVU1068
 3559              	.LBE452:
 3560              	.LBE451:
 258:lvgl/lvgl/src/extra/themes/default/lv_theme_default.c **** 
 3561              		.loc 1 258 5 view .LVU1069
 3562 03c4 2046     		mov	r0, r4
 3563 03c6 FFF7FEFF 		bl	lv_style_set_line_width
 3564              	.LVL374:
 260:lvgl/lvgl/src/extra/themes/default/lv_theme_default.c ****     lv_style_set_outline_color(&styles->outline_primary, theme.color_primary);
 3565              		.loc 1 260 5 is_stmt 1 view .LVU1070
 260:lvgl/lvgl/src/extra/themes/default/lv_theme_default.c ****     lv_style_set_outline_color(&styles->outline_primary, theme.color_primary);
 3566              		.loc 1 260 29 is_stmt 0 view .LVU1071
 3567 03ca B14C     		ldr	r4, .L573
ARM GAS  C:\Users\gx\AppData\Local\Temp\ccQfGIQ4.s 			page 121


 3568 03cc 2068     		ldr	r0, [r4]
 260:lvgl/lvgl/src/extra/themes/default/lv_theme_default.c ****     lv_style_set_outline_color(&styles->outline_primary, theme.color_primary);
 3569              		.loc 1 260 5 view .LVU1072
 3570 03ce A030     		adds	r0, r0, #160
 3571 03d0 FFF7FEFF 		bl	style_init_reset
 3572              	.LVL375:
 261:lvgl/lvgl/src/extra/themes/default/lv_theme_default.c ****     lv_style_set_outline_width(&styles->outline_primary, OUTLINE_WIDTH);
 3573              		.loc 1 261 5 is_stmt 1 view .LVU1073
 261:lvgl/lvgl/src/extra/themes/default/lv_theme_default.c ****     lv_style_set_outline_width(&styles->outline_primary, OUTLINE_WIDTH);
 3574              		.loc 1 261 39 is_stmt 0 view .LVU1074
 3575 03d4 2068     		ldr	r0, [r4]
 261:lvgl/lvgl/src/extra/themes/default/lv_theme_default.c ****     lv_style_set_outline_width(&styles->outline_primary, OUTLINE_WIDTH);
 3576              		.loc 1 261 5 view .LVU1075
 3577 03d6 B04D     		ldr	r5, .L573+8
 3578 03d8 298A     		ldrh	r1, [r5, #16]
 3579 03da A030     		adds	r0, r0, #160
 3580 03dc FFF7FEFF 		bl	lv_style_set_outline_color
 3581              	.LVL376:
 262:lvgl/lvgl/src/extra/themes/default/lv_theme_default.c ****     lv_style_set_outline_pad(&styles->outline_primary, OUTLINE_WIDTH);
 3582              		.loc 1 262 5 is_stmt 1 view .LVU1076
 262:lvgl/lvgl/src/extra/themes/default/lv_theme_default.c ****     lv_style_set_outline_pad(&styles->outline_primary, OUTLINE_WIDTH);
 3583              		.loc 1 262 39 is_stmt 0 view .LVU1077
 3584 03e0 2468     		ldr	r4, [r4]
 262:lvgl/lvgl/src/extra/themes/default/lv_theme_default.c ****     lv_style_set_outline_pad(&styles->outline_primary, OUTLINE_WIDTH);
 3585              		.loc 1 262 5 view .LVU1078
 3586 03e2 A034     		adds	r4, r4, #160
 262:lvgl/lvgl/src/extra/themes/default/lv_theme_default.c ****     lv_style_set_outline_pad(&styles->outline_primary, OUTLINE_WIDTH);
 3587              		.loc 1 262 58 view .LVU1079
 3588 03e4 ED68     		ldr	r5, [r5, #12]
 3589              	.LVL377:
 3590              	.LBB454:
 3591              	.LBI454:
 236:d:\practise\f407_disc\lvgl\lvgl\src/core\lv_disp.h **** {
 3592              		.loc 3 236 26 is_stmt 1 view .LVU1080
 3593              	.LBB455:
 3594              		.loc 3 238 5 view .LVU1081
 3595              		.loc 3 238 12 is_stmt 0 view .LVU1082
 3596 03e6 2846     		mov	r0, r5
 3597 03e8 FFF7FEFF 		bl	lv_disp_get_dpi
 3598              	.LVL378:
 3599 03ec 00EB4000 		add	r0, r0, r0, lsl #1
 3600 03f0 EF28     		cmp	r0, #239
 3601 03f2 01F39C82 		bgt	.L424
 3602 03f6 0121     		movs	r1, #1
 3603              	.L127:
 3604              	.LVL379:
 3605              		.loc 3 238 12 view .LVU1083
 3606              	.LBE455:
 3607              	.LBE454:
 262:lvgl/lvgl/src/extra/themes/default/lv_theme_default.c ****     lv_style_set_outline_pad(&styles->outline_primary, OUTLINE_WIDTH);
 3608              		.loc 1 262 5 view .LVU1084
 3609 03f8 2046     		mov	r0, r4
 3610 03fa FFF7FEFF 		bl	lv_style_set_outline_width
 3611              	.LVL380:
 263:lvgl/lvgl/src/extra/themes/default/lv_theme_default.c ****     lv_style_set_outline_opa(&styles->outline_primary, LV_OPA_50);
 3612              		.loc 1 263 5 is_stmt 1 view .LVU1085
 263:lvgl/lvgl/src/extra/themes/default/lv_theme_default.c ****     lv_style_set_outline_opa(&styles->outline_primary, LV_OPA_50);
ARM GAS  C:\Users\gx\AppData\Local\Temp\ccQfGIQ4.s 			page 122


 3613              		.loc 1 263 37 is_stmt 0 view .LVU1086
 3614 03fe A44B     		ldr	r3, .L573
 3615 0400 1C68     		ldr	r4, [r3]
 263:lvgl/lvgl/src/extra/themes/default/lv_theme_default.c ****     lv_style_set_outline_opa(&styles->outline_primary, LV_OPA_50);
 3616              		.loc 1 263 5 view .LVU1087
 3617 0402 A034     		adds	r4, r4, #160
 263:lvgl/lvgl/src/extra/themes/default/lv_theme_default.c ****     lv_style_set_outline_opa(&styles->outline_primary, LV_OPA_50);
 3618              		.loc 1 263 56 view .LVU1088
 3619 0404 A44B     		ldr	r3, .L573+8
 3620 0406 DD68     		ldr	r5, [r3, #12]
 3621              	.LVL381:
 3622              	.LBB457:
 3623              	.LBI457:
 236:d:\practise\f407_disc\lvgl\lvgl\src/core\lv_disp.h **** {
 3624              		.loc 3 236 26 is_stmt 1 view .LVU1089
 3625              	.LBB458:
 3626              		.loc 3 238 5 view .LVU1090
 3627              		.loc 3 238 12 is_stmt 0 view .LVU1091
 3628 0408 2846     		mov	r0, r5
 3629 040a FFF7FEFF 		bl	lv_disp_get_dpi
 3630              	.LVL382:
 3631 040e 00EB4000 		add	r0, r0, r0, lsl #1
 3632 0412 EF28     		cmp	r0, #239
 3633 0414 01F39A82 		bgt	.L425
 3634 0418 0121     		movs	r1, #1
 3635              	.L128:
 3636              	.LVL383:
 3637              		.loc 3 238 12 view .LVU1092
 3638              	.LBE458:
 3639              	.LBE457:
 263:lvgl/lvgl/src/extra/themes/default/lv_theme_default.c ****     lv_style_set_outline_opa(&styles->outline_primary, LV_OPA_50);
 3640              		.loc 1 263 5 view .LVU1093
 3641 041a 2046     		mov	r0, r4
 3642 041c FFF7FEFF 		bl	lv_style_set_outline_pad
 3643              	.LVL384:
 264:lvgl/lvgl/src/extra/themes/default/lv_theme_default.c **** 
 3644              		.loc 1 264 5 is_stmt 1 view .LVU1094
 264:lvgl/lvgl/src/extra/themes/default/lv_theme_default.c **** 
 3645              		.loc 1 264 37 is_stmt 0 view .LVU1095
 3646 0420 9B4C     		ldr	r4, .L573
 3647 0422 2068     		ldr	r0, [r4]
 264:lvgl/lvgl/src/extra/themes/default/lv_theme_default.c **** 
 3648              		.loc 1 264 5 view .LVU1096
 3649 0424 7F21     		movs	r1, #127
 3650 0426 A030     		adds	r0, r0, #160
 3651 0428 FFF7FEFF 		bl	lv_style_set_outline_opa
 3652              	.LVL385:
 266:lvgl/lvgl/src/extra/themes/default/lv_theme_default.c ****     lv_style_set_outline_color(&styles->outline_secondary, theme.color_secondary);
 3653              		.loc 1 266 5 is_stmt 1 view .LVU1097
 266:lvgl/lvgl/src/extra/themes/default/lv_theme_default.c ****     lv_style_set_outline_color(&styles->outline_secondary, theme.color_secondary);
 3654              		.loc 1 266 29 is_stmt 0 view .LVU1098
 3655 042c 2068     		ldr	r0, [r4]
 266:lvgl/lvgl/src/extra/themes/default/lv_theme_default.c ****     lv_style_set_outline_color(&styles->outline_secondary, theme.color_secondary);
 3656              		.loc 1 266 5 view .LVU1099
 3657 042e A830     		adds	r0, r0, #168
 3658 0430 FFF7FEFF 		bl	style_init_reset
 3659              	.LVL386:
ARM GAS  C:\Users\gx\AppData\Local\Temp\ccQfGIQ4.s 			page 123


 267:lvgl/lvgl/src/extra/themes/default/lv_theme_default.c ****     lv_style_set_outline_width(&styles->outline_secondary, OUTLINE_WIDTH);
 3660              		.loc 1 267 5 is_stmt 1 view .LVU1100
 267:lvgl/lvgl/src/extra/themes/default/lv_theme_default.c ****     lv_style_set_outline_width(&styles->outline_secondary, OUTLINE_WIDTH);
 3661              		.loc 1 267 39 is_stmt 0 view .LVU1101
 3662 0434 2068     		ldr	r0, [r4]
 267:lvgl/lvgl/src/extra/themes/default/lv_theme_default.c ****     lv_style_set_outline_width(&styles->outline_secondary, OUTLINE_WIDTH);
 3663              		.loc 1 267 5 view .LVU1102
 3664 0436 984D     		ldr	r5, .L573+8
 3665 0438 698A     		ldrh	r1, [r5, #18]
 3666 043a A830     		adds	r0, r0, #168
 3667 043c FFF7FEFF 		bl	lv_style_set_outline_color
 3668              	.LVL387:
 268:lvgl/lvgl/src/extra/themes/default/lv_theme_default.c ****     lv_style_set_outline_opa(&styles->outline_secondary, LV_OPA_50);
 3669              		.loc 1 268 5 is_stmt 1 view .LVU1103
 268:lvgl/lvgl/src/extra/themes/default/lv_theme_default.c ****     lv_style_set_outline_opa(&styles->outline_secondary, LV_OPA_50);
 3670              		.loc 1 268 39 is_stmt 0 view .LVU1104
 3671 0440 2468     		ldr	r4, [r4]
 268:lvgl/lvgl/src/extra/themes/default/lv_theme_default.c ****     lv_style_set_outline_opa(&styles->outline_secondary, LV_OPA_50);
 3672              		.loc 1 268 5 view .LVU1105
 3673 0442 A834     		adds	r4, r4, #168
 268:lvgl/lvgl/src/extra/themes/default/lv_theme_default.c ****     lv_style_set_outline_opa(&styles->outline_secondary, LV_OPA_50);
 3674              		.loc 1 268 60 view .LVU1106
 3675 0444 ED68     		ldr	r5, [r5, #12]
 3676              	.LVL388:
 3677              	.LBB460:
 3678              	.LBI460:
 236:d:\practise\f407_disc\lvgl\lvgl\src/core\lv_disp.h **** {
 3679              		.loc 3 236 26 is_stmt 1 view .LVU1107
 3680              	.LBB461:
 3681              		.loc 3 238 5 view .LVU1108
 3682              		.loc 3 238 12 is_stmt 0 view .LVU1109
 3683 0446 2846     		mov	r0, r5
 3684 0448 FFF7FEFF 		bl	lv_disp_get_dpi
 3685              	.LVL389:
 3686 044c 00EB4000 		add	r0, r0, r0, lsl #1
 3687 0450 EF28     		cmp	r0, #239
 3688 0452 01F38A82 		bgt	.L426
 3689 0456 0121     		movs	r1, #1
 3690              	.L129:
 3691              	.LVL390:
 3692              		.loc 3 238 12 view .LVU1110
 3693              	.LBE461:
 3694              	.LBE460:
 268:lvgl/lvgl/src/extra/themes/default/lv_theme_default.c ****     lv_style_set_outline_opa(&styles->outline_secondary, LV_OPA_50);
 3695              		.loc 1 268 5 view .LVU1111
 3696 0458 2046     		mov	r0, r4
 3697 045a FFF7FEFF 		bl	lv_style_set_outline_width
 3698              	.LVL391:
 269:lvgl/lvgl/src/extra/themes/default/lv_theme_default.c **** 
 3699              		.loc 1 269 5 is_stmt 1 view .LVU1112
 269:lvgl/lvgl/src/extra/themes/default/lv_theme_default.c **** 
 3700              		.loc 1 269 37 is_stmt 0 view .LVU1113
 3701 045e 8C4C     		ldr	r4, .L573
 3702 0460 2068     		ldr	r0, [r4]
 269:lvgl/lvgl/src/extra/themes/default/lv_theme_default.c **** 
 3703              		.loc 1 269 5 view .LVU1114
 3704 0462 7F21     		movs	r1, #127
ARM GAS  C:\Users\gx\AppData\Local\Temp\ccQfGIQ4.s 			page 124


 3705 0464 A830     		adds	r0, r0, #168
 3706 0466 FFF7FEFF 		bl	lv_style_set_outline_opa
 3707              	.LVL392:
 271:lvgl/lvgl/src/extra/themes/default/lv_theme_default.c ****     lv_style_set_radius(&styles->btn, (disp_size == DISP_LARGE ? lv_disp_dpx(theme.disp, 16) : disp
 3708              		.loc 1 271 5 is_stmt 1 view .LVU1115
 271:lvgl/lvgl/src/extra/themes/default/lv_theme_default.c ****     lv_style_set_radius(&styles->btn, (disp_size == DISP_LARGE ? lv_disp_dpx(theme.disp, 16) : disp
 3709              		.loc 1 271 29 is_stmt 0 view .LVU1116
 3710 046a 2068     		ldr	r0, [r4]
 271:lvgl/lvgl/src/extra/themes/default/lv_theme_default.c ****     lv_style_set_radius(&styles->btn, (disp_size == DISP_LARGE ? lv_disp_dpx(theme.disp, 16) : disp
 3711              		.loc 1 271 5 view .LVU1117
 3712 046c 2030     		adds	r0, r0, #32
 3713 046e FFF7FEFF 		bl	style_init_reset
 3714              	.LVL393:
 272:lvgl/lvgl/src/extra/themes/default/lv_theme_default.c ****     lv_style_set_bg_opa(&styles->btn, LV_OPA_COVER);
 3715              		.loc 1 272 5 is_stmt 1 view .LVU1118
 272:lvgl/lvgl/src/extra/themes/default/lv_theme_default.c ****     lv_style_set_bg_opa(&styles->btn, LV_OPA_COVER);
 3716              		.loc 1 272 32 is_stmt 0 view .LVU1119
 3717 0472 2468     		ldr	r4, [r4]
 272:lvgl/lvgl/src/extra/themes/default/lv_theme_default.c ****     lv_style_set_bg_opa(&styles->btn, LV_OPA_COVER);
 3718              		.loc 1 272 5 view .LVU1120
 3719 0474 2034     		adds	r4, r4, #32
 272:lvgl/lvgl/src/extra/themes/default/lv_theme_default.c ****     lv_style_set_bg_opa(&styles->btn, LV_OPA_COVER);
 3720              		.loc 1 272 50 view .LVU1121
 3721 0476 874B     		ldr	r3, .L573+4
 3722 0478 1B78     		ldrb	r3, [r3]	@ zero_extendqisi2
 272:lvgl/lvgl/src/extra/themes/default/lv_theme_default.c ****     lv_style_set_bg_opa(&styles->btn, LV_OPA_COVER);
 3723              		.loc 1 272 5 view .LVU1122
 3724 047a 012B     		cmp	r3, #1
 3725 047c 01F08482 		beq	.L427
 272:lvgl/lvgl/src/extra/themes/default/lv_theme_default.c ****     lv_style_set_bg_opa(&styles->btn, LV_OPA_COVER);
 3726              		.loc 1 272 5 discriminator 2 view .LVU1123
 3727 0480 022B     		cmp	r3, #2
 3728 0482 01F09A82 		beq	.L428
 272:lvgl/lvgl/src/extra/themes/default/lv_theme_default.c ****     lv_style_set_bg_opa(&styles->btn, LV_OPA_COVER);
 3729              		.loc 1 272 170 discriminator 5 view .LVU1124
 3730 0486 844B     		ldr	r3, .L573+8
 3731 0488 DD68     		ldr	r5, [r3, #12]
 3732              	.LVL394:
 3733              	.LBB463:
 3734              	.LBI463:
 236:d:\practise\f407_disc\lvgl\lvgl\src/core\lv_disp.h **** {
 3735              		.loc 3 236 26 is_stmt 1 discriminator 5 view .LVU1125
 3736              	.LBB464:
 3737              		.loc 3 238 5 discriminator 5 view .LVU1126
 3738              		.loc 3 238 12 is_stmt 0 discriminator 5 view .LVU1127
 3739 048a 2846     		mov	r0, r5
 3740 048c FFF7FEFF 		bl	lv_disp_get_dpi
 3741              	.LVL395:
 3742 0490 C000     		lsls	r0, r0, #3
 3743 0492 EF28     		cmp	r0, #239
 3744 0494 01F3AE82 		bgt	.L429
 3745              		.loc 3 238 12 view .LVU1128
 3746 0498 0121     		movs	r1, #1
 3747              	.LVL396:
 3748              	.L132:
 3749              		.loc 3 238 12 view .LVU1129
 3750              	.LBE464:
ARM GAS  C:\Users\gx\AppData\Local\Temp\ccQfGIQ4.s 			page 125


 3751              	.LBE463:
 272:lvgl/lvgl/src/extra/themes/default/lv_theme_default.c ****     lv_style_set_bg_opa(&styles->btn, LV_OPA_COVER);
 3752              		.loc 1 272 5 discriminator 8 view .LVU1130
 3753 049a 2046     		mov	r0, r4
 3754 049c FFF7FEFF 		bl	lv_style_set_radius
 3755              	.LVL397:
 273:lvgl/lvgl/src/extra/themes/default/lv_theme_default.c ****     lv_style_set_bg_color(&styles->btn, color_grey);
 3756              		.loc 1 273 5 is_stmt 1 discriminator 8 view .LVU1131
 273:lvgl/lvgl/src/extra/themes/default/lv_theme_default.c ****     lv_style_set_bg_color(&styles->btn, color_grey);
 3757              		.loc 1 273 32 is_stmt 0 discriminator 8 view .LVU1132
 3758 04a0 7B4C     		ldr	r4, .L573
 3759 04a2 2068     		ldr	r0, [r4]
 273:lvgl/lvgl/src/extra/themes/default/lv_theme_default.c ****     lv_style_set_bg_color(&styles->btn, color_grey);
 3760              		.loc 1 273 5 discriminator 8 view .LVU1133
 3761 04a4 FF21     		movs	r1, #255
 3762 04a6 2030     		adds	r0, r0, #32
 3763 04a8 FFF7FEFF 		bl	lv_style_set_bg_opa
 3764              	.LVL398:
 274:lvgl/lvgl/src/extra/themes/default/lv_theme_default.c ****     if(!(theme.flags & MODE_DARK)) {
 3765              		.loc 1 274 5 is_stmt 1 discriminator 8 view .LVU1134
 274:lvgl/lvgl/src/extra/themes/default/lv_theme_default.c ****     if(!(theme.flags & MODE_DARK)) {
 3766              		.loc 1 274 34 is_stmt 0 discriminator 8 view .LVU1135
 3767 04ac 2068     		ldr	r0, [r4]
 274:lvgl/lvgl/src/extra/themes/default/lv_theme_default.c ****     if(!(theme.flags & MODE_DARK)) {
 3768              		.loc 1 274 5 discriminator 8 view .LVU1136
 3769 04ae 7B4B     		ldr	r3, .L573+12
 3770 04b0 1988     		ldrh	r1, [r3]
 3771 04b2 2030     		adds	r0, r0, #32
 3772 04b4 FFF7FEFF 		bl	lv_style_set_bg_color
 3773              	.LVL399:
 275:lvgl/lvgl/src/extra/themes/default/lv_theme_default.c ****         lv_style_set_shadow_color(&styles->btn, lv_palette_lighten(LV_PALETTE_GREY, 3));
 3774              		.loc 1 275 5 is_stmt 1 discriminator 8 view .LVU1137
 275:lvgl/lvgl/src/extra/themes/default/lv_theme_default.c ****         lv_style_set_shadow_color(&styles->btn, lv_palette_lighten(LV_PALETTE_GREY, 3));
 3775              		.loc 1 275 15 is_stmt 0 discriminator 8 view .LVU1138
 3776 04b8 774B     		ldr	r3, .L573+8
 3777 04ba 1B6A     		ldr	r3, [r3, #32]
 275:lvgl/lvgl/src/extra/themes/default/lv_theme_default.c ****         lv_style_set_shadow_color(&styles->btn, lv_palette_lighten(LV_PALETTE_GREY, 3));
 3778              		.loc 1 275 7 discriminator 8 view .LVU1139
 3779 04bc 13F0010F 		tst	r3, #1
 3780 04c0 01F0A682 		beq	.L430
 3781              	.L136:
 280:lvgl/lvgl/src/extra/themes/default/lv_theme_default.c ****     lv_style_set_pad_hor(&styles->btn, PAD_DEF);
 3782              		.loc 1 280 5 is_stmt 1 view .LVU1140
 280:lvgl/lvgl/src/extra/themes/default/lv_theme_default.c ****     lv_style_set_pad_hor(&styles->btn, PAD_DEF);
 3783              		.loc 1 280 36 is_stmt 0 view .LVU1141
 3784 04c4 724C     		ldr	r4, .L573
 3785 04c6 2068     		ldr	r0, [r4]
 280:lvgl/lvgl/src/extra/themes/default/lv_theme_default.c ****     lv_style_set_pad_hor(&styles->btn, PAD_DEF);
 3786              		.loc 1 280 5 view .LVU1142
 3787 04c8 754B     		ldr	r3, .L573+16
 3788 04ca 1988     		ldrh	r1, [r3]
 3789 04cc 2030     		adds	r0, r0, #32
 3790 04ce FFF7FEFF 		bl	lv_style_set_text_color
 3791              	.LVL400:
 281:lvgl/lvgl/src/extra/themes/default/lv_theme_default.c ****     lv_style_set_pad_ver(&styles->btn, PAD_SMALL);
 3792              		.loc 1 281 5 is_stmt 1 view .LVU1143
 281:lvgl/lvgl/src/extra/themes/default/lv_theme_default.c ****     lv_style_set_pad_ver(&styles->btn, PAD_SMALL);
ARM GAS  C:\Users\gx\AppData\Local\Temp\ccQfGIQ4.s 			page 126


 3793              		.loc 1 281 33 is_stmt 0 view .LVU1144
 3794 04d2 2568     		ldr	r5, [r4]
 281:lvgl/lvgl/src/extra/themes/default/lv_theme_default.c ****     lv_style_set_pad_ver(&styles->btn, PAD_SMALL);
 3795              		.loc 1 281 5 view .LVU1145
 3796 04d4 2035     		adds	r5, r5, #32
 281:lvgl/lvgl/src/extra/themes/default/lv_theme_default.c ****     lv_style_set_pad_ver(&styles->btn, PAD_SMALL);
 3797              		.loc 1 281 40 view .LVU1146
 3798 04d6 6F4B     		ldr	r3, .L573+4
 3799 04d8 1B78     		ldrb	r3, [r3]	@ zero_extendqisi2
 281:lvgl/lvgl/src/extra/themes/default/lv_theme_default.c ****     lv_style_set_pad_ver(&styles->btn, PAD_SMALL);
 3800              		.loc 1 281 5 view .LVU1147
 3801 04da 012B     		cmp	r3, #1
 3802 04dc 01F0C482 		beq	.L431
 281:lvgl/lvgl/src/extra/themes/default/lv_theme_default.c ****     lv_style_set_pad_ver(&styles->btn, PAD_SMALL);
 3803              		.loc 1 281 5 discriminator 2 view .LVU1148
 3804 04e0 022B     		cmp	r3, #2
 3805 04e2 01F0DE82 		beq	.L432
 281:lvgl/lvgl/src/extra/themes/default/lv_theme_default.c ****     lv_style_set_pad_ver(&styles->btn, PAD_SMALL);
 3806              		.loc 1 281 40 discriminator 5 view .LVU1149
 3807 04e6 6C4B     		ldr	r3, .L573+8
 3808 04e8 DC68     		ldr	r4, [r3, #12]
 3809              	.LVL401:
 3810              	.LBB466:
 3811              	.LBI466:
 236:d:\practise\f407_disc\lvgl\lvgl\src/core\lv_disp.h **** {
 3812              		.loc 3 236 26 is_stmt 1 discriminator 5 view .LVU1150
 3813              	.LBB467:
 3814              		.loc 3 238 5 discriminator 5 view .LVU1151
 3815              		.loc 3 238 12 is_stmt 0 discriminator 5 view .LVU1152
 3816 04ea 2046     		mov	r0, r4
 3817 04ec FFF7FEFF 		bl	lv_disp_get_dpi
 3818              	.LVL402:
 3819 04f0 0001     		lsls	r0, r0, #4
 3820 04f2 EF28     		cmp	r0, #239
 3821 04f4 01F3F282 		bgt	.L433
 3822              		.loc 3 238 12 view .LVU1153
 3823 04f8 0124     		movs	r4, #1
 3824              	.LVL403:
 3825              	.L140:
 3826              		.loc 3 238 12 view .LVU1154
 3827              	.LBE467:
 3828              	.LBE466:
 3829              	.LBB469:
 3830              	.LBI469:
 432:d:\practise\f407_disc\lvgl\lvgl\src\misc\lv_style.h ****     lv_style_set_pad_left(style, value);
 3831              		.loc 4 432 20 is_stmt 1 discriminator 8 view .LVU1155
 3832              	.LBB470:
 433:d:\practise\f407_disc\lvgl\lvgl\src\misc\lv_style.h ****     lv_style_set_pad_right(style, value);
 3833              		.loc 4 433 5 discriminator 8 view .LVU1156
 3834 04fa 2146     		mov	r1, r4
 3835 04fc 2846     		mov	r0, r5
 3836 04fe FFF7FEFF 		bl	lv_style_set_pad_left
 3837              	.LVL404:
 434:d:\practise\f407_disc\lvgl\lvgl\src\misc\lv_style.h **** }
 3838              		.loc 4 434 5 discriminator 8 view .LVU1157
 3839 0502 2146     		mov	r1, r4
 3840 0504 2846     		mov	r0, r5
ARM GAS  C:\Users\gx\AppData\Local\Temp\ccQfGIQ4.s 			page 127


 3841 0506 FFF7FEFF 		bl	lv_style_set_pad_right
 3842              	.LVL405:
 434:d:\practise\f407_disc\lvgl\lvgl\src\misc\lv_style.h **** }
 3843              		.loc 4 434 5 is_stmt 0 discriminator 8 view .LVU1158
 3844              	.LBE470:
 3845              	.LBE469:
 282:lvgl/lvgl/src/extra/themes/default/lv_theme_default.c ****     lv_style_set_pad_column(&styles->btn, lv_disp_dpx(theme.disp, 5));
 3846              		.loc 1 282 5 is_stmt 1 discriminator 8 view .LVU1159
 282:lvgl/lvgl/src/extra/themes/default/lv_theme_default.c ****     lv_style_set_pad_column(&styles->btn, lv_disp_dpx(theme.disp, 5));
 3847              		.loc 1 282 33 is_stmt 0 discriminator 8 view .LVU1160
 3848 050a 614B     		ldr	r3, .L573
 3849 050c 1D68     		ldr	r5, [r3]
 282:lvgl/lvgl/src/extra/themes/default/lv_theme_default.c ****     lv_style_set_pad_column(&styles->btn, lv_disp_dpx(theme.disp, 5));
 3850              		.loc 1 282 5 discriminator 8 view .LVU1161
 3851 050e 2035     		adds	r5, r5, #32
 282:lvgl/lvgl/src/extra/themes/default/lv_theme_default.c ****     lv_style_set_pad_column(&styles->btn, lv_disp_dpx(theme.disp, 5));
 3852              		.loc 1 282 40 discriminator 8 view .LVU1162
 3853 0510 604B     		ldr	r3, .L573+4
 3854 0512 1B78     		ldrb	r3, [r3]	@ zero_extendqisi2
 282:lvgl/lvgl/src/extra/themes/default/lv_theme_default.c ****     lv_style_set_pad_column(&styles->btn, lv_disp_dpx(theme.disp, 5));
 3855              		.loc 1 282 5 discriminator 8 view .LVU1163
 3856 0514 012B     		cmp	r3, #1
 3857 0516 01F0EF82 		beq	.L434
 282:lvgl/lvgl/src/extra/themes/default/lv_theme_default.c ****     lv_style_set_pad_column(&styles->btn, lv_disp_dpx(theme.disp, 5));
 3858              		.loc 1 282 5 discriminator 2 view .LVU1164
 3859 051a 022B     		cmp	r3, #2
 3860 051c 01F00E83 		beq	.L435
 282:lvgl/lvgl/src/extra/themes/default/lv_theme_default.c ****     lv_style_set_pad_column(&styles->btn, lv_disp_dpx(theme.disp, 5));
 3861              		.loc 1 282 40 discriminator 5 view .LVU1165
 3862 0520 5D4B     		ldr	r3, .L573+8
 3863 0522 DC68     		ldr	r4, [r3, #12]
 3864              	.LVL406:
 3865              	.LBB471:
 3866              	.LBI471:
 236:d:\practise\f407_disc\lvgl\lvgl\src/core\lv_disp.h **** {
 3867              		.loc 3 236 26 is_stmt 1 discriminator 5 view .LVU1166
 3868              	.LBB472:
 3869              		.loc 3 238 5 discriminator 5 view .LVU1167
 3870              		.loc 3 238 12 is_stmt 0 discriminator 5 view .LVU1168
 3871 0524 2046     		mov	r0, r4
 3872 0526 FFF7FEFF 		bl	lv_disp_get_dpi
 3873              	.LVL407:
 3874 052a 00EB8000 		add	r0, r0, r0, lsl #2
 3875 052e 4000     		lsls	r0, r0, #1
 3876 0530 EF28     		cmp	r0, #239
 3877 0532 01F32083 		bgt	.L436
 3878              		.loc 3 238 12 view .LVU1169
 3879 0536 0124     		movs	r4, #1
 3880              	.LVL408:
 3881              	.L146:
 3882              		.loc 3 238 12 view .LVU1170
 3883              	.LBE472:
 3884              	.LBE471:
 3885              	.LBB474:
 3886              	.LBI474:
 437:d:\practise\f407_disc\lvgl\lvgl\src\misc\lv_style.h ****     lv_style_set_pad_top(style, value);
 3887              		.loc 4 437 20 is_stmt 1 discriminator 8 view .LVU1171
ARM GAS  C:\Users\gx\AppData\Local\Temp\ccQfGIQ4.s 			page 128


 3888              	.LBB475:
 438:d:\practise\f407_disc\lvgl\lvgl\src\misc\lv_style.h ****     lv_style_set_pad_bottom(style, value);
 3889              		.loc 4 438 5 discriminator 8 view .LVU1172
 3890 0538 2146     		mov	r1, r4
 3891 053a 2846     		mov	r0, r5
 3892 053c FFF7FEFF 		bl	lv_style_set_pad_top
 3893              	.LVL409:
 439:d:\practise\f407_disc\lvgl\lvgl\src\misc\lv_style.h **** }
 3894              		.loc 4 439 5 discriminator 8 view .LVU1173
 3895 0540 2146     		mov	r1, r4
 3896 0542 2846     		mov	r0, r5
 3897 0544 FFF7FEFF 		bl	lv_style_set_pad_bottom
 3898              	.LVL410:
 439:d:\practise\f407_disc\lvgl\lvgl\src\misc\lv_style.h **** }
 3899              		.loc 4 439 5 is_stmt 0 discriminator 8 view .LVU1174
 3900              	.LBE475:
 3901              	.LBE474:
 283:lvgl/lvgl/src/extra/themes/default/lv_theme_default.c ****     lv_style_set_pad_row(&styles->btn, lv_disp_dpx(theme.disp, 5));
 3902              		.loc 1 283 5 is_stmt 1 discriminator 8 view .LVU1175
 283:lvgl/lvgl/src/extra/themes/default/lv_theme_default.c ****     lv_style_set_pad_row(&styles->btn, lv_disp_dpx(theme.disp, 5));
 3903              		.loc 1 283 36 is_stmt 0 discriminator 8 view .LVU1176
 3904 0548 514B     		ldr	r3, .L573
 3905 054a 1C68     		ldr	r4, [r3]
 283:lvgl/lvgl/src/extra/themes/default/lv_theme_default.c ****     lv_style_set_pad_row(&styles->btn, lv_disp_dpx(theme.disp, 5));
 3906              		.loc 1 283 5 discriminator 8 view .LVU1177
 3907 054c 2034     		adds	r4, r4, #32
 283:lvgl/lvgl/src/extra/themes/default/lv_theme_default.c ****     lv_style_set_pad_row(&styles->btn, lv_disp_dpx(theme.disp, 5));
 3908              		.loc 1 283 60 discriminator 8 view .LVU1178
 3909 054e 524B     		ldr	r3, .L573+8
 3910 0550 DD68     		ldr	r5, [r3, #12]
 3911              	.LVL411:
 3912              	.LBB476:
 3913              	.LBI476:
 236:d:\practise\f407_disc\lvgl\lvgl\src/core\lv_disp.h **** {
 3914              		.loc 3 236 26 is_stmt 1 discriminator 8 view .LVU1179
 3915              	.LBB477:
 3916              		.loc 3 238 5 discriminator 8 view .LVU1180
 3917              		.loc 3 238 12 is_stmt 0 discriminator 8 view .LVU1181
 3918 0552 2846     		mov	r0, r5
 3919 0554 FFF7FEFF 		bl	lv_disp_get_dpi
 3920              	.LVL412:
 3921 0558 00EB8000 		add	r0, r0, r0, lsl #2
 3922 055c EF28     		cmp	r0, #239
 3923 055e 01F31A83 		bgt	.L437
 3924              		.loc 3 238 12 view .LVU1182
 3925 0562 0121     		movs	r1, #1
 3926              	.L150:
 3927              	.LVL413:
 3928              		.loc 3 238 12 view .LVU1183
 3929              	.LBE477:
 3930              	.LBE476:
 283:lvgl/lvgl/src/extra/themes/default/lv_theme_default.c ****     lv_style_set_pad_row(&styles->btn, lv_disp_dpx(theme.disp, 5));
 3931              		.loc 1 283 5 view .LVU1184
 3932 0564 2046     		mov	r0, r4
 3933 0566 FFF7FEFF 		bl	lv_style_set_pad_column
 3934              	.LVL414:
 284:lvgl/lvgl/src/extra/themes/default/lv_theme_default.c **** 
ARM GAS  C:\Users\gx\AppData\Local\Temp\ccQfGIQ4.s 			page 129


 3935              		.loc 1 284 5 is_stmt 1 view .LVU1185
 284:lvgl/lvgl/src/extra/themes/default/lv_theme_default.c **** 
 3936              		.loc 1 284 33 is_stmt 0 view .LVU1186
 3937 056a 494B     		ldr	r3, .L573
 3938 056c 1C68     		ldr	r4, [r3]
 284:lvgl/lvgl/src/extra/themes/default/lv_theme_default.c **** 
 3939              		.loc 1 284 5 view .LVU1187
 3940 056e 2034     		adds	r4, r4, #32
 284:lvgl/lvgl/src/extra/themes/default/lv_theme_default.c **** 
 3941              		.loc 1 284 57 view .LVU1188
 3942 0570 494B     		ldr	r3, .L573+8
 3943 0572 DD68     		ldr	r5, [r3, #12]
 3944              	.LVL415:
 3945              	.LBB479:
 3946              	.LBI479:
 236:d:\practise\f407_disc\lvgl\lvgl\src/core\lv_disp.h **** {
 3947              		.loc 3 236 26 is_stmt 1 view .LVU1189
 3948              	.LBB480:
 3949              		.loc 3 238 5 view .LVU1190
 3950              		.loc 3 238 12 is_stmt 0 view .LVU1191
 3951 0574 2846     		mov	r0, r5
 3952 0576 FFF7FEFF 		bl	lv_disp_get_dpi
 3953              	.LVL416:
 3954 057a 00EB8000 		add	r0, r0, r0, lsl #2
 3955 057e EF28     		cmp	r0, #239
 3956 0580 01F31883 		bgt	.L438
 3957 0584 0121     		movs	r1, #1
 3958              	.L151:
 3959              	.LVL417:
 3960              		.loc 3 238 12 view .LVU1192
 3961              	.LBE480:
 3962              	.LBE479:
 284:lvgl/lvgl/src/extra/themes/default/lv_theme_default.c **** 
 3963              		.loc 1 284 5 view .LVU1193
 3964 0586 2046     		mov	r0, r4
 3965 0588 FFF7FEFF 		bl	lv_style_set_pad_row
 3966              	.LVL418:
 286:lvgl/lvgl/src/extra/themes/default/lv_theme_default.c ****     lv_color_filter_dsc_init(&dark_filter, dark_color_filter_cb);
 3967              		.loc 1 286 5 is_stmt 1 view .LVU1194
 287:lvgl/lvgl/src/extra/themes/default/lv_theme_default.c **** 
 3968              		.loc 1 287 5 view .LVU1195
 3969              	.LBB482:
 3970              	.LBI482:
 623:d:\practise\f407_disc\lvgl\lvgl\src\misc\lv_color.h **** }
 624:d:\practise\f407_disc\lvgl\lvgl\src\misc\lv_color.h **** 
 625:d:\practise\f407_disc\lvgl\lvgl\src\misc\lv_color.h **** static inline lv_color_t lv_color_hex3(uint32_t c)
 626:d:\practise\f407_disc\lvgl\lvgl\src\misc\lv_color.h **** {
 627:d:\practise\f407_disc\lvgl\lvgl\src\misc\lv_color.h ****     return lv_color_make((uint8_t)(((c >> 4) & 0xF0) | ((c >> 8) & 0xF)), (uint8_t)((c & 0xF0) | ((
 628:d:\practise\f407_disc\lvgl\lvgl\src\misc\lv_color.h ****                          (uint8_t)((c & 0xF) | ((c & 0xF) << 4)));
 629:d:\practise\f407_disc\lvgl\lvgl\src\misc\lv_color.h **** }
 630:d:\practise\f407_disc\lvgl\lvgl\src\misc\lv_color.h **** 
 631:d:\practise\f407_disc\lvgl\lvgl\src\misc\lv_color.h **** static inline void lv_color_filter_dsc_init(lv_color_filter_dsc_t * dsc, lv_color_filter_cb_t cb)
 3971              		.loc 2 631 20 view .LVU1196
 3972              	.LBB483:
 632:d:\practise\f407_disc\lvgl\lvgl\src\misc\lv_color.h **** {
 633:d:\practise\f407_disc\lvgl\lvgl\src\misc\lv_color.h ****     dsc->filter_cb = cb;
 3973              		.loc 2 633 5 view .LVU1197
ARM GAS  C:\Users\gx\AppData\Local\Temp\ccQfGIQ4.s 			page 130


 3974              		.loc 2 633 20 is_stmt 0 view .LVU1198
 3975 058c 454E     		ldr	r6, .L573+20
 3976 058e 464B     		ldr	r3, .L573+24
 3977 0590 3360     		str	r3, [r6]
 3978              	.LVL419:
 3979              		.loc 2 633 20 view .LVU1199
 3980              	.LBE483:
 3981              	.LBE482:
 289:lvgl/lvgl/src/extra/themes/default/lv_theme_default.c ****     lv_color_filter_dsc_init(&grey_filter, grey_filter_cb);
 3982              		.loc 1 289 5 is_stmt 1 view .LVU1200
 290:lvgl/lvgl/src/extra/themes/default/lv_theme_default.c **** 
 3983              		.loc 1 290 5 view .LVU1201
 3984              	.LBB484:
 3985              	.LBI484:
 631:d:\practise\f407_disc\lvgl\lvgl\src\misc\lv_color.h **** {
 3986              		.loc 2 631 20 view .LVU1202
 3987              	.LBB485:
 3988              		.loc 2 633 5 view .LVU1203
 3989              		.loc 2 633 20 is_stmt 0 view .LVU1204
 3990 0592 464D     		ldr	r5, .L573+28
 3991 0594 464B     		ldr	r3, .L573+32
 3992 0596 2B60     		str	r3, [r5]
 3993              	.LVL420:
 3994              		.loc 2 633 20 view .LVU1205
 3995              	.LBE485:
 3996              	.LBE484:
 292:lvgl/lvgl/src/extra/themes/default/lv_theme_default.c ****     lv_style_set_color_filter_dsc(&styles->pressed, &dark_filter);
 3997              		.loc 1 292 5 is_stmt 1 view .LVU1206
 292:lvgl/lvgl/src/extra/themes/default/lv_theme_default.c ****     lv_style_set_color_filter_dsc(&styles->pressed, &dark_filter);
 3998              		.loc 1 292 29 is_stmt 0 view .LVU1207
 3999 0598 3D4C     		ldr	r4, .L573
 4000 059a 2068     		ldr	r0, [r4]
 292:lvgl/lvgl/src/extra/themes/default/lv_theme_default.c ****     lv_style_set_color_filter_dsc(&styles->pressed, &dark_filter);
 4001              		.loc 1 292 5 view .LVU1208
 4002 059c 5830     		adds	r0, r0, #88
 4003 059e FFF7FEFF 		bl	style_init_reset
 4004              	.LVL421:
 293:lvgl/lvgl/src/extra/themes/default/lv_theme_default.c ****     lv_style_set_color_filter_opa(&styles->pressed, 35);
 4005              		.loc 1 293 5 is_stmt 1 view .LVU1209
 293:lvgl/lvgl/src/extra/themes/default/lv_theme_default.c ****     lv_style_set_color_filter_opa(&styles->pressed, 35);
 4006              		.loc 1 293 42 is_stmt 0 view .LVU1210
 4007 05a2 2068     		ldr	r0, [r4]
 293:lvgl/lvgl/src/extra/themes/default/lv_theme_default.c ****     lv_style_set_color_filter_opa(&styles->pressed, 35);
 4008              		.loc 1 293 5 view .LVU1211
 4009 05a4 3146     		mov	r1, r6
 4010 05a6 5830     		adds	r0, r0, #88
 4011 05a8 FFF7FEFF 		bl	lv_style_set_color_filter_dsc
 4012              	.LVL422:
 294:lvgl/lvgl/src/extra/themes/default/lv_theme_default.c **** 
 4013              		.loc 1 294 5 is_stmt 1 view .LVU1212
 294:lvgl/lvgl/src/extra/themes/default/lv_theme_default.c **** 
 4014              		.loc 1 294 42 is_stmt 0 view .LVU1213
 4015 05ac 2068     		ldr	r0, [r4]
 294:lvgl/lvgl/src/extra/themes/default/lv_theme_default.c **** 
 4016              		.loc 1 294 5 view .LVU1214
 4017 05ae 2321     		movs	r1, #35
 4018 05b0 5830     		adds	r0, r0, #88
ARM GAS  C:\Users\gx\AppData\Local\Temp\ccQfGIQ4.s 			page 131


 4019 05b2 FFF7FEFF 		bl	lv_style_set_color_filter_opa
 4020              	.LVL423:
 296:lvgl/lvgl/src/extra/themes/default/lv_theme_default.c ****     lv_style_set_color_filter_dsc(&styles->disabled, &grey_filter);
 4021              		.loc 1 296 5 is_stmt 1 view .LVU1215
 296:lvgl/lvgl/src/extra/themes/default/lv_theme_default.c ****     lv_style_set_color_filter_dsc(&styles->disabled, &grey_filter);
 4022              		.loc 1 296 29 is_stmt 0 view .LVU1216
 4023 05b6 2068     		ldr	r0, [r4]
 296:lvgl/lvgl/src/extra/themes/default/lv_theme_default.c ****     lv_style_set_color_filter_dsc(&styles->disabled, &grey_filter);
 4024              		.loc 1 296 5 view .LVU1217
 4025 05b8 6030     		adds	r0, r0, #96
 4026 05ba FFF7FEFF 		bl	style_init_reset
 4027              	.LVL424:
 297:lvgl/lvgl/src/extra/themes/default/lv_theme_default.c ****     lv_style_set_color_filter_opa(&styles->disabled, LV_OPA_50);
 4028              		.loc 1 297 5 is_stmt 1 view .LVU1218
 297:lvgl/lvgl/src/extra/themes/default/lv_theme_default.c ****     lv_style_set_color_filter_opa(&styles->disabled, LV_OPA_50);
 4029              		.loc 1 297 42 is_stmt 0 view .LVU1219
 4030 05be 2068     		ldr	r0, [r4]
 297:lvgl/lvgl/src/extra/themes/default/lv_theme_default.c ****     lv_style_set_color_filter_opa(&styles->disabled, LV_OPA_50);
 4031              		.loc 1 297 5 view .LVU1220
 4032 05c0 2946     		mov	r1, r5
 4033 05c2 6030     		adds	r0, r0, #96
 4034 05c4 FFF7FEFF 		bl	lv_style_set_color_filter_dsc
 4035              	.LVL425:
 298:lvgl/lvgl/src/extra/themes/default/lv_theme_default.c **** 
 4036              		.loc 1 298 5 is_stmt 1 view .LVU1221
 298:lvgl/lvgl/src/extra/themes/default/lv_theme_default.c **** 
 4037              		.loc 1 298 42 is_stmt 0 view .LVU1222
 4038 05c8 2068     		ldr	r0, [r4]
 298:lvgl/lvgl/src/extra/themes/default/lv_theme_default.c **** 
 4039              		.loc 1 298 5 view .LVU1223
 4040 05ca 7F21     		movs	r1, #127
 4041 05cc 6030     		adds	r0, r0, #96
 4042 05ce FFF7FEFF 		bl	lv_style_set_color_filter_opa
 4043              	.LVL426:
 300:lvgl/lvgl/src/extra/themes/default/lv_theme_default.c ****     lv_style_set_clip_corner(&styles->clip_corner, true);
 4044              		.loc 1 300 5 is_stmt 1 view .LVU1224
 300:lvgl/lvgl/src/extra/themes/default/lv_theme_default.c ****     lv_style_set_clip_corner(&styles->clip_corner, true);
 4045              		.loc 1 300 29 is_stmt 0 view .LVU1225
 4046 05d2 2068     		ldr	r0, [r4]
 300:lvgl/lvgl/src/extra/themes/default/lv_theme_default.c ****     lv_style_set_clip_corner(&styles->clip_corner, true);
 4047              		.loc 1 300 5 view .LVU1226
 4048 05d4 C030     		adds	r0, r0, #192
 4049 05d6 FFF7FEFF 		bl	style_init_reset
 4050              	.LVL427:
 301:lvgl/lvgl/src/extra/themes/default/lv_theme_default.c **** 
 4051              		.loc 1 301 5 is_stmt 1 view .LVU1227
 301:lvgl/lvgl/src/extra/themes/default/lv_theme_default.c **** 
 4052              		.loc 1 301 37 is_stmt 0 view .LVU1228
 4053 05da 2068     		ldr	r0, [r4]
 301:lvgl/lvgl/src/extra/themes/default/lv_theme_default.c **** 
 4054              		.loc 1 301 5 view .LVU1229
 4055 05dc 0121     		movs	r1, #1
 4056 05de C030     		adds	r0, r0, #192
 4057 05e0 FFF7FEFF 		bl	lv_style_set_clip_corner
 4058              	.LVL428:
 303:lvgl/lvgl/src/extra/themes/default/lv_theme_default.c ****     lv_style_set_pad_all(&styles->pad_normal, PAD_DEF);
 4059              		.loc 1 303 5 is_stmt 1 view .LVU1230
ARM GAS  C:\Users\gx\AppData\Local\Temp\ccQfGIQ4.s 			page 132


 303:lvgl/lvgl/src/extra/themes/default/lv_theme_default.c ****     lv_style_set_pad_all(&styles->pad_normal, PAD_DEF);
 4060              		.loc 1 303 29 is_stmt 0 view .LVU1231
 4061 05e4 2068     		ldr	r0, [r4]
 303:lvgl/lvgl/src/extra/themes/default/lv_theme_default.c ****     lv_style_set_pad_all(&styles->pad_normal, PAD_DEF);
 4062              		.loc 1 303 5 view .LVU1232
 4063 05e6 8030     		adds	r0, r0, #128
 4064 05e8 FFF7FEFF 		bl	style_init_reset
 4065              	.LVL429:
 304:lvgl/lvgl/src/extra/themes/default/lv_theme_default.c ****     lv_style_set_pad_row(&styles->pad_normal, PAD_DEF);
 4066              		.loc 1 304 5 is_stmt 1 view .LVU1233
 304:lvgl/lvgl/src/extra/themes/default/lv_theme_default.c ****     lv_style_set_pad_row(&styles->pad_normal, PAD_DEF);
 4067              		.loc 1 304 33 is_stmt 0 view .LVU1234
 4068 05ec 2568     		ldr	r5, [r4]
 304:lvgl/lvgl/src/extra/themes/default/lv_theme_default.c ****     lv_style_set_pad_row(&styles->pad_normal, PAD_DEF);
 4069              		.loc 1 304 5 view .LVU1235
 4070 05ee 8035     		adds	r5, r5, #128
 304:lvgl/lvgl/src/extra/themes/default/lv_theme_default.c ****     lv_style_set_pad_row(&styles->pad_normal, PAD_DEF);
 4071              		.loc 1 304 47 view .LVU1236
 4072 05f0 284B     		ldr	r3, .L573+4
 4073 05f2 1B78     		ldrb	r3, [r3]	@ zero_extendqisi2
 304:lvgl/lvgl/src/extra/themes/default/lv_theme_default.c ****     lv_style_set_pad_row(&styles->pad_normal, PAD_DEF);
 4074              		.loc 1 304 5 view .LVU1237
 4075 05f4 012B     		cmp	r3, #1
 4076 05f6 01F0EC82 		beq	.L439
 304:lvgl/lvgl/src/extra/themes/default/lv_theme_default.c ****     lv_style_set_pad_row(&styles->pad_normal, PAD_DEF);
 4077              		.loc 1 304 5 discriminator 2 view .LVU1238
 4078 05fa 022B     		cmp	r3, #2
 4079 05fc 01F00683 		beq	.L440
 304:lvgl/lvgl/src/extra/themes/default/lv_theme_default.c ****     lv_style_set_pad_row(&styles->pad_normal, PAD_DEF);
 4080              		.loc 1 304 47 discriminator 5 view .LVU1239
 4081 0600 254B     		ldr	r3, .L573+8
 4082 0602 DC68     		ldr	r4, [r3, #12]
 4083              	.LVL430:
 4084              	.LBB486:
 4085              	.LBI486:
 236:d:\practise\f407_disc\lvgl\lvgl\src/core\lv_disp.h **** {
 4086              		.loc 3 236 26 is_stmt 1 discriminator 5 view .LVU1240
 4087              	.LBB487:
 4088              		.loc 3 238 5 discriminator 5 view .LVU1241
 4089              		.loc 3 238 12 is_stmt 0 discriminator 5 view .LVU1242
 4090 0604 2046     		mov	r0, r4
 4091 0606 FFF7FEFF 		bl	lv_disp_get_dpi
 4092              	.LVL431:
 4093 060a 0001     		lsls	r0, r0, #4
 4094 060c EF28     		cmp	r0, #239
 4095 060e 01F31A83 		bgt	.L441
 4096              		.loc 3 238 12 view .LVU1243
 4097 0612 0124     		movs	r4, #1
 4098              	.LVL432:
 4099              	.L154:
 4100              		.loc 3 238 12 view .LVU1244
 4101              	.LBE487:
 4102              	.LBE486:
 4103              	.LBB489:
 4104              	.LBI489:
 425:d:\practise\f407_disc\lvgl\lvgl\src\misc\lv_style.h ****     lv_style_set_pad_left(style, value);
 4105              		.loc 4 425 20 is_stmt 1 discriminator 8 view .LVU1245
ARM GAS  C:\Users\gx\AppData\Local\Temp\ccQfGIQ4.s 			page 133


 4106              	.LBB490:
 426:d:\practise\f407_disc\lvgl\lvgl\src\misc\lv_style.h ****     lv_style_set_pad_right(style, value);
 4107              		.loc 4 426 5 discriminator 8 view .LVU1246
 4108 0614 2146     		mov	r1, r4
 4109 0616 2846     		mov	r0, r5
 4110 0618 FFF7FEFF 		bl	lv_style_set_pad_left
 4111              	.LVL433:
 427:d:\practise\f407_disc\lvgl\lvgl\src\misc\lv_style.h ****     lv_style_set_pad_top(style, value);
 4112              		.loc 4 427 5 discriminator 8 view .LVU1247
 4113 061c 2146     		mov	r1, r4
 4114 061e 2846     		mov	r0, r5
 4115 0620 FFF7FEFF 		bl	lv_style_set_pad_right
 4116              	.LVL434:
 428:d:\practise\f407_disc\lvgl\lvgl\src\misc\lv_style.h ****     lv_style_set_pad_bottom(style, value);
 4117              		.loc 4 428 5 discriminator 8 view .LVU1248
 4118 0624 2146     		mov	r1, r4
 4119 0626 2846     		mov	r0, r5
 4120 0628 FFF7FEFF 		bl	lv_style_set_pad_top
 4121              	.LVL435:
 429:d:\practise\f407_disc\lvgl\lvgl\src\misc\lv_style.h **** }
 4122              		.loc 4 429 5 discriminator 8 view .LVU1249
 4123 062c 2146     		mov	r1, r4
 4124 062e 2846     		mov	r0, r5
 4125 0630 FFF7FEFF 		bl	lv_style_set_pad_bottom
 4126              	.LVL436:
 429:d:\practise\f407_disc\lvgl\lvgl\src\misc\lv_style.h **** }
 4127              		.loc 4 429 5 is_stmt 0 discriminator 8 view .LVU1250
 4128              	.LBE490:
 4129              	.LBE489:
 305:lvgl/lvgl/src/extra/themes/default/lv_theme_default.c ****     lv_style_set_pad_column(&styles->pad_normal, PAD_DEF);
 4130              		.loc 1 305 5 is_stmt 1 discriminator 8 view .LVU1251
 305:lvgl/lvgl/src/extra/themes/default/lv_theme_default.c ****     lv_style_set_pad_column(&styles->pad_normal, PAD_DEF);
 4131              		.loc 1 305 33 is_stmt 0 discriminator 8 view .LVU1252
 4132 0634 164B     		ldr	r3, .L573
 4133 0636 1C68     		ldr	r4, [r3]
 305:lvgl/lvgl/src/extra/themes/default/lv_theme_default.c ****     lv_style_set_pad_column(&styles->pad_normal, PAD_DEF);
 4134              		.loc 1 305 5 discriminator 8 view .LVU1253
 4135 0638 8034     		adds	r4, r4, #128
 305:lvgl/lvgl/src/extra/themes/default/lv_theme_default.c ****     lv_style_set_pad_column(&styles->pad_normal, PAD_DEF);
 4136              		.loc 1 305 47 discriminator 8 view .LVU1254
 4137 063a 164B     		ldr	r3, .L573+4
 4138 063c 1B78     		ldrb	r3, [r3]	@ zero_extendqisi2
 305:lvgl/lvgl/src/extra/themes/default/lv_theme_default.c ****     lv_style_set_pad_column(&styles->pad_normal, PAD_DEF);
 4139              		.loc 1 305 5 discriminator 8 view .LVU1255
 4140 063e 012B     		cmp	r3, #1
 4141 0640 01F00F83 		beq	.L442
 305:lvgl/lvgl/src/extra/themes/default/lv_theme_default.c ****     lv_style_set_pad_column(&styles->pad_normal, PAD_DEF);
 4142              		.loc 1 305 5 discriminator 2 view .LVU1256
 4143 0644 022B     		cmp	r3, #2
 4144 0646 01F02983 		beq	.L443
 305:lvgl/lvgl/src/extra/themes/default/lv_theme_default.c ****     lv_style_set_pad_column(&styles->pad_normal, PAD_DEF);
 4145              		.loc 1 305 47 discriminator 5 view .LVU1257
 4146 064a 134B     		ldr	r3, .L573+8
 4147 064c DD68     		ldr	r5, [r3, #12]
 4148              	.LVL437:
 4149              	.LBB491:
 4150              	.LBI491:
ARM GAS  C:\Users\gx\AppData\Local\Temp\ccQfGIQ4.s 			page 134


 236:d:\practise\f407_disc\lvgl\lvgl\src/core\lv_disp.h **** {
 4151              		.loc 3 236 26 is_stmt 1 discriminator 5 view .LVU1258
 4152              	.LBB492:
 4153              		.loc 3 238 5 discriminator 5 view .LVU1259
 4154              		.loc 3 238 12 is_stmt 0 discriminator 5 view .LVU1260
 4155 064e 2846     		mov	r0, r5
 4156 0650 FFF7FEFF 		bl	lv_disp_get_dpi
 4157              	.LVL438:
 4158 0654 0001     		lsls	r0, r0, #4
 4159 0656 EF28     		cmp	r0, #239
 4160 0658 01F33D83 		bgt	.L444
 4161              		.loc 3 238 12 view .LVU1261
 4162 065c 0121     		movs	r1, #1
 4163              	.LVL439:
 4164              	.L160:
 4165              		.loc 3 238 12 view .LVU1262
 4166              	.LBE492:
 4167              	.LBE491:
 305:lvgl/lvgl/src/extra/themes/default/lv_theme_default.c ****     lv_style_set_pad_column(&styles->pad_normal, PAD_DEF);
 4168              		.loc 1 305 5 discriminator 8 view .LVU1263
 4169 065e 2046     		mov	r0, r4
 4170 0660 FFF7FEFF 		bl	lv_style_set_pad_row
 4171              	.LVL440:
 306:lvgl/lvgl/src/extra/themes/default/lv_theme_default.c **** 
 4172              		.loc 1 306 5 is_stmt 1 discriminator 8 view .LVU1264
 306:lvgl/lvgl/src/extra/themes/default/lv_theme_default.c **** 
 4173              		.loc 1 306 36 is_stmt 0 discriminator 8 view .LVU1265
 4174 0664 0A4B     		ldr	r3, .L573
 4175 0666 1C68     		ldr	r4, [r3]
 306:lvgl/lvgl/src/extra/themes/default/lv_theme_default.c **** 
 4176              		.loc 1 306 5 discriminator 8 view .LVU1266
 4177 0668 8034     		adds	r4, r4, #128
 306:lvgl/lvgl/src/extra/themes/default/lv_theme_default.c **** 
 4178              		.loc 1 306 50 discriminator 8 view .LVU1267
 4179 066a 0A4B     		ldr	r3, .L573+4
 4180 066c 1B78     		ldrb	r3, [r3]	@ zero_extendqisi2
 306:lvgl/lvgl/src/extra/themes/default/lv_theme_default.c **** 
 4181              		.loc 1 306 5 discriminator 8 view .LVU1268
 4182 066e 012B     		cmp	r3, #1
 4183 0670 01F03F83 		beq	.L445
 306:lvgl/lvgl/src/extra/themes/default/lv_theme_default.c **** 
 4184              		.loc 1 306 5 discriminator 2 view .LVU1269
 4185 0674 022B     		cmp	r3, #2
 4186 0676 01F05983 		beq	.L446
 306:lvgl/lvgl/src/extra/themes/default/lv_theme_default.c **** 
 4187              		.loc 1 306 50 discriminator 5 view .LVU1270
 4188 067a 074B     		ldr	r3, .L573+8
 4189 067c DD68     		ldr	r5, [r3, #12]
 4190              	.LVL441:
 4191              	.LBB494:
 4192              	.LBI494:
 236:d:\practise\f407_disc\lvgl\lvgl\src/core\lv_disp.h **** {
 4193              		.loc 3 236 26 is_stmt 1 discriminator 5 view .LVU1271
 4194              	.LBB495:
 4195              		.loc 3 238 5 discriminator 5 view .LVU1272
 4196              		.loc 3 238 12 is_stmt 0 discriminator 5 view .LVU1273
 4197 067e 2846     		mov	r0, r5
ARM GAS  C:\Users\gx\AppData\Local\Temp\ccQfGIQ4.s 			page 135


 4198 0680 FFF7FEFF 		bl	lv_disp_get_dpi
 4199              	.LVL442:
 4200 0684 0001     		lsls	r0, r0, #4
 4201 0686 EF28     		cmp	r0, #239
 4202 0688 01F36D83 		bgt	.L447
 4203              		.loc 3 238 12 view .LVU1274
 4204 068c 0121     		movs	r1, #1
 4205 068e 11E0     		b	.L574
 4206              	.L575:
 4207              		.align	2
 4208              	.L573:
 4209 0690 00000000 		.word	.LANCHOR0
 4210 0694 00000000 		.word	.LANCHOR1
 4211 0698 00000000 		.word	.LANCHOR2
 4212 069c 00000000 		.word	.LANCHOR7
 4213 06a0 00000000 		.word	.LANCHOR5
 4214 06a4 00000000 		.word	.LANCHOR11
 4215 06a8 00000000 		.word	dark_color_filter_cb
 4216 06ac 00000000 		.word	.LANCHOR12
 4217 06b0 00000000 		.word	grey_filter_cb
 4218              	.L574:
 4219              	.LVL443:
 4220              	.L166:
 4221              		.loc 3 238 12 view .LVU1275
 4222              	.LBE495:
 4223              	.LBE494:
 306:lvgl/lvgl/src/extra/themes/default/lv_theme_default.c **** 
 4224              		.loc 1 306 5 discriminator 8 view .LVU1276
 4225 06b4 2046     		mov	r0, r4
 4226 06b6 FFF7FEFF 		bl	lv_style_set_pad_column
 4227              	.LVL444:
 308:lvgl/lvgl/src/extra/themes/default/lv_theme_default.c ****     lv_style_set_pad_all(&styles->pad_small, PAD_SMALL);
 4228              		.loc 1 308 5 is_stmt 1 discriminator 8 view .LVU1277
 308:lvgl/lvgl/src/extra/themes/default/lv_theme_default.c ****     lv_style_set_pad_all(&styles->pad_small, PAD_SMALL);
 4229              		.loc 1 308 29 is_stmt 0 discriminator 8 view .LVU1278
 4230 06ba CE4C     		ldr	r4, .L576
 4231 06bc 2068     		ldr	r0, [r4]
 308:lvgl/lvgl/src/extra/themes/default/lv_theme_default.c ****     lv_style_set_pad_all(&styles->pad_small, PAD_SMALL);
 4232              		.loc 1 308 5 discriminator 8 view .LVU1279
 4233 06be 7830     		adds	r0, r0, #120
 4234 06c0 FFF7FEFF 		bl	style_init_reset
 4235              	.LVL445:
 309:lvgl/lvgl/src/extra/themes/default/lv_theme_default.c ****     lv_style_set_pad_gap(&styles->pad_small, PAD_SMALL);
 4236              		.loc 1 309 5 is_stmt 1 discriminator 8 view .LVU1280
 309:lvgl/lvgl/src/extra/themes/default/lv_theme_default.c ****     lv_style_set_pad_gap(&styles->pad_small, PAD_SMALL);
 4237              		.loc 1 309 33 is_stmt 0 discriminator 8 view .LVU1281
 4238 06c4 2568     		ldr	r5, [r4]
 309:lvgl/lvgl/src/extra/themes/default/lv_theme_default.c ****     lv_style_set_pad_gap(&styles->pad_small, PAD_SMALL);
 4239              		.loc 1 309 5 discriminator 8 view .LVU1282
 4240 06c6 7835     		adds	r5, r5, #120
 309:lvgl/lvgl/src/extra/themes/default/lv_theme_default.c ****     lv_style_set_pad_gap(&styles->pad_small, PAD_SMALL);
 4241              		.loc 1 309 46 discriminator 8 view .LVU1283
 4242 06c8 CB4B     		ldr	r3, .L576+4
 4243 06ca 1B78     		ldrb	r3, [r3]	@ zero_extendqisi2
 309:lvgl/lvgl/src/extra/themes/default/lv_theme_default.c ****     lv_style_set_pad_gap(&styles->pad_small, PAD_SMALL);
 4244              		.loc 1 309 5 discriminator 8 view .LVU1284
 4245 06cc 012B     		cmp	r3, #1
ARM GAS  C:\Users\gx\AppData\Local\Temp\ccQfGIQ4.s 			page 136


 4246 06ce 01F05883 		beq	.L448
 309:lvgl/lvgl/src/extra/themes/default/lv_theme_default.c ****     lv_style_set_pad_gap(&styles->pad_small, PAD_SMALL);
 4247              		.loc 1 309 5 discriminator 2 view .LVU1285
 4248 06d2 022B     		cmp	r3, #2
 4249 06d4 01F07283 		beq	.L449
 309:lvgl/lvgl/src/extra/themes/default/lv_theme_default.c ****     lv_style_set_pad_gap(&styles->pad_small, PAD_SMALL);
 4250              		.loc 1 309 46 discriminator 5 view .LVU1286
 4251 06d8 C84B     		ldr	r3, .L576+8
 4252 06da DC68     		ldr	r4, [r3, #12]
 4253              	.LVL446:
 4254              	.LBB497:
 4255              	.LBI497:
 236:d:\practise\f407_disc\lvgl\lvgl\src/core\lv_disp.h **** {
 4256              		.loc 3 236 26 is_stmt 1 discriminator 5 view .LVU1287
 4257              	.LBB498:
 4258              		.loc 3 238 5 discriminator 5 view .LVU1288
 4259              		.loc 3 238 12 is_stmt 0 discriminator 5 view .LVU1289
 4260 06dc 2046     		mov	r0, r4
 4261 06de FFF7FEFF 		bl	lv_disp_get_dpi
 4262              	.LVL447:
 4263 06e2 00EB8000 		add	r0, r0, r0, lsl #2
 4264 06e6 4000     		lsls	r0, r0, #1
 4265 06e8 EF28     		cmp	r0, #239
 4266 06ea 01F38483 		bgt	.L450
 4267              		.loc 3 238 12 view .LVU1290
 4268 06ee 0124     		movs	r4, #1
 4269              	.LVL448:
 4270              	.L172:
 4271              		.loc 3 238 12 view .LVU1291
 4272              	.LBE498:
 4273              	.LBE497:
 4274              	.LBB500:
 4275              	.LBI500:
 425:d:\practise\f407_disc\lvgl\lvgl\src\misc\lv_style.h ****     lv_style_set_pad_left(style, value);
 4276              		.loc 4 425 20 is_stmt 1 discriminator 8 view .LVU1292
 4277              	.LBB501:
 426:d:\practise\f407_disc\lvgl\lvgl\src\misc\lv_style.h ****     lv_style_set_pad_right(style, value);
 4278              		.loc 4 426 5 discriminator 8 view .LVU1293
 4279 06f0 2146     		mov	r1, r4
 4280 06f2 2846     		mov	r0, r5
 4281 06f4 FFF7FEFF 		bl	lv_style_set_pad_left
 4282              	.LVL449:
 427:d:\practise\f407_disc\lvgl\lvgl\src\misc\lv_style.h ****     lv_style_set_pad_top(style, value);
 4283              		.loc 4 427 5 discriminator 8 view .LVU1294
 4284 06f8 2146     		mov	r1, r4
 4285 06fa 2846     		mov	r0, r5
 4286 06fc FFF7FEFF 		bl	lv_style_set_pad_right
 4287              	.LVL450:
 428:d:\practise\f407_disc\lvgl\lvgl\src\misc\lv_style.h ****     lv_style_set_pad_bottom(style, value);
 4288              		.loc 4 428 5 discriminator 8 view .LVU1295
 4289 0700 2146     		mov	r1, r4
 4290 0702 2846     		mov	r0, r5
 4291 0704 FFF7FEFF 		bl	lv_style_set_pad_top
 4292              	.LVL451:
 429:d:\practise\f407_disc\lvgl\lvgl\src\misc\lv_style.h **** }
 4293              		.loc 4 429 5 discriminator 8 view .LVU1296
 4294 0708 2146     		mov	r1, r4
ARM GAS  C:\Users\gx\AppData\Local\Temp\ccQfGIQ4.s 			page 137


 4295 070a 2846     		mov	r0, r5
 4296 070c FFF7FEFF 		bl	lv_style_set_pad_bottom
 4297              	.LVL452:
 429:d:\practise\f407_disc\lvgl\lvgl\src\misc\lv_style.h **** }
 4298              		.loc 4 429 5 is_stmt 0 discriminator 8 view .LVU1297
 4299              	.LBE501:
 4300              	.LBE500:
 310:lvgl/lvgl/src/extra/themes/default/lv_theme_default.c **** 
 4301              		.loc 1 310 5 is_stmt 1 discriminator 8 view .LVU1298
 310:lvgl/lvgl/src/extra/themes/default/lv_theme_default.c **** 
 4302              		.loc 1 310 33 is_stmt 0 discriminator 8 view .LVU1299
 4303 0710 B84B     		ldr	r3, .L576
 4304 0712 1D68     		ldr	r5, [r3]
 310:lvgl/lvgl/src/extra/themes/default/lv_theme_default.c **** 
 4305              		.loc 1 310 5 discriminator 8 view .LVU1300
 4306 0714 7835     		adds	r5, r5, #120
 310:lvgl/lvgl/src/extra/themes/default/lv_theme_default.c **** 
 4307              		.loc 1 310 46 discriminator 8 view .LVU1301
 4308 0716 B84B     		ldr	r3, .L576+4
 4309 0718 1B78     		ldrb	r3, [r3]	@ zero_extendqisi2
 310:lvgl/lvgl/src/extra/themes/default/lv_theme_default.c **** 
 4310              		.loc 1 310 5 discriminator 8 view .LVU1302
 4311 071a 012B     		cmp	r3, #1
 4312 071c 01F07B83 		beq	.L451
 310:lvgl/lvgl/src/extra/themes/default/lv_theme_default.c **** 
 4313              		.loc 1 310 5 discriminator 2 view .LVU1303
 4314 0720 022B     		cmp	r3, #2
 4315 0722 01F09583 		beq	.L452
 310:lvgl/lvgl/src/extra/themes/default/lv_theme_default.c **** 
 4316              		.loc 1 310 46 discriminator 5 view .LVU1304
 4317 0726 B54B     		ldr	r3, .L576+8
 4318 0728 DC68     		ldr	r4, [r3, #12]
 4319              	.LVL453:
 4320              	.LBB502:
 4321              	.LBI502:
 236:d:\practise\f407_disc\lvgl\lvgl\src/core\lv_disp.h **** {
 4322              		.loc 3 236 26 is_stmt 1 discriminator 5 view .LVU1305
 4323              	.LBB503:
 4324              		.loc 3 238 5 discriminator 5 view .LVU1306
 4325              		.loc 3 238 12 is_stmt 0 discriminator 5 view .LVU1307
 4326 072a 2046     		mov	r0, r4
 4327 072c FFF7FEFF 		bl	lv_disp_get_dpi
 4328              	.LVL454:
 4329 0730 00EB8000 		add	r0, r0, r0, lsl #2
 4330 0734 4000     		lsls	r0, r0, #1
 4331 0736 EF28     		cmp	r0, #239
 4332 0738 01F3AC83 		bgt	.L453
 4333              		.loc 3 238 12 view .LVU1308
 4334 073c 0124     		movs	r4, #1
 4335              	.LVL455:
 4336              	.L178:
 4337              		.loc 3 238 12 view .LVU1309
 4338              	.LBE503:
 4339              	.LBE502:
 4340              	.LBB505:
 4341              	.LBI505:
 442:d:\practise\f407_disc\lvgl\lvgl\src\misc\lv_style.h ****     lv_style_set_pad_row(style, value);
ARM GAS  C:\Users\gx\AppData\Local\Temp\ccQfGIQ4.s 			page 138


 4342              		.loc 4 442 20 is_stmt 1 discriminator 8 view .LVU1310
 4343              	.LBB506:
 443:d:\practise\f407_disc\lvgl\lvgl\src\misc\lv_style.h ****     lv_style_set_pad_column(style, value);
 4344              		.loc 4 443 5 discriminator 8 view .LVU1311
 4345 073e 2146     		mov	r1, r4
 4346 0740 2846     		mov	r0, r5
 4347 0742 FFF7FEFF 		bl	lv_style_set_pad_row
 4348              	.LVL456:
 444:d:\practise\f407_disc\lvgl\lvgl\src\misc\lv_style.h **** }
 4349              		.loc 4 444 5 discriminator 8 view .LVU1312
 4350 0746 2146     		mov	r1, r4
 4351 0748 2846     		mov	r0, r5
 4352 074a FFF7FEFF 		bl	lv_style_set_pad_column
 4353              	.LVL457:
 444:d:\practise\f407_disc\lvgl\lvgl\src\misc\lv_style.h **** }
 4354              		.loc 4 444 5 is_stmt 0 discriminator 8 view .LVU1313
 4355              	.LBE506:
 4356              	.LBE505:
 312:lvgl/lvgl/src/extra/themes/default/lv_theme_default.c ****     lv_style_set_pad_row(&styles->pad_gap, lv_disp_dpx(theme.disp, 10));
 4357              		.loc 1 312 5 is_stmt 1 discriminator 8 view .LVU1314
 312:lvgl/lvgl/src/extra/themes/default/lv_theme_default.c ****     lv_style_set_pad_row(&styles->pad_gap, lv_disp_dpx(theme.disp, 10));
 4358              		.loc 1 312 29 is_stmt 0 discriminator 8 view .LVU1315
 4359 074e A94C     		ldr	r4, .L576
 4360 0750 2068     		ldr	r0, [r4]
 312:lvgl/lvgl/src/extra/themes/default/lv_theme_default.c ****     lv_style_set_pad_row(&styles->pad_gap, lv_disp_dpx(theme.disp, 10));
 4361              		.loc 1 312 5 discriminator 8 view .LVU1316
 4362 0752 8830     		adds	r0, r0, #136
 4363 0754 FFF7FEFF 		bl	style_init_reset
 4364              	.LVL458:
 313:lvgl/lvgl/src/extra/themes/default/lv_theme_default.c ****     lv_style_set_pad_column(&styles->pad_gap, lv_disp_dpx(theme.disp, 10));
 4365              		.loc 1 313 5 is_stmt 1 discriminator 8 view .LVU1317
 313:lvgl/lvgl/src/extra/themes/default/lv_theme_default.c ****     lv_style_set_pad_column(&styles->pad_gap, lv_disp_dpx(theme.disp, 10));
 4366              		.loc 1 313 33 is_stmt 0 discriminator 8 view .LVU1318
 4367 0758 2468     		ldr	r4, [r4]
 313:lvgl/lvgl/src/extra/themes/default/lv_theme_default.c ****     lv_style_set_pad_column(&styles->pad_gap, lv_disp_dpx(theme.disp, 10));
 4368              		.loc 1 313 5 discriminator 8 view .LVU1319
 4369 075a 8834     		adds	r4, r4, #136
 313:lvgl/lvgl/src/extra/themes/default/lv_theme_default.c ****     lv_style_set_pad_column(&styles->pad_gap, lv_disp_dpx(theme.disp, 10));
 4370              		.loc 1 313 61 discriminator 8 view .LVU1320
 4371 075c A74B     		ldr	r3, .L576+8
 4372 075e DD68     		ldr	r5, [r3, #12]
 4373              	.LVL459:
 4374              	.LBB507:
 4375              	.LBI507:
 236:d:\practise\f407_disc\lvgl\lvgl\src/core\lv_disp.h **** {
 4376              		.loc 3 236 26 is_stmt 1 discriminator 8 view .LVU1321
 4377              	.LBB508:
 4378              		.loc 3 238 5 discriminator 8 view .LVU1322
 4379              		.loc 3 238 12 is_stmt 0 discriminator 8 view .LVU1323
 4380 0760 2846     		mov	r0, r5
 4381 0762 FFF7FEFF 		bl	lv_disp_get_dpi
 4382              	.LVL460:
 4383 0766 00EB8000 		add	r0, r0, r0, lsl #2
 4384 076a 4000     		lsls	r0, r0, #1
 4385 076c EF28     		cmp	r0, #239
 4386 076e 01F3A183 		bgt	.L454
 4387              		.loc 3 238 12 view .LVU1324
ARM GAS  C:\Users\gx\AppData\Local\Temp\ccQfGIQ4.s 			page 139


 4388 0772 0121     		movs	r1, #1
 4389              	.L182:
 4390              	.LVL461:
 4391              		.loc 3 238 12 view .LVU1325
 4392              	.LBE508:
 4393              	.LBE507:
 313:lvgl/lvgl/src/extra/themes/default/lv_theme_default.c ****     lv_style_set_pad_column(&styles->pad_gap, lv_disp_dpx(theme.disp, 10));
 4394              		.loc 1 313 5 view .LVU1326
 4395 0774 2046     		mov	r0, r4
 4396 0776 FFF7FEFF 		bl	lv_style_set_pad_row
 4397              	.LVL462:
 314:lvgl/lvgl/src/extra/themes/default/lv_theme_default.c **** 
 4398              		.loc 1 314 5 is_stmt 1 view .LVU1327
 314:lvgl/lvgl/src/extra/themes/default/lv_theme_default.c **** 
 4399              		.loc 1 314 36 is_stmt 0 view .LVU1328
 4400 077a 9E4B     		ldr	r3, .L576
 4401 077c 1C68     		ldr	r4, [r3]
 314:lvgl/lvgl/src/extra/themes/default/lv_theme_default.c **** 
 4402              		.loc 1 314 5 view .LVU1329
 4403 077e 8834     		adds	r4, r4, #136
 314:lvgl/lvgl/src/extra/themes/default/lv_theme_default.c **** 
 4404              		.loc 1 314 64 view .LVU1330
 4405 0780 9E4B     		ldr	r3, .L576+8
 4406 0782 DD68     		ldr	r5, [r3, #12]
 4407              	.LVL463:
 4408              	.LBB510:
 4409              	.LBI510:
 236:d:\practise\f407_disc\lvgl\lvgl\src/core\lv_disp.h **** {
 4410              		.loc 3 236 26 is_stmt 1 view .LVU1331
 4411              	.LBB511:
 4412              		.loc 3 238 5 view .LVU1332
 4413              		.loc 3 238 12 is_stmt 0 view .LVU1333
 4414 0784 2846     		mov	r0, r5
 4415 0786 FFF7FEFF 		bl	lv_disp_get_dpi
 4416              	.LVL464:
 4417 078a 00EB8000 		add	r0, r0, r0, lsl #2
 4418 078e 4000     		lsls	r0, r0, #1
 4419 0790 EF28     		cmp	r0, #239
 4420 0792 01F39F83 		bgt	.L455
 4421 0796 0121     		movs	r1, #1
 4422              	.L183:
 4423              	.LVL465:
 4424              		.loc 3 238 12 view .LVU1334
 4425              	.LBE511:
 4426              	.LBE510:
 314:lvgl/lvgl/src/extra/themes/default/lv_theme_default.c **** 
 4427              		.loc 1 314 5 view .LVU1335
 4428 0798 2046     		mov	r0, r4
 4429 079a FFF7FEFF 		bl	lv_style_set_pad_column
 4430              	.LVL466:
 316:lvgl/lvgl/src/extra/themes/default/lv_theme_default.c ****     lv_style_set_text_line_space(&styles->line_space_large, lv_disp_dpx(theme.disp, 20));
 4431              		.loc 1 316 5 is_stmt 1 view .LVU1336
 316:lvgl/lvgl/src/extra/themes/default/lv_theme_default.c ****     lv_style_set_text_line_space(&styles->line_space_large, lv_disp_dpx(theme.disp, 20));
 4432              		.loc 1 316 29 is_stmt 0 view .LVU1337
 4433 079e 954C     		ldr	r4, .L576
 4434 07a0 2068     		ldr	r0, [r4]
 316:lvgl/lvgl/src/extra/themes/default/lv_theme_default.c ****     lv_style_set_text_line_space(&styles->line_space_large, lv_disp_dpx(theme.disp, 20));
ARM GAS  C:\Users\gx\AppData\Local\Temp\ccQfGIQ4.s 			page 140


 4435              		.loc 1 316 5 view .LVU1338
 4436 07a2 9030     		adds	r0, r0, #144
 4437 07a4 FFF7FEFF 		bl	style_init_reset
 4438              	.LVL467:
 317:lvgl/lvgl/src/extra/themes/default/lv_theme_default.c **** 
 4439              		.loc 1 317 5 is_stmt 1 view .LVU1339
 317:lvgl/lvgl/src/extra/themes/default/lv_theme_default.c **** 
 4440              		.loc 1 317 41 is_stmt 0 view .LVU1340
 4441 07a8 2468     		ldr	r4, [r4]
 317:lvgl/lvgl/src/extra/themes/default/lv_theme_default.c **** 
 4442              		.loc 1 317 5 view .LVU1341
 4443 07aa 9034     		adds	r4, r4, #144
 317:lvgl/lvgl/src/extra/themes/default/lv_theme_default.c **** 
 4444              		.loc 1 317 78 view .LVU1342
 4445 07ac 934B     		ldr	r3, .L576+8
 4446 07ae DD68     		ldr	r5, [r3, #12]
 4447              	.LVL468:
 4448              	.LBB513:
 4449              	.LBI513:
 236:d:\practise\f407_disc\lvgl\lvgl\src/core\lv_disp.h **** {
 4450              		.loc 3 236 26 is_stmt 1 view .LVU1343
 4451              	.LBB514:
 4452              		.loc 3 238 5 view .LVU1344
 4453              		.loc 3 238 12 is_stmt 0 view .LVU1345
 4454 07b0 2846     		mov	r0, r5
 4455 07b2 FFF7FEFF 		bl	lv_disp_get_dpi
 4456              	.LVL469:
 4457 07b6 00EB8000 		add	r0, r0, r0, lsl #2
 4458 07ba 8000     		lsls	r0, r0, #2
 4459 07bc EF28     		cmp	r0, #239
 4460 07be 01F39983 		bgt	.L456
 4461 07c2 0121     		movs	r1, #1
 4462              	.L184:
 4463              	.LVL470:
 4464              		.loc 3 238 12 view .LVU1346
 4465              	.LBE514:
 4466              	.LBE513:
 317:lvgl/lvgl/src/extra/themes/default/lv_theme_default.c **** 
 4467              		.loc 1 317 5 view .LVU1347
 4468 07c4 2046     		mov	r0, r4
 4469 07c6 FFF7FEFF 		bl	lv_style_set_text_line_space
 4470              	.LVL471:
 319:lvgl/lvgl/src/extra/themes/default/lv_theme_default.c ****     lv_style_set_text_align(&styles->text_align_center, LV_TEXT_ALIGN_CENTER);
 4471              		.loc 1 319 5 is_stmt 1 view .LVU1348
 319:lvgl/lvgl/src/extra/themes/default/lv_theme_default.c ****     lv_style_set_text_align(&styles->text_align_center, LV_TEXT_ALIGN_CENTER);
 4472              		.loc 1 319 29 is_stmt 0 view .LVU1349
 4473 07ca 8A4C     		ldr	r4, .L576
 4474 07cc 2068     		ldr	r0, [r4]
 319:lvgl/lvgl/src/extra/themes/default/lv_theme_default.c ****     lv_style_set_text_align(&styles->text_align_center, LV_TEXT_ALIGN_CENTER);
 4475              		.loc 1 319 5 view .LVU1350
 4476 07ce 9830     		adds	r0, r0, #152
 4477 07d0 FFF7FEFF 		bl	style_init_reset
 4478              	.LVL472:
 320:lvgl/lvgl/src/extra/themes/default/lv_theme_default.c **** 
 4479              		.loc 1 320 5 is_stmt 1 view .LVU1351
 320:lvgl/lvgl/src/extra/themes/default/lv_theme_default.c **** 
 4480              		.loc 1 320 36 is_stmt 0 view .LVU1352
ARM GAS  C:\Users\gx\AppData\Local\Temp\ccQfGIQ4.s 			page 141


 4481 07d4 2068     		ldr	r0, [r4]
 320:lvgl/lvgl/src/extra/themes/default/lv_theme_default.c **** 
 4482              		.loc 1 320 5 view .LVU1353
 4483 07d6 0221     		movs	r1, #2
 4484 07d8 9830     		adds	r0, r0, #152
 4485 07da FFF7FEFF 		bl	lv_style_set_text_align
 4486              	.LVL473:
 322:lvgl/lvgl/src/extra/themes/default/lv_theme_default.c ****     lv_style_set_pad_all(&styles->pad_zero, 0);
 4487              		.loc 1 322 5 is_stmt 1 view .LVU1354
 322:lvgl/lvgl/src/extra/themes/default/lv_theme_default.c ****     lv_style_set_pad_all(&styles->pad_zero, 0);
 4488              		.loc 1 322 29 is_stmt 0 view .LVU1355
 4489 07de 2068     		ldr	r0, [r4]
 322:lvgl/lvgl/src/extra/themes/default/lv_theme_default.c ****     lv_style_set_pad_all(&styles->pad_zero, 0);
 4490              		.loc 1 322 5 view .LVU1356
 4491 07e0 6830     		adds	r0, r0, #104
 4492 07e2 FFF7FEFF 		bl	style_init_reset
 4493              	.LVL474:
 323:lvgl/lvgl/src/extra/themes/default/lv_theme_default.c ****     lv_style_set_pad_row(&styles->pad_zero, 0);
 4494              		.loc 1 323 5 is_stmt 1 view .LVU1357
 323:lvgl/lvgl/src/extra/themes/default/lv_theme_default.c ****     lv_style_set_pad_row(&styles->pad_zero, 0);
 4495              		.loc 1 323 33 is_stmt 0 view .LVU1358
 4496 07e6 2568     		ldr	r5, [r4]
 323:lvgl/lvgl/src/extra/themes/default/lv_theme_default.c ****     lv_style_set_pad_row(&styles->pad_zero, 0);
 4497              		.loc 1 323 5 view .LVU1359
 4498 07e8 6835     		adds	r5, r5, #104
 4499              	.LVL475:
 4500              	.LBB516:
 4501              	.LBI516:
 425:d:\practise\f407_disc\lvgl\lvgl\src\misc\lv_style.h ****     lv_style_set_pad_left(style, value);
 4502              		.loc 4 425 20 is_stmt 1 view .LVU1360
 4503              	.LBB517:
 426:d:\practise\f407_disc\lvgl\lvgl\src\misc\lv_style.h ****     lv_style_set_pad_right(style, value);
 4504              		.loc 4 426 5 view .LVU1361
 4505 07ea 0021     		movs	r1, #0
 4506 07ec 2846     		mov	r0, r5
 4507 07ee FFF7FEFF 		bl	lv_style_set_pad_left
 4508              	.LVL476:
 427:d:\practise\f407_disc\lvgl\lvgl\src\misc\lv_style.h ****     lv_style_set_pad_top(style, value);
 4509              		.loc 4 427 5 view .LVU1362
 4510 07f2 0021     		movs	r1, #0
 4511 07f4 2846     		mov	r0, r5
 4512 07f6 FFF7FEFF 		bl	lv_style_set_pad_right
 4513              	.LVL477:
 428:d:\practise\f407_disc\lvgl\lvgl\src\misc\lv_style.h ****     lv_style_set_pad_bottom(style, value);
 4514              		.loc 4 428 5 view .LVU1363
 4515 07fa 0021     		movs	r1, #0
 4516 07fc 2846     		mov	r0, r5
 4517 07fe FFF7FEFF 		bl	lv_style_set_pad_top
 4518              	.LVL478:
 429:d:\practise\f407_disc\lvgl\lvgl\src\misc\lv_style.h **** }
 4519              		.loc 4 429 5 view .LVU1364
 4520 0802 0021     		movs	r1, #0
 4521 0804 2846     		mov	r0, r5
 4522 0806 FFF7FEFF 		bl	lv_style_set_pad_bottom
 4523              	.LVL479:
 429:d:\practise\f407_disc\lvgl\lvgl\src\misc\lv_style.h **** }
 4524              		.loc 4 429 5 is_stmt 0 view .LVU1365
ARM GAS  C:\Users\gx\AppData\Local\Temp\ccQfGIQ4.s 			page 142


 4525              	.LBE517:
 4526              	.LBE516:
 324:lvgl/lvgl/src/extra/themes/default/lv_theme_default.c ****     lv_style_set_pad_column(&styles->pad_zero, 0);
 4527              		.loc 1 324 5 is_stmt 1 view .LVU1366
 324:lvgl/lvgl/src/extra/themes/default/lv_theme_default.c ****     lv_style_set_pad_column(&styles->pad_zero, 0);
 4528              		.loc 1 324 33 is_stmt 0 view .LVU1367
 4529 080a 2068     		ldr	r0, [r4]
 324:lvgl/lvgl/src/extra/themes/default/lv_theme_default.c ****     lv_style_set_pad_column(&styles->pad_zero, 0);
 4530              		.loc 1 324 5 view .LVU1368
 4531 080c 0021     		movs	r1, #0
 4532 080e 6830     		adds	r0, r0, #104
 4533 0810 FFF7FEFF 		bl	lv_style_set_pad_row
 4534              	.LVL480:
 325:lvgl/lvgl/src/extra/themes/default/lv_theme_default.c **** 
 4535              		.loc 1 325 5 is_stmt 1 view .LVU1369
 325:lvgl/lvgl/src/extra/themes/default/lv_theme_default.c **** 
 4536              		.loc 1 325 36 is_stmt 0 view .LVU1370
 4537 0814 2068     		ldr	r0, [r4]
 325:lvgl/lvgl/src/extra/themes/default/lv_theme_default.c **** 
 4538              		.loc 1 325 5 view .LVU1371
 4539 0816 0021     		movs	r1, #0
 4540 0818 6830     		adds	r0, r0, #104
 4541 081a FFF7FEFF 		bl	lv_style_set_pad_column
 4542              	.LVL481:
 327:lvgl/lvgl/src/extra/themes/default/lv_theme_default.c ****     lv_style_set_pad_all(&styles->pad_tiny, PAD_TINY);
 4543              		.loc 1 327 5 is_stmt 1 view .LVU1372
 327:lvgl/lvgl/src/extra/themes/default/lv_theme_default.c ****     lv_style_set_pad_all(&styles->pad_tiny, PAD_TINY);
 4544              		.loc 1 327 29 is_stmt 0 view .LVU1373
 4545 081e 2068     		ldr	r0, [r4]
 327:lvgl/lvgl/src/extra/themes/default/lv_theme_default.c ****     lv_style_set_pad_all(&styles->pad_tiny, PAD_TINY);
 4546              		.loc 1 327 5 view .LVU1374
 4547 0820 7030     		adds	r0, r0, #112
 4548 0822 FFF7FEFF 		bl	style_init_reset
 4549              	.LVL482:
 328:lvgl/lvgl/src/extra/themes/default/lv_theme_default.c ****     lv_style_set_pad_row(&styles->pad_tiny, PAD_TINY);
 4550              		.loc 1 328 5 is_stmt 1 view .LVU1375
 328:lvgl/lvgl/src/extra/themes/default/lv_theme_default.c ****     lv_style_set_pad_row(&styles->pad_tiny, PAD_TINY);
 4551              		.loc 1 328 33 is_stmt 0 view .LVU1376
 4552 0826 2568     		ldr	r5, [r4]
 328:lvgl/lvgl/src/extra/themes/default/lv_theme_default.c ****     lv_style_set_pad_row(&styles->pad_tiny, PAD_TINY);
 4553              		.loc 1 328 5 view .LVU1377
 4554 0828 7035     		adds	r5, r5, #112
 328:lvgl/lvgl/src/extra/themes/default/lv_theme_default.c ****     lv_style_set_pad_row(&styles->pad_tiny, PAD_TINY);
 4555              		.loc 1 328 45 view .LVU1378
 4556 082a 734B     		ldr	r3, .L576+4
 4557 082c 1B78     		ldrb	r3, [r3]	@ zero_extendqisi2
 328:lvgl/lvgl/src/extra/themes/default/lv_theme_default.c ****     lv_style_set_pad_row(&styles->pad_tiny, PAD_TINY);
 4558              		.loc 1 328 5 view .LVU1379
 4559 082e 012B     		cmp	r3, #1
 4560 0830 01F07083 		beq	.L457
 328:lvgl/lvgl/src/extra/themes/default/lv_theme_default.c ****     lv_style_set_pad_row(&styles->pad_tiny, PAD_TINY);
 4561              		.loc 1 328 5 discriminator 2 view .LVU1380
 4562 0834 022B     		cmp	r3, #2
 4563 0836 01F08683 		beq	.L458
 328:lvgl/lvgl/src/extra/themes/default/lv_theme_default.c ****     lv_style_set_pad_row(&styles->pad_tiny, PAD_TINY);
 4564              		.loc 1 328 45 discriminator 5 view .LVU1381
 4565 083a 704B     		ldr	r3, .L576+8
ARM GAS  C:\Users\gx\AppData\Local\Temp\ccQfGIQ4.s 			page 143


 4566 083c DC68     		ldr	r4, [r3, #12]
 4567              	.LVL483:
 4568              	.LBB518:
 4569              	.LBI518:
 236:d:\practise\f407_disc\lvgl\lvgl\src/core\lv_disp.h **** {
 4570              		.loc 3 236 26 is_stmt 1 discriminator 5 view .LVU1382
 4571              	.LBB519:
 4572              		.loc 3 238 5 discriminator 5 view .LVU1383
 4573              		.loc 3 238 12 is_stmt 0 discriminator 5 view .LVU1384
 4574 083e 2046     		mov	r0, r4
 4575 0840 FFF7FEFF 		bl	lv_disp_get_dpi
 4576              	.LVL484:
 4577 0844 4000     		lsls	r0, r0, #1
 4578 0846 EF28     		cmp	r0, #239
 4579 0848 01F39A83 		bgt	.L459
 4580              		.loc 3 238 12 view .LVU1385
 4581 084c 0124     		movs	r4, #1
 4582              	.LVL485:
 4583              	.L187:
 4584              		.loc 3 238 12 view .LVU1386
 4585              	.LBE519:
 4586              	.LBE518:
 4587              	.LBB521:
 4588              	.LBI521:
 425:d:\practise\f407_disc\lvgl\lvgl\src\misc\lv_style.h ****     lv_style_set_pad_left(style, value);
 4589              		.loc 4 425 20 is_stmt 1 discriminator 8 view .LVU1387
 4590              	.LBB522:
 426:d:\practise\f407_disc\lvgl\lvgl\src\misc\lv_style.h ****     lv_style_set_pad_right(style, value);
 4591              		.loc 4 426 5 discriminator 8 view .LVU1388
 4592 084e 2146     		mov	r1, r4
 4593 0850 2846     		mov	r0, r5
 4594 0852 FFF7FEFF 		bl	lv_style_set_pad_left
 4595              	.LVL486:
 427:d:\practise\f407_disc\lvgl\lvgl\src\misc\lv_style.h ****     lv_style_set_pad_top(style, value);
 4596              		.loc 4 427 5 discriminator 8 view .LVU1389
 4597 0856 2146     		mov	r1, r4
 4598 0858 2846     		mov	r0, r5
 4599 085a FFF7FEFF 		bl	lv_style_set_pad_right
 4600              	.LVL487:
 428:d:\practise\f407_disc\lvgl\lvgl\src\misc\lv_style.h ****     lv_style_set_pad_bottom(style, value);
 4601              		.loc 4 428 5 discriminator 8 view .LVU1390
 4602 085e 2146     		mov	r1, r4
 4603 0860 2846     		mov	r0, r5
 4604 0862 FFF7FEFF 		bl	lv_style_set_pad_top
 4605              	.LVL488:
 429:d:\practise\f407_disc\lvgl\lvgl\src\misc\lv_style.h **** }
 4606              		.loc 4 429 5 discriminator 8 view .LVU1391
 4607 0866 2146     		mov	r1, r4
 4608 0868 2846     		mov	r0, r5
 4609 086a FFF7FEFF 		bl	lv_style_set_pad_bottom
 4610              	.LVL489:
 429:d:\practise\f407_disc\lvgl\lvgl\src\misc\lv_style.h **** }
 4611              		.loc 4 429 5 is_stmt 0 discriminator 8 view .LVU1392
 4612              	.LBE522:
 4613              	.LBE521:
 329:lvgl/lvgl/src/extra/themes/default/lv_theme_default.c ****     lv_style_set_pad_column(&styles->pad_tiny, PAD_TINY);
 4614              		.loc 1 329 5 is_stmt 1 discriminator 8 view .LVU1393
ARM GAS  C:\Users\gx\AppData\Local\Temp\ccQfGIQ4.s 			page 144


 329:lvgl/lvgl/src/extra/themes/default/lv_theme_default.c ****     lv_style_set_pad_column(&styles->pad_tiny, PAD_TINY);
 4615              		.loc 1 329 33 is_stmt 0 discriminator 8 view .LVU1394
 4616 086e 614B     		ldr	r3, .L576
 4617 0870 1C68     		ldr	r4, [r3]
 329:lvgl/lvgl/src/extra/themes/default/lv_theme_default.c ****     lv_style_set_pad_column(&styles->pad_tiny, PAD_TINY);
 4618              		.loc 1 329 5 discriminator 8 view .LVU1395
 4619 0872 7034     		adds	r4, r4, #112
 329:lvgl/lvgl/src/extra/themes/default/lv_theme_default.c ****     lv_style_set_pad_column(&styles->pad_tiny, PAD_TINY);
 4620              		.loc 1 329 45 discriminator 8 view .LVU1396
 4621 0874 604B     		ldr	r3, .L576+4
 4622 0876 1B78     		ldrb	r3, [r3]	@ zero_extendqisi2
 329:lvgl/lvgl/src/extra/themes/default/lv_theme_default.c ****     lv_style_set_pad_column(&styles->pad_tiny, PAD_TINY);
 4623              		.loc 1 329 5 discriminator 8 view .LVU1397
 4624 0878 012B     		cmp	r3, #1
 4625 087a 01F08F83 		beq	.L460
 329:lvgl/lvgl/src/extra/themes/default/lv_theme_default.c ****     lv_style_set_pad_column(&styles->pad_tiny, PAD_TINY);
 4626              		.loc 1 329 5 discriminator 2 view .LVU1398
 4627 087e 022B     		cmp	r3, #2
 4628 0880 01F0A583 		beq	.L461
 329:lvgl/lvgl/src/extra/themes/default/lv_theme_default.c ****     lv_style_set_pad_column(&styles->pad_tiny, PAD_TINY);
 4629              		.loc 1 329 45 discriminator 5 view .LVU1399
 4630 0884 5D4B     		ldr	r3, .L576+8
 4631 0886 DD68     		ldr	r5, [r3, #12]
 4632              	.LVL490:
 4633              	.LBB523:
 4634              	.LBI523:
 236:d:\practise\f407_disc\lvgl\lvgl\src/core\lv_disp.h **** {
 4635              		.loc 3 236 26 is_stmt 1 discriminator 5 view .LVU1400
 4636              	.LBB524:
 4637              		.loc 3 238 5 discriminator 5 view .LVU1401
 4638              		.loc 3 238 12 is_stmt 0 discriminator 5 view .LVU1402
 4639 0888 2846     		mov	r0, r5
 4640 088a FFF7FEFF 		bl	lv_disp_get_dpi
 4641              	.LVL491:
 4642 088e 4000     		lsls	r0, r0, #1
 4643 0890 EF28     		cmp	r0, #239
 4644 0892 01F3B983 		bgt	.L462
 4645              		.loc 3 238 12 view .LVU1403
 4646 0896 0121     		movs	r1, #1
 4647              	.LVL492:
 4648              	.L193:
 4649              		.loc 3 238 12 view .LVU1404
 4650              	.LBE524:
 4651              	.LBE523:
 329:lvgl/lvgl/src/extra/themes/default/lv_theme_default.c ****     lv_style_set_pad_column(&styles->pad_tiny, PAD_TINY);
 4652              		.loc 1 329 5 discriminator 8 view .LVU1405
 4653 0898 2046     		mov	r0, r4
 4654 089a FFF7FEFF 		bl	lv_style_set_pad_row
 4655              	.LVL493:
 330:lvgl/lvgl/src/extra/themes/default/lv_theme_default.c **** 
 4656              		.loc 1 330 5 is_stmt 1 discriminator 8 view .LVU1406
 330:lvgl/lvgl/src/extra/themes/default/lv_theme_default.c **** 
 4657              		.loc 1 330 36 is_stmt 0 discriminator 8 view .LVU1407
 4658 089e 554B     		ldr	r3, .L576
 4659 08a0 1C68     		ldr	r4, [r3]
 330:lvgl/lvgl/src/extra/themes/default/lv_theme_default.c **** 
 4660              		.loc 1 330 5 discriminator 8 view .LVU1408
ARM GAS  C:\Users\gx\AppData\Local\Temp\ccQfGIQ4.s 			page 145


 4661 08a2 7034     		adds	r4, r4, #112
 330:lvgl/lvgl/src/extra/themes/default/lv_theme_default.c **** 
 4662              		.loc 1 330 48 discriminator 8 view .LVU1409
 4663 08a4 544B     		ldr	r3, .L576+4
 4664 08a6 1B78     		ldrb	r3, [r3]	@ zero_extendqisi2
 330:lvgl/lvgl/src/extra/themes/default/lv_theme_default.c **** 
 4665              		.loc 1 330 5 discriminator 8 view .LVU1410
 4666 08a8 012B     		cmp	r3, #1
 4667 08aa 01F0BB83 		beq	.L463
 330:lvgl/lvgl/src/extra/themes/default/lv_theme_default.c **** 
 4668              		.loc 1 330 5 discriminator 2 view .LVU1411
 4669 08ae 022B     		cmp	r3, #2
 4670 08b0 01F0D183 		beq	.L464
 330:lvgl/lvgl/src/extra/themes/default/lv_theme_default.c **** 
 4671              		.loc 1 330 48 discriminator 5 view .LVU1412
 4672 08b4 514B     		ldr	r3, .L576+8
 4673 08b6 DD68     		ldr	r5, [r3, #12]
 4674              	.LVL494:
 4675              	.LBB526:
 4676              	.LBI526:
 236:d:\practise\f407_disc\lvgl\lvgl\src/core\lv_disp.h **** {
 4677              		.loc 3 236 26 is_stmt 1 discriminator 5 view .LVU1413
 4678              	.LBB527:
 4679              		.loc 3 238 5 discriminator 5 view .LVU1414
 4680              		.loc 3 238 12 is_stmt 0 discriminator 5 view .LVU1415
 4681 08b8 2846     		mov	r0, r5
 4682 08ba FFF7FEFF 		bl	lv_disp_get_dpi
 4683              	.LVL495:
 4684 08be 4000     		lsls	r0, r0, #1
 4685 08c0 EF28     		cmp	r0, #239
 4686 08c2 01F3E583 		bgt	.L465
 4687              		.loc 3 238 12 view .LVU1416
 4688 08c6 0121     		movs	r1, #1
 4689              	.LVL496:
 4690              	.L199:
 4691              		.loc 3 238 12 view .LVU1417
 4692              	.LBE527:
 4693              	.LBE526:
 330:lvgl/lvgl/src/extra/themes/default/lv_theme_default.c **** 
 4694              		.loc 1 330 5 discriminator 8 view .LVU1418
 4695 08c8 2046     		mov	r0, r4
 4696 08ca FFF7FEFF 		bl	lv_style_set_pad_column
 4697              	.LVL497:
 332:lvgl/lvgl/src/extra/themes/default/lv_theme_default.c ****     lv_style_set_bg_color(&styles->bg_color_primary, theme.color_primary);
 4698              		.loc 1 332 5 is_stmt 1 discriminator 8 view .LVU1419
 332:lvgl/lvgl/src/extra/themes/default/lv_theme_default.c ****     lv_style_set_bg_color(&styles->bg_color_primary, theme.color_primary);
 4699              		.loc 1 332 29 is_stmt 0 discriminator 8 view .LVU1420
 4700 08ce 494C     		ldr	r4, .L576
 4701 08d0 2068     		ldr	r0, [r4]
 332:lvgl/lvgl/src/extra/themes/default/lv_theme_default.c ****     lv_style_set_bg_color(&styles->bg_color_primary, theme.color_primary);
 4702              		.loc 1 332 5 discriminator 8 view .LVU1421
 4703 08d2 2830     		adds	r0, r0, #40
 4704 08d4 FFF7FEFF 		bl	style_init_reset
 4705              	.LVL498:
 333:lvgl/lvgl/src/extra/themes/default/lv_theme_default.c ****     lv_style_set_text_color(&styles->bg_color_primary, lv_color_white());
 4706              		.loc 1 333 5 is_stmt 1 discriminator 8 view .LVU1422
 333:lvgl/lvgl/src/extra/themes/default/lv_theme_default.c ****     lv_style_set_text_color(&styles->bg_color_primary, lv_color_white());
ARM GAS  C:\Users\gx\AppData\Local\Temp\ccQfGIQ4.s 			page 146


 4707              		.loc 1 333 34 is_stmt 0 discriminator 8 view .LVU1423
 4708 08d8 2068     		ldr	r0, [r4]
 333:lvgl/lvgl/src/extra/themes/default/lv_theme_default.c ****     lv_style_set_text_color(&styles->bg_color_primary, lv_color_white());
 4709              		.loc 1 333 5 discriminator 8 view .LVU1424
 4710 08da 484D     		ldr	r5, .L576+8
 4711 08dc 298A     		ldrh	r1, [r5, #16]
 4712 08de 2830     		adds	r0, r0, #40
 4713 08e0 FFF7FEFF 		bl	lv_style_set_bg_color
 4714              	.LVL499:
 334:lvgl/lvgl/src/extra/themes/default/lv_theme_default.c ****     lv_style_set_bg_opa(&styles->bg_color_primary, LV_OPA_COVER);
 4715              		.loc 1 334 5 is_stmt 1 discriminator 8 view .LVU1425
 334:lvgl/lvgl/src/extra/themes/default/lv_theme_default.c ****     lv_style_set_bg_opa(&styles->bg_color_primary, LV_OPA_COVER);
 4716              		.loc 1 334 36 is_stmt 0 discriminator 8 view .LVU1426
 4717 08e4 2068     		ldr	r0, [r4]
 4718              	.LBB529:
 4719              	.LBI529:
 634:d:\practise\f407_disc\lvgl\lvgl\src\misc\lv_color.h **** }
 635:d:\practise\f407_disc\lvgl\lvgl\src\misc\lv_color.h **** 
 636:d:\practise\f407_disc\lvgl\lvgl\src\misc\lv_color.h **** //! @cond Doxygen_Suppress
 637:d:\practise\f407_disc\lvgl\lvgl\src\misc\lv_color.h **** //!
 638:d:\practise\f407_disc\lvgl\lvgl\src\misc\lv_color.h **** LV_ATTRIBUTE_FAST_MEM void lv_color_fill(lv_color_t * buf, lv_color_t color, uint32_t px_num);
 639:d:\practise\f407_disc\lvgl\lvgl\src\misc\lv_color.h **** 
 640:d:\practise\f407_disc\lvgl\lvgl\src\misc\lv_color.h **** //! @endcond
 641:d:\practise\f407_disc\lvgl\lvgl\src\misc\lv_color.h **** lv_color_t lv_color_lighten(lv_color_t c, lv_opa_t lvl);
 642:d:\practise\f407_disc\lvgl\lvgl\src\misc\lv_color.h **** 
 643:d:\practise\f407_disc\lvgl\lvgl\src\misc\lv_color.h **** lv_color_t lv_color_darken(lv_color_t c, lv_opa_t lvl);
 644:d:\practise\f407_disc\lvgl\lvgl\src\misc\lv_color.h **** 
 645:d:\practise\f407_disc\lvgl\lvgl\src\misc\lv_color.h **** lv_color_t lv_color_change_lightness(lv_color_t c, lv_opa_t lvl);
 646:d:\practise\f407_disc\lvgl\lvgl\src\misc\lv_color.h **** 
 647:d:\practise\f407_disc\lvgl\lvgl\src\misc\lv_color.h **** /**
 648:d:\practise\f407_disc\lvgl\lvgl\src\misc\lv_color.h ****  * Convert a HSV color to RGB
 649:d:\practise\f407_disc\lvgl\lvgl\src\misc\lv_color.h ****  * @param h hue [0..359]
 650:d:\practise\f407_disc\lvgl\lvgl\src\misc\lv_color.h ****  * @param s saturation [0..100]
 651:d:\practise\f407_disc\lvgl\lvgl\src\misc\lv_color.h ****  * @param v value [0..100]
 652:d:\practise\f407_disc\lvgl\lvgl\src\misc\lv_color.h ****  * @return the given RGB color in RGB (with LV_COLOR_DEPTH depth)
 653:d:\practise\f407_disc\lvgl\lvgl\src\misc\lv_color.h ****  */
 654:d:\practise\f407_disc\lvgl\lvgl\src\misc\lv_color.h **** lv_color_t lv_color_hsv_to_rgb(uint16_t h, uint8_t s, uint8_t v);
 655:d:\practise\f407_disc\lvgl\lvgl\src\misc\lv_color.h **** 
 656:d:\practise\f407_disc\lvgl\lvgl\src\misc\lv_color.h **** /**
 657:d:\practise\f407_disc\lvgl\lvgl\src\misc\lv_color.h ****  * Convert a 32-bit RGB color to HSV
 658:d:\practise\f407_disc\lvgl\lvgl\src\misc\lv_color.h ****  * @param r8 8-bit red
 659:d:\practise\f407_disc\lvgl\lvgl\src\misc\lv_color.h ****  * @param g8 8-bit green
 660:d:\practise\f407_disc\lvgl\lvgl\src\misc\lv_color.h ****  * @param b8 8-bit blue
 661:d:\practise\f407_disc\lvgl\lvgl\src\misc\lv_color.h ****  * @return the given RGB color in HSV
 662:d:\practise\f407_disc\lvgl\lvgl\src\misc\lv_color.h ****  */
 663:d:\practise\f407_disc\lvgl\lvgl\src\misc\lv_color.h **** lv_color_hsv_t lv_color_rgb_to_hsv(uint8_t r8, uint8_t g8, uint8_t b8);
 664:d:\practise\f407_disc\lvgl\lvgl\src\misc\lv_color.h **** 
 665:d:\practise\f407_disc\lvgl\lvgl\src\misc\lv_color.h **** /**
 666:d:\practise\f407_disc\lvgl\lvgl\src\misc\lv_color.h ****  * Convert a color to HSV
 667:d:\practise\f407_disc\lvgl\lvgl\src\misc\lv_color.h ****  * @param color color
 668:d:\practise\f407_disc\lvgl\lvgl\src\misc\lv_color.h ****  * @return the given color in HSV
 669:d:\practise\f407_disc\lvgl\lvgl\src\misc\lv_color.h ****  */
 670:d:\practise\f407_disc\lvgl\lvgl\src\misc\lv_color.h **** lv_color_hsv_t lv_color_to_hsv(lv_color_t color);
 671:d:\practise\f407_disc\lvgl\lvgl\src\misc\lv_color.h **** 
 672:d:\practise\f407_disc\lvgl\lvgl\src\misc\lv_color.h **** /**
 673:d:\practise\f407_disc\lvgl\lvgl\src\misc\lv_color.h ****  * Just a wrapper around LV_COLOR_CHROMA_KEY because it might be more convenient to use a function 
 674:d:\practise\f407_disc\lvgl\lvgl\src\misc\lv_color.h ****  * @return LV_COLOR_CHROMA_KEY
ARM GAS  C:\Users\gx\AppData\Local\Temp\ccQfGIQ4.s 			page 147


 675:d:\practise\f407_disc\lvgl\lvgl\src\misc\lv_color.h ****  */
 676:d:\practise\f407_disc\lvgl\lvgl\src\misc\lv_color.h **** static inline lv_color_t lv_color_chroma_key(void)
 677:d:\practise\f407_disc\lvgl\lvgl\src\misc\lv_color.h **** {
 678:d:\practise\f407_disc\lvgl\lvgl\src\misc\lv_color.h ****     return LV_COLOR_CHROMA_KEY;
 679:d:\practise\f407_disc\lvgl\lvgl\src\misc\lv_color.h **** }
 680:d:\practise\f407_disc\lvgl\lvgl\src\misc\lv_color.h **** 
 681:d:\practise\f407_disc\lvgl\lvgl\src\misc\lv_color.h **** /**********************
 682:d:\practise\f407_disc\lvgl\lvgl\src\misc\lv_color.h ****  *  PREDEFINED COLORS
 683:d:\practise\f407_disc\lvgl\lvgl\src\misc\lv_color.h ****  **********************/
 684:d:\practise\f407_disc\lvgl\lvgl\src\misc\lv_color.h **** /*Source: https://vuetifyjs.com/en/styles/colors/#material-colors*/
 685:d:\practise\f407_disc\lvgl\lvgl\src\misc\lv_color.h **** 
 686:d:\practise\f407_disc\lvgl\lvgl\src\misc\lv_color.h **** lv_color_t lv_palette_main(lv_palette_t p);
 687:d:\practise\f407_disc\lvgl\lvgl\src\misc\lv_color.h **** static inline lv_color_t lv_color_white(void) { return lv_color_make(0xff, 0xff, 0xff);}
 4720              		.loc 2 687 26 is_stmt 1 discriminator 8 view .LVU1427
 4721              	.LBE529:
 4722              		.loc 2 687 49 discriminator 8 view .LVU1428
 4723              	.LVL500:
 4724              	.LBB532:
 4725              	.LBB530:
 4726              	.LBI530:
 615:d:\practise\f407_disc\lvgl\lvgl\src\misc\lv_color.h **** {
 4727              		.loc 2 615 26 discriminator 8 view .LVU1429
 4728              	.LBB531:
 617:d:\practise\f407_disc\lvgl\lvgl\src\misc\lv_color.h **** }
 4729              		.loc 2 617 5 discriminator 8 view .LVU1430
 617:d:\practise\f407_disc\lvgl\lvgl\src\misc\lv_color.h **** }
 4730              		.loc 2 617 5 is_stmt 0 discriminator 8 view .LVU1431
 4731              	.LBE531:
 4732              	.LBE530:
 4733              	.LBE532:
 334:lvgl/lvgl/src/extra/themes/default/lv_theme_default.c ****     lv_style_set_bg_opa(&styles->bg_color_primary, LV_OPA_COVER);
 4734              		.loc 1 334 5 discriminator 8 view .LVU1432
 4735 08e6 4FF0FF31 		mov	r1, #-1	@ movhi
 4736 08ea 2830     		adds	r0, r0, #40
 4737 08ec FFF7FEFF 		bl	lv_style_set_text_color
 4738              	.LVL501:
 335:lvgl/lvgl/src/extra/themes/default/lv_theme_default.c **** 
 4739              		.loc 1 335 5 is_stmt 1 discriminator 8 view .LVU1433
 335:lvgl/lvgl/src/extra/themes/default/lv_theme_default.c **** 
 4740              		.loc 1 335 32 is_stmt 0 discriminator 8 view .LVU1434
 4741 08f0 2068     		ldr	r0, [r4]
 335:lvgl/lvgl/src/extra/themes/default/lv_theme_default.c **** 
 4742              		.loc 1 335 5 discriminator 8 view .LVU1435
 4743 08f2 FF21     		movs	r1, #255
 4744 08f4 2830     		adds	r0, r0, #40
 4745 08f6 FFF7FEFF 		bl	lv_style_set_bg_opa
 4746              	.LVL502:
 337:lvgl/lvgl/src/extra/themes/default/lv_theme_default.c ****     lv_style_set_bg_color(&styles->bg_color_primary_muted, theme.color_primary);
 4747              		.loc 1 337 5 is_stmt 1 discriminator 8 view .LVU1436
 337:lvgl/lvgl/src/extra/themes/default/lv_theme_default.c ****     lv_style_set_bg_color(&styles->bg_color_primary_muted, theme.color_primary);
 4748              		.loc 1 337 29 is_stmt 0 discriminator 8 view .LVU1437
 4749 08fa 2068     		ldr	r0, [r4]
 337:lvgl/lvgl/src/extra/themes/default/lv_theme_default.c ****     lv_style_set_bg_color(&styles->bg_color_primary_muted, theme.color_primary);
 4750              		.loc 1 337 5 discriminator 8 view .LVU1438
 4751 08fc 3030     		adds	r0, r0, #48
 4752 08fe FFF7FEFF 		bl	style_init_reset
 4753              	.LVL503:
ARM GAS  C:\Users\gx\AppData\Local\Temp\ccQfGIQ4.s 			page 148


 338:lvgl/lvgl/src/extra/themes/default/lv_theme_default.c ****     lv_style_set_text_color(&styles->bg_color_primary_muted, theme.color_primary);
 4754              		.loc 1 338 5 is_stmt 1 discriminator 8 view .LVU1439
 338:lvgl/lvgl/src/extra/themes/default/lv_theme_default.c ****     lv_style_set_text_color(&styles->bg_color_primary_muted, theme.color_primary);
 4755              		.loc 1 338 34 is_stmt 0 discriminator 8 view .LVU1440
 4756 0902 2068     		ldr	r0, [r4]
 338:lvgl/lvgl/src/extra/themes/default/lv_theme_default.c ****     lv_style_set_text_color(&styles->bg_color_primary_muted, theme.color_primary);
 4757              		.loc 1 338 5 discriminator 8 view .LVU1441
 4758 0904 298A     		ldrh	r1, [r5, #16]
 4759 0906 3030     		adds	r0, r0, #48
 4760 0908 FFF7FEFF 		bl	lv_style_set_bg_color
 4761              	.LVL504:
 339:lvgl/lvgl/src/extra/themes/default/lv_theme_default.c ****     lv_style_set_bg_opa(&styles->bg_color_primary_muted, LV_OPA_20);
 4762              		.loc 1 339 5 is_stmt 1 discriminator 8 view .LVU1442
 339:lvgl/lvgl/src/extra/themes/default/lv_theme_default.c ****     lv_style_set_bg_opa(&styles->bg_color_primary_muted, LV_OPA_20);
 4763              		.loc 1 339 36 is_stmt 0 discriminator 8 view .LVU1443
 4764 090c 2068     		ldr	r0, [r4]
 339:lvgl/lvgl/src/extra/themes/default/lv_theme_default.c ****     lv_style_set_bg_opa(&styles->bg_color_primary_muted, LV_OPA_20);
 4765              		.loc 1 339 5 discriminator 8 view .LVU1444
 4766 090e 298A     		ldrh	r1, [r5, #16]
 4767 0910 3030     		adds	r0, r0, #48
 4768 0912 FFF7FEFF 		bl	lv_style_set_text_color
 4769              	.LVL505:
 340:lvgl/lvgl/src/extra/themes/default/lv_theme_default.c **** 
 4770              		.loc 1 340 5 is_stmt 1 discriminator 8 view .LVU1445
 340:lvgl/lvgl/src/extra/themes/default/lv_theme_default.c **** 
 4771              		.loc 1 340 32 is_stmt 0 discriminator 8 view .LVU1446
 4772 0916 2068     		ldr	r0, [r4]
 340:lvgl/lvgl/src/extra/themes/default/lv_theme_default.c **** 
 4773              		.loc 1 340 5 discriminator 8 view .LVU1447
 4774 0918 3321     		movs	r1, #51
 4775 091a 3030     		adds	r0, r0, #48
 4776 091c FFF7FEFF 		bl	lv_style_set_bg_opa
 4777              	.LVL506:
 342:lvgl/lvgl/src/extra/themes/default/lv_theme_default.c ****     lv_style_set_bg_color(&styles->bg_color_secondary, theme.color_secondary);
 4778              		.loc 1 342 5 is_stmt 1 discriminator 8 view .LVU1448
 342:lvgl/lvgl/src/extra/themes/default/lv_theme_default.c ****     lv_style_set_bg_color(&styles->bg_color_secondary, theme.color_secondary);
 4779              		.loc 1 342 29 is_stmt 0 discriminator 8 view .LVU1449
 4780 0920 2068     		ldr	r0, [r4]
 342:lvgl/lvgl/src/extra/themes/default/lv_theme_default.c ****     lv_style_set_bg_color(&styles->bg_color_secondary, theme.color_secondary);
 4781              		.loc 1 342 5 discriminator 8 view .LVU1450
 4782 0922 3830     		adds	r0, r0, #56
 4783 0924 FFF7FEFF 		bl	style_init_reset
 4784              	.LVL507:
 343:lvgl/lvgl/src/extra/themes/default/lv_theme_default.c ****     lv_style_set_text_color(&styles->bg_color_secondary, lv_color_white());
 4785              		.loc 1 343 5 is_stmt 1 discriminator 8 view .LVU1451
 343:lvgl/lvgl/src/extra/themes/default/lv_theme_default.c ****     lv_style_set_text_color(&styles->bg_color_secondary, lv_color_white());
 4786              		.loc 1 343 34 is_stmt 0 discriminator 8 view .LVU1452
 4787 0928 2068     		ldr	r0, [r4]
 343:lvgl/lvgl/src/extra/themes/default/lv_theme_default.c ****     lv_style_set_text_color(&styles->bg_color_secondary, lv_color_white());
 4788              		.loc 1 343 5 discriminator 8 view .LVU1453
 4789 092a 698A     		ldrh	r1, [r5, #18]
 4790 092c 3830     		adds	r0, r0, #56
 4791 092e FFF7FEFF 		bl	lv_style_set_bg_color
 4792              	.LVL508:
 344:lvgl/lvgl/src/extra/themes/default/lv_theme_default.c ****     lv_style_set_bg_opa(&styles->bg_color_secondary, LV_OPA_COVER);
 4793              		.loc 1 344 5 is_stmt 1 discriminator 8 view .LVU1454
 344:lvgl/lvgl/src/extra/themes/default/lv_theme_default.c ****     lv_style_set_bg_opa(&styles->bg_color_secondary, LV_OPA_COVER);
ARM GAS  C:\Users\gx\AppData\Local\Temp\ccQfGIQ4.s 			page 149


 4794              		.loc 1 344 36 is_stmt 0 discriminator 8 view .LVU1455
 4795 0932 2068     		ldr	r0, [r4]
 4796              	.LBB533:
 4797              	.LBI533:
 4798              		.loc 2 687 26 is_stmt 1 discriminator 8 view .LVU1456
 4799              	.LBE533:
 4800              		.loc 2 687 49 discriminator 8 view .LVU1457
 4801              	.LVL509:
 4802              	.LBB536:
 4803              	.LBB534:
 4804              	.LBI534:
 615:d:\practise\f407_disc\lvgl\lvgl\src\misc\lv_color.h **** {
 4805              		.loc 2 615 26 discriminator 8 view .LVU1458
 4806              	.LBB535:
 617:d:\practise\f407_disc\lvgl\lvgl\src\misc\lv_color.h **** }
 4807              		.loc 2 617 5 discriminator 8 view .LVU1459
 617:d:\practise\f407_disc\lvgl\lvgl\src\misc\lv_color.h **** }
 4808              		.loc 2 617 5 is_stmt 0 discriminator 8 view .LVU1460
 4809              	.LBE535:
 4810              	.LBE534:
 4811              	.LBE536:
 344:lvgl/lvgl/src/extra/themes/default/lv_theme_default.c ****     lv_style_set_bg_opa(&styles->bg_color_secondary, LV_OPA_COVER);
 4812              		.loc 1 344 5 discriminator 8 view .LVU1461
 4813 0934 4FF0FF31 		mov	r1, #-1	@ movhi
 4814 0938 3830     		adds	r0, r0, #56
 4815 093a FFF7FEFF 		bl	lv_style_set_text_color
 4816              	.LVL510:
 345:lvgl/lvgl/src/extra/themes/default/lv_theme_default.c **** 
 4817              		.loc 1 345 5 is_stmt 1 discriminator 8 view .LVU1462
 345:lvgl/lvgl/src/extra/themes/default/lv_theme_default.c **** 
 4818              		.loc 1 345 32 is_stmt 0 discriminator 8 view .LVU1463
 4819 093e 2068     		ldr	r0, [r4]
 345:lvgl/lvgl/src/extra/themes/default/lv_theme_default.c **** 
 4820              		.loc 1 345 5 discriminator 8 view .LVU1464
 4821 0940 FF21     		movs	r1, #255
 4822 0942 3830     		adds	r0, r0, #56
 4823 0944 FFF7FEFF 		bl	lv_style_set_bg_opa
 4824              	.LVL511:
 347:lvgl/lvgl/src/extra/themes/default/lv_theme_default.c ****     lv_style_set_bg_color(&styles->bg_color_secondary_muted, theme.color_secondary);
 4825              		.loc 1 347 5 is_stmt 1 discriminator 8 view .LVU1465
 347:lvgl/lvgl/src/extra/themes/default/lv_theme_default.c ****     lv_style_set_bg_color(&styles->bg_color_secondary_muted, theme.color_secondary);
 4826              		.loc 1 347 29 is_stmt 0 discriminator 8 view .LVU1466
 4827 0948 2068     		ldr	r0, [r4]
 347:lvgl/lvgl/src/extra/themes/default/lv_theme_default.c ****     lv_style_set_bg_color(&styles->bg_color_secondary_muted, theme.color_secondary);
 4828              		.loc 1 347 5 discriminator 8 view .LVU1467
 4829 094a 4030     		adds	r0, r0, #64
 4830 094c FFF7FEFF 		bl	style_init_reset
 4831              	.LVL512:
 348:lvgl/lvgl/src/extra/themes/default/lv_theme_default.c ****     lv_style_set_text_color(&styles->bg_color_secondary_muted, theme.color_secondary);
 4832              		.loc 1 348 5 is_stmt 1 discriminator 8 view .LVU1468
 348:lvgl/lvgl/src/extra/themes/default/lv_theme_default.c ****     lv_style_set_text_color(&styles->bg_color_secondary_muted, theme.color_secondary);
 4833              		.loc 1 348 34 is_stmt 0 discriminator 8 view .LVU1469
 4834 0950 2068     		ldr	r0, [r4]
 348:lvgl/lvgl/src/extra/themes/default/lv_theme_default.c ****     lv_style_set_text_color(&styles->bg_color_secondary_muted, theme.color_secondary);
 4835              		.loc 1 348 5 discriminator 8 view .LVU1470
 4836 0952 698A     		ldrh	r1, [r5, #18]
 4837 0954 4030     		adds	r0, r0, #64
ARM GAS  C:\Users\gx\AppData\Local\Temp\ccQfGIQ4.s 			page 150


 4838 0956 FFF7FEFF 		bl	lv_style_set_bg_color
 4839              	.LVL513:
 349:lvgl/lvgl/src/extra/themes/default/lv_theme_default.c ****     lv_style_set_bg_opa(&styles->bg_color_secondary_muted, LV_OPA_20);
 4840              		.loc 1 349 5 is_stmt 1 discriminator 8 view .LVU1471
 349:lvgl/lvgl/src/extra/themes/default/lv_theme_default.c ****     lv_style_set_bg_opa(&styles->bg_color_secondary_muted, LV_OPA_20);
 4841              		.loc 1 349 36 is_stmt 0 discriminator 8 view .LVU1472
 4842 095a 2068     		ldr	r0, [r4]
 349:lvgl/lvgl/src/extra/themes/default/lv_theme_default.c ****     lv_style_set_bg_opa(&styles->bg_color_secondary_muted, LV_OPA_20);
 4843              		.loc 1 349 5 discriminator 8 view .LVU1473
 4844 095c 698A     		ldrh	r1, [r5, #18]
 4845 095e 4030     		adds	r0, r0, #64
 4846 0960 FFF7FEFF 		bl	lv_style_set_text_color
 4847              	.LVL514:
 350:lvgl/lvgl/src/extra/themes/default/lv_theme_default.c **** 
 4848              		.loc 1 350 5 is_stmt 1 discriminator 8 view .LVU1474
 350:lvgl/lvgl/src/extra/themes/default/lv_theme_default.c **** 
 4849              		.loc 1 350 32 is_stmt 0 discriminator 8 view .LVU1475
 4850 0964 2068     		ldr	r0, [r4]
 350:lvgl/lvgl/src/extra/themes/default/lv_theme_default.c **** 
 4851              		.loc 1 350 5 discriminator 8 view .LVU1476
 4852 0966 3321     		movs	r1, #51
 4853 0968 4030     		adds	r0, r0, #64
 4854 096a FFF7FEFF 		bl	lv_style_set_bg_opa
 4855              	.LVL515:
 352:lvgl/lvgl/src/extra/themes/default/lv_theme_default.c ****     lv_style_set_bg_color(&styles->bg_color_grey, color_grey);
 4856              		.loc 1 352 5 is_stmt 1 discriminator 8 view .LVU1477
 352:lvgl/lvgl/src/extra/themes/default/lv_theme_default.c ****     lv_style_set_bg_color(&styles->bg_color_grey, color_grey);
 4857              		.loc 1 352 29 is_stmt 0 discriminator 8 view .LVU1478
 4858 096e 2068     		ldr	r0, [r4]
 352:lvgl/lvgl/src/extra/themes/default/lv_theme_default.c ****     lv_style_set_bg_color(&styles->bg_color_grey, color_grey);
 4859              		.loc 1 352 5 discriminator 8 view .LVU1479
 4860 0970 4830     		adds	r0, r0, #72
 4861 0972 FFF7FEFF 		bl	style_init_reset
 4862              	.LVL516:
 353:lvgl/lvgl/src/extra/themes/default/lv_theme_default.c ****     lv_style_set_bg_opa(&styles->bg_color_grey, LV_OPA_COVER);
 4863              		.loc 1 353 5 is_stmt 1 discriminator 8 view .LVU1480
 353:lvgl/lvgl/src/extra/themes/default/lv_theme_default.c ****     lv_style_set_bg_opa(&styles->bg_color_grey, LV_OPA_COVER);
 4864              		.loc 1 353 34 is_stmt 0 discriminator 8 view .LVU1481
 4865 0976 2068     		ldr	r0, [r4]
 353:lvgl/lvgl/src/extra/themes/default/lv_theme_default.c ****     lv_style_set_bg_opa(&styles->bg_color_grey, LV_OPA_COVER);
 4866              		.loc 1 353 5 discriminator 8 view .LVU1482
 4867 0978 214B     		ldr	r3, .L576+12
 4868 097a 1988     		ldrh	r1, [r3]
 4869 097c 4830     		adds	r0, r0, #72
 4870 097e FFF7FEFF 		bl	lv_style_set_bg_color
 4871              	.LVL517:
 354:lvgl/lvgl/src/extra/themes/default/lv_theme_default.c ****     lv_style_set_text_color(&styles->bg_color_grey, color_text);
 4872              		.loc 1 354 5 is_stmt 1 discriminator 8 view .LVU1483
 354:lvgl/lvgl/src/extra/themes/default/lv_theme_default.c ****     lv_style_set_text_color(&styles->bg_color_grey, color_text);
 4873              		.loc 1 354 32 is_stmt 0 discriminator 8 view .LVU1484
 4874 0982 2068     		ldr	r0, [r4]
 354:lvgl/lvgl/src/extra/themes/default/lv_theme_default.c ****     lv_style_set_text_color(&styles->bg_color_grey, color_text);
 4875              		.loc 1 354 5 discriminator 8 view .LVU1485
 4876 0984 FF21     		movs	r1, #255
 4877 0986 4830     		adds	r0, r0, #72
 4878 0988 FFF7FEFF 		bl	lv_style_set_bg_opa
 4879              	.LVL518:
ARM GAS  C:\Users\gx\AppData\Local\Temp\ccQfGIQ4.s 			page 151


 355:lvgl/lvgl/src/extra/themes/default/lv_theme_default.c **** 
 4880              		.loc 1 355 5 is_stmt 1 discriminator 8 view .LVU1486
 355:lvgl/lvgl/src/extra/themes/default/lv_theme_default.c **** 
 4881              		.loc 1 355 36 is_stmt 0 discriminator 8 view .LVU1487
 4882 098c 2068     		ldr	r0, [r4]
 355:lvgl/lvgl/src/extra/themes/default/lv_theme_default.c **** 
 4883              		.loc 1 355 5 discriminator 8 view .LVU1488
 4884 098e 1D4E     		ldr	r6, .L576+16
 4885 0990 3188     		ldrh	r1, [r6]
 4886 0992 4830     		adds	r0, r0, #72
 4887 0994 FFF7FEFF 		bl	lv_style_set_text_color
 4888              	.LVL519:
 357:lvgl/lvgl/src/extra/themes/default/lv_theme_default.c ****     lv_style_set_bg_color(&styles->bg_color_white, color_card);
 4889              		.loc 1 357 5 is_stmt 1 discriminator 8 view .LVU1489
 357:lvgl/lvgl/src/extra/themes/default/lv_theme_default.c ****     lv_style_set_bg_color(&styles->bg_color_white, color_card);
 4890              		.loc 1 357 29 is_stmt 0 discriminator 8 view .LVU1490
 4891 0998 2068     		ldr	r0, [r4]
 357:lvgl/lvgl/src/extra/themes/default/lv_theme_default.c ****     lv_style_set_bg_color(&styles->bg_color_white, color_card);
 4892              		.loc 1 357 5 discriminator 8 view .LVU1491
 4893 099a 5030     		adds	r0, r0, #80
 4894 099c FFF7FEFF 		bl	style_init_reset
 4895              	.LVL520:
 358:lvgl/lvgl/src/extra/themes/default/lv_theme_default.c ****     lv_style_set_bg_opa(&styles->bg_color_white, LV_OPA_COVER);
 4896              		.loc 1 358 5 is_stmt 1 discriminator 8 view .LVU1492
 358:lvgl/lvgl/src/extra/themes/default/lv_theme_default.c ****     lv_style_set_bg_opa(&styles->bg_color_white, LV_OPA_COVER);
 4897              		.loc 1 358 34 is_stmt 0 discriminator 8 view .LVU1493
 4898 09a0 2068     		ldr	r0, [r4]
 358:lvgl/lvgl/src/extra/themes/default/lv_theme_default.c ****     lv_style_set_bg_opa(&styles->bg_color_white, LV_OPA_COVER);
 4899              		.loc 1 358 5 discriminator 8 view .LVU1494
 4900 09a2 194B     		ldr	r3, .L576+20
 4901 09a4 1988     		ldrh	r1, [r3]
 4902 09a6 5030     		adds	r0, r0, #80
 4903 09a8 FFF7FEFF 		bl	lv_style_set_bg_color
 4904              	.LVL521:
 359:lvgl/lvgl/src/extra/themes/default/lv_theme_default.c ****     lv_style_set_text_color(&styles->bg_color_white, color_text);
 4905              		.loc 1 359 5 is_stmt 1 discriminator 8 view .LVU1495
 359:lvgl/lvgl/src/extra/themes/default/lv_theme_default.c ****     lv_style_set_text_color(&styles->bg_color_white, color_text);
 4906              		.loc 1 359 32 is_stmt 0 discriminator 8 view .LVU1496
 4907 09ac 2068     		ldr	r0, [r4]
 359:lvgl/lvgl/src/extra/themes/default/lv_theme_default.c ****     lv_style_set_text_color(&styles->bg_color_white, color_text);
 4908              		.loc 1 359 5 discriminator 8 view .LVU1497
 4909 09ae FF21     		movs	r1, #255
 4910 09b0 5030     		adds	r0, r0, #80
 4911 09b2 FFF7FEFF 		bl	lv_style_set_bg_opa
 4912              	.LVL522:
 360:lvgl/lvgl/src/extra/themes/default/lv_theme_default.c **** 
 4913              		.loc 1 360 5 is_stmt 1 discriminator 8 view .LVU1498
 360:lvgl/lvgl/src/extra/themes/default/lv_theme_default.c **** 
 4914              		.loc 1 360 36 is_stmt 0 discriminator 8 view .LVU1499
 4915 09b6 2068     		ldr	r0, [r4]
 360:lvgl/lvgl/src/extra/themes/default/lv_theme_default.c **** 
 4916              		.loc 1 360 5 discriminator 8 view .LVU1500
 4917 09b8 3188     		ldrh	r1, [r6]
 4918 09ba 5030     		adds	r0, r0, #80
 4919 09bc FFF7FEFF 		bl	lv_style_set_text_color
 4920              	.LVL523:
 362:lvgl/lvgl/src/extra/themes/default/lv_theme_default.c ****     lv_style_set_radius(&styles->circle, LV_RADIUS_CIRCLE);
ARM GAS  C:\Users\gx\AppData\Local\Temp\ccQfGIQ4.s 			page 152


 4921              		.loc 1 362 5 is_stmt 1 discriminator 8 view .LVU1501
 362:lvgl/lvgl/src/extra/themes/default/lv_theme_default.c ****     lv_style_set_radius(&styles->circle, LV_RADIUS_CIRCLE);
 4922              		.loc 1 362 29 is_stmt 0 discriminator 8 view .LVU1502
 4923 09c0 2068     		ldr	r0, [r4]
 362:lvgl/lvgl/src/extra/themes/default/lv_theme_default.c ****     lv_style_set_radius(&styles->circle, LV_RADIUS_CIRCLE);
 4924              		.loc 1 362 5 discriminator 8 view .LVU1503
 4925 09c2 B030     		adds	r0, r0, #176
 4926 09c4 FFF7FEFF 		bl	style_init_reset
 4927              	.LVL524:
 363:lvgl/lvgl/src/extra/themes/default/lv_theme_default.c **** 
 4928              		.loc 1 363 5 is_stmt 1 discriminator 8 view .LVU1504
 363:lvgl/lvgl/src/extra/themes/default/lv_theme_default.c **** 
 4929              		.loc 1 363 32 is_stmt 0 discriminator 8 view .LVU1505
 4930 09c8 2068     		ldr	r0, [r4]
 363:lvgl/lvgl/src/extra/themes/default/lv_theme_default.c **** 
 4931              		.loc 1 363 5 discriminator 8 view .LVU1506
 4932 09ca 47F6FF71 		movw	r1, #32767
 4933 09ce B030     		adds	r0, r0, #176
 4934 09d0 FFF7FEFF 		bl	lv_style_set_radius
 4935              	.LVL525:
 365:lvgl/lvgl/src/extra/themes/default/lv_theme_default.c ****     lv_style_set_radius(&styles->no_radius, 0);
 4936              		.loc 1 365 5 is_stmt 1 discriminator 8 view .LVU1507
 365:lvgl/lvgl/src/extra/themes/default/lv_theme_default.c ****     lv_style_set_radius(&styles->no_radius, 0);
 4937              		.loc 1 365 29 is_stmt 0 discriminator 8 view .LVU1508
 4938 09d4 2068     		ldr	r0, [r4]
 365:lvgl/lvgl/src/extra/themes/default/lv_theme_default.c ****     lv_style_set_radius(&styles->no_radius, 0);
 4939              		.loc 1 365 5 discriminator 8 view .LVU1509
 4940 09d6 B830     		adds	r0, r0, #184
 4941 09d8 FFF7FEFF 		bl	style_init_reset
 4942              	.LVL526:
 366:lvgl/lvgl/src/extra/themes/default/lv_theme_default.c **** 
 4943              		.loc 1 366 5 is_stmt 1 discriminator 8 view .LVU1510
 366:lvgl/lvgl/src/extra/themes/default/lv_theme_default.c **** 
 4944              		.loc 1 366 32 is_stmt 0 discriminator 8 view .LVU1511
 4945 09dc 2068     		ldr	r0, [r4]
 366:lvgl/lvgl/src/extra/themes/default/lv_theme_default.c **** 
 4946              		.loc 1 366 5 discriminator 8 view .LVU1512
 4947 09de 0021     		movs	r1, #0
 4948 09e0 B830     		adds	r0, r0, #184
 4949 09e2 FFF7FEFF 		bl	lv_style_set_radius
 4950              	.LVL527:
 369:lvgl/lvgl/src/extra/themes/default/lv_theme_default.c ****     lv_style_set_transform_width(&styles->grow, lv_disp_dpx(theme.disp, 3));
 4951              		.loc 1 369 5 is_stmt 1 discriminator 8 view .LVU1513
 369:lvgl/lvgl/src/extra/themes/default/lv_theme_default.c ****     lv_style_set_transform_width(&styles->grow, lv_disp_dpx(theme.disp, 3));
 4952              		.loc 1 369 29 is_stmt 0 discriminator 8 view .LVU1514
 4953 09e6 2068     		ldr	r0, [r4]
 369:lvgl/lvgl/src/extra/themes/default/lv_theme_default.c ****     lv_style_set_transform_width(&styles->grow, lv_disp_dpx(theme.disp, 3));
 4954              		.loc 1 369 5 discriminator 8 view .LVU1515
 4955 09e8 C830     		adds	r0, r0, #200
 4956 09ea FFF7FEFF 		bl	style_init_reset
 4957              	.LVL528:
 370:lvgl/lvgl/src/extra/themes/default/lv_theme_default.c ****     lv_style_set_transform_height(&styles->grow, lv_disp_dpx(theme.disp, 3));
 4958              		.loc 1 370 5 is_stmt 1 discriminator 8 view .LVU1516
 370:lvgl/lvgl/src/extra/themes/default/lv_theme_default.c ****     lv_style_set_transform_height(&styles->grow, lv_disp_dpx(theme.disp, 3));
 4959              		.loc 1 370 41 is_stmt 0 discriminator 8 view .LVU1517
 4960 09ee 2468     		ldr	r4, [r4]
 4961 09f0 0CE0     		b	.L577
ARM GAS  C:\Users\gx\AppData\Local\Temp\ccQfGIQ4.s 			page 153


 4962              	.L578:
 4963 09f2 00BF     		.align	2
 4964              	.L576:
 4965 09f4 00000000 		.word	.LANCHOR0
 4966 09f8 00000000 		.word	.LANCHOR1
 4967 09fc 00000000 		.word	.LANCHOR2
 4968 0a00 00000000 		.word	.LANCHOR7
 4969 0a04 00000000 		.word	.LANCHOR5
 4970 0a08 00000000 		.word	.LANCHOR6
 4971              	.L577:
 370:lvgl/lvgl/src/extra/themes/default/lv_theme_default.c ****     lv_style_set_transform_height(&styles->grow, lv_disp_dpx(theme.disp, 3));
 4972              		.loc 1 370 5 discriminator 8 view .LVU1518
 4973 0a0c C834     		adds	r4, r4, #200
 370:lvgl/lvgl/src/extra/themes/default/lv_theme_default.c ****     lv_style_set_transform_height(&styles->grow, lv_disp_dpx(theme.disp, 3));
 4974              		.loc 1 370 66 discriminator 8 view .LVU1519
 4975 0a0e ED68     		ldr	r5, [r5, #12]
 4976              	.LVL529:
 4977              	.LBB537:
 4978              	.LBI537:
 236:d:\practise\f407_disc\lvgl\lvgl\src/core\lv_disp.h **** {
 4979              		.loc 3 236 26 is_stmt 1 discriminator 8 view .LVU1520
 4980              	.LBB538:
 4981              		.loc 3 238 5 discriminator 8 view .LVU1521
 4982              		.loc 3 238 12 is_stmt 0 discriminator 8 view .LVU1522
 4983 0a10 2846     		mov	r0, r5
 4984 0a12 FFF7FEFF 		bl	lv_disp_get_dpi
 4985              	.LVL530:
 4986 0a16 00EB4000 		add	r0, r0, r0, lsl #1
 4987 0a1a EF28     		cmp	r0, #239
 4988 0a1c 01F34683 		bgt	.L466
 4989              		.loc 3 238 12 view .LVU1523
 4990 0a20 0121     		movs	r1, #1
 4991              	.L203:
 4992              	.LVL531:
 4993              		.loc 3 238 12 view .LVU1524
 4994              	.LBE538:
 4995              	.LBE537:
 370:lvgl/lvgl/src/extra/themes/default/lv_theme_default.c ****     lv_style_set_transform_height(&styles->grow, lv_disp_dpx(theme.disp, 3));
 4996              		.loc 1 370 5 view .LVU1525
 4997 0a22 2046     		mov	r0, r4
 4998 0a24 FFF7FEFF 		bl	lv_style_set_transform_width
 4999              	.LVL532:
 371:lvgl/lvgl/src/extra/themes/default/lv_theme_default.c **** #endif
 5000              		.loc 1 371 5 is_stmt 1 view .LVU1526
 371:lvgl/lvgl/src/extra/themes/default/lv_theme_default.c **** #endif
 5001              		.loc 1 371 42 is_stmt 0 view .LVU1527
 5002 0a28 CC4B     		ldr	r3, .L579
 5003 0a2a 1C68     		ldr	r4, [r3]
 371:lvgl/lvgl/src/extra/themes/default/lv_theme_default.c **** #endif
 5004              		.loc 1 371 5 view .LVU1528
 5005 0a2c C834     		adds	r4, r4, #200
 371:lvgl/lvgl/src/extra/themes/default/lv_theme_default.c **** #endif
 5006              		.loc 1 371 67 view .LVU1529
 5007 0a2e CC4B     		ldr	r3, .L579+4
 5008 0a30 DD68     		ldr	r5, [r3, #12]
 5009              	.LVL533:
 5010              	.LBB540:
ARM GAS  C:\Users\gx\AppData\Local\Temp\ccQfGIQ4.s 			page 154


 5011              	.LBI540:
 236:d:\practise\f407_disc\lvgl\lvgl\src/core\lv_disp.h **** {
 5012              		.loc 3 236 26 is_stmt 1 view .LVU1530
 5013              	.LBB541:
 5014              		.loc 3 238 5 view .LVU1531
 5015              		.loc 3 238 12 is_stmt 0 view .LVU1532
 5016 0a32 2846     		mov	r0, r5
 5017 0a34 FFF7FEFF 		bl	lv_disp_get_dpi
 5018              	.LVL534:
 5019 0a38 00EB4000 		add	r0, r0, r0, lsl #1
 5020 0a3c EF28     		cmp	r0, #239
 5021 0a3e 01F34483 		bgt	.L467
 5022 0a42 0121     		movs	r1, #1
 5023              	.L204:
 5024              	.LVL535:
 5025              		.loc 3 238 12 view .LVU1533
 5026              	.LBE541:
 5027              	.LBE540:
 371:lvgl/lvgl/src/extra/themes/default/lv_theme_default.c **** #endif
 5028              		.loc 1 371 5 view .LVU1534
 5029 0a44 2046     		mov	r0, r4
 5030 0a46 FFF7FEFF 		bl	lv_style_set_transform_height
 5031              	.LVL536:
 374:lvgl/lvgl/src/extra/themes/default/lv_theme_default.c ****     lv_style_set_bg_color(&styles->knob, theme.color_primary);
 5032              		.loc 1 374 5 is_stmt 1 view .LVU1535
 374:lvgl/lvgl/src/extra/themes/default/lv_theme_default.c ****     lv_style_set_bg_color(&styles->knob, theme.color_primary);
 5033              		.loc 1 374 29 is_stmt 0 view .LVU1536
 5034 0a4a C44C     		ldr	r4, .L579
 5035 0a4c 2068     		ldr	r0, [r4]
 374:lvgl/lvgl/src/extra/themes/default/lv_theme_default.c ****     lv_style_set_bg_color(&styles->knob, theme.color_primary);
 5036              		.loc 1 374 5 view .LVU1537
 5037 0a4e E830     		adds	r0, r0, #232
 5038 0a50 FFF7FEFF 		bl	style_init_reset
 5039              	.LVL537:
 375:lvgl/lvgl/src/extra/themes/default/lv_theme_default.c ****     lv_style_set_bg_opa(&styles->knob, LV_OPA_COVER);
 5040              		.loc 1 375 5 is_stmt 1 view .LVU1538
 375:lvgl/lvgl/src/extra/themes/default/lv_theme_default.c ****     lv_style_set_bg_opa(&styles->knob, LV_OPA_COVER);
 5041              		.loc 1 375 34 is_stmt 0 view .LVU1539
 5042 0a54 2068     		ldr	r0, [r4]
 375:lvgl/lvgl/src/extra/themes/default/lv_theme_default.c ****     lv_style_set_bg_opa(&styles->knob, LV_OPA_COVER);
 5043              		.loc 1 375 5 view .LVU1540
 5044 0a56 C24E     		ldr	r6, .L579+4
 5045 0a58 318A     		ldrh	r1, [r6, #16]
 5046 0a5a E830     		adds	r0, r0, #232
 5047 0a5c FFF7FEFF 		bl	lv_style_set_bg_color
 5048              	.LVL538:
 376:lvgl/lvgl/src/extra/themes/default/lv_theme_default.c ****     lv_style_set_pad_all(&styles->knob, lv_disp_dpx(theme.disp, 6));
 5049              		.loc 1 376 5 is_stmt 1 view .LVU1541
 376:lvgl/lvgl/src/extra/themes/default/lv_theme_default.c ****     lv_style_set_pad_all(&styles->knob, lv_disp_dpx(theme.disp, 6));
 5050              		.loc 1 376 32 is_stmt 0 view .LVU1542
 5051 0a60 2068     		ldr	r0, [r4]
 376:lvgl/lvgl/src/extra/themes/default/lv_theme_default.c ****     lv_style_set_pad_all(&styles->knob, lv_disp_dpx(theme.disp, 6));
 5052              		.loc 1 376 5 view .LVU1543
 5053 0a62 FF21     		movs	r1, #255
 5054 0a64 E830     		adds	r0, r0, #232
 5055 0a66 FFF7FEFF 		bl	lv_style_set_bg_opa
 5056              	.LVL539:
ARM GAS  C:\Users\gx\AppData\Local\Temp\ccQfGIQ4.s 			page 155


 377:lvgl/lvgl/src/extra/themes/default/lv_theme_default.c ****     lv_style_set_radius(&styles->knob, LV_RADIUS_CIRCLE);
 5057              		.loc 1 377 5 is_stmt 1 view .LVU1544
 377:lvgl/lvgl/src/extra/themes/default/lv_theme_default.c ****     lv_style_set_radius(&styles->knob, LV_RADIUS_CIRCLE);
 5058              		.loc 1 377 33 is_stmt 0 view .LVU1545
 5059 0a6a 2568     		ldr	r5, [r4]
 377:lvgl/lvgl/src/extra/themes/default/lv_theme_default.c ****     lv_style_set_radius(&styles->knob, LV_RADIUS_CIRCLE);
 5060              		.loc 1 377 5 view .LVU1546
 5061 0a6c E835     		adds	r5, r5, #232
 377:lvgl/lvgl/src/extra/themes/default/lv_theme_default.c ****     lv_style_set_radius(&styles->knob, LV_RADIUS_CIRCLE);
 5062              		.loc 1 377 58 view .LVU1547
 5063 0a6e F468     		ldr	r4, [r6, #12]
 5064              	.LVL540:
 5065              	.LBB543:
 5066              	.LBI543:
 236:d:\practise\f407_disc\lvgl\lvgl\src/core\lv_disp.h **** {
 5067              		.loc 3 236 26 is_stmt 1 view .LVU1548
 5068              	.LBB544:
 5069              		.loc 3 238 5 view .LVU1549
 5070              		.loc 3 238 12 is_stmt 0 view .LVU1550
 5071 0a70 2046     		mov	r0, r4
 5072 0a72 FFF7FEFF 		bl	lv_disp_get_dpi
 5073              	.LVL541:
 5074 0a76 00EB4000 		add	r0, r0, r0, lsl #1
 5075 0a7a 4000     		lsls	r0, r0, #1
 5076 0a7c EF28     		cmp	r0, #239
 5077 0a7e 01F33383 		bgt	.L468
 5078 0a82 0124     		movs	r4, #1
 5079              	.LVL542:
 5080              	.L205:
 5081              		.loc 3 238 12 view .LVU1551
 5082              	.LBE544:
 5083              	.LBE543:
 5084              	.LBB546:
 5085              	.LBI546:
 425:d:\practise\f407_disc\lvgl\lvgl\src\misc\lv_style.h ****     lv_style_set_pad_left(style, value);
 5086              		.loc 4 425 20 is_stmt 1 view .LVU1552
 5087              	.LBB547:
 426:d:\practise\f407_disc\lvgl\lvgl\src\misc\lv_style.h ****     lv_style_set_pad_right(style, value);
 5088              		.loc 4 426 5 view .LVU1553
 5089 0a84 2146     		mov	r1, r4
 5090 0a86 2846     		mov	r0, r5
 5091 0a88 FFF7FEFF 		bl	lv_style_set_pad_left
 5092              	.LVL543:
 427:d:\practise\f407_disc\lvgl\lvgl\src\misc\lv_style.h ****     lv_style_set_pad_top(style, value);
 5093              		.loc 4 427 5 view .LVU1554
 5094 0a8c 2146     		mov	r1, r4
 5095 0a8e 2846     		mov	r0, r5
 5096 0a90 FFF7FEFF 		bl	lv_style_set_pad_right
 5097              	.LVL544:
 428:d:\practise\f407_disc\lvgl\lvgl\src\misc\lv_style.h ****     lv_style_set_pad_bottom(style, value);
 5098              		.loc 4 428 5 view .LVU1555
 5099 0a94 2146     		mov	r1, r4
 5100 0a96 2846     		mov	r0, r5
 5101 0a98 FFF7FEFF 		bl	lv_style_set_pad_top
 5102              	.LVL545:
 429:d:\practise\f407_disc\lvgl\lvgl\src\misc\lv_style.h **** }
 5103              		.loc 4 429 5 view .LVU1556
ARM GAS  C:\Users\gx\AppData\Local\Temp\ccQfGIQ4.s 			page 156


 5104 0a9c 2146     		mov	r1, r4
 5105 0a9e 2846     		mov	r0, r5
 5106 0aa0 FFF7FEFF 		bl	lv_style_set_pad_bottom
 5107              	.LVL546:
 429:d:\practise\f407_disc\lvgl\lvgl\src\misc\lv_style.h **** }
 5108              		.loc 4 429 5 is_stmt 0 view .LVU1557
 5109              	.LBE547:
 5110              	.LBE546:
 378:lvgl/lvgl/src/extra/themes/default/lv_theme_default.c **** 
 5111              		.loc 1 378 5 is_stmt 1 view .LVU1558
 378:lvgl/lvgl/src/extra/themes/default/lv_theme_default.c **** 
 5112              		.loc 1 378 32 is_stmt 0 view .LVU1559
 5113 0aa4 AD4C     		ldr	r4, .L579
 5114 0aa6 2068     		ldr	r0, [r4]
 378:lvgl/lvgl/src/extra/themes/default/lv_theme_default.c **** 
 5115              		.loc 1 378 5 view .LVU1560
 5116 0aa8 47F6FF71 		movw	r1, #32767
 5117 0aac E830     		adds	r0, r0, #232
 5118 0aae FFF7FEFF 		bl	lv_style_set_radius
 5119              	.LVL547:
 380:lvgl/lvgl/src/extra/themes/default/lv_theme_default.c ****     lv_style_set_anim_time(&styles->anim, 200);
 5120              		.loc 1 380 5 is_stmt 1 view .LVU1561
 380:lvgl/lvgl/src/extra/themes/default/lv_theme_default.c ****     lv_style_set_anim_time(&styles->anim, 200);
 5121              		.loc 1 380 29 is_stmt 0 view .LVU1562
 5122 0ab2 2068     		ldr	r0, [r4]
 380:lvgl/lvgl/src/extra/themes/default/lv_theme_default.c ****     lv_style_set_anim_time(&styles->anim, 200);
 5123              		.loc 1 380 5 view .LVU1563
 5124 0ab4 E030     		adds	r0, r0, #224
 5125 0ab6 FFF7FEFF 		bl	style_init_reset
 5126              	.LVL548:
 381:lvgl/lvgl/src/extra/themes/default/lv_theme_default.c **** 
 5127              		.loc 1 381 5 is_stmt 1 view .LVU1564
 381:lvgl/lvgl/src/extra/themes/default/lv_theme_default.c **** 
 5128              		.loc 1 381 35 is_stmt 0 view .LVU1565
 5129 0aba 2068     		ldr	r0, [r4]
 381:lvgl/lvgl/src/extra/themes/default/lv_theme_default.c **** 
 5130              		.loc 1 381 5 view .LVU1566
 5131 0abc C821     		movs	r1, #200
 5132 0abe E030     		adds	r0, r0, #224
 5133 0ac0 FFF7FEFF 		bl	lv_style_set_anim_time
 5134              	.LVL549:
 384:lvgl/lvgl/src/extra/themes/default/lv_theme_default.c ****     lv_style_set_arc_color(&styles->arc_indic, color_grey);
 5135              		.loc 1 384 5 is_stmt 1 view .LVU1567
 384:lvgl/lvgl/src/extra/themes/default/lv_theme_default.c ****     lv_style_set_arc_color(&styles->arc_indic, color_grey);
 5136              		.loc 1 384 29 is_stmt 0 view .LVU1568
 5137 0ac4 2068     		ldr	r0, [r4]
 384:lvgl/lvgl/src/extra/themes/default/lv_theme_default.c ****     lv_style_set_arc_color(&styles->arc_indic, color_grey);
 5138              		.loc 1 384 5 view .LVU1569
 5139 0ac6 F830     		adds	r0, r0, #248
 5140 0ac8 FFF7FEFF 		bl	style_init_reset
 5141              	.LVL550:
 385:lvgl/lvgl/src/extra/themes/default/lv_theme_default.c ****     lv_style_set_arc_width(&styles->arc_indic, lv_disp_dpx(theme.disp, 15));
 5142              		.loc 1 385 5 is_stmt 1 view .LVU1570
 385:lvgl/lvgl/src/extra/themes/default/lv_theme_default.c ****     lv_style_set_arc_width(&styles->arc_indic, lv_disp_dpx(theme.disp, 15));
 5143              		.loc 1 385 35 is_stmt 0 view .LVU1571
 5144 0acc 2068     		ldr	r0, [r4]
 385:lvgl/lvgl/src/extra/themes/default/lv_theme_default.c ****     lv_style_set_arc_width(&styles->arc_indic, lv_disp_dpx(theme.disp, 15));
ARM GAS  C:\Users\gx\AppData\Local\Temp\ccQfGIQ4.s 			page 157


 5145              		.loc 1 385 5 view .LVU1572
 5146 0ace A54B     		ldr	r3, .L579+8
 5147 0ad0 1988     		ldrh	r1, [r3]
 5148 0ad2 F830     		adds	r0, r0, #248
 5149 0ad4 FFF7FEFF 		bl	lv_style_set_arc_color
 5150              	.LVL551:
 386:lvgl/lvgl/src/extra/themes/default/lv_theme_default.c ****     lv_style_set_arc_rounded(&styles->arc_indic, true);
 5151              		.loc 1 386 5 is_stmt 1 view .LVU1573
 386:lvgl/lvgl/src/extra/themes/default/lv_theme_default.c ****     lv_style_set_arc_rounded(&styles->arc_indic, true);
 5152              		.loc 1 386 35 is_stmt 0 view .LVU1574
 5153 0ad8 2468     		ldr	r4, [r4]
 386:lvgl/lvgl/src/extra/themes/default/lv_theme_default.c ****     lv_style_set_arc_rounded(&styles->arc_indic, true);
 5154              		.loc 1 386 5 view .LVU1575
 5155 0ada F834     		adds	r4, r4, #248
 386:lvgl/lvgl/src/extra/themes/default/lv_theme_default.c ****     lv_style_set_arc_rounded(&styles->arc_indic, true);
 5156              		.loc 1 386 65 view .LVU1576
 5157 0adc A04B     		ldr	r3, .L579+4
 5158 0ade DD68     		ldr	r5, [r3, #12]
 5159              	.LVL552:
 5160              	.LBB548:
 5161              	.LBI548:
 236:d:\practise\f407_disc\lvgl\lvgl\src/core\lv_disp.h **** {
 5162              		.loc 3 236 26 is_stmt 1 view .LVU1577
 5163              	.LBB549:
 5164              		.loc 3 238 5 view .LVU1578
 5165              		.loc 3 238 12 is_stmt 0 view .LVU1579
 5166 0ae0 2846     		mov	r0, r5
 5167 0ae2 FFF7FEFF 		bl	lv_disp_get_dpi
 5168              	.LVL553:
 5169 0ae6 C0EB0010 		rsb	r0, r0, r0, lsl #4
 5170 0aea EF28     		cmp	r0, #239
 5171 0aec 01F30C83 		bgt	.L469
 5172 0af0 0121     		movs	r1, #1
 5173              	.L206:
 5174              	.LVL554:
 5175              		.loc 3 238 12 view .LVU1580
 5176              	.LBE549:
 5177              	.LBE548:
 386:lvgl/lvgl/src/extra/themes/default/lv_theme_default.c ****     lv_style_set_arc_rounded(&styles->arc_indic, true);
 5178              		.loc 1 386 5 view .LVU1581
 5179 0af2 2046     		mov	r0, r4
 5180 0af4 FFF7FEFF 		bl	lv_style_set_arc_width
 5181              	.LVL555:
 387:lvgl/lvgl/src/extra/themes/default/lv_theme_default.c **** 
 5182              		.loc 1 387 5 is_stmt 1 view .LVU1582
 387:lvgl/lvgl/src/extra/themes/default/lv_theme_default.c **** 
 5183              		.loc 1 387 37 is_stmt 0 view .LVU1583
 5184 0af8 984C     		ldr	r4, .L579
 5185 0afa 2068     		ldr	r0, [r4]
 387:lvgl/lvgl/src/extra/themes/default/lv_theme_default.c **** 
 5186              		.loc 1 387 5 view .LVU1584
 5187 0afc 0121     		movs	r1, #1
 5188 0afe F830     		adds	r0, r0, #248
 5189 0b00 FFF7FEFF 		bl	lv_style_set_arc_rounded
 5190              	.LVL556:
 389:lvgl/lvgl/src/extra/themes/default/lv_theme_default.c ****     lv_style_set_arc_color(&styles->arc_indic_primary, theme.color_primary);
 5191              		.loc 1 389 5 is_stmt 1 view .LVU1585
ARM GAS  C:\Users\gx\AppData\Local\Temp\ccQfGIQ4.s 			page 158


 389:lvgl/lvgl/src/extra/themes/default/lv_theme_default.c ****     lv_style_set_arc_color(&styles->arc_indic_primary, theme.color_primary);
 5192              		.loc 1 389 29 is_stmt 0 view .LVU1586
 5193 0b04 2068     		ldr	r0, [r4]
 389:lvgl/lvgl/src/extra/themes/default/lv_theme_default.c ****     lv_style_set_arc_color(&styles->arc_indic_primary, theme.color_primary);
 5194              		.loc 1 389 5 view .LVU1587
 5195 0b06 00F58070 		add	r0, r0, #256
 5196 0b0a FFF7FEFF 		bl	style_init_reset
 5197              	.LVL557:
 390:lvgl/lvgl/src/extra/themes/default/lv_theme_default.c **** #endif
 5198              		.loc 1 390 5 is_stmt 1 view .LVU1588
 390:lvgl/lvgl/src/extra/themes/default/lv_theme_default.c **** #endif
 5199              		.loc 1 390 35 is_stmt 0 view .LVU1589
 5200 0b0e 2068     		ldr	r0, [r4]
 390:lvgl/lvgl/src/extra/themes/default/lv_theme_default.c **** #endif
 5201              		.loc 1 390 5 view .LVU1590
 5202 0b10 934E     		ldr	r6, .L579+4
 5203 0b12 318A     		ldrh	r1, [r6, #16]
 5204 0b14 00F58070 		add	r0, r0, #256
 5205 0b18 FFF7FEFF 		bl	lv_style_set_arc_color
 5206              	.LVL558:
 394:lvgl/lvgl/src/extra/themes/default/lv_theme_default.c ****     lv_style_set_max_height(&styles->dropdown_list, LV_DPI_DEF * 2);
 5207              		.loc 1 394 5 is_stmt 1 view .LVU1591
 394:lvgl/lvgl/src/extra/themes/default/lv_theme_default.c ****     lv_style_set_max_height(&styles->dropdown_list, LV_DPI_DEF * 2);
 5208              		.loc 1 394 29 is_stmt 0 view .LVU1592
 5209 0b1c 2068     		ldr	r0, [r4]
 394:lvgl/lvgl/src/extra/themes/default/lv_theme_default.c ****     lv_style_set_max_height(&styles->dropdown_list, LV_DPI_DEF * 2);
 5210              		.loc 1 394 5 view .LVU1593
 5211 0b1e 00F59470 		add	r0, r0, #296
 5212 0b22 FFF7FEFF 		bl	style_init_reset
 5213              	.LVL559:
 395:lvgl/lvgl/src/extra/themes/default/lv_theme_default.c **** #endif
 5214              		.loc 1 395 5 is_stmt 1 view .LVU1594
 395:lvgl/lvgl/src/extra/themes/default/lv_theme_default.c **** #endif
 5215              		.loc 1 395 36 is_stmt 0 view .LVU1595
 5216 0b26 2068     		ldr	r0, [r4]
 395:lvgl/lvgl/src/extra/themes/default/lv_theme_default.c **** #endif
 5217              		.loc 1 395 5 view .LVU1596
 5218 0b28 4FF48271 		mov	r1, #260
 5219 0b2c 00F59470 		add	r0, r0, #296
 5220 0b30 FFF7FEFF 		bl	lv_style_set_max_height
 5221              	.LVL560:
 398:lvgl/lvgl/src/extra/themes/default/lv_theme_default.c ****     lv_style_set_pad_all(&styles->cb_marker, lv_disp_dpx(theme.disp, 3));
 5222              		.loc 1 398 5 is_stmt 1 view .LVU1597
 398:lvgl/lvgl/src/extra/themes/default/lv_theme_default.c ****     lv_style_set_pad_all(&styles->cb_marker, lv_disp_dpx(theme.disp, 3));
 5223              		.loc 1 398 29 is_stmt 0 view .LVU1598
 5224 0b34 2068     		ldr	r0, [r4]
 398:lvgl/lvgl/src/extra/themes/default/lv_theme_default.c ****     lv_style_set_pad_all(&styles->cb_marker, lv_disp_dpx(theme.disp, 3));
 5225              		.loc 1 398 5 view .LVU1599
 5226 0b36 00F59870 		add	r0, r0, #304
 5227 0b3a FFF7FEFF 		bl	style_init_reset
 5228              	.LVL561:
 399:lvgl/lvgl/src/extra/themes/default/lv_theme_default.c ****     lv_style_set_border_width(&styles->cb_marker, BORDER_WIDTH);
 5229              		.loc 1 399 5 is_stmt 1 view .LVU1600
 399:lvgl/lvgl/src/extra/themes/default/lv_theme_default.c ****     lv_style_set_border_width(&styles->cb_marker, BORDER_WIDTH);
 5230              		.loc 1 399 33 is_stmt 0 view .LVU1601
 5231 0b3e 2568     		ldr	r5, [r4]
 399:lvgl/lvgl/src/extra/themes/default/lv_theme_default.c ****     lv_style_set_border_width(&styles->cb_marker, BORDER_WIDTH);
ARM GAS  C:\Users\gx\AppData\Local\Temp\ccQfGIQ4.s 			page 159


 5232              		.loc 1 399 5 view .LVU1602
 5233 0b40 05F59875 		add	r5, r5, #304
 399:lvgl/lvgl/src/extra/themes/default/lv_theme_default.c ****     lv_style_set_border_width(&styles->cb_marker, BORDER_WIDTH);
 5234              		.loc 1 399 63 view .LVU1603
 5235 0b44 F468     		ldr	r4, [r6, #12]
 5236              	.LVL562:
 5237              	.LBB551:
 5238              	.LBI551:
 236:d:\practise\f407_disc\lvgl\lvgl\src/core\lv_disp.h **** {
 5239              		.loc 3 236 26 is_stmt 1 view .LVU1604
 5240              	.LBB552:
 5241              		.loc 3 238 5 view .LVU1605
 5242              		.loc 3 238 12 is_stmt 0 view .LVU1606
 5243 0b46 2046     		mov	r0, r4
 5244 0b48 FFF7FEFF 		bl	lv_disp_get_dpi
 5245              	.LVL563:
 5246 0b4c 00EB4000 		add	r0, r0, r0, lsl #1
 5247 0b50 EF28     		cmp	r0, #239
 5248 0b52 01F3E882 		bgt	.L470
 5249 0b56 0124     		movs	r4, #1
 5250              	.LVL564:
 5251              	.L207:
 5252              		.loc 3 238 12 view .LVU1607
 5253              	.LBE552:
 5254              	.LBE551:
 5255              	.LBB554:
 5256              	.LBI554:
 425:d:\practise\f407_disc\lvgl\lvgl\src\misc\lv_style.h ****     lv_style_set_pad_left(style, value);
 5257              		.loc 4 425 20 is_stmt 1 view .LVU1608
 5258              	.LBB555:
 426:d:\practise\f407_disc\lvgl\lvgl\src\misc\lv_style.h ****     lv_style_set_pad_right(style, value);
 5259              		.loc 4 426 5 view .LVU1609
 5260 0b58 2146     		mov	r1, r4
 5261 0b5a 2846     		mov	r0, r5
 5262 0b5c FFF7FEFF 		bl	lv_style_set_pad_left
 5263              	.LVL565:
 427:d:\practise\f407_disc\lvgl\lvgl\src\misc\lv_style.h ****     lv_style_set_pad_top(style, value);
 5264              		.loc 4 427 5 view .LVU1610
 5265 0b60 2146     		mov	r1, r4
 5266 0b62 2846     		mov	r0, r5
 5267 0b64 FFF7FEFF 		bl	lv_style_set_pad_right
 5268              	.LVL566:
 428:d:\practise\f407_disc\lvgl\lvgl\src\misc\lv_style.h ****     lv_style_set_pad_bottom(style, value);
 5269              		.loc 4 428 5 view .LVU1611
 5270 0b68 2146     		mov	r1, r4
 5271 0b6a 2846     		mov	r0, r5
 5272 0b6c FFF7FEFF 		bl	lv_style_set_pad_top
 5273              	.LVL567:
 429:d:\practise\f407_disc\lvgl\lvgl\src\misc\lv_style.h **** }
 5274              		.loc 4 429 5 view .LVU1612
 5275 0b70 2146     		mov	r1, r4
 5276 0b72 2846     		mov	r0, r5
 5277 0b74 FFF7FEFF 		bl	lv_style_set_pad_bottom
 5278              	.LVL568:
 429:d:\practise\f407_disc\lvgl\lvgl\src\misc\lv_style.h **** }
 5279              		.loc 4 429 5 is_stmt 0 view .LVU1613
 5280              	.LBE555:
ARM GAS  C:\Users\gx\AppData\Local\Temp\ccQfGIQ4.s 			page 160


 5281              	.LBE554:
 400:lvgl/lvgl/src/extra/themes/default/lv_theme_default.c ****     lv_style_set_border_color(&styles->cb_marker, theme.color_primary);
 5282              		.loc 1 400 5 is_stmt 1 view .LVU1614
 400:lvgl/lvgl/src/extra/themes/default/lv_theme_default.c ****     lv_style_set_border_color(&styles->cb_marker, theme.color_primary);
 5283              		.loc 1 400 38 is_stmt 0 view .LVU1615
 5284 0b78 784B     		ldr	r3, .L579
 5285 0b7a 1C68     		ldr	r4, [r3]
 400:lvgl/lvgl/src/extra/themes/default/lv_theme_default.c ****     lv_style_set_border_color(&styles->cb_marker, theme.color_primary);
 5286              		.loc 1 400 5 view .LVU1616
 5287 0b7c 04F59874 		add	r4, r4, #304
 400:lvgl/lvgl/src/extra/themes/default/lv_theme_default.c ****     lv_style_set_border_color(&styles->cb_marker, theme.color_primary);
 5288              		.loc 1 400 51 view .LVU1617
 5289 0b80 774B     		ldr	r3, .L579+4
 5290 0b82 DD68     		ldr	r5, [r3, #12]
 5291              	.LVL569:
 5292              	.LBB556:
 5293              	.LBI556:
 236:d:\practise\f407_disc\lvgl\lvgl\src/core\lv_disp.h **** {
 5294              		.loc 3 236 26 is_stmt 1 view .LVU1618
 5295              	.LBB557:
 5296              		.loc 3 238 5 view .LVU1619
 5297              		.loc 3 238 12 is_stmt 0 view .LVU1620
 5298 0b84 2846     		mov	r0, r5
 5299 0b86 FFF7FEFF 		bl	lv_disp_get_dpi
 5300              	.LVL570:
 5301 0b8a 4000     		lsls	r0, r0, #1
 5302 0b8c EF28     		cmp	r0, #239
 5303 0b8e 01F3D982 		bgt	.L471
 5304 0b92 0121     		movs	r1, #1
 5305              	.L208:
 5306              	.LVL571:
 5307              		.loc 3 238 12 view .LVU1621
 5308              	.LBE557:
 5309              	.LBE556:
 400:lvgl/lvgl/src/extra/themes/default/lv_theme_default.c ****     lv_style_set_border_color(&styles->cb_marker, theme.color_primary);
 5310              		.loc 1 400 5 view .LVU1622
 5311 0b94 2046     		mov	r0, r4
 5312 0b96 FFF7FEFF 		bl	lv_style_set_border_width
 5313              	.LVL572:
 401:lvgl/lvgl/src/extra/themes/default/lv_theme_default.c ****     lv_style_set_bg_color(&styles->cb_marker, color_card);
 5314              		.loc 1 401 5 is_stmt 1 view .LVU1623
 401:lvgl/lvgl/src/extra/themes/default/lv_theme_default.c ****     lv_style_set_bg_color(&styles->cb_marker, color_card);
 5315              		.loc 1 401 38 is_stmt 0 view .LVU1624
 5316 0b9a 704C     		ldr	r4, .L579
 5317 0b9c 2068     		ldr	r0, [r4]
 401:lvgl/lvgl/src/extra/themes/default/lv_theme_default.c ****     lv_style_set_bg_color(&styles->cb_marker, color_card);
 5318              		.loc 1 401 5 view .LVU1625
 5319 0b9e 704B     		ldr	r3, .L579+4
 5320 0ba0 198A     		ldrh	r1, [r3, #16]
 5321 0ba2 00F59870 		add	r0, r0, #304
 5322 0ba6 FFF7FEFF 		bl	lv_style_set_border_color
 5323              	.LVL573:
 402:lvgl/lvgl/src/extra/themes/default/lv_theme_default.c ****     lv_style_set_bg_opa(&styles->cb_marker, LV_OPA_COVER);
 5324              		.loc 1 402 5 is_stmt 1 view .LVU1626
 402:lvgl/lvgl/src/extra/themes/default/lv_theme_default.c ****     lv_style_set_bg_opa(&styles->cb_marker, LV_OPA_COVER);
 5325              		.loc 1 402 34 is_stmt 0 view .LVU1627
 5326 0baa 2068     		ldr	r0, [r4]
ARM GAS  C:\Users\gx\AppData\Local\Temp\ccQfGIQ4.s 			page 161


 402:lvgl/lvgl/src/extra/themes/default/lv_theme_default.c ****     lv_style_set_bg_opa(&styles->cb_marker, LV_OPA_COVER);
 5327              		.loc 1 402 5 view .LVU1628
 5328 0bac 6E4B     		ldr	r3, .L579+12
 5329 0bae 1988     		ldrh	r1, [r3]
 5330 0bb0 00F59870 		add	r0, r0, #304
 5331 0bb4 FFF7FEFF 		bl	lv_style_set_bg_color
 5332              	.LVL574:
 403:lvgl/lvgl/src/extra/themes/default/lv_theme_default.c ****     lv_style_set_radius(&styles->cb_marker, RADIUS_DEFAULT / 2);
 5333              		.loc 1 403 5 is_stmt 1 view .LVU1629
 403:lvgl/lvgl/src/extra/themes/default/lv_theme_default.c ****     lv_style_set_radius(&styles->cb_marker, RADIUS_DEFAULT / 2);
 5334              		.loc 1 403 32 is_stmt 0 view .LVU1630
 5335 0bb8 2068     		ldr	r0, [r4]
 403:lvgl/lvgl/src/extra/themes/default/lv_theme_default.c ****     lv_style_set_radius(&styles->cb_marker, RADIUS_DEFAULT / 2);
 5336              		.loc 1 403 5 view .LVU1631
 5337 0bba FF21     		movs	r1, #255
 5338 0bbc 00F59870 		add	r0, r0, #304
 5339 0bc0 FFF7FEFF 		bl	lv_style_set_bg_opa
 5340              	.LVL575:
 404:lvgl/lvgl/src/extra/themes/default/lv_theme_default.c **** 
 5341              		.loc 1 404 5 is_stmt 1 view .LVU1632
 404:lvgl/lvgl/src/extra/themes/default/lv_theme_default.c **** 
 5342              		.loc 1 404 32 is_stmt 0 view .LVU1633
 5343 0bc4 2468     		ldr	r4, [r4]
 404:lvgl/lvgl/src/extra/themes/default/lv_theme_default.c **** 
 5344              		.loc 1 404 5 view .LVU1634
 5345 0bc6 04F59874 		add	r4, r4, #304
 404:lvgl/lvgl/src/extra/themes/default/lv_theme_default.c **** 
 5346              		.loc 1 404 45 view .LVU1635
 5347 0bca 684B     		ldr	r3, .L579+16
 5348 0bcc 1B78     		ldrb	r3, [r3]	@ zero_extendqisi2
 404:lvgl/lvgl/src/extra/themes/default/lv_theme_default.c **** 
 5349              		.loc 1 404 5 view .LVU1636
 5350 0bce 012B     		cmp	r3, #1
 5351 0bd0 01F0C682 		beq	.L472
 404:lvgl/lvgl/src/extra/themes/default/lv_theme_default.c **** 
 5352              		.loc 1 404 45 discriminator 2 view .LVU1637
 5353 0bd4 624B     		ldr	r3, .L579+4
 5354 0bd6 DD68     		ldr	r5, [r3, #12]
 5355              	.LVL576:
 5356              	.LBB559:
 5357              	.LBI559:
 236:d:\practise\f407_disc\lvgl\lvgl\src/core\lv_disp.h **** {
 5358              		.loc 3 236 26 is_stmt 1 discriminator 2 view .LVU1638
 5359              	.LBB560:
 5360              		.loc 3 238 5 discriminator 2 view .LVU1639
 5361              		.loc 3 238 12 is_stmt 0 discriminator 2 view .LVU1640
 5362 0bd8 2846     		mov	r0, r5
 5363 0bda FFF7FEFF 		bl	lv_disp_get_dpi
 5364              	.LVL577:
 5365 0bde C000     		lsls	r0, r0, #3
 5366 0be0 EF28     		cmp	r0, #239
 5367 0be2 01F3DC82 		bgt	.L473
 5368              		.loc 3 238 12 view .LVU1641
 5369 0be6 0121     		movs	r1, #1
 5370              	.L212:
 5371              	.LVL578:
 5372              		.loc 3 238 12 view .LVU1642
ARM GAS  C:\Users\gx\AppData\Local\Temp\ccQfGIQ4.s 			page 162


 5373              	.LBE560:
 5374              	.LBE559:
 404:lvgl/lvgl/src/extra/themes/default/lv_theme_default.c **** 
 5375              		.loc 1 404 5 view .LVU1643
 5376 0be8 01EBD171 		add	r1, r1, r1, lsr #31
 5377 0bec 4910     		asrs	r1, r1, #1
 5378              	.L211:
 404:lvgl/lvgl/src/extra/themes/default/lv_theme_default.c **** 
 5379              		.loc 1 404 5 discriminator 4 view .LVU1644
 5380 0bee 2046     		mov	r0, r4
 5381 0bf0 FFF7FEFF 		bl	lv_style_set_radius
 5382              	.LVL579:
 406:lvgl/lvgl/src/extra/themes/default/lv_theme_default.c ****     lv_style_set_bg_img_src(&styles->cb_marker_checked, LV_SYMBOL_OK);
 5383              		.loc 1 406 5 is_stmt 1 discriminator 4 view .LVU1645
 406:lvgl/lvgl/src/extra/themes/default/lv_theme_default.c ****     lv_style_set_bg_img_src(&styles->cb_marker_checked, LV_SYMBOL_OK);
 5384              		.loc 1 406 29 is_stmt 0 discriminator 4 view .LVU1646
 5385 0bf4 594C     		ldr	r4, .L579
 5386 0bf6 2068     		ldr	r0, [r4]
 406:lvgl/lvgl/src/extra/themes/default/lv_theme_default.c ****     lv_style_set_bg_img_src(&styles->cb_marker_checked, LV_SYMBOL_OK);
 5387              		.loc 1 406 5 discriminator 4 view .LVU1647
 5388 0bf8 00F59C70 		add	r0, r0, #312
 5389 0bfc FFF7FEFF 		bl	style_init_reset
 5390              	.LVL580:
 407:lvgl/lvgl/src/extra/themes/default/lv_theme_default.c ****     lv_style_set_text_color(&styles->cb_marker_checked, lv_color_white());
 5391              		.loc 1 407 5 is_stmt 1 discriminator 4 view .LVU1648
 407:lvgl/lvgl/src/extra/themes/default/lv_theme_default.c ****     lv_style_set_text_color(&styles->cb_marker_checked, lv_color_white());
 5392              		.loc 1 407 36 is_stmt 0 discriminator 4 view .LVU1649
 5393 0c00 2068     		ldr	r0, [r4]
 407:lvgl/lvgl/src/extra/themes/default/lv_theme_default.c ****     lv_style_set_text_color(&styles->cb_marker_checked, lv_color_white());
 5394              		.loc 1 407 5 discriminator 4 view .LVU1650
 5395 0c02 5B49     		ldr	r1, .L579+20
 5396 0c04 00F59C70 		add	r0, r0, #312
 5397 0c08 FFF7FEFF 		bl	lv_style_set_bg_img_src
 5398              	.LVL581:
 408:lvgl/lvgl/src/extra/themes/default/lv_theme_default.c ****     lv_style_set_text_font(&styles->cb_marker_checked, theme.font_small);
 5399              		.loc 1 408 5 is_stmt 1 discriminator 4 view .LVU1651
 408:lvgl/lvgl/src/extra/themes/default/lv_theme_default.c ****     lv_style_set_text_font(&styles->cb_marker_checked, theme.font_small);
 5400              		.loc 1 408 36 is_stmt 0 discriminator 4 view .LVU1652
 5401 0c0c 2068     		ldr	r0, [r4]
 5402              	.LBB562:
 5403              	.LBI562:
 5404              		.loc 2 687 26 is_stmt 1 discriminator 4 view .LVU1653
 5405              	.LBE562:
 5406              		.loc 2 687 49 discriminator 4 view .LVU1654
 5407              	.LVL582:
 5408              	.LBB565:
 5409              	.LBB563:
 5410              	.LBI563:
 615:d:\practise\f407_disc\lvgl\lvgl\src\misc\lv_color.h **** {
 5411              		.loc 2 615 26 discriminator 4 view .LVU1655
 5412              	.LBB564:
 617:d:\practise\f407_disc\lvgl\lvgl\src\misc\lv_color.h **** }
 5413              		.loc 2 617 5 discriminator 4 view .LVU1656
 617:d:\practise\f407_disc\lvgl\lvgl\src\misc\lv_color.h **** }
 5414              		.loc 2 617 5 is_stmt 0 discriminator 4 view .LVU1657
 5415              	.LBE564:
 5416              	.LBE563:
ARM GAS  C:\Users\gx\AppData\Local\Temp\ccQfGIQ4.s 			page 163


 5417              	.LBE565:
 408:lvgl/lvgl/src/extra/themes/default/lv_theme_default.c ****     lv_style_set_text_font(&styles->cb_marker_checked, theme.font_small);
 5418              		.loc 1 408 5 discriminator 4 view .LVU1658
 5419 0c0e 4FF0FF31 		mov	r1, #-1	@ movhi
 5420 0c12 00F59C70 		add	r0, r0, #312
 5421 0c16 FFF7FEFF 		bl	lv_style_set_text_color
 5422              	.LVL583:
 409:lvgl/lvgl/src/extra/themes/default/lv_theme_default.c **** #endif
 5423              		.loc 1 409 5 is_stmt 1 discriminator 4 view .LVU1659
 409:lvgl/lvgl/src/extra/themes/default/lv_theme_default.c **** #endif
 5424              		.loc 1 409 35 is_stmt 0 discriminator 4 view .LVU1660
 5425 0c1a 2068     		ldr	r0, [r4]
 409:lvgl/lvgl/src/extra/themes/default/lv_theme_default.c **** #endif
 5426              		.loc 1 409 5 discriminator 4 view .LVU1661
 5427 0c1c 504E     		ldr	r6, .L579+4
 5428 0c1e 7169     		ldr	r1, [r6, #20]
 5429 0c20 00F59C70 		add	r0, r0, #312
 5430 0c24 FFF7FEFF 		bl	lv_style_set_text_font
 5431              	.LVL584:
 413:lvgl/lvgl/src/extra/themes/default/lv_theme_default.c ****     lv_style_set_pad_all(&styles->switch_knob, - lv_disp_dpx(theme.disp, 4));
 5432              		.loc 1 413 5 is_stmt 1 discriminator 4 view .LVU1662
 413:lvgl/lvgl/src/extra/themes/default/lv_theme_default.c ****     lv_style_set_pad_all(&styles->switch_knob, - lv_disp_dpx(theme.disp, 4));
 5433              		.loc 1 413 29 is_stmt 0 discriminator 4 view .LVU1663
 5434 0c28 2068     		ldr	r0, [r4]
 413:lvgl/lvgl/src/extra/themes/default/lv_theme_default.c ****     lv_style_set_pad_all(&styles->switch_knob, - lv_disp_dpx(theme.disp, 4));
 5435              		.loc 1 413 5 discriminator 4 view .LVU1664
 5436 0c2a 00F5A070 		add	r0, r0, #320
 5437 0c2e FFF7FEFF 		bl	style_init_reset
 5438              	.LVL585:
 414:lvgl/lvgl/src/extra/themes/default/lv_theme_default.c ****     lv_style_set_bg_color(&styles->switch_knob, lv_color_white());
 5439              		.loc 1 414 5 is_stmt 1 discriminator 4 view .LVU1665
 414:lvgl/lvgl/src/extra/themes/default/lv_theme_default.c ****     lv_style_set_bg_color(&styles->switch_knob, lv_color_white());
 5440              		.loc 1 414 33 is_stmt 0 discriminator 4 view .LVU1666
 5441 0c32 2568     		ldr	r5, [r4]
 414:lvgl/lvgl/src/extra/themes/default/lv_theme_default.c ****     lv_style_set_bg_color(&styles->switch_knob, lv_color_white());
 5442              		.loc 1 414 5 discriminator 4 view .LVU1667
 5443 0c34 05F5A075 		add	r5, r5, #320
 414:lvgl/lvgl/src/extra/themes/default/lv_theme_default.c ****     lv_style_set_bg_color(&styles->switch_knob, lv_color_white());
 5444              		.loc 1 414 67 discriminator 4 view .LVU1668
 5445 0c38 F468     		ldr	r4, [r6, #12]
 5446              	.LVL586:
 5447              	.LBB566:
 5448              	.LBI566:
 236:d:\practise\f407_disc\lvgl\lvgl\src/core\lv_disp.h **** {
 5449              		.loc 3 236 26 is_stmt 1 discriminator 4 view .LVU1669
 5450              	.LBB567:
 5451              		.loc 3 238 5 discriminator 4 view .LVU1670
 5452              		.loc 3 238 12 is_stmt 0 discriminator 4 view .LVU1671
 5453 0c3a 2046     		mov	r0, r4
 5454 0c3c FFF7FEFF 		bl	lv_disp_get_dpi
 5455              	.LVL587:
 5456 0c40 8000     		lsls	r0, r0, #2
 5457 0c42 EF28     		cmp	r0, #239
 5458 0c44 01F3B982 		bgt	.L474
 5459              		.loc 3 238 12 view .LVU1672
 5460 0c48 0124     		movs	r4, #1
 5461              	.LVL588:
ARM GAS  C:\Users\gx\AppData\Local\Temp\ccQfGIQ4.s 			page 164


 5462              	.L213:
 5463              		.loc 3 238 12 view .LVU1673
 5464              	.LBE567:
 5465              	.LBE566:
 414:lvgl/lvgl/src/extra/themes/default/lv_theme_default.c ****     lv_style_set_bg_color(&styles->switch_knob, lv_color_white());
 5466              		.loc 1 414 50 view .LVU1674
 5467 0c4a A4B2     		uxth	r4, r4
 414:lvgl/lvgl/src/extra/themes/default/lv_theme_default.c ****     lv_style_set_bg_color(&styles->switch_knob, lv_color_white());
 5468              		.loc 1 414 5 view .LVU1675
 5469 0c4c 6442     		rsbs	r4, r4, #0
 5470 0c4e 24B2     		sxth	r4, r4
 5471              	.LVL589:
 5472              	.LBB569:
 5473              	.LBI569:
 425:d:\practise\f407_disc\lvgl\lvgl\src\misc\lv_style.h ****     lv_style_set_pad_left(style, value);
 5474              		.loc 4 425 20 is_stmt 1 view .LVU1676
 5475              	.LBB570:
 426:d:\practise\f407_disc\lvgl\lvgl\src\misc\lv_style.h ****     lv_style_set_pad_right(style, value);
 5476              		.loc 4 426 5 view .LVU1677
 5477 0c50 2146     		mov	r1, r4
 5478 0c52 2846     		mov	r0, r5
 5479 0c54 FFF7FEFF 		bl	lv_style_set_pad_left
 5480              	.LVL590:
 427:d:\practise\f407_disc\lvgl\lvgl\src\misc\lv_style.h ****     lv_style_set_pad_top(style, value);
 5481              		.loc 4 427 5 view .LVU1678
 5482 0c58 2146     		mov	r1, r4
 5483 0c5a 2846     		mov	r0, r5
 5484 0c5c FFF7FEFF 		bl	lv_style_set_pad_right
 5485              	.LVL591:
 428:d:\practise\f407_disc\lvgl\lvgl\src\misc\lv_style.h ****     lv_style_set_pad_bottom(style, value);
 5486              		.loc 4 428 5 view .LVU1679
 5487 0c60 2146     		mov	r1, r4
 5488 0c62 2846     		mov	r0, r5
 5489 0c64 FFF7FEFF 		bl	lv_style_set_pad_top
 5490              	.LVL592:
 429:d:\practise\f407_disc\lvgl\lvgl\src\misc\lv_style.h **** }
 5491              		.loc 4 429 5 view .LVU1680
 5492 0c68 2146     		mov	r1, r4
 5493 0c6a 2846     		mov	r0, r5
 5494 0c6c FFF7FEFF 		bl	lv_style_set_pad_bottom
 5495              	.LVL593:
 429:d:\practise\f407_disc\lvgl\lvgl\src\misc\lv_style.h **** }
 5496              		.loc 4 429 5 is_stmt 0 view .LVU1681
 5497              	.LBE570:
 5498              	.LBE569:
 415:lvgl/lvgl/src/extra/themes/default/lv_theme_default.c **** #endif
 5499              		.loc 1 415 5 is_stmt 1 view .LVU1682
 415:lvgl/lvgl/src/extra/themes/default/lv_theme_default.c **** #endif
 5500              		.loc 1 415 34 is_stmt 0 view .LVU1683
 5501 0c70 3A4C     		ldr	r4, .L579
 5502 0c72 2068     		ldr	r0, [r4]
 5503              	.LBB571:
 5504              	.LBI571:
 5505              		.loc 2 687 26 is_stmt 1 view .LVU1684
 5506              	.LBE571:
 5507              		.loc 2 687 49 view .LVU1685
 5508              	.LVL594:
ARM GAS  C:\Users\gx\AppData\Local\Temp\ccQfGIQ4.s 			page 165


 5509              	.LBB574:
 5510              	.LBB572:
 5511              	.LBI572:
 615:d:\practise\f407_disc\lvgl\lvgl\src\misc\lv_color.h **** {
 5512              		.loc 2 615 26 view .LVU1686
 5513              	.LBB573:
 617:d:\practise\f407_disc\lvgl\lvgl\src\misc\lv_color.h **** }
 5514              		.loc 2 617 5 view .LVU1687
 617:d:\practise\f407_disc\lvgl\lvgl\src\misc\lv_color.h **** }
 5515              		.loc 2 617 5 is_stmt 0 view .LVU1688
 5516              	.LBE573:
 5517              	.LBE572:
 5518              	.LBE574:
 415:lvgl/lvgl/src/extra/themes/default/lv_theme_default.c **** #endif
 5519              		.loc 1 415 5 view .LVU1689
 5520 0c74 4FF0FF31 		mov	r1, #-1	@ movhi
 5521 0c78 00F5A070 		add	r0, r0, #320
 5522 0c7c FFF7FEFF 		bl	lv_style_set_bg_color
 5523              	.LVL595:
 419:lvgl/lvgl/src/extra/themes/default/lv_theme_default.c ****     lv_style_set_line_width(&styles->line, 1);
 5524              		.loc 1 419 5 is_stmt 1 view .LVU1690
 419:lvgl/lvgl/src/extra/themes/default/lv_theme_default.c ****     lv_style_set_line_width(&styles->line, 1);
 5525              		.loc 1 419 29 is_stmt 0 view .LVU1691
 5526 0c80 2068     		ldr	r0, [r4]
 419:lvgl/lvgl/src/extra/themes/default/lv_theme_default.c ****     lv_style_set_line_width(&styles->line, 1);
 5527              		.loc 1 419 5 view .LVU1692
 5528 0c82 00F5A470 		add	r0, r0, #328
 5529 0c86 FFF7FEFF 		bl	style_init_reset
 5530              	.LVL596:
 420:lvgl/lvgl/src/extra/themes/default/lv_theme_default.c ****     lv_style_set_line_color(&styles->line, color_text);
 5531              		.loc 1 420 5 is_stmt 1 view .LVU1693
 420:lvgl/lvgl/src/extra/themes/default/lv_theme_default.c ****     lv_style_set_line_color(&styles->line, color_text);
 5532              		.loc 1 420 36 is_stmt 0 view .LVU1694
 5533 0c8a 2068     		ldr	r0, [r4]
 420:lvgl/lvgl/src/extra/themes/default/lv_theme_default.c ****     lv_style_set_line_color(&styles->line, color_text);
 5534              		.loc 1 420 5 view .LVU1695
 5535 0c8c 0121     		movs	r1, #1
 5536 0c8e 00F5A470 		add	r0, r0, #328
 5537 0c92 FFF7FEFF 		bl	lv_style_set_line_width
 5538              	.LVL597:
 421:lvgl/lvgl/src/extra/themes/default/lv_theme_default.c **** #endif
 5539              		.loc 1 421 5 is_stmt 1 view .LVU1696
 421:lvgl/lvgl/src/extra/themes/default/lv_theme_default.c **** #endif
 5540              		.loc 1 421 36 is_stmt 0 view .LVU1697
 5541 0c96 2068     		ldr	r0, [r4]
 421:lvgl/lvgl/src/extra/themes/default/lv_theme_default.c **** #endif
 5542              		.loc 1 421 5 view .LVU1698
 5543 0c98 364B     		ldr	r3, .L579+24
 5544 0c9a 1988     		ldrh	r1, [r3]
 5545 0c9c 00F5A470 		add	r0, r0, #328
 5546 0ca0 FFF7FEFF 		bl	lv_style_set_line_color
 5547              	.LVL598:
 425:lvgl/lvgl/src/extra/themes/default/lv_theme_default.c ****     lv_style_set_border_post(&styles->chart_bg, false);
 5548              		.loc 1 425 5 is_stmt 1 view .LVU1699
 425:lvgl/lvgl/src/extra/themes/default/lv_theme_default.c ****     lv_style_set_border_post(&styles->chart_bg, false);
 5549              		.loc 1 425 29 is_stmt 0 view .LVU1700
 5550 0ca4 2068     		ldr	r0, [r4]
ARM GAS  C:\Users\gx\AppData\Local\Temp\ccQfGIQ4.s 			page 166


 425:lvgl/lvgl/src/extra/themes/default/lv_theme_default.c ****     lv_style_set_border_post(&styles->chart_bg, false);
 5551              		.loc 1 425 5 view .LVU1701
 5552 0ca6 00F59070 		add	r0, r0, #288
 5553 0caa FFF7FEFF 		bl	style_init_reset
 5554              	.LVL599:
 426:lvgl/lvgl/src/extra/themes/default/lv_theme_default.c ****     lv_style_set_pad_column(&styles->chart_bg, lv_disp_dpx(theme.disp, 10));
 5555              		.loc 1 426 5 is_stmt 1 view .LVU1702
 426:lvgl/lvgl/src/extra/themes/default/lv_theme_default.c ****     lv_style_set_pad_column(&styles->chart_bg, lv_disp_dpx(theme.disp, 10));
 5556              		.loc 1 426 37 is_stmt 0 view .LVU1703
 5557 0cae 2068     		ldr	r0, [r4]
 426:lvgl/lvgl/src/extra/themes/default/lv_theme_default.c ****     lv_style_set_pad_column(&styles->chart_bg, lv_disp_dpx(theme.disp, 10));
 5558              		.loc 1 426 5 view .LVU1704
 5559 0cb0 0021     		movs	r1, #0
 5560 0cb2 00F59070 		add	r0, r0, #288
 5561 0cb6 FFF7FEFF 		bl	lv_style_set_border_post
 5562              	.LVL600:
 427:lvgl/lvgl/src/extra/themes/default/lv_theme_default.c ****     lv_style_set_line_color(&styles->chart_bg, color_grey);
 5563              		.loc 1 427 5 is_stmt 1 view .LVU1705
 427:lvgl/lvgl/src/extra/themes/default/lv_theme_default.c ****     lv_style_set_line_color(&styles->chart_bg, color_grey);
 5564              		.loc 1 427 36 is_stmt 0 view .LVU1706
 5565 0cba 2468     		ldr	r4, [r4]
 427:lvgl/lvgl/src/extra/themes/default/lv_theme_default.c ****     lv_style_set_line_color(&styles->chart_bg, color_grey);
 5566              		.loc 1 427 5 view .LVU1707
 5567 0cbc 04F59074 		add	r4, r4, #288
 427:lvgl/lvgl/src/extra/themes/default/lv_theme_default.c ****     lv_style_set_line_color(&styles->chart_bg, color_grey);
 5568              		.loc 1 427 65 view .LVU1708
 5569 0cc0 274B     		ldr	r3, .L579+4
 5570 0cc2 DD68     		ldr	r5, [r3, #12]
 5571              	.LVL601:
 5572              	.LBB575:
 5573              	.LBI575:
 236:d:\practise\f407_disc\lvgl\lvgl\src/core\lv_disp.h **** {
 5574              		.loc 3 236 26 is_stmt 1 view .LVU1709
 5575              	.LBB576:
 5576              		.loc 3 238 5 view .LVU1710
 5577              		.loc 3 238 12 is_stmt 0 view .LVU1711
 5578 0cc4 2846     		mov	r0, r5
 5579 0cc6 FFF7FEFF 		bl	lv_disp_get_dpi
 5580              	.LVL602:
 5581 0cca 00EB8000 		add	r0, r0, r0, lsl #2
 5582 0cce 4000     		lsls	r0, r0, #1
 5583 0cd0 EF28     		cmp	r0, #239
 5584 0cd2 01F38082 		bgt	.L475
 5585 0cd6 0121     		movs	r1, #1
 5586              	.L214:
 5587              	.LVL603:
 5588              		.loc 3 238 12 view .LVU1712
 5589              	.LBE576:
 5590              	.LBE575:
 427:lvgl/lvgl/src/extra/themes/default/lv_theme_default.c ****     lv_style_set_line_color(&styles->chart_bg, color_grey);
 5591              		.loc 1 427 5 view .LVU1713
 5592 0cd8 2046     		mov	r0, r4
 5593 0cda FFF7FEFF 		bl	lv_style_set_pad_column
 5594              	.LVL604:
 428:lvgl/lvgl/src/extra/themes/default/lv_theme_default.c **** 
 5595              		.loc 1 428 5 is_stmt 1 view .LVU1714
 428:lvgl/lvgl/src/extra/themes/default/lv_theme_default.c **** 
ARM GAS  C:\Users\gx\AppData\Local\Temp\ccQfGIQ4.s 			page 167


 5596              		.loc 1 428 36 is_stmt 0 view .LVU1715
 5597 0cde 1F4C     		ldr	r4, .L579
 5598 0ce0 2068     		ldr	r0, [r4]
 428:lvgl/lvgl/src/extra/themes/default/lv_theme_default.c **** 
 5599              		.loc 1 428 5 view .LVU1716
 5600 0ce2 204B     		ldr	r3, .L579+8
 5601 0ce4 1988     		ldrh	r1, [r3]
 5602 0ce6 00F59070 		add	r0, r0, #288
 5603 0cea FFF7FEFF 		bl	lv_style_set_line_color
 5604              	.LVL605:
 430:lvgl/lvgl/src/extra/themes/default/lv_theme_default.c ****     lv_style_set_line_width(&styles->chart_series, lv_disp_dpx(theme.disp, 3));
 5605              		.loc 1 430 5 is_stmt 1 view .LVU1717
 430:lvgl/lvgl/src/extra/themes/default/lv_theme_default.c ****     lv_style_set_line_width(&styles->chart_series, lv_disp_dpx(theme.disp, 3));
 5606              		.loc 1 430 29 is_stmt 0 view .LVU1718
 5607 0cee 2068     		ldr	r0, [r4]
 430:lvgl/lvgl/src/extra/themes/default/lv_theme_default.c ****     lv_style_set_line_width(&styles->chart_series, lv_disp_dpx(theme.disp, 3));
 5608              		.loc 1 430 5 view .LVU1719
 5609 0cf0 00F58470 		add	r0, r0, #264
 5610 0cf4 FFF7FEFF 		bl	style_init_reset
 5611              	.LVL606:
 431:lvgl/lvgl/src/extra/themes/default/lv_theme_default.c ****     lv_style_set_radius(&styles->chart_series, lv_disp_dpx(theme.disp, 3));
 5612              		.loc 1 431 5 is_stmt 1 view .LVU1720
 431:lvgl/lvgl/src/extra/themes/default/lv_theme_default.c ****     lv_style_set_radius(&styles->chart_series, lv_disp_dpx(theme.disp, 3));
 5613              		.loc 1 431 36 is_stmt 0 view .LVU1721
 5614 0cf8 2468     		ldr	r4, [r4]
 431:lvgl/lvgl/src/extra/themes/default/lv_theme_default.c ****     lv_style_set_radius(&styles->chart_series, lv_disp_dpx(theme.disp, 3));
 5615              		.loc 1 431 5 view .LVU1722
 5616 0cfa 04F58474 		add	r4, r4, #264
 431:lvgl/lvgl/src/extra/themes/default/lv_theme_default.c ****     lv_style_set_radius(&styles->chart_series, lv_disp_dpx(theme.disp, 3));
 5617              		.loc 1 431 69 view .LVU1723
 5618 0cfe 184B     		ldr	r3, .L579+4
 5619 0d00 DD68     		ldr	r5, [r3, #12]
 5620              	.LVL607:
 5621              	.LBB578:
 5622              	.LBI578:
 236:d:\practise\f407_disc\lvgl\lvgl\src/core\lv_disp.h **** {
 5623              		.loc 3 236 26 is_stmt 1 view .LVU1724
 5624              	.LBB579:
 5625              		.loc 3 238 5 view .LVU1725
 5626              		.loc 3 238 12 is_stmt 0 view .LVU1726
 5627 0d02 2846     		mov	r0, r5
 5628 0d04 FFF7FEFF 		bl	lv_disp_get_dpi
 5629              	.LVL608:
 5630 0d08 00EB4000 		add	r0, r0, r0, lsl #1
 5631 0d0c EF28     		cmp	r0, #239
 5632 0d0e 01F37782 		bgt	.L476
 5633 0d12 0121     		movs	r1, #1
 5634              	.L215:
 5635              	.LVL609:
 5636              		.loc 3 238 12 view .LVU1727
 5637              	.LBE579:
 5638              	.LBE578:
 431:lvgl/lvgl/src/extra/themes/default/lv_theme_default.c ****     lv_style_set_radius(&styles->chart_series, lv_disp_dpx(theme.disp, 3));
 5639              		.loc 1 431 5 view .LVU1728
 5640 0d14 2046     		mov	r0, r4
 5641 0d16 FFF7FEFF 		bl	lv_style_set_line_width
 5642              	.LVL610:
ARM GAS  C:\Users\gx\AppData\Local\Temp\ccQfGIQ4.s 			page 168


 432:lvgl/lvgl/src/extra/themes/default/lv_theme_default.c ****     lv_style_set_size(&styles->chart_series, lv_disp_dpx(theme.disp, 8));
 5643              		.loc 1 432 5 is_stmt 1 view .LVU1729
 432:lvgl/lvgl/src/extra/themes/default/lv_theme_default.c ****     lv_style_set_size(&styles->chart_series, lv_disp_dpx(theme.disp, 8));
 5644              		.loc 1 432 32 is_stmt 0 view .LVU1730
 5645 0d1a 104B     		ldr	r3, .L579
 5646 0d1c 1C68     		ldr	r4, [r3]
 432:lvgl/lvgl/src/extra/themes/default/lv_theme_default.c ****     lv_style_set_size(&styles->chart_series, lv_disp_dpx(theme.disp, 8));
 5647              		.loc 1 432 5 view .LVU1731
 5648 0d1e 04F58474 		add	r4, r4, #264
 432:lvgl/lvgl/src/extra/themes/default/lv_theme_default.c ****     lv_style_set_size(&styles->chart_series, lv_disp_dpx(theme.disp, 8));
 5649              		.loc 1 432 65 view .LVU1732
 5650 0d22 0F4B     		ldr	r3, .L579+4
 5651 0d24 DD68     		ldr	r5, [r3, #12]
 5652              	.LVL611:
 5653              	.LBB581:
 5654              	.LBI581:
 236:d:\practise\f407_disc\lvgl\lvgl\src/core\lv_disp.h **** {
 5655              		.loc 3 236 26 is_stmt 1 view .LVU1733
 5656              	.LBB582:
 5657              		.loc 3 238 5 view .LVU1734
 5658              		.loc 3 238 12 is_stmt 0 view .LVU1735
 5659 0d26 2846     		mov	r0, r5
 5660 0d28 FFF7FEFF 		bl	lv_disp_get_dpi
 5661              	.LVL612:
 5662 0d2c 00EB4000 		add	r0, r0, r0, lsl #1
 5663 0d30 EF28     		cmp	r0, #239
 5664 0d32 01F37482 		bgt	.L477
 5665 0d36 0121     		movs	r1, #1
 5666              	.L216:
 5667              	.LVL613:
 5668              		.loc 3 238 12 view .LVU1736
 5669              	.LBE582:
 5670              	.LBE581:
 432:lvgl/lvgl/src/extra/themes/default/lv_theme_default.c ****     lv_style_set_size(&styles->chart_series, lv_disp_dpx(theme.disp, 8));
 5671              		.loc 1 432 5 view .LVU1737
 5672 0d38 2046     		mov	r0, r4
 5673 0d3a FFF7FEFF 		bl	lv_style_set_radius
 5674              	.LVL614:
 433:lvgl/lvgl/src/extra/themes/default/lv_theme_default.c ****     lv_style_set_pad_column(&styles->chart_series, lv_disp_dpx(theme.disp, 2));
 5675              		.loc 1 433 5 is_stmt 1 view .LVU1738
 433:lvgl/lvgl/src/extra/themes/default/lv_theme_default.c ****     lv_style_set_pad_column(&styles->chart_series, lv_disp_dpx(theme.disp, 2));
 5676              		.loc 1 433 30 is_stmt 0 view .LVU1739
 5677 0d3e 074B     		ldr	r3, .L579
 5678 0d40 1D68     		ldr	r5, [r3]
 433:lvgl/lvgl/src/extra/themes/default/lv_theme_default.c ****     lv_style_set_pad_column(&styles->chart_series, lv_disp_dpx(theme.disp, 2));
 5679              		.loc 1 433 5 view .LVU1740
 5680 0d42 05F58475 		add	r5, r5, #264
 433:lvgl/lvgl/src/extra/themes/default/lv_theme_default.c ****     lv_style_set_pad_column(&styles->chart_series, lv_disp_dpx(theme.disp, 2));
 5681              		.loc 1 433 63 view .LVU1741
 5682 0d46 064B     		ldr	r3, .L579+4
 5683 0d48 DC68     		ldr	r4, [r3, #12]
 5684              	.LVL615:
 5685              	.LBB584:
 5686              	.LBI584:
 236:d:\practise\f407_disc\lvgl\lvgl\src/core\lv_disp.h **** {
 5687              		.loc 3 236 26 is_stmt 1 view .LVU1742
 5688              	.LBB585:
ARM GAS  C:\Users\gx\AppData\Local\Temp\ccQfGIQ4.s 			page 169


 5689              		.loc 3 238 5 view .LVU1743
 5690              		.loc 3 238 12 is_stmt 0 view .LVU1744
 5691 0d4a 2046     		mov	r0, r4
 5692 0d4c FFF7FEFF 		bl	lv_disp_get_dpi
 5693              	.LVL616:
 5694 0d50 C000     		lsls	r0, r0, #3
 5695 0d52 EF28     		cmp	r0, #239
 5696 0d54 01F37282 		bgt	.L478
 5697 0d58 0124     		movs	r4, #1
 5698 0d5a 0DE0     		b	.L580
 5699              	.L581:
 5700              		.align	2
 5701              	.L579:
 5702 0d5c 00000000 		.word	.LANCHOR0
 5703 0d60 00000000 		.word	.LANCHOR2
 5704 0d64 00000000 		.word	.LANCHOR7
 5705 0d68 00000000 		.word	.LANCHOR6
 5706 0d6c 00000000 		.word	.LANCHOR1
 5707 0d70 00000000 		.word	.LC0
 5708 0d74 00000000 		.word	.LANCHOR5
 5709              	.L580:
 5710              	.LVL617:
 5711              	.L217:
 5712              		.loc 3 238 12 view .LVU1745
 5713              	.LBE585:
 5714              	.LBE584:
 5715              	.LBB587:
 5716              	.LBI587:
 447:d:\practise\f407_disc\lvgl\lvgl\src\misc\lv_style.h ****     lv_style_set_width(style, value);
 5717              		.loc 4 447 20 is_stmt 1 view .LVU1746
 5718              	.LBB588:
 448:d:\practise\f407_disc\lvgl\lvgl\src\misc\lv_style.h ****     lv_style_set_height(style, value);
 5719              		.loc 4 448 5 view .LVU1747
 5720 0d78 2146     		mov	r1, r4
 5721 0d7a 2846     		mov	r0, r5
 5722 0d7c FFF7FEFF 		bl	lv_style_set_width
 5723              	.LVL618:
 5724              		.loc 4 449 5 view .LVU1748
 5725 0d80 2146     		mov	r1, r4
 5726 0d82 2846     		mov	r0, r5
 5727 0d84 FFF7FEFF 		bl	lv_style_set_height
 5728              	.LVL619:
 5729              		.loc 4 449 5 is_stmt 0 view .LVU1749
 5730              	.LBE588:
 5731              	.LBE587:
 434:lvgl/lvgl/src/extra/themes/default/lv_theme_default.c **** 
 5732              		.loc 1 434 5 is_stmt 1 view .LVU1750
 434:lvgl/lvgl/src/extra/themes/default/lv_theme_default.c **** 
 5733              		.loc 1 434 36 is_stmt 0 view .LVU1751
 5734 0d88 D04B     		ldr	r3, .L582
 5735 0d8a 1C68     		ldr	r4, [r3]
 434:lvgl/lvgl/src/extra/themes/default/lv_theme_default.c **** 
 5736              		.loc 1 434 5 view .LVU1752
 5737 0d8c 04F58474 		add	r4, r4, #264
 434:lvgl/lvgl/src/extra/themes/default/lv_theme_default.c **** 
 5738              		.loc 1 434 69 view .LVU1753
 5739 0d90 CF4B     		ldr	r3, .L582+4
ARM GAS  C:\Users\gx\AppData\Local\Temp\ccQfGIQ4.s 			page 170


 5740 0d92 DD68     		ldr	r5, [r3, #12]
 5741              	.LVL620:
 5742              	.LBB589:
 5743              	.LBI589:
 236:d:\practise\f407_disc\lvgl\lvgl\src/core\lv_disp.h **** {
 5744              		.loc 3 236 26 is_stmt 1 view .LVU1754
 5745              	.LBB590:
 5746              		.loc 3 238 5 view .LVU1755
 5747              		.loc 3 238 12 is_stmt 0 view .LVU1756
 5748 0d94 2846     		mov	r0, r5
 5749 0d96 FFF7FEFF 		bl	lv_disp_get_dpi
 5750              	.LVL621:
 5751 0d9a 4000     		lsls	r0, r0, #1
 5752 0d9c EF28     		cmp	r0, #239
 5753 0d9e 01F35B82 		bgt	.L479
 5754 0da2 0121     		movs	r1, #1
 5755              	.L218:
 5756              	.LVL622:
 5757              		.loc 3 238 12 view .LVU1757
 5758              	.LBE590:
 5759              	.LBE589:
 434:lvgl/lvgl/src/extra/themes/default/lv_theme_default.c **** 
 5760              		.loc 1 434 5 view .LVU1758
 5761 0da4 2046     		mov	r0, r4
 5762 0da6 FFF7FEFF 		bl	lv_style_set_pad_column
 5763              	.LVL623:
 436:lvgl/lvgl/src/extra/themes/default/lv_theme_default.c ****     lv_style_set_radius(&styles->chart_indic,LV_RADIUS_CIRCLE);
 5764              		.loc 1 436 5 is_stmt 1 view .LVU1759
 436:lvgl/lvgl/src/extra/themes/default/lv_theme_default.c ****     lv_style_set_radius(&styles->chart_indic,LV_RADIUS_CIRCLE);
 5765              		.loc 1 436 29 is_stmt 0 view .LVU1760
 5766 0daa C84C     		ldr	r4, .L582
 5767 0dac 2068     		ldr	r0, [r4]
 436:lvgl/lvgl/src/extra/themes/default/lv_theme_default.c ****     lv_style_set_radius(&styles->chart_indic,LV_RADIUS_CIRCLE);
 5768              		.loc 1 436 5 view .LVU1761
 5769 0dae 00F58870 		add	r0, r0, #272
 5770 0db2 FFF7FEFF 		bl	style_init_reset
 5771              	.LVL624:
 437:lvgl/lvgl/src/extra/themes/default/lv_theme_default.c ****     lv_style_set_size(&styles->chart_indic, lv_disp_dpx(theme.disp, 8));
 5772              		.loc 1 437 5 is_stmt 1 view .LVU1762
 437:lvgl/lvgl/src/extra/themes/default/lv_theme_default.c ****     lv_style_set_size(&styles->chart_indic, lv_disp_dpx(theme.disp, 8));
 5773              		.loc 1 437 32 is_stmt 0 view .LVU1763
 5774 0db6 2068     		ldr	r0, [r4]
 437:lvgl/lvgl/src/extra/themes/default/lv_theme_default.c ****     lv_style_set_size(&styles->chart_indic, lv_disp_dpx(theme.disp, 8));
 5775              		.loc 1 437 5 view .LVU1764
 5776 0db8 47F6FF71 		movw	r1, #32767
 5777 0dbc 00F58870 		add	r0, r0, #272
 5778 0dc0 FFF7FEFF 		bl	lv_style_set_radius
 5779              	.LVL625:
 438:lvgl/lvgl/src/extra/themes/default/lv_theme_default.c ****     lv_style_set_bg_color(&styles->chart_indic, theme.color_primary);
 5780              		.loc 1 438 5 is_stmt 1 view .LVU1765
 438:lvgl/lvgl/src/extra/themes/default/lv_theme_default.c ****     lv_style_set_bg_color(&styles->chart_indic, theme.color_primary);
 5781              		.loc 1 438 30 is_stmt 0 view .LVU1766
 5782 0dc4 2568     		ldr	r5, [r4]
 438:lvgl/lvgl/src/extra/themes/default/lv_theme_default.c ****     lv_style_set_bg_color(&styles->chart_indic, theme.color_primary);
 5783              		.loc 1 438 5 view .LVU1767
 5784 0dc6 05F58875 		add	r5, r5, #272
 438:lvgl/lvgl/src/extra/themes/default/lv_theme_default.c ****     lv_style_set_bg_color(&styles->chart_indic, theme.color_primary);
ARM GAS  C:\Users\gx\AppData\Local\Temp\ccQfGIQ4.s 			page 171


 5785              		.loc 1 438 62 view .LVU1768
 5786 0dca C14B     		ldr	r3, .L582+4
 5787 0dcc DC68     		ldr	r4, [r3, #12]
 5788              	.LVL626:
 5789              	.LBB592:
 5790              	.LBI592:
 236:d:\practise\f407_disc\lvgl\lvgl\src/core\lv_disp.h **** {
 5791              		.loc 3 236 26 is_stmt 1 view .LVU1769
 5792              	.LBB593:
 5793              		.loc 3 238 5 view .LVU1770
 5794              		.loc 3 238 12 is_stmt 0 view .LVU1771
 5795 0dce 2046     		mov	r0, r4
 5796 0dd0 FFF7FEFF 		bl	lv_disp_get_dpi
 5797              	.LVL627:
 5798 0dd4 C000     		lsls	r0, r0, #3
 5799 0dd6 EF28     		cmp	r0, #239
 5800 0dd8 01F34C82 		bgt	.L480
 5801 0ddc 0124     		movs	r4, #1
 5802              	.LVL628:
 5803              	.L219:
 5804              		.loc 3 238 12 view .LVU1772
 5805              	.LBE593:
 5806              	.LBE592:
 5807              	.LBB595:
 5808              	.LBI595:
 447:d:\practise\f407_disc\lvgl\lvgl\src\misc\lv_style.h ****     lv_style_set_width(style, value);
 5809              		.loc 4 447 20 is_stmt 1 view .LVU1773
 5810              	.LBB596:
 448:d:\practise\f407_disc\lvgl\lvgl\src\misc\lv_style.h ****     lv_style_set_height(style, value);
 5811              		.loc 4 448 5 view .LVU1774
 5812 0dde 2146     		mov	r1, r4
 5813 0de0 2846     		mov	r0, r5
 5814 0de2 FFF7FEFF 		bl	lv_style_set_width
 5815              	.LVL629:
 5816              		.loc 4 449 5 view .LVU1775
 5817 0de6 2146     		mov	r1, r4
 5818 0de8 2846     		mov	r0, r5
 5819 0dea FFF7FEFF 		bl	lv_style_set_height
 5820              	.LVL630:
 5821              		.loc 4 449 5 is_stmt 0 view .LVU1776
 5822              	.LBE596:
 5823              	.LBE595:
 439:lvgl/lvgl/src/extra/themes/default/lv_theme_default.c ****     lv_style_set_bg_opa(&styles->chart_indic, LV_OPA_COVER);
 5824              		.loc 1 439 5 is_stmt 1 view .LVU1777
 439:lvgl/lvgl/src/extra/themes/default/lv_theme_default.c ****     lv_style_set_bg_opa(&styles->chart_indic, LV_OPA_COVER);
 5825              		.loc 1 439 34 is_stmt 0 view .LVU1778
 5826 0dee B74C     		ldr	r4, .L582
 5827 0df0 2068     		ldr	r0, [r4]
 439:lvgl/lvgl/src/extra/themes/default/lv_theme_default.c ****     lv_style_set_bg_opa(&styles->chart_indic, LV_OPA_COVER);
 5828              		.loc 1 439 5 view .LVU1779
 5829 0df2 B74D     		ldr	r5, .L582+4
 5830 0df4 298A     		ldrh	r1, [r5, #16]
 5831 0df6 00F58870 		add	r0, r0, #272
 5832 0dfa FFF7FEFF 		bl	lv_style_set_bg_color
 5833              	.LVL631:
 440:lvgl/lvgl/src/extra/themes/default/lv_theme_default.c **** 
 5834              		.loc 1 440 5 is_stmt 1 view .LVU1780
ARM GAS  C:\Users\gx\AppData\Local\Temp\ccQfGIQ4.s 			page 172


 440:lvgl/lvgl/src/extra/themes/default/lv_theme_default.c **** 
 5835              		.loc 1 440 32 is_stmt 0 view .LVU1781
 5836 0dfe 2068     		ldr	r0, [r4]
 440:lvgl/lvgl/src/extra/themes/default/lv_theme_default.c **** 
 5837              		.loc 1 440 5 view .LVU1782
 5838 0e00 FF21     		movs	r1, #255
 5839 0e02 00F58870 		add	r0, r0, #272
 5840 0e06 FFF7FEFF 		bl	lv_style_set_bg_opa
 5841              	.LVL632:
 442:lvgl/lvgl/src/extra/themes/default/lv_theme_default.c ****     lv_style_set_line_width(&styles->chart_ticks, lv_disp_dpx(theme.disp, 1));
 5842              		.loc 1 442 5 is_stmt 1 view .LVU1783
 442:lvgl/lvgl/src/extra/themes/default/lv_theme_default.c ****     lv_style_set_line_width(&styles->chart_ticks, lv_disp_dpx(theme.disp, 1));
 5843              		.loc 1 442 29 is_stmt 0 view .LVU1784
 5844 0e0a 2068     		ldr	r0, [r4]
 442:lvgl/lvgl/src/extra/themes/default/lv_theme_default.c ****     lv_style_set_line_width(&styles->chart_ticks, lv_disp_dpx(theme.disp, 1));
 5845              		.loc 1 442 5 view .LVU1785
 5846 0e0c 00F58C70 		add	r0, r0, #280
 5847 0e10 FFF7FEFF 		bl	style_init_reset
 5848              	.LVL633:
 443:lvgl/lvgl/src/extra/themes/default/lv_theme_default.c ****     lv_style_set_line_color(&styles->chart_ticks, color_text);
 5849              		.loc 1 443 5 is_stmt 1 view .LVU1786
 443:lvgl/lvgl/src/extra/themes/default/lv_theme_default.c ****     lv_style_set_line_color(&styles->chart_ticks, color_text);
 5850              		.loc 1 443 36 is_stmt 0 view .LVU1787
 5851 0e14 2468     		ldr	r4, [r4]
 443:lvgl/lvgl/src/extra/themes/default/lv_theme_default.c ****     lv_style_set_line_color(&styles->chart_ticks, color_text);
 5852              		.loc 1 443 5 view .LVU1788
 5853 0e16 04F58C74 		add	r4, r4, #280
 443:lvgl/lvgl/src/extra/themes/default/lv_theme_default.c ****     lv_style_set_line_color(&styles->chart_ticks, color_text);
 5854              		.loc 1 443 68 view .LVU1789
 5855 0e1a ED68     		ldr	r5, [r5, #12]
 5856              	.LVL634:
 5857              	.LBB597:
 5858              	.LBI597:
 236:d:\practise\f407_disc\lvgl\lvgl\src/core\lv_disp.h **** {
 5859              		.loc 3 236 26 is_stmt 1 view .LVU1790
 5860              	.LBB598:
 5861              		.loc 3 238 5 view .LVU1791
 5862              		.loc 3 238 12 is_stmt 0 view .LVU1792
 5863 0e1c 2846     		mov	r0, r5
 5864 0e1e FFF7FEFF 		bl	lv_disp_get_dpi
 5865              	.LVL635:
 5866 0e22 EF28     		cmp	r0, #239
 5867 0e24 01F33482 		bgt	.L481
 5868 0e28 0121     		movs	r1, #1
 5869              	.L220:
 5870              	.LVL636:
 5871              		.loc 3 238 12 view .LVU1793
 5872              	.LBE598:
 5873              	.LBE597:
 443:lvgl/lvgl/src/extra/themes/default/lv_theme_default.c ****     lv_style_set_line_color(&styles->chart_ticks, color_text);
 5874              		.loc 1 443 5 view .LVU1794
 5875 0e2a 2046     		mov	r0, r4
 5876 0e2c FFF7FEFF 		bl	lv_style_set_line_width
 5877              	.LVL637:
 444:lvgl/lvgl/src/extra/themes/default/lv_theme_default.c ****     lv_style_set_pad_all(&styles->chart_ticks, lv_disp_dpx(theme.disp, 2));
 5878              		.loc 1 444 5 is_stmt 1 view .LVU1795
 444:lvgl/lvgl/src/extra/themes/default/lv_theme_default.c ****     lv_style_set_pad_all(&styles->chart_ticks, lv_disp_dpx(theme.disp, 2));
ARM GAS  C:\Users\gx\AppData\Local\Temp\ccQfGIQ4.s 			page 173


 5879              		.loc 1 444 36 is_stmt 0 view .LVU1796
 5880 0e30 A64C     		ldr	r4, .L582
 5881 0e32 2068     		ldr	r0, [r4]
 444:lvgl/lvgl/src/extra/themes/default/lv_theme_default.c ****     lv_style_set_pad_all(&styles->chart_ticks, lv_disp_dpx(theme.disp, 2));
 5882              		.loc 1 444 5 view .LVU1797
 5883 0e34 A74B     		ldr	r3, .L582+8
 5884 0e36 1988     		ldrh	r1, [r3]
 5885 0e38 00F58C70 		add	r0, r0, #280
 5886 0e3c FFF7FEFF 		bl	lv_style_set_line_color
 5887              	.LVL638:
 445:lvgl/lvgl/src/extra/themes/default/lv_theme_default.c ****     lv_style_set_text_color(&styles->chart_ticks, lv_palette_main(LV_PALETTE_GREY));
 5888              		.loc 1 445 5 is_stmt 1 view .LVU1798
 445:lvgl/lvgl/src/extra/themes/default/lv_theme_default.c ****     lv_style_set_text_color(&styles->chart_ticks, lv_palette_main(LV_PALETTE_GREY));
 5889              		.loc 1 445 33 is_stmt 0 view .LVU1799
 5890 0e40 2568     		ldr	r5, [r4]
 445:lvgl/lvgl/src/extra/themes/default/lv_theme_default.c ****     lv_style_set_text_color(&styles->chart_ticks, lv_palette_main(LV_PALETTE_GREY));
 5891              		.loc 1 445 5 view .LVU1800
 5892 0e42 05F58C75 		add	r5, r5, #280
 445:lvgl/lvgl/src/extra/themes/default/lv_theme_default.c ****     lv_style_set_text_color(&styles->chart_ticks, lv_palette_main(LV_PALETTE_GREY));
 5893              		.loc 1 445 65 view .LVU1801
 5894 0e46 A24B     		ldr	r3, .L582+4
 5895 0e48 DC68     		ldr	r4, [r3, #12]
 5896              	.LVL639:
 5897              	.LBB600:
 5898              	.LBI600:
 236:d:\practise\f407_disc\lvgl\lvgl\src/core\lv_disp.h **** {
 5899              		.loc 3 236 26 is_stmt 1 view .LVU1802
 5900              	.LBB601:
 5901              		.loc 3 238 5 view .LVU1803
 5902              		.loc 3 238 12 is_stmt 0 view .LVU1804
 5903 0e4a 2046     		mov	r0, r4
 5904 0e4c FFF7FEFF 		bl	lv_disp_get_dpi
 5905              	.LVL640:
 5906 0e50 4000     		lsls	r0, r0, #1
 5907 0e52 EF28     		cmp	r0, #239
 5908 0e54 01F32982 		bgt	.L482
 5909 0e58 0124     		movs	r4, #1
 5910              	.LVL641:
 5911              	.L221:
 5912              		.loc 3 238 12 view .LVU1805
 5913              	.LBE601:
 5914              	.LBE600:
 5915              	.LBB603:
 5916              	.LBI603:
 425:d:\practise\f407_disc\lvgl\lvgl\src\misc\lv_style.h ****     lv_style_set_pad_left(style, value);
 5917              		.loc 4 425 20 is_stmt 1 view .LVU1806
 5918              	.LBB604:
 426:d:\practise\f407_disc\lvgl\lvgl\src\misc\lv_style.h ****     lv_style_set_pad_right(style, value);
 5919              		.loc 4 426 5 view .LVU1807
 5920 0e5a 2146     		mov	r1, r4
 5921 0e5c 2846     		mov	r0, r5
 5922 0e5e FFF7FEFF 		bl	lv_style_set_pad_left
 5923              	.LVL642:
 427:d:\practise\f407_disc\lvgl\lvgl\src\misc\lv_style.h ****     lv_style_set_pad_top(style, value);
 5924              		.loc 4 427 5 view .LVU1808
 5925 0e62 2146     		mov	r1, r4
 5926 0e64 2846     		mov	r0, r5
ARM GAS  C:\Users\gx\AppData\Local\Temp\ccQfGIQ4.s 			page 174


 5927 0e66 FFF7FEFF 		bl	lv_style_set_pad_right
 5928              	.LVL643:
 428:d:\practise\f407_disc\lvgl\lvgl\src\misc\lv_style.h ****     lv_style_set_pad_bottom(style, value);
 5929              		.loc 4 428 5 view .LVU1809
 5930 0e6a 2146     		mov	r1, r4
 5931 0e6c 2846     		mov	r0, r5
 5932 0e6e FFF7FEFF 		bl	lv_style_set_pad_top
 5933              	.LVL644:
 429:d:\practise\f407_disc\lvgl\lvgl\src\misc\lv_style.h **** }
 5934              		.loc 4 429 5 view .LVU1810
 5935 0e72 2146     		mov	r1, r4
 5936 0e74 2846     		mov	r0, r5
 5937 0e76 FFF7FEFF 		bl	lv_style_set_pad_bottom
 5938              	.LVL645:
 429:d:\practise\f407_disc\lvgl\lvgl\src\misc\lv_style.h **** }
 5939              		.loc 4 429 5 is_stmt 0 view .LVU1811
 5940              	.LBE604:
 5941              	.LBE603:
 446:lvgl/lvgl/src/extra/themes/default/lv_theme_default.c **** #endif
 5942              		.loc 1 446 5 is_stmt 1 view .LVU1812
 446:lvgl/lvgl/src/extra/themes/default/lv_theme_default.c **** #endif
 5943              		.loc 1 446 36 is_stmt 0 view .LVU1813
 5944 0e7a 944C     		ldr	r4, .L582
 5945 0e7c 2568     		ldr	r5, [r4]
 446:lvgl/lvgl/src/extra/themes/default/lv_theme_default.c **** #endif
 5946              		.loc 1 446 5 view .LVU1814
 5947 0e7e 1220     		movs	r0, #18
 5948 0e80 FFF7FEFF 		bl	lv_palette_main
 5949              	.LVL646:
 5950 0e84 0146     		mov	r1, r0	@ movhi
 5951 0e86 05F58C70 		add	r0, r5, #280
 5952 0e8a FFF7FEFF 		bl	lv_style_set_text_color
 5953              	.LVL647:
 450:lvgl/lvgl/src/extra/themes/default/lv_theme_default.c ****     lv_style_set_line_width(&styles->meter_marker, lv_disp_dpx(theme.disp, 5));
 5954              		.loc 1 450 5 is_stmt 1 view .LVU1815
 450:lvgl/lvgl/src/extra/themes/default/lv_theme_default.c ****     lv_style_set_line_width(&styles->meter_marker, lv_disp_dpx(theme.disp, 5));
 5955              		.loc 1 450 29 is_stmt 0 view .LVU1816
 5956 0e8e 2068     		ldr	r0, [r4]
 450:lvgl/lvgl/src/extra/themes/default/lv_theme_default.c ****     lv_style_set_line_width(&styles->meter_marker, lv_disp_dpx(theme.disp, 5));
 5957              		.loc 1 450 5 view .LVU1817
 5958 0e90 00F5AC70 		add	r0, r0, #344
 5959 0e94 FFF7FEFF 		bl	style_init_reset
 5960              	.LVL648:
 451:lvgl/lvgl/src/extra/themes/default/lv_theme_default.c ****     lv_style_set_line_color(&styles->meter_marker, color_text);
 5961              		.loc 1 451 5 is_stmt 1 view .LVU1818
 451:lvgl/lvgl/src/extra/themes/default/lv_theme_default.c ****     lv_style_set_line_color(&styles->meter_marker, color_text);
 5962              		.loc 1 451 36 is_stmt 0 view .LVU1819
 5963 0e98 2468     		ldr	r4, [r4]
 451:lvgl/lvgl/src/extra/themes/default/lv_theme_default.c ****     lv_style_set_line_color(&styles->meter_marker, color_text);
 5964              		.loc 1 451 5 view .LVU1820
 5965 0e9a 04F5AC74 		add	r4, r4, #344
 451:lvgl/lvgl/src/extra/themes/default/lv_theme_default.c ****     lv_style_set_line_color(&styles->meter_marker, color_text);
 5966              		.loc 1 451 69 view .LVU1821
 5967 0e9e 8C4B     		ldr	r3, .L582+4
 5968 0ea0 DD68     		ldr	r5, [r3, #12]
 5969              	.LVL649:
 5970              	.LBB605:
ARM GAS  C:\Users\gx\AppData\Local\Temp\ccQfGIQ4.s 			page 175


 5971              	.LBI605:
 236:d:\practise\f407_disc\lvgl\lvgl\src/core\lv_disp.h **** {
 5972              		.loc 3 236 26 is_stmt 1 view .LVU1822
 5973              	.LBB606:
 5974              		.loc 3 238 5 view .LVU1823
 5975              		.loc 3 238 12 is_stmt 0 view .LVU1824
 5976 0ea2 2846     		mov	r0, r5
 5977 0ea4 FFF7FEFF 		bl	lv_disp_get_dpi
 5978              	.LVL650:
 5979 0ea8 00EB8000 		add	r0, r0, r0, lsl #2
 5980 0eac EF28     		cmp	r0, #239
 5981 0eae 01F30A82 		bgt	.L483
 5982 0eb2 0121     		movs	r1, #1
 5983              	.L222:
 5984              	.LVL651:
 5985              		.loc 3 238 12 view .LVU1825
 5986              	.LBE606:
 5987              	.LBE605:
 451:lvgl/lvgl/src/extra/themes/default/lv_theme_default.c ****     lv_style_set_line_color(&styles->meter_marker, color_text);
 5988              		.loc 1 451 5 view .LVU1826
 5989 0eb4 2046     		mov	r0, r4
 5990 0eb6 FFF7FEFF 		bl	lv_style_set_line_width
 5991              	.LVL652:
 452:lvgl/lvgl/src/extra/themes/default/lv_theme_default.c ****     lv_style_set_size(&styles->meter_marker, lv_disp_dpx(theme.disp, 20));
 5992              		.loc 1 452 5 is_stmt 1 view .LVU1827
 452:lvgl/lvgl/src/extra/themes/default/lv_theme_default.c ****     lv_style_set_size(&styles->meter_marker, lv_disp_dpx(theme.disp, 20));
 5993              		.loc 1 452 36 is_stmt 0 view .LVU1828
 5994 0eba 844C     		ldr	r4, .L582
 5995 0ebc 2068     		ldr	r0, [r4]
 452:lvgl/lvgl/src/extra/themes/default/lv_theme_default.c ****     lv_style_set_size(&styles->meter_marker, lv_disp_dpx(theme.disp, 20));
 5996              		.loc 1 452 5 view .LVU1829
 5997 0ebe 854B     		ldr	r3, .L582+8
 5998 0ec0 1988     		ldrh	r1, [r3]
 5999 0ec2 00F5AC70 		add	r0, r0, #344
 6000 0ec6 FFF7FEFF 		bl	lv_style_set_line_color
 6001              	.LVL653:
 453:lvgl/lvgl/src/extra/themes/default/lv_theme_default.c ****     lv_style_set_pad_left(&styles->meter_marker, lv_disp_dpx(theme.disp, 15));
 6002              		.loc 1 453 5 is_stmt 1 view .LVU1830
 453:lvgl/lvgl/src/extra/themes/default/lv_theme_default.c ****     lv_style_set_pad_left(&styles->meter_marker, lv_disp_dpx(theme.disp, 15));
 6003              		.loc 1 453 30 is_stmt 0 view .LVU1831
 6004 0eca 2568     		ldr	r5, [r4]
 453:lvgl/lvgl/src/extra/themes/default/lv_theme_default.c ****     lv_style_set_pad_left(&styles->meter_marker, lv_disp_dpx(theme.disp, 15));
 6005              		.loc 1 453 5 view .LVU1832
 6006 0ecc 05F5AC75 		add	r5, r5, #344
 453:lvgl/lvgl/src/extra/themes/default/lv_theme_default.c ****     lv_style_set_pad_left(&styles->meter_marker, lv_disp_dpx(theme.disp, 15));
 6007              		.loc 1 453 63 view .LVU1833
 6008 0ed0 7F4B     		ldr	r3, .L582+4
 6009 0ed2 DC68     		ldr	r4, [r3, #12]
 6010              	.LVL654:
 6011              	.LBB608:
 6012              	.LBI608:
 236:d:\practise\f407_disc\lvgl\lvgl\src/core\lv_disp.h **** {
 6013              		.loc 3 236 26 is_stmt 1 view .LVU1834
 6014              	.LBB609:
 6015              		.loc 3 238 5 view .LVU1835
 6016              		.loc 3 238 12 is_stmt 0 view .LVU1836
 6017 0ed4 2046     		mov	r0, r4
ARM GAS  C:\Users\gx\AppData\Local\Temp\ccQfGIQ4.s 			page 176


 6018 0ed6 FFF7FEFF 		bl	lv_disp_get_dpi
 6019              	.LVL655:
 6020 0eda 00EB8000 		add	r0, r0, r0, lsl #2
 6021 0ede 8000     		lsls	r0, r0, #2
 6022 0ee0 EF28     		cmp	r0, #239
 6023 0ee2 01F3FF81 		bgt	.L484
 6024 0ee6 0124     		movs	r4, #1
 6025              	.LVL656:
 6026              	.L223:
 6027              		.loc 3 238 12 view .LVU1837
 6028              	.LBE609:
 6029              	.LBE608:
 6030              	.LBB611:
 6031              	.LBI611:
 447:d:\practise\f407_disc\lvgl\lvgl\src\misc\lv_style.h ****     lv_style_set_width(style, value);
 6032              		.loc 4 447 20 is_stmt 1 view .LVU1838
 6033              	.LBB612:
 448:d:\practise\f407_disc\lvgl\lvgl\src\misc\lv_style.h ****     lv_style_set_height(style, value);
 6034              		.loc 4 448 5 view .LVU1839
 6035 0ee8 2146     		mov	r1, r4
 6036 0eea 2846     		mov	r0, r5
 6037 0eec FFF7FEFF 		bl	lv_style_set_width
 6038              	.LVL657:
 6039              		.loc 4 449 5 view .LVU1840
 6040 0ef0 2146     		mov	r1, r4
 6041 0ef2 2846     		mov	r0, r5
 6042 0ef4 FFF7FEFF 		bl	lv_style_set_height
 6043              	.LVL658:
 6044              		.loc 4 449 5 is_stmt 0 view .LVU1841
 6045              	.LBE612:
 6046              	.LBE611:
 454:lvgl/lvgl/src/extra/themes/default/lv_theme_default.c **** 
 6047              		.loc 1 454 5 is_stmt 1 view .LVU1842
 454:lvgl/lvgl/src/extra/themes/default/lv_theme_default.c **** 
 6048              		.loc 1 454 34 is_stmt 0 view .LVU1843
 6049 0ef8 744B     		ldr	r3, .L582
 6050 0efa 1C68     		ldr	r4, [r3]
 454:lvgl/lvgl/src/extra/themes/default/lv_theme_default.c **** 
 6051              		.loc 1 454 5 view .LVU1844
 6052 0efc 04F5AC74 		add	r4, r4, #344
 454:lvgl/lvgl/src/extra/themes/default/lv_theme_default.c **** 
 6053              		.loc 1 454 67 view .LVU1845
 6054 0f00 734B     		ldr	r3, .L582+4
 6055 0f02 DD68     		ldr	r5, [r3, #12]
 6056              	.LVL659:
 6057              	.LBB613:
 6058              	.LBI613:
 236:d:\practise\f407_disc\lvgl\lvgl\src/core\lv_disp.h **** {
 6059              		.loc 3 236 26 is_stmt 1 view .LVU1846
 6060              	.LBB614:
 6061              		.loc 3 238 5 view .LVU1847
 6062              		.loc 3 238 12 is_stmt 0 view .LVU1848
 6063 0f04 2846     		mov	r0, r5
 6064 0f06 FFF7FEFF 		bl	lv_disp_get_dpi
 6065              	.LVL660:
 6066 0f0a C0EB0010 		rsb	r0, r0, r0, lsl #4
 6067 0f0e EF28     		cmp	r0, #239
ARM GAS  C:\Users\gx\AppData\Local\Temp\ccQfGIQ4.s 			page 177


 6068 0f10 01F3F881 		bgt	.L485
 6069 0f14 0121     		movs	r1, #1
 6070              	.L224:
 6071              	.LVL661:
 6072              		.loc 3 238 12 view .LVU1849
 6073              	.LBE614:
 6074              	.LBE613:
 454:lvgl/lvgl/src/extra/themes/default/lv_theme_default.c **** 
 6075              		.loc 1 454 5 view .LVU1850
 6076 0f16 2046     		mov	r0, r4
 6077 0f18 FFF7FEFF 		bl	lv_style_set_pad_left
 6078              	.LVL662:
 456:lvgl/lvgl/src/extra/themes/default/lv_theme_default.c ****     lv_style_set_radius(&styles->meter_indic, LV_RADIUS_CIRCLE);
 6079              		.loc 1 456 5 is_stmt 1 view .LVU1851
 456:lvgl/lvgl/src/extra/themes/default/lv_theme_default.c ****     lv_style_set_radius(&styles->meter_indic, LV_RADIUS_CIRCLE);
 6080              		.loc 1 456 29 is_stmt 0 view .LVU1852
 6081 0f1c 6B4C     		ldr	r4, .L582
 6082 0f1e 2068     		ldr	r0, [r4]
 456:lvgl/lvgl/src/extra/themes/default/lv_theme_default.c ****     lv_style_set_radius(&styles->meter_indic, LV_RADIUS_CIRCLE);
 6083              		.loc 1 456 5 view .LVU1853
 6084 0f20 00F5B070 		add	r0, r0, #352
 6085 0f24 FFF7FEFF 		bl	style_init_reset
 6086              	.LVL663:
 457:lvgl/lvgl/src/extra/themes/default/lv_theme_default.c ****     lv_style_set_bg_color(&styles->meter_indic, color_text);
 6087              		.loc 1 457 5 is_stmt 1 view .LVU1854
 457:lvgl/lvgl/src/extra/themes/default/lv_theme_default.c ****     lv_style_set_bg_color(&styles->meter_indic, color_text);
 6088              		.loc 1 457 32 is_stmt 0 view .LVU1855
 6089 0f28 2068     		ldr	r0, [r4]
 457:lvgl/lvgl/src/extra/themes/default/lv_theme_default.c ****     lv_style_set_bg_color(&styles->meter_indic, color_text);
 6090              		.loc 1 457 5 view .LVU1856
 6091 0f2a 47F6FF71 		movw	r1, #32767
 6092 0f2e 00F5B070 		add	r0, r0, #352
 6093 0f32 FFF7FEFF 		bl	lv_style_set_radius
 6094              	.LVL664:
 458:lvgl/lvgl/src/extra/themes/default/lv_theme_default.c ****     lv_style_set_bg_opa(&styles->meter_indic, LV_OPA_COVER);
 6095              		.loc 1 458 5 is_stmt 1 view .LVU1857
 458:lvgl/lvgl/src/extra/themes/default/lv_theme_default.c ****     lv_style_set_bg_opa(&styles->meter_indic, LV_OPA_COVER);
 6096              		.loc 1 458 34 is_stmt 0 view .LVU1858
 6097 0f36 2068     		ldr	r0, [r4]
 458:lvgl/lvgl/src/extra/themes/default/lv_theme_default.c ****     lv_style_set_bg_opa(&styles->meter_indic, LV_OPA_COVER);
 6098              		.loc 1 458 5 view .LVU1859
 6099 0f38 664B     		ldr	r3, .L582+8
 6100 0f3a 1988     		ldrh	r1, [r3]
 6101 0f3c 00F5B070 		add	r0, r0, #352
 6102 0f40 FFF7FEFF 		bl	lv_style_set_bg_color
 6103              	.LVL665:
 459:lvgl/lvgl/src/extra/themes/default/lv_theme_default.c ****     lv_style_set_size(&styles->meter_indic, lv_disp_dpx(theme.disp, 15));
 6104              		.loc 1 459 5 is_stmt 1 view .LVU1860
 459:lvgl/lvgl/src/extra/themes/default/lv_theme_default.c ****     lv_style_set_size(&styles->meter_indic, lv_disp_dpx(theme.disp, 15));
 6105              		.loc 1 459 32 is_stmt 0 view .LVU1861
 6106 0f44 2068     		ldr	r0, [r4]
 459:lvgl/lvgl/src/extra/themes/default/lv_theme_default.c ****     lv_style_set_size(&styles->meter_indic, lv_disp_dpx(theme.disp, 15));
 6107              		.loc 1 459 5 view .LVU1862
 6108 0f46 FF21     		movs	r1, #255
 6109 0f48 00F5B070 		add	r0, r0, #352
 6110 0f4c FFF7FEFF 		bl	lv_style_set_bg_opa
 6111              	.LVL666:
ARM GAS  C:\Users\gx\AppData\Local\Temp\ccQfGIQ4.s 			page 178


 460:lvgl/lvgl/src/extra/themes/default/lv_theme_default.c **** #endif
 6112              		.loc 1 460 5 is_stmt 1 view .LVU1863
 460:lvgl/lvgl/src/extra/themes/default/lv_theme_default.c **** #endif
 6113              		.loc 1 460 30 is_stmt 0 view .LVU1864
 6114 0f50 2568     		ldr	r5, [r4]
 460:lvgl/lvgl/src/extra/themes/default/lv_theme_default.c **** #endif
 6115              		.loc 1 460 5 view .LVU1865
 6116 0f52 05F5B075 		add	r5, r5, #352
 460:lvgl/lvgl/src/extra/themes/default/lv_theme_default.c **** #endif
 6117              		.loc 1 460 62 view .LVU1866
 6118 0f56 5E4B     		ldr	r3, .L582+4
 6119 0f58 DC68     		ldr	r4, [r3, #12]
 6120              	.LVL667:
 6121              	.LBB616:
 6122              	.LBI616:
 236:d:\practise\f407_disc\lvgl\lvgl\src/core\lv_disp.h **** {
 6123              		.loc 3 236 26 is_stmt 1 view .LVU1867
 6124              	.LBB617:
 6125              		.loc 3 238 5 view .LVU1868
 6126              		.loc 3 238 12 is_stmt 0 view .LVU1869
 6127 0f5a 2046     		mov	r0, r4
 6128 0f5c FFF7FEFF 		bl	lv_disp_get_dpi
 6129              	.LVL668:
 6130 0f60 C0EB0010 		rsb	r0, r0, r0, lsl #4
 6131 0f64 EF28     		cmp	r0, #239
 6132 0f66 01F3DC81 		bgt	.L486
 6133 0f6a 0124     		movs	r4, #1
 6134              	.LVL669:
 6135              	.L225:
 6136              		.loc 3 238 12 view .LVU1870
 6137              	.LBE617:
 6138              	.LBE616:
 6139              	.LBB619:
 6140              	.LBI619:
 447:d:\practise\f407_disc\lvgl\lvgl\src\misc\lv_style.h ****     lv_style_set_width(style, value);
 6141              		.loc 4 447 20 is_stmt 1 view .LVU1871
 6142              	.LBB620:
 448:d:\practise\f407_disc\lvgl\lvgl\src\misc\lv_style.h ****     lv_style_set_height(style, value);
 6143              		.loc 4 448 5 view .LVU1872
 6144 0f6c 2146     		mov	r1, r4
 6145 0f6e 2846     		mov	r0, r5
 6146 0f70 FFF7FEFF 		bl	lv_style_set_width
 6147              	.LVL670:
 6148              		.loc 4 449 5 view .LVU1873
 6149 0f74 2146     		mov	r1, r4
 6150 0f76 2846     		mov	r0, r5
 6151 0f78 FFF7FEFF 		bl	lv_style_set_height
 6152              	.LVL671:
 6153              		.loc 4 449 5 is_stmt 0 view .LVU1874
 6154              	.LBE620:
 6155              	.LBE619:
 464:lvgl/lvgl/src/extra/themes/default/lv_theme_default.c ****     lv_style_set_border_width(&styles->table_cell, lv_disp_dpx(theme.disp, 1));
 6156              		.loc 1 464 5 is_stmt 1 view .LVU1875
 464:lvgl/lvgl/src/extra/themes/default/lv_theme_default.c ****     lv_style_set_border_width(&styles->table_cell, lv_disp_dpx(theme.disp, 1));
 6157              		.loc 1 464 29 is_stmt 0 view .LVU1876
 6158 0f7c 534C     		ldr	r4, .L582
 6159 0f7e 2068     		ldr	r0, [r4]
ARM GAS  C:\Users\gx\AppData\Local\Temp\ccQfGIQ4.s 			page 179


 464:lvgl/lvgl/src/extra/themes/default/lv_theme_default.c ****     lv_style_set_border_width(&styles->table_cell, lv_disp_dpx(theme.disp, 1));
 6160              		.loc 1 464 5 view .LVU1877
 6161 0f80 00F5A870 		add	r0, r0, #336
 6162 0f84 FFF7FEFF 		bl	style_init_reset
 6163              	.LVL672:
 465:lvgl/lvgl/src/extra/themes/default/lv_theme_default.c ****     lv_style_set_border_color(&styles->table_cell, color_grey);
 6164              		.loc 1 465 5 is_stmt 1 view .LVU1878
 465:lvgl/lvgl/src/extra/themes/default/lv_theme_default.c ****     lv_style_set_border_color(&styles->table_cell, color_grey);
 6165              		.loc 1 465 38 is_stmt 0 view .LVU1879
 6166 0f88 2468     		ldr	r4, [r4]
 465:lvgl/lvgl/src/extra/themes/default/lv_theme_default.c ****     lv_style_set_border_color(&styles->table_cell, color_grey);
 6167              		.loc 1 465 5 view .LVU1880
 6168 0f8a 04F5A874 		add	r4, r4, #336
 465:lvgl/lvgl/src/extra/themes/default/lv_theme_default.c ****     lv_style_set_border_color(&styles->table_cell, color_grey);
 6169              		.loc 1 465 69 view .LVU1881
 6170 0f8e 504B     		ldr	r3, .L582+4
 6171 0f90 DD68     		ldr	r5, [r3, #12]
 6172              	.LVL673:
 6173              	.LBB621:
 6174              	.LBI621:
 236:d:\practise\f407_disc\lvgl\lvgl\src/core\lv_disp.h **** {
 6175              		.loc 3 236 26 is_stmt 1 view .LVU1882
 6176              	.LBB622:
 6177              		.loc 3 238 5 view .LVU1883
 6178              		.loc 3 238 12 is_stmt 0 view .LVU1884
 6179 0f92 2846     		mov	r0, r5
 6180 0f94 FFF7FEFF 		bl	lv_disp_get_dpi
 6181              	.LVL674:
 6182 0f98 EF28     		cmp	r0, #239
 6183 0f9a 01F3D181 		bgt	.L487
 6184 0f9e 0121     		movs	r1, #1
 6185              	.L226:
 6186              	.LVL675:
 6187              		.loc 3 238 12 view .LVU1885
 6188              	.LBE622:
 6189              	.LBE621:
 465:lvgl/lvgl/src/extra/themes/default/lv_theme_default.c ****     lv_style_set_border_color(&styles->table_cell, color_grey);
 6190              		.loc 1 465 5 view .LVU1886
 6191 0fa0 2046     		mov	r0, r4
 6192 0fa2 FFF7FEFF 		bl	lv_style_set_border_width
 6193              	.LVL676:
 466:lvgl/lvgl/src/extra/themes/default/lv_theme_default.c ****     lv_style_set_border_side(&styles->table_cell, LV_BORDER_SIDE_TOP | LV_BORDER_SIDE_BOTTOM );
 6194              		.loc 1 466 5 is_stmt 1 view .LVU1887
 466:lvgl/lvgl/src/extra/themes/default/lv_theme_default.c ****     lv_style_set_border_side(&styles->table_cell, LV_BORDER_SIDE_TOP | LV_BORDER_SIDE_BOTTOM );
 6195              		.loc 1 466 38 is_stmt 0 view .LVU1888
 6196 0fa6 494C     		ldr	r4, .L582
 6197 0fa8 2068     		ldr	r0, [r4]
 466:lvgl/lvgl/src/extra/themes/default/lv_theme_default.c ****     lv_style_set_border_side(&styles->table_cell, LV_BORDER_SIDE_TOP | LV_BORDER_SIDE_BOTTOM );
 6198              		.loc 1 466 5 view .LVU1889
 6199 0faa 4B4B     		ldr	r3, .L582+12
 6200 0fac 1988     		ldrh	r1, [r3]
 6201 0fae 00F5A870 		add	r0, r0, #336
 6202 0fb2 FFF7FEFF 		bl	lv_style_set_border_color
 6203              	.LVL677:
 467:lvgl/lvgl/src/extra/themes/default/lv_theme_default.c **** #endif
 6204              		.loc 1 467 5 is_stmt 1 view .LVU1890
 467:lvgl/lvgl/src/extra/themes/default/lv_theme_default.c **** #endif
ARM GAS  C:\Users\gx\AppData\Local\Temp\ccQfGIQ4.s 			page 180


 6205              		.loc 1 467 37 is_stmt 0 view .LVU1891
 6206 0fb6 2068     		ldr	r0, [r4]
 467:lvgl/lvgl/src/extra/themes/default/lv_theme_default.c **** #endif
 6207              		.loc 1 467 5 view .LVU1892
 6208 0fb8 0321     		movs	r1, #3
 6209 0fba 00F5A870 		add	r0, r0, #336
 6210 0fbe FFF7FEFF 		bl	lv_style_set_border_side
 6211              	.LVL678:
 471:lvgl/lvgl/src/extra/themes/default/lv_theme_default.c ****     lv_style_set_border_color(&styles->ta_cursor, color_text);
 6212              		.loc 1 471 5 is_stmt 1 view .LVU1893
 471:lvgl/lvgl/src/extra/themes/default/lv_theme_default.c ****     lv_style_set_border_color(&styles->ta_cursor, color_text);
 6213              		.loc 1 471 29 is_stmt 0 view .LVU1894
 6214 0fc2 2068     		ldr	r0, [r4]
 471:lvgl/lvgl/src/extra/themes/default/lv_theme_default.c ****     lv_style_set_border_color(&styles->ta_cursor, color_text);
 6215              		.loc 1 471 5 view .LVU1895
 6216 0fc4 00F5B470 		add	r0, r0, #360
 6217 0fc8 FFF7FEFF 		bl	style_init_reset
 6218              	.LVL679:
 472:lvgl/lvgl/src/extra/themes/default/lv_theme_default.c ****     lv_style_set_border_width(&styles->ta_cursor, lv_disp_dpx(theme.disp, 2));
 6219              		.loc 1 472 5 is_stmt 1 view .LVU1896
 472:lvgl/lvgl/src/extra/themes/default/lv_theme_default.c ****     lv_style_set_border_width(&styles->ta_cursor, lv_disp_dpx(theme.disp, 2));
 6220              		.loc 1 472 38 is_stmt 0 view .LVU1897
 6221 0fcc 2068     		ldr	r0, [r4]
 472:lvgl/lvgl/src/extra/themes/default/lv_theme_default.c ****     lv_style_set_border_width(&styles->ta_cursor, lv_disp_dpx(theme.disp, 2));
 6222              		.loc 1 472 5 view .LVU1898
 6223 0fce 414B     		ldr	r3, .L582+8
 6224 0fd0 1988     		ldrh	r1, [r3]
 6225 0fd2 00F5B470 		add	r0, r0, #360
 6226 0fd6 FFF7FEFF 		bl	lv_style_set_border_color
 6227              	.LVL680:
 473:lvgl/lvgl/src/extra/themes/default/lv_theme_default.c ****     lv_style_set_pad_left(&styles->ta_cursor, lv_disp_dpx(theme.disp, 1));
 6228              		.loc 1 473 5 is_stmt 1 view .LVU1899
 473:lvgl/lvgl/src/extra/themes/default/lv_theme_default.c ****     lv_style_set_pad_left(&styles->ta_cursor, lv_disp_dpx(theme.disp, 1));
 6229              		.loc 1 473 38 is_stmt 0 view .LVU1900
 6230 0fda 2468     		ldr	r4, [r4]
 473:lvgl/lvgl/src/extra/themes/default/lv_theme_default.c ****     lv_style_set_pad_left(&styles->ta_cursor, lv_disp_dpx(theme.disp, 1));
 6231              		.loc 1 473 5 view .LVU1901
 6232 0fdc 04F5B474 		add	r4, r4, #360
 473:lvgl/lvgl/src/extra/themes/default/lv_theme_default.c ****     lv_style_set_pad_left(&styles->ta_cursor, lv_disp_dpx(theme.disp, 1));
 6233              		.loc 1 473 68 view .LVU1902
 6234 0fe0 3B4B     		ldr	r3, .L582+4
 6235 0fe2 DD68     		ldr	r5, [r3, #12]
 6236              	.LVL681:
 6237              	.LBB624:
 6238              	.LBI624:
 236:d:\practise\f407_disc\lvgl\lvgl\src/core\lv_disp.h **** {
 6239              		.loc 3 236 26 is_stmt 1 view .LVU1903
 6240              	.LBB625:
 6241              		.loc 3 238 5 view .LVU1904
 6242              		.loc 3 238 12 is_stmt 0 view .LVU1905
 6243 0fe4 2846     		mov	r0, r5
 6244 0fe6 FFF7FEFF 		bl	lv_disp_get_dpi
 6245              	.LVL682:
 6246 0fea 4000     		lsls	r0, r0, #1
 6247 0fec EF28     		cmp	r0, #239
 6248 0fee 01F3B481 		bgt	.L488
 6249 0ff2 0121     		movs	r1, #1
ARM GAS  C:\Users\gx\AppData\Local\Temp\ccQfGIQ4.s 			page 181


 6250              	.L227:
 6251              	.LVL683:
 6252              		.loc 3 238 12 view .LVU1906
 6253              	.LBE625:
 6254              	.LBE624:
 473:lvgl/lvgl/src/extra/themes/default/lv_theme_default.c ****     lv_style_set_pad_left(&styles->ta_cursor, lv_disp_dpx(theme.disp, 1));
 6255              		.loc 1 473 5 view .LVU1907
 6256 0ff4 2046     		mov	r0, r4
 6257 0ff6 FFF7FEFF 		bl	lv_style_set_border_width
 6258              	.LVL684:
 474:lvgl/lvgl/src/extra/themes/default/lv_theme_default.c ****     lv_style_set_border_side(&styles->ta_cursor, LV_BORDER_SIDE_LEFT);
 6259              		.loc 1 474 5 is_stmt 1 view .LVU1908
 474:lvgl/lvgl/src/extra/themes/default/lv_theme_default.c ****     lv_style_set_border_side(&styles->ta_cursor, LV_BORDER_SIDE_LEFT);
 6260              		.loc 1 474 34 is_stmt 0 view .LVU1909
 6261 0ffa 344B     		ldr	r3, .L582
 6262 0ffc 1C68     		ldr	r4, [r3]
 474:lvgl/lvgl/src/extra/themes/default/lv_theme_default.c ****     lv_style_set_border_side(&styles->ta_cursor, LV_BORDER_SIDE_LEFT);
 6263              		.loc 1 474 5 view .LVU1910
 6264 0ffe 04F5B474 		add	r4, r4, #360
 474:lvgl/lvgl/src/extra/themes/default/lv_theme_default.c ****     lv_style_set_border_side(&styles->ta_cursor, LV_BORDER_SIDE_LEFT);
 6265              		.loc 1 474 64 view .LVU1911
 6266 1002 334B     		ldr	r3, .L582+4
 6267 1004 DD68     		ldr	r5, [r3, #12]
 6268              	.LVL685:
 6269              	.LBB627:
 6270              	.LBI627:
 236:d:\practise\f407_disc\lvgl\lvgl\src/core\lv_disp.h **** {
 6271              		.loc 3 236 26 is_stmt 1 view .LVU1912
 6272              	.LBB628:
 6273              		.loc 3 238 5 view .LVU1913
 6274              		.loc 3 238 12 is_stmt 0 view .LVU1914
 6275 1006 2846     		mov	r0, r5
 6276 1008 FFF7FEFF 		bl	lv_disp_get_dpi
 6277              	.LVL686:
 6278 100c EF28     		cmp	r0, #239
 6279 100e 01F3B281 		bgt	.L489
 6280 1012 0121     		movs	r1, #1
 6281              	.L228:
 6282              	.LVL687:
 6283              		.loc 3 238 12 view .LVU1915
 6284              	.LBE628:
 6285              	.LBE627:
 474:lvgl/lvgl/src/extra/themes/default/lv_theme_default.c ****     lv_style_set_border_side(&styles->ta_cursor, LV_BORDER_SIDE_LEFT);
 6286              		.loc 1 474 5 view .LVU1916
 6287 1014 2046     		mov	r0, r4
 6288 1016 FFF7FEFF 		bl	lv_style_set_pad_left
 6289              	.LVL688:
 475:lvgl/lvgl/src/extra/themes/default/lv_theme_default.c ****     lv_style_set_anim_time(&styles->ta_cursor, 400);
 6290              		.loc 1 475 5 is_stmt 1 view .LVU1917
 475:lvgl/lvgl/src/extra/themes/default/lv_theme_default.c ****     lv_style_set_anim_time(&styles->ta_cursor, 400);
 6291              		.loc 1 475 37 is_stmt 0 view .LVU1918
 6292 101a 2C4C     		ldr	r4, .L582
 6293 101c 2068     		ldr	r0, [r4]
 475:lvgl/lvgl/src/extra/themes/default/lv_theme_default.c ****     lv_style_set_anim_time(&styles->ta_cursor, 400);
 6294              		.loc 1 475 5 view .LVU1919
 6295 101e 0421     		movs	r1, #4
 6296 1020 00F5B470 		add	r0, r0, #360
ARM GAS  C:\Users\gx\AppData\Local\Temp\ccQfGIQ4.s 			page 182


 6297 1024 FFF7FEFF 		bl	lv_style_set_border_side
 6298              	.LVL689:
 476:lvgl/lvgl/src/extra/themes/default/lv_theme_default.c **** 
 6299              		.loc 1 476 5 is_stmt 1 view .LVU1920
 476:lvgl/lvgl/src/extra/themes/default/lv_theme_default.c **** 
 6300              		.loc 1 476 35 is_stmt 0 view .LVU1921
 6301 1028 2068     		ldr	r0, [r4]
 476:lvgl/lvgl/src/extra/themes/default/lv_theme_default.c **** 
 6302              		.loc 1 476 5 view .LVU1922
 6303 102a 4FF4C871 		mov	r1, #400
 6304 102e 00F5B470 		add	r0, r0, #360
 6305 1032 FFF7FEFF 		bl	lv_style_set_anim_time
 6306              	.LVL690:
 478:lvgl/lvgl/src/extra/themes/default/lv_theme_default.c ****     lv_style_set_text_color(&styles->ta_placeholder, (theme.flags & MODE_DARK) ? lv_palette_darken(
 6307              		.loc 1 478 5 is_stmt 1 view .LVU1923
 478:lvgl/lvgl/src/extra/themes/default/lv_theme_default.c ****     lv_style_set_text_color(&styles->ta_placeholder, (theme.flags & MODE_DARK) ? lv_palette_darken(
 6308              		.loc 1 478 29 is_stmt 0 view .LVU1924
 6309 1036 2068     		ldr	r0, [r4]
 478:lvgl/lvgl/src/extra/themes/default/lv_theme_default.c ****     lv_style_set_text_color(&styles->ta_placeholder, (theme.flags & MODE_DARK) ? lv_palette_darken(
 6310              		.loc 1 478 5 view .LVU1925
 6311 1038 00F5B870 		add	r0, r0, #368
 6312 103c FFF7FEFF 		bl	style_init_reset
 6313              	.LVL691:
 479:lvgl/lvgl/src/extra/themes/default/lv_theme_default.c **** #endif
 6314              		.loc 1 479 5 is_stmt 1 view .LVU1926
 479:lvgl/lvgl/src/extra/themes/default/lv_theme_default.c **** #endif
 6315              		.loc 1 479 36 is_stmt 0 view .LVU1927
 6316 1040 2468     		ldr	r4, [r4]
 479:lvgl/lvgl/src/extra/themes/default/lv_theme_default.c **** #endif
 6317              		.loc 1 479 5 view .LVU1928
 6318 1042 04F5B874 		add	r4, r4, #368
 479:lvgl/lvgl/src/extra/themes/default/lv_theme_default.c **** #endif
 6319              		.loc 1 479 60 view .LVU1929
 6320 1046 224B     		ldr	r3, .L582+4
 6321 1048 1B6A     		ldr	r3, [r3, #32]
 479:lvgl/lvgl/src/extra/themes/default/lv_theme_default.c **** #endif
 6322              		.loc 1 479 5 view .LVU1930
 6323 104a 13F0010F 		tst	r3, #1
 6324 104e 01F09F81 		beq	.L229
 479:lvgl/lvgl/src/extra/themes/default/lv_theme_default.c **** #endif
 6325              		.loc 1 479 82 discriminator 1 view .LVU1931
 6326 1052 0221     		movs	r1, #2
 6327 1054 1220     		movs	r0, #18
 6328 1056 FFF7FEFF 		bl	lv_palette_darken
 6329              	.LVL692:
 6330 105a 0146     		mov	r1, r0	@ movhi
 6331              	.L230:
 479:lvgl/lvgl/src/extra/themes/default/lv_theme_default.c **** #endif
 6332              		.loc 1 479 5 discriminator 4 view .LVU1932
 6333 105c 2046     		mov	r0, r4
 6334 105e FFF7FEFF 		bl	lv_style_set_text_color
 6335              	.LVL693:
 483:lvgl/lvgl/src/extra/themes/default/lv_theme_default.c ****     lv_style_set_pad_all(&styles->calendar_bg, PAD_SMALL);
 6336              		.loc 1 483 5 is_stmt 1 discriminator 4 view .LVU1933
 483:lvgl/lvgl/src/extra/themes/default/lv_theme_default.c ****     lv_style_set_pad_all(&styles->calendar_bg, PAD_SMALL);
 6337              		.loc 1 483 29 is_stmt 0 discriminator 4 view .LVU1934
 6338 1062 1A4C     		ldr	r4, .L582
ARM GAS  C:\Users\gx\AppData\Local\Temp\ccQfGIQ4.s 			page 183


 6339 1064 2068     		ldr	r0, [r4]
 483:lvgl/lvgl/src/extra/themes/default/lv_theme_default.c ****     lv_style_set_pad_all(&styles->calendar_bg, PAD_SMALL);
 6340              		.loc 1 483 5 discriminator 4 view .LVU1935
 6341 1066 00F5BC70 		add	r0, r0, #376
 6342 106a FFF7FEFF 		bl	style_init_reset
 6343              	.LVL694:
 484:lvgl/lvgl/src/extra/themes/default/lv_theme_default.c ****     lv_style_set_pad_gap(&styles->calendar_bg, PAD_SMALL / 2);
 6344              		.loc 1 484 5 is_stmt 1 discriminator 4 view .LVU1936
 484:lvgl/lvgl/src/extra/themes/default/lv_theme_default.c ****     lv_style_set_pad_gap(&styles->calendar_bg, PAD_SMALL / 2);
 6345              		.loc 1 484 33 is_stmt 0 discriminator 4 view .LVU1937
 6346 106e 2568     		ldr	r5, [r4]
 484:lvgl/lvgl/src/extra/themes/default/lv_theme_default.c ****     lv_style_set_pad_gap(&styles->calendar_bg, PAD_SMALL / 2);
 6347              		.loc 1 484 5 discriminator 4 view .LVU1938
 6348 1070 05F5BC75 		add	r5, r5, #376
 484:lvgl/lvgl/src/extra/themes/default/lv_theme_default.c ****     lv_style_set_pad_gap(&styles->calendar_bg, PAD_SMALL / 2);
 6349              		.loc 1 484 48 discriminator 4 view .LVU1939
 6350 1074 194B     		ldr	r3, .L582+16
 6351 1076 1B78     		ldrb	r3, [r3]	@ zero_extendqisi2
 484:lvgl/lvgl/src/extra/themes/default/lv_theme_default.c ****     lv_style_set_pad_gap(&styles->calendar_bg, PAD_SMALL / 2);
 6352              		.loc 1 484 5 discriminator 4 view .LVU1940
 6353 1078 012B     		cmp	r3, #1
 6354 107a 01F09081 		beq	.L490
 484:lvgl/lvgl/src/extra/themes/default/lv_theme_default.c ****     lv_style_set_pad_gap(&styles->calendar_bg, PAD_SMALL / 2);
 6355              		.loc 1 484 5 discriminator 2 view .LVU1941
 6356 107e 022B     		cmp	r3, #2
 6357 1080 01F0AA81 		beq	.L491
 484:lvgl/lvgl/src/extra/themes/default/lv_theme_default.c ****     lv_style_set_pad_gap(&styles->calendar_bg, PAD_SMALL / 2);
 6358              		.loc 1 484 48 discriminator 5 view .LVU1942
 6359 1084 124B     		ldr	r3, .L582+4
 6360 1086 DC68     		ldr	r4, [r3, #12]
 6361              	.LVL695:
 6362              	.LBB630:
 6363              	.LBI630:
 236:d:\practise\f407_disc\lvgl\lvgl\src/core\lv_disp.h **** {
 6364              		.loc 3 236 26 is_stmt 1 discriminator 5 view .LVU1943
 6365              	.LBB631:
 6366              		.loc 3 238 5 discriminator 5 view .LVU1944
 6367              		.loc 3 238 12 is_stmt 0 discriminator 5 view .LVU1945
 6368 1088 2046     		mov	r0, r4
 6369 108a FFF7FEFF 		bl	lv_disp_get_dpi
 6370              	.LVL696:
 6371 108e 00EB8000 		add	r0, r0, r0, lsl #2
 6372 1092 4000     		lsls	r0, r0, #1
 6373 1094 EF28     		cmp	r0, #239
 6374 1096 01F3BC81 		bgt	.L492
 6375              		.loc 3 238 12 view .LVU1946
 6376 109a 0124     		movs	r4, #1
 6377              	.LVL697:
 6378              	.L233:
 6379              		.loc 3 238 12 view .LVU1947
 6380              	.LBE631:
 6381              	.LBE630:
 6382              	.LBB633:
 6383              	.LBI633:
 425:d:\practise\f407_disc\lvgl\lvgl\src\misc\lv_style.h ****     lv_style_set_pad_left(style, value);
 6384              		.loc 4 425 20 is_stmt 1 discriminator 8 view .LVU1948
 6385              	.LBB634:
ARM GAS  C:\Users\gx\AppData\Local\Temp\ccQfGIQ4.s 			page 184


 426:d:\practise\f407_disc\lvgl\lvgl\src\misc\lv_style.h ****     lv_style_set_pad_right(style, value);
 6386              		.loc 4 426 5 discriminator 8 view .LVU1949
 6387 109c 2146     		mov	r1, r4
 6388 109e 2846     		mov	r0, r5
 6389 10a0 FFF7FEFF 		bl	lv_style_set_pad_left
 6390              	.LVL698:
 427:d:\practise\f407_disc\lvgl\lvgl\src\misc\lv_style.h ****     lv_style_set_pad_top(style, value);
 6391              		.loc 4 427 5 discriminator 8 view .LVU1950
 6392 10a4 2146     		mov	r1, r4
 6393 10a6 2846     		mov	r0, r5
 6394 10a8 FFF7FEFF 		bl	lv_style_set_pad_right
 6395              	.LVL699:
 428:d:\practise\f407_disc\lvgl\lvgl\src\misc\lv_style.h ****     lv_style_set_pad_bottom(style, value);
 6396              		.loc 4 428 5 discriminator 8 view .LVU1951
 6397 10ac 2146     		mov	r1, r4
 6398 10ae 2846     		mov	r0, r5
 6399 10b0 FFF7FEFF 		bl	lv_style_set_pad_top
 6400              	.LVL700:
 429:d:\practise\f407_disc\lvgl\lvgl\src\misc\lv_style.h **** }
 6401              		.loc 4 429 5 discriminator 8 view .LVU1952
 6402 10b4 2146     		mov	r1, r4
 6403 10b6 2846     		mov	r0, r5
 6404 10b8 FFF7FEFF 		bl	lv_style_set_pad_bottom
 6405              	.LVL701:
 429:d:\practise\f407_disc\lvgl\lvgl\src\misc\lv_style.h **** }
 6406              		.loc 4 429 5 is_stmt 0 discriminator 8 view .LVU1953
 6407              	.LBE634:
 6408              	.LBE633:
 485:lvgl/lvgl/src/extra/themes/default/lv_theme_default.c ****     lv_style_set_radius(&styles->calendar_bg, 0);
 6409              		.loc 1 485 5 is_stmt 1 discriminator 8 view .LVU1954
 485:lvgl/lvgl/src/extra/themes/default/lv_theme_default.c ****     lv_style_set_radius(&styles->calendar_bg, 0);
 6410              		.loc 1 485 33 is_stmt 0 discriminator 8 view .LVU1955
 6411 10bc 034B     		ldr	r3, .L582
 6412 10be 1D68     		ldr	r5, [r3]
 485:lvgl/lvgl/src/extra/themes/default/lv_theme_default.c ****     lv_style_set_radius(&styles->calendar_bg, 0);
 6413              		.loc 1 485 5 discriminator 8 view .LVU1956
 6414 10c0 05F5BC75 		add	r5, r5, #376
 485:lvgl/lvgl/src/extra/themes/default/lv_theme_default.c ****     lv_style_set_radius(&styles->calendar_bg, 0);
 6415              		.loc 1 485 48 discriminator 8 view .LVU1957
 6416 10c4 054B     		ldr	r3, .L582+16
 6417 10c6 1B78     		ldrb	r3, [r3]	@ zero_extendqisi2
 485:lvgl/lvgl/src/extra/themes/default/lv_theme_default.c ****     lv_style_set_radius(&styles->calendar_bg, 0);
 6418              		.loc 1 485 5 discriminator 8 view .LVU1958
 6419 10c8 012B     		cmp	r3, #1
 6420 10ca 09E0     		b	.L583
 6421              	.L584:
 6422              		.align	2
 6423              	.L582:
 6424 10cc 00000000 		.word	.LANCHOR0
 6425 10d0 00000000 		.word	.LANCHOR2
 6426 10d4 00000000 		.word	.LANCHOR5
 6427 10d8 00000000 		.word	.LANCHOR7
 6428 10dc 00000000 		.word	.LANCHOR1
 6429              	.L583:
 6430 10e0 01F0A781 		beq	.L493
 485:lvgl/lvgl/src/extra/themes/default/lv_theme_default.c ****     lv_style_set_radius(&styles->calendar_bg, 0);
 6431              		.loc 1 485 5 discriminator 2 view .LVU1959
ARM GAS  C:\Users\gx\AppData\Local\Temp\ccQfGIQ4.s 			page 185


 6432 10e4 022B     		cmp	r3, #2
 6433 10e6 01F0C381 		beq	.L494
 485:lvgl/lvgl/src/extra/themes/default/lv_theme_default.c ****     lv_style_set_radius(&styles->calendar_bg, 0);
 6434              		.loc 1 485 48 discriminator 5 view .LVU1960
 6435 10ea D24B     		ldr	r3, .L585
 6436 10ec DC68     		ldr	r4, [r3, #12]
 6437              	.LVL702:
 6438              	.LBB635:
 6439              	.LBI635:
 236:d:\practise\f407_disc\lvgl\lvgl\src/core\lv_disp.h **** {
 6440              		.loc 3 236 26 is_stmt 1 discriminator 5 view .LVU1961
 6441              	.LBB636:
 6442              		.loc 3 238 5 discriminator 5 view .LVU1962
 6443              		.loc 3 238 12 is_stmt 0 discriminator 5 view .LVU1963
 6444 10ee 2046     		mov	r0, r4
 6445 10f0 FFF7FEFF 		bl	lv_disp_get_dpi
 6446              	.LVL703:
 6447 10f4 00EB8000 		add	r0, r0, r0, lsl #2
 6448 10f8 4000     		lsls	r0, r0, #1
 6449 10fa EF28     		cmp	r0, #239
 6450 10fc 01F3D781 		bgt	.L495
 6451              		.loc 3 238 12 view .LVU1964
 6452 1100 0124     		movs	r4, #1
 6453              	.LVL704:
 6454              	.L242:
 6455              		.loc 3 238 12 view .LVU1965
 6456              	.LBE636:
 6457              	.LBE635:
 485:lvgl/lvgl/src/extra/themes/default/lv_theme_default.c ****     lv_style_set_radius(&styles->calendar_bg, 0);
 6458              		.loc 1 485 5 view .LVU1966
 6459 1102 04EBD474 		add	r4, r4, r4, lsr #31
 6460 1106 6410     		asrs	r4, r4, #1
 6461              	.L239:
 6462              	.LVL705:
 6463              	.LBB638:
 6464              	.LBI638:
 442:d:\practise\f407_disc\lvgl\lvgl\src\misc\lv_style.h ****     lv_style_set_pad_row(style, value);
 6465              		.loc 4 442 20 is_stmt 1 discriminator 8 view .LVU1967
 6466              	.LBB639:
 443:d:\practise\f407_disc\lvgl\lvgl\src\misc\lv_style.h ****     lv_style_set_pad_column(style, value);
 6467              		.loc 4 443 5 discriminator 8 view .LVU1968
 6468 1108 2146     		mov	r1, r4
 6469 110a 2846     		mov	r0, r5
 6470 110c FFF7FEFF 		bl	lv_style_set_pad_row
 6471              	.LVL706:
 444:d:\practise\f407_disc\lvgl\lvgl\src\misc\lv_style.h **** }
 6472              		.loc 4 444 5 discriminator 8 view .LVU1969
 6473 1110 2146     		mov	r1, r4
 6474 1112 2846     		mov	r0, r5
 6475 1114 FFF7FEFF 		bl	lv_style_set_pad_column
 6476              	.LVL707:
 444:d:\practise\f407_disc\lvgl\lvgl\src\misc\lv_style.h **** }
 6477              		.loc 4 444 5 is_stmt 0 discriminator 8 view .LVU1970
 6478              	.LBE639:
 6479              	.LBE638:
 486:lvgl/lvgl/src/extra/themes/default/lv_theme_default.c **** 
 6480              		.loc 1 486 5 is_stmt 1 discriminator 8 view .LVU1971
ARM GAS  C:\Users\gx\AppData\Local\Temp\ccQfGIQ4.s 			page 186


 486:lvgl/lvgl/src/extra/themes/default/lv_theme_default.c **** 
 6481              		.loc 1 486 32 is_stmt 0 discriminator 8 view .LVU1972
 6482 1118 C74C     		ldr	r4, .L585+4
 6483 111a 2068     		ldr	r0, [r4]
 486:lvgl/lvgl/src/extra/themes/default/lv_theme_default.c **** 
 6484              		.loc 1 486 5 discriminator 8 view .LVU1973
 6485 111c 0021     		movs	r1, #0
 6486 111e 00F5BC70 		add	r0, r0, #376
 6487 1122 FFF7FEFF 		bl	lv_style_set_radius
 6488              	.LVL708:
 488:lvgl/lvgl/src/extra/themes/default/lv_theme_default.c ****     lv_style_set_border_width(&styles->calendar_day, lv_disp_dpx(theme.disp, 1));
 6489              		.loc 1 488 5 is_stmt 1 discriminator 8 view .LVU1974
 488:lvgl/lvgl/src/extra/themes/default/lv_theme_default.c ****     lv_style_set_border_width(&styles->calendar_day, lv_disp_dpx(theme.disp, 1));
 6490              		.loc 1 488 29 is_stmt 0 discriminator 8 view .LVU1975
 6491 1126 2068     		ldr	r0, [r4]
 488:lvgl/lvgl/src/extra/themes/default/lv_theme_default.c ****     lv_style_set_border_width(&styles->calendar_day, lv_disp_dpx(theme.disp, 1));
 6492              		.loc 1 488 5 discriminator 8 view .LVU1976
 6493 1128 00F5C070 		add	r0, r0, #384
 6494 112c FFF7FEFF 		bl	style_init_reset
 6495              	.LVL709:
 489:lvgl/lvgl/src/extra/themes/default/lv_theme_default.c ****     lv_style_set_border_color(&styles->calendar_day, color_grey);
 6496              		.loc 1 489 5 is_stmt 1 discriminator 8 view .LVU1977
 489:lvgl/lvgl/src/extra/themes/default/lv_theme_default.c ****     lv_style_set_border_color(&styles->calendar_day, color_grey);
 6497              		.loc 1 489 38 is_stmt 0 discriminator 8 view .LVU1978
 6498 1130 2468     		ldr	r4, [r4]
 489:lvgl/lvgl/src/extra/themes/default/lv_theme_default.c ****     lv_style_set_border_color(&styles->calendar_day, color_grey);
 6499              		.loc 1 489 5 discriminator 8 view .LVU1979
 6500 1132 04F5C074 		add	r4, r4, #384
 489:lvgl/lvgl/src/extra/themes/default/lv_theme_default.c ****     lv_style_set_border_color(&styles->calendar_day, color_grey);
 6501              		.loc 1 489 71 discriminator 8 view .LVU1980
 6502 1136 BF4B     		ldr	r3, .L585
 6503 1138 DD68     		ldr	r5, [r3, #12]
 6504              	.LVL710:
 6505              	.LBB640:
 6506              	.LBI640:
 236:d:\practise\f407_disc\lvgl\lvgl\src/core\lv_disp.h **** {
 6507              		.loc 3 236 26 is_stmt 1 discriminator 8 view .LVU1981
 6508              	.LBB641:
 6509              		.loc 3 238 5 discriminator 8 view .LVU1982
 6510              		.loc 3 238 12 is_stmt 0 discriminator 8 view .LVU1983
 6511 113a 2846     		mov	r0, r5
 6512 113c FFF7FEFF 		bl	lv_disp_get_dpi
 6513              	.LVL711:
 6514 1140 EF28     		cmp	r0, #239
 6515 1142 01F3C481 		bgt	.L496
 6516              		.loc 3 238 12 view .LVU1984
 6517 1146 0121     		movs	r1, #1
 6518              	.L243:
 6519              	.LVL712:
 6520              		.loc 3 238 12 view .LVU1985
 6521              	.LBE641:
 6522              	.LBE640:
 489:lvgl/lvgl/src/extra/themes/default/lv_theme_default.c ****     lv_style_set_border_color(&styles->calendar_day, color_grey);
 6523              		.loc 1 489 5 view .LVU1986
 6524 1148 2046     		mov	r0, r4
 6525 114a FFF7FEFF 		bl	lv_style_set_border_width
 6526              	.LVL713:
ARM GAS  C:\Users\gx\AppData\Local\Temp\ccQfGIQ4.s 			page 187


 490:lvgl/lvgl/src/extra/themes/default/lv_theme_default.c ****     lv_style_set_bg_color(&styles->calendar_day, color_card);
 6527              		.loc 1 490 5 is_stmt 1 view .LVU1987
 490:lvgl/lvgl/src/extra/themes/default/lv_theme_default.c ****     lv_style_set_bg_color(&styles->calendar_day, color_card);
 6528              		.loc 1 490 38 is_stmt 0 view .LVU1988
 6529 114e BA4C     		ldr	r4, .L585+4
 6530 1150 2068     		ldr	r0, [r4]
 490:lvgl/lvgl/src/extra/themes/default/lv_theme_default.c ****     lv_style_set_bg_color(&styles->calendar_day, color_card);
 6531              		.loc 1 490 5 view .LVU1989
 6532 1152 BA4B     		ldr	r3, .L585+8
 6533 1154 1988     		ldrh	r1, [r3]
 6534 1156 00F5C070 		add	r0, r0, #384
 6535 115a FFF7FEFF 		bl	lv_style_set_border_color
 6536              	.LVL714:
 491:lvgl/lvgl/src/extra/themes/default/lv_theme_default.c ****     lv_style_set_bg_opa(&styles->calendar_day, LV_OPA_20);
 6537              		.loc 1 491 5 is_stmt 1 view .LVU1990
 491:lvgl/lvgl/src/extra/themes/default/lv_theme_default.c ****     lv_style_set_bg_opa(&styles->calendar_day, LV_OPA_20);
 6538              		.loc 1 491 34 is_stmt 0 view .LVU1991
 6539 115e 2068     		ldr	r0, [r4]
 491:lvgl/lvgl/src/extra/themes/default/lv_theme_default.c ****     lv_style_set_bg_opa(&styles->calendar_day, LV_OPA_20);
 6540              		.loc 1 491 5 view .LVU1992
 6541 1160 B74B     		ldr	r3, .L585+12
 6542 1162 1988     		ldrh	r1, [r3]
 6543 1164 00F5C070 		add	r0, r0, #384
 6544 1168 FFF7FEFF 		bl	lv_style_set_bg_color
 6545              	.LVL715:
 492:lvgl/lvgl/src/extra/themes/default/lv_theme_default.c **** #endif
 6546              		.loc 1 492 5 is_stmt 1 view .LVU1993
 492:lvgl/lvgl/src/extra/themes/default/lv_theme_default.c **** #endif
 6547              		.loc 1 492 32 is_stmt 0 view .LVU1994
 6548 116c 2068     		ldr	r0, [r4]
 492:lvgl/lvgl/src/extra/themes/default/lv_theme_default.c **** #endif
 6549              		.loc 1 492 5 view .LVU1995
 6550 116e 3321     		movs	r1, #51
 6551 1170 00F5C070 		add	r0, r0, #384
 6552 1174 FFF7FEFF 		bl	lv_style_set_bg_opa
 6553              	.LVL716:
 496:lvgl/lvgl/src/extra/themes/default/lv_theme_default.c ****     lv_style_set_arc_width(&styles->colorwheel_main, lv_disp_dpx(theme.disp, 10));
 6554              		.loc 1 496 5 is_stmt 1 view .LVU1996
 496:lvgl/lvgl/src/extra/themes/default/lv_theme_default.c ****     lv_style_set_arc_width(&styles->colorwheel_main, lv_disp_dpx(theme.disp, 10));
 6555              		.loc 1 496 29 is_stmt 0 view .LVU1997
 6556 1178 2068     		ldr	r0, [r4]
 496:lvgl/lvgl/src/extra/themes/default/lv_theme_default.c ****     lv_style_set_arc_width(&styles->colorwheel_main, lv_disp_dpx(theme.disp, 10));
 6557              		.loc 1 496 5 view .LVU1998
 6558 117a 00F5C470 		add	r0, r0, #392
 6559 117e FFF7FEFF 		bl	style_init_reset
 6560              	.LVL717:
 497:lvgl/lvgl/src/extra/themes/default/lv_theme_default.c **** #endif
 6561              		.loc 1 497 5 is_stmt 1 view .LVU1999
 497:lvgl/lvgl/src/extra/themes/default/lv_theme_default.c **** #endif
 6562              		.loc 1 497 35 is_stmt 0 view .LVU2000
 6563 1182 2468     		ldr	r4, [r4]
 497:lvgl/lvgl/src/extra/themes/default/lv_theme_default.c **** #endif
 6564              		.loc 1 497 5 view .LVU2001
 6565 1184 04F5C474 		add	r4, r4, #392
 497:lvgl/lvgl/src/extra/themes/default/lv_theme_default.c **** #endif
 6566              		.loc 1 497 71 view .LVU2002
 6567 1188 AA4B     		ldr	r3, .L585
ARM GAS  C:\Users\gx\AppData\Local\Temp\ccQfGIQ4.s 			page 188


 6568 118a DD68     		ldr	r5, [r3, #12]
 6569              	.LVL718:
 6570              	.LBB643:
 6571              	.LBI643:
 236:d:\practise\f407_disc\lvgl\lvgl\src/core\lv_disp.h **** {
 6572              		.loc 3 236 26 is_stmt 1 view .LVU2003
 6573              	.LBB644:
 6574              		.loc 3 238 5 view .LVU2004
 6575              		.loc 3 238 12 is_stmt 0 view .LVU2005
 6576 118c 2846     		mov	r0, r5
 6577 118e FFF7FEFF 		bl	lv_disp_get_dpi
 6578              	.LVL719:
 6579 1192 00EB8000 		add	r0, r0, r0, lsl #2
 6580 1196 4000     		lsls	r0, r0, #1
 6581 1198 EF28     		cmp	r0, #239
 6582 119a 01F3A581 		bgt	.L497
 6583 119e 0121     		movs	r1, #1
 6584              	.L244:
 6585              	.LVL720:
 6586              		.loc 3 238 12 view .LVU2006
 6587              	.LBE644:
 6588              	.LBE643:
 497:lvgl/lvgl/src/extra/themes/default/lv_theme_default.c **** #endif
 6589              		.loc 1 497 5 view .LVU2007
 6590 11a0 2046     		mov	r0, r4
 6591 11a2 FFF7FEFF 		bl	lv_style_set_arc_width
 6592              	.LVL721:
 502:lvgl/lvgl/src/extra/themes/default/lv_theme_default.c ****     lv_style_set_pad_all(&styles->msgbox_btn_bg, lv_disp_dpx(theme.disp, 4));
 6593              		.loc 1 502 5 is_stmt 1 view .LVU2008
 502:lvgl/lvgl/src/extra/themes/default/lv_theme_default.c ****     lv_style_set_pad_all(&styles->msgbox_btn_bg, lv_disp_dpx(theme.disp, 4));
 6594              		.loc 1 502 29 is_stmt 0 view .LVU2009
 6595 11a6 A44C     		ldr	r4, .L585+4
 6596 11a8 2068     		ldr	r0, [r4]
 502:lvgl/lvgl/src/extra/themes/default/lv_theme_default.c ****     lv_style_set_pad_all(&styles->msgbox_btn_bg, lv_disp_dpx(theme.disp, 4));
 6597              		.loc 1 502 5 view .LVU2010
 6598 11aa 00F5CC70 		add	r0, r0, #408
 6599 11ae FFF7FEFF 		bl	style_init_reset
 6600              	.LVL722:
 503:lvgl/lvgl/src/extra/themes/default/lv_theme_default.c **** 
 6601              		.loc 1 503 5 is_stmt 1 view .LVU2011
 503:lvgl/lvgl/src/extra/themes/default/lv_theme_default.c **** 
 6602              		.loc 1 503 33 is_stmt 0 view .LVU2012
 6603 11b2 2568     		ldr	r5, [r4]
 503:lvgl/lvgl/src/extra/themes/default/lv_theme_default.c **** 
 6604              		.loc 1 503 5 view .LVU2013
 6605 11b4 05F5CC75 		add	r5, r5, #408
 503:lvgl/lvgl/src/extra/themes/default/lv_theme_default.c **** 
 6606              		.loc 1 503 67 view .LVU2014
 6607 11b8 9E4B     		ldr	r3, .L585
 6608 11ba DC68     		ldr	r4, [r3, #12]
 6609              	.LVL723:
 6610              	.LBB646:
 6611              	.LBI646:
 236:d:\practise\f407_disc\lvgl\lvgl\src/core\lv_disp.h **** {
 6612              		.loc 3 236 26 is_stmt 1 view .LVU2015
 6613              	.LBB647:
 6614              		.loc 3 238 5 view .LVU2016
ARM GAS  C:\Users\gx\AppData\Local\Temp\ccQfGIQ4.s 			page 189


 6615              		.loc 3 238 12 is_stmt 0 view .LVU2017
 6616 11bc 2046     		mov	r0, r4
 6617 11be FFF7FEFF 		bl	lv_disp_get_dpi
 6618              	.LVL724:
 6619 11c2 8000     		lsls	r0, r0, #2
 6620 11c4 EF28     		cmp	r0, #239
 6621 11c6 01F39F81 		bgt	.L498
 6622 11ca 0124     		movs	r4, #1
 6623              	.LVL725:
 6624              	.L245:
 6625              		.loc 3 238 12 view .LVU2018
 6626              	.LBE647:
 6627              	.LBE646:
 6628              	.LBB649:
 6629              	.LBI649:
 425:d:\practise\f407_disc\lvgl\lvgl\src\misc\lv_style.h ****     lv_style_set_pad_left(style, value);
 6630              		.loc 4 425 20 is_stmt 1 view .LVU2019
 6631              	.LBB650:
 426:d:\practise\f407_disc\lvgl\lvgl\src\misc\lv_style.h ****     lv_style_set_pad_right(style, value);
 6632              		.loc 4 426 5 view .LVU2020
 6633 11cc 2146     		mov	r1, r4
 6634 11ce 2846     		mov	r0, r5
 6635 11d0 FFF7FEFF 		bl	lv_style_set_pad_left
 6636              	.LVL726:
 427:d:\practise\f407_disc\lvgl\lvgl\src\misc\lv_style.h ****     lv_style_set_pad_top(style, value);
 6637              		.loc 4 427 5 view .LVU2021
 6638 11d4 2146     		mov	r1, r4
 6639 11d6 2846     		mov	r0, r5
 6640 11d8 FFF7FEFF 		bl	lv_style_set_pad_right
 6641              	.LVL727:
 428:d:\practise\f407_disc\lvgl\lvgl\src\misc\lv_style.h ****     lv_style_set_pad_bottom(style, value);
 6642              		.loc 4 428 5 view .LVU2022
 6643 11dc 2146     		mov	r1, r4
 6644 11de 2846     		mov	r0, r5
 6645 11e0 FFF7FEFF 		bl	lv_style_set_pad_top
 6646              	.LVL728:
 429:d:\practise\f407_disc\lvgl\lvgl\src\misc\lv_style.h **** }
 6647              		.loc 4 429 5 view .LVU2023
 6648 11e4 2146     		mov	r1, r4
 6649 11e6 2846     		mov	r0, r5
 6650 11e8 FFF7FEFF 		bl	lv_style_set_pad_bottom
 6651              	.LVL729:
 429:d:\practise\f407_disc\lvgl\lvgl\src\misc\lv_style.h **** }
 6652              		.loc 4 429 5 is_stmt 0 view .LVU2024
 6653              	.LBE650:
 6654              	.LBE649:
 505:lvgl/lvgl/src/extra/themes/default/lv_theme_default.c ****     lv_style_set_max_width(&styles->msgbox_bg, lv_pct(100));
 6655              		.loc 1 505 5 is_stmt 1 view .LVU2025
 505:lvgl/lvgl/src/extra/themes/default/lv_theme_default.c ****     lv_style_set_max_width(&styles->msgbox_bg, lv_pct(100));
 6656              		.loc 1 505 29 is_stmt 0 view .LVU2026
 6657 11ec 924C     		ldr	r4, .L585+4
 6658 11ee 2068     		ldr	r0, [r4]
 505:lvgl/lvgl/src/extra/themes/default/lv_theme_default.c ****     lv_style_set_max_width(&styles->msgbox_bg, lv_pct(100));
 6659              		.loc 1 505 5 view .LVU2027
 6660 11f0 00F5C870 		add	r0, r0, #400
 6661 11f4 FFF7FEFF 		bl	style_init_reset
 6662              	.LVL730:
ARM GAS  C:\Users\gx\AppData\Local\Temp\ccQfGIQ4.s 			page 190


 506:lvgl/lvgl/src/extra/themes/default/lv_theme_default.c **** #endif
 6663              		.loc 1 506 5 is_stmt 1 view .LVU2028
 506:lvgl/lvgl/src/extra/themes/default/lv_theme_default.c **** #endif
 6664              		.loc 1 506 35 is_stmt 0 view .LVU2029
 6665 11f8 2068     		ldr	r0, [r4]
 6666              	.LVL731:
 6667              		.file 5 "d:\\practise\\f407_disc\\lvgl\\lvgl\\src\\misc\\lv_area.h"
   1:d:\practise\f407_disc\lvgl\lvgl\src\misc\lv_area.h **** /**
   2:d:\practise\f407_disc\lvgl\lvgl\src\misc\lv_area.h ****  * @file lv_area.h
   3:d:\practise\f407_disc\lvgl\lvgl\src\misc\lv_area.h ****  *
   4:d:\practise\f407_disc\lvgl\lvgl\src\misc\lv_area.h ****  */
   5:d:\practise\f407_disc\lvgl\lvgl\src\misc\lv_area.h **** 
   6:d:\practise\f407_disc\lvgl\lvgl\src\misc\lv_area.h **** #ifndef LV_AREA_H
   7:d:\practise\f407_disc\lvgl\lvgl\src\misc\lv_area.h **** #define LV_AREA_H
   8:d:\practise\f407_disc\lvgl\lvgl\src\misc\lv_area.h **** 
   9:d:\practise\f407_disc\lvgl\lvgl\src\misc\lv_area.h **** #ifdef __cplusplus
  10:d:\practise\f407_disc\lvgl\lvgl\src\misc\lv_area.h **** extern "C" {
  11:d:\practise\f407_disc\lvgl\lvgl\src\misc\lv_area.h **** #endif
  12:d:\practise\f407_disc\lvgl\lvgl\src\misc\lv_area.h **** 
  13:d:\practise\f407_disc\lvgl\lvgl\src\misc\lv_area.h **** /*********************
  14:d:\practise\f407_disc\lvgl\lvgl\src\misc\lv_area.h ****  *      INCLUDES
  15:d:\practise\f407_disc\lvgl\lvgl\src\misc\lv_area.h ****  *********************/
  16:d:\practise\f407_disc\lvgl\lvgl\src\misc\lv_area.h **** #include "../lv_conf_internal.h"
  17:d:\practise\f407_disc\lvgl\lvgl\src\misc\lv_area.h **** #include <string.h>
  18:d:\practise\f407_disc\lvgl\lvgl\src\misc\lv_area.h **** #include <stdbool.h>
  19:d:\practise\f407_disc\lvgl\lvgl\src\misc\lv_area.h **** #include <stdint.h>
  20:d:\practise\f407_disc\lvgl\lvgl\src\misc\lv_area.h **** 
  21:d:\practise\f407_disc\lvgl\lvgl\src\misc\lv_area.h **** /*********************
  22:d:\practise\f407_disc\lvgl\lvgl\src\misc\lv_area.h ****  *      DEFINES
  23:d:\practise\f407_disc\lvgl\lvgl\src\misc\lv_area.h ****  *********************/
  24:d:\practise\f407_disc\lvgl\lvgl\src\misc\lv_area.h **** 
  25:d:\practise\f407_disc\lvgl\lvgl\src\misc\lv_area.h **** #define _LV_COORD_MAX_REDUCE    8192
  26:d:\practise\f407_disc\lvgl\lvgl\src\misc\lv_area.h **** 
  27:d:\practise\f407_disc\lvgl\lvgl\src\misc\lv_area.h **** #if LV_USE_LARGE_COORD
  28:d:\practise\f407_disc\lvgl\lvgl\src\misc\lv_area.h **** typedef int32_t lv_coord_t;
  29:d:\practise\f407_disc\lvgl\lvgl\src\misc\lv_area.h **** #else
  30:d:\practise\f407_disc\lvgl\lvgl\src\misc\lv_area.h **** typedef int16_t lv_coord_t;
  31:d:\practise\f407_disc\lvgl\lvgl\src\misc\lv_area.h **** #endif
  32:d:\practise\f407_disc\lvgl\lvgl\src\misc\lv_area.h **** 
  33:d:\practise\f407_disc\lvgl\lvgl\src\misc\lv_area.h **** /*To allow some special values in the end reduce the max value*/
  34:d:\practise\f407_disc\lvgl\lvgl\src\misc\lv_area.h **** #define LV_COORD_MAX ((lv_coord_t)((uint32_t)((uint32_t)1 << (8 * sizeof(lv_coord_t) - 1)) - _LV_CO
  35:d:\practise\f407_disc\lvgl\lvgl\src\misc\lv_area.h **** #define LV_COORD_MIN (-LV_COORD_MAX)
  36:d:\practise\f407_disc\lvgl\lvgl\src\misc\lv_area.h **** 
  37:d:\practise\f407_disc\lvgl\lvgl\src\misc\lv_area.h **** LV_EXPORT_CONST_INT(LV_COORD_MAX);
  38:d:\practise\f407_disc\lvgl\lvgl\src\misc\lv_area.h **** LV_EXPORT_CONST_INT(LV_COORD_MIN);
  39:d:\practise\f407_disc\lvgl\lvgl\src\misc\lv_area.h **** 
  40:d:\practise\f407_disc\lvgl\lvgl\src\misc\lv_area.h **** /**********************
  41:d:\practise\f407_disc\lvgl\lvgl\src\misc\lv_area.h ****  *      TYPEDEFS
  42:d:\practise\f407_disc\lvgl\lvgl\src\misc\lv_area.h ****  **********************/
  43:d:\practise\f407_disc\lvgl\lvgl\src\misc\lv_area.h **** 
  44:d:\practise\f407_disc\lvgl\lvgl\src\misc\lv_area.h **** /**
  45:d:\practise\f407_disc\lvgl\lvgl\src\misc\lv_area.h ****  * Represents a point on the screen.
  46:d:\practise\f407_disc\lvgl\lvgl\src\misc\lv_area.h ****  */
  47:d:\practise\f407_disc\lvgl\lvgl\src\misc\lv_area.h **** typedef struct {
  48:d:\practise\f407_disc\lvgl\lvgl\src\misc\lv_area.h ****     lv_coord_t x;
  49:d:\practise\f407_disc\lvgl\lvgl\src\misc\lv_area.h ****     lv_coord_t y;
  50:d:\practise\f407_disc\lvgl\lvgl\src\misc\lv_area.h **** } lv_point_t;
ARM GAS  C:\Users\gx\AppData\Local\Temp\ccQfGIQ4.s 			page 191


  51:d:\practise\f407_disc\lvgl\lvgl\src\misc\lv_area.h **** 
  52:d:\practise\f407_disc\lvgl\lvgl\src\misc\lv_area.h **** /** Represents an area of the screen.*/
  53:d:\practise\f407_disc\lvgl\lvgl\src\misc\lv_area.h **** typedef struct {
  54:d:\practise\f407_disc\lvgl\lvgl\src\misc\lv_area.h ****     lv_coord_t x1;
  55:d:\practise\f407_disc\lvgl\lvgl\src\misc\lv_area.h ****     lv_coord_t y1;
  56:d:\practise\f407_disc\lvgl\lvgl\src\misc\lv_area.h ****     lv_coord_t x2;
  57:d:\practise\f407_disc\lvgl\lvgl\src\misc\lv_area.h ****     lv_coord_t y2;
  58:d:\practise\f407_disc\lvgl\lvgl\src\misc\lv_area.h **** } lv_area_t;
  59:d:\practise\f407_disc\lvgl\lvgl\src\misc\lv_area.h **** 
  60:d:\practise\f407_disc\lvgl\lvgl\src\misc\lv_area.h **** /** Alignments*/
  61:d:\practise\f407_disc\lvgl\lvgl\src\misc\lv_area.h **** enum {
  62:d:\practise\f407_disc\lvgl\lvgl\src\misc\lv_area.h ****     LV_ALIGN_DEFAULT = 0,
  63:d:\practise\f407_disc\lvgl\lvgl\src\misc\lv_area.h ****     LV_ALIGN_TOP_LEFT,
  64:d:\practise\f407_disc\lvgl\lvgl\src\misc\lv_area.h ****     LV_ALIGN_TOP_MID,
  65:d:\practise\f407_disc\lvgl\lvgl\src\misc\lv_area.h ****     LV_ALIGN_TOP_RIGHT,
  66:d:\practise\f407_disc\lvgl\lvgl\src\misc\lv_area.h ****     LV_ALIGN_BOTTOM_LEFT,
  67:d:\practise\f407_disc\lvgl\lvgl\src\misc\lv_area.h ****     LV_ALIGN_BOTTOM_MID,
  68:d:\practise\f407_disc\lvgl\lvgl\src\misc\lv_area.h ****     LV_ALIGN_BOTTOM_RIGHT,
  69:d:\practise\f407_disc\lvgl\lvgl\src\misc\lv_area.h ****     LV_ALIGN_LEFT_MID,
  70:d:\practise\f407_disc\lvgl\lvgl\src\misc\lv_area.h ****     LV_ALIGN_RIGHT_MID,
  71:d:\practise\f407_disc\lvgl\lvgl\src\misc\lv_area.h ****     LV_ALIGN_CENTER,
  72:d:\practise\f407_disc\lvgl\lvgl\src\misc\lv_area.h **** 
  73:d:\practise\f407_disc\lvgl\lvgl\src\misc\lv_area.h ****     LV_ALIGN_OUT_TOP_LEFT,
  74:d:\practise\f407_disc\lvgl\lvgl\src\misc\lv_area.h ****     LV_ALIGN_OUT_TOP_MID,
  75:d:\practise\f407_disc\lvgl\lvgl\src\misc\lv_area.h ****     LV_ALIGN_OUT_TOP_RIGHT,
  76:d:\practise\f407_disc\lvgl\lvgl\src\misc\lv_area.h ****     LV_ALIGN_OUT_BOTTOM_LEFT,
  77:d:\practise\f407_disc\lvgl\lvgl\src\misc\lv_area.h ****     LV_ALIGN_OUT_BOTTOM_MID,
  78:d:\practise\f407_disc\lvgl\lvgl\src\misc\lv_area.h ****     LV_ALIGN_OUT_BOTTOM_RIGHT,
  79:d:\practise\f407_disc\lvgl\lvgl\src\misc\lv_area.h ****     LV_ALIGN_OUT_LEFT_TOP,
  80:d:\practise\f407_disc\lvgl\lvgl\src\misc\lv_area.h ****     LV_ALIGN_OUT_LEFT_MID,
  81:d:\practise\f407_disc\lvgl\lvgl\src\misc\lv_area.h ****     LV_ALIGN_OUT_LEFT_BOTTOM,
  82:d:\practise\f407_disc\lvgl\lvgl\src\misc\lv_area.h ****     LV_ALIGN_OUT_RIGHT_TOP,
  83:d:\practise\f407_disc\lvgl\lvgl\src\misc\lv_area.h ****     LV_ALIGN_OUT_RIGHT_MID,
  84:d:\practise\f407_disc\lvgl\lvgl\src\misc\lv_area.h ****     LV_ALIGN_OUT_RIGHT_BOTTOM,
  85:d:\practise\f407_disc\lvgl\lvgl\src\misc\lv_area.h **** };
  86:d:\practise\f407_disc\lvgl\lvgl\src\misc\lv_area.h **** typedef uint8_t lv_align_t;
  87:d:\practise\f407_disc\lvgl\lvgl\src\misc\lv_area.h **** 
  88:d:\practise\f407_disc\lvgl\lvgl\src\misc\lv_area.h **** enum {
  89:d:\practise\f407_disc\lvgl\lvgl\src\misc\lv_area.h ****     LV_DIR_NONE     = 0x00,
  90:d:\practise\f407_disc\lvgl\lvgl\src\misc\lv_area.h ****     LV_DIR_LEFT     = (1 << 0),
  91:d:\practise\f407_disc\lvgl\lvgl\src\misc\lv_area.h ****     LV_DIR_RIGHT    = (1 << 1),
  92:d:\practise\f407_disc\lvgl\lvgl\src\misc\lv_area.h ****     LV_DIR_TOP      = (1 << 2),
  93:d:\practise\f407_disc\lvgl\lvgl\src\misc\lv_area.h ****     LV_DIR_BOTTOM   = (1 << 3),
  94:d:\practise\f407_disc\lvgl\lvgl\src\misc\lv_area.h ****     LV_DIR_HOR      = LV_DIR_LEFT | LV_DIR_RIGHT,
  95:d:\practise\f407_disc\lvgl\lvgl\src\misc\lv_area.h ****     LV_DIR_VER      = LV_DIR_TOP | LV_DIR_BOTTOM,
  96:d:\practise\f407_disc\lvgl\lvgl\src\misc\lv_area.h ****     LV_DIR_ALL      = LV_DIR_HOR | LV_DIR_VER,
  97:d:\practise\f407_disc\lvgl\lvgl\src\misc\lv_area.h **** };
  98:d:\practise\f407_disc\lvgl\lvgl\src\misc\lv_area.h **** 
  99:d:\practise\f407_disc\lvgl\lvgl\src\misc\lv_area.h **** typedef uint8_t lv_dir_t;
 100:d:\practise\f407_disc\lvgl\lvgl\src\misc\lv_area.h **** 
 101:d:\practise\f407_disc\lvgl\lvgl\src\misc\lv_area.h **** /**********************
 102:d:\practise\f407_disc\lvgl\lvgl\src\misc\lv_area.h ****  * GLOBAL PROTOTYPES
 103:d:\practise\f407_disc\lvgl\lvgl\src\misc\lv_area.h ****  **********************/
 104:d:\practise\f407_disc\lvgl\lvgl\src\misc\lv_area.h **** 
 105:d:\practise\f407_disc\lvgl\lvgl\src\misc\lv_area.h **** /**
 106:d:\practise\f407_disc\lvgl\lvgl\src\misc\lv_area.h ****  * Initialize an area
 107:d:\practise\f407_disc\lvgl\lvgl\src\misc\lv_area.h ****  * @param area_p pointer to an area
ARM GAS  C:\Users\gx\AppData\Local\Temp\ccQfGIQ4.s 			page 192


 108:d:\practise\f407_disc\lvgl\lvgl\src\misc\lv_area.h ****  * @param x1 left coordinate of the area
 109:d:\practise\f407_disc\lvgl\lvgl\src\misc\lv_area.h ****  * @param y1 top coordinate of the area
 110:d:\practise\f407_disc\lvgl\lvgl\src\misc\lv_area.h ****  * @param x2 right coordinate of the area
 111:d:\practise\f407_disc\lvgl\lvgl\src\misc\lv_area.h ****  * @param y2 bottom coordinate of the area
 112:d:\practise\f407_disc\lvgl\lvgl\src\misc\lv_area.h ****  */
 113:d:\practise\f407_disc\lvgl\lvgl\src\misc\lv_area.h **** void lv_area_set(lv_area_t * area_p, lv_coord_t x1, lv_coord_t y1, lv_coord_t x2, lv_coord_t y2);
 114:d:\practise\f407_disc\lvgl\lvgl\src\misc\lv_area.h **** 
 115:d:\practise\f407_disc\lvgl\lvgl\src\misc\lv_area.h **** /**
 116:d:\practise\f407_disc\lvgl\lvgl\src\misc\lv_area.h ****  * Copy an area
 117:d:\practise\f407_disc\lvgl\lvgl\src\misc\lv_area.h ****  * @param dest pointer to the destination area
 118:d:\practise\f407_disc\lvgl\lvgl\src\misc\lv_area.h ****  * @param src pointer to the source area
 119:d:\practise\f407_disc\lvgl\lvgl\src\misc\lv_area.h ****  */
 120:d:\practise\f407_disc\lvgl\lvgl\src\misc\lv_area.h **** inline static void lv_area_copy(lv_area_t * dest, const lv_area_t * src)
 121:d:\practise\f407_disc\lvgl\lvgl\src\misc\lv_area.h **** {
 122:d:\practise\f407_disc\lvgl\lvgl\src\misc\lv_area.h ****     dest->x1 = src->x1;
 123:d:\practise\f407_disc\lvgl\lvgl\src\misc\lv_area.h ****     dest->y1 = src->y1;
 124:d:\practise\f407_disc\lvgl\lvgl\src\misc\lv_area.h ****     dest->x2 = src->x2;
 125:d:\practise\f407_disc\lvgl\lvgl\src\misc\lv_area.h ****     dest->y2 = src->y2;
 126:d:\practise\f407_disc\lvgl\lvgl\src\misc\lv_area.h **** }
 127:d:\practise\f407_disc\lvgl\lvgl\src\misc\lv_area.h **** 
 128:d:\practise\f407_disc\lvgl\lvgl\src\misc\lv_area.h **** /**
 129:d:\practise\f407_disc\lvgl\lvgl\src\misc\lv_area.h ****  * Get the width of an area
 130:d:\practise\f407_disc\lvgl\lvgl\src\misc\lv_area.h ****  * @param area_p pointer to an area
 131:d:\practise\f407_disc\lvgl\lvgl\src\misc\lv_area.h ****  * @return the width of the area (if x1 == x2 -> width = 1)
 132:d:\practise\f407_disc\lvgl\lvgl\src\misc\lv_area.h ****  */
 133:d:\practise\f407_disc\lvgl\lvgl\src\misc\lv_area.h **** static inline lv_coord_t lv_area_get_width(const lv_area_t * area_p)
 134:d:\practise\f407_disc\lvgl\lvgl\src\misc\lv_area.h **** {
 135:d:\practise\f407_disc\lvgl\lvgl\src\misc\lv_area.h ****     return (lv_coord_t)(area_p->x2 - area_p->x1 + 1);
 136:d:\practise\f407_disc\lvgl\lvgl\src\misc\lv_area.h **** }
 137:d:\practise\f407_disc\lvgl\lvgl\src\misc\lv_area.h **** 
 138:d:\practise\f407_disc\lvgl\lvgl\src\misc\lv_area.h **** /**
 139:d:\practise\f407_disc\lvgl\lvgl\src\misc\lv_area.h ****  * Get the height of an area
 140:d:\practise\f407_disc\lvgl\lvgl\src\misc\lv_area.h ****  * @param area_p pointer to an area
 141:d:\practise\f407_disc\lvgl\lvgl\src\misc\lv_area.h ****  * @return the height of the area (if y1 == y2 -> height = 1)
 142:d:\practise\f407_disc\lvgl\lvgl\src\misc\lv_area.h ****  */
 143:d:\practise\f407_disc\lvgl\lvgl\src\misc\lv_area.h **** static inline lv_coord_t lv_area_get_height(const lv_area_t * area_p)
 144:d:\practise\f407_disc\lvgl\lvgl\src\misc\lv_area.h **** {
 145:d:\practise\f407_disc\lvgl\lvgl\src\misc\lv_area.h ****     return (lv_coord_t)(area_p->y2 - area_p->y1 + 1);
 146:d:\practise\f407_disc\lvgl\lvgl\src\misc\lv_area.h **** }
 147:d:\practise\f407_disc\lvgl\lvgl\src\misc\lv_area.h **** 
 148:d:\practise\f407_disc\lvgl\lvgl\src\misc\lv_area.h **** /**
 149:d:\practise\f407_disc\lvgl\lvgl\src\misc\lv_area.h ****  * Set the width of an area
 150:d:\practise\f407_disc\lvgl\lvgl\src\misc\lv_area.h ****  * @param area_p pointer to an area
 151:d:\practise\f407_disc\lvgl\lvgl\src\misc\lv_area.h ****  * @param w the new width of the area (w == 1 makes x1 == x2)
 152:d:\practise\f407_disc\lvgl\lvgl\src\misc\lv_area.h ****  */
 153:d:\practise\f407_disc\lvgl\lvgl\src\misc\lv_area.h **** void lv_area_set_width(lv_area_t * area_p, lv_coord_t w);
 154:d:\practise\f407_disc\lvgl\lvgl\src\misc\lv_area.h **** 
 155:d:\practise\f407_disc\lvgl\lvgl\src\misc\lv_area.h **** /**
 156:d:\practise\f407_disc\lvgl\lvgl\src\misc\lv_area.h ****  * Set the height of an area
 157:d:\practise\f407_disc\lvgl\lvgl\src\misc\lv_area.h ****  * @param area_p pointer to an area
 158:d:\practise\f407_disc\lvgl\lvgl\src\misc\lv_area.h ****  * @param h the new height of the area (h == 1 makes y1 == y2)
 159:d:\practise\f407_disc\lvgl\lvgl\src\misc\lv_area.h ****  */
 160:d:\practise\f407_disc\lvgl\lvgl\src\misc\lv_area.h **** void lv_area_set_height(lv_area_t * area_p, lv_coord_t h);
 161:d:\practise\f407_disc\lvgl\lvgl\src\misc\lv_area.h **** 
 162:d:\practise\f407_disc\lvgl\lvgl\src\misc\lv_area.h **** /**
 163:d:\practise\f407_disc\lvgl\lvgl\src\misc\lv_area.h ****  * Set the position of an area (width and height will be kept)
 164:d:\practise\f407_disc\lvgl\lvgl\src\misc\lv_area.h ****  * @param area_p pointer to an area
ARM GAS  C:\Users\gx\AppData\Local\Temp\ccQfGIQ4.s 			page 193


 165:d:\practise\f407_disc\lvgl\lvgl\src\misc\lv_area.h ****  * @param x the new x coordinate of the area
 166:d:\practise\f407_disc\lvgl\lvgl\src\misc\lv_area.h ****  * @param y the new y coordinate of the area
 167:d:\practise\f407_disc\lvgl\lvgl\src\misc\lv_area.h ****  */
 168:d:\practise\f407_disc\lvgl\lvgl\src\misc\lv_area.h **** void _lv_area_set_pos(lv_area_t * area_p, lv_coord_t x, lv_coord_t y);
 169:d:\practise\f407_disc\lvgl\lvgl\src\misc\lv_area.h **** 
 170:d:\practise\f407_disc\lvgl\lvgl\src\misc\lv_area.h **** /**
 171:d:\practise\f407_disc\lvgl\lvgl\src\misc\lv_area.h ****  * Return with area of an area (x * y)
 172:d:\practise\f407_disc\lvgl\lvgl\src\misc\lv_area.h ****  * @param area_p pointer to an area
 173:d:\practise\f407_disc\lvgl\lvgl\src\misc\lv_area.h ****  * @return size of area
 174:d:\practise\f407_disc\lvgl\lvgl\src\misc\lv_area.h ****  */
 175:d:\practise\f407_disc\lvgl\lvgl\src\misc\lv_area.h **** uint32_t lv_area_get_size(const lv_area_t * area_p);
 176:d:\practise\f407_disc\lvgl\lvgl\src\misc\lv_area.h **** 
 177:d:\practise\f407_disc\lvgl\lvgl\src\misc\lv_area.h **** void lv_area_increase(lv_area_t * area, lv_coord_t w_extra, lv_coord_t h_extra);
 178:d:\practise\f407_disc\lvgl\lvgl\src\misc\lv_area.h **** 
 179:d:\practise\f407_disc\lvgl\lvgl\src\misc\lv_area.h **** void lv_area_move(lv_area_t * area, lv_coord_t x_ofs, lv_coord_t y_ofs);
 180:d:\practise\f407_disc\lvgl\lvgl\src\misc\lv_area.h **** 
 181:d:\practise\f407_disc\lvgl\lvgl\src\misc\lv_area.h **** /**
 182:d:\practise\f407_disc\lvgl\lvgl\src\misc\lv_area.h ****  * Get the common parts of two areas
 183:d:\practise\f407_disc\lvgl\lvgl\src\misc\lv_area.h ****  * @param res_p pointer to an area, the result will be stored her
 184:d:\practise\f407_disc\lvgl\lvgl\src\misc\lv_area.h ****  * @param a1_p pointer to the first area
 185:d:\practise\f407_disc\lvgl\lvgl\src\misc\lv_area.h ****  * @param a2_p pointer to the second area
 186:d:\practise\f407_disc\lvgl\lvgl\src\misc\lv_area.h ****  * @return false: the two area has NO common parts, res_p is invalid
 187:d:\practise\f407_disc\lvgl\lvgl\src\misc\lv_area.h ****  */
 188:d:\practise\f407_disc\lvgl\lvgl\src\misc\lv_area.h **** bool _lv_area_intersect(lv_area_t * res_p, const lv_area_t * a1_p, const lv_area_t * a2_p);
 189:d:\practise\f407_disc\lvgl\lvgl\src\misc\lv_area.h **** 
 190:d:\practise\f407_disc\lvgl\lvgl\src\misc\lv_area.h **** /**
 191:d:\practise\f407_disc\lvgl\lvgl\src\misc\lv_area.h ****  * Join two areas into a third which involves the other two
 192:d:\practise\f407_disc\lvgl\lvgl\src\misc\lv_area.h ****  * @param res_p pointer to an area, the result will be stored here
 193:d:\practise\f407_disc\lvgl\lvgl\src\misc\lv_area.h ****  * @param a1_p pointer to the first area
 194:d:\practise\f407_disc\lvgl\lvgl\src\misc\lv_area.h ****  * @param a2_p pointer to the second area
 195:d:\practise\f407_disc\lvgl\lvgl\src\misc\lv_area.h ****  */
 196:d:\practise\f407_disc\lvgl\lvgl\src\misc\lv_area.h **** void _lv_area_join(lv_area_t * a_res_p, const lv_area_t * a1_p, const lv_area_t * a2_p);
 197:d:\practise\f407_disc\lvgl\lvgl\src\misc\lv_area.h **** 
 198:d:\practise\f407_disc\lvgl\lvgl\src\misc\lv_area.h **** /**
 199:d:\practise\f407_disc\lvgl\lvgl\src\misc\lv_area.h ****  * Check if a point is on an area
 200:d:\practise\f407_disc\lvgl\lvgl\src\misc\lv_area.h ****  * @param a_p pointer to an area
 201:d:\practise\f407_disc\lvgl\lvgl\src\misc\lv_area.h ****  * @param p_p pointer to a point
 202:d:\practise\f407_disc\lvgl\lvgl\src\misc\lv_area.h ****  * @param radius radius of area (e.g. for rounded rectangle)
 203:d:\practise\f407_disc\lvgl\lvgl\src\misc\lv_area.h ****  * @return false:the point is out of the area
 204:d:\practise\f407_disc\lvgl\lvgl\src\misc\lv_area.h ****  */
 205:d:\practise\f407_disc\lvgl\lvgl\src\misc\lv_area.h **** bool _lv_area_is_point_on(const lv_area_t * a_p, const lv_point_t * p_p, lv_coord_t radius);
 206:d:\practise\f407_disc\lvgl\lvgl\src\misc\lv_area.h **** 
 207:d:\practise\f407_disc\lvgl\lvgl\src\misc\lv_area.h **** /**
 208:d:\practise\f407_disc\lvgl\lvgl\src\misc\lv_area.h ****  * Check if two area has common parts
 209:d:\practise\f407_disc\lvgl\lvgl\src\misc\lv_area.h ****  * @param a1_p pointer to an area.
 210:d:\practise\f407_disc\lvgl\lvgl\src\misc\lv_area.h ****  * @param a2_p pointer to an other area
 211:d:\practise\f407_disc\lvgl\lvgl\src\misc\lv_area.h ****  * @return false: a1_p and a2_p has no common parts
 212:d:\practise\f407_disc\lvgl\lvgl\src\misc\lv_area.h ****  */
 213:d:\practise\f407_disc\lvgl\lvgl\src\misc\lv_area.h **** bool _lv_area_is_on(const lv_area_t * a1_p, const lv_area_t * a2_p);
 214:d:\practise\f407_disc\lvgl\lvgl\src\misc\lv_area.h **** 
 215:d:\practise\f407_disc\lvgl\lvgl\src\misc\lv_area.h **** /**
 216:d:\practise\f407_disc\lvgl\lvgl\src\misc\lv_area.h ****  * Check if an area is fully on an other
 217:d:\practise\f407_disc\lvgl\lvgl\src\misc\lv_area.h ****  * @param ain_p pointer to an area which could be in 'aholder_p'
 218:d:\practise\f407_disc\lvgl\lvgl\src\misc\lv_area.h ****  * @param aholder_p pointer to an area which could involve 'ain_p'
 219:d:\practise\f407_disc\lvgl\lvgl\src\misc\lv_area.h ****  * @param radius radius of `aholder_p` (e.g. for rounded rectangle)
 220:d:\practise\f407_disc\lvgl\lvgl\src\misc\lv_area.h ****  * @return true: `ain_p` is fully inside `aholder_p`
 221:d:\practise\f407_disc\lvgl\lvgl\src\misc\lv_area.h ****  */
ARM GAS  C:\Users\gx\AppData\Local\Temp\ccQfGIQ4.s 			page 194


 222:d:\practise\f407_disc\lvgl\lvgl\src\misc\lv_area.h **** bool _lv_area_is_in(const lv_area_t * ain_p, const lv_area_t * aholder_p, lv_coord_t radius);
 223:d:\practise\f407_disc\lvgl\lvgl\src\misc\lv_area.h **** 
 224:d:\practise\f407_disc\lvgl\lvgl\src\misc\lv_area.h **** 
 225:d:\practise\f407_disc\lvgl\lvgl\src\misc\lv_area.h **** /**
 226:d:\practise\f407_disc\lvgl\lvgl\src\misc\lv_area.h ****  * Check if an area is fully out of an other
 227:d:\practise\f407_disc\lvgl\lvgl\src\misc\lv_area.h ****  * @param aout_p pointer to an area which could be in 'aholder_p'
 228:d:\practise\f407_disc\lvgl\lvgl\src\misc\lv_area.h ****  * @param aholder_p pointer to an area which could involve 'ain_p'
 229:d:\practise\f407_disc\lvgl\lvgl\src\misc\lv_area.h ****  * @param radius radius of `aholder_p` (e.g. for rounded rectangle)
 230:d:\practise\f407_disc\lvgl\lvgl\src\misc\lv_area.h ****  * @return true: `aout_p` is fully outside `aholder_p`
 231:d:\practise\f407_disc\lvgl\lvgl\src\misc\lv_area.h ****  */
 232:d:\practise\f407_disc\lvgl\lvgl\src\misc\lv_area.h **** bool _lv_area_is_out(const lv_area_t * aout_p, const lv_area_t * aholder_p, lv_coord_t radius);
 233:d:\practise\f407_disc\lvgl\lvgl\src\misc\lv_area.h **** 
 234:d:\practise\f407_disc\lvgl\lvgl\src\misc\lv_area.h **** /**
 235:d:\practise\f407_disc\lvgl\lvgl\src\misc\lv_area.h ****  * Align an area to an other
 236:d:\practise\f407_disc\lvgl\lvgl\src\misc\lv_area.h ****  * @param base an are where the other will be aligned
 237:d:\practise\f407_disc\lvgl\lvgl\src\misc\lv_area.h ****  * @param to_align the area to align
 238:d:\practise\f407_disc\lvgl\lvgl\src\misc\lv_area.h ****  * @param align `LV_ALIGN_...`
 239:d:\practise\f407_disc\lvgl\lvgl\src\misc\lv_area.h ****  */
 240:d:\practise\f407_disc\lvgl\lvgl\src\misc\lv_area.h **** void lv_area_align(const lv_area_t * base, lv_area_t * to_align, lv_align_t align, lv_coord_t ofs_x
 241:d:\practise\f407_disc\lvgl\lvgl\src\misc\lv_area.h **** 
 242:d:\practise\f407_disc\lvgl\lvgl\src\misc\lv_area.h **** /**********************
 243:d:\practise\f407_disc\lvgl\lvgl\src\misc\lv_area.h ****  *      MACROS
 244:d:\practise\f407_disc\lvgl\lvgl\src\misc\lv_area.h ****  **********************/
 245:d:\practise\f407_disc\lvgl\lvgl\src\misc\lv_area.h **** 
 246:d:\practise\f407_disc\lvgl\lvgl\src\misc\lv_area.h **** #if LV_USE_LARGE_COORD
 247:d:\practise\f407_disc\lvgl\lvgl\src\misc\lv_area.h **** #define _LV_COORD_TYPE_SHIFT    (29)
 248:d:\practise\f407_disc\lvgl\lvgl\src\misc\lv_area.h **** #else
 249:d:\practise\f407_disc\lvgl\lvgl\src\misc\lv_area.h **** #define _LV_COORD_TYPE_SHIFT    (13)
 250:d:\practise\f407_disc\lvgl\lvgl\src\misc\lv_area.h **** #endif
 251:d:\practise\f407_disc\lvgl\lvgl\src\misc\lv_area.h **** 
 252:d:\practise\f407_disc\lvgl\lvgl\src\misc\lv_area.h **** #define _LV_COORD_TYPE_MASK     (3 << _LV_COORD_TYPE_SHIFT)
 253:d:\practise\f407_disc\lvgl\lvgl\src\misc\lv_area.h **** #define _LV_COORD_PLAIN(x)      ((x) & (~_LV_COORD_TYPE_MASK))  /*Remove type specifiers*/
 254:d:\practise\f407_disc\lvgl\lvgl\src\misc\lv_area.h **** 
 255:d:\practise\f407_disc\lvgl\lvgl\src\misc\lv_area.h **** #define _LV_COORD_TYPE_PX       (0 << _LV_COORD_TYPE_SHIFT)
 256:d:\practise\f407_disc\lvgl\lvgl\src\misc\lv_area.h **** #define _LV_COORD_TYPE_SPEC     (1 << _LV_COORD_TYPE_SHIFT)
 257:d:\practise\f407_disc\lvgl\lvgl\src\misc\lv_area.h **** #define _LV_COORD_TYPE_RESERVED (3 << _LV_COORD_TYPE_SHIFT)
 258:d:\practise\f407_disc\lvgl\lvgl\src\misc\lv_area.h **** 
 259:d:\practise\f407_disc\lvgl\lvgl\src\misc\lv_area.h **** #define LV_COORD_IS_PX(x)     ((((x) & _LV_COORD_TYPE_MASK) == _LV_COORD_TYPE_PX) ? true : false)
 260:d:\practise\f407_disc\lvgl\lvgl\src\misc\lv_area.h **** #define LV_COORD_IS_SPEC(x)   ((((x) & _LV_COORD_TYPE_MASK) == _LV_COORD_TYPE_SPEC) ? true : false)
 261:d:\practise\f407_disc\lvgl\lvgl\src\misc\lv_area.h **** 
 262:d:\practise\f407_disc\lvgl\lvgl\src\misc\lv_area.h **** #define LV_COORD_SET_SPEC(x)   ((x) | _LV_COORD_TYPE_SPEC)
 263:d:\practise\f407_disc\lvgl\lvgl\src\misc\lv_area.h **** 
 264:d:\practise\f407_disc\lvgl\lvgl\src\misc\lv_area.h **** /*Special coordinates*/
 265:d:\practise\f407_disc\lvgl\lvgl\src\misc\lv_area.h **** #define LV_PCT(x)               (x < 0 ? LV_COORD_SET_SPEC(1000 - (x)) : LV_COORD_SET_SPEC(x))
 266:d:\practise\f407_disc\lvgl\lvgl\src\misc\lv_area.h **** #define LV_COORD_IS_PCT(x)      ((LV_COORD_IS_SPEC(x) && _LV_COORD_PLAIN(x) <= 2000) ? true : false
 267:d:\practise\f407_disc\lvgl\lvgl\src\misc\lv_area.h **** #define LV_COORD_GET_PCT(x)     (_LV_COORD_PLAIN(x) > 1000 ? 1000 - _LV_COORD_PLAIN(x) : _LV_COORD_
 268:d:\practise\f407_disc\lvgl\lvgl\src\misc\lv_area.h **** #define LV_SIZE_CONTENT         LV_COORD_SET_SPEC(2001)
 269:d:\practise\f407_disc\lvgl\lvgl\src\misc\lv_area.h **** 
 270:d:\practise\f407_disc\lvgl\lvgl\src\misc\lv_area.h **** LV_EXPORT_CONST_INT(LV_SIZE_CONTENT);
 271:d:\practise\f407_disc\lvgl\lvgl\src\misc\lv_area.h **** 
 272:d:\practise\f407_disc\lvgl\lvgl\src\misc\lv_area.h **** /**
 273:d:\practise\f407_disc\lvgl\lvgl\src\misc\lv_area.h ****  * Convert a percentage value to `lv_coord_t`.
 274:d:\practise\f407_disc\lvgl\lvgl\src\misc\lv_area.h ****  * Percentage values are stored in special range
 275:d:\practise\f407_disc\lvgl\lvgl\src\misc\lv_area.h ****  * @param x the percentage (0..1000)
 276:d:\practise\f407_disc\lvgl\lvgl\src\misc\lv_area.h ****  * @return a coordinate that stores the percentage
 277:d:\practise\f407_disc\lvgl\lvgl\src\misc\lv_area.h ****  */
 278:d:\practise\f407_disc\lvgl\lvgl\src\misc\lv_area.h **** static inline lv_coord_t lv_pct(lv_coord_t x)
ARM GAS  C:\Users\gx\AppData\Local\Temp\ccQfGIQ4.s 			page 195


 279:d:\practise\f407_disc\lvgl\lvgl\src\misc\lv_area.h **** {
 280:d:\practise\f407_disc\lvgl\lvgl\src\misc\lv_area.h ****     return LV_PCT(x);
 6668              		.loc 5 280 5 is_stmt 1 view .LVU2030
 506:lvgl/lvgl/src/extra/themes/default/lv_theme_default.c **** #endif
 6669              		.loc 1 506 5 is_stmt 0 view .LVU2031
 6670 11fa 42F26401 		movw	r1, #8292
 6671 11fe 00F5C870 		add	r0, r0, #400
 6672 1202 FFF7FEFF 		bl	lv_style_set_max_width
 6673              	.LVL732:
 509:lvgl/lvgl/src/extra/themes/default/lv_theme_default.c ****     lv_style_set_shadow_width(&styles->keyboard_btn_bg, 0);
 6674              		.loc 1 509 5 is_stmt 1 view .LVU2032
 509:lvgl/lvgl/src/extra/themes/default/lv_theme_default.c ****     lv_style_set_shadow_width(&styles->keyboard_btn_bg, 0);
 6675              		.loc 1 509 29 is_stmt 0 view .LVU2033
 6676 1206 2068     		ldr	r0, [r4]
 509:lvgl/lvgl/src/extra/themes/default/lv_theme_default.c ****     lv_style_set_shadow_width(&styles->keyboard_btn_bg, 0);
 6677              		.loc 1 509 5 view .LVU2034
 6678 1208 00F5D070 		add	r0, r0, #416
 6679 120c FFF7FEFF 		bl	style_init_reset
 6680              	.LVL733:
 510:lvgl/lvgl/src/extra/themes/default/lv_theme_default.c ****     lv_style_set_radius(&styles->keyboard_btn_bg, disp_size == DISP_SMALL ? RADIUS_DEFAULT / 2 : RA
 6681              		.loc 1 510 5 is_stmt 1 view .LVU2035
 510:lvgl/lvgl/src/extra/themes/default/lv_theme_default.c ****     lv_style_set_radius(&styles->keyboard_btn_bg, disp_size == DISP_SMALL ? RADIUS_DEFAULT / 2 : RA
 6682              		.loc 1 510 38 is_stmt 0 view .LVU2036
 6683 1210 2068     		ldr	r0, [r4]
 510:lvgl/lvgl/src/extra/themes/default/lv_theme_default.c ****     lv_style_set_radius(&styles->keyboard_btn_bg, disp_size == DISP_SMALL ? RADIUS_DEFAULT / 2 : RA
 6684              		.loc 1 510 5 view .LVU2037
 6685 1212 0021     		movs	r1, #0
 6686 1214 00F5D070 		add	r0, r0, #416
 6687 1218 FFF7FEFF 		bl	lv_style_set_shadow_width
 6688              	.LVL734:
 511:lvgl/lvgl/src/extra/themes/default/lv_theme_default.c **** #endif
 6689              		.loc 1 511 5 is_stmt 1 view .LVU2038
 511:lvgl/lvgl/src/extra/themes/default/lv_theme_default.c **** #endif
 6690              		.loc 1 511 32 is_stmt 0 view .LVU2039
 6691 121c 2468     		ldr	r4, [r4]
 511:lvgl/lvgl/src/extra/themes/default/lv_theme_default.c **** #endif
 6692              		.loc 1 511 5 view .LVU2040
 6693 121e 04F5D074 		add	r4, r4, #416
 511:lvgl/lvgl/src/extra/themes/default/lv_theme_default.c **** #endif
 6694              		.loc 1 511 61 view .LVU2041
 6695 1222 884B     		ldr	r3, .L585+16
 6696 1224 1B78     		ldrb	r3, [r3]	@ zero_extendqisi2
 511:lvgl/lvgl/src/extra/themes/default/lv_theme_default.c **** #endif
 6697              		.loc 1 511 5 view .LVU2042
 6698 1226 032B     		cmp	r3, #3
 6699 1228 01F07C81 		beq	.L499
 511:lvgl/lvgl/src/extra/themes/default/lv_theme_default.c **** #endif
 6700              		.loc 1 511 5 discriminator 2 view .LVU2043
 6701 122c 012B     		cmp	r3, #1
 6702 122e 01F0B981 		beq	.L500
 511:lvgl/lvgl/src/extra/themes/default/lv_theme_default.c **** #endif
 6703              		.loc 1 511 98 discriminator 9 view .LVU2044
 6704 1232 804B     		ldr	r3, .L585
 6705 1234 DD68     		ldr	r5, [r3, #12]
 6706              	.LVL735:
 6707              	.LBB651:
 6708              	.LBI651:
ARM GAS  C:\Users\gx\AppData\Local\Temp\ccQfGIQ4.s 			page 196


 236:d:\practise\f407_disc\lvgl\lvgl\src/core\lv_disp.h **** {
 6709              		.loc 3 236 26 is_stmt 1 discriminator 9 view .LVU2045
 6710              	.LBB652:
 6711              		.loc 3 238 5 discriminator 9 view .LVU2046
 6712              		.loc 3 238 12 is_stmt 0 discriminator 9 view .LVU2047
 6713 1236 2846     		mov	r0, r5
 6714 1238 FFF7FEFF 		bl	lv_disp_get_dpi
 6715              	.LVL736:
 6716 123c C000     		lsls	r0, r0, #3
 6717 123e EF28     		cmp	r0, #239
 6718 1240 01F3CD81 		bgt	.L501
 6719              		.loc 3 238 12 view .LVU2048
 6720 1244 0121     		movs	r1, #1
 6721              	.LVL737:
 6722              	.L249:
 6723              		.loc 3 238 12 view .LVU2049
 6724              	.LBE652:
 6725              	.LBE651:
 511:lvgl/lvgl/src/extra/themes/default/lv_theme_default.c **** #endif
 6726              		.loc 1 511 5 discriminator 12 view .LVU2050
 6727 1246 2046     		mov	r0, r4
 6728 1248 FFF7FEFF 		bl	lv_style_set_radius
 6729              	.LVL738:
 515:lvgl/lvgl/src/extra/themes/default/lv_theme_default.c ****     lv_style_set_border_color(&styles->tab_btn, theme.color_primary);
 6730              		.loc 1 515 5 is_stmt 1 discriminator 12 view .LVU2051
 515:lvgl/lvgl/src/extra/themes/default/lv_theme_default.c ****     lv_style_set_border_color(&styles->tab_btn, theme.color_primary);
 6731              		.loc 1 515 29 is_stmt 0 discriminator 12 view .LVU2052
 6732 124c 7A4C     		ldr	r4, .L585+4
 6733 124e 2068     		ldr	r0, [r4]
 515:lvgl/lvgl/src/extra/themes/default/lv_theme_default.c ****     lv_style_set_border_color(&styles->tab_btn, theme.color_primary);
 6734              		.loc 1 515 5 discriminator 12 view .LVU2053
 6735 1250 00F5E870 		add	r0, r0, #464
 6736 1254 FFF7FEFF 		bl	style_init_reset
 6737              	.LVL739:
 516:lvgl/lvgl/src/extra/themes/default/lv_theme_default.c ****     lv_style_set_border_width(&styles->tab_btn, BORDER_WIDTH * 2);
 6738              		.loc 1 516 5 is_stmt 1 discriminator 12 view .LVU2054
 516:lvgl/lvgl/src/extra/themes/default/lv_theme_default.c ****     lv_style_set_border_width(&styles->tab_btn, BORDER_WIDTH * 2);
 6739              		.loc 1 516 38 is_stmt 0 discriminator 12 view .LVU2055
 6740 1258 2068     		ldr	r0, [r4]
 516:lvgl/lvgl/src/extra/themes/default/lv_theme_default.c ****     lv_style_set_border_width(&styles->tab_btn, BORDER_WIDTH * 2);
 6741              		.loc 1 516 5 discriminator 12 view .LVU2056
 6742 125a 764D     		ldr	r5, .L585
 6743 125c 298A     		ldrh	r1, [r5, #16]
 6744 125e 00F5E870 		add	r0, r0, #464
 6745 1262 FFF7FEFF 		bl	lv_style_set_border_color
 6746              	.LVL740:
 517:lvgl/lvgl/src/extra/themes/default/lv_theme_default.c ****     lv_style_set_border_side(&styles->tab_btn, LV_BORDER_SIDE_BOTTOM);
 6747              		.loc 1 517 5 is_stmt 1 discriminator 12 view .LVU2057
 517:lvgl/lvgl/src/extra/themes/default/lv_theme_default.c ****     lv_style_set_border_side(&styles->tab_btn, LV_BORDER_SIDE_BOTTOM);
 6748              		.loc 1 517 38 is_stmt 0 discriminator 12 view .LVU2058
 6749 1266 2468     		ldr	r4, [r4]
 517:lvgl/lvgl/src/extra/themes/default/lv_theme_default.c ****     lv_style_set_border_side(&styles->tab_btn, LV_BORDER_SIDE_BOTTOM);
 6750              		.loc 1 517 5 discriminator 12 view .LVU2059
 6751 1268 04F5E874 		add	r4, r4, #464
 517:lvgl/lvgl/src/extra/themes/default/lv_theme_default.c ****     lv_style_set_border_side(&styles->tab_btn, LV_BORDER_SIDE_BOTTOM);
 6752              		.loc 1 517 49 discriminator 12 view .LVU2060
 6753 126c ED68     		ldr	r5, [r5, #12]
ARM GAS  C:\Users\gx\AppData\Local\Temp\ccQfGIQ4.s 			page 197


 6754              	.LVL741:
 6755              	.LBB654:
 6756              	.LBI654:
 236:d:\practise\f407_disc\lvgl\lvgl\src/core\lv_disp.h **** {
 6757              		.loc 3 236 26 is_stmt 1 discriminator 12 view .LVU2061
 6758              	.LBB655:
 6759              		.loc 3 238 5 discriminator 12 view .LVU2062
 6760              		.loc 3 238 12 is_stmt 0 discriminator 12 view .LVU2063
 6761 126e 2846     		mov	r0, r5
 6762 1270 FFF7FEFF 		bl	lv_disp_get_dpi
 6763              	.LVL742:
 6764 1274 4000     		lsls	r0, r0, #1
 6765 1276 EF28     		cmp	r0, #239
 6766 1278 01F3BF81 		bgt	.L502
 6767              		.loc 3 238 12 view .LVU2064
 6768 127c 0121     		movs	r1, #1
 6769              	.L254:
 6770              	.LVL743:
 6771              		.loc 3 238 12 view .LVU2065
 6772              	.LBE655:
 6773              	.LBE654:
 517:lvgl/lvgl/src/extra/themes/default/lv_theme_default.c ****     lv_style_set_border_side(&styles->tab_btn, LV_BORDER_SIDE_BOTTOM);
 6774              		.loc 1 517 49 view .LVU2066
 6775 127e 89B2     		uxth	r1, r1
 517:lvgl/lvgl/src/extra/themes/default/lv_theme_default.c ****     lv_style_set_border_side(&styles->tab_btn, LV_BORDER_SIDE_BOTTOM);
 6776              		.loc 1 517 62 view .LVU2067
 6777 1280 4900     		lsls	r1, r1, #1
 517:lvgl/lvgl/src/extra/themes/default/lv_theme_default.c ****     lv_style_set_border_side(&styles->tab_btn, LV_BORDER_SIDE_BOTTOM);
 6778              		.loc 1 517 5 view .LVU2068
 6779 1282 09B2     		sxth	r1, r1
 6780 1284 2046     		mov	r0, r4
 6781 1286 FFF7FEFF 		bl	lv_style_set_border_width
 6782              	.LVL744:
 518:lvgl/lvgl/src/extra/themes/default/lv_theme_default.c **** 
 6783              		.loc 1 518 5 is_stmt 1 view .LVU2069
 518:lvgl/lvgl/src/extra/themes/default/lv_theme_default.c **** 
 6784              		.loc 1 518 37 is_stmt 0 view .LVU2070
 6785 128a 6B4C     		ldr	r4, .L585+4
 6786 128c 2068     		ldr	r0, [r4]
 518:lvgl/lvgl/src/extra/themes/default/lv_theme_default.c **** 
 6787              		.loc 1 518 5 view .LVU2071
 6788 128e 0121     		movs	r1, #1
 6789 1290 00F5E870 		add	r0, r0, #464
 6790 1294 FFF7FEFF 		bl	lv_style_set_border_side
 6791              	.LVL745:
 520:lvgl/lvgl/src/extra/themes/default/lv_theme_default.c ****     lv_style_set_outline_pad(&styles->tab_bg_focus, -BORDER_WIDTH);
 6792              		.loc 1 520 5 is_stmt 1 view .LVU2072
 520:lvgl/lvgl/src/extra/themes/default/lv_theme_default.c ****     lv_style_set_outline_pad(&styles->tab_bg_focus, -BORDER_WIDTH);
 6793              		.loc 1 520 29 is_stmt 0 view .LVU2073
 6794 1298 2068     		ldr	r0, [r4]
 520:lvgl/lvgl/src/extra/themes/default/lv_theme_default.c ****     lv_style_set_outline_pad(&styles->tab_bg_focus, -BORDER_WIDTH);
 6795              		.loc 1 520 5 view .LVU2074
 6796 129a 00F5E470 		add	r0, r0, #456
 6797 129e FFF7FEFF 		bl	style_init_reset
 6798              	.LVL746:
 521:lvgl/lvgl/src/extra/themes/default/lv_theme_default.c **** #endif
 6799              		.loc 1 521 5 is_stmt 1 view .LVU2075
ARM GAS  C:\Users\gx\AppData\Local\Temp\ccQfGIQ4.s 			page 198


 521:lvgl/lvgl/src/extra/themes/default/lv_theme_default.c **** #endif
 6800              		.loc 1 521 37 is_stmt 0 view .LVU2076
 6801 12a2 2468     		ldr	r4, [r4]
 521:lvgl/lvgl/src/extra/themes/default/lv_theme_default.c **** #endif
 6802              		.loc 1 521 5 view .LVU2077
 6803 12a4 04F5E474 		add	r4, r4, #456
 521:lvgl/lvgl/src/extra/themes/default/lv_theme_default.c **** #endif
 6804              		.loc 1 521 54 view .LVU2078
 6805 12a8 624B     		ldr	r3, .L585
 6806 12aa DD68     		ldr	r5, [r3, #12]
 6807              	.LVL747:
 6808              	.LBB657:
 6809              	.LBI657:
 236:d:\practise\f407_disc\lvgl\lvgl\src/core\lv_disp.h **** {
 6810              		.loc 3 236 26 is_stmt 1 view .LVU2079
 6811              	.LBB658:
 6812              		.loc 3 238 5 view .LVU2080
 6813              		.loc 3 238 12 is_stmt 0 view .LVU2081
 6814 12ac 2846     		mov	r0, r5
 6815 12ae FFF7FEFF 		bl	lv_disp_get_dpi
 6816              	.LVL748:
 6817 12b2 4000     		lsls	r0, r0, #1
 6818 12b4 EF28     		cmp	r0, #239
 6819 12b6 01F3AE81 		bgt	.L503
 6820 12ba 0121     		movs	r1, #1
 6821              	.L255:
 6822              	.LVL749:
 6823              		.loc 3 238 12 view .LVU2082
 6824              	.LBE658:
 6825              	.LBE657:
 521:lvgl/lvgl/src/extra/themes/default/lv_theme_default.c **** #endif
 6826              		.loc 1 521 54 view .LVU2083
 6827 12bc 89B2     		uxth	r1, r1
 521:lvgl/lvgl/src/extra/themes/default/lv_theme_default.c **** #endif
 6828              		.loc 1 521 5 view .LVU2084
 6829 12be 4942     		rsbs	r1, r1, #0
 6830 12c0 09B2     		sxth	r1, r1
 6831 12c2 2046     		mov	r0, r4
 6832 12c4 FFF7FEFF 		bl	lv_style_set_outline_pad
 6833              	.LVL750:
 525:lvgl/lvgl/src/extra/themes/default/lv_theme_default.c ****     lv_style_set_pad_hor(&styles->list_bg, PAD_DEF);
 6834              		.loc 1 525 5 is_stmt 1 view .LVU2085
 525:lvgl/lvgl/src/extra/themes/default/lv_theme_default.c ****     lv_style_set_pad_hor(&styles->list_bg, PAD_DEF);
 6835              		.loc 1 525 29 is_stmt 0 view .LVU2086
 6836 12c8 5B4C     		ldr	r4, .L585+4
 6837 12ca 2068     		ldr	r0, [r4]
 525:lvgl/lvgl/src/extra/themes/default/lv_theme_default.c ****     lv_style_set_pad_hor(&styles->list_bg, PAD_DEF);
 6838              		.loc 1 525 5 view .LVU2087
 6839 12cc 00F5D470 		add	r0, r0, #424
 6840 12d0 FFF7FEFF 		bl	style_init_reset
 6841              	.LVL751:
 526:lvgl/lvgl/src/extra/themes/default/lv_theme_default.c ****     lv_style_set_pad_ver(&styles->list_bg, 0);
 6842              		.loc 1 526 5 is_stmt 1 view .LVU2088
 526:lvgl/lvgl/src/extra/themes/default/lv_theme_default.c ****     lv_style_set_pad_ver(&styles->list_bg, 0);
 6843              		.loc 1 526 33 is_stmt 0 view .LVU2089
 6844 12d4 2568     		ldr	r5, [r4]
 526:lvgl/lvgl/src/extra/themes/default/lv_theme_default.c ****     lv_style_set_pad_ver(&styles->list_bg, 0);
ARM GAS  C:\Users\gx\AppData\Local\Temp\ccQfGIQ4.s 			page 199


 6845              		.loc 1 526 5 view .LVU2090
 6846 12d6 05F5D475 		add	r5, r5, #424
 526:lvgl/lvgl/src/extra/themes/default/lv_theme_default.c ****     lv_style_set_pad_ver(&styles->list_bg, 0);
 6847              		.loc 1 526 44 view .LVU2091
 6848 12da 5A4B     		ldr	r3, .L585+16
 6849 12dc 1B78     		ldrb	r3, [r3]	@ zero_extendqisi2
 526:lvgl/lvgl/src/extra/themes/default/lv_theme_default.c ****     lv_style_set_pad_ver(&styles->list_bg, 0);
 6850              		.loc 1 526 5 view .LVU2092
 6851 12de 012B     		cmp	r3, #1
 6852 12e0 01F0A781 		beq	.L504
 526:lvgl/lvgl/src/extra/themes/default/lv_theme_default.c ****     lv_style_set_pad_ver(&styles->list_bg, 0);
 6853              		.loc 1 526 5 discriminator 2 view .LVU2093
 6854 12e4 022B     		cmp	r3, #2
 6855 12e6 01F0C181 		beq	.L505
 526:lvgl/lvgl/src/extra/themes/default/lv_theme_default.c ****     lv_style_set_pad_ver(&styles->list_bg, 0);
 6856              		.loc 1 526 44 discriminator 5 view .LVU2094
 6857 12ea 524B     		ldr	r3, .L585
 6858 12ec DC68     		ldr	r4, [r3, #12]
 6859              	.LVL752:
 6860              	.LBB660:
 6861              	.LBI660:
 236:d:\practise\f407_disc\lvgl\lvgl\src/core\lv_disp.h **** {
 6862              		.loc 3 236 26 is_stmt 1 discriminator 5 view .LVU2095
 6863              	.LBB661:
 6864              		.loc 3 238 5 discriminator 5 view .LVU2096
 6865              		.loc 3 238 12 is_stmt 0 discriminator 5 view .LVU2097
 6866 12ee 2046     		mov	r0, r4
 6867 12f0 FFF7FEFF 		bl	lv_disp_get_dpi
 6868              	.LVL753:
 6869 12f4 0001     		lsls	r0, r0, #4
 6870 12f6 EF28     		cmp	r0, #239
 6871 12f8 01F3D581 		bgt	.L506
 6872              		.loc 3 238 12 view .LVU2098
 6873 12fc 0124     		movs	r4, #1
 6874              	.LVL754:
 6875              	.L258:
 6876              		.loc 3 238 12 view .LVU2099
 6877              	.LBE661:
 6878              	.LBE660:
 6879              	.LBB663:
 6880              	.LBI663:
 432:d:\practise\f407_disc\lvgl\lvgl\src\misc\lv_style.h ****     lv_style_set_pad_left(style, value);
 6881              		.loc 4 432 20 is_stmt 1 discriminator 8 view .LVU2100
 6882              	.LBB664:
 433:d:\practise\f407_disc\lvgl\lvgl\src\misc\lv_style.h ****     lv_style_set_pad_right(style, value);
 6883              		.loc 4 433 5 discriminator 8 view .LVU2101
 6884 12fe 2146     		mov	r1, r4
 6885 1300 2846     		mov	r0, r5
 6886 1302 FFF7FEFF 		bl	lv_style_set_pad_left
 6887              	.LVL755:
 434:d:\practise\f407_disc\lvgl\lvgl\src\misc\lv_style.h **** }
 6888              		.loc 4 434 5 discriminator 8 view .LVU2102
 6889 1306 2146     		mov	r1, r4
 6890 1308 2846     		mov	r0, r5
 6891 130a FFF7FEFF 		bl	lv_style_set_pad_right
 6892              	.LVL756:
 434:d:\practise\f407_disc\lvgl\lvgl\src\misc\lv_style.h **** }
ARM GAS  C:\Users\gx\AppData\Local\Temp\ccQfGIQ4.s 			page 200


 6893              		.loc 4 434 5 is_stmt 0 discriminator 8 view .LVU2103
 6894              	.LBE664:
 6895              	.LBE663:
 527:lvgl/lvgl/src/extra/themes/default/lv_theme_default.c ****     lv_style_set_pad_gap(&styles->list_bg, 0);
 6896              		.loc 1 527 5 is_stmt 1 discriminator 8 view .LVU2104
 527:lvgl/lvgl/src/extra/themes/default/lv_theme_default.c ****     lv_style_set_pad_gap(&styles->list_bg, 0);
 6897              		.loc 1 527 33 is_stmt 0 discriminator 8 view .LVU2105
 6898 130e 4A4C     		ldr	r4, .L585+4
 6899 1310 2568     		ldr	r5, [r4]
 527:lvgl/lvgl/src/extra/themes/default/lv_theme_default.c ****     lv_style_set_pad_gap(&styles->list_bg, 0);
 6900              		.loc 1 527 5 discriminator 8 view .LVU2106
 6901 1312 05F5D475 		add	r5, r5, #424
 6902              	.LVL757:
 6903              	.LBB665:
 6904              	.LBI665:
 437:d:\practise\f407_disc\lvgl\lvgl\src\misc\lv_style.h ****     lv_style_set_pad_top(style, value);
 6905              		.loc 4 437 20 is_stmt 1 discriminator 8 view .LVU2107
 6906              	.LBB666:
 438:d:\practise\f407_disc\lvgl\lvgl\src\misc\lv_style.h ****     lv_style_set_pad_bottom(style, value);
 6907              		.loc 4 438 5 discriminator 8 view .LVU2108
 6908 1316 0021     		movs	r1, #0
 6909 1318 2846     		mov	r0, r5
 6910 131a FFF7FEFF 		bl	lv_style_set_pad_top
 6911              	.LVL758:
 439:d:\practise\f407_disc\lvgl\lvgl\src\misc\lv_style.h **** }
 6912              		.loc 4 439 5 discriminator 8 view .LVU2109
 6913 131e 0021     		movs	r1, #0
 6914 1320 2846     		mov	r0, r5
 6915 1322 FFF7FEFF 		bl	lv_style_set_pad_bottom
 6916              	.LVL759:
 439:d:\practise\f407_disc\lvgl\lvgl\src\misc\lv_style.h **** }
 6917              		.loc 4 439 5 is_stmt 0 discriminator 8 view .LVU2110
 6918              	.LBE666:
 6919              	.LBE665:
 528:lvgl/lvgl/src/extra/themes/default/lv_theme_default.c ****     lv_style_set_clip_corner(&styles->list_bg, true);
 6920              		.loc 1 528 5 is_stmt 1 discriminator 8 view .LVU2111
 528:lvgl/lvgl/src/extra/themes/default/lv_theme_default.c ****     lv_style_set_clip_corner(&styles->list_bg, true);
 6921              		.loc 1 528 33 is_stmt 0 discriminator 8 view .LVU2112
 6922 1326 2568     		ldr	r5, [r4]
 528:lvgl/lvgl/src/extra/themes/default/lv_theme_default.c ****     lv_style_set_clip_corner(&styles->list_bg, true);
 6923              		.loc 1 528 5 discriminator 8 view .LVU2113
 6924 1328 05F5D475 		add	r5, r5, #424
 6925              	.LVL760:
 6926              	.LBB667:
 6927              	.LBI667:
 442:d:\practise\f407_disc\lvgl\lvgl\src\misc\lv_style.h ****     lv_style_set_pad_row(style, value);
 6928              		.loc 4 442 20 is_stmt 1 discriminator 8 view .LVU2114
 6929              	.LBB668:
 443:d:\practise\f407_disc\lvgl\lvgl\src\misc\lv_style.h ****     lv_style_set_pad_column(style, value);
 6930              		.loc 4 443 5 discriminator 8 view .LVU2115
 6931 132c 0021     		movs	r1, #0
 6932 132e 2846     		mov	r0, r5
 6933 1330 FFF7FEFF 		bl	lv_style_set_pad_row
 6934              	.LVL761:
 444:d:\practise\f407_disc\lvgl\lvgl\src\misc\lv_style.h **** }
 6935              		.loc 4 444 5 discriminator 8 view .LVU2116
 6936 1334 0021     		movs	r1, #0
ARM GAS  C:\Users\gx\AppData\Local\Temp\ccQfGIQ4.s 			page 201


 6937 1336 2846     		mov	r0, r5
 6938 1338 FFF7FEFF 		bl	lv_style_set_pad_column
 6939              	.LVL762:
 444:d:\practise\f407_disc\lvgl\lvgl\src\misc\lv_style.h **** }
 6940              		.loc 4 444 5 is_stmt 0 discriminator 8 view .LVU2117
 6941              	.LBE668:
 6942              	.LBE667:
 529:lvgl/lvgl/src/extra/themes/default/lv_theme_default.c **** 
 6943              		.loc 1 529 5 is_stmt 1 discriminator 8 view .LVU2118
 529:lvgl/lvgl/src/extra/themes/default/lv_theme_default.c **** 
 6944              		.loc 1 529 37 is_stmt 0 discriminator 8 view .LVU2119
 6945 133c 2068     		ldr	r0, [r4]
 529:lvgl/lvgl/src/extra/themes/default/lv_theme_default.c **** 
 6946              		.loc 1 529 5 discriminator 8 view .LVU2120
 6947 133e 0121     		movs	r1, #1
 6948 1340 00F5D470 		add	r0, r0, #424
 6949 1344 FFF7FEFF 		bl	lv_style_set_clip_corner
 6950              	.LVL763:
 531:lvgl/lvgl/src/extra/themes/default/lv_theme_default.c ****     lv_style_set_border_width(&styles->list_btn, lv_disp_dpx(theme.disp, 1));
 6951              		.loc 1 531 5 is_stmt 1 discriminator 8 view .LVU2121
 531:lvgl/lvgl/src/extra/themes/default/lv_theme_default.c ****     lv_style_set_border_width(&styles->list_btn, lv_disp_dpx(theme.disp, 1));
 6952              		.loc 1 531 29 is_stmt 0 discriminator 8 view .LVU2122
 6953 1348 2068     		ldr	r0, [r4]
 531:lvgl/lvgl/src/extra/themes/default/lv_theme_default.c ****     lv_style_set_border_width(&styles->list_btn, lv_disp_dpx(theme.disp, 1));
 6954              		.loc 1 531 5 discriminator 8 view .LVU2123
 6955 134a 00F5D870 		add	r0, r0, #432
 6956 134e FFF7FEFF 		bl	style_init_reset
 6957              	.LVL764:
 532:lvgl/lvgl/src/extra/themes/default/lv_theme_default.c ****     lv_style_set_border_color(&styles->list_btn, color_grey);
 6958              		.loc 1 532 5 is_stmt 1 discriminator 8 view .LVU2124
 532:lvgl/lvgl/src/extra/themes/default/lv_theme_default.c ****     lv_style_set_border_color(&styles->list_btn, color_grey);
 6959              		.loc 1 532 38 is_stmt 0 discriminator 8 view .LVU2125
 6960 1352 2468     		ldr	r4, [r4]
 532:lvgl/lvgl/src/extra/themes/default/lv_theme_default.c ****     lv_style_set_border_color(&styles->list_btn, color_grey);
 6961              		.loc 1 532 5 discriminator 8 view .LVU2126
 6962 1354 04F5D874 		add	r4, r4, #432
 532:lvgl/lvgl/src/extra/themes/default/lv_theme_default.c ****     lv_style_set_border_color(&styles->list_btn, color_grey);
 6963              		.loc 1 532 67 discriminator 8 view .LVU2127
 6964 1358 364B     		ldr	r3, .L585
 6965 135a DD68     		ldr	r5, [r3, #12]
 6966              	.LVL765:
 6967              	.LBB669:
 6968              	.LBI669:
 236:d:\practise\f407_disc\lvgl\lvgl\src/core\lv_disp.h **** {
 6969              		.loc 3 236 26 is_stmt 1 discriminator 8 view .LVU2128
 6970              	.LBB670:
 6971              		.loc 3 238 5 discriminator 8 view .LVU2129
 6972              		.loc 3 238 12 is_stmt 0 discriminator 8 view .LVU2130
 6973 135c 2846     		mov	r0, r5
 6974 135e FFF7FEFF 		bl	lv_disp_get_dpi
 6975              	.LVL766:
 6976 1362 EF28     		cmp	r0, #239
 6977 1364 01F3AD81 		bgt	.L507
 6978              		.loc 3 238 12 view .LVU2131
 6979 1368 0121     		movs	r1, #1
 6980              	.L262:
 6981              	.LVL767:
ARM GAS  C:\Users\gx\AppData\Local\Temp\ccQfGIQ4.s 			page 202


 6982              		.loc 3 238 12 view .LVU2132
 6983              	.LBE670:
 6984              	.LBE669:
 532:lvgl/lvgl/src/extra/themes/default/lv_theme_default.c ****     lv_style_set_border_color(&styles->list_btn, color_grey);
 6985              		.loc 1 532 5 view .LVU2133
 6986 136a 2046     		mov	r0, r4
 6987 136c FFF7FEFF 		bl	lv_style_set_border_width
 6988              	.LVL768:
 533:lvgl/lvgl/src/extra/themes/default/lv_theme_default.c ****     lv_style_set_border_side(&styles->list_btn, LV_BORDER_SIDE_BOTTOM);
 6989              		.loc 1 533 5 is_stmt 1 view .LVU2134
 533:lvgl/lvgl/src/extra/themes/default/lv_theme_default.c ****     lv_style_set_border_side(&styles->list_btn, LV_BORDER_SIDE_BOTTOM);
 6990              		.loc 1 533 38 is_stmt 0 view .LVU2135
 6991 1370 314C     		ldr	r4, .L585+4
 6992 1372 2068     		ldr	r0, [r4]
 533:lvgl/lvgl/src/extra/themes/default/lv_theme_default.c ****     lv_style_set_border_side(&styles->list_btn, LV_BORDER_SIDE_BOTTOM);
 6993              		.loc 1 533 5 view .LVU2136
 6994 1374 314B     		ldr	r3, .L585+8
 6995 1376 1988     		ldrh	r1, [r3]
 6996 1378 00F5D870 		add	r0, r0, #432
 6997 137c FFF7FEFF 		bl	lv_style_set_border_color
 6998              	.LVL769:
 534:lvgl/lvgl/src/extra/themes/default/lv_theme_default.c ****     lv_style_set_pad_all(&styles->list_btn, PAD_SMALL);
 6999              		.loc 1 534 5 is_stmt 1 view .LVU2137
 534:lvgl/lvgl/src/extra/themes/default/lv_theme_default.c ****     lv_style_set_pad_all(&styles->list_btn, PAD_SMALL);
 7000              		.loc 1 534 37 is_stmt 0 view .LVU2138
 7001 1380 2068     		ldr	r0, [r4]
 534:lvgl/lvgl/src/extra/themes/default/lv_theme_default.c ****     lv_style_set_pad_all(&styles->list_btn, PAD_SMALL);
 7002              		.loc 1 534 5 view .LVU2139
 7003 1382 0121     		movs	r1, #1
 7004 1384 00F5D870 		add	r0, r0, #432
 7005 1388 FFF7FEFF 		bl	lv_style_set_border_side
 7006              	.LVL770:
 535:lvgl/lvgl/src/extra/themes/default/lv_theme_default.c ****     lv_style_set_pad_column(&styles->list_btn, PAD_SMALL);
 7007              		.loc 1 535 5 is_stmt 1 view .LVU2140
 535:lvgl/lvgl/src/extra/themes/default/lv_theme_default.c ****     lv_style_set_pad_column(&styles->list_btn, PAD_SMALL);
 7008              		.loc 1 535 33 is_stmt 0 view .LVU2141
 7009 138c 2568     		ldr	r5, [r4]
 535:lvgl/lvgl/src/extra/themes/default/lv_theme_default.c ****     lv_style_set_pad_column(&styles->list_btn, PAD_SMALL);
 7010              		.loc 1 535 5 view .LVU2142
 7011 138e 05F5D875 		add	r5, r5, #432
 535:lvgl/lvgl/src/extra/themes/default/lv_theme_default.c ****     lv_style_set_pad_column(&styles->list_btn, PAD_SMALL);
 7012              		.loc 1 535 45 view .LVU2143
 7013 1392 2C4B     		ldr	r3, .L585+16
 7014 1394 1B78     		ldrb	r3, [r3]	@ zero_extendqisi2
 535:lvgl/lvgl/src/extra/themes/default/lv_theme_default.c ****     lv_style_set_pad_column(&styles->list_btn, PAD_SMALL);
 7015              		.loc 1 535 5 view .LVU2144
 7016 1396 012B     		cmp	r3, #1
 7017 1398 01F0A081 		beq	.L508
 535:lvgl/lvgl/src/extra/themes/default/lv_theme_default.c ****     lv_style_set_pad_column(&styles->list_btn, PAD_SMALL);
 7018              		.loc 1 535 5 discriminator 2 view .LVU2145
 7019 139c 022B     		cmp	r3, #2
 7020 139e 01F0BA81 		beq	.L509
 535:lvgl/lvgl/src/extra/themes/default/lv_theme_default.c ****     lv_style_set_pad_column(&styles->list_btn, PAD_SMALL);
 7021              		.loc 1 535 45 discriminator 5 view .LVU2146
 7022 13a2 244B     		ldr	r3, .L585
 7023 13a4 DC68     		ldr	r4, [r3, #12]
 7024              	.LVL771:
ARM GAS  C:\Users\gx\AppData\Local\Temp\ccQfGIQ4.s 			page 203


 7025              	.LBB672:
 7026              	.LBI672:
 236:d:\practise\f407_disc\lvgl\lvgl\src/core\lv_disp.h **** {
 7027              		.loc 3 236 26 is_stmt 1 discriminator 5 view .LVU2147
 7028              	.LBB673:
 7029              		.loc 3 238 5 discriminator 5 view .LVU2148
 7030              		.loc 3 238 12 is_stmt 0 discriminator 5 view .LVU2149
 7031 13a6 2046     		mov	r0, r4
 7032 13a8 FFF7FEFF 		bl	lv_disp_get_dpi
 7033              	.LVL772:
 7034 13ac 00EB8000 		add	r0, r0, r0, lsl #2
 7035 13b0 4000     		lsls	r0, r0, #1
 7036 13b2 EF28     		cmp	r0, #239
 7037 13b4 01F3CC81 		bgt	.L510
 7038              		.loc 3 238 12 view .LVU2150
 7039 13b8 0124     		movs	r4, #1
 7040              	.LVL773:
 7041              	.L265:
 7042              		.loc 3 238 12 view .LVU2151
 7043              	.LBE673:
 7044              	.LBE672:
 7045              	.LBB675:
 7046              	.LBI675:
 425:d:\practise\f407_disc\lvgl\lvgl\src\misc\lv_style.h ****     lv_style_set_pad_left(style, value);
 7047              		.loc 4 425 20 is_stmt 1 discriminator 8 view .LVU2152
 7048              	.LBB676:
 426:d:\practise\f407_disc\lvgl\lvgl\src\misc\lv_style.h ****     lv_style_set_pad_right(style, value);
 7049              		.loc 4 426 5 discriminator 8 view .LVU2153
 7050 13ba 2146     		mov	r1, r4
 7051 13bc 2846     		mov	r0, r5
 7052 13be FFF7FEFF 		bl	lv_style_set_pad_left
 7053              	.LVL774:
 427:d:\practise\f407_disc\lvgl\lvgl\src\misc\lv_style.h ****     lv_style_set_pad_top(style, value);
 7054              		.loc 4 427 5 discriminator 8 view .LVU2154
 7055 13c2 2146     		mov	r1, r4
 7056 13c4 2846     		mov	r0, r5
 7057 13c6 FFF7FEFF 		bl	lv_style_set_pad_right
 7058              	.LVL775:
 428:d:\practise\f407_disc\lvgl\lvgl\src\misc\lv_style.h ****     lv_style_set_pad_bottom(style, value);
 7059              		.loc 4 428 5 discriminator 8 view .LVU2155
 7060 13ca 2146     		mov	r1, r4
 7061 13cc 2846     		mov	r0, r5
 7062 13ce FFF7FEFF 		bl	lv_style_set_pad_top
 7063              	.LVL776:
 429:d:\practise\f407_disc\lvgl\lvgl\src\misc\lv_style.h **** }
 7064              		.loc 4 429 5 discriminator 8 view .LVU2156
 7065 13d2 2146     		mov	r1, r4
 7066 13d4 2846     		mov	r0, r5
 7067 13d6 FFF7FEFF 		bl	lv_style_set_pad_bottom
 7068              	.LVL777:
 429:d:\practise\f407_disc\lvgl\lvgl\src\misc\lv_style.h **** }
 7069              		.loc 4 429 5 is_stmt 0 discriminator 8 view .LVU2157
 7070              	.LBE676:
 7071              	.LBE675:
 536:lvgl/lvgl/src/extra/themes/default/lv_theme_default.c **** 
 7072              		.loc 1 536 5 is_stmt 1 discriminator 8 view .LVU2158
 536:lvgl/lvgl/src/extra/themes/default/lv_theme_default.c **** 
ARM GAS  C:\Users\gx\AppData\Local\Temp\ccQfGIQ4.s 			page 204


 7073              		.loc 1 536 36 is_stmt 0 discriminator 8 view .LVU2159
 7074 13da 174B     		ldr	r3, .L585+4
 7075 13dc 1C68     		ldr	r4, [r3]
 536:lvgl/lvgl/src/extra/themes/default/lv_theme_default.c **** 
 7076              		.loc 1 536 5 discriminator 8 view .LVU2160
 7077 13de 04F5D874 		add	r4, r4, #432
 536:lvgl/lvgl/src/extra/themes/default/lv_theme_default.c **** 
 7078              		.loc 1 536 48 discriminator 8 view .LVU2161
 7079 13e2 184B     		ldr	r3, .L585+16
 7080 13e4 1B78     		ldrb	r3, [r3]	@ zero_extendqisi2
 536:lvgl/lvgl/src/extra/themes/default/lv_theme_default.c **** 
 7081              		.loc 1 536 5 discriminator 8 view .LVU2162
 7082 13e6 012B     		cmp	r3, #1
 7083 13e8 01F0C281 		beq	.L511
 536:lvgl/lvgl/src/extra/themes/default/lv_theme_default.c **** 
 7084              		.loc 1 536 5 discriminator 2 view .LVU2163
 7085 13ec 022B     		cmp	r3, #2
 7086 13ee 01F0DC81 		beq	.L512
 536:lvgl/lvgl/src/extra/themes/default/lv_theme_default.c **** 
 7087              		.loc 1 536 48 discriminator 5 view .LVU2164
 7088 13f2 104B     		ldr	r3, .L585
 7089 13f4 DD68     		ldr	r5, [r3, #12]
 7090              	.LVL778:
 7091              	.LBB677:
 7092              	.LBI677:
 236:d:\practise\f407_disc\lvgl\lvgl\src/core\lv_disp.h **** {
 7093              		.loc 3 236 26 is_stmt 1 discriminator 5 view .LVU2165
 7094              	.LBB678:
 7095              		.loc 3 238 5 discriminator 5 view .LVU2166
 7096              		.loc 3 238 12 is_stmt 0 discriminator 5 view .LVU2167
 7097 13f6 2846     		mov	r0, r5
 7098 13f8 FFF7FEFF 		bl	lv_disp_get_dpi
 7099              	.LVL779:
 7100 13fc 00EB8000 		add	r0, r0, r0, lsl #2
 7101 1400 4000     		lsls	r0, r0, #1
 7102 1402 EF28     		cmp	r0, #239
 7103 1404 01F3EE81 		bgt	.L513
 7104              		.loc 3 238 12 view .LVU2168
 7105 1408 0121     		movs	r1, #1
 7106              	.LVL780:
 7107              	.L271:
 7108              		.loc 3 238 12 view .LVU2169
 7109              	.LBE678:
 7110              	.LBE677:
 536:lvgl/lvgl/src/extra/themes/default/lv_theme_default.c **** 
 7111              		.loc 1 536 5 discriminator 8 view .LVU2170
 7112 140a 2046     		mov	r0, r4
 7113 140c FFF7FEFF 		bl	lv_style_set_pad_column
 7114              	.LVL781:
 538:lvgl/lvgl/src/extra/themes/default/lv_theme_default.c ****     lv_style_set_transform_width(&styles->list_item_grow, PAD_DEF);
 7115              		.loc 1 538 5 is_stmt 1 discriminator 8 view .LVU2171
 538:lvgl/lvgl/src/extra/themes/default/lv_theme_default.c ****     lv_style_set_transform_width(&styles->list_item_grow, PAD_DEF);
 7116              		.loc 1 538 29 is_stmt 0 discriminator 8 view .LVU2172
 7117 1410 094C     		ldr	r4, .L585+4
 7118 1412 2068     		ldr	r0, [r4]
 538:lvgl/lvgl/src/extra/themes/default/lv_theme_default.c ****     lv_style_set_transform_width(&styles->list_item_grow, PAD_DEF);
 7119              		.loc 1 538 5 discriminator 8 view .LVU2173
ARM GAS  C:\Users\gx\AppData\Local\Temp\ccQfGIQ4.s 			page 205


 7120 1414 00F5DC70 		add	r0, r0, #440
 7121 1418 FFF7FEFF 		bl	style_init_reset
 7122              	.LVL782:
 539:lvgl/lvgl/src/extra/themes/default/lv_theme_default.c **** #endif
 7123              		.loc 1 539 5 is_stmt 1 discriminator 8 view .LVU2174
 539:lvgl/lvgl/src/extra/themes/default/lv_theme_default.c **** #endif
 7124              		.loc 1 539 41 is_stmt 0 discriminator 8 view .LVU2175
 7125 141c 2468     		ldr	r4, [r4]
 539:lvgl/lvgl/src/extra/themes/default/lv_theme_default.c **** #endif
 7126              		.loc 1 539 5 discriminator 8 view .LVU2176
 7127 141e 04F5DC74 		add	r4, r4, #440
 539:lvgl/lvgl/src/extra/themes/default/lv_theme_default.c **** #endif
 7128              		.loc 1 539 59 discriminator 8 view .LVU2177
 7129 1422 084B     		ldr	r3, .L585+16
 7130 1424 1B78     		ldrb	r3, [r3]	@ zero_extendqisi2
 539:lvgl/lvgl/src/extra/themes/default/lv_theme_default.c **** #endif
 7131              		.loc 1 539 5 discriminator 8 view .LVU2178
 7132 1426 012B     		cmp	r3, #1
 7133 1428 01F0EC81 		beq	.L514
 539:lvgl/lvgl/src/extra/themes/default/lv_theme_default.c **** #endif
 7134              		.loc 1 539 5 discriminator 2 view .LVU2179
 7135 142c 022B     		cmp	r3, #2
 7136 142e 01F00682 		beq	.L515
 7137 1432 09E0     		b	.L586
 7138              	.L587:
 7139              		.align	2
 7140              	.L585:
 7141 1434 00000000 		.word	.LANCHOR2
 7142 1438 00000000 		.word	.LANCHOR0
 7143 143c 00000000 		.word	.LANCHOR7
 7144 1440 00000000 		.word	.LANCHOR6
 7145 1444 00000000 		.word	.LANCHOR1
 7146              	.L586:
 539:lvgl/lvgl/src/extra/themes/default/lv_theme_default.c **** #endif
 7147              		.loc 1 539 59 discriminator 5 view .LVU2180
 7148 1448 D24B     		ldr	r3, .L588
 7149 144a DD68     		ldr	r5, [r3, #12]
 7150              	.LVL783:
 7151              	.LBB680:
 7152              	.LBI680:
 236:d:\practise\f407_disc\lvgl\lvgl\src/core\lv_disp.h **** {
 7153              		.loc 3 236 26 is_stmt 1 discriminator 5 view .LVU2181
 7154              	.LBB681:
 7155              		.loc 3 238 5 discriminator 5 view .LVU2182
 7156              		.loc 3 238 12 is_stmt 0 discriminator 5 view .LVU2183
 7157 144c 2846     		mov	r0, r5
 7158 144e FFF7FEFF 		bl	lv_disp_get_dpi
 7159              	.LVL784:
 7160 1452 0001     		lsls	r0, r0, #4
 7161 1454 EF28     		cmp	r0, #239
 7162 1456 01F30F82 		bgt	.L516
 7163              		.loc 3 238 12 view .LVU2184
 7164 145a 0121     		movs	r1, #1
 7165              	.LVL785:
 7166              	.L277:
 7167              		.loc 3 238 12 view .LVU2185
 7168              	.LBE681:
ARM GAS  C:\Users\gx\AppData\Local\Temp\ccQfGIQ4.s 			page 206


 7169              	.LBE680:
 539:lvgl/lvgl/src/extra/themes/default/lv_theme_default.c **** #endif
 7170              		.loc 1 539 5 discriminator 8 view .LVU2186
 7171 145c 2046     		mov	r0, r4
 7172 145e FFF7FEFF 		bl	lv_style_set_transform_width
 7173              	.LVL786:
 544:lvgl/lvgl/src/extra/themes/default/lv_theme_default.c ****     lv_style_set_bg_opa(&styles->led, LV_OPA_COVER);
 7174              		.loc 1 544 5 is_stmt 1 discriminator 8 view .LVU2187
 544:lvgl/lvgl/src/extra/themes/default/lv_theme_default.c ****     lv_style_set_bg_opa(&styles->led, LV_OPA_COVER);
 7175              		.loc 1 544 29 is_stmt 0 discriminator 8 view .LVU2188
 7176 1462 CD4C     		ldr	r4, .L588+4
 7177 1464 2068     		ldr	r0, [r4]
 544:lvgl/lvgl/src/extra/themes/default/lv_theme_default.c ****     lv_style_set_bg_opa(&styles->led, LV_OPA_COVER);
 7178              		.loc 1 544 5 discriminator 8 view .LVU2189
 7179 1466 00F5EC70 		add	r0, r0, #472
 7180 146a FFF7FEFF 		bl	style_init_reset
 7181              	.LVL787:
 545:lvgl/lvgl/src/extra/themes/default/lv_theme_default.c ****     lv_style_set_bg_color(&styles->led, lv_color_white());
 7182              		.loc 1 545 5 is_stmt 1 discriminator 8 view .LVU2190
 545:lvgl/lvgl/src/extra/themes/default/lv_theme_default.c ****     lv_style_set_bg_color(&styles->led, lv_color_white());
 7183              		.loc 1 545 32 is_stmt 0 discriminator 8 view .LVU2191
 7184 146e 2068     		ldr	r0, [r4]
 545:lvgl/lvgl/src/extra/themes/default/lv_theme_default.c ****     lv_style_set_bg_color(&styles->led, lv_color_white());
 7185              		.loc 1 545 5 discriminator 8 view .LVU2192
 7186 1470 FF21     		movs	r1, #255
 7187 1472 00F5EC70 		add	r0, r0, #472
 7188 1476 FFF7FEFF 		bl	lv_style_set_bg_opa
 7189              	.LVL788:
 546:lvgl/lvgl/src/extra/themes/default/lv_theme_default.c ****     lv_style_set_bg_grad_color(&styles->led, lv_palette_main(LV_PALETTE_GREY));
 7190              		.loc 1 546 5 is_stmt 1 discriminator 8 view .LVU2193
 546:lvgl/lvgl/src/extra/themes/default/lv_theme_default.c ****     lv_style_set_bg_grad_color(&styles->led, lv_palette_main(LV_PALETTE_GREY));
 7191              		.loc 1 546 34 is_stmt 0 discriminator 8 view .LVU2194
 7192 147a 2068     		ldr	r0, [r4]
 7193              	.LBB683:
 7194              	.LBI683:
 7195              		.loc 2 687 26 is_stmt 1 discriminator 8 view .LVU2195
 7196              	.LBE683:
 7197              		.loc 2 687 49 discriminator 8 view .LVU2196
 7198              	.LVL789:
 7199              	.LBB686:
 7200              	.LBB684:
 7201              	.LBI684:
 615:d:\practise\f407_disc\lvgl\lvgl\src\misc\lv_color.h **** {
 7202              		.loc 2 615 26 discriminator 8 view .LVU2197
 7203              	.LBB685:
 617:d:\practise\f407_disc\lvgl\lvgl\src\misc\lv_color.h **** }
 7204              		.loc 2 617 5 discriminator 8 view .LVU2198
 617:d:\practise\f407_disc\lvgl\lvgl\src\misc\lv_color.h **** }
 7205              		.loc 2 617 5 is_stmt 0 discriminator 8 view .LVU2199
 7206              	.LBE685:
 7207              	.LBE684:
 7208              	.LBE686:
 546:lvgl/lvgl/src/extra/themes/default/lv_theme_default.c ****     lv_style_set_bg_grad_color(&styles->led, lv_palette_main(LV_PALETTE_GREY));
 7209              		.loc 1 546 5 discriminator 8 view .LVU2200
 7210 147c 4FF0FF31 		mov	r1, #-1	@ movhi
 7211 1480 00F5EC70 		add	r0, r0, #472
 7212 1484 FFF7FEFF 		bl	lv_style_set_bg_color
ARM GAS  C:\Users\gx\AppData\Local\Temp\ccQfGIQ4.s 			page 207


 7213              	.LVL790:
 547:lvgl/lvgl/src/extra/themes/default/lv_theme_default.c ****     lv_style_set_radius(&styles->led, LV_RADIUS_CIRCLE);
 7214              		.loc 1 547 5 is_stmt 1 discriminator 8 view .LVU2201
 547:lvgl/lvgl/src/extra/themes/default/lv_theme_default.c ****     lv_style_set_radius(&styles->led, LV_RADIUS_CIRCLE);
 7215              		.loc 1 547 39 is_stmt 0 discriminator 8 view .LVU2202
 7216 1488 2568     		ldr	r5, [r4]
 547:lvgl/lvgl/src/extra/themes/default/lv_theme_default.c ****     lv_style_set_radius(&styles->led, LV_RADIUS_CIRCLE);
 7217              		.loc 1 547 5 discriminator 8 view .LVU2203
 7218 148a 1220     		movs	r0, #18
 7219 148c FFF7FEFF 		bl	lv_palette_main
 7220              	.LVL791:
 7221 1490 0146     		mov	r1, r0	@ movhi
 7222 1492 05F5EC70 		add	r0, r5, #472
 7223 1496 FFF7FEFF 		bl	lv_style_set_bg_grad_color
 7224              	.LVL792:
 548:lvgl/lvgl/src/extra/themes/default/lv_theme_default.c ****     lv_style_set_shadow_width(&styles->led, lv_disp_dpx(theme.disp, 15));
 7225              		.loc 1 548 5 is_stmt 1 discriminator 8 view .LVU2204
 548:lvgl/lvgl/src/extra/themes/default/lv_theme_default.c ****     lv_style_set_shadow_width(&styles->led, lv_disp_dpx(theme.disp, 15));
 7226              		.loc 1 548 32 is_stmt 0 discriminator 8 view .LVU2205
 7227 149a 2068     		ldr	r0, [r4]
 548:lvgl/lvgl/src/extra/themes/default/lv_theme_default.c ****     lv_style_set_shadow_width(&styles->led, lv_disp_dpx(theme.disp, 15));
 7228              		.loc 1 548 5 discriminator 8 view .LVU2206
 7229 149c 47F6FF71 		movw	r1, #32767
 7230 14a0 00F5EC70 		add	r0, r0, #472
 7231 14a4 FFF7FEFF 		bl	lv_style_set_radius
 7232              	.LVL793:
 549:lvgl/lvgl/src/extra/themes/default/lv_theme_default.c ****     lv_style_set_shadow_color(&styles->led, lv_color_white());
 7233              		.loc 1 549 5 is_stmt 1 discriminator 8 view .LVU2207
 549:lvgl/lvgl/src/extra/themes/default/lv_theme_default.c ****     lv_style_set_shadow_color(&styles->led, lv_color_white());
 7234              		.loc 1 549 38 is_stmt 0 discriminator 8 view .LVU2208
 7235 14a8 2468     		ldr	r4, [r4]
 549:lvgl/lvgl/src/extra/themes/default/lv_theme_default.c ****     lv_style_set_shadow_color(&styles->led, lv_color_white());
 7236              		.loc 1 549 5 discriminator 8 view .LVU2209
 7237 14aa 04F5EC74 		add	r4, r4, #472
 549:lvgl/lvgl/src/extra/themes/default/lv_theme_default.c ****     lv_style_set_shadow_color(&styles->led, lv_color_white());
 7238              		.loc 1 549 62 discriminator 8 view .LVU2210
 7239 14ae B94B     		ldr	r3, .L588
 7240 14b0 DD68     		ldr	r5, [r3, #12]
 7241              	.LVL794:
 7242              	.LBB687:
 7243              	.LBI687:
 236:d:\practise\f407_disc\lvgl\lvgl\src/core\lv_disp.h **** {
 7244              		.loc 3 236 26 is_stmt 1 discriminator 8 view .LVU2211
 7245              	.LBB688:
 7246              		.loc 3 238 5 discriminator 8 view .LVU2212
 7247              		.loc 3 238 12 is_stmt 0 discriminator 8 view .LVU2213
 7248 14b2 2846     		mov	r0, r5
 7249 14b4 FFF7FEFF 		bl	lv_disp_get_dpi
 7250              	.LVL795:
 7251 14b8 C0EB0010 		rsb	r0, r0, r0, lsl #4
 7252 14bc EF28     		cmp	r0, #239
 7253 14be 01F3E981 		bgt	.L517
 7254              		.loc 3 238 12 view .LVU2214
 7255 14c2 0121     		movs	r1, #1
 7256              	.L281:
 7257              	.LVL796:
 7258              		.loc 3 238 12 view .LVU2215
ARM GAS  C:\Users\gx\AppData\Local\Temp\ccQfGIQ4.s 			page 208


 7259              	.LBE688:
 7260              	.LBE687:
 549:lvgl/lvgl/src/extra/themes/default/lv_theme_default.c ****     lv_style_set_shadow_color(&styles->led, lv_color_white());
 7261              		.loc 1 549 5 view .LVU2216
 7262 14c4 2046     		mov	r0, r4
 7263 14c6 FFF7FEFF 		bl	lv_style_set_shadow_width
 7264              	.LVL797:
 550:lvgl/lvgl/src/extra/themes/default/lv_theme_default.c ****     lv_style_set_shadow_spread(&styles->led, lv_disp_dpx(theme.disp, 5));
 7265              		.loc 1 550 5 is_stmt 1 view .LVU2217
 550:lvgl/lvgl/src/extra/themes/default/lv_theme_default.c ****     lv_style_set_shadow_spread(&styles->led, lv_disp_dpx(theme.disp, 5));
 7266              		.loc 1 550 38 is_stmt 0 view .LVU2218
 7267 14ca B34C     		ldr	r4, .L588+4
 7268 14cc 2068     		ldr	r0, [r4]
 7269              	.LBB690:
 7270              	.LBI690:
 7271              		.loc 2 687 26 is_stmt 1 view .LVU2219
 7272              	.LBE690:
 7273              		.loc 2 687 49 view .LVU2220
 7274              	.LVL798:
 7275              	.LBB693:
 7276              	.LBB691:
 7277              	.LBI691:
 615:d:\practise\f407_disc\lvgl\lvgl\src\misc\lv_color.h **** {
 7278              		.loc 2 615 26 view .LVU2221
 7279              	.LBB692:
 617:d:\practise\f407_disc\lvgl\lvgl\src\misc\lv_color.h **** }
 7280              		.loc 2 617 5 view .LVU2222
 617:d:\practise\f407_disc\lvgl\lvgl\src\misc\lv_color.h **** }
 7281              		.loc 2 617 5 is_stmt 0 view .LVU2223
 7282              	.LBE692:
 7283              	.LBE691:
 7284              	.LBE693:
 550:lvgl/lvgl/src/extra/themes/default/lv_theme_default.c ****     lv_style_set_shadow_spread(&styles->led, lv_disp_dpx(theme.disp, 5));
 7285              		.loc 1 550 5 view .LVU2224
 7286 14ce 4FF0FF31 		mov	r1, #-1	@ movhi
 7287 14d2 00F5EC70 		add	r0, r0, #472
 7288 14d6 FFF7FEFF 		bl	lv_style_set_shadow_color
 7289              	.LVL799:
 551:lvgl/lvgl/src/extra/themes/default/lv_theme_default.c **** #endif
 7290              		.loc 1 551 5 is_stmt 1 view .LVU2225
 551:lvgl/lvgl/src/extra/themes/default/lv_theme_default.c **** #endif
 7291              		.loc 1 551 39 is_stmt 0 view .LVU2226
 7292 14da 2468     		ldr	r4, [r4]
 551:lvgl/lvgl/src/extra/themes/default/lv_theme_default.c **** #endif
 7293              		.loc 1 551 5 view .LVU2227
 7294 14dc 04F5EC74 		add	r4, r4, #472
 551:lvgl/lvgl/src/extra/themes/default/lv_theme_default.c **** #endif
 7295              		.loc 1 551 63 view .LVU2228
 7296 14e0 AC4B     		ldr	r3, .L588
 7297 14e2 DD68     		ldr	r5, [r3, #12]
 7298              	.LVL800:
 7299              	.LBB694:
 7300              	.LBI694:
 236:d:\practise\f407_disc\lvgl\lvgl\src/core\lv_disp.h **** {
 7301              		.loc 3 236 26 is_stmt 1 view .LVU2229
 7302              	.LBB695:
 7303              		.loc 3 238 5 view .LVU2230
ARM GAS  C:\Users\gx\AppData\Local\Temp\ccQfGIQ4.s 			page 209


 7304              		.loc 3 238 12 is_stmt 0 view .LVU2231
 7305 14e4 2846     		mov	r0, r5
 7306 14e6 FFF7FEFF 		bl	lv_disp_get_dpi
 7307              	.LVL801:
 7308 14ea 00EB8000 		add	r0, r0, r0, lsl #2
 7309 14ee EF28     		cmp	r0, #239
 7310 14f0 01F3DF81 		bgt	.L518
 7311 14f4 0121     		movs	r1, #1
 7312              	.L282:
 7313              	.LVL802:
 7314              		.loc 3 238 12 view .LVU2232
 7315              	.LBE695:
 7316              	.LBE694:
 551:lvgl/lvgl/src/extra/themes/default/lv_theme_default.c **** #endif
 7317              		.loc 1 551 5 view .LVU2233
 7318 14f6 2046     		mov	r0, r4
 7319 14f8 FFF7FEFF 		bl	lv_style_set_shadow_spread
 7320              	.LVL803:
 553:lvgl/lvgl/src/extra/themes/default/lv_theme_default.c **** 
 7321              		.loc 1 553 1 view .LVU2234
 7322 14fc 02B0     		add	sp, sp, #8
 7323              	.LCFI6:
 7324              		.cfi_remember_state
 7325              		.cfi_def_cfa_offset 24
 7326              		@ sp needed
 7327 14fe BDE8F081 		pop	{r4, r5, r6, r7, r8, pc}
 7328              	.L78:
 7329              	.LCFI7:
 7330              		.cfi_restore_state
 210:lvgl/lvgl/src/extra/themes/default/lv_theme_default.c ****     color_text = theme.flags & MODE_DARK ? DARK_COLOR_TEXT : LIGHT_COLOR_TEXT;
 7331              		.loc 1 210 60 discriminator 2 view .LVU2235
 7332 1502 0421     		movs	r1, #4
 7333 1504 1220     		movs	r0, #18
 7334 1506 FFF7FEFF 		bl	lv_palette_lighten
 7335              	.LVL804:
 7336 150a A44B     		ldr	r3, .L588+8
 7337 150c 1880     		strh	r0, [r3]	@ movhi
 7338 150e FEF78DBD 		b	.L79
 7339              	.L80:
 211:lvgl/lvgl/src/extra/themes/default/lv_theme_default.c ****     color_card = theme.flags & MODE_DARK ? DARK_COLOR_CARD : LIGHT_COLOR_CARD;
 7340              		.loc 1 211 62 discriminator 2 view .LVU2236
 7341 1512 0421     		movs	r1, #4
 7342 1514 1220     		movs	r0, #18
 7343 1516 FFF7FEFF 		bl	lv_palette_darken
 7344              	.LVL805:
 7345 151a A14B     		ldr	r3, .L588+12
 7346 151c 1880     		strh	r0, [r3]	@ movhi
 7347 151e FEF791BD 		b	.L81
 7348              	.L82:
 7349              	.LBB697:
 7350              	.LBI697:
 7351              		.loc 2 687 26 is_stmt 1 view .LVU2237
 7352              	.LBE697:
 7353              		.loc 2 687 49 view .LVU2238
 7354              	.LVL806:
 7355              	.LBB700:
 7356              	.LBB698:
ARM GAS  C:\Users\gx\AppData\Local\Temp\ccQfGIQ4.s 			page 210


 7357              	.LBI698:
 615:d:\practise\f407_disc\lvgl\lvgl\src\misc\lv_color.h **** {
 7358              		.loc 2 615 26 view .LVU2239
 7359              	.LBB699:
 617:d:\practise\f407_disc\lvgl\lvgl\src\misc\lv_color.h **** }
 7360              		.loc 2 617 5 view .LVU2240
 617:d:\practise\f407_disc\lvgl\lvgl\src\misc\lv_color.h **** }
 7361              		.loc 2 617 5 is_stmt 0 view .LVU2241
 7362              	.LBE699:
 7363              	.LBE698:
 7364              	.LBE700:
 212:lvgl/lvgl/src/extra/themes/default/lv_theme_default.c ****     color_grey = theme.flags & MODE_DARK ? DARK_COLOR_GREY : LIGHT_COLOR_GREY;
 7365              		.loc 1 212 62 view .LVU2242
 7366 1522 4FF6FF71 		movw	r1, #65535
 7367 1526 9F4A     		ldr	r2, .L588+16
 7368 1528 1180     		strh	r1, [r2]	@ movhi
 7369 152a FEF79EBD 		b	.L83
 7370              	.L84:
 213:lvgl/lvgl/src/extra/themes/default/lv_theme_default.c **** 
 7371              		.loc 1 213 62 discriminator 2 view .LVU2243
 7372 152e 0221     		movs	r1, #2
 7373 1530 1220     		movs	r0, #18
 7374 1532 FFF7FEFF 		bl	lv_palette_lighten
 7375              	.LVL807:
 7376 1536 9C4B     		ldr	r3, .L588+20
 7377 1538 1880     		strh	r0, [r3]	@ movhi
 7378 153a FEF7A6BD 		b	.L85
 7379              	.L86:
 228:lvgl/lvgl/src/extra/themes/default/lv_theme_default.c ****     lv_style_set_radius(&styles->scrollbar, LV_RADIUS_CIRCLE);
 7380              		.loc 1 228 115 discriminator 2 view .LVU2244
 7381 153e 1220     		movs	r0, #18
 7382 1540 FFF7FEFF 		bl	lv_palette_main
 7383              	.LVL808:
 7384 1544 0146     		mov	r1, r0	@ movhi
 7385 1546 FEF7DBBD 		b	.L87
 7386              	.LVL809:
 7387              	.L402:
 7388              	.LBB701:
 7389              	.LBB419:
 7390              		.loc 3 238 12 view .LVU2245
 7391 154a 2846     		mov	r0, r5
 7392 154c FFF7FEFF 		bl	lv_disp_get_dpi
 7393              	.LVL810:
 7394 1550 C0EBC000 		rsb	r0, r0, r0, lsl #3
 7395 1554 5030     		adds	r0, r0, #80
 7396 1556 954B     		ldr	r3, .L588+24
 7397 1558 83FB0023 		smull	r2, r3, r3, r0
 7398 155c C117     		asrs	r1, r0, #31
 7399 155e C1EBA311 		rsb	r1, r1, r3, asr #6
 7400 1562 09B2     		sxth	r1, r1
 7401 1564 FEF7E3BD 		b	.L88
 7402              	.LVL811:
 7403              	.L403:
 7404              		.loc 3 238 12 view .LVU2246
 7405              	.LBE419:
 7406              	.LBE701:
 7407              	.LBB702:
ARM GAS  C:\Users\gx\AppData\Local\Temp\ccQfGIQ4.s 			page 211


 7408              	.LBB422:
 7409 1568 2846     		mov	r0, r5
 7410 156a FFF7FEFF 		bl	lv_disp_get_dpi
 7411              	.LVL812:
 7412 156e C0EBC000 		rsb	r0, r0, r0, lsl #3
 7413 1572 5030     		adds	r0, r0, #80
 7414 1574 8D4B     		ldr	r3, .L588+24
 7415 1576 83FB0023 		smull	r2, r3, r3, r0
 7416 157a C117     		asrs	r1, r0, #31
 7417 157c C1EBA311 		rsb	r1, r1, r3, asr #6
 7418 1580 09B2     		sxth	r1, r1
 7419 1582 FEF7E5BD 		b	.L89
 7420              	.LVL813:
 7421              	.L404:
 7422              		.loc 3 238 12 view .LVU2247
 7423              	.LBE422:
 7424              	.LBE702:
 7425              	.LBB703:
 7426              	.LBB425:
 7427 1586 2046     		mov	r0, r4
 7428 1588 FFF7FEFF 		bl	lv_disp_get_dpi
 7429              	.LVL814:
 7430 158c 00EB8000 		add	r0, r0, r0, lsl #2
 7431 1590 5030     		adds	r0, r0, #80
 7432 1592 864B     		ldr	r3, .L588+24
 7433 1594 83FB0023 		smull	r2, r3, r3, r0
 7434 1598 C417     		asrs	r4, r0, #31
 7435              	.LVL815:
 7436              		.loc 3 238 12 view .LVU2248
 7437 159a C4EBA314 		rsb	r4, r4, r3, asr #6
 7438 159e 24B2     		sxth	r4, r4
 7439 15a0 FEF7E7BD 		b	.L90
 7440              	.LVL816:
 7441              	.L405:
 7442              		.loc 3 238 12 view .LVU2249
 7443              	.LBE425:
 7444              	.LBE703:
 243:lvgl/lvgl/src/extra/themes/default/lv_theme_default.c ****     lv_style_set_pad_column(&styles->scr, PAD_SMALL);
 7445              		.loc 1 243 40 discriminator 1 view .LVU2250
 7446 15a4 7B4B     		ldr	r3, .L588
 7447 15a6 DD68     		ldr	r5, [r3, #12]
 7448              	.LVL817:
 7449              	.LBB704:
 7450              	.LBI704:
 236:d:\practise\f407_disc\lvgl\lvgl\src/core\lv_disp.h **** {
 7451              		.loc 3 236 26 is_stmt 1 discriminator 1 view .LVU2251
 7452              	.LBB705:
 7453              		.loc 3 238 5 discriminator 1 view .LVU2252
 7454              		.loc 3 238 12 is_stmt 0 discriminator 1 view .LVU2253
 7455 15a8 2846     		mov	r0, r5
 7456 15aa FFF7FEFF 		bl	lv_disp_get_dpi
 7457              	.LVL818:
 7458 15ae C0EBC000 		rsb	r0, r0, r0, lsl #3
 7459 15b2 4000     		lsls	r0, r0, #1
 7460 15b4 EF28     		cmp	r0, #239
 7461 15b6 02DC     		bgt	.L519
 7462              		.loc 3 238 12 view .LVU2254
ARM GAS  C:\Users\gx\AppData\Local\Temp\ccQfGIQ4.s 			page 212


 7463 15b8 0121     		movs	r1, #1
 7464              	.LVL819:
 7465              		.loc 3 238 12 view .LVU2255
 7466 15ba FEF71CBE 		b	.L93
 7467              	.LVL820:
 7468              	.L519:
 7469              		.loc 3 238 12 view .LVU2256
 7470 15be 2846     		mov	r0, r5
 7471 15c0 FFF7FEFF 		bl	lv_disp_get_dpi
 7472              	.LVL821:
 7473 15c4 C0EBC000 		rsb	r0, r0, r0, lsl #3
 7474 15c8 4300     		lsls	r3, r0, #1
 7475 15ca 5033     		adds	r3, r3, #80
 7476 15cc 774A     		ldr	r2, .L588+24
 7477 15ce 82FB0312 		smull	r1, r2, r2, r3
 7478 15d2 D917     		asrs	r1, r3, #31
 7479 15d4 C1EBA211 		rsb	r1, r1, r2, asr #6
 7480 15d8 09B2     		sxth	r1, r1
 7481 15da FEF70CBE 		b	.L93
 7482              	.LVL822:
 7483              	.L406:
 7484              		.loc 3 238 12 view .LVU2257
 7485              	.LBE705:
 7486              	.LBE704:
 243:lvgl/lvgl/src/extra/themes/default/lv_theme_default.c ****     lv_style_set_pad_column(&styles->scr, PAD_SMALL);
 7487              		.loc 1 243 40 discriminator 4 view .LVU2258
 7488 15de 6D4B     		ldr	r3, .L588
 7489 15e0 DD68     		ldr	r5, [r3, #12]
 7490              	.LVL823:
 7491              	.LBB706:
 7492              	.LBI706:
 236:d:\practise\f407_disc\lvgl\lvgl\src/core\lv_disp.h **** {
 7493              		.loc 3 236 26 is_stmt 1 discriminator 4 view .LVU2259
 7494              	.LBB707:
 7495              		.loc 3 238 5 discriminator 4 view .LVU2260
 7496              		.loc 3 238 12 is_stmt 0 discriminator 4 view .LVU2261
 7497 15e2 2846     		mov	r0, r5
 7498 15e4 FFF7FEFF 		bl	lv_disp_get_dpi
 7499              	.LVL824:
 7500 15e8 00EB4000 		add	r0, r0, r0, lsl #1
 7501 15ec 8000     		lsls	r0, r0, #2
 7502 15ee EF28     		cmp	r0, #239
 7503 15f0 02DC     		bgt	.L520
 7504              		.loc 3 238 12 view .LVU2262
 7505 15f2 0121     		movs	r1, #1
 7506              	.LVL825:
 7507              		.loc 3 238 12 view .LVU2263
 7508 15f4 FEF7FFBD 		b	.L93
 7509              	.LVL826:
 7510              	.L520:
 7511              		.loc 3 238 12 view .LVU2264
 7512 15f8 2846     		mov	r0, r5
 7513 15fa FFF7FEFF 		bl	lv_disp_get_dpi
 7514              	.LVL827:
 7515 15fe 00EB4000 		add	r0, r0, r0, lsl #1
 7516 1602 8300     		lsls	r3, r0, #2
 7517 1604 5033     		adds	r3, r3, #80
ARM GAS  C:\Users\gx\AppData\Local\Temp\ccQfGIQ4.s 			page 213


 7518 1606 694A     		ldr	r2, .L588+24
 7519 1608 82FB0312 		smull	r1, r2, r2, r3
 7520 160c D917     		asrs	r1, r3, #31
 7521 160e C1EBA211 		rsb	r1, r1, r2, asr #6
 7522 1612 09B2     		sxth	r1, r1
 7523 1614 FEF7EFBD 		b	.L93
 7524              	.LVL828:
 7525              	.L407:
 7526              		.loc 3 238 12 view .LVU2265
 7527              	.LBE707:
 7528              	.LBE706:
 7529              	.LBB708:
 7530              	.LBB430:
 7531 1618 2846     		mov	r0, r5
 7532 161a FFF7FEFF 		bl	lv_disp_get_dpi
 7533              	.LVL829:
 7534 161e 00EB8000 		add	r0, r0, r0, lsl #2
 7535 1622 4300     		lsls	r3, r0, #1
 7536 1624 5033     		adds	r3, r3, #80
 7537 1626 614A     		ldr	r2, .L588+24
 7538 1628 82FB0312 		smull	r1, r2, r2, r3
 7539 162c D917     		asrs	r1, r3, #31
 7540 162e C1EBA211 		rsb	r1, r1, r2, asr #6
 7541 1632 09B2     		sxth	r1, r1
 7542 1634 FEF7DFBD 		b	.L93
 7543              	.LVL830:
 7544              	.L408:
 7545              		.loc 3 238 12 view .LVU2266
 7546              	.LBE430:
 7547              	.LBE708:
 244:lvgl/lvgl/src/extra/themes/default/lv_theme_default.c **** 
 7548              		.loc 1 244 43 discriminator 1 view .LVU2267
 7549 1638 564B     		ldr	r3, .L588
 7550 163a DD68     		ldr	r5, [r3, #12]
 7551              	.LVL831:
 7552              	.LBB709:
 7553              	.LBI709:
 236:d:\practise\f407_disc\lvgl\lvgl\src/core\lv_disp.h **** {
 7554              		.loc 3 236 26 is_stmt 1 discriminator 1 view .LVU2268
 7555              	.LBB710:
 7556              		.loc 3 238 5 discriminator 1 view .LVU2269
 7557              		.loc 3 238 12 is_stmt 0 discriminator 1 view .LVU2270
 7558 163c 2846     		mov	r0, r5
 7559 163e FFF7FEFF 		bl	lv_disp_get_dpi
 7560              	.LVL832:
 7561 1642 C0EBC000 		rsb	r0, r0, r0, lsl #3
 7562 1646 4000     		lsls	r0, r0, #1
 7563 1648 EF28     		cmp	r0, #239
 7564 164a 02DC     		bgt	.L521
 7565              		.loc 3 238 12 view .LVU2271
 7566 164c 0121     		movs	r1, #1
 7567              	.LVL833:
 7568              		.loc 3 238 12 view .LVU2272
 7569 164e FEF7EBBD 		b	.L99
 7570              	.LVL834:
 7571              	.L521:
 7572              		.loc 3 238 12 view .LVU2273
ARM GAS  C:\Users\gx\AppData\Local\Temp\ccQfGIQ4.s 			page 214


 7573 1652 2846     		mov	r0, r5
 7574 1654 FFF7FEFF 		bl	lv_disp_get_dpi
 7575              	.LVL835:
 7576 1658 C0EBC000 		rsb	r0, r0, r0, lsl #3
 7577 165c 4300     		lsls	r3, r0, #1
 7578 165e 5033     		adds	r3, r3, #80
 7579 1660 524A     		ldr	r2, .L588+24
 7580 1662 82FB0312 		smull	r1, r2, r2, r3
 7581 1666 D917     		asrs	r1, r3, #31
 7582 1668 C1EBA211 		rsb	r1, r1, r2, asr #6
 7583 166c 09B2     		sxth	r1, r1
 7584 166e FEF7DBBD 		b	.L99
 7585              	.LVL836:
 7586              	.L409:
 7587              		.loc 3 238 12 view .LVU2274
 7588              	.LBE710:
 7589              	.LBE709:
 244:lvgl/lvgl/src/extra/themes/default/lv_theme_default.c **** 
 7590              		.loc 1 244 43 discriminator 4 view .LVU2275
 7591 1672 484B     		ldr	r3, .L588
 7592 1674 DD68     		ldr	r5, [r3, #12]
 7593              	.LVL837:
 7594              	.LBB711:
 7595              	.LBI711:
 236:d:\practise\f407_disc\lvgl\lvgl\src/core\lv_disp.h **** {
 7596              		.loc 3 236 26 is_stmt 1 discriminator 4 view .LVU2276
 7597              	.LBB712:
 7598              		.loc 3 238 5 discriminator 4 view .LVU2277
 7599              		.loc 3 238 12 is_stmt 0 discriminator 4 view .LVU2278
 7600 1676 2846     		mov	r0, r5
 7601 1678 FFF7FEFF 		bl	lv_disp_get_dpi
 7602              	.LVL838:
 7603 167c 00EB4000 		add	r0, r0, r0, lsl #1
 7604 1680 8000     		lsls	r0, r0, #2
 7605 1682 EF28     		cmp	r0, #239
 7606 1684 02DC     		bgt	.L522
 7607              		.loc 3 238 12 view .LVU2279
 7608 1686 0121     		movs	r1, #1
 7609              	.LVL839:
 7610              		.loc 3 238 12 view .LVU2280
 7611 1688 FEF7CEBD 		b	.L99
 7612              	.LVL840:
 7613              	.L522:
 7614              		.loc 3 238 12 view .LVU2281
 7615 168c 2846     		mov	r0, r5
 7616 168e FFF7FEFF 		bl	lv_disp_get_dpi
 7617              	.LVL841:
 7618 1692 00EB4000 		add	r0, r0, r0, lsl #1
 7619 1696 8300     		lsls	r3, r0, #2
 7620 1698 5033     		adds	r3, r3, #80
 7621 169a 444A     		ldr	r2, .L588+24
 7622 169c 82FB0312 		smull	r1, r2, r2, r3
 7623 16a0 D917     		asrs	r1, r3, #31
 7624 16a2 C1EBA211 		rsb	r1, r1, r2, asr #6
 7625 16a6 09B2     		sxth	r1, r1
 7626 16a8 FEF7BEBD 		b	.L99
 7627              	.LVL842:
ARM GAS  C:\Users\gx\AppData\Local\Temp\ccQfGIQ4.s 			page 215


 7628              	.L410:
 7629              		.loc 3 238 12 view .LVU2282
 7630              	.LBE712:
 7631              	.LBE711:
 7632              	.LBB713:
 7633              	.LBB433:
 7634 16ac 2846     		mov	r0, r5
 7635 16ae FFF7FEFF 		bl	lv_disp_get_dpi
 7636              	.LVL843:
 7637 16b2 00EB8000 		add	r0, r0, r0, lsl #2
 7638 16b6 4300     		lsls	r3, r0, #1
 7639 16b8 5033     		adds	r3, r3, #80
 7640 16ba 3C4A     		ldr	r2, .L588+24
 7641 16bc 82FB0312 		smull	r1, r2, r2, r3
 7642 16c0 D917     		asrs	r1, r3, #31
 7643 16c2 C1EBA211 		rsb	r1, r1, r2, asr #6
 7644 16c6 09B2     		sxth	r1, r1
 7645 16c8 FEF7AEBD 		b	.L99
 7646              	.LVL844:
 7647              	.L411:
 7648              		.loc 3 238 12 view .LVU2283
 7649              	.LBE433:
 7650              	.LBE713:
 247:lvgl/lvgl/src/extra/themes/default/lv_theme_default.c ****     lv_style_set_bg_opa(&styles->card, LV_OPA_COVER);
 7651              		.loc 1 247 40 discriminator 1 view .LVU2284
 7652 16cc 314B     		ldr	r3, .L588
 7653 16ce DD68     		ldr	r5, [r3, #12]
 7654              	.LVL845:
 7655              	.LBB714:
 7656              	.LBI714:
 236:d:\practise\f407_disc\lvgl\lvgl\src/core\lv_disp.h **** {
 7657              		.loc 3 236 26 is_stmt 1 discriminator 1 view .LVU2285
 7658              	.LBB715:
 7659              		.loc 3 238 5 discriminator 1 view .LVU2286
 7660              		.loc 3 238 12 is_stmt 0 discriminator 1 view .LVU2287
 7661 16d0 2846     		mov	r0, r5
 7662 16d2 FFF7FEFF 		bl	lv_disp_get_dpi
 7663              	.LVL846:
 7664 16d6 00EB4000 		add	r0, r0, r0, lsl #1
 7665 16da 8000     		lsls	r0, r0, #2
 7666 16dc EF28     		cmp	r0, #239
 7667 16de 02DC     		bgt	.L523
 7668              		.loc 3 238 12 view .LVU2288
 7669 16e0 0121     		movs	r1, #1
 7670              	.LVL847:
 7671              		.loc 3 238 12 view .LVU2289
 7672 16e2 FEF7BABD 		b	.L105
 7673              	.LVL848:
 7674              	.L523:
 7675              		.loc 3 238 12 view .LVU2290
 7676 16e6 2846     		mov	r0, r5
 7677 16e8 FFF7FEFF 		bl	lv_disp_get_dpi
 7678              	.LVL849:
 7679 16ec 00EB4000 		add	r0, r0, r0, lsl #1
 7680 16f0 8300     		lsls	r3, r0, #2
 7681 16f2 5033     		adds	r3, r3, #80
 7682 16f4 2D4A     		ldr	r2, .L588+24
ARM GAS  C:\Users\gx\AppData\Local\Temp\ccQfGIQ4.s 			page 216


 7683 16f6 82FB0312 		smull	r1, r2, r2, r3
 7684 16fa D917     		asrs	r1, r3, #31
 7685 16fc C1EBA211 		rsb	r1, r1, r2, asr #6
 7686 1700 09B2     		sxth	r1, r1
 7687 1702 FEF7AABD 		b	.L105
 7688              	.LVL850:
 7689              	.L412:
 7690              		.loc 3 238 12 view .LVU2291
 7691              	.LBE715:
 7692              	.LBE714:
 7693              	.LBB716:
 7694              	.LBB436:
 7695 1706 2846     		mov	r0, r5
 7696 1708 FFF7FEFF 		bl	lv_disp_get_dpi
 7697              	.LVL851:
 7698 170c C000     		lsls	r0, r0, #3
 7699 170e 5030     		adds	r0, r0, #80
 7700 1710 264B     		ldr	r3, .L588+24
 7701 1712 83FB0023 		smull	r2, r3, r3, r0
 7702 1716 C117     		asrs	r1, r0, #31
 7703 1718 C1EBA311 		rsb	r1, r1, r3, asr #6
 7704 171c 09B2     		sxth	r1, r1
 7705 171e FEF79CBD 		b	.L105
 7706              	.LVL852:
 7707              	.L413:
 7708              		.loc 3 238 12 view .LVU2292
 7709              	.LBE436:
 7710              	.LBE716:
 7711              	.LBB717:
 7712              	.LBB439:
 7713 1722 2846     		mov	r0, r5
 7714 1724 FFF7FEFF 		bl	lv_disp_get_dpi
 7715              	.LVL853:
 7716 1728 4000     		lsls	r0, r0, #1
 7717 172a 5030     		adds	r0, r0, #80
 7718 172c 1F4B     		ldr	r3, .L588+24
 7719 172e 83FB0023 		smull	r2, r3, r3, r0
 7720 1732 C117     		asrs	r1, r0, #31
 7721 1734 C1EBA311 		rsb	r1, r1, r3, asr #6
 7722 1738 09B2     		sxth	r1, r1
 7723 173a FEF7AFBD 		b	.L107
 7724              	.LVL854:
 7725              	.L414:
 7726              		.loc 3 238 12 view .LVU2293
 7727              	.LBE439:
 7728              	.LBE717:
 254:lvgl/lvgl/src/extra/themes/default/lv_theme_default.c ****     lv_style_set_pad_row(&styles->card, PAD_SMALL);
 7729              		.loc 1 254 41 discriminator 1 view .LVU2294
 7730 173e 154B     		ldr	r3, .L588
 7731 1740 DC68     		ldr	r4, [r3, #12]
 7732              	.LVL855:
 7733              	.LBB718:
 7734              	.LBI718:
 236:d:\practise\f407_disc\lvgl\lvgl\src/core\lv_disp.h **** {
 7735              		.loc 3 236 26 is_stmt 1 discriminator 1 view .LVU2295
 7736              	.LBB719:
 7737              		.loc 3 238 5 discriminator 1 view .LVU2296
ARM GAS  C:\Users\gx\AppData\Local\Temp\ccQfGIQ4.s 			page 217


 7738              		.loc 3 238 12 is_stmt 0 discriminator 1 view .LVU2297
 7739 1742 2046     		mov	r0, r4
 7740 1744 FFF7FEFF 		bl	lv_disp_get_dpi
 7741              	.LVL856:
 7742 1748 00EB4000 		add	r0, r0, r0, lsl #1
 7743 174c C000     		lsls	r0, r0, #3
 7744 174e EF28     		cmp	r0, #239
 7745 1750 02DC     		bgt	.L524
 7746              		.loc 3 238 12 view .LVU2298
 7747 1752 0124     		movs	r4, #1
 7748              	.LVL857:
 7749              		.loc 3 238 12 view .LVU2299
 7750 1754 FEF7C5BD 		b	.L110
 7751              	.LVL858:
 7752              	.L524:
 7753              		.loc 3 238 12 view .LVU2300
 7754 1758 2046     		mov	r0, r4
 7755 175a FFF7FEFF 		bl	lv_disp_get_dpi
 7756              	.LVL859:
 7757 175e 00EB4000 		add	r0, r0, r0, lsl #1
 7758 1762 C300     		lsls	r3, r0, #3
 7759 1764 5033     		adds	r3, r3, #80
 7760 1766 114A     		ldr	r2, .L588+24
 7761 1768 82FB0312 		smull	r1, r2, r2, r3
 7762 176c DC17     		asrs	r4, r3, #31
 7763              	.LVL860:
 7764              		.loc 3 238 12 view .LVU2301
 7765 176e C4EBA214 		rsb	r4, r4, r2, asr #6
 7766 1772 24B2     		sxth	r4, r4
 7767 1774 FEF7B5BD 		b	.L110
 7768              	.LVL861:
 7769              	.L415:
 7770              		.loc 3 238 12 view .LVU2302
 7771              	.LBE719:
 7772              	.LBE718:
 254:lvgl/lvgl/src/extra/themes/default/lv_theme_default.c ****     lv_style_set_pad_row(&styles->card, PAD_SMALL);
 7773              		.loc 1 254 41 discriminator 4 view .LVU2303
 7774 1778 064B     		ldr	r3, .L588
 7775 177a DC68     		ldr	r4, [r3, #12]
 7776              	.LVL862:
 7777              	.LBB720:
 7778              	.LBI720:
 236:d:\practise\f407_disc\lvgl\lvgl\src/core\lv_disp.h **** {
 7779              		.loc 3 236 26 is_stmt 1 discriminator 4 view .LVU2304
 7780              	.LBB721:
 7781              		.loc 3 238 5 discriminator 4 view .LVU2305
 7782              		.loc 3 238 12 is_stmt 0 discriminator 4 view .LVU2306
 7783 177c 2046     		mov	r0, r4
 7784 177e FFF7FEFF 		bl	lv_disp_get_dpi
 7785              	.LVL863:
 7786 1782 00EB8000 		add	r0, r0, r0, lsl #2
 7787 1786 8000     		lsls	r0, r0, #2
 7788 1788 EF28     		cmp	r0, #239
 7789 178a 11DC     		bgt	.L525
 7790              		.loc 3 238 12 view .LVU2307
 7791 178c 0124     		movs	r4, #1
 7792              	.LVL864:
ARM GAS  C:\Users\gx\AppData\Local\Temp\ccQfGIQ4.s 			page 218


 7793              		.loc 3 238 12 view .LVU2308
 7794 178e FEF7A8BD 		b	.L110
 7795              	.L589:
 7796 1792 00BF     		.align	2
 7797              	.L588:
 7798 1794 00000000 		.word	.LANCHOR2
 7799 1798 00000000 		.word	.LANCHOR0
 7800 179c 00000000 		.word	.LANCHOR4
 7801 17a0 00000000 		.word	.LANCHOR5
 7802 17a4 00000000 		.word	.LANCHOR6
 7803 17a8 00000000 		.word	.LANCHOR7
 7804 17ac 67666666 		.word	1717986919
 7805              	.LVL865:
 7806              	.L525:
 7807              		.loc 3 238 12 view .LVU2309
 7808 17b0 2046     		mov	r0, r4
 7809 17b2 FFF7FEFF 		bl	lv_disp_get_dpi
 7810              	.LVL866:
 7811 17b6 00EB8000 		add	r0, r0, r0, lsl #2
 7812 17ba 8300     		lsls	r3, r0, #2
 7813 17bc 5033     		adds	r3, r3, #80
 7814 17be D54A     		ldr	r2, .L590
 7815 17c0 82FB0312 		smull	r1, r2, r2, r3
 7816 17c4 DC17     		asrs	r4, r3, #31
 7817              	.LVL867:
 7818              		.loc 3 238 12 view .LVU2310
 7819 17c6 C4EBA214 		rsb	r4, r4, r2, asr #6
 7820 17ca 24B2     		sxth	r4, r4
 7821 17cc FEF789BD 		b	.L110
 7822              	.LVL868:
 7823              	.L416:
 7824              		.loc 3 238 12 view .LVU2311
 7825              	.LBE721:
 7826              	.LBE720:
 7827              	.LBB722:
 7828              	.LBB442:
 7829 17d0 2046     		mov	r0, r4
 7830 17d2 FFF7FEFF 		bl	lv_disp_get_dpi
 7831              	.LVL869:
 7832 17d6 0001     		lsls	r0, r0, #4
 7833 17d8 5030     		adds	r0, r0, #80
 7834 17da CE4B     		ldr	r3, .L590
 7835 17dc 83FB0023 		smull	r2, r3, r3, r0
 7836 17e0 C417     		asrs	r4, r0, #31
 7837              	.LVL870:
 7838              		.loc 3 238 12 view .LVU2312
 7839 17e2 C4EBA314 		rsb	r4, r4, r3, asr #6
 7840 17e6 24B2     		sxth	r4, r4
 7841 17e8 FEF77BBD 		b	.L110
 7842              	.LVL871:
 7843              	.L417:
 7844              		.loc 3 238 12 view .LVU2313
 7845              	.LBE442:
 7846              	.LBE722:
 255:lvgl/lvgl/src/extra/themes/default/lv_theme_default.c ****     lv_style_set_pad_column(&styles->card, PAD_SMALL);
 7847              		.loc 1 255 41 discriminator 1 view .LVU2314
 7848 17ec CA4B     		ldr	r3, .L590+4
ARM GAS  C:\Users\gx\AppData\Local\Temp\ccQfGIQ4.s 			page 219


 7849 17ee DD68     		ldr	r5, [r3, #12]
 7850              	.LVL872:
 7851              	.LBB723:
 7852              	.LBI723:
 236:d:\practise\f407_disc\lvgl\lvgl\src/core\lv_disp.h **** {
 7853              		.loc 3 236 26 is_stmt 1 discriminator 1 view .LVU2315
 7854              	.LBB724:
 7855              		.loc 3 238 5 discriminator 1 view .LVU2316
 7856              		.loc 3 238 12 is_stmt 0 discriminator 1 view .LVU2317
 7857 17f0 2846     		mov	r0, r5
 7858 17f2 FFF7FEFF 		bl	lv_disp_get_dpi
 7859              	.LVL873:
 7860 17f6 C0EBC000 		rsb	r0, r0, r0, lsl #3
 7861 17fa 4000     		lsls	r0, r0, #1
 7862 17fc EF28     		cmp	r0, #239
 7863 17fe 02DC     		bgt	.L526
 7864              		.loc 3 238 12 view .LVU2318
 7865 1800 0121     		movs	r1, #1
 7866              	.LVL874:
 7867              		.loc 3 238 12 view .LVU2319
 7868 1802 FEF7ADBD 		b	.L116
 7869              	.LVL875:
 7870              	.L526:
 7871              		.loc 3 238 12 view .LVU2320
 7872 1806 2846     		mov	r0, r5
 7873 1808 FFF7FEFF 		bl	lv_disp_get_dpi
 7874              	.LVL876:
 7875 180c C0EBC000 		rsb	r0, r0, r0, lsl #3
 7876 1810 4300     		lsls	r3, r0, #1
 7877 1812 5033     		adds	r3, r3, #80
 7878 1814 BF4A     		ldr	r2, .L590
 7879 1816 82FB0312 		smull	r1, r2, r2, r3
 7880 181a D917     		asrs	r1, r3, #31
 7881 181c C1EBA211 		rsb	r1, r1, r2, asr #6
 7882 1820 09B2     		sxth	r1, r1
 7883 1822 FEF79DBD 		b	.L116
 7884              	.LVL877:
 7885              	.L418:
 7886              		.loc 3 238 12 view .LVU2321
 7887              	.LBE724:
 7888              	.LBE723:
 255:lvgl/lvgl/src/extra/themes/default/lv_theme_default.c ****     lv_style_set_pad_column(&styles->card, PAD_SMALL);
 7889              		.loc 1 255 41 discriminator 4 view .LVU2322
 7890 1826 BC4B     		ldr	r3, .L590+4
 7891 1828 DD68     		ldr	r5, [r3, #12]
 7892              	.LVL878:
 7893              	.LBB725:
 7894              	.LBI725:
 236:d:\practise\f407_disc\lvgl\lvgl\src/core\lv_disp.h **** {
 7895              		.loc 3 236 26 is_stmt 1 discriminator 4 view .LVU2323
 7896              	.LBB726:
 7897              		.loc 3 238 5 discriminator 4 view .LVU2324
 7898              		.loc 3 238 12 is_stmt 0 discriminator 4 view .LVU2325
 7899 182a 2846     		mov	r0, r5
 7900 182c FFF7FEFF 		bl	lv_disp_get_dpi
 7901              	.LVL879:
 7902 1830 00EB4000 		add	r0, r0, r0, lsl #1
ARM GAS  C:\Users\gx\AppData\Local\Temp\ccQfGIQ4.s 			page 220


 7903 1834 8000     		lsls	r0, r0, #2
 7904 1836 EF28     		cmp	r0, #239
 7905 1838 02DC     		bgt	.L527
 7906              		.loc 3 238 12 view .LVU2326
 7907 183a 0121     		movs	r1, #1
 7908              	.LVL880:
 7909              		.loc 3 238 12 view .LVU2327
 7910 183c FEF790BD 		b	.L116
 7911              	.LVL881:
 7912              	.L527:
 7913              		.loc 3 238 12 view .LVU2328
 7914 1840 2846     		mov	r0, r5
 7915 1842 FFF7FEFF 		bl	lv_disp_get_dpi
 7916              	.LVL882:
 7917 1846 00EB4000 		add	r0, r0, r0, lsl #1
 7918 184a 8300     		lsls	r3, r0, #2
 7919 184c 5033     		adds	r3, r3, #80
 7920 184e B14A     		ldr	r2, .L590
 7921 1850 82FB0312 		smull	r1, r2, r2, r3
 7922 1854 D917     		asrs	r1, r3, #31
 7923 1856 C1EBA211 		rsb	r1, r1, r2, asr #6
 7924 185a 09B2     		sxth	r1, r1
 7925 185c FEF780BD 		b	.L116
 7926              	.LVL883:
 7927              	.L419:
 7928              		.loc 3 238 12 view .LVU2329
 7929              	.LBE726:
 7930              	.LBE725:
 7931              	.LBB727:
 7932              	.LBB447:
 7933 1860 2846     		mov	r0, r5
 7934 1862 FFF7FEFF 		bl	lv_disp_get_dpi
 7935              	.LVL884:
 7936 1866 00EB8000 		add	r0, r0, r0, lsl #2
 7937 186a 4300     		lsls	r3, r0, #1
 7938 186c 5033     		adds	r3, r3, #80
 7939 186e A94A     		ldr	r2, .L590
 7940 1870 82FB0312 		smull	r1, r2, r2, r3
 7941 1874 D917     		asrs	r1, r3, #31
 7942 1876 C1EBA211 		rsb	r1, r1, r2, asr #6
 7943 187a 09B2     		sxth	r1, r1
 7944 187c FEF770BD 		b	.L116
 7945              	.LVL885:
 7946              	.L420:
 7947              		.loc 3 238 12 view .LVU2330
 7948              	.LBE447:
 7949              	.LBE727:
 256:lvgl/lvgl/src/extra/themes/default/lv_theme_default.c ****     lv_style_set_line_color(&styles->card, lv_palette_main(LV_PALETTE_GREY));
 7950              		.loc 1 256 44 discriminator 1 view .LVU2331
 7951 1880 A54B     		ldr	r3, .L590+4
 7952 1882 DD68     		ldr	r5, [r3, #12]
 7953              	.LVL886:
 7954              	.LBB728:
 7955              	.LBI728:
 236:d:\practise\f407_disc\lvgl\lvgl\src/core\lv_disp.h **** {
 7956              		.loc 3 236 26 is_stmt 1 discriminator 1 view .LVU2332
 7957              	.LBB729:
ARM GAS  C:\Users\gx\AppData\Local\Temp\ccQfGIQ4.s 			page 221


 7958              		.loc 3 238 5 discriminator 1 view .LVU2333
 7959              		.loc 3 238 12 is_stmt 0 discriminator 1 view .LVU2334
 7960 1884 2846     		mov	r0, r5
 7961 1886 FFF7FEFF 		bl	lv_disp_get_dpi
 7962              	.LVL887:
 7963 188a C0EBC000 		rsb	r0, r0, r0, lsl #3
 7964 188e 4000     		lsls	r0, r0, #1
 7965 1890 EF28     		cmp	r0, #239
 7966 1892 02DC     		bgt	.L528
 7967              		.loc 3 238 12 view .LVU2335
 7968 1894 0121     		movs	r1, #1
 7969              	.LVL888:
 7970              		.loc 3 238 12 view .LVU2336
 7971 1896 FEF77DBD 		b	.L122
 7972              	.LVL889:
 7973              	.L528:
 7974              		.loc 3 238 12 view .LVU2337
 7975 189a 2846     		mov	r0, r5
 7976 189c FFF7FEFF 		bl	lv_disp_get_dpi
 7977              	.LVL890:
 7978 18a0 C0EBC000 		rsb	r0, r0, r0, lsl #3
 7979 18a4 4300     		lsls	r3, r0, #1
 7980 18a6 5033     		adds	r3, r3, #80
 7981 18a8 9A4A     		ldr	r2, .L590
 7982 18aa 82FB0312 		smull	r1, r2, r2, r3
 7983 18ae D917     		asrs	r1, r3, #31
 7984 18b0 C1EBA211 		rsb	r1, r1, r2, asr #6
 7985 18b4 09B2     		sxth	r1, r1
 7986 18b6 FEF76DBD 		b	.L122
 7987              	.LVL891:
 7988              	.L421:
 7989              		.loc 3 238 12 view .LVU2338
 7990              	.LBE729:
 7991              	.LBE728:
 256:lvgl/lvgl/src/extra/themes/default/lv_theme_default.c ****     lv_style_set_line_color(&styles->card, lv_palette_main(LV_PALETTE_GREY));
 7992              		.loc 1 256 44 discriminator 4 view .LVU2339
 7993 18ba 974B     		ldr	r3, .L590+4
 7994 18bc DD68     		ldr	r5, [r3, #12]
 7995              	.LVL892:
 7996              	.LBB730:
 7997              	.LBI730:
 236:d:\practise\f407_disc\lvgl\lvgl\src/core\lv_disp.h **** {
 7998              		.loc 3 236 26 is_stmt 1 discriminator 4 view .LVU2340
 7999              	.LBB731:
 8000              		.loc 3 238 5 discriminator 4 view .LVU2341
 8001              		.loc 3 238 12 is_stmt 0 discriminator 4 view .LVU2342
 8002 18be 2846     		mov	r0, r5
 8003 18c0 FFF7FEFF 		bl	lv_disp_get_dpi
 8004              	.LVL893:
 8005 18c4 00EB4000 		add	r0, r0, r0, lsl #1
 8006 18c8 8000     		lsls	r0, r0, #2
 8007 18ca EF28     		cmp	r0, #239
 8008 18cc 02DC     		bgt	.L529
 8009              		.loc 3 238 12 view .LVU2343
 8010 18ce 0121     		movs	r1, #1
 8011              	.LVL894:
 8012              		.loc 3 238 12 view .LVU2344
ARM GAS  C:\Users\gx\AppData\Local\Temp\ccQfGIQ4.s 			page 222


 8013 18d0 FEF760BD 		b	.L122
 8014              	.LVL895:
 8015              	.L529:
 8016              		.loc 3 238 12 view .LVU2345
 8017 18d4 2846     		mov	r0, r5
 8018 18d6 FFF7FEFF 		bl	lv_disp_get_dpi
 8019              	.LVL896:
 8020 18da 00EB4000 		add	r0, r0, r0, lsl #1
 8021 18de 8300     		lsls	r3, r0, #2
 8022 18e0 5033     		adds	r3, r3, #80
 8023 18e2 8C4A     		ldr	r2, .L590
 8024 18e4 82FB0312 		smull	r1, r2, r2, r3
 8025 18e8 D917     		asrs	r1, r3, #31
 8026 18ea C1EBA211 		rsb	r1, r1, r2, asr #6
 8027 18ee 09B2     		sxth	r1, r1
 8028 18f0 FEF750BD 		b	.L122
 8029              	.LVL897:
 8030              	.L422:
 8031              		.loc 3 238 12 view .LVU2346
 8032              	.LBE731:
 8033              	.LBE730:
 8034              	.LBB732:
 8035              	.LBB450:
 8036 18f4 2846     		mov	r0, r5
 8037 18f6 FFF7FEFF 		bl	lv_disp_get_dpi
 8038              	.LVL898:
 8039 18fa 00EB8000 		add	r0, r0, r0, lsl #2
 8040 18fe 4300     		lsls	r3, r0, #1
 8041 1900 5033     		adds	r3, r3, #80
 8042 1902 844A     		ldr	r2, .L590
 8043 1904 82FB0312 		smull	r1, r2, r2, r3
 8044 1908 D917     		asrs	r1, r3, #31
 8045 190a C1EBA211 		rsb	r1, r1, r2, asr #6
 8046 190e 09B2     		sxth	r1, r1
 8047 1910 FEF740BD 		b	.L122
 8048              	.LVL899:
 8049              	.L423:
 8050              		.loc 3 238 12 view .LVU2347
 8051              	.LBE450:
 8052              	.LBE732:
 8053              	.LBB733:
 8054              	.LBB453:
 8055 1914 2846     		mov	r0, r5
 8056 1916 FFF7FEFF 		bl	lv_disp_get_dpi
 8057              	.LVL900:
 8058 191a 5030     		adds	r0, r0, #80
 8059 191c 7D4B     		ldr	r3, .L590
 8060 191e 83FB0023 		smull	r2, r3, r3, r0
 8061 1922 C117     		asrs	r1, r0, #31
 8062 1924 C1EBA311 		rsb	r1, r1, r3, asr #6
 8063 1928 09B2     		sxth	r1, r1
 8064 192a FEF74BBD 		b	.L126
 8065              	.LVL901:
 8066              	.L424:
 8067              		.loc 3 238 12 view .LVU2348
 8068              	.LBE453:
 8069              	.LBE733:
ARM GAS  C:\Users\gx\AppData\Local\Temp\ccQfGIQ4.s 			page 223


 8070              	.LBB734:
 8071              	.LBB456:
 8072 192e 2846     		mov	r0, r5
 8073 1930 FFF7FEFF 		bl	lv_disp_get_dpi
 8074              	.LVL902:
 8075 1934 00EB4000 		add	r0, r0, r0, lsl #1
 8076 1938 5030     		adds	r0, r0, #80
 8077 193a 764B     		ldr	r3, .L590
 8078 193c 83FB0023 		smull	r2, r3, r3, r0
 8079 1940 C117     		asrs	r1, r0, #31
 8080 1942 C1EBA311 		rsb	r1, r1, r3, asr #6
 8081 1946 09B2     		sxth	r1, r1
 8082 1948 FEF756BD 		b	.L127
 8083              	.LVL903:
 8084              	.L425:
 8085              		.loc 3 238 12 view .LVU2349
 8086              	.LBE456:
 8087              	.LBE734:
 8088              	.LBB735:
 8089              	.LBB459:
 8090 194c 2846     		mov	r0, r5
 8091 194e FFF7FEFF 		bl	lv_disp_get_dpi
 8092              	.LVL904:
 8093 1952 00EB4000 		add	r0, r0, r0, lsl #1
 8094 1956 5030     		adds	r0, r0, #80
 8095 1958 6E4B     		ldr	r3, .L590
 8096 195a 83FB0023 		smull	r2, r3, r3, r0
 8097 195e C117     		asrs	r1, r0, #31
 8098 1960 C1EBA311 		rsb	r1, r1, r3, asr #6
 8099 1964 09B2     		sxth	r1, r1
 8100 1966 FEF758BD 		b	.L128
 8101              	.LVL905:
 8102              	.L426:
 8103              		.loc 3 238 12 view .LVU2350
 8104              	.LBE459:
 8105              	.LBE735:
 8106              	.LBB736:
 8107              	.LBB462:
 8108 196a 2846     		mov	r0, r5
 8109 196c FFF7FEFF 		bl	lv_disp_get_dpi
 8110              	.LVL906:
 8111 1970 00EB4000 		add	r0, r0, r0, lsl #1
 8112 1974 5030     		adds	r0, r0, #80
 8113 1976 674B     		ldr	r3, .L590
 8114 1978 83FB0023 		smull	r2, r3, r3, r0
 8115 197c C117     		asrs	r1, r0, #31
 8116 197e C1EBA311 		rsb	r1, r1, r3, asr #6
 8117 1982 09B2     		sxth	r1, r1
 8118 1984 FEF768BD 		b	.L129
 8119              	.LVL907:
 8120              	.L427:
 8121              		.loc 3 238 12 view .LVU2351
 8122              	.LBE462:
 8123              	.LBE736:
 272:lvgl/lvgl/src/extra/themes/default/lv_theme_default.c ****     lv_style_set_bg_opa(&styles->btn, LV_OPA_COVER);
 8124              		.loc 1 272 83 discriminator 1 view .LVU2352
 8125 1988 634B     		ldr	r3, .L590+4
ARM GAS  C:\Users\gx\AppData\Local\Temp\ccQfGIQ4.s 			page 224


 8126 198a DD68     		ldr	r5, [r3, #12]
 8127              	.LVL908:
 8128              	.LBB737:
 8129              	.LBI737:
 236:d:\practise\f407_disc\lvgl\lvgl\src/core\lv_disp.h **** {
 8130              		.loc 3 236 26 is_stmt 1 discriminator 1 view .LVU2353
 8131              	.LBB738:
 8132              		.loc 3 238 5 discriminator 1 view .LVU2354
 8133              		.loc 3 238 12 is_stmt 0 discriminator 1 view .LVU2355
 8134 198c 2846     		mov	r0, r5
 8135 198e FFF7FEFF 		bl	lv_disp_get_dpi
 8136              	.LVL909:
 8137 1992 0001     		lsls	r0, r0, #4
 8138 1994 EF28     		cmp	r0, #239
 8139 1996 02DC     		bgt	.L530
 8140              		.loc 3 238 12 view .LVU2356
 8141 1998 0121     		movs	r1, #1
 8142              	.LVL910:
 8143              		.loc 3 238 12 view .LVU2357
 8144 199a FEF77EBD 		b	.L132
 8145              	.LVL911:
 8146              	.L530:
 8147              		.loc 3 238 12 view .LVU2358
 8148 199e 2846     		mov	r0, r5
 8149 19a0 FFF7FEFF 		bl	lv_disp_get_dpi
 8150              	.LVL912:
 8151 19a4 0001     		lsls	r0, r0, #4
 8152 19a6 5030     		adds	r0, r0, #80
 8153 19a8 5A4B     		ldr	r3, .L590
 8154 19aa 83FB0023 		smull	r2, r3, r3, r0
 8155 19ae C117     		asrs	r1, r0, #31
 8156 19b0 C1EBA311 		rsb	r1, r1, r3, asr #6
 8157 19b4 09B2     		sxth	r1, r1
 8158 19b6 FEF770BD 		b	.L132
 8159              	.LVL913:
 8160              	.L428:
 8161              		.loc 3 238 12 view .LVU2359
 8162              	.LBE738:
 8163              	.LBE737:
 272:lvgl/lvgl/src/extra/themes/default/lv_theme_default.c ****     lv_style_set_bg_opa(&styles->btn, LV_OPA_COVER);
 8164              		.loc 1 272 140 discriminator 4 view .LVU2360
 8165 19ba 574B     		ldr	r3, .L590+4
 8166 19bc DD68     		ldr	r5, [r3, #12]
 8167              	.LVL914:
 8168              	.LBB739:
 8169              	.LBI739:
 236:d:\practise\f407_disc\lvgl\lvgl\src/core\lv_disp.h **** {
 8170              		.loc 3 236 26 is_stmt 1 discriminator 4 view .LVU2361
 8171              	.LBB740:
 8172              		.loc 3 238 5 discriminator 4 view .LVU2362
 8173              		.loc 3 238 12 is_stmt 0 discriminator 4 view .LVU2363
 8174 19be 2846     		mov	r0, r5
 8175 19c0 FFF7FEFF 		bl	lv_disp_get_dpi
 8176              	.LVL915:
 8177 19c4 00EB4000 		add	r0, r0, r0, lsl #1
 8178 19c8 8000     		lsls	r0, r0, #2
 8179 19ca EF28     		cmp	r0, #239
ARM GAS  C:\Users\gx\AppData\Local\Temp\ccQfGIQ4.s 			page 225


 8180 19cc 02DC     		bgt	.L531
 8181              		.loc 3 238 12 view .LVU2364
 8182 19ce 0121     		movs	r1, #1
 8183              	.LVL916:
 8184              		.loc 3 238 12 view .LVU2365
 8185 19d0 FEF763BD 		b	.L132
 8186              	.LVL917:
 8187              	.L531:
 8188              		.loc 3 238 12 view .LVU2366
 8189 19d4 2846     		mov	r0, r5
 8190 19d6 FFF7FEFF 		bl	lv_disp_get_dpi
 8191              	.LVL918:
 8192 19da 00EB4000 		add	r0, r0, r0, lsl #1
 8193 19de 8300     		lsls	r3, r0, #2
 8194 19e0 5033     		adds	r3, r3, #80
 8195 19e2 4C4A     		ldr	r2, .L590
 8196 19e4 82FB0312 		smull	r1, r2, r2, r3
 8197 19e8 D917     		asrs	r1, r3, #31
 8198 19ea C1EBA211 		rsb	r1, r1, r2, asr #6
 8199 19ee 09B2     		sxth	r1, r1
 8200 19f0 FEF753BD 		b	.L132
 8201              	.LVL919:
 8202              	.L429:
 8203              		.loc 3 238 12 view .LVU2367
 8204              	.LBE740:
 8205              	.LBE739:
 8206              	.LBB741:
 8207              	.LBB465:
 8208 19f4 2846     		mov	r0, r5
 8209 19f6 FFF7FEFF 		bl	lv_disp_get_dpi
 8210              	.LVL920:
 8211 19fa C000     		lsls	r0, r0, #3
 8212 19fc 5030     		adds	r0, r0, #80
 8213 19fe 454B     		ldr	r3, .L590
 8214 1a00 83FB0023 		smull	r2, r3, r3, r0
 8215 1a04 C117     		asrs	r1, r0, #31
 8216 1a06 C1EBA311 		rsb	r1, r1, r3, asr #6
 8217 1a0a 09B2     		sxth	r1, r1
 8218 1a0c FEF745BD 		b	.L132
 8219              	.LVL921:
 8220              	.L430:
 8221              		.loc 3 238 12 view .LVU2368
 8222              	.LBE465:
 8223              	.LBE741:
 276:lvgl/lvgl/src/extra/themes/default/lv_theme_default.c ****         lv_style_set_shadow_width(&styles->btn, 1);
 8224              		.loc 1 276 9 is_stmt 1 view .LVU2369
 276:lvgl/lvgl/src/extra/themes/default/lv_theme_default.c ****         lv_style_set_shadow_width(&styles->btn, 1);
 8225              		.loc 1 276 42 is_stmt 0 view .LVU2370
 8226 1a10 2568     		ldr	r5, [r4]
 276:lvgl/lvgl/src/extra/themes/default/lv_theme_default.c ****         lv_style_set_shadow_width(&styles->btn, 1);
 8227              		.loc 1 276 9 view .LVU2371
 8228 1a12 0321     		movs	r1, #3
 8229 1a14 1220     		movs	r0, #18
 8230 1a16 FFF7FEFF 		bl	lv_palette_lighten
 8231              	.LVL922:
 8232 1a1a 0146     		mov	r1, r0	@ movhi
 8233 1a1c 05F12000 		add	r0, r5, #32
ARM GAS  C:\Users\gx\AppData\Local\Temp\ccQfGIQ4.s 			page 226


 8234 1a20 FFF7FEFF 		bl	lv_style_set_shadow_color
 8235              	.LVL923:
 277:lvgl/lvgl/src/extra/themes/default/lv_theme_default.c ****         lv_style_set_shadow_ofs_y(&styles->btn, lv_disp_dpx(theme.disp, 4));
 8236              		.loc 1 277 9 is_stmt 1 view .LVU2372
 277:lvgl/lvgl/src/extra/themes/default/lv_theme_default.c ****         lv_style_set_shadow_ofs_y(&styles->btn, lv_disp_dpx(theme.disp, 4));
 8237              		.loc 1 277 42 is_stmt 0 view .LVU2373
 8238 1a24 2068     		ldr	r0, [r4]
 277:lvgl/lvgl/src/extra/themes/default/lv_theme_default.c ****         lv_style_set_shadow_ofs_y(&styles->btn, lv_disp_dpx(theme.disp, 4));
 8239              		.loc 1 277 9 view .LVU2374
 8240 1a26 0121     		movs	r1, #1
 8241 1a28 2030     		adds	r0, r0, #32
 8242 1a2a FFF7FEFF 		bl	lv_style_set_shadow_width
 8243              	.LVL924:
 278:lvgl/lvgl/src/extra/themes/default/lv_theme_default.c ****     }
 8244              		.loc 1 278 9 is_stmt 1 view .LVU2375
 278:lvgl/lvgl/src/extra/themes/default/lv_theme_default.c ****     }
 8245              		.loc 1 278 42 is_stmt 0 view .LVU2376
 8246 1a2e 2468     		ldr	r4, [r4]
 278:lvgl/lvgl/src/extra/themes/default/lv_theme_default.c ****     }
 8247              		.loc 1 278 9 view .LVU2377
 8248 1a30 2034     		adds	r4, r4, #32
 278:lvgl/lvgl/src/extra/themes/default/lv_theme_default.c ****     }
 8249              		.loc 1 278 66 view .LVU2378
 8250 1a32 394B     		ldr	r3, .L590+4
 8251 1a34 DD68     		ldr	r5, [r3, #12]
 8252              	.LVL925:
 8253              	.LBB742:
 8254              	.LBI742:
 236:d:\practise\f407_disc\lvgl\lvgl\src/core\lv_disp.h **** {
 8255              		.loc 3 236 26 is_stmt 1 view .LVU2379
 8256              	.LBB743:
 8257              		.loc 3 238 5 view .LVU2380
 8258              		.loc 3 238 12 is_stmt 0 view .LVU2381
 8259 1a36 2846     		mov	r0, r5
 8260 1a38 FFF7FEFF 		bl	lv_disp_get_dpi
 8261              	.LVL926:
 8262 1a3c 8000     		lsls	r0, r0, #2
 8263 1a3e EF28     		cmp	r0, #239
 8264 1a40 05DC     		bgt	.L532
 8265 1a42 0121     		movs	r1, #1
 8266              	.L137:
 8267              	.LVL927:
 8268              		.loc 3 238 12 view .LVU2382
 8269              	.LBE743:
 8270              	.LBE742:
 278:lvgl/lvgl/src/extra/themes/default/lv_theme_default.c ****     }
 8271              		.loc 1 278 9 view .LVU2383
 8272 1a44 2046     		mov	r0, r4
 8273 1a46 FFF7FEFF 		bl	lv_style_set_shadow_ofs_y
 8274              	.LVL928:
 8275 1a4a FEF73BBD 		b	.L136
 8276              	.LVL929:
 8277              	.L532:
 8278              	.LBB745:
 8279              	.LBB744:
 8280              		.loc 3 238 12 view .LVU2384
 8281 1a4e 2846     		mov	r0, r5
ARM GAS  C:\Users\gx\AppData\Local\Temp\ccQfGIQ4.s 			page 227


 8282 1a50 FFF7FEFF 		bl	lv_disp_get_dpi
 8283              	.LVL930:
 8284 1a54 8000     		lsls	r0, r0, #2
 8285 1a56 5030     		adds	r0, r0, #80
 8286 1a58 2E4B     		ldr	r3, .L590
 8287 1a5a 83FB0023 		smull	r2, r3, r3, r0
 8288 1a5e C117     		asrs	r1, r0, #31
 8289 1a60 C1EBA311 		rsb	r1, r1, r3, asr #6
 8290 1a64 09B2     		sxth	r1, r1
 8291 1a66 EDE7     		b	.L137
 8292              	.LVL931:
 8293              	.L431:
 8294              		.loc 3 238 12 view .LVU2385
 8295              	.LBE744:
 8296              	.LBE745:
 281:lvgl/lvgl/src/extra/themes/default/lv_theme_default.c ****     lv_style_set_pad_ver(&styles->btn, PAD_SMALL);
 8297              		.loc 1 281 40 discriminator 1 view .LVU2386
 8298 1a68 2B4B     		ldr	r3, .L590+4
 8299 1a6a DC68     		ldr	r4, [r3, #12]
 8300              	.LVL932:
 8301              	.LBB746:
 8302              	.LBI746:
 236:d:\practise\f407_disc\lvgl\lvgl\src/core\lv_disp.h **** {
 8303              		.loc 3 236 26 is_stmt 1 discriminator 1 view .LVU2387
 8304              	.LBB747:
 8305              		.loc 3 238 5 discriminator 1 view .LVU2388
 8306              		.loc 3 238 12 is_stmt 0 discriminator 1 view .LVU2389
 8307 1a6c 2046     		mov	r0, r4
 8308 1a6e FFF7FEFF 		bl	lv_disp_get_dpi
 8309              	.LVL933:
 8310 1a72 00EB4000 		add	r0, r0, r0, lsl #1
 8311 1a76 C000     		lsls	r0, r0, #3
 8312 1a78 EF28     		cmp	r0, #239
 8313 1a7a 02DC     		bgt	.L533
 8314              		.loc 3 238 12 view .LVU2390
 8315 1a7c 0124     		movs	r4, #1
 8316              	.LVL934:
 8317              		.loc 3 238 12 view .LVU2391
 8318 1a7e FEF73CBD 		b	.L140
 8319              	.LVL935:
 8320              	.L533:
 8321              		.loc 3 238 12 view .LVU2392
 8322 1a82 2046     		mov	r0, r4
 8323 1a84 FFF7FEFF 		bl	lv_disp_get_dpi
 8324              	.LVL936:
 8325 1a88 00EB4000 		add	r0, r0, r0, lsl #1
 8326 1a8c C300     		lsls	r3, r0, #3
 8327 1a8e 5033     		adds	r3, r3, #80
 8328 1a90 204A     		ldr	r2, .L590
 8329 1a92 82FB0312 		smull	r1, r2, r2, r3
 8330 1a96 DC17     		asrs	r4, r3, #31
 8331              	.LVL937:
 8332              		.loc 3 238 12 view .LVU2393
 8333 1a98 C4EBA214 		rsb	r4, r4, r2, asr #6
 8334 1a9c 24B2     		sxth	r4, r4
 8335 1a9e FEF72CBD 		b	.L140
 8336              	.LVL938:
ARM GAS  C:\Users\gx\AppData\Local\Temp\ccQfGIQ4.s 			page 228


 8337              	.L432:
 8338              		.loc 3 238 12 view .LVU2394
 8339              	.LBE747:
 8340              	.LBE746:
 281:lvgl/lvgl/src/extra/themes/default/lv_theme_default.c ****     lv_style_set_pad_ver(&styles->btn, PAD_SMALL);
 8341              		.loc 1 281 40 discriminator 4 view .LVU2395
 8342 1aa2 1D4B     		ldr	r3, .L590+4
 8343 1aa4 DC68     		ldr	r4, [r3, #12]
 8344              	.LVL939:
 8345              	.LBB748:
 8346              	.LBI748:
 236:d:\practise\f407_disc\lvgl\lvgl\src/core\lv_disp.h **** {
 8347              		.loc 3 236 26 is_stmt 1 discriminator 4 view .LVU2396
 8348              	.LBB749:
 8349              		.loc 3 238 5 discriminator 4 view .LVU2397
 8350              		.loc 3 238 12 is_stmt 0 discriminator 4 view .LVU2398
 8351 1aa6 2046     		mov	r0, r4
 8352 1aa8 FFF7FEFF 		bl	lv_disp_get_dpi
 8353              	.LVL940:
 8354 1aac 00EB8000 		add	r0, r0, r0, lsl #2
 8355 1ab0 8000     		lsls	r0, r0, #2
 8356 1ab2 EF28     		cmp	r0, #239
 8357 1ab4 02DC     		bgt	.L534
 8358              		.loc 3 238 12 view .LVU2399
 8359 1ab6 0124     		movs	r4, #1
 8360              	.LVL941:
 8361              		.loc 3 238 12 view .LVU2400
 8362 1ab8 FEF71FBD 		b	.L140
 8363              	.LVL942:
 8364              	.L534:
 8365              		.loc 3 238 12 view .LVU2401
 8366 1abc 2046     		mov	r0, r4
 8367 1abe FFF7FEFF 		bl	lv_disp_get_dpi
 8368              	.LVL943:
 8369 1ac2 00EB8000 		add	r0, r0, r0, lsl #2
 8370 1ac6 8300     		lsls	r3, r0, #2
 8371 1ac8 5033     		adds	r3, r3, #80
 8372 1aca 124A     		ldr	r2, .L590
 8373 1acc 82FB0312 		smull	r1, r2, r2, r3
 8374 1ad0 DC17     		asrs	r4, r3, #31
 8375              	.LVL944:
 8376              		.loc 3 238 12 view .LVU2402
 8377 1ad2 C4EBA214 		rsb	r4, r4, r2, asr #6
 8378 1ad6 24B2     		sxth	r4, r4
 8379 1ad8 FEF70FBD 		b	.L140
 8380              	.LVL945:
 8381              	.L433:
 8382              		.loc 3 238 12 view .LVU2403
 8383              	.LBE749:
 8384              	.LBE748:
 8385              	.LBB750:
 8386              	.LBB468:
 8387 1adc 2046     		mov	r0, r4
 8388 1ade FFF7FEFF 		bl	lv_disp_get_dpi
 8389              	.LVL946:
 8390 1ae2 0001     		lsls	r0, r0, #4
 8391 1ae4 5030     		adds	r0, r0, #80
ARM GAS  C:\Users\gx\AppData\Local\Temp\ccQfGIQ4.s 			page 229


 8392 1ae6 0B4B     		ldr	r3, .L590
 8393 1ae8 83FB0023 		smull	r2, r3, r3, r0
 8394 1aec C417     		asrs	r4, r0, #31
 8395              	.LVL947:
 8396              		.loc 3 238 12 view .LVU2404
 8397 1aee C4EBA314 		rsb	r4, r4, r3, asr #6
 8398 1af2 24B2     		sxth	r4, r4
 8399 1af4 FEF701BD 		b	.L140
 8400              	.LVL948:
 8401              	.L434:
 8402              		.loc 3 238 12 view .LVU2405
 8403              	.LBE468:
 8404              	.LBE750:
 282:lvgl/lvgl/src/extra/themes/default/lv_theme_default.c ****     lv_style_set_pad_column(&styles->btn, lv_disp_dpx(theme.disp, 5));
 8405              		.loc 1 282 40 discriminator 1 view .LVU2406
 8406 1af8 074B     		ldr	r3, .L590+4
 8407 1afa DC68     		ldr	r4, [r3, #12]
 8408              	.LVL949:
 8409              	.LBB751:
 8410              	.LBI751:
 236:d:\practise\f407_disc\lvgl\lvgl\src/core\lv_disp.h **** {
 8411              		.loc 3 236 26 is_stmt 1 discriminator 1 view .LVU2407
 8412              	.LBB752:
 8413              		.loc 3 238 5 discriminator 1 view .LVU2408
 8414              		.loc 3 238 12 is_stmt 0 discriminator 1 view .LVU2409
 8415 1afc 2046     		mov	r0, r4
 8416 1afe FFF7FEFF 		bl	lv_disp_get_dpi
 8417              	.LVL950:
 8418 1b02 C0EBC000 		rsb	r0, r0, r0, lsl #3
 8419 1b06 4000     		lsls	r0, r0, #1
 8420 1b08 EF28     		cmp	r0, #239
 8421 1b0a 07DC     		bgt	.L535
 8422              		.loc 3 238 12 view .LVU2410
 8423 1b0c 0124     		movs	r4, #1
 8424              	.LVL951:
 8425              		.loc 3 238 12 view .LVU2411
 8426 1b0e FEF713BD 		b	.L146
 8427              	.L591:
 8428 1b12 00BF     		.align	2
 8429              	.L590:
 8430 1b14 67666666 		.word	1717986919
 8431 1b18 00000000 		.word	.LANCHOR2
 8432              	.LVL952:
 8433              	.L535:
 8434              		.loc 3 238 12 view .LVU2412
 8435 1b1c 2046     		mov	r0, r4
 8436 1b1e FFF7FEFF 		bl	lv_disp_get_dpi
 8437              	.LVL953:
 8438 1b22 C0EBC000 		rsb	r0, r0, r0, lsl #3
 8439 1b26 4300     		lsls	r3, r0, #1
 8440 1b28 5033     		adds	r3, r3, #80
 8441 1b2a D84A     		ldr	r2, .L592
 8442 1b2c 82FB0312 		smull	r1, r2, r2, r3
 8443 1b30 DC17     		asrs	r4, r3, #31
 8444              	.LVL954:
 8445              		.loc 3 238 12 view .LVU2413
 8446 1b32 C4EBA214 		rsb	r4, r4, r2, asr #6
ARM GAS  C:\Users\gx\AppData\Local\Temp\ccQfGIQ4.s 			page 230


 8447 1b36 24B2     		sxth	r4, r4
 8448 1b38 FEF7FEBC 		b	.L146
 8449              	.LVL955:
 8450              	.L435:
 8451              		.loc 3 238 12 view .LVU2414
 8452              	.LBE752:
 8453              	.LBE751:
 282:lvgl/lvgl/src/extra/themes/default/lv_theme_default.c ****     lv_style_set_pad_column(&styles->btn, lv_disp_dpx(theme.disp, 5));
 8454              		.loc 1 282 40 discriminator 4 view .LVU2415
 8455 1b3c D44B     		ldr	r3, .L592+4
 8456 1b3e DC68     		ldr	r4, [r3, #12]
 8457              	.LVL956:
 8458              	.LBB753:
 8459              	.LBI753:
 236:d:\practise\f407_disc\lvgl\lvgl\src/core\lv_disp.h **** {
 8460              		.loc 3 236 26 is_stmt 1 discriminator 4 view .LVU2416
 8461              	.LBB754:
 8462              		.loc 3 238 5 discriminator 4 view .LVU2417
 8463              		.loc 3 238 12 is_stmt 0 discriminator 4 view .LVU2418
 8464 1b40 2046     		mov	r0, r4
 8465 1b42 FFF7FEFF 		bl	lv_disp_get_dpi
 8466              	.LVL957:
 8467 1b46 00EB4000 		add	r0, r0, r0, lsl #1
 8468 1b4a 8000     		lsls	r0, r0, #2
 8469 1b4c EF28     		cmp	r0, #239
 8470 1b4e 02DC     		bgt	.L536
 8471              		.loc 3 238 12 view .LVU2419
 8472 1b50 0124     		movs	r4, #1
 8473              	.LVL958:
 8474              		.loc 3 238 12 view .LVU2420
 8475 1b52 FEF7F1BC 		b	.L146
 8476              	.LVL959:
 8477              	.L536:
 8478              		.loc 3 238 12 view .LVU2421
 8479 1b56 2046     		mov	r0, r4
 8480 1b58 FFF7FEFF 		bl	lv_disp_get_dpi
 8481              	.LVL960:
 8482 1b5c 00EB4000 		add	r0, r0, r0, lsl #1
 8483 1b60 8300     		lsls	r3, r0, #2
 8484 1b62 5033     		adds	r3, r3, #80
 8485 1b64 C94A     		ldr	r2, .L592
 8486 1b66 82FB0312 		smull	r1, r2, r2, r3
 8487 1b6a DC17     		asrs	r4, r3, #31
 8488              	.LVL961:
 8489              		.loc 3 238 12 view .LVU2422
 8490 1b6c C4EBA214 		rsb	r4, r4, r2, asr #6
 8491 1b70 24B2     		sxth	r4, r4
 8492 1b72 FEF7E1BC 		b	.L146
 8493              	.LVL962:
 8494              	.L436:
 8495              		.loc 3 238 12 view .LVU2423
 8496              	.LBE754:
 8497              	.LBE753:
 8498              	.LBB755:
 8499              	.LBB473:
 8500 1b76 2046     		mov	r0, r4
 8501 1b78 FFF7FEFF 		bl	lv_disp_get_dpi
ARM GAS  C:\Users\gx\AppData\Local\Temp\ccQfGIQ4.s 			page 231


 8502              	.LVL963:
 8503 1b7c 00EB8000 		add	r0, r0, r0, lsl #2
 8504 1b80 4300     		lsls	r3, r0, #1
 8505 1b82 5033     		adds	r3, r3, #80
 8506 1b84 C14A     		ldr	r2, .L592
 8507 1b86 82FB0312 		smull	r1, r2, r2, r3
 8508 1b8a DC17     		asrs	r4, r3, #31
 8509              	.LVL964:
 8510              		.loc 3 238 12 view .LVU2424
 8511 1b8c C4EBA214 		rsb	r4, r4, r2, asr #6
 8512 1b90 24B2     		sxth	r4, r4
 8513 1b92 FEF7D1BC 		b	.L146
 8514              	.LVL965:
 8515              	.L437:
 8516              		.loc 3 238 12 view .LVU2425
 8517              	.LBE473:
 8518              	.LBE755:
 8519              	.LBB756:
 8520              	.LBB478:
 8521 1b96 2846     		mov	r0, r5
 8522 1b98 FFF7FEFF 		bl	lv_disp_get_dpi
 8523              	.LVL966:
 8524 1b9c 00EB8000 		add	r0, r0, r0, lsl #2
 8525 1ba0 5030     		adds	r0, r0, #80
 8526 1ba2 BA4B     		ldr	r3, .L592
 8527 1ba4 83FB0023 		smull	r2, r3, r3, r0
 8528 1ba8 C117     		asrs	r1, r0, #31
 8529 1baa C1EBA311 		rsb	r1, r1, r3, asr #6
 8530 1bae 09B2     		sxth	r1, r1
 8531 1bb0 FEF7D8BC 		b	.L150
 8532              	.LVL967:
 8533              	.L438:
 8534              		.loc 3 238 12 view .LVU2426
 8535              	.LBE478:
 8536              	.LBE756:
 8537              	.LBB757:
 8538              	.LBB481:
 8539 1bb4 2846     		mov	r0, r5
 8540 1bb6 FFF7FEFF 		bl	lv_disp_get_dpi
 8541              	.LVL968:
 8542 1bba 00EB8000 		add	r0, r0, r0, lsl #2
 8543 1bbe 5030     		adds	r0, r0, #80
 8544 1bc0 B24B     		ldr	r3, .L592
 8545 1bc2 83FB0023 		smull	r2, r3, r3, r0
 8546 1bc6 C117     		asrs	r1, r0, #31
 8547 1bc8 C1EBA311 		rsb	r1, r1, r3, asr #6
 8548 1bcc 09B2     		sxth	r1, r1
 8549 1bce FEF7DABC 		b	.L151
 8550              	.LVL969:
 8551              	.L439:
 8552              		.loc 3 238 12 view .LVU2427
 8553              	.LBE481:
 8554              	.LBE757:
 304:lvgl/lvgl/src/extra/themes/default/lv_theme_default.c ****     lv_style_set_pad_row(&styles->pad_normal, PAD_DEF);
 8555              		.loc 1 304 47 discriminator 1 view .LVU2428
 8556 1bd2 AF4B     		ldr	r3, .L592+4
 8557 1bd4 DC68     		ldr	r4, [r3, #12]
ARM GAS  C:\Users\gx\AppData\Local\Temp\ccQfGIQ4.s 			page 232


 8558              	.LVL970:
 8559              	.LBB758:
 8560              	.LBI758:
 236:d:\practise\f407_disc\lvgl\lvgl\src/core\lv_disp.h **** {
 8561              		.loc 3 236 26 is_stmt 1 discriminator 1 view .LVU2429
 8562              	.LBB759:
 8563              		.loc 3 238 5 discriminator 1 view .LVU2430
 8564              		.loc 3 238 12 is_stmt 0 discriminator 1 view .LVU2431
 8565 1bd6 2046     		mov	r0, r4
 8566 1bd8 FFF7FEFF 		bl	lv_disp_get_dpi
 8567              	.LVL971:
 8568 1bdc 00EB4000 		add	r0, r0, r0, lsl #1
 8569 1be0 C000     		lsls	r0, r0, #3
 8570 1be2 EF28     		cmp	r0, #239
 8571 1be4 02DC     		bgt	.L537
 8572              		.loc 3 238 12 view .LVU2432
 8573 1be6 0124     		movs	r4, #1
 8574              	.LVL972:
 8575              		.loc 3 238 12 view .LVU2433
 8576 1be8 FEF714BD 		b	.L154
 8577              	.LVL973:
 8578              	.L537:
 8579              		.loc 3 238 12 view .LVU2434
 8580 1bec 2046     		mov	r0, r4
 8581 1bee FFF7FEFF 		bl	lv_disp_get_dpi
 8582              	.LVL974:
 8583 1bf2 00EB4000 		add	r0, r0, r0, lsl #1
 8584 1bf6 C300     		lsls	r3, r0, #3
 8585 1bf8 5033     		adds	r3, r3, #80
 8586 1bfa A44A     		ldr	r2, .L592
 8587 1bfc 82FB0312 		smull	r1, r2, r2, r3
 8588 1c00 DC17     		asrs	r4, r3, #31
 8589              	.LVL975:
 8590              		.loc 3 238 12 view .LVU2435
 8591 1c02 C4EBA214 		rsb	r4, r4, r2, asr #6
 8592 1c06 24B2     		sxth	r4, r4
 8593 1c08 FEF704BD 		b	.L154
 8594              	.LVL976:
 8595              	.L440:
 8596              		.loc 3 238 12 view .LVU2436
 8597              	.LBE759:
 8598              	.LBE758:
 304:lvgl/lvgl/src/extra/themes/default/lv_theme_default.c ****     lv_style_set_pad_row(&styles->pad_normal, PAD_DEF);
 8599              		.loc 1 304 47 discriminator 4 view .LVU2437
 8600 1c0c A04B     		ldr	r3, .L592+4
 8601 1c0e DC68     		ldr	r4, [r3, #12]
 8602              	.LVL977:
 8603              	.LBB760:
 8604              	.LBI760:
 236:d:\practise\f407_disc\lvgl\lvgl\src/core\lv_disp.h **** {
 8605              		.loc 3 236 26 is_stmt 1 discriminator 4 view .LVU2438
 8606              	.LBB761:
 8607              		.loc 3 238 5 discriminator 4 view .LVU2439
 8608              		.loc 3 238 12 is_stmt 0 discriminator 4 view .LVU2440
 8609 1c10 2046     		mov	r0, r4
 8610 1c12 FFF7FEFF 		bl	lv_disp_get_dpi
 8611              	.LVL978:
ARM GAS  C:\Users\gx\AppData\Local\Temp\ccQfGIQ4.s 			page 233


 8612 1c16 00EB8000 		add	r0, r0, r0, lsl #2
 8613 1c1a 8000     		lsls	r0, r0, #2
 8614 1c1c EF28     		cmp	r0, #239
 8615 1c1e 02DC     		bgt	.L538
 8616              		.loc 3 238 12 view .LVU2441
 8617 1c20 0124     		movs	r4, #1
 8618              	.LVL979:
 8619              		.loc 3 238 12 view .LVU2442
 8620 1c22 FEF7F7BC 		b	.L154
 8621              	.LVL980:
 8622              	.L538:
 8623              		.loc 3 238 12 view .LVU2443
 8624 1c26 2046     		mov	r0, r4
 8625 1c28 FFF7FEFF 		bl	lv_disp_get_dpi
 8626              	.LVL981:
 8627 1c2c 00EB8000 		add	r0, r0, r0, lsl #2
 8628 1c30 8300     		lsls	r3, r0, #2
 8629 1c32 5033     		adds	r3, r3, #80
 8630 1c34 954A     		ldr	r2, .L592
 8631 1c36 82FB0312 		smull	r1, r2, r2, r3
 8632 1c3a DC17     		asrs	r4, r3, #31
 8633              	.LVL982:
 8634              		.loc 3 238 12 view .LVU2444
 8635 1c3c C4EBA214 		rsb	r4, r4, r2, asr #6
 8636 1c40 24B2     		sxth	r4, r4
 8637 1c42 FEF7E7BC 		b	.L154
 8638              	.LVL983:
 8639              	.L441:
 8640              		.loc 3 238 12 view .LVU2445
 8641              	.LBE761:
 8642              	.LBE760:
 8643              	.LBB762:
 8644              	.LBB488:
 8645 1c46 2046     		mov	r0, r4
 8646 1c48 FFF7FEFF 		bl	lv_disp_get_dpi
 8647              	.LVL984:
 8648 1c4c 0001     		lsls	r0, r0, #4
 8649 1c4e 5030     		adds	r0, r0, #80
 8650 1c50 8E4B     		ldr	r3, .L592
 8651 1c52 83FB0023 		smull	r2, r3, r3, r0
 8652 1c56 C417     		asrs	r4, r0, #31
 8653              	.LVL985:
 8654              		.loc 3 238 12 view .LVU2446
 8655 1c58 C4EBA314 		rsb	r4, r4, r3, asr #6
 8656 1c5c 24B2     		sxth	r4, r4
 8657 1c5e FEF7D9BC 		b	.L154
 8658              	.LVL986:
 8659              	.L442:
 8660              		.loc 3 238 12 view .LVU2447
 8661              	.LBE488:
 8662              	.LBE762:
 305:lvgl/lvgl/src/extra/themes/default/lv_theme_default.c ****     lv_style_set_pad_column(&styles->pad_normal, PAD_DEF);
 8663              		.loc 1 305 47 discriminator 1 view .LVU2448
 8664 1c62 8B4B     		ldr	r3, .L592+4
 8665 1c64 DD68     		ldr	r5, [r3, #12]
 8666              	.LVL987:
 8667              	.LBB763:
ARM GAS  C:\Users\gx\AppData\Local\Temp\ccQfGIQ4.s 			page 234


 8668              	.LBI763:
 236:d:\practise\f407_disc\lvgl\lvgl\src/core\lv_disp.h **** {
 8669              		.loc 3 236 26 is_stmt 1 discriminator 1 view .LVU2449
 8670              	.LBB764:
 8671              		.loc 3 238 5 discriminator 1 view .LVU2450
 8672              		.loc 3 238 12 is_stmt 0 discriminator 1 view .LVU2451
 8673 1c66 2846     		mov	r0, r5
 8674 1c68 FFF7FEFF 		bl	lv_disp_get_dpi
 8675              	.LVL988:
 8676 1c6c 00EB4000 		add	r0, r0, r0, lsl #1
 8677 1c70 C000     		lsls	r0, r0, #3
 8678 1c72 EF28     		cmp	r0, #239
 8679 1c74 02DC     		bgt	.L539
 8680              		.loc 3 238 12 view .LVU2452
 8681 1c76 0121     		movs	r1, #1
 8682              	.LVL989:
 8683              		.loc 3 238 12 view .LVU2453
 8684 1c78 FEF7F1BC 		b	.L160
 8685              	.LVL990:
 8686              	.L539:
 8687              		.loc 3 238 12 view .LVU2454
 8688 1c7c 2846     		mov	r0, r5
 8689 1c7e FFF7FEFF 		bl	lv_disp_get_dpi
 8690              	.LVL991:
 8691 1c82 00EB4000 		add	r0, r0, r0, lsl #1
 8692 1c86 C300     		lsls	r3, r0, #3
 8693 1c88 5033     		adds	r3, r3, #80
 8694 1c8a 804A     		ldr	r2, .L592
 8695 1c8c 82FB0312 		smull	r1, r2, r2, r3
 8696 1c90 D917     		asrs	r1, r3, #31
 8697 1c92 C1EBA211 		rsb	r1, r1, r2, asr #6
 8698 1c96 09B2     		sxth	r1, r1
 8699 1c98 FEF7E1BC 		b	.L160
 8700              	.LVL992:
 8701              	.L443:
 8702              		.loc 3 238 12 view .LVU2455
 8703              	.LBE764:
 8704              	.LBE763:
 305:lvgl/lvgl/src/extra/themes/default/lv_theme_default.c ****     lv_style_set_pad_column(&styles->pad_normal, PAD_DEF);
 8705              		.loc 1 305 47 discriminator 4 view .LVU2456
 8706 1c9c 7C4B     		ldr	r3, .L592+4
 8707 1c9e DD68     		ldr	r5, [r3, #12]
 8708              	.LVL993:
 8709              	.LBB765:
 8710              	.LBI765:
 236:d:\practise\f407_disc\lvgl\lvgl\src/core\lv_disp.h **** {
 8711              		.loc 3 236 26 is_stmt 1 discriminator 4 view .LVU2457
 8712              	.LBB766:
 8713              		.loc 3 238 5 discriminator 4 view .LVU2458
 8714              		.loc 3 238 12 is_stmt 0 discriminator 4 view .LVU2459
 8715 1ca0 2846     		mov	r0, r5
 8716 1ca2 FFF7FEFF 		bl	lv_disp_get_dpi
 8717              	.LVL994:
 8718 1ca6 00EB8000 		add	r0, r0, r0, lsl #2
 8719 1caa 8000     		lsls	r0, r0, #2
 8720 1cac EF28     		cmp	r0, #239
 8721 1cae 02DC     		bgt	.L540
ARM GAS  C:\Users\gx\AppData\Local\Temp\ccQfGIQ4.s 			page 235


 8722              		.loc 3 238 12 view .LVU2460
 8723 1cb0 0121     		movs	r1, #1
 8724              	.LVL995:
 8725              		.loc 3 238 12 view .LVU2461
 8726 1cb2 FEF7D4BC 		b	.L160
 8727              	.LVL996:
 8728              	.L540:
 8729              		.loc 3 238 12 view .LVU2462
 8730 1cb6 2846     		mov	r0, r5
 8731 1cb8 FFF7FEFF 		bl	lv_disp_get_dpi
 8732              	.LVL997:
 8733 1cbc 00EB8000 		add	r0, r0, r0, lsl #2
 8734 1cc0 8300     		lsls	r3, r0, #2
 8735 1cc2 5033     		adds	r3, r3, #80
 8736 1cc4 714A     		ldr	r2, .L592
 8737 1cc6 82FB0312 		smull	r1, r2, r2, r3
 8738 1cca D917     		asrs	r1, r3, #31
 8739 1ccc C1EBA211 		rsb	r1, r1, r2, asr #6
 8740 1cd0 09B2     		sxth	r1, r1
 8741 1cd2 FEF7C4BC 		b	.L160
 8742              	.LVL998:
 8743              	.L444:
 8744              		.loc 3 238 12 view .LVU2463
 8745              	.LBE766:
 8746              	.LBE765:
 8747              	.LBB767:
 8748              	.LBB493:
 8749 1cd6 2846     		mov	r0, r5
 8750 1cd8 FFF7FEFF 		bl	lv_disp_get_dpi
 8751              	.LVL999:
 8752 1cdc 0001     		lsls	r0, r0, #4
 8753 1cde 5030     		adds	r0, r0, #80
 8754 1ce0 6A4B     		ldr	r3, .L592
 8755 1ce2 83FB0023 		smull	r2, r3, r3, r0
 8756 1ce6 C117     		asrs	r1, r0, #31
 8757 1ce8 C1EBA311 		rsb	r1, r1, r3, asr #6
 8758 1cec 09B2     		sxth	r1, r1
 8759 1cee FEF7B6BC 		b	.L160
 8760              	.LVL1000:
 8761              	.L445:
 8762              		.loc 3 238 12 view .LVU2464
 8763              	.LBE493:
 8764              	.LBE767:
 306:lvgl/lvgl/src/extra/themes/default/lv_theme_default.c **** 
 8765              		.loc 1 306 50 discriminator 1 view .LVU2465
 8766 1cf2 674B     		ldr	r3, .L592+4
 8767 1cf4 DD68     		ldr	r5, [r3, #12]
 8768              	.LVL1001:
 8769              	.LBB768:
 8770              	.LBI768:
 236:d:\practise\f407_disc\lvgl\lvgl\src/core\lv_disp.h **** {
 8771              		.loc 3 236 26 is_stmt 1 discriminator 1 view .LVU2466
 8772              	.LBB769:
 8773              		.loc 3 238 5 discriminator 1 view .LVU2467
 8774              		.loc 3 238 12 is_stmt 0 discriminator 1 view .LVU2468
 8775 1cf6 2846     		mov	r0, r5
 8776 1cf8 FFF7FEFF 		bl	lv_disp_get_dpi
ARM GAS  C:\Users\gx\AppData\Local\Temp\ccQfGIQ4.s 			page 236


 8777              	.LVL1002:
 8778 1cfc 00EB4000 		add	r0, r0, r0, lsl #1
 8779 1d00 C000     		lsls	r0, r0, #3
 8780 1d02 EF28     		cmp	r0, #239
 8781 1d04 02DC     		bgt	.L541
 8782              		.loc 3 238 12 view .LVU2469
 8783 1d06 0121     		movs	r1, #1
 8784              	.LVL1003:
 8785              		.loc 3 238 12 view .LVU2470
 8786 1d08 FEF7D4BC 		b	.L166
 8787              	.LVL1004:
 8788              	.L541:
 8789              		.loc 3 238 12 view .LVU2471
 8790 1d0c 2846     		mov	r0, r5
 8791 1d0e FFF7FEFF 		bl	lv_disp_get_dpi
 8792              	.LVL1005:
 8793 1d12 00EB4000 		add	r0, r0, r0, lsl #1
 8794 1d16 C300     		lsls	r3, r0, #3
 8795 1d18 5033     		adds	r3, r3, #80
 8796 1d1a 5C4A     		ldr	r2, .L592
 8797 1d1c 82FB0312 		smull	r1, r2, r2, r3
 8798 1d20 D917     		asrs	r1, r3, #31
 8799 1d22 C1EBA211 		rsb	r1, r1, r2, asr #6
 8800 1d26 09B2     		sxth	r1, r1
 8801 1d28 FEF7C4BC 		b	.L166
 8802              	.LVL1006:
 8803              	.L446:
 8804              		.loc 3 238 12 view .LVU2472
 8805              	.LBE769:
 8806              	.LBE768:
 306:lvgl/lvgl/src/extra/themes/default/lv_theme_default.c **** 
 8807              		.loc 1 306 50 discriminator 4 view .LVU2473
 8808 1d2c 584B     		ldr	r3, .L592+4
 8809 1d2e DD68     		ldr	r5, [r3, #12]
 8810              	.LVL1007:
 8811              	.LBB770:
 8812              	.LBI770:
 236:d:\practise\f407_disc\lvgl\lvgl\src/core\lv_disp.h **** {
 8813              		.loc 3 236 26 is_stmt 1 discriminator 4 view .LVU2474
 8814              	.LBB771:
 8815              		.loc 3 238 5 discriminator 4 view .LVU2475
 8816              		.loc 3 238 12 is_stmt 0 discriminator 4 view .LVU2476
 8817 1d30 2846     		mov	r0, r5
 8818 1d32 FFF7FEFF 		bl	lv_disp_get_dpi
 8819              	.LVL1008:
 8820 1d36 00EB8000 		add	r0, r0, r0, lsl #2
 8821 1d3a 8000     		lsls	r0, r0, #2
 8822 1d3c EF28     		cmp	r0, #239
 8823 1d3e 02DC     		bgt	.L542
 8824              		.loc 3 238 12 view .LVU2477
 8825 1d40 0121     		movs	r1, #1
 8826              	.LVL1009:
 8827              		.loc 3 238 12 view .LVU2478
 8828 1d42 FEF7B7BC 		b	.L166
 8829              	.LVL1010:
 8830              	.L542:
 8831              		.loc 3 238 12 view .LVU2479
ARM GAS  C:\Users\gx\AppData\Local\Temp\ccQfGIQ4.s 			page 237


 8832 1d46 2846     		mov	r0, r5
 8833 1d48 FFF7FEFF 		bl	lv_disp_get_dpi
 8834              	.LVL1011:
 8835 1d4c 00EB8000 		add	r0, r0, r0, lsl #2
 8836 1d50 8300     		lsls	r3, r0, #2
 8837 1d52 5033     		adds	r3, r3, #80
 8838 1d54 4D4A     		ldr	r2, .L592
 8839 1d56 82FB0312 		smull	r1, r2, r2, r3
 8840 1d5a D917     		asrs	r1, r3, #31
 8841 1d5c C1EBA211 		rsb	r1, r1, r2, asr #6
 8842 1d60 09B2     		sxth	r1, r1
 8843 1d62 FEF7A7BC 		b	.L166
 8844              	.LVL1012:
 8845              	.L447:
 8846              		.loc 3 238 12 view .LVU2480
 8847              	.LBE771:
 8848              	.LBE770:
 8849              	.LBB772:
 8850              	.LBB496:
 8851 1d66 2846     		mov	r0, r5
 8852 1d68 FFF7FEFF 		bl	lv_disp_get_dpi
 8853              	.LVL1013:
 8854 1d6c 0001     		lsls	r0, r0, #4
 8855 1d6e 5030     		adds	r0, r0, #80
 8856 1d70 464B     		ldr	r3, .L592
 8857 1d72 83FB0023 		smull	r2, r3, r3, r0
 8858 1d76 C117     		asrs	r1, r0, #31
 8859 1d78 C1EBA311 		rsb	r1, r1, r3, asr #6
 8860 1d7c 09B2     		sxth	r1, r1
 8861 1d7e FEF799BC 		b	.L166
 8862              	.LVL1014:
 8863              	.L448:
 8864              		.loc 3 238 12 view .LVU2481
 8865              	.LBE496:
 8866              	.LBE772:
 309:lvgl/lvgl/src/extra/themes/default/lv_theme_default.c ****     lv_style_set_pad_gap(&styles->pad_small, PAD_SMALL);
 8867              		.loc 1 309 46 discriminator 1 view .LVU2482
 8868 1d82 434B     		ldr	r3, .L592+4
 8869 1d84 DC68     		ldr	r4, [r3, #12]
 8870              	.LVL1015:
 8871              	.LBB773:
 8872              	.LBI773:
 236:d:\practise\f407_disc\lvgl\lvgl\src/core\lv_disp.h **** {
 8873              		.loc 3 236 26 is_stmt 1 discriminator 1 view .LVU2483
 8874              	.LBB774:
 8875              		.loc 3 238 5 discriminator 1 view .LVU2484
 8876              		.loc 3 238 12 is_stmt 0 discriminator 1 view .LVU2485
 8877 1d86 2046     		mov	r0, r4
 8878 1d88 FFF7FEFF 		bl	lv_disp_get_dpi
 8879              	.LVL1016:
 8880 1d8c C0EBC000 		rsb	r0, r0, r0, lsl #3
 8881 1d90 4000     		lsls	r0, r0, #1
 8882 1d92 EF28     		cmp	r0, #239
 8883 1d94 02DC     		bgt	.L543
 8884              		.loc 3 238 12 view .LVU2486
 8885 1d96 0124     		movs	r4, #1
 8886              	.LVL1017:
ARM GAS  C:\Users\gx\AppData\Local\Temp\ccQfGIQ4.s 			page 238


 8887              		.loc 3 238 12 view .LVU2487
 8888 1d98 FEF7AABC 		b	.L172
 8889              	.LVL1018:
 8890              	.L543:
 8891              		.loc 3 238 12 view .LVU2488
 8892 1d9c 2046     		mov	r0, r4
 8893 1d9e FFF7FEFF 		bl	lv_disp_get_dpi
 8894              	.LVL1019:
 8895 1da2 C0EBC000 		rsb	r0, r0, r0, lsl #3
 8896 1da6 4300     		lsls	r3, r0, #1
 8897 1da8 5033     		adds	r3, r3, #80
 8898 1daa 384A     		ldr	r2, .L592
 8899 1dac 82FB0312 		smull	r1, r2, r2, r3
 8900 1db0 DC17     		asrs	r4, r3, #31
 8901              	.LVL1020:
 8902              		.loc 3 238 12 view .LVU2489
 8903 1db2 C4EBA214 		rsb	r4, r4, r2, asr #6
 8904 1db6 24B2     		sxth	r4, r4
 8905 1db8 FEF79ABC 		b	.L172
 8906              	.LVL1021:
 8907              	.L449:
 8908              		.loc 3 238 12 view .LVU2490
 8909              	.LBE774:
 8910              	.LBE773:
 309:lvgl/lvgl/src/extra/themes/default/lv_theme_default.c ****     lv_style_set_pad_gap(&styles->pad_small, PAD_SMALL);
 8911              		.loc 1 309 46 discriminator 4 view .LVU2491
 8912 1dbc 344B     		ldr	r3, .L592+4
 8913 1dbe DC68     		ldr	r4, [r3, #12]
 8914              	.LVL1022:
 8915              	.LBB775:
 8916              	.LBI775:
 236:d:\practise\f407_disc\lvgl\lvgl\src/core\lv_disp.h **** {
 8917              		.loc 3 236 26 is_stmt 1 discriminator 4 view .LVU2492
 8918              	.LBB776:
 8919              		.loc 3 238 5 discriminator 4 view .LVU2493
 8920              		.loc 3 238 12 is_stmt 0 discriminator 4 view .LVU2494
 8921 1dc0 2046     		mov	r0, r4
 8922 1dc2 FFF7FEFF 		bl	lv_disp_get_dpi
 8923              	.LVL1023:
 8924 1dc6 00EB4000 		add	r0, r0, r0, lsl #1
 8925 1dca 8000     		lsls	r0, r0, #2
 8926 1dcc EF28     		cmp	r0, #239
 8927 1dce 02DC     		bgt	.L544
 8928              		.loc 3 238 12 view .LVU2495
 8929 1dd0 0124     		movs	r4, #1
 8930              	.LVL1024:
 8931              		.loc 3 238 12 view .LVU2496
 8932 1dd2 FEF78DBC 		b	.L172
 8933              	.LVL1025:
 8934              	.L544:
 8935              		.loc 3 238 12 view .LVU2497
 8936 1dd6 2046     		mov	r0, r4
 8937 1dd8 FFF7FEFF 		bl	lv_disp_get_dpi
 8938              	.LVL1026:
 8939 1ddc 00EB4000 		add	r0, r0, r0, lsl #1
 8940 1de0 8300     		lsls	r3, r0, #2
 8941 1de2 5033     		adds	r3, r3, #80
ARM GAS  C:\Users\gx\AppData\Local\Temp\ccQfGIQ4.s 			page 239


 8942 1de4 294A     		ldr	r2, .L592
 8943 1de6 82FB0312 		smull	r1, r2, r2, r3
 8944 1dea DC17     		asrs	r4, r3, #31
 8945              	.LVL1027:
 8946              		.loc 3 238 12 view .LVU2498
 8947 1dec C4EBA214 		rsb	r4, r4, r2, asr #6
 8948 1df0 24B2     		sxth	r4, r4
 8949 1df2 FEF77DBC 		b	.L172
 8950              	.LVL1028:
 8951              	.L450:
 8952              		.loc 3 238 12 view .LVU2499
 8953              	.LBE776:
 8954              	.LBE775:
 8955              	.LBB777:
 8956              	.LBB499:
 8957 1df6 2046     		mov	r0, r4
 8958 1df8 FFF7FEFF 		bl	lv_disp_get_dpi
 8959              	.LVL1029:
 8960 1dfc 00EB8000 		add	r0, r0, r0, lsl #2
 8961 1e00 4300     		lsls	r3, r0, #1
 8962 1e02 5033     		adds	r3, r3, #80
 8963 1e04 214A     		ldr	r2, .L592
 8964 1e06 82FB0312 		smull	r1, r2, r2, r3
 8965 1e0a DC17     		asrs	r4, r3, #31
 8966              	.LVL1030:
 8967              		.loc 3 238 12 view .LVU2500
 8968 1e0c C4EBA214 		rsb	r4, r4, r2, asr #6
 8969 1e10 24B2     		sxth	r4, r4
 8970 1e12 FEF76DBC 		b	.L172
 8971              	.LVL1031:
 8972              	.L451:
 8973              		.loc 3 238 12 view .LVU2501
 8974              	.LBE499:
 8975              	.LBE777:
 310:lvgl/lvgl/src/extra/themes/default/lv_theme_default.c **** 
 8976              		.loc 1 310 46 discriminator 1 view .LVU2502
 8977 1e16 1E4B     		ldr	r3, .L592+4
 8978 1e18 DC68     		ldr	r4, [r3, #12]
 8979              	.LVL1032:
 8980              	.LBB778:
 8981              	.LBI778:
 236:d:\practise\f407_disc\lvgl\lvgl\src/core\lv_disp.h **** {
 8982              		.loc 3 236 26 is_stmt 1 discriminator 1 view .LVU2503
 8983              	.LBB779:
 8984              		.loc 3 238 5 discriminator 1 view .LVU2504
 8985              		.loc 3 238 12 is_stmt 0 discriminator 1 view .LVU2505
 8986 1e1a 2046     		mov	r0, r4
 8987 1e1c FFF7FEFF 		bl	lv_disp_get_dpi
 8988              	.LVL1033:
 8989 1e20 C0EBC000 		rsb	r0, r0, r0, lsl #3
 8990 1e24 4000     		lsls	r0, r0, #1
 8991 1e26 EF28     		cmp	r0, #239
 8992 1e28 02DC     		bgt	.L545
 8993              		.loc 3 238 12 view .LVU2506
 8994 1e2a 0124     		movs	r4, #1
 8995              	.LVL1034:
 8996              		.loc 3 238 12 view .LVU2507
ARM GAS  C:\Users\gx\AppData\Local\Temp\ccQfGIQ4.s 			page 240


 8997 1e2c FEF787BC 		b	.L178
 8998              	.LVL1035:
 8999              	.L545:
 9000              		.loc 3 238 12 view .LVU2508
 9001 1e30 2046     		mov	r0, r4
 9002 1e32 FFF7FEFF 		bl	lv_disp_get_dpi
 9003              	.LVL1036:
 9004 1e36 C0EBC000 		rsb	r0, r0, r0, lsl #3
 9005 1e3a 4300     		lsls	r3, r0, #1
 9006 1e3c 5033     		adds	r3, r3, #80
 9007 1e3e 134A     		ldr	r2, .L592
 9008 1e40 82FB0312 		smull	r1, r2, r2, r3
 9009 1e44 DC17     		asrs	r4, r3, #31
 9010              	.LVL1037:
 9011              		.loc 3 238 12 view .LVU2509
 9012 1e46 C4EBA214 		rsb	r4, r4, r2, asr #6
 9013 1e4a 24B2     		sxth	r4, r4
 9014 1e4c FEF777BC 		b	.L178
 9015              	.LVL1038:
 9016              	.L452:
 9017              		.loc 3 238 12 view .LVU2510
 9018              	.LBE779:
 9019              	.LBE778:
 310:lvgl/lvgl/src/extra/themes/default/lv_theme_default.c **** 
 9020              		.loc 1 310 46 discriminator 4 view .LVU2511
 9021 1e50 0F4B     		ldr	r3, .L592+4
 9022 1e52 DC68     		ldr	r4, [r3, #12]
 9023              	.LVL1039:
 9024              	.LBB780:
 9025              	.LBI780:
 236:d:\practise\f407_disc\lvgl\lvgl\src/core\lv_disp.h **** {
 9026              		.loc 3 236 26 is_stmt 1 discriminator 4 view .LVU2512
 9027              	.LBB781:
 9028              		.loc 3 238 5 discriminator 4 view .LVU2513
 9029              		.loc 3 238 12 is_stmt 0 discriminator 4 view .LVU2514
 9030 1e54 2046     		mov	r0, r4
 9031 1e56 FFF7FEFF 		bl	lv_disp_get_dpi
 9032              	.LVL1040:
 9033 1e5a 00EB4000 		add	r0, r0, r0, lsl #1
 9034 1e5e 8000     		lsls	r0, r0, #2
 9035 1e60 EF28     		cmp	r0, #239
 9036 1e62 02DC     		bgt	.L546
 9037              		.loc 3 238 12 view .LVU2515
 9038 1e64 0124     		movs	r4, #1
 9039              	.LVL1041:
 9040              		.loc 3 238 12 view .LVU2516
 9041 1e66 FEF76ABC 		b	.L178
 9042              	.LVL1042:
 9043              	.L546:
 9044              		.loc 3 238 12 view .LVU2517
 9045 1e6a 2046     		mov	r0, r4
 9046 1e6c FFF7FEFF 		bl	lv_disp_get_dpi
 9047              	.LVL1043:
 9048 1e70 00EB4000 		add	r0, r0, r0, lsl #1
 9049 1e74 8300     		lsls	r3, r0, #2
 9050 1e76 5033     		adds	r3, r3, #80
 9051 1e78 044A     		ldr	r2, .L592
ARM GAS  C:\Users\gx\AppData\Local\Temp\ccQfGIQ4.s 			page 241


 9052 1e7a 82FB0312 		smull	r1, r2, r2, r3
 9053 1e7e DC17     		asrs	r4, r3, #31
 9054              	.LVL1044:
 9055              		.loc 3 238 12 view .LVU2518
 9056 1e80 C4EBA214 		rsb	r4, r4, r2, asr #6
 9057 1e84 24B2     		sxth	r4, r4
 9058 1e86 FEF75ABC 		b	.L178
 9059              	.L593:
 9060 1e8a 00BF     		.align	2
 9061              	.L592:
 9062 1e8c 67666666 		.word	1717986919
 9063 1e90 00000000 		.word	.LANCHOR2
 9064              	.LVL1045:
 9065              	.L453:
 9066              		.loc 3 238 12 view .LVU2519
 9067              	.LBE781:
 9068              	.LBE780:
 9069              	.LBB782:
 9070              	.LBB504:
 9071 1e94 2046     		mov	r0, r4
 9072 1e96 FFF7FEFF 		bl	lv_disp_get_dpi
 9073              	.LVL1046:
 9074 1e9a 00EB8000 		add	r0, r0, r0, lsl #2
 9075 1e9e 4300     		lsls	r3, r0, #1
 9076 1ea0 5033     		adds	r3, r3, #80
 9077 1ea2 D54A     		ldr	r2, .L594
 9078 1ea4 82FB0312 		smull	r1, r2, r2, r3
 9079 1ea8 DC17     		asrs	r4, r3, #31
 9080              	.LVL1047:
 9081              		.loc 3 238 12 view .LVU2520
 9082 1eaa C4EBA214 		rsb	r4, r4, r2, asr #6
 9083 1eae 24B2     		sxth	r4, r4
 9084 1eb0 FEF745BC 		b	.L178
 9085              	.LVL1048:
 9086              	.L454:
 9087              		.loc 3 238 12 view .LVU2521
 9088              	.LBE504:
 9089              	.LBE782:
 9090              	.LBB783:
 9091              	.LBB509:
 9092 1eb4 2846     		mov	r0, r5
 9093 1eb6 FFF7FEFF 		bl	lv_disp_get_dpi
 9094              	.LVL1049:
 9095 1eba 00EB8000 		add	r0, r0, r0, lsl #2
 9096 1ebe 4000     		lsls	r0, r0, #1
 9097 1ec0 5030     		adds	r0, r0, #80
 9098 1ec2 CD4B     		ldr	r3, .L594
 9099 1ec4 83FB0023 		smull	r2, r3, r3, r0
 9100 1ec8 C117     		asrs	r1, r0, #31
 9101 1eca C1EBA311 		rsb	r1, r1, r3, asr #6
 9102 1ece 09B2     		sxth	r1, r1
 9103 1ed0 FEF750BC 		b	.L182
 9104              	.LVL1050:
 9105              	.L455:
 9106              		.loc 3 238 12 view .LVU2522
 9107              	.LBE509:
 9108              	.LBE783:
ARM GAS  C:\Users\gx\AppData\Local\Temp\ccQfGIQ4.s 			page 242


 9109              	.LBB784:
 9110              	.LBB512:
 9111 1ed4 2846     		mov	r0, r5
 9112 1ed6 FFF7FEFF 		bl	lv_disp_get_dpi
 9113              	.LVL1051:
 9114 1eda 00EB8000 		add	r0, r0, r0, lsl #2
 9115 1ede 4000     		lsls	r0, r0, #1
 9116 1ee0 5030     		adds	r0, r0, #80
 9117 1ee2 C54B     		ldr	r3, .L594
 9118 1ee4 83FB0023 		smull	r2, r3, r3, r0
 9119 1ee8 C117     		asrs	r1, r0, #31
 9120 1eea C1EBA311 		rsb	r1, r1, r3, asr #6
 9121 1eee 09B2     		sxth	r1, r1
 9122 1ef0 FEF752BC 		b	.L183
 9123              	.LVL1052:
 9124              	.L456:
 9125              		.loc 3 238 12 view .LVU2523
 9126              	.LBE512:
 9127              	.LBE784:
 9128              	.LBB785:
 9129              	.LBB515:
 9130 1ef4 2846     		mov	r0, r5
 9131 1ef6 FFF7FEFF 		bl	lv_disp_get_dpi
 9132              	.LVL1053:
 9133 1efa 00EB8000 		add	r0, r0, r0, lsl #2
 9134 1efe 8000     		lsls	r0, r0, #2
 9135 1f00 5030     		adds	r0, r0, #80
 9136 1f02 BD4B     		ldr	r3, .L594
 9137 1f04 83FB0023 		smull	r2, r3, r3, r0
 9138 1f08 C117     		asrs	r1, r0, #31
 9139 1f0a C1EBA311 		rsb	r1, r1, r3, asr #6
 9140 1f0e 09B2     		sxth	r1, r1
 9141 1f10 FEF758BC 		b	.L184
 9142              	.LVL1054:
 9143              	.L457:
 9144              		.loc 3 238 12 view .LVU2524
 9145              	.LBE515:
 9146              	.LBE785:
 328:lvgl/lvgl/src/extra/themes/default/lv_theme_default.c ****     lv_style_set_pad_row(&styles->pad_tiny, PAD_TINY);
 9147              		.loc 1 328 45 discriminator 1 view .LVU2525
 9148 1f14 B94B     		ldr	r3, .L594+4
 9149 1f16 DC68     		ldr	r4, [r3, #12]
 9150              	.LVL1055:
 9151              	.LBB786:
 9152              	.LBI786:
 236:d:\practise\f407_disc\lvgl\lvgl\src/core\lv_disp.h **** {
 9153              		.loc 3 236 26 is_stmt 1 discriminator 1 view .LVU2526
 9154              	.LBB787:
 9155              		.loc 3 238 5 discriminator 1 view .LVU2527
 9156              		.loc 3 238 12 is_stmt 0 discriminator 1 view .LVU2528
 9157 1f18 2046     		mov	r0, r4
 9158 1f1a FFF7FEFF 		bl	lv_disp_get_dpi
 9159              	.LVL1056:
 9160 1f1e C000     		lsls	r0, r0, #3
 9161 1f20 EF28     		cmp	r0, #239
 9162 1f22 02DC     		bgt	.L547
 9163              		.loc 3 238 12 view .LVU2529
ARM GAS  C:\Users\gx\AppData\Local\Temp\ccQfGIQ4.s 			page 243


 9164 1f24 0124     		movs	r4, #1
 9165              	.LVL1057:
 9166              		.loc 3 238 12 view .LVU2530
 9167 1f26 FEF792BC 		b	.L187
 9168              	.LVL1058:
 9169              	.L547:
 9170              		.loc 3 238 12 view .LVU2531
 9171 1f2a 2046     		mov	r0, r4
 9172 1f2c FFF7FEFF 		bl	lv_disp_get_dpi
 9173              	.LVL1059:
 9174 1f30 C000     		lsls	r0, r0, #3
 9175 1f32 5030     		adds	r0, r0, #80
 9176 1f34 B04B     		ldr	r3, .L594
 9177 1f36 83FB0023 		smull	r2, r3, r3, r0
 9178 1f3a C417     		asrs	r4, r0, #31
 9179              	.LVL1060:
 9180              		.loc 3 238 12 view .LVU2532
 9181 1f3c C4EBA314 		rsb	r4, r4, r3, asr #6
 9182 1f40 24B2     		sxth	r4, r4
 9183 1f42 FEF784BC 		b	.L187
 9184              	.LVL1061:
 9185              	.L458:
 9186              		.loc 3 238 12 view .LVU2533
 9187              	.LBE787:
 9188              	.LBE786:
 328:lvgl/lvgl/src/extra/themes/default/lv_theme_default.c ****     lv_style_set_pad_row(&styles->pad_tiny, PAD_TINY);
 9189              		.loc 1 328 45 discriminator 4 view .LVU2534
 9190 1f46 AD4B     		ldr	r3, .L594+4
 9191 1f48 DC68     		ldr	r4, [r3, #12]
 9192              	.LVL1062:
 9193              	.LBB788:
 9194              	.LBI788:
 236:d:\practise\f407_disc\lvgl\lvgl\src/core\lv_disp.h **** {
 9195              		.loc 3 236 26 is_stmt 1 discriminator 4 view .LVU2535
 9196              	.LBB789:
 9197              		.loc 3 238 5 discriminator 4 view .LVU2536
 9198              		.loc 3 238 12 is_stmt 0 discriminator 4 view .LVU2537
 9199 1f4a 2046     		mov	r0, r4
 9200 1f4c FFF7FEFF 		bl	lv_disp_get_dpi
 9201              	.LVL1063:
 9202 1f50 00EB4000 		add	r0, r0, r0, lsl #1
 9203 1f54 4000     		lsls	r0, r0, #1
 9204 1f56 EF28     		cmp	r0, #239
 9205 1f58 02DC     		bgt	.L548
 9206              		.loc 3 238 12 view .LVU2538
 9207 1f5a 0124     		movs	r4, #1
 9208              	.LVL1064:
 9209              		.loc 3 238 12 view .LVU2539
 9210 1f5c FEF777BC 		b	.L187
 9211              	.LVL1065:
 9212              	.L548:
 9213              		.loc 3 238 12 view .LVU2540
 9214 1f60 2046     		mov	r0, r4
 9215 1f62 FFF7FEFF 		bl	lv_disp_get_dpi
 9216              	.LVL1066:
 9217 1f66 00EB4000 		add	r0, r0, r0, lsl #1
 9218 1f6a 4300     		lsls	r3, r0, #1
ARM GAS  C:\Users\gx\AppData\Local\Temp\ccQfGIQ4.s 			page 244


 9219 1f6c 5033     		adds	r3, r3, #80
 9220 1f6e A24A     		ldr	r2, .L594
 9221 1f70 82FB0312 		smull	r1, r2, r2, r3
 9222 1f74 DC17     		asrs	r4, r3, #31
 9223              	.LVL1067:
 9224              		.loc 3 238 12 view .LVU2541
 9225 1f76 C4EBA214 		rsb	r4, r4, r2, asr #6
 9226 1f7a 24B2     		sxth	r4, r4
 9227 1f7c FEF767BC 		b	.L187
 9228              	.LVL1068:
 9229              	.L459:
 9230              		.loc 3 238 12 view .LVU2542
 9231              	.LBE789:
 9232              	.LBE788:
 9233              	.LBB790:
 9234              	.LBB520:
 9235 1f80 2046     		mov	r0, r4
 9236 1f82 FFF7FEFF 		bl	lv_disp_get_dpi
 9237              	.LVL1069:
 9238 1f86 4000     		lsls	r0, r0, #1
 9239 1f88 5030     		adds	r0, r0, #80
 9240 1f8a 9B4B     		ldr	r3, .L594
 9241 1f8c 83FB0023 		smull	r2, r3, r3, r0
 9242 1f90 C417     		asrs	r4, r0, #31
 9243              	.LVL1070:
 9244              		.loc 3 238 12 view .LVU2543
 9245 1f92 C4EBA314 		rsb	r4, r4, r3, asr #6
 9246 1f96 24B2     		sxth	r4, r4
 9247 1f98 FEF759BC 		b	.L187
 9248              	.LVL1071:
 9249              	.L460:
 9250              		.loc 3 238 12 view .LVU2544
 9251              	.LBE520:
 9252              	.LBE790:
 329:lvgl/lvgl/src/extra/themes/default/lv_theme_default.c ****     lv_style_set_pad_column(&styles->pad_tiny, PAD_TINY);
 9253              		.loc 1 329 45 discriminator 1 view .LVU2545
 9254 1f9c 974B     		ldr	r3, .L594+4
 9255 1f9e DD68     		ldr	r5, [r3, #12]
 9256              	.LVL1072:
 9257              	.LBB791:
 9258              	.LBI791:
 236:d:\practise\f407_disc\lvgl\lvgl\src/core\lv_disp.h **** {
 9259              		.loc 3 236 26 is_stmt 1 discriminator 1 view .LVU2546
 9260              	.LBB792:
 9261              		.loc 3 238 5 discriminator 1 view .LVU2547
 9262              		.loc 3 238 12 is_stmt 0 discriminator 1 view .LVU2548
 9263 1fa0 2846     		mov	r0, r5
 9264 1fa2 FFF7FEFF 		bl	lv_disp_get_dpi
 9265              	.LVL1073:
 9266 1fa6 C000     		lsls	r0, r0, #3
 9267 1fa8 EF28     		cmp	r0, #239
 9268 1faa 02DC     		bgt	.L549
 9269              		.loc 3 238 12 view .LVU2549
 9270 1fac 0121     		movs	r1, #1
 9271              	.LVL1074:
 9272              		.loc 3 238 12 view .LVU2550
 9273 1fae FEF773BC 		b	.L193
ARM GAS  C:\Users\gx\AppData\Local\Temp\ccQfGIQ4.s 			page 245


 9274              	.LVL1075:
 9275              	.L549:
 9276              		.loc 3 238 12 view .LVU2551
 9277 1fb2 2846     		mov	r0, r5
 9278 1fb4 FFF7FEFF 		bl	lv_disp_get_dpi
 9279              	.LVL1076:
 9280 1fb8 C000     		lsls	r0, r0, #3
 9281 1fba 5030     		adds	r0, r0, #80
 9282 1fbc 8E4B     		ldr	r3, .L594
 9283 1fbe 83FB0023 		smull	r2, r3, r3, r0
 9284 1fc2 C117     		asrs	r1, r0, #31
 9285 1fc4 C1EBA311 		rsb	r1, r1, r3, asr #6
 9286 1fc8 09B2     		sxth	r1, r1
 9287 1fca FEF765BC 		b	.L193
 9288              	.LVL1077:
 9289              	.L461:
 9290              		.loc 3 238 12 view .LVU2552
 9291              	.LBE792:
 9292              	.LBE791:
 329:lvgl/lvgl/src/extra/themes/default/lv_theme_default.c ****     lv_style_set_pad_column(&styles->pad_tiny, PAD_TINY);
 9293              		.loc 1 329 45 discriminator 4 view .LVU2553
 9294 1fce 8B4B     		ldr	r3, .L594+4
 9295 1fd0 DD68     		ldr	r5, [r3, #12]
 9296              	.LVL1078:
 9297              	.LBB793:
 9298              	.LBI793:
 236:d:\practise\f407_disc\lvgl\lvgl\src/core\lv_disp.h **** {
 9299              		.loc 3 236 26 is_stmt 1 discriminator 4 view .LVU2554
 9300              	.LBB794:
 9301              		.loc 3 238 5 discriminator 4 view .LVU2555
 9302              		.loc 3 238 12 is_stmt 0 discriminator 4 view .LVU2556
 9303 1fd2 2846     		mov	r0, r5
 9304 1fd4 FFF7FEFF 		bl	lv_disp_get_dpi
 9305              	.LVL1079:
 9306 1fd8 00EB4000 		add	r0, r0, r0, lsl #1
 9307 1fdc 4000     		lsls	r0, r0, #1
 9308 1fde EF28     		cmp	r0, #239
 9309 1fe0 02DC     		bgt	.L550
 9310              		.loc 3 238 12 view .LVU2557
 9311 1fe2 0121     		movs	r1, #1
 9312              	.LVL1080:
 9313              		.loc 3 238 12 view .LVU2558
 9314 1fe4 FEF758BC 		b	.L193
 9315              	.LVL1081:
 9316              	.L550:
 9317              		.loc 3 238 12 view .LVU2559
 9318 1fe8 2846     		mov	r0, r5
 9319 1fea FFF7FEFF 		bl	lv_disp_get_dpi
 9320              	.LVL1082:
 9321 1fee 00EB4000 		add	r0, r0, r0, lsl #1
 9322 1ff2 4300     		lsls	r3, r0, #1
 9323 1ff4 5033     		adds	r3, r3, #80
 9324 1ff6 804A     		ldr	r2, .L594
 9325 1ff8 82FB0312 		smull	r1, r2, r2, r3
 9326 1ffc D917     		asrs	r1, r3, #31
 9327 1ffe C1EBA211 		rsb	r1, r1, r2, asr #6
 9328 2002 09B2     		sxth	r1, r1
ARM GAS  C:\Users\gx\AppData\Local\Temp\ccQfGIQ4.s 			page 246


 9329 2004 FEF748BC 		b	.L193
 9330              	.LVL1083:
 9331              	.L462:
 9332              		.loc 3 238 12 view .LVU2560
 9333              	.LBE794:
 9334              	.LBE793:
 9335              	.LBB795:
 9336              	.LBB525:
 9337 2008 2846     		mov	r0, r5
 9338 200a FFF7FEFF 		bl	lv_disp_get_dpi
 9339              	.LVL1084:
 9340 200e 4000     		lsls	r0, r0, #1
 9341 2010 5030     		adds	r0, r0, #80
 9342 2012 794B     		ldr	r3, .L594
 9343 2014 83FB0023 		smull	r2, r3, r3, r0
 9344 2018 C117     		asrs	r1, r0, #31
 9345 201a C1EBA311 		rsb	r1, r1, r3, asr #6
 9346 201e 09B2     		sxth	r1, r1
 9347 2020 FEF73ABC 		b	.L193
 9348              	.LVL1085:
 9349              	.L463:
 9350              		.loc 3 238 12 view .LVU2561
 9351              	.LBE525:
 9352              	.LBE795:
 330:lvgl/lvgl/src/extra/themes/default/lv_theme_default.c **** 
 9353              		.loc 1 330 48 discriminator 1 view .LVU2562
 9354 2024 754B     		ldr	r3, .L594+4
 9355 2026 DD68     		ldr	r5, [r3, #12]
 9356              	.LVL1086:
 9357              	.LBB796:
 9358              	.LBI796:
 236:d:\practise\f407_disc\lvgl\lvgl\src/core\lv_disp.h **** {
 9359              		.loc 3 236 26 is_stmt 1 discriminator 1 view .LVU2563
 9360              	.LBB797:
 9361              		.loc 3 238 5 discriminator 1 view .LVU2564
 9362              		.loc 3 238 12 is_stmt 0 discriminator 1 view .LVU2565
 9363 2028 2846     		mov	r0, r5
 9364 202a FFF7FEFF 		bl	lv_disp_get_dpi
 9365              	.LVL1087:
 9366 202e C000     		lsls	r0, r0, #3
 9367 2030 EF28     		cmp	r0, #239
 9368 2032 02DC     		bgt	.L551
 9369              		.loc 3 238 12 view .LVU2566
 9370 2034 0121     		movs	r1, #1
 9371              	.LVL1088:
 9372              		.loc 3 238 12 view .LVU2567
 9373 2036 FEF747BC 		b	.L199
 9374              	.LVL1089:
 9375              	.L551:
 9376              		.loc 3 238 12 view .LVU2568
 9377 203a 2846     		mov	r0, r5
 9378 203c FFF7FEFF 		bl	lv_disp_get_dpi
 9379              	.LVL1090:
 9380 2040 C000     		lsls	r0, r0, #3
 9381 2042 5030     		adds	r0, r0, #80
 9382 2044 6C4B     		ldr	r3, .L594
 9383 2046 83FB0023 		smull	r2, r3, r3, r0
ARM GAS  C:\Users\gx\AppData\Local\Temp\ccQfGIQ4.s 			page 247


 9384 204a C117     		asrs	r1, r0, #31
 9385 204c C1EBA311 		rsb	r1, r1, r3, asr #6
 9386 2050 09B2     		sxth	r1, r1
 9387 2052 FEF739BC 		b	.L199
 9388              	.LVL1091:
 9389              	.L464:
 9390              		.loc 3 238 12 view .LVU2569
 9391              	.LBE797:
 9392              	.LBE796:
 330:lvgl/lvgl/src/extra/themes/default/lv_theme_default.c **** 
 9393              		.loc 1 330 48 discriminator 4 view .LVU2570
 9394 2056 694B     		ldr	r3, .L594+4
 9395 2058 DD68     		ldr	r5, [r3, #12]
 9396              	.LVL1092:
 9397              	.LBB798:
 9398              	.LBI798:
 236:d:\practise\f407_disc\lvgl\lvgl\src/core\lv_disp.h **** {
 9399              		.loc 3 236 26 is_stmt 1 discriminator 4 view .LVU2571
 9400              	.LBB799:
 9401              		.loc 3 238 5 discriminator 4 view .LVU2572
 9402              		.loc 3 238 12 is_stmt 0 discriminator 4 view .LVU2573
 9403 205a 2846     		mov	r0, r5
 9404 205c FFF7FEFF 		bl	lv_disp_get_dpi
 9405              	.LVL1093:
 9406 2060 00EB4000 		add	r0, r0, r0, lsl #1
 9407 2064 4000     		lsls	r0, r0, #1
 9408 2066 EF28     		cmp	r0, #239
 9409 2068 02DC     		bgt	.L552
 9410              		.loc 3 238 12 view .LVU2574
 9411 206a 0121     		movs	r1, #1
 9412              	.LVL1094:
 9413              		.loc 3 238 12 view .LVU2575
 9414 206c FEF72CBC 		b	.L199
 9415              	.LVL1095:
 9416              	.L552:
 9417              		.loc 3 238 12 view .LVU2576
 9418 2070 2846     		mov	r0, r5
 9419 2072 FFF7FEFF 		bl	lv_disp_get_dpi
 9420              	.LVL1096:
 9421 2076 00EB4000 		add	r0, r0, r0, lsl #1
 9422 207a 4300     		lsls	r3, r0, #1
 9423 207c 5033     		adds	r3, r3, #80
 9424 207e 5E4A     		ldr	r2, .L594
 9425 2080 82FB0312 		smull	r1, r2, r2, r3
 9426 2084 D917     		asrs	r1, r3, #31
 9427 2086 C1EBA211 		rsb	r1, r1, r2, asr #6
 9428 208a 09B2     		sxth	r1, r1
 9429 208c FEF71CBC 		b	.L199
 9430              	.LVL1097:
 9431              	.L465:
 9432              		.loc 3 238 12 view .LVU2577
 9433              	.LBE799:
 9434              	.LBE798:
 9435              	.LBB800:
 9436              	.LBB528:
 9437 2090 2846     		mov	r0, r5
 9438 2092 FFF7FEFF 		bl	lv_disp_get_dpi
ARM GAS  C:\Users\gx\AppData\Local\Temp\ccQfGIQ4.s 			page 248


 9439              	.LVL1098:
 9440 2096 4000     		lsls	r0, r0, #1
 9441 2098 5030     		adds	r0, r0, #80
 9442 209a 574B     		ldr	r3, .L594
 9443 209c 83FB0023 		smull	r2, r3, r3, r0
 9444 20a0 C117     		asrs	r1, r0, #31
 9445 20a2 C1EBA311 		rsb	r1, r1, r3, asr #6
 9446 20a6 09B2     		sxth	r1, r1
 9447 20a8 FEF70EBC 		b	.L199
 9448              	.LVL1099:
 9449              	.L466:
 9450              		.loc 3 238 12 view .LVU2578
 9451              	.LBE528:
 9452              	.LBE800:
 9453              	.LBB801:
 9454              	.LBB539:
 9455 20ac 2846     		mov	r0, r5
 9456 20ae FFF7FEFF 		bl	lv_disp_get_dpi
 9457              	.LVL1100:
 9458 20b2 00EB4000 		add	r0, r0, r0, lsl #1
 9459 20b6 5030     		adds	r0, r0, #80
 9460 20b8 4F4B     		ldr	r3, .L594
 9461 20ba 83FB0023 		smull	r2, r3, r3, r0
 9462 20be C117     		asrs	r1, r0, #31
 9463 20c0 C1EBA311 		rsb	r1, r1, r3, asr #6
 9464 20c4 09B2     		sxth	r1, r1
 9465 20c6 FEF7ACBC 		b	.L203
 9466              	.LVL1101:
 9467              	.L467:
 9468              		.loc 3 238 12 view .LVU2579
 9469              	.LBE539:
 9470              	.LBE801:
 9471              	.LBB802:
 9472              	.LBB542:
 9473 20ca 2846     		mov	r0, r5
 9474 20cc FFF7FEFF 		bl	lv_disp_get_dpi
 9475              	.LVL1102:
 9476 20d0 00EB4000 		add	r0, r0, r0, lsl #1
 9477 20d4 5030     		adds	r0, r0, #80
 9478 20d6 484B     		ldr	r3, .L594
 9479 20d8 83FB0023 		smull	r2, r3, r3, r0
 9480 20dc C117     		asrs	r1, r0, #31
 9481 20de C1EBA311 		rsb	r1, r1, r3, asr #6
 9482 20e2 09B2     		sxth	r1, r1
 9483 20e4 FEF7AEBC 		b	.L204
 9484              	.LVL1103:
 9485              	.L468:
 9486              		.loc 3 238 12 view .LVU2580
 9487              	.LBE542:
 9488              	.LBE802:
 9489              	.LBB803:
 9490              	.LBB545:
 9491 20e8 2046     		mov	r0, r4
 9492 20ea FFF7FEFF 		bl	lv_disp_get_dpi
 9493              	.LVL1104:
 9494 20ee 00EB4000 		add	r0, r0, r0, lsl #1
 9495 20f2 4000     		lsls	r0, r0, #1
ARM GAS  C:\Users\gx\AppData\Local\Temp\ccQfGIQ4.s 			page 249


 9496 20f4 5030     		adds	r0, r0, #80
 9497 20f6 404B     		ldr	r3, .L594
 9498 20f8 83FB0023 		smull	r2, r3, r3, r0
 9499 20fc C417     		asrs	r4, r0, #31
 9500              	.LVL1105:
 9501              		.loc 3 238 12 view .LVU2581
 9502 20fe C4EBA314 		rsb	r4, r4, r3, asr #6
 9503 2102 24B2     		sxth	r4, r4
 9504 2104 FEF7BEBC 		b	.L205
 9505              	.LVL1106:
 9506              	.L469:
 9507              		.loc 3 238 12 view .LVU2582
 9508              	.LBE545:
 9509              	.LBE803:
 9510              	.LBB804:
 9511              	.LBB550:
 9512 2108 2846     		mov	r0, r5
 9513 210a FFF7FEFF 		bl	lv_disp_get_dpi
 9514              	.LVL1107:
 9515 210e C0EB0010 		rsb	r0, r0, r0, lsl #4
 9516 2112 5030     		adds	r0, r0, #80
 9517 2114 384B     		ldr	r3, .L594
 9518 2116 83FB0023 		smull	r2, r3, r3, r0
 9519 211a C117     		asrs	r1, r0, #31
 9520 211c C1EBA311 		rsb	r1, r1, r3, asr #6
 9521 2120 09B2     		sxth	r1, r1
 9522 2122 FEF7E6BC 		b	.L206
 9523              	.LVL1108:
 9524              	.L470:
 9525              		.loc 3 238 12 view .LVU2583
 9526              	.LBE550:
 9527              	.LBE804:
 9528              	.LBB805:
 9529              	.LBB553:
 9530 2126 2046     		mov	r0, r4
 9531 2128 FFF7FEFF 		bl	lv_disp_get_dpi
 9532              	.LVL1109:
 9533 212c 00EB4000 		add	r0, r0, r0, lsl #1
 9534 2130 5030     		adds	r0, r0, #80
 9535 2132 314B     		ldr	r3, .L594
 9536 2134 83FB0023 		smull	r2, r3, r3, r0
 9537 2138 C417     		asrs	r4, r0, #31
 9538              	.LVL1110:
 9539              		.loc 3 238 12 view .LVU2584
 9540 213a C4EBA314 		rsb	r4, r4, r3, asr #6
 9541 213e 24B2     		sxth	r4, r4
 9542 2140 FEF70ABD 		b	.L207
 9543              	.LVL1111:
 9544              	.L471:
 9545              		.loc 3 238 12 view .LVU2585
 9546              	.LBE553:
 9547              	.LBE805:
 9548              	.LBB806:
 9549              	.LBB558:
 9550 2144 2846     		mov	r0, r5
 9551 2146 FFF7FEFF 		bl	lv_disp_get_dpi
 9552              	.LVL1112:
ARM GAS  C:\Users\gx\AppData\Local\Temp\ccQfGIQ4.s 			page 250


 9553 214a 4000     		lsls	r0, r0, #1
 9554 214c 5030     		adds	r0, r0, #80
 9555 214e 2A4B     		ldr	r3, .L594
 9556 2150 83FB0023 		smull	r2, r3, r3, r0
 9557 2154 C117     		asrs	r1, r0, #31
 9558 2156 C1EBA311 		rsb	r1, r1, r3, asr #6
 9559 215a 09B2     		sxth	r1, r1
 9560 215c FEF71ABD 		b	.L208
 9561              	.LVL1113:
 9562              	.L472:
 9563              		.loc 3 238 12 view .LVU2586
 9564              	.LBE558:
 9565              	.LBE806:
 404:lvgl/lvgl/src/extra/themes/default/lv_theme_default.c **** 
 9566              		.loc 1 404 45 discriminator 1 view .LVU2587
 9567 2160 264B     		ldr	r3, .L594+4
 9568 2162 DD68     		ldr	r5, [r3, #12]
 9569              	.LVL1114:
 9570              	.LBB807:
 9571              	.LBI807:
 236:d:\practise\f407_disc\lvgl\lvgl\src/core\lv_disp.h **** {
 9572              		.loc 3 236 26 is_stmt 1 discriminator 1 view .LVU2588
 9573              	.LBB808:
 9574              		.loc 3 238 5 discriminator 1 view .LVU2589
 9575              		.loc 3 238 12 is_stmt 0 discriminator 1 view .LVU2590
 9576 2164 2846     		mov	r0, r5
 9577 2166 FFF7FEFF 		bl	lv_disp_get_dpi
 9578              	.LVL1115:
 9579 216a 00EB4000 		add	r0, r0, r0, lsl #1
 9580 216e 8000     		lsls	r0, r0, #2
 9581 2170 EF28     		cmp	r0, #239
 9582 2172 05DC     		bgt	.L553
 9583              		.loc 3 238 12 view .LVU2591
 9584 2174 0121     		movs	r1, #1
 9585              	.L210:
 9586              	.LVL1116:
 9587              		.loc 3 238 12 view .LVU2592
 9588              	.LBE808:
 9589              	.LBE807:
 404:lvgl/lvgl/src/extra/themes/default/lv_theme_default.c **** 
 9590              		.loc 1 404 5 view .LVU2593
 9591 2176 01EBD171 		add	r1, r1, r1, lsr #31
 9592 217a 4910     		asrs	r1, r1, #1
 9593 217c FEF737BD 		b	.L211
 9594              	.LVL1117:
 9595              	.L553:
 9596              	.LBB810:
 9597              	.LBB809:
 9598              		.loc 3 238 12 view .LVU2594
 9599 2180 2846     		mov	r0, r5
 9600 2182 FFF7FEFF 		bl	lv_disp_get_dpi
 9601              	.LVL1118:
 9602 2186 00EB4000 		add	r0, r0, r0, lsl #1
 9603 218a 8300     		lsls	r3, r0, #2
 9604 218c 5033     		adds	r3, r3, #80
 9605 218e 1A4A     		ldr	r2, .L594
 9606 2190 82FB0312 		smull	r1, r2, r2, r3
ARM GAS  C:\Users\gx\AppData\Local\Temp\ccQfGIQ4.s 			page 251


 9607 2194 D917     		asrs	r1, r3, #31
 9608 2196 C1EBA211 		rsb	r1, r1, r2, asr #6
 9609 219a 09B2     		sxth	r1, r1
 9610 219c EBE7     		b	.L210
 9611              	.LVL1119:
 9612              	.L473:
 9613              		.loc 3 238 12 view .LVU2595
 9614              	.LBE809:
 9615              	.LBE810:
 9616              	.LBB811:
 9617              	.LBB561:
 9618 219e 2846     		mov	r0, r5
 9619 21a0 FFF7FEFF 		bl	lv_disp_get_dpi
 9620              	.LVL1120:
 9621 21a4 C000     		lsls	r0, r0, #3
 9622 21a6 5030     		adds	r0, r0, #80
 9623 21a8 134B     		ldr	r3, .L594
 9624 21aa 83FB0023 		smull	r2, r3, r3, r0
 9625 21ae C117     		asrs	r1, r0, #31
 9626 21b0 C1EBA311 		rsb	r1, r1, r3, asr #6
 9627 21b4 09B2     		sxth	r1, r1
 9628 21b6 FEF717BD 		b	.L212
 9629              	.LVL1121:
 9630              	.L474:
 9631              		.loc 3 238 12 view .LVU2596
 9632              	.LBE561:
 9633              	.LBE811:
 9634              	.LBB812:
 9635              	.LBB568:
 9636 21ba 2046     		mov	r0, r4
 9637 21bc FFF7FEFF 		bl	lv_disp_get_dpi
 9638              	.LVL1122:
 9639 21c0 8000     		lsls	r0, r0, #2
 9640 21c2 5030     		adds	r0, r0, #80
 9641 21c4 0C4B     		ldr	r3, .L594
 9642 21c6 83FB0023 		smull	r2, r3, r3, r0
 9643 21ca C417     		asrs	r4, r0, #31
 9644              	.LVL1123:
 9645              		.loc 3 238 12 view .LVU2597
 9646 21cc C4EBA314 		rsb	r4, r4, r3, asr #6
 9647 21d0 24B2     		sxth	r4, r4
 9648 21d2 FEF73ABD 		b	.L213
 9649              	.LVL1124:
 9650              	.L475:
 9651              		.loc 3 238 12 view .LVU2598
 9652              	.LBE568:
 9653              	.LBE812:
 9654              	.LBB813:
 9655              	.LBB577:
 9656 21d6 2846     		mov	r0, r5
 9657 21d8 FFF7FEFF 		bl	lv_disp_get_dpi
 9658              	.LVL1125:
 9659 21dc 00EB8000 		add	r0, r0, r0, lsl #2
 9660 21e0 4000     		lsls	r0, r0, #1
 9661 21e2 5030     		adds	r0, r0, #80
 9662 21e4 044B     		ldr	r3, .L594
 9663 21e6 83FB0023 		smull	r2, r3, r3, r0
ARM GAS  C:\Users\gx\AppData\Local\Temp\ccQfGIQ4.s 			page 252


 9664 21ea C117     		asrs	r1, r0, #31
 9665 21ec C1EBA311 		rsb	r1, r1, r3, asr #6
 9666 21f0 09B2     		sxth	r1, r1
 9667 21f2 FEF771BD 		b	.L214
 9668              	.L595:
 9669 21f6 00BF     		.align	2
 9670              	.L594:
 9671 21f8 67666666 		.word	1717986919
 9672 21fc 00000000 		.word	.LANCHOR2
 9673              	.LVL1126:
 9674              	.L476:
 9675              		.loc 3 238 12 view .LVU2599
 9676              	.LBE577:
 9677              	.LBE813:
 9678              	.LBB814:
 9679              	.LBB580:
 9680 2200 2846     		mov	r0, r5
 9681 2202 FFF7FEFF 		bl	lv_disp_get_dpi
 9682              	.LVL1127:
 9683 2206 00EB4000 		add	r0, r0, r0, lsl #1
 9684 220a 5030     		adds	r0, r0, #80
 9685 220c D54B     		ldr	r3, .L596
 9686 220e 83FB0023 		smull	r2, r3, r3, r0
 9687 2212 C117     		asrs	r1, r0, #31
 9688 2214 C1EBA311 		rsb	r1, r1, r3, asr #6
 9689 2218 09B2     		sxth	r1, r1
 9690 221a FEF77BBD 		b	.L215
 9691              	.LVL1128:
 9692              	.L477:
 9693              		.loc 3 238 12 view .LVU2600
 9694              	.LBE580:
 9695              	.LBE814:
 9696              	.LBB815:
 9697              	.LBB583:
 9698 221e 2846     		mov	r0, r5
 9699 2220 FFF7FEFF 		bl	lv_disp_get_dpi
 9700              	.LVL1129:
 9701 2224 00EB4000 		add	r0, r0, r0, lsl #1
 9702 2228 5030     		adds	r0, r0, #80
 9703 222a CE4B     		ldr	r3, .L596
 9704 222c 83FB0023 		smull	r2, r3, r3, r0
 9705 2230 C117     		asrs	r1, r0, #31
 9706 2232 C1EBA311 		rsb	r1, r1, r3, asr #6
 9707 2236 09B2     		sxth	r1, r1
 9708 2238 FEF77EBD 		b	.L216
 9709              	.LVL1130:
 9710              	.L478:
 9711              		.loc 3 238 12 view .LVU2601
 9712              	.LBE583:
 9713              	.LBE815:
 9714              	.LBB816:
 9715              	.LBB586:
 9716 223c 2046     		mov	r0, r4
 9717 223e FFF7FEFF 		bl	lv_disp_get_dpi
 9718              	.LVL1131:
 9719 2242 C000     		lsls	r0, r0, #3
 9720 2244 5030     		adds	r0, r0, #80
ARM GAS  C:\Users\gx\AppData\Local\Temp\ccQfGIQ4.s 			page 253


 9721 2246 C74B     		ldr	r3, .L596
 9722 2248 83FB0023 		smull	r2, r3, r3, r0
 9723 224c C417     		asrs	r4, r0, #31
 9724              	.LVL1132:
 9725              		.loc 3 238 12 view .LVU2602
 9726 224e C4EBA314 		rsb	r4, r4, r3, asr #6
 9727 2252 24B2     		sxth	r4, r4
 9728 2254 FEF790BD 		b	.L217
 9729              	.LVL1133:
 9730              	.L479:
 9731              		.loc 3 238 12 view .LVU2603
 9732              	.LBE586:
 9733              	.LBE816:
 9734              	.LBB817:
 9735              	.LBB591:
 9736 2258 2846     		mov	r0, r5
 9737 225a FFF7FEFF 		bl	lv_disp_get_dpi
 9738              	.LVL1134:
 9739 225e 4000     		lsls	r0, r0, #1
 9740 2260 5030     		adds	r0, r0, #80
 9741 2262 C04B     		ldr	r3, .L596
 9742 2264 83FB0023 		smull	r2, r3, r3, r0
 9743 2268 C117     		asrs	r1, r0, #31
 9744 226a C1EBA311 		rsb	r1, r1, r3, asr #6
 9745 226e 09B2     		sxth	r1, r1
 9746 2270 FEF798BD 		b	.L218
 9747              	.LVL1135:
 9748              	.L480:
 9749              		.loc 3 238 12 view .LVU2604
 9750              	.LBE591:
 9751              	.LBE817:
 9752              	.LBB818:
 9753              	.LBB594:
 9754 2274 2046     		mov	r0, r4
 9755 2276 FFF7FEFF 		bl	lv_disp_get_dpi
 9756              	.LVL1136:
 9757 227a C000     		lsls	r0, r0, #3
 9758 227c 5030     		adds	r0, r0, #80
 9759 227e B94B     		ldr	r3, .L596
 9760 2280 83FB0023 		smull	r2, r3, r3, r0
 9761 2284 C417     		asrs	r4, r0, #31
 9762              	.LVL1137:
 9763              		.loc 3 238 12 view .LVU2605
 9764 2286 C4EBA314 		rsb	r4, r4, r3, asr #6
 9765 228a 24B2     		sxth	r4, r4
 9766 228c FEF7A7BD 		b	.L219
 9767              	.LVL1138:
 9768              	.L481:
 9769              		.loc 3 238 12 view .LVU2606
 9770              	.LBE594:
 9771              	.LBE818:
 9772              	.LBB819:
 9773              	.LBB599:
 9774 2290 2846     		mov	r0, r5
 9775 2292 FFF7FEFF 		bl	lv_disp_get_dpi
 9776              	.LVL1139:
 9777 2296 5030     		adds	r0, r0, #80
ARM GAS  C:\Users\gx\AppData\Local\Temp\ccQfGIQ4.s 			page 254


 9778 2298 B24B     		ldr	r3, .L596
 9779 229a 83FB0023 		smull	r2, r3, r3, r0
 9780 229e C117     		asrs	r1, r0, #31
 9781 22a0 C1EBA311 		rsb	r1, r1, r3, asr #6
 9782 22a4 09B2     		sxth	r1, r1
 9783 22a6 FEF7C0BD 		b	.L220
 9784              	.LVL1140:
 9785              	.L482:
 9786              		.loc 3 238 12 view .LVU2607
 9787              	.LBE599:
 9788              	.LBE819:
 9789              	.LBB820:
 9790              	.LBB602:
 9791 22aa 2046     		mov	r0, r4
 9792 22ac FFF7FEFF 		bl	lv_disp_get_dpi
 9793              	.LVL1141:
 9794 22b0 4000     		lsls	r0, r0, #1
 9795 22b2 5030     		adds	r0, r0, #80
 9796 22b4 AB4B     		ldr	r3, .L596
 9797 22b6 83FB0023 		smull	r2, r3, r3, r0
 9798 22ba C417     		asrs	r4, r0, #31
 9799              	.LVL1142:
 9800              		.loc 3 238 12 view .LVU2608
 9801 22bc C4EBA314 		rsb	r4, r4, r3, asr #6
 9802 22c0 24B2     		sxth	r4, r4
 9803 22c2 FEF7CABD 		b	.L221
 9804              	.LVL1143:
 9805              	.L483:
 9806              		.loc 3 238 12 view .LVU2609
 9807              	.LBE602:
 9808              	.LBE820:
 9809              	.LBB821:
 9810              	.LBB607:
 9811 22c6 2846     		mov	r0, r5
 9812 22c8 FFF7FEFF 		bl	lv_disp_get_dpi
 9813              	.LVL1144:
 9814 22cc 00EB8000 		add	r0, r0, r0, lsl #2
 9815 22d0 5030     		adds	r0, r0, #80
 9816 22d2 A44B     		ldr	r3, .L596
 9817 22d4 83FB0023 		smull	r2, r3, r3, r0
 9818 22d8 C117     		asrs	r1, r0, #31
 9819 22da C1EBA311 		rsb	r1, r1, r3, asr #6
 9820 22de 09B2     		sxth	r1, r1
 9821 22e0 FEF7E8BD 		b	.L222
 9822              	.LVL1145:
 9823              	.L484:
 9824              		.loc 3 238 12 view .LVU2610
 9825              	.LBE607:
 9826              	.LBE821:
 9827              	.LBB822:
 9828              	.LBB610:
 9829 22e4 2046     		mov	r0, r4
 9830 22e6 FFF7FEFF 		bl	lv_disp_get_dpi
 9831              	.LVL1146:
 9832 22ea 00EB8000 		add	r0, r0, r0, lsl #2
 9833 22ee 8000     		lsls	r0, r0, #2
 9834 22f0 5030     		adds	r0, r0, #80
ARM GAS  C:\Users\gx\AppData\Local\Temp\ccQfGIQ4.s 			page 255


 9835 22f2 9C4B     		ldr	r3, .L596
 9836 22f4 83FB0023 		smull	r2, r3, r3, r0
 9837 22f8 C417     		asrs	r4, r0, #31
 9838              	.LVL1147:
 9839              		.loc 3 238 12 view .LVU2611
 9840 22fa C4EBA314 		rsb	r4, r4, r3, asr #6
 9841 22fe 24B2     		sxth	r4, r4
 9842 2300 FEF7F2BD 		b	.L223
 9843              	.LVL1148:
 9844              	.L485:
 9845              		.loc 3 238 12 view .LVU2612
 9846              	.LBE610:
 9847              	.LBE822:
 9848              	.LBB823:
 9849              	.LBB615:
 9850 2304 2846     		mov	r0, r5
 9851 2306 FFF7FEFF 		bl	lv_disp_get_dpi
 9852              	.LVL1149:
 9853 230a C0EB0010 		rsb	r0, r0, r0, lsl #4
 9854 230e 5030     		adds	r0, r0, #80
 9855 2310 944B     		ldr	r3, .L596
 9856 2312 83FB0023 		smull	r2, r3, r3, r0
 9857 2316 C117     		asrs	r1, r0, #31
 9858 2318 C1EBA311 		rsb	r1, r1, r3, asr #6
 9859 231c 09B2     		sxth	r1, r1
 9860 231e FEF7FABD 		b	.L224
 9861              	.LVL1150:
 9862              	.L486:
 9863              		.loc 3 238 12 view .LVU2613
 9864              	.LBE615:
 9865              	.LBE823:
 9866              	.LBB824:
 9867              	.LBB618:
 9868 2322 2046     		mov	r0, r4
 9869 2324 FFF7FEFF 		bl	lv_disp_get_dpi
 9870              	.LVL1151:
 9871 2328 C0EB0010 		rsb	r0, r0, r0, lsl #4
 9872 232c 5030     		adds	r0, r0, #80
 9873 232e 8D4B     		ldr	r3, .L596
 9874 2330 83FB0023 		smull	r2, r3, r3, r0
 9875 2334 C417     		asrs	r4, r0, #31
 9876              	.LVL1152:
 9877              		.loc 3 238 12 view .LVU2614
 9878 2336 C4EBA314 		rsb	r4, r4, r3, asr #6
 9879 233a 24B2     		sxth	r4, r4
 9880 233c FEF716BE 		b	.L225
 9881              	.LVL1153:
 9882              	.L487:
 9883              		.loc 3 238 12 view .LVU2615
 9884              	.LBE618:
 9885              	.LBE824:
 9886              	.LBB825:
 9887              	.LBB623:
 9888 2340 2846     		mov	r0, r5
 9889 2342 FFF7FEFF 		bl	lv_disp_get_dpi
 9890              	.LVL1154:
 9891 2346 5030     		adds	r0, r0, #80
ARM GAS  C:\Users\gx\AppData\Local\Temp\ccQfGIQ4.s 			page 256


 9892 2348 864B     		ldr	r3, .L596
 9893 234a 83FB0023 		smull	r2, r3, r3, r0
 9894 234e C117     		asrs	r1, r0, #31
 9895 2350 C1EBA311 		rsb	r1, r1, r3, asr #6
 9896 2354 09B2     		sxth	r1, r1
 9897 2356 FEF723BE 		b	.L226
 9898              	.LVL1155:
 9899              	.L488:
 9900              		.loc 3 238 12 view .LVU2616
 9901              	.LBE623:
 9902              	.LBE825:
 9903              	.LBB826:
 9904              	.LBB626:
 9905 235a 2846     		mov	r0, r5
 9906 235c FFF7FEFF 		bl	lv_disp_get_dpi
 9907              	.LVL1156:
 9908 2360 4000     		lsls	r0, r0, #1
 9909 2362 5030     		adds	r0, r0, #80
 9910 2364 7F4B     		ldr	r3, .L596
 9911 2366 83FB0023 		smull	r2, r3, r3, r0
 9912 236a C117     		asrs	r1, r0, #31
 9913 236c C1EBA311 		rsb	r1, r1, r3, asr #6
 9914 2370 09B2     		sxth	r1, r1
 9915 2372 FEF73FBE 		b	.L227
 9916              	.LVL1157:
 9917              	.L489:
 9918              		.loc 3 238 12 view .LVU2617
 9919              	.LBE626:
 9920              	.LBE826:
 9921              	.LBB827:
 9922              	.LBB629:
 9923 2376 2846     		mov	r0, r5
 9924 2378 FFF7FEFF 		bl	lv_disp_get_dpi
 9925              	.LVL1158:
 9926 237c 5030     		adds	r0, r0, #80
 9927 237e 794B     		ldr	r3, .L596
 9928 2380 83FB0023 		smull	r2, r3, r3, r0
 9929 2384 C117     		asrs	r1, r0, #31
 9930 2386 C1EBA311 		rsb	r1, r1, r3, asr #6
 9931 238a 09B2     		sxth	r1, r1
 9932 238c FEF742BE 		b	.L228
 9933              	.LVL1159:
 9934              	.L229:
 9935              		.loc 3 238 12 view .LVU2618
 9936              	.LBE629:
 9937              	.LBE827:
 479:lvgl/lvgl/src/extra/themes/default/lv_theme_default.c **** #endif
 9938              		.loc 1 479 122 discriminator 2 view .LVU2619
 9939 2390 0121     		movs	r1, #1
 9940 2392 1220     		movs	r0, #18
 9941 2394 FFF7FEFF 		bl	lv_palette_lighten
 9942              	.LVL1160:
 9943 2398 0146     		mov	r1, r0	@ movhi
 9944 239a FEF75FBE 		b	.L230
 9945              	.L490:
 484:lvgl/lvgl/src/extra/themes/default/lv_theme_default.c ****     lv_style_set_pad_gap(&styles->calendar_bg, PAD_SMALL / 2);
 9946              		.loc 1 484 48 discriminator 1 view .LVU2620
ARM GAS  C:\Users\gx\AppData\Local\Temp\ccQfGIQ4.s 			page 257


 9947 239e 724B     		ldr	r3, .L596+4
 9948 23a0 DC68     		ldr	r4, [r3, #12]
 9949              	.LVL1161:
 9950              	.LBB828:
 9951              	.LBI828:
 236:d:\practise\f407_disc\lvgl\lvgl\src/core\lv_disp.h **** {
 9952              		.loc 3 236 26 is_stmt 1 discriminator 1 view .LVU2621
 9953              	.LBB829:
 9954              		.loc 3 238 5 discriminator 1 view .LVU2622
 9955              		.loc 3 238 12 is_stmt 0 discriminator 1 view .LVU2623
 9956 23a2 2046     		mov	r0, r4
 9957 23a4 FFF7FEFF 		bl	lv_disp_get_dpi
 9958              	.LVL1162:
 9959 23a8 C0EBC000 		rsb	r0, r0, r0, lsl #3
 9960 23ac 4000     		lsls	r0, r0, #1
 9961 23ae EF28     		cmp	r0, #239
 9962 23b0 02DC     		bgt	.L554
 9963              		.loc 3 238 12 view .LVU2624
 9964 23b2 0124     		movs	r4, #1
 9965              	.LVL1163:
 9966              		.loc 3 238 12 view .LVU2625
 9967 23b4 FEF772BE 		b	.L233
 9968              	.LVL1164:
 9969              	.L554:
 9970              		.loc 3 238 12 view .LVU2626
 9971 23b8 2046     		mov	r0, r4
 9972 23ba FFF7FEFF 		bl	lv_disp_get_dpi
 9973              	.LVL1165:
 9974 23be C0EBC000 		rsb	r0, r0, r0, lsl #3
 9975 23c2 4300     		lsls	r3, r0, #1
 9976 23c4 5033     		adds	r3, r3, #80
 9977 23c6 674A     		ldr	r2, .L596
 9978 23c8 82FB0312 		smull	r1, r2, r2, r3
 9979 23cc DC17     		asrs	r4, r3, #31
 9980              	.LVL1166:
 9981              		.loc 3 238 12 view .LVU2627
 9982 23ce C4EBA214 		rsb	r4, r4, r2, asr #6
 9983 23d2 24B2     		sxth	r4, r4
 9984 23d4 FEF762BE 		b	.L233
 9985              	.LVL1167:
 9986              	.L491:
 9987              		.loc 3 238 12 view .LVU2628
 9988              	.LBE829:
 9989              	.LBE828:
 484:lvgl/lvgl/src/extra/themes/default/lv_theme_default.c ****     lv_style_set_pad_gap(&styles->calendar_bg, PAD_SMALL / 2);
 9990              		.loc 1 484 48 discriminator 4 view .LVU2629
 9991 23d8 634B     		ldr	r3, .L596+4
 9992 23da DC68     		ldr	r4, [r3, #12]
 9993              	.LVL1168:
 9994              	.LBB830:
 9995              	.LBI830:
 236:d:\practise\f407_disc\lvgl\lvgl\src/core\lv_disp.h **** {
 9996              		.loc 3 236 26 is_stmt 1 discriminator 4 view .LVU2630
 9997              	.LBB831:
 9998              		.loc 3 238 5 discriminator 4 view .LVU2631
 9999              		.loc 3 238 12 is_stmt 0 discriminator 4 view .LVU2632
 10000 23dc 2046     		mov	r0, r4
ARM GAS  C:\Users\gx\AppData\Local\Temp\ccQfGIQ4.s 			page 258


 10001 23de FFF7FEFF 		bl	lv_disp_get_dpi
 10002              	.LVL1169:
 10003 23e2 00EB4000 		add	r0, r0, r0, lsl #1
 10004 23e6 8000     		lsls	r0, r0, #2
 10005 23e8 EF28     		cmp	r0, #239
 10006 23ea 02DC     		bgt	.L555
 10007              		.loc 3 238 12 view .LVU2633
 10008 23ec 0124     		movs	r4, #1
 10009              	.LVL1170:
 10010              		.loc 3 238 12 view .LVU2634
 10011 23ee FEF755BE 		b	.L233
 10012              	.LVL1171:
 10013              	.L555:
 10014              		.loc 3 238 12 view .LVU2635
 10015 23f2 2046     		mov	r0, r4
 10016 23f4 FFF7FEFF 		bl	lv_disp_get_dpi
 10017              	.LVL1172:
 10018 23f8 00EB4000 		add	r0, r0, r0, lsl #1
 10019 23fc 8300     		lsls	r3, r0, #2
 10020 23fe 5033     		adds	r3, r3, #80
 10021 2400 584A     		ldr	r2, .L596
 10022 2402 82FB0312 		smull	r1, r2, r2, r3
 10023 2406 DC17     		asrs	r4, r3, #31
 10024              	.LVL1173:
 10025              		.loc 3 238 12 view .LVU2636
 10026 2408 C4EBA214 		rsb	r4, r4, r2, asr #6
 10027 240c 24B2     		sxth	r4, r4
 10028 240e FEF745BE 		b	.L233
 10029              	.LVL1174:
 10030              	.L492:
 10031              		.loc 3 238 12 view .LVU2637
 10032              	.LBE831:
 10033              	.LBE830:
 10034              	.LBB832:
 10035              	.LBB632:
 10036 2412 2046     		mov	r0, r4
 10037 2414 FFF7FEFF 		bl	lv_disp_get_dpi
 10038              	.LVL1175:
 10039 2418 00EB8000 		add	r0, r0, r0, lsl #2
 10040 241c 4300     		lsls	r3, r0, #1
 10041 241e 5033     		adds	r3, r3, #80
 10042 2420 504A     		ldr	r2, .L596
 10043 2422 82FB0312 		smull	r1, r2, r2, r3
 10044 2426 DC17     		asrs	r4, r3, #31
 10045              	.LVL1176:
 10046              		.loc 3 238 12 view .LVU2638
 10047 2428 C4EBA214 		rsb	r4, r4, r2, asr #6
 10048 242c 24B2     		sxth	r4, r4
 10049 242e FEF735BE 		b	.L233
 10050              	.LVL1177:
 10051              	.L493:
 10052              		.loc 3 238 12 view .LVU2639
 10053              	.LBE632:
 10054              	.LBE832:
 485:lvgl/lvgl/src/extra/themes/default/lv_theme_default.c ****     lv_style_set_radius(&styles->calendar_bg, 0);
 10055              		.loc 1 485 48 discriminator 1 view .LVU2640
 10056 2432 4D4B     		ldr	r3, .L596+4
ARM GAS  C:\Users\gx\AppData\Local\Temp\ccQfGIQ4.s 			page 259


 10057 2434 DC68     		ldr	r4, [r3, #12]
 10058              	.LVL1178:
 10059              	.LBB833:
 10060              	.LBI833:
 236:d:\practise\f407_disc\lvgl\lvgl\src/core\lv_disp.h **** {
 10061              		.loc 3 236 26 is_stmt 1 discriminator 1 view .LVU2641
 10062              	.LBB834:
 10063              		.loc 3 238 5 discriminator 1 view .LVU2642
 10064              		.loc 3 238 12 is_stmt 0 discriminator 1 view .LVU2643
 10065 2436 2046     		mov	r0, r4
 10066 2438 FFF7FEFF 		bl	lv_disp_get_dpi
 10067              	.LVL1179:
 10068 243c C0EBC000 		rsb	r0, r0, r0, lsl #3
 10069 2440 4000     		lsls	r0, r0, #1
 10070 2442 EF28     		cmp	r0, #239
 10071 2444 05DC     		bgt	.L556
 10072              		.loc 3 238 12 view .LVU2644
 10073 2446 0124     		movs	r4, #1
 10074              	.LVL1180:
 10075              	.L238:
 10076              		.loc 3 238 12 view .LVU2645
 10077              	.LBE834:
 10078              	.LBE833:
 485:lvgl/lvgl/src/extra/themes/default/lv_theme_default.c ****     lv_style_set_radius(&styles->calendar_bg, 0);
 10079              		.loc 1 485 5 view .LVU2646
 10080 2448 04EBD474 		add	r4, r4, r4, lsr #31
 10081 244c 6410     		asrs	r4, r4, #1
 10082 244e FEF75BBE 		b	.L239
 10083              	.LVL1181:
 10084              	.L556:
 10085              	.LBB836:
 10086              	.LBB835:
 10087              		.loc 3 238 12 view .LVU2647
 10088 2452 2046     		mov	r0, r4
 10089 2454 FFF7FEFF 		bl	lv_disp_get_dpi
 10090              	.LVL1182:
 10091 2458 C0EBC000 		rsb	r0, r0, r0, lsl #3
 10092 245c 4300     		lsls	r3, r0, #1
 10093 245e 5033     		adds	r3, r3, #80
 10094 2460 404A     		ldr	r2, .L596
 10095 2462 82FB0312 		smull	r1, r2, r2, r3
 10096 2466 DC17     		asrs	r4, r3, #31
 10097              	.LVL1183:
 10098              		.loc 3 238 12 view .LVU2648
 10099 2468 C4EBA214 		rsb	r4, r4, r2, asr #6
 10100 246c 24B2     		sxth	r4, r4
 10101 246e EBE7     		b	.L238
 10102              	.LVL1184:
 10103              	.L494:
 10104              		.loc 3 238 12 view .LVU2649
 10105              	.LBE835:
 10106              	.LBE836:
 485:lvgl/lvgl/src/extra/themes/default/lv_theme_default.c ****     lv_style_set_radius(&styles->calendar_bg, 0);
 10107              		.loc 1 485 48 discriminator 4 view .LVU2650
 10108 2470 3D4B     		ldr	r3, .L596+4
 10109 2472 DC68     		ldr	r4, [r3, #12]
 10110              	.LVL1185:
ARM GAS  C:\Users\gx\AppData\Local\Temp\ccQfGIQ4.s 			page 260


 10111              	.LBB837:
 10112              	.LBI837:
 236:d:\practise\f407_disc\lvgl\lvgl\src/core\lv_disp.h **** {
 10113              		.loc 3 236 26 is_stmt 1 discriminator 4 view .LVU2651
 10114              	.LBB838:
 10115              		.loc 3 238 5 discriminator 4 view .LVU2652
 10116              		.loc 3 238 12 is_stmt 0 discriminator 4 view .LVU2653
 10117 2474 2046     		mov	r0, r4
 10118 2476 FFF7FEFF 		bl	lv_disp_get_dpi
 10119              	.LVL1186:
 10120 247a 00EB4000 		add	r0, r0, r0, lsl #1
 10121 247e 8000     		lsls	r0, r0, #2
 10122 2480 EF28     		cmp	r0, #239
 10123 2482 05DC     		bgt	.L557
 10124              		.loc 3 238 12 view .LVU2654
 10125 2484 0124     		movs	r4, #1
 10126              	.LVL1187:
 10127              	.L241:
 10128              		.loc 3 238 12 view .LVU2655
 10129              	.LBE838:
 10130              	.LBE837:
 485:lvgl/lvgl/src/extra/themes/default/lv_theme_default.c ****     lv_style_set_radius(&styles->calendar_bg, 0);
 10131              		.loc 1 485 5 view .LVU2656
 10132 2486 04EBD474 		add	r4, r4, r4, lsr #31
 10133 248a 6410     		asrs	r4, r4, #1
 10134 248c FEF73CBE 		b	.L239
 10135              	.LVL1188:
 10136              	.L557:
 10137              	.LBB840:
 10138              	.LBB839:
 10139              		.loc 3 238 12 view .LVU2657
 10140 2490 2046     		mov	r0, r4
 10141 2492 FFF7FEFF 		bl	lv_disp_get_dpi
 10142              	.LVL1189:
 10143 2496 00EB4000 		add	r0, r0, r0, lsl #1
 10144 249a 8300     		lsls	r3, r0, #2
 10145 249c 5033     		adds	r3, r3, #80
 10146 249e 314A     		ldr	r2, .L596
 10147 24a0 82FB0312 		smull	r1, r2, r2, r3
 10148 24a4 DC17     		asrs	r4, r3, #31
 10149              	.LVL1190:
 10150              		.loc 3 238 12 view .LVU2658
 10151 24a6 C4EBA214 		rsb	r4, r4, r2, asr #6
 10152 24aa 24B2     		sxth	r4, r4
 10153 24ac EBE7     		b	.L241
 10154              	.LVL1191:
 10155              	.L495:
 10156              		.loc 3 238 12 view .LVU2659
 10157              	.LBE839:
 10158              	.LBE840:
 10159              	.LBB841:
 10160              	.LBB637:
 10161 24ae 2046     		mov	r0, r4
 10162 24b0 FFF7FEFF 		bl	lv_disp_get_dpi
 10163              	.LVL1192:
 10164 24b4 00EB8000 		add	r0, r0, r0, lsl #2
 10165 24b8 4300     		lsls	r3, r0, #1
ARM GAS  C:\Users\gx\AppData\Local\Temp\ccQfGIQ4.s 			page 261


 10166 24ba 5033     		adds	r3, r3, #80
 10167 24bc 294A     		ldr	r2, .L596
 10168 24be 82FB0312 		smull	r1, r2, r2, r3
 10169 24c2 DC17     		asrs	r4, r3, #31
 10170              	.LVL1193:
 10171              		.loc 3 238 12 view .LVU2660
 10172 24c4 C4EBA214 		rsb	r4, r4, r2, asr #6
 10173 24c8 24B2     		sxth	r4, r4
 10174 24ca FEF71ABE 		b	.L242
 10175              	.LVL1194:
 10176              	.L496:
 10177              		.loc 3 238 12 view .LVU2661
 10178              	.LBE637:
 10179              	.LBE841:
 10180              	.LBB842:
 10181              	.LBB642:
 10182 24ce 2846     		mov	r0, r5
 10183 24d0 FFF7FEFF 		bl	lv_disp_get_dpi
 10184              	.LVL1195:
 10185 24d4 5030     		adds	r0, r0, #80
 10186 24d6 234B     		ldr	r3, .L596
 10187 24d8 83FB0023 		smull	r2, r3, r3, r0
 10188 24dc C117     		asrs	r1, r0, #31
 10189 24de C1EBA311 		rsb	r1, r1, r3, asr #6
 10190 24e2 09B2     		sxth	r1, r1
 10191 24e4 FEF730BE 		b	.L243
 10192              	.LVL1196:
 10193              	.L497:
 10194              		.loc 3 238 12 view .LVU2662
 10195              	.LBE642:
 10196              	.LBE842:
 10197              	.LBB843:
 10198              	.LBB645:
 10199 24e8 2846     		mov	r0, r5
 10200 24ea FFF7FEFF 		bl	lv_disp_get_dpi
 10201              	.LVL1197:
 10202 24ee 00EB8000 		add	r0, r0, r0, lsl #2
 10203 24f2 4000     		lsls	r0, r0, #1
 10204 24f4 5030     		adds	r0, r0, #80
 10205 24f6 1B4B     		ldr	r3, .L596
 10206 24f8 83FB0023 		smull	r2, r3, r3, r0
 10207 24fc C117     		asrs	r1, r0, #31
 10208 24fe C1EBA311 		rsb	r1, r1, r3, asr #6
 10209 2502 09B2     		sxth	r1, r1
 10210 2504 FEF74CBE 		b	.L244
 10211              	.LVL1198:
 10212              	.L498:
 10213              		.loc 3 238 12 view .LVU2663
 10214              	.LBE645:
 10215              	.LBE843:
 10216              	.LBB844:
 10217              	.LBB648:
 10218 2508 2046     		mov	r0, r4
 10219 250a FFF7FEFF 		bl	lv_disp_get_dpi
 10220              	.LVL1199:
 10221 250e 8000     		lsls	r0, r0, #2
 10222 2510 5030     		adds	r0, r0, #80
ARM GAS  C:\Users\gx\AppData\Local\Temp\ccQfGIQ4.s 			page 262


 10223 2512 144B     		ldr	r3, .L596
 10224 2514 83FB0023 		smull	r2, r3, r3, r0
 10225 2518 C417     		asrs	r4, r0, #31
 10226              	.LVL1200:
 10227              		.loc 3 238 12 view .LVU2664
 10228 251a C4EBA314 		rsb	r4, r4, r3, asr #6
 10229 251e 24B2     		sxth	r4, r4
 10230 2520 FEF754BE 		b	.L245
 10231              	.LVL1201:
 10232              	.L499:
 10233              		.loc 3 238 12 view .LVU2665
 10234              	.LBE648:
 10235              	.LBE844:
 511:lvgl/lvgl/src/extra/themes/default/lv_theme_default.c **** #endif
 10236              		.loc 1 511 5 discriminator 1 view .LVU2666
 10237 2524 012B     		cmp	r3, #1
 10238 2526 0DD0     		beq	.L558
 511:lvgl/lvgl/src/extra/themes/default/lv_theme_default.c **** #endif
 10239              		.loc 1 511 77 discriminator 4 view .LVU2667
 10240 2528 0F4B     		ldr	r3, .L596+4
 10241 252a DD68     		ldr	r5, [r3, #12]
 10242              	.LVL1202:
 10243              	.LBB845:
 10244              	.LBI845:
 236:d:\practise\f407_disc\lvgl\lvgl\src/core\lv_disp.h **** {
 10245              		.loc 3 236 26 is_stmt 1 discriminator 4 view .LVU2668
 10246              	.LBB846:
 10247              		.loc 3 238 5 discriminator 4 view .LVU2669
 10248              		.loc 3 238 12 is_stmt 0 discriminator 4 view .LVU2670
 10249 252c 2846     		mov	r0, r5
 10250 252e FFF7FEFF 		bl	lv_disp_get_dpi
 10251              	.LVL1203:
 10252 2532 C000     		lsls	r0, r0, #3
 10253 2534 EF28     		cmp	r0, #239
 10254 2536 28DC     		bgt	.L559
 10255              		.loc 3 238 12 view .LVU2671
 10256 2538 0121     		movs	r1, #1
 10257              	.L250:
 10258              	.LVL1204:
 10259              		.loc 3 238 12 view .LVU2672
 10260              	.LBE846:
 10261              	.LBE845:
 511:lvgl/lvgl/src/extra/themes/default/lv_theme_default.c **** #endif
 10262              		.loc 1 511 5 view .LVU2673
 10263 253a 01EBD171 		add	r1, r1, r1, lsr #31
 10264 253e 4910     		asrs	r1, r1, #1
 10265 2540 FEF781BE 		b	.L249
 10266              	.L558:
 511:lvgl/lvgl/src/extra/themes/default/lv_theme_default.c **** #endif
 10267              		.loc 1 511 77 discriminator 3 view .LVU2674
 10268 2544 084B     		ldr	r3, .L596+4
 10269 2546 DD68     		ldr	r5, [r3, #12]
 10270              	.LVL1205:
 10271              	.LBB848:
 10272              	.LBI848:
 236:d:\practise\f407_disc\lvgl\lvgl\src/core\lv_disp.h **** {
 10273              		.loc 3 236 26 is_stmt 1 discriminator 3 view .LVU2675
ARM GAS  C:\Users\gx\AppData\Local\Temp\ccQfGIQ4.s 			page 263


 10274              	.LBB849:
 10275              		.loc 3 238 5 discriminator 3 view .LVU2676
 10276              		.loc 3 238 12 is_stmt 0 discriminator 3 view .LVU2677
 10277 2548 2846     		mov	r0, r5
 10278 254a FFF7FEFF 		bl	lv_disp_get_dpi
 10279              	.LVL1206:
 10280 254e 00EB4000 		add	r0, r0, r0, lsl #1
 10281 2552 8000     		lsls	r0, r0, #2
 10282 2554 EF28     		cmp	r0, #239
 10283 2556 09DC     		bgt	.L560
 10284              		.loc 3 238 12 view .LVU2678
 10285 2558 0121     		movs	r1, #1
 10286              	.L248:
 10287              	.LVL1207:
 10288              		.loc 3 238 12 view .LVU2679
 10289              	.LBE849:
 10290              	.LBE848:
 511:lvgl/lvgl/src/extra/themes/default/lv_theme_default.c **** #endif
 10291              		.loc 1 511 5 view .LVU2680
 10292 255a 01EBD171 		add	r1, r1, r1, lsr #31
 10293 255e 4910     		asrs	r1, r1, #1
 10294 2560 FEF771BE 		b	.L249
 10295              	.L597:
 10296              		.align	2
 10297              	.L596:
 10298 2564 67666666 		.word	1717986919
 10299 2568 00000000 		.word	.LANCHOR2
 10300              	.LVL1208:
 10301              	.L560:
 10302              	.LBB851:
 10303              	.LBB850:
 10304              		.loc 3 238 12 view .LVU2681
 10305 256c 2846     		mov	r0, r5
 10306 256e FFF7FEFF 		bl	lv_disp_get_dpi
 10307              	.LVL1209:
 10308 2572 00EB4000 		add	r0, r0, r0, lsl #1
 10309 2576 8300     		lsls	r3, r0, #2
 10310 2578 5033     		adds	r3, r3, #80
 10311 257a D54A     		ldr	r2, .L598
 10312 257c 82FB0312 		smull	r1, r2, r2, r3
 10313 2580 D917     		asrs	r1, r3, #31
 10314 2582 C1EBA211 		rsb	r1, r1, r2, asr #6
 10315 2586 09B2     		sxth	r1, r1
 10316 2588 E7E7     		b	.L248
 10317              	.LVL1210:
 10318              	.L559:
 10319              		.loc 3 238 12 view .LVU2682
 10320              	.LBE850:
 10321              	.LBE851:
 10322              	.LBB852:
 10323              	.LBB847:
 10324 258a 2846     		mov	r0, r5
 10325 258c FFF7FEFF 		bl	lv_disp_get_dpi
 10326              	.LVL1211:
 10327 2590 C000     		lsls	r0, r0, #3
 10328 2592 5030     		adds	r0, r0, #80
 10329 2594 CE4B     		ldr	r3, .L598
ARM GAS  C:\Users\gx\AppData\Local\Temp\ccQfGIQ4.s 			page 264


 10330 2596 83FB0023 		smull	r2, r3, r3, r0
 10331 259a C117     		asrs	r1, r0, #31
 10332 259c C1EBA311 		rsb	r1, r1, r3, asr #6
 10333 25a0 09B2     		sxth	r1, r1
 10334 25a2 CAE7     		b	.L250
 10335              	.LVL1212:
 10336              	.L500:
 10337              		.loc 3 238 12 view .LVU2683
 10338              	.LBE847:
 10339              	.LBE852:
 511:lvgl/lvgl/src/extra/themes/default/lv_theme_default.c **** #endif
 10340              		.loc 1 511 98 discriminator 8 view .LVU2684
 10341 25a4 CB4B     		ldr	r3, .L598+4
 10342 25a6 DD68     		ldr	r5, [r3, #12]
 10343              	.LVL1213:
 10344              	.LBB853:
 10345              	.LBI853:
 236:d:\practise\f407_disc\lvgl\lvgl\src/core\lv_disp.h **** {
 10346              		.loc 3 236 26 is_stmt 1 discriminator 8 view .LVU2685
 10347              	.LBB854:
 10348              		.loc 3 238 5 discriminator 8 view .LVU2686
 10349              		.loc 3 238 12 is_stmt 0 discriminator 8 view .LVU2687
 10350 25a8 2846     		mov	r0, r5
 10351 25aa FFF7FEFF 		bl	lv_disp_get_dpi
 10352              	.LVL1214:
 10353 25ae 00EB4000 		add	r0, r0, r0, lsl #1
 10354 25b2 8000     		lsls	r0, r0, #2
 10355 25b4 EF28     		cmp	r0, #239
 10356 25b6 02DC     		bgt	.L561
 10357              		.loc 3 238 12 view .LVU2688
 10358 25b8 0121     		movs	r1, #1
 10359              	.LVL1215:
 10360              		.loc 3 238 12 view .LVU2689
 10361 25ba FEF744BE 		b	.L249
 10362              	.LVL1216:
 10363              	.L561:
 10364              		.loc 3 238 12 view .LVU2690
 10365 25be 2846     		mov	r0, r5
 10366 25c0 FFF7FEFF 		bl	lv_disp_get_dpi
 10367              	.LVL1217:
 10368 25c4 00EB4000 		add	r0, r0, r0, lsl #1
 10369 25c8 8300     		lsls	r3, r0, #2
 10370 25ca 5033     		adds	r3, r3, #80
 10371 25cc C04A     		ldr	r2, .L598
 10372 25ce 82FB0312 		smull	r1, r2, r2, r3
 10373 25d2 D917     		asrs	r1, r3, #31
 10374 25d4 C1EBA211 		rsb	r1, r1, r2, asr #6
 10375 25d8 09B2     		sxth	r1, r1
 10376 25da FEF734BE 		b	.L249
 10377              	.LVL1218:
 10378              	.L501:
 10379              		.loc 3 238 12 view .LVU2691
 10380              	.LBE854:
 10381              	.LBE853:
 10382              	.LBB855:
 10383              	.LBB653:
 10384 25de 2846     		mov	r0, r5
ARM GAS  C:\Users\gx\AppData\Local\Temp\ccQfGIQ4.s 			page 265


 10385 25e0 FFF7FEFF 		bl	lv_disp_get_dpi
 10386              	.LVL1219:
 10387 25e4 C000     		lsls	r0, r0, #3
 10388 25e6 5030     		adds	r0, r0, #80
 10389 25e8 B94B     		ldr	r3, .L598
 10390 25ea 83FB0023 		smull	r2, r3, r3, r0
 10391 25ee C117     		asrs	r1, r0, #31
 10392 25f0 C1EBA311 		rsb	r1, r1, r3, asr #6
 10393 25f4 09B2     		sxth	r1, r1
 10394 25f6 FEF726BE 		b	.L249
 10395              	.LVL1220:
 10396              	.L502:
 10397              		.loc 3 238 12 view .LVU2692
 10398              	.LBE653:
 10399              	.LBE855:
 10400              	.LBB856:
 10401              	.LBB656:
 10402 25fa 2846     		mov	r0, r5
 10403 25fc FFF7FEFF 		bl	lv_disp_get_dpi
 10404              	.LVL1221:
 10405 2600 4000     		lsls	r0, r0, #1
 10406 2602 5030     		adds	r0, r0, #80
 10407 2604 B24B     		ldr	r3, .L598
 10408 2606 83FB0023 		smull	r2, r3, r3, r0
 10409 260a C117     		asrs	r1, r0, #31
 10410 260c C1EBA311 		rsb	r1, r1, r3, asr #6
 10411 2610 09B2     		sxth	r1, r1
 10412 2612 FEF734BE 		b	.L254
 10413              	.LVL1222:
 10414              	.L503:
 10415              		.loc 3 238 12 view .LVU2693
 10416              	.LBE656:
 10417              	.LBE856:
 10418              	.LBB857:
 10419              	.LBB659:
 10420 2616 2846     		mov	r0, r5
 10421 2618 FFF7FEFF 		bl	lv_disp_get_dpi
 10422              	.LVL1223:
 10423 261c 4000     		lsls	r0, r0, #1
 10424 261e 5030     		adds	r0, r0, #80
 10425 2620 AB4B     		ldr	r3, .L598
 10426 2622 83FB0023 		smull	r2, r3, r3, r0
 10427 2626 C117     		asrs	r1, r0, #31
 10428 2628 C1EBA311 		rsb	r1, r1, r3, asr #6
 10429 262c 09B2     		sxth	r1, r1
 10430 262e FEF745BE 		b	.L255
 10431              	.LVL1224:
 10432              	.L504:
 10433              		.loc 3 238 12 view .LVU2694
 10434              	.LBE659:
 10435              	.LBE857:
 526:lvgl/lvgl/src/extra/themes/default/lv_theme_default.c ****     lv_style_set_pad_ver(&styles->list_bg, 0);
 10436              		.loc 1 526 44 discriminator 1 view .LVU2695
 10437 2632 A84B     		ldr	r3, .L598+4
 10438 2634 DC68     		ldr	r4, [r3, #12]
 10439              	.LVL1225:
 10440              	.LBB858:
ARM GAS  C:\Users\gx\AppData\Local\Temp\ccQfGIQ4.s 			page 266


 10441              	.LBI858:
 236:d:\practise\f407_disc\lvgl\lvgl\src/core\lv_disp.h **** {
 10442              		.loc 3 236 26 is_stmt 1 discriminator 1 view .LVU2696
 10443              	.LBB859:
 10444              		.loc 3 238 5 discriminator 1 view .LVU2697
 10445              		.loc 3 238 12 is_stmt 0 discriminator 1 view .LVU2698
 10446 2636 2046     		mov	r0, r4
 10447 2638 FFF7FEFF 		bl	lv_disp_get_dpi
 10448              	.LVL1226:
 10449 263c 00EB4000 		add	r0, r0, r0, lsl #1
 10450 2640 C000     		lsls	r0, r0, #3
 10451 2642 EF28     		cmp	r0, #239
 10452 2644 02DC     		bgt	.L562
 10453              		.loc 3 238 12 view .LVU2699
 10454 2646 0124     		movs	r4, #1
 10455              	.LVL1227:
 10456              		.loc 3 238 12 view .LVU2700
 10457 2648 FEF759BE 		b	.L258
 10458              	.LVL1228:
 10459              	.L562:
 10460              		.loc 3 238 12 view .LVU2701
 10461 264c 2046     		mov	r0, r4
 10462 264e FFF7FEFF 		bl	lv_disp_get_dpi
 10463              	.LVL1229:
 10464 2652 00EB4000 		add	r0, r0, r0, lsl #1
 10465 2656 C300     		lsls	r3, r0, #3
 10466 2658 5033     		adds	r3, r3, #80
 10467 265a 9D4A     		ldr	r2, .L598
 10468 265c 82FB0312 		smull	r1, r2, r2, r3
 10469 2660 DC17     		asrs	r4, r3, #31
 10470              	.LVL1230:
 10471              		.loc 3 238 12 view .LVU2702
 10472 2662 C4EBA214 		rsb	r4, r4, r2, asr #6
 10473 2666 24B2     		sxth	r4, r4
 10474 2668 FEF749BE 		b	.L258
 10475              	.LVL1231:
 10476              	.L505:
 10477              		.loc 3 238 12 view .LVU2703
 10478              	.LBE859:
 10479              	.LBE858:
 526:lvgl/lvgl/src/extra/themes/default/lv_theme_default.c ****     lv_style_set_pad_ver(&styles->list_bg, 0);
 10480              		.loc 1 526 44 discriminator 4 view .LVU2704
 10481 266c 994B     		ldr	r3, .L598+4
 10482 266e DC68     		ldr	r4, [r3, #12]
 10483              	.LVL1232:
 10484              	.LBB860:
 10485              	.LBI860:
 236:d:\practise\f407_disc\lvgl\lvgl\src/core\lv_disp.h **** {
 10486              		.loc 3 236 26 is_stmt 1 discriminator 4 view .LVU2705
 10487              	.LBB861:
 10488              		.loc 3 238 5 discriminator 4 view .LVU2706
 10489              		.loc 3 238 12 is_stmt 0 discriminator 4 view .LVU2707
 10490 2670 2046     		mov	r0, r4
 10491 2672 FFF7FEFF 		bl	lv_disp_get_dpi
 10492              	.LVL1233:
 10493 2676 00EB8000 		add	r0, r0, r0, lsl #2
 10494 267a 8000     		lsls	r0, r0, #2
ARM GAS  C:\Users\gx\AppData\Local\Temp\ccQfGIQ4.s 			page 267


 10495 267c EF28     		cmp	r0, #239
 10496 267e 02DC     		bgt	.L563
 10497              		.loc 3 238 12 view .LVU2708
 10498 2680 0124     		movs	r4, #1
 10499              	.LVL1234:
 10500              		.loc 3 238 12 view .LVU2709
 10501 2682 FEF73CBE 		b	.L258
 10502              	.LVL1235:
 10503              	.L563:
 10504              		.loc 3 238 12 view .LVU2710
 10505 2686 2046     		mov	r0, r4
 10506 2688 FFF7FEFF 		bl	lv_disp_get_dpi
 10507              	.LVL1236:
 10508 268c 00EB8000 		add	r0, r0, r0, lsl #2
 10509 2690 8300     		lsls	r3, r0, #2
 10510 2692 5033     		adds	r3, r3, #80
 10511 2694 8E4A     		ldr	r2, .L598
 10512 2696 82FB0312 		smull	r1, r2, r2, r3
 10513 269a DC17     		asrs	r4, r3, #31
 10514              	.LVL1237:
 10515              		.loc 3 238 12 view .LVU2711
 10516 269c C4EBA214 		rsb	r4, r4, r2, asr #6
 10517 26a0 24B2     		sxth	r4, r4
 10518 26a2 FEF72CBE 		b	.L258
 10519              	.LVL1238:
 10520              	.L506:
 10521              		.loc 3 238 12 view .LVU2712
 10522              	.LBE861:
 10523              	.LBE860:
 10524              	.LBB862:
 10525              	.LBB662:
 10526 26a6 2046     		mov	r0, r4
 10527 26a8 FFF7FEFF 		bl	lv_disp_get_dpi
 10528              	.LVL1239:
 10529 26ac 0001     		lsls	r0, r0, #4
 10530 26ae 5030     		adds	r0, r0, #80
 10531 26b0 874B     		ldr	r3, .L598
 10532 26b2 83FB0023 		smull	r2, r3, r3, r0
 10533 26b6 C417     		asrs	r4, r0, #31
 10534              	.LVL1240:
 10535              		.loc 3 238 12 view .LVU2713
 10536 26b8 C4EBA314 		rsb	r4, r4, r3, asr #6
 10537 26bc 24B2     		sxth	r4, r4
 10538 26be FEF71EBE 		b	.L258
 10539              	.LVL1241:
 10540              	.L507:
 10541              		.loc 3 238 12 view .LVU2714
 10542              	.LBE662:
 10543              	.LBE862:
 10544              	.LBB863:
 10545              	.LBB671:
 10546 26c2 2846     		mov	r0, r5
 10547 26c4 FFF7FEFF 		bl	lv_disp_get_dpi
 10548              	.LVL1242:
 10549 26c8 5030     		adds	r0, r0, #80
 10550 26ca 814B     		ldr	r3, .L598
 10551 26cc 83FB0023 		smull	r2, r3, r3, r0
ARM GAS  C:\Users\gx\AppData\Local\Temp\ccQfGIQ4.s 			page 268


 10552 26d0 C117     		asrs	r1, r0, #31
 10553 26d2 C1EBA311 		rsb	r1, r1, r3, asr #6
 10554 26d6 09B2     		sxth	r1, r1
 10555 26d8 FEF747BE 		b	.L262
 10556              	.LVL1243:
 10557              	.L508:
 10558              		.loc 3 238 12 view .LVU2715
 10559              	.LBE671:
 10560              	.LBE863:
 535:lvgl/lvgl/src/extra/themes/default/lv_theme_default.c ****     lv_style_set_pad_column(&styles->list_btn, PAD_SMALL);
 10561              		.loc 1 535 45 discriminator 1 view .LVU2716
 10562 26dc 7D4B     		ldr	r3, .L598+4
 10563 26de DC68     		ldr	r4, [r3, #12]
 10564              	.LVL1244:
 10565              	.LBB864:
 10566              	.LBI864:
 236:d:\practise\f407_disc\lvgl\lvgl\src/core\lv_disp.h **** {
 10567              		.loc 3 236 26 is_stmt 1 discriminator 1 view .LVU2717
 10568              	.LBB865:
 10569              		.loc 3 238 5 discriminator 1 view .LVU2718
 10570              		.loc 3 238 12 is_stmt 0 discriminator 1 view .LVU2719
 10571 26e0 2046     		mov	r0, r4
 10572 26e2 FFF7FEFF 		bl	lv_disp_get_dpi
 10573              	.LVL1245:
 10574 26e6 C0EBC000 		rsb	r0, r0, r0, lsl #3
 10575 26ea 4000     		lsls	r0, r0, #1
 10576 26ec EF28     		cmp	r0, #239
 10577 26ee 02DC     		bgt	.L564
 10578              		.loc 3 238 12 view .LVU2720
 10579 26f0 0124     		movs	r4, #1
 10580              	.LVL1246:
 10581              		.loc 3 238 12 view .LVU2721
 10582 26f2 FEF762BE 		b	.L265
 10583              	.LVL1247:
 10584              	.L564:
 10585              		.loc 3 238 12 view .LVU2722
 10586 26f6 2046     		mov	r0, r4
 10587 26f8 FFF7FEFF 		bl	lv_disp_get_dpi
 10588              	.LVL1248:
 10589 26fc C0EBC000 		rsb	r0, r0, r0, lsl #3
 10590 2700 4300     		lsls	r3, r0, #1
 10591 2702 5033     		adds	r3, r3, #80
 10592 2704 724A     		ldr	r2, .L598
 10593 2706 82FB0312 		smull	r1, r2, r2, r3
 10594 270a DC17     		asrs	r4, r3, #31
 10595              	.LVL1249:
 10596              		.loc 3 238 12 view .LVU2723
 10597 270c C4EBA214 		rsb	r4, r4, r2, asr #6
 10598 2710 24B2     		sxth	r4, r4
 10599 2712 FEF752BE 		b	.L265
 10600              	.LVL1250:
 10601              	.L509:
 10602              		.loc 3 238 12 view .LVU2724
 10603              	.LBE865:
 10604              	.LBE864:
 535:lvgl/lvgl/src/extra/themes/default/lv_theme_default.c ****     lv_style_set_pad_column(&styles->list_btn, PAD_SMALL);
 10605              		.loc 1 535 45 discriminator 4 view .LVU2725
ARM GAS  C:\Users\gx\AppData\Local\Temp\ccQfGIQ4.s 			page 269


 10606 2716 6F4B     		ldr	r3, .L598+4
 10607 2718 DC68     		ldr	r4, [r3, #12]
 10608              	.LVL1251:
 10609              	.LBB866:
 10610              	.LBI866:
 236:d:\practise\f407_disc\lvgl\lvgl\src/core\lv_disp.h **** {
 10611              		.loc 3 236 26 is_stmt 1 discriminator 4 view .LVU2726
 10612              	.LBB867:
 10613              		.loc 3 238 5 discriminator 4 view .LVU2727
 10614              		.loc 3 238 12 is_stmt 0 discriminator 4 view .LVU2728
 10615 271a 2046     		mov	r0, r4
 10616 271c FFF7FEFF 		bl	lv_disp_get_dpi
 10617              	.LVL1252:
 10618 2720 00EB4000 		add	r0, r0, r0, lsl #1
 10619 2724 8000     		lsls	r0, r0, #2
 10620 2726 EF28     		cmp	r0, #239
 10621 2728 02DC     		bgt	.L565
 10622              		.loc 3 238 12 view .LVU2729
 10623 272a 0124     		movs	r4, #1
 10624              	.LVL1253:
 10625              		.loc 3 238 12 view .LVU2730
 10626 272c FEF745BE 		b	.L265
 10627              	.LVL1254:
 10628              	.L565:
 10629              		.loc 3 238 12 view .LVU2731
 10630 2730 2046     		mov	r0, r4
 10631 2732 FFF7FEFF 		bl	lv_disp_get_dpi
 10632              	.LVL1255:
 10633 2736 00EB4000 		add	r0, r0, r0, lsl #1
 10634 273a 8300     		lsls	r3, r0, #2
 10635 273c 5033     		adds	r3, r3, #80
 10636 273e 644A     		ldr	r2, .L598
 10637 2740 82FB0312 		smull	r1, r2, r2, r3
 10638 2744 DC17     		asrs	r4, r3, #31
 10639              	.LVL1256:
 10640              		.loc 3 238 12 view .LVU2732
 10641 2746 C4EBA214 		rsb	r4, r4, r2, asr #6
 10642 274a 24B2     		sxth	r4, r4
 10643 274c FEF735BE 		b	.L265
 10644              	.LVL1257:
 10645              	.L510:
 10646              		.loc 3 238 12 view .LVU2733
 10647              	.LBE867:
 10648              	.LBE866:
 10649              	.LBB868:
 10650              	.LBB674:
 10651 2750 2046     		mov	r0, r4
 10652 2752 FFF7FEFF 		bl	lv_disp_get_dpi
 10653              	.LVL1258:
 10654 2756 00EB8000 		add	r0, r0, r0, lsl #2
 10655 275a 4300     		lsls	r3, r0, #1
 10656 275c 5033     		adds	r3, r3, #80
 10657 275e 5C4A     		ldr	r2, .L598
 10658 2760 82FB0312 		smull	r1, r2, r2, r3
 10659 2764 DC17     		asrs	r4, r3, #31
 10660              	.LVL1259:
 10661              		.loc 3 238 12 view .LVU2734
ARM GAS  C:\Users\gx\AppData\Local\Temp\ccQfGIQ4.s 			page 270


 10662 2766 C4EBA214 		rsb	r4, r4, r2, asr #6
 10663 276a 24B2     		sxth	r4, r4
 10664 276c FEF725BE 		b	.L265
 10665              	.LVL1260:
 10666              	.L511:
 10667              		.loc 3 238 12 view .LVU2735
 10668              	.LBE674:
 10669              	.LBE868:
 536:lvgl/lvgl/src/extra/themes/default/lv_theme_default.c **** 
 10670              		.loc 1 536 48 discriminator 1 view .LVU2736
 10671 2770 584B     		ldr	r3, .L598+4
 10672 2772 DD68     		ldr	r5, [r3, #12]
 10673              	.LVL1261:
 10674              	.LBB869:
 10675              	.LBI869:
 236:d:\practise\f407_disc\lvgl\lvgl\src/core\lv_disp.h **** {
 10676              		.loc 3 236 26 is_stmt 1 discriminator 1 view .LVU2737
 10677              	.LBB870:
 10678              		.loc 3 238 5 discriminator 1 view .LVU2738
 10679              		.loc 3 238 12 is_stmt 0 discriminator 1 view .LVU2739
 10680 2774 2846     		mov	r0, r5
 10681 2776 FFF7FEFF 		bl	lv_disp_get_dpi
 10682              	.LVL1262:
 10683 277a C0EBC000 		rsb	r0, r0, r0, lsl #3
 10684 277e 4000     		lsls	r0, r0, #1
 10685 2780 EF28     		cmp	r0, #239
 10686 2782 02DC     		bgt	.L566
 10687              		.loc 3 238 12 view .LVU2740
 10688 2784 0121     		movs	r1, #1
 10689              	.LVL1263:
 10690              		.loc 3 238 12 view .LVU2741
 10691 2786 FEF740BE 		b	.L271
 10692              	.LVL1264:
 10693              	.L566:
 10694              		.loc 3 238 12 view .LVU2742
 10695 278a 2846     		mov	r0, r5
 10696 278c FFF7FEFF 		bl	lv_disp_get_dpi
 10697              	.LVL1265:
 10698 2790 C0EBC000 		rsb	r0, r0, r0, lsl #3
 10699 2794 4300     		lsls	r3, r0, #1
 10700 2796 5033     		adds	r3, r3, #80
 10701 2798 4D4A     		ldr	r2, .L598
 10702 279a 82FB0312 		smull	r1, r2, r2, r3
 10703 279e D917     		asrs	r1, r3, #31
 10704 27a0 C1EBA211 		rsb	r1, r1, r2, asr #6
 10705 27a4 09B2     		sxth	r1, r1
 10706 27a6 FEF730BE 		b	.L271
 10707              	.LVL1266:
 10708              	.L512:
 10709              		.loc 3 238 12 view .LVU2743
 10710              	.LBE870:
 10711              	.LBE869:
 536:lvgl/lvgl/src/extra/themes/default/lv_theme_default.c **** 
 10712              		.loc 1 536 48 discriminator 4 view .LVU2744
 10713 27aa 4A4B     		ldr	r3, .L598+4
 10714 27ac DD68     		ldr	r5, [r3, #12]
 10715              	.LVL1267:
ARM GAS  C:\Users\gx\AppData\Local\Temp\ccQfGIQ4.s 			page 271


 10716              	.LBB871:
 10717              	.LBI871:
 236:d:\practise\f407_disc\lvgl\lvgl\src/core\lv_disp.h **** {
 10718              		.loc 3 236 26 is_stmt 1 discriminator 4 view .LVU2745
 10719              	.LBB872:
 10720              		.loc 3 238 5 discriminator 4 view .LVU2746
 10721              		.loc 3 238 12 is_stmt 0 discriminator 4 view .LVU2747
 10722 27ae 2846     		mov	r0, r5
 10723 27b0 FFF7FEFF 		bl	lv_disp_get_dpi
 10724              	.LVL1268:
 10725 27b4 00EB4000 		add	r0, r0, r0, lsl #1
 10726 27b8 8000     		lsls	r0, r0, #2
 10727 27ba EF28     		cmp	r0, #239
 10728 27bc 02DC     		bgt	.L567
 10729              		.loc 3 238 12 view .LVU2748
 10730 27be 0121     		movs	r1, #1
 10731              	.LVL1269:
 10732              		.loc 3 238 12 view .LVU2749
 10733 27c0 FEF723BE 		b	.L271
 10734              	.LVL1270:
 10735              	.L567:
 10736              		.loc 3 238 12 view .LVU2750
 10737 27c4 2846     		mov	r0, r5
 10738 27c6 FFF7FEFF 		bl	lv_disp_get_dpi
 10739              	.LVL1271:
 10740 27ca 00EB4000 		add	r0, r0, r0, lsl #1
 10741 27ce 8300     		lsls	r3, r0, #2
 10742 27d0 5033     		adds	r3, r3, #80
 10743 27d2 3F4A     		ldr	r2, .L598
 10744 27d4 82FB0312 		smull	r1, r2, r2, r3
 10745 27d8 D917     		asrs	r1, r3, #31
 10746 27da C1EBA211 		rsb	r1, r1, r2, asr #6
 10747 27de 09B2     		sxth	r1, r1
 10748 27e0 FEF713BE 		b	.L271
 10749              	.LVL1272:
 10750              	.L513:
 10751              		.loc 3 238 12 view .LVU2751
 10752              	.LBE872:
 10753              	.LBE871:
 10754              	.LBB873:
 10755              	.LBB679:
 10756 27e4 2846     		mov	r0, r5
 10757 27e6 FFF7FEFF 		bl	lv_disp_get_dpi
 10758              	.LVL1273:
 10759 27ea 00EB8000 		add	r0, r0, r0, lsl #2
 10760 27ee 4300     		lsls	r3, r0, #1
 10761 27f0 5033     		adds	r3, r3, #80
 10762 27f2 374A     		ldr	r2, .L598
 10763 27f4 82FB0312 		smull	r1, r2, r2, r3
 10764 27f8 D917     		asrs	r1, r3, #31
 10765 27fa C1EBA211 		rsb	r1, r1, r2, asr #6
 10766 27fe 09B2     		sxth	r1, r1
 10767 2800 FEF703BE 		b	.L271
 10768              	.LVL1274:
 10769              	.L514:
 10770              		.loc 3 238 12 view .LVU2752
 10771              	.LBE679:
ARM GAS  C:\Users\gx\AppData\Local\Temp\ccQfGIQ4.s 			page 272


 10772              	.LBE873:
 539:lvgl/lvgl/src/extra/themes/default/lv_theme_default.c **** #endif
 10773              		.loc 1 539 59 discriminator 1 view .LVU2753
 10774 2804 334B     		ldr	r3, .L598+4
 10775 2806 DD68     		ldr	r5, [r3, #12]
 10776              	.LVL1275:
 10777              	.LBB874:
 10778              	.LBI874:
 236:d:\practise\f407_disc\lvgl\lvgl\src/core\lv_disp.h **** {
 10779              		.loc 3 236 26 is_stmt 1 discriminator 1 view .LVU2754
 10780              	.LBB875:
 10781              		.loc 3 238 5 discriminator 1 view .LVU2755
 10782              		.loc 3 238 12 is_stmt 0 discriminator 1 view .LVU2756
 10783 2808 2846     		mov	r0, r5
 10784 280a FFF7FEFF 		bl	lv_disp_get_dpi
 10785              	.LVL1276:
 10786 280e 00EB4000 		add	r0, r0, r0, lsl #1
 10787 2812 C000     		lsls	r0, r0, #3
 10788 2814 EF28     		cmp	r0, #239
 10789 2816 02DC     		bgt	.L568
 10790              		.loc 3 238 12 view .LVU2757
 10791 2818 0121     		movs	r1, #1
 10792              	.LVL1277:
 10793              		.loc 3 238 12 view .LVU2758
 10794 281a FEF71FBE 		b	.L277
 10795              	.LVL1278:
 10796              	.L568:
 10797              		.loc 3 238 12 view .LVU2759
 10798 281e 2846     		mov	r0, r5
 10799 2820 FFF7FEFF 		bl	lv_disp_get_dpi
 10800              	.LVL1279:
 10801 2824 00EB4000 		add	r0, r0, r0, lsl #1
 10802 2828 C300     		lsls	r3, r0, #3
 10803 282a 5033     		adds	r3, r3, #80
 10804 282c 284A     		ldr	r2, .L598
 10805 282e 82FB0312 		smull	r1, r2, r2, r3
 10806 2832 D917     		asrs	r1, r3, #31
 10807 2834 C1EBA211 		rsb	r1, r1, r2, asr #6
 10808 2838 09B2     		sxth	r1, r1
 10809 283a FEF70FBE 		b	.L277
 10810              	.LVL1280:
 10811              	.L515:
 10812              		.loc 3 238 12 view .LVU2760
 10813              	.LBE875:
 10814              	.LBE874:
 539:lvgl/lvgl/src/extra/themes/default/lv_theme_default.c **** #endif
 10815              		.loc 1 539 59 discriminator 4 view .LVU2761
 10816 283e 254B     		ldr	r3, .L598+4
 10817 2840 DD68     		ldr	r5, [r3, #12]
 10818              	.LVL1281:
 10819              	.LBB876:
 10820              	.LBI876:
 236:d:\practise\f407_disc\lvgl\lvgl\src/core\lv_disp.h **** {
 10821              		.loc 3 236 26 is_stmt 1 discriminator 4 view .LVU2762
 10822              	.LBB877:
 10823              		.loc 3 238 5 discriminator 4 view .LVU2763
 10824              		.loc 3 238 12 is_stmt 0 discriminator 4 view .LVU2764
ARM GAS  C:\Users\gx\AppData\Local\Temp\ccQfGIQ4.s 			page 273


 10825 2842 2846     		mov	r0, r5
 10826 2844 FFF7FEFF 		bl	lv_disp_get_dpi
 10827              	.LVL1282:
 10828 2848 00EB8000 		add	r0, r0, r0, lsl #2
 10829 284c 8000     		lsls	r0, r0, #2
 10830 284e EF28     		cmp	r0, #239
 10831 2850 02DC     		bgt	.L569
 10832              		.loc 3 238 12 view .LVU2765
 10833 2852 0121     		movs	r1, #1
 10834              	.LVL1283:
 10835              		.loc 3 238 12 view .LVU2766
 10836 2854 FEF702BE 		b	.L277
 10837              	.LVL1284:
 10838              	.L569:
 10839              		.loc 3 238 12 view .LVU2767
 10840 2858 2846     		mov	r0, r5
 10841 285a FFF7FEFF 		bl	lv_disp_get_dpi
 10842              	.LVL1285:
 10843 285e 00EB8000 		add	r0, r0, r0, lsl #2
 10844 2862 8300     		lsls	r3, r0, #2
 10845 2864 5033     		adds	r3, r3, #80
 10846 2866 1A4A     		ldr	r2, .L598
 10847 2868 82FB0312 		smull	r1, r2, r2, r3
 10848 286c D917     		asrs	r1, r3, #31
 10849 286e C1EBA211 		rsb	r1, r1, r2, asr #6
 10850 2872 09B2     		sxth	r1, r1
 10851 2874 FEF7F2BD 		b	.L277
 10852              	.LVL1286:
 10853              	.L516:
 10854              		.loc 3 238 12 view .LVU2768
 10855              	.LBE877:
 10856              	.LBE876:
 10857              	.LBB878:
 10858              	.LBB682:
 10859 2878 2846     		mov	r0, r5
 10860 287a FFF7FEFF 		bl	lv_disp_get_dpi
 10861              	.LVL1287:
 10862 287e 0001     		lsls	r0, r0, #4
 10863 2880 5030     		adds	r0, r0, #80
 10864 2882 134B     		ldr	r3, .L598
 10865 2884 83FB0023 		smull	r2, r3, r3, r0
 10866 2888 C117     		asrs	r1, r0, #31
 10867 288a C1EBA311 		rsb	r1, r1, r3, asr #6
 10868 288e 09B2     		sxth	r1, r1
 10869 2890 FEF7E4BD 		b	.L277
 10870              	.LVL1288:
 10871              	.L517:
 10872              		.loc 3 238 12 view .LVU2769
 10873              	.LBE682:
 10874              	.LBE878:
 10875              	.LBB879:
 10876              	.LBB689:
 10877 2894 2846     		mov	r0, r5
 10878 2896 FFF7FEFF 		bl	lv_disp_get_dpi
 10879              	.LVL1289:
 10880 289a C0EB0010 		rsb	r0, r0, r0, lsl #4
 10881 289e 5030     		adds	r0, r0, #80
ARM GAS  C:\Users\gx\AppData\Local\Temp\ccQfGIQ4.s 			page 274


 10882 28a0 0B4B     		ldr	r3, .L598
 10883 28a2 83FB0023 		smull	r2, r3, r3, r0
 10884 28a6 C117     		asrs	r1, r0, #31
 10885 28a8 C1EBA311 		rsb	r1, r1, r3, asr #6
 10886 28ac 09B2     		sxth	r1, r1
 10887 28ae FEF709BE 		b	.L281
 10888              	.LVL1290:
 10889              	.L518:
 10890              		.loc 3 238 12 view .LVU2770
 10891              	.LBE689:
 10892              	.LBE879:
 10893              	.LBB880:
 10894              	.LBB696:
 10895 28b2 2846     		mov	r0, r5
 10896 28b4 FFF7FEFF 		bl	lv_disp_get_dpi
 10897              	.LVL1291:
 10898 28b8 00EB8000 		add	r0, r0, r0, lsl #2
 10899 28bc 5030     		adds	r0, r0, #80
 10900 28be 044B     		ldr	r3, .L598
 10901 28c0 83FB0023 		smull	r2, r3, r3, r0
 10902 28c4 C117     		asrs	r1, r0, #31
 10903 28c6 C1EBA311 		rsb	r1, r1, r3, asr #6
 10904 28ca 09B2     		sxth	r1, r1
 10905 28cc FEF713BE 		b	.L282
 10906              	.L599:
 10907              		.align	2
 10908              	.L598:
 10909 28d0 67666666 		.word	1717986919
 10910 28d4 00000000 		.word	.LANCHOR2
 10911              	.LBE696:
 10912              	.LBE880:
 10913              		.cfi_endproc
 10914              	.LFE191:
 10916              		.section	.text.lv_theme_default_init,"ax",%progbits
 10917              		.align	1
 10918              		.global	lv_theme_default_init
 10919              		.syntax unified
 10920              		.thumb
 10921              		.thumb_func
 10922              		.fpu fpv4-sp-d16
 10924              	lv_theme_default_init:
 10925              	.LVL1292:
 10926              	.LFB192:
 560:lvgl/lvgl/src/extra/themes/default/lv_theme_default.c **** 
 10927              		.loc 1 560 1 is_stmt 1 view -0
 10928              		.cfi_startproc
 10929              		@ args = 4, pretend = 0, frame = 0
 10930              		@ frame_needed = 0, uses_anonymous_args = 0
 560:lvgl/lvgl/src/extra/themes/default/lv_theme_default.c **** 
 10931              		.loc 1 560 1 is_stmt 0 view .LVU2772
 10932 0000 2DE9F843 		push	{r3, r4, r5, r6, r7, r8, r9, lr}
 10933              	.LCFI8:
 10934              		.cfi_def_cfa_offset 32
 10935              		.cfi_offset 3, -32
 10936              		.cfi_offset 4, -28
 10937              		.cfi_offset 5, -24
 10938              		.cfi_offset 6, -20
ARM GAS  C:\Users\gx\AppData\Local\Temp\ccQfGIQ4.s 			page 275


 10939              		.cfi_offset 7, -16
 10940              		.cfi_offset 8, -12
 10941              		.cfi_offset 9, -8
 10942              		.cfi_offset 14, -4
 10943 0004 0546     		mov	r5, r0
 10944 0006 8946     		mov	r9, r1	@ movhi
 10945              	.LVL1293:
 560:lvgl/lvgl/src/extra/themes/default/lv_theme_default.c **** 
 10946              		.loc 1 560 1 view .LVU2773
 10947 0008 9046     		mov	r8, r2	@ movhi
 10948              	.LVL1294:
 560:lvgl/lvgl/src/extra/themes/default/lv_theme_default.c **** 
 10949              		.loc 1 560 1 view .LVU2774
 10950 000a 1E46     		mov	r6, r3
 10951 000c 089F     		ldr	r7, [sp, #32]
 565:lvgl/lvgl/src/extra/themes/default/lv_theme_default.c ****         LV_GC_ROOT(_lv_theme_default_styles) = lv_mem_alloc(sizeof(my_theme_styles_t));
 10952              		.loc 1 565 5 is_stmt 1 view .LVU2775
 565:lvgl/lvgl/src/extra/themes/default/lv_theme_default.c ****         LV_GC_ROOT(_lv_theme_default_styles) = lv_mem_alloc(sizeof(my_theme_styles_t));
 10953              		.loc 1 565 8 is_stmt 0 view .LVU2776
 10954 000e 214B     		ldr	r3, .L609
 10955              	.LVL1295:
 565:lvgl/lvgl/src/extra/themes/default/lv_theme_default.c ****         LV_GC_ROOT(_lv_theme_default_styles) = lv_mem_alloc(sizeof(my_theme_styles_t));
 10956              		.loc 1 565 8 view .LVU2777
 10957 0010 1B78     		ldrb	r3, [r3]	@ zero_extendqisi2
 565:lvgl/lvgl/src/extra/themes/default/lv_theme_default.c ****         LV_GC_ROOT(_lv_theme_default_styles) = lv_mem_alloc(sizeof(my_theme_styles_t));
 10958              		.loc 1 565 7 view .LVU2778
 10959 0012 33B3     		cbz	r3, .L608
 10960              	.LVL1296:
 10961              	.L601:
 570:lvgl/lvgl/src/extra/themes/default/lv_theme_default.c ****     else if(LV_HOR_RES < 720) disp_size = DISP_MEDIUM;
 10962              		.loc 1 570 5 is_stmt 1 view .LVU2779
 570:lvgl/lvgl/src/extra/themes/default/lv_theme_default.c ****     else if(LV_HOR_RES < 720) disp_size = DISP_MEDIUM;
 10963              		.loc 1 570 8 is_stmt 0 view .LVU2780
 10964 0014 FFF7FEFF 		bl	lv_disp_get_default
 10965              	.LVL1297:
 10966 0018 FFF7FEFF 		bl	lv_disp_get_hor_res
 10967              	.LVL1298:
 570:lvgl/lvgl/src/extra/themes/default/lv_theme_default.c ****     else if(LV_HOR_RES < 720) disp_size = DISP_MEDIUM;
 10968              		.loc 1 570 7 view .LVU2781
 10969 001c B0F5A07F 		cmp	r0, #320
 10970 0020 28DC     		bgt	.L602
 570:lvgl/lvgl/src/extra/themes/default/lv_theme_default.c ****     else if(LV_HOR_RES < 720) disp_size = DISP_MEDIUM;
 10971              		.loc 1 570 27 is_stmt 1 discriminator 1 view .LVU2782
 570:lvgl/lvgl/src/extra/themes/default/lv_theme_default.c ****     else if(LV_HOR_RES < 720) disp_size = DISP_MEDIUM;
 10972              		.loc 1 570 37 is_stmt 0 discriminator 1 view .LVU2783
 10973 0022 1D4B     		ldr	r3, .L609+4
 10974 0024 0322     		movs	r2, #3
 10975 0026 1A70     		strb	r2, [r3]
 10976              	.L603:
 574:lvgl/lvgl/src/extra/themes/default/lv_theme_default.c ****     theme.color_primary = color_primary;
 10977              		.loc 1 574 5 is_stmt 1 view .LVU2784
 574:lvgl/lvgl/src/extra/themes/default/lv_theme_default.c ****     theme.color_primary = color_primary;
 10978              		.loc 1 574 16 is_stmt 0 view .LVU2785
 10979 0028 1C4C     		ldr	r4, .L609+8
 10980 002a E560     		str	r5, [r4, #12]
 575:lvgl/lvgl/src/extra/themes/default/lv_theme_default.c ****     theme.color_secondary = color_secondary;
 10981              		.loc 1 575 5 is_stmt 1 view .LVU2786
ARM GAS  C:\Users\gx\AppData\Local\Temp\ccQfGIQ4.s 			page 276


 10982              	.LVL1299:
 575:lvgl/lvgl/src/extra/themes/default/lv_theme_default.c ****     theme.color_secondary = color_secondary;
 10983              		.loc 1 575 25 is_stmt 0 view .LVU2787
 10984 002c A4F81090 		strh	r9, [r4, #16]	@ movhi
 576:lvgl/lvgl/src/extra/themes/default/lv_theme_default.c ****     theme.font_small = font;
 10985              		.loc 1 576 5 is_stmt 1 view .LVU2788
 10986              	.LVL1300:
 576:lvgl/lvgl/src/extra/themes/default/lv_theme_default.c ****     theme.font_small = font;
 10987              		.loc 1 576 27 is_stmt 0 view .LVU2789
 10988 0030 A4F81280 		strh	r8, [r4, #18]	@ movhi
 577:lvgl/lvgl/src/extra/themes/default/lv_theme_default.c ****     theme.font_normal = font;
 10989              		.loc 1 577 5 is_stmt 1 view .LVU2790
 577:lvgl/lvgl/src/extra/themes/default/lv_theme_default.c ****     theme.font_normal = font;
 10990              		.loc 1 577 22 is_stmt 0 view .LVU2791
 10991 0034 6761     		str	r7, [r4, #20]
 578:lvgl/lvgl/src/extra/themes/default/lv_theme_default.c ****     theme.font_large = font;
 10992              		.loc 1 578 5 is_stmt 1 view .LVU2792
 578:lvgl/lvgl/src/extra/themes/default/lv_theme_default.c ****     theme.font_large = font;
 10993              		.loc 1 578 23 is_stmt 0 view .LVU2793
 10994 0036 A761     		str	r7, [r4, #24]
 579:lvgl/lvgl/src/extra/themes/default/lv_theme_default.c ****     theme.apply_cb = theme_apply;
 10995              		.loc 1 579 5 is_stmt 1 view .LVU2794
 579:lvgl/lvgl/src/extra/themes/default/lv_theme_default.c ****     theme.apply_cb = theme_apply;
 10996              		.loc 1 579 22 is_stmt 0 view .LVU2795
 10997 0038 E761     		str	r7, [r4, #28]
 580:lvgl/lvgl/src/extra/themes/default/lv_theme_default.c ****     theme.flags = dark ? MODE_DARK : 0;
 10998              		.loc 1 580 5 is_stmt 1 view .LVU2796
 580:lvgl/lvgl/src/extra/themes/default/lv_theme_default.c ****     theme.flags = dark ? MODE_DARK : 0;
 10999              		.loc 1 580 20 is_stmt 0 view .LVU2797
 11000 003a 194B     		ldr	r3, .L609+12
 11001 003c 2360     		str	r3, [r4]
 581:lvgl/lvgl/src/extra/themes/default/lv_theme_default.c **** 
 11002              		.loc 1 581 5 is_stmt 1 view .LVU2798
 581:lvgl/lvgl/src/extra/themes/default/lv_theme_default.c **** 
 11003              		.loc 1 581 17 is_stmt 0 view .LVU2799
 11004 003e 2662     		str	r6, [r4, #32]
 583:lvgl/lvgl/src/extra/themes/default/lv_theme_default.c **** 
 11005              		.loc 1 583 5 is_stmt 1 view .LVU2800
 11006 0040 FFF7FEFF 		bl	style_init
 11007              	.LVL1301:
 585:lvgl/lvgl/src/extra/themes/default/lv_theme_default.c **** 
 11008              		.loc 1 585 5 view .LVU2801
 585:lvgl/lvgl/src/extra/themes/default/lv_theme_default.c **** 
 11009              		.loc 1 585 12 is_stmt 0 view .LVU2802
 11010 0044 134B     		ldr	r3, .L609
 11011 0046 0122     		movs	r2, #1
 11012 0048 1A70     		strb	r2, [r3]
 587:lvgl/lvgl/src/extra/themes/default/lv_theme_default.c **** 
 11013              		.loc 1 587 5 is_stmt 1 view .LVU2803
 587:lvgl/lvgl/src/extra/themes/default/lv_theme_default.c **** 
 11014              		.loc 1 587 7 is_stmt 0 view .LVU2804
 11015 004a 25B1     		cbz	r5, .L605
 587:lvgl/lvgl/src/extra/themes/default/lv_theme_default.c **** 
 11016              		.loc 1 587 24 discriminator 2 view .LVU2805
 11017 004c 2846     		mov	r0, r5
 11018 004e FFF7FEFF 		bl	lv_disp_get_theme
 11019              	.LVL1302:
ARM GAS  C:\Users\gx\AppData\Local\Temp\ccQfGIQ4.s 			page 277


 587:lvgl/lvgl/src/extra/themes/default/lv_theme_default.c **** 
 11020              		.loc 1 587 21 discriminator 2 view .LVU2806
 11021 0052 8442     		cmp	r4, r0
 11022 0054 02D1     		bne	.L606
 11023              	.L605:
 587:lvgl/lvgl/src/extra/themes/default/lv_theme_default.c **** 
 11024              		.loc 1 587 59 is_stmt 1 discriminator 3 view .LVU2807
 11025 0056 0020     		movs	r0, #0
 11026 0058 FFF7FEFF 		bl	lv_obj_report_style_change
 11027              	.LVL1303:
 11028              	.L606:
 589:lvgl/lvgl/src/extra/themes/default/lv_theme_default.c **** }
 11029              		.loc 1 589 5 view .LVU2808
 590:lvgl/lvgl/src/extra/themes/default/lv_theme_default.c **** 
 11030              		.loc 1 590 1 is_stmt 0 view .LVU2809
 11031 005c 0F48     		ldr	r0, .L609+8
 11032 005e BDE8F883 		pop	{r3, r4, r5, r6, r7, r8, r9, pc}
 11033              	.LVL1304:
 11034              	.L608:
 566:lvgl/lvgl/src/extra/themes/default/lv_theme_default.c ****         styles = (my_theme_styles_t *)LV_GC_ROOT(_lv_theme_default_styles);
 11035              		.loc 1 566 9 is_stmt 1 view .LVU2810
 566:lvgl/lvgl/src/extra/themes/default/lv_theme_default.c ****         styles = (my_theme_styles_t *)LV_GC_ROOT(_lv_theme_default_styles);
 11036              		.loc 1 566 48 is_stmt 0 view .LVU2811
 11037 0062 4FF4F070 		mov	r0, #480
 11038              	.LVL1305:
 566:lvgl/lvgl/src/extra/themes/default/lv_theme_default.c ****         styles = (my_theme_styles_t *)LV_GC_ROOT(_lv_theme_default_styles);
 11039              		.loc 1 566 48 view .LVU2812
 11040 0066 FFF7FEFF 		bl	lv_mem_alloc
 11041              	.LVL1306:
 566:lvgl/lvgl/src/extra/themes/default/lv_theme_default.c ****         styles = (my_theme_styles_t *)LV_GC_ROOT(_lv_theme_default_styles);
 11042              		.loc 1 566 46 view .LVU2813
 11043 006a 0E4B     		ldr	r3, .L609+16
 11044 006c 1860     		str	r0, [r3]
 567:lvgl/lvgl/src/extra/themes/default/lv_theme_default.c ****     }
 11045              		.loc 1 567 9 is_stmt 1 view .LVU2814
 567:lvgl/lvgl/src/extra/themes/default/lv_theme_default.c ****     }
 11046              		.loc 1 567 16 is_stmt 0 view .LVU2815
 11047 006e 0E4B     		ldr	r3, .L609+20
 11048 0070 1860     		str	r0, [r3]
 11049 0072 CFE7     		b	.L601
 11050              	.L602:
 571:lvgl/lvgl/src/extra/themes/default/lv_theme_default.c ****     else disp_size = DISP_LARGE;
 11051              		.loc 1 571 10 is_stmt 1 view .LVU2816
 571:lvgl/lvgl/src/extra/themes/default/lv_theme_default.c ****     else disp_size = DISP_LARGE;
 11052              		.loc 1 571 13 is_stmt 0 view .LVU2817
 11053 0074 FFF7FEFF 		bl	lv_disp_get_default
 11054              	.LVL1307:
 11055 0078 FFF7FEFF 		bl	lv_disp_get_hor_res
 11056              	.LVL1308:
 571:lvgl/lvgl/src/extra/themes/default/lv_theme_default.c ****     else disp_size = DISP_LARGE;
 11057              		.loc 1 571 12 view .LVU2818
 11058 007c B0F5347F 		cmp	r0, #720
 11059 0080 03DA     		bge	.L604
 571:lvgl/lvgl/src/extra/themes/default/lv_theme_default.c ****     else disp_size = DISP_LARGE;
 11060              		.loc 1 571 31 is_stmt 1 discriminator 1 view .LVU2819
 571:lvgl/lvgl/src/extra/themes/default/lv_theme_default.c ****     else disp_size = DISP_LARGE;
 11061              		.loc 1 571 41 is_stmt 0 discriminator 1 view .LVU2820
ARM GAS  C:\Users\gx\AppData\Local\Temp\ccQfGIQ4.s 			page 278


 11062 0082 054B     		ldr	r3, .L609+4
 11063 0084 0222     		movs	r2, #2
 11064 0086 1A70     		strb	r2, [r3]
 11065 0088 CEE7     		b	.L603
 11066              	.L604:
 572:lvgl/lvgl/src/extra/themes/default/lv_theme_default.c **** 
 11067              		.loc 1 572 10 is_stmt 1 view .LVU2821
 572:lvgl/lvgl/src/extra/themes/default/lv_theme_default.c **** 
 11068              		.loc 1 572 20 is_stmt 0 view .LVU2822
 11069 008a 034B     		ldr	r3, .L609+4
 11070 008c 0122     		movs	r2, #1
 11071 008e 1A70     		strb	r2, [r3]
 11072 0090 CAE7     		b	.L603
 11073              	.L610:
 11074 0092 00BF     		.align	2
 11075              	.L609:
 11076 0094 00000000 		.word	.LANCHOR3
 11077 0098 00000000 		.word	.LANCHOR1
 11078 009c 00000000 		.word	.LANCHOR2
 11079 00a0 00000000 		.word	theme_apply
 11080 00a4 00000000 		.word	_lv_theme_default_styles
 11081 00a8 00000000 		.word	.LANCHOR0
 11082              		.cfi_endproc
 11083              	.LFE192:
 11085              		.section	.text.lv_theme_default_is_inited,"ax",%progbits
 11086              		.align	1
 11087              		.global	lv_theme_default_is_inited
 11088              		.syntax unified
 11089              		.thumb
 11090              		.thumb_func
 11091              		.fpu fpv4-sp-d16
 11093              	lv_theme_default_is_inited:
 11094              	.LFB193:
 593:lvgl/lvgl/src/extra/themes/default/lv_theme_default.c ****     return inited;
 11095              		.loc 1 593 1 is_stmt 1 view -0
 11096              		.cfi_startproc
 11097              		@ args = 0, pretend = 0, frame = 0
 11098              		@ frame_needed = 0, uses_anonymous_args = 0
 11099              		@ link register save eliminated.
 594:lvgl/lvgl/src/extra/themes/default/lv_theme_default.c **** }
 11100              		.loc 1 594 5 view .LVU2824
 595:lvgl/lvgl/src/extra/themes/default/lv_theme_default.c **** 
 11101              		.loc 1 595 1 is_stmt 0 view .LVU2825
 11102 0000 014B     		ldr	r3, .L612
 11103 0002 1878     		ldrb	r0, [r3]	@ zero_extendqisi2
 11104 0004 7047     		bx	lr
 11105              	.L613:
 11106 0006 00BF     		.align	2
 11107              	.L612:
 11108 0008 00000000 		.word	.LANCHOR3
 11109              		.cfi_endproc
 11110              	.LFE193:
 11112              		.section	.bss.color_card,"aw",%nobits
 11113              		.align	2
 11114              		.set	.LANCHOR6,. + 0
 11117              	color_card:
 11118 0000 0000     		.space	2
ARM GAS  C:\Users\gx\AppData\Local\Temp\ccQfGIQ4.s 			page 279


 11119              		.section	.bss.color_grey,"aw",%nobits
 11120              		.align	2
 11121              		.set	.LANCHOR7,. + 0
 11124              	color_grey:
 11125 0000 0000     		.space	2
 11126              		.section	.bss.color_scr,"aw",%nobits
 11127              		.align	2
 11128              		.set	.LANCHOR4,. + 0
 11131              	color_scr:
 11132 0000 0000     		.space	2
 11133              		.section	.bss.color_text,"aw",%nobits
 11134              		.align	2
 11135              		.set	.LANCHOR5,. + 0
 11138              	color_text:
 11139 0000 0000     		.space	2
 11140              		.section	.bss.dark_filter.12206,"aw",%nobits
 11141              		.align	2
 11142              		.set	.LANCHOR11,. + 0
 11145              	dark_filter.12206:
 11146 0000 00000000 		.space	8
 11146      00000000 
 11147              		.section	.bss.disp_size,"aw",%nobits
 11148              		.set	.LANCHOR1,. + 0
 11151              	disp_size:
 11152 0000 00       		.space	1
 11153              		.section	.bss.grey_filter.12207,"aw",%nobits
 11154              		.align	2
 11155              		.set	.LANCHOR12,. + 0
 11158              	grey_filter.12207:
 11159 0000 00000000 		.space	8
 11159      00000000 
 11160              		.section	.bss.inited,"aw",%nobits
 11161              		.set	.LANCHOR3,. + 0
 11164              	inited:
 11165 0000 00       		.space	1
 11166              		.section	.bss.styles,"aw",%nobits
 11167              		.align	2
 11168              		.set	.LANCHOR0,. + 0
 11171              	styles:
 11172 0000 00000000 		.space	4
 11173              		.section	.bss.theme,"aw",%nobits
 11174              		.align	2
 11175              		.set	.LANCHOR2,. + 0
 11178              	theme:
 11179 0000 00000000 		.space	36
 11179      00000000 
 11179      00000000 
 11179      00000000 
 11179      00000000 
 11180              		.section	.bss.trans_delayed.12204,"aw",%nobits
 11181              		.align	2
 11182              		.set	.LANCHOR9,. + 0
 11185              	trans_delayed.12204:
 11186 0000 00000000 		.space	20
 11186      00000000 
 11186      00000000 
 11186      00000000 
ARM GAS  C:\Users\gx\AppData\Local\Temp\ccQfGIQ4.s 			page 280


 11186      00000000 
 11187              		.section	.bss.trans_normal.12205,"aw",%nobits
 11188              		.align	2
 11189              		.set	.LANCHOR10,. + 0
 11192              	trans_normal.12205:
 11193 0000 00000000 		.space	20
 11193      00000000 
 11193      00000000 
 11193      00000000 
 11193      00000000 
 11194              		.section	.rodata.trans_props.12203,"a"
 11195              		.align	2
 11196              		.set	.LANCHOR8,. + 0
 11199              	trans_props.12203:
 11200 0000 2100     		.short	33
 11201 0002 2000     		.short	32
 11202 0004 0A08     		.short	2058
 11203 0006 0B08     		.short	2059
 11204 0008 0D30     		.short	12301
 11205 000a 0C30     		.short	12300
 11206 000c 0E38     		.short	14350
 11207 000e 0F38     		.short	14351
 11208 0010 6400     		.short	100
 11209 0012 6300     		.short	99
 11210 0014 0000     		.short	0
 11211              		.text
 11212              	.Letext0:
 11213              		.file 6 "c:\\program files (x86)\\gnu arm embedded toolchain\\9 2020-q2-update\\arm-none-eabi\\inc
 11214              		.file 7 "c:\\program files (x86)\\gnu arm embedded toolchain\\9 2020-q2-update\\arm-none-eabi\\inc
 11215              		.file 8 "d:\\practise\\f407_disc\\lvgl\\lvgl\\src/misc/lv_types.h"
 11216              		.file 9 "d:\\practise\\f407_disc\\lvgl\\lvgl\\src/misc/lv_mem.h"
 11217              		.file 10 "d:\\practise\\f407_disc\\lvgl\\lvgl\\src/misc/lv_ll.h"
 11218              		.file 11 "d:\\practise\\f407_disc\\lvgl\\lvgl\\src/misc/lv_timer.h"
 11219              		.file 12 "c:\\program files (x86)\\gnu arm embedded toolchain\\9 2020-q2-update\\lib\\gcc\\arm-non
 11220              		.file 13 "c:\\program files (x86)\\gnu arm embedded toolchain\\9 2020-q2-update\\arm-none-eabi\\in
 11221              		.file 14 "c:\\program files (x86)\\gnu arm embedded toolchain\\9 2020-q2-update\\arm-none-eabi\\in
 11222              		.file 15 "c:\\program files (x86)\\gnu arm embedded toolchain\\9 2020-q2-update\\arm-none-eabi\\in
 11223              		.file 16 "d:\\practise\\f407_disc\\lvgl\\lvgl\\src/misc/lv_anim.h"
 11224              		.file 17 "d:\\practise\\f407_disc\\lvgl\\lvgl\\src\\draw\\lv_img_buf.h"
 11225              		.file 18 "d:\\practise\\f407_disc\\lvgl\\lvgl\\src/hal/lv_hal_disp.h"
 11226              		.file 19 "d:\\practise\\f407_disc\\lvgl\\lvgl\\src/core/lv_theme.h"
 11227              		.file 20 "d:\\practise\\f407_disc\\lvgl\\lvgl\\src/core/lv_obj.h"
 11228              		.file 21 "d:\\practise\\f407_disc\\lvgl\\lvgl\\src/core/lv_group.h"
 11229              		.file 22 "d:\\practise\\f407_disc\\lvgl\\lvgl\\src\\font\\lv_font.h"
 11230              		.file 23 "d:\\practise\\f407_disc\\lvgl\\lvgl\\src\\misc\\lv_txt.h"
 11231              		.file 24 "d:\\practise\\f407_disc\\lvgl\\lvgl\\src/core/lv_obj_pos.h"
 11232              		.file 25 "d:\\practise\\f407_disc\\lvgl\\lvgl\\src/core/lv_obj_scroll.h"
 11233              		.file 26 "d:\\practise\\f407_disc\\lvgl\\lvgl\\src/core/lv_obj_style.h"
 11234              		.file 27 "d:\\practise\\f407_disc\\lvgl\\lvgl\\src\\draw\\lv_img_decoder.h"
 11235              		.file 28 "d:\\practise\\f407_disc\\lvgl\\lvgl\\src\\draw\\lv_img_cache.h"
 11236              		.file 29 "d:\\practise\\f407_disc\\lvgl\\lvgl\\src\\draw\\lv_draw_mask.h"
 11237              		.file 30 "d:\\practise\\f407_disc\\lvgl\\lvgl\\src\\draw\\lv_draw_label.h"
 11238              		.file 31 "d:\\practise\\f407_disc\\lvgl\\lvgl\\src/core/lv_obj_class.h"
 11239              		.file 32 "d:\\practise\\f407_disc\\lvgl\\lvgl\\src/core/lv_event.h"
 11240              		.file 33 "d:\\practise\\f407_disc\\lvgl\\lvgl\\src/widgets/lv_arc.h"
 11241              		.file 34 "d:\\practise\\f407_disc\\lvgl\\lvgl\\src/widgets/lv_btn.h"
 11242              		.file 35 "d:\\practise\\f407_disc\\lvgl\\lvgl\\src/widgets/lv_img.h"
ARM GAS  C:\Users\gx\AppData\Local\Temp\ccQfGIQ4.s 			page 281


 11243              		.file 36 "d:\\practise\\f407_disc\\lvgl\\lvgl\\src/widgets/lv_label.h"
 11244              		.file 37 "d:\\practise\\f407_disc\\lvgl\\lvgl\\src/widgets/lv_line.h"
 11245              		.file 38 "d:\\practise\\f407_disc\\lvgl\\lvgl\\src/widgets/lv_table.h"
 11246              		.file 39 "d:\\practise\\f407_disc\\lvgl\\lvgl\\src/widgets/lv_checkbox.h"
 11247              		.file 40 "d:\\practise\\f407_disc\\lvgl\\lvgl\\src/widgets/lv_bar.h"
 11248              		.file 41 "d:\\practise\\f407_disc\\lvgl\\lvgl\\src/widgets/lv_slider.h"
 11249              		.file 42 "d:\\practise\\f407_disc\\lvgl\\lvgl\\src/widgets/lv_btnmatrix.h"
 11250              		.file 43 "d:\\practise\\f407_disc\\lvgl\\lvgl\\src/widgets/lv_dropdown.h"
 11251              		.file 44 "d:\\practise\\f407_disc\\lvgl\\lvgl\\src/widgets/lv_roller.h"
 11252              		.file 45 "d:\\practise\\f407_disc\\lvgl\\lvgl\\src/widgets/lv_textarea.h"
 11253              		.file 46 "d:\\practise\\f407_disc\\lvgl\\lvgl\\src/widgets/lv_canvas.h"
 11254              		.file 47 "d:\\practise\\f407_disc\\lvgl\\lvgl\\src/widgets/lv_switch.h"
 11255              		.file 48 "d:\\practise\\f407_disc\\lvgl\\lvgl\\src/extra/widgets/animimg/lv_animimg.h"
 11256              		.file 49 "d:\\practise\\f407_disc\\lvgl\\lvgl\\src/extra/widgets/calendar/lv_calendar.h"
 11257              		.file 50 "d:\\practise\\f407_disc\\lvgl\\lvgl\\src/extra/widgets/calendar/lv_calendar_header_arrow
 11258              		.file 51 "d:\\practise\\f407_disc\\lvgl\\lvgl\\src/extra/widgets/calendar/lv_calendar_header_dropd
 11259              		.file 52 "d:\\practise\\f407_disc\\lvgl\\lvgl\\src/extra/widgets/chart/lv_chart.h"
 11260              		.file 53 "d:\\practise\\f407_disc\\lvgl\\lvgl\\src/extra/widgets/keyboard/lv_keyboard.h"
 11261              		.file 54 "d:\\practise\\f407_disc\\lvgl\\lvgl\\src\\extra\\layouts\\flex\\lv_flex.h"
 11262              		.file 55 "d:\\practise\\f407_disc\\lvgl\\lvgl\\src/extra/widgets/list/lv_list.h"
 11263              		.file 56 "d:\\practise\\f407_disc\\lvgl\\lvgl\\src/extra/widgets/msgbox/lv_msgbox.h"
 11264              		.file 57 "d:\\practise\\f407_disc\\lvgl\\lvgl\\src/extra/widgets/meter/lv_meter.h"
 11265              		.file 58 "d:\\practise\\f407_disc\\lvgl\\lvgl\\src/extra/widgets/spinbox/lv_spinbox.h"
 11266              		.file 59 "d:\\practise\\f407_disc\\lvgl\\lvgl\\src/extra/widgets/spinner/lv_spinner.h"
 11267              		.file 60 "d:\\practise\\f407_disc\\lvgl\\lvgl\\src/extra/widgets/tabview/lv_tabview.h"
 11268              		.file 61 "d:\\practise\\f407_disc\\lvgl\\lvgl\\src/extra/widgets/tileview/lv_tileview.h"
 11269              		.file 62 "d:\\practise\\f407_disc\\lvgl\\lvgl\\src/extra/widgets/win/lv_win.h"
 11270              		.file 63 "d:\\practise\\f407_disc\\lvgl\\lvgl\\src/extra/widgets/colorwheel/lv_colorwheel.h"
 11271              		.file 64 "d:\\practise\\f407_disc\\lvgl\\lvgl\\src/extra/widgets/led/lv_led.h"
 11272              		.file 65 "d:\\practise\\f407_disc\\lvgl\\lvgl\\src/extra/widgets/imgbtn/lv_imgbtn.h"
 11273              		.file 66 "d:\\practise\\f407_disc\\lvgl\\lvgl\\src/extra/widgets/span/lv_span.h"
 11274              		.file 67 "d:\\practise\\f407_disc\\lvgl\\lvgl\\src/extra/layouts/grid/lv_grid.h"
 11275              		.file 68 "d:\\practise\\f407_disc\\lvgl\\lvgl\\src\\misc\\lv_gc.h"
 11276              		.file 69 "d:\\practise\\f407_disc\\lvgl\\lvgl\\src/core/lv_obj_tree.h"
 11277              		.file 70 "d:\\practise\\f407_disc\\lvgl\\lvgl\\src\\misc\\lv_style_gen.h"
ARM GAS  C:\Users\gx\AppData\Local\Temp\ccQfGIQ4.s 			page 282


DEFINED SYMBOLS
                            *ABS*:00000000 lv_theme_default.c
C:\Users\gx\AppData\Local\Temp\ccQfGIQ4.s:18     .text.theme_apply:00000000 $t
C:\Users\gx\AppData\Local\Temp\ccQfGIQ4.s:25     .text.theme_apply:00000000 theme_apply
C:\Users\gx\AppData\Local\Temp\ccQfGIQ4.s:589    .text.theme_apply:000002c4 $d
C:\Users\gx\AppData\Local\Temp\ccQfGIQ4.s:607    .text.theme_apply:00000300 $t
C:\Users\gx\AppData\Local\Temp\ccQfGIQ4.s:1171   .text.theme_apply:00000618 $d
C:\Users\gx\AppData\Local\Temp\ccQfGIQ4.s:1188   .text.theme_apply:00000650 $t
C:\Users\gx\AppData\Local\Temp\ccQfGIQ4.s:1727   .text.theme_apply:00000954 $d
C:\Users\gx\AppData\Local\Temp\ccQfGIQ4.s:1744   .text.theme_apply:0000098c $t
C:\Users\gx\AppData\Local\Temp\ccQfGIQ4.s:2276   .text.theme_apply:00000c84 $d
C:\Users\gx\AppData\Local\Temp\ccQfGIQ4.s:2297   .text.theme_apply:00000ccc $t
C:\Users\gx\AppData\Local\Temp\ccQfGIQ4.s:2492   .text.theme_apply:00000de4 $d
C:\Users\gx\AppData\Local\Temp\ccQfGIQ4.s:2503   .text.grey_filter_cb:00000000 $t
C:\Users\gx\AppData\Local\Temp\ccQfGIQ4.s:2509   .text.grey_filter_cb:00000000 grey_filter_cb
C:\Users\gx\AppData\Local\Temp\ccQfGIQ4.s:2657   .text.grey_filter_cb:00000070 $d
C:\Users\gx\AppData\Local\Temp\ccQfGIQ4.s:2663   .text.dark_color_filter_cb:00000000 $t
C:\Users\gx\AppData\Local\Temp\ccQfGIQ4.s:2669   .text.dark_color_filter_cb:00000000 dark_color_filter_cb
C:\Users\gx\AppData\Local\Temp\ccQfGIQ4.s:2698   .text.style_init_reset:00000000 $t
C:\Users\gx\AppData\Local\Temp\ccQfGIQ4.s:2704   .text.style_init_reset:00000000 style_init_reset
C:\Users\gx\AppData\Local\Temp\ccQfGIQ4.s:2739   .text.style_init_reset:00000014 $d
C:\Users\gx\AppData\Local\Temp\ccQfGIQ4.s:2744   .rodata.style_init.str1.4:00000000 $d
C:\Users\gx\AppData\Local\Temp\ccQfGIQ4.s:2748   .text.style_init:00000000 $t
C:\Users\gx\AppData\Local\Temp\ccQfGIQ4.s:2754   .text.style_init:00000000 style_init
C:\Users\gx\AppData\Local\Temp\ccQfGIQ4.s:3458   .text.style_init:00000334 $d
C:\Users\gx\AppData\Local\Temp\ccQfGIQ4.s:3476   .text.style_init:00000360 $t
C:\Users\gx\AppData\Local\Temp\ccQfGIQ4.s:4209   .text.style_init:00000690 $d
C:\Users\gx\AppData\Local\Temp\ccQfGIQ4.s:4225   .text.style_init:000006b4 $t
C:\Users\gx\AppData\Local\Temp\ccQfGIQ4.s:4965   .text.style_init:000009f4 $d
C:\Users\gx\AppData\Local\Temp\ccQfGIQ4.s:4973   .text.style_init:00000a0c $t
C:\Users\gx\AppData\Local\Temp\ccQfGIQ4.s:5702   .text.style_init:00000d5c $d
C:\Users\gx\AppData\Local\Temp\ccQfGIQ4.s:5720   .text.style_init:00000d78 $t
C:\Users\gx\AppData\Local\Temp\ccQfGIQ4.s:6424   .text.style_init:000010cc $d
C:\Users\gx\AppData\Local\Temp\ccQfGIQ4.s:6430   .text.style_init:000010e0 $t
C:\Users\gx\AppData\Local\Temp\ccQfGIQ4.s:7141   .text.style_init:00001434 $d
C:\Users\gx\AppData\Local\Temp\ccQfGIQ4.s:7148   .text.style_init:00001448 $t
C:\Users\gx\AppData\Local\Temp\ccQfGIQ4.s:7798   .text.style_init:00001794 $d
C:\Users\gx\AppData\Local\Temp\ccQfGIQ4.s:7808   .text.style_init:000017b0 $t
C:\Users\gx\AppData\Local\Temp\ccQfGIQ4.s:8430   .text.style_init:00001b14 $d
C:\Users\gx\AppData\Local\Temp\ccQfGIQ4.s:8435   .text.style_init:00001b1c $t
C:\Users\gx\AppData\Local\Temp\ccQfGIQ4.s:9062   .text.style_init:00001e8c $d
C:\Users\gx\AppData\Local\Temp\ccQfGIQ4.s:9071   .text.style_init:00001e94 $t
C:\Users\gx\AppData\Local\Temp\ccQfGIQ4.s:9671   .text.style_init:000021f8 $d
C:\Users\gx\AppData\Local\Temp\ccQfGIQ4.s:9680   .text.style_init:00002200 $t
C:\Users\gx\AppData\Local\Temp\ccQfGIQ4.s:10298  .text.style_init:00002564 $d
C:\Users\gx\AppData\Local\Temp\ccQfGIQ4.s:10305  .text.style_init:0000256c $t
C:\Users\gx\AppData\Local\Temp\ccQfGIQ4.s:10909  .text.style_init:000028d0 $d
C:\Users\gx\AppData\Local\Temp\ccQfGIQ4.s:10917  .text.lv_theme_default_init:00000000 $t
C:\Users\gx\AppData\Local\Temp\ccQfGIQ4.s:10924  .text.lv_theme_default_init:00000000 lv_theme_default_init
C:\Users\gx\AppData\Local\Temp\ccQfGIQ4.s:11076  .text.lv_theme_default_init:00000094 $d
C:\Users\gx\AppData\Local\Temp\ccQfGIQ4.s:11086  .text.lv_theme_default_is_inited:00000000 $t
C:\Users\gx\AppData\Local\Temp\ccQfGIQ4.s:11093  .text.lv_theme_default_is_inited:00000000 lv_theme_default_is_inited
C:\Users\gx\AppData\Local\Temp\ccQfGIQ4.s:11108  .text.lv_theme_default_is_inited:00000008 $d
C:\Users\gx\AppData\Local\Temp\ccQfGIQ4.s:11113  .bss.color_card:00000000 $d
C:\Users\gx\AppData\Local\Temp\ccQfGIQ4.s:11117  .bss.color_card:00000000 color_card
C:\Users\gx\AppData\Local\Temp\ccQfGIQ4.s:11120  .bss.color_grey:00000000 $d
C:\Users\gx\AppData\Local\Temp\ccQfGIQ4.s:11124  .bss.color_grey:00000000 color_grey
ARM GAS  C:\Users\gx\AppData\Local\Temp\ccQfGIQ4.s 			page 283


C:\Users\gx\AppData\Local\Temp\ccQfGIQ4.s:11127  .bss.color_scr:00000000 $d
C:\Users\gx\AppData\Local\Temp\ccQfGIQ4.s:11131  .bss.color_scr:00000000 color_scr
C:\Users\gx\AppData\Local\Temp\ccQfGIQ4.s:11134  .bss.color_text:00000000 $d
C:\Users\gx\AppData\Local\Temp\ccQfGIQ4.s:11138  .bss.color_text:00000000 color_text
C:\Users\gx\AppData\Local\Temp\ccQfGIQ4.s:11141  .bss.dark_filter.12206:00000000 $d
C:\Users\gx\AppData\Local\Temp\ccQfGIQ4.s:11145  .bss.dark_filter.12206:00000000 dark_filter.12206
C:\Users\gx\AppData\Local\Temp\ccQfGIQ4.s:11151  .bss.disp_size:00000000 disp_size
C:\Users\gx\AppData\Local\Temp\ccQfGIQ4.s:11152  .bss.disp_size:00000000 $d
C:\Users\gx\AppData\Local\Temp\ccQfGIQ4.s:11154  .bss.grey_filter.12207:00000000 $d
C:\Users\gx\AppData\Local\Temp\ccQfGIQ4.s:11158  .bss.grey_filter.12207:00000000 grey_filter.12207
C:\Users\gx\AppData\Local\Temp\ccQfGIQ4.s:11164  .bss.inited:00000000 inited
C:\Users\gx\AppData\Local\Temp\ccQfGIQ4.s:11165  .bss.inited:00000000 $d
C:\Users\gx\AppData\Local\Temp\ccQfGIQ4.s:11167  .bss.styles:00000000 $d
C:\Users\gx\AppData\Local\Temp\ccQfGIQ4.s:11171  .bss.styles:00000000 styles
C:\Users\gx\AppData\Local\Temp\ccQfGIQ4.s:11174  .bss.theme:00000000 $d
C:\Users\gx\AppData\Local\Temp\ccQfGIQ4.s:11178  .bss.theme:00000000 theme
C:\Users\gx\AppData\Local\Temp\ccQfGIQ4.s:11181  .bss.trans_delayed.12204:00000000 $d
C:\Users\gx\AppData\Local\Temp\ccQfGIQ4.s:11185  .bss.trans_delayed.12204:00000000 trans_delayed.12204
C:\Users\gx\AppData\Local\Temp\ccQfGIQ4.s:11188  .bss.trans_normal.12205:00000000 $d
C:\Users\gx\AppData\Local\Temp\ccQfGIQ4.s:11192  .bss.trans_normal.12205:00000000 trans_normal.12205
C:\Users\gx\AppData\Local\Temp\ccQfGIQ4.s:11195  .rodata.trans_props.12203:00000000 $d
C:\Users\gx\AppData\Local\Temp\ccQfGIQ4.s:11199  .rodata.trans_props.12203:00000000 trans_props.12203

UNDEFINED SYMBOLS
lv_obj_get_parent
lv_obj_check_type
lv_obj_add_style
lv_obj_get_child_id
lv_obj_class
lv_tabview_class
lv_win_class
lv_btn_class
lv_colorwheel_class
lv_line_class
lv_btnmatrix_class
lv_msgbox_class
lv_bar_class
lv_slider_class
lv_table_class
lv_checkbox_class
lv_switch_class
lv_chart_class
lv_roller_class
lv_dropdown_class
lv_dropdownlist_class
lv_arc_class
lv_spinner_class
lv_meter_class
lv_textarea_class
lv_calendar_class
lv_calendar_header_arrow_class
lv_calendar_header_dropdown_class
lv_keyboard_class
lv_list_class
lv_list_text_class
lv_list_btn_class
lv_spinbox_class
ARM GAS  C:\Users\gx\AppData\Local\Temp\ccQfGIQ4.s 			page 284


lv_tileview_class
lv_tileview_tile_class
lv_led_class
lv_palette_darken
lv_palette_lighten
lv_color_darken
lv_style_reset
lv_style_init
lv_style_transition_dsc_init
lv_style_set_transition
lv_style_set_bg_color
lv_style_set_radius
lv_disp_get_dpi
lv_style_set_pad_right
lv_style_set_pad_top
lv_style_set_width
lv_style_set_height
lv_style_set_bg_opa
lv_style_set_text_color
lv_style_set_pad_row
lv_style_set_pad_column
lv_style_set_border_color
lv_style_set_border_width
lv_style_set_border_post
lv_style_set_pad_left
lv_style_set_pad_bottom
lv_anim_path_linear
lv_palette_main
lv_style_set_line_color
lv_style_set_line_width
lv_style_set_outline_color
lv_style_set_outline_width
lv_style_set_outline_pad
lv_style_set_outline_opa
lv_style_set_color_filter_dsc
lv_style_set_color_filter_opa
lv_style_set_clip_corner
lv_style_set_text_line_space
lv_style_set_text_align
lv_style_set_transform_width
lv_style_set_transform_height
lv_style_set_anim_time
lv_style_set_arc_color
lv_style_set_arc_width
lv_style_set_arc_rounded
lv_style_set_max_height
lv_style_set_bg_img_src
lv_style_set_text_font
lv_style_set_border_side
lv_style_set_max_width
lv_style_set_shadow_width
lv_style_set_bg_grad_color
lv_style_set_shadow_color
lv_style_set_shadow_spread
lv_style_set_shadow_ofs_y
lv_disp_get_default
lv_disp_get_hor_res
ARM GAS  C:\Users\gx\AppData\Local\Temp\ccQfGIQ4.s 			page 285


lv_disp_get_theme
lv_obj_report_style_change
lv_mem_alloc
_lv_theme_default_styles
