ARM GAS  C:\Users\gx\AppData\Local\Temp\ccSIsGPa.s 			page 1


   1              		.cpu cortex-m4
   2              		.eabi_attribute 27, 1
   3              		.eabi_attribute 28, 1
   4              		.eabi_attribute 20, 1
   5              		.eabi_attribute 21, 1
   6              		.eabi_attribute 23, 3
   7              		.eabi_attribute 24, 1
   8              		.eabi_attribute 25, 1
   9              		.eabi_attribute 26, 1
  10              		.eabi_attribute 30, 1
  11              		.eabi_attribute 34, 1
  12              		.eabi_attribute 18, 4
  13              		.file	"lv_table.c"
  14              		.text
  15              	.Ltext0:
  16              		.cfi_sections	.debug_frame
  17              		.section	.text.get_row_height,"ax",%progbits
  18              		.align	1
  19              		.arch armv7e-m
  20              		.syntax unified
  21              		.thumb
  22              		.thumb_func
  23              		.fpu fpv4-sp-d16
  25              	get_row_height:
  26              	.LVL0:
  27              	.LFB171:
  28              		.file 1 "lvgl/lvgl/src/widgets/lv_table.c"
   1:lvgl/lvgl/src/widgets/lv_table.c **** /**
   2:lvgl/lvgl/src/widgets/lv_table.c ****  * @file lv_table.c
   3:lvgl/lvgl/src/widgets/lv_table.c ****  *
   4:lvgl/lvgl/src/widgets/lv_table.c ****  */
   5:lvgl/lvgl/src/widgets/lv_table.c **** 
   6:lvgl/lvgl/src/widgets/lv_table.c **** /*********************
   7:lvgl/lvgl/src/widgets/lv_table.c ****  *      INCLUDES
   8:lvgl/lvgl/src/widgets/lv_table.c ****  *********************/
   9:lvgl/lvgl/src/widgets/lv_table.c **** #include "lv_table.h"
  10:lvgl/lvgl/src/widgets/lv_table.c **** #if LV_USE_TABLE != 0
  11:lvgl/lvgl/src/widgets/lv_table.c **** 
  12:lvgl/lvgl/src/widgets/lv_table.c **** #include "../core/lv_indev.h"
  13:lvgl/lvgl/src/widgets/lv_table.c **** #include "../misc/lv_assert.h"
  14:lvgl/lvgl/src/widgets/lv_table.c **** #include "../misc/lv_txt.h"
  15:lvgl/lvgl/src/widgets/lv_table.c **** #include "../misc/lv_txt_ap.h"
  16:lvgl/lvgl/src/widgets/lv_table.c **** #include "../misc/lv_math.h"
  17:lvgl/lvgl/src/widgets/lv_table.c **** #include "../misc/lv_printf.h"
  18:lvgl/lvgl/src/widgets/lv_table.c **** #include "../draw/lv_draw.h"
  19:lvgl/lvgl/src/widgets/lv_table.c **** 
  20:lvgl/lvgl/src/widgets/lv_table.c **** /*********************
  21:lvgl/lvgl/src/widgets/lv_table.c ****  *      DEFINES
  22:lvgl/lvgl/src/widgets/lv_table.c ****  *********************/
  23:lvgl/lvgl/src/widgets/lv_table.c **** #define MY_CLASS &lv_table_class
  24:lvgl/lvgl/src/widgets/lv_table.c **** 
  25:lvgl/lvgl/src/widgets/lv_table.c **** /**********************
  26:lvgl/lvgl/src/widgets/lv_table.c ****  *      TYPEDEFS
  27:lvgl/lvgl/src/widgets/lv_table.c ****  **********************/
  28:lvgl/lvgl/src/widgets/lv_table.c **** 
  29:lvgl/lvgl/src/widgets/lv_table.c **** /**********************
  30:lvgl/lvgl/src/widgets/lv_table.c ****  *  STATIC PROTOTYPES
ARM GAS  C:\Users\gx\AppData\Local\Temp\ccSIsGPa.s 			page 2


  31:lvgl/lvgl/src/widgets/lv_table.c ****  **********************/
  32:lvgl/lvgl/src/widgets/lv_table.c **** static void lv_table_constructor(const lv_obj_class_t * class_p, lv_obj_t * obj);
  33:lvgl/lvgl/src/widgets/lv_table.c **** static void lv_table_destructor(const lv_obj_class_t * class_p, lv_obj_t * obj);
  34:lvgl/lvgl/src/widgets/lv_table.c **** static void lv_table_event(const lv_obj_class_t * class_p, lv_event_t * e);
  35:lvgl/lvgl/src/widgets/lv_table.c **** static void draw_main(lv_event_t * e);
  36:lvgl/lvgl/src/widgets/lv_table.c **** static lv_coord_t get_row_height(lv_obj_t * obj, uint16_t row_id, const lv_font_t * font,
  37:lvgl/lvgl/src/widgets/lv_table.c ****                                  lv_coord_t letter_space, lv_coord_t line_space,
  38:lvgl/lvgl/src/widgets/lv_table.c ****                                  lv_coord_t cell_left, lv_coord_t cell_right, lv_coord_t cell_top, 
  39:lvgl/lvgl/src/widgets/lv_table.c **** static void refr_size(lv_obj_t * obj, uint32_t strat_row);
  40:lvgl/lvgl/src/widgets/lv_table.c **** static lv_res_t get_pressed_cell(lv_obj_t * obj, uint16_t * row, uint16_t * col);
  41:lvgl/lvgl/src/widgets/lv_table.c **** 
  42:lvgl/lvgl/src/widgets/lv_table.c **** /**********************
  43:lvgl/lvgl/src/widgets/lv_table.c ****  *  STATIC VARIABLES
  44:lvgl/lvgl/src/widgets/lv_table.c ****  **********************/
  45:lvgl/lvgl/src/widgets/lv_table.c **** const lv_obj_class_t lv_table_class  = {
  46:lvgl/lvgl/src/widgets/lv_table.c ****     .constructor_cb = lv_table_constructor,
  47:lvgl/lvgl/src/widgets/lv_table.c ****     .destructor_cb = lv_table_destructor,
  48:lvgl/lvgl/src/widgets/lv_table.c ****     .event_cb = lv_table_event,
  49:lvgl/lvgl/src/widgets/lv_table.c ****     .width_def = LV_SIZE_CONTENT,
  50:lvgl/lvgl/src/widgets/lv_table.c ****     .height_def = LV_SIZE_CONTENT,
  51:lvgl/lvgl/src/widgets/lv_table.c ****     .base_class = &lv_obj_class,
  52:lvgl/lvgl/src/widgets/lv_table.c ****     .editable = LV_OBJ_CLASS_EDITABLE_TRUE,
  53:lvgl/lvgl/src/widgets/lv_table.c ****     .group_def = LV_OBJ_CLASS_GROUP_DEF_TRUE,
  54:lvgl/lvgl/src/widgets/lv_table.c ****     .instance_size = sizeof(lv_table_t),
  55:lvgl/lvgl/src/widgets/lv_table.c **** };
  56:lvgl/lvgl/src/widgets/lv_table.c **** /**********************
  57:lvgl/lvgl/src/widgets/lv_table.c ****  *      MACROS
  58:lvgl/lvgl/src/widgets/lv_table.c ****  **********************/
  59:lvgl/lvgl/src/widgets/lv_table.c **** 
  60:lvgl/lvgl/src/widgets/lv_table.c **** /**********************
  61:lvgl/lvgl/src/widgets/lv_table.c ****  *   GLOBAL FUNCTIONS
  62:lvgl/lvgl/src/widgets/lv_table.c ****  **********************/
  63:lvgl/lvgl/src/widgets/lv_table.c **** 
  64:lvgl/lvgl/src/widgets/lv_table.c **** lv_obj_t * lv_table_create(lv_obj_t * parent)
  65:lvgl/lvgl/src/widgets/lv_table.c **** {
  66:lvgl/lvgl/src/widgets/lv_table.c ****     LV_LOG_INFO("begin")
  67:lvgl/lvgl/src/widgets/lv_table.c ****     lv_obj_t * obj = lv_obj_class_create_obj(MY_CLASS, parent);
  68:lvgl/lvgl/src/widgets/lv_table.c ****     lv_obj_class_init_obj(obj);
  69:lvgl/lvgl/src/widgets/lv_table.c ****     return obj;
  70:lvgl/lvgl/src/widgets/lv_table.c **** }
  71:lvgl/lvgl/src/widgets/lv_table.c **** 
  72:lvgl/lvgl/src/widgets/lv_table.c **** /*=====================
  73:lvgl/lvgl/src/widgets/lv_table.c ****  * Setter functions
  74:lvgl/lvgl/src/widgets/lv_table.c ****  *====================*/
  75:lvgl/lvgl/src/widgets/lv_table.c **** 
  76:lvgl/lvgl/src/widgets/lv_table.c **** void lv_table_set_cell_value(lv_obj_t * obj, uint16_t row, uint16_t col, const char * txt)
  77:lvgl/lvgl/src/widgets/lv_table.c **** {
  78:lvgl/lvgl/src/widgets/lv_table.c ****     LV_ASSERT_OBJ(obj, MY_CLASS);
  79:lvgl/lvgl/src/widgets/lv_table.c ****     LV_ASSERT_NULL(txt);
  80:lvgl/lvgl/src/widgets/lv_table.c **** 
  81:lvgl/lvgl/src/widgets/lv_table.c ****     lv_table_t * table = (lv_table_t *)obj;
  82:lvgl/lvgl/src/widgets/lv_table.c **** 
  83:lvgl/lvgl/src/widgets/lv_table.c ****     /*Auto expand*/
  84:lvgl/lvgl/src/widgets/lv_table.c ****     if(col >= table->col_cnt) lv_table_set_col_cnt(obj, col + 1);
  85:lvgl/lvgl/src/widgets/lv_table.c ****     if(row >= table->row_cnt) lv_table_set_row_cnt(obj, row + 1);
  86:lvgl/lvgl/src/widgets/lv_table.c **** 
  87:lvgl/lvgl/src/widgets/lv_table.c ****     uint32_t cell = row * table->col_cnt + col;
ARM GAS  C:\Users\gx\AppData\Local\Temp\ccSIsGPa.s 			page 3


  88:lvgl/lvgl/src/widgets/lv_table.c ****     lv_table_cell_ctrl_t ctrl = 0;
  89:lvgl/lvgl/src/widgets/lv_table.c **** 
  90:lvgl/lvgl/src/widgets/lv_table.c ****     /*Save the control byte*/
  91:lvgl/lvgl/src/widgets/lv_table.c ****     if(table->cell_data[cell]) ctrl = table->cell_data[cell][0];
  92:lvgl/lvgl/src/widgets/lv_table.c **** 
  93:lvgl/lvgl/src/widgets/lv_table.c **** #if LV_USE_ARABIC_PERSIAN_CHARS
  94:lvgl/lvgl/src/widgets/lv_table.c ****     /*Get the size of the Arabic text and process it*/
  95:lvgl/lvgl/src/widgets/lv_table.c ****     size_t len_ap = _lv_txt_ap_calc_bytes_cnt(txt);
  96:lvgl/lvgl/src/widgets/lv_table.c ****     table->cell_data[cell] = lv_mem_realloc(table->cell_data[cell], len_ap + 1);
  97:lvgl/lvgl/src/widgets/lv_table.c ****     LV_ASSERT_MALLOC(table->cell_data[cell]);
  98:lvgl/lvgl/src/widgets/lv_table.c ****     if(table->cell_data[cell] == NULL) return;
  99:lvgl/lvgl/src/widgets/lv_table.c **** 
 100:lvgl/lvgl/src/widgets/lv_table.c ****     _lv_txt_ap_proc(txt, &table->cell_data[cell][1]);
 101:lvgl/lvgl/src/widgets/lv_table.c **** #else
 102:lvgl/lvgl/src/widgets/lv_table.c ****     table->cell_data[cell] = lv_mem_realloc(table->cell_data[cell], strlen(txt) + 2); /*+1: trailin
 103:lvgl/lvgl/src/widgets/lv_table.c ****     LV_ASSERT_MALLOC(table->cell_data[cell]);
 104:lvgl/lvgl/src/widgets/lv_table.c **** 
 105:lvgl/lvgl/src/widgets/lv_table.c ****     strcpy(table->cell_data[cell] + 1, txt);  /*+1 to skip the format byte*/
 106:lvgl/lvgl/src/widgets/lv_table.c **** #endif
 107:lvgl/lvgl/src/widgets/lv_table.c **** 
 108:lvgl/lvgl/src/widgets/lv_table.c ****     table->cell_data[cell][0] = ctrl;
 109:lvgl/lvgl/src/widgets/lv_table.c ****     refr_size(obj, row);
 110:lvgl/lvgl/src/widgets/lv_table.c **** 
 111:lvgl/lvgl/src/widgets/lv_table.c ****     lv_obj_invalidate(obj);
 112:lvgl/lvgl/src/widgets/lv_table.c **** }
 113:lvgl/lvgl/src/widgets/lv_table.c **** 
 114:lvgl/lvgl/src/widgets/lv_table.c **** void lv_table_set_cell_value_fmt(lv_obj_t * obj, uint16_t row, uint16_t col, const char * fmt, ...)
 115:lvgl/lvgl/src/widgets/lv_table.c **** {
 116:lvgl/lvgl/src/widgets/lv_table.c ****     LV_ASSERT_OBJ(obj, MY_CLASS);
 117:lvgl/lvgl/src/widgets/lv_table.c ****     LV_ASSERT_NULL(fmt);
 118:lvgl/lvgl/src/widgets/lv_table.c **** 
 119:lvgl/lvgl/src/widgets/lv_table.c ****     lv_table_t * table = (lv_table_t *)obj;
 120:lvgl/lvgl/src/widgets/lv_table.c ****     if(col >= table->col_cnt) {
 121:lvgl/lvgl/src/widgets/lv_table.c ****         LV_LOG_WARN("lv_table_set_cell_value: invalid column");
 122:lvgl/lvgl/src/widgets/lv_table.c ****         return;
 123:lvgl/lvgl/src/widgets/lv_table.c ****     }
 124:lvgl/lvgl/src/widgets/lv_table.c **** 
 125:lvgl/lvgl/src/widgets/lv_table.c ****     /*Auto expand*/
 126:lvgl/lvgl/src/widgets/lv_table.c ****     if(row >= table->row_cnt) {
 127:lvgl/lvgl/src/widgets/lv_table.c ****         lv_table_set_row_cnt(obj, row + 1);
 128:lvgl/lvgl/src/widgets/lv_table.c ****     }
 129:lvgl/lvgl/src/widgets/lv_table.c **** 
 130:lvgl/lvgl/src/widgets/lv_table.c ****     uint32_t cell = row * table->col_cnt + col;
 131:lvgl/lvgl/src/widgets/lv_table.c ****     lv_table_cell_ctrl_t ctrl = 0;
 132:lvgl/lvgl/src/widgets/lv_table.c **** 
 133:lvgl/lvgl/src/widgets/lv_table.c ****     /*Save the control byte*/
 134:lvgl/lvgl/src/widgets/lv_table.c ****     if(table->cell_data[cell]) ctrl= table->cell_data[cell][0];
 135:lvgl/lvgl/src/widgets/lv_table.c **** 
 136:lvgl/lvgl/src/widgets/lv_table.c ****     va_list ap, ap2;
 137:lvgl/lvgl/src/widgets/lv_table.c ****     va_start(ap, fmt);
 138:lvgl/lvgl/src/widgets/lv_table.c ****     va_copy(ap2, ap);
 139:lvgl/lvgl/src/widgets/lv_table.c **** 
 140:lvgl/lvgl/src/widgets/lv_table.c ****     /*Allocate space for the new text by using trick from C99 standard section 7.19.6.12*/
 141:lvgl/lvgl/src/widgets/lv_table.c ****     uint32_t len = lv_vsnprintf(NULL, 0, fmt, ap);
 142:lvgl/lvgl/src/widgets/lv_table.c ****     va_end(ap);
 143:lvgl/lvgl/src/widgets/lv_table.c **** 
 144:lvgl/lvgl/src/widgets/lv_table.c **** #if LV_USE_ARABIC_PERSIAN_CHARS
ARM GAS  C:\Users\gx\AppData\Local\Temp\ccSIsGPa.s 			page 4


 145:lvgl/lvgl/src/widgets/lv_table.c ****     /*Put together the text according to the format string*/
 146:lvgl/lvgl/src/widgets/lv_table.c ****     char * raw_txt = lv_mem_buf_get(len + 1);
 147:lvgl/lvgl/src/widgets/lv_table.c ****     LV_ASSERT_MALLOC(raw_txt);
 148:lvgl/lvgl/src/widgets/lv_table.c ****     if(raw_txt == NULL) {
 149:lvgl/lvgl/src/widgets/lv_table.c ****         va_end(ap2);
 150:lvgl/lvgl/src/widgets/lv_table.c ****         return;
 151:lvgl/lvgl/src/widgets/lv_table.c ****     }
 152:lvgl/lvgl/src/widgets/lv_table.c **** 
 153:lvgl/lvgl/src/widgets/lv_table.c ****     lv_vsnprintf(raw_txt, len + 1, fmt, ap2);
 154:lvgl/lvgl/src/widgets/lv_table.c **** 
 155:lvgl/lvgl/src/widgets/lv_table.c ****     /*Get the size of the Arabic text and process it*/
 156:lvgl/lvgl/src/widgets/lv_table.c ****     size_t len_ap = _lv_txt_ap_calc_bytes_cnt(raw_txt);
 157:lvgl/lvgl/src/widgets/lv_table.c ****     table->cell_data[cell] = lv_mem_realloc(table->cell_data[cell], len_ap + 1);
 158:lvgl/lvgl/src/widgets/lv_table.c ****     LV_ASSERT_MALLOC(table->cell_data[cell]);
 159:lvgl/lvgl/src/widgets/lv_table.c ****     if(table->cell_data[cell] == NULL) {
 160:lvgl/lvgl/src/widgets/lv_table.c ****         va_end(ap2);
 161:lvgl/lvgl/src/widgets/lv_table.c ****         return;
 162:lvgl/lvgl/src/widgets/lv_table.c ****     }
 163:lvgl/lvgl/src/widgets/lv_table.c ****     _lv_txt_ap_proc(raw_txt, &table->cell_data[cell][1]);
 164:lvgl/lvgl/src/widgets/lv_table.c **** 
 165:lvgl/lvgl/src/widgets/lv_table.c ****     lv_mem_buf_release(raw_txt);
 166:lvgl/lvgl/src/widgets/lv_table.c **** #else
 167:lvgl/lvgl/src/widgets/lv_table.c ****     table->cell_data[cell] = lv_mem_realloc(table->cell_data[cell], len + 2); /*+1: trailing '\0; +
 168:lvgl/lvgl/src/widgets/lv_table.c ****     LV_ASSERT_MALLOC(table->cell_data[cell]);
 169:lvgl/lvgl/src/widgets/lv_table.c ****     if(table->cell_data[cell] == NULL) {
 170:lvgl/lvgl/src/widgets/lv_table.c ****         va_end(ap2);
 171:lvgl/lvgl/src/widgets/lv_table.c ****         return;
 172:lvgl/lvgl/src/widgets/lv_table.c ****     }
 173:lvgl/lvgl/src/widgets/lv_table.c **** 
 174:lvgl/lvgl/src/widgets/lv_table.c ****     table->cell_data[cell][len + 1] = 0; /*Ensure NULL termination*/
 175:lvgl/lvgl/src/widgets/lv_table.c **** 
 176:lvgl/lvgl/src/widgets/lv_table.c ****     lv_vsnprintf(&table->cell_data[cell][1], len + 1, fmt, ap2);
 177:lvgl/lvgl/src/widgets/lv_table.c **** #endif
 178:lvgl/lvgl/src/widgets/lv_table.c **** 
 179:lvgl/lvgl/src/widgets/lv_table.c ****     va_end(ap2);
 180:lvgl/lvgl/src/widgets/lv_table.c **** 
 181:lvgl/lvgl/src/widgets/lv_table.c ****     table->cell_data[cell][0] = ctrl;
 182:lvgl/lvgl/src/widgets/lv_table.c **** 
 183:lvgl/lvgl/src/widgets/lv_table.c ****     /*Refresh the row height*/
 184:lvgl/lvgl/src/widgets/lv_table.c ****     lv_coord_t cell_left = lv_obj_get_style_pad_left(obj, LV_PART_ITEMS);
 185:lvgl/lvgl/src/widgets/lv_table.c ****     lv_coord_t cell_right = lv_obj_get_style_pad_right(obj, LV_PART_ITEMS);
 186:lvgl/lvgl/src/widgets/lv_table.c ****     lv_coord_t cell_top = lv_obj_get_style_pad_top(obj, LV_PART_ITEMS);
 187:lvgl/lvgl/src/widgets/lv_table.c ****     lv_coord_t cell_bottom = lv_obj_get_style_pad_bottom(obj, LV_PART_ITEMS);
 188:lvgl/lvgl/src/widgets/lv_table.c **** 
 189:lvgl/lvgl/src/widgets/lv_table.c ****     lv_coord_t letter_space = lv_obj_get_style_text_letter_space(obj, LV_PART_ITEMS);
 190:lvgl/lvgl/src/widgets/lv_table.c ****     lv_coord_t line_space = lv_obj_get_style_text_line_space(obj, LV_PART_ITEMS);
 191:lvgl/lvgl/src/widgets/lv_table.c ****     const lv_font_t * font = lv_obj_get_style_text_font(obj, LV_PART_ITEMS);
 192:lvgl/lvgl/src/widgets/lv_table.c **** 
 193:lvgl/lvgl/src/widgets/lv_table.c ****     lv_coord_t h = get_row_height(obj, row, font, letter_space, line_space,
 194:lvgl/lvgl/src/widgets/lv_table.c ****                                        cell_left, cell_right, cell_top, cell_bottom);
 195:lvgl/lvgl/src/widgets/lv_table.c **** 
 196:lvgl/lvgl/src/widgets/lv_table.c **** 
 197:lvgl/lvgl/src/widgets/lv_table.c ****     lv_coord_t minh = lv_obj_get_style_min_height(obj, LV_PART_ITEMS);
 198:lvgl/lvgl/src/widgets/lv_table.c ****     lv_coord_t maxh = lv_obj_get_style_max_height(obj, LV_PART_ITEMS);
 199:lvgl/lvgl/src/widgets/lv_table.c **** 
 200:lvgl/lvgl/src/widgets/lv_table.c ****     table->row_h[row] = LV_CLAMP(minh, h, maxh);
 201:lvgl/lvgl/src/widgets/lv_table.c **** 
ARM GAS  C:\Users\gx\AppData\Local\Temp\ccSIsGPa.s 			page 5


 202:lvgl/lvgl/src/widgets/lv_table.c ****     lv_obj_invalidate(obj);
 203:lvgl/lvgl/src/widgets/lv_table.c **** }
 204:lvgl/lvgl/src/widgets/lv_table.c **** 
 205:lvgl/lvgl/src/widgets/lv_table.c **** void lv_table_set_row_cnt(lv_obj_t * obj, uint16_t row_cnt)
 206:lvgl/lvgl/src/widgets/lv_table.c **** {
 207:lvgl/lvgl/src/widgets/lv_table.c ****     LV_ASSERT_OBJ(obj, MY_CLASS);
 208:lvgl/lvgl/src/widgets/lv_table.c **** 
 209:lvgl/lvgl/src/widgets/lv_table.c ****     lv_table_t * table = (lv_table_t *)obj;
 210:lvgl/lvgl/src/widgets/lv_table.c ****     uint16_t old_row_cnt = table->row_cnt;
 211:lvgl/lvgl/src/widgets/lv_table.c ****     table->row_cnt         = row_cnt;
 212:lvgl/lvgl/src/widgets/lv_table.c **** 
 213:lvgl/lvgl/src/widgets/lv_table.c ****     table->row_h = lv_mem_realloc(table->row_h, table->row_cnt * sizeof(table->row_h[0]));
 214:lvgl/lvgl/src/widgets/lv_table.c ****     LV_ASSERT_MALLOC(table->row_h);
 215:lvgl/lvgl/src/widgets/lv_table.c ****     if(table->row_h == NULL) return;
 216:lvgl/lvgl/src/widgets/lv_table.c **** 
 217:lvgl/lvgl/src/widgets/lv_table.c ****     /*Free the unused cells*/
 218:lvgl/lvgl/src/widgets/lv_table.c ****     if(old_row_cnt > row_cnt) {
 219:lvgl/lvgl/src/widgets/lv_table.c ****         uint16_t old_cell_cnt = old_row_cnt * table->col_cnt;
 220:lvgl/lvgl/src/widgets/lv_table.c ****         uint32_t new_cell_cnt = table->col_cnt * table->row_cnt;
 221:lvgl/lvgl/src/widgets/lv_table.c ****         uint32_t i;
 222:lvgl/lvgl/src/widgets/lv_table.c ****         for(i = new_cell_cnt; i < old_cell_cnt; i++) {
 223:lvgl/lvgl/src/widgets/lv_table.c ****             lv_mem_free(table->cell_data[i]);
 224:lvgl/lvgl/src/widgets/lv_table.c ****         }
 225:lvgl/lvgl/src/widgets/lv_table.c ****     }
 226:lvgl/lvgl/src/widgets/lv_table.c **** 
 227:lvgl/lvgl/src/widgets/lv_table.c ****     table->cell_data = lv_mem_realloc(table->cell_data, table->row_cnt * table->col_cnt * sizeof(ch
 228:lvgl/lvgl/src/widgets/lv_table.c ****     LV_ASSERT_MALLOC(table->cell_data);
 229:lvgl/lvgl/src/widgets/lv_table.c ****     if(table->cell_data == NULL) return;
 230:lvgl/lvgl/src/widgets/lv_table.c **** 
 231:lvgl/lvgl/src/widgets/lv_table.c ****     /*Initialize the new fields*/
 232:lvgl/lvgl/src/widgets/lv_table.c ****     if(old_row_cnt < row_cnt) {
 233:lvgl/lvgl/src/widgets/lv_table.c ****         uint32_t old_cell_cnt = old_row_cnt * table->col_cnt;
 234:lvgl/lvgl/src/widgets/lv_table.c ****         uint32_t new_cell_cnt = table->col_cnt * table->row_cnt;
 235:lvgl/lvgl/src/widgets/lv_table.c ****         lv_memset_00(&table->cell_data[old_cell_cnt], (new_cell_cnt - old_cell_cnt) * sizeof(table-
 236:lvgl/lvgl/src/widgets/lv_table.c ****     }
 237:lvgl/lvgl/src/widgets/lv_table.c **** 
 238:lvgl/lvgl/src/widgets/lv_table.c ****     refr_size(obj, 0) ;
 239:lvgl/lvgl/src/widgets/lv_table.c **** }
 240:lvgl/lvgl/src/widgets/lv_table.c **** 
 241:lvgl/lvgl/src/widgets/lv_table.c **** void lv_table_set_col_cnt(lv_obj_t * obj, uint16_t col_cnt)
 242:lvgl/lvgl/src/widgets/lv_table.c **** {
 243:lvgl/lvgl/src/widgets/lv_table.c ****     LV_ASSERT_OBJ(obj, MY_CLASS);
 244:lvgl/lvgl/src/widgets/lv_table.c **** 
 245:lvgl/lvgl/src/widgets/lv_table.c ****     lv_table_t * table = (lv_table_t *)obj;
 246:lvgl/lvgl/src/widgets/lv_table.c ****     uint16_t old_col_cnt = table->col_cnt;
 247:lvgl/lvgl/src/widgets/lv_table.c ****     table->col_cnt         = col_cnt;
 248:lvgl/lvgl/src/widgets/lv_table.c ****     table->col_w = lv_mem_realloc(table->col_w, col_cnt * sizeof(table->row_h[0]));
 249:lvgl/lvgl/src/widgets/lv_table.c ****     LV_ASSERT_MALLOC(table->col_w);
 250:lvgl/lvgl/src/widgets/lv_table.c ****     if(table->col_w == NULL) return;
 251:lvgl/lvgl/src/widgets/lv_table.c **** 
 252:lvgl/lvgl/src/widgets/lv_table.c ****     /*Free the unused cells*/
 253:lvgl/lvgl/src/widgets/lv_table.c ****     if(old_col_cnt > col_cnt) {
 254:lvgl/lvgl/src/widgets/lv_table.c ****        uint16_t old_cell_cnt = old_col_cnt * table->row_cnt;
 255:lvgl/lvgl/src/widgets/lv_table.c ****        uint32_t new_cell_cnt = table->col_cnt * table->row_cnt;
 256:lvgl/lvgl/src/widgets/lv_table.c ****        uint32_t i;
 257:lvgl/lvgl/src/widgets/lv_table.c ****        for(i = new_cell_cnt; i < old_cell_cnt; i++) {
 258:lvgl/lvgl/src/widgets/lv_table.c ****            lv_mem_free(table->cell_data[i]);
ARM GAS  C:\Users\gx\AppData\Local\Temp\ccSIsGPa.s 			page 6


 259:lvgl/lvgl/src/widgets/lv_table.c ****        }
 260:lvgl/lvgl/src/widgets/lv_table.c ****    }
 261:lvgl/lvgl/src/widgets/lv_table.c **** 
 262:lvgl/lvgl/src/widgets/lv_table.c ****     char ** new_cell_data = lv_mem_alloc(table->row_cnt * table->col_cnt * sizeof(char *));
 263:lvgl/lvgl/src/widgets/lv_table.c ****     LV_ASSERT_MALLOC(new_cell_data);
 264:lvgl/lvgl/src/widgets/lv_table.c ****     if(new_cell_data == NULL) return;
 265:lvgl/lvgl/src/widgets/lv_table.c ****     uint32_t new_cell_cnt = table->col_cnt * table->row_cnt;
 266:lvgl/lvgl/src/widgets/lv_table.c ****     lv_memset_00(new_cell_data, new_cell_cnt * sizeof(table->cell_data[0]));
 267:lvgl/lvgl/src/widgets/lv_table.c **** 
 268:lvgl/lvgl/src/widgets/lv_table.c ****     /*Initialize the new fields*/
 269:lvgl/lvgl/src/widgets/lv_table.c ****     if(old_col_cnt < col_cnt) {
 270:lvgl/lvgl/src/widgets/lv_table.c ****         uint32_t col;
 271:lvgl/lvgl/src/widgets/lv_table.c ****         for(col = old_col_cnt; col < col_cnt; col++) {
 272:lvgl/lvgl/src/widgets/lv_table.c ****             table->col_w[col] = LV_DPI_DEF;
 273:lvgl/lvgl/src/widgets/lv_table.c ****         }
 274:lvgl/lvgl/src/widgets/lv_table.c ****     }
 275:lvgl/lvgl/src/widgets/lv_table.c **** 
 276:lvgl/lvgl/src/widgets/lv_table.c ****     /*The new column(s) messes up the mapping of `cell_data`*/
 277:lvgl/lvgl/src/widgets/lv_table.c ****     uint32_t old_col_start;
 278:lvgl/lvgl/src/widgets/lv_table.c ****     uint32_t new_col_start;
 279:lvgl/lvgl/src/widgets/lv_table.c ****     uint32_t min_col_cnt = LV_MIN(old_col_cnt, col_cnt);
 280:lvgl/lvgl/src/widgets/lv_table.c ****     uint32_t row;
 281:lvgl/lvgl/src/widgets/lv_table.c ****     for(row = 0; row < table->row_cnt; row++) {
 282:lvgl/lvgl/src/widgets/lv_table.c ****         old_col_start = row * old_col_cnt;
 283:lvgl/lvgl/src/widgets/lv_table.c ****         new_col_start = row * col_cnt;
 284:lvgl/lvgl/src/widgets/lv_table.c **** 
 285:lvgl/lvgl/src/widgets/lv_table.c ****         lv_memcpy_small(&new_cell_data[new_col_start], &table->cell_data[old_col_start], sizeof(new
 286:lvgl/lvgl/src/widgets/lv_table.c ****     }
 287:lvgl/lvgl/src/widgets/lv_table.c **** 
 288:lvgl/lvgl/src/widgets/lv_table.c ****     lv_mem_free(table->cell_data);
 289:lvgl/lvgl/src/widgets/lv_table.c ****     table->cell_data = new_cell_data;
 290:lvgl/lvgl/src/widgets/lv_table.c **** 
 291:lvgl/lvgl/src/widgets/lv_table.c **** 
 292:lvgl/lvgl/src/widgets/lv_table.c ****     refr_size(obj, 0) ;
 293:lvgl/lvgl/src/widgets/lv_table.c **** }
 294:lvgl/lvgl/src/widgets/lv_table.c **** 
 295:lvgl/lvgl/src/widgets/lv_table.c **** void lv_table_set_col_width(lv_obj_t * obj, uint16_t col_id, lv_coord_t w)
 296:lvgl/lvgl/src/widgets/lv_table.c **** {
 297:lvgl/lvgl/src/widgets/lv_table.c ****     LV_ASSERT_OBJ(obj, MY_CLASS);
 298:lvgl/lvgl/src/widgets/lv_table.c **** 
 299:lvgl/lvgl/src/widgets/lv_table.c ****     lv_table_t * table = (lv_table_t *)obj;
 300:lvgl/lvgl/src/widgets/lv_table.c **** 
 301:lvgl/lvgl/src/widgets/lv_table.c ****     /*Auto expand*/
 302:lvgl/lvgl/src/widgets/lv_table.c ****     if(col_id >= table->col_cnt) lv_table_set_col_cnt(obj, col_id + 1);
 303:lvgl/lvgl/src/widgets/lv_table.c **** 
 304:lvgl/lvgl/src/widgets/lv_table.c ****     table->col_w[col_id] = w;
 305:lvgl/lvgl/src/widgets/lv_table.c ****     refr_size(obj, 0) ;
 306:lvgl/lvgl/src/widgets/lv_table.c **** }
 307:lvgl/lvgl/src/widgets/lv_table.c **** 
 308:lvgl/lvgl/src/widgets/lv_table.c **** void lv_table_add_cell_ctrl(lv_obj_t * obj, uint16_t row, uint16_t col, lv_table_cell_ctrl_t ctrl)
 309:lvgl/lvgl/src/widgets/lv_table.c **** {
 310:lvgl/lvgl/src/widgets/lv_table.c ****     LV_ASSERT_OBJ(obj, MY_CLASS);
 311:lvgl/lvgl/src/widgets/lv_table.c **** 
 312:lvgl/lvgl/src/widgets/lv_table.c ****     lv_table_t * table = (lv_table_t *)obj;
 313:lvgl/lvgl/src/widgets/lv_table.c **** 
 314:lvgl/lvgl/src/widgets/lv_table.c ****     /*Auto expand*/
 315:lvgl/lvgl/src/widgets/lv_table.c ****     if(col >= table->col_cnt) lv_table_set_col_cnt(obj, col + 1);
ARM GAS  C:\Users\gx\AppData\Local\Temp\ccSIsGPa.s 			page 7


 316:lvgl/lvgl/src/widgets/lv_table.c ****     if(row >= table->row_cnt) lv_table_set_row_cnt(obj, row + 1);
 317:lvgl/lvgl/src/widgets/lv_table.c **** 
 318:lvgl/lvgl/src/widgets/lv_table.c ****     uint32_t cell = row * table->col_cnt + col;
 319:lvgl/lvgl/src/widgets/lv_table.c **** 
 320:lvgl/lvgl/src/widgets/lv_table.c ****     if(table->cell_data[cell] == NULL) {
 321:lvgl/lvgl/src/widgets/lv_table.c ****         table->cell_data[cell]    = lv_mem_alloc(2); /*+1: trailing '\0; +1: format byte*/
 322:lvgl/lvgl/src/widgets/lv_table.c ****         LV_ASSERT_MALLOC(table->cell_data[cell]);
 323:lvgl/lvgl/src/widgets/lv_table.c ****         if(table->cell_data[cell] == NULL) return;
 324:lvgl/lvgl/src/widgets/lv_table.c **** 
 325:lvgl/lvgl/src/widgets/lv_table.c ****         table->cell_data[cell][0] = 0;
 326:lvgl/lvgl/src/widgets/lv_table.c ****         table->cell_data[cell][1] = '\0';
 327:lvgl/lvgl/src/widgets/lv_table.c ****     }
 328:lvgl/lvgl/src/widgets/lv_table.c **** 
 329:lvgl/lvgl/src/widgets/lv_table.c ****     table->cell_data[cell][0] |= ctrl;
 330:lvgl/lvgl/src/widgets/lv_table.c **** }
 331:lvgl/lvgl/src/widgets/lv_table.c **** 
 332:lvgl/lvgl/src/widgets/lv_table.c **** void lv_table_clear_cell_ctrl(lv_obj_t * obj, uint16_t row, uint16_t col, lv_table_cell_ctrl_t ctrl
 333:lvgl/lvgl/src/widgets/lv_table.c **** {
 334:lvgl/lvgl/src/widgets/lv_table.c ****     LV_ASSERT_OBJ(obj, MY_CLASS);
 335:lvgl/lvgl/src/widgets/lv_table.c **** 
 336:lvgl/lvgl/src/widgets/lv_table.c ****     lv_table_t * table = (lv_table_t *)obj;
 337:lvgl/lvgl/src/widgets/lv_table.c **** 
 338:lvgl/lvgl/src/widgets/lv_table.c ****     /*Auto expand*/
 339:lvgl/lvgl/src/widgets/lv_table.c ****     if(col >= table->col_cnt) lv_table_set_col_cnt(obj, col + 1);
 340:lvgl/lvgl/src/widgets/lv_table.c ****     if(row >= table->row_cnt) lv_table_set_row_cnt(obj, row + 1);
 341:lvgl/lvgl/src/widgets/lv_table.c **** 
 342:lvgl/lvgl/src/widgets/lv_table.c ****     uint32_t cell = row * table->col_cnt + col;
 343:lvgl/lvgl/src/widgets/lv_table.c **** 
 344:lvgl/lvgl/src/widgets/lv_table.c ****     if(table->cell_data[cell] == NULL) {
 345:lvgl/lvgl/src/widgets/lv_table.c ****         table->cell_data[cell]    = lv_mem_alloc(2); /*+1: trailing '\0; +1: format byte*/
 346:lvgl/lvgl/src/widgets/lv_table.c ****         LV_ASSERT_MALLOC(table->cell_data[cell]);
 347:lvgl/lvgl/src/widgets/lv_table.c ****         if(table->cell_data[cell] == NULL) return;
 348:lvgl/lvgl/src/widgets/lv_table.c **** 
 349:lvgl/lvgl/src/widgets/lv_table.c ****         table->cell_data[cell][0] = 0;
 350:lvgl/lvgl/src/widgets/lv_table.c ****         table->cell_data[cell][1] = '\0';
 351:lvgl/lvgl/src/widgets/lv_table.c ****     }
 352:lvgl/lvgl/src/widgets/lv_table.c **** 
 353:lvgl/lvgl/src/widgets/lv_table.c ****     table->cell_data[cell][0] &= (~ctrl);
 354:lvgl/lvgl/src/widgets/lv_table.c **** }
 355:lvgl/lvgl/src/widgets/lv_table.c **** 
 356:lvgl/lvgl/src/widgets/lv_table.c **** /*=====================
 357:lvgl/lvgl/src/widgets/lv_table.c ****  * Getter functions
 358:lvgl/lvgl/src/widgets/lv_table.c ****  *====================*/
 359:lvgl/lvgl/src/widgets/lv_table.c **** 
 360:lvgl/lvgl/src/widgets/lv_table.c **** const char * lv_table_get_cell_value(lv_obj_t * obj, uint16_t row, uint16_t col)
 361:lvgl/lvgl/src/widgets/lv_table.c **** {
 362:lvgl/lvgl/src/widgets/lv_table.c ****     LV_ASSERT_OBJ(obj, MY_CLASS);
 363:lvgl/lvgl/src/widgets/lv_table.c **** 
 364:lvgl/lvgl/src/widgets/lv_table.c ****     lv_table_t * table = (lv_table_t *)obj;
 365:lvgl/lvgl/src/widgets/lv_table.c ****     if(row >= table->row_cnt || col >= table->col_cnt) {
 366:lvgl/lvgl/src/widgets/lv_table.c ****         LV_LOG_WARN("lv_table_set_cell_value: invalid row or column");
 367:lvgl/lvgl/src/widgets/lv_table.c ****         return "";
 368:lvgl/lvgl/src/widgets/lv_table.c ****     }
 369:lvgl/lvgl/src/widgets/lv_table.c ****     uint32_t cell = row * table->col_cnt + col;
 370:lvgl/lvgl/src/widgets/lv_table.c **** 
 371:lvgl/lvgl/src/widgets/lv_table.c ****     if(table->cell_data[cell] == NULL) return "";
 372:lvgl/lvgl/src/widgets/lv_table.c **** 
ARM GAS  C:\Users\gx\AppData\Local\Temp\ccSIsGPa.s 			page 8


 373:lvgl/lvgl/src/widgets/lv_table.c ****     return &table->cell_data[cell][1]; /*Skip the format byte*/
 374:lvgl/lvgl/src/widgets/lv_table.c **** }
 375:lvgl/lvgl/src/widgets/lv_table.c **** 
 376:lvgl/lvgl/src/widgets/lv_table.c **** uint16_t lv_table_get_row_cnt(lv_obj_t * obj)
 377:lvgl/lvgl/src/widgets/lv_table.c **** {
 378:lvgl/lvgl/src/widgets/lv_table.c ****     LV_ASSERT_OBJ(obj, MY_CLASS);
 379:lvgl/lvgl/src/widgets/lv_table.c **** 
 380:lvgl/lvgl/src/widgets/lv_table.c ****     lv_table_t * table = (lv_table_t *)obj;
 381:lvgl/lvgl/src/widgets/lv_table.c ****     return table->row_cnt;
 382:lvgl/lvgl/src/widgets/lv_table.c **** }
 383:lvgl/lvgl/src/widgets/lv_table.c **** 
 384:lvgl/lvgl/src/widgets/lv_table.c **** uint16_t lv_table_get_col_cnt(lv_obj_t * obj)
 385:lvgl/lvgl/src/widgets/lv_table.c **** {
 386:lvgl/lvgl/src/widgets/lv_table.c ****     LV_ASSERT_OBJ(obj, MY_CLASS);
 387:lvgl/lvgl/src/widgets/lv_table.c **** 
 388:lvgl/lvgl/src/widgets/lv_table.c ****     lv_table_t * table = (lv_table_t *)obj;
 389:lvgl/lvgl/src/widgets/lv_table.c ****     return table->col_cnt;
 390:lvgl/lvgl/src/widgets/lv_table.c **** }
 391:lvgl/lvgl/src/widgets/lv_table.c **** 
 392:lvgl/lvgl/src/widgets/lv_table.c **** lv_coord_t lv_table_get_col_width(lv_obj_t * obj, uint16_t col)
 393:lvgl/lvgl/src/widgets/lv_table.c **** {
 394:lvgl/lvgl/src/widgets/lv_table.c ****     LV_ASSERT_OBJ(obj, MY_CLASS);
 395:lvgl/lvgl/src/widgets/lv_table.c **** 
 396:lvgl/lvgl/src/widgets/lv_table.c ****     lv_table_t * table = (lv_table_t *)obj;
 397:lvgl/lvgl/src/widgets/lv_table.c **** 
 398:lvgl/lvgl/src/widgets/lv_table.c ****     if(col >= table->col_cnt) {
 399:lvgl/lvgl/src/widgets/lv_table.c ****         LV_LOG_WARN("lv_table_set_col_width: too big 'col_id'. Must be < LV_TABLE_COL_MAX.");
 400:lvgl/lvgl/src/widgets/lv_table.c ****         return 0;
 401:lvgl/lvgl/src/widgets/lv_table.c ****     }
 402:lvgl/lvgl/src/widgets/lv_table.c **** 
 403:lvgl/lvgl/src/widgets/lv_table.c ****     return table->col_w[col];
 404:lvgl/lvgl/src/widgets/lv_table.c **** }
 405:lvgl/lvgl/src/widgets/lv_table.c **** 
 406:lvgl/lvgl/src/widgets/lv_table.c **** bool lv_table_has_cell_ctrl(lv_obj_t * obj, uint16_t row, uint16_t col, lv_table_cell_ctrl_t ctrl)
 407:lvgl/lvgl/src/widgets/lv_table.c **** {
 408:lvgl/lvgl/src/widgets/lv_table.c ****     LV_ASSERT_OBJ(obj, MY_CLASS);
 409:lvgl/lvgl/src/widgets/lv_table.c **** 
 410:lvgl/lvgl/src/widgets/lv_table.c ****     lv_table_t * table = (lv_table_t *)obj;
 411:lvgl/lvgl/src/widgets/lv_table.c ****     if(row >= table->row_cnt || col >= table->col_cnt) {
 412:lvgl/lvgl/src/widgets/lv_table.c ****         LV_LOG_WARN("lv_table_get_cell_crop: invalid row or column");
 413:lvgl/lvgl/src/widgets/lv_table.c ****         return false;
 414:lvgl/lvgl/src/widgets/lv_table.c ****     }
 415:lvgl/lvgl/src/widgets/lv_table.c ****     uint32_t cell = row * table->col_cnt + col;
 416:lvgl/lvgl/src/widgets/lv_table.c **** 
 417:lvgl/lvgl/src/widgets/lv_table.c ****     if(table->cell_data[cell] == NULL) return false;
 418:lvgl/lvgl/src/widgets/lv_table.c ****     else return (table->cell_data[cell][0] & ctrl) == ctrl ? true : false;
 419:lvgl/lvgl/src/widgets/lv_table.c **** }
 420:lvgl/lvgl/src/widgets/lv_table.c **** 
 421:lvgl/lvgl/src/widgets/lv_table.c **** void lv_table_get_selected_cell(lv_obj_t * obj, uint16_t * row, uint16_t * col)
 422:lvgl/lvgl/src/widgets/lv_table.c **** {
 423:lvgl/lvgl/src/widgets/lv_table.c ****     lv_table_t * table = (lv_table_t *)obj;
 424:lvgl/lvgl/src/widgets/lv_table.c ****     *row = table->row_act;
 425:lvgl/lvgl/src/widgets/lv_table.c ****     *col = table->col_act;
 426:lvgl/lvgl/src/widgets/lv_table.c **** }
 427:lvgl/lvgl/src/widgets/lv_table.c **** 
 428:lvgl/lvgl/src/widgets/lv_table.c **** /**********************
 429:lvgl/lvgl/src/widgets/lv_table.c ****  *   STATIC FUNCTIONS
ARM GAS  C:\Users\gx\AppData\Local\Temp\ccSIsGPa.s 			page 9


 430:lvgl/lvgl/src/widgets/lv_table.c ****  **********************/
 431:lvgl/lvgl/src/widgets/lv_table.c **** 
 432:lvgl/lvgl/src/widgets/lv_table.c **** static void lv_table_constructor(const lv_obj_class_t * class_p, lv_obj_t * obj)
 433:lvgl/lvgl/src/widgets/lv_table.c **** {
 434:lvgl/lvgl/src/widgets/lv_table.c ****     LV_UNUSED(class_p);
 435:lvgl/lvgl/src/widgets/lv_table.c ****     LV_TRACE_OBJ_CREATE("begin");
 436:lvgl/lvgl/src/widgets/lv_table.c **** 
 437:lvgl/lvgl/src/widgets/lv_table.c ****     lv_table_t * table = (lv_table_t *)obj;
 438:lvgl/lvgl/src/widgets/lv_table.c **** 
 439:lvgl/lvgl/src/widgets/lv_table.c ****     table->col_cnt = 1;
 440:lvgl/lvgl/src/widgets/lv_table.c ****     table->row_cnt = 1;
 441:lvgl/lvgl/src/widgets/lv_table.c ****     table->col_w = lv_mem_alloc(table->col_cnt * sizeof(table->col_w[0]));
 442:lvgl/lvgl/src/widgets/lv_table.c ****     table->row_h = lv_mem_alloc(table->row_cnt * sizeof(table->row_h[0]));
 443:lvgl/lvgl/src/widgets/lv_table.c ****     table->col_w[0] = LV_DPI_DEF;
 444:lvgl/lvgl/src/widgets/lv_table.c ****     table->row_h[0] = LV_DPI_DEF;
 445:lvgl/lvgl/src/widgets/lv_table.c ****     table->cell_data = lv_mem_realloc(table->cell_data, table->row_cnt * table->col_cnt * sizeof(ch
 446:lvgl/lvgl/src/widgets/lv_table.c ****     table->cell_data[0] = NULL;
 447:lvgl/lvgl/src/widgets/lv_table.c **** 
 448:lvgl/lvgl/src/widgets/lv_table.c ****     LV_TRACE_OBJ_CREATE("finished");
 449:lvgl/lvgl/src/widgets/lv_table.c **** }
 450:lvgl/lvgl/src/widgets/lv_table.c **** 
 451:lvgl/lvgl/src/widgets/lv_table.c **** static void lv_table_destructor(const lv_obj_class_t * class_p, lv_obj_t * obj)
 452:lvgl/lvgl/src/widgets/lv_table.c **** {
 453:lvgl/lvgl/src/widgets/lv_table.c ****     LV_UNUSED(class_p);
 454:lvgl/lvgl/src/widgets/lv_table.c ****     lv_table_t * table = (lv_table_t *)obj;
 455:lvgl/lvgl/src/widgets/lv_table.c ****     /*Free the cell texts*/
 456:lvgl/lvgl/src/widgets/lv_table.c ****     uint16_t i;
 457:lvgl/lvgl/src/widgets/lv_table.c ****     for(i = 0; i < table->col_cnt * table->row_cnt; i++) {
 458:lvgl/lvgl/src/widgets/lv_table.c ****         if(table->cell_data[i]) {
 459:lvgl/lvgl/src/widgets/lv_table.c ****             lv_mem_free(table->cell_data[i]);
 460:lvgl/lvgl/src/widgets/lv_table.c ****             table->cell_data[i] = NULL;
 461:lvgl/lvgl/src/widgets/lv_table.c ****         }
 462:lvgl/lvgl/src/widgets/lv_table.c ****     }
 463:lvgl/lvgl/src/widgets/lv_table.c **** 
 464:lvgl/lvgl/src/widgets/lv_table.c ****     if(table->cell_data) lv_mem_free(table->cell_data);
 465:lvgl/lvgl/src/widgets/lv_table.c ****     if(table->row_h) lv_mem_free(table->row_h);
 466:lvgl/lvgl/src/widgets/lv_table.c **** }
 467:lvgl/lvgl/src/widgets/lv_table.c **** 
 468:lvgl/lvgl/src/widgets/lv_table.c **** static void lv_table_event(const lv_obj_class_t * class_p, lv_event_t * e)
 469:lvgl/lvgl/src/widgets/lv_table.c **** {
 470:lvgl/lvgl/src/widgets/lv_table.c ****     LV_UNUSED(class_p);
 471:lvgl/lvgl/src/widgets/lv_table.c **** 
 472:lvgl/lvgl/src/widgets/lv_table.c ****     lv_res_t res;
 473:lvgl/lvgl/src/widgets/lv_table.c **** 
 474:lvgl/lvgl/src/widgets/lv_table.c ****     /*Call the ancestor's event handler*/
 475:lvgl/lvgl/src/widgets/lv_table.c ****     res = lv_obj_event_base(MY_CLASS, e);
 476:lvgl/lvgl/src/widgets/lv_table.c ****     if(res != LV_RES_OK) return;
 477:lvgl/lvgl/src/widgets/lv_table.c **** 
 478:lvgl/lvgl/src/widgets/lv_table.c ****     lv_event_code_t code = lv_event_get_code(e);
 479:lvgl/lvgl/src/widgets/lv_table.c ****     lv_obj_t * obj = lv_event_get_target(e);
 480:lvgl/lvgl/src/widgets/lv_table.c ****     lv_table_t * table = (lv_table_t *)obj;
 481:lvgl/lvgl/src/widgets/lv_table.c **** 
 482:lvgl/lvgl/src/widgets/lv_table.c ****     if(code == LV_EVENT_STYLE_CHANGED) {
 483:lvgl/lvgl/src/widgets/lv_table.c ****         refr_size(obj, 0);
 484:lvgl/lvgl/src/widgets/lv_table.c ****     }
 485:lvgl/lvgl/src/widgets/lv_table.c ****     else if(code == LV_EVENT_GET_SELF_SIZE) {
 486:lvgl/lvgl/src/widgets/lv_table.c ****         lv_point_t * p = lv_event_get_param(e);
ARM GAS  C:\Users\gx\AppData\Local\Temp\ccSIsGPa.s 			page 10


 487:lvgl/lvgl/src/widgets/lv_table.c ****         uint32_t i;
 488:lvgl/lvgl/src/widgets/lv_table.c ****         lv_coord_t w = 0;
 489:lvgl/lvgl/src/widgets/lv_table.c ****         for(i = 0; i < table->col_cnt; i++) w += table->col_w[i];
 490:lvgl/lvgl/src/widgets/lv_table.c **** 
 491:lvgl/lvgl/src/widgets/lv_table.c ****         lv_coord_t h = 0;
 492:lvgl/lvgl/src/widgets/lv_table.c ****         for(i = 0; i < table->row_cnt; i++) h += table->row_h[i];
 493:lvgl/lvgl/src/widgets/lv_table.c **** 
 494:lvgl/lvgl/src/widgets/lv_table.c ****         p->x = w;
 495:lvgl/lvgl/src/widgets/lv_table.c ****         p->y = h;
 496:lvgl/lvgl/src/widgets/lv_table.c ****     }
 497:lvgl/lvgl/src/widgets/lv_table.c ****     else if(code == LV_EVENT_PRESSED || code == LV_EVENT_PRESSING) {
 498:lvgl/lvgl/src/widgets/lv_table.c ****         uint16_t col;
 499:lvgl/lvgl/src/widgets/lv_table.c ****         uint16_t row;
 500:lvgl/lvgl/src/widgets/lv_table.c ****         lv_res_t pr_res = get_pressed_cell(obj, &row, &col);
 501:lvgl/lvgl/src/widgets/lv_table.c **** 
 502:lvgl/lvgl/src/widgets/lv_table.c ****         if(pr_res == LV_RES_OK && (table->col_act != col || table->row_act != row)) {
 503:lvgl/lvgl/src/widgets/lv_table.c ****             table->col_act = col;
 504:lvgl/lvgl/src/widgets/lv_table.c ****             table->row_act = row;
 505:lvgl/lvgl/src/widgets/lv_table.c ****         }
 506:lvgl/lvgl/src/widgets/lv_table.c ****         lv_obj_invalidate(obj);
 507:lvgl/lvgl/src/widgets/lv_table.c ****     }
 508:lvgl/lvgl/src/widgets/lv_table.c ****     else if(code == LV_EVENT_RELEASED) {
 509:lvgl/lvgl/src/widgets/lv_table.c ****         lv_obj_invalidate(obj);
 510:lvgl/lvgl/src/widgets/lv_table.c ****         lv_indev_t * indev = lv_indev_get_act();
 511:lvgl/lvgl/src/widgets/lv_table.c ****         lv_obj_t * scroll_obj = lv_indev_get_scroll_obj(indev);
 512:lvgl/lvgl/src/widgets/lv_table.c ****         if(table->col_act != LV_TABLE_CELL_NONE && table->row_act != LV_TABLE_CELL_NONE && scroll_o
 513:lvgl/lvgl/src/widgets/lv_table.c ****             res = lv_event_send(obj, LV_EVENT_VALUE_CHANGED, NULL);
 514:lvgl/lvgl/src/widgets/lv_table.c ****             if(res != LV_RES_OK) return;
 515:lvgl/lvgl/src/widgets/lv_table.c ****         }
 516:lvgl/lvgl/src/widgets/lv_table.c **** 
 517:lvgl/lvgl/src/widgets/lv_table.c ****         lv_indev_type_t indev_type = lv_indev_get_type(lv_indev_get_act());
 518:lvgl/lvgl/src/widgets/lv_table.c ****         if(indev_type == LV_INDEV_TYPE_POINTER || indev_type == LV_INDEV_TYPE_BUTTON) {
 519:lvgl/lvgl/src/widgets/lv_table.c ****             table->col_act = LV_TABLE_CELL_NONE;
 520:lvgl/lvgl/src/widgets/lv_table.c ****             table->row_act = LV_TABLE_CELL_NONE;
 521:lvgl/lvgl/src/widgets/lv_table.c ****         }
 522:lvgl/lvgl/src/widgets/lv_table.c ****     }
 523:lvgl/lvgl/src/widgets/lv_table.c ****     else if(code == LV_EVENT_FOCUSED) {
 524:lvgl/lvgl/src/widgets/lv_table.c ****         lv_obj_invalidate(obj);
 525:lvgl/lvgl/src/widgets/lv_table.c ****     } else if(code == LV_EVENT_KEY) {
 526:lvgl/lvgl/src/widgets/lv_table.c ****         int32_t c = *((int32_t *)lv_event_get_param(e));
 527:lvgl/lvgl/src/widgets/lv_table.c ****         int32_t col = table->col_act;
 528:lvgl/lvgl/src/widgets/lv_table.c ****         int32_t row = table->row_act;
 529:lvgl/lvgl/src/widgets/lv_table.c ****         if(col == LV_TABLE_CELL_NONE || row == LV_TABLE_CELL_NONE) {
 530:lvgl/lvgl/src/widgets/lv_table.c ****             table->col_act = 0;
 531:lvgl/lvgl/src/widgets/lv_table.c ****             table->row_act = 0;
 532:lvgl/lvgl/src/widgets/lv_table.c ****             lv_obj_invalidate(obj);
 533:lvgl/lvgl/src/widgets/lv_table.c ****             return;
 534:lvgl/lvgl/src/widgets/lv_table.c ****         }
 535:lvgl/lvgl/src/widgets/lv_table.c **** 
 536:lvgl/lvgl/src/widgets/lv_table.c ****         if(col >= table->col_cnt) col = 0;
 537:lvgl/lvgl/src/widgets/lv_table.c ****         if(row >= table->row_cnt) row = 0;
 538:lvgl/lvgl/src/widgets/lv_table.c **** 
 539:lvgl/lvgl/src/widgets/lv_table.c ****         if(c == LV_KEY_LEFT) col--;
 540:lvgl/lvgl/src/widgets/lv_table.c ****         else if(c == LV_KEY_RIGHT) col++;
 541:lvgl/lvgl/src/widgets/lv_table.c ****         else if(c == LV_KEY_UP) row--;
 542:lvgl/lvgl/src/widgets/lv_table.c ****         else if(c == LV_KEY_DOWN) row++;
 543:lvgl/lvgl/src/widgets/lv_table.c ****         else return;
ARM GAS  C:\Users\gx\AppData\Local\Temp\ccSIsGPa.s 			page 11


 544:lvgl/lvgl/src/widgets/lv_table.c **** 
 545:lvgl/lvgl/src/widgets/lv_table.c ****         if(col >= table->col_cnt) {
 546:lvgl/lvgl/src/widgets/lv_table.c ****             if(row < table->row_cnt - 1) {
 547:lvgl/lvgl/src/widgets/lv_table.c ****                 col = 0;
 548:lvgl/lvgl/src/widgets/lv_table.c ****                 row++;
 549:lvgl/lvgl/src/widgets/lv_table.c ****             } else {
 550:lvgl/lvgl/src/widgets/lv_table.c ****                 col = table->col_cnt - 1;
 551:lvgl/lvgl/src/widgets/lv_table.c ****             }
 552:lvgl/lvgl/src/widgets/lv_table.c ****         } else if (col < 0) {
 553:lvgl/lvgl/src/widgets/lv_table.c ****             if(row != 0) {
 554:lvgl/lvgl/src/widgets/lv_table.c ****                 col = table->col_cnt - 1;
 555:lvgl/lvgl/src/widgets/lv_table.c ****                 row--;
 556:lvgl/lvgl/src/widgets/lv_table.c ****             } else {
 557:lvgl/lvgl/src/widgets/lv_table.c ****                 col = 0;
 558:lvgl/lvgl/src/widgets/lv_table.c ****             }
 559:lvgl/lvgl/src/widgets/lv_table.c ****         }
 560:lvgl/lvgl/src/widgets/lv_table.c **** 
 561:lvgl/lvgl/src/widgets/lv_table.c ****         if(row >= table->row_cnt) {
 562:lvgl/lvgl/src/widgets/lv_table.c ****             row = table->row_cnt - 1;
 563:lvgl/lvgl/src/widgets/lv_table.c ****         } else if(row < 0) {
 564:lvgl/lvgl/src/widgets/lv_table.c ****             row = 0;
 565:lvgl/lvgl/src/widgets/lv_table.c ****         }
 566:lvgl/lvgl/src/widgets/lv_table.c **** 
 567:lvgl/lvgl/src/widgets/lv_table.c ****         if(table->col_act != col || table->row_act != row) {
 568:lvgl/lvgl/src/widgets/lv_table.c ****             table->col_act = col;
 569:lvgl/lvgl/src/widgets/lv_table.c ****             table->row_act = row;
 570:lvgl/lvgl/src/widgets/lv_table.c ****             lv_obj_invalidate(obj);
 571:lvgl/lvgl/src/widgets/lv_table.c **** 
 572:lvgl/lvgl/src/widgets/lv_table.c ****             res = lv_event_send(obj, LV_EVENT_VALUE_CHANGED, NULL);
 573:lvgl/lvgl/src/widgets/lv_table.c ****             if(res != LV_RES_OK) return;
 574:lvgl/lvgl/src/widgets/lv_table.c ****         }
 575:lvgl/lvgl/src/widgets/lv_table.c ****     } else if(code == LV_EVENT_DRAW_MAIN) {
 576:lvgl/lvgl/src/widgets/lv_table.c ****         draw_main(e);
 577:lvgl/lvgl/src/widgets/lv_table.c ****     }
 578:lvgl/lvgl/src/widgets/lv_table.c **** }
 579:lvgl/lvgl/src/widgets/lv_table.c **** 
 580:lvgl/lvgl/src/widgets/lv_table.c **** 
 581:lvgl/lvgl/src/widgets/lv_table.c **** static void draw_main(lv_event_t * e)
 582:lvgl/lvgl/src/widgets/lv_table.c **** {
 583:lvgl/lvgl/src/widgets/lv_table.c ****     lv_obj_t * obj = lv_event_get_target(e);
 584:lvgl/lvgl/src/widgets/lv_table.c ****     lv_table_t * table = (lv_table_t *)obj;
 585:lvgl/lvgl/src/widgets/lv_table.c ****     const lv_area_t * clip_area_ori = lv_event_get_param(e);
 586:lvgl/lvgl/src/widgets/lv_table.c ****     lv_area_t clip_area;
 587:lvgl/lvgl/src/widgets/lv_table.c ****     if(!_lv_area_intersect(&clip_area, &obj->coords, clip_area_ori)) return;
 588:lvgl/lvgl/src/widgets/lv_table.c **** 
 589:lvgl/lvgl/src/widgets/lv_table.c **** 
 590:lvgl/lvgl/src/widgets/lv_table.c ****     lv_point_t txt_size;
 591:lvgl/lvgl/src/widgets/lv_table.c ****     lv_area_t cell_area;
 592:lvgl/lvgl/src/widgets/lv_table.c ****     lv_area_t txt_area;
 593:lvgl/lvgl/src/widgets/lv_table.c ****     lv_text_flag_t txt_flags;
 594:lvgl/lvgl/src/widgets/lv_table.c **** 
 595:lvgl/lvgl/src/widgets/lv_table.c ****     lv_coord_t bg_top = lv_obj_get_style_pad_top(obj, LV_PART_MAIN);
 596:lvgl/lvgl/src/widgets/lv_table.c ****     lv_coord_t bg_bottom = lv_obj_get_style_pad_bottom(obj, LV_PART_MAIN);
 597:lvgl/lvgl/src/widgets/lv_table.c ****     lv_coord_t bg_left = lv_obj_get_style_pad_left(obj, LV_PART_MAIN);
 598:lvgl/lvgl/src/widgets/lv_table.c ****     lv_coord_t bg_right = lv_obj_get_style_pad_right(obj, LV_PART_MAIN);
 599:lvgl/lvgl/src/widgets/lv_table.c **** 
 600:lvgl/lvgl/src/widgets/lv_table.c ****     lv_coord_t cell_left = lv_obj_get_style_pad_left(obj, LV_PART_ITEMS);
ARM GAS  C:\Users\gx\AppData\Local\Temp\ccSIsGPa.s 			page 12


 601:lvgl/lvgl/src/widgets/lv_table.c ****     lv_coord_t cell_right = lv_obj_get_style_pad_right(obj, LV_PART_ITEMS);
 602:lvgl/lvgl/src/widgets/lv_table.c ****     lv_coord_t cell_top = lv_obj_get_style_pad_top(obj, LV_PART_ITEMS);
 603:lvgl/lvgl/src/widgets/lv_table.c ****     lv_coord_t cell_bottom = lv_obj_get_style_pad_bottom(obj, LV_PART_ITEMS);
 604:lvgl/lvgl/src/widgets/lv_table.c **** 
 605:lvgl/lvgl/src/widgets/lv_table.c ****     lv_state_t state_ori = obj->state;
 606:lvgl/lvgl/src/widgets/lv_table.c ****     obj->state = LV_STATE_DEFAULT;
 607:lvgl/lvgl/src/widgets/lv_table.c ****     obj->skip_trans = 1;
 608:lvgl/lvgl/src/widgets/lv_table.c ****     lv_draw_rect_dsc_t rect_dsc_def;
 609:lvgl/lvgl/src/widgets/lv_table.c ****     lv_draw_rect_dsc_t rect_dsc_act; /*Passed to the event to modify it*/
 610:lvgl/lvgl/src/widgets/lv_table.c ****     lv_draw_rect_dsc_init(&rect_dsc_def);
 611:lvgl/lvgl/src/widgets/lv_table.c ****     lv_obj_init_draw_rect_dsc(obj, LV_PART_ITEMS, &rect_dsc_def);
 612:lvgl/lvgl/src/widgets/lv_table.c **** 
 613:lvgl/lvgl/src/widgets/lv_table.c ****     lv_draw_label_dsc_t label_dsc_def;
 614:lvgl/lvgl/src/widgets/lv_table.c ****     lv_draw_label_dsc_t label_dsc_act;  /*Passed to the event to modify it*/
 615:lvgl/lvgl/src/widgets/lv_table.c ****     lv_draw_label_dsc_init(&label_dsc_def);
 616:lvgl/lvgl/src/widgets/lv_table.c ****     lv_obj_init_draw_label_dsc(obj, LV_PART_ITEMS, &label_dsc_def);
 617:lvgl/lvgl/src/widgets/lv_table.c ****     obj->state = state_ori;
 618:lvgl/lvgl/src/widgets/lv_table.c ****     obj->skip_trans = 0;
 619:lvgl/lvgl/src/widgets/lv_table.c **** 
 620:lvgl/lvgl/src/widgets/lv_table.c ****     uint16_t col;
 621:lvgl/lvgl/src/widgets/lv_table.c ****     uint16_t row;
 622:lvgl/lvgl/src/widgets/lv_table.c ****     uint16_t cell = 0;
 623:lvgl/lvgl/src/widgets/lv_table.c **** 
 624:lvgl/lvgl/src/widgets/lv_table.c ****     cell_area.y2 = obj->coords.y1 + bg_top - 1 - lv_obj_get_scroll_y(obj) ;
 625:lvgl/lvgl/src/widgets/lv_table.c ****     lv_coord_t scroll_x = lv_obj_get_scroll_x(obj) ;
 626:lvgl/lvgl/src/widgets/lv_table.c ****     bool rtl = lv_obj_get_style_base_dir(obj, LV_PART_MAIN) == LV_BASE_DIR_RTL ? true : false;
 627:lvgl/lvgl/src/widgets/lv_table.c **** 
 628:lvgl/lvgl/src/widgets/lv_table.c ****     /*Handle custom drawer*/
 629:lvgl/lvgl/src/widgets/lv_table.c ****     lv_obj_draw_part_dsc_t part_draw_dsc;
 630:lvgl/lvgl/src/widgets/lv_table.c ****     lv_obj_draw_dsc_init(&part_draw_dsc, &clip_area);
 631:lvgl/lvgl/src/widgets/lv_table.c ****     part_draw_dsc.part = LV_PART_ITEMS;
 632:lvgl/lvgl/src/widgets/lv_table.c ****     part_draw_dsc.class_p = MY_CLASS;
 633:lvgl/lvgl/src/widgets/lv_table.c ****     part_draw_dsc.type = LV_TABLE_DRAW_PART_CELL;
 634:lvgl/lvgl/src/widgets/lv_table.c ****     part_draw_dsc.rect_dsc = &rect_dsc_act;
 635:lvgl/lvgl/src/widgets/lv_table.c ****     part_draw_dsc.label_dsc = &label_dsc_act;
 636:lvgl/lvgl/src/widgets/lv_table.c **** 
 637:lvgl/lvgl/src/widgets/lv_table.c ****     for(row = 0; row < table->row_cnt; row++) {
 638:lvgl/lvgl/src/widgets/lv_table.c ****         lv_coord_t h_row = table->row_h[row];
 639:lvgl/lvgl/src/widgets/lv_table.c **** 
 640:lvgl/lvgl/src/widgets/lv_table.c ****         cell_area.y1 = cell_area.y2 + 1;
 641:lvgl/lvgl/src/widgets/lv_table.c ****         cell_area.y2 = cell_area.y1 + h_row - 1;
 642:lvgl/lvgl/src/widgets/lv_table.c **** 
 643:lvgl/lvgl/src/widgets/lv_table.c ****         if(cell_area.y1 > clip_area.y2) return;
 644:lvgl/lvgl/src/widgets/lv_table.c **** 
 645:lvgl/lvgl/src/widgets/lv_table.c ****         if(rtl) cell_area.x1 = obj->coords.x2 - bg_right - 1 - scroll_x;
 646:lvgl/lvgl/src/widgets/lv_table.c ****         else cell_area.x2 = obj->coords.x1 + bg_left - 1 - scroll_x;
 647:lvgl/lvgl/src/widgets/lv_table.c **** 
 648:lvgl/lvgl/src/widgets/lv_table.c ****         for(col = 0; col < table->col_cnt; col++) {
 649:lvgl/lvgl/src/widgets/lv_table.c ****             lv_table_cell_ctrl_t ctrl = 0;
 650:lvgl/lvgl/src/widgets/lv_table.c ****             if(table->cell_data[cell]) ctrl = table->cell_data[cell][0];
 651:lvgl/lvgl/src/widgets/lv_table.c **** 
 652:lvgl/lvgl/src/widgets/lv_table.c ****             if(rtl) {
 653:lvgl/lvgl/src/widgets/lv_table.c ****                 cell_area.x2 = cell_area.x1 - 1;
 654:lvgl/lvgl/src/widgets/lv_table.c ****                 cell_area.x1 = cell_area.x2 - table->col_w[col] + 1;
 655:lvgl/lvgl/src/widgets/lv_table.c ****             }
 656:lvgl/lvgl/src/widgets/lv_table.c ****             else {
 657:lvgl/lvgl/src/widgets/lv_table.c ****                 cell_area.x1 = cell_area.x2 + 1;
ARM GAS  C:\Users\gx\AppData\Local\Temp\ccSIsGPa.s 			page 13


 658:lvgl/lvgl/src/widgets/lv_table.c ****                 cell_area.x2 = cell_area.x1 + table->col_w[col] - 1;
 659:lvgl/lvgl/src/widgets/lv_table.c ****             }
 660:lvgl/lvgl/src/widgets/lv_table.c **** 
 661:lvgl/lvgl/src/widgets/lv_table.c ****             uint16_t col_merge = 0;
 662:lvgl/lvgl/src/widgets/lv_table.c ****             for(col_merge = 0; col_merge + col < table->col_cnt - 1; col_merge++) {
 663:lvgl/lvgl/src/widgets/lv_table.c ****                 if(table->cell_data[cell + col_merge]) {
 664:lvgl/lvgl/src/widgets/lv_table.c ****                     char * next_cell_data = table->cell_data[cell + col_merge];
 665:lvgl/lvgl/src/widgets/lv_table.c ****                     if(next_cell_data) ctrl = next_cell_data[0];
 666:lvgl/lvgl/src/widgets/lv_table.c ****                     if(ctrl & LV_TABLE_CELL_CTRL_MERGE_RIGHT)
 667:lvgl/lvgl/src/widgets/lv_table.c ****                         if(rtl) cell_area.x1 -= table->col_w[col + col_merge + 1];
 668:lvgl/lvgl/src/widgets/lv_table.c ****                         else cell_area.x2 += table->col_w[col + col_merge + 1];
 669:lvgl/lvgl/src/widgets/lv_table.c ****                     else {
 670:lvgl/lvgl/src/widgets/lv_table.c ****                         break;
 671:lvgl/lvgl/src/widgets/lv_table.c ****                     }
 672:lvgl/lvgl/src/widgets/lv_table.c ****                 }
 673:lvgl/lvgl/src/widgets/lv_table.c ****                 else {
 674:lvgl/lvgl/src/widgets/lv_table.c ****                     break;
 675:lvgl/lvgl/src/widgets/lv_table.c ****                 }
 676:lvgl/lvgl/src/widgets/lv_table.c ****             }
 677:lvgl/lvgl/src/widgets/lv_table.c **** 
 678:lvgl/lvgl/src/widgets/lv_table.c ****             if(cell_area.y2 < clip_area.y1) {
 679:lvgl/lvgl/src/widgets/lv_table.c ****                 cell += col_merge + 1;
 680:lvgl/lvgl/src/widgets/lv_table.c ****                 col += col_merge;
 681:lvgl/lvgl/src/widgets/lv_table.c ****                 continue;
 682:lvgl/lvgl/src/widgets/lv_table.c ****             }
 683:lvgl/lvgl/src/widgets/lv_table.c **** 
 684:lvgl/lvgl/src/widgets/lv_table.c ****             /*Expand the cell area with a half border to avoid drawing 2 borders next to each other
 685:lvgl/lvgl/src/widgets/lv_table.c ****             lv_area_t cell_area_border;
 686:lvgl/lvgl/src/widgets/lv_table.c ****             lv_area_copy(&cell_area_border, &cell_area);
 687:lvgl/lvgl/src/widgets/lv_table.c ****             if((rect_dsc_def.border_side & LV_BORDER_SIDE_LEFT) && cell_area_border.x1 > obj->coord
 688:lvgl/lvgl/src/widgets/lv_table.c ****                 cell_area_border.x1 -= rect_dsc_def.border_width / 2;
 689:lvgl/lvgl/src/widgets/lv_table.c ****             }
 690:lvgl/lvgl/src/widgets/lv_table.c ****             if((rect_dsc_def.border_side & LV_BORDER_SIDE_TOP) && cell_area_border.y1 > obj->coords
 691:lvgl/lvgl/src/widgets/lv_table.c ****                 cell_area_border.y1 -= rect_dsc_def.border_width / 2;
 692:lvgl/lvgl/src/widgets/lv_table.c ****             }
 693:lvgl/lvgl/src/widgets/lv_table.c ****             if((rect_dsc_def.border_side & LV_BORDER_SIDE_RIGHT) && cell_area_border.x2 < obj->coor
 694:lvgl/lvgl/src/widgets/lv_table.c ****                 cell_area_border.x2 += rect_dsc_def.border_width / 2 + (rect_dsc_def.border_width &
 695:lvgl/lvgl/src/widgets/lv_table.c ****             }
 696:lvgl/lvgl/src/widgets/lv_table.c ****             if((rect_dsc_def.border_side & LV_BORDER_SIDE_BOTTOM) &&
 697:lvgl/lvgl/src/widgets/lv_table.c ****                     cell_area_border.y2 < obj->coords.y2 - bg_bottom - 1) {
 698:lvgl/lvgl/src/widgets/lv_table.c ****                 cell_area_border.y2 += rect_dsc_def.border_width / 2 + (rect_dsc_def.border_width &
 699:lvgl/lvgl/src/widgets/lv_table.c ****             }
 700:lvgl/lvgl/src/widgets/lv_table.c **** 
 701:lvgl/lvgl/src/widgets/lv_table.c ****             lv_state_t cell_state = LV_STATE_DEFAULT;
 702:lvgl/lvgl/src/widgets/lv_table.c ****             if(row == table->row_act && col == table->col_act) {
 703:lvgl/lvgl/src/widgets/lv_table.c ****                 if(!(obj->state & LV_STATE_SCROLLED) && (obj->state & LV_STATE_PRESSED)) cell_state
 704:lvgl/lvgl/src/widgets/lv_table.c ****                 if(obj->state & LV_STATE_FOCUSED) cell_state |= LV_STATE_FOCUSED;
 705:lvgl/lvgl/src/widgets/lv_table.c ****                 if(obj->state & LV_STATE_FOCUS_KEY) cell_state |= LV_STATE_FOCUS_KEY;
 706:lvgl/lvgl/src/widgets/lv_table.c ****                 if(obj->state & LV_STATE_EDITED) cell_state |= LV_STATE_EDITED;
 707:lvgl/lvgl/src/widgets/lv_table.c ****             }
 708:lvgl/lvgl/src/widgets/lv_table.c **** 
 709:lvgl/lvgl/src/widgets/lv_table.c ****             /*Set up the draw descriptors*/
 710:lvgl/lvgl/src/widgets/lv_table.c ****             if(cell_state == LV_STATE_DEFAULT) {
 711:lvgl/lvgl/src/widgets/lv_table.c ****                 lv_memcpy(&rect_dsc_act, &rect_dsc_def, sizeof(lv_draw_rect_dsc_t));
 712:lvgl/lvgl/src/widgets/lv_table.c ****                 lv_memcpy(&label_dsc_act, &label_dsc_def, sizeof(lv_draw_label_dsc_t));
 713:lvgl/lvgl/src/widgets/lv_table.c ****             }
 714:lvgl/lvgl/src/widgets/lv_table.c ****             /*In other cases get the styles directly without caching them*/
ARM GAS  C:\Users\gx\AppData\Local\Temp\ccSIsGPa.s 			page 14


 715:lvgl/lvgl/src/widgets/lv_table.c ****             else {
 716:lvgl/lvgl/src/widgets/lv_table.c ****                 obj->state = cell_state;
 717:lvgl/lvgl/src/widgets/lv_table.c ****                 obj->skip_trans = 1;
 718:lvgl/lvgl/src/widgets/lv_table.c ****                 lv_draw_rect_dsc_init(&rect_dsc_act);
 719:lvgl/lvgl/src/widgets/lv_table.c ****                 lv_draw_label_dsc_init(&label_dsc_act);
 720:lvgl/lvgl/src/widgets/lv_table.c ****                 lv_obj_init_draw_rect_dsc(obj, LV_PART_ITEMS, &rect_dsc_act);
 721:lvgl/lvgl/src/widgets/lv_table.c ****                 lv_obj_init_draw_label_dsc(obj, LV_PART_ITEMS, &label_dsc_act);
 722:lvgl/lvgl/src/widgets/lv_table.c ****                 obj->state = state_ori;
 723:lvgl/lvgl/src/widgets/lv_table.c ****                 obj->skip_trans = 0;
 724:lvgl/lvgl/src/widgets/lv_table.c ****             }
 725:lvgl/lvgl/src/widgets/lv_table.c **** 
 726:lvgl/lvgl/src/widgets/lv_table.c ****             part_draw_dsc.draw_area = &cell_area_border;
 727:lvgl/lvgl/src/widgets/lv_table.c ****             part_draw_dsc.id = row * table->col_cnt + col;
 728:lvgl/lvgl/src/widgets/lv_table.c ****             lv_event_send(obj, LV_EVENT_DRAW_PART_BEGIN, &part_draw_dsc);
 729:lvgl/lvgl/src/widgets/lv_table.c **** 
 730:lvgl/lvgl/src/widgets/lv_table.c ****             lv_draw_rect(&cell_area_border, &clip_area, &rect_dsc_act);
 731:lvgl/lvgl/src/widgets/lv_table.c **** 
 732:lvgl/lvgl/src/widgets/lv_table.c ****             if(table->cell_data[cell]) {
 733:lvgl/lvgl/src/widgets/lv_table.c ****                 txt_area.x1 = cell_area.x1 + cell_left;
 734:lvgl/lvgl/src/widgets/lv_table.c ****                 txt_area.x2 = cell_area.x2 - cell_right;
 735:lvgl/lvgl/src/widgets/lv_table.c ****                 txt_area.y1 = cell_area.y1 + cell_top;
 736:lvgl/lvgl/src/widgets/lv_table.c ****                 txt_area.y2 = cell_area.y2 - cell_bottom;
 737:lvgl/lvgl/src/widgets/lv_table.c **** 
 738:lvgl/lvgl/src/widgets/lv_table.c ****                 /*Align the content to the middle if not cropped*/
 739:lvgl/lvgl/src/widgets/lv_table.c ****                 bool crop = ctrl & LV_TABLE_CELL_CTRL_TEXT_CROP ? true : false;
 740:lvgl/lvgl/src/widgets/lv_table.c ****                 if(crop) txt_flags = LV_TEXT_FLAG_EXPAND;
 741:lvgl/lvgl/src/widgets/lv_table.c ****                 else txt_flags = LV_TEXT_FLAG_NONE;
 742:lvgl/lvgl/src/widgets/lv_table.c **** 
 743:lvgl/lvgl/src/widgets/lv_table.c ****                 lv_txt_get_size(&txt_size, table->cell_data[cell] + 1, label_dsc_def.font,
 744:lvgl/lvgl/src/widgets/lv_table.c ****                         label_dsc_act.letter_space, label_dsc_act.line_space,
 745:lvgl/lvgl/src/widgets/lv_table.c ****                         lv_area_get_width(&txt_area), txt_flags);
 746:lvgl/lvgl/src/widgets/lv_table.c **** 
 747:lvgl/lvgl/src/widgets/lv_table.c ****                 /*Align the content to the middle if not cropped*/
 748:lvgl/lvgl/src/widgets/lv_table.c ****                 if(!crop) {
 749:lvgl/lvgl/src/widgets/lv_table.c ****                     txt_area.y1 = cell_area.y1 + h_row / 2 - txt_size.y / 2;
 750:lvgl/lvgl/src/widgets/lv_table.c ****                     txt_area.y2 = cell_area.y1 + h_row / 2 + txt_size.y / 2;
 751:lvgl/lvgl/src/widgets/lv_table.c ****                 }
 752:lvgl/lvgl/src/widgets/lv_table.c **** 
 753:lvgl/lvgl/src/widgets/lv_table.c ****                 lv_area_t label_mask;
 754:lvgl/lvgl/src/widgets/lv_table.c ****                 bool label_mask_ok;
 755:lvgl/lvgl/src/widgets/lv_table.c ****                 label_mask_ok = _lv_area_intersect(&label_mask, &clip_area, &cell_area);
 756:lvgl/lvgl/src/widgets/lv_table.c ****                 if(label_mask_ok) {
 757:lvgl/lvgl/src/widgets/lv_table.c ****                     lv_draw_label(&txt_area, &label_mask, &label_dsc_act, table->cell_data[cell] + 
 758:lvgl/lvgl/src/widgets/lv_table.c ****                 }
 759:lvgl/lvgl/src/widgets/lv_table.c ****             }
 760:lvgl/lvgl/src/widgets/lv_table.c **** 
 761:lvgl/lvgl/src/widgets/lv_table.c ****             lv_event_send(obj, LV_EVENT_DRAW_PART_END, &part_draw_dsc);
 762:lvgl/lvgl/src/widgets/lv_table.c **** 
 763:lvgl/lvgl/src/widgets/lv_table.c ****             cell += col_merge + 1;
 764:lvgl/lvgl/src/widgets/lv_table.c ****             col += col_merge;
 765:lvgl/lvgl/src/widgets/lv_table.c ****         }
 766:lvgl/lvgl/src/widgets/lv_table.c ****     }
 767:lvgl/lvgl/src/widgets/lv_table.c **** }
 768:lvgl/lvgl/src/widgets/lv_table.c **** 
 769:lvgl/lvgl/src/widgets/lv_table.c **** static void refr_size(lv_obj_t * obj, uint32_t strat_row)
 770:lvgl/lvgl/src/widgets/lv_table.c **** {
 771:lvgl/lvgl/src/widgets/lv_table.c ****     lv_table_t * table = (lv_table_t *)obj;
ARM GAS  C:\Users\gx\AppData\Local\Temp\ccSIsGPa.s 			page 15


 772:lvgl/lvgl/src/widgets/lv_table.c **** 
 773:lvgl/lvgl/src/widgets/lv_table.c ****     uint32_t i;
 774:lvgl/lvgl/src/widgets/lv_table.c **** 
 775:lvgl/lvgl/src/widgets/lv_table.c ****     lv_coord_t cell_left = lv_obj_get_style_pad_left(obj, LV_PART_ITEMS);
 776:lvgl/lvgl/src/widgets/lv_table.c ****     lv_coord_t cell_right = lv_obj_get_style_pad_right(obj, LV_PART_ITEMS);
 777:lvgl/lvgl/src/widgets/lv_table.c ****     lv_coord_t cell_top = lv_obj_get_style_pad_top(obj, LV_PART_ITEMS);
 778:lvgl/lvgl/src/widgets/lv_table.c ****     lv_coord_t cell_bottom = lv_obj_get_style_pad_bottom(obj, LV_PART_ITEMS);
 779:lvgl/lvgl/src/widgets/lv_table.c **** 
 780:lvgl/lvgl/src/widgets/lv_table.c ****     lv_coord_t letter_space = lv_obj_get_style_text_letter_space(obj, LV_PART_ITEMS);
 781:lvgl/lvgl/src/widgets/lv_table.c ****     lv_coord_t line_space = lv_obj_get_style_text_line_space(obj, LV_PART_ITEMS);
 782:lvgl/lvgl/src/widgets/lv_table.c ****     const lv_font_t * font = lv_obj_get_style_text_font(obj, LV_PART_ITEMS);
 783:lvgl/lvgl/src/widgets/lv_table.c **** 
 784:lvgl/lvgl/src/widgets/lv_table.c ****     lv_coord_t minh = lv_obj_get_style_min_height(obj, LV_PART_ITEMS);
 785:lvgl/lvgl/src/widgets/lv_table.c ****     lv_coord_t maxh = lv_obj_get_style_max_height(obj, LV_PART_ITEMS);
 786:lvgl/lvgl/src/widgets/lv_table.c **** 
 787:lvgl/lvgl/src/widgets/lv_table.c ****     for(i = strat_row; i < table->row_cnt; i++) {
 788:lvgl/lvgl/src/widgets/lv_table.c ****         table->row_h[i] = get_row_height(obj, i, font, letter_space, line_space,
 789:lvgl/lvgl/src/widgets/lv_table.c ****                                        cell_left, cell_right, cell_top, cell_bottom);
 790:lvgl/lvgl/src/widgets/lv_table.c ****         table->row_h[i] = LV_CLAMP(minh, table->row_h[i], maxh);
 791:lvgl/lvgl/src/widgets/lv_table.c ****     }
 792:lvgl/lvgl/src/widgets/lv_table.c **** 
 793:lvgl/lvgl/src/widgets/lv_table.c ****     lv_obj_refresh_self_size(obj) ;
 794:lvgl/lvgl/src/widgets/lv_table.c **** }
 795:lvgl/lvgl/src/widgets/lv_table.c **** 
 796:lvgl/lvgl/src/widgets/lv_table.c **** static lv_coord_t get_row_height(lv_obj_t * obj, uint16_t row_id, const lv_font_t * font,
 797:lvgl/lvgl/src/widgets/lv_table.c ****                                  lv_coord_t letter_space, lv_coord_t line_space,
 798:lvgl/lvgl/src/widgets/lv_table.c ****                                  lv_coord_t cell_left, lv_coord_t cell_right, lv_coord_t cell_top, 
 799:lvgl/lvgl/src/widgets/lv_table.c **** {
  29              		.loc 1 799 1 view -0
  30              		.cfi_startproc
  31              		@ args = 20, pretend = 0, frame = 48
  32              		@ frame_needed = 0, uses_anonymous_args = 0
  33              		.loc 1 799 1 is_stmt 0 view .LVU1
  34 0000 2DE9F04F 		push	{r4, r5, r6, r7, r8, r9, r10, fp, lr}
  35              	.LCFI0:
  36              		.cfi_def_cfa_offset 36
  37              		.cfi_offset 4, -36
  38              		.cfi_offset 5, -32
  39              		.cfi_offset 6, -28
  40              		.cfi_offset 7, -24
  41              		.cfi_offset 8, -20
  42              		.cfi_offset 9, -16
  43              		.cfi_offset 10, -12
  44              		.cfi_offset 11, -8
  45              		.cfi_offset 14, -4
  46 0004 91B0     		sub	sp, sp, #68
  47              	.LCFI1:
  48              		.cfi_def_cfa_offset 104
  49 0006 8046     		mov	r8, r0
  50 0008 0592     		str	r2, [sp, #20]
  51 000a 0A93     		str	r3, [sp, #40]
  52 000c BDF96830 		ldrsh	r3, [sp, #104]
  53              	.LVL1:
  54              		.loc 1 799 1 view .LVU2
  55 0010 0B93     		str	r3, [sp, #44]
  56 0012 BDF96C30 		ldrsh	r3, [sp, #108]
  57 0016 0C93     		str	r3, [sp, #48]
ARM GAS  C:\Users\gx\AppData\Local\Temp\ccSIsGPa.s 			page 16


  58 0018 BDF97030 		ldrsh	r3, [sp, #112]
  59 001c 0D93     		str	r3, [sp, #52]
  60 001e BDF97430 		ldrsh	r3, [sp, #116]
  61 0022 0693     		str	r3, [sp, #24]
  62 0024 BDF97800 		ldrsh	r0, [sp, #120]
  63              	.LVL2:
  64              		.loc 1 799 1 view .LVU3
  65 0028 0790     		str	r0, [sp, #28]
 800:lvgl/lvgl/src/widgets/lv_table.c ****     lv_table_t * table = (lv_table_t *)obj;
  66              		.loc 1 800 5 is_stmt 1 view .LVU4
  67              	.LVL3:
 801:lvgl/lvgl/src/widgets/lv_table.c ****     lv_point_t txt_size;
  68              		.loc 1 801 5 view .LVU5
 802:lvgl/lvgl/src/widgets/lv_table.c ****     lv_coord_t txt_w;
  69              		.loc 1 802 5 view .LVU6
 803:lvgl/lvgl/src/widgets/lv_table.c **** 
 804:lvgl/lvgl/src/widgets/lv_table.c ****     uint16_t row_start = row_id * table->col_cnt;
  70              		.loc 1 804 5 view .LVU7
  71              		.loc 1 804 40 is_stmt 0 view .LVU8
  72 002a B8F82490 		ldrh	r9, [r8, #36]
  73              		.loc 1 804 14 view .LVU9
  74 002e 19FB01F9 		smulbb	r9, r9, r1
  75 0032 1FFA89F9 		uxth	r9, r9
  76              	.LVL4:
 805:lvgl/lvgl/src/widgets/lv_table.c ****     uint16_t cell;
  77              		.loc 1 805 5 is_stmt 1 view .LVU10
 806:lvgl/lvgl/src/widgets/lv_table.c ****     uint16_t col;
  78              		.loc 1 806 5 view .LVU11
 807:lvgl/lvgl/src/widgets/lv_table.c ****     lv_coord_t h_max = lv_font_get_line_height(font) + cell_top + cell_bottom;
  79              		.loc 1 807 5 view .LVU12
  80              	.LBB86:
  81              	.LBI86:
  82              		.file 2 "d:\\practise\\f407_disc\\lvgl\\lvgl\\src\\font\\lv_font.h"
   1:d:\practise\f407_disc\lvgl\lvgl\src\font\lv_font.h **** /**
   2:d:\practise\f407_disc\lvgl\lvgl\src\font\lv_font.h ****  * @file lv_font.h
   3:d:\practise\f407_disc\lvgl\lvgl\src\font\lv_font.h ****  *
   4:d:\practise\f407_disc\lvgl\lvgl\src\font\lv_font.h ****  */
   5:d:\practise\f407_disc\lvgl\lvgl\src\font\lv_font.h **** 
   6:d:\practise\f407_disc\lvgl\lvgl\src\font\lv_font.h **** #ifndef LV_FONT_H
   7:d:\practise\f407_disc\lvgl\lvgl\src\font\lv_font.h **** #define LV_FONT_H
   8:d:\practise\f407_disc\lvgl\lvgl\src\font\lv_font.h **** 
   9:d:\practise\f407_disc\lvgl\lvgl\src\font\lv_font.h **** #ifdef __cplusplus
  10:d:\practise\f407_disc\lvgl\lvgl\src\font\lv_font.h **** extern "C" {
  11:d:\practise\f407_disc\lvgl\lvgl\src\font\lv_font.h **** #endif
  12:d:\practise\f407_disc\lvgl\lvgl\src\font\lv_font.h **** 
  13:d:\practise\f407_disc\lvgl\lvgl\src\font\lv_font.h **** /*********************
  14:d:\practise\f407_disc\lvgl\lvgl\src\font\lv_font.h ****  *      INCLUDES
  15:d:\practise\f407_disc\lvgl\lvgl\src\font\lv_font.h ****  *********************/
  16:d:\practise\f407_disc\lvgl\lvgl\src\font\lv_font.h **** #include "../lv_conf_internal.h"
  17:d:\practise\f407_disc\lvgl\lvgl\src\font\lv_font.h **** #include <stdint.h>
  18:d:\practise\f407_disc\lvgl\lvgl\src\font\lv_font.h **** #include <stddef.h>
  19:d:\practise\f407_disc\lvgl\lvgl\src\font\lv_font.h **** #include <stdbool.h>
  20:d:\practise\f407_disc\lvgl\lvgl\src\font\lv_font.h **** 
  21:d:\practise\f407_disc\lvgl\lvgl\src\font\lv_font.h **** #include "lv_symbol_def.h"
  22:d:\practise\f407_disc\lvgl\lvgl\src\font\lv_font.h **** #include "../misc/lv_area.h"
  23:d:\practise\f407_disc\lvgl\lvgl\src\font\lv_font.h **** 
  24:d:\practise\f407_disc\lvgl\lvgl\src\font\lv_font.h **** /*********************
ARM GAS  C:\Users\gx\AppData\Local\Temp\ccSIsGPa.s 			page 17


  25:d:\practise\f407_disc\lvgl\lvgl\src\font\lv_font.h ****  *      DEFINES
  26:d:\practise\f407_disc\lvgl\lvgl\src\font\lv_font.h ****  *********************/
  27:d:\practise\f407_disc\lvgl\lvgl\src\font\lv_font.h **** 
  28:d:\practise\f407_disc\lvgl\lvgl\src\font\lv_font.h **** /**********************
  29:d:\practise\f407_disc\lvgl\lvgl\src\font\lv_font.h ****  *      TYPEDEFS
  30:d:\practise\f407_disc\lvgl\lvgl\src\font\lv_font.h ****  **********************/
  31:d:\practise\f407_disc\lvgl\lvgl\src\font\lv_font.h **** 
  32:d:\practise\f407_disc\lvgl\lvgl\src\font\lv_font.h **** /*------------------
  33:d:\practise\f407_disc\lvgl\lvgl\src\font\lv_font.h ****  * General types
  34:d:\practise\f407_disc\lvgl\lvgl\src\font\lv_font.h ****  *-----------------*/
  35:d:\practise\f407_disc\lvgl\lvgl\src\font\lv_font.h **** 
  36:d:\practise\f407_disc\lvgl\lvgl\src\font\lv_font.h **** /** Describes the properties of a glyph.*/
  37:d:\practise\f407_disc\lvgl\lvgl\src\font\lv_font.h **** typedef struct {
  38:d:\practise\f407_disc\lvgl\lvgl\src\font\lv_font.h ****     uint16_t adv_w; /**< The glyph needs this space. Draw the next glyph after this width.*/
  39:d:\practise\f407_disc\lvgl\lvgl\src\font\lv_font.h ****     uint16_t box_w;  /**< Width of the glyph's bounding box*/
  40:d:\practise\f407_disc\lvgl\lvgl\src\font\lv_font.h ****     uint16_t box_h;  /**< Height of the glyph's bounding box*/
  41:d:\practise\f407_disc\lvgl\lvgl\src\font\lv_font.h ****     int16_t ofs_x;   /**< x offset of the bounding box*/
  42:d:\practise\f407_disc\lvgl\lvgl\src\font\lv_font.h ****     int16_t ofs_y;  /**< y offset of the bounding box*/
  43:d:\practise\f407_disc\lvgl\lvgl\src\font\lv_font.h ****     uint8_t bpp;   /**< Bit-per-pixel: 1, 2, 4, 8*/
  44:d:\practise\f407_disc\lvgl\lvgl\src\font\lv_font.h **** } lv_font_glyph_dsc_t;
  45:d:\practise\f407_disc\lvgl\lvgl\src\font\lv_font.h **** 
  46:d:\practise\f407_disc\lvgl\lvgl\src\font\lv_font.h **** /** The bitmaps might be upscaled by 3 to achieve subpixel rendering.*/
  47:d:\practise\f407_disc\lvgl\lvgl\src\font\lv_font.h **** enum {
  48:d:\practise\f407_disc\lvgl\lvgl\src\font\lv_font.h ****     LV_FONT_SUBPX_NONE,
  49:d:\practise\f407_disc\lvgl\lvgl\src\font\lv_font.h ****     LV_FONT_SUBPX_HOR,
  50:d:\practise\f407_disc\lvgl\lvgl\src\font\lv_font.h ****     LV_FONT_SUBPX_VER,
  51:d:\practise\f407_disc\lvgl\lvgl\src\font\lv_font.h ****     LV_FONT_SUBPX_BOTH,
  52:d:\practise\f407_disc\lvgl\lvgl\src\font\lv_font.h **** };
  53:d:\practise\f407_disc\lvgl\lvgl\src\font\lv_font.h **** 
  54:d:\practise\f407_disc\lvgl\lvgl\src\font\lv_font.h **** typedef uint8_t lv_font_subpx_t;
  55:d:\practise\f407_disc\lvgl\lvgl\src\font\lv_font.h **** 
  56:d:\practise\f407_disc\lvgl\lvgl\src\font\lv_font.h **** struct _lv_font_t;
  57:d:\practise\f407_disc\lvgl\lvgl\src\font\lv_font.h **** 
  58:d:\practise\f407_disc\lvgl\lvgl\src\font\lv_font.h **** /** Describe the properties of a font*/
  59:d:\practise\f407_disc\lvgl\lvgl\src\font\lv_font.h **** typedef struct _lv_font_t {
  60:d:\practise\f407_disc\lvgl\lvgl\src\font\lv_font.h ****     /** Get a glyph's descriptor from a font*/
  61:d:\practise\f407_disc\lvgl\lvgl\src\font\lv_font.h ****     bool (*get_glyph_dsc)(const struct _lv_font_t *, lv_font_glyph_dsc_t *, uint32_t letter, uint32
  62:d:\practise\f407_disc\lvgl\lvgl\src\font\lv_font.h **** 
  63:d:\practise\f407_disc\lvgl\lvgl\src\font\lv_font.h ****     /** Get a glyph's bitmap from a font*/
  64:d:\practise\f407_disc\lvgl\lvgl\src\font\lv_font.h ****     const uint8_t * (*get_glyph_bitmap)(const struct _lv_font_t *, uint32_t);
  65:d:\practise\f407_disc\lvgl\lvgl\src\font\lv_font.h **** 
  66:d:\practise\f407_disc\lvgl\lvgl\src\font\lv_font.h ****     /*Pointer to the font in a font pack (must have the same line height)*/
  67:d:\practise\f407_disc\lvgl\lvgl\src\font\lv_font.h ****     lv_coord_t line_height;         /**< The real line height where any text fits*/
  68:d:\practise\f407_disc\lvgl\lvgl\src\font\lv_font.h ****     lv_coord_t base_line;           /**< Base line measured from the top of the line_height*/
  69:d:\practise\f407_disc\lvgl\lvgl\src\font\lv_font.h ****     uint8_t subpx  : 2;             /**< An element of `lv_font_subpx_t`*/
  70:d:\practise\f407_disc\lvgl\lvgl\src\font\lv_font.h **** 
  71:d:\practise\f407_disc\lvgl\lvgl\src\font\lv_font.h ****     int8_t underline_position;      /**< Distance between the top of the underline and base line (<
  72:d:\practise\f407_disc\lvgl\lvgl\src\font\lv_font.h ****     int8_t underline_thickness;     /**< Thickness of the underline*/
  73:d:\practise\f407_disc\lvgl\lvgl\src\font\lv_font.h **** 
  74:d:\practise\f407_disc\lvgl\lvgl\src\font\lv_font.h ****     const void * dsc;                     /**< Store implementation specific or run_time data or ca
  75:d:\practise\f407_disc\lvgl\lvgl\src\font\lv_font.h **** #if LV_USE_USER_DATA
  76:d:\practise\f407_disc\lvgl\lvgl\src\font\lv_font.h ****     void * user_data;               /**< Custom user data for font.*/
  77:d:\practise\f407_disc\lvgl\lvgl\src\font\lv_font.h **** #endif
  78:d:\practise\f407_disc\lvgl\lvgl\src\font\lv_font.h **** 
  79:d:\practise\f407_disc\lvgl\lvgl\src\font\lv_font.h **** } lv_font_t;
  80:d:\practise\f407_disc\lvgl\lvgl\src\font\lv_font.h **** 
  81:d:\practise\f407_disc\lvgl\lvgl\src\font\lv_font.h **** /**********************
ARM GAS  C:\Users\gx\AppData\Local\Temp\ccSIsGPa.s 			page 18


  82:d:\practise\f407_disc\lvgl\lvgl\src\font\lv_font.h ****  * GLOBAL PROTOTYPES
  83:d:\practise\f407_disc\lvgl\lvgl\src\font\lv_font.h ****  **********************/
  84:d:\practise\f407_disc\lvgl\lvgl\src\font\lv_font.h **** 
  85:d:\practise\f407_disc\lvgl\lvgl\src\font\lv_font.h **** /**
  86:d:\practise\f407_disc\lvgl\lvgl\src\font\lv_font.h ****  * Return with the bitmap of a font.
  87:d:\practise\f407_disc\lvgl\lvgl\src\font\lv_font.h ****  * @param font_p pointer to a font
  88:d:\practise\f407_disc\lvgl\lvgl\src\font\lv_font.h ****  * @param letter an UNICODE character code
  89:d:\practise\f407_disc\lvgl\lvgl\src\font\lv_font.h ****  * @return pointer to the bitmap of the letter
  90:d:\practise\f407_disc\lvgl\lvgl\src\font\lv_font.h ****  */
  91:d:\practise\f407_disc\lvgl\lvgl\src\font\lv_font.h **** const uint8_t * lv_font_get_glyph_bitmap(const lv_font_t * font_p, uint32_t letter);
  92:d:\practise\f407_disc\lvgl\lvgl\src\font\lv_font.h **** 
  93:d:\practise\f407_disc\lvgl\lvgl\src\font\lv_font.h **** /**
  94:d:\practise\f407_disc\lvgl\lvgl\src\font\lv_font.h ****  * Get the descriptor of a glyph
  95:d:\practise\f407_disc\lvgl\lvgl\src\font\lv_font.h ****  * @param font_p pointer to font
  96:d:\practise\f407_disc\lvgl\lvgl\src\font\lv_font.h ****  * @param dsc_out store the result descriptor here
  97:d:\practise\f407_disc\lvgl\lvgl\src\font\lv_font.h ****  * @param letter an UNICODE letter code
  98:d:\practise\f407_disc\lvgl\lvgl\src\font\lv_font.h ****  * @return true: descriptor is successfully loaded into `dsc_out`.
  99:d:\practise\f407_disc\lvgl\lvgl\src\font\lv_font.h ****  *         false: the letter was not found, no data is loaded to `dsc_out`
 100:d:\practise\f407_disc\lvgl\lvgl\src\font\lv_font.h ****  */
 101:d:\practise\f407_disc\lvgl\lvgl\src\font\lv_font.h **** bool lv_font_get_glyph_dsc(const lv_font_t * font_p, lv_font_glyph_dsc_t * dsc_out, uint32_t letter
 102:d:\practise\f407_disc\lvgl\lvgl\src\font\lv_font.h ****                            uint32_t letter_next);
 103:d:\practise\f407_disc\lvgl\lvgl\src\font\lv_font.h **** 
 104:d:\practise\f407_disc\lvgl\lvgl\src\font\lv_font.h **** /**
 105:d:\practise\f407_disc\lvgl\lvgl\src\font\lv_font.h ****  * Get the width of a glyph with kerning
 106:d:\practise\f407_disc\lvgl\lvgl\src\font\lv_font.h ****  * @param font pointer to a font
 107:d:\practise\f407_disc\lvgl\lvgl\src\font\lv_font.h ****  * @param letter an UNICODE letter
 108:d:\practise\f407_disc\lvgl\lvgl\src\font\lv_font.h ****  * @param letter_next the next letter after `letter`. Used for kerning
 109:d:\practise\f407_disc\lvgl\lvgl\src\font\lv_font.h ****  * @return the width of the glyph
 110:d:\practise\f407_disc\lvgl\lvgl\src\font\lv_font.h ****  */
 111:d:\practise\f407_disc\lvgl\lvgl\src\font\lv_font.h **** uint16_t lv_font_get_glyph_width(const lv_font_t * font, uint32_t letter, uint32_t letter_next);
 112:d:\practise\f407_disc\lvgl\lvgl\src\font\lv_font.h **** 
 113:d:\practise\f407_disc\lvgl\lvgl\src\font\lv_font.h **** /**
 114:d:\practise\f407_disc\lvgl\lvgl\src\font\lv_font.h ****  * Get the line height of a font. All characters fit into this height
 115:d:\practise\f407_disc\lvgl\lvgl\src\font\lv_font.h ****  * @param font_p pointer to a font
 116:d:\practise\f407_disc\lvgl\lvgl\src\font\lv_font.h ****  * @return the height of a font
 117:d:\practise\f407_disc\lvgl\lvgl\src\font\lv_font.h ****  */
 118:d:\practise\f407_disc\lvgl\lvgl\src\font\lv_font.h **** static inline lv_coord_t lv_font_get_line_height(const lv_font_t * font_p)
  83              		.loc 2 118 26 view .LVU13
  84              	.LBB87:
 119:d:\practise\f407_disc\lvgl\lvgl\src\font\lv_font.h **** {
 120:d:\practise\f407_disc\lvgl\lvgl\src\font\lv_font.h ****     return font_p->line_height;
  85              		.loc 2 120 5 view .LVU14
  86              		.loc 2 120 18 is_stmt 0 view .LVU15
  87 0036 B2F90870 		ldrsh	r7, [r2, #8]
  88              	.LVL5:
  89              		.loc 2 120 18 view .LVU16
  90              	.LBE87:
  91              	.LBE86:
  92              		.loc 1 807 54 view .LVU17
  93 003a 9BB2     		uxth	r3, r3
  94 003c 0893     		str	r3, [sp, #32]
  95 003e 13FA87F7 		uxtah	r7, r3, r7
  96              		.loc 1 807 65 view .LVU18
  97 0042 83B2     		uxth	r3, r0
  98 0044 0993     		str	r3, [sp, #36]
  99 0046 13FA87F7 		uxtah	r7, r3, r7
 100              		.loc 1 807 16 view .LVU19
ARM GAS  C:\Users\gx\AppData\Local\Temp\ccSIsGPa.s 			page 19


 101 004a 3FB2     		sxth	r7, r7
 102              	.LVL6:
 808:lvgl/lvgl/src/widgets/lv_table.c **** 
 809:lvgl/lvgl/src/widgets/lv_table.c ****     for(cell = row_start, col = 0; cell < row_start + table->col_cnt; cell++, col++) {
 103              		.loc 1 809 5 is_stmt 1 view .LVU20
 104              		.loc 1 809 14 is_stmt 0 view .LVU21
 105 004c 4E46     		mov	r6, r9
 106              		.loc 1 809 31 view .LVU22
 107 004e 0025     		movs	r5, #0
 108              		.loc 1 809 5 view .LVU23
 109 0050 2DE0     		b	.L2
 110              	.LVL7:
 111              	.L10:
 112              	.LBB88:
 113              	.LBB89:
 810:lvgl/lvgl/src/widgets/lv_table.c ****         if(table->cell_data[cell] != NULL) {
 811:lvgl/lvgl/src/widgets/lv_table.c ****             txt_w              = table->col_w[col];
 812:lvgl/lvgl/src/widgets/lv_table.c ****             uint16_t col_merge = 0;
 813:lvgl/lvgl/src/widgets/lv_table.c ****             for(col_merge = 0; col_merge + col < table->col_cnt - 1; col_merge++) {
 814:lvgl/lvgl/src/widgets/lv_table.c **** 
 815:lvgl/lvgl/src/widgets/lv_table.c ****                 if(table->cell_data[cell + col_merge] != NULL) {
 816:lvgl/lvgl/src/widgets/lv_table.c ****                     lv_table_cell_ctrl_t ctrl = 0;
 817:lvgl/lvgl/src/widgets/lv_table.c ****                     char * next_cell_data = table->cell_data[cell + col_merge];
 818:lvgl/lvgl/src/widgets/lv_table.c ****                     if(next_cell_data) ctrl = next_cell_data[0];
 819:lvgl/lvgl/src/widgets/lv_table.c ****                     if(ctrl & LV_TABLE_CELL_CTRL_MERGE_RIGHT)
 820:lvgl/lvgl/src/widgets/lv_table.c ****                         txt_w += table->col_w[col + col_merge + 1];
 114              		.loc 1 820 25 is_stmt 1 discriminator 2 view .LVU24
 115              		.loc 1 820 46 is_stmt 0 discriminator 2 view .LVU25
 116 0052 0132     		adds	r2, r2, #1
 117 0054 3BF81220 		ldrh	r2, [fp, r2, lsl #1]
 118              		.loc 1 820 31 discriminator 2 view .LVU26
 119 0058 1344     		add	r3, r3, r2
 120              	.LVL8:
 121              		.loc 1 820 31 discriminator 2 view .LVU27
 122 005a 1BB2     		sxth	r3, r3
 123              	.LVL9:
 124              		.loc 1 820 31 discriminator 2 view .LVU28
 125              	.LBE89:
 813:lvgl/lvgl/src/widgets/lv_table.c **** 
 126              		.loc 1 813 70 is_stmt 1 discriminator 2 view .LVU29
 813:lvgl/lvgl/src/widgets/lv_table.c **** 
 127              		.loc 1 813 79 is_stmt 0 discriminator 2 view .LVU30
 128 005c 0134     		adds	r4, r4, #1
 129              	.LVL10:
 813:lvgl/lvgl/src/widgets/lv_table.c **** 
 130              		.loc 1 813 79 discriminator 2 view .LVU31
 131 005e A4B2     		uxth	r4, r4
 132              	.LVL11:
 133              	.L4:
 813:lvgl/lvgl/src/widgets/lv_table.c **** 
 134              		.loc 1 813 32 is_stmt 1 discriminator 1 view .LVU32
 813:lvgl/lvgl/src/widgets/lv_table.c **** 
 135              		.loc 1 813 42 is_stmt 0 discriminator 1 view .LVU33
 136 0060 2A19     		adds	r2, r5, r4
 813:lvgl/lvgl/src/widgets/lv_table.c **** 
 137              		.loc 1 813 65 discriminator 1 view .LVU34
 138 0062 0CF1FF30 		add	r0, ip, #-1
ARM GAS  C:\Users\gx\AppData\Local\Temp\ccSIsGPa.s 			page 20


 813:lvgl/lvgl/src/widgets/lv_table.c **** 
 139              		.loc 1 813 13 discriminator 1 view .LVU35
 140 0066 8242     		cmp	r2, r0
 141 0068 08DA     		bge	.L5
 815:lvgl/lvgl/src/widgets/lv_table.c ****                     lv_table_cell_ctrl_t ctrl = 0;
 142              		.loc 1 815 17 is_stmt 1 view .LVU36
 815:lvgl/lvgl/src/widgets/lv_table.c ****                     lv_table_cell_ctrl_t ctrl = 0;
 143              		.loc 1 815 42 is_stmt 0 view .LVU37
 144 006a 04EB0A00 		add	r0, r4, r10
 815:lvgl/lvgl/src/widgets/lv_table.c ****                     lv_table_cell_ctrl_t ctrl = 0;
 145              		.loc 1 815 36 view .LVU38
 146 006e 51F82000 		ldr	r0, [r1, r0, lsl #2]
 815:lvgl/lvgl/src/widgets/lv_table.c ****                     lv_table_cell_ctrl_t ctrl = 0;
 147              		.loc 1 815 19 view .LVU39
 148 0072 18B1     		cbz	r0, .L5
 149              	.LBB90:
 816:lvgl/lvgl/src/widgets/lv_table.c ****                     char * next_cell_data = table->cell_data[cell + col_merge];
 150              		.loc 1 816 21 is_stmt 1 discriminator 1 view .LVU40
 151              	.LVL12:
 817:lvgl/lvgl/src/widgets/lv_table.c ****                     if(next_cell_data) ctrl = next_cell_data[0];
 152              		.loc 1 817 21 discriminator 1 view .LVU41
 818:lvgl/lvgl/src/widgets/lv_table.c ****                     if(ctrl & LV_TABLE_CELL_CTRL_MERGE_RIGHT)
 153              		.loc 1 818 21 discriminator 1 view .LVU42
 818:lvgl/lvgl/src/widgets/lv_table.c ****                     if(ctrl & LV_TABLE_CELL_CTRL_MERGE_RIGHT)
 154              		.loc 1 818 40 discriminator 1 view .LVU43
 818:lvgl/lvgl/src/widgets/lv_table.c ****                     if(ctrl & LV_TABLE_CELL_CTRL_MERGE_RIGHT)
 155              		.loc 1 818 45 is_stmt 0 discriminator 1 view .LVU44
 156 0074 0078     		ldrb	r0, [r0]	@ zero_extendqisi2
 157              	.LVL13:
 819:lvgl/lvgl/src/widgets/lv_table.c ****                         txt_w += table->col_w[col + col_merge + 1];
 158              		.loc 1 819 21 is_stmt 1 discriminator 1 view .LVU45
 819:lvgl/lvgl/src/widgets/lv_table.c ****                         txt_w += table->col_w[col + col_merge + 1];
 159              		.loc 1 819 23 is_stmt 0 discriminator 1 view .LVU46
 160 0076 10F0010F 		tst	r0, #1
 161 007a EAD1     		bne	.L10
 162              	.LVL14:
 163              	.L5:
 819:lvgl/lvgl/src/widgets/lv_table.c ****                         txt_w += table->col_w[col + col_merge + 1];
 164              		.loc 1 819 23 discriminator 1 view .LVU47
 165              	.LBE90:
 821:lvgl/lvgl/src/widgets/lv_table.c ****                     else
 822:lvgl/lvgl/src/widgets/lv_table.c ****                         break;
 823:lvgl/lvgl/src/widgets/lv_table.c ****                 }
 824:lvgl/lvgl/src/widgets/lv_table.c ****                 else {
 825:lvgl/lvgl/src/widgets/lv_table.c ****                     break;
 826:lvgl/lvgl/src/widgets/lv_table.c ****                 }
 827:lvgl/lvgl/src/widgets/lv_table.c ****             }
 828:lvgl/lvgl/src/widgets/lv_table.c **** 
 829:lvgl/lvgl/src/widgets/lv_table.c ****             lv_table_cell_ctrl_t ctrl = 0;
 166              		.loc 1 829 13 is_stmt 1 discriminator 1 view .LVU48
 830:lvgl/lvgl/src/widgets/lv_table.c ****             if(table->cell_data[cell]) ctrl = table->cell_data[cell][0];
 167              		.loc 1 830 13 discriminator 1 view .LVU49
 168              		.loc 1 830 40 discriminator 1 view .LVU50
 169              		.loc 1 830 45 is_stmt 0 discriminator 1 view .LVU51
 170 007c 9EF80020 		ldrb	r2, [lr]	@ zero_extendqisi2
 171              	.LVL15:
 831:lvgl/lvgl/src/widgets/lv_table.c **** 
ARM GAS  C:\Users\gx\AppData\Local\Temp\ccSIsGPa.s 			page 21


 832:lvgl/lvgl/src/widgets/lv_table.c ****             /*With text crop assume 1 line*/
 833:lvgl/lvgl/src/widgets/lv_table.c ****             if(ctrl & LV_TABLE_CELL_CTRL_TEXT_CROP) {
 172              		.loc 1 833 13 is_stmt 1 discriminator 1 view .LVU52
 173              		.loc 1 833 15 is_stmt 0 discriminator 1 view .LVU53
 174 0080 12F0020F 		tst	r2, #2
 175 0084 27D0     		beq	.L7
 834:lvgl/lvgl/src/widgets/lv_table.c ****                 h_max = LV_MAX(lv_font_get_line_height(font) + cell_top + cell_bottom,
 176              		.loc 1 834 17 is_stmt 1 view .LVU54
 177              	.LVL16:
 178              	.LBB91:
 179              	.LBI91:
 118:d:\practise\f407_disc\lvgl\lvgl\src\font\lv_font.h **** {
 180              		.loc 2 118 26 view .LVU55
 181              	.LBB92:
 182              		.loc 2 120 5 view .LVU56
 183              		.loc 2 120 18 is_stmt 0 view .LVU57
 184 0086 059B     		ldr	r3, [sp, #20]
 185              	.LVL17:
 186              		.loc 2 120 18 view .LVU58
 187 0088 B3F90830 		ldrsh	r3, [r3, #8]
 188              	.LVL18:
 189              		.loc 2 120 18 view .LVU59
 190              	.LBE92:
 191              	.LBE91:
 192              		.loc 1 834 25 view .LVU60
 193 008c 069A     		ldr	r2, [sp, #24]
 194              	.LVL19:
 195              		.loc 1 834 25 view .LVU61
 196 008e 1A44     		add	r2, r2, r3
 197 0090 0799     		ldr	r1, [sp, #28]
 198 0092 0A44     		add	r2, r2, r1
 199              		.loc 1 834 23 view .LVU62
 200 0094 BA42     		cmp	r2, r7
 201 0096 06DD     		ble	.L3
 202              	.LVL20:
 203              		.loc 1 834 23 view .LVU63
 204              	.LBE88:
 205              		.loc 2 120 5 is_stmt 1 view .LVU64
 206              	.LBB93:
 207              		.loc 1 834 25 is_stmt 0 view .LVU65
 208 0098 089A     		ldr	r2, [sp, #32]
 209 009a 12FA83F7 		uxtah	r7, r2, r3
 210              	.LVL21:
 211              		.loc 1 834 25 view .LVU66
 212 009e 099B     		ldr	r3, [sp, #36]
 213 00a0 13FA87F7 		uxtah	r7, r3, r7
 214              		.loc 1 834 23 view .LVU67
 215 00a4 3FB2     		sxth	r7, r7
 216              	.LVL22:
 217              	.L3:
 218              		.loc 1 834 23 view .LVU68
 219              	.LBE93:
 809:lvgl/lvgl/src/widgets/lv_table.c ****         if(table->cell_data[cell] != NULL) {
 220              		.loc 1 809 71 is_stmt 1 discriminator 2 view .LVU69
 809:lvgl/lvgl/src/widgets/lv_table.c ****         if(table->cell_data[cell] != NULL) {
 221              		.loc 1 809 75 is_stmt 0 discriminator 2 view .LVU70
 222 00a6 0136     		adds	r6, r6, #1
ARM GAS  C:\Users\gx\AppData\Local\Temp\ccSIsGPa.s 			page 22


 223              	.LVL23:
 809:lvgl/lvgl/src/widgets/lv_table.c ****         if(table->cell_data[cell] != NULL) {
 224              		.loc 1 809 75 discriminator 2 view .LVU71
 225 00a8 B6B2     		uxth	r6, r6
 226              	.LVL24:
 809:lvgl/lvgl/src/widgets/lv_table.c ****         if(table->cell_data[cell] != NULL) {
 227              		.loc 1 809 82 discriminator 2 view .LVU72
 228 00aa 0135     		adds	r5, r5, #1
 229              	.LVL25:
 809:lvgl/lvgl/src/widgets/lv_table.c ****         if(table->cell_data[cell] != NULL) {
 230              		.loc 1 809 82 discriminator 2 view .LVU73
 231 00ac ADB2     		uxth	r5, r5
 232              	.LVL26:
 233              	.L2:
 809:lvgl/lvgl/src/widgets/lv_table.c ****         if(table->cell_data[cell] != NULL) {
 234              		.loc 1 809 36 is_stmt 1 discriminator 1 view .LVU74
 809:lvgl/lvgl/src/widgets/lv_table.c ****         if(table->cell_data[cell] != NULL) {
 235              		.loc 1 809 41 is_stmt 0 discriminator 1 view .LVU75
 236 00ae B246     		mov	r10, r6
 809:lvgl/lvgl/src/widgets/lv_table.c ****         if(table->cell_data[cell] != NULL) {
 237              		.loc 1 809 60 discriminator 1 view .LVU76
 238 00b0 B8F824C0 		ldrh	ip, [r8, #36]
 809:lvgl/lvgl/src/widgets/lv_table.c ****         if(table->cell_data[cell] != NULL) {
 239              		.loc 1 809 53 discriminator 1 view .LVU77
 240 00b4 09EB0C03 		add	r3, r9, ip
 809:lvgl/lvgl/src/widgets/lv_table.c ****         if(table->cell_data[cell] != NULL) {
 241              		.loc 1 809 5 discriminator 1 view .LVU78
 242 00b8 9E42     		cmp	r6, r3
 243 00ba 2DDA     		bge	.L11
 810:lvgl/lvgl/src/widgets/lv_table.c ****             txt_w              = table->col_w[col];
 244              		.loc 1 810 9 is_stmt 1 view .LVU79
 810:lvgl/lvgl/src/widgets/lv_table.c ****             txt_w              = table->col_w[col];
 245              		.loc 1 810 17 is_stmt 0 view .LVU80
 246 00bc D8F82810 		ldr	r1, [r8, #40]
 810:lvgl/lvgl/src/widgets/lv_table.c ****             txt_w              = table->col_w[col];
 247              		.loc 1 810 28 view .LVU81
 248 00c0 51F826E0 		ldr	lr, [r1, r6, lsl #2]
 810:lvgl/lvgl/src/widgets/lv_table.c ****             txt_w              = table->col_w[col];
 249              		.loc 1 810 11 view .LVU82
 250 00c4 BEF1000F 		cmp	lr, #0
 251 00c8 EDD0     		beq	.L3
 252              	.LBB94:
 811:lvgl/lvgl/src/widgets/lv_table.c ****             uint16_t col_merge = 0;
 253              		.loc 1 811 13 is_stmt 1 view .LVU83
 811:lvgl/lvgl/src/widgets/lv_table.c ****             uint16_t col_merge = 0;
 254              		.loc 1 811 39 is_stmt 0 view .LVU84
 255 00ca D8F830B0 		ldr	fp, [r8, #48]
 811:lvgl/lvgl/src/widgets/lv_table.c ****             uint16_t col_merge = 0;
 256              		.loc 1 811 32 view .LVU85
 257 00ce 3BF91530 		ldrsh	r3, [fp, r5, lsl #1]
 258              	.LVL27:
 812:lvgl/lvgl/src/widgets/lv_table.c ****             for(col_merge = 0; col_merge + col < table->col_cnt - 1; col_merge++) {
 259              		.loc 1 812 13 is_stmt 1 view .LVU86
 813:lvgl/lvgl/src/widgets/lv_table.c **** 
 260              		.loc 1 813 13 view .LVU87
 813:lvgl/lvgl/src/widgets/lv_table.c **** 
 261              		.loc 1 813 27 is_stmt 0 view .LVU88
ARM GAS  C:\Users\gx\AppData\Local\Temp\ccSIsGPa.s 			page 23


 262 00d2 0024     		movs	r4, #0
 813:lvgl/lvgl/src/widgets/lv_table.c **** 
 263              		.loc 1 813 13 view .LVU89
 264 00d4 C4E7     		b	.L4
 265              	.LVL28:
 266              	.L7:
 835:lvgl/lvgl/src/widgets/lv_table.c ****                                     h_max);
 836:lvgl/lvgl/src/widgets/lv_table.c ****             }
 837:lvgl/lvgl/src/widgets/lv_table.c ****             /*Without text crop calculate the height of the text in the cell*/
 838:lvgl/lvgl/src/widgets/lv_table.c ****             else {
 839:lvgl/lvgl/src/widgets/lv_table.c ****                 txt_w -= cell_left + cell_right;
 267              		.loc 1 839 17 is_stmt 1 view .LVU90
 268              		.loc 1 839 36 is_stmt 0 view .LVU91
 269 00d6 0C9A     		ldr	r2, [sp, #48]
 270              	.LVL29:
 271              		.loc 1 839 36 view .LVU92
 272 00d8 0D99     		ldr	r1, [sp, #52]
 273 00da 0A44     		add	r2, r2, r1
 274 00dc 92B2     		uxth	r2, r2
 275              		.loc 1 839 23 view .LVU93
 276 00de 9B1A     		subs	r3, r3, r2
 277              	.LVL30:
 278              		.loc 1 839 23 view .LVU94
 279 00e0 1BB2     		sxth	r3, r3
 280              	.LVL31:
 840:lvgl/lvgl/src/widgets/lv_table.c **** 
 841:lvgl/lvgl/src/widgets/lv_table.c ****                 lv_txt_get_size(&txt_size, table->cell_data[cell] + 1, font,
 281              		.loc 1 841 17 is_stmt 1 view .LVU95
 282 00e2 0022     		movs	r2, #0
 283 00e4 0292     		str	r2, [sp, #8]
 284              	.LVL32:
 285              		.loc 1 841 17 is_stmt 0 view .LVU96
 286 00e6 0193     		str	r3, [sp, #4]
 287 00e8 0B9B     		ldr	r3, [sp, #44]
 288              	.LVL33:
 289              		.loc 1 841 17 view .LVU97
 290 00ea 0093     		str	r3, [sp]
 291 00ec 0A9B     		ldr	r3, [sp, #40]
 292 00ee 059A     		ldr	r2, [sp, #20]
 293 00f0 0EF10101 		add	r1, lr, #1
 294 00f4 0FA8     		add	r0, sp, #60
 295 00f6 FFF7FEFF 		bl	lv_txt_get_size
 296              	.LVL34:
 842:lvgl/lvgl/src/widgets/lv_table.c ****                                  letter_space, line_space, txt_w, LV_TEXT_FLAG_NONE);
 843:lvgl/lvgl/src/widgets/lv_table.c **** 
 844:lvgl/lvgl/src/widgets/lv_table.c ****                 h_max = LV_MAX(txt_size.y + cell_top + cell_bottom, h_max);
 297              		.loc 1 844 17 is_stmt 1 view .LVU98
 298              		.loc 1 844 25 is_stmt 0 view .LVU99
 299 00fa BDF93E30 		ldrsh	r3, [sp, #62]
 300 00fe 069A     		ldr	r2, [sp, #24]
 301 0100 1344     		add	r3, r3, r2
 302 0102 079A     		ldr	r2, [sp, #28]
 303 0104 1344     		add	r3, r3, r2
 304 0106 9F42     		cmp	r7, r3
 305 0108 B8BF     		it	lt
 306 010a 1F46     		movlt	r7, r3
 307              	.LVL35:
ARM GAS  C:\Users\gx\AppData\Local\Temp\ccSIsGPa.s 			page 24


 308              		.loc 1 844 23 view .LVU100
 309 010c 3FB2     		sxth	r7, r7
 310              	.LVL36:
 845:lvgl/lvgl/src/widgets/lv_table.c ****                 cell += col_merge;
 311              		.loc 1 845 17 is_stmt 1 view .LVU101
 312              		.loc 1 845 22 is_stmt 0 view .LVU102
 313 010e 2644     		add	r6, r6, r4
 314              	.LVL37:
 315              		.loc 1 845 22 view .LVU103
 316 0110 B6B2     		uxth	r6, r6
 317              	.LVL38:
 846:lvgl/lvgl/src/widgets/lv_table.c ****                 col += col_merge;
 318              		.loc 1 846 17 is_stmt 1 view .LVU104
 319              		.loc 1 846 21 is_stmt 0 view .LVU105
 320 0112 2544     		add	r5, r5, r4
 321              	.LVL39:
 322              		.loc 1 846 21 view .LVU106
 323 0114 ADB2     		uxth	r5, r5
 324              	.LVL40:
 325              		.loc 1 846 21 view .LVU107
 326 0116 C6E7     		b	.L3
 327              	.LVL41:
 328              	.L11:
 329              		.loc 1 846 21 view .LVU108
 330              	.LBE94:
 847:lvgl/lvgl/src/widgets/lv_table.c ****             }
 848:lvgl/lvgl/src/widgets/lv_table.c ****         }
 849:lvgl/lvgl/src/widgets/lv_table.c ****     }
 850:lvgl/lvgl/src/widgets/lv_table.c **** 
 851:lvgl/lvgl/src/widgets/lv_table.c ****     return h_max;
 331              		.loc 1 851 5 is_stmt 1 view .LVU109
 852:lvgl/lvgl/src/widgets/lv_table.c **** }
 332              		.loc 1 852 1 is_stmt 0 view .LVU110
 333 0118 3846     		mov	r0, r7
 334 011a 11B0     		add	sp, sp, #68
 335              	.LCFI2:
 336              		.cfi_def_cfa_offset 36
 337              		@ sp needed
 338 011c BDE8F08F 		pop	{r4, r5, r6, r7, r8, r9, r10, fp, pc}
 339              		.loc 1 852 1 view .LVU111
 340              		.cfi_endproc
 341              	.LFE171:
 343              		.section	.text.refr_size,"ax",%progbits
 344              		.align	1
 345              		.syntax unified
 346              		.thumb
 347              		.thumb_func
 348              		.fpu fpv4-sp-d16
 350              	refr_size:
 351              	.LVL42:
 352              	.LFB170:
 770:lvgl/lvgl/src/widgets/lv_table.c ****     lv_table_t * table = (lv_table_t *)obj;
 353              		.loc 1 770 1 is_stmt 1 view -0
 354              		.cfi_startproc
 355              		@ args = 0, pretend = 0, frame = 16
 356              		@ frame_needed = 0, uses_anonymous_args = 0
 770:lvgl/lvgl/src/widgets/lv_table.c ****     lv_table_t * table = (lv_table_t *)obj;
ARM GAS  C:\Users\gx\AppData\Local\Temp\ccSIsGPa.s 			page 25


 357              		.loc 1 770 1 is_stmt 0 view .LVU113
 358 0000 2DE9F04F 		push	{r4, r5, r6, r7, r8, r9, r10, fp, lr}
 359              	.LCFI3:
 360              		.cfi_def_cfa_offset 36
 361              		.cfi_offset 4, -36
 362              		.cfi_offset 5, -32
 363              		.cfi_offset 6, -28
 364              		.cfi_offset 7, -24
 365              		.cfi_offset 8, -20
 366              		.cfi_offset 9, -16
 367              		.cfi_offset 10, -12
 368              		.cfi_offset 11, -8
 369              		.cfi_offset 14, -4
 370 0004 8BB0     		sub	sp, sp, #44
 371              	.LCFI4:
 372              		.cfi_def_cfa_offset 80
 373 0006 0546     		mov	r5, r0
 374 0008 0C46     		mov	r4, r1
 771:lvgl/lvgl/src/widgets/lv_table.c **** 
 375              		.loc 1 771 5 is_stmt 1 view .LVU114
 376              	.LVL43:
 773:lvgl/lvgl/src/widgets/lv_table.c **** 
 377              		.loc 1 773 5 view .LVU115
 775:lvgl/lvgl/src/widgets/lv_table.c ****     lv_coord_t cell_right = lv_obj_get_style_pad_right(obj, LV_PART_ITEMS);
 378              		.loc 1 775 5 view .LVU116
 379              	.LBB95:
 380              	.LBI95:
 381              		.file 3 "lvgl/lvgl/src/widgets/../core/lv_obj_style_gen.h"
   1:lvgl/lvgl/src/widgets/../core/lv_obj_style_gen.h **** static inline lv_coord_t lv_obj_get_style_width(const struct _lv_obj_t * obj, uint32_t part)
   2:lvgl/lvgl/src/widgets/../core/lv_obj_style_gen.h **** {
   3:lvgl/lvgl/src/widgets/../core/lv_obj_style_gen.h ****     lv_style_value_t v = lv_obj_get_style_prop(obj, part, LV_STYLE_WIDTH);
   4:lvgl/lvgl/src/widgets/../core/lv_obj_style_gen.h ****     return (lv_coord_t)v.num;
   5:lvgl/lvgl/src/widgets/../core/lv_obj_style_gen.h **** }
   6:lvgl/lvgl/src/widgets/../core/lv_obj_style_gen.h **** 
   7:lvgl/lvgl/src/widgets/../core/lv_obj_style_gen.h **** static inline lv_coord_t lv_obj_get_style_min_width(const struct _lv_obj_t * obj, uint32_t part)
   8:lvgl/lvgl/src/widgets/../core/lv_obj_style_gen.h **** {
   9:lvgl/lvgl/src/widgets/../core/lv_obj_style_gen.h ****     lv_style_value_t v = lv_obj_get_style_prop(obj, part, LV_STYLE_MIN_WIDTH);
  10:lvgl/lvgl/src/widgets/../core/lv_obj_style_gen.h ****     return (lv_coord_t)v.num;
  11:lvgl/lvgl/src/widgets/../core/lv_obj_style_gen.h **** }
  12:lvgl/lvgl/src/widgets/../core/lv_obj_style_gen.h **** 
  13:lvgl/lvgl/src/widgets/../core/lv_obj_style_gen.h **** static inline lv_coord_t lv_obj_get_style_max_width(const struct _lv_obj_t * obj, uint32_t part)
  14:lvgl/lvgl/src/widgets/../core/lv_obj_style_gen.h **** {
  15:lvgl/lvgl/src/widgets/../core/lv_obj_style_gen.h ****     lv_style_value_t v = lv_obj_get_style_prop(obj, part, LV_STYLE_MAX_WIDTH);
  16:lvgl/lvgl/src/widgets/../core/lv_obj_style_gen.h ****     return (lv_coord_t)v.num;
  17:lvgl/lvgl/src/widgets/../core/lv_obj_style_gen.h **** }
  18:lvgl/lvgl/src/widgets/../core/lv_obj_style_gen.h **** 
  19:lvgl/lvgl/src/widgets/../core/lv_obj_style_gen.h **** static inline lv_coord_t lv_obj_get_style_height(const struct _lv_obj_t * obj, uint32_t part)
  20:lvgl/lvgl/src/widgets/../core/lv_obj_style_gen.h **** {
  21:lvgl/lvgl/src/widgets/../core/lv_obj_style_gen.h ****     lv_style_value_t v = lv_obj_get_style_prop(obj, part, LV_STYLE_HEIGHT);
  22:lvgl/lvgl/src/widgets/../core/lv_obj_style_gen.h ****     return (lv_coord_t)v.num;
  23:lvgl/lvgl/src/widgets/../core/lv_obj_style_gen.h **** }
  24:lvgl/lvgl/src/widgets/../core/lv_obj_style_gen.h **** 
  25:lvgl/lvgl/src/widgets/../core/lv_obj_style_gen.h **** static inline lv_coord_t lv_obj_get_style_min_height(const struct _lv_obj_t * obj, uint32_t part)
  26:lvgl/lvgl/src/widgets/../core/lv_obj_style_gen.h **** {
  27:lvgl/lvgl/src/widgets/../core/lv_obj_style_gen.h ****     lv_style_value_t v = lv_obj_get_style_prop(obj, part, LV_STYLE_MIN_HEIGHT);
  28:lvgl/lvgl/src/widgets/../core/lv_obj_style_gen.h ****     return (lv_coord_t)v.num;
  29:lvgl/lvgl/src/widgets/../core/lv_obj_style_gen.h **** }
ARM GAS  C:\Users\gx\AppData\Local\Temp\ccSIsGPa.s 			page 26


  30:lvgl/lvgl/src/widgets/../core/lv_obj_style_gen.h **** 
  31:lvgl/lvgl/src/widgets/../core/lv_obj_style_gen.h **** static inline lv_coord_t lv_obj_get_style_max_height(const struct _lv_obj_t * obj, uint32_t part)
  32:lvgl/lvgl/src/widgets/../core/lv_obj_style_gen.h **** {
  33:lvgl/lvgl/src/widgets/../core/lv_obj_style_gen.h ****     lv_style_value_t v = lv_obj_get_style_prop(obj, part, LV_STYLE_MAX_HEIGHT);
  34:lvgl/lvgl/src/widgets/../core/lv_obj_style_gen.h ****     return (lv_coord_t)v.num;
  35:lvgl/lvgl/src/widgets/../core/lv_obj_style_gen.h **** }
  36:lvgl/lvgl/src/widgets/../core/lv_obj_style_gen.h **** 
  37:lvgl/lvgl/src/widgets/../core/lv_obj_style_gen.h **** static inline lv_coord_t lv_obj_get_style_x(const struct _lv_obj_t * obj, uint32_t part)
  38:lvgl/lvgl/src/widgets/../core/lv_obj_style_gen.h **** {
  39:lvgl/lvgl/src/widgets/../core/lv_obj_style_gen.h ****     lv_style_value_t v = lv_obj_get_style_prop(obj, part, LV_STYLE_X);
  40:lvgl/lvgl/src/widgets/../core/lv_obj_style_gen.h ****     return (lv_coord_t)v.num;
  41:lvgl/lvgl/src/widgets/../core/lv_obj_style_gen.h **** }
  42:lvgl/lvgl/src/widgets/../core/lv_obj_style_gen.h **** 
  43:lvgl/lvgl/src/widgets/../core/lv_obj_style_gen.h **** static inline lv_coord_t lv_obj_get_style_y(const struct _lv_obj_t * obj, uint32_t part)
  44:lvgl/lvgl/src/widgets/../core/lv_obj_style_gen.h **** {
  45:lvgl/lvgl/src/widgets/../core/lv_obj_style_gen.h ****     lv_style_value_t v = lv_obj_get_style_prop(obj, part, LV_STYLE_Y);
  46:lvgl/lvgl/src/widgets/../core/lv_obj_style_gen.h ****     return (lv_coord_t)v.num;
  47:lvgl/lvgl/src/widgets/../core/lv_obj_style_gen.h **** }
  48:lvgl/lvgl/src/widgets/../core/lv_obj_style_gen.h **** 
  49:lvgl/lvgl/src/widgets/../core/lv_obj_style_gen.h **** static inline lv_align_t lv_obj_get_style_align(const struct _lv_obj_t * obj, uint32_t part)
  50:lvgl/lvgl/src/widgets/../core/lv_obj_style_gen.h **** {
  51:lvgl/lvgl/src/widgets/../core/lv_obj_style_gen.h ****     lv_style_value_t v = lv_obj_get_style_prop(obj, part, LV_STYLE_ALIGN);
  52:lvgl/lvgl/src/widgets/../core/lv_obj_style_gen.h ****     return (lv_align_t)v.num;
  53:lvgl/lvgl/src/widgets/../core/lv_obj_style_gen.h **** }
  54:lvgl/lvgl/src/widgets/../core/lv_obj_style_gen.h **** 
  55:lvgl/lvgl/src/widgets/../core/lv_obj_style_gen.h **** static inline lv_coord_t lv_obj_get_style_transform_width(const struct _lv_obj_t * obj, uint32_t pa
  56:lvgl/lvgl/src/widgets/../core/lv_obj_style_gen.h **** {
  57:lvgl/lvgl/src/widgets/../core/lv_obj_style_gen.h ****     lv_style_value_t v = lv_obj_get_style_prop(obj, part, LV_STYLE_TRANSFORM_WIDTH);
  58:lvgl/lvgl/src/widgets/../core/lv_obj_style_gen.h ****     return (lv_coord_t)v.num;
  59:lvgl/lvgl/src/widgets/../core/lv_obj_style_gen.h **** }
  60:lvgl/lvgl/src/widgets/../core/lv_obj_style_gen.h **** 
  61:lvgl/lvgl/src/widgets/../core/lv_obj_style_gen.h **** static inline lv_coord_t lv_obj_get_style_transform_height(const struct _lv_obj_t * obj, uint32_t p
  62:lvgl/lvgl/src/widgets/../core/lv_obj_style_gen.h **** {
  63:lvgl/lvgl/src/widgets/../core/lv_obj_style_gen.h ****     lv_style_value_t v = lv_obj_get_style_prop(obj, part, LV_STYLE_TRANSFORM_HEIGHT);
  64:lvgl/lvgl/src/widgets/../core/lv_obj_style_gen.h ****     return (lv_coord_t)v.num;
  65:lvgl/lvgl/src/widgets/../core/lv_obj_style_gen.h **** }
  66:lvgl/lvgl/src/widgets/../core/lv_obj_style_gen.h **** 
  67:lvgl/lvgl/src/widgets/../core/lv_obj_style_gen.h **** static inline lv_coord_t lv_obj_get_style_translate_x(const struct _lv_obj_t * obj, uint32_t part)
  68:lvgl/lvgl/src/widgets/../core/lv_obj_style_gen.h **** {
  69:lvgl/lvgl/src/widgets/../core/lv_obj_style_gen.h ****     lv_style_value_t v = lv_obj_get_style_prop(obj, part, LV_STYLE_TRANSLATE_X);
  70:lvgl/lvgl/src/widgets/../core/lv_obj_style_gen.h ****     return (lv_coord_t)v.num;
  71:lvgl/lvgl/src/widgets/../core/lv_obj_style_gen.h **** }
  72:lvgl/lvgl/src/widgets/../core/lv_obj_style_gen.h **** 
  73:lvgl/lvgl/src/widgets/../core/lv_obj_style_gen.h **** static inline lv_coord_t lv_obj_get_style_translate_y(const struct _lv_obj_t * obj, uint32_t part)
  74:lvgl/lvgl/src/widgets/../core/lv_obj_style_gen.h **** {
  75:lvgl/lvgl/src/widgets/../core/lv_obj_style_gen.h ****     lv_style_value_t v = lv_obj_get_style_prop(obj, part, LV_STYLE_TRANSLATE_Y);
  76:lvgl/lvgl/src/widgets/../core/lv_obj_style_gen.h ****     return (lv_coord_t)v.num;
  77:lvgl/lvgl/src/widgets/../core/lv_obj_style_gen.h **** }
  78:lvgl/lvgl/src/widgets/../core/lv_obj_style_gen.h **** 
  79:lvgl/lvgl/src/widgets/../core/lv_obj_style_gen.h **** static inline lv_coord_t lv_obj_get_style_transform_zoom(const struct _lv_obj_t * obj, uint32_t par
  80:lvgl/lvgl/src/widgets/../core/lv_obj_style_gen.h **** {
  81:lvgl/lvgl/src/widgets/../core/lv_obj_style_gen.h ****     lv_style_value_t v = lv_obj_get_style_prop(obj, part, LV_STYLE_TRANSFORM_ZOOM);
  82:lvgl/lvgl/src/widgets/../core/lv_obj_style_gen.h ****     return (lv_coord_t)v.num;
  83:lvgl/lvgl/src/widgets/../core/lv_obj_style_gen.h **** }
  84:lvgl/lvgl/src/widgets/../core/lv_obj_style_gen.h **** 
  85:lvgl/lvgl/src/widgets/../core/lv_obj_style_gen.h **** static inline lv_coord_t lv_obj_get_style_transform_angle(const struct _lv_obj_t * obj, uint32_t pa
  86:lvgl/lvgl/src/widgets/../core/lv_obj_style_gen.h **** {
ARM GAS  C:\Users\gx\AppData\Local\Temp\ccSIsGPa.s 			page 27


  87:lvgl/lvgl/src/widgets/../core/lv_obj_style_gen.h ****     lv_style_value_t v = lv_obj_get_style_prop(obj, part, LV_STYLE_TRANSFORM_ANGLE);
  88:lvgl/lvgl/src/widgets/../core/lv_obj_style_gen.h ****     return (lv_coord_t)v.num;
  89:lvgl/lvgl/src/widgets/../core/lv_obj_style_gen.h **** }
  90:lvgl/lvgl/src/widgets/../core/lv_obj_style_gen.h **** 
  91:lvgl/lvgl/src/widgets/../core/lv_obj_style_gen.h **** static inline lv_coord_t lv_obj_get_style_pad_top(const struct _lv_obj_t * obj, uint32_t part)
  92:lvgl/lvgl/src/widgets/../core/lv_obj_style_gen.h **** {
  93:lvgl/lvgl/src/widgets/../core/lv_obj_style_gen.h ****     lv_style_value_t v = lv_obj_get_style_prop(obj, part, LV_STYLE_PAD_TOP);
  94:lvgl/lvgl/src/widgets/../core/lv_obj_style_gen.h ****     return (lv_coord_t)v.num;
  95:lvgl/lvgl/src/widgets/../core/lv_obj_style_gen.h **** }
  96:lvgl/lvgl/src/widgets/../core/lv_obj_style_gen.h **** 
  97:lvgl/lvgl/src/widgets/../core/lv_obj_style_gen.h **** static inline lv_coord_t lv_obj_get_style_pad_bottom(const struct _lv_obj_t * obj, uint32_t part)
  98:lvgl/lvgl/src/widgets/../core/lv_obj_style_gen.h **** {
  99:lvgl/lvgl/src/widgets/../core/lv_obj_style_gen.h ****     lv_style_value_t v = lv_obj_get_style_prop(obj, part, LV_STYLE_PAD_BOTTOM);
 100:lvgl/lvgl/src/widgets/../core/lv_obj_style_gen.h ****     return (lv_coord_t)v.num;
 101:lvgl/lvgl/src/widgets/../core/lv_obj_style_gen.h **** }
 102:lvgl/lvgl/src/widgets/../core/lv_obj_style_gen.h **** 
 103:lvgl/lvgl/src/widgets/../core/lv_obj_style_gen.h **** static inline lv_coord_t lv_obj_get_style_pad_left(const struct _lv_obj_t * obj, uint32_t part)
 382              		.loc 3 103 26 view .LVU117
 383              	.LBB96:
 104:lvgl/lvgl/src/widgets/../core/lv_obj_style_gen.h **** {
 105:lvgl/lvgl/src/widgets/../core/lv_obj_style_gen.h ****     lv_style_value_t v = lv_obj_get_style_prop(obj, part, LV_STYLE_PAD_LEFT);
 384              		.loc 3 105 5 view .LVU118
 385              		.loc 3 105 26 is_stmt 0 view .LVU119
 386 000a 41F21202 		movw	r2, #4114
 387 000e 4FF4A021 		mov	r1, #327680
 388              	.LVL44:
 389              		.loc 3 105 26 view .LVU120
 390 0012 FFF7FEFF 		bl	lv_obj_get_style_prop
 391              	.LVL45:
 106:lvgl/lvgl/src/widgets/../core/lv_obj_style_gen.h ****     return (lv_coord_t)v.num;
 392              		.loc 3 106 5 is_stmt 1 view .LVU121
 393              		.loc 3 106 12 is_stmt 0 view .LVU122
 394 0016 0FFA80FB 		sxth	fp, r0
 395              	.LVL46:
 396              		.loc 3 106 12 view .LVU123
 397              	.LBE96:
 398              	.LBE95:
 776:lvgl/lvgl/src/widgets/lv_table.c ****     lv_coord_t cell_top = lv_obj_get_style_pad_top(obj, LV_PART_ITEMS);
 399              		.loc 1 776 5 is_stmt 1 view .LVU124
 400              	.LBB97:
 401              	.LBI97:
 107:lvgl/lvgl/src/widgets/../core/lv_obj_style_gen.h **** }
 108:lvgl/lvgl/src/widgets/../core/lv_obj_style_gen.h **** 
 109:lvgl/lvgl/src/widgets/../core/lv_obj_style_gen.h **** static inline lv_coord_t lv_obj_get_style_pad_right(const struct _lv_obj_t * obj, uint32_t part)
 402              		.loc 3 109 26 view .LVU125
 403              	.LBB98:
 110:lvgl/lvgl/src/widgets/../core/lv_obj_style_gen.h **** {
 111:lvgl/lvgl/src/widgets/../core/lv_obj_style_gen.h ****     lv_style_value_t v = lv_obj_get_style_prop(obj, part, LV_STYLE_PAD_RIGHT);
 404              		.loc 3 111 5 view .LVU126
 405              		.loc 3 111 26 is_stmt 0 view .LVU127
 406 001a 41F21302 		movw	r2, #4115
 407 001e 4FF4A021 		mov	r1, #327680
 408 0022 2846     		mov	r0, r5
 409 0024 FFF7FEFF 		bl	lv_obj_get_style_prop
 410              	.LVL47:
 112:lvgl/lvgl/src/widgets/../core/lv_obj_style_gen.h ****     return (lv_coord_t)v.num;
 411              		.loc 3 112 5 is_stmt 1 view .LVU128
ARM GAS  C:\Users\gx\AppData\Local\Temp\ccSIsGPa.s 			page 28


 412              		.loc 3 112 12 is_stmt 0 view .LVU129
 413 0028 0FFA80FA 		sxth	r10, r0
 414              	.LVL48:
 415              		.loc 3 112 12 view .LVU130
 416              	.LBE98:
 417              	.LBE97:
 777:lvgl/lvgl/src/widgets/lv_table.c ****     lv_coord_t cell_bottom = lv_obj_get_style_pad_bottom(obj, LV_PART_ITEMS);
 418              		.loc 1 777 5 is_stmt 1 view .LVU131
 419              	.LBB99:
 420              	.LBI99:
  91:lvgl/lvgl/src/widgets/../core/lv_obj_style_gen.h **** {
 421              		.loc 3 91 26 view .LVU132
 422              	.LBB100:
  93:lvgl/lvgl/src/widgets/../core/lv_obj_style_gen.h ****     return (lv_coord_t)v.num;
 423              		.loc 3 93 5 view .LVU133
  93:lvgl/lvgl/src/widgets/../core/lv_obj_style_gen.h ****     return (lv_coord_t)v.num;
 424              		.loc 3 93 26 is_stmt 0 view .LVU134
 425 002c 41F21002 		movw	r2, #4112
 426 0030 4FF4A021 		mov	r1, #327680
 427 0034 2846     		mov	r0, r5
 428 0036 FFF7FEFF 		bl	lv_obj_get_style_prop
 429              	.LVL49:
  94:lvgl/lvgl/src/widgets/../core/lv_obj_style_gen.h **** }
 430              		.loc 3 94 5 is_stmt 1 view .LVU135
  94:lvgl/lvgl/src/widgets/../core/lv_obj_style_gen.h **** }
 431              		.loc 3 94 12 is_stmt 0 view .LVU136
 432 003a 0FFA80F9 		sxth	r9, r0
 433              	.LVL50:
  94:lvgl/lvgl/src/widgets/../core/lv_obj_style_gen.h **** }
 434              		.loc 3 94 12 view .LVU137
 435              	.LBE100:
 436              	.LBE99:
 778:lvgl/lvgl/src/widgets/lv_table.c **** 
 437              		.loc 1 778 5 is_stmt 1 view .LVU138
 438              	.LBB101:
 439              	.LBI101:
  97:lvgl/lvgl/src/widgets/../core/lv_obj_style_gen.h **** {
 440              		.loc 3 97 26 view .LVU139
 441              	.LBB102:
  99:lvgl/lvgl/src/widgets/../core/lv_obj_style_gen.h ****     return (lv_coord_t)v.num;
 442              		.loc 3 99 5 view .LVU140
  99:lvgl/lvgl/src/widgets/../core/lv_obj_style_gen.h ****     return (lv_coord_t)v.num;
 443              		.loc 3 99 26 is_stmt 0 view .LVU141
 444 003e 41F21102 		movw	r2, #4113
 445 0042 4FF4A021 		mov	r1, #327680
 446 0046 2846     		mov	r0, r5
 447 0048 FFF7FEFF 		bl	lv_obj_get_style_prop
 448              	.LVL51:
 100:lvgl/lvgl/src/widgets/../core/lv_obj_style_gen.h **** }
 449              		.loc 3 100 5 is_stmt 1 view .LVU142
 100:lvgl/lvgl/src/widgets/../core/lv_obj_style_gen.h **** }
 450              		.loc 3 100 12 is_stmt 0 view .LVU143
 451 004c 03B2     		sxth	r3, r0
 452 004e 0993     		str	r3, [sp, #36]
 453              	.LVL52:
 100:lvgl/lvgl/src/widgets/../core/lv_obj_style_gen.h **** }
 454              		.loc 3 100 12 view .LVU144
ARM GAS  C:\Users\gx\AppData\Local\Temp\ccSIsGPa.s 			page 29


 455              	.LBE102:
 456              	.LBE101:
 780:lvgl/lvgl/src/widgets/lv_table.c ****     lv_coord_t line_space = lv_obj_get_style_text_line_space(obj, LV_PART_ITEMS);
 457              		.loc 1 780 5 is_stmt 1 view .LVU145
 458              	.LBB103:
 459              	.LBI103:
 113:lvgl/lvgl/src/widgets/../core/lv_obj_style_gen.h **** }
 114:lvgl/lvgl/src/widgets/../core/lv_obj_style_gen.h **** 
 115:lvgl/lvgl/src/widgets/../core/lv_obj_style_gen.h **** static inline lv_coord_t lv_obj_get_style_pad_row(const struct _lv_obj_t * obj, uint32_t part)
 116:lvgl/lvgl/src/widgets/../core/lv_obj_style_gen.h **** {
 117:lvgl/lvgl/src/widgets/../core/lv_obj_style_gen.h ****     lv_style_value_t v = lv_obj_get_style_prop(obj, part, LV_STYLE_PAD_ROW);
 118:lvgl/lvgl/src/widgets/../core/lv_obj_style_gen.h ****     return (lv_coord_t)v.num;
 119:lvgl/lvgl/src/widgets/../core/lv_obj_style_gen.h **** }
 120:lvgl/lvgl/src/widgets/../core/lv_obj_style_gen.h **** 
 121:lvgl/lvgl/src/widgets/../core/lv_obj_style_gen.h **** static inline lv_coord_t lv_obj_get_style_pad_column(const struct _lv_obj_t * obj, uint32_t part)
 122:lvgl/lvgl/src/widgets/../core/lv_obj_style_gen.h **** {
 123:lvgl/lvgl/src/widgets/../core/lv_obj_style_gen.h ****     lv_style_value_t v = lv_obj_get_style_prop(obj, part, LV_STYLE_PAD_COLUMN);
 124:lvgl/lvgl/src/widgets/../core/lv_obj_style_gen.h ****     return (lv_coord_t)v.num;
 125:lvgl/lvgl/src/widgets/../core/lv_obj_style_gen.h **** }
 126:lvgl/lvgl/src/widgets/../core/lv_obj_style_gen.h **** 
 127:lvgl/lvgl/src/widgets/../core/lv_obj_style_gen.h **** static inline lv_coord_t lv_obj_get_style_radius(const struct _lv_obj_t * obj, uint32_t part)
 128:lvgl/lvgl/src/widgets/../core/lv_obj_style_gen.h **** {
 129:lvgl/lvgl/src/widgets/../core/lv_obj_style_gen.h ****     lv_style_value_t v = lv_obj_get_style_prop(obj, part, LV_STYLE_RADIUS);
 130:lvgl/lvgl/src/widgets/../core/lv_obj_style_gen.h ****     return (lv_coord_t)v.num;
 131:lvgl/lvgl/src/widgets/../core/lv_obj_style_gen.h **** }
 132:lvgl/lvgl/src/widgets/../core/lv_obj_style_gen.h **** 
 133:lvgl/lvgl/src/widgets/../core/lv_obj_style_gen.h **** static inline bool lv_obj_get_style_clip_corner(const struct _lv_obj_t * obj, uint32_t part)
 134:lvgl/lvgl/src/widgets/../core/lv_obj_style_gen.h **** {
 135:lvgl/lvgl/src/widgets/../core/lv_obj_style_gen.h ****     lv_style_value_t v = lv_obj_get_style_prop(obj, part, LV_STYLE_CLIP_CORNER);
 136:lvgl/lvgl/src/widgets/../core/lv_obj_style_gen.h ****     return (bool)v.num;
 137:lvgl/lvgl/src/widgets/../core/lv_obj_style_gen.h **** }
 138:lvgl/lvgl/src/widgets/../core/lv_obj_style_gen.h **** 
 139:lvgl/lvgl/src/widgets/../core/lv_obj_style_gen.h **** static inline lv_opa_t lv_obj_get_style_opa(const struct _lv_obj_t * obj, uint32_t part)
 140:lvgl/lvgl/src/widgets/../core/lv_obj_style_gen.h **** {
 141:lvgl/lvgl/src/widgets/../core/lv_obj_style_gen.h ****     lv_style_value_t v = lv_obj_get_style_prop(obj, part, LV_STYLE_OPA);
 142:lvgl/lvgl/src/widgets/../core/lv_obj_style_gen.h ****     return (lv_opa_t)v.num;
 143:lvgl/lvgl/src/widgets/../core/lv_obj_style_gen.h **** }
 144:lvgl/lvgl/src/widgets/../core/lv_obj_style_gen.h **** 
 145:lvgl/lvgl/src/widgets/../core/lv_obj_style_gen.h **** static inline const lv_color_filter_dsc_t * lv_obj_get_style_color_filter_dsc(const struct _lv_obj_
 146:lvgl/lvgl/src/widgets/../core/lv_obj_style_gen.h **** {
 147:lvgl/lvgl/src/widgets/../core/lv_obj_style_gen.h ****     lv_style_value_t v = lv_obj_get_style_prop(obj, part, LV_STYLE_COLOR_FILTER_DSC);
 148:lvgl/lvgl/src/widgets/../core/lv_obj_style_gen.h ****     return (const lv_color_filter_dsc_t *)v.ptr;
 149:lvgl/lvgl/src/widgets/../core/lv_obj_style_gen.h **** }
 150:lvgl/lvgl/src/widgets/../core/lv_obj_style_gen.h **** 
 151:lvgl/lvgl/src/widgets/../core/lv_obj_style_gen.h **** static inline lv_opa_t lv_obj_get_style_color_filter_opa(const struct _lv_obj_t * obj, uint32_t par
 152:lvgl/lvgl/src/widgets/../core/lv_obj_style_gen.h **** {
 153:lvgl/lvgl/src/widgets/../core/lv_obj_style_gen.h ****     lv_style_value_t v = lv_obj_get_style_prop(obj, part, LV_STYLE_COLOR_FILTER_OPA);
 154:lvgl/lvgl/src/widgets/../core/lv_obj_style_gen.h ****     return (lv_opa_t)v.num;
 155:lvgl/lvgl/src/widgets/../core/lv_obj_style_gen.h **** }
 156:lvgl/lvgl/src/widgets/../core/lv_obj_style_gen.h **** 
 157:lvgl/lvgl/src/widgets/../core/lv_obj_style_gen.h **** static inline uint32_t lv_obj_get_style_anim_time(const struct _lv_obj_t * obj, uint32_t part)
 158:lvgl/lvgl/src/widgets/../core/lv_obj_style_gen.h **** {
 159:lvgl/lvgl/src/widgets/../core/lv_obj_style_gen.h ****     lv_style_value_t v = lv_obj_get_style_prop(obj, part, LV_STYLE_ANIM_TIME);
 160:lvgl/lvgl/src/widgets/../core/lv_obj_style_gen.h ****     return (uint32_t)v.num;
 161:lvgl/lvgl/src/widgets/../core/lv_obj_style_gen.h **** }
 162:lvgl/lvgl/src/widgets/../core/lv_obj_style_gen.h **** 
 163:lvgl/lvgl/src/widgets/../core/lv_obj_style_gen.h **** static inline uint32_t lv_obj_get_style_anim_speed(const struct _lv_obj_t * obj, uint32_t part)
ARM GAS  C:\Users\gx\AppData\Local\Temp\ccSIsGPa.s 			page 30


 164:lvgl/lvgl/src/widgets/../core/lv_obj_style_gen.h **** {
 165:lvgl/lvgl/src/widgets/../core/lv_obj_style_gen.h ****     lv_style_value_t v = lv_obj_get_style_prop(obj, part, LV_STYLE_ANIM_SPEED);
 166:lvgl/lvgl/src/widgets/../core/lv_obj_style_gen.h ****     return (uint32_t)v.num;
 167:lvgl/lvgl/src/widgets/../core/lv_obj_style_gen.h **** }
 168:lvgl/lvgl/src/widgets/../core/lv_obj_style_gen.h **** 
 169:lvgl/lvgl/src/widgets/../core/lv_obj_style_gen.h **** static inline const lv_style_transition_dsc_t * lv_obj_get_style_transition(const struct _lv_obj_t 
 170:lvgl/lvgl/src/widgets/../core/lv_obj_style_gen.h **** {
 171:lvgl/lvgl/src/widgets/../core/lv_obj_style_gen.h ****     lv_style_value_t v = lv_obj_get_style_prop(obj, part, LV_STYLE_TRANSITION);
 172:lvgl/lvgl/src/widgets/../core/lv_obj_style_gen.h ****     return (const lv_style_transition_dsc_t *)v.ptr;
 173:lvgl/lvgl/src/widgets/../core/lv_obj_style_gen.h **** }
 174:lvgl/lvgl/src/widgets/../core/lv_obj_style_gen.h **** 
 175:lvgl/lvgl/src/widgets/../core/lv_obj_style_gen.h **** static inline lv_blend_mode_t lv_obj_get_style_blend_mode(const struct _lv_obj_t * obj, uint32_t pa
 176:lvgl/lvgl/src/widgets/../core/lv_obj_style_gen.h **** {
 177:lvgl/lvgl/src/widgets/../core/lv_obj_style_gen.h ****     lv_style_value_t v = lv_obj_get_style_prop(obj, part, LV_STYLE_BLEND_MODE);
 178:lvgl/lvgl/src/widgets/../core/lv_obj_style_gen.h ****     return (lv_blend_mode_t)v.num;
 179:lvgl/lvgl/src/widgets/../core/lv_obj_style_gen.h **** }
 180:lvgl/lvgl/src/widgets/../core/lv_obj_style_gen.h **** 
 181:lvgl/lvgl/src/widgets/../core/lv_obj_style_gen.h **** static inline uint16_t lv_obj_get_style_layout(const struct _lv_obj_t * obj, uint32_t part)
 182:lvgl/lvgl/src/widgets/../core/lv_obj_style_gen.h **** {
 183:lvgl/lvgl/src/widgets/../core/lv_obj_style_gen.h ****     lv_style_value_t v = lv_obj_get_style_prop(obj, part, LV_STYLE_LAYOUT);
 184:lvgl/lvgl/src/widgets/../core/lv_obj_style_gen.h ****     return (uint16_t)v.num;
 185:lvgl/lvgl/src/widgets/../core/lv_obj_style_gen.h **** }
 186:lvgl/lvgl/src/widgets/../core/lv_obj_style_gen.h **** 
 187:lvgl/lvgl/src/widgets/../core/lv_obj_style_gen.h **** static inline lv_base_dir_t lv_obj_get_style_base_dir(const struct _lv_obj_t * obj, uint32_t part)
 188:lvgl/lvgl/src/widgets/../core/lv_obj_style_gen.h **** {
 189:lvgl/lvgl/src/widgets/../core/lv_obj_style_gen.h ****     lv_style_value_t v = lv_obj_get_style_prop(obj, part, LV_STYLE_BASE_DIR);
 190:lvgl/lvgl/src/widgets/../core/lv_obj_style_gen.h ****     return (lv_base_dir_t)v.num;
 191:lvgl/lvgl/src/widgets/../core/lv_obj_style_gen.h **** }
 192:lvgl/lvgl/src/widgets/../core/lv_obj_style_gen.h **** 
 193:lvgl/lvgl/src/widgets/../core/lv_obj_style_gen.h **** static inline lv_color_t lv_obj_get_style_bg_color(const struct _lv_obj_t * obj, uint32_t part)
 194:lvgl/lvgl/src/widgets/../core/lv_obj_style_gen.h **** {
 195:lvgl/lvgl/src/widgets/../core/lv_obj_style_gen.h ****     lv_style_value_t v = lv_obj_get_style_prop(obj, part, LV_STYLE_BG_COLOR);
 196:lvgl/lvgl/src/widgets/../core/lv_obj_style_gen.h ****     return v.color;
 197:lvgl/lvgl/src/widgets/../core/lv_obj_style_gen.h **** }
 198:lvgl/lvgl/src/widgets/../core/lv_obj_style_gen.h **** 
 199:lvgl/lvgl/src/widgets/../core/lv_obj_style_gen.h **** static inline lv_color_t lv_obj_get_style_bg_color_filtered(const struct _lv_obj_t * obj, uint32_t 
 200:lvgl/lvgl/src/widgets/../core/lv_obj_style_gen.h **** {
 201:lvgl/lvgl/src/widgets/../core/lv_obj_style_gen.h ****     lv_style_value_t v = lv_obj_get_style_prop(obj, part, LV_STYLE_BG_COLOR_FILTERED);
 202:lvgl/lvgl/src/widgets/../core/lv_obj_style_gen.h ****     return v.color;
 203:lvgl/lvgl/src/widgets/../core/lv_obj_style_gen.h **** }
 204:lvgl/lvgl/src/widgets/../core/lv_obj_style_gen.h **** 
 205:lvgl/lvgl/src/widgets/../core/lv_obj_style_gen.h **** static inline lv_opa_t lv_obj_get_style_bg_opa(const struct _lv_obj_t * obj, uint32_t part)
 206:lvgl/lvgl/src/widgets/../core/lv_obj_style_gen.h **** {
 207:lvgl/lvgl/src/widgets/../core/lv_obj_style_gen.h ****     lv_style_value_t v = lv_obj_get_style_prop(obj, part, LV_STYLE_BG_OPA);
 208:lvgl/lvgl/src/widgets/../core/lv_obj_style_gen.h ****     return (lv_opa_t)v.num;
 209:lvgl/lvgl/src/widgets/../core/lv_obj_style_gen.h **** }
 210:lvgl/lvgl/src/widgets/../core/lv_obj_style_gen.h **** 
 211:lvgl/lvgl/src/widgets/../core/lv_obj_style_gen.h **** static inline lv_color_t lv_obj_get_style_bg_grad_color(const struct _lv_obj_t * obj, uint32_t part
 212:lvgl/lvgl/src/widgets/../core/lv_obj_style_gen.h **** {
 213:lvgl/lvgl/src/widgets/../core/lv_obj_style_gen.h ****     lv_style_value_t v = lv_obj_get_style_prop(obj, part, LV_STYLE_BG_GRAD_COLOR);
 214:lvgl/lvgl/src/widgets/../core/lv_obj_style_gen.h ****     return v.color;
 215:lvgl/lvgl/src/widgets/../core/lv_obj_style_gen.h **** }
 216:lvgl/lvgl/src/widgets/../core/lv_obj_style_gen.h **** 
 217:lvgl/lvgl/src/widgets/../core/lv_obj_style_gen.h **** static inline lv_color_t lv_obj_get_style_bg_grad_color_filtered(const struct _lv_obj_t * obj, uint
 218:lvgl/lvgl/src/widgets/../core/lv_obj_style_gen.h **** {
 219:lvgl/lvgl/src/widgets/../core/lv_obj_style_gen.h ****     lv_style_value_t v = lv_obj_get_style_prop(obj, part, LV_STYLE_BG_GRAD_COLOR_FILTERED);
 220:lvgl/lvgl/src/widgets/../core/lv_obj_style_gen.h ****     return v.color;
ARM GAS  C:\Users\gx\AppData\Local\Temp\ccSIsGPa.s 			page 31


 221:lvgl/lvgl/src/widgets/../core/lv_obj_style_gen.h **** }
 222:lvgl/lvgl/src/widgets/../core/lv_obj_style_gen.h **** 
 223:lvgl/lvgl/src/widgets/../core/lv_obj_style_gen.h **** static inline lv_grad_dir_t lv_obj_get_style_bg_grad_dir(const struct _lv_obj_t * obj, uint32_t par
 224:lvgl/lvgl/src/widgets/../core/lv_obj_style_gen.h **** {
 225:lvgl/lvgl/src/widgets/../core/lv_obj_style_gen.h ****     lv_style_value_t v = lv_obj_get_style_prop(obj, part, LV_STYLE_BG_GRAD_DIR);
 226:lvgl/lvgl/src/widgets/../core/lv_obj_style_gen.h ****     return (lv_grad_dir_t)v.num;
 227:lvgl/lvgl/src/widgets/../core/lv_obj_style_gen.h **** }
 228:lvgl/lvgl/src/widgets/../core/lv_obj_style_gen.h **** 
 229:lvgl/lvgl/src/widgets/../core/lv_obj_style_gen.h **** static inline lv_coord_t lv_obj_get_style_bg_main_stop(const struct _lv_obj_t * obj, uint32_t part)
 230:lvgl/lvgl/src/widgets/../core/lv_obj_style_gen.h **** {
 231:lvgl/lvgl/src/widgets/../core/lv_obj_style_gen.h ****     lv_style_value_t v = lv_obj_get_style_prop(obj, part, LV_STYLE_BG_MAIN_STOP);
 232:lvgl/lvgl/src/widgets/../core/lv_obj_style_gen.h ****     return (lv_coord_t)v.num;
 233:lvgl/lvgl/src/widgets/../core/lv_obj_style_gen.h **** }
 234:lvgl/lvgl/src/widgets/../core/lv_obj_style_gen.h **** 
 235:lvgl/lvgl/src/widgets/../core/lv_obj_style_gen.h **** static inline lv_coord_t lv_obj_get_style_bg_grad_stop(const struct _lv_obj_t * obj, uint32_t part)
 236:lvgl/lvgl/src/widgets/../core/lv_obj_style_gen.h **** {
 237:lvgl/lvgl/src/widgets/../core/lv_obj_style_gen.h ****     lv_style_value_t v = lv_obj_get_style_prop(obj, part, LV_STYLE_BG_GRAD_STOP);
 238:lvgl/lvgl/src/widgets/../core/lv_obj_style_gen.h ****     return (lv_coord_t)v.num;
 239:lvgl/lvgl/src/widgets/../core/lv_obj_style_gen.h **** }
 240:lvgl/lvgl/src/widgets/../core/lv_obj_style_gen.h **** 
 241:lvgl/lvgl/src/widgets/../core/lv_obj_style_gen.h **** static inline const void * lv_obj_get_style_bg_img_src(const struct _lv_obj_t * obj, uint32_t part)
 242:lvgl/lvgl/src/widgets/../core/lv_obj_style_gen.h **** {
 243:lvgl/lvgl/src/widgets/../core/lv_obj_style_gen.h ****     lv_style_value_t v = lv_obj_get_style_prop(obj, part, LV_STYLE_BG_IMG_SRC);
 244:lvgl/lvgl/src/widgets/../core/lv_obj_style_gen.h ****     return (const void *)v.ptr;
 245:lvgl/lvgl/src/widgets/../core/lv_obj_style_gen.h **** }
 246:lvgl/lvgl/src/widgets/../core/lv_obj_style_gen.h **** 
 247:lvgl/lvgl/src/widgets/../core/lv_obj_style_gen.h **** static inline lv_opa_t lv_obj_get_style_bg_img_opa(const struct _lv_obj_t * obj, uint32_t part)
 248:lvgl/lvgl/src/widgets/../core/lv_obj_style_gen.h **** {
 249:lvgl/lvgl/src/widgets/../core/lv_obj_style_gen.h ****     lv_style_value_t v = lv_obj_get_style_prop(obj, part, LV_STYLE_BG_IMG_OPA);
 250:lvgl/lvgl/src/widgets/../core/lv_obj_style_gen.h ****     return (lv_opa_t)v.num;
 251:lvgl/lvgl/src/widgets/../core/lv_obj_style_gen.h **** }
 252:lvgl/lvgl/src/widgets/../core/lv_obj_style_gen.h **** 
 253:lvgl/lvgl/src/widgets/../core/lv_obj_style_gen.h **** static inline lv_color_t lv_obj_get_style_bg_img_recolor(const struct _lv_obj_t * obj, uint32_t par
 254:lvgl/lvgl/src/widgets/../core/lv_obj_style_gen.h **** {
 255:lvgl/lvgl/src/widgets/../core/lv_obj_style_gen.h ****     lv_style_value_t v = lv_obj_get_style_prop(obj, part, LV_STYLE_BG_IMG_RECOLOR);
 256:lvgl/lvgl/src/widgets/../core/lv_obj_style_gen.h ****     return v.color;
 257:lvgl/lvgl/src/widgets/../core/lv_obj_style_gen.h **** }
 258:lvgl/lvgl/src/widgets/../core/lv_obj_style_gen.h **** 
 259:lvgl/lvgl/src/widgets/../core/lv_obj_style_gen.h **** static inline lv_color_t lv_obj_get_style_bg_img_recolor_filtered(const struct _lv_obj_t * obj, uin
 260:lvgl/lvgl/src/widgets/../core/lv_obj_style_gen.h **** {
 261:lvgl/lvgl/src/widgets/../core/lv_obj_style_gen.h ****     lv_style_value_t v = lv_obj_get_style_prop(obj, part, LV_STYLE_BG_IMG_RECOLOR_FILTERED);
 262:lvgl/lvgl/src/widgets/../core/lv_obj_style_gen.h ****     return v.color;
 263:lvgl/lvgl/src/widgets/../core/lv_obj_style_gen.h **** }
 264:lvgl/lvgl/src/widgets/../core/lv_obj_style_gen.h **** 
 265:lvgl/lvgl/src/widgets/../core/lv_obj_style_gen.h **** static inline lv_opa_t lv_obj_get_style_bg_img_recolor_opa(const struct _lv_obj_t * obj, uint32_t p
 266:lvgl/lvgl/src/widgets/../core/lv_obj_style_gen.h **** {
 267:lvgl/lvgl/src/widgets/../core/lv_obj_style_gen.h ****     lv_style_value_t v = lv_obj_get_style_prop(obj, part, LV_STYLE_BG_IMG_RECOLOR_OPA);
 268:lvgl/lvgl/src/widgets/../core/lv_obj_style_gen.h ****     return (lv_opa_t)v.num;
 269:lvgl/lvgl/src/widgets/../core/lv_obj_style_gen.h **** }
 270:lvgl/lvgl/src/widgets/../core/lv_obj_style_gen.h **** 
 271:lvgl/lvgl/src/widgets/../core/lv_obj_style_gen.h **** static inline bool lv_obj_get_style_bg_img_tiled(const struct _lv_obj_t * obj, uint32_t part)
 272:lvgl/lvgl/src/widgets/../core/lv_obj_style_gen.h **** {
 273:lvgl/lvgl/src/widgets/../core/lv_obj_style_gen.h ****     lv_style_value_t v = lv_obj_get_style_prop(obj, part, LV_STYLE_BG_IMG_TILED);
 274:lvgl/lvgl/src/widgets/../core/lv_obj_style_gen.h ****     return (bool)v.num;
 275:lvgl/lvgl/src/widgets/../core/lv_obj_style_gen.h **** }
 276:lvgl/lvgl/src/widgets/../core/lv_obj_style_gen.h **** 
 277:lvgl/lvgl/src/widgets/../core/lv_obj_style_gen.h **** static inline lv_color_t lv_obj_get_style_border_color(const struct _lv_obj_t * obj, uint32_t part)
ARM GAS  C:\Users\gx\AppData\Local\Temp\ccSIsGPa.s 			page 32


 278:lvgl/lvgl/src/widgets/../core/lv_obj_style_gen.h **** {
 279:lvgl/lvgl/src/widgets/../core/lv_obj_style_gen.h ****     lv_style_value_t v = lv_obj_get_style_prop(obj, part, LV_STYLE_BORDER_COLOR);
 280:lvgl/lvgl/src/widgets/../core/lv_obj_style_gen.h ****     return v.color;
 281:lvgl/lvgl/src/widgets/../core/lv_obj_style_gen.h **** }
 282:lvgl/lvgl/src/widgets/../core/lv_obj_style_gen.h **** 
 283:lvgl/lvgl/src/widgets/../core/lv_obj_style_gen.h **** static inline lv_color_t lv_obj_get_style_border_color_filtered(const struct _lv_obj_t * obj, uint3
 284:lvgl/lvgl/src/widgets/../core/lv_obj_style_gen.h **** {
 285:lvgl/lvgl/src/widgets/../core/lv_obj_style_gen.h ****     lv_style_value_t v = lv_obj_get_style_prop(obj, part, LV_STYLE_BORDER_COLOR_FILTERED);
 286:lvgl/lvgl/src/widgets/../core/lv_obj_style_gen.h ****     return v.color;
 287:lvgl/lvgl/src/widgets/../core/lv_obj_style_gen.h **** }
 288:lvgl/lvgl/src/widgets/../core/lv_obj_style_gen.h **** 
 289:lvgl/lvgl/src/widgets/../core/lv_obj_style_gen.h **** static inline lv_opa_t lv_obj_get_style_border_opa(const struct _lv_obj_t * obj, uint32_t part)
 290:lvgl/lvgl/src/widgets/../core/lv_obj_style_gen.h **** {
 291:lvgl/lvgl/src/widgets/../core/lv_obj_style_gen.h ****     lv_style_value_t v = lv_obj_get_style_prop(obj, part, LV_STYLE_BORDER_OPA);
 292:lvgl/lvgl/src/widgets/../core/lv_obj_style_gen.h ****     return (lv_opa_t)v.num;
 293:lvgl/lvgl/src/widgets/../core/lv_obj_style_gen.h **** }
 294:lvgl/lvgl/src/widgets/../core/lv_obj_style_gen.h **** 
 295:lvgl/lvgl/src/widgets/../core/lv_obj_style_gen.h **** static inline lv_coord_t lv_obj_get_style_border_width(const struct _lv_obj_t * obj, uint32_t part)
 296:lvgl/lvgl/src/widgets/../core/lv_obj_style_gen.h **** {
 297:lvgl/lvgl/src/widgets/../core/lv_obj_style_gen.h ****     lv_style_value_t v = lv_obj_get_style_prop(obj, part, LV_STYLE_BORDER_WIDTH);
 298:lvgl/lvgl/src/widgets/../core/lv_obj_style_gen.h ****     return (lv_coord_t)v.num;
 299:lvgl/lvgl/src/widgets/../core/lv_obj_style_gen.h **** }
 300:lvgl/lvgl/src/widgets/../core/lv_obj_style_gen.h **** 
 301:lvgl/lvgl/src/widgets/../core/lv_obj_style_gen.h **** static inline lv_border_side_t lv_obj_get_style_border_side(const struct _lv_obj_t * obj, uint32_t 
 302:lvgl/lvgl/src/widgets/../core/lv_obj_style_gen.h **** {
 303:lvgl/lvgl/src/widgets/../core/lv_obj_style_gen.h ****     lv_style_value_t v = lv_obj_get_style_prop(obj, part, LV_STYLE_BORDER_SIDE);
 304:lvgl/lvgl/src/widgets/../core/lv_obj_style_gen.h ****     return (lv_border_side_t)v.num;
 305:lvgl/lvgl/src/widgets/../core/lv_obj_style_gen.h **** }
 306:lvgl/lvgl/src/widgets/../core/lv_obj_style_gen.h **** 
 307:lvgl/lvgl/src/widgets/../core/lv_obj_style_gen.h **** static inline bool lv_obj_get_style_border_post(const struct _lv_obj_t * obj, uint32_t part)
 308:lvgl/lvgl/src/widgets/../core/lv_obj_style_gen.h **** {
 309:lvgl/lvgl/src/widgets/../core/lv_obj_style_gen.h ****     lv_style_value_t v = lv_obj_get_style_prop(obj, part, LV_STYLE_BORDER_POST);
 310:lvgl/lvgl/src/widgets/../core/lv_obj_style_gen.h ****     return (bool)v.num;
 311:lvgl/lvgl/src/widgets/../core/lv_obj_style_gen.h **** }
 312:lvgl/lvgl/src/widgets/../core/lv_obj_style_gen.h **** 
 313:lvgl/lvgl/src/widgets/../core/lv_obj_style_gen.h **** static inline lv_color_t lv_obj_get_style_text_color(const struct _lv_obj_t * obj, uint32_t part)
 314:lvgl/lvgl/src/widgets/../core/lv_obj_style_gen.h **** {
 315:lvgl/lvgl/src/widgets/../core/lv_obj_style_gen.h ****     lv_style_value_t v = lv_obj_get_style_prop(obj, part, LV_STYLE_TEXT_COLOR);
 316:lvgl/lvgl/src/widgets/../core/lv_obj_style_gen.h ****     return v.color;
 317:lvgl/lvgl/src/widgets/../core/lv_obj_style_gen.h **** }
 318:lvgl/lvgl/src/widgets/../core/lv_obj_style_gen.h **** 
 319:lvgl/lvgl/src/widgets/../core/lv_obj_style_gen.h **** static inline lv_color_t lv_obj_get_style_text_color_filtered(const struct _lv_obj_t * obj, uint32_
 320:lvgl/lvgl/src/widgets/../core/lv_obj_style_gen.h **** {
 321:lvgl/lvgl/src/widgets/../core/lv_obj_style_gen.h ****     lv_style_value_t v = lv_obj_get_style_prop(obj, part, LV_STYLE_TEXT_COLOR_FILTERED);
 322:lvgl/lvgl/src/widgets/../core/lv_obj_style_gen.h ****     return v.color;
 323:lvgl/lvgl/src/widgets/../core/lv_obj_style_gen.h **** }
 324:lvgl/lvgl/src/widgets/../core/lv_obj_style_gen.h **** 
 325:lvgl/lvgl/src/widgets/../core/lv_obj_style_gen.h **** static inline lv_opa_t lv_obj_get_style_text_opa(const struct _lv_obj_t * obj, uint32_t part)
 326:lvgl/lvgl/src/widgets/../core/lv_obj_style_gen.h **** {
 327:lvgl/lvgl/src/widgets/../core/lv_obj_style_gen.h ****     lv_style_value_t v = lv_obj_get_style_prop(obj, part, LV_STYLE_TEXT_OPA);
 328:lvgl/lvgl/src/widgets/../core/lv_obj_style_gen.h ****     return (lv_opa_t)v.num;
 329:lvgl/lvgl/src/widgets/../core/lv_obj_style_gen.h **** }
 330:lvgl/lvgl/src/widgets/../core/lv_obj_style_gen.h **** 
 331:lvgl/lvgl/src/widgets/../core/lv_obj_style_gen.h **** static inline const lv_font_t * lv_obj_get_style_text_font(const struct _lv_obj_t * obj, uint32_t p
 332:lvgl/lvgl/src/widgets/../core/lv_obj_style_gen.h **** {
 333:lvgl/lvgl/src/widgets/../core/lv_obj_style_gen.h ****     lv_style_value_t v = lv_obj_get_style_prop(obj, part, LV_STYLE_TEXT_FONT);
 334:lvgl/lvgl/src/widgets/../core/lv_obj_style_gen.h ****     return (const lv_font_t *)v.ptr;
ARM GAS  C:\Users\gx\AppData\Local\Temp\ccSIsGPa.s 			page 33


 335:lvgl/lvgl/src/widgets/../core/lv_obj_style_gen.h **** }
 336:lvgl/lvgl/src/widgets/../core/lv_obj_style_gen.h **** 
 337:lvgl/lvgl/src/widgets/../core/lv_obj_style_gen.h **** static inline lv_coord_t lv_obj_get_style_text_letter_space(const struct _lv_obj_t * obj, uint32_t 
 460              		.loc 3 337 26 view .LVU146
 461              	.LBB104:
 338:lvgl/lvgl/src/widgets/../core/lv_obj_style_gen.h **** {
 339:lvgl/lvgl/src/widgets/../core/lv_obj_style_gen.h ****     lv_style_value_t v = lv_obj_get_style_prop(obj, part, LV_STYLE_TEXT_LETTER_SPACE);
 462              		.loc 3 339 5 view .LVU147
 463              		.loc 3 339 26 is_stmt 0 view .LVU148
 464 0050 41F25A42 		movw	r2, #5210
 465 0054 4FF4A021 		mov	r1, #327680
 466 0058 2846     		mov	r0, r5
 467 005a FFF7FEFF 		bl	lv_obj_get_style_prop
 468              	.LVL53:
 340:lvgl/lvgl/src/widgets/../core/lv_obj_style_gen.h ****     return (lv_coord_t)v.num;
 469              		.loc 3 340 5 is_stmt 1 view .LVU149
 470              		.loc 3 340 12 is_stmt 0 view .LVU150
 471 005e 03B2     		sxth	r3, r0
 472 0060 0893     		str	r3, [sp, #32]
 473              	.LVL54:
 474              		.loc 3 340 12 view .LVU151
 475              	.LBE104:
 476              	.LBE103:
 781:lvgl/lvgl/src/widgets/lv_table.c ****     const lv_font_t * font = lv_obj_get_style_text_font(obj, LV_PART_ITEMS);
 477              		.loc 1 781 5 is_stmt 1 view .LVU152
 478              	.LBB105:
 479              	.LBI105:
 341:lvgl/lvgl/src/widgets/../core/lv_obj_style_gen.h **** }
 342:lvgl/lvgl/src/widgets/../core/lv_obj_style_gen.h **** 
 343:lvgl/lvgl/src/widgets/../core/lv_obj_style_gen.h **** static inline lv_coord_t lv_obj_get_style_text_line_space(const struct _lv_obj_t * obj, uint32_t pa
 480              		.loc 3 343 26 view .LVU153
 481              	.LBB106:
 344:lvgl/lvgl/src/widgets/../core/lv_obj_style_gen.h **** {
 345:lvgl/lvgl/src/widgets/../core/lv_obj_style_gen.h ****     lv_style_value_t v = lv_obj_get_style_prop(obj, part, LV_STYLE_TEXT_LINE_SPACE);
 482              		.loc 3 345 5 view .LVU154
 483              		.loc 3 345 26 is_stmt 0 view .LVU155
 484 0062 41F25B42 		movw	r2, #5211
 485 0066 4FF4A021 		mov	r1, #327680
 486 006a 2846     		mov	r0, r5
 487 006c FFF7FEFF 		bl	lv_obj_get_style_prop
 488              	.LVL55:
 346:lvgl/lvgl/src/widgets/../core/lv_obj_style_gen.h ****     return (lv_coord_t)v.num;
 489              		.loc 3 346 5 is_stmt 1 view .LVU156
 490              		.loc 3 346 12 is_stmt 0 view .LVU157
 491 0070 03B2     		sxth	r3, r0
 492 0072 0793     		str	r3, [sp, #28]
 493              	.LVL56:
 494              		.loc 3 346 12 view .LVU158
 495              	.LBE106:
 496              	.LBE105:
 782:lvgl/lvgl/src/widgets/lv_table.c **** 
 497              		.loc 1 782 5 is_stmt 1 view .LVU159
 498              	.LBB107:
 499              	.LBI107:
 331:lvgl/lvgl/src/widgets/../core/lv_obj_style_gen.h **** {
 500              		.loc 3 331 33 view .LVU160
 501              	.LBB108:
ARM GAS  C:\Users\gx\AppData\Local\Temp\ccSIsGPa.s 			page 34


 333:lvgl/lvgl/src/widgets/../core/lv_obj_style_gen.h ****     return (const lv_font_t *)v.ptr;
 502              		.loc 3 333 5 view .LVU161
 333:lvgl/lvgl/src/widgets/../core/lv_obj_style_gen.h ****     return (const lv_font_t *)v.ptr;
 503              		.loc 3 333 26 is_stmt 0 view .LVU162
 504 0074 41F25942 		movw	r2, #5209
 505 0078 4FF4A021 		mov	r1, #327680
 506 007c 2846     		mov	r0, r5
 507 007e FFF7FEFF 		bl	lv_obj_get_style_prop
 508              	.LVL57:
 509 0082 0690     		str	r0, [sp, #24]
 334:lvgl/lvgl/src/widgets/../core/lv_obj_style_gen.h **** }
 510              		.loc 3 334 5 is_stmt 1 view .LVU163
 511              	.LVL58:
 334:lvgl/lvgl/src/widgets/../core/lv_obj_style_gen.h **** }
 512              		.loc 3 334 5 is_stmt 0 view .LVU164
 513              	.LBE108:
 514              	.LBE107:
 784:lvgl/lvgl/src/widgets/lv_table.c ****     lv_coord_t maxh = lv_obj_get_style_max_height(obj, LV_PART_ITEMS);
 515              		.loc 1 784 5 is_stmt 1 view .LVU165
 516              	.LBB109:
 517              	.LBI109:
  25:lvgl/lvgl/src/widgets/../core/lv_obj_style_gen.h **** {
 518              		.loc 3 25 26 view .LVU166
 519              	.LBB110:
  27:lvgl/lvgl/src/widgets/../core/lv_obj_style_gen.h ****     return (lv_coord_t)v.num;
 520              		.loc 3 27 5 view .LVU167
  27:lvgl/lvgl/src/widgets/../core/lv_obj_style_gen.h ****     return (lv_coord_t)v.num;
 521              		.loc 3 27 26 is_stmt 0 view .LVU168
 522 0084 41F20502 		movw	r2, #4101
 523 0088 4FF4A021 		mov	r1, #327680
 524 008c 2846     		mov	r0, r5
 525              	.LVL59:
  27:lvgl/lvgl/src/widgets/../core/lv_obj_style_gen.h ****     return (lv_coord_t)v.num;
 526              		.loc 3 27 26 view .LVU169
 527 008e FFF7FEFF 		bl	lv_obj_get_style_prop
 528              	.LVL60:
  28:lvgl/lvgl/src/widgets/../core/lv_obj_style_gen.h **** }
 529              		.loc 3 28 5 is_stmt 1 view .LVU170
  28:lvgl/lvgl/src/widgets/../core/lv_obj_style_gen.h **** }
 530              		.loc 3 28 12 is_stmt 0 view .LVU171
 531 0092 0FFA80F8 		sxth	r8, r0
 532              	.LVL61:
  28:lvgl/lvgl/src/widgets/../core/lv_obj_style_gen.h **** }
 533              		.loc 3 28 12 view .LVU172
 534              	.LBE110:
 535              	.LBE109:
 785:lvgl/lvgl/src/widgets/lv_table.c **** 
 536              		.loc 1 785 5 is_stmt 1 view .LVU173
 537              	.LBB111:
 538              	.LBI111:
  31:lvgl/lvgl/src/widgets/../core/lv_obj_style_gen.h **** {
 539              		.loc 3 31 26 view .LVU174
 540              	.LBB112:
  33:lvgl/lvgl/src/widgets/../core/lv_obj_style_gen.h ****     return (lv_coord_t)v.num;
 541              		.loc 3 33 5 view .LVU175
  33:lvgl/lvgl/src/widgets/../core/lv_obj_style_gen.h ****     return (lv_coord_t)v.num;
 542              		.loc 3 33 26 is_stmt 0 view .LVU176
ARM GAS  C:\Users\gx\AppData\Local\Temp\ccSIsGPa.s 			page 35


 543 0096 41F20602 		movw	r2, #4102
 544 009a 4FF4A021 		mov	r1, #327680
 545 009e 2846     		mov	r0, r5
 546 00a0 FFF7FEFF 		bl	lv_obj_get_style_prop
 547              	.LVL62:
  34:lvgl/lvgl/src/widgets/../core/lv_obj_style_gen.h **** }
 548              		.loc 3 34 5 is_stmt 1 view .LVU177
  34:lvgl/lvgl/src/widgets/../core/lv_obj_style_gen.h **** }
 549              		.loc 3 34 12 is_stmt 0 view .LVU178
 550 00a4 07B2     		sxth	r7, r0
 551              	.LVL63:
  34:lvgl/lvgl/src/widgets/../core/lv_obj_style_gen.h **** }
 552              		.loc 3 34 12 view .LVU179
 553              	.LBE112:
 554              	.LBE111:
 787:lvgl/lvgl/src/widgets/lv_table.c ****         table->row_h[i] = get_row_height(obj, i, font, letter_space, line_space,
 555              		.loc 1 787 5 is_stmt 1 view .LVU180
 556              	.L13:
 787:lvgl/lvgl/src/widgets/lv_table.c ****         table->row_h[i] = get_row_height(obj, i, font, letter_space, line_space,
 557              		.loc 1 787 24 discriminator 1 view .LVU181
 787:lvgl/lvgl/src/widgets/lv_table.c ****         table->row_h[i] = get_row_height(obj, i, font, letter_space, line_space,
 558              		.loc 1 787 33 is_stmt 0 discriminator 1 view .LVU182
 559 00a6 EB8C     		ldrh	r3, [r5, #38]
 787:lvgl/lvgl/src/widgets/lv_table.c ****         table->row_h[i] = get_row_height(obj, i, font, letter_space, line_space,
 560              		.loc 1 787 5 discriminator 1 view .LVU183
 561 00a8 A342     		cmp	r3, r4
 562 00aa 1FD9     		bls	.L16
 788:lvgl/lvgl/src/widgets/lv_table.c ****                                        cell_left, cell_right, cell_top, cell_bottom);
 563              		.loc 1 788 9 is_stmt 1 discriminator 3 view .LVU184
 788:lvgl/lvgl/src/widgets/lv_table.c ****                                        cell_left, cell_right, cell_top, cell_bottom);
 564              		.loc 1 788 14 is_stmt 0 discriminator 3 view .LVU185
 565 00ac EE6A     		ldr	r6, [r5, #44]
 788:lvgl/lvgl/src/widgets/lv_table.c ****                                        cell_left, cell_right, cell_top, cell_bottom);
 566              		.loc 1 788 27 discriminator 3 view .LVU186
 567 00ae 099B     		ldr	r3, [sp, #36]
 568 00b0 0493     		str	r3, [sp, #16]
 569 00b2 CDF80C90 		str	r9, [sp, #12]
 570 00b6 CDF808A0 		str	r10, [sp, #8]
 571 00ba CDF804B0 		str	fp, [sp, #4]
 572 00be 079B     		ldr	r3, [sp, #28]
 573 00c0 0093     		str	r3, [sp]
 574 00c2 089B     		ldr	r3, [sp, #32]
 575 00c4 069A     		ldr	r2, [sp, #24]
 576 00c6 A1B2     		uxth	r1, r4
 577 00c8 2846     		mov	r0, r5
 578 00ca FFF7FEFF 		bl	get_row_height
 579              	.LVL64:
 788:lvgl/lvgl/src/widgets/lv_table.c ****                                        cell_left, cell_right, cell_top, cell_bottom);
 580              		.loc 1 788 25 discriminator 3 view .LVU187
 581 00ce 26F81400 		strh	r0, [r6, r4, lsl #1]	@ movhi
 790:lvgl/lvgl/src/widgets/lv_table.c ****     }
 582              		.loc 1 790 9 is_stmt 1 discriminator 3 view .LVU188
 790:lvgl/lvgl/src/widgets/lv_table.c ****     }
 583              		.loc 1 790 27 is_stmt 0 discriminator 3 view .LVU189
 584 00d2 EA6A     		ldr	r2, [r5, #44]
 585 00d4 32F91430 		ldrsh	r3, [r2, r4, lsl #1]
 586 00d8 BB42     		cmp	r3, r7
ARM GAS  C:\Users\gx\AppData\Local\Temp\ccSIsGPa.s 			page 36


 587 00da A8BF     		it	ge
 588 00dc 3B46     		movge	r3, r7
 589 00de 4345     		cmp	r3, r8
 590 00e0 B8BF     		it	lt
 591 00e2 4346     		movlt	r3, r8
 790:lvgl/lvgl/src/widgets/lv_table.c ****     }
 592              		.loc 1 790 25 discriminator 3 view .LVU190
 593 00e4 22F81430 		strh	r3, [r2, r4, lsl #1]	@ movhi
 787:lvgl/lvgl/src/widgets/lv_table.c ****         table->row_h[i] = get_row_height(obj, i, font, letter_space, line_space,
 594              		.loc 1 787 44 is_stmt 1 discriminator 3 view .LVU191
 787:lvgl/lvgl/src/widgets/lv_table.c ****         table->row_h[i] = get_row_height(obj, i, font, letter_space, line_space,
 595              		.loc 1 787 45 is_stmt 0 discriminator 3 view .LVU192
 596 00e8 0134     		adds	r4, r4, #1
 597              	.LVL65:
 787:lvgl/lvgl/src/widgets/lv_table.c ****         table->row_h[i] = get_row_height(obj, i, font, letter_space, line_space,
 598              		.loc 1 787 45 discriminator 3 view .LVU193
 599 00ea DCE7     		b	.L13
 600              	.L16:
 793:lvgl/lvgl/src/widgets/lv_table.c **** }
 601              		.loc 1 793 5 is_stmt 1 view .LVU194
 602 00ec 2846     		mov	r0, r5
 603 00ee FFF7FEFF 		bl	lv_obj_refresh_self_size
 604              	.LVL66:
 794:lvgl/lvgl/src/widgets/lv_table.c **** 
 605              		.loc 1 794 1 is_stmt 0 view .LVU195
 606 00f2 0BB0     		add	sp, sp, #44
 607              	.LCFI5:
 608              		.cfi_def_cfa_offset 36
 609              		@ sp needed
 610 00f4 BDE8F08F 		pop	{r4, r5, r6, r7, r8, r9, r10, fp, pc}
 794:lvgl/lvgl/src/widgets/lv_table.c **** 
 611              		.loc 1 794 1 view .LVU196
 612              		.cfi_endproc
 613              	.LFE170:
 615              		.section	.text.get_pressed_cell,"ax",%progbits
 616              		.align	1
 617              		.syntax unified
 618              		.thumb
 619              		.thumb_func
 620              		.fpu fpv4-sp-d16
 622              	get_pressed_cell:
 623              	.LVL67:
 624              	.LFB172:
 853:lvgl/lvgl/src/widgets/lv_table.c **** 
 854:lvgl/lvgl/src/widgets/lv_table.c **** static lv_res_t get_pressed_cell(lv_obj_t * obj, uint16_t * row, uint16_t * col)
 855:lvgl/lvgl/src/widgets/lv_table.c **** {
 625              		.loc 1 855 1 is_stmt 1 view -0
 626              		.cfi_startproc
 627              		@ args = 0, pretend = 0, frame = 8
 628              		@ frame_needed = 0, uses_anonymous_args = 0
 629              		.loc 1 855 1 is_stmt 0 view .LVU198
 630 0000 2DE9F041 		push	{r4, r5, r6, r7, r8, lr}
 631              	.LCFI6:
 632              		.cfi_def_cfa_offset 24
 633              		.cfi_offset 4, -24
 634              		.cfi_offset 5, -20
 635              		.cfi_offset 6, -16
ARM GAS  C:\Users\gx\AppData\Local\Temp\ccSIsGPa.s 			page 37


 636              		.cfi_offset 7, -12
 637              		.cfi_offset 8, -8
 638              		.cfi_offset 14, -4
 639 0004 82B0     		sub	sp, sp, #8
 640              	.LCFI7:
 641              		.cfi_def_cfa_offset 32
 642 0006 0446     		mov	r4, r0
 643 0008 0D46     		mov	r5, r1
 644 000a 1646     		mov	r6, r2
 856:lvgl/lvgl/src/widgets/lv_table.c ****    lv_table_t * table = (lv_table_t *)obj;
 645              		.loc 1 856 4 is_stmt 1 view .LVU199
 646              	.LVL68:
 857:lvgl/lvgl/src/widgets/lv_table.c **** 
 858:lvgl/lvgl/src/widgets/lv_table.c ****     lv_indev_type_t type = lv_indev_get_type(lv_indev_get_act());
 647              		.loc 1 858 5 view .LVU200
 648              		.loc 1 858 46 is_stmt 0 view .LVU201
 649 000c FFF7FEFF 		bl	lv_indev_get_act
 650              	.LVL69:
 651              		.loc 1 858 28 view .LVU202
 652 0010 FFF7FEFF 		bl	lv_indev_get_type
 653              	.LVL70:
 859:lvgl/lvgl/src/widgets/lv_table.c ****     if(type != LV_INDEV_TYPE_POINTER && type != LV_INDEV_TYPE_BUTTON) {
 654              		.loc 1 859 5 is_stmt 1 view .LVU203
 655              		.loc 1 859 7 is_stmt 0 view .LVU204
 656 0014 0128     		cmp	r0, #1
 657 0016 0DD0     		beq	.L18
 658              		.loc 1 859 38 discriminator 1 view .LVU205
 659 0018 0328     		cmp	r0, #3
 660 001a 0BD0     		beq	.L18
 860:lvgl/lvgl/src/widgets/lv_table.c ****         if(col) *col = LV_TABLE_CELL_NONE;
 661              		.loc 1 860 9 is_stmt 1 view .LVU206
 662              		.loc 1 860 11 is_stmt 0 view .LVU207
 663 001c 16B1     		cbz	r6, .L19
 664              		.loc 1 860 17 is_stmt 1 discriminator 1 view .LVU208
 665              		.loc 1 860 22 is_stmt 0 discriminator 1 view .LVU209
 666 001e 4FF6FF73 		movw	r3, #65535
 667 0022 3380     		strh	r3, [r6]	@ movhi
 668              	.L19:
 861:lvgl/lvgl/src/widgets/lv_table.c ****         if(row) *row = LV_TABLE_CELL_NONE;
 669              		.loc 1 861 9 is_stmt 1 view .LVU210
 670              		.loc 1 861 11 is_stmt 0 view .LVU211
 671 0024 15B1     		cbz	r5, .L20
 672              		.loc 1 861 17 is_stmt 1 discriminator 1 view .LVU212
 673              		.loc 1 861 22 is_stmt 0 discriminator 1 view .LVU213
 674 0026 4FF6FF73 		movw	r3, #65535
 675 002a 2B80     		strh	r3, [r5]	@ movhi
 676              	.L20:
 862:lvgl/lvgl/src/widgets/lv_table.c ****         return LV_RES_INV;
 677              		.loc 1 862 9 is_stmt 1 view .LVU214
 678              		.loc 1 862 16 is_stmt 0 view .LVU215
 679 002c 0020     		movs	r0, #0
 680              	.LVL71:
 681              	.L21:
 863:lvgl/lvgl/src/widgets/lv_table.c ****     }
 864:lvgl/lvgl/src/widgets/lv_table.c **** 
 865:lvgl/lvgl/src/widgets/lv_table.c ****     lv_point_t p;
 866:lvgl/lvgl/src/widgets/lv_table.c ****     lv_indev_get_point(lv_indev_get_act(), &p);
ARM GAS  C:\Users\gx\AppData\Local\Temp\ccSIsGPa.s 			page 38


 867:lvgl/lvgl/src/widgets/lv_table.c **** 
 868:lvgl/lvgl/src/widgets/lv_table.c ****     lv_coord_t tmp;
 869:lvgl/lvgl/src/widgets/lv_table.c ****     if(col) {
 870:lvgl/lvgl/src/widgets/lv_table.c ****         lv_coord_t x = p.x + lv_obj_get_scroll_x(obj);
 871:lvgl/lvgl/src/widgets/lv_table.c **** 
 872:lvgl/lvgl/src/widgets/lv_table.c ****         if(lv_obj_get_style_base_dir(obj, LV_PART_MAIN) == LV_BASE_DIR_RTL) {
 873:lvgl/lvgl/src/widgets/lv_table.c ****             x = obj->coords.x2 - lv_obj_get_style_pad_right(obj, LV_PART_MAIN) - x;
 874:lvgl/lvgl/src/widgets/lv_table.c ****         }
 875:lvgl/lvgl/src/widgets/lv_table.c ****         else {
 876:lvgl/lvgl/src/widgets/lv_table.c ****             x -= obj->coords.x1;
 877:lvgl/lvgl/src/widgets/lv_table.c ****             x -= lv_obj_get_style_pad_left(obj, LV_PART_MAIN);
 878:lvgl/lvgl/src/widgets/lv_table.c ****         }
 879:lvgl/lvgl/src/widgets/lv_table.c **** 
 880:lvgl/lvgl/src/widgets/lv_table.c ****         *col = 0;
 881:lvgl/lvgl/src/widgets/lv_table.c ****         tmp = 0;
 882:lvgl/lvgl/src/widgets/lv_table.c ****         for(*col = 0; *col < table->col_cnt; (*col)++) {
 883:lvgl/lvgl/src/widgets/lv_table.c ****             tmp += table->col_w[*col];
 884:lvgl/lvgl/src/widgets/lv_table.c ****             if(x < tmp) break;
 885:lvgl/lvgl/src/widgets/lv_table.c ****         }
 886:lvgl/lvgl/src/widgets/lv_table.c ****     }
 887:lvgl/lvgl/src/widgets/lv_table.c **** 
 888:lvgl/lvgl/src/widgets/lv_table.c ****     if(row) {
 889:lvgl/lvgl/src/widgets/lv_table.c ****         lv_coord_t y = p.y + lv_obj_get_scroll_y(obj);;
 890:lvgl/lvgl/src/widgets/lv_table.c ****         y -= obj->coords.y1;
 891:lvgl/lvgl/src/widgets/lv_table.c ****         y -= lv_obj_get_style_pad_top(obj, LV_PART_MAIN);
 892:lvgl/lvgl/src/widgets/lv_table.c **** 
 893:lvgl/lvgl/src/widgets/lv_table.c ****         *row = 0;
 894:lvgl/lvgl/src/widgets/lv_table.c ****         tmp = 0;
 895:lvgl/lvgl/src/widgets/lv_table.c **** 
 896:lvgl/lvgl/src/widgets/lv_table.c ****         for(*row = 0; *row < table->row_cnt; (*row)++) {
 897:lvgl/lvgl/src/widgets/lv_table.c ****             tmp += table->row_h[*row];
 898:lvgl/lvgl/src/widgets/lv_table.c ****             if(y < tmp) break;
 899:lvgl/lvgl/src/widgets/lv_table.c ****         }
 900:lvgl/lvgl/src/widgets/lv_table.c ****     }
 901:lvgl/lvgl/src/widgets/lv_table.c **** 
 902:lvgl/lvgl/src/widgets/lv_table.c ****     return LV_RES_OK;
 903:lvgl/lvgl/src/widgets/lv_table.c **** }
 682              		.loc 1 903 1 view .LVU216
 683 002e 02B0     		add	sp, sp, #8
 684              	.LCFI8:
 685              		.cfi_remember_state
 686              		.cfi_def_cfa_offset 24
 687              		@ sp needed
 688 0030 BDE8F081 		pop	{r4, r5, r6, r7, r8, pc}
 689              	.LVL72:
 690              	.L18:
 691              	.LCFI9:
 692              		.cfi_restore_state
 865:lvgl/lvgl/src/widgets/lv_table.c ****     lv_indev_get_point(lv_indev_get_act(), &p);
 693              		.loc 1 865 5 is_stmt 1 view .LVU217
 866:lvgl/lvgl/src/widgets/lv_table.c **** 
 694              		.loc 1 866 5 view .LVU218
 866:lvgl/lvgl/src/widgets/lv_table.c **** 
 695              		.loc 1 866 24 is_stmt 0 view .LVU219
 696 0034 FFF7FEFF 		bl	lv_indev_get_act
 697              	.LVL73:
 866:lvgl/lvgl/src/widgets/lv_table.c **** 
ARM GAS  C:\Users\gx\AppData\Local\Temp\ccSIsGPa.s 			page 39


 698              		.loc 1 866 5 view .LVU220
 699 0038 01A9     		add	r1, sp, #4
 700 003a FFF7FEFF 		bl	lv_indev_get_point
 701              	.LVL74:
 868:lvgl/lvgl/src/widgets/lv_table.c ****     if(col) {
 702              		.loc 1 868 5 is_stmt 1 view .LVU221
 869:lvgl/lvgl/src/widgets/lv_table.c ****         lv_coord_t x = p.x + lv_obj_get_scroll_x(obj);
 703              		.loc 1 869 5 view .LVU222
 869:lvgl/lvgl/src/widgets/lv_table.c ****         lv_coord_t x = p.x + lv_obj_get_scroll_x(obj);
 704              		.loc 1 869 7 is_stmt 0 view .LVU223
 705 003e 002E     		cmp	r6, #0
 706 0040 3BD0     		beq	.L22
 707              	.LBB113:
 870:lvgl/lvgl/src/widgets/lv_table.c **** 
 708              		.loc 1 870 9 is_stmt 1 view .LVU224
 870:lvgl/lvgl/src/widgets/lv_table.c **** 
 709              		.loc 1 870 25 is_stmt 0 view .LVU225
 710 0042 BDF80470 		ldrh	r7, [sp, #4]
 870:lvgl/lvgl/src/widgets/lv_table.c **** 
 711              		.loc 1 870 30 view .LVU226
 712 0046 2046     		mov	r0, r4
 713 0048 FFF7FEFF 		bl	lv_obj_get_scroll_x
 714              	.LVL75:
 870:lvgl/lvgl/src/widgets/lv_table.c **** 
 715              		.loc 1 870 28 view .LVU227
 716 004c 17FA80F0 		uxtah	r0, r7, r0
 717 0050 87B2     		uxth	r7, r0
 718              	.LVL76:
 872:lvgl/lvgl/src/widgets/lv_table.c ****             x = obj->coords.x2 - lv_obj_get_style_pad_right(obj, LV_PART_MAIN) - x;
 719              		.loc 1 872 9 is_stmt 1 view .LVU228
 720              	.LBB114:
 721              	.LBI114:
 187:lvgl/lvgl/src/widgets/../core/lv_obj_style_gen.h **** {
 722              		.loc 3 187 29 view .LVU229
 723              	.LBB115:
 189:lvgl/lvgl/src/widgets/../core/lv_obj_style_gen.h ****     return (lv_base_dir_t)v.num;
 724              		.loc 3 189 5 view .LVU230
 189:lvgl/lvgl/src/widgets/../core/lv_obj_style_gen.h ****     return (lv_base_dir_t)v.num;
 725              		.loc 3 189 26 is_stmt 0 view .LVU231
 726 0052 41F26A42 		movw	r2, #5226
 727 0056 0021     		movs	r1, #0
 728 0058 2046     		mov	r0, r4
 729 005a FFF7FEFF 		bl	lv_obj_get_style_prop
 730              	.LVL77:
 190:lvgl/lvgl/src/widgets/../core/lv_obj_style_gen.h **** }
 731              		.loc 3 190 5 is_stmt 1 view .LVU232
 190:lvgl/lvgl/src/widgets/../core/lv_obj_style_gen.h **** }
 732              		.loc 3 190 12 is_stmt 0 view .LVU233
 733 005e C0B2     		uxtb	r0, r0
 734              	.LVL78:
 190:lvgl/lvgl/src/widgets/../core/lv_obj_style_gen.h **** }
 735              		.loc 3 190 12 view .LVU234
 736              	.LBE115:
 737              	.LBE114:
 872:lvgl/lvgl/src/widgets/lv_table.c ****             x = obj->coords.x2 - lv_obj_get_style_pad_right(obj, LV_PART_MAIN) - x;
 738              		.loc 1 872 11 view .LVU235
 739 0060 0128     		cmp	r0, #1
ARM GAS  C:\Users\gx\AppData\Local\Temp\ccSIsGPa.s 			page 40


 740 0062 1BD0     		beq	.L32
 876:lvgl/lvgl/src/widgets/lv_table.c ****             x -= lv_obj_get_style_pad_left(obj, LV_PART_MAIN);
 741              		.loc 1 876 13 is_stmt 1 view .LVU236
 876:lvgl/lvgl/src/widgets/lv_table.c ****             x -= lv_obj_get_style_pad_left(obj, LV_PART_MAIN);
 742              		.loc 1 876 29 is_stmt 0 view .LVU237
 743 0064 A08A     		ldrh	r0, [r4, #20]
 876:lvgl/lvgl/src/widgets/lv_table.c ****             x -= lv_obj_get_style_pad_left(obj, LV_PART_MAIN);
 744              		.loc 1 876 15 view .LVU238
 745 0066 3F1A     		subs	r7, r7, r0
 746              	.LVL79:
 876:lvgl/lvgl/src/widgets/lv_table.c ****             x -= lv_obj_get_style_pad_left(obj, LV_PART_MAIN);
 747              		.loc 1 876 15 view .LVU239
 748 0068 BFB2     		uxth	r7, r7
 749              	.LVL80:
 877:lvgl/lvgl/src/widgets/lv_table.c ****         }
 750              		.loc 1 877 13 is_stmt 1 view .LVU240
 751              	.LBB116:
 752              	.LBI116:
 103:lvgl/lvgl/src/widgets/../core/lv_obj_style_gen.h **** {
 753              		.loc 3 103 26 view .LVU241
 754              	.LBB117:
 105:lvgl/lvgl/src/widgets/../core/lv_obj_style_gen.h ****     return (lv_coord_t)v.num;
 755              		.loc 3 105 5 view .LVU242
 105:lvgl/lvgl/src/widgets/../core/lv_obj_style_gen.h ****     return (lv_coord_t)v.num;
 756              		.loc 3 105 26 is_stmt 0 view .LVU243
 757 006a 41F21202 		movw	r2, #4114
 758 006e 0021     		movs	r1, #0
 759 0070 2046     		mov	r0, r4
 760 0072 FFF7FEFF 		bl	lv_obj_get_style_prop
 761              	.LVL81:
 106:lvgl/lvgl/src/widgets/../core/lv_obj_style_gen.h **** }
 762              		.loc 3 106 5 is_stmt 1 view .LVU244
 106:lvgl/lvgl/src/widgets/../core/lv_obj_style_gen.h **** }
 763              		.loc 3 106 5 is_stmt 0 view .LVU245
 764              	.LBE117:
 765              	.LBE116:
 877:lvgl/lvgl/src/widgets/lv_table.c ****         }
 766              		.loc 1 877 18 view .LVU246
 767 0076 80B2     		uxth	r0, r0
 877:lvgl/lvgl/src/widgets/lv_table.c ****         }
 768              		.loc 1 877 15 view .LVU247
 769 0078 381A     		subs	r0, r7, r0
 770 007a 00B2     		sxth	r0, r0
 771              	.LVL82:
 772              	.L24:
 880:lvgl/lvgl/src/widgets/lv_table.c ****         tmp = 0;
 773              		.loc 1 880 9 is_stmt 1 view .LVU248
 880:lvgl/lvgl/src/widgets/lv_table.c ****         tmp = 0;
 774              		.loc 1 880 14 is_stmt 0 view .LVU249
 775 007c 0021     		movs	r1, #0
 776 007e 3180     		strh	r1, [r6]	@ movhi
 881:lvgl/lvgl/src/widgets/lv_table.c ****         for(*col = 0; *col < table->col_cnt; (*col)++) {
 777              		.loc 1 881 9 is_stmt 1 view .LVU250
 778              	.LVL83:
 882:lvgl/lvgl/src/widgets/lv_table.c ****             tmp += table->col_w[*col];
 779              		.loc 1 882 9 view .LVU251
 780              	.L25:
ARM GAS  C:\Users\gx\AppData\Local\Temp\ccSIsGPa.s 			page 41


 882:lvgl/lvgl/src/widgets/lv_table.c ****             tmp += table->col_w[*col];
 781              		.loc 1 882 23 discriminator 1 view .LVU252
 782 0080 3388     		ldrh	r3, [r6]
 882:lvgl/lvgl/src/widgets/lv_table.c ****             tmp += table->col_w[*col];
 783              		.loc 1 882 35 is_stmt 0 discriminator 1 view .LVU253
 784 0082 A28C     		ldrh	r2, [r4, #36]
 882:lvgl/lvgl/src/widgets/lv_table.c ****             tmp += table->col_w[*col];
 785              		.loc 1 882 9 discriminator 1 view .LVU254
 786 0084 9342     		cmp	r3, r2
 787 0086 18D2     		bcs	.L22
 883:lvgl/lvgl/src/widgets/lv_table.c ****             if(x < tmp) break;
 788              		.loc 1 883 13 is_stmt 1 view .LVU255
 883:lvgl/lvgl/src/widgets/lv_table.c ****             if(x < tmp) break;
 789              		.loc 1 883 25 is_stmt 0 view .LVU256
 790 0088 226B     		ldr	r2, [r4, #48]
 883:lvgl/lvgl/src/widgets/lv_table.c ****             if(x < tmp) break;
 791              		.loc 1 883 32 view .LVU257
 792 008a 32F81320 		ldrh	r2, [r2, r3, lsl #1]
 883:lvgl/lvgl/src/widgets/lv_table.c ****             if(x < tmp) break;
 793              		.loc 1 883 17 view .LVU258
 794 008e 1144     		add	r1, r1, r2
 795              	.LVL84:
 883:lvgl/lvgl/src/widgets/lv_table.c ****             if(x < tmp) break;
 796              		.loc 1 883 17 view .LVU259
 797 0090 09B2     		sxth	r1, r1
 798              	.LVL85:
 884:lvgl/lvgl/src/widgets/lv_table.c ****         }
 799              		.loc 1 884 13 is_stmt 1 view .LVU260
 884:lvgl/lvgl/src/widgets/lv_table.c ****         }
 800              		.loc 1 884 15 is_stmt 0 view .LVU261
 801 0092 8842     		cmp	r0, r1
 802 0094 11DB     		blt	.L22
 882:lvgl/lvgl/src/widgets/lv_table.c ****             tmp += table->col_w[*col];
 803              		.loc 1 882 46 is_stmt 1 discriminator 2 view .LVU262
 882:lvgl/lvgl/src/widgets/lv_table.c ****             tmp += table->col_w[*col];
 804              		.loc 1 882 52 is_stmt 0 discriminator 2 view .LVU263
 805 0096 0133     		adds	r3, r3, #1
 806 0098 3380     		strh	r3, [r6]	@ movhi
 807 009a F1E7     		b	.L25
 808              	.LVL86:
 809              	.L32:
 873:lvgl/lvgl/src/widgets/lv_table.c ****         }
 810              		.loc 1 873 13 is_stmt 1 view .LVU264
 873:lvgl/lvgl/src/widgets/lv_table.c ****         }
 811              		.loc 1 873 28 is_stmt 0 view .LVU265
 812 009c B4F81880 		ldrh	r8, [r4, #24]
 813              	.LVL87:
 814              	.LBB118:
 815              	.LBI118:
 109:lvgl/lvgl/src/widgets/../core/lv_obj_style_gen.h **** {
 816              		.loc 3 109 26 is_stmt 1 view .LVU266
 817              	.LBB119:
 111:lvgl/lvgl/src/widgets/../core/lv_obj_style_gen.h ****     return (lv_coord_t)v.num;
 818              		.loc 3 111 5 view .LVU267
 111:lvgl/lvgl/src/widgets/../core/lv_obj_style_gen.h ****     return (lv_coord_t)v.num;
 819              		.loc 3 111 26 is_stmt 0 view .LVU268
 820 00a0 41F21302 		movw	r2, #4115
ARM GAS  C:\Users\gx\AppData\Local\Temp\ccSIsGPa.s 			page 42


 821 00a4 0021     		movs	r1, #0
 822 00a6 2046     		mov	r0, r4
 823 00a8 FFF7FEFF 		bl	lv_obj_get_style_prop
 824              	.LVL88:
 112:lvgl/lvgl/src/widgets/../core/lv_obj_style_gen.h **** }
 825              		.loc 3 112 5 is_stmt 1 view .LVU269
 112:lvgl/lvgl/src/widgets/../core/lv_obj_style_gen.h **** }
 826              		.loc 3 112 5 is_stmt 0 view .LVU270
 827              	.LBE119:
 828              	.LBE118:
 873:lvgl/lvgl/src/widgets/lv_table.c ****         }
 829              		.loc 1 873 34 view .LVU271
 830 00ac 80B2     		uxth	r0, r0
 873:lvgl/lvgl/src/widgets/lv_table.c ****         }
 831              		.loc 1 873 32 view .LVU272
 832 00ae A8EB0000 		sub	r0, r8, r0
 833 00b2 80B2     		uxth	r0, r0
 873:lvgl/lvgl/src/widgets/lv_table.c ****         }
 834              		.loc 1 873 80 view .LVU273
 835 00b4 C71B     		subs	r7, r0, r7
 836              	.LVL89:
 873:lvgl/lvgl/src/widgets/lv_table.c ****         }
 837              		.loc 1 873 15 view .LVU274
 838 00b6 38B2     		sxth	r0, r7
 839              	.LVL90:
 873:lvgl/lvgl/src/widgets/lv_table.c ****         }
 840              		.loc 1 873 15 view .LVU275
 841 00b8 E0E7     		b	.L24
 842              	.LVL91:
 843              	.L22:
 873:lvgl/lvgl/src/widgets/lv_table.c ****         }
 844              		.loc 1 873 15 view .LVU276
 845              	.LBE113:
 888:lvgl/lvgl/src/widgets/lv_table.c ****         lv_coord_t y = p.y + lv_obj_get_scroll_y(obj);;
 846              		.loc 1 888 5 is_stmt 1 view .LVU277
 888:lvgl/lvgl/src/widgets/lv_table.c ****         lv_coord_t y = p.y + lv_obj_get_scroll_y(obj);;
 847              		.loc 1 888 7 is_stmt 0 view .LVU278
 848 00ba 2DB3     		cbz	r5, .L29
 849              	.LBB120:
 889:lvgl/lvgl/src/widgets/lv_table.c ****         y -= obj->coords.y1;
 850              		.loc 1 889 9 is_stmt 1 view .LVU279
 889:lvgl/lvgl/src/widgets/lv_table.c ****         y -= obj->coords.y1;
 851              		.loc 1 889 25 is_stmt 0 view .LVU280
 852 00bc BDF80660 		ldrh	r6, [sp, #6]
 853              	.LVL92:
 889:lvgl/lvgl/src/widgets/lv_table.c ****         y -= obj->coords.y1;
 854              		.loc 1 889 30 view .LVU281
 855 00c0 2046     		mov	r0, r4
 856 00c2 FFF7FEFF 		bl	lv_obj_get_scroll_y
 857              	.LVL93:
 889:lvgl/lvgl/src/widgets/lv_table.c ****         y -= obj->coords.y1;
 858              		.loc 1 889 28 view .LVU282
 859 00c6 16FA80F6 		uxtah	r6, r6, r0
 860 00ca B6B2     		uxth	r6, r6
 861              	.LVL94:
 889:lvgl/lvgl/src/widgets/lv_table.c ****         y -= obj->coords.y1;
 862              		.loc 1 889 55 is_stmt 1 view .LVU283
ARM GAS  C:\Users\gx\AppData\Local\Temp\ccSIsGPa.s 			page 43


 890:lvgl/lvgl/src/widgets/lv_table.c ****         y -= lv_obj_get_style_pad_top(obj, LV_PART_MAIN);
 863              		.loc 1 890 9 view .LVU284
 890:lvgl/lvgl/src/widgets/lv_table.c ****         y -= lv_obj_get_style_pad_top(obj, LV_PART_MAIN);
 864              		.loc 1 890 25 is_stmt 0 view .LVU285
 865 00cc E18A     		ldrh	r1, [r4, #22]
 890:lvgl/lvgl/src/widgets/lv_table.c ****         y -= lv_obj_get_style_pad_top(obj, LV_PART_MAIN);
 866              		.loc 1 890 11 view .LVU286
 867 00ce 761A     		subs	r6, r6, r1
 868              	.LVL95:
 890:lvgl/lvgl/src/widgets/lv_table.c ****         y -= lv_obj_get_style_pad_top(obj, LV_PART_MAIN);
 869              		.loc 1 890 11 view .LVU287
 870 00d0 B6B2     		uxth	r6, r6
 871              	.LVL96:
 891:lvgl/lvgl/src/widgets/lv_table.c **** 
 872              		.loc 1 891 9 is_stmt 1 view .LVU288
 873              	.LBB121:
 874              	.LBI121:
  91:lvgl/lvgl/src/widgets/../core/lv_obj_style_gen.h **** {
 875              		.loc 3 91 26 view .LVU289
 876              	.LBB122:
  93:lvgl/lvgl/src/widgets/../core/lv_obj_style_gen.h ****     return (lv_coord_t)v.num;
 877              		.loc 3 93 5 view .LVU290
  93:lvgl/lvgl/src/widgets/../core/lv_obj_style_gen.h ****     return (lv_coord_t)v.num;
 878              		.loc 3 93 26 is_stmt 0 view .LVU291
 879 00d2 41F21002 		movw	r2, #4112
 880 00d6 0021     		movs	r1, #0
 881 00d8 2046     		mov	r0, r4
 882 00da FFF7FEFF 		bl	lv_obj_get_style_prop
 883              	.LVL97:
  94:lvgl/lvgl/src/widgets/../core/lv_obj_style_gen.h **** }
 884              		.loc 3 94 5 is_stmt 1 view .LVU292
  94:lvgl/lvgl/src/widgets/../core/lv_obj_style_gen.h **** }
 885              		.loc 3 94 5 is_stmt 0 view .LVU293
 886              	.LBE122:
 887              	.LBE121:
 891:lvgl/lvgl/src/widgets/lv_table.c **** 
 888              		.loc 1 891 14 view .LVU294
 889 00de 81B2     		uxth	r1, r0
 891:lvgl/lvgl/src/widgets/lv_table.c **** 
 890              		.loc 1 891 11 view .LVU295
 891 00e0 711A     		subs	r1, r6, r1
 892 00e2 09B2     		sxth	r1, r1
 893              	.LVL98:
 893:lvgl/lvgl/src/widgets/lv_table.c ****         tmp = 0;
 894              		.loc 1 893 9 is_stmt 1 view .LVU296
 893:lvgl/lvgl/src/widgets/lv_table.c ****         tmp = 0;
 895              		.loc 1 893 14 is_stmt 0 view .LVU297
 896 00e4 0022     		movs	r2, #0
 897 00e6 2A80     		strh	r2, [r5]	@ movhi
 894:lvgl/lvgl/src/widgets/lv_table.c **** 
 898              		.loc 1 894 9 is_stmt 1 view .LVU298
 899              	.LVL99:
 896:lvgl/lvgl/src/widgets/lv_table.c ****             tmp += table->row_h[*row];
 900              		.loc 1 896 9 view .LVU299
 901              	.L27:
 896:lvgl/lvgl/src/widgets/lv_table.c ****             tmp += table->row_h[*row];
 902              		.loc 1 896 23 discriminator 1 view .LVU300
ARM GAS  C:\Users\gx\AppData\Local\Temp\ccSIsGPa.s 			page 44


 903 00e8 2B88     		ldrh	r3, [r5]
 896:lvgl/lvgl/src/widgets/lv_table.c ****             tmp += table->row_h[*row];
 904              		.loc 1 896 35 is_stmt 0 discriminator 1 view .LVU301
 905 00ea E08C     		ldrh	r0, [r4, #38]
 896:lvgl/lvgl/src/widgets/lv_table.c ****             tmp += table->row_h[*row];
 906              		.loc 1 896 9 discriminator 1 view .LVU302
 907 00ec 8342     		cmp	r3, r0
 908 00ee 09D2     		bcs	.L33
 897:lvgl/lvgl/src/widgets/lv_table.c ****             if(y < tmp) break;
 909              		.loc 1 897 13 is_stmt 1 view .LVU303
 897:lvgl/lvgl/src/widgets/lv_table.c ****             if(y < tmp) break;
 910              		.loc 1 897 25 is_stmt 0 view .LVU304
 911 00f0 E06A     		ldr	r0, [r4, #44]
 897:lvgl/lvgl/src/widgets/lv_table.c ****             if(y < tmp) break;
 912              		.loc 1 897 32 view .LVU305
 913 00f2 30F81300 		ldrh	r0, [r0, r3, lsl #1]
 897:lvgl/lvgl/src/widgets/lv_table.c ****             if(y < tmp) break;
 914              		.loc 1 897 17 view .LVU306
 915 00f6 0244     		add	r2, r2, r0
 916              	.LVL100:
 897:lvgl/lvgl/src/widgets/lv_table.c ****             if(y < tmp) break;
 917              		.loc 1 897 17 view .LVU307
 918 00f8 12B2     		sxth	r2, r2
 919              	.LVL101:
 898:lvgl/lvgl/src/widgets/lv_table.c ****         }
 920              		.loc 1 898 13 is_stmt 1 view .LVU308
 898:lvgl/lvgl/src/widgets/lv_table.c ****         }
 921              		.loc 1 898 15 is_stmt 0 view .LVU309
 922 00fa 9142     		cmp	r1, r2
 923 00fc 06DB     		blt	.L30
 896:lvgl/lvgl/src/widgets/lv_table.c ****             tmp += table->row_h[*row];
 924              		.loc 1 896 46 is_stmt 1 discriminator 2 view .LVU310
 896:lvgl/lvgl/src/widgets/lv_table.c ****             tmp += table->row_h[*row];
 925              		.loc 1 896 52 is_stmt 0 discriminator 2 view .LVU311
 926 00fe 0133     		adds	r3, r3, #1
 927 0100 2B80     		strh	r3, [r5]	@ movhi
 928 0102 F1E7     		b	.L27
 929              	.L33:
 896:lvgl/lvgl/src/widgets/lv_table.c ****             tmp += table->row_h[*row];
 930              		.loc 1 896 52 discriminator 2 view .LVU312
 931              	.LBE120:
 902:lvgl/lvgl/src/widgets/lv_table.c **** }
 932              		.loc 1 902 12 view .LVU313
 933 0104 0120     		movs	r0, #1
 934              	.LBB123:
 935 0106 92E7     		b	.L21
 936              	.LVL102:
 937              	.L29:
 902:lvgl/lvgl/src/widgets/lv_table.c **** }
 938              		.loc 1 902 12 view .LVU314
 939              	.LBE123:
 940 0108 0120     		movs	r0, #1
 941 010a 90E7     		b	.L21
 942              	.LVL103:
 943              	.L30:
 902:lvgl/lvgl/src/widgets/lv_table.c **** }
 944              		.loc 1 902 12 view .LVU315
ARM GAS  C:\Users\gx\AppData\Local\Temp\ccSIsGPa.s 			page 45


 945 010c 0120     		movs	r0, #1
 946 010e 8EE7     		b	.L21
 947              		.cfi_endproc
 948              	.LFE172:
 950              		.section	.text.draw_main,"ax",%progbits
 951              		.align	1
 952              		.syntax unified
 953              		.thumb
 954              		.thumb_func
 955              		.fpu fpv4-sp-d16
 957              	draw_main:
 958              	.LVL104:
 959              	.LFB169:
 582:lvgl/lvgl/src/widgets/lv_table.c ****     lv_obj_t * obj = lv_event_get_target(e);
 960              		.loc 1 582 1 is_stmt 1 view -0
 961              		.cfi_startproc
 962              		@ args = 0, pretend = 0, frame = 344
 963              		@ frame_needed = 0, uses_anonymous_args = 0
 582:lvgl/lvgl/src/widgets/lv_table.c ****     lv_obj_t * obj = lv_event_get_target(e);
 964              		.loc 1 582 1 is_stmt 0 view .LVU317
 965 0000 2DE9F04F 		push	{r4, r5, r6, r7, r8, r9, r10, fp, lr}
 966              	.LCFI10:
 967              		.cfi_def_cfa_offset 36
 968              		.cfi_offset 4, -36
 969              		.cfi_offset 5, -32
 970              		.cfi_offset 6, -28
 971              		.cfi_offset 7, -24
 972              		.cfi_offset 8, -20
 973              		.cfi_offset 9, -16
 974              		.cfi_offset 10, -12
 975              		.cfi_offset 11, -8
 976              		.cfi_offset 14, -4
 977 0004 DBB0     		sub	sp, sp, #364
 978              	.LCFI11:
 979              		.cfi_def_cfa_offset 400
 980 0006 0446     		mov	r4, r0
 583:lvgl/lvgl/src/widgets/lv_table.c ****     lv_table_t * table = (lv_table_t *)obj;
 981              		.loc 1 583 5 is_stmt 1 view .LVU318
 583:lvgl/lvgl/src/widgets/lv_table.c ****     lv_table_t * table = (lv_table_t *)obj;
 982              		.loc 1 583 22 is_stmt 0 view .LVU319
 983 0008 FFF7FEFF 		bl	lv_event_get_target
 984              	.LVL105:
 583:lvgl/lvgl/src/widgets/lv_table.c ****     lv_table_t * table = (lv_table_t *)obj;
 985              		.loc 1 583 22 view .LVU320
 986 000c 0746     		mov	r7, r0
 987              	.LVL106:
 584:lvgl/lvgl/src/widgets/lv_table.c ****     const lv_area_t * clip_area_ori = lv_event_get_param(e);
 988              		.loc 1 584 5 is_stmt 1 view .LVU321
 585:lvgl/lvgl/src/widgets/lv_table.c ****     lv_area_t clip_area;
 989              		.loc 1 585 5 view .LVU322
 585:lvgl/lvgl/src/widgets/lv_table.c ****     lv_area_t clip_area;
 990              		.loc 1 585 39 is_stmt 0 view .LVU323
 991 000e 2046     		mov	r0, r4
 992              	.LVL107:
 585:lvgl/lvgl/src/widgets/lv_table.c ****     lv_area_t clip_area;
 993              		.loc 1 585 39 view .LVU324
 994 0010 FFF7FEFF 		bl	lv_event_get_param
ARM GAS  C:\Users\gx\AppData\Local\Temp\ccSIsGPa.s 			page 46


 995              	.LVL108:
 996 0014 0246     		mov	r2, r0
 997              	.LVL109:
 586:lvgl/lvgl/src/widgets/lv_table.c ****     if(!_lv_area_intersect(&clip_area, &obj->coords, clip_area_ori)) return;
 998              		.loc 1 586 5 is_stmt 1 view .LVU325
 587:lvgl/lvgl/src/widgets/lv_table.c **** 
 999              		.loc 1 587 5 view .LVU326
 587:lvgl/lvgl/src/widgets/lv_table.c **** 
 1000              		.loc 1 587 9 is_stmt 0 view .LVU327
 1001 0016 07F11401 		add	r1, r7, #20
 1002 001a 58A8     		add	r0, sp, #352
 1003              	.LVL110:
 587:lvgl/lvgl/src/widgets/lv_table.c **** 
 1004              		.loc 1 587 9 view .LVU328
 1005 001c FFF7FEFF 		bl	_lv_area_intersect
 1006              	.LVL111:
 587:lvgl/lvgl/src/widgets/lv_table.c **** 
 1007              		.loc 1 587 7 view .LVU329
 1008 0020 10B9     		cbnz	r0, .L71
 1009              	.LVL112:
 1010              	.L34:
 767:lvgl/lvgl/src/widgets/lv_table.c **** 
 1011              		.loc 1 767 1 view .LVU330
 1012 0022 5BB0     		add	sp, sp, #364
 1013              	.LCFI12:
 1014              		.cfi_remember_state
 1015              		.cfi_def_cfa_offset 36
 1016              		@ sp needed
 1017 0024 BDE8F08F 		pop	{r4, r5, r6, r7, r8, r9, r10, fp, pc}
 1018              	.LVL113:
 1019              	.L71:
 1020              	.LCFI13:
 1021              		.cfi_restore_state
 590:lvgl/lvgl/src/widgets/lv_table.c ****     lv_area_t cell_area;
 1022              		.loc 1 590 5 is_stmt 1 view .LVU331
 591:lvgl/lvgl/src/widgets/lv_table.c ****     lv_area_t txt_area;
 1023              		.loc 1 591 5 view .LVU332
 592:lvgl/lvgl/src/widgets/lv_table.c ****     lv_text_flag_t txt_flags;
 1024              		.loc 1 592 5 view .LVU333
 593:lvgl/lvgl/src/widgets/lv_table.c **** 
 1025              		.loc 1 593 5 view .LVU334
 595:lvgl/lvgl/src/widgets/lv_table.c ****     lv_coord_t bg_bottom = lv_obj_get_style_pad_bottom(obj, LV_PART_MAIN);
 1026              		.loc 1 595 5 view .LVU335
 1027              	.LBB124:
 1028              	.LBI124:
  91:lvgl/lvgl/src/widgets/../core/lv_obj_style_gen.h **** {
 1029              		.loc 3 91 26 view .LVU336
 1030              	.LBB125:
  93:lvgl/lvgl/src/widgets/../core/lv_obj_style_gen.h ****     return (lv_coord_t)v.num;
 1031              		.loc 3 93 5 view .LVU337
  93:lvgl/lvgl/src/widgets/../core/lv_obj_style_gen.h ****     return (lv_coord_t)v.num;
 1032              		.loc 3 93 26 is_stmt 0 view .LVU338
 1033 0028 41F21002 		movw	r2, #4112
 1034 002c 0021     		movs	r1, #0
 1035 002e 3846     		mov	r0, r7
 1036 0030 FFF7FEFF 		bl	lv_obj_get_style_prop
 1037              	.LVL114:
ARM GAS  C:\Users\gx\AppData\Local\Temp\ccSIsGPa.s 			page 47


 1038 0034 0446     		mov	r4, r0
 1039              	.LVL115:
  94:lvgl/lvgl/src/widgets/../core/lv_obj_style_gen.h **** }
 1040              		.loc 3 94 5 is_stmt 1 view .LVU339
  94:lvgl/lvgl/src/widgets/../core/lv_obj_style_gen.h **** }
 1041              		.loc 3 94 12 is_stmt 0 view .LVU340
 1042 0036 03B2     		sxth	r3, r0
 1043 0038 0F93     		str	r3, [sp, #60]
 1044              	.LVL116:
  94:lvgl/lvgl/src/widgets/../core/lv_obj_style_gen.h **** }
 1045              		.loc 3 94 12 view .LVU341
 1046              	.LBE125:
 1047              	.LBE124:
 596:lvgl/lvgl/src/widgets/lv_table.c ****     lv_coord_t bg_left = lv_obj_get_style_pad_left(obj, LV_PART_MAIN);
 1048              		.loc 1 596 5 is_stmt 1 view .LVU342
 1049              	.LBB126:
 1050              	.LBI126:
  97:lvgl/lvgl/src/widgets/../core/lv_obj_style_gen.h **** {
 1051              		.loc 3 97 26 view .LVU343
 1052              	.LBB127:
  99:lvgl/lvgl/src/widgets/../core/lv_obj_style_gen.h ****     return (lv_coord_t)v.num;
 1053              		.loc 3 99 5 view .LVU344
  99:lvgl/lvgl/src/widgets/../core/lv_obj_style_gen.h ****     return (lv_coord_t)v.num;
 1054              		.loc 3 99 26 is_stmt 0 view .LVU345
 1055 003a 41F21102 		movw	r2, #4113
 1056 003e 0021     		movs	r1, #0
 1057 0040 3846     		mov	r0, r7
  99:lvgl/lvgl/src/widgets/../core/lv_obj_style_gen.h ****     return (lv_coord_t)v.num;
 1058              		.loc 3 99 26 view .LVU346
 1059 0042 FFF7FEFF 		bl	lv_obj_get_style_prop
 1060              	.LVL117:
 100:lvgl/lvgl/src/widgets/../core/lv_obj_style_gen.h **** }
 1061              		.loc 3 100 5 is_stmt 1 view .LVU347
 100:lvgl/lvgl/src/widgets/../core/lv_obj_style_gen.h **** }
 1062              		.loc 3 100 12 is_stmt 0 view .LVU348
 1063 0046 03B2     		sxth	r3, r0
 1064 0048 0E93     		str	r3, [sp, #56]
 1065              	.LVL118:
 100:lvgl/lvgl/src/widgets/../core/lv_obj_style_gen.h **** }
 1066              		.loc 3 100 12 view .LVU349
 1067              	.LBE127:
 1068              	.LBE126:
 597:lvgl/lvgl/src/widgets/lv_table.c ****     lv_coord_t bg_right = lv_obj_get_style_pad_right(obj, LV_PART_MAIN);
 1069              		.loc 1 597 5 is_stmt 1 view .LVU350
 1070              	.LBB128:
 1071              	.LBI128:
 103:lvgl/lvgl/src/widgets/../core/lv_obj_style_gen.h **** {
 1072              		.loc 3 103 26 view .LVU351
 1073              	.LBB129:
 105:lvgl/lvgl/src/widgets/../core/lv_obj_style_gen.h ****     return (lv_coord_t)v.num;
 1074              		.loc 3 105 5 view .LVU352
 105:lvgl/lvgl/src/widgets/../core/lv_obj_style_gen.h ****     return (lv_coord_t)v.num;
 1075              		.loc 3 105 26 is_stmt 0 view .LVU353
 1076 004a 41F21202 		movw	r2, #4114
 1077 004e 0021     		movs	r1, #0
 1078 0050 3846     		mov	r0, r7
 1079 0052 FFF7FEFF 		bl	lv_obj_get_style_prop
ARM GAS  C:\Users\gx\AppData\Local\Temp\ccSIsGPa.s 			page 48


 1080              	.LVL119:
 1081 0056 1190     		str	r0, [sp, #68]
 106:lvgl/lvgl/src/widgets/../core/lv_obj_style_gen.h **** }
 1082              		.loc 3 106 5 is_stmt 1 view .LVU354
 106:lvgl/lvgl/src/widgets/../core/lv_obj_style_gen.h **** }
 1083              		.loc 3 106 12 is_stmt 0 view .LVU355
 1084 0058 03B2     		sxth	r3, r0
 1085 005a 0D93     		str	r3, [sp, #52]
 1086              	.LVL120:
 106:lvgl/lvgl/src/widgets/../core/lv_obj_style_gen.h **** }
 1087              		.loc 3 106 12 view .LVU356
 1088              	.LBE129:
 1089              	.LBE128:
 598:lvgl/lvgl/src/widgets/lv_table.c **** 
 1090              		.loc 1 598 5 is_stmt 1 view .LVU357
 1091              	.LBB130:
 1092              	.LBI130:
 109:lvgl/lvgl/src/widgets/../core/lv_obj_style_gen.h **** {
 1093              		.loc 3 109 26 view .LVU358
 1094              	.LBB131:
 111:lvgl/lvgl/src/widgets/../core/lv_obj_style_gen.h ****     return (lv_coord_t)v.num;
 1095              		.loc 3 111 5 view .LVU359
 111:lvgl/lvgl/src/widgets/../core/lv_obj_style_gen.h ****     return (lv_coord_t)v.num;
 1096              		.loc 3 111 26 is_stmt 0 view .LVU360
 1097 005c 41F21302 		movw	r2, #4115
 1098 0060 0021     		movs	r1, #0
 1099 0062 3846     		mov	r0, r7
 1100 0064 FFF7FEFF 		bl	lv_obj_get_style_prop
 1101              	.LVL121:
 1102 0068 1390     		str	r0, [sp, #76]
 112:lvgl/lvgl/src/widgets/../core/lv_obj_style_gen.h **** }
 1103              		.loc 3 112 5 is_stmt 1 view .LVU361
 112:lvgl/lvgl/src/widgets/../core/lv_obj_style_gen.h **** }
 1104              		.loc 3 112 12 is_stmt 0 view .LVU362
 1105 006a 03B2     		sxth	r3, r0
 1106 006c 0C93     		str	r3, [sp, #48]
 1107              	.LVL122:
 112:lvgl/lvgl/src/widgets/../core/lv_obj_style_gen.h **** }
 1108              		.loc 3 112 12 view .LVU363
 1109              	.LBE131:
 1110              	.LBE130:
 600:lvgl/lvgl/src/widgets/lv_table.c ****     lv_coord_t cell_right = lv_obj_get_style_pad_right(obj, LV_PART_ITEMS);
 1111              		.loc 1 600 5 is_stmt 1 view .LVU364
 1112              	.LBB132:
 1113              	.LBI132:
 103:lvgl/lvgl/src/widgets/../core/lv_obj_style_gen.h **** {
 1114              		.loc 3 103 26 view .LVU365
 1115              	.LBB133:
 105:lvgl/lvgl/src/widgets/../core/lv_obj_style_gen.h ****     return (lv_coord_t)v.num;
 1116              		.loc 3 105 5 view .LVU366
 105:lvgl/lvgl/src/widgets/../core/lv_obj_style_gen.h ****     return (lv_coord_t)v.num;
 1117              		.loc 3 105 26 is_stmt 0 view .LVU367
 1118 006e 41F21202 		movw	r2, #4114
 1119 0072 4FF4A021 		mov	r1, #327680
 1120 0076 3846     		mov	r0, r7
 1121 0078 FFF7FEFF 		bl	lv_obj_get_style_prop
 1122              	.LVL123:
ARM GAS  C:\Users\gx\AppData\Local\Temp\ccSIsGPa.s 			page 49


 1123 007c 0A90     		str	r0, [sp, #40]
 106:lvgl/lvgl/src/widgets/../core/lv_obj_style_gen.h **** }
 1124              		.loc 3 106 5 is_stmt 1 view .LVU368
 1125              	.LVL124:
 106:lvgl/lvgl/src/widgets/../core/lv_obj_style_gen.h **** }
 1126              		.loc 3 106 5 is_stmt 0 view .LVU369
 1127              	.LBE133:
 1128              	.LBE132:
 601:lvgl/lvgl/src/widgets/lv_table.c ****     lv_coord_t cell_top = lv_obj_get_style_pad_top(obj, LV_PART_ITEMS);
 1129              		.loc 1 601 5 is_stmt 1 view .LVU370
 1130              	.LBB134:
 1131              	.LBI134:
 109:lvgl/lvgl/src/widgets/../core/lv_obj_style_gen.h **** {
 1132              		.loc 3 109 26 view .LVU371
 1133              	.LBB135:
 111:lvgl/lvgl/src/widgets/../core/lv_obj_style_gen.h ****     return (lv_coord_t)v.num;
 1134              		.loc 3 111 5 view .LVU372
 111:lvgl/lvgl/src/widgets/../core/lv_obj_style_gen.h ****     return (lv_coord_t)v.num;
 1135              		.loc 3 111 26 is_stmt 0 view .LVU373
 1136 007e 41F21302 		movw	r2, #4115
 1137 0082 4FF4A021 		mov	r1, #327680
 1138 0086 3846     		mov	r0, r7
 1139 0088 FFF7FEFF 		bl	lv_obj_get_style_prop
 1140              	.LVL125:
 1141 008c 0990     		str	r0, [sp, #36]
 112:lvgl/lvgl/src/widgets/../core/lv_obj_style_gen.h **** }
 1142              		.loc 3 112 5 is_stmt 1 view .LVU374
 1143              	.LVL126:
 112:lvgl/lvgl/src/widgets/../core/lv_obj_style_gen.h **** }
 1144              		.loc 3 112 5 is_stmt 0 view .LVU375
 1145              	.LBE135:
 1146              	.LBE134:
 602:lvgl/lvgl/src/widgets/lv_table.c ****     lv_coord_t cell_bottom = lv_obj_get_style_pad_bottom(obj, LV_PART_ITEMS);
 1147              		.loc 1 602 5 is_stmt 1 view .LVU376
 1148              	.LBB136:
 1149              	.LBI136:
  91:lvgl/lvgl/src/widgets/../core/lv_obj_style_gen.h **** {
 1150              		.loc 3 91 26 view .LVU377
 1151              	.LBB137:
  93:lvgl/lvgl/src/widgets/../core/lv_obj_style_gen.h ****     return (lv_coord_t)v.num;
 1152              		.loc 3 93 5 view .LVU378
  93:lvgl/lvgl/src/widgets/../core/lv_obj_style_gen.h ****     return (lv_coord_t)v.num;
 1153              		.loc 3 93 26 is_stmt 0 view .LVU379
 1154 008e 41F21002 		movw	r2, #4112
 1155 0092 4FF4A021 		mov	r1, #327680
 1156 0096 3846     		mov	r0, r7
 1157 0098 FFF7FEFF 		bl	lv_obj_get_style_prop
 1158              	.LVL127:
 1159 009c 0890     		str	r0, [sp, #32]
  94:lvgl/lvgl/src/widgets/../core/lv_obj_style_gen.h **** }
 1160              		.loc 3 94 5 is_stmt 1 view .LVU380
 1161              	.LVL128:
  94:lvgl/lvgl/src/widgets/../core/lv_obj_style_gen.h **** }
 1162              		.loc 3 94 5 is_stmt 0 view .LVU381
 1163              	.LBE137:
 1164              	.LBE136:
 603:lvgl/lvgl/src/widgets/lv_table.c **** 
ARM GAS  C:\Users\gx\AppData\Local\Temp\ccSIsGPa.s 			page 50


 1165              		.loc 1 603 5 is_stmt 1 view .LVU382
 1166              	.LBB138:
 1167              	.LBI138:
  97:lvgl/lvgl/src/widgets/../core/lv_obj_style_gen.h **** {
 1168              		.loc 3 97 26 view .LVU383
 1169              	.LBB139:
  99:lvgl/lvgl/src/widgets/../core/lv_obj_style_gen.h ****     return (lv_coord_t)v.num;
 1170              		.loc 3 99 5 view .LVU384
  99:lvgl/lvgl/src/widgets/../core/lv_obj_style_gen.h ****     return (lv_coord_t)v.num;
 1171              		.loc 3 99 26 is_stmt 0 view .LVU385
 1172 009e 41F21102 		movw	r2, #4113
 1173 00a2 4FF4A021 		mov	r1, #327680
 1174 00a6 3846     		mov	r0, r7
 1175 00a8 FFF7FEFF 		bl	lv_obj_get_style_prop
 1176              	.LVL129:
 1177 00ac 0790     		str	r0, [sp, #28]
 100:lvgl/lvgl/src/widgets/../core/lv_obj_style_gen.h **** }
 1178              		.loc 3 100 5 is_stmt 1 view .LVU386
 1179              	.LVL130:
 100:lvgl/lvgl/src/widgets/../core/lv_obj_style_gen.h **** }
 1180              		.loc 3 100 5 is_stmt 0 view .LVU387
 1181              	.LBE139:
 1182              	.LBE138:
 605:lvgl/lvgl/src/widgets/lv_table.c ****     obj->state = LV_STATE_DEFAULT;
 1183              		.loc 1 605 5 is_stmt 1 view .LVU388
 605:lvgl/lvgl/src/widgets/lv_table.c ****     obj->state = LV_STATE_DEFAULT;
 1184              		.loc 1 605 16 is_stmt 0 view .LVU389
 1185 00ae 3E8C     		ldrh	r6, [r7, #32]
 1186 00b0 1296     		str	r6, [sp, #72]
 1187              	.LVL131:
 606:lvgl/lvgl/src/widgets/lv_table.c ****     obj->skip_trans = 1;
 1188              		.loc 1 606 5 is_stmt 1 view .LVU390
 606:lvgl/lvgl/src/widgets/lv_table.c ****     obj->skip_trans = 1;
 1189              		.loc 1 606 16 is_stmt 0 view .LVU391
 1190 00b2 0025     		movs	r5, #0
 1191 00b4 3D84     		strh	r5, [r7, #32]	@ movhi
 607:lvgl/lvgl/src/widgets/lv_table.c ****     lv_draw_rect_dsc_t rect_dsc_def;
 1192              		.loc 1 607 5 is_stmt 1 view .LVU392
 607:lvgl/lvgl/src/widgets/lv_table.c ****     lv_draw_rect_dsc_t rect_dsc_def;
 1193              		.loc 1 607 21 is_stmt 0 view .LVU393
 1194 00b6 97F82230 		ldrb	r3, [r7, #34]	@ zero_extendqisi2
 1195 00ba 43F00403 		orr	r3, r3, #4
 1196 00be 87F82230 		strb	r3, [r7, #34]
 608:lvgl/lvgl/src/widgets/lv_table.c ****     lv_draw_rect_dsc_t rect_dsc_act; /*Passed to the event to modify it*/
 1197              		.loc 1 608 5 is_stmt 1 view .LVU394
 609:lvgl/lvgl/src/widgets/lv_table.c ****     lv_draw_rect_dsc_init(&rect_dsc_def);
 1198              		.loc 1 609 5 view .LVU395
 610:lvgl/lvgl/src/widgets/lv_table.c ****     lv_obj_init_draw_rect_dsc(obj, LV_PART_ITEMS, &rect_dsc_def);
 1199              		.loc 1 610 5 view .LVU396
 1200 00c2 46A8     		add	r0, sp, #280
 1201 00c4 FFF7FEFF 		bl	lv_draw_rect_dsc_init
 1202              	.LVL132:
 611:lvgl/lvgl/src/widgets/lv_table.c **** 
 1203              		.loc 1 611 5 view .LVU397
 1204 00c8 46AA     		add	r2, sp, #280
 1205 00ca 4FF4A021 		mov	r1, #327680
 1206 00ce 3846     		mov	r0, r7
ARM GAS  C:\Users\gx\AppData\Local\Temp\ccSIsGPa.s 			page 51


 1207 00d0 FFF7FEFF 		bl	lv_obj_init_draw_rect_dsc
 1208              	.LVL133:
 613:lvgl/lvgl/src/widgets/lv_table.c ****     lv_draw_label_dsc_t label_dsc_act;  /*Passed to the event to modify it*/
 1209              		.loc 1 613 5 view .LVU398
 614:lvgl/lvgl/src/widgets/lv_table.c ****     lv_draw_label_dsc_init(&label_dsc_def);
 1210              		.loc 1 614 5 view .LVU399
 615:lvgl/lvgl/src/widgets/lv_table.c ****     lv_obj_init_draw_label_dsc(obj, LV_PART_ITEMS, &label_dsc_def);
 1211              		.loc 1 615 5 view .LVU400
 1212 00d4 31A8     		add	r0, sp, #196
 1213 00d6 FFF7FEFF 		bl	lv_draw_label_dsc_init
 1214              	.LVL134:
 616:lvgl/lvgl/src/widgets/lv_table.c ****     obj->state = state_ori;
 1215              		.loc 1 616 5 view .LVU401
 1216 00da 31AA     		add	r2, sp, #196
 1217 00dc 4FF4A021 		mov	r1, #327680
 1218 00e0 3846     		mov	r0, r7
 1219 00e2 FFF7FEFF 		bl	lv_obj_init_draw_label_dsc
 1220              	.LVL135:
 617:lvgl/lvgl/src/widgets/lv_table.c ****     obj->skip_trans = 0;
 1221              		.loc 1 617 5 view .LVU402
 617:lvgl/lvgl/src/widgets/lv_table.c ****     obj->skip_trans = 0;
 1222              		.loc 1 617 16 is_stmt 0 view .LVU403
 1223 00e6 3E84     		strh	r6, [r7, #32]	@ movhi
 618:lvgl/lvgl/src/widgets/lv_table.c **** 
 1224              		.loc 1 618 5 is_stmt 1 view .LVU404
 618:lvgl/lvgl/src/widgets/lv_table.c **** 
 1225              		.loc 1 618 21 is_stmt 0 view .LVU405
 1226 00e8 97F82230 		ldrb	r3, [r7, #34]	@ zero_extendqisi2
 1227 00ec 65F38203 		bfi	r3, r5, #2, #1
 1228 00f0 87F82230 		strb	r3, [r7, #34]
 620:lvgl/lvgl/src/widgets/lv_table.c ****     uint16_t row;
 1229              		.loc 1 620 5 is_stmt 1 view .LVU406
 621:lvgl/lvgl/src/widgets/lv_table.c ****     uint16_t cell = 0;
 1230              		.loc 1 621 5 view .LVU407
 622:lvgl/lvgl/src/widgets/lv_table.c **** 
 1231              		.loc 1 622 5 view .LVU408
 1232              	.LVL136:
 624:lvgl/lvgl/src/widgets/lv_table.c ****     lv_coord_t scroll_x = lv_obj_get_scroll_x(obj) ;
 1233              		.loc 1 624 5 view .LVU409
 624:lvgl/lvgl/src/widgets/lv_table.c ****     lv_coord_t scroll_x = lv_obj_get_scroll_x(obj) ;
 1234              		.loc 1 624 31 is_stmt 0 view .LVU410
 1235 00f4 FB8A     		ldrh	r3, [r7, #22]
 1236              	.LVL137:
 624:lvgl/lvgl/src/widgets/lv_table.c ****     lv_coord_t scroll_x = lv_obj_get_scroll_x(obj) ;
 1237              		.loc 1 624 35 view .LVU411
 1238 00f6 1C44     		add	r4, r4, r3
 1239              	.LVL138:
 624:lvgl/lvgl/src/widgets/lv_table.c ****     lv_coord_t scroll_x = lv_obj_get_scroll_x(obj) ;
 1240              		.loc 1 624 35 view .LVU412
 1241 00f8 A4B2     		uxth	r4, r4
 624:lvgl/lvgl/src/widgets/lv_table.c ****     lv_coord_t scroll_x = lv_obj_get_scroll_x(obj) ;
 1242              		.loc 1 624 50 view .LVU413
 1243 00fa 3846     		mov	r0, r7
 1244 00fc FFF7FEFF 		bl	lv_obj_get_scroll_y
 1245              	.LVL139:
 624:lvgl/lvgl/src/widgets/lv_table.c ****     lv_coord_t scroll_x = lv_obj_get_scroll_x(obj) ;
 1246              		.loc 1 624 48 view .LVU414
ARM GAS  C:\Users\gx\AppData\Local\Temp\ccSIsGPa.s 			page 52


 1247 0100 231A     		subs	r3, r4, r0
 1248 0102 013B     		subs	r3, r3, #1
 624:lvgl/lvgl/src/widgets/lv_table.c ****     lv_coord_t scroll_x = lv_obj_get_scroll_x(obj) ;
 1249              		.loc 1 624 18 view .LVU415
 1250 0104 ADF85A31 		strh	r3, [sp, #346]	@ movhi
 625:lvgl/lvgl/src/widgets/lv_table.c ****     bool rtl = lv_obj_get_style_base_dir(obj, LV_PART_MAIN) == LV_BASE_DIR_RTL ? true : false;
 1251              		.loc 1 625 5 is_stmt 1 view .LVU416
 625:lvgl/lvgl/src/widgets/lv_table.c ****     bool rtl = lv_obj_get_style_base_dir(obj, LV_PART_MAIN) == LV_BASE_DIR_RTL ? true : false;
 1252              		.loc 1 625 27 is_stmt 0 view .LVU417
 1253 0108 3846     		mov	r0, r7
 1254 010a FFF7FEFF 		bl	lv_obj_get_scroll_x
 1255              	.LVL140:
 1256 010e 1090     		str	r0, [sp, #64]
 1257              	.LVL141:
 626:lvgl/lvgl/src/widgets/lv_table.c **** 
 1258              		.loc 1 626 5 is_stmt 1 view .LVU418
 1259              	.LBB140:
 1260              	.LBI140:
 187:lvgl/lvgl/src/widgets/../core/lv_obj_style_gen.h **** {
 1261              		.loc 3 187 29 view .LVU419
 1262              	.LBB141:
 189:lvgl/lvgl/src/widgets/../core/lv_obj_style_gen.h ****     return (lv_base_dir_t)v.num;
 1263              		.loc 3 189 5 view .LVU420
 189:lvgl/lvgl/src/widgets/../core/lv_obj_style_gen.h ****     return (lv_base_dir_t)v.num;
 1264              		.loc 3 189 26 is_stmt 0 view .LVU421
 1265 0110 41F26A42 		movw	r2, #5226
 1266 0114 2946     		mov	r1, r5
 1267 0116 3846     		mov	r0, r7
 1268 0118 FFF7FEFF 		bl	lv_obj_get_style_prop
 1269              	.LVL142:
 190:lvgl/lvgl/src/widgets/../core/lv_obj_style_gen.h **** }
 1270              		.loc 3 190 5 is_stmt 1 view .LVU422
 190:lvgl/lvgl/src/widgets/../core/lv_obj_style_gen.h **** }
 1271              		.loc 3 190 12 is_stmt 0 view .LVU423
 1272 011c 5FFA80FB 		uxtb	fp, r0
 1273              	.LVL143:
 190:lvgl/lvgl/src/widgets/../core/lv_obj_style_gen.h **** }
 1274              		.loc 3 190 12 view .LVU424
 1275              	.LBE141:
 1276              	.LBE140:
 629:lvgl/lvgl/src/widgets/lv_table.c ****     lv_obj_draw_dsc_init(&part_draw_dsc, &clip_area);
 1277              		.loc 1 629 5 is_stmt 1 view .LVU425
 630:lvgl/lvgl/src/widgets/lv_table.c ****     part_draw_dsc.part = LV_PART_ITEMS;
 1278              		.loc 1 630 5 view .LVU426
 1279 0120 58A9     		add	r1, sp, #352
 1280 0122 18A8     		add	r0, sp, #96
 1281 0124 FFF7FEFF 		bl	lv_obj_draw_dsc_init
 1282              	.LVL144:
 631:lvgl/lvgl/src/widgets/lv_table.c ****     part_draw_dsc.class_p = MY_CLASS;
 1283              		.loc 1 631 5 view .LVU427
 631:lvgl/lvgl/src/widgets/lv_table.c ****     part_draw_dsc.class_p = MY_CLASS;
 1284              		.loc 1 631 24 is_stmt 0 view .LVU428
 1285 0128 4FF4A023 		mov	r3, #327680
 1286 012c 2493     		str	r3, [sp, #144]
 632:lvgl/lvgl/src/widgets/lv_table.c ****     part_draw_dsc.type = LV_TABLE_DRAW_PART_CELL;
 1287              		.loc 1 632 5 is_stmt 1 view .LVU429
 632:lvgl/lvgl/src/widgets/lv_table.c ****     part_draw_dsc.type = LV_TABLE_DRAW_PART_CELL;
ARM GAS  C:\Users\gx\AppData\Local\Temp\ccSIsGPa.s 			page 53


 1288              		.loc 1 632 27 is_stmt 0 view .LVU430
 1289 012e B54B     		ldr	r3, .L78
 1290 0130 1993     		str	r3, [sp, #100]
 633:lvgl/lvgl/src/widgets/lv_table.c ****     part_draw_dsc.rect_dsc = &rect_dsc_act;
 1291              		.loc 1 633 5 is_stmt 1 view .LVU431
 633:lvgl/lvgl/src/widgets/lv_table.c ****     part_draw_dsc.rect_dsc = &rect_dsc_act;
 1292              		.loc 1 633 24 is_stmt 0 view .LVU432
 1293 0132 1A95     		str	r5, [sp, #104]
 634:lvgl/lvgl/src/widgets/lv_table.c ****     part_draw_dsc.label_dsc = &label_dsc_act;
 1294              		.loc 1 634 5 is_stmt 1 view .LVU433
 634:lvgl/lvgl/src/widgets/lv_table.c ****     part_draw_dsc.label_dsc = &label_dsc_act;
 1295              		.loc 1 634 28 is_stmt 0 view .LVU434
 1296 0134 39AB     		add	r3, sp, #228
 1297 0136 1C93     		str	r3, [sp, #112]
 635:lvgl/lvgl/src/widgets/lv_table.c **** 
 1298              		.loc 1 635 5 is_stmt 1 view .LVU435
 635:lvgl/lvgl/src/widgets/lv_table.c **** 
 1299              		.loc 1 635 29 is_stmt 0 view .LVU436
 1300 0138 29AB     		add	r3, sp, #164
 1301 013a 1D93     		str	r3, [sp, #116]
 637:lvgl/lvgl/src/widgets/lv_table.c ****         lv_coord_t h_row = table->row_h[row];
 1302              		.loc 1 637 5 is_stmt 1 view .LVU437
 1303              	.LVL145:
 622:lvgl/lvgl/src/widgets/lv_table.c **** 
 1304              		.loc 1 622 14 is_stmt 0 view .LVU438
 1305 013c AA46     		mov	r10, r5
 637:lvgl/lvgl/src/widgets/lv_table.c ****         lv_coord_t h_row = table->row_h[row];
 1306              		.loc 1 637 13 view .LVU439
 1307 013e 0695     		str	r5, [sp, #24]
 637:lvgl/lvgl/src/widgets/lv_table.c ****         lv_coord_t h_row = table->row_h[row];
 1308              		.loc 1 637 5 view .LVU440
 1309 0140 AEE1     		b	.L36
 1310              	.LVL146:
 1311              	.L77:
 1312              	.LBB142:
 645:lvgl/lvgl/src/widgets/lv_table.c ****         else cell_area.x2 = obj->coords.x1 + bg_left - 1 - scroll_x;
 1313              		.loc 1 645 17 is_stmt 1 discriminator 1 view .LVU441
 645:lvgl/lvgl/src/widgets/lv_table.c ****         else cell_area.x2 = obj->coords.x1 + bg_left - 1 - scroll_x;
 1314              		.loc 1 645 43 is_stmt 0 discriminator 1 view .LVU442
 1315 0142 3B8B     		ldrh	r3, [r7, #24]
 645:lvgl/lvgl/src/widgets/lv_table.c ****         else cell_area.x2 = obj->coords.x1 + bg_left - 1 - scroll_x;
 1316              		.loc 1 645 47 discriminator 1 view .LVU443
 1317 0144 139A     		ldr	r2, [sp, #76]
 1318 0146 9B1A     		subs	r3, r3, r2
 1319 0148 9BB2     		uxth	r3, r3
 645:lvgl/lvgl/src/widgets/lv_table.c ****         else cell_area.x2 = obj->coords.x1 + bg_left - 1 - scroll_x;
 1320              		.loc 1 645 62 discriminator 1 view .LVU444
 1321 014a 109A     		ldr	r2, [sp, #64]
 1322 014c 9B1A     		subs	r3, r3, r2
 1323 014e 013B     		subs	r3, r3, #1
 645:lvgl/lvgl/src/widgets/lv_table.c ****         else cell_area.x2 = obj->coords.x1 + bg_left - 1 - scroll_x;
 1324              		.loc 1 645 30 discriminator 1 view .LVU445
 1325 0150 ADF85431 		strh	r3, [sp, #340]	@ movhi
 1326 0154 CCE1     		b	.L38
 1327              	.LVL147:
 1328              	.L68:
 1329              	.LBB143:
ARM GAS  C:\Users\gx\AppData\Local\Temp\ccSIsGPa.s 			page 54


 649:lvgl/lvgl/src/widgets/lv_table.c ****             if(table->cell_data[cell]) ctrl = table->cell_data[cell][0];
 1330              		.loc 1 649 34 view .LVU446
 1331 0156 0026     		movs	r6, #0
 1332 0158 35E1     		b	.L39
 1333              	.LVL148:
 1334              	.L76:
 653:lvgl/lvgl/src/widgets/lv_table.c ****                 cell_area.x1 = cell_area.x2 - table->col_w[col] + 1;
 1335              		.loc 1 653 17 is_stmt 1 view .LVU447
 653:lvgl/lvgl/src/widgets/lv_table.c ****                 cell_area.x1 = cell_area.x2 - table->col_w[col] + 1;
 1336              		.loc 1 653 41 is_stmt 0 view .LVU448
 1337 015a BDF85421 		ldrh	r2, [sp, #340]
 653:lvgl/lvgl/src/widgets/lv_table.c ****                 cell_area.x1 = cell_area.x2 - table->col_w[col] + 1;
 1338              		.loc 1 653 45 view .LVU449
 1339 015e 013A     		subs	r2, r2, #1
 1340 0160 93B2     		uxth	r3, r2
 653:lvgl/lvgl/src/widgets/lv_table.c ****                 cell_area.x1 = cell_area.x2 - table->col_w[col] + 1;
 1341              		.loc 1 653 30 view .LVU450
 1342 0162 ADF85821 		strh	r2, [sp, #344]	@ movhi
 654:lvgl/lvgl/src/widgets/lv_table.c ****             }
 1343              		.loc 1 654 17 is_stmt 1 view .LVU451
 654:lvgl/lvgl/src/widgets/lv_table.c ****             }
 1344              		.loc 1 654 52 is_stmt 0 view .LVU452
 1345 0166 3A6B     		ldr	r2, [r7, #48]
 654:lvgl/lvgl/src/widgets/lv_table.c ****             }
 1346              		.loc 1 654 59 view .LVU453
 1347 0168 32F81520 		ldrh	r2, [r2, r5, lsl #1]
 654:lvgl/lvgl/src/widgets/lv_table.c ****             }
 1348              		.loc 1 654 45 view .LVU454
 1349 016c 9B1A     		subs	r3, r3, r2
 1350 016e 9BB2     		uxth	r3, r3
 654:lvgl/lvgl/src/widgets/lv_table.c ****             }
 1351              		.loc 1 654 65 view .LVU455
 1352 0170 0133     		adds	r3, r3, #1
 654:lvgl/lvgl/src/widgets/lv_table.c ****             }
 1353              		.loc 1 654 30 view .LVU456
 1354 0172 ADF85431 		strh	r3, [sp, #340]	@ movhi
 1355 0176 38E1     		b	.L41
 1356              	.LVL149:
 1357              	.L43:
 1358              	.LBB144:
 668:lvgl/lvgl/src/widgets/lv_table.c ****                     else {
 1359              		.loc 1 668 30 is_stmt 1 view .LVU457
 668:lvgl/lvgl/src/widgets/lv_table.c ****                     else {
 1360              		.loc 1 668 51 is_stmt 0 view .LVU458
 1361 0178 3A6B     		ldr	r2, [r7, #48]
 1362              	.LVL150:
 668:lvgl/lvgl/src/widgets/lv_table.c ****                     else {
 1363              		.loc 1 668 58 view .LVU459
 1364 017a 0133     		adds	r3, r3, #1
 1365 017c 32F81330 		ldrh	r3, [r2, r3, lsl #1]
 668:lvgl/lvgl/src/widgets/lv_table.c ****                     else {
 1366              		.loc 1 668 43 view .LVU460
 1367 0180 BDF85821 		ldrh	r2, [sp, #344]
 1368 0184 1344     		add	r3, r3, r2
 1369 0186 ADF85831 		strh	r3, [sp, #344]	@ movhi
 1370              	.LVL151:
 1371              	.L44:
ARM GAS  C:\Users\gx\AppData\Local\Temp\ccSIsGPa.s 			page 55


 668:lvgl/lvgl/src/widgets/lv_table.c ****                     else {
 1372              		.loc 1 668 43 view .LVU461
 1373              	.LBE144:
 662:lvgl/lvgl/src/widgets/lv_table.c ****                 if(table->cell_data[cell + col_merge]) {
 1374              		.loc 1 662 70 is_stmt 1 discriminator 2 view .LVU462
 662:lvgl/lvgl/src/widgets/lv_table.c ****                 if(table->cell_data[cell + col_merge]) {
 1375              		.loc 1 662 79 is_stmt 0 discriminator 2 view .LVU463
 1376 018a 0134     		adds	r4, r4, #1
 1377              	.LVL152:
 662:lvgl/lvgl/src/widgets/lv_table.c ****                 if(table->cell_data[cell + col_merge]) {
 1378              		.loc 1 662 79 discriminator 2 view .LVU464
 1379 018c A4B2     		uxth	r4, r4
 1380              	.LVL153:
 1381              	.L45:
 662:lvgl/lvgl/src/widgets/lv_table.c ****                 if(table->cell_data[cell + col_merge]) {
 1382              		.loc 1 662 32 is_stmt 1 discriminator 1 view .LVU465
 662:lvgl/lvgl/src/widgets/lv_table.c ****                 if(table->cell_data[cell + col_merge]) {
 1383              		.loc 1 662 42 is_stmt 0 discriminator 1 view .LVU466
 1384 018e 0595     		str	r5, [sp, #20]
 1385 0190 6319     		adds	r3, r4, r5
 662:lvgl/lvgl/src/widgets/lv_table.c ****                 if(table->cell_data[cell + col_merge]) {
 1386              		.loc 1 662 65 discriminator 1 view .LVU467
 1387 0192 4A1E     		subs	r2, r1, #1
 662:lvgl/lvgl/src/widgets/lv_table.c ****                 if(table->cell_data[cell + col_merge]) {
 1388              		.loc 1 662 13 discriminator 1 view .LVU468
 1389 0194 9342     		cmp	r3, r2
 1390 0196 15DA     		bge	.L42
 663:lvgl/lvgl/src/widgets/lv_table.c ****                     char * next_cell_data = table->cell_data[cell + col_merge];
 1391              		.loc 1 663 17 is_stmt 1 view .LVU469
 663:lvgl/lvgl/src/widgets/lv_table.c ****                     char * next_cell_data = table->cell_data[cell + col_merge];
 1392              		.loc 1 663 42 is_stmt 0 view .LVU470
 1393 0198 0AEB0402 		add	r2, r10, r4
 663:lvgl/lvgl/src/widgets/lv_table.c ****                     char * next_cell_data = table->cell_data[cell + col_merge];
 1394              		.loc 1 663 36 view .LVU471
 1395 019c 50F82220 		ldr	r2, [r0, r2, lsl #2]
 663:lvgl/lvgl/src/widgets/lv_table.c ****                     char * next_cell_data = table->cell_data[cell + col_merge];
 1396              		.loc 1 663 19 view .LVU472
 1397 01a0 82B1     		cbz	r2, .L42
 1398              	.LBB145:
 664:lvgl/lvgl/src/widgets/lv_table.c ****                     if(next_cell_data) ctrl = next_cell_data[0];
 1399              		.loc 1 664 21 is_stmt 1 discriminator 1 view .LVU473
 1400              	.LVL154:
 665:lvgl/lvgl/src/widgets/lv_table.c ****                     if(ctrl & LV_TABLE_CELL_CTRL_MERGE_RIGHT)
 1401              		.loc 1 665 21 discriminator 1 view .LVU474
 665:lvgl/lvgl/src/widgets/lv_table.c ****                     if(ctrl & LV_TABLE_CELL_CTRL_MERGE_RIGHT)
 1402              		.loc 1 665 40 discriminator 1 view .LVU475
 665:lvgl/lvgl/src/widgets/lv_table.c ****                     if(ctrl & LV_TABLE_CELL_CTRL_MERGE_RIGHT)
 1403              		.loc 1 665 45 is_stmt 0 discriminator 1 view .LVU476
 1404 01a2 1678     		ldrb	r6, [r2]	@ zero_extendqisi2
 1405              	.LVL155:
 666:lvgl/lvgl/src/widgets/lv_table.c ****                         if(rtl) cell_area.x1 -= table->col_w[col + col_merge + 1];
 1406              		.loc 1 666 21 is_stmt 1 discriminator 1 view .LVU477
 666:lvgl/lvgl/src/widgets/lv_table.c ****                         if(rtl) cell_area.x1 -= table->col_w[col + col_merge + 1];
 1407              		.loc 1 666 23 is_stmt 0 discriminator 1 view .LVU478
 1408 01a4 16F0010F 		tst	r6, #1
 1409 01a8 0CD0     		beq	.L42
 667:lvgl/lvgl/src/widgets/lv_table.c ****                         else cell_area.x2 += table->col_w[col + col_merge + 1];
ARM GAS  C:\Users\gx\AppData\Local\Temp\ccSIsGPa.s 			page 56


 1410              		.loc 1 667 25 is_stmt 1 view .LVU479
 667:lvgl/lvgl/src/widgets/lv_table.c ****                         else cell_area.x2 += table->col_w[col + col_merge + 1];
 1411              		.loc 1 667 27 is_stmt 0 view .LVU480
 1412 01aa BBF1010F 		cmp	fp, #1
 1413 01ae E3D1     		bne	.L43
 667:lvgl/lvgl/src/widgets/lv_table.c ****                         else cell_area.x2 += table->col_w[col + col_merge + 1];
 1414              		.loc 1 667 33 is_stmt 1 discriminator 1 view .LVU481
 667:lvgl/lvgl/src/widgets/lv_table.c ****                         else cell_area.x2 += table->col_w[col + col_merge + 1];
 1415              		.loc 1 667 54 is_stmt 0 discriminator 1 view .LVU482
 1416 01b0 3A6B     		ldr	r2, [r7, #48]
 1417              	.LVL156:
 667:lvgl/lvgl/src/widgets/lv_table.c ****                         else cell_area.x2 += table->col_w[col + col_merge + 1];
 1418              		.loc 1 667 61 discriminator 1 view .LVU483
 1419 01b2 0133     		adds	r3, r3, #1
 1420 01b4 32F81320 		ldrh	r2, [r2, r3, lsl #1]
 667:lvgl/lvgl/src/widgets/lv_table.c ****                         else cell_area.x2 += table->col_w[col + col_merge + 1];
 1421              		.loc 1 667 46 discriminator 1 view .LVU484
 1422 01b8 BDF85431 		ldrh	r3, [sp, #340]
 1423 01bc 9B1A     		subs	r3, r3, r2
 1424 01be ADF85431 		strh	r3, [sp, #340]	@ movhi
 1425              	.LVL157:
 667:lvgl/lvgl/src/widgets/lv_table.c ****                         else cell_area.x2 += table->col_w[col + col_merge + 1];
 1426              		.loc 1 667 46 discriminator 1 view .LVU485
 1427 01c2 E2E7     		b	.L44
 1428              	.L42:
 667:lvgl/lvgl/src/widgets/lv_table.c ****                         else cell_area.x2 += table->col_w[col + col_merge + 1];
 1429              		.loc 1 667 46 discriminator 1 view .LVU486
 1430              	.LBE145:
 678:lvgl/lvgl/src/widgets/lv_table.c ****                 cell += col_merge + 1;
 1431              		.loc 1 678 13 is_stmt 1 view .LVU487
 678:lvgl/lvgl/src/widgets/lv_table.c ****                 cell += col_merge + 1;
 1432              		.loc 1 678 25 is_stmt 0 view .LVU488
 1433 01c4 BDF95A31 		ldrsh	r3, [sp, #346]
 678:lvgl/lvgl/src/widgets/lv_table.c ****                 cell += col_merge + 1;
 1434              		.loc 1 678 40 view .LVU489
 1435 01c8 BDF96221 		ldrsh	r2, [sp, #354]
 678:lvgl/lvgl/src/widgets/lv_table.c ****                 cell += col_merge + 1;
 1436              		.loc 1 678 15 view .LVU490
 1437 01cc 9342     		cmp	r3, r2
 1438 01ce C0F20E81 		blt	.L72
 685:lvgl/lvgl/src/widgets/lv_table.c ****             lv_area_copy(&cell_area_border, &cell_area);
 1439              		.loc 1 685 13 is_stmt 1 view .LVU491
 686:lvgl/lvgl/src/widgets/lv_table.c ****             if((rect_dsc_def.border_side & LV_BORDER_SIDE_LEFT) && cell_area_border.x1 > obj->coord
 1440              		.loc 1 686 13 view .LVU492
 1441              	.LVL158:
 1442              	.LBB146:
 1443              	.LBI146:
 1444              		.file 4 "d:\\practise\\f407_disc\\lvgl\\lvgl\\src\\misc\\lv_area.h"
   1:d:\practise\f407_disc\lvgl\lvgl\src\misc\lv_area.h **** /**
   2:d:\practise\f407_disc\lvgl\lvgl\src\misc\lv_area.h ****  * @file lv_area.h
   3:d:\practise\f407_disc\lvgl\lvgl\src\misc\lv_area.h ****  *
   4:d:\practise\f407_disc\lvgl\lvgl\src\misc\lv_area.h ****  */
   5:d:\practise\f407_disc\lvgl\lvgl\src\misc\lv_area.h **** 
   6:d:\practise\f407_disc\lvgl\lvgl\src\misc\lv_area.h **** #ifndef LV_AREA_H
   7:d:\practise\f407_disc\lvgl\lvgl\src\misc\lv_area.h **** #define LV_AREA_H
   8:d:\practise\f407_disc\lvgl\lvgl\src\misc\lv_area.h **** 
   9:d:\practise\f407_disc\lvgl\lvgl\src\misc\lv_area.h **** #ifdef __cplusplus
ARM GAS  C:\Users\gx\AppData\Local\Temp\ccSIsGPa.s 			page 57


  10:d:\practise\f407_disc\lvgl\lvgl\src\misc\lv_area.h **** extern "C" {
  11:d:\practise\f407_disc\lvgl\lvgl\src\misc\lv_area.h **** #endif
  12:d:\practise\f407_disc\lvgl\lvgl\src\misc\lv_area.h **** 
  13:d:\practise\f407_disc\lvgl\lvgl\src\misc\lv_area.h **** /*********************
  14:d:\practise\f407_disc\lvgl\lvgl\src\misc\lv_area.h ****  *      INCLUDES
  15:d:\practise\f407_disc\lvgl\lvgl\src\misc\lv_area.h ****  *********************/
  16:d:\practise\f407_disc\lvgl\lvgl\src\misc\lv_area.h **** #include "../lv_conf_internal.h"
  17:d:\practise\f407_disc\lvgl\lvgl\src\misc\lv_area.h **** #include <string.h>
  18:d:\practise\f407_disc\lvgl\lvgl\src\misc\lv_area.h **** #include <stdbool.h>
  19:d:\practise\f407_disc\lvgl\lvgl\src\misc\lv_area.h **** #include <stdint.h>
  20:d:\practise\f407_disc\lvgl\lvgl\src\misc\lv_area.h **** 
  21:d:\practise\f407_disc\lvgl\lvgl\src\misc\lv_area.h **** /*********************
  22:d:\practise\f407_disc\lvgl\lvgl\src\misc\lv_area.h ****  *      DEFINES
  23:d:\practise\f407_disc\lvgl\lvgl\src\misc\lv_area.h ****  *********************/
  24:d:\practise\f407_disc\lvgl\lvgl\src\misc\lv_area.h **** 
  25:d:\practise\f407_disc\lvgl\lvgl\src\misc\lv_area.h **** #define _LV_COORD_MAX_REDUCE    8192
  26:d:\practise\f407_disc\lvgl\lvgl\src\misc\lv_area.h **** 
  27:d:\practise\f407_disc\lvgl\lvgl\src\misc\lv_area.h **** #if LV_USE_LARGE_COORD
  28:d:\practise\f407_disc\lvgl\lvgl\src\misc\lv_area.h **** typedef int32_t lv_coord_t;
  29:d:\practise\f407_disc\lvgl\lvgl\src\misc\lv_area.h **** #else
  30:d:\practise\f407_disc\lvgl\lvgl\src\misc\lv_area.h **** typedef int16_t lv_coord_t;
  31:d:\practise\f407_disc\lvgl\lvgl\src\misc\lv_area.h **** #endif
  32:d:\practise\f407_disc\lvgl\lvgl\src\misc\lv_area.h **** 
  33:d:\practise\f407_disc\lvgl\lvgl\src\misc\lv_area.h **** /*To allow some special values in the end reduce the max value*/
  34:d:\practise\f407_disc\lvgl\lvgl\src\misc\lv_area.h **** #define LV_COORD_MAX ((lv_coord_t)((uint32_t)((uint32_t)1 << (8 * sizeof(lv_coord_t) - 1)) - _LV_CO
  35:d:\practise\f407_disc\lvgl\lvgl\src\misc\lv_area.h **** #define LV_COORD_MIN (-LV_COORD_MAX)
  36:d:\practise\f407_disc\lvgl\lvgl\src\misc\lv_area.h **** 
  37:d:\practise\f407_disc\lvgl\lvgl\src\misc\lv_area.h **** LV_EXPORT_CONST_INT(LV_COORD_MAX);
  38:d:\practise\f407_disc\lvgl\lvgl\src\misc\lv_area.h **** LV_EXPORT_CONST_INT(LV_COORD_MIN);
  39:d:\practise\f407_disc\lvgl\lvgl\src\misc\lv_area.h **** 
  40:d:\practise\f407_disc\lvgl\lvgl\src\misc\lv_area.h **** /**********************
  41:d:\practise\f407_disc\lvgl\lvgl\src\misc\lv_area.h ****  *      TYPEDEFS
  42:d:\practise\f407_disc\lvgl\lvgl\src\misc\lv_area.h ****  **********************/
  43:d:\practise\f407_disc\lvgl\lvgl\src\misc\lv_area.h **** 
  44:d:\practise\f407_disc\lvgl\lvgl\src\misc\lv_area.h **** /**
  45:d:\practise\f407_disc\lvgl\lvgl\src\misc\lv_area.h ****  * Represents a point on the screen.
  46:d:\practise\f407_disc\lvgl\lvgl\src\misc\lv_area.h ****  */
  47:d:\practise\f407_disc\lvgl\lvgl\src\misc\lv_area.h **** typedef struct {
  48:d:\practise\f407_disc\lvgl\lvgl\src\misc\lv_area.h ****     lv_coord_t x;
  49:d:\practise\f407_disc\lvgl\lvgl\src\misc\lv_area.h ****     lv_coord_t y;
  50:d:\practise\f407_disc\lvgl\lvgl\src\misc\lv_area.h **** } lv_point_t;
  51:d:\practise\f407_disc\lvgl\lvgl\src\misc\lv_area.h **** 
  52:d:\practise\f407_disc\lvgl\lvgl\src\misc\lv_area.h **** /** Represents an area of the screen.*/
  53:d:\practise\f407_disc\lvgl\lvgl\src\misc\lv_area.h **** typedef struct {
  54:d:\practise\f407_disc\lvgl\lvgl\src\misc\lv_area.h ****     lv_coord_t x1;
  55:d:\practise\f407_disc\lvgl\lvgl\src\misc\lv_area.h ****     lv_coord_t y1;
  56:d:\practise\f407_disc\lvgl\lvgl\src\misc\lv_area.h ****     lv_coord_t x2;
  57:d:\practise\f407_disc\lvgl\lvgl\src\misc\lv_area.h ****     lv_coord_t y2;
  58:d:\practise\f407_disc\lvgl\lvgl\src\misc\lv_area.h **** } lv_area_t;
  59:d:\practise\f407_disc\lvgl\lvgl\src\misc\lv_area.h **** 
  60:d:\practise\f407_disc\lvgl\lvgl\src\misc\lv_area.h **** /** Alignments*/
  61:d:\practise\f407_disc\lvgl\lvgl\src\misc\lv_area.h **** enum {
  62:d:\practise\f407_disc\lvgl\lvgl\src\misc\lv_area.h ****     LV_ALIGN_DEFAULT = 0,
  63:d:\practise\f407_disc\lvgl\lvgl\src\misc\lv_area.h ****     LV_ALIGN_TOP_LEFT,
  64:d:\practise\f407_disc\lvgl\lvgl\src\misc\lv_area.h ****     LV_ALIGN_TOP_MID,
  65:d:\practise\f407_disc\lvgl\lvgl\src\misc\lv_area.h ****     LV_ALIGN_TOP_RIGHT,
  66:d:\practise\f407_disc\lvgl\lvgl\src\misc\lv_area.h ****     LV_ALIGN_BOTTOM_LEFT,
ARM GAS  C:\Users\gx\AppData\Local\Temp\ccSIsGPa.s 			page 58


  67:d:\practise\f407_disc\lvgl\lvgl\src\misc\lv_area.h ****     LV_ALIGN_BOTTOM_MID,
  68:d:\practise\f407_disc\lvgl\lvgl\src\misc\lv_area.h ****     LV_ALIGN_BOTTOM_RIGHT,
  69:d:\practise\f407_disc\lvgl\lvgl\src\misc\lv_area.h ****     LV_ALIGN_LEFT_MID,
  70:d:\practise\f407_disc\lvgl\lvgl\src\misc\lv_area.h ****     LV_ALIGN_RIGHT_MID,
  71:d:\practise\f407_disc\lvgl\lvgl\src\misc\lv_area.h ****     LV_ALIGN_CENTER,
  72:d:\practise\f407_disc\lvgl\lvgl\src\misc\lv_area.h **** 
  73:d:\practise\f407_disc\lvgl\lvgl\src\misc\lv_area.h ****     LV_ALIGN_OUT_TOP_LEFT,
  74:d:\practise\f407_disc\lvgl\lvgl\src\misc\lv_area.h ****     LV_ALIGN_OUT_TOP_MID,
  75:d:\practise\f407_disc\lvgl\lvgl\src\misc\lv_area.h ****     LV_ALIGN_OUT_TOP_RIGHT,
  76:d:\practise\f407_disc\lvgl\lvgl\src\misc\lv_area.h ****     LV_ALIGN_OUT_BOTTOM_LEFT,
  77:d:\practise\f407_disc\lvgl\lvgl\src\misc\lv_area.h ****     LV_ALIGN_OUT_BOTTOM_MID,
  78:d:\practise\f407_disc\lvgl\lvgl\src\misc\lv_area.h ****     LV_ALIGN_OUT_BOTTOM_RIGHT,
  79:d:\practise\f407_disc\lvgl\lvgl\src\misc\lv_area.h ****     LV_ALIGN_OUT_LEFT_TOP,
  80:d:\practise\f407_disc\lvgl\lvgl\src\misc\lv_area.h ****     LV_ALIGN_OUT_LEFT_MID,
  81:d:\practise\f407_disc\lvgl\lvgl\src\misc\lv_area.h ****     LV_ALIGN_OUT_LEFT_BOTTOM,
  82:d:\practise\f407_disc\lvgl\lvgl\src\misc\lv_area.h ****     LV_ALIGN_OUT_RIGHT_TOP,
  83:d:\practise\f407_disc\lvgl\lvgl\src\misc\lv_area.h ****     LV_ALIGN_OUT_RIGHT_MID,
  84:d:\practise\f407_disc\lvgl\lvgl\src\misc\lv_area.h ****     LV_ALIGN_OUT_RIGHT_BOTTOM,
  85:d:\practise\f407_disc\lvgl\lvgl\src\misc\lv_area.h **** };
  86:d:\practise\f407_disc\lvgl\lvgl\src\misc\lv_area.h **** typedef uint8_t lv_align_t;
  87:d:\practise\f407_disc\lvgl\lvgl\src\misc\lv_area.h **** 
  88:d:\practise\f407_disc\lvgl\lvgl\src\misc\lv_area.h **** enum {
  89:d:\practise\f407_disc\lvgl\lvgl\src\misc\lv_area.h ****     LV_DIR_NONE     = 0x00,
  90:d:\practise\f407_disc\lvgl\lvgl\src\misc\lv_area.h ****     LV_DIR_LEFT     = (1 << 0),
  91:d:\practise\f407_disc\lvgl\lvgl\src\misc\lv_area.h ****     LV_DIR_RIGHT    = (1 << 1),
  92:d:\practise\f407_disc\lvgl\lvgl\src\misc\lv_area.h ****     LV_DIR_TOP      = (1 << 2),
  93:d:\practise\f407_disc\lvgl\lvgl\src\misc\lv_area.h ****     LV_DIR_BOTTOM   = (1 << 3),
  94:d:\practise\f407_disc\lvgl\lvgl\src\misc\lv_area.h ****     LV_DIR_HOR      = LV_DIR_LEFT | LV_DIR_RIGHT,
  95:d:\practise\f407_disc\lvgl\lvgl\src\misc\lv_area.h ****     LV_DIR_VER      = LV_DIR_TOP | LV_DIR_BOTTOM,
  96:d:\practise\f407_disc\lvgl\lvgl\src\misc\lv_area.h ****     LV_DIR_ALL      = LV_DIR_HOR | LV_DIR_VER,
  97:d:\practise\f407_disc\lvgl\lvgl\src\misc\lv_area.h **** };
  98:d:\practise\f407_disc\lvgl\lvgl\src\misc\lv_area.h **** 
  99:d:\practise\f407_disc\lvgl\lvgl\src\misc\lv_area.h **** typedef uint8_t lv_dir_t;
 100:d:\practise\f407_disc\lvgl\lvgl\src\misc\lv_area.h **** 
 101:d:\practise\f407_disc\lvgl\lvgl\src\misc\lv_area.h **** /**********************
 102:d:\practise\f407_disc\lvgl\lvgl\src\misc\lv_area.h ****  * GLOBAL PROTOTYPES
 103:d:\practise\f407_disc\lvgl\lvgl\src\misc\lv_area.h ****  **********************/
 104:d:\practise\f407_disc\lvgl\lvgl\src\misc\lv_area.h **** 
 105:d:\practise\f407_disc\lvgl\lvgl\src\misc\lv_area.h **** /**
 106:d:\practise\f407_disc\lvgl\lvgl\src\misc\lv_area.h ****  * Initialize an area
 107:d:\practise\f407_disc\lvgl\lvgl\src\misc\lv_area.h ****  * @param area_p pointer to an area
 108:d:\practise\f407_disc\lvgl\lvgl\src\misc\lv_area.h ****  * @param x1 left coordinate of the area
 109:d:\practise\f407_disc\lvgl\lvgl\src\misc\lv_area.h ****  * @param y1 top coordinate of the area
 110:d:\practise\f407_disc\lvgl\lvgl\src\misc\lv_area.h ****  * @param x2 right coordinate of the area
 111:d:\practise\f407_disc\lvgl\lvgl\src\misc\lv_area.h ****  * @param y2 bottom coordinate of the area
 112:d:\practise\f407_disc\lvgl\lvgl\src\misc\lv_area.h ****  */
 113:d:\practise\f407_disc\lvgl\lvgl\src\misc\lv_area.h **** void lv_area_set(lv_area_t * area_p, lv_coord_t x1, lv_coord_t y1, lv_coord_t x2, lv_coord_t y2);
 114:d:\practise\f407_disc\lvgl\lvgl\src\misc\lv_area.h **** 
 115:d:\practise\f407_disc\lvgl\lvgl\src\misc\lv_area.h **** /**
 116:d:\practise\f407_disc\lvgl\lvgl\src\misc\lv_area.h ****  * Copy an area
 117:d:\practise\f407_disc\lvgl\lvgl\src\misc\lv_area.h ****  * @param dest pointer to the destination area
 118:d:\practise\f407_disc\lvgl\lvgl\src\misc\lv_area.h ****  * @param src pointer to the source area
 119:d:\practise\f407_disc\lvgl\lvgl\src\misc\lv_area.h ****  */
 120:d:\practise\f407_disc\lvgl\lvgl\src\misc\lv_area.h **** inline static void lv_area_copy(lv_area_t * dest, const lv_area_t * src)
 1445              		.loc 4 120 20 view .LVU493
 1446              	.LBB147:
 121:d:\practise\f407_disc\lvgl\lvgl\src\misc\lv_area.h **** {
ARM GAS  C:\Users\gx\AppData\Local\Temp\ccSIsGPa.s 			page 59


 122:d:\practise\f407_disc\lvgl\lvgl\src\misc\lv_area.h ****     dest->x1 = src->x1;
 1447              		.loc 4 122 5 view .LVU494
 1448              		.loc 4 122 19 is_stmt 0 view .LVU495
 1449 01d2 BDF95401 		ldrsh	r0, [sp, #340]
 1450              		.loc 4 122 14 view .LVU496
 1451 01d6 ADF85000 		strh	r0, [sp, #80]	@ movhi
 123:d:\practise\f407_disc\lvgl\lvgl\src\misc\lv_area.h ****     dest->y1 = src->y1;
 1452              		.loc 4 123 5 is_stmt 1 view .LVU497
 1453              		.loc 4 123 19 is_stmt 0 view .LVU498
 1454 01da BDF95691 		ldrsh	r9, [sp, #342]
 1455              		.loc 4 123 14 view .LVU499
 1456 01de ADF85290 		strh	r9, [sp, #82]	@ movhi
 124:d:\practise\f407_disc\lvgl\lvgl\src\misc\lv_area.h ****     dest->x2 = src->x2;
 1457              		.loc 4 124 5 is_stmt 1 view .LVU500
 1458              		.loc 4 124 19 is_stmt 0 view .LVU501
 1459 01e2 BDF958C1 		ldrsh	ip, [sp, #344]
 1460              		.loc 4 124 14 view .LVU502
 1461 01e6 ADF854C0 		strh	ip, [sp, #84]	@ movhi
 125:d:\practise\f407_disc\lvgl\lvgl\src\misc\lv_area.h ****     dest->y2 = src->y2;
 1462              		.loc 4 125 5 is_stmt 1 view .LVU503
 1463              		.loc 4 125 14 is_stmt 0 view .LVU504
 1464 01ea ADF85630 		strh	r3, [sp, #86]	@ movhi
 1465              	.LVL159:
 1466              		.loc 4 125 14 view .LVU505
 1467              	.LBE147:
 1468              	.LBE146:
 687:lvgl/lvgl/src/widgets/lv_table.c ****                 cell_area_border.x1 -= rect_dsc_def.border_width / 2;
 1469              		.loc 1 687 13 is_stmt 1 view .LVU506
 687:lvgl/lvgl/src/widgets/lv_table.c ****                 cell_area_border.x1 -= rect_dsc_def.border_width / 2;
 1470              		.loc 1 687 29 is_stmt 0 view .LVU507
 1471 01ee 9DF837E1 		ldrb	lr, [sp, #311]	@ zero_extendqisi2
 1472 01f2 CEF34402 		ubfx	r2, lr, #1, #5
 687:lvgl/lvgl/src/widgets/lv_table.c ****                 cell_area_border.x1 -= rect_dsc_def.border_width / 2;
 1473              		.loc 1 687 15 view .LVU508
 1474 01f6 1EF0080F 		tst	lr, #8
 1475 01fa 0DD0     		beq	.L49
 687:lvgl/lvgl/src/widgets/lv_table.c ****                 cell_area_border.x1 -= rect_dsc_def.border_width / 2;
 1476              		.loc 1 687 101 discriminator 1 view .LVU509
 1477 01fc B7F914E0 		ldrsh	lr, [r7, #20]
 687:lvgl/lvgl/src/widgets/lv_table.c ****                 cell_area_border.x1 -= rect_dsc_def.border_width / 2;
 1478              		.loc 1 687 105 discriminator 1 view .LVU510
 1479 0200 0D99     		ldr	r1, [sp, #52]
 1480 0202 8E44     		add	lr, lr, r1
 687:lvgl/lvgl/src/widgets/lv_table.c ****                 cell_area_border.x1 -= rect_dsc_def.border_width / 2;
 1481              		.loc 1 687 65 discriminator 1 view .LVU511
 1482 0204 7045     		cmp	r0, lr
 1483 0206 07DD     		ble	.L49
 688:lvgl/lvgl/src/widgets/lv_table.c ****             }
 1484              		.loc 1 688 17 is_stmt 1 view .LVU512
 688:lvgl/lvgl/src/widgets/lv_table.c ****             }
 1485              		.loc 1 688 52 is_stmt 0 view .LVU513
 1486 0208 BDF934E1 		ldrsh	lr, [sp, #308]
 688:lvgl/lvgl/src/widgets/lv_table.c ****             }
 1487              		.loc 1 688 37 view .LVU514
 1488 020c 0EEBDE7E 		add	lr, lr, lr, lsr #31
 1489 0210 A0EB6E00 		sub	r0, r0, lr, asr #1
 1490 0214 ADF85000 		strh	r0, [sp, #80]	@ movhi
ARM GAS  C:\Users\gx\AppData\Local\Temp\ccSIsGPa.s 			page 60


 1491              	.L49:
 690:lvgl/lvgl/src/widgets/lv_table.c ****                 cell_area_border.y1 -= rect_dsc_def.border_width / 2;
 1492              		.loc 1 690 13 is_stmt 1 view .LVU515
 690:lvgl/lvgl/src/widgets/lv_table.c ****                 cell_area_border.y1 -= rect_dsc_def.border_width / 2;
 1493              		.loc 1 690 15 is_stmt 0 view .LVU516
 1494 0218 12F0020F 		tst	r2, #2
 1495 021c 0DD0     		beq	.L50
 690:lvgl/lvgl/src/widgets/lv_table.c ****                 cell_area_border.y1 -= rect_dsc_def.border_width / 2;
 1496              		.loc 1 690 100 discriminator 1 view .LVU517
 1497 021e B7F91600 		ldrsh	r0, [r7, #22]
 690:lvgl/lvgl/src/widgets/lv_table.c ****                 cell_area_border.y1 -= rect_dsc_def.border_width / 2;
 1498              		.loc 1 690 104 discriminator 1 view .LVU518
 1499 0222 0F99     		ldr	r1, [sp, #60]
 1500 0224 0844     		add	r0, r0, r1
 690:lvgl/lvgl/src/widgets/lv_table.c ****                 cell_area_border.y1 -= rect_dsc_def.border_width / 2;
 1501              		.loc 1 690 64 discriminator 1 view .LVU519
 1502 0226 8145     		cmp	r9, r0
 1503 0228 07DD     		ble	.L50
 691:lvgl/lvgl/src/widgets/lv_table.c ****             }
 1504              		.loc 1 691 17 is_stmt 1 view .LVU520
 691:lvgl/lvgl/src/widgets/lv_table.c ****             }
 1505              		.loc 1 691 52 is_stmt 0 view .LVU521
 1506 022a BDF93401 		ldrsh	r0, [sp, #308]
 691:lvgl/lvgl/src/widgets/lv_table.c ****             }
 1507              		.loc 1 691 37 view .LVU522
 1508 022e 00EBD070 		add	r0, r0, r0, lsr #31
 1509 0232 A9EB6001 		sub	r1, r9, r0, asr #1
 1510 0236 ADF85210 		strh	r1, [sp, #82]	@ movhi
 1511              	.L50:
 693:lvgl/lvgl/src/widgets/lv_table.c ****                 cell_area_border.x2 += rect_dsc_def.border_width / 2 + (rect_dsc_def.border_width &
 1512              		.loc 1 693 13 is_stmt 1 view .LVU523
 693:lvgl/lvgl/src/widgets/lv_table.c ****                 cell_area_border.x2 += rect_dsc_def.border_width / 2 + (rect_dsc_def.border_width &
 1513              		.loc 1 693 15 is_stmt 0 view .LVU524
 1514 023a 12F0080F 		tst	r2, #8
 1515 023e 12D0     		beq	.L51
 693:lvgl/lvgl/src/widgets/lv_table.c ****                 cell_area_border.x2 += rect_dsc_def.border_width / 2 + (rect_dsc_def.border_width &
 1516              		.loc 1 693 102 discriminator 1 view .LVU525
 1517 0240 B7F91810 		ldrsh	r1, [r7, #24]
 693:lvgl/lvgl/src/widgets/lv_table.c ****                 cell_area_border.x2 += rect_dsc_def.border_width / 2 + (rect_dsc_def.border_width &
 1518              		.loc 1 693 106 discriminator 1 view .LVU526
 1519 0244 0C98     		ldr	r0, [sp, #48]
 1520 0246 091A     		subs	r1, r1, r0
 693:lvgl/lvgl/src/widgets/lv_table.c ****                 cell_area_border.x2 += rect_dsc_def.border_width / 2 + (rect_dsc_def.border_width &
 1521              		.loc 1 693 117 discriminator 1 view .LVU527
 1522 0248 0139     		subs	r1, r1, #1
 693:lvgl/lvgl/src/widgets/lv_table.c ****                 cell_area_border.x2 += rect_dsc_def.border_width / 2 + (rect_dsc_def.border_width &
 1523              		.loc 1 693 66 discriminator 1 view .LVU528
 1524 024a 8C45     		cmp	ip, r1
 1525 024c 0BDA     		bge	.L51
 694:lvgl/lvgl/src/widgets/lv_table.c ****             }
 1526              		.loc 1 694 17 is_stmt 1 view .LVU529
 694:lvgl/lvgl/src/widgets/lv_table.c ****             }
 1527              		.loc 1 694 52 is_stmt 0 view .LVU530
 1528 024e BDF93401 		ldrsh	r0, [sp, #308]
 694:lvgl/lvgl/src/widgets/lv_table.c ****             }
 1529              		.loc 1 694 99 view .LVU531
 1530 0252 00F00101 		and	r1, r0, #1
ARM GAS  C:\Users\gx\AppData\Local\Temp\ccSIsGPa.s 			page 61


 694:lvgl/lvgl/src/widgets/lv_table.c ****             }
 1531              		.loc 1 694 70 view .LVU532
 1532 0256 00EBD070 		add	r0, r0, r0, lsr #31
 1533 025a 01EB6001 		add	r1, r1, r0, asr #1
 694:lvgl/lvgl/src/widgets/lv_table.c ****             }
 1534              		.loc 1 694 37 view .LVU533
 1535 025e 1CFA81FC 		uxtah	ip, ip, r1
 1536 0262 ADF854C0 		strh	ip, [sp, #84]	@ movhi
 1537              	.L51:
 696:lvgl/lvgl/src/widgets/lv_table.c ****                     cell_area_border.y2 < obj->coords.y2 - bg_bottom - 1) {
 1538              		.loc 1 696 13 is_stmt 1 view .LVU534
 696:lvgl/lvgl/src/widgets/lv_table.c ****                     cell_area_border.y2 < obj->coords.y2 - bg_bottom - 1) {
 1539              		.loc 1 696 15 is_stmt 0 view .LVU535
 1540 0266 12F0010F 		tst	r2, #1
 1541 026a 12D0     		beq	.L52
 697:lvgl/lvgl/src/widgets/lv_table.c ****                 cell_area_border.y2 += rect_dsc_def.border_width / 2 + (rect_dsc_def.border_width &
 1542              		.loc 1 697 54 discriminator 1 view .LVU536
 1543 026c B7F91A20 		ldrsh	r2, [r7, #26]
 697:lvgl/lvgl/src/widgets/lv_table.c ****                 cell_area_border.y2 += rect_dsc_def.border_width / 2 + (rect_dsc_def.border_width &
 1544              		.loc 1 697 58 discriminator 1 view .LVU537
 1545 0270 0E99     		ldr	r1, [sp, #56]
 1546 0272 521A     		subs	r2, r2, r1
 697:lvgl/lvgl/src/widgets/lv_table.c ****                 cell_area_border.y2 += rect_dsc_def.border_width / 2 + (rect_dsc_def.border_width &
 1547              		.loc 1 697 70 discriminator 1 view .LVU538
 1548 0274 013A     		subs	r2, r2, #1
 696:lvgl/lvgl/src/widgets/lv_table.c ****                     cell_area_border.y2 < obj->coords.y2 - bg_bottom - 1) {
 1549              		.loc 1 696 67 discriminator 1 view .LVU539
 1550 0276 9342     		cmp	r3, r2
 1551 0278 0BDA     		bge	.L52
 698:lvgl/lvgl/src/widgets/lv_table.c ****             }
 1552              		.loc 1 698 17 is_stmt 1 view .LVU540
 698:lvgl/lvgl/src/widgets/lv_table.c ****             }
 1553              		.loc 1 698 52 is_stmt 0 view .LVU541
 1554 027a BDF93411 		ldrsh	r1, [sp, #308]
 698:lvgl/lvgl/src/widgets/lv_table.c ****             }
 1555              		.loc 1 698 99 view .LVU542
 1556 027e 01F00102 		and	r2, r1, #1
 698:lvgl/lvgl/src/widgets/lv_table.c ****             }
 1557              		.loc 1 698 70 view .LVU543
 1558 0282 01EBD171 		add	r1, r1, r1, lsr #31
 1559 0286 02EB6102 		add	r2, r2, r1, asr #1
 698:lvgl/lvgl/src/widgets/lv_table.c ****             }
 1560              		.loc 1 698 37 view .LVU544
 1561 028a 13FA82F3 		uxtah	r3, r3, r2
 1562 028e ADF85630 		strh	r3, [sp, #86]	@ movhi
 1563              	.L52:
 701:lvgl/lvgl/src/widgets/lv_table.c ****             if(row == table->row_act && col == table->col_act) {
 1564              		.loc 1 701 13 is_stmt 1 view .LVU545
 1565              	.LVL160:
 702:lvgl/lvgl/src/widgets/lv_table.c ****                 if(!(obj->state & LV_STATE_SCROLLED) && (obj->state & LV_STATE_PRESSED)) cell_state
 1566              		.loc 1 702 13 view .LVU546
 702:lvgl/lvgl/src/widgets/lv_table.c ****                 if(!(obj->state & LV_STATE_SCROLLED) && (obj->state & LV_STATE_PRESSED)) cell_state
 1567              		.loc 1 702 28 is_stmt 0 view .LVU547
 1568 0292 FB8E     		ldrh	r3, [r7, #54]
 702:lvgl/lvgl/src/widgets/lv_table.c ****                 if(!(obj->state & LV_STATE_SCROLLED) && (obj->state & LV_STATE_PRESSED)) cell_state
 1569              		.loc 1 702 15 view .LVU548
 1570 0294 069A     		ldr	r2, [sp, #24]
ARM GAS  C:\Users\gx\AppData\Local\Temp\ccSIsGPa.s 			page 62


 1571 0296 9342     		cmp	r3, r2
 1572 0298 03D1     		bne	.L53
 702:lvgl/lvgl/src/widgets/lv_table.c ****                 if(!(obj->state & LV_STATE_SCROLLED) && (obj->state & LV_STATE_PRESSED)) cell_state
 1573              		.loc 1 702 53 discriminator 1 view .LVU549
 1574 029a BB8E     		ldrh	r3, [r7, #52]
 702:lvgl/lvgl/src/widgets/lv_table.c ****                 if(!(obj->state & LV_STATE_SCROLLED) && (obj->state & LV_STATE_PRESSED)) cell_state
 1575              		.loc 1 702 38 discriminator 1 view .LVU550
 1576 029c AB42     		cmp	r3, r5
 1577 029e 00F0B380 		beq	.L73
 1578              	.LVL161:
 1579              	.L53:
 711:lvgl/lvgl/src/widgets/lv_table.c ****                 lv_memcpy(&label_dsc_act, &label_dsc_def, sizeof(lv_draw_label_dsc_t));
 1580              		.loc 1 711 17 is_stmt 1 view .LVU551
 1581 02a2 3422     		movs	r2, #52
 1582 02a4 46A9     		add	r1, sp, #280
 1583 02a6 39A8     		add	r0, sp, #228
 1584 02a8 FFF7FEFF 		bl	lv_memcpy
 1585              	.LVL162:
 712:lvgl/lvgl/src/widgets/lv_table.c ****             }
 1586              		.loc 1 712 17 view .LVU552
 1587 02ac 2022     		movs	r2, #32
 1588 02ae 31A9     		add	r1, sp, #196
 1589 02b0 29A8     		add	r0, sp, #164
 1590 02b2 FFF7FEFF 		bl	lv_memcpy
 1591              	.LVL163:
 1592              	.L59:
 726:lvgl/lvgl/src/widgets/lv_table.c ****             part_draw_dsc.id = row * table->col_cnt + col;
 1593              		.loc 1 726 13 view .LVU553
 726:lvgl/lvgl/src/widgets/lv_table.c ****             part_draw_dsc.id = row * table->col_cnt + col;
 1594              		.loc 1 726 37 is_stmt 0 view .LVU554
 1595 02b6 0DF15009 		add	r9, sp, #80
 1596 02ba CDF86C90 		str	r9, [sp, #108]
 727:lvgl/lvgl/src/widgets/lv_table.c ****             lv_event_send(obj, LV_EVENT_DRAW_PART_BEGIN, &part_draw_dsc);
 1597              		.loc 1 727 13 is_stmt 1 view .LVU555
 727:lvgl/lvgl/src/widgets/lv_table.c ****             lv_event_send(obj, LV_EVENT_DRAW_PART_BEGIN, &part_draw_dsc);
 1598              		.loc 1 727 43 is_stmt 0 view .LVU556
 1599 02be BB8C     		ldrh	r3, [r7, #36]
 727:lvgl/lvgl/src/widgets/lv_table.c ****             lv_event_send(obj, LV_EVENT_DRAW_PART_BEGIN, &part_draw_dsc);
 1600              		.loc 1 727 53 view .LVU557
 1601 02c0 069A     		ldr	r2, [sp, #24]
 1602 02c2 0599     		ldr	r1, [sp, #20]
 1603 02c4 03FB0213 		mla	r3, r3, r2, r1
 727:lvgl/lvgl/src/widgets/lv_table.c ****             lv_event_send(obj, LV_EVENT_DRAW_PART_BEGIN, &part_draw_dsc);
 1604              		.loc 1 727 30 view .LVU558
 1605 02c8 2593     		str	r3, [sp, #148]
 728:lvgl/lvgl/src/widgets/lv_table.c **** 
 1606              		.loc 1 728 13 is_stmt 1 view .LVU559
 1607 02ca 18AA     		add	r2, sp, #96
 1608 02cc 1A21     		movs	r1, #26
 1609 02ce 3846     		mov	r0, r7
 1610 02d0 FFF7FEFF 		bl	lv_event_send
 1611              	.LVL164:
 730:lvgl/lvgl/src/widgets/lv_table.c **** 
 1612              		.loc 1 730 13 view .LVU560
 1613 02d4 39AA     		add	r2, sp, #228
 1614 02d6 58A9     		add	r1, sp, #352
 1615 02d8 4846     		mov	r0, r9
ARM GAS  C:\Users\gx\AppData\Local\Temp\ccSIsGPa.s 			page 63


 1616 02da FFF7FEFF 		bl	lv_draw_rect
 1617              	.LVL165:
 732:lvgl/lvgl/src/widgets/lv_table.c ****                 txt_area.x1 = cell_area.x1 + cell_left;
 1618              		.loc 1 732 13 view .LVU561
 732:lvgl/lvgl/src/widgets/lv_table.c ****                 txt_area.x1 = cell_area.x1 + cell_left;
 1619              		.loc 1 732 21 is_stmt 0 view .LVU562
 1620 02de B96A     		ldr	r1, [r7, #40]
 732:lvgl/lvgl/src/widgets/lv_table.c ****                 txt_area.x1 = cell_area.x1 + cell_left;
 1621              		.loc 1 732 32 view .LVU563
 1622 02e0 51F80830 		ldr	r3, [r1, r8]
 732:lvgl/lvgl/src/widgets/lv_table.c ****                 txt_area.x1 = cell_area.x1 + cell_left;
 1623              		.loc 1 732 15 view .LVU564
 1624 02e4 002B     		cmp	r3, #0
 1625 02e6 52D0     		beq	.L60
 1626              	.LBB148:
 733:lvgl/lvgl/src/widgets/lv_table.c ****                 txt_area.x2 = cell_area.x2 - cell_right;
 1627              		.loc 1 733 17 is_stmt 1 view .LVU565
 733:lvgl/lvgl/src/widgets/lv_table.c ****                 txt_area.x2 = cell_area.x2 - cell_right;
 1628              		.loc 1 733 40 is_stmt 0 view .LVU566
 1629 02e8 BDF85431 		ldrh	r3, [sp, #340]
 733:lvgl/lvgl/src/widgets/lv_table.c ****                 txt_area.x2 = cell_area.x2 - cell_right;
 1630              		.loc 1 733 44 view .LVU567
 1631 02ec 0A9A     		ldr	r2, [sp, #40]
 1632 02ee 1344     		add	r3, r3, r2
 1633 02f0 98B2     		uxth	r0, r3
 733:lvgl/lvgl/src/widgets/lv_table.c ****                 txt_area.x2 = cell_area.x2 - cell_right;
 1634              		.loc 1 733 29 view .LVU568
 1635 02f2 ADF84C31 		strh	r3, [sp, #332]	@ movhi
 734:lvgl/lvgl/src/widgets/lv_table.c ****                 txt_area.y1 = cell_area.y1 + cell_top;
 1636              		.loc 1 734 17 is_stmt 1 view .LVU569
 734:lvgl/lvgl/src/widgets/lv_table.c ****                 txt_area.y1 = cell_area.y1 + cell_top;
 1637              		.loc 1 734 40 is_stmt 0 view .LVU570
 1638 02f6 BDF85821 		ldrh	r2, [sp, #344]
 734:lvgl/lvgl/src/widgets/lv_table.c ****                 txt_area.y1 = cell_area.y1 + cell_top;
 1639              		.loc 1 734 44 view .LVU571
 1640 02fa 099B     		ldr	r3, [sp, #36]
 1641 02fc D21A     		subs	r2, r2, r3
 1642 02fe 1FFA82FC 		uxth	ip, r2
 734:lvgl/lvgl/src/widgets/lv_table.c ****                 txt_area.y1 = cell_area.y1 + cell_top;
 1643              		.loc 1 734 29 view .LVU572
 1644 0302 ADF85021 		strh	r2, [sp, #336]	@ movhi
 735:lvgl/lvgl/src/widgets/lv_table.c ****                 txt_area.y2 = cell_area.y2 - cell_bottom;
 1645              		.loc 1 735 17 is_stmt 1 view .LVU573
 735:lvgl/lvgl/src/widgets/lv_table.c ****                 txt_area.y2 = cell_area.y2 - cell_bottom;
 1646              		.loc 1 735 40 is_stmt 0 view .LVU574
 1647 0306 BDF85621 		ldrh	r2, [sp, #342]
 735:lvgl/lvgl/src/widgets/lv_table.c ****                 txt_area.y2 = cell_area.y2 - cell_bottom;
 1648              		.loc 1 735 44 view .LVU575
 1649 030a 089B     		ldr	r3, [sp, #32]
 1650 030c 1A44     		add	r2, r2, r3
 735:lvgl/lvgl/src/widgets/lv_table.c ****                 txt_area.y2 = cell_area.y2 - cell_bottom;
 1651              		.loc 1 735 29 view .LVU576
 1652 030e ADF84E21 		strh	r2, [sp, #334]	@ movhi
 736:lvgl/lvgl/src/widgets/lv_table.c **** 
 1653              		.loc 1 736 17 is_stmt 1 view .LVU577
 736:lvgl/lvgl/src/widgets/lv_table.c **** 
 1654              		.loc 1 736 40 is_stmt 0 view .LVU578
ARM GAS  C:\Users\gx\AppData\Local\Temp\ccSIsGPa.s 			page 64


 1655 0312 BDF85A21 		ldrh	r2, [sp, #346]
 736:lvgl/lvgl/src/widgets/lv_table.c **** 
 1656              		.loc 1 736 44 view .LVU579
 1657 0316 079B     		ldr	r3, [sp, #28]
 1658 0318 D21A     		subs	r2, r2, r3
 736:lvgl/lvgl/src/widgets/lv_table.c **** 
 1659              		.loc 1 736 29 view .LVU580
 1660 031a ADF85221 		strh	r2, [sp, #338]	@ movhi
 739:lvgl/lvgl/src/widgets/lv_table.c ****                 if(crop) txt_flags = LV_TEXT_FLAG_EXPAND;
 1661              		.loc 1 739 17 is_stmt 1 view .LVU581
 739:lvgl/lvgl/src/widgets/lv_table.c ****                 if(crop) txt_flags = LV_TEXT_FLAG_EXPAND;
 1662              		.loc 1 739 72 is_stmt 0 view .LVU582
 1663 031e C6F34009 		ubfx	r9, r6, #1, #1
 1664              	.LVL166:
 740:lvgl/lvgl/src/widgets/lv_table.c ****                 else txt_flags = LV_TEXT_FLAG_NONE;
 1665              		.loc 1 740 17 is_stmt 1 view .LVU583
 740:lvgl/lvgl/src/widgets/lv_table.c ****                 else txt_flags = LV_TEXT_FLAG_NONE;
 1666              		.loc 1 740 19 is_stmt 0 view .LVU584
 1667 0322 16F0020F 		tst	r6, #2
 1668 0326 00F0A980 		beq	.L69
 740:lvgl/lvgl/src/widgets/lv_table.c ****                 else txt_flags = LV_TEXT_FLAG_NONE;
 1669              		.loc 1 740 36 view .LVU585
 1670 032a 0222     		movs	r2, #2
 1671              	.L61:
 1672              	.LVL167:
 743:lvgl/lvgl/src/widgets/lv_table.c ****                         label_dsc_act.letter_space, label_dsc_act.line_space,
 1673              		.loc 1 743 17 is_stmt 1 view .LVU586
 743:lvgl/lvgl/src/widgets/lv_table.c ****                         label_dsc_act.letter_space, label_dsc_act.line_space,
 1674              		.loc 1 743 60 is_stmt 0 view .LVU587
 1675 032c 51F80810 		ldr	r1, [r1, r8]
 1676              	.LVL168:
 1677              	.LBB149:
 1678              	.LBI149:
 126:d:\practise\f407_disc\lvgl\lvgl\src\misc\lv_area.h **** }
 127:d:\practise\f407_disc\lvgl\lvgl\src\misc\lv_area.h **** 
 128:d:\practise\f407_disc\lvgl\lvgl\src\misc\lv_area.h **** /**
 129:d:\practise\f407_disc\lvgl\lvgl\src\misc\lv_area.h ****  * Get the width of an area
 130:d:\practise\f407_disc\lvgl\lvgl\src\misc\lv_area.h ****  * @param area_p pointer to an area
 131:d:\practise\f407_disc\lvgl\lvgl\src\misc\lv_area.h ****  * @return the width of the area (if x1 == x2 -> width = 1)
 132:d:\practise\f407_disc\lvgl\lvgl\src\misc\lv_area.h ****  */
 133:d:\practise\f407_disc\lvgl\lvgl\src\misc\lv_area.h **** static inline lv_coord_t lv_area_get_width(const lv_area_t * area_p)
 1679              		.loc 4 133 26 is_stmt 1 view .LVU588
 1680              	.LBB150:
 134:d:\practise\f407_disc\lvgl\lvgl\src\misc\lv_area.h **** {
 135:d:\practise\f407_disc\lvgl\lvgl\src\misc\lv_area.h ****     return (lv_coord_t)(area_p->x2 - area_p->x1 + 1);
 1681              		.loc 4 135 5 view .LVU589
 1682              		.loc 4 135 36 is_stmt 0 view .LVU590
 1683 0330 ACEB0003 		sub	r3, ip, r0
 1684 0334 9BB2     		uxth	r3, r3
 1685              		.loc 4 135 49 view .LVU591
 1686 0336 0133     		adds	r3, r3, #1
 1687              		.loc 4 135 12 view .LVU592
 1688 0338 1BB2     		sxth	r3, r3
 1689              	.LVL169:
 1690              		.loc 4 135 12 view .LVU593
 1691              	.LBE150:
 1692              	.LBE149:
ARM GAS  C:\Users\gx\AppData\Local\Temp\ccSIsGPa.s 			page 65


 743:lvgl/lvgl/src/widgets/lv_table.c ****                         label_dsc_act.letter_space, label_dsc_act.line_space,
 1693              		.loc 1 743 17 view .LVU594
 1694 033a 0292     		str	r2, [sp, #8]
 1695 033c 0193     		str	r3, [sp, #4]
 1696 033e BDF9B630 		ldrsh	r3, [sp, #182]
 1697 0342 0093     		str	r3, [sp]
 1698 0344 BDF9B830 		ldrsh	r3, [sp, #184]
 1699 0348 319A     		ldr	r2, [sp, #196]
 1700              	.LVL170:
 743:lvgl/lvgl/src/widgets/lv_table.c ****                         label_dsc_act.letter_space, label_dsc_act.line_space,
 1701              		.loc 1 743 17 view .LVU595
 1702 034a 0131     		adds	r1, r1, #1
 1703 034c 57A8     		add	r0, sp, #348
 1704 034e FFF7FEFF 		bl	lv_txt_get_size
 1705              	.LVL171:
 748:lvgl/lvgl/src/widgets/lv_table.c ****                     txt_area.y1 = cell_area.y1 + h_row / 2 - txt_size.y / 2;
 1706              		.loc 1 748 17 is_stmt 1 view .LVU596
 748:lvgl/lvgl/src/widgets/lv_table.c ****                     txt_area.y1 = cell_area.y1 + h_row / 2 - txt_size.y / 2;
 1707              		.loc 1 748 19 is_stmt 0 view .LVU597
 1708 0352 B9F1000F 		cmp	r9, #0
 1709 0356 13D1     		bne	.L62
 749:lvgl/lvgl/src/widgets/lv_table.c ****                     txt_area.y2 = cell_area.y1 + h_row / 2 + txt_size.y / 2;
 1710              		.loc 1 749 21 is_stmt 1 view .LVU598
 749:lvgl/lvgl/src/widgets/lv_table.c ****                     txt_area.y2 = cell_area.y1 + h_row / 2 + txt_size.y / 2;
 1711              		.loc 1 749 44 is_stmt 0 view .LVU599
 1712 0358 BDF85631 		ldrh	r3, [sp, #342]
 749:lvgl/lvgl/src/widgets/lv_table.c ****                     txt_area.y2 = cell_area.y1 + h_row / 2 + txt_size.y / 2;
 1713              		.loc 1 749 48 view .LVU600
 1714 035c 0B9A     		ldr	r2, [sp, #44]
 1715 035e 02EBD272 		add	r2, r2, r2, lsr #31
 1716 0362 03EB6203 		add	r3, r3, r2, asr #1
 1717 0366 9BB2     		uxth	r3, r3
 749:lvgl/lvgl/src/widgets/lv_table.c ****                     txt_area.y2 = cell_area.y1 + h_row / 2 + txt_size.y / 2;
 1718              		.loc 1 749 70 view .LVU601
 1719 0368 BDF95E21 		ldrsh	r2, [sp, #350]
 749:lvgl/lvgl/src/widgets/lv_table.c ****                     txt_area.y2 = cell_area.y1 + h_row / 2 + txt_size.y / 2;
 1720              		.loc 1 749 60 view .LVU602
 1721 036c 02EBD272 		add	r2, r2, r2, lsr #31
 1722 0370 C2F34F02 		ubfx	r2, r2, #1, #16
 1723 0374 991A     		subs	r1, r3, r2
 749:lvgl/lvgl/src/widgets/lv_table.c ****                     txt_area.y2 = cell_area.y1 + h_row / 2 + txt_size.y / 2;
 1724              		.loc 1 749 33 view .LVU603
 1725 0376 ADF84E11 		strh	r1, [sp, #334]	@ movhi
 750:lvgl/lvgl/src/widgets/lv_table.c ****                 }
 1726              		.loc 1 750 21 is_stmt 1 view .LVU604
 750:lvgl/lvgl/src/widgets/lv_table.c ****                 }
 1727              		.loc 1 750 60 is_stmt 0 view .LVU605
 1728 037a 1344     		add	r3, r3, r2
 750:lvgl/lvgl/src/widgets/lv_table.c ****                 }
 1729              		.loc 1 750 33 view .LVU606
 1730 037c ADF85231 		strh	r3, [sp, #338]	@ movhi
 1731              	.L62:
 753:lvgl/lvgl/src/widgets/lv_table.c ****                 bool label_mask_ok;
 1732              		.loc 1 753 17 is_stmt 1 view .LVU607
 754:lvgl/lvgl/src/widgets/lv_table.c ****                 label_mask_ok = _lv_area_intersect(&label_mask, &clip_area, &cell_area);
 1733              		.loc 1 754 17 view .LVU608
 755:lvgl/lvgl/src/widgets/lv_table.c ****                 if(label_mask_ok) {
ARM GAS  C:\Users\gx\AppData\Local\Temp\ccSIsGPa.s 			page 66


 1734              		.loc 1 755 17 view .LVU609
 755:lvgl/lvgl/src/widgets/lv_table.c ****                 if(label_mask_ok) {
 1735              		.loc 1 755 33 is_stmt 0 view .LVU610
 1736 0380 55AA     		add	r2, sp, #340
 1737 0382 58A9     		add	r1, sp, #352
 1738 0384 16A8     		add	r0, sp, #88
 1739 0386 FFF7FEFF 		bl	_lv_area_intersect
 1740              	.LVL172:
 756:lvgl/lvgl/src/widgets/lv_table.c ****                     lv_draw_label(&txt_area, &label_mask, &label_dsc_act, table->cell_data[cell] + 
 1741              		.loc 1 756 17 is_stmt 1 view .LVU611
 756:lvgl/lvgl/src/widgets/lv_table.c ****                     lv_draw_label(&txt_area, &label_mask, &label_dsc_act, table->cell_data[cell] + 
 1742              		.loc 1 756 19 is_stmt 0 view .LVU612
 1743 038a 0028     		cmp	r0, #0
 1744 038c 78D1     		bne	.L74
 1745              	.LVL173:
 1746              	.L60:
 756:lvgl/lvgl/src/widgets/lv_table.c ****                     lv_draw_label(&txt_area, &label_mask, &label_dsc_act, table->cell_data[cell] + 
 1747              		.loc 1 756 19 view .LVU613
 1748              	.LBE148:
 761:lvgl/lvgl/src/widgets/lv_table.c **** 
 1749              		.loc 1 761 13 is_stmt 1 discriminator 1 view .LVU614
 1750 038e 18AA     		add	r2, sp, #96
 1751 0390 1B21     		movs	r1, #27
 1752 0392 3846     		mov	r0, r7
 1753 0394 FFF7FEFF 		bl	lv_event_send
 1754              	.LVL174:
 763:lvgl/lvgl/src/widgets/lv_table.c ****             col += col_merge;
 1755              		.loc 1 763 13 discriminator 1 view .LVU615
 763:lvgl/lvgl/src/widgets/lv_table.c ****             col += col_merge;
 1756              		.loc 1 763 18 is_stmt 0 discriminator 1 view .LVU616
 1757 0398 A244     		add	r10, r10, r4
 1758              	.LVL175:
 763:lvgl/lvgl/src/widgets/lv_table.c ****             col += col_merge;
 1759              		.loc 1 763 18 discriminator 1 view .LVU617
 1760 039a 1FFA8AFA 		uxth	r10, r10
 1761 039e 0AF1010A 		add	r10, r10, #1
 1762 03a2 1FFA8AFA 		uxth	r10, r10
 1763              	.LVL176:
 764:lvgl/lvgl/src/widgets/lv_table.c ****         }
 1764              		.loc 1 764 13 is_stmt 1 discriminator 1 view .LVU618
 764:lvgl/lvgl/src/widgets/lv_table.c ****         }
 1765              		.loc 1 764 17 is_stmt 0 discriminator 1 view .LVU619
 1766 03a6 2544     		add	r5, r5, r4
 1767              	.LVL177:
 764:lvgl/lvgl/src/widgets/lv_table.c ****         }
 1768              		.loc 1 764 17 discriminator 1 view .LVU620
 1769 03a8 ADB2     		uxth	r5, r5
 1770              	.LVL178:
 1771              	.L48:
 764:lvgl/lvgl/src/widgets/lv_table.c ****         }
 1772              		.loc 1 764 17 discriminator 1 view .LVU621
 1773              	.LBE143:
 648:lvgl/lvgl/src/widgets/lv_table.c ****             lv_table_cell_ctrl_t ctrl = 0;
 1774              		.loc 1 648 44 is_stmt 1 discriminator 2 view .LVU622
 648:lvgl/lvgl/src/widgets/lv_table.c ****             lv_table_cell_ctrl_t ctrl = 0;
 1775              		.loc 1 648 47 is_stmt 0 discriminator 2 view .LVU623
 1776 03aa 0135     		adds	r5, r5, #1
ARM GAS  C:\Users\gx\AppData\Local\Temp\ccSIsGPa.s 			page 67


 1777              	.LVL179:
 648:lvgl/lvgl/src/widgets/lv_table.c ****             lv_table_cell_ctrl_t ctrl = 0;
 1778              		.loc 1 648 47 discriminator 2 view .LVU624
 1779 03ac ADB2     		uxth	r5, r5
 1780              	.LVL180:
 1781              	.L64:
 648:lvgl/lvgl/src/widgets/lv_table.c ****             lv_table_cell_ctrl_t ctrl = 0;
 1782              		.loc 1 648 22 is_stmt 1 discriminator 1 view .LVU625
 648:lvgl/lvgl/src/widgets/lv_table.c ****             lv_table_cell_ctrl_t ctrl = 0;
 1783              		.loc 1 648 33 is_stmt 0 discriminator 1 view .LVU626
 1784 03ae B98C     		ldrh	r1, [r7, #36]
 648:lvgl/lvgl/src/widgets/lv_table.c ****             lv_table_cell_ctrl_t ctrl = 0;
 1785              		.loc 1 648 9 discriminator 1 view .LVU627
 1786 03b0 A942     		cmp	r1, r5
 1787 03b2 71D9     		bls	.L75
 1788              	.LBB153:
 649:lvgl/lvgl/src/widgets/lv_table.c ****             if(table->cell_data[cell]) ctrl = table->cell_data[cell][0];
 1789              		.loc 1 649 13 is_stmt 1 view .LVU628
 1790              	.LVL181:
 650:lvgl/lvgl/src/widgets/lv_table.c **** 
 1791              		.loc 1 650 13 view .LVU629
 650:lvgl/lvgl/src/widgets/lv_table.c **** 
 1792              		.loc 1 650 21 is_stmt 0 view .LVU630
 1793 03b4 B86A     		ldr	r0, [r7, #40]
 650:lvgl/lvgl/src/widgets/lv_table.c **** 
 1794              		.loc 1 650 32 view .LVU631
 1795 03b6 4FEA8A08 		lsl	r8, r10, #2
 1796 03ba 50F82A30 		ldr	r3, [r0, r10, lsl #2]
 650:lvgl/lvgl/src/widgets/lv_table.c **** 
 1797              		.loc 1 650 15 view .LVU632
 1798 03be 002B     		cmp	r3, #0
 1799 03c0 3FF4C9AE 		beq	.L68
 650:lvgl/lvgl/src/widgets/lv_table.c **** 
 1800              		.loc 1 650 40 is_stmt 1 discriminator 1 view .LVU633
 650:lvgl/lvgl/src/widgets/lv_table.c **** 
 1801              		.loc 1 650 45 is_stmt 0 discriminator 1 view .LVU634
 1802 03c4 1E78     		ldrb	r6, [r3]	@ zero_extendqisi2
 1803              	.LVL182:
 1804              	.L39:
 652:lvgl/lvgl/src/widgets/lv_table.c ****                 cell_area.x2 = cell_area.x1 - 1;
 1805              		.loc 1 652 13 is_stmt 1 view .LVU635
 652:lvgl/lvgl/src/widgets/lv_table.c ****                 cell_area.x2 = cell_area.x1 - 1;
 1806              		.loc 1 652 15 is_stmt 0 view .LVU636
 1807 03c6 BBF1010F 		cmp	fp, #1
 1808 03ca 3FF4C6AE 		beq	.L76
 657:lvgl/lvgl/src/widgets/lv_table.c ****                 cell_area.x2 = cell_area.x1 + table->col_w[col] - 1;
 1809              		.loc 1 657 17 is_stmt 1 view .LVU637
 657:lvgl/lvgl/src/widgets/lv_table.c ****                 cell_area.x2 = cell_area.x1 + table->col_w[col] - 1;
 1810              		.loc 1 657 41 is_stmt 0 view .LVU638
 1811 03ce BDF85831 		ldrh	r3, [sp, #344]
 657:lvgl/lvgl/src/widgets/lv_table.c ****                 cell_area.x2 = cell_area.x1 + table->col_w[col] - 1;
 1812              		.loc 1 657 45 view .LVU639
 1813 03d2 0133     		adds	r3, r3, #1
 657:lvgl/lvgl/src/widgets/lv_table.c ****                 cell_area.x2 = cell_area.x1 + table->col_w[col] - 1;
 1814              		.loc 1 657 30 view .LVU640
 1815 03d4 ADF85431 		strh	r3, [sp, #340]	@ movhi
 658:lvgl/lvgl/src/widgets/lv_table.c ****             }
ARM GAS  C:\Users\gx\AppData\Local\Temp\ccSIsGPa.s 			page 68


 1816              		.loc 1 658 17 is_stmt 1 view .LVU641
 658:lvgl/lvgl/src/widgets/lv_table.c ****             }
 1817              		.loc 1 658 52 is_stmt 0 view .LVU642
 1818 03d8 3A6B     		ldr	r2, [r7, #48]
 658:lvgl/lvgl/src/widgets/lv_table.c ****             }
 1819              		.loc 1 658 59 view .LVU643
 1820 03da 32F81520 		ldrh	r2, [r2, r5, lsl #1]
 658:lvgl/lvgl/src/widgets/lv_table.c ****             }
 1821              		.loc 1 658 45 view .LVU644
 1822 03de 12FA83F3 		uxtah	r3, r2, r3
 1823 03e2 9BB2     		uxth	r3, r3
 658:lvgl/lvgl/src/widgets/lv_table.c ****             }
 1824              		.loc 1 658 65 view .LVU645
 1825 03e4 013B     		subs	r3, r3, #1
 658:lvgl/lvgl/src/widgets/lv_table.c ****             }
 1826              		.loc 1 658 30 view .LVU646
 1827 03e6 ADF85831 		strh	r3, [sp, #344]	@ movhi
 1828              	.L41:
 649:lvgl/lvgl/src/widgets/lv_table.c ****             if(table->cell_data[cell]) ctrl = table->cell_data[cell][0];
 1829              		.loc 1 649 34 discriminator 1 view .LVU647
 1830 03ea 0024     		movs	r4, #0
 1831 03ec CFE6     		b	.L45
 1832              	.LVL183:
 1833              	.L72:
 679:lvgl/lvgl/src/widgets/lv_table.c ****                 col += col_merge;
 1834              		.loc 1 679 17 is_stmt 1 view .LVU648
 679:lvgl/lvgl/src/widgets/lv_table.c ****                 col += col_merge;
 1835              		.loc 1 679 22 is_stmt 0 view .LVU649
 1836 03ee A244     		add	r10, r10, r4
 1837              	.LVL184:
 679:lvgl/lvgl/src/widgets/lv_table.c ****                 col += col_merge;
 1838              		.loc 1 679 22 view .LVU650
 1839 03f0 1FFA8AFA 		uxth	r10, r10
 1840 03f4 0AF1010A 		add	r10, r10, #1
 1841 03f8 1FFA8AFA 		uxth	r10, r10
 1842              	.LVL185:
 680:lvgl/lvgl/src/widgets/lv_table.c ****                 continue;
 1843              		.loc 1 680 17 is_stmt 1 view .LVU651
 680:lvgl/lvgl/src/widgets/lv_table.c ****                 continue;
 1844              		.loc 1 680 21 is_stmt 0 view .LVU652
 1845 03fc 2544     		add	r5, r5, r4
 1846              	.LVL186:
 680:lvgl/lvgl/src/widgets/lv_table.c ****                 continue;
 1847              		.loc 1 680 21 view .LVU653
 1848 03fe ADB2     		uxth	r5, r5
 1849              	.LVL187:
 681:lvgl/lvgl/src/widgets/lv_table.c ****             }
 1850              		.loc 1 681 17 is_stmt 1 view .LVU654
 1851 0400 D3E7     		b	.L48
 1852              	.L79:
 1853 0402 00BF     		.align	2
 1854              	.L78:
 1855 0404 00000000 		.word	.LANCHOR0
 1856              	.LVL188:
 1857              	.L73:
 703:lvgl/lvgl/src/widgets/lv_table.c ****                 if(obj->state & LV_STATE_FOCUSED) cell_state |= LV_STATE_FOCUSED;
 1858              		.loc 1 703 17 view .LVU655
ARM GAS  C:\Users\gx\AppData\Local\Temp\ccSIsGPa.s 			page 69


 703:lvgl/lvgl/src/widgets/lv_table.c ****                 if(obj->state & LV_STATE_FOCUSED) cell_state |= LV_STATE_FOCUSED;
 1859              		.loc 1 703 25 is_stmt 0 view .LVU656
 1860 0408 3A8C     		ldrh	r2, [r7, #32]
 1861 040a 02F06003 		and	r3, r2, #96
 703:lvgl/lvgl/src/widgets/lv_table.c ****                 if(obj->state & LV_STATE_FOCUSED) cell_state |= LV_STATE_FOCUSED;
 1862              		.loc 1 703 19 view .LVU657
 1863 040e 202B     		cmp	r3, #32
 1864 0410 00D0     		beq	.L54
 701:lvgl/lvgl/src/widgets/lv_table.c ****             if(row == table->row_act && col == table->col_act) {
 1865              		.loc 1 701 24 view .LVU658
 1866 0412 0023     		movs	r3, #0
 1867              	.L54:
 1868              	.LVL189:
 704:lvgl/lvgl/src/widgets/lv_table.c ****                 if(obj->state & LV_STATE_FOCUS_KEY) cell_state |= LV_STATE_FOCUS_KEY;
 1869              		.loc 1 704 17 is_stmt 1 view .LVU659
 704:lvgl/lvgl/src/widgets/lv_table.c ****                 if(obj->state & LV_STATE_FOCUS_KEY) cell_state |= LV_STATE_FOCUS_KEY;
 1870              		.loc 1 704 19 is_stmt 0 view .LVU660
 1871 0414 12F0020F 		tst	r2, #2
 1872 0418 01D0     		beq	.L55
 704:lvgl/lvgl/src/widgets/lv_table.c ****                 if(obj->state & LV_STATE_FOCUS_KEY) cell_state |= LV_STATE_FOCUS_KEY;
 1873              		.loc 1 704 51 is_stmt 1 discriminator 1 view .LVU661
 704:lvgl/lvgl/src/widgets/lv_table.c ****                 if(obj->state & LV_STATE_FOCUS_KEY) cell_state |= LV_STATE_FOCUS_KEY;
 1874              		.loc 1 704 62 is_stmt 0 discriminator 1 view .LVU662
 1875 041a 43F00203 		orr	r3, r3, #2
 1876              	.LVL190:
 1877              	.L55:
 705:lvgl/lvgl/src/widgets/lv_table.c ****                 if(obj->state & LV_STATE_EDITED) cell_state |= LV_STATE_EDITED;
 1878              		.loc 1 705 17 is_stmt 1 view .LVU663
 705:lvgl/lvgl/src/widgets/lv_table.c ****                 if(obj->state & LV_STATE_EDITED) cell_state |= LV_STATE_EDITED;
 1879              		.loc 1 705 19 is_stmt 0 view .LVU664
 1880 041e 12F0040F 		tst	r2, #4
 1881 0422 01D0     		beq	.L56
 705:lvgl/lvgl/src/widgets/lv_table.c ****                 if(obj->state & LV_STATE_EDITED) cell_state |= LV_STATE_EDITED;
 1882              		.loc 1 705 53 is_stmt 1 discriminator 1 view .LVU665
 705:lvgl/lvgl/src/widgets/lv_table.c ****                 if(obj->state & LV_STATE_EDITED) cell_state |= LV_STATE_EDITED;
 1883              		.loc 1 705 64 is_stmt 0 discriminator 1 view .LVU666
 1884 0424 43F00403 		orr	r3, r3, #4
 1885              	.LVL191:
 1886              	.L56:
 706:lvgl/lvgl/src/widgets/lv_table.c ****             }
 1887              		.loc 1 706 17 is_stmt 1 view .LVU667
 706:lvgl/lvgl/src/widgets/lv_table.c ****             }
 1888              		.loc 1 706 19 is_stmt 0 view .LVU668
 1889 0428 12F0080F 		tst	r2, #8
 1890 042c 01D0     		beq	.L57
 706:lvgl/lvgl/src/widgets/lv_table.c ****             }
 1891              		.loc 1 706 50 is_stmt 1 discriminator 1 view .LVU669
 706:lvgl/lvgl/src/widgets/lv_table.c ****             }
 1892              		.loc 1 706 61 is_stmt 0 discriminator 1 view .LVU670
 1893 042e 43F00803 		orr	r3, r3, #8
 1894              	.LVL192:
 1895              	.L57:
 710:lvgl/lvgl/src/widgets/lv_table.c ****                 lv_memcpy(&rect_dsc_act, &rect_dsc_def, sizeof(lv_draw_rect_dsc_t));
 1896              		.loc 1 710 13 is_stmt 1 view .LVU671
 710:lvgl/lvgl/src/widgets/lv_table.c ****                 lv_memcpy(&rect_dsc_act, &rect_dsc_def, sizeof(lv_draw_rect_dsc_t));
 1897              		.loc 1 710 15 is_stmt 0 view .LVU672
 1898 0432 002B     		cmp	r3, #0
ARM GAS  C:\Users\gx\AppData\Local\Temp\ccSIsGPa.s 			page 70


 1899 0434 3FF435AF 		beq	.L53
 716:lvgl/lvgl/src/widgets/lv_table.c ****                 obj->skip_trans = 1;
 1900              		.loc 1 716 17 is_stmt 1 view .LVU673
 716:lvgl/lvgl/src/widgets/lv_table.c ****                 obj->skip_trans = 1;
 1901              		.loc 1 716 28 is_stmt 0 view .LVU674
 1902 0438 3B84     		strh	r3, [r7, #32]	@ movhi
 717:lvgl/lvgl/src/widgets/lv_table.c ****                 lv_draw_rect_dsc_init(&rect_dsc_act);
 1903              		.loc 1 717 17 is_stmt 1 view .LVU675
 717:lvgl/lvgl/src/widgets/lv_table.c ****                 lv_draw_rect_dsc_init(&rect_dsc_act);
 1904              		.loc 1 717 33 is_stmt 0 view .LVU676
 1905 043a 97F82230 		ldrb	r3, [r7, #34]	@ zero_extendqisi2
 1906              	.LVL193:
 717:lvgl/lvgl/src/widgets/lv_table.c ****                 lv_draw_rect_dsc_init(&rect_dsc_act);
 1907              		.loc 1 717 33 view .LVU677
 1908 043e 43F00403 		orr	r3, r3, #4
 1909 0442 87F82230 		strb	r3, [r7, #34]
 718:lvgl/lvgl/src/widgets/lv_table.c ****                 lv_draw_label_dsc_init(&label_dsc_act);
 1910              		.loc 1 718 17 is_stmt 1 view .LVU678
 1911 0446 39A8     		add	r0, sp, #228
 1912 0448 FFF7FEFF 		bl	lv_draw_rect_dsc_init
 1913              	.LVL194:
 719:lvgl/lvgl/src/widgets/lv_table.c ****                 lv_obj_init_draw_rect_dsc(obj, LV_PART_ITEMS, &rect_dsc_act);
 1914              		.loc 1 719 17 view .LVU679
 1915 044c 29A8     		add	r0, sp, #164
 1916 044e FFF7FEFF 		bl	lv_draw_label_dsc_init
 1917              	.LVL195:
 720:lvgl/lvgl/src/widgets/lv_table.c ****                 lv_obj_init_draw_label_dsc(obj, LV_PART_ITEMS, &label_dsc_act);
 1918              		.loc 1 720 17 view .LVU680
 1919 0452 39AA     		add	r2, sp, #228
 1920 0454 4FF4A021 		mov	r1, #327680
 1921 0458 3846     		mov	r0, r7
 1922 045a FFF7FEFF 		bl	lv_obj_init_draw_rect_dsc
 1923              	.LVL196:
 721:lvgl/lvgl/src/widgets/lv_table.c ****                 obj->state = state_ori;
 1924              		.loc 1 721 17 view .LVU681
 1925 045e 29AA     		add	r2, sp, #164
 1926 0460 4FF4A021 		mov	r1, #327680
 1927 0464 3846     		mov	r0, r7
 1928 0466 FFF7FEFF 		bl	lv_obj_init_draw_label_dsc
 1929              	.LVL197:
 722:lvgl/lvgl/src/widgets/lv_table.c ****                 obj->skip_trans = 0;
 1930              		.loc 1 722 17 view .LVU682
 722:lvgl/lvgl/src/widgets/lv_table.c ****                 obj->skip_trans = 0;
 1931              		.loc 1 722 28 is_stmt 0 view .LVU683
 1932 046a 129B     		ldr	r3, [sp, #72]
 1933 046c 3B84     		strh	r3, [r7, #32]	@ movhi
 723:lvgl/lvgl/src/widgets/lv_table.c ****             }
 1934              		.loc 1 723 17 is_stmt 1 view .LVU684
 723:lvgl/lvgl/src/widgets/lv_table.c ****             }
 1935              		.loc 1 723 33 is_stmt 0 view .LVU685
 1936 046e 97F82230 		ldrb	r3, [r7, #34]	@ zero_extendqisi2
 1937 0472 6FF38203 		bfc	r3, #2, #1
 1938 0476 87F82230 		strb	r3, [r7, #34]
 1939 047a 1CE7     		b	.L59
 1940              	.LVL198:
 1941              	.L69:
 1942              	.LBB151:
ARM GAS  C:\Users\gx\AppData\Local\Temp\ccSIsGPa.s 			page 71


 741:lvgl/lvgl/src/widgets/lv_table.c **** 
 1943              		.loc 1 741 32 view .LVU686
 1944 047c 0022     		movs	r2, #0
 1945 047e 55E7     		b	.L61
 1946              	.LVL199:
 1947              	.L74:
 757:lvgl/lvgl/src/widgets/lv_table.c ****                 }
 1948              		.loc 1 757 21 is_stmt 1 view .LVU687
 757:lvgl/lvgl/src/widgets/lv_table.c ****                 }
 1949              		.loc 1 757 80 is_stmt 0 view .LVU688
 1950 0480 BB6A     		ldr	r3, [r7, #40]
 757:lvgl/lvgl/src/widgets/lv_table.c ****                 }
 1951              		.loc 1 757 91 view .LVU689
 1952 0482 53F80830 		ldr	r3, [r3, r8]
 757:lvgl/lvgl/src/widgets/lv_table.c ****                 }
 1953              		.loc 1 757 21 view .LVU690
 1954 0486 0022     		movs	r2, #0
 1955 0488 0092     		str	r2, [sp]
 1956 048a 0133     		adds	r3, r3, #1
 1957 048c 29AA     		add	r2, sp, #164
 1958 048e 16A9     		add	r1, sp, #88
 1959 0490 53A8     		add	r0, sp, #332
 1960              	.LVL200:
 757:lvgl/lvgl/src/widgets/lv_table.c ****                 }
 1961              		.loc 1 757 21 view .LVU691
 1962 0492 FFF7FEFF 		bl	lv_draw_label
 1963              	.LVL201:
 1964 0496 7AE7     		b	.L60
 1965              	.LVL202:
 1966              	.L75:
 757:lvgl/lvgl/src/widgets/lv_table.c ****                 }
 1967              		.loc 1 757 21 view .LVU692
 1968              	.LBE151:
 1969              	.LBE153:
 1970              	.LBE142:
 637:lvgl/lvgl/src/widgets/lv_table.c ****         lv_coord_t h_row = table->row_h[row];
 1971              		.loc 1 637 40 is_stmt 1 discriminator 2 view .LVU693
 637:lvgl/lvgl/src/widgets/lv_table.c ****         lv_coord_t h_row = table->row_h[row];
 1972              		.loc 1 637 43 is_stmt 0 discriminator 2 view .LVU694
 1973 0498 069B     		ldr	r3, [sp, #24]
 1974 049a 0133     		adds	r3, r3, #1
 1975 049c 9BB2     		uxth	r3, r3
 1976 049e 0693     		str	r3, [sp, #24]
 1977              	.LVL203:
 1978              	.L36:
 637:lvgl/lvgl/src/widgets/lv_table.c ****         lv_coord_t h_row = table->row_h[row];
 1979              		.loc 1 637 18 is_stmt 1 discriminator 1 view .LVU695
 637:lvgl/lvgl/src/widgets/lv_table.c ****         lv_coord_t h_row = table->row_h[row];
 1980              		.loc 1 637 29 is_stmt 0 discriminator 1 view .LVU696
 1981 04a0 FB8C     		ldrh	r3, [r7, #38]
 637:lvgl/lvgl/src/widgets/lv_table.c ****         lv_coord_t h_row = table->row_h[row];
 1982              		.loc 1 637 5 discriminator 1 view .LVU697
 1983 04a2 069A     		ldr	r2, [sp, #24]
 1984 04a4 9342     		cmp	r3, r2
 1985 04a6 7FF6BCAD 		bls	.L34
 1986              	.LBB155:
 638:lvgl/lvgl/src/widgets/lv_table.c **** 
ARM GAS  C:\Users\gx\AppData\Local\Temp\ccSIsGPa.s 			page 72


 1987              		.loc 1 638 9 is_stmt 1 view .LVU698
 638:lvgl/lvgl/src/widgets/lv_table.c **** 
 1988              		.loc 1 638 33 is_stmt 0 view .LVU699
 1989 04aa FB6A     		ldr	r3, [r7, #44]
 638:lvgl/lvgl/src/widgets/lv_table.c **** 
 1990              		.loc 1 638 20 view .LVU700
 1991 04ac 069A     		ldr	r2, [sp, #24]
 1992 04ae 33F91210 		ldrsh	r1, [r3, r2, lsl #1]
 1993 04b2 0B91     		str	r1, [sp, #44]
 1994              	.LVL204:
 640:lvgl/lvgl/src/widgets/lv_table.c ****         cell_area.y2 = cell_area.y1 + h_row - 1;
 1995              		.loc 1 640 9 is_stmt 1 view .LVU701
 640:lvgl/lvgl/src/widgets/lv_table.c ****         cell_area.y2 = cell_area.y1 + h_row - 1;
 1996              		.loc 1 640 33 is_stmt 0 view .LVU702
 1997 04b4 BDF85A31 		ldrh	r3, [sp, #346]
 640:lvgl/lvgl/src/widgets/lv_table.c ****         cell_area.y2 = cell_area.y1 + h_row - 1;
 1998              		.loc 1 640 37 view .LVU703
 1999 04b8 0133     		adds	r3, r3, #1
 2000 04ba 1AB2     		sxth	r2, r3
 640:lvgl/lvgl/src/widgets/lv_table.c ****         cell_area.y2 = cell_area.y1 + h_row - 1;
 2001              		.loc 1 640 22 view .LVU704
 2002 04bc ADF85621 		strh	r2, [sp, #342]	@ movhi
 641:lvgl/lvgl/src/widgets/lv_table.c **** 
 2003              		.loc 1 641 9 is_stmt 1 view .LVU705
 641:lvgl/lvgl/src/widgets/lv_table.c **** 
 2004              		.loc 1 641 37 is_stmt 0 view .LVU706
 2005 04c0 11FA83F3 		uxtah	r3, r1, r3
 2006 04c4 9BB2     		uxth	r3, r3
 641:lvgl/lvgl/src/widgets/lv_table.c **** 
 2007              		.loc 1 641 45 view .LVU707
 2008 04c6 013B     		subs	r3, r3, #1
 641:lvgl/lvgl/src/widgets/lv_table.c **** 
 2009              		.loc 1 641 22 view .LVU708
 2010 04c8 ADF85A31 		strh	r3, [sp, #346]	@ movhi
 643:lvgl/lvgl/src/widgets/lv_table.c **** 
 2011              		.loc 1 643 9 is_stmt 1 view .LVU709
 643:lvgl/lvgl/src/widgets/lv_table.c **** 
 2012              		.loc 1 643 36 is_stmt 0 view .LVU710
 2013 04cc BDF96631 		ldrsh	r3, [sp, #358]
 643:lvgl/lvgl/src/widgets/lv_table.c **** 
 2014              		.loc 1 643 11 view .LVU711
 2015 04d0 9A42     		cmp	r2, r3
 2016 04d2 3FF7A6AD 		bgt	.L34
 645:lvgl/lvgl/src/widgets/lv_table.c ****         else cell_area.x2 = obj->coords.x1 + bg_left - 1 - scroll_x;
 2017              		.loc 1 645 9 is_stmt 1 view .LVU712
 645:lvgl/lvgl/src/widgets/lv_table.c ****         else cell_area.x2 = obj->coords.x1 + bg_left - 1 - scroll_x;
 2018              		.loc 1 645 11 is_stmt 0 view .LVU713
 2019 04d6 BBF1010F 		cmp	fp, #1
 2020 04da 3FF432AE 		beq	.L77
 646:lvgl/lvgl/src/widgets/lv_table.c **** 
 2021              		.loc 1 646 14 is_stmt 1 view .LVU714
 646:lvgl/lvgl/src/widgets/lv_table.c **** 
 2022              		.loc 1 646 40 is_stmt 0 view .LVU715
 2023 04de BB8A     		ldrh	r3, [r7, #20]
 646:lvgl/lvgl/src/widgets/lv_table.c **** 
 2024              		.loc 1 646 44 view .LVU716
 2025 04e0 119A     		ldr	r2, [sp, #68]
ARM GAS  C:\Users\gx\AppData\Local\Temp\ccSIsGPa.s 			page 73


 2026 04e2 1344     		add	r3, r3, r2
 2027 04e4 9BB2     		uxth	r3, r3
 646:lvgl/lvgl/src/widgets/lv_table.c **** 
 2028              		.loc 1 646 58 view .LVU717
 2029 04e6 109A     		ldr	r2, [sp, #64]
 2030 04e8 9B1A     		subs	r3, r3, r2
 2031 04ea 013B     		subs	r3, r3, #1
 646:lvgl/lvgl/src/widgets/lv_table.c **** 
 2032              		.loc 1 646 27 view .LVU718
 2033 04ec ADF85831 		strh	r3, [sp, #344]	@ movhi
 2034              	.L38:
 2035              	.LBB154:
 2036              	.LBB152:
 740:lvgl/lvgl/src/widgets/lv_table.c ****                 else txt_flags = LV_TEXT_FLAG_NONE;
 2037              		.loc 1 740 36 discriminator 1 view .LVU719
 2038 04f0 0025     		movs	r5, #0
 2039 04f2 5CE7     		b	.L64
 2040              	.LBE152:
 2041              	.LBE154:
 2042              	.LBE155:
 2043              		.cfi_endproc
 2044              	.LFE169:
 2046              		.section	.text.lv_table_event,"ax",%progbits
 2047              		.align	1
 2048              		.syntax unified
 2049              		.thumb
 2050              		.thumb_func
 2051              		.fpu fpv4-sp-d16
 2053              	lv_table_event:
 2054              	.LVL205:
 2055              	.LFB168:
 469:lvgl/lvgl/src/widgets/lv_table.c ****     LV_UNUSED(class_p);
 2056              		.loc 1 469 1 is_stmt 1 view -0
 2057              		.cfi_startproc
 2058              		@ args = 0, pretend = 0, frame = 8
 2059              		@ frame_needed = 0, uses_anonymous_args = 0
 469:lvgl/lvgl/src/widgets/lv_table.c ****     LV_UNUSED(class_p);
 2060              		.loc 1 469 1 is_stmt 0 view .LVU721
 2061 0000 F0B5     		push	{r4, r5, r6, r7, lr}
 2062              	.LCFI14:
 2063              		.cfi_def_cfa_offset 20
 2064              		.cfi_offset 4, -20
 2065              		.cfi_offset 5, -16
 2066              		.cfi_offset 6, -12
 2067              		.cfi_offset 7, -8
 2068              		.cfi_offset 14, -4
 2069 0002 83B0     		sub	sp, sp, #12
 2070              	.LCFI15:
 2071              		.cfi_def_cfa_offset 32
 2072 0004 0C46     		mov	r4, r1
 470:lvgl/lvgl/src/widgets/lv_table.c **** 
 2073              		.loc 1 470 5 is_stmt 1 view .LVU722
 472:lvgl/lvgl/src/widgets/lv_table.c **** 
 2074              		.loc 1 472 5 view .LVU723
 475:lvgl/lvgl/src/widgets/lv_table.c ****     if(res != LV_RES_OK) return;
 2075              		.loc 1 475 5 view .LVU724
 475:lvgl/lvgl/src/widgets/lv_table.c ****     if(res != LV_RES_OK) return;
ARM GAS  C:\Users\gx\AppData\Local\Temp\ccSIsGPa.s 			page 74


 2076              		.loc 1 475 11 is_stmt 0 view .LVU725
 2077 0006 6F48     		ldr	r0, .L131
 2078              	.LVL206:
 475:lvgl/lvgl/src/widgets/lv_table.c ****     if(res != LV_RES_OK) return;
 2079              		.loc 1 475 11 view .LVU726
 2080 0008 FFF7FEFF 		bl	lv_obj_event_base
 2081              	.LVL207:
 476:lvgl/lvgl/src/widgets/lv_table.c **** 
 2082              		.loc 1 476 5 is_stmt 1 view .LVU727
 476:lvgl/lvgl/src/widgets/lv_table.c **** 
 2083              		.loc 1 476 7 is_stmt 0 view .LVU728
 2084 000c 0128     		cmp	r0, #1
 2085 000e 01D0     		beq	.L115
 2086              	.LVL208:
 2087              	.L80:
 578:lvgl/lvgl/src/widgets/lv_table.c **** 
 2088              		.loc 1 578 1 view .LVU729
 2089 0010 03B0     		add	sp, sp, #12
 2090              	.LCFI16:
 2091              		.cfi_remember_state
 2092              		.cfi_def_cfa_offset 20
 2093              		@ sp needed
 2094 0012 F0BD     		pop	{r4, r5, r6, r7, pc}
 2095              	.LVL209:
 2096              	.L115:
 2097              	.LCFI17:
 2098              		.cfi_restore_state
 478:lvgl/lvgl/src/widgets/lv_table.c ****     lv_obj_t * obj = lv_event_get_target(e);
 2099              		.loc 1 478 5 is_stmt 1 view .LVU730
 478:lvgl/lvgl/src/widgets/lv_table.c ****     lv_obj_t * obj = lv_event_get_target(e);
 2100              		.loc 1 478 28 is_stmt 0 view .LVU731
 2101 0014 2046     		mov	r0, r4
 2102              	.LVL210:
 478:lvgl/lvgl/src/widgets/lv_table.c ****     lv_obj_t * obj = lv_event_get_target(e);
 2103              		.loc 1 478 28 view .LVU732
 2104 0016 FFF7FEFF 		bl	lv_event_get_code
 2105              	.LVL211:
 2106 001a 0646     		mov	r6, r0
 2107              	.LVL212:
 479:lvgl/lvgl/src/widgets/lv_table.c ****     lv_table_t * table = (lv_table_t *)obj;
 2108              		.loc 1 479 5 is_stmt 1 view .LVU733
 479:lvgl/lvgl/src/widgets/lv_table.c ****     lv_table_t * table = (lv_table_t *)obj;
 2109              		.loc 1 479 22 is_stmt 0 view .LVU734
 2110 001c 2046     		mov	r0, r4
 2111 001e FFF7FEFF 		bl	lv_event_get_target
 2112              	.LVL213:
 2113 0022 0546     		mov	r5, r0
 2114              	.LVL214:
 480:lvgl/lvgl/src/widgets/lv_table.c **** 
 2115              		.loc 1 480 5 is_stmt 1 view .LVU735
 482:lvgl/lvgl/src/widgets/lv_table.c ****         refr_size(obj, 0);
 2116              		.loc 1 482 5 view .LVU736
 482:lvgl/lvgl/src/widgets/lv_table.c ****         refr_size(obj, 0);
 2117              		.loc 1 482 7 is_stmt 0 view .LVU737
 2118 0024 242E     		cmp	r6, #36
 2119 0026 11D0     		beq	.L116
 485:lvgl/lvgl/src/widgets/lv_table.c ****         lv_point_t * p = lv_event_get_param(e);
ARM GAS  C:\Users\gx\AppData\Local\Temp\ccSIsGPa.s 			page 75


 2120              		.loc 1 485 10 is_stmt 1 view .LVU738
 485:lvgl/lvgl/src/widgets/lv_table.c ****         lv_point_t * p = lv_event_get_param(e);
 2121              		.loc 1 485 12 is_stmt 0 view .LVU739
 2122 0028 262E     		cmp	r6, #38
 2123 002a 13D0     		beq	.L117
 497:lvgl/lvgl/src/widgets/lv_table.c ****         uint16_t col;
 2124              		.loc 1 497 10 is_stmt 1 view .LVU740
 497:lvgl/lvgl/src/widgets/lv_table.c ****         uint16_t col;
 2125              		.loc 1 497 38 is_stmt 0 view .LVU741
 2126 002c 731E     		subs	r3, r6, #1
 2127 002e DBB2     		uxtb	r3, r3
 497:lvgl/lvgl/src/widgets/lv_table.c ****         uint16_t col;
 2128              		.loc 1 497 12 view .LVU742
 2129 0030 012B     		cmp	r3, #1
 2130 0032 2DD9     		bls	.L118
 508:lvgl/lvgl/src/widgets/lv_table.c ****         lv_obj_invalidate(obj);
 2131              		.loc 1 508 10 is_stmt 1 view .LVU743
 508:lvgl/lvgl/src/widgets/lv_table.c ****         lv_obj_invalidate(obj);
 2132              		.loc 1 508 12 is_stmt 0 view .LVU744
 2133 0034 082E     		cmp	r6, #8
 2134 0036 46D0     		beq	.L119
 523:lvgl/lvgl/src/widgets/lv_table.c ****         lv_obj_invalidate(obj);
 2135              		.loc 1 523 10 is_stmt 1 view .LVU745
 523:lvgl/lvgl/src/widgets/lv_table.c ****         lv_obj_invalidate(obj);
 2136              		.loc 1 523 12 is_stmt 0 view .LVU746
 2137 0038 0E2E     		cmp	r6, #14
 2138 003a 68D0     		beq	.L120
 525:lvgl/lvgl/src/widgets/lv_table.c ****         int32_t c = *((int32_t *)lv_event_get_param(e));
 2139              		.loc 1 525 12 is_stmt 1 view .LVU747
 525:lvgl/lvgl/src/widgets/lv_table.c ****         int32_t c = *((int32_t *)lv_event_get_param(e));
 2140              		.loc 1 525 14 is_stmt 0 view .LVU748
 2141 003c 0D2E     		cmp	r6, #13
 2142 003e 69D0     		beq	.L121
 575:lvgl/lvgl/src/widgets/lv_table.c ****         draw_main(e);
 2143              		.loc 1 575 12 is_stmt 1 view .LVU749
 575:lvgl/lvgl/src/widgets/lv_table.c ****         draw_main(e);
 2144              		.loc 1 575 14 is_stmt 0 view .LVU750
 2145 0040 152E     		cmp	r6, #21
 2146 0042 E5D1     		bne	.L80
 576:lvgl/lvgl/src/widgets/lv_table.c ****     }
 2147              		.loc 1 576 9 is_stmt 1 view .LVU751
 2148 0044 2046     		mov	r0, r4
 2149              	.LVL215:
 576:lvgl/lvgl/src/widgets/lv_table.c ****     }
 2150              		.loc 1 576 9 is_stmt 0 view .LVU752
 2151 0046 FFF7FEFF 		bl	draw_main
 2152              	.LVL216:
 2153 004a E1E7     		b	.L80
 2154              	.LVL217:
 2155              	.L116:
 483:lvgl/lvgl/src/widgets/lv_table.c ****     }
 2156              		.loc 1 483 9 is_stmt 1 view .LVU753
 2157 004c 0021     		movs	r1, #0
 2158 004e FFF7FEFF 		bl	refr_size
 2159              	.LVL218:
 483:lvgl/lvgl/src/widgets/lv_table.c ****     }
 2160              		.loc 1 483 9 is_stmt 0 view .LVU754
ARM GAS  C:\Users\gx\AppData\Local\Temp\ccSIsGPa.s 			page 76


 2161 0052 DDE7     		b	.L80
 2162              	.LVL219:
 2163              	.L117:
 2164              	.LBB156:
 486:lvgl/lvgl/src/widgets/lv_table.c ****         uint32_t i;
 2165              		.loc 1 486 9 is_stmt 1 view .LVU755
 486:lvgl/lvgl/src/widgets/lv_table.c ****         uint32_t i;
 2166              		.loc 1 486 26 is_stmt 0 view .LVU756
 2167 0054 2046     		mov	r0, r4
 2168              	.LVL220:
 486:lvgl/lvgl/src/widgets/lv_table.c ****         uint32_t i;
 2169              		.loc 1 486 26 view .LVU757
 2170 0056 FFF7FEFF 		bl	lv_event_get_param
 2171              	.LVL221:
 487:lvgl/lvgl/src/widgets/lv_table.c ****         lv_coord_t w = 0;
 2172              		.loc 1 487 9 is_stmt 1 view .LVU758
 488:lvgl/lvgl/src/widgets/lv_table.c ****         for(i = 0; i < table->col_cnt; i++) w += table->col_w[i];
 2173              		.loc 1 488 9 view .LVU759
 489:lvgl/lvgl/src/widgets/lv_table.c **** 
 2174              		.loc 1 489 9 view .LVU760
 488:lvgl/lvgl/src/widgets/lv_table.c ****         for(i = 0; i < table->col_cnt; i++) w += table->col_w[i];
 2175              		.loc 1 488 20 is_stmt 0 view .LVU761
 2176 005a 0022     		movs	r2, #0
 489:lvgl/lvgl/src/widgets/lv_table.c **** 
 2177              		.loc 1 489 15 view .LVU762
 2178 005c 1346     		mov	r3, r2
 2179              	.LVL222:
 2180              	.L84:
 489:lvgl/lvgl/src/widgets/lv_table.c **** 
 2181              		.loc 1 489 20 is_stmt 1 discriminator 1 view .LVU763
 489:lvgl/lvgl/src/widgets/lv_table.c **** 
 2182              		.loc 1 489 29 is_stmt 0 discriminator 1 view .LVU764
 2183 005e A98C     		ldrh	r1, [r5, #36]
 489:lvgl/lvgl/src/widgets/lv_table.c **** 
 2184              		.loc 1 489 9 discriminator 1 view .LVU765
 2185 0060 9942     		cmp	r1, r3
 2186 0062 06D9     		bls	.L122
 489:lvgl/lvgl/src/widgets/lv_table.c **** 
 2187              		.loc 1 489 45 is_stmt 1 discriminator 3 view .LVU766
 489:lvgl/lvgl/src/widgets/lv_table.c **** 
 2188              		.loc 1 489 55 is_stmt 0 discriminator 3 view .LVU767
 2189 0064 296B     		ldr	r1, [r5, #48]
 489:lvgl/lvgl/src/widgets/lv_table.c **** 
 2190              		.loc 1 489 62 discriminator 3 view .LVU768
 2191 0066 31F81310 		ldrh	r1, [r1, r3, lsl #1]
 489:lvgl/lvgl/src/widgets/lv_table.c **** 
 2192              		.loc 1 489 47 discriminator 3 view .LVU769
 2193 006a 0A44     		add	r2, r2, r1
 2194              	.LVL223:
 489:lvgl/lvgl/src/widgets/lv_table.c **** 
 2195              		.loc 1 489 47 discriminator 3 view .LVU770
 2196 006c 12B2     		sxth	r2, r2
 2197              	.LVL224:
 489:lvgl/lvgl/src/widgets/lv_table.c **** 
 2198              		.loc 1 489 40 is_stmt 1 discriminator 3 view .LVU771
 489:lvgl/lvgl/src/widgets/lv_table.c **** 
 2199              		.loc 1 489 41 is_stmt 0 discriminator 3 view .LVU772
ARM GAS  C:\Users\gx\AppData\Local\Temp\ccSIsGPa.s 			page 77


 2200 006e 0133     		adds	r3, r3, #1
 2201              	.LVL225:
 489:lvgl/lvgl/src/widgets/lv_table.c **** 
 2202              		.loc 1 489 41 discriminator 3 view .LVU773
 2203 0070 F5E7     		b	.L84
 2204              	.L122:
 491:lvgl/lvgl/src/widgets/lv_table.c ****         for(i = 0; i < table->row_cnt; i++) h += table->row_h[i];
 2205              		.loc 1 491 20 view .LVU774
 2206 0072 0023     		movs	r3, #0
 2207              	.LVL226:
 492:lvgl/lvgl/src/widgets/lv_table.c **** 
 2208              		.loc 1 492 15 view .LVU775
 2209 0074 1946     		mov	r1, r3
 2210              	.LVL227:
 2211              	.L86:
 492:lvgl/lvgl/src/widgets/lv_table.c **** 
 2212              		.loc 1 492 20 is_stmt 1 discriminator 1 view .LVU776
 492:lvgl/lvgl/src/widgets/lv_table.c **** 
 2213              		.loc 1 492 29 is_stmt 0 discriminator 1 view .LVU777
 2214 0076 EC8C     		ldrh	r4, [r5, #38]
 492:lvgl/lvgl/src/widgets/lv_table.c **** 
 2215              		.loc 1 492 9 discriminator 1 view .LVU778
 2216 0078 8C42     		cmp	r4, r1
 2217 007a 06D9     		bls	.L123
 492:lvgl/lvgl/src/widgets/lv_table.c **** 
 2218              		.loc 1 492 45 is_stmt 1 discriminator 3 view .LVU779
 492:lvgl/lvgl/src/widgets/lv_table.c **** 
 2219              		.loc 1 492 55 is_stmt 0 discriminator 3 view .LVU780
 2220 007c EC6A     		ldr	r4, [r5, #44]
 492:lvgl/lvgl/src/widgets/lv_table.c **** 
 2221              		.loc 1 492 62 discriminator 3 view .LVU781
 2222 007e 34F81140 		ldrh	r4, [r4, r1, lsl #1]
 492:lvgl/lvgl/src/widgets/lv_table.c **** 
 2223              		.loc 1 492 47 discriminator 3 view .LVU782
 2224 0082 2344     		add	r3, r3, r4
 2225              	.LVL228:
 492:lvgl/lvgl/src/widgets/lv_table.c **** 
 2226              		.loc 1 492 47 discriminator 3 view .LVU783
 2227 0084 1BB2     		sxth	r3, r3
 2228              	.LVL229:
 492:lvgl/lvgl/src/widgets/lv_table.c **** 
 2229              		.loc 1 492 40 is_stmt 1 discriminator 3 view .LVU784
 492:lvgl/lvgl/src/widgets/lv_table.c **** 
 2230              		.loc 1 492 41 is_stmt 0 discriminator 3 view .LVU785
 2231 0086 0131     		adds	r1, r1, #1
 2232              	.LVL230:
 492:lvgl/lvgl/src/widgets/lv_table.c **** 
 2233              		.loc 1 492 41 discriminator 3 view .LVU786
 2234 0088 F5E7     		b	.L86
 2235              	.L123:
 494:lvgl/lvgl/src/widgets/lv_table.c ****         p->y = h;
 2236              		.loc 1 494 9 is_stmt 1 view .LVU787
 494:lvgl/lvgl/src/widgets/lv_table.c ****         p->y = h;
 2237              		.loc 1 494 14 is_stmt 0 view .LVU788
 2238 008a 0280     		strh	r2, [r0]	@ movhi
 495:lvgl/lvgl/src/widgets/lv_table.c ****     }
 2239              		.loc 1 495 9 is_stmt 1 view .LVU789
ARM GAS  C:\Users\gx\AppData\Local\Temp\ccSIsGPa.s 			page 78


 495:lvgl/lvgl/src/widgets/lv_table.c ****     }
 2240              		.loc 1 495 14 is_stmt 0 view .LVU790
 2241 008c 4380     		strh	r3, [r0, #2]	@ movhi
 2242              	.LBE156:
 2243 008e BFE7     		b	.L80
 2244              	.LVL231:
 2245              	.L118:
 2246              	.LBB157:
 498:lvgl/lvgl/src/widgets/lv_table.c ****         uint16_t row;
 2247              		.loc 1 498 9 is_stmt 1 view .LVU791
 499:lvgl/lvgl/src/widgets/lv_table.c ****         lv_res_t pr_res = get_pressed_cell(obj, &row, &col);
 2248              		.loc 1 499 9 view .LVU792
 500:lvgl/lvgl/src/widgets/lv_table.c **** 
 2249              		.loc 1 500 9 view .LVU793
 500:lvgl/lvgl/src/widgets/lv_table.c **** 
 2250              		.loc 1 500 27 is_stmt 0 view .LVU794
 2251 0090 01AA     		add	r2, sp, #4
 2252 0092 0DF10601 		add	r1, sp, #6
 2253 0096 FFF7FEFF 		bl	get_pressed_cell
 2254              	.LVL232:
 502:lvgl/lvgl/src/widgets/lv_table.c ****             table->col_act = col;
 2255              		.loc 1 502 9 is_stmt 1 view .LVU795
 502:lvgl/lvgl/src/widgets/lv_table.c ****             table->col_act = col;
 2256              		.loc 1 502 11 is_stmt 0 view .LVU796
 2257 009a 0128     		cmp	r0, #1
 2258 009c 03D0     		beq	.L124
 2259              	.L89:
 506:lvgl/lvgl/src/widgets/lv_table.c ****     }
 2260              		.loc 1 506 9 is_stmt 1 view .LVU797
 2261 009e 2846     		mov	r0, r5
 2262              	.LVL233:
 506:lvgl/lvgl/src/widgets/lv_table.c ****     }
 2263              		.loc 1 506 9 is_stmt 0 view .LVU798
 2264 00a0 FFF7FEFF 		bl	lv_obj_invalidate
 2265              	.LVL234:
 2266              	.LBE157:
 2267 00a4 B4E7     		b	.L80
 2268              	.LVL235:
 2269              	.L124:
 2270              	.LBB158:
 502:lvgl/lvgl/src/widgets/lv_table.c ****             table->col_act = col;
 2271              		.loc 1 502 41 discriminator 1 view .LVU799
 2272 00a6 AA8E     		ldrh	r2, [r5, #52]
 502:lvgl/lvgl/src/widgets/lv_table.c ****             table->col_act = col;
 2273              		.loc 1 502 51 discriminator 1 view .LVU800
 2274 00a8 BDF80430 		ldrh	r3, [sp, #4]
 502:lvgl/lvgl/src/widgets/lv_table.c ****             table->col_act = col;
 2275              		.loc 1 502 32 discriminator 1 view .LVU801
 2276 00ac 9A42     		cmp	r2, r3
 2277 00ae 04D0     		beq	.L125
 2278              	.L90:
 503:lvgl/lvgl/src/widgets/lv_table.c ****             table->row_act = row;
 2279              		.loc 1 503 13 is_stmt 1 view .LVU802
 503:lvgl/lvgl/src/widgets/lv_table.c ****             table->row_act = row;
 2280              		.loc 1 503 28 is_stmt 0 view .LVU803
 2281 00b0 AB86     		strh	r3, [r5, #52]	@ movhi
 504:lvgl/lvgl/src/widgets/lv_table.c ****         }
ARM GAS  C:\Users\gx\AppData\Local\Temp\ccSIsGPa.s 			page 79


 2282              		.loc 1 504 13 is_stmt 1 view .LVU804
 504:lvgl/lvgl/src/widgets/lv_table.c ****         }
 2283              		.loc 1 504 28 is_stmt 0 view .LVU805
 2284 00b2 BDF80630 		ldrh	r3, [sp, #6]
 2285 00b6 EB86     		strh	r3, [r5, #54]	@ movhi
 2286 00b8 F1E7     		b	.L89
 2287              	.L125:
 502:lvgl/lvgl/src/widgets/lv_table.c ****             table->col_act = col;
 2288              		.loc 1 502 66 discriminator 2 view .LVU806
 2289 00ba E98E     		ldrh	r1, [r5, #54]
 502:lvgl/lvgl/src/widgets/lv_table.c ****             table->col_act = col;
 2290              		.loc 1 502 76 discriminator 2 view .LVU807
 2291 00bc BDF80620 		ldrh	r2, [sp, #6]
 502:lvgl/lvgl/src/widgets/lv_table.c ****             table->col_act = col;
 2292              		.loc 1 502 58 discriminator 2 view .LVU808
 2293 00c0 9142     		cmp	r1, r2
 2294 00c2 F5D1     		bne	.L90
 2295 00c4 EBE7     		b	.L89
 2296              	.LVL236:
 2297              	.L119:
 502:lvgl/lvgl/src/widgets/lv_table.c ****             table->col_act = col;
 2298              		.loc 1 502 58 discriminator 2 view .LVU809
 2299              	.LBE158:
 2300              	.LBB159:
 509:lvgl/lvgl/src/widgets/lv_table.c ****         lv_indev_t * indev = lv_indev_get_act();
 2301              		.loc 1 509 9 is_stmt 1 view .LVU810
 2302 00c6 FFF7FEFF 		bl	lv_obj_invalidate
 2303              	.LVL237:
 510:lvgl/lvgl/src/widgets/lv_table.c ****         lv_obj_t * scroll_obj = lv_indev_get_scroll_obj(indev);
 2304              		.loc 1 510 9 view .LVU811
 510:lvgl/lvgl/src/widgets/lv_table.c ****         lv_obj_t * scroll_obj = lv_indev_get_scroll_obj(indev);
 2305              		.loc 1 510 30 is_stmt 0 view .LVU812
 2306 00ca FFF7FEFF 		bl	lv_indev_get_act
 2307              	.LVL238:
 511:lvgl/lvgl/src/widgets/lv_table.c ****         if(table->col_act != LV_TABLE_CELL_NONE && table->row_act != LV_TABLE_CELL_NONE && scroll_o
 2308              		.loc 1 511 9 is_stmt 1 view .LVU813
 511:lvgl/lvgl/src/widgets/lv_table.c ****         if(table->col_act != LV_TABLE_CELL_NONE && table->row_act != LV_TABLE_CELL_NONE && scroll_o
 2309              		.loc 1 511 33 is_stmt 0 view .LVU814
 2310 00ce FFF7FEFF 		bl	lv_indev_get_scroll_obj
 2311              	.LVL239:
 512:lvgl/lvgl/src/widgets/lv_table.c ****             res = lv_event_send(obj, LV_EVENT_VALUE_CHANGED, NULL);
 2312              		.loc 1 512 9 is_stmt 1 view .LVU815
 512:lvgl/lvgl/src/widgets/lv_table.c ****             res = lv_event_send(obj, LV_EVENT_VALUE_CHANGED, NULL);
 2313              		.loc 1 512 17 is_stmt 0 view .LVU816
 2314 00d2 AA8E     		ldrh	r2, [r5, #52]
 512:lvgl/lvgl/src/widgets/lv_table.c ****             res = lv_event_send(obj, LV_EVENT_VALUE_CHANGED, NULL);
 2315              		.loc 1 512 11 view .LVU817
 2316 00d4 4FF6FF73 		movw	r3, #65535
 2317 00d8 9A42     		cmp	r2, r3
 2318 00da 03D0     		beq	.L92
 512:lvgl/lvgl/src/widgets/lv_table.c ****             res = lv_event_send(obj, LV_EVENT_VALUE_CHANGED, NULL);
 2319              		.loc 1 512 57 discriminator 1 view .LVU818
 2320 00dc EA8E     		ldrh	r2, [r5, #54]
 512:lvgl/lvgl/src/widgets/lv_table.c ****             res = lv_event_send(obj, LV_EVENT_VALUE_CHANGED, NULL);
 2321              		.loc 1 512 49 discriminator 1 view .LVU819
 2322 00de 9A42     		cmp	r2, r3
 2323 00e0 00D0     		beq	.L92
ARM GAS  C:\Users\gx\AppData\Local\Temp\ccSIsGPa.s 			page 80


 512:lvgl/lvgl/src/widgets/lv_table.c ****             res = lv_event_send(obj, LV_EVENT_VALUE_CHANGED, NULL);
 2324              		.loc 1 512 89 discriminator 2 view .LVU820
 2325 00e2 60B1     		cbz	r0, .L126
 2326              	.LVL240:
 2327              	.L92:
 517:lvgl/lvgl/src/widgets/lv_table.c ****         if(indev_type == LV_INDEV_TYPE_POINTER || indev_type == LV_INDEV_TYPE_BUTTON) {
 2328              		.loc 1 517 9 is_stmt 1 view .LVU821
 517:lvgl/lvgl/src/widgets/lv_table.c ****         if(indev_type == LV_INDEV_TYPE_POINTER || indev_type == LV_INDEV_TYPE_BUTTON) {
 2329              		.loc 1 517 56 is_stmt 0 view .LVU822
 2330 00e4 FFF7FEFF 		bl	lv_indev_get_act
 2331              	.LVL241:
 517:lvgl/lvgl/src/widgets/lv_table.c ****         if(indev_type == LV_INDEV_TYPE_POINTER || indev_type == LV_INDEV_TYPE_BUTTON) {
 2332              		.loc 1 517 38 view .LVU823
 2333 00e8 FFF7FEFF 		bl	lv_indev_get_type
 2334              	.LVL242:
 518:lvgl/lvgl/src/widgets/lv_table.c ****             table->col_act = LV_TABLE_CELL_NONE;
 2335              		.loc 1 518 9 is_stmt 1 view .LVU824
 518:lvgl/lvgl/src/widgets/lv_table.c ****             table->col_act = LV_TABLE_CELL_NONE;
 2336              		.loc 1 518 11 is_stmt 0 view .LVU825
 2337 00ec 0128     		cmp	r0, #1
 2338 00ee 01D0     		beq	.L93
 518:lvgl/lvgl/src/widgets/lv_table.c ****             table->col_act = LV_TABLE_CELL_NONE;
 2339              		.loc 1 518 48 discriminator 1 view .LVU826
 2340 00f0 0328     		cmp	r0, #3
 2341 00f2 8DD1     		bne	.L80
 2342              	.L93:
 519:lvgl/lvgl/src/widgets/lv_table.c ****             table->row_act = LV_TABLE_CELL_NONE;
 2343              		.loc 1 519 13 is_stmt 1 view .LVU827
 519:lvgl/lvgl/src/widgets/lv_table.c ****             table->row_act = LV_TABLE_CELL_NONE;
 2344              		.loc 1 519 28 is_stmt 0 view .LVU828
 2345 00f4 4FF6FF73 		movw	r3, #65535
 2346 00f8 AB86     		strh	r3, [r5, #52]	@ movhi
 520:lvgl/lvgl/src/widgets/lv_table.c ****         }
 2347              		.loc 1 520 13 is_stmt 1 view .LVU829
 520:lvgl/lvgl/src/widgets/lv_table.c ****         }
 2348              		.loc 1 520 28 is_stmt 0 view .LVU830
 2349 00fa EB86     		strh	r3, [r5, #54]	@ movhi
 2350 00fc 88E7     		b	.L80
 2351              	.LVL243:
 2352              	.L126:
 513:lvgl/lvgl/src/widgets/lv_table.c ****             if(res != LV_RES_OK) return;
 2353              		.loc 1 513 13 is_stmt 1 view .LVU831
 513:lvgl/lvgl/src/widgets/lv_table.c ****             if(res != LV_RES_OK) return;
 2354              		.loc 1 513 19 is_stmt 0 view .LVU832
 2355 00fe 0022     		movs	r2, #0
 2356 0100 1C21     		movs	r1, #28
 2357 0102 2846     		mov	r0, r5
 2358              	.LVL244:
 513:lvgl/lvgl/src/widgets/lv_table.c ****             if(res != LV_RES_OK) return;
 2359              		.loc 1 513 19 view .LVU833
 2360 0104 FFF7FEFF 		bl	lv_event_send
 2361              	.LVL245:
 514:lvgl/lvgl/src/widgets/lv_table.c ****         }
 2362              		.loc 1 514 13 is_stmt 1 view .LVU834
 514:lvgl/lvgl/src/widgets/lv_table.c ****         }
 2363              		.loc 1 514 15 is_stmt 0 view .LVU835
 2364 0108 0128     		cmp	r0, #1
ARM GAS  C:\Users\gx\AppData\Local\Temp\ccSIsGPa.s 			page 81


 2365 010a 81D1     		bne	.L80
 2366 010c EAE7     		b	.L92
 2367              	.LVL246:
 2368              	.L120:
 514:lvgl/lvgl/src/widgets/lv_table.c ****         }
 2369              		.loc 1 514 15 view .LVU836
 2370              	.LBE159:
 524:lvgl/lvgl/src/widgets/lv_table.c ****     } else if(code == LV_EVENT_KEY) {
 2371              		.loc 1 524 9 is_stmt 1 view .LVU837
 2372 010e FFF7FEFF 		bl	lv_obj_invalidate
 2373              	.LVL247:
 524:lvgl/lvgl/src/widgets/lv_table.c ****     } else if(code == LV_EVENT_KEY) {
 2374              		.loc 1 524 9 is_stmt 0 view .LVU838
 2375 0112 7DE7     		b	.L80
 2376              	.LVL248:
 2377              	.L121:
 2378              	.LBB160:
 526:lvgl/lvgl/src/widgets/lv_table.c ****         int32_t col = table->col_act;
 2379              		.loc 1 526 9 is_stmt 1 view .LVU839
 526:lvgl/lvgl/src/widgets/lv_table.c ****         int32_t col = table->col_act;
 2380              		.loc 1 526 34 is_stmt 0 view .LVU840
 2381 0114 2046     		mov	r0, r4
 2382              	.LVL249:
 526:lvgl/lvgl/src/widgets/lv_table.c ****         int32_t col = table->col_act;
 2383              		.loc 1 526 34 view .LVU841
 2384 0116 FFF7FEFF 		bl	lv_event_get_param
 2385              	.LVL250:
 526:lvgl/lvgl/src/widgets/lv_table.c ****         int32_t col = table->col_act;
 2386              		.loc 1 526 17 view .LVU842
 2387 011a 0468     		ldr	r4, [r0]
 2388              	.LVL251:
 527:lvgl/lvgl/src/widgets/lv_table.c ****         int32_t row = table->row_act;
 2389              		.loc 1 527 9 is_stmt 1 view .LVU843
 527:lvgl/lvgl/src/widgets/lv_table.c ****         int32_t row = table->row_act;
 2390              		.loc 1 527 28 is_stmt 0 view .LVU844
 2391 011c A98E     		ldrh	r1, [r5, #52]
 2392              	.LVL252:
 528:lvgl/lvgl/src/widgets/lv_table.c ****         if(col == LV_TABLE_CELL_NONE || row == LV_TABLE_CELL_NONE) {
 2393              		.loc 1 528 9 is_stmt 1 view .LVU845
 528:lvgl/lvgl/src/widgets/lv_table.c ****         if(col == LV_TABLE_CELL_NONE || row == LV_TABLE_CELL_NONE) {
 2394              		.loc 1 528 28 is_stmt 0 view .LVU846
 2395 011e E88E     		ldrh	r0, [r5, #54]
 2396              	.LVL253:
 529:lvgl/lvgl/src/widgets/lv_table.c ****             table->col_act = 0;
 2397              		.loc 1 529 9 is_stmt 1 view .LVU847
 529:lvgl/lvgl/src/widgets/lv_table.c ****             table->col_act = 0;
 2398              		.loc 1 529 11 is_stmt 0 view .LVU848
 2399 0120 4FF6FF73 		movw	r3, #65535
 2400 0124 9942     		cmp	r1, r3
 2401 0126 14D0     		beq	.L96
 529:lvgl/lvgl/src/widgets/lv_table.c ****             table->col_act = 0;
 2402              		.loc 1 529 38 discriminator 1 view .LVU849
 2403 0128 9842     		cmp	r0, r3
 2404 012a 12D0     		beq	.L96
 536:lvgl/lvgl/src/widgets/lv_table.c ****         if(row >= table->row_cnt) row = 0;
 2405              		.loc 1 536 9 is_stmt 1 view .LVU850
 536:lvgl/lvgl/src/widgets/lv_table.c ****         if(row >= table->row_cnt) row = 0;
ARM GAS  C:\Users\gx\AppData\Local\Temp\ccSIsGPa.s 			page 82


 2406              		.loc 1 536 24 is_stmt 0 view .LVU851
 2407 012c AF8C     		ldrh	r7, [r5, #36]
 536:lvgl/lvgl/src/widgets/lv_table.c ****         if(row >= table->row_cnt) row = 0;
 2408              		.loc 1 536 11 view .LVU852
 2409 012e B942     		cmp	r1, r7
 2410 0130 16D2     		bcs	.L110
 527:lvgl/lvgl/src/widgets/lv_table.c ****         int32_t row = table->row_act;
 2411              		.loc 1 527 17 view .LVU853
 2412 0132 0A46     		mov	r2, r1
 2413              	.L98:
 2414              	.LVL254:
 537:lvgl/lvgl/src/widgets/lv_table.c **** 
 2415              		.loc 1 537 9 is_stmt 1 view .LVU854
 537:lvgl/lvgl/src/widgets/lv_table.c **** 
 2416              		.loc 1 537 24 is_stmt 0 view .LVU855
 2417 0134 EE8C     		ldrh	r6, [r5, #38]
 2418              	.LVL255:
 537:lvgl/lvgl/src/widgets/lv_table.c **** 
 2419              		.loc 1 537 11 view .LVU856
 2420 0136 B042     		cmp	r0, r6
 2421 0138 14D2     		bcs	.L111
 528:lvgl/lvgl/src/widgets/lv_table.c ****         if(col == LV_TABLE_CELL_NONE || row == LV_TABLE_CELL_NONE) {
 2422              		.loc 1 528 17 view .LVU857
 2423 013a 0346     		mov	r3, r0
 2424              	.L99:
 2425              	.LVL256:
 539:lvgl/lvgl/src/widgets/lv_table.c ****         else if(c == LV_KEY_RIGHT) col++;
 2426              		.loc 1 539 9 is_stmt 1 view .LVU858
 539:lvgl/lvgl/src/widgets/lv_table.c ****         else if(c == LV_KEY_RIGHT) col++;
 2427              		.loc 1 539 11 is_stmt 0 view .LVU859
 2428 013c 142C     		cmp	r4, #20
 2429 013e 13D0     		beq	.L127
 540:lvgl/lvgl/src/widgets/lv_table.c ****         else if(c == LV_KEY_UP) row--;
 2430              		.loc 1 540 14 is_stmt 1 view .LVU860
 540:lvgl/lvgl/src/widgets/lv_table.c ****         else if(c == LV_KEY_UP) row--;
 2431              		.loc 1 540 16 is_stmt 0 view .LVU861
 2432 0140 132C     		cmp	r4, #19
 2433 0142 1AD0     		beq	.L128
 541:lvgl/lvgl/src/widgets/lv_table.c ****         else if(c == LV_KEY_DOWN) row++;
 2434              		.loc 1 541 14 is_stmt 1 view .LVU862
 541:lvgl/lvgl/src/widgets/lv_table.c ****         else if(c == LV_KEY_DOWN) row++;
 2435              		.loc 1 541 16 is_stmt 0 view .LVU863
 2436 0144 112C     		cmp	r4, #17
 2437 0146 1AD0     		beq	.L129
 542:lvgl/lvgl/src/widgets/lv_table.c ****         else return;
 2438              		.loc 1 542 14 is_stmt 1 view .LVU864
 542:lvgl/lvgl/src/widgets/lv_table.c ****         else return;
 2439              		.loc 1 542 16 is_stmt 0 view .LVU865
 2440 0148 122C     		cmp	r4, #18
 2441 014a 7FF461AF 		bne	.L80
 542:lvgl/lvgl/src/widgets/lv_table.c ****         else return;
 2442              		.loc 1 542 35 is_stmt 1 discriminator 1 view .LVU866
 542:lvgl/lvgl/src/widgets/lv_table.c ****         else return;
 2443              		.loc 1 542 38 is_stmt 0 discriminator 1 view .LVU867
 2444 014e 0133     		adds	r3, r3, #1
 2445              	.LVL257:
 542:lvgl/lvgl/src/widgets/lv_table.c ****         else return;
ARM GAS  C:\Users\gx\AppData\Local\Temp\ccSIsGPa.s 			page 83


 2446              		.loc 1 542 38 discriminator 1 view .LVU868
 2447 0150 0BE0     		b	.L101
 2448              	.LVL258:
 2449              	.L96:
 530:lvgl/lvgl/src/widgets/lv_table.c ****             table->row_act = 0;
 2450              		.loc 1 530 13 is_stmt 1 view .LVU869
 530:lvgl/lvgl/src/widgets/lv_table.c ****             table->row_act = 0;
 2451              		.loc 1 530 28 is_stmt 0 view .LVU870
 2452 0152 0023     		movs	r3, #0
 2453 0154 AB86     		strh	r3, [r5, #52]	@ movhi
 531:lvgl/lvgl/src/widgets/lv_table.c ****             lv_obj_invalidate(obj);
 2454              		.loc 1 531 13 is_stmt 1 view .LVU871
 531:lvgl/lvgl/src/widgets/lv_table.c ****             lv_obj_invalidate(obj);
 2455              		.loc 1 531 28 is_stmt 0 view .LVU872
 2456 0156 EB86     		strh	r3, [r5, #54]	@ movhi
 532:lvgl/lvgl/src/widgets/lv_table.c ****             return;
 2457              		.loc 1 532 13 is_stmt 1 view .LVU873
 2458 0158 2846     		mov	r0, r5
 2459              	.LVL259:
 532:lvgl/lvgl/src/widgets/lv_table.c ****             return;
 2460              		.loc 1 532 13 is_stmt 0 view .LVU874
 2461 015a FFF7FEFF 		bl	lv_obj_invalidate
 2462              	.LVL260:
 533:lvgl/lvgl/src/widgets/lv_table.c ****         }
 2463              		.loc 1 533 13 is_stmt 1 view .LVU875
 2464 015e 57E7     		b	.L80
 2465              	.LVL261:
 2466              	.L110:
 536:lvgl/lvgl/src/widgets/lv_table.c ****         if(row >= table->row_cnt) row = 0;
 2467              		.loc 1 536 39 is_stmt 0 view .LVU876
 2468 0160 0022     		movs	r2, #0
 2469 0162 E7E7     		b	.L98
 2470              	.LVL262:
 2471              	.L111:
 537:lvgl/lvgl/src/widgets/lv_table.c **** 
 2472              		.loc 1 537 39 view .LVU877
 2473 0164 0023     		movs	r3, #0
 2474 0166 E9E7     		b	.L99
 2475              	.LVL263:
 2476              	.L127:
 539:lvgl/lvgl/src/widgets/lv_table.c ****         else if(c == LV_KEY_RIGHT) col++;
 2477              		.loc 1 539 30 is_stmt 1 discriminator 1 view .LVU878
 539:lvgl/lvgl/src/widgets/lv_table.c ****         else if(c == LV_KEY_RIGHT) col++;
 2478              		.loc 1 539 33 is_stmt 0 discriminator 1 view .LVU879
 2479 0168 013A     		subs	r2, r2, #1
 2480              	.LVL264:
 2481              	.L101:
 545:lvgl/lvgl/src/widgets/lv_table.c ****             if(row < table->row_cnt - 1) {
 2482              		.loc 1 545 9 is_stmt 1 view .LVU880
 545:lvgl/lvgl/src/widgets/lv_table.c ****             if(row < table->row_cnt - 1) {
 2483              		.loc 1 545 11 is_stmt 0 view .LVU881
 2484 016a 9742     		cmp	r7, r2
 2485 016c 0BDC     		bgt	.L104
 546:lvgl/lvgl/src/widgets/lv_table.c ****                 col = 0;
 2486              		.loc 1 546 13 is_stmt 1 view .LVU882
 546:lvgl/lvgl/src/widgets/lv_table.c ****                 col = 0;
 2487              		.loc 1 546 37 is_stmt 0 view .LVU883
ARM GAS  C:\Users\gx\AppData\Local\Temp\ccSIsGPa.s 			page 84


 2488 016e 721E     		subs	r2, r6, #1
 2489              	.LVL265:
 546:lvgl/lvgl/src/widgets/lv_table.c ****                 col = 0;
 2490              		.loc 1 546 15 view .LVU884
 2491 0170 9A42     		cmp	r2, r3
 2492 0172 06DD     		ble	.L105
 547:lvgl/lvgl/src/widgets/lv_table.c ****                 row++;
 2493              		.loc 1 547 17 is_stmt 1 view .LVU885
 2494              	.LVL266:
 548:lvgl/lvgl/src/widgets/lv_table.c ****             } else {
 2495              		.loc 1 548 17 view .LVU886
 548:lvgl/lvgl/src/widgets/lv_table.c ****             } else {
 2496              		.loc 1 548 20 is_stmt 0 view .LVU887
 2497 0174 0133     		adds	r3, r3, #1
 2498              	.LVL267:
 547:lvgl/lvgl/src/widgets/lv_table.c ****                 row++;
 2499              		.loc 1 547 21 view .LVU888
 2500 0176 0022     		movs	r2, #0
 2501 0178 07E0     		b	.L106
 2502              	.LVL268:
 2503              	.L128:
 540:lvgl/lvgl/src/widgets/lv_table.c ****         else if(c == LV_KEY_UP) row--;
 2504              		.loc 1 540 36 is_stmt 1 discriminator 1 view .LVU889
 540:lvgl/lvgl/src/widgets/lv_table.c ****         else if(c == LV_KEY_UP) row--;
 2505              		.loc 1 540 39 is_stmt 0 discriminator 1 view .LVU890
 2506 017a 0132     		adds	r2, r2, #1
 2507              	.LVL269:
 540:lvgl/lvgl/src/widgets/lv_table.c ****         else if(c == LV_KEY_UP) row--;
 2508              		.loc 1 540 39 discriminator 1 view .LVU891
 2509 017c F5E7     		b	.L101
 2510              	.L129:
 541:lvgl/lvgl/src/widgets/lv_table.c ****         else if(c == LV_KEY_DOWN) row++;
 2511              		.loc 1 541 33 is_stmt 1 discriminator 1 view .LVU892
 541:lvgl/lvgl/src/widgets/lv_table.c ****         else if(c == LV_KEY_DOWN) row++;
 2512              		.loc 1 541 36 is_stmt 0 discriminator 1 view .LVU893
 2513 017e 013B     		subs	r3, r3, #1
 2514              	.LVL270:
 541:lvgl/lvgl/src/widgets/lv_table.c ****         else if(c == LV_KEY_DOWN) row++;
 2515              		.loc 1 541 36 discriminator 1 view .LVU894
 2516 0180 F3E7     		b	.L101
 2517              	.LVL271:
 2518              	.L105:
 550:lvgl/lvgl/src/widgets/lv_table.c ****             }
 2519              		.loc 1 550 17 is_stmt 1 view .LVU895
 550:lvgl/lvgl/src/widgets/lv_table.c ****             }
 2520              		.loc 1 550 21 is_stmt 0 view .LVU896
 2521 0182 7A1E     		subs	r2, r7, #1
 2522              	.LVL272:
 550:lvgl/lvgl/src/widgets/lv_table.c ****             }
 2523              		.loc 1 550 21 view .LVU897
 2524 0184 01E0     		b	.L106
 2525              	.L104:
 552:lvgl/lvgl/src/widgets/lv_table.c ****             if(row != 0) {
 2526              		.loc 1 552 16 is_stmt 1 view .LVU898
 552:lvgl/lvgl/src/widgets/lv_table.c ****             if(row != 0) {
 2527              		.loc 1 552 19 is_stmt 0 view .LVU899
 2528 0186 002A     		cmp	r2, #0
ARM GAS  C:\Users\gx\AppData\Local\Temp\ccSIsGPa.s 			page 85


 2529 0188 12DB     		blt	.L130
 2530              	.LVL273:
 2531              	.L106:
 561:lvgl/lvgl/src/widgets/lv_table.c ****             row = table->row_cnt - 1;
 2532              		.loc 1 561 9 is_stmt 1 view .LVU900
 561:lvgl/lvgl/src/widgets/lv_table.c ****             row = table->row_cnt - 1;
 2533              		.loc 1 561 11 is_stmt 0 view .LVU901
 2534 018a 9E42     		cmp	r6, r3
 2535 018c 16DC     		bgt	.L107
 562:lvgl/lvgl/src/widgets/lv_table.c ****         } else if(row < 0) {
 2536              		.loc 1 562 13 is_stmt 1 view .LVU902
 562:lvgl/lvgl/src/widgets/lv_table.c ****         } else if(row < 0) {
 2537              		.loc 1 562 17 is_stmt 0 view .LVU903
 2538 018e 731E     		subs	r3, r6, #1
 2539              	.LVL274:
 2540              	.L108:
 567:lvgl/lvgl/src/widgets/lv_table.c ****             table->col_act = col;
 2541              		.loc 1 567 9 is_stmt 1 view .LVU904
 567:lvgl/lvgl/src/widgets/lv_table.c ****             table->col_act = col;
 2542              		.loc 1 567 11 is_stmt 0 view .LVU905
 2543 0190 8A42     		cmp	r2, r1
 2544 0192 02D1     		bne	.L109
 567:lvgl/lvgl/src/widgets/lv_table.c ****             table->col_act = col;
 2545              		.loc 1 567 34 discriminator 1 view .LVU906
 2546 0194 8342     		cmp	r3, r0
 2547 0196 3FF43BAF 		beq	.L80
 2548              	.L109:
 568:lvgl/lvgl/src/widgets/lv_table.c ****             table->row_act = row;
 2549              		.loc 1 568 13 is_stmt 1 view .LVU907
 568:lvgl/lvgl/src/widgets/lv_table.c ****             table->row_act = row;
 2550              		.loc 1 568 28 is_stmt 0 view .LVU908
 2551 019a AA86     		strh	r2, [r5, #52]	@ movhi
 569:lvgl/lvgl/src/widgets/lv_table.c ****             lv_obj_invalidate(obj);
 2552              		.loc 1 569 13 is_stmt 1 view .LVU909
 569:lvgl/lvgl/src/widgets/lv_table.c ****             lv_obj_invalidate(obj);
 2553              		.loc 1 569 28 is_stmt 0 view .LVU910
 2554 019c EB86     		strh	r3, [r5, #54]	@ movhi
 570:lvgl/lvgl/src/widgets/lv_table.c **** 
 2555              		.loc 1 570 13 is_stmt 1 view .LVU911
 2556 019e 2846     		mov	r0, r5
 2557 01a0 FFF7FEFF 		bl	lv_obj_invalidate
 2558              	.LVL275:
 572:lvgl/lvgl/src/widgets/lv_table.c ****             if(res != LV_RES_OK) return;
 2559              		.loc 1 572 13 view .LVU912
 572:lvgl/lvgl/src/widgets/lv_table.c ****             if(res != LV_RES_OK) return;
 2560              		.loc 1 572 19 is_stmt 0 view .LVU913
 2561 01a4 0022     		movs	r2, #0
 2562 01a6 1C21     		movs	r1, #28
 2563 01a8 2846     		mov	r0, r5
 2564 01aa FFF7FEFF 		bl	lv_event_send
 2565              	.LVL276:
 573:lvgl/lvgl/src/widgets/lv_table.c ****         }
 2566              		.loc 1 573 13 is_stmt 1 view .LVU914
 2567 01ae 2FE7     		b	.L80
 2568              	.LVL277:
 2569              	.L130:
 553:lvgl/lvgl/src/widgets/lv_table.c ****                 col = table->col_cnt - 1;
ARM GAS  C:\Users\gx\AppData\Local\Temp\ccSIsGPa.s 			page 86


 2570              		.loc 1 553 13 view .LVU915
 553:lvgl/lvgl/src/widgets/lv_table.c ****                 col = table->col_cnt - 1;
 2571              		.loc 1 553 15 is_stmt 0 view .LVU916
 2572 01b0 13B1     		cbz	r3, .L112
 554:lvgl/lvgl/src/widgets/lv_table.c ****                 row--;
 2573              		.loc 1 554 17 is_stmt 1 view .LVU917
 554:lvgl/lvgl/src/widgets/lv_table.c ****                 row--;
 2574              		.loc 1 554 21 is_stmt 0 view .LVU918
 2575 01b2 7A1E     		subs	r2, r7, #1
 2576              	.LVL278:
 555:lvgl/lvgl/src/widgets/lv_table.c ****             } else {
 2577              		.loc 1 555 17 is_stmt 1 view .LVU919
 555:lvgl/lvgl/src/widgets/lv_table.c ****             } else {
 2578              		.loc 1 555 20 is_stmt 0 view .LVU920
 2579 01b4 013B     		subs	r3, r3, #1
 2580              	.LVL279:
 555:lvgl/lvgl/src/widgets/lv_table.c ****             } else {
 2581              		.loc 1 555 20 view .LVU921
 2582 01b6 E8E7     		b	.L106
 2583              	.L112:
 557:lvgl/lvgl/src/widgets/lv_table.c ****             }
 2584              		.loc 1 557 21 view .LVU922
 2585 01b8 1A46     		mov	r2, r3
 2586              	.LVL280:
 557:lvgl/lvgl/src/widgets/lv_table.c ****             }
 2587              		.loc 1 557 21 view .LVU923
 2588 01ba E6E7     		b	.L106
 2589              	.LVL281:
 2590              	.L107:
 563:lvgl/lvgl/src/widgets/lv_table.c ****             row = 0;
 2591              		.loc 1 563 16 is_stmt 1 view .LVU924
 563:lvgl/lvgl/src/widgets/lv_table.c ****             row = 0;
 2592              		.loc 1 563 18 is_stmt 0 view .LVU925
 2593 01bc 002B     		cmp	r3, #0
 2594 01be E7DA     		bge	.L108
 564:lvgl/lvgl/src/widgets/lv_table.c ****         }
 2595              		.loc 1 564 17 view .LVU926
 2596 01c0 0023     		movs	r3, #0
 2597              	.LVL282:
 564:lvgl/lvgl/src/widgets/lv_table.c ****         }
 2598              		.loc 1 564 17 view .LVU927
 2599 01c2 E5E7     		b	.L108
 2600              	.L132:
 2601              		.align	2
 2602              	.L131:
 2603 01c4 00000000 		.word	.LANCHOR0
 2604              	.LBE160:
 2605              		.cfi_endproc
 2606              	.LFE168:
 2608              		.section	.text.lv_table_destructor,"ax",%progbits
 2609              		.align	1
 2610              		.syntax unified
 2611              		.thumb
 2612              		.thumb_func
 2613              		.fpu fpv4-sp-d16
 2615              	lv_table_destructor:
 2616              	.LVL283:
ARM GAS  C:\Users\gx\AppData\Local\Temp\ccSIsGPa.s 			page 87


 2617              	.LFB167:
 452:lvgl/lvgl/src/widgets/lv_table.c ****     LV_UNUSED(class_p);
 2618              		.loc 1 452 1 is_stmt 1 view -0
 2619              		.cfi_startproc
 2620              		@ args = 0, pretend = 0, frame = 0
 2621              		@ frame_needed = 0, uses_anonymous_args = 0
 452:lvgl/lvgl/src/widgets/lv_table.c ****     LV_UNUSED(class_p);
 2622              		.loc 1 452 1 is_stmt 0 view .LVU929
 2623 0000 38B5     		push	{r3, r4, r5, lr}
 2624              	.LCFI18:
 2625              		.cfi_def_cfa_offset 16
 2626              		.cfi_offset 3, -16
 2627              		.cfi_offset 4, -12
 2628              		.cfi_offset 5, -8
 2629              		.cfi_offset 14, -4
 2630 0002 0D46     		mov	r5, r1
 453:lvgl/lvgl/src/widgets/lv_table.c ****     lv_table_t * table = (lv_table_t *)obj;
 2631              		.loc 1 453 5 is_stmt 1 view .LVU930
 454:lvgl/lvgl/src/widgets/lv_table.c ****     /*Free the cell texts*/
 2632              		.loc 1 454 5 view .LVU931
 2633              	.LVL284:
 456:lvgl/lvgl/src/widgets/lv_table.c ****     for(i = 0; i < table->col_cnt * table->row_cnt; i++) {
 2634              		.loc 1 456 5 view .LVU932
 457:lvgl/lvgl/src/widgets/lv_table.c ****         if(table->cell_data[i]) {
 2635              		.loc 1 457 5 view .LVU933
 457:lvgl/lvgl/src/widgets/lv_table.c ****         if(table->cell_data[i]) {
 2636              		.loc 1 457 11 is_stmt 0 view .LVU934
 2637 0004 0024     		movs	r4, #0
 457:lvgl/lvgl/src/widgets/lv_table.c ****         if(table->cell_data[i]) {
 2638              		.loc 1 457 5 view .LVU935
 2639 0006 07E0     		b	.L134
 2640              	.LVL285:
 2641              	.L141:
 459:lvgl/lvgl/src/widgets/lv_table.c ****             table->cell_data[i] = NULL;
 2642              		.loc 1 459 13 is_stmt 1 view .LVU936
 2643 0008 FFF7FEFF 		bl	lv_mem_free
 2644              	.LVL286:
 460:lvgl/lvgl/src/widgets/lv_table.c ****         }
 2645              		.loc 1 460 13 view .LVU937
 460:lvgl/lvgl/src/widgets/lv_table.c ****         }
 2646              		.loc 1 460 18 is_stmt 0 view .LVU938
 2647 000c AB6A     		ldr	r3, [r5, #40]
 460:lvgl/lvgl/src/widgets/lv_table.c ****         }
 2648              		.loc 1 460 33 view .LVU939
 2649 000e 0022     		movs	r2, #0
 2650 0010 43F82420 		str	r2, [r3, r4, lsl #2]
 2651              	.L135:
 457:lvgl/lvgl/src/widgets/lv_table.c ****         if(table->cell_data[i]) {
 2652              		.loc 1 457 53 is_stmt 1 discriminator 2 view .LVU940
 457:lvgl/lvgl/src/widgets/lv_table.c ****         if(table->cell_data[i]) {
 2653              		.loc 1 457 54 is_stmt 0 discriminator 2 view .LVU941
 2654 0014 0134     		adds	r4, r4, #1
 2655              	.LVL287:
 457:lvgl/lvgl/src/widgets/lv_table.c ****         if(table->cell_data[i]) {
 2656              		.loc 1 457 54 discriminator 2 view .LVU942
 2657 0016 A4B2     		uxth	r4, r4
 2658              	.LVL288:
ARM GAS  C:\Users\gx\AppData\Local\Temp\ccSIsGPa.s 			page 88


 2659              	.L134:
 457:lvgl/lvgl/src/widgets/lv_table.c ****         if(table->cell_data[i]) {
 2660              		.loc 1 457 16 is_stmt 1 discriminator 1 view .LVU943
 457:lvgl/lvgl/src/widgets/lv_table.c ****         if(table->cell_data[i]) {
 2661              		.loc 1 457 25 is_stmt 0 discriminator 1 view .LVU944
 2662 0018 AA8C     		ldrh	r2, [r5, #36]
 457:lvgl/lvgl/src/widgets/lv_table.c ****         if(table->cell_data[i]) {
 2663              		.loc 1 457 42 discriminator 1 view .LVU945
 2664 001a EB8C     		ldrh	r3, [r5, #38]
 457:lvgl/lvgl/src/widgets/lv_table.c ****         if(table->cell_data[i]) {
 2665              		.loc 1 457 35 discriminator 1 view .LVU946
 2666 001c 03FB02F3 		mul	r3, r3, r2
 457:lvgl/lvgl/src/widgets/lv_table.c ****         if(table->cell_data[i]) {
 2667              		.loc 1 457 5 discriminator 1 view .LVU947
 2668 0020 9C42     		cmp	r4, r3
 2669 0022 05DA     		bge	.L140
 458:lvgl/lvgl/src/widgets/lv_table.c ****             lv_mem_free(table->cell_data[i]);
 2670              		.loc 1 458 9 is_stmt 1 view .LVU948
 458:lvgl/lvgl/src/widgets/lv_table.c ****             lv_mem_free(table->cell_data[i]);
 2671              		.loc 1 458 17 is_stmt 0 view .LVU949
 2672 0024 AB6A     		ldr	r3, [r5, #40]
 458:lvgl/lvgl/src/widgets/lv_table.c ****             lv_mem_free(table->cell_data[i]);
 2673              		.loc 1 458 28 view .LVU950
 2674 0026 53F82400 		ldr	r0, [r3, r4, lsl #2]
 458:lvgl/lvgl/src/widgets/lv_table.c ****             lv_mem_free(table->cell_data[i]);
 2675              		.loc 1 458 11 view .LVU951
 2676 002a 0028     		cmp	r0, #0
 2677 002c ECD1     		bne	.L141
 2678 002e F1E7     		b	.L135
 2679              	.L140:
 464:lvgl/lvgl/src/widgets/lv_table.c ****     if(table->row_h) lv_mem_free(table->row_h);
 2680              		.loc 1 464 5 is_stmt 1 view .LVU952
 464:lvgl/lvgl/src/widgets/lv_table.c ****     if(table->row_h) lv_mem_free(table->row_h);
 2681              		.loc 1 464 13 is_stmt 0 view .LVU953
 2682 0030 A86A     		ldr	r0, [r5, #40]
 464:lvgl/lvgl/src/widgets/lv_table.c ****     if(table->row_h) lv_mem_free(table->row_h);
 2683              		.loc 1 464 7 view .LVU954
 2684 0032 08B1     		cbz	r0, .L137
 464:lvgl/lvgl/src/widgets/lv_table.c ****     if(table->row_h) lv_mem_free(table->row_h);
 2685              		.loc 1 464 26 is_stmt 1 discriminator 1 view .LVU955
 2686 0034 FFF7FEFF 		bl	lv_mem_free
 2687              	.LVL289:
 2688              	.L137:
 465:lvgl/lvgl/src/widgets/lv_table.c **** }
 2689              		.loc 1 465 5 view .LVU956
 465:lvgl/lvgl/src/widgets/lv_table.c **** }
 2690              		.loc 1 465 13 is_stmt 0 view .LVU957
 2691 0038 E86A     		ldr	r0, [r5, #44]
 465:lvgl/lvgl/src/widgets/lv_table.c **** }
 2692              		.loc 1 465 7 view .LVU958
 2693 003a 08B1     		cbz	r0, .L133
 465:lvgl/lvgl/src/widgets/lv_table.c **** }
 2694              		.loc 1 465 22 is_stmt 1 discriminator 1 view .LVU959
 2695 003c FFF7FEFF 		bl	lv_mem_free
 2696              	.LVL290:
 2697              	.L133:
 466:lvgl/lvgl/src/widgets/lv_table.c **** 
ARM GAS  C:\Users\gx\AppData\Local\Temp\ccSIsGPa.s 			page 89


 2698              		.loc 1 466 1 is_stmt 0 view .LVU960
 2699 0040 38BD     		pop	{r3, r4, r5, pc}
 466:lvgl/lvgl/src/widgets/lv_table.c **** 
 2700              		.loc 1 466 1 view .LVU961
 2701              		.cfi_endproc
 2702              	.LFE167:
 2704              		.section	.text.lv_table_constructor,"ax",%progbits
 2705              		.align	1
 2706              		.syntax unified
 2707              		.thumb
 2708              		.thumb_func
 2709              		.fpu fpv4-sp-d16
 2711              	lv_table_constructor:
 2712              	.LVL291:
 2713              	.LFB166:
 433:lvgl/lvgl/src/widgets/lv_table.c ****     LV_UNUSED(class_p);
 2714              		.loc 1 433 1 is_stmt 1 view -0
 2715              		.cfi_startproc
 2716              		@ args = 0, pretend = 0, frame = 0
 2717              		@ frame_needed = 0, uses_anonymous_args = 0
 433:lvgl/lvgl/src/widgets/lv_table.c ****     LV_UNUSED(class_p);
 2718              		.loc 1 433 1 is_stmt 0 view .LVU963
 2719 0000 10B5     		push	{r4, lr}
 2720              	.LCFI19:
 2721              		.cfi_def_cfa_offset 8
 2722              		.cfi_offset 4, -8
 2723              		.cfi_offset 14, -4
 2724 0002 0C46     		mov	r4, r1
 434:lvgl/lvgl/src/widgets/lv_table.c ****     LV_TRACE_OBJ_CREATE("begin");
 2725              		.loc 1 434 5 is_stmt 1 view .LVU964
 435:lvgl/lvgl/src/widgets/lv_table.c **** 
 2726              		.loc 1 435 5 view .LVU965
 435:lvgl/lvgl/src/widgets/lv_table.c **** 
 2727              		.loc 1 435 5 view .LVU966
 435:lvgl/lvgl/src/widgets/lv_table.c **** 
 2728              		.loc 1 435 5 view .LVU967
 435:lvgl/lvgl/src/widgets/lv_table.c **** 
 2729              		.loc 1 435 33 view .LVU968
 437:lvgl/lvgl/src/widgets/lv_table.c **** 
 2730              		.loc 1 437 5 view .LVU969
 2731              	.LVL292:
 439:lvgl/lvgl/src/widgets/lv_table.c ****     table->row_cnt = 1;
 2732              		.loc 1 439 5 view .LVU970
 439:lvgl/lvgl/src/widgets/lv_table.c ****     table->row_cnt = 1;
 2733              		.loc 1 439 20 is_stmt 0 view .LVU971
 2734 0004 0123     		movs	r3, #1
 2735 0006 8B84     		strh	r3, [r1, #36]	@ movhi
 440:lvgl/lvgl/src/widgets/lv_table.c ****     table->col_w = lv_mem_alloc(table->col_cnt * sizeof(table->col_w[0]));
 2736              		.loc 1 440 5 is_stmt 1 view .LVU972
 440:lvgl/lvgl/src/widgets/lv_table.c ****     table->col_w = lv_mem_alloc(table->col_cnt * sizeof(table->col_w[0]));
 2737              		.loc 1 440 20 is_stmt 0 view .LVU973
 2738 0008 CB84     		strh	r3, [r1, #38]	@ movhi
 441:lvgl/lvgl/src/widgets/lv_table.c ****     table->row_h = lv_mem_alloc(table->row_cnt * sizeof(table->row_h[0]));
 2739              		.loc 1 441 5 is_stmt 1 view .LVU974
 441:lvgl/lvgl/src/widgets/lv_table.c ****     table->row_h = lv_mem_alloc(table->row_cnt * sizeof(table->row_h[0]));
 2740              		.loc 1 441 20 is_stmt 0 view .LVU975
 2741 000a 0220     		movs	r0, #2
ARM GAS  C:\Users\gx\AppData\Local\Temp\ccSIsGPa.s 			page 90


 2742              	.LVL293:
 441:lvgl/lvgl/src/widgets/lv_table.c ****     table->row_h = lv_mem_alloc(table->row_cnt * sizeof(table->row_h[0]));
 2743              		.loc 1 441 20 view .LVU976
 2744 000c FFF7FEFF 		bl	lv_mem_alloc
 2745              	.LVL294:
 441:lvgl/lvgl/src/widgets/lv_table.c ****     table->row_h = lv_mem_alloc(table->row_cnt * sizeof(table->row_h[0]));
 2746              		.loc 1 441 18 view .LVU977
 2747 0010 2063     		str	r0, [r4, #48]
 442:lvgl/lvgl/src/widgets/lv_table.c ****     table->col_w[0] = LV_DPI_DEF;
 2748              		.loc 1 442 5 is_stmt 1 view .LVU978
 442:lvgl/lvgl/src/widgets/lv_table.c ****     table->col_w[0] = LV_DPI_DEF;
 2749              		.loc 1 442 38 is_stmt 0 view .LVU979
 2750 0012 E08C     		ldrh	r0, [r4, #38]
 442:lvgl/lvgl/src/widgets/lv_table.c ****     table->col_w[0] = LV_DPI_DEF;
 2751              		.loc 1 442 20 view .LVU980
 2752 0014 4000     		lsls	r0, r0, #1
 2753 0016 FFF7FEFF 		bl	lv_mem_alloc
 2754              	.LVL295:
 442:lvgl/lvgl/src/widgets/lv_table.c ****     table->col_w[0] = LV_DPI_DEF;
 2755              		.loc 1 442 18 view .LVU981
 2756 001a E062     		str	r0, [r4, #44]
 443:lvgl/lvgl/src/widgets/lv_table.c ****     table->row_h[0] = LV_DPI_DEF;
 2757              		.loc 1 443 5 is_stmt 1 view .LVU982
 443:lvgl/lvgl/src/widgets/lv_table.c ****     table->row_h[0] = LV_DPI_DEF;
 2758              		.loc 1 443 10 is_stmt 0 view .LVU983
 2759 001c 226B     		ldr	r2, [r4, #48]
 443:lvgl/lvgl/src/widgets/lv_table.c ****     table->row_h[0] = LV_DPI_DEF;
 2760              		.loc 1 443 21 view .LVU984
 2761 001e 8223     		movs	r3, #130
 2762 0020 1380     		strh	r3, [r2]	@ movhi
 444:lvgl/lvgl/src/widgets/lv_table.c ****     table->cell_data = lv_mem_realloc(table->cell_data, table->row_cnt * table->col_cnt * sizeof(ch
 2763              		.loc 1 444 5 is_stmt 1 view .LVU985
 444:lvgl/lvgl/src/widgets/lv_table.c ****     table->cell_data = lv_mem_realloc(table->cell_data, table->row_cnt * table->col_cnt * sizeof(ch
 2764              		.loc 1 444 10 is_stmt 0 view .LVU986
 2765 0022 E26A     		ldr	r2, [r4, #44]
 444:lvgl/lvgl/src/widgets/lv_table.c ****     table->cell_data = lv_mem_realloc(table->cell_data, table->row_cnt * table->col_cnt * sizeof(ch
 2766              		.loc 1 444 21 view .LVU987
 2767 0024 1380     		strh	r3, [r2]	@ movhi
 445:lvgl/lvgl/src/widgets/lv_table.c ****     table->cell_data[0] = NULL;
 2768              		.loc 1 445 5 is_stmt 1 view .LVU988
 445:lvgl/lvgl/src/widgets/lv_table.c ****     table->cell_data[0] = NULL;
 2769              		.loc 1 445 62 is_stmt 0 view .LVU989
 2770 0026 E38C     		ldrh	r3, [r4, #38]
 445:lvgl/lvgl/src/widgets/lv_table.c ****     table->cell_data[0] = NULL;
 2771              		.loc 1 445 79 view .LVU990
 2772 0028 A18C     		ldrh	r1, [r4, #36]
 445:lvgl/lvgl/src/widgets/lv_table.c ****     table->cell_data[0] = NULL;
 2773              		.loc 1 445 72 view .LVU991
 2774 002a 01FB03F1 		mul	r1, r1, r3
 445:lvgl/lvgl/src/widgets/lv_table.c ****     table->cell_data[0] = NULL;
 2775              		.loc 1 445 24 view .LVU992
 2776 002e 8900     		lsls	r1, r1, #2
 2777 0030 A06A     		ldr	r0, [r4, #40]
 2778 0032 FFF7FEFF 		bl	lv_mem_realloc
 2779              	.LVL296:
 445:lvgl/lvgl/src/widgets/lv_table.c ****     table->cell_data[0] = NULL;
 2780              		.loc 1 445 22 view .LVU993
ARM GAS  C:\Users\gx\AppData\Local\Temp\ccSIsGPa.s 			page 91


 2781 0036 A062     		str	r0, [r4, #40]
 446:lvgl/lvgl/src/widgets/lv_table.c **** 
 2782              		.loc 1 446 5 is_stmt 1 view .LVU994
 446:lvgl/lvgl/src/widgets/lv_table.c **** 
 2783              		.loc 1 446 25 is_stmt 0 view .LVU995
 2784 0038 0023     		movs	r3, #0
 2785 003a 0360     		str	r3, [r0]
 448:lvgl/lvgl/src/widgets/lv_table.c **** }
 2786              		.loc 1 448 5 is_stmt 1 view .LVU996
 448:lvgl/lvgl/src/widgets/lv_table.c **** }
 2787              		.loc 1 448 5 view .LVU997
 448:lvgl/lvgl/src/widgets/lv_table.c **** }
 2788              		.loc 1 448 5 view .LVU998
 448:lvgl/lvgl/src/widgets/lv_table.c **** }
 2789              		.loc 1 448 36 view .LVU999
 449:lvgl/lvgl/src/widgets/lv_table.c **** 
 2790              		.loc 1 449 1 is_stmt 0 view .LVU1000
 2791 003c 10BD     		pop	{r4, pc}
 449:lvgl/lvgl/src/widgets/lv_table.c **** 
 2792              		.loc 1 449 1 view .LVU1001
 2793              		.cfi_endproc
 2794              	.LFE166:
 2796              		.section	.text.lv_table_create,"ax",%progbits
 2797              		.align	1
 2798              		.global	lv_table_create
 2799              		.syntax unified
 2800              		.thumb
 2801              		.thumb_func
 2802              		.fpu fpv4-sp-d16
 2804              	lv_table_create:
 2805              	.LVL297:
 2806              	.LFB152:
  65:lvgl/lvgl/src/widgets/lv_table.c ****     LV_LOG_INFO("begin")
 2807              		.loc 1 65 1 is_stmt 1 view -0
 2808              		.cfi_startproc
 2809              		@ args = 0, pretend = 0, frame = 0
 2810              		@ frame_needed = 0, uses_anonymous_args = 0
  65:lvgl/lvgl/src/widgets/lv_table.c ****     LV_LOG_INFO("begin")
 2811              		.loc 1 65 1 is_stmt 0 view .LVU1003
 2812 0000 10B5     		push	{r4, lr}
 2813              	.LCFI20:
 2814              		.cfi_def_cfa_offset 8
 2815              		.cfi_offset 4, -8
 2816              		.cfi_offset 14, -4
 2817 0002 0146     		mov	r1, r0
  66:lvgl/lvgl/src/widgets/lv_table.c ****     lv_obj_t * obj = lv_obj_class_create_obj(MY_CLASS, parent);
 2818              		.loc 1 66 5 is_stmt 1 view .LVU1004
  66:lvgl/lvgl/src/widgets/lv_table.c ****     lv_obj_t * obj = lv_obj_class_create_obj(MY_CLASS, parent);
 2819              		.loc 1 66 5 view .LVU1005
  66:lvgl/lvgl/src/widgets/lv_table.c ****     lv_obj_t * obj = lv_obj_class_create_obj(MY_CLASS, parent);
 2820              		.loc 1 66 5 view .LVU1006
  67:lvgl/lvgl/src/widgets/lv_table.c ****     lv_obj_class_init_obj(obj);
 2821              		.loc 1 67 5 view .LVU1007
  67:lvgl/lvgl/src/widgets/lv_table.c ****     lv_obj_class_init_obj(obj);
 2822              		.loc 1 67 22 is_stmt 0 view .LVU1008
 2823 0004 0348     		ldr	r0, .L146
 2824              	.LVL298:
ARM GAS  C:\Users\gx\AppData\Local\Temp\ccSIsGPa.s 			page 92


  67:lvgl/lvgl/src/widgets/lv_table.c ****     lv_obj_class_init_obj(obj);
 2825              		.loc 1 67 22 view .LVU1009
 2826 0006 FFF7FEFF 		bl	lv_obj_class_create_obj
 2827              	.LVL299:
  67:lvgl/lvgl/src/widgets/lv_table.c ****     lv_obj_class_init_obj(obj);
 2828              		.loc 1 67 22 view .LVU1010
 2829 000a 0446     		mov	r4, r0
 2830              	.LVL300:
  68:lvgl/lvgl/src/widgets/lv_table.c ****     return obj;
 2831              		.loc 1 68 5 is_stmt 1 view .LVU1011
 2832 000c FFF7FEFF 		bl	lv_obj_class_init_obj
 2833              	.LVL301:
  69:lvgl/lvgl/src/widgets/lv_table.c **** }
 2834              		.loc 1 69 5 view .LVU1012
  70:lvgl/lvgl/src/widgets/lv_table.c **** 
 2835              		.loc 1 70 1 is_stmt 0 view .LVU1013
 2836 0010 2046     		mov	r0, r4
 2837 0012 10BD     		pop	{r4, pc}
 2838              	.LVL302:
 2839              	.L147:
  70:lvgl/lvgl/src/widgets/lv_table.c **** 
 2840              		.loc 1 70 1 view .LVU1014
 2841              		.align	2
 2842              	.L146:
 2843 0014 00000000 		.word	.LANCHOR0
 2844              		.cfi_endproc
 2845              	.LFE152:
 2847              		.section	.rodata.lv_table_set_row_cnt.str1.4,"aMS",%progbits,1
 2848              		.align	2
 2849              	.LC0:
 2850 0000 6C76676C 		.ascii	"lvgl/lvgl/src/widgets/lv_table.c\000"
 2850      2F6C7667 
 2850      6C2F7372 
 2850      632F7769 
 2850      64676574 
 2851 0021 000000   		.align	2
 2852              	.LC1:
 2853 0024 4F757420 		.ascii	"Out of memory\000"
 2853      6F66206D 
 2853      656D6F72 
 2853      7900
 2854 0032 0000     		.align	2
 2855              	.LC2:
 2856 0034 7461626C 		.ascii	"table->row_h != NULL\000"
 2856      652D3E72 
 2856      6F775F68 
 2856      20213D20 
 2856      4E554C4C 
 2857 0049 000000   		.align	2
 2858              	.LC3:
 2859 004c 41737365 		.ascii	"Asserted at expression: %s (%s)\000"
 2859      72746564 
 2859      20617420 
 2859      65787072 
 2859      65737369 
 2860              		.align	2
 2861              	.LC4:
ARM GAS  C:\Users\gx\AppData\Local\Temp\ccSIsGPa.s 			page 93


 2862 006c 7461626C 		.ascii	"table->cell_data != NULL\000"
 2862      652D3E63 
 2862      656C6C5F 
 2862      64617461 
 2862      20213D20 
 2863              		.section	.text.lv_table_set_row_cnt,"ax",%progbits
 2864              		.align	1
 2865              		.global	lv_table_set_row_cnt
 2866              		.syntax unified
 2867              		.thumb
 2868              		.thumb_func
 2869              		.fpu fpv4-sp-d16
 2871              	lv_table_set_row_cnt:
 2872              	.LVL303:
 2873              	.LFB155:
 206:lvgl/lvgl/src/widgets/lv_table.c ****     LV_ASSERT_OBJ(obj, MY_CLASS);
 2874              		.loc 1 206 1 is_stmt 1 view -0
 2875              		.cfi_startproc
 2876              		@ args = 0, pretend = 0, frame = 0
 2877              		@ frame_needed = 0, uses_anonymous_args = 0
 206:lvgl/lvgl/src/widgets/lv_table.c ****     LV_ASSERT_OBJ(obj, MY_CLASS);
 2878              		.loc 1 206 1 is_stmt 0 view .LVU1016
 2879 0000 2DE9F041 		push	{r4, r5, r6, r7, r8, lr}
 2880              	.LCFI21:
 2881              		.cfi_def_cfa_offset 24
 2882              		.cfi_offset 4, -24
 2883              		.cfi_offset 5, -20
 2884              		.cfi_offset 6, -16
 2885              		.cfi_offset 7, -12
 2886              		.cfi_offset 8, -8
 2887              		.cfi_offset 14, -4
 2888 0004 84B0     		sub	sp, sp, #16
 2889              	.LCFI22:
 2890              		.cfi_def_cfa_offset 40
 2891 0006 0446     		mov	r4, r0
 2892 0008 0F46     		mov	r7, r1
 207:lvgl/lvgl/src/widgets/lv_table.c **** 
 2893              		.loc 1 207 5 is_stmt 1 view .LVU1017
 207:lvgl/lvgl/src/widgets/lv_table.c **** 
 2894              		.loc 1 207 5 view .LVU1018
 207:lvgl/lvgl/src/widgets/lv_table.c **** 
 2895              		.loc 1 207 5 view .LVU1019
 209:lvgl/lvgl/src/widgets/lv_table.c ****     uint16_t old_row_cnt = table->row_cnt;
 2896              		.loc 1 209 5 view .LVU1020
 2897              	.LVL304:
 210:lvgl/lvgl/src/widgets/lv_table.c ****     table->row_cnt         = row_cnt;
 2898              		.loc 1 210 5 view .LVU1021
 210:lvgl/lvgl/src/widgets/lv_table.c ****     table->row_cnt         = row_cnt;
 2899              		.loc 1 210 14 is_stmt 0 view .LVU1022
 2900 000a C58C     		ldrh	r5, [r0, #38]
 2901              	.LVL305:
 211:lvgl/lvgl/src/widgets/lv_table.c **** 
 2902              		.loc 1 211 5 is_stmt 1 view .LVU1023
 211:lvgl/lvgl/src/widgets/lv_table.c **** 
 2903              		.loc 1 211 28 is_stmt 0 view .LVU1024
 2904 000c C184     		strh	r1, [r0, #38]	@ movhi
 213:lvgl/lvgl/src/widgets/lv_table.c ****     LV_ASSERT_MALLOC(table->row_h);
ARM GAS  C:\Users\gx\AppData\Local\Temp\ccSIsGPa.s 			page 94


 2905              		.loc 1 213 5 is_stmt 1 view .LVU1025
 213:lvgl/lvgl/src/widgets/lv_table.c ****     LV_ASSERT_MALLOC(table->row_h);
 2906              		.loc 1 213 20 is_stmt 0 view .LVU1026
 2907 000e 4900     		lsls	r1, r1, #1
 2908              	.LVL306:
 213:lvgl/lvgl/src/widgets/lv_table.c ****     LV_ASSERT_MALLOC(table->row_h);
 2909              		.loc 1 213 20 view .LVU1027
 2910 0010 C06A     		ldr	r0, [r0, #44]
 2911              	.LVL307:
 213:lvgl/lvgl/src/widgets/lv_table.c ****     LV_ASSERT_MALLOC(table->row_h);
 2912              		.loc 1 213 20 view .LVU1028
 2913 0012 FFF7FEFF 		bl	lv_mem_realloc
 2914              	.LVL308:
 213:lvgl/lvgl/src/widgets/lv_table.c ****     LV_ASSERT_MALLOC(table->row_h);
 2915              		.loc 1 213 18 view .LVU1029
 2916 0016 E062     		str	r0, [r4, #44]
 214:lvgl/lvgl/src/widgets/lv_table.c ****     if(table->row_h == NULL) return;
 2917              		.loc 1 214 5 is_stmt 1 view .LVU1030
 214:lvgl/lvgl/src/widgets/lv_table.c ****     if(table->row_h == NULL) return;
 2918              		.loc 1 214 5 view .LVU1031
 2919 0018 50B1     		cbz	r0, .L158
 214:lvgl/lvgl/src/widgets/lv_table.c ****     if(table->row_h == NULL) return;
 2920              		.loc 1 214 5 view .LVU1032
 214:lvgl/lvgl/src/widgets/lv_table.c ****     if(table->row_h == NULL) return;
 2921              		.loc 1 214 35 view .LVU1033
 215:lvgl/lvgl/src/widgets/lv_table.c **** 
 2922              		.loc 1 215 5 view .LVU1034
 218:lvgl/lvgl/src/widgets/lv_table.c ****         uint16_t old_cell_cnt = old_row_cnt * table->col_cnt;
 2923              		.loc 1 218 5 view .LVU1035
 218:lvgl/lvgl/src/widgets/lv_table.c ****         uint16_t old_cell_cnt = old_row_cnt * table->col_cnt;
 2924              		.loc 1 218 7 is_stmt 0 view .LVU1036
 2925 001a BD42     		cmp	r5, r7
 2926 001c 1DD9     		bls	.L151
 2927              	.LBB161:
 219:lvgl/lvgl/src/widgets/lv_table.c ****         uint32_t new_cell_cnt = table->col_cnt * table->row_cnt;
 2928              		.loc 1 219 9 is_stmt 1 view .LVU1037
 219:lvgl/lvgl/src/widgets/lv_table.c ****         uint32_t new_cell_cnt = table->col_cnt * table->row_cnt;
 2929              		.loc 1 219 52 is_stmt 0 view .LVU1038
 2930 001e A38C     		ldrh	r3, [r4, #36]
 219:lvgl/lvgl/src/widgets/lv_table.c ****         uint32_t new_cell_cnt = table->col_cnt * table->row_cnt;
 2931              		.loc 1 219 18 view .LVU1039
 2932 0020 13FB05F8 		smulbb	r8, r3, r5
 2933 0024 1FFA88F8 		uxth	r8, r8
 2934              	.LVL309:
 220:lvgl/lvgl/src/widgets/lv_table.c ****         uint32_t i;
 2935              		.loc 1 220 9 is_stmt 1 view .LVU1040
 220:lvgl/lvgl/src/widgets/lv_table.c ****         uint32_t i;
 2936              		.loc 1 220 55 is_stmt 0 view .LVU1041
 2937 0028 E68C     		ldrh	r6, [r4, #38]
 220:lvgl/lvgl/src/widgets/lv_table.c ****         uint32_t i;
 2938              		.loc 1 220 48 view .LVU1042
 2939 002a 06FB03F6 		mul	r6, r6, r3
 2940              	.LVL310:
 221:lvgl/lvgl/src/widgets/lv_table.c ****         for(i = new_cell_cnt; i < old_cell_cnt; i++) {
 2941              		.loc 1 221 9 is_stmt 1 view .LVU1043
 222:lvgl/lvgl/src/widgets/lv_table.c ****             lv_mem_free(table->cell_data[i]);
 2942              		.loc 1 222 9 view .LVU1044
ARM GAS  C:\Users\gx\AppData\Local\Temp\ccSIsGPa.s 			page 95


 222:lvgl/lvgl/src/widgets/lv_table.c ****             lv_mem_free(table->cell_data[i]);
 2943              		.loc 1 222 9 is_stmt 0 view .LVU1045
 2944 002e 12E0     		b	.L152
 2945              	.LVL311:
 2946              	.L158:
 222:lvgl/lvgl/src/widgets/lv_table.c ****             lv_mem_free(table->cell_data[i]);
 2947              		.loc 1 222 9 view .LVU1046
 2948              	.LBE161:
 214:lvgl/lvgl/src/widgets/lv_table.c ****     if(table->row_h == NULL) return;
 2949              		.loc 1 214 5 is_stmt 1 discriminator 1 view .LVU1047
 2950 0030 204B     		ldr	r3, .L161
 2951 0032 0293     		str	r3, [sp, #8]
 2952 0034 204B     		ldr	r3, .L161+4
 2953 0036 0193     		str	r3, [sp, #4]
 2954 0038 204B     		ldr	r3, .L161+8
 2955 003a 0093     		str	r3, [sp]
 2956 003c 204B     		ldr	r3, .L161+12
 2957 003e D622     		movs	r2, #214
 2958 0040 2049     		ldr	r1, .L161+16
 2959 0042 0320     		movs	r0, #3
 2960 0044 FFF7FEFF 		bl	_lv_log_add
 2961              	.LVL312:
 2962              	.L150:
 214:lvgl/lvgl/src/widgets/lv_table.c ****     if(table->row_h == NULL) return;
 2963              		.loc 1 214 5 discriminator 1 view .LVU1048
 214:lvgl/lvgl/src/widgets/lv_table.c ****     if(table->row_h == NULL) return;
 2964              		.loc 1 214 5 discriminator 1 view .LVU1049
 214:lvgl/lvgl/src/widgets/lv_table.c ****     if(table->row_h == NULL) return;
 2965              		.loc 1 214 5 discriminator 1 view .LVU1050
 214:lvgl/lvgl/src/widgets/lv_table.c ****     if(table->row_h == NULL) return;
 2966              		.loc 1 214 5 discriminator 1 view .LVU1051
 2967 0048 FEE7     		b	.L150
 2968              	.LVL313:
 2969              	.L153:
 2970              	.LBB162:
 223:lvgl/lvgl/src/widgets/lv_table.c ****         }
 2971              		.loc 1 223 13 discriminator 3 view .LVU1052
 223:lvgl/lvgl/src/widgets/lv_table.c ****         }
 2972              		.loc 1 223 30 is_stmt 0 discriminator 3 view .LVU1053
 2973 004a A36A     		ldr	r3, [r4, #40]
 223:lvgl/lvgl/src/widgets/lv_table.c ****         }
 2974              		.loc 1 223 13 discriminator 3 view .LVU1054
 2975 004c 53F82600 		ldr	r0, [r3, r6, lsl #2]
 2976 0050 FFF7FEFF 		bl	lv_mem_free
 2977              	.LVL314:
 222:lvgl/lvgl/src/widgets/lv_table.c ****             lv_mem_free(table->cell_data[i]);
 2978              		.loc 1 222 49 is_stmt 1 discriminator 3 view .LVU1055
 222:lvgl/lvgl/src/widgets/lv_table.c ****             lv_mem_free(table->cell_data[i]);
 2979              		.loc 1 222 50 is_stmt 0 discriminator 3 view .LVU1056
 2980 0054 0136     		adds	r6, r6, #1
 2981              	.LVL315:
 2982              	.L152:
 222:lvgl/lvgl/src/widgets/lv_table.c ****             lv_mem_free(table->cell_data[i]);
 2983              		.loc 1 222 31 is_stmt 1 discriminator 1 view .LVU1057
 222:lvgl/lvgl/src/widgets/lv_table.c ****             lv_mem_free(table->cell_data[i]);
 2984              		.loc 1 222 9 is_stmt 0 discriminator 1 view .LVU1058
 2985 0056 B045     		cmp	r8, r6
ARM GAS  C:\Users\gx\AppData\Local\Temp\ccSIsGPa.s 			page 96


 2986 0058 F7D8     		bhi	.L153
 2987              	.LVL316:
 2988              	.L151:
 222:lvgl/lvgl/src/widgets/lv_table.c ****             lv_mem_free(table->cell_data[i]);
 2989              		.loc 1 222 9 discriminator 1 view .LVU1059
 2990              	.LBE162:
 227:lvgl/lvgl/src/widgets/lv_table.c ****     LV_ASSERT_MALLOC(table->cell_data);
 2991              		.loc 1 227 5 is_stmt 1 view .LVU1060
 227:lvgl/lvgl/src/widgets/lv_table.c ****     LV_ASSERT_MALLOC(table->cell_data);
 2992              		.loc 1 227 62 is_stmt 0 view .LVU1061
 2993 005a E38C     		ldrh	r3, [r4, #38]
 227:lvgl/lvgl/src/widgets/lv_table.c ****     LV_ASSERT_MALLOC(table->cell_data);
 2994              		.loc 1 227 79 view .LVU1062
 2995 005c A18C     		ldrh	r1, [r4, #36]
 227:lvgl/lvgl/src/widgets/lv_table.c ****     LV_ASSERT_MALLOC(table->cell_data);
 2996              		.loc 1 227 72 view .LVU1063
 2997 005e 01FB03F1 		mul	r1, r1, r3
 227:lvgl/lvgl/src/widgets/lv_table.c ****     LV_ASSERT_MALLOC(table->cell_data);
 2998              		.loc 1 227 24 view .LVU1064
 2999 0062 8900     		lsls	r1, r1, #2
 3000 0064 A06A     		ldr	r0, [r4, #40]
 3001 0066 FFF7FEFF 		bl	lv_mem_realloc
 3002              	.LVL317:
 227:lvgl/lvgl/src/widgets/lv_table.c ****     LV_ASSERT_MALLOC(table->cell_data);
 3003              		.loc 1 227 22 view .LVU1065
 3004 006a A062     		str	r0, [r4, #40]
 228:lvgl/lvgl/src/widgets/lv_table.c ****     if(table->cell_data == NULL) return;
 3005              		.loc 1 228 5 is_stmt 1 view .LVU1066
 228:lvgl/lvgl/src/widgets/lv_table.c ****     if(table->cell_data == NULL) return;
 3006              		.loc 1 228 5 view .LVU1067
 3007 006c 40B1     		cbz	r0, .L159
 228:lvgl/lvgl/src/widgets/lv_table.c ****     if(table->cell_data == NULL) return;
 3008              		.loc 1 228 5 view .LVU1068
 228:lvgl/lvgl/src/widgets/lv_table.c ****     if(table->cell_data == NULL) return;
 3009              		.loc 1 228 39 view .LVU1069
 229:lvgl/lvgl/src/widgets/lv_table.c **** 
 3010              		.loc 1 229 5 view .LVU1070
 232:lvgl/lvgl/src/widgets/lv_table.c ****         uint32_t old_cell_cnt = old_row_cnt * table->col_cnt;
 3011              		.loc 1 232 5 view .LVU1071
 232:lvgl/lvgl/src/widgets/lv_table.c ****         uint32_t old_cell_cnt = old_row_cnt * table->col_cnt;
 3012              		.loc 1 232 7 is_stmt 0 view .LVU1072
 3013 006e BD42     		cmp	r5, r7
 3014 0070 13D3     		bcc	.L160
 3015              	.LVL318:
 3016              	.L156:
 238:lvgl/lvgl/src/widgets/lv_table.c **** }
 3017              		.loc 1 238 5 is_stmt 1 view .LVU1073
 3018 0072 0021     		movs	r1, #0
 3019 0074 2046     		mov	r0, r4
 3020 0076 FFF7FEFF 		bl	refr_size
 3021              	.LVL319:
 239:lvgl/lvgl/src/widgets/lv_table.c **** 
 3022              		.loc 1 239 1 is_stmt 0 view .LVU1074
 3023 007a 04B0     		add	sp, sp, #16
 3024              	.LCFI23:
 3025              		.cfi_remember_state
 3026              		.cfi_def_cfa_offset 24
ARM GAS  C:\Users\gx\AppData\Local\Temp\ccSIsGPa.s 			page 97


 3027              		@ sp needed
 3028 007c BDE8F081 		pop	{r4, r5, r6, r7, r8, pc}
 3029              	.LVL320:
 3030              	.L159:
 3031              	.LCFI24:
 3032              		.cfi_restore_state
 228:lvgl/lvgl/src/widgets/lv_table.c ****     if(table->cell_data == NULL) return;
 3033              		.loc 1 228 5 is_stmt 1 discriminator 1 view .LVU1075
 3034 0080 0C4B     		ldr	r3, .L161
 3035 0082 0293     		str	r3, [sp, #8]
 3036 0084 104B     		ldr	r3, .L161+20
 3037 0086 0193     		str	r3, [sp, #4]
 3038 0088 0C4B     		ldr	r3, .L161+8
 3039 008a 0093     		str	r3, [sp]
 3040 008c 0C4B     		ldr	r3, .L161+12
 3041 008e E422     		movs	r2, #228
 3042 0090 0C49     		ldr	r1, .L161+16
 3043 0092 0320     		movs	r0, #3
 3044 0094 FFF7FEFF 		bl	_lv_log_add
 3045              	.LVL321:
 3046              	.L155:
 228:lvgl/lvgl/src/widgets/lv_table.c ****     if(table->cell_data == NULL) return;
 3047              		.loc 1 228 5 discriminator 2 view .LVU1076
 228:lvgl/lvgl/src/widgets/lv_table.c ****     if(table->cell_data == NULL) return;
 3048              		.loc 1 228 5 discriminator 2 view .LVU1077
 228:lvgl/lvgl/src/widgets/lv_table.c ****     if(table->cell_data == NULL) return;
 3049              		.loc 1 228 5 discriminator 2 view .LVU1078
 228:lvgl/lvgl/src/widgets/lv_table.c ****     if(table->cell_data == NULL) return;
 3050              		.loc 1 228 5 discriminator 2 view .LVU1079
 3051 0098 FEE7     		b	.L155
 3052              	.L160:
 3053              	.LBB163:
 233:lvgl/lvgl/src/widgets/lv_table.c ****         uint32_t new_cell_cnt = table->col_cnt * table->row_cnt;
 3054              		.loc 1 233 9 view .LVU1080
 233:lvgl/lvgl/src/widgets/lv_table.c ****         uint32_t new_cell_cnt = table->col_cnt * table->row_cnt;
 3055              		.loc 1 233 52 is_stmt 0 view .LVU1081
 3056 009a A38C     		ldrh	r3, [r4, #36]
 233:lvgl/lvgl/src/widgets/lv_table.c ****         uint32_t new_cell_cnt = table->col_cnt * table->row_cnt;
 3057              		.loc 1 233 45 view .LVU1082
 3058 009c 03FB05F5 		mul	r5, r3, r5
 3059              	.LVL322:
 234:lvgl/lvgl/src/widgets/lv_table.c ****         lv_memset_00(&table->cell_data[old_cell_cnt], (new_cell_cnt - old_cell_cnt) * sizeof(table-
 3060              		.loc 1 234 9 is_stmt 1 view .LVU1083
 234:lvgl/lvgl/src/widgets/lv_table.c ****         lv_memset_00(&table->cell_data[old_cell_cnt], (new_cell_cnt - old_cell_cnt) * sizeof(table-
 3061              		.loc 1 234 55 is_stmt 0 view .LVU1084
 3062 00a0 E18C     		ldrh	r1, [r4, #38]
 234:lvgl/lvgl/src/widgets/lv_table.c ****         lv_memset_00(&table->cell_data[old_cell_cnt], (new_cell_cnt - old_cell_cnt) * sizeof(table-
 3063              		.loc 1 234 48 view .LVU1085
 3064 00a2 01FB03F1 		mul	r1, r1, r3
 3065              	.LVL323:
 235:lvgl/lvgl/src/widgets/lv_table.c ****     }
 3066              		.loc 1 235 9 is_stmt 1 view .LVU1086
 235:lvgl/lvgl/src/widgets/lv_table.c ****     }
 3067              		.loc 1 235 69 is_stmt 0 view .LVU1087
 3068 00a6 491B     		subs	r1, r1, r5
 3069              	.LVL324:
 235:lvgl/lvgl/src/widgets/lv_table.c ****     }
ARM GAS  C:\Users\gx\AppData\Local\Temp\ccSIsGPa.s 			page 98


 3070              		.loc 1 235 9 view .LVU1088
 3071 00a8 8900     		lsls	r1, r1, #2
 3072 00aa 00EB8500 		add	r0, r0, r5, lsl #2
 3073 00ae FFF7FEFF 		bl	lv_memset_00
 3074              	.LVL325:
 235:lvgl/lvgl/src/widgets/lv_table.c ****     }
 3075              		.loc 1 235 9 view .LVU1089
 3076 00b2 DEE7     		b	.L156
 3077              	.L162:
 3078              		.align	2
 3079              	.L161:
 3080 00b4 24000000 		.word	.LC1
 3081 00b8 34000000 		.word	.LC2
 3082 00bc 4C000000 		.word	.LC3
 3083 00c0 00000000 		.word	.LANCHOR1
 3084 00c4 00000000 		.word	.LC0
 3085 00c8 6C000000 		.word	.LC4
 3086              	.LBE163:
 3087              		.cfi_endproc
 3088              	.LFE155:
 3090              		.section	.rodata.lv_table_set_cell_value_fmt.str1.4,"aMS",%progbits,1
 3091              		.align	2
 3092              	.LC5:
 3093 0000 4E554C4C 		.ascii	"NULL pointer\000"
 3093      20706F69 
 3093      6E746572 
 3093      00
 3094 000d 000000   		.align	2
 3095              	.LC6:
 3096 0010 666D7420 		.ascii	"fmt != NULL\000"
 3096      213D204E 
 3096      554C4C00 
 3097              		.align	2
 3098              	.LC7:
 3099 001c 6C765F74 		.ascii	"lv_table_set_cell_value: invalid column\000"
 3099      61626C65 
 3099      5F736574 
 3099      5F63656C 
 3099      6C5F7661 
 3100              		.align	2
 3101              	.LC8:
 3102 0044 7461626C 		.ascii	"table->cell_data[cell] != NULL\000"
 3102      652D3E63 
 3102      656C6C5F 
 3102      64617461 
 3102      5B63656C 
 3103              		.section	.text.lv_table_set_cell_value_fmt,"ax",%progbits
 3104              		.align	1
 3105              		.global	lv_table_set_cell_value_fmt
 3106              		.syntax unified
 3107              		.thumb
 3108              		.thumb_func
 3109              		.fpu fpv4-sp-d16
 3111              	lv_table_set_cell_value_fmt:
 3112              	.LVL326:
 3113              	.LFB154:
 115:lvgl/lvgl/src/widgets/lv_table.c ****     LV_ASSERT_OBJ(obj, MY_CLASS);
ARM GAS  C:\Users\gx\AppData\Local\Temp\ccSIsGPa.s 			page 99


 3114              		.loc 1 115 1 is_stmt 1 view -0
 3115              		.cfi_startproc
 3116              		@ args = 4, pretend = 4, frame = 8
 3117              		@ frame_needed = 0, uses_anonymous_args = 1
 115:lvgl/lvgl/src/widgets/lv_table.c ****     LV_ASSERT_OBJ(obj, MY_CLASS);
 3118              		.loc 1 115 1 is_stmt 0 view .LVU1091
 3119 0000 08B4     		push	{r3}
 3120              	.LCFI25:
 3121              		.cfi_def_cfa_offset 4
 3122              		.cfi_offset 3, -4
 3123 0002 2DE9F04F 		push	{r4, r5, r6, r7, r8, r9, r10, fp, lr}
 3124              	.LCFI26:
 3125              		.cfi_def_cfa_offset 40
 3126              		.cfi_offset 4, -40
 3127              		.cfi_offset 5, -36
 3128              		.cfi_offset 6, -32
 3129              		.cfi_offset 7, -28
 3130              		.cfi_offset 8, -24
 3131              		.cfi_offset 9, -20
 3132              		.cfi_offset 10, -16
 3133              		.cfi_offset 11, -12
 3134              		.cfi_offset 14, -8
 3135 0006 88B0     		sub	sp, sp, #32
 3136              	.LCFI27:
 3137              		.cfi_def_cfa_offset 72
 3138 0008 DDF84480 		ldr	r8, [sp, #68]
 116:lvgl/lvgl/src/widgets/lv_table.c ****     LV_ASSERT_NULL(fmt);
 3139              		.loc 1 116 5 is_stmt 1 view .LVU1092
 116:lvgl/lvgl/src/widgets/lv_table.c ****     LV_ASSERT_NULL(fmt);
 3140              		.loc 1 116 5 view .LVU1093
 116:lvgl/lvgl/src/widgets/lv_table.c ****     LV_ASSERT_NULL(fmt);
 3141              		.loc 1 116 5 view .LVU1094
 117:lvgl/lvgl/src/widgets/lv_table.c **** 
 3142              		.loc 1 117 5 view .LVU1095
 117:lvgl/lvgl/src/widgets/lv_table.c **** 
 3143              		.loc 1 117 5 view .LVU1096
 3144 000c B8F1000F 		cmp	r8, #0
 3145 0010 00F0AB80 		beq	.L174
 3146 0014 0446     		mov	r4, r0
 3147 0016 0E46     		mov	r6, r1
 3148 0018 1546     		mov	r5, r2
 117:lvgl/lvgl/src/widgets/lv_table.c **** 
 3149              		.loc 1 117 5 discriminator 2 view .LVU1097
 117:lvgl/lvgl/src/widgets/lv_table.c **** 
 3150              		.loc 1 117 24 discriminator 2 view .LVU1098
 119:lvgl/lvgl/src/widgets/lv_table.c ****     if(col >= table->col_cnt) {
 3151              		.loc 1 119 5 discriminator 2 view .LVU1099
 3152              	.LVL327:
 120:lvgl/lvgl/src/widgets/lv_table.c ****         LV_LOG_WARN("lv_table_set_cell_value: invalid column");
 3153              		.loc 1 120 5 discriminator 2 view .LVU1100
 120:lvgl/lvgl/src/widgets/lv_table.c ****         LV_LOG_WARN("lv_table_set_cell_value: invalid column");
 3154              		.loc 1 120 20 is_stmt 0 discriminator 2 view .LVU1101
 3155 001a 838C     		ldrh	r3, [r0, #36]
 120:lvgl/lvgl/src/widgets/lv_table.c ****         LV_LOG_WARN("lv_table_set_cell_value: invalid column");
 3156              		.loc 1 120 7 discriminator 2 view .LVU1102
 3157 001c 9342     		cmp	r3, r2
 3158 001e 40F2B180 		bls	.L175
ARM GAS  C:\Users\gx\AppData\Local\Temp\ccSIsGPa.s 			page 100


 126:lvgl/lvgl/src/widgets/lv_table.c ****         lv_table_set_row_cnt(obj, row + 1);
 3159              		.loc 1 126 5 is_stmt 1 view .LVU1103
 126:lvgl/lvgl/src/widgets/lv_table.c ****         lv_table_set_row_cnt(obj, row + 1);
 3160              		.loc 1 126 20 is_stmt 0 view .LVU1104
 3161 0022 C38C     		ldrh	r3, [r0, #38]
 126:lvgl/lvgl/src/widgets/lv_table.c ****         lv_table_set_row_cnt(obj, row + 1);
 3162              		.loc 1 126 7 view .LVU1105
 3163 0024 8B42     		cmp	r3, r1
 3164 0026 40F2B680 		bls	.L176
 3165              	.LVL328:
 3166              	.L168:
 130:lvgl/lvgl/src/widgets/lv_table.c ****     lv_table_cell_ctrl_t ctrl = 0;
 3167              		.loc 1 130 5 is_stmt 1 view .LVU1106
 130:lvgl/lvgl/src/widgets/lv_table.c ****     lv_table_cell_ctrl_t ctrl = 0;
 3168              		.loc 1 130 32 is_stmt 0 view .LVU1107
 3169 002a A38C     		ldrh	r3, [r4, #36]
 130:lvgl/lvgl/src/widgets/lv_table.c ****     lv_table_cell_ctrl_t ctrl = 0;
 3170              		.loc 1 130 42 view .LVU1108
 3171 002c 03FB0655 		mla	r5, r3, r6, r5
 3172              	.LVL329:
 131:lvgl/lvgl/src/widgets/lv_table.c **** 
 3173              		.loc 1 131 5 is_stmt 1 view .LVU1109
 134:lvgl/lvgl/src/widgets/lv_table.c **** 
 3174              		.loc 1 134 5 view .LVU1110
 134:lvgl/lvgl/src/widgets/lv_table.c **** 
 3175              		.loc 1 134 13 is_stmt 0 view .LVU1111
 3176 0030 A36A     		ldr	r3, [r4, #40]
 134:lvgl/lvgl/src/widgets/lv_table.c **** 
 3177              		.loc 1 134 24 view .LVU1112
 3178 0032 53F82530 		ldr	r3, [r3, r5, lsl #2]
 134:lvgl/lvgl/src/widgets/lv_table.c **** 
 3179              		.loc 1 134 7 view .LVU1113
 3180 0036 002B     		cmp	r3, #0
 3181 0038 00F0B280 		beq	.L172
 134:lvgl/lvgl/src/widgets/lv_table.c **** 
 3182              		.loc 1 134 32 is_stmt 1 discriminator 1 view .LVU1114
 134:lvgl/lvgl/src/widgets/lv_table.c **** 
 3183              		.loc 1 134 36 is_stmt 0 discriminator 1 view .LVU1115
 3184 003c 93F80090 		ldrb	r9, [r3]	@ zero_extendqisi2
 3185              	.LVL330:
 3186              	.L169:
 136:lvgl/lvgl/src/widgets/lv_table.c ****     va_start(ap, fmt);
 3187              		.loc 1 136 5 is_stmt 1 view .LVU1116
 137:lvgl/lvgl/src/widgets/lv_table.c ****     va_copy(ap2, ap);
 3188              		.loc 1 137 5 view .LVU1117
 3189 0040 12AB     		add	r3, sp, #72
 3190 0042 0793     		str	r3, [sp, #28]
 138:lvgl/lvgl/src/widgets/lv_table.c **** 
 3191              		.loc 1 138 5 view .LVU1118
 3192 0044 0693     		str	r3, [sp, #24]
 141:lvgl/lvgl/src/widgets/lv_table.c ****     va_end(ap);
 3193              		.loc 1 141 5 view .LVU1119
 141:lvgl/lvgl/src/widgets/lv_table.c ****     va_end(ap);
 3194              		.loc 1 141 20 is_stmt 0 view .LVU1120
 3195 0046 4246     		mov	r2, r8
 3196 0048 0021     		movs	r1, #0
 3197 004a 0846     		mov	r0, r1
ARM GAS  C:\Users\gx\AppData\Local\Temp\ccSIsGPa.s 			page 101


 3198 004c FFF7FEFF 		bl	lv_vsnprintf
 3199              	.LVL331:
 3200 0050 0746     		mov	r7, r0
 3201              	.LVL332:
 142:lvgl/lvgl/src/widgets/lv_table.c **** 
 3202              		.loc 1 142 5 is_stmt 1 view .LVU1121
 167:lvgl/lvgl/src/widgets/lv_table.c ****     LV_ASSERT_MALLOC(table->cell_data[cell]);
 3203              		.loc 1 167 5 view .LVU1122
 167:lvgl/lvgl/src/widgets/lv_table.c ****     LV_ASSERT_MALLOC(table->cell_data[cell]);
 3204              		.loc 1 167 50 is_stmt 0 view .LVU1123
 3205 0052 D4F828A0 		ldr	r10, [r4, #40]
 167:lvgl/lvgl/src/widgets/lv_table.c ****     LV_ASSERT_MALLOC(table->cell_data[cell]);
 3206              		.loc 1 167 30 view .LVU1124
 3207 0056 811C     		adds	r1, r0, #2
 3208 0058 5AF82500 		ldr	r0, [r10, r5, lsl #2]
 3209              	.LVL333:
 167:lvgl/lvgl/src/widgets/lv_table.c ****     LV_ASSERT_MALLOC(table->cell_data[cell]);
 3210              		.loc 1 167 30 view .LVU1125
 3211 005c FFF7FEFF 		bl	lv_mem_realloc
 3212              	.LVL334:
 167:lvgl/lvgl/src/widgets/lv_table.c ****     LV_ASSERT_MALLOC(table->cell_data[cell]);
 3213              		.loc 1 167 28 view .LVU1126
 3214 0060 4AF82500 		str	r0, [r10, r5, lsl #2]
 168:lvgl/lvgl/src/widgets/lv_table.c ****     if(table->cell_data[cell] == NULL) {
 3215              		.loc 1 168 5 is_stmt 1 view .LVU1127
 168:lvgl/lvgl/src/widgets/lv_table.c ****     if(table->cell_data[cell] == NULL) {
 3216              		.loc 1 168 5 view .LVU1128
 3217 0064 A36A     		ldr	r3, [r4, #40]
 3218 0066 53F82530 		ldr	r3, [r3, r5, lsl #2]
 3219 006a 002B     		cmp	r3, #0
 3220 006c 00F09B80 		beq	.L177
 168:lvgl/lvgl/src/widgets/lv_table.c ****     if(table->cell_data[cell] == NULL) {
 3221              		.loc 1 168 5 view .LVU1129
 168:lvgl/lvgl/src/widgets/lv_table.c ****     if(table->cell_data[cell] == NULL) {
 3222              		.loc 1 168 45 view .LVU1130
 169:lvgl/lvgl/src/widgets/lv_table.c ****         va_end(ap2);
 3223              		.loc 1 169 5 view .LVU1131
 174:lvgl/lvgl/src/widgets/lv_table.c **** 
 3224              		.loc 1 174 5 view .LVU1132
 174:lvgl/lvgl/src/widgets/lv_table.c **** 
 3225              		.loc 1 174 27 is_stmt 0 view .LVU1133
 3226 0070 791C     		adds	r1, r7, #1
 174:lvgl/lvgl/src/widgets/lv_table.c **** 
 3227              		.loc 1 174 37 view .LVU1134
 3228 0072 0022     		movs	r2, #0
 3229 0074 5A54     		strb	r2, [r3, r1]
 176:lvgl/lvgl/src/widgets/lv_table.c **** #endif
 3230              		.loc 1 176 5 is_stmt 1 view .LVU1135
 176:lvgl/lvgl/src/widgets/lv_table.c **** #endif
 3231              		.loc 1 176 24 is_stmt 0 view .LVU1136
 3232 0076 A36A     		ldr	r3, [r4, #40]
 176:lvgl/lvgl/src/widgets/lv_table.c **** #endif
 3233              		.loc 1 176 35 view .LVU1137
 3234 0078 53F82500 		ldr	r0, [r3, r5, lsl #2]
 176:lvgl/lvgl/src/widgets/lv_table.c **** #endif
 3235              		.loc 1 176 5 view .LVU1138
 3236 007c 069B     		ldr	r3, [sp, #24]
ARM GAS  C:\Users\gx\AppData\Local\Temp\ccSIsGPa.s 			page 102


 3237 007e 4246     		mov	r2, r8
 3238 0080 0130     		adds	r0, r0, #1
 3239 0082 FFF7FEFF 		bl	lv_vsnprintf
 3240              	.LVL335:
 179:lvgl/lvgl/src/widgets/lv_table.c **** 
 3241              		.loc 1 179 5 is_stmt 1 view .LVU1139
 181:lvgl/lvgl/src/widgets/lv_table.c **** 
 3242              		.loc 1 181 5 view .LVU1140
 181:lvgl/lvgl/src/widgets/lv_table.c **** 
 3243              		.loc 1 181 10 is_stmt 0 view .LVU1141
 3244 0086 A36A     		ldr	r3, [r4, #40]
 181:lvgl/lvgl/src/widgets/lv_table.c **** 
 3245              		.loc 1 181 21 view .LVU1142
 3246 0088 53F82530 		ldr	r3, [r3, r5, lsl #2]
 181:lvgl/lvgl/src/widgets/lv_table.c **** 
 3247              		.loc 1 181 31 view .LVU1143
 3248 008c 83F80090 		strb	r9, [r3]
 184:lvgl/lvgl/src/widgets/lv_table.c ****     lv_coord_t cell_right = lv_obj_get_style_pad_right(obj, LV_PART_ITEMS);
 3249              		.loc 1 184 5 is_stmt 1 view .LVU1144
 3250              	.LVL336:
 3251              	.LBB164:
 3252              	.LBI164:
 103:lvgl/lvgl/src/widgets/../core/lv_obj_style_gen.h **** {
 3253              		.loc 3 103 26 view .LVU1145
 3254              	.LBB165:
 105:lvgl/lvgl/src/widgets/../core/lv_obj_style_gen.h ****     return (lv_coord_t)v.num;
 3255              		.loc 3 105 5 view .LVU1146
 105:lvgl/lvgl/src/widgets/../core/lv_obj_style_gen.h ****     return (lv_coord_t)v.num;
 3256              		.loc 3 105 26 is_stmt 0 view .LVU1147
 3257 0090 41F21202 		movw	r2, #4114
 3258 0094 4FF4A021 		mov	r1, #327680
 3259 0098 2046     		mov	r0, r4
 3260 009a FFF7FEFF 		bl	lv_obj_get_style_prop
 3261              	.LVL337:
 106:lvgl/lvgl/src/widgets/../core/lv_obj_style_gen.h **** }
 3262              		.loc 3 106 5 is_stmt 1 view .LVU1148
 106:lvgl/lvgl/src/widgets/../core/lv_obj_style_gen.h **** }
 3263              		.loc 3 106 12 is_stmt 0 view .LVU1149
 3264 009e 0FFA80F8 		sxth	r8, r0
 3265              	.LVL338:
 106:lvgl/lvgl/src/widgets/../core/lv_obj_style_gen.h **** }
 3266              		.loc 3 106 12 view .LVU1150
 3267              	.LBE165:
 3268              	.LBE164:
 185:lvgl/lvgl/src/widgets/lv_table.c ****     lv_coord_t cell_top = lv_obj_get_style_pad_top(obj, LV_PART_ITEMS);
 3269              		.loc 1 185 5 is_stmt 1 view .LVU1151
 3270              	.LBB166:
 3271              	.LBI166:
 109:lvgl/lvgl/src/widgets/../core/lv_obj_style_gen.h **** {
 3272              		.loc 3 109 26 view .LVU1152
 3273              	.LBB167:
 111:lvgl/lvgl/src/widgets/../core/lv_obj_style_gen.h ****     return (lv_coord_t)v.num;
 3274              		.loc 3 111 5 view .LVU1153
 111:lvgl/lvgl/src/widgets/../core/lv_obj_style_gen.h ****     return (lv_coord_t)v.num;
 3275              		.loc 3 111 26 is_stmt 0 view .LVU1154
 3276 00a2 41F21302 		movw	r2, #4115
 3277 00a6 4FF4A021 		mov	r1, #327680
ARM GAS  C:\Users\gx\AppData\Local\Temp\ccSIsGPa.s 			page 103


 3278 00aa 2046     		mov	r0, r4
 3279 00ac FFF7FEFF 		bl	lv_obj_get_style_prop
 3280              	.LVL339:
 112:lvgl/lvgl/src/widgets/../core/lv_obj_style_gen.h **** }
 3281              		.loc 3 112 5 is_stmt 1 view .LVU1155
 112:lvgl/lvgl/src/widgets/../core/lv_obj_style_gen.h **** }
 3282              		.loc 3 112 12 is_stmt 0 view .LVU1156
 3283 00b0 0FFA80F9 		sxth	r9, r0
 3284              	.LVL340:
 112:lvgl/lvgl/src/widgets/../core/lv_obj_style_gen.h **** }
 3285              		.loc 3 112 12 view .LVU1157
 3286              	.LBE167:
 3287              	.LBE166:
 186:lvgl/lvgl/src/widgets/lv_table.c ****     lv_coord_t cell_bottom = lv_obj_get_style_pad_bottom(obj, LV_PART_ITEMS);
 3288              		.loc 1 186 5 is_stmt 1 view .LVU1158
 3289              	.LBB168:
 3290              	.LBI168:
  91:lvgl/lvgl/src/widgets/../core/lv_obj_style_gen.h **** {
 3291              		.loc 3 91 26 view .LVU1159
 3292              	.LBB169:
  93:lvgl/lvgl/src/widgets/../core/lv_obj_style_gen.h ****     return (lv_coord_t)v.num;
 3293              		.loc 3 93 5 view .LVU1160
  93:lvgl/lvgl/src/widgets/../core/lv_obj_style_gen.h ****     return (lv_coord_t)v.num;
 3294              		.loc 3 93 26 is_stmt 0 view .LVU1161
 3295 00b4 41F21002 		movw	r2, #4112
 3296 00b8 4FF4A021 		mov	r1, #327680
 3297 00bc 2046     		mov	r0, r4
 3298 00be FFF7FEFF 		bl	lv_obj_get_style_prop
 3299              	.LVL341:
  94:lvgl/lvgl/src/widgets/../core/lv_obj_style_gen.h **** }
 3300              		.loc 3 94 5 is_stmt 1 view .LVU1162
  94:lvgl/lvgl/src/widgets/../core/lv_obj_style_gen.h **** }
 3301              		.loc 3 94 12 is_stmt 0 view .LVU1163
 3302 00c2 0FFA80FA 		sxth	r10, r0
 3303              	.LVL342:
  94:lvgl/lvgl/src/widgets/../core/lv_obj_style_gen.h **** }
 3304              		.loc 3 94 12 view .LVU1164
 3305              	.LBE169:
 3306              	.LBE168:
 187:lvgl/lvgl/src/widgets/lv_table.c **** 
 3307              		.loc 1 187 5 is_stmt 1 view .LVU1165
 3308              	.LBB170:
 3309              	.LBI170:
  97:lvgl/lvgl/src/widgets/../core/lv_obj_style_gen.h **** {
 3310              		.loc 3 97 26 view .LVU1166
 3311              	.LBB171:
  99:lvgl/lvgl/src/widgets/../core/lv_obj_style_gen.h ****     return (lv_coord_t)v.num;
 3312              		.loc 3 99 5 view .LVU1167
  99:lvgl/lvgl/src/widgets/../core/lv_obj_style_gen.h ****     return (lv_coord_t)v.num;
 3313              		.loc 3 99 26 is_stmt 0 view .LVU1168
 3314 00c6 41F21102 		movw	r2, #4113
 3315 00ca 4FF4A021 		mov	r1, #327680
 3316 00ce 2046     		mov	r0, r4
 3317 00d0 FFF7FEFF 		bl	lv_obj_get_style_prop
 3318              	.LVL343:
 100:lvgl/lvgl/src/widgets/../core/lv_obj_style_gen.h **** }
 3319              		.loc 3 100 5 is_stmt 1 view .LVU1169
ARM GAS  C:\Users\gx\AppData\Local\Temp\ccSIsGPa.s 			page 104


 100:lvgl/lvgl/src/widgets/../core/lv_obj_style_gen.h **** }
 3320              		.loc 3 100 12 is_stmt 0 view .LVU1170
 3321 00d4 0FFA80FB 		sxth	fp, r0
 3322              	.LVL344:
 100:lvgl/lvgl/src/widgets/../core/lv_obj_style_gen.h **** }
 3323              		.loc 3 100 12 view .LVU1171
 3324              	.LBE171:
 3325              	.LBE170:
 189:lvgl/lvgl/src/widgets/lv_table.c ****     lv_coord_t line_space = lv_obj_get_style_text_line_space(obj, LV_PART_ITEMS);
 3326              		.loc 1 189 5 is_stmt 1 view .LVU1172
 3327              	.LBB172:
 3328              	.LBI172:
 337:lvgl/lvgl/src/widgets/../core/lv_obj_style_gen.h **** {
 3329              		.loc 3 337 26 view .LVU1173
 3330              	.LBB173:
 339:lvgl/lvgl/src/widgets/../core/lv_obj_style_gen.h ****     return (lv_coord_t)v.num;
 3331              		.loc 3 339 5 view .LVU1174
 339:lvgl/lvgl/src/widgets/../core/lv_obj_style_gen.h ****     return (lv_coord_t)v.num;
 3332              		.loc 3 339 26 is_stmt 0 view .LVU1175
 3333 00d8 41F25A42 		movw	r2, #5210
 3334 00dc 4FF4A021 		mov	r1, #327680
 3335 00e0 2046     		mov	r0, r4
 3336 00e2 FFF7FEFF 		bl	lv_obj_get_style_prop
 3337              	.LVL345:
 340:lvgl/lvgl/src/widgets/../core/lv_obj_style_gen.h **** }
 3338              		.loc 3 340 5 is_stmt 1 view .LVU1176
 340:lvgl/lvgl/src/widgets/../core/lv_obj_style_gen.h **** }
 3339              		.loc 3 340 12 is_stmt 0 view .LVU1177
 3340 00e6 05B2     		sxth	r5, r0
 3341              	.LVL346:
 340:lvgl/lvgl/src/widgets/../core/lv_obj_style_gen.h **** }
 3342              		.loc 3 340 12 view .LVU1178
 3343              	.LBE173:
 3344              	.LBE172:
 190:lvgl/lvgl/src/widgets/lv_table.c ****     const lv_font_t * font = lv_obj_get_style_text_font(obj, LV_PART_ITEMS);
 3345              		.loc 1 190 5 is_stmt 1 view .LVU1179
 3346              	.LBB174:
 3347              	.LBI174:
 343:lvgl/lvgl/src/widgets/../core/lv_obj_style_gen.h **** {
 3348              		.loc 3 343 26 view .LVU1180
 3349              	.LBB175:
 345:lvgl/lvgl/src/widgets/../core/lv_obj_style_gen.h ****     return (lv_coord_t)v.num;
 3350              		.loc 3 345 5 view .LVU1181
 345:lvgl/lvgl/src/widgets/../core/lv_obj_style_gen.h ****     return (lv_coord_t)v.num;
 3351              		.loc 3 345 26 is_stmt 0 view .LVU1182
 3352 00e8 41F25B42 		movw	r2, #5211
 3353 00ec 4FF4A021 		mov	r1, #327680
 3354 00f0 2046     		mov	r0, r4
 3355 00f2 FFF7FEFF 		bl	lv_obj_get_style_prop
 3356              	.LVL347:
 3357              		.loc 3 346 5 is_stmt 1 view .LVU1183
 3358              		.loc 3 346 12 is_stmt 0 view .LVU1184
 3359 00f6 07B2     		sxth	r7, r0
 3360              	.LVL348:
 3361              		.loc 3 346 12 view .LVU1185
 3362              	.LBE175:
 3363              	.LBE174:
ARM GAS  C:\Users\gx\AppData\Local\Temp\ccSIsGPa.s 			page 105


 191:lvgl/lvgl/src/widgets/lv_table.c **** 
 3364              		.loc 1 191 5 is_stmt 1 view .LVU1186
 3365              	.LBB176:
 3366              	.LBI176:
 331:lvgl/lvgl/src/widgets/../core/lv_obj_style_gen.h **** {
 3367              		.loc 3 331 33 view .LVU1187
 3368              	.LBB177:
 333:lvgl/lvgl/src/widgets/../core/lv_obj_style_gen.h ****     return (const lv_font_t *)v.ptr;
 3369              		.loc 3 333 5 view .LVU1188
 333:lvgl/lvgl/src/widgets/../core/lv_obj_style_gen.h ****     return (const lv_font_t *)v.ptr;
 3370              		.loc 3 333 26 is_stmt 0 view .LVU1189
 3371 00f8 41F25942 		movw	r2, #5209
 3372 00fc 4FF4A021 		mov	r1, #327680
 3373 0100 2046     		mov	r0, r4
 3374 0102 FFF7FEFF 		bl	lv_obj_get_style_prop
 3375              	.LVL349:
 3376 0106 0246     		mov	r2, r0
 334:lvgl/lvgl/src/widgets/../core/lv_obj_style_gen.h **** }
 3377              		.loc 3 334 5 is_stmt 1 view .LVU1190
 3378              	.LVL350:
 334:lvgl/lvgl/src/widgets/../core/lv_obj_style_gen.h **** }
 3379              		.loc 3 334 5 is_stmt 0 view .LVU1191
 3380              	.LBE177:
 3381              	.LBE176:
 193:lvgl/lvgl/src/widgets/lv_table.c ****                                        cell_left, cell_right, cell_top, cell_bottom);
 3382              		.loc 1 193 5 is_stmt 1 view .LVU1192
 193:lvgl/lvgl/src/widgets/lv_table.c ****                                        cell_left, cell_right, cell_top, cell_bottom);
 3383              		.loc 1 193 20 is_stmt 0 view .LVU1193
 3384 0108 CDF810B0 		str	fp, [sp, #16]
 3385 010c CDF80CA0 		str	r10, [sp, #12]
 3386 0110 CDF80890 		str	r9, [sp, #8]
 3387 0114 CDF80480 		str	r8, [sp, #4]
 3388 0118 0097     		str	r7, [sp]
 3389 011a 2B46     		mov	r3, r5
 3390 011c 3146     		mov	r1, r6
 3391 011e 2046     		mov	r0, r4
 3392              	.LVL351:
 193:lvgl/lvgl/src/widgets/lv_table.c ****                                        cell_left, cell_right, cell_top, cell_bottom);
 3393              		.loc 1 193 20 view .LVU1194
 3394 0120 FFF7FEFF 		bl	get_row_height
 3395              	.LVL352:
 193:lvgl/lvgl/src/widgets/lv_table.c ****                                        cell_left, cell_right, cell_top, cell_bottom);
 3396              		.loc 1 193 20 view .LVU1195
 3397 0124 0546     		mov	r5, r0
 3398              	.LVL353:
 197:lvgl/lvgl/src/widgets/lv_table.c ****     lv_coord_t maxh = lv_obj_get_style_max_height(obj, LV_PART_ITEMS);
 3399              		.loc 1 197 5 is_stmt 1 view .LVU1196
 3400              	.LBB178:
 3401              	.LBI178:
  25:lvgl/lvgl/src/widgets/../core/lv_obj_style_gen.h **** {
 3402              		.loc 3 25 26 view .LVU1197
 3403              	.LBB179:
  27:lvgl/lvgl/src/widgets/../core/lv_obj_style_gen.h ****     return (lv_coord_t)v.num;
 3404              		.loc 3 27 5 view .LVU1198
  27:lvgl/lvgl/src/widgets/../core/lv_obj_style_gen.h ****     return (lv_coord_t)v.num;
 3405              		.loc 3 27 26 is_stmt 0 view .LVU1199
 3406 0126 41F20502 		movw	r2, #4101
ARM GAS  C:\Users\gx\AppData\Local\Temp\ccSIsGPa.s 			page 106


 3407 012a 4FF4A021 		mov	r1, #327680
 3408 012e 2046     		mov	r0, r4
 3409 0130 FFF7FEFF 		bl	lv_obj_get_style_prop
 3410              	.LVL354:
  28:lvgl/lvgl/src/widgets/../core/lv_obj_style_gen.h **** }
 3411              		.loc 3 28 5 is_stmt 1 view .LVU1200
  28:lvgl/lvgl/src/widgets/../core/lv_obj_style_gen.h **** }
 3412              		.loc 3 28 12 is_stmt 0 view .LVU1201
 3413 0134 07B2     		sxth	r7, r0
 3414              	.LVL355:
  28:lvgl/lvgl/src/widgets/../core/lv_obj_style_gen.h **** }
 3415              		.loc 3 28 12 view .LVU1202
 3416              	.LBE179:
 3417              	.LBE178:
 198:lvgl/lvgl/src/widgets/lv_table.c **** 
 3418              		.loc 1 198 5 is_stmt 1 view .LVU1203
 3419              	.LBB180:
 3420              	.LBI180:
  31:lvgl/lvgl/src/widgets/../core/lv_obj_style_gen.h **** {
 3421              		.loc 3 31 26 view .LVU1204
 3422              	.LBB181:
  33:lvgl/lvgl/src/widgets/../core/lv_obj_style_gen.h ****     return (lv_coord_t)v.num;
 3423              		.loc 3 33 5 view .LVU1205
  33:lvgl/lvgl/src/widgets/../core/lv_obj_style_gen.h ****     return (lv_coord_t)v.num;
 3424              		.loc 3 33 26 is_stmt 0 view .LVU1206
 3425 0136 41F20602 		movw	r2, #4102
 3426 013a 4FF4A021 		mov	r1, #327680
 3427 013e 2046     		mov	r0, r4
 3428 0140 FFF7FEFF 		bl	lv_obj_get_style_prop
 3429              	.LVL356:
  34:lvgl/lvgl/src/widgets/../core/lv_obj_style_gen.h **** }
 3430              		.loc 3 34 5 is_stmt 1 view .LVU1207
  34:lvgl/lvgl/src/widgets/../core/lv_obj_style_gen.h **** }
 3431              		.loc 3 34 12 is_stmt 0 view .LVU1208
 3432 0144 03B2     		sxth	r3, r0
 3433              	.LVL357:
  34:lvgl/lvgl/src/widgets/../core/lv_obj_style_gen.h **** }
 3434              		.loc 3 34 12 view .LVU1209
 3435              	.LBE181:
 3436              	.LBE180:
 200:lvgl/lvgl/src/widgets/lv_table.c **** 
 3437              		.loc 1 200 5 is_stmt 1 view .LVU1210
 200:lvgl/lvgl/src/widgets/lv_table.c **** 
 3438              		.loc 1 200 25 is_stmt 0 view .LVU1211
 3439 0146 AB42     		cmp	r3, r5
 3440 0148 A8BF     		it	ge
 3441 014a 2B46     		movge	r3, r5
 3442              	.LVL358:
 200:lvgl/lvgl/src/widgets/lv_table.c **** 
 3443              		.loc 1 200 25 view .LVU1212
 3444 014c 1BB2     		sxth	r3, r3
 200:lvgl/lvgl/src/widgets/lv_table.c **** 
 3445              		.loc 1 200 10 view .LVU1213
 3446 014e E26A     		ldr	r2, [r4, #44]
 200:lvgl/lvgl/src/widgets/lv_table.c **** 
 3447              		.loc 1 200 25 view .LVU1214
 3448 0150 BB42     		cmp	r3, r7
ARM GAS  C:\Users\gx\AppData\Local\Temp\ccSIsGPa.s 			page 107


 3449 0152 B8BF     		it	lt
 3450 0154 3B46     		movlt	r3, r7
 200:lvgl/lvgl/src/widgets/lv_table.c **** 
 3451              		.loc 1 200 23 view .LVU1215
 3452 0156 22F81630 		strh	r3, [r2, r6, lsl #1]	@ movhi
 202:lvgl/lvgl/src/widgets/lv_table.c **** }
 3453              		.loc 1 202 5 is_stmt 1 view .LVU1216
 3454 015a 2046     		mov	r0, r4
 3455              	.LVL359:
 202:lvgl/lvgl/src/widgets/lv_table.c **** }
 3456              		.loc 1 202 5 is_stmt 0 view .LVU1217
 3457 015c FFF7FEFF 		bl	lv_obj_invalidate
 3458              	.LVL360:
 3459              	.L163:
 203:lvgl/lvgl/src/widgets/lv_table.c **** 
 3460              		.loc 1 203 1 view .LVU1218
 3461 0160 08B0     		add	sp, sp, #32
 3462              	.LCFI28:
 3463              		.cfi_remember_state
 3464              		.cfi_def_cfa_offset 40
 3465              		@ sp needed
 3466 0162 BDE8F04F 		pop	{r4, r5, r6, r7, r8, r9, r10, fp, lr}
 3467              	.LCFI29:
 3468              		.cfi_restore 14
 3469              		.cfi_restore 11
 3470              		.cfi_restore 10
 3471              		.cfi_restore 9
 3472              		.cfi_restore 8
 3473              		.cfi_restore 7
 3474              		.cfi_restore 6
 3475              		.cfi_restore 5
 3476              		.cfi_restore 4
 3477              		.cfi_def_cfa_offset 4
 3478              	.LVL361:
 203:lvgl/lvgl/src/widgets/lv_table.c **** 
 3479              		.loc 1 203 1 view .LVU1219
 3480 0166 01B0     		add	sp, sp, #4
 3481              	.LCFI30:
 3482              		.cfi_restore 3
 3483              		.cfi_def_cfa_offset 0
 3484 0168 7047     		bx	lr
 3485              	.LVL362:
 3486              	.L174:
 3487              	.LCFI31:
 3488              		.cfi_restore_state
 117:lvgl/lvgl/src/widgets/lv_table.c **** 
 3489              		.loc 1 117 5 is_stmt 1 discriminator 1 view .LVU1220
 3490 016a 154B     		ldr	r3, .L178
 3491 016c 0293     		str	r3, [sp, #8]
 3492 016e 154B     		ldr	r3, .L178+4
 3493 0170 0193     		str	r3, [sp, #4]
 3494 0172 154B     		ldr	r3, .L178+8
 3495 0174 0093     		str	r3, [sp]
 3496 0176 154B     		ldr	r3, .L178+12
 3497 0178 7522     		movs	r2, #117
 3498              	.LVL363:
 117:lvgl/lvgl/src/widgets/lv_table.c **** 
ARM GAS  C:\Users\gx\AppData\Local\Temp\ccSIsGPa.s 			page 108


 3499              		.loc 1 117 5 is_stmt 0 discriminator 1 view .LVU1221
 3500 017a 1549     		ldr	r1, .L178+16
 3501              	.LVL364:
 117:lvgl/lvgl/src/widgets/lv_table.c **** 
 3502              		.loc 1 117 5 discriminator 1 view .LVU1222
 3503 017c 0320     		movs	r0, #3
 3504              	.LVL365:
 117:lvgl/lvgl/src/widgets/lv_table.c **** 
 3505              		.loc 1 117 5 discriminator 1 view .LVU1223
 3506 017e FFF7FEFF 		bl	_lv_log_add
 3507              	.LVL366:
 3508              	.L165:
 117:lvgl/lvgl/src/widgets/lv_table.c **** 
 3509              		.loc 1 117 5 is_stmt 1 discriminator 1 view .LVU1224
 117:lvgl/lvgl/src/widgets/lv_table.c **** 
 3510              		.loc 1 117 5 discriminator 1 view .LVU1225
 117:lvgl/lvgl/src/widgets/lv_table.c **** 
 3511              		.loc 1 117 5 discriminator 1 view .LVU1226
 117:lvgl/lvgl/src/widgets/lv_table.c **** 
 3512              		.loc 1 117 5 discriminator 1 view .LVU1227
 3513 0182 FEE7     		b	.L165
 3514              	.LVL367:
 3515              	.L175:
 121:lvgl/lvgl/src/widgets/lv_table.c ****         return;
 3516              		.loc 1 121 9 view .LVU1228
 3517 0184 134B     		ldr	r3, .L178+20
 3518 0186 0093     		str	r3, [sp]
 3519 0188 104B     		ldr	r3, .L178+12
 3520 018a 7922     		movs	r2, #121
 3521              	.LVL368:
 121:lvgl/lvgl/src/widgets/lv_table.c ****         return;
 3522              		.loc 1 121 9 is_stmt 0 view .LVU1229
 3523 018c 1049     		ldr	r1, .L178+16
 3524              	.LVL369:
 121:lvgl/lvgl/src/widgets/lv_table.c ****         return;
 3525              		.loc 1 121 9 view .LVU1230
 3526 018e 0220     		movs	r0, #2
 3527              	.LVL370:
 121:lvgl/lvgl/src/widgets/lv_table.c ****         return;
 3528              		.loc 1 121 9 view .LVU1231
 3529 0190 FFF7FEFF 		bl	_lv_log_add
 3530              	.LVL371:
 121:lvgl/lvgl/src/widgets/lv_table.c ****         return;
 3531              		.loc 1 121 63 is_stmt 1 view .LVU1232
 122:lvgl/lvgl/src/widgets/lv_table.c ****     }
 3532              		.loc 1 122 9 view .LVU1233
 3533 0194 E4E7     		b	.L163
 3534              	.LVL372:
 3535              	.L176:
 127:lvgl/lvgl/src/widgets/lv_table.c ****     }
 3536              		.loc 1 127 9 view .LVU1234
 3537 0196 0131     		adds	r1, r1, #1
 3538              	.LVL373:
 127:lvgl/lvgl/src/widgets/lv_table.c ****     }
 3539              		.loc 1 127 9 is_stmt 0 view .LVU1235
 3540 0198 89B2     		uxth	r1, r1
 3541 019a FFF7FEFF 		bl	lv_table_set_row_cnt
ARM GAS  C:\Users\gx\AppData\Local\Temp\ccSIsGPa.s 			page 109


 3542              	.LVL374:
 127:lvgl/lvgl/src/widgets/lv_table.c ****     }
 3543              		.loc 1 127 9 view .LVU1236
 3544 019e 44E7     		b	.L168
 3545              	.LVL375:
 3546              	.L172:
 131:lvgl/lvgl/src/widgets/lv_table.c **** 
 3547              		.loc 1 131 26 view .LVU1237
 3548 01a0 4FF00009 		mov	r9, #0
 3549 01a4 4CE7     		b	.L169
 3550              	.LVL376:
 3551              	.L177:
 168:lvgl/lvgl/src/widgets/lv_table.c ****     if(table->cell_data[cell] == NULL) {
 3552              		.loc 1 168 5 is_stmt 1 discriminator 1 view .LVU1238
 3553 01a6 0C4B     		ldr	r3, .L178+24
 3554 01a8 0293     		str	r3, [sp, #8]
 3555 01aa 0C4B     		ldr	r3, .L178+28
 3556 01ac 0193     		str	r3, [sp, #4]
 3557 01ae 064B     		ldr	r3, .L178+8
 3558 01b0 0093     		str	r3, [sp]
 3559 01b2 064B     		ldr	r3, .L178+12
 3560 01b4 A822     		movs	r2, #168
 3561 01b6 0649     		ldr	r1, .L178+16
 3562 01b8 0320     		movs	r0, #3
 3563 01ba FFF7FEFF 		bl	_lv_log_add
 3564              	.LVL377:
 3565              	.L171:
 168:lvgl/lvgl/src/widgets/lv_table.c ****     if(table->cell_data[cell] == NULL) {
 3566              		.loc 1 168 5 discriminator 2 view .LVU1239
 168:lvgl/lvgl/src/widgets/lv_table.c ****     if(table->cell_data[cell] == NULL) {
 3567              		.loc 1 168 5 discriminator 2 view .LVU1240
 168:lvgl/lvgl/src/widgets/lv_table.c ****     if(table->cell_data[cell] == NULL) {
 3568              		.loc 1 168 5 discriminator 2 view .LVU1241
 168:lvgl/lvgl/src/widgets/lv_table.c ****     if(table->cell_data[cell] == NULL) {
 3569              		.loc 1 168 5 discriminator 2 view .LVU1242
 3570 01be FEE7     		b	.L171
 3571              	.L179:
 3572              		.align	2
 3573              	.L178:
 3574 01c0 00000000 		.word	.LC5
 3575 01c4 10000000 		.word	.LC6
 3576 01c8 4C000000 		.word	.LC3
 3577 01cc 00000000 		.word	.LANCHOR2
 3578 01d0 00000000 		.word	.LC0
 3579 01d4 1C000000 		.word	.LC7
 3580 01d8 24000000 		.word	.LC1
 3581 01dc 44000000 		.word	.LC8
 3582              		.cfi_endproc
 3583              	.LFE154:
 3585              		.section	.rodata.lv_table_set_col_cnt.str1.4,"aMS",%progbits,1
 3586              		.align	2
 3587              	.LC9:
 3588 0000 7461626C 		.ascii	"table->col_w != NULL\000"
 3588      652D3E63 
 3588      6F6C5F77 
 3588      20213D20 
 3588      4E554C4C 
ARM GAS  C:\Users\gx\AppData\Local\Temp\ccSIsGPa.s 			page 110


 3589 0015 000000   		.align	2
 3590              	.LC10:
 3591 0018 6E65775F 		.ascii	"new_cell_data != NULL\000"
 3591      63656C6C 
 3591      5F646174 
 3591      6120213D 
 3591      204E554C 
 3592              		.section	.text.lv_table_set_col_cnt,"ax",%progbits
 3593              		.align	1
 3594              		.global	lv_table_set_col_cnt
 3595              		.syntax unified
 3596              		.thumb
 3597              		.thumb_func
 3598              		.fpu fpv4-sp-d16
 3600              	lv_table_set_col_cnt:
 3601              	.LVL378:
 3602              	.LFB156:
 242:lvgl/lvgl/src/widgets/lv_table.c ****     LV_ASSERT_OBJ(obj, MY_CLASS);
 3603              		.loc 1 242 1 view -0
 3604              		.cfi_startproc
 3605              		@ args = 0, pretend = 0, frame = 0
 3606              		@ frame_needed = 0, uses_anonymous_args = 0
 242:lvgl/lvgl/src/widgets/lv_table.c ****     LV_ASSERT_OBJ(obj, MY_CLASS);
 3607              		.loc 1 242 1 is_stmt 0 view .LVU1244
 3608 0000 2DE9F043 		push	{r4, r5, r6, r7, r8, r9, lr}
 3609              	.LCFI32:
 3610              		.cfi_def_cfa_offset 28
 3611              		.cfi_offset 4, -28
 3612              		.cfi_offset 5, -24
 3613              		.cfi_offset 6, -20
 3614              		.cfi_offset 7, -16
 3615              		.cfi_offset 8, -12
 3616              		.cfi_offset 9, -8
 3617              		.cfi_offset 14, -4
 3618 0004 85B0     		sub	sp, sp, #20
 3619              	.LCFI33:
 3620              		.cfi_def_cfa_offset 48
 3621 0006 0446     		mov	r4, r0
 3622 0008 8846     		mov	r8, r1
 243:lvgl/lvgl/src/widgets/lv_table.c **** 
 3623              		.loc 1 243 5 is_stmt 1 view .LVU1245
 243:lvgl/lvgl/src/widgets/lv_table.c **** 
 3624              		.loc 1 243 5 view .LVU1246
 243:lvgl/lvgl/src/widgets/lv_table.c **** 
 3625              		.loc 1 243 5 view .LVU1247
 245:lvgl/lvgl/src/widgets/lv_table.c ****     uint16_t old_col_cnt = table->col_cnt;
 3626              		.loc 1 245 5 view .LVU1248
 3627              	.LVL379:
 246:lvgl/lvgl/src/widgets/lv_table.c ****     table->col_cnt         = col_cnt;
 3628              		.loc 1 246 5 view .LVU1249
 246:lvgl/lvgl/src/widgets/lv_table.c ****     table->col_cnt         = col_cnt;
 3629              		.loc 1 246 14 is_stmt 0 view .LVU1250
 3630 000a 858C     		ldrh	r5, [r0, #36]
 3631              	.LVL380:
 247:lvgl/lvgl/src/widgets/lv_table.c ****     table->col_w = lv_mem_realloc(table->col_w, col_cnt * sizeof(table->row_h[0]));
 3632              		.loc 1 247 5 is_stmt 1 view .LVU1251
 247:lvgl/lvgl/src/widgets/lv_table.c ****     table->col_w = lv_mem_realloc(table->col_w, col_cnt * sizeof(table->row_h[0]));
ARM GAS  C:\Users\gx\AppData\Local\Temp\ccSIsGPa.s 			page 111


 3633              		.loc 1 247 28 is_stmt 0 view .LVU1252
 3634 000c 8184     		strh	r1, [r0, #36]	@ movhi
 248:lvgl/lvgl/src/widgets/lv_table.c ****     LV_ASSERT_MALLOC(table->col_w);
 3635              		.loc 1 248 5 is_stmt 1 view .LVU1253
 248:lvgl/lvgl/src/widgets/lv_table.c ****     LV_ASSERT_MALLOC(table->col_w);
 3636              		.loc 1 248 20 is_stmt 0 view .LVU1254
 3637 000e 0F46     		mov	r7, r1
 3638 0010 4900     		lsls	r1, r1, #1
 3639              	.LVL381:
 248:lvgl/lvgl/src/widgets/lv_table.c ****     LV_ASSERT_MALLOC(table->col_w);
 3640              		.loc 1 248 20 view .LVU1255
 3641 0012 006B     		ldr	r0, [r0, #48]
 3642              	.LVL382:
 248:lvgl/lvgl/src/widgets/lv_table.c ****     LV_ASSERT_MALLOC(table->col_w);
 3643              		.loc 1 248 20 view .LVU1256
 3644 0014 FFF7FEFF 		bl	lv_mem_realloc
 3645              	.LVL383:
 248:lvgl/lvgl/src/widgets/lv_table.c ****     LV_ASSERT_MALLOC(table->col_w);
 3646              		.loc 1 248 18 view .LVU1257
 3647 0018 2063     		str	r0, [r4, #48]
 249:lvgl/lvgl/src/widgets/lv_table.c ****     if(table->col_w == NULL) return;
 3648              		.loc 1 249 5 is_stmt 1 view .LVU1258
 249:lvgl/lvgl/src/widgets/lv_table.c ****     if(table->col_w == NULL) return;
 3649              		.loc 1 249 5 view .LVU1259
 3650 001a 50B1     		cbz	r0, .L196
 249:lvgl/lvgl/src/widgets/lv_table.c ****     if(table->col_w == NULL) return;
 3651              		.loc 1 249 5 view .LVU1260
 249:lvgl/lvgl/src/widgets/lv_table.c ****     if(table->col_w == NULL) return;
 3652              		.loc 1 249 35 view .LVU1261
 250:lvgl/lvgl/src/widgets/lv_table.c **** 
 3653              		.loc 1 250 5 view .LVU1262
 253:lvgl/lvgl/src/widgets/lv_table.c ****        uint16_t old_cell_cnt = old_col_cnt * table->row_cnt;
 3654              		.loc 1 253 5 view .LVU1263
 253:lvgl/lvgl/src/widgets/lv_table.c ****        uint16_t old_cell_cnt = old_col_cnt * table->row_cnt;
 3655              		.loc 1 253 7 is_stmt 0 view .LVU1264
 3656 001c 4545     		cmp	r5, r8
 3657 001e 1DD9     		bls	.L183
 3658              	.LBB182:
 254:lvgl/lvgl/src/widgets/lv_table.c ****        uint32_t new_cell_cnt = table->col_cnt * table->row_cnt;
 3659              		.loc 1 254 8 is_stmt 1 view .LVU1265
 254:lvgl/lvgl/src/widgets/lv_table.c ****        uint32_t new_cell_cnt = table->col_cnt * table->row_cnt;
 3660              		.loc 1 254 51 is_stmt 0 view .LVU1266
 3661 0020 E68C     		ldrh	r6, [r4, #38]
 254:lvgl/lvgl/src/widgets/lv_table.c ****        uint32_t new_cell_cnt = table->col_cnt * table->row_cnt;
 3662              		.loc 1 254 17 view .LVU1267
 3663 0022 16FB05F9 		smulbb	r9, r6, r5
 3664 0026 1FFA89F9 		uxth	r9, r9
 3665              	.LVL384:
 255:lvgl/lvgl/src/widgets/lv_table.c ****        uint32_t i;
 3666              		.loc 1 255 8 is_stmt 1 view .LVU1268
 255:lvgl/lvgl/src/widgets/lv_table.c ****        uint32_t i;
 3667              		.loc 1 255 37 is_stmt 0 view .LVU1269
 3668 002a A38C     		ldrh	r3, [r4, #36]
 255:lvgl/lvgl/src/widgets/lv_table.c ****        uint32_t i;
 3669              		.loc 1 255 47 view .LVU1270
 3670 002c 06FB03F6 		mul	r6, r6, r3
 3671              	.LVL385:
ARM GAS  C:\Users\gx\AppData\Local\Temp\ccSIsGPa.s 			page 112


 256:lvgl/lvgl/src/widgets/lv_table.c ****        for(i = new_cell_cnt; i < old_cell_cnt; i++) {
 3672              		.loc 1 256 8 is_stmt 1 view .LVU1271
 257:lvgl/lvgl/src/widgets/lv_table.c ****            lv_mem_free(table->cell_data[i]);
 3673              		.loc 1 257 8 view .LVU1272
 257:lvgl/lvgl/src/widgets/lv_table.c ****            lv_mem_free(table->cell_data[i]);
 3674              		.loc 1 257 8 is_stmt 0 view .LVU1273
 3675 0030 12E0     		b	.L184
 3676              	.LVL386:
 3677              	.L196:
 257:lvgl/lvgl/src/widgets/lv_table.c ****            lv_mem_free(table->cell_data[i]);
 3678              		.loc 1 257 8 view .LVU1274
 3679              	.LBE182:
 249:lvgl/lvgl/src/widgets/lv_table.c ****     if(table->col_w == NULL) return;
 3680              		.loc 1 249 5 is_stmt 1 discriminator 1 view .LVU1275
 3681 0032 334B     		ldr	r3, .L199
 3682 0034 0293     		str	r3, [sp, #8]
 3683 0036 334B     		ldr	r3, .L199+4
 3684 0038 0193     		str	r3, [sp, #4]
 3685 003a 334B     		ldr	r3, .L199+8
 3686 003c 0093     		str	r3, [sp]
 3687 003e 334B     		ldr	r3, .L199+12
 3688 0040 F922     		movs	r2, #249
 3689 0042 3349     		ldr	r1, .L199+16
 3690 0044 0320     		movs	r0, #3
 3691 0046 FFF7FEFF 		bl	_lv_log_add
 3692              	.LVL387:
 3693              	.L182:
 249:lvgl/lvgl/src/widgets/lv_table.c ****     if(table->col_w == NULL) return;
 3694              		.loc 1 249 5 discriminator 1 view .LVU1276
 249:lvgl/lvgl/src/widgets/lv_table.c ****     if(table->col_w == NULL) return;
 3695              		.loc 1 249 5 discriminator 1 view .LVU1277
 249:lvgl/lvgl/src/widgets/lv_table.c ****     if(table->col_w == NULL) return;
 3696              		.loc 1 249 5 discriminator 1 view .LVU1278
 249:lvgl/lvgl/src/widgets/lv_table.c ****     if(table->col_w == NULL) return;
 3697              		.loc 1 249 5 discriminator 1 view .LVU1279
 3698 004a FEE7     		b	.L182
 3699              	.LVL388:
 3700              	.L185:
 3701              	.LBB183:
 258:lvgl/lvgl/src/widgets/lv_table.c ****        }
 3702              		.loc 1 258 12 discriminator 3 view .LVU1280
 258:lvgl/lvgl/src/widgets/lv_table.c ****        }
 3703              		.loc 1 258 29 is_stmt 0 discriminator 3 view .LVU1281
 3704 004c A36A     		ldr	r3, [r4, #40]
 258:lvgl/lvgl/src/widgets/lv_table.c ****        }
 3705              		.loc 1 258 12 discriminator 3 view .LVU1282
 3706 004e 53F82600 		ldr	r0, [r3, r6, lsl #2]
 3707 0052 FFF7FEFF 		bl	lv_mem_free
 3708              	.LVL389:
 257:lvgl/lvgl/src/widgets/lv_table.c ****            lv_mem_free(table->cell_data[i]);
 3709              		.loc 1 257 48 is_stmt 1 discriminator 3 view .LVU1283
 257:lvgl/lvgl/src/widgets/lv_table.c ****            lv_mem_free(table->cell_data[i]);
 3710              		.loc 1 257 49 is_stmt 0 discriminator 3 view .LVU1284
 3711 0056 0136     		adds	r6, r6, #1
 3712              	.LVL390:
 3713              	.L184:
 257:lvgl/lvgl/src/widgets/lv_table.c ****            lv_mem_free(table->cell_data[i]);
ARM GAS  C:\Users\gx\AppData\Local\Temp\ccSIsGPa.s 			page 113


 3714              		.loc 1 257 30 is_stmt 1 discriminator 1 view .LVU1285
 257:lvgl/lvgl/src/widgets/lv_table.c ****            lv_mem_free(table->cell_data[i]);
 3715              		.loc 1 257 8 is_stmt 0 discriminator 1 view .LVU1286
 3716 0058 B145     		cmp	r9, r6
 3717 005a F7D8     		bhi	.L185
 3718              	.LVL391:
 3719              	.L183:
 257:lvgl/lvgl/src/widgets/lv_table.c ****            lv_mem_free(table->cell_data[i]);
 3720              		.loc 1 257 8 discriminator 1 view .LVU1287
 3721              	.LBE183:
 262:lvgl/lvgl/src/widgets/lv_table.c ****     LV_ASSERT_MALLOC(new_cell_data);
 3722              		.loc 1 262 5 is_stmt 1 view .LVU1288
 262:lvgl/lvgl/src/widgets/lv_table.c ****     LV_ASSERT_MALLOC(new_cell_data);
 3723              		.loc 1 262 47 is_stmt 0 view .LVU1289
 3724 005c E38C     		ldrh	r3, [r4, #38]
 262:lvgl/lvgl/src/widgets/lv_table.c ****     LV_ASSERT_MALLOC(new_cell_data);
 3725              		.loc 1 262 64 view .LVU1290
 3726 005e A08C     		ldrh	r0, [r4, #36]
 262:lvgl/lvgl/src/widgets/lv_table.c ****     LV_ASSERT_MALLOC(new_cell_data);
 3727              		.loc 1 262 57 view .LVU1291
 3728 0060 00FB03F0 		mul	r0, r0, r3
 262:lvgl/lvgl/src/widgets/lv_table.c ****     LV_ASSERT_MALLOC(new_cell_data);
 3729              		.loc 1 262 29 view .LVU1292
 3730 0064 8000     		lsls	r0, r0, #2
 3731 0066 FFF7FEFF 		bl	lv_mem_alloc
 3732              	.LVL392:
 263:lvgl/lvgl/src/widgets/lv_table.c ****     if(new_cell_data == NULL) return;
 3733              		.loc 1 263 5 is_stmt 1 view .LVU1293
 263:lvgl/lvgl/src/widgets/lv_table.c ****     if(new_cell_data == NULL) return;
 3734              		.loc 1 263 5 view .LVU1294
 3735 006a 0646     		mov	r6, r0
 3736 006c 50B1     		cbz	r0, .L197
 263:lvgl/lvgl/src/widgets/lv_table.c ****     if(new_cell_data == NULL) return;
 3737              		.loc 1 263 5 view .LVU1295
 263:lvgl/lvgl/src/widgets/lv_table.c ****     if(new_cell_data == NULL) return;
 3738              		.loc 1 263 36 view .LVU1296
 264:lvgl/lvgl/src/widgets/lv_table.c ****     uint32_t new_cell_cnt = table->col_cnt * table->row_cnt;
 3739              		.loc 1 264 5 view .LVU1297
 265:lvgl/lvgl/src/widgets/lv_table.c ****     lv_memset_00(new_cell_data, new_cell_cnt * sizeof(table->cell_data[0]));
 3740              		.loc 1 265 5 view .LVU1298
 265:lvgl/lvgl/src/widgets/lv_table.c ****     lv_memset_00(new_cell_data, new_cell_cnt * sizeof(table->cell_data[0]));
 3741              		.loc 1 265 34 is_stmt 0 view .LVU1299
 3742 006e A38C     		ldrh	r3, [r4, #36]
 265:lvgl/lvgl/src/widgets/lv_table.c ****     lv_memset_00(new_cell_data, new_cell_cnt * sizeof(table->cell_data[0]));
 3743              		.loc 1 265 51 view .LVU1300
 3744 0070 E18C     		ldrh	r1, [r4, #38]
 265:lvgl/lvgl/src/widgets/lv_table.c ****     lv_memset_00(new_cell_data, new_cell_cnt * sizeof(table->cell_data[0]));
 3745              		.loc 1 265 44 view .LVU1301
 3746 0072 01FB03F1 		mul	r1, r1, r3
 3747              	.LVL393:
 266:lvgl/lvgl/src/widgets/lv_table.c **** 
 3748              		.loc 1 266 5 is_stmt 1 view .LVU1302
 3749 0076 8900     		lsls	r1, r1, #2
 3750              	.LVL394:
 266:lvgl/lvgl/src/widgets/lv_table.c **** 
 3751              		.loc 1 266 5 is_stmt 0 view .LVU1303
 3752 0078 FFF7FEFF 		bl	lv_memset_00
ARM GAS  C:\Users\gx\AppData\Local\Temp\ccSIsGPa.s 			page 114


 3753              	.LVL395:
 269:lvgl/lvgl/src/widgets/lv_table.c ****         uint32_t col;
 3754              		.loc 1 269 5 is_stmt 1 view .LVU1304
 269:lvgl/lvgl/src/widgets/lv_table.c ****         uint32_t col;
 3755              		.loc 1 269 7 is_stmt 0 view .LVU1305
 3756 007c 4545     		cmp	r5, r8
 3757 007e 16D2     		bcs	.L188
 3758              	.LBB184:
 270:lvgl/lvgl/src/widgets/lv_table.c ****         for(col = old_col_cnt; col < col_cnt; col++) {
 3759              		.loc 1 270 9 is_stmt 1 view .LVU1306
 271:lvgl/lvgl/src/widgets/lv_table.c ****             table->col_w[col] = LV_DPI_DEF;
 3760              		.loc 1 271 9 view .LVU1307
 271:lvgl/lvgl/src/widgets/lv_table.c ****             table->col_w[col] = LV_DPI_DEF;
 3761              		.loc 1 271 17 is_stmt 0 view .LVU1308
 3762 0080 2B46     		mov	r3, r5
 3763              	.LVL396:
 271:lvgl/lvgl/src/widgets/lv_table.c ****             table->col_w[col] = LV_DPI_DEF;
 3764              		.loc 1 271 9 view .LVU1309
 3765 0082 12E0     		b	.L189
 3766              	.LVL397:
 3767              	.L197:
 271:lvgl/lvgl/src/widgets/lv_table.c ****             table->col_w[col] = LV_DPI_DEF;
 3768              		.loc 1 271 9 view .LVU1310
 3769              	.LBE184:
 263:lvgl/lvgl/src/widgets/lv_table.c ****     if(new_cell_data == NULL) return;
 3770              		.loc 1 263 5 is_stmt 1 discriminator 1 view .LVU1311
 3771 0084 1E4B     		ldr	r3, .L199
 3772 0086 0293     		str	r3, [sp, #8]
 3773 0088 224B     		ldr	r3, .L199+20
 3774 008a 0193     		str	r3, [sp, #4]
 3775 008c 1E4B     		ldr	r3, .L199+8
 3776 008e 0093     		str	r3, [sp]
 3777 0090 1E4B     		ldr	r3, .L199+12
 3778 0092 40F20712 		movw	r2, #263
 3779 0096 1E49     		ldr	r1, .L199+16
 3780 0098 0320     		movs	r0, #3
 3781              	.LVL398:
 263:lvgl/lvgl/src/widgets/lv_table.c ****     if(new_cell_data == NULL) return;
 3782              		.loc 1 263 5 is_stmt 0 discriminator 1 view .LVU1312
 3783 009a FFF7FEFF 		bl	_lv_log_add
 3784              	.LVL399:
 3785              	.L187:
 263:lvgl/lvgl/src/widgets/lv_table.c ****     if(new_cell_data == NULL) return;
 3786              		.loc 1 263 5 is_stmt 1 discriminator 2 view .LVU1313
 263:lvgl/lvgl/src/widgets/lv_table.c ****     if(new_cell_data == NULL) return;
 3787              		.loc 1 263 5 discriminator 2 view .LVU1314
 263:lvgl/lvgl/src/widgets/lv_table.c ****     if(new_cell_data == NULL) return;
 3788              		.loc 1 263 5 discriminator 2 view .LVU1315
 263:lvgl/lvgl/src/widgets/lv_table.c ****     if(new_cell_data == NULL) return;
 3789              		.loc 1 263 5 discriminator 2 view .LVU1316
 3790 009e FEE7     		b	.L187
 3791              	.LVL400:
 3792              	.L190:
 3793              	.LBB185:
 272:lvgl/lvgl/src/widgets/lv_table.c ****         }
 3794              		.loc 1 272 13 discriminator 3 view .LVU1317
 272:lvgl/lvgl/src/widgets/lv_table.c ****         }
ARM GAS  C:\Users\gx\AppData\Local\Temp\ccSIsGPa.s 			page 115


 3795              		.loc 1 272 18 is_stmt 0 discriminator 3 view .LVU1318
 3796 00a0 226B     		ldr	r2, [r4, #48]
 272:lvgl/lvgl/src/widgets/lv_table.c ****         }
 3797              		.loc 1 272 31 discriminator 3 view .LVU1319
 3798 00a2 8221     		movs	r1, #130
 3799 00a4 22F81310 		strh	r1, [r2, r3, lsl #1]	@ movhi
 271:lvgl/lvgl/src/widgets/lv_table.c ****             table->col_w[col] = LV_DPI_DEF;
 3800              		.loc 1 271 47 is_stmt 1 discriminator 3 view .LVU1320
 271:lvgl/lvgl/src/widgets/lv_table.c ****             table->col_w[col] = LV_DPI_DEF;
 3801              		.loc 1 271 50 is_stmt 0 discriminator 3 view .LVU1321
 3802 00a8 0133     		adds	r3, r3, #1
 3803              	.LVL401:
 3804              	.L189:
 271:lvgl/lvgl/src/widgets/lv_table.c ****             table->col_w[col] = LV_DPI_DEF;
 3805              		.loc 1 271 32 is_stmt 1 discriminator 1 view .LVU1322
 271:lvgl/lvgl/src/widgets/lv_table.c ****             table->col_w[col] = LV_DPI_DEF;
 3806              		.loc 1 271 9 is_stmt 0 discriminator 1 view .LVU1323
 3807 00aa 9F42     		cmp	r7, r3
 3808 00ac F8D8     		bhi	.L190
 3809              	.LVL402:
 3810              	.L188:
 271:lvgl/lvgl/src/widgets/lv_table.c ****             table->col_w[col] = LV_DPI_DEF;
 3811              		.loc 1 271 9 discriminator 1 view .LVU1324
 3812              	.LBE185:
 277:lvgl/lvgl/src/widgets/lv_table.c ****     uint32_t new_col_start;
 3813              		.loc 1 277 5 is_stmt 1 view .LVU1325
 278:lvgl/lvgl/src/widgets/lv_table.c ****     uint32_t min_col_cnt = LV_MIN(old_col_cnt, col_cnt);
 3814              		.loc 1 278 5 view .LVU1326
 279:lvgl/lvgl/src/widgets/lv_table.c ****     uint32_t row;
 3815              		.loc 1 279 5 view .LVU1327
 279:lvgl/lvgl/src/widgets/lv_table.c ****     uint32_t row;
 3816              		.loc 1 279 28 is_stmt 0 view .LVU1328
 3817 00ae A845     		cmp	r8, r5
 3818 00b0 28BF     		it	cs
 3819 00b2 A846     		movcs	r8, r5
 3820              	.LVL403:
 280:lvgl/lvgl/src/widgets/lv_table.c ****     for(row = 0; row < table->row_cnt; row++) {
 3821              		.loc 1 280 5 is_stmt 1 view .LVU1329
 281:lvgl/lvgl/src/widgets/lv_table.c ****         old_col_start = row * old_col_cnt;
 3822              		.loc 1 281 5 view .LVU1330
 281:lvgl/lvgl/src/widgets/lv_table.c ****         old_col_start = row * old_col_cnt;
 3823              		.loc 1 281 13 is_stmt 0 view .LVU1331
 3824 00b4 4FF0000C 		mov	ip, #0
 281:lvgl/lvgl/src/widgets/lv_table.c ****         old_col_start = row * old_col_cnt;
 3825              		.loc 1 281 5 view .LVU1332
 3826 00b8 08E0     		b	.L191
 3827              	.LVL404:
 3828              	.L193:
 3829              	.LBB186:
 3830              	.LBB187:
 3831              		.file 5 "d:\\practise\\f407_disc\\lvgl\\lvgl\\src\\misc\\lv_mem.h"
   1:d:\practise\f407_disc\lvgl\lvgl\src\misc\lv_mem.h **** /**
   2:d:\practise\f407_disc\lvgl\lvgl\src\misc\lv_mem.h ****  * @file lv_mem.h
   3:d:\practise\f407_disc\lvgl\lvgl\src\misc\lv_mem.h ****  *
   4:d:\practise\f407_disc\lvgl\lvgl\src\misc\lv_mem.h ****  */
   5:d:\practise\f407_disc\lvgl\lvgl\src\misc\lv_mem.h **** 
   6:d:\practise\f407_disc\lvgl\lvgl\src\misc\lv_mem.h **** #ifndef LV_MEM_H
ARM GAS  C:\Users\gx\AppData\Local\Temp\ccSIsGPa.s 			page 116


   7:d:\practise\f407_disc\lvgl\lvgl\src\misc\lv_mem.h **** #define LV_MEM_H
   8:d:\practise\f407_disc\lvgl\lvgl\src\misc\lv_mem.h **** 
   9:d:\practise\f407_disc\lvgl\lvgl\src\misc\lv_mem.h **** #ifdef __cplusplus
  10:d:\practise\f407_disc\lvgl\lvgl\src\misc\lv_mem.h **** extern "C" {
  11:d:\practise\f407_disc\lvgl\lvgl\src\misc\lv_mem.h **** #endif
  12:d:\practise\f407_disc\lvgl\lvgl\src\misc\lv_mem.h **** 
  13:d:\practise\f407_disc\lvgl\lvgl\src\misc\lv_mem.h **** /*********************
  14:d:\practise\f407_disc\lvgl\lvgl\src\misc\lv_mem.h ****  *      INCLUDES
  15:d:\practise\f407_disc\lvgl\lvgl\src\misc\lv_mem.h ****  *********************/
  16:d:\practise\f407_disc\lvgl\lvgl\src\misc\lv_mem.h **** #include "../lv_conf_internal.h"
  17:d:\practise\f407_disc\lvgl\lvgl\src\misc\lv_mem.h **** 
  18:d:\practise\f407_disc\lvgl\lvgl\src\misc\lv_mem.h **** #include <stdint.h>
  19:d:\practise\f407_disc\lvgl\lvgl\src\misc\lv_mem.h **** #include <stddef.h>
  20:d:\practise\f407_disc\lvgl\lvgl\src\misc\lv_mem.h **** #include "lv_log.h"
  21:d:\practise\f407_disc\lvgl\lvgl\src\misc\lv_mem.h **** #include "lv_types.h"
  22:d:\practise\f407_disc\lvgl\lvgl\src\misc\lv_mem.h **** 
  23:d:\practise\f407_disc\lvgl\lvgl\src\misc\lv_mem.h **** #if LV_MEMCPY_MEMSET_STD
  24:d:\practise\f407_disc\lvgl\lvgl\src\misc\lv_mem.h **** #include <string.h>
  25:d:\practise\f407_disc\lvgl\lvgl\src\misc\lv_mem.h **** #endif
  26:d:\practise\f407_disc\lvgl\lvgl\src\misc\lv_mem.h **** 
  27:d:\practise\f407_disc\lvgl\lvgl\src\misc\lv_mem.h **** /*********************
  28:d:\practise\f407_disc\lvgl\lvgl\src\misc\lv_mem.h ****  *      DEFINES
  29:d:\practise\f407_disc\lvgl\lvgl\src\misc\lv_mem.h ****  *********************/
  30:d:\practise\f407_disc\lvgl\lvgl\src\misc\lv_mem.h **** 
  31:d:\practise\f407_disc\lvgl\lvgl\src\misc\lv_mem.h **** #ifndef LV_MEM_BUF_MAX_NUM
  32:d:\practise\f407_disc\lvgl\lvgl\src\misc\lv_mem.h **** #define LV_MEM_BUF_MAX_NUM    16
  33:d:\practise\f407_disc\lvgl\lvgl\src\misc\lv_mem.h **** #endif
  34:d:\practise\f407_disc\lvgl\lvgl\src\misc\lv_mem.h **** 
  35:d:\practise\f407_disc\lvgl\lvgl\src\misc\lv_mem.h **** /**********************
  36:d:\practise\f407_disc\lvgl\lvgl\src\misc\lv_mem.h ****  *      TYPEDEFS
  37:d:\practise\f407_disc\lvgl\lvgl\src\misc\lv_mem.h ****  **********************/
  38:d:\practise\f407_disc\lvgl\lvgl\src\misc\lv_mem.h **** 
  39:d:\practise\f407_disc\lvgl\lvgl\src\misc\lv_mem.h **** /**
  40:d:\practise\f407_disc\lvgl\lvgl\src\misc\lv_mem.h ****  * Heap information structure.
  41:d:\practise\f407_disc\lvgl\lvgl\src\misc\lv_mem.h ****  */
  42:d:\practise\f407_disc\lvgl\lvgl\src\misc\lv_mem.h **** typedef struct {
  43:d:\practise\f407_disc\lvgl\lvgl\src\misc\lv_mem.h ****     uint32_t total_size; /**< Total heap size*/
  44:d:\practise\f407_disc\lvgl\lvgl\src\misc\lv_mem.h ****     uint32_t free_cnt;
  45:d:\practise\f407_disc\lvgl\lvgl\src\misc\lv_mem.h ****     uint32_t free_size; /**< Size of available memory*/
  46:d:\practise\f407_disc\lvgl\lvgl\src\misc\lv_mem.h ****     uint32_t free_biggest_size;
  47:d:\practise\f407_disc\lvgl\lvgl\src\misc\lv_mem.h ****     uint32_t used_cnt;
  48:d:\practise\f407_disc\lvgl\lvgl\src\misc\lv_mem.h ****     uint32_t max_used; /**< Max size of Heap memory used*/
  49:d:\practise\f407_disc\lvgl\lvgl\src\misc\lv_mem.h ****     uint8_t used_pct; /**< Percentage used*/
  50:d:\practise\f407_disc\lvgl\lvgl\src\misc\lv_mem.h ****     uint8_t frag_pct; /**< Amount of fragmentation*/
  51:d:\practise\f407_disc\lvgl\lvgl\src\misc\lv_mem.h **** } lv_mem_monitor_t;
  52:d:\practise\f407_disc\lvgl\lvgl\src\misc\lv_mem.h **** 
  53:d:\practise\f407_disc\lvgl\lvgl\src\misc\lv_mem.h **** typedef struct {
  54:d:\practise\f407_disc\lvgl\lvgl\src\misc\lv_mem.h ****     void * p;
  55:d:\practise\f407_disc\lvgl\lvgl\src\misc\lv_mem.h ****     uint16_t size;
  56:d:\practise\f407_disc\lvgl\lvgl\src\misc\lv_mem.h ****     uint8_t used : 1;
  57:d:\practise\f407_disc\lvgl\lvgl\src\misc\lv_mem.h **** } lv_mem_buf_t;
  58:d:\practise\f407_disc\lvgl\lvgl\src\misc\lv_mem.h **** 
  59:d:\practise\f407_disc\lvgl\lvgl\src\misc\lv_mem.h **** typedef lv_mem_buf_t lv_mem_buf_arr_t[LV_MEM_BUF_MAX_NUM];
  60:d:\practise\f407_disc\lvgl\lvgl\src\misc\lv_mem.h **** 
  61:d:\practise\f407_disc\lvgl\lvgl\src\misc\lv_mem.h **** /**********************
  62:d:\practise\f407_disc\lvgl\lvgl\src\misc\lv_mem.h ****  * GLOBAL PROTOTYPES
  63:d:\practise\f407_disc\lvgl\lvgl\src\misc\lv_mem.h ****  **********************/
ARM GAS  C:\Users\gx\AppData\Local\Temp\ccSIsGPa.s 			page 117


  64:d:\practise\f407_disc\lvgl\lvgl\src\misc\lv_mem.h **** 
  65:d:\practise\f407_disc\lvgl\lvgl\src\misc\lv_mem.h **** /**
  66:d:\practise\f407_disc\lvgl\lvgl\src\misc\lv_mem.h ****  * Initialize the dyn_mem module (work memory and other variables)
  67:d:\practise\f407_disc\lvgl\lvgl\src\misc\lv_mem.h ****  */
  68:d:\practise\f407_disc\lvgl\lvgl\src\misc\lv_mem.h **** void lv_mem_init(void);
  69:d:\practise\f407_disc\lvgl\lvgl\src\misc\lv_mem.h **** 
  70:d:\practise\f407_disc\lvgl\lvgl\src\misc\lv_mem.h **** /**
  71:d:\practise\f407_disc\lvgl\lvgl\src\misc\lv_mem.h ****  * Clean up the memory buffer which frees all the allocated memories.
  72:d:\practise\f407_disc\lvgl\lvgl\src\misc\lv_mem.h ****  * @note It work only if `LV_MEM_CUSTOM == 0`
  73:d:\practise\f407_disc\lvgl\lvgl\src\misc\lv_mem.h ****  */
  74:d:\practise\f407_disc\lvgl\lvgl\src\misc\lv_mem.h **** void lv_mem_deinit(void);
  75:d:\practise\f407_disc\lvgl\lvgl\src\misc\lv_mem.h **** 
  76:d:\practise\f407_disc\lvgl\lvgl\src\misc\lv_mem.h **** /**
  77:d:\practise\f407_disc\lvgl\lvgl\src\misc\lv_mem.h ****  * Allocate a memory dynamically
  78:d:\practise\f407_disc\lvgl\lvgl\src\misc\lv_mem.h ****  * @param size size of the memory to allocate in bytes
  79:d:\practise\f407_disc\lvgl\lvgl\src\misc\lv_mem.h ****  * @return pointer to the allocated memory
  80:d:\practise\f407_disc\lvgl\lvgl\src\misc\lv_mem.h ****  */
  81:d:\practise\f407_disc\lvgl\lvgl\src\misc\lv_mem.h **** void * lv_mem_alloc(size_t size);
  82:d:\practise\f407_disc\lvgl\lvgl\src\misc\lv_mem.h **** 
  83:d:\practise\f407_disc\lvgl\lvgl\src\misc\lv_mem.h **** /**
  84:d:\practise\f407_disc\lvgl\lvgl\src\misc\lv_mem.h ****  * Free an allocated data
  85:d:\practise\f407_disc\lvgl\lvgl\src\misc\lv_mem.h ****  * @param data pointer to an allocated memory
  86:d:\practise\f407_disc\lvgl\lvgl\src\misc\lv_mem.h ****  */
  87:d:\practise\f407_disc\lvgl\lvgl\src\misc\lv_mem.h **** void lv_mem_free(void * data);
  88:d:\practise\f407_disc\lvgl\lvgl\src\misc\lv_mem.h **** 
  89:d:\practise\f407_disc\lvgl\lvgl\src\misc\lv_mem.h **** /**
  90:d:\practise\f407_disc\lvgl\lvgl\src\misc\lv_mem.h ****  * Reallocate a memory with a new size. The old content will be kept.
  91:d:\practise\f407_disc\lvgl\lvgl\src\misc\lv_mem.h ****  * @param data pointer to an allocated memory.
  92:d:\practise\f407_disc\lvgl\lvgl\src\misc\lv_mem.h ****  * Its content will be copied to the new memory block and freed
  93:d:\practise\f407_disc\lvgl\lvgl\src\misc\lv_mem.h ****  * @param new_size the desired new size in byte
  94:d:\practise\f407_disc\lvgl\lvgl\src\misc\lv_mem.h ****  * @return pointer to the new memory
  95:d:\practise\f407_disc\lvgl\lvgl\src\misc\lv_mem.h ****  */
  96:d:\practise\f407_disc\lvgl\lvgl\src\misc\lv_mem.h **** void * lv_mem_realloc(void * data_p, size_t new_size);
  97:d:\practise\f407_disc\lvgl\lvgl\src\misc\lv_mem.h **** 
  98:d:\practise\f407_disc\lvgl\lvgl\src\misc\lv_mem.h **** /**
  99:d:\practise\f407_disc\lvgl\lvgl\src\misc\lv_mem.h ****  *
 100:d:\practise\f407_disc\lvgl\lvgl\src\misc\lv_mem.h ****  * @return
 101:d:\practise\f407_disc\lvgl\lvgl\src\misc\lv_mem.h ****  */
 102:d:\practise\f407_disc\lvgl\lvgl\src\misc\lv_mem.h **** lv_res_t lv_mem_test(void);
 103:d:\practise\f407_disc\lvgl\lvgl\src\misc\lv_mem.h **** 
 104:d:\practise\f407_disc\lvgl\lvgl\src\misc\lv_mem.h **** /**
 105:d:\practise\f407_disc\lvgl\lvgl\src\misc\lv_mem.h ****  * Give information about the work memory of dynamic allocation
 106:d:\practise\f407_disc\lvgl\lvgl\src\misc\lv_mem.h ****  * @param mon_p pointer to a dm_mon_p variable,
 107:d:\practise\f407_disc\lvgl\lvgl\src\misc\lv_mem.h ****  *              the result of the analysis will be stored here
 108:d:\practise\f407_disc\lvgl\lvgl\src\misc\lv_mem.h ****  */
 109:d:\practise\f407_disc\lvgl\lvgl\src\misc\lv_mem.h **** void lv_mem_monitor(lv_mem_monitor_t * mon_p);
 110:d:\practise\f407_disc\lvgl\lvgl\src\misc\lv_mem.h **** 
 111:d:\practise\f407_disc\lvgl\lvgl\src\misc\lv_mem.h **** 
 112:d:\practise\f407_disc\lvgl\lvgl\src\misc\lv_mem.h **** /**
 113:d:\practise\f407_disc\lvgl\lvgl\src\misc\lv_mem.h ****  * Get a temporal buffer with the given size.
 114:d:\practise\f407_disc\lvgl\lvgl\src\misc\lv_mem.h ****  * @param size the required size
 115:d:\practise\f407_disc\lvgl\lvgl\src\misc\lv_mem.h ****  */
 116:d:\practise\f407_disc\lvgl\lvgl\src\misc\lv_mem.h **** void * lv_mem_buf_get(uint32_t size);
 117:d:\practise\f407_disc\lvgl\lvgl\src\misc\lv_mem.h **** 
 118:d:\practise\f407_disc\lvgl\lvgl\src\misc\lv_mem.h **** /**
 119:d:\practise\f407_disc\lvgl\lvgl\src\misc\lv_mem.h ****  * Release a memory buffer
 120:d:\practise\f407_disc\lvgl\lvgl\src\misc\lv_mem.h ****  * @param p buffer to release
ARM GAS  C:\Users\gx\AppData\Local\Temp\ccSIsGPa.s 			page 118


 121:d:\practise\f407_disc\lvgl\lvgl\src\misc\lv_mem.h ****  */
 122:d:\practise\f407_disc\lvgl\lvgl\src\misc\lv_mem.h **** void lv_mem_buf_release(void * p);
 123:d:\practise\f407_disc\lvgl\lvgl\src\misc\lv_mem.h **** 
 124:d:\practise\f407_disc\lvgl\lvgl\src\misc\lv_mem.h **** /**
 125:d:\practise\f407_disc\lvgl\lvgl\src\misc\lv_mem.h ****  * Free all memory buffers
 126:d:\practise\f407_disc\lvgl\lvgl\src\misc\lv_mem.h ****  */
 127:d:\practise\f407_disc\lvgl\lvgl\src\misc\lv_mem.h **** void lv_mem_buf_free_all(void);
 128:d:\practise\f407_disc\lvgl\lvgl\src\misc\lv_mem.h **** 
 129:d:\practise\f407_disc\lvgl\lvgl\src\misc\lv_mem.h **** //! @cond Doxygen_Suppress
 130:d:\practise\f407_disc\lvgl\lvgl\src\misc\lv_mem.h **** 
 131:d:\practise\f407_disc\lvgl\lvgl\src\misc\lv_mem.h **** #if LV_MEMCPY_MEMSET_STD
 132:d:\practise\f407_disc\lvgl\lvgl\src\misc\lv_mem.h **** 
 133:d:\practise\f407_disc\lvgl\lvgl\src\misc\lv_mem.h **** /**
 134:d:\practise\f407_disc\lvgl\lvgl\src\misc\lv_mem.h ****  * Wrapper for the standard memcpy
 135:d:\practise\f407_disc\lvgl\lvgl\src\misc\lv_mem.h ****  * @param dst pointer to the destination buffer
 136:d:\practise\f407_disc\lvgl\lvgl\src\misc\lv_mem.h ****  * @param src pointer to the source buffer
 137:d:\practise\f407_disc\lvgl\lvgl\src\misc\lv_mem.h ****  * @param len number of byte to copy
 138:d:\practise\f407_disc\lvgl\lvgl\src\misc\lv_mem.h ****  */
 139:d:\practise\f407_disc\lvgl\lvgl\src\misc\lv_mem.h **** static inline void * lv_memcpy(void * dst, const void * src, size_t len)
 140:d:\practise\f407_disc\lvgl\lvgl\src\misc\lv_mem.h **** {
 141:d:\practise\f407_disc\lvgl\lvgl\src\misc\lv_mem.h ****     return memcpy(dst, src, len);
 142:d:\practise\f407_disc\lvgl\lvgl\src\misc\lv_mem.h **** }
 143:d:\practise\f407_disc\lvgl\lvgl\src\misc\lv_mem.h **** 
 144:d:\practise\f407_disc\lvgl\lvgl\src\misc\lv_mem.h **** /**
 145:d:\practise\f407_disc\lvgl\lvgl\src\misc\lv_mem.h ****  * Wrapper for the standard memcpy
 146:d:\practise\f407_disc\lvgl\lvgl\src\misc\lv_mem.h ****  * @param dst pointer to the destination buffer
 147:d:\practise\f407_disc\lvgl\lvgl\src\misc\lv_mem.h ****  * @param src pointer to the source buffer
 148:d:\practise\f407_disc\lvgl\lvgl\src\misc\lv_mem.h ****  * @param len number of byte to copy
 149:d:\practise\f407_disc\lvgl\lvgl\src\misc\lv_mem.h ****  */
 150:d:\practise\f407_disc\lvgl\lvgl\src\misc\lv_mem.h **** static inline void * lv_memcpy_small(void * dst, const void * src, size_t len)
 151:d:\practise\f407_disc\lvgl\lvgl\src\misc\lv_mem.h **** {
 152:d:\practise\f407_disc\lvgl\lvgl\src\misc\lv_mem.h ****     return memcpy(dst, src, len);
 153:d:\practise\f407_disc\lvgl\lvgl\src\misc\lv_mem.h **** }
 154:d:\practise\f407_disc\lvgl\lvgl\src\misc\lv_mem.h **** 
 155:d:\practise\f407_disc\lvgl\lvgl\src\misc\lv_mem.h **** /**
 156:d:\practise\f407_disc\lvgl\lvgl\src\misc\lv_mem.h ****  * Wrapper for the standard memset
 157:d:\practise\f407_disc\lvgl\lvgl\src\misc\lv_mem.h ****  * @param dst pointer to the destination buffer
 158:d:\practise\f407_disc\lvgl\lvgl\src\misc\lv_mem.h ****  * @param v value to set [0..255]
 159:d:\practise\f407_disc\lvgl\lvgl\src\misc\lv_mem.h ****  * @param len number of byte to set
 160:d:\practise\f407_disc\lvgl\lvgl\src\misc\lv_mem.h ****  */
 161:d:\practise\f407_disc\lvgl\lvgl\src\misc\lv_mem.h **** static inline void lv_memset(void * dst, uint8_t v, size_t len)
 162:d:\practise\f407_disc\lvgl\lvgl\src\misc\lv_mem.h **** {
 163:d:\practise\f407_disc\lvgl\lvgl\src\misc\lv_mem.h ****     memset(dst, v, len);
 164:d:\practise\f407_disc\lvgl\lvgl\src\misc\lv_mem.h **** }
 165:d:\practise\f407_disc\lvgl\lvgl\src\misc\lv_mem.h **** 
 166:d:\practise\f407_disc\lvgl\lvgl\src\misc\lv_mem.h **** /**
 167:d:\practise\f407_disc\lvgl\lvgl\src\misc\lv_mem.h ****  * Wrapper for the standard memset with fixed 0x00 value
 168:d:\practise\f407_disc\lvgl\lvgl\src\misc\lv_mem.h ****  * @param dst pointer to the destination buffer
 169:d:\practise\f407_disc\lvgl\lvgl\src\misc\lv_mem.h ****  * @param len number of byte to set
 170:d:\practise\f407_disc\lvgl\lvgl\src\misc\lv_mem.h ****  */
 171:d:\practise\f407_disc\lvgl\lvgl\src\misc\lv_mem.h **** static inline void lv_memset_00(void * dst, size_t len)
 172:d:\practise\f407_disc\lvgl\lvgl\src\misc\lv_mem.h **** {
 173:d:\practise\f407_disc\lvgl\lvgl\src\misc\lv_mem.h ****     memset(dst, 0x00, len);
 174:d:\practise\f407_disc\lvgl\lvgl\src\misc\lv_mem.h **** }
 175:d:\practise\f407_disc\lvgl\lvgl\src\misc\lv_mem.h **** 
 176:d:\practise\f407_disc\lvgl\lvgl\src\misc\lv_mem.h **** /**
 177:d:\practise\f407_disc\lvgl\lvgl\src\misc\lv_mem.h ****  * Wrapper for the standard memset with fixed 0xFF value
ARM GAS  C:\Users\gx\AppData\Local\Temp\ccSIsGPa.s 			page 119


 178:d:\practise\f407_disc\lvgl\lvgl\src\misc\lv_mem.h ****  * @param dst pointer to the destination buffer
 179:d:\practise\f407_disc\lvgl\lvgl\src\misc\lv_mem.h ****  * @param len number of byte to set
 180:d:\practise\f407_disc\lvgl\lvgl\src\misc\lv_mem.h ****  */
 181:d:\practise\f407_disc\lvgl\lvgl\src\misc\lv_mem.h **** static inline void lv_memset_ff(void * dst, size_t len)
 182:d:\practise\f407_disc\lvgl\lvgl\src\misc\lv_mem.h **** {
 183:d:\practise\f407_disc\lvgl\lvgl\src\misc\lv_mem.h ****     memset(dst, 0xFF, len);
 184:d:\practise\f407_disc\lvgl\lvgl\src\misc\lv_mem.h **** }
 185:d:\practise\f407_disc\lvgl\lvgl\src\misc\lv_mem.h **** 
 186:d:\practise\f407_disc\lvgl\lvgl\src\misc\lv_mem.h **** #else
 187:d:\practise\f407_disc\lvgl\lvgl\src\misc\lv_mem.h **** /**
 188:d:\practise\f407_disc\lvgl\lvgl\src\misc\lv_mem.h ****  * Same as `memcpy` but optimized for 4 byte operation.
 189:d:\practise\f407_disc\lvgl\lvgl\src\misc\lv_mem.h ****  * @param dst pointer to the destination buffer
 190:d:\practise\f407_disc\lvgl\lvgl\src\misc\lv_mem.h ****  * @param src pointer to the source buffer
 191:d:\practise\f407_disc\lvgl\lvgl\src\misc\lv_mem.h ****  * @param len number of byte to copy
 192:d:\practise\f407_disc\lvgl\lvgl\src\misc\lv_mem.h ****  */
 193:d:\practise\f407_disc\lvgl\lvgl\src\misc\lv_mem.h **** LV_ATTRIBUTE_FAST_MEM void * lv_memcpy(void * dst, const void * src, size_t len);
 194:d:\practise\f407_disc\lvgl\lvgl\src\misc\lv_mem.h **** 
 195:d:\practise\f407_disc\lvgl\lvgl\src\misc\lv_mem.h **** /**
 196:d:\practise\f407_disc\lvgl\lvgl\src\misc\lv_mem.h ****  * Same as `memcpy` but optimized to copy only a few bytes.
 197:d:\practise\f407_disc\lvgl\lvgl\src\misc\lv_mem.h ****  * @param dst pointer to the destination buffer
 198:d:\practise\f407_disc\lvgl\lvgl\src\misc\lv_mem.h ****  * @param src pointer to the source buffer
 199:d:\practise\f407_disc\lvgl\lvgl\src\misc\lv_mem.h ****  * @param len number of byte to copy
 200:d:\practise\f407_disc\lvgl\lvgl\src\misc\lv_mem.h ****  */
 201:d:\practise\f407_disc\lvgl\lvgl\src\misc\lv_mem.h **** LV_ATTRIBUTE_FAST_MEM static inline void * lv_memcpy_small(void * dst, const void * src, size_t len
 202:d:\practise\f407_disc\lvgl\lvgl\src\misc\lv_mem.h **** {
 203:d:\practise\f407_disc\lvgl\lvgl\src\misc\lv_mem.h ****     uint8_t * d8 = (uint8_t *)dst;
 204:d:\practise\f407_disc\lvgl\lvgl\src\misc\lv_mem.h ****     const uint8_t * s8 = (const uint8_t *)src;
 205:d:\practise\f407_disc\lvgl\lvgl\src\misc\lv_mem.h **** 
 206:d:\practise\f407_disc\lvgl\lvgl\src\misc\lv_mem.h ****     while(len) {
 207:d:\practise\f407_disc\lvgl\lvgl\src\misc\lv_mem.h ****         *d8 = *s8;
 3832              		.loc 5 207 9 is_stmt 1 view .LVU1333
 3833              		.loc 5 207 15 is_stmt 0 view .LVU1334
 3834 00ba 12F8010B 		ldrb	r0, [r2], #1	@ zero_extendqisi2
 3835              	.LVL405:
 3836              		.loc 5 207 13 view .LVU1335
 3837 00be 01F8010B 		strb	r0, [r1], #1
 3838              	.LVL406:
 208:d:\practise\f407_disc\lvgl\lvgl\src\misc\lv_mem.h ****         d8++;
 3839              		.loc 5 208 9 is_stmt 1 view .LVU1336
 209:d:\practise\f407_disc\lvgl\lvgl\src\misc\lv_mem.h ****         s8++;
 3840              		.loc 5 209 9 view .LVU1337
 210:d:\practise\f407_disc\lvgl\lvgl\src\misc\lv_mem.h ****         len--;
 3841              		.loc 5 210 9 view .LVU1338
 3842              		.loc 5 210 12 is_stmt 0 view .LVU1339
 3843 00c2 013B     		subs	r3, r3, #1
 3844              	.LVL407:
 3845              	.L192:
 206:d:\practise\f407_disc\lvgl\lvgl\src\misc\lv_mem.h ****         *d8 = *s8;
 3846              		.loc 5 206 10 is_stmt 1 view .LVU1340
 3847 00c4 002B     		cmp	r3, #0
 3848 00c6 F8D1     		bne	.L193
 211:d:\practise\f407_disc\lvgl\lvgl\src\misc\lv_mem.h ****     }
 212:d:\practise\f407_disc\lvgl\lvgl\src\misc\lv_mem.h **** 
 213:d:\practise\f407_disc\lvgl\lvgl\src\misc\lv_mem.h ****     return dst;
 3849              		.loc 5 213 5 view .LVU1341
 3850              	.LVL408:
 3851              		.loc 5 213 5 is_stmt 0 view .LVU1342
ARM GAS  C:\Users\gx\AppData\Local\Temp\ccSIsGPa.s 			page 120


 3852              	.LBE187:
 3853              	.LBE186:
 281:lvgl/lvgl/src/widgets/lv_table.c ****         old_col_start = row * old_col_cnt;
 3854              		.loc 1 281 40 is_stmt 1 view .LVU1343
 281:lvgl/lvgl/src/widgets/lv_table.c ****         old_col_start = row * old_col_cnt;
 3855              		.loc 1 281 43 is_stmt 0 view .LVU1344
 3856 00c8 0CF1010C 		add	ip, ip, #1
 3857              	.LVL409:
 3858              	.L191:
 281:lvgl/lvgl/src/widgets/lv_table.c ****         old_col_start = row * old_col_cnt;
 3859              		.loc 1 281 18 is_stmt 1 discriminator 1 view .LVU1345
 281:lvgl/lvgl/src/widgets/lv_table.c ****         old_col_start = row * old_col_cnt;
 3860              		.loc 1 281 29 is_stmt 0 discriminator 1 view .LVU1346
 3861 00cc E38C     		ldrh	r3, [r4, #38]
 281:lvgl/lvgl/src/widgets/lv_table.c ****         old_col_start = row * old_col_cnt;
 3862              		.loc 1 281 5 discriminator 1 view .LVU1347
 3863 00ce 6345     		cmp	r3, ip
 3864 00d0 0BD9     		bls	.L198
 282:lvgl/lvgl/src/widgets/lv_table.c ****         new_col_start = row * col_cnt;
 3865              		.loc 1 282 9 is_stmt 1 discriminator 3 view .LVU1348
 282:lvgl/lvgl/src/widgets/lv_table.c ****         new_col_start = row * col_cnt;
 3866              		.loc 1 282 23 is_stmt 0 discriminator 3 view .LVU1349
 3867 00d2 0CFB05F3 		mul	r3, ip, r5
 283:lvgl/lvgl/src/widgets/lv_table.c **** 
 3868              		.loc 1 283 9 is_stmt 1 discriminator 3 view .LVU1350
 283:lvgl/lvgl/src/widgets/lv_table.c **** 
 3869              		.loc 1 283 23 is_stmt 0 discriminator 3 view .LVU1351
 3870 00d6 0CFB07F1 		mul	r1, ip, r7
 3871              	.LVL410:
 285:lvgl/lvgl/src/widgets/lv_table.c ****     }
 3872              		.loc 1 285 9 is_stmt 1 discriminator 3 view .LVU1352
 285:lvgl/lvgl/src/widgets/lv_table.c ****     }
 3873              		.loc 1 285 25 is_stmt 0 discriminator 3 view .LVU1353
 3874 00da 06EB8101 		add	r1, r6, r1, lsl #2
 3875              	.LVL411:
 285:lvgl/lvgl/src/widgets/lv_table.c ****     }
 3876              		.loc 1 285 62 discriminator 3 view .LVU1354
 3877 00de A26A     		ldr	r2, [r4, #40]
 285:lvgl/lvgl/src/widgets/lv_table.c ****     }
 3878              		.loc 1 285 56 discriminator 3 view .LVU1355
 3879 00e0 02EB8302 		add	r2, r2, r3, lsl #2
 285:lvgl/lvgl/src/widgets/lv_table.c ****     }
 3880              		.loc 1 285 115 discriminator 3 view .LVU1356
 3881 00e4 4FEA8803 		lsl	r3, r8, #2
 3882              	.LVL412:
 3883              	.LBB189:
 3884              	.LBI186:
 201:d:\practise\f407_disc\lvgl\lvgl\src\misc\lv_mem.h **** {
 3885              		.loc 5 201 44 is_stmt 1 discriminator 3 view .LVU1357
 3886              	.LBB188:
 203:d:\practise\f407_disc\lvgl\lvgl\src\misc\lv_mem.h ****     const uint8_t * s8 = (const uint8_t *)src;
 3887              		.loc 5 203 5 discriminator 3 view .LVU1358
 204:d:\practise\f407_disc\lvgl\lvgl\src\misc\lv_mem.h **** 
 3888              		.loc 5 204 5 discriminator 3 view .LVU1359
 206:d:\practise\f407_disc\lvgl\lvgl\src\misc\lv_mem.h ****         *d8 = *s8;
 3889              		.loc 5 206 5 discriminator 3 view .LVU1360
 206:d:\practise\f407_disc\lvgl\lvgl\src\misc\lv_mem.h ****         *d8 = *s8;
ARM GAS  C:\Users\gx\AppData\Local\Temp\ccSIsGPa.s 			page 121


 3890              		.loc 5 206 10 is_stmt 0 discriminator 3 view .LVU1361
 3891 00e8 ECE7     		b	.L192
 3892              	.LVL413:
 3893              	.L198:
 206:d:\practise\f407_disc\lvgl\lvgl\src\misc\lv_mem.h ****         *d8 = *s8;
 3894              		.loc 5 206 10 discriminator 3 view .LVU1362
 3895              	.LBE188:
 3896              	.LBE189:
 288:lvgl/lvgl/src/widgets/lv_table.c ****     table->cell_data = new_cell_data;
 3897              		.loc 1 288 5 is_stmt 1 view .LVU1363
 3898 00ea A06A     		ldr	r0, [r4, #40]
 3899 00ec FFF7FEFF 		bl	lv_mem_free
 3900              	.LVL414:
 289:lvgl/lvgl/src/widgets/lv_table.c **** 
 3901              		.loc 1 289 5 view .LVU1364
 289:lvgl/lvgl/src/widgets/lv_table.c **** 
 3902              		.loc 1 289 22 is_stmt 0 view .LVU1365
 3903 00f0 A662     		str	r6, [r4, #40]
 292:lvgl/lvgl/src/widgets/lv_table.c **** }
 3904              		.loc 1 292 5 is_stmt 1 view .LVU1366
 3905 00f2 0021     		movs	r1, #0
 3906 00f4 2046     		mov	r0, r4
 3907 00f6 FFF7FEFF 		bl	refr_size
 3908              	.LVL415:
 293:lvgl/lvgl/src/widgets/lv_table.c **** 
 3909              		.loc 1 293 1 is_stmt 0 view .LVU1367
 3910 00fa 05B0     		add	sp, sp, #20
 3911              	.LCFI34:
 3912              		.cfi_def_cfa_offset 28
 3913              		@ sp needed
 3914 00fc BDE8F083 		pop	{r4, r5, r6, r7, r8, r9, pc}
 3915              	.LVL416:
 3916              	.L200:
 293:lvgl/lvgl/src/widgets/lv_table.c **** 
 3917              		.loc 1 293 1 view .LVU1368
 3918              		.align	2
 3919              	.L199:
 3920 0100 24000000 		.word	.LC1
 3921 0104 00000000 		.word	.LC9
 3922 0108 4C000000 		.word	.LC3
 3923 010c 00000000 		.word	.LANCHOR3
 3924 0110 00000000 		.word	.LC0
 3925 0114 18000000 		.word	.LC10
 3926              		.cfi_endproc
 3927              	.LFE156:
 3929              		.section	.rodata.lv_table_set_cell_value.str1.4,"aMS",%progbits,1
 3930              		.align	2
 3931              	.LC11:
 3932 0000 74787420 		.ascii	"txt != NULL\000"
 3932      213D204E 
 3932      554C4C00 
 3933              		.section	.text.lv_table_set_cell_value,"ax",%progbits
 3934              		.align	1
 3935              		.global	lv_table_set_cell_value
 3936              		.syntax unified
 3937              		.thumb
 3938              		.thumb_func
ARM GAS  C:\Users\gx\AppData\Local\Temp\ccSIsGPa.s 			page 122


 3939              		.fpu fpv4-sp-d16
 3941              	lv_table_set_cell_value:
 3942              	.LVL417:
 3943              	.LFB153:
  77:lvgl/lvgl/src/widgets/lv_table.c ****     LV_ASSERT_OBJ(obj, MY_CLASS);
 3944              		.loc 1 77 1 is_stmt 1 view -0
 3945              		.cfi_startproc
 3946              		@ args = 0, pretend = 0, frame = 0
 3947              		@ frame_needed = 0, uses_anonymous_args = 0
  77:lvgl/lvgl/src/widgets/lv_table.c ****     LV_ASSERT_OBJ(obj, MY_CLASS);
 3948              		.loc 1 77 1 is_stmt 0 view .LVU1370
 3949 0000 2DE9F047 		push	{r4, r5, r6, r7, r8, r9, r10, lr}
 3950              	.LCFI35:
 3951              		.cfi_def_cfa_offset 32
 3952              		.cfi_offset 4, -32
 3953              		.cfi_offset 5, -28
 3954              		.cfi_offset 6, -24
 3955              		.cfi_offset 7, -20
 3956              		.cfi_offset 8, -16
 3957              		.cfi_offset 9, -12
 3958              		.cfi_offset 10, -8
 3959              		.cfi_offset 14, -4
 3960 0004 84B0     		sub	sp, sp, #16
 3961              	.LCFI36:
 3962              		.cfi_def_cfa_offset 48
  78:lvgl/lvgl/src/widgets/lv_table.c ****     LV_ASSERT_NULL(txt);
 3963              		.loc 1 78 5 is_stmt 1 view .LVU1371
  78:lvgl/lvgl/src/widgets/lv_table.c ****     LV_ASSERT_NULL(txt);
 3964              		.loc 1 78 5 view .LVU1372
  78:lvgl/lvgl/src/widgets/lv_table.c ****     LV_ASSERT_NULL(txt);
 3965              		.loc 1 78 5 view .LVU1373
  79:lvgl/lvgl/src/widgets/lv_table.c **** 
 3966              		.loc 1 79 5 view .LVU1374
  79:lvgl/lvgl/src/widgets/lv_table.c **** 
 3967              		.loc 1 79 5 view .LVU1375
 3968 0006 A3B3     		cbz	r3, .L211
 3969 0008 0446     		mov	r4, r0
 3970 000a 0D46     		mov	r5, r1
 3971 000c 1646     		mov	r6, r2
 3972 000e 9946     		mov	r9, r3
  79:lvgl/lvgl/src/widgets/lv_table.c **** 
 3973              		.loc 1 79 5 discriminator 2 view .LVU1376
  79:lvgl/lvgl/src/widgets/lv_table.c **** 
 3974              		.loc 1 79 24 discriminator 2 view .LVU1377
  81:lvgl/lvgl/src/widgets/lv_table.c **** 
 3975              		.loc 1 81 5 discriminator 2 view .LVU1378
 3976              	.LVL418:
  84:lvgl/lvgl/src/widgets/lv_table.c ****     if(row >= table->row_cnt) lv_table_set_row_cnt(obj, row + 1);
 3977              		.loc 1 84 5 discriminator 2 view .LVU1379
  84:lvgl/lvgl/src/widgets/lv_table.c ****     if(row >= table->row_cnt) lv_table_set_row_cnt(obj, row + 1);
 3978              		.loc 1 84 20 is_stmt 0 discriminator 2 view .LVU1380
 3979 0010 838C     		ldrh	r3, [r0, #36]
 3980              	.LVL419:
  84:lvgl/lvgl/src/widgets/lv_table.c ****     if(row >= table->row_cnt) lv_table_set_row_cnt(obj, row + 1);
 3981              		.loc 1 84 7 discriminator 2 view .LVU1381
 3982 0012 9342     		cmp	r3, r2
 3983 0014 3AD9     		bls	.L212
ARM GAS  C:\Users\gx\AppData\Local\Temp\ccSIsGPa.s 			page 123


 3984              	.LVL420:
 3985              	.L204:
  85:lvgl/lvgl/src/widgets/lv_table.c **** 
 3986              		.loc 1 85 5 is_stmt 1 view .LVU1382
  85:lvgl/lvgl/src/widgets/lv_table.c **** 
 3987              		.loc 1 85 20 is_stmt 0 view .LVU1383
 3988 0016 E38C     		ldrh	r3, [r4, #38]
  85:lvgl/lvgl/src/widgets/lv_table.c **** 
 3989              		.loc 1 85 7 view .LVU1384
 3990 0018 AB42     		cmp	r3, r5
 3991 001a 3CD9     		bls	.L213
 3992              	.L205:
  87:lvgl/lvgl/src/widgets/lv_table.c ****     lv_table_cell_ctrl_t ctrl = 0;
 3993              		.loc 1 87 5 is_stmt 1 view .LVU1385
  87:lvgl/lvgl/src/widgets/lv_table.c ****     lv_table_cell_ctrl_t ctrl = 0;
 3994              		.loc 1 87 32 is_stmt 0 view .LVU1386
 3995 001c A38C     		ldrh	r3, [r4, #36]
  87:lvgl/lvgl/src/widgets/lv_table.c ****     lv_table_cell_ctrl_t ctrl = 0;
 3996              		.loc 1 87 42 view .LVU1387
 3997 001e 03FB0566 		mla	r6, r3, r5, r6
 3998              	.LVL421:
  88:lvgl/lvgl/src/widgets/lv_table.c **** 
 3999              		.loc 1 88 5 is_stmt 1 view .LVU1388
  91:lvgl/lvgl/src/widgets/lv_table.c **** 
 4000              		.loc 1 91 5 view .LVU1389
  91:lvgl/lvgl/src/widgets/lv_table.c **** 
 4001              		.loc 1 91 13 is_stmt 0 view .LVU1390
 4002 0022 D4F828A0 		ldr	r10, [r4, #40]
  91:lvgl/lvgl/src/widgets/lv_table.c **** 
 4003              		.loc 1 91 24 view .LVU1391
 4004 0026 5AF82670 		ldr	r7, [r10, r6, lsl #2]
  91:lvgl/lvgl/src/widgets/lv_table.c **** 
 4005              		.loc 1 91 7 view .LVU1392
 4006 002a 002F     		cmp	r7, #0
 4007 002c 39D0     		beq	.L209
  91:lvgl/lvgl/src/widgets/lv_table.c **** 
 4008              		.loc 1 91 32 is_stmt 1 discriminator 1 view .LVU1393
  91:lvgl/lvgl/src/widgets/lv_table.c **** 
 4009              		.loc 1 91 37 is_stmt 0 discriminator 1 view .LVU1394
 4010 002e 97F80080 		ldrb	r8, [r7]	@ zero_extendqisi2
 4011              	.LVL422:
 4012              	.L206:
 102:lvgl/lvgl/src/widgets/lv_table.c ****     LV_ASSERT_MALLOC(table->cell_data[cell]);
 4013              		.loc 1 102 5 is_stmt 1 view .LVU1395
 102:lvgl/lvgl/src/widgets/lv_table.c ****     LV_ASSERT_MALLOC(table->cell_data[cell]);
 4014              		.loc 1 102 69 is_stmt 0 view .LVU1396
 4015 0032 4846     		mov	r0, r9
 4016 0034 FFF7FEFF 		bl	strlen
 4017              	.LVL423:
 102:lvgl/lvgl/src/widgets/lv_table.c ****     LV_ASSERT_MALLOC(table->cell_data[cell]);
 4018              		.loc 1 102 30 view .LVU1397
 4019 0038 811C     		adds	r1, r0, #2
 4020 003a 3846     		mov	r0, r7
 4021 003c FFF7FEFF 		bl	lv_mem_realloc
 4022              	.LVL424:
 102:lvgl/lvgl/src/widgets/lv_table.c ****     LV_ASSERT_MALLOC(table->cell_data[cell]);
 4023              		.loc 1 102 28 view .LVU1398
ARM GAS  C:\Users\gx\AppData\Local\Temp\ccSIsGPa.s 			page 124


 4024 0040 4AF82600 		str	r0, [r10, r6, lsl #2]
 103:lvgl/lvgl/src/widgets/lv_table.c **** 
 4025              		.loc 1 103 5 is_stmt 1 view .LVU1399
 103:lvgl/lvgl/src/widgets/lv_table.c **** 
 4026              		.loc 1 103 5 view .LVU1400
 4027 0044 A36A     		ldr	r3, [r4, #40]
 4028 0046 53F82600 		ldr	r0, [r3, r6, lsl #2]
 4029 004a 68B3     		cbz	r0, .L214
 103:lvgl/lvgl/src/widgets/lv_table.c **** 
 4030              		.loc 1 103 5 discriminator 2 view .LVU1401
 103:lvgl/lvgl/src/widgets/lv_table.c **** 
 4031              		.loc 1 103 45 discriminator 2 view .LVU1402
 105:lvgl/lvgl/src/widgets/lv_table.c **** #endif
 4032              		.loc 1 105 5 discriminator 2 view .LVU1403
 4033 004c 4946     		mov	r1, r9
 4034 004e 0130     		adds	r0, r0, #1
 4035 0050 FFF7FEFF 		bl	strcpy
 4036              	.LVL425:
 108:lvgl/lvgl/src/widgets/lv_table.c ****     refr_size(obj, row);
 4037              		.loc 1 108 5 discriminator 2 view .LVU1404
 108:lvgl/lvgl/src/widgets/lv_table.c ****     refr_size(obj, row);
 4038              		.loc 1 108 10 is_stmt 0 discriminator 2 view .LVU1405
 4039 0054 A36A     		ldr	r3, [r4, #40]
 108:lvgl/lvgl/src/widgets/lv_table.c ****     refr_size(obj, row);
 4040              		.loc 1 108 21 discriminator 2 view .LVU1406
 4041 0056 53F82630 		ldr	r3, [r3, r6, lsl #2]
 108:lvgl/lvgl/src/widgets/lv_table.c ****     refr_size(obj, row);
 4042              		.loc 1 108 31 discriminator 2 view .LVU1407
 4043 005a 83F80080 		strb	r8, [r3]
 109:lvgl/lvgl/src/widgets/lv_table.c **** 
 4044              		.loc 1 109 5 is_stmt 1 discriminator 2 view .LVU1408
 4045 005e 2946     		mov	r1, r5
 4046 0060 2046     		mov	r0, r4
 4047 0062 FFF7FEFF 		bl	refr_size
 4048              	.LVL426:
 111:lvgl/lvgl/src/widgets/lv_table.c **** }
 4049              		.loc 1 111 5 discriminator 2 view .LVU1409
 4050 0066 2046     		mov	r0, r4
 4051 0068 FFF7FEFF 		bl	lv_obj_invalidate
 4052              	.LVL427:
 112:lvgl/lvgl/src/widgets/lv_table.c **** 
 4053              		.loc 1 112 1 is_stmt 0 discriminator 2 view .LVU1410
 4054 006c 04B0     		add	sp, sp, #16
 4055              	.LCFI37:
 4056              		.cfi_remember_state
 4057              		.cfi_def_cfa_offset 32
 4058              		@ sp needed
 4059 006e BDE8F087 		pop	{r4, r5, r6, r7, r8, r9, r10, pc}
 4060              	.LVL428:
 4061              	.L211:
 4062              	.LCFI38:
 4063              		.cfi_restore_state
  79:lvgl/lvgl/src/widgets/lv_table.c **** 
 4064              		.loc 1 79 5 is_stmt 1 discriminator 1 view .LVU1411
 4065 0072 144B     		ldr	r3, .L215
 4066              	.LVL429:
  79:lvgl/lvgl/src/widgets/lv_table.c **** 
ARM GAS  C:\Users\gx\AppData\Local\Temp\ccSIsGPa.s 			page 125


 4067              		.loc 1 79 5 is_stmt 0 discriminator 1 view .LVU1412
 4068 0074 0293     		str	r3, [sp, #8]
 4069 0076 144B     		ldr	r3, .L215+4
 4070 0078 0193     		str	r3, [sp, #4]
 4071 007a 144B     		ldr	r3, .L215+8
 4072 007c 0093     		str	r3, [sp]
 4073 007e 144B     		ldr	r3, .L215+12
 4074 0080 4F22     		movs	r2, #79
 4075              	.LVL430:
  79:lvgl/lvgl/src/widgets/lv_table.c **** 
 4076              		.loc 1 79 5 discriminator 1 view .LVU1413
 4077 0082 1449     		ldr	r1, .L215+16
 4078              	.LVL431:
  79:lvgl/lvgl/src/widgets/lv_table.c **** 
 4079              		.loc 1 79 5 discriminator 1 view .LVU1414
 4080 0084 0320     		movs	r0, #3
 4081              	.LVL432:
  79:lvgl/lvgl/src/widgets/lv_table.c **** 
 4082              		.loc 1 79 5 discriminator 1 view .LVU1415
 4083 0086 FFF7FEFF 		bl	_lv_log_add
 4084              	.LVL433:
 4085              	.L203:
  79:lvgl/lvgl/src/widgets/lv_table.c **** 
 4086              		.loc 1 79 5 is_stmt 1 discriminator 1 view .LVU1416
  79:lvgl/lvgl/src/widgets/lv_table.c **** 
 4087              		.loc 1 79 5 discriminator 1 view .LVU1417
  79:lvgl/lvgl/src/widgets/lv_table.c **** 
 4088              		.loc 1 79 5 discriminator 1 view .LVU1418
  79:lvgl/lvgl/src/widgets/lv_table.c **** 
 4089              		.loc 1 79 5 discriminator 1 view .LVU1419
 4090 008a FEE7     		b	.L203
 4091              	.LVL434:
 4092              	.L212:
  84:lvgl/lvgl/src/widgets/lv_table.c ****     if(row >= table->row_cnt) lv_table_set_row_cnt(obj, row + 1);
 4093              		.loc 1 84 31 discriminator 1 view .LVU1420
 4094 008c 511C     		adds	r1, r2, #1
 4095              	.LVL435:
  84:lvgl/lvgl/src/widgets/lv_table.c ****     if(row >= table->row_cnt) lv_table_set_row_cnt(obj, row + 1);
 4096              		.loc 1 84 31 is_stmt 0 discriminator 1 view .LVU1421
 4097 008e 89B2     		uxth	r1, r1
 4098 0090 FFF7FEFF 		bl	lv_table_set_col_cnt
 4099              	.LVL436:
  84:lvgl/lvgl/src/widgets/lv_table.c ****     if(row >= table->row_cnt) lv_table_set_row_cnt(obj, row + 1);
 4100              		.loc 1 84 31 discriminator 1 view .LVU1422
 4101 0094 BFE7     		b	.L204
 4102              	.L213:
  85:lvgl/lvgl/src/widgets/lv_table.c **** 
 4103              		.loc 1 85 31 is_stmt 1 discriminator 1 view .LVU1423
 4104 0096 691C     		adds	r1, r5, #1
 4105 0098 89B2     		uxth	r1, r1
 4106 009a 2046     		mov	r0, r4
 4107 009c FFF7FEFF 		bl	lv_table_set_row_cnt
 4108              	.LVL437:
 4109 00a0 BCE7     		b	.L205
 4110              	.LVL438:
 4111              	.L209:
  88:lvgl/lvgl/src/widgets/lv_table.c **** 
ARM GAS  C:\Users\gx\AppData\Local\Temp\ccSIsGPa.s 			page 126


 4112              		.loc 1 88 26 is_stmt 0 view .LVU1424
 4113 00a2 4FF00008 		mov	r8, #0
 4114 00a6 C4E7     		b	.L206
 4115              	.LVL439:
 4116              	.L214:
 103:lvgl/lvgl/src/widgets/lv_table.c **** 
 4117              		.loc 1 103 5 is_stmt 1 discriminator 1 view .LVU1425
 4118 00a8 0B4B     		ldr	r3, .L215+20
 4119 00aa 0293     		str	r3, [sp, #8]
 4120 00ac 0B4B     		ldr	r3, .L215+24
 4121 00ae 0193     		str	r3, [sp, #4]
 4122 00b0 064B     		ldr	r3, .L215+8
 4123 00b2 0093     		str	r3, [sp]
 4124 00b4 064B     		ldr	r3, .L215+12
 4125 00b6 6722     		movs	r2, #103
 4126 00b8 0649     		ldr	r1, .L215+16
 4127 00ba 0320     		movs	r0, #3
 4128 00bc FFF7FEFF 		bl	_lv_log_add
 4129              	.LVL440:
 4130              	.L208:
 103:lvgl/lvgl/src/widgets/lv_table.c **** 
 4131              		.loc 1 103 5 discriminator 2 view .LVU1426
 103:lvgl/lvgl/src/widgets/lv_table.c **** 
 4132              		.loc 1 103 5 discriminator 2 view .LVU1427
 103:lvgl/lvgl/src/widgets/lv_table.c **** 
 4133              		.loc 1 103 5 discriminator 2 view .LVU1428
 103:lvgl/lvgl/src/widgets/lv_table.c **** 
 4134              		.loc 1 103 5 discriminator 2 view .LVU1429
 4135 00c0 FEE7     		b	.L208
 4136              	.L216:
 4137 00c2 00BF     		.align	2
 4138              	.L215:
 4139 00c4 00000000 		.word	.LC5
 4140 00c8 00000000 		.word	.LC11
 4141 00cc 4C000000 		.word	.LC3
 4142 00d0 00000000 		.word	.LANCHOR4
 4143 00d4 00000000 		.word	.LC0
 4144 00d8 24000000 		.word	.LC1
 4145 00dc 44000000 		.word	.LC8
 4146              		.cfi_endproc
 4147              	.LFE153:
 4149              		.section	.text.lv_table_set_col_width,"ax",%progbits
 4150              		.align	1
 4151              		.global	lv_table_set_col_width
 4152              		.syntax unified
 4153              		.thumb
 4154              		.thumb_func
 4155              		.fpu fpv4-sp-d16
 4157              	lv_table_set_col_width:
 4158              	.LVL441:
 4159              	.LFB157:
 296:lvgl/lvgl/src/widgets/lv_table.c ****     LV_ASSERT_OBJ(obj, MY_CLASS);
 4160              		.loc 1 296 1 view -0
 4161              		.cfi_startproc
 4162              		@ args = 0, pretend = 0, frame = 0
 4163              		@ frame_needed = 0, uses_anonymous_args = 0
 296:lvgl/lvgl/src/widgets/lv_table.c ****     LV_ASSERT_OBJ(obj, MY_CLASS);
ARM GAS  C:\Users\gx\AppData\Local\Temp\ccSIsGPa.s 			page 127


 4164              		.loc 1 296 1 is_stmt 0 view .LVU1431
 4165 0000 70B5     		push	{r4, r5, r6, lr}
 4166              	.LCFI39:
 4167              		.cfi_def_cfa_offset 16
 4168              		.cfi_offset 4, -16
 4169              		.cfi_offset 5, -12
 4170              		.cfi_offset 6, -8
 4171              		.cfi_offset 14, -4
 4172 0002 0446     		mov	r4, r0
 4173 0004 0D46     		mov	r5, r1
 4174 0006 1646     		mov	r6, r2
 297:lvgl/lvgl/src/widgets/lv_table.c **** 
 4175              		.loc 1 297 5 is_stmt 1 view .LVU1432
 297:lvgl/lvgl/src/widgets/lv_table.c **** 
 4176              		.loc 1 297 5 view .LVU1433
 297:lvgl/lvgl/src/widgets/lv_table.c **** 
 4177              		.loc 1 297 5 view .LVU1434
 299:lvgl/lvgl/src/widgets/lv_table.c **** 
 4178              		.loc 1 299 5 view .LVU1435
 4179              	.LVL442:
 302:lvgl/lvgl/src/widgets/lv_table.c **** 
 4180              		.loc 1 302 5 view .LVU1436
 302:lvgl/lvgl/src/widgets/lv_table.c **** 
 4181              		.loc 1 302 23 is_stmt 0 view .LVU1437
 4182 0008 838C     		ldrh	r3, [r0, #36]
 302:lvgl/lvgl/src/widgets/lv_table.c **** 
 4183              		.loc 1 302 7 view .LVU1438
 4184 000a 8B42     		cmp	r3, r1
 4185 000c 07D9     		bls	.L220
 4186              	.LVL443:
 4187              	.L218:
 304:lvgl/lvgl/src/widgets/lv_table.c ****     refr_size(obj, 0) ;
 4188              		.loc 1 304 5 is_stmt 1 view .LVU1439
 304:lvgl/lvgl/src/widgets/lv_table.c ****     refr_size(obj, 0) ;
 4189              		.loc 1 304 10 is_stmt 0 view .LVU1440
 4190 000e 236B     		ldr	r3, [r4, #48]
 304:lvgl/lvgl/src/widgets/lv_table.c ****     refr_size(obj, 0) ;
 4191              		.loc 1 304 26 view .LVU1441
 4192 0010 23F81560 		strh	r6, [r3, r5, lsl #1]	@ movhi
 305:lvgl/lvgl/src/widgets/lv_table.c **** }
 4193              		.loc 1 305 5 is_stmt 1 view .LVU1442
 4194 0014 0021     		movs	r1, #0
 4195 0016 2046     		mov	r0, r4
 4196 0018 FFF7FEFF 		bl	refr_size
 4197              	.LVL444:
 306:lvgl/lvgl/src/widgets/lv_table.c **** 
 4198              		.loc 1 306 1 is_stmt 0 view .LVU1443
 4199 001c 70BD     		pop	{r4, r5, r6, pc}
 4200              	.LVL445:
 4201              	.L220:
 302:lvgl/lvgl/src/widgets/lv_table.c **** 
 4202              		.loc 1 302 34 is_stmt 1 discriminator 1 view .LVU1444
 4203 001e 0131     		adds	r1, r1, #1
 4204              	.LVL446:
 302:lvgl/lvgl/src/widgets/lv_table.c **** 
 4205              		.loc 1 302 34 is_stmt 0 discriminator 1 view .LVU1445
 4206 0020 89B2     		uxth	r1, r1
ARM GAS  C:\Users\gx\AppData\Local\Temp\ccSIsGPa.s 			page 128


 4207 0022 FFF7FEFF 		bl	lv_table_set_col_cnt
 4208              	.LVL447:
 302:lvgl/lvgl/src/widgets/lv_table.c **** 
 4209              		.loc 1 302 34 discriminator 1 view .LVU1446
 4210 0026 F2E7     		b	.L218
 4211              		.cfi_endproc
 4212              	.LFE157:
 4214              		.section	.text.lv_table_add_cell_ctrl,"ax",%progbits
 4215              		.align	1
 4216              		.global	lv_table_add_cell_ctrl
 4217              		.syntax unified
 4218              		.thumb
 4219              		.thumb_func
 4220              		.fpu fpv4-sp-d16
 4222              	lv_table_add_cell_ctrl:
 4223              	.LVL448:
 4224              	.LFB158:
 309:lvgl/lvgl/src/widgets/lv_table.c ****     LV_ASSERT_OBJ(obj, MY_CLASS);
 4225              		.loc 1 309 1 is_stmt 1 view -0
 4226              		.cfi_startproc
 4227              		@ args = 0, pretend = 0, frame = 0
 4228              		@ frame_needed = 0, uses_anonymous_args = 0
 309:lvgl/lvgl/src/widgets/lv_table.c ****     LV_ASSERT_OBJ(obj, MY_CLASS);
 4229              		.loc 1 309 1 is_stmt 0 view .LVU1448
 4230 0000 F0B5     		push	{r4, r5, r6, r7, lr}
 4231              	.LCFI40:
 4232              		.cfi_def_cfa_offset 20
 4233              		.cfi_offset 4, -20
 4234              		.cfi_offset 5, -16
 4235              		.cfi_offset 6, -12
 4236              		.cfi_offset 7, -8
 4237              		.cfi_offset 14, -4
 4238 0002 85B0     		sub	sp, sp, #20
 4239              	.LCFI41:
 4240              		.cfi_def_cfa_offset 40
 4241 0004 0446     		mov	r4, r0
 4242 0006 0F46     		mov	r7, r1
 4243 0008 1646     		mov	r6, r2
 4244 000a 1D46     		mov	r5, r3
 310:lvgl/lvgl/src/widgets/lv_table.c **** 
 4245              		.loc 1 310 5 is_stmt 1 view .LVU1449
 310:lvgl/lvgl/src/widgets/lv_table.c **** 
 4246              		.loc 1 310 5 view .LVU1450
 310:lvgl/lvgl/src/widgets/lv_table.c **** 
 4247              		.loc 1 310 5 view .LVU1451
 312:lvgl/lvgl/src/widgets/lv_table.c **** 
 4248              		.loc 1 312 5 view .LVU1452
 4249              	.LVL449:
 315:lvgl/lvgl/src/widgets/lv_table.c ****     if(row >= table->row_cnt) lv_table_set_row_cnt(obj, row + 1);
 4250              		.loc 1 315 5 view .LVU1453
 315:lvgl/lvgl/src/widgets/lv_table.c ****     if(row >= table->row_cnt) lv_table_set_row_cnt(obj, row + 1);
 4251              		.loc 1 315 20 is_stmt 0 view .LVU1454
 4252 000c 838C     		ldrh	r3, [r0, #36]
 4253              	.LVL450:
 315:lvgl/lvgl/src/widgets/lv_table.c ****     if(row >= table->row_cnt) lv_table_set_row_cnt(obj, row + 1);
 4254              		.loc 1 315 7 view .LVU1455
 4255 000e 9342     		cmp	r3, r2
ARM GAS  C:\Users\gx\AppData\Local\Temp\ccSIsGPa.s 			page 129


 4256 0010 11D9     		bls	.L228
 4257              	.LVL451:
 4258              	.L222:
 316:lvgl/lvgl/src/widgets/lv_table.c **** 
 4259              		.loc 1 316 5 is_stmt 1 view .LVU1456
 316:lvgl/lvgl/src/widgets/lv_table.c **** 
 4260              		.loc 1 316 20 is_stmt 0 view .LVU1457
 4261 0012 E38C     		ldrh	r3, [r4, #38]
 316:lvgl/lvgl/src/widgets/lv_table.c **** 
 4262              		.loc 1 316 7 view .LVU1458
 4263 0014 BB42     		cmp	r3, r7
 4264 0016 13D9     		bls	.L229
 4265              	.L223:
 318:lvgl/lvgl/src/widgets/lv_table.c **** 
 4266              		.loc 1 318 5 is_stmt 1 view .LVU1459
 318:lvgl/lvgl/src/widgets/lv_table.c **** 
 4267              		.loc 1 318 32 is_stmt 0 view .LVU1460
 4268 0018 A38C     		ldrh	r3, [r4, #36]
 318:lvgl/lvgl/src/widgets/lv_table.c **** 
 4269              		.loc 1 318 42 view .LVU1461
 4270 001a 03FB0766 		mla	r6, r3, r7, r6
 4271              	.LVL452:
 320:lvgl/lvgl/src/widgets/lv_table.c ****         table->cell_data[cell]    = lv_mem_alloc(2); /*+1: trailing '\0; +1: format byte*/
 4272              		.loc 1 320 5 is_stmt 1 view .LVU1462
 320:lvgl/lvgl/src/widgets/lv_table.c ****         table->cell_data[cell]    = lv_mem_alloc(2); /*+1: trailing '\0; +1: format byte*/
 4273              		.loc 1 320 13 is_stmt 0 view .LVU1463
 4274 001e A76A     		ldr	r7, [r4, #40]
 320:lvgl/lvgl/src/widgets/lv_table.c ****         table->cell_data[cell]    = lv_mem_alloc(2); /*+1: trailing '\0; +1: format byte*/
 4275              		.loc 1 320 24 view .LVU1464
 4276 0020 57F82630 		ldr	r3, [r7, r6, lsl #2]
 320:lvgl/lvgl/src/widgets/lv_table.c ****         table->cell_data[cell]    = lv_mem_alloc(2); /*+1: trailing '\0; +1: format byte*/
 4277              		.loc 1 320 7 view .LVU1465
 4278 0024 93B1     		cbz	r3, .L230
 4279              	.L224:
 329:lvgl/lvgl/src/widgets/lv_table.c **** }
 4280              		.loc 1 329 5 is_stmt 1 view .LVU1466
 329:lvgl/lvgl/src/widgets/lv_table.c **** }
 4281              		.loc 1 329 10 is_stmt 0 view .LVU1467
 4282 0026 A36A     		ldr	r3, [r4, #40]
 329:lvgl/lvgl/src/widgets/lv_table.c **** }
 4283              		.loc 1 329 21 view .LVU1468
 4284 0028 53F82630 		ldr	r3, [r3, r6, lsl #2]
 329:lvgl/lvgl/src/widgets/lv_table.c **** }
 4285              		.loc 1 329 31 view .LVU1469
 4286 002c 1A78     		ldrb	r2, [r3]	@ zero_extendqisi2
 4287 002e 1543     		orrs	r5, r5, r2
 4288 0030 1D70     		strb	r5, [r3]
 330:lvgl/lvgl/src/widgets/lv_table.c **** 
 4289              		.loc 1 330 1 view .LVU1470
 4290 0032 05B0     		add	sp, sp, #20
 4291              	.LCFI42:
 4292              		.cfi_remember_state
 4293              		.cfi_def_cfa_offset 20
 4294              		@ sp needed
 4295 0034 F0BD     		pop	{r4, r5, r6, r7, pc}
 4296              	.LVL453:
 4297              	.L228:
ARM GAS  C:\Users\gx\AppData\Local\Temp\ccSIsGPa.s 			page 130


 4298              	.LCFI43:
 4299              		.cfi_restore_state
 315:lvgl/lvgl/src/widgets/lv_table.c ****     if(row >= table->row_cnt) lv_table_set_row_cnt(obj, row + 1);
 4300              		.loc 1 315 31 is_stmt 1 discriminator 1 view .LVU1471
 4301 0036 511C     		adds	r1, r2, #1
 4302              	.LVL454:
 315:lvgl/lvgl/src/widgets/lv_table.c ****     if(row >= table->row_cnt) lv_table_set_row_cnt(obj, row + 1);
 4303              		.loc 1 315 31 is_stmt 0 discriminator 1 view .LVU1472
 4304 0038 89B2     		uxth	r1, r1
 4305 003a FFF7FEFF 		bl	lv_table_set_col_cnt
 4306              	.LVL455:
 315:lvgl/lvgl/src/widgets/lv_table.c ****     if(row >= table->row_cnt) lv_table_set_row_cnt(obj, row + 1);
 4307              		.loc 1 315 31 discriminator 1 view .LVU1473
 4308 003e E8E7     		b	.L222
 4309              	.L229:
 316:lvgl/lvgl/src/widgets/lv_table.c **** 
 4310              		.loc 1 316 31 is_stmt 1 discriminator 1 view .LVU1474
 4311 0040 791C     		adds	r1, r7, #1
 4312 0042 89B2     		uxth	r1, r1
 4313 0044 2046     		mov	r0, r4
 4314 0046 FFF7FEFF 		bl	lv_table_set_row_cnt
 4315              	.LVL456:
 4316 004a E5E7     		b	.L223
 4317              	.LVL457:
 4318              	.L230:
 321:lvgl/lvgl/src/widgets/lv_table.c ****         LV_ASSERT_MALLOC(table->cell_data[cell]);
 4319              		.loc 1 321 9 view .LVU1475
 321:lvgl/lvgl/src/widgets/lv_table.c ****         LV_ASSERT_MALLOC(table->cell_data[cell]);
 4320              		.loc 1 321 37 is_stmt 0 view .LVU1476
 4321 004c 0220     		movs	r0, #2
 4322 004e FFF7FEFF 		bl	lv_mem_alloc
 4323              	.LVL458:
 321:lvgl/lvgl/src/widgets/lv_table.c ****         LV_ASSERT_MALLOC(table->cell_data[cell]);
 4324              		.loc 1 321 35 view .LVU1477
 4325 0052 47F82600 		str	r0, [r7, r6, lsl #2]
 322:lvgl/lvgl/src/widgets/lv_table.c ****         if(table->cell_data[cell] == NULL) return;
 4326              		.loc 1 322 9 is_stmt 1 view .LVU1478
 322:lvgl/lvgl/src/widgets/lv_table.c ****         if(table->cell_data[cell] == NULL) return;
 4327              		.loc 1 322 9 view .LVU1479
 4328 0056 A36A     		ldr	r3, [r4, #40]
 4329 0058 53F82620 		ldr	r2, [r3, r6, lsl #2]
 4330 005c 32B1     		cbz	r2, .L231
 322:lvgl/lvgl/src/widgets/lv_table.c ****         if(table->cell_data[cell] == NULL) return;
 4331              		.loc 1 322 9 view .LVU1480
 322:lvgl/lvgl/src/widgets/lv_table.c ****         if(table->cell_data[cell] == NULL) return;
 4332              		.loc 1 322 49 view .LVU1481
 323:lvgl/lvgl/src/widgets/lv_table.c **** 
 4333              		.loc 1 323 9 view .LVU1482
 325:lvgl/lvgl/src/widgets/lv_table.c ****         table->cell_data[cell][1] = '\0';
 4334              		.loc 1 325 9 view .LVU1483
 325:lvgl/lvgl/src/widgets/lv_table.c ****         table->cell_data[cell][1] = '\0';
 4335              		.loc 1 325 35 is_stmt 0 view .LVU1484
 4336 005e 0023     		movs	r3, #0
 4337 0060 1370     		strb	r3, [r2]
 326:lvgl/lvgl/src/widgets/lv_table.c ****     }
 4338              		.loc 1 326 9 is_stmt 1 view .LVU1485
 326:lvgl/lvgl/src/widgets/lv_table.c ****     }
ARM GAS  C:\Users\gx\AppData\Local\Temp\ccSIsGPa.s 			page 131


 4339              		.loc 1 326 14 is_stmt 0 view .LVU1486
 4340 0062 A26A     		ldr	r2, [r4, #40]
 326:lvgl/lvgl/src/widgets/lv_table.c ****     }
 4341              		.loc 1 326 25 view .LVU1487
 4342 0064 52F82620 		ldr	r2, [r2, r6, lsl #2]
 326:lvgl/lvgl/src/widgets/lv_table.c ****     }
 4343              		.loc 1 326 35 view .LVU1488
 4344 0068 5370     		strb	r3, [r2, #1]
 4345 006a DCE7     		b	.L224
 4346              	.L231:
 322:lvgl/lvgl/src/widgets/lv_table.c ****         if(table->cell_data[cell] == NULL) return;
 4347              		.loc 1 322 9 is_stmt 1 discriminator 1 view .LVU1489
 4348 006c 064B     		ldr	r3, .L232
 4349 006e 0293     		str	r3, [sp, #8]
 4350 0070 064B     		ldr	r3, .L232+4
 4351 0072 0193     		str	r3, [sp, #4]
 4352 0074 064B     		ldr	r3, .L232+8
 4353 0076 0093     		str	r3, [sp]
 4354 0078 064B     		ldr	r3, .L232+12
 4355 007a 4FF4A172 		mov	r2, #322
 4356 007e 0649     		ldr	r1, .L232+16
 4357 0080 0320     		movs	r0, #3
 4358 0082 FFF7FEFF 		bl	_lv_log_add
 4359              	.LVL459:
 4360              	.L226:
 322:lvgl/lvgl/src/widgets/lv_table.c ****         if(table->cell_data[cell] == NULL) return;
 4361              		.loc 1 322 9 discriminator 1 view .LVU1490
 322:lvgl/lvgl/src/widgets/lv_table.c ****         if(table->cell_data[cell] == NULL) return;
 4362              		.loc 1 322 9 discriminator 1 view .LVU1491
 322:lvgl/lvgl/src/widgets/lv_table.c ****         if(table->cell_data[cell] == NULL) return;
 4363              		.loc 1 322 9 discriminator 1 view .LVU1492
 322:lvgl/lvgl/src/widgets/lv_table.c ****         if(table->cell_data[cell] == NULL) return;
 4364              		.loc 1 322 9 discriminator 1 view .LVU1493
 4365 0086 FEE7     		b	.L226
 4366              	.L233:
 4367              		.align	2
 4368              	.L232:
 4369 0088 24000000 		.word	.LC1
 4370 008c 44000000 		.word	.LC8
 4371 0090 4C000000 		.word	.LC3
 4372 0094 00000000 		.word	.LANCHOR5
 4373 0098 00000000 		.word	.LC0
 4374              		.cfi_endproc
 4375              	.LFE158:
 4377              		.section	.text.lv_table_clear_cell_ctrl,"ax",%progbits
 4378              		.align	1
 4379              		.global	lv_table_clear_cell_ctrl
 4380              		.syntax unified
 4381              		.thumb
 4382              		.thumb_func
 4383              		.fpu fpv4-sp-d16
 4385              	lv_table_clear_cell_ctrl:
 4386              	.LVL460:
 4387              	.LFB159:
 333:lvgl/lvgl/src/widgets/lv_table.c ****     LV_ASSERT_OBJ(obj, MY_CLASS);
 4388              		.loc 1 333 1 view -0
 4389              		.cfi_startproc
ARM GAS  C:\Users\gx\AppData\Local\Temp\ccSIsGPa.s 			page 132


 4390              		@ args = 0, pretend = 0, frame = 0
 4391              		@ frame_needed = 0, uses_anonymous_args = 0
 333:lvgl/lvgl/src/widgets/lv_table.c ****     LV_ASSERT_OBJ(obj, MY_CLASS);
 4392              		.loc 1 333 1 is_stmt 0 view .LVU1495
 4393 0000 F0B5     		push	{r4, r5, r6, r7, lr}
 4394              	.LCFI44:
 4395              		.cfi_def_cfa_offset 20
 4396              		.cfi_offset 4, -20
 4397              		.cfi_offset 5, -16
 4398              		.cfi_offset 6, -12
 4399              		.cfi_offset 7, -8
 4400              		.cfi_offset 14, -4
 4401 0002 85B0     		sub	sp, sp, #20
 4402              	.LCFI45:
 4403              		.cfi_def_cfa_offset 40
 4404 0004 0446     		mov	r4, r0
 4405 0006 0F46     		mov	r7, r1
 4406 0008 1546     		mov	r5, r2
 4407 000a 1E46     		mov	r6, r3
 334:lvgl/lvgl/src/widgets/lv_table.c **** 
 4408              		.loc 1 334 5 is_stmt 1 view .LVU1496
 334:lvgl/lvgl/src/widgets/lv_table.c **** 
 4409              		.loc 1 334 5 view .LVU1497
 334:lvgl/lvgl/src/widgets/lv_table.c **** 
 4410              		.loc 1 334 5 view .LVU1498
 336:lvgl/lvgl/src/widgets/lv_table.c **** 
 4411              		.loc 1 336 5 view .LVU1499
 4412              	.LVL461:
 339:lvgl/lvgl/src/widgets/lv_table.c ****     if(row >= table->row_cnt) lv_table_set_row_cnt(obj, row + 1);
 4413              		.loc 1 339 5 view .LVU1500
 339:lvgl/lvgl/src/widgets/lv_table.c ****     if(row >= table->row_cnt) lv_table_set_row_cnt(obj, row + 1);
 4414              		.loc 1 339 20 is_stmt 0 view .LVU1501
 4415 000c 838C     		ldrh	r3, [r0, #36]
 4416              	.LVL462:
 339:lvgl/lvgl/src/widgets/lv_table.c ****     if(row >= table->row_cnt) lv_table_set_row_cnt(obj, row + 1);
 4417              		.loc 1 339 7 view .LVU1502
 4418 000e 9342     		cmp	r3, r2
 4419 0010 12D9     		bls	.L241
 4420              	.LVL463:
 4421              	.L235:
 340:lvgl/lvgl/src/widgets/lv_table.c **** 
 4422              		.loc 1 340 5 is_stmt 1 view .LVU1503
 340:lvgl/lvgl/src/widgets/lv_table.c **** 
 4423              		.loc 1 340 20 is_stmt 0 view .LVU1504
 4424 0012 E38C     		ldrh	r3, [r4, #38]
 340:lvgl/lvgl/src/widgets/lv_table.c **** 
 4425              		.loc 1 340 7 view .LVU1505
 4426 0014 BB42     		cmp	r3, r7
 4427 0016 14D9     		bls	.L242
 4428              	.L236:
 342:lvgl/lvgl/src/widgets/lv_table.c **** 
 4429              		.loc 1 342 5 is_stmt 1 view .LVU1506
 342:lvgl/lvgl/src/widgets/lv_table.c **** 
 4430              		.loc 1 342 32 is_stmt 0 view .LVU1507
 4431 0018 A38C     		ldrh	r3, [r4, #36]
 342:lvgl/lvgl/src/widgets/lv_table.c **** 
 4432              		.loc 1 342 42 view .LVU1508
ARM GAS  C:\Users\gx\AppData\Local\Temp\ccSIsGPa.s 			page 133


 4433 001a 03FB0755 		mla	r5, r3, r7, r5
 4434              	.LVL464:
 344:lvgl/lvgl/src/widgets/lv_table.c ****         table->cell_data[cell]    = lv_mem_alloc(2); /*+1: trailing '\0; +1: format byte*/
 4435              		.loc 1 344 5 is_stmt 1 view .LVU1509
 344:lvgl/lvgl/src/widgets/lv_table.c ****         table->cell_data[cell]    = lv_mem_alloc(2); /*+1: trailing '\0; +1: format byte*/
 4436              		.loc 1 344 13 is_stmt 0 view .LVU1510
 4437 001e A76A     		ldr	r7, [r4, #40]
 344:lvgl/lvgl/src/widgets/lv_table.c ****         table->cell_data[cell]    = lv_mem_alloc(2); /*+1: trailing '\0; +1: format byte*/
 4438              		.loc 1 344 24 view .LVU1511
 4439 0020 57F82530 		ldr	r3, [r7, r5, lsl #2]
 344:lvgl/lvgl/src/widgets/lv_table.c ****         table->cell_data[cell]    = lv_mem_alloc(2); /*+1: trailing '\0; +1: format byte*/
 4440              		.loc 1 344 7 view .LVU1512
 4441 0024 9BB1     		cbz	r3, .L243
 4442              	.L237:
 353:lvgl/lvgl/src/widgets/lv_table.c **** }
 4443              		.loc 1 353 5 is_stmt 1 view .LVU1513
 353:lvgl/lvgl/src/widgets/lv_table.c **** }
 4444              		.loc 1 353 10 is_stmt 0 view .LVU1514
 4445 0026 A36A     		ldr	r3, [r4, #40]
 353:lvgl/lvgl/src/widgets/lv_table.c **** }
 4446              		.loc 1 353 21 view .LVU1515
 4447 0028 53F82520 		ldr	r2, [r3, r5, lsl #2]
 353:lvgl/lvgl/src/widgets/lv_table.c **** }
 4448              		.loc 1 353 31 view .LVU1516
 4449 002c 1378     		ldrb	r3, [r2]	@ zero_extendqisi2
 4450 002e 23EA0603 		bic	r3, r3, r6
 4451 0032 1370     		strb	r3, [r2]
 354:lvgl/lvgl/src/widgets/lv_table.c **** 
 4452              		.loc 1 354 1 view .LVU1517
 4453 0034 05B0     		add	sp, sp, #20
 4454              	.LCFI46:
 4455              		.cfi_remember_state
 4456              		.cfi_def_cfa_offset 20
 4457              		@ sp needed
 4458 0036 F0BD     		pop	{r4, r5, r6, r7, pc}
 4459              	.LVL465:
 4460              	.L241:
 4461              	.LCFI47:
 4462              		.cfi_restore_state
 339:lvgl/lvgl/src/widgets/lv_table.c ****     if(row >= table->row_cnt) lv_table_set_row_cnt(obj, row + 1);
 4463              		.loc 1 339 31 is_stmt 1 discriminator 1 view .LVU1518
 4464 0038 511C     		adds	r1, r2, #1
 4465              	.LVL466:
 339:lvgl/lvgl/src/widgets/lv_table.c ****     if(row >= table->row_cnt) lv_table_set_row_cnt(obj, row + 1);
 4466              		.loc 1 339 31 is_stmt 0 discriminator 1 view .LVU1519
 4467 003a 89B2     		uxth	r1, r1
 4468 003c FFF7FEFF 		bl	lv_table_set_col_cnt
 4469              	.LVL467:
 339:lvgl/lvgl/src/widgets/lv_table.c ****     if(row >= table->row_cnt) lv_table_set_row_cnt(obj, row + 1);
 4470              		.loc 1 339 31 discriminator 1 view .LVU1520
 4471 0040 E7E7     		b	.L235
 4472              	.L242:
 340:lvgl/lvgl/src/widgets/lv_table.c **** 
 4473              		.loc 1 340 31 is_stmt 1 discriminator 1 view .LVU1521
 4474 0042 791C     		adds	r1, r7, #1
 4475 0044 89B2     		uxth	r1, r1
 4476 0046 2046     		mov	r0, r4
ARM GAS  C:\Users\gx\AppData\Local\Temp\ccSIsGPa.s 			page 134


 4477 0048 FFF7FEFF 		bl	lv_table_set_row_cnt
 4478              	.LVL468:
 4479 004c E4E7     		b	.L236
 4480              	.LVL469:
 4481              	.L243:
 345:lvgl/lvgl/src/widgets/lv_table.c ****         LV_ASSERT_MALLOC(table->cell_data[cell]);
 4482              		.loc 1 345 9 view .LVU1522
 345:lvgl/lvgl/src/widgets/lv_table.c ****         LV_ASSERT_MALLOC(table->cell_data[cell]);
 4483              		.loc 1 345 37 is_stmt 0 view .LVU1523
 4484 004e 0220     		movs	r0, #2
 4485 0050 FFF7FEFF 		bl	lv_mem_alloc
 4486              	.LVL470:
 345:lvgl/lvgl/src/widgets/lv_table.c ****         LV_ASSERT_MALLOC(table->cell_data[cell]);
 4487              		.loc 1 345 35 view .LVU1524
 4488 0054 47F82500 		str	r0, [r7, r5, lsl #2]
 346:lvgl/lvgl/src/widgets/lv_table.c ****         if(table->cell_data[cell] == NULL) return;
 4489              		.loc 1 346 9 is_stmt 1 view .LVU1525
 346:lvgl/lvgl/src/widgets/lv_table.c ****         if(table->cell_data[cell] == NULL) return;
 4490              		.loc 1 346 9 view .LVU1526
 4491 0058 A36A     		ldr	r3, [r4, #40]
 4492 005a 53F82520 		ldr	r2, [r3, r5, lsl #2]
 4493 005e 32B1     		cbz	r2, .L244
 346:lvgl/lvgl/src/widgets/lv_table.c ****         if(table->cell_data[cell] == NULL) return;
 4494              		.loc 1 346 9 view .LVU1527
 346:lvgl/lvgl/src/widgets/lv_table.c ****         if(table->cell_data[cell] == NULL) return;
 4495              		.loc 1 346 49 view .LVU1528
 347:lvgl/lvgl/src/widgets/lv_table.c **** 
 4496              		.loc 1 347 9 view .LVU1529
 349:lvgl/lvgl/src/widgets/lv_table.c ****         table->cell_data[cell][1] = '\0';
 4497              		.loc 1 349 9 view .LVU1530
 349:lvgl/lvgl/src/widgets/lv_table.c ****         table->cell_data[cell][1] = '\0';
 4498              		.loc 1 349 35 is_stmt 0 view .LVU1531
 4499 0060 0023     		movs	r3, #0
 4500 0062 1370     		strb	r3, [r2]
 350:lvgl/lvgl/src/widgets/lv_table.c ****     }
 4501              		.loc 1 350 9 is_stmt 1 view .LVU1532
 350:lvgl/lvgl/src/widgets/lv_table.c ****     }
 4502              		.loc 1 350 14 is_stmt 0 view .LVU1533
 4503 0064 A26A     		ldr	r2, [r4, #40]
 350:lvgl/lvgl/src/widgets/lv_table.c ****     }
 4504              		.loc 1 350 25 view .LVU1534
 4505 0066 52F82520 		ldr	r2, [r2, r5, lsl #2]
 350:lvgl/lvgl/src/widgets/lv_table.c ****     }
 4506              		.loc 1 350 35 view .LVU1535
 4507 006a 5370     		strb	r3, [r2, #1]
 4508 006c DBE7     		b	.L237
 4509              	.L244:
 346:lvgl/lvgl/src/widgets/lv_table.c ****         if(table->cell_data[cell] == NULL) return;
 4510              		.loc 1 346 9 is_stmt 1 discriminator 1 view .LVU1536
 4511 006e 074B     		ldr	r3, .L245
 4512 0070 0293     		str	r3, [sp, #8]
 4513 0072 074B     		ldr	r3, .L245+4
 4514 0074 0193     		str	r3, [sp, #4]
 4515 0076 074B     		ldr	r3, .L245+8
 4516 0078 0093     		str	r3, [sp]
 4517 007a 074B     		ldr	r3, .L245+12
 4518 007c 4FF4AD72 		mov	r2, #346
ARM GAS  C:\Users\gx\AppData\Local\Temp\ccSIsGPa.s 			page 135


 4519 0080 0649     		ldr	r1, .L245+16
 4520 0082 0320     		movs	r0, #3
 4521 0084 FFF7FEFF 		bl	_lv_log_add
 4522              	.LVL471:
 4523              	.L239:
 346:lvgl/lvgl/src/widgets/lv_table.c ****         if(table->cell_data[cell] == NULL) return;
 4524              		.loc 1 346 9 discriminator 1 view .LVU1537
 346:lvgl/lvgl/src/widgets/lv_table.c ****         if(table->cell_data[cell] == NULL) return;
 4525              		.loc 1 346 9 discriminator 1 view .LVU1538
 346:lvgl/lvgl/src/widgets/lv_table.c ****         if(table->cell_data[cell] == NULL) return;
 4526              		.loc 1 346 9 discriminator 1 view .LVU1539
 346:lvgl/lvgl/src/widgets/lv_table.c ****         if(table->cell_data[cell] == NULL) return;
 4527              		.loc 1 346 9 discriminator 1 view .LVU1540
 4528 0088 FEE7     		b	.L239
 4529              	.L246:
 4530 008a 00BF     		.align	2
 4531              	.L245:
 4532 008c 24000000 		.word	.LC1
 4533 0090 44000000 		.word	.LC8
 4534 0094 4C000000 		.word	.LC3
 4535 0098 00000000 		.word	.LANCHOR6
 4536 009c 00000000 		.word	.LC0
 4537              		.cfi_endproc
 4538              	.LFE159:
 4540              		.section	.rodata.lv_table_get_cell_value.str1.4,"aMS",%progbits,1
 4541              		.align	2
 4542              	.LC12:
 4543 0000 00       		.ascii	"\000"
 4544 0001 000000   		.align	2
 4545              	.LC13:
 4546 0004 6C765F74 		.ascii	"lv_table_set_cell_value: invalid row or column\000"
 4546      61626C65 
 4546      5F736574 
 4546      5F63656C 
 4546      6C5F7661 
 4547              		.section	.text.lv_table_get_cell_value,"ax",%progbits
 4548              		.align	1
 4549              		.global	lv_table_get_cell_value
 4550              		.syntax unified
 4551              		.thumb
 4552              		.thumb_func
 4553              		.fpu fpv4-sp-d16
 4555              	lv_table_get_cell_value:
 4556              	.LVL472:
 4557              	.LFB160:
 361:lvgl/lvgl/src/widgets/lv_table.c ****     LV_ASSERT_OBJ(obj, MY_CLASS);
 4558              		.loc 1 361 1 view -0
 4559              		.cfi_startproc
 4560              		@ args = 0, pretend = 0, frame = 0
 4561              		@ frame_needed = 0, uses_anonymous_args = 0
 362:lvgl/lvgl/src/widgets/lv_table.c **** 
 4562              		.loc 1 362 5 view .LVU1542
 362:lvgl/lvgl/src/widgets/lv_table.c **** 
 4563              		.loc 1 362 5 view .LVU1543
 362:lvgl/lvgl/src/widgets/lv_table.c **** 
 4564              		.loc 1 362 5 view .LVU1544
 364:lvgl/lvgl/src/widgets/lv_table.c ****     if(row >= table->row_cnt || col >= table->col_cnt) {
ARM GAS  C:\Users\gx\AppData\Local\Temp\ccSIsGPa.s 			page 136


 4565              		.loc 1 364 5 view .LVU1545
 365:lvgl/lvgl/src/widgets/lv_table.c ****         LV_LOG_WARN("lv_table_set_cell_value: invalid row or column");
 4566              		.loc 1 365 5 view .LVU1546
 365:lvgl/lvgl/src/widgets/lv_table.c ****         LV_LOG_WARN("lv_table_set_cell_value: invalid row or column");
 4567              		.loc 1 365 20 is_stmt 0 view .LVU1547
 4568 0000 C38C     		ldrh	r3, [r0, #38]
 365:lvgl/lvgl/src/widgets/lv_table.c ****         LV_LOG_WARN("lv_table_set_cell_value: invalid row or column");
 4569              		.loc 1 365 7 view .LVU1548
 4570 0002 8B42     		cmp	r3, r1
 4571 0004 0AD9     		bls	.L248
 365:lvgl/lvgl/src/widgets/lv_table.c ****         LV_LOG_WARN("lv_table_set_cell_value: invalid row or column");
 4572              		.loc 1 365 45 discriminator 1 view .LVU1549
 4573 0006 838C     		ldrh	r3, [r0, #36]
 365:lvgl/lvgl/src/widgets/lv_table.c ****         LV_LOG_WARN("lv_table_set_cell_value: invalid row or column");
 4574              		.loc 1 365 30 discriminator 1 view .LVU1550
 4575 0008 9342     		cmp	r3, r2
 4576 000a 07D9     		bls	.L248
 369:lvgl/lvgl/src/widgets/lv_table.c **** 
 4577              		.loc 1 369 5 is_stmt 1 view .LVU1551
 369:lvgl/lvgl/src/widgets/lv_table.c **** 
 4578              		.loc 1 369 42 is_stmt 0 view .LVU1552
 4579 000c 03FB0121 		mla	r1, r3, r1, r2
 4580              	.LVL473:
 371:lvgl/lvgl/src/widgets/lv_table.c **** 
 4581              		.loc 1 371 5 is_stmt 1 view .LVU1553
 371:lvgl/lvgl/src/widgets/lv_table.c **** 
 4582              		.loc 1 371 13 is_stmt 0 view .LVU1554
 4583 0010 836A     		ldr	r3, [r0, #40]
 371:lvgl/lvgl/src/widgets/lv_table.c **** 
 4584              		.loc 1 371 24 view .LVU1555
 4585 0012 53F82100 		ldr	r0, [r3, r1, lsl #2]
 4586              	.LVL474:
 371:lvgl/lvgl/src/widgets/lv_table.c **** 
 4587              		.loc 1 371 7 view .LVU1556
 4588 0016 80B1     		cbz	r0, .L251
 373:lvgl/lvgl/src/widgets/lv_table.c **** }
 4589              		.loc 1 373 5 is_stmt 1 view .LVU1557
 373:lvgl/lvgl/src/widgets/lv_table.c **** }
 4590              		.loc 1 373 12 is_stmt 0 view .LVU1558
 4591 0018 0130     		adds	r0, r0, #1
 4592 001a 7047     		bx	lr
 4593              	.LVL475:
 4594              	.L248:
 361:lvgl/lvgl/src/widgets/lv_table.c ****     LV_ASSERT_OBJ(obj, MY_CLASS);
 4595              		.loc 1 361 1 view .LVU1559
 4596 001c 00B5     		push	{lr}
 4597              	.LCFI48:
 4598              		.cfi_def_cfa_offset 4
 4599              		.cfi_offset 14, -4
 4600 001e 83B0     		sub	sp, sp, #12
 4601              	.LCFI49:
 4602              		.cfi_def_cfa_offset 16
 366:lvgl/lvgl/src/widgets/lv_table.c ****         return "";
 4603              		.loc 1 366 9 is_stmt 1 view .LVU1560
 4604 0020 074B     		ldr	r3, .L255
 4605 0022 0093     		str	r3, [sp]
 4606 0024 074B     		ldr	r3, .L255+4
ARM GAS  C:\Users\gx\AppData\Local\Temp\ccSIsGPa.s 			page 137


 4607 0026 4FF4B772 		mov	r2, #366
 4608              	.LVL476:
 366:lvgl/lvgl/src/widgets/lv_table.c ****         return "";
 4609              		.loc 1 366 9 is_stmt 0 view .LVU1561
 4610 002a 0749     		ldr	r1, .L255+8
 4611              	.LVL477:
 366:lvgl/lvgl/src/widgets/lv_table.c ****         return "";
 4612              		.loc 1 366 9 view .LVU1562
 4613 002c 0220     		movs	r0, #2
 4614              	.LVL478:
 366:lvgl/lvgl/src/widgets/lv_table.c ****         return "";
 4615              		.loc 1 366 9 view .LVU1563
 4616 002e FFF7FEFF 		bl	_lv_log_add
 4617              	.LVL479:
 366:lvgl/lvgl/src/widgets/lv_table.c ****         return "";
 4618              		.loc 1 366 70 is_stmt 1 view .LVU1564
 367:lvgl/lvgl/src/widgets/lv_table.c ****     }
 4619              		.loc 1 367 9 view .LVU1565
 367:lvgl/lvgl/src/widgets/lv_table.c ****     }
 4620              		.loc 1 367 16 is_stmt 0 view .LVU1566
 4621 0032 0648     		ldr	r0, .L255+12
 374:lvgl/lvgl/src/widgets/lv_table.c **** 
 4622              		.loc 1 374 1 view .LVU1567
 4623 0034 03B0     		add	sp, sp, #12
 4624              	.LCFI50:
 4625              		.cfi_def_cfa_offset 4
 4626              		@ sp needed
 4627 0036 5DF804FB 		ldr	pc, [sp], #4
 4628              	.LVL480:
 4629              	.L251:
 4630              	.LCFI51:
 4631              		.cfi_def_cfa_offset 0
 4632              		.cfi_restore 14
 371:lvgl/lvgl/src/widgets/lv_table.c **** 
 4633              		.loc 1 371 47 view .LVU1568
 4634 003a 0448     		ldr	r0, .L255+12
 374:lvgl/lvgl/src/widgets/lv_table.c **** 
 4635              		.loc 1 374 1 view .LVU1569
 4636 003c 7047     		bx	lr
 4637              	.L256:
 4638 003e 00BF     		.align	2
 4639              	.L255:
 4640 0040 04000000 		.word	.LC13
 4641 0044 00000000 		.word	.LANCHOR7
 4642 0048 00000000 		.word	.LC0
 4643 004c 00000000 		.word	.LC12
 4644              		.cfi_endproc
 4645              	.LFE160:
 4647              		.section	.text.lv_table_get_row_cnt,"ax",%progbits
 4648              		.align	1
 4649              		.global	lv_table_get_row_cnt
 4650              		.syntax unified
 4651              		.thumb
 4652              		.thumb_func
 4653              		.fpu fpv4-sp-d16
 4655              	lv_table_get_row_cnt:
 4656              	.LVL481:
ARM GAS  C:\Users\gx\AppData\Local\Temp\ccSIsGPa.s 			page 138


 4657              	.LFB161:
 377:lvgl/lvgl/src/widgets/lv_table.c ****     LV_ASSERT_OBJ(obj, MY_CLASS);
 4658              		.loc 1 377 1 is_stmt 1 view -0
 4659              		.cfi_startproc
 4660              		@ args = 0, pretend = 0, frame = 0
 4661              		@ frame_needed = 0, uses_anonymous_args = 0
 4662              		@ link register save eliminated.
 378:lvgl/lvgl/src/widgets/lv_table.c **** 
 4663              		.loc 1 378 5 view .LVU1571
 378:lvgl/lvgl/src/widgets/lv_table.c **** 
 4664              		.loc 1 378 5 view .LVU1572
 378:lvgl/lvgl/src/widgets/lv_table.c **** 
 4665              		.loc 1 378 5 view .LVU1573
 380:lvgl/lvgl/src/widgets/lv_table.c ****     return table->row_cnt;
 4666              		.loc 1 380 5 view .LVU1574
 381:lvgl/lvgl/src/widgets/lv_table.c **** }
 4667              		.loc 1 381 5 view .LVU1575
 382:lvgl/lvgl/src/widgets/lv_table.c **** 
 4668              		.loc 1 382 1 is_stmt 0 view .LVU1576
 4669 0000 C08C     		ldrh	r0, [r0, #38]
 4670              	.LVL482:
 382:lvgl/lvgl/src/widgets/lv_table.c **** 
 4671              		.loc 1 382 1 view .LVU1577
 4672 0002 7047     		bx	lr
 4673              		.cfi_endproc
 4674              	.LFE161:
 4676              		.section	.text.lv_table_get_col_cnt,"ax",%progbits
 4677              		.align	1
 4678              		.global	lv_table_get_col_cnt
 4679              		.syntax unified
 4680              		.thumb
 4681              		.thumb_func
 4682              		.fpu fpv4-sp-d16
 4684              	lv_table_get_col_cnt:
 4685              	.LVL483:
 4686              	.LFB162:
 385:lvgl/lvgl/src/widgets/lv_table.c ****     LV_ASSERT_OBJ(obj, MY_CLASS);
 4687              		.loc 1 385 1 is_stmt 1 view -0
 4688              		.cfi_startproc
 4689              		@ args = 0, pretend = 0, frame = 0
 4690              		@ frame_needed = 0, uses_anonymous_args = 0
 4691              		@ link register save eliminated.
 386:lvgl/lvgl/src/widgets/lv_table.c **** 
 4692              		.loc 1 386 5 view .LVU1579
 386:lvgl/lvgl/src/widgets/lv_table.c **** 
 4693              		.loc 1 386 5 view .LVU1580
 386:lvgl/lvgl/src/widgets/lv_table.c **** 
 4694              		.loc 1 386 5 view .LVU1581
 388:lvgl/lvgl/src/widgets/lv_table.c ****     return table->col_cnt;
 4695              		.loc 1 388 5 view .LVU1582
 389:lvgl/lvgl/src/widgets/lv_table.c **** }
 4696              		.loc 1 389 5 view .LVU1583
 390:lvgl/lvgl/src/widgets/lv_table.c **** 
 4697              		.loc 1 390 1 is_stmt 0 view .LVU1584
 4698 0000 808C     		ldrh	r0, [r0, #36]
 4699              	.LVL484:
 390:lvgl/lvgl/src/widgets/lv_table.c **** 
ARM GAS  C:\Users\gx\AppData\Local\Temp\ccSIsGPa.s 			page 139


 4700              		.loc 1 390 1 view .LVU1585
 4701 0002 7047     		bx	lr
 4702              		.cfi_endproc
 4703              	.LFE162:
 4705              		.section	.rodata.lv_table_get_col_width.str1.4,"aMS",%progbits,1
 4706              		.align	2
 4707              	.LC14:
 4708 0000 6C765F74 		.ascii	"lv_table_set_col_width: too big 'col_id'. Must be <"
 4708      61626C65 
 4708      5F736574 
 4708      5F636F6C 
 4708      5F776964 
 4709 0033 204C565F 		.ascii	" LV_TABLE_COL_MAX.\000"
 4709      5441424C 
 4709      455F434F 
 4709      4C5F4D41 
 4709      582E00
 4710              		.section	.text.lv_table_get_col_width,"ax",%progbits
 4711              		.align	1
 4712              		.global	lv_table_get_col_width
 4713              		.syntax unified
 4714              		.thumb
 4715              		.thumb_func
 4716              		.fpu fpv4-sp-d16
 4718              	lv_table_get_col_width:
 4719              	.LVL485:
 4720              	.LFB163:
 393:lvgl/lvgl/src/widgets/lv_table.c ****     LV_ASSERT_OBJ(obj, MY_CLASS);
 4721              		.loc 1 393 1 is_stmt 1 view -0
 4722              		.cfi_startproc
 4723              		@ args = 0, pretend = 0, frame = 0
 4724              		@ frame_needed = 0, uses_anonymous_args = 0
 394:lvgl/lvgl/src/widgets/lv_table.c **** 
 4725              		.loc 1 394 5 view .LVU1587
 394:lvgl/lvgl/src/widgets/lv_table.c **** 
 4726              		.loc 1 394 5 view .LVU1588
 394:lvgl/lvgl/src/widgets/lv_table.c **** 
 4727              		.loc 1 394 5 view .LVU1589
 396:lvgl/lvgl/src/widgets/lv_table.c **** 
 4728              		.loc 1 396 5 view .LVU1590
 398:lvgl/lvgl/src/widgets/lv_table.c ****         LV_LOG_WARN("lv_table_set_col_width: too big 'col_id'. Must be < LV_TABLE_COL_MAX.");
 4729              		.loc 1 398 5 view .LVU1591
 398:lvgl/lvgl/src/widgets/lv_table.c ****         LV_LOG_WARN("lv_table_set_col_width: too big 'col_id'. Must be < LV_TABLE_COL_MAX.");
 4730              		.loc 1 398 20 is_stmt 0 view .LVU1592
 4731 0000 838C     		ldrh	r3, [r0, #36]
 398:lvgl/lvgl/src/widgets/lv_table.c ****         LV_LOG_WARN("lv_table_set_col_width: too big 'col_id'. Must be < LV_TABLE_COL_MAX.");
 4732              		.loc 1 398 7 view .LVU1593
 4733 0002 8B42     		cmp	r3, r1
 4734 0004 03D9     		bls	.L266
 403:lvgl/lvgl/src/widgets/lv_table.c **** }
 4735              		.loc 1 403 5 is_stmt 1 view .LVU1594
 403:lvgl/lvgl/src/widgets/lv_table.c **** }
 4736              		.loc 1 403 17 is_stmt 0 view .LVU1595
 4737 0006 036B     		ldr	r3, [r0, #48]
 403:lvgl/lvgl/src/widgets/lv_table.c **** }
 4738              		.loc 1 403 24 view .LVU1596
 4739 0008 33F91100 		ldrsh	r0, [r3, r1, lsl #1]
ARM GAS  C:\Users\gx\AppData\Local\Temp\ccSIsGPa.s 			page 140


 4740              	.LVL486:
 404:lvgl/lvgl/src/widgets/lv_table.c **** 
 4741              		.loc 1 404 1 view .LVU1597
 4742 000c 7047     		bx	lr
 4743              	.LVL487:
 4744              	.L266:
 393:lvgl/lvgl/src/widgets/lv_table.c ****     LV_ASSERT_OBJ(obj, MY_CLASS);
 4745              		.loc 1 393 1 view .LVU1598
 4746 000e 00B5     		push	{lr}
 4747              	.LCFI52:
 4748              		.cfi_def_cfa_offset 4
 4749              		.cfi_offset 14, -4
 4750 0010 83B0     		sub	sp, sp, #12
 4751              	.LCFI53:
 4752              		.cfi_def_cfa_offset 16
 399:lvgl/lvgl/src/widgets/lv_table.c ****         return 0;
 4753              		.loc 1 399 9 is_stmt 1 view .LVU1599
 4754 0012 064B     		ldr	r3, .L267
 4755 0014 0093     		str	r3, [sp]
 4756 0016 064B     		ldr	r3, .L267+4
 4757 0018 40F28F12 		movw	r2, #399
 4758 001c 0549     		ldr	r1, .L267+8
 4759              	.LVL488:
 399:lvgl/lvgl/src/widgets/lv_table.c ****         return 0;
 4760              		.loc 1 399 9 is_stmt 0 view .LVU1600
 4761 001e 0220     		movs	r0, #2
 4762              	.LVL489:
 399:lvgl/lvgl/src/widgets/lv_table.c ****         return 0;
 4763              		.loc 1 399 9 view .LVU1601
 4764 0020 FFF7FEFF 		bl	_lv_log_add
 4765              	.LVL490:
 399:lvgl/lvgl/src/widgets/lv_table.c ****         return 0;
 4766              		.loc 1 399 93 is_stmt 1 view .LVU1602
 400:lvgl/lvgl/src/widgets/lv_table.c ****     }
 4767              		.loc 1 400 9 view .LVU1603
 400:lvgl/lvgl/src/widgets/lv_table.c ****     }
 4768              		.loc 1 400 16 is_stmt 0 view .LVU1604
 4769 0024 0020     		movs	r0, #0
 404:lvgl/lvgl/src/widgets/lv_table.c **** 
 4770              		.loc 1 404 1 view .LVU1605
 4771 0026 03B0     		add	sp, sp, #12
 4772              	.LCFI54:
 4773              		.cfi_def_cfa_offset 4
 4774              		@ sp needed
 4775 0028 5DF804FB 		ldr	pc, [sp], #4
 4776              	.L268:
 4777              		.align	2
 4778              	.L267:
 4779 002c 00000000 		.word	.LC14
 4780 0030 00000000 		.word	.LANCHOR8
 4781 0034 00000000 		.word	.LC0
 4782              		.cfi_endproc
 4783              	.LFE163:
 4785              		.section	.rodata.lv_table_has_cell_ctrl.str1.4,"aMS",%progbits,1
 4786              		.align	2
 4787              	.LC15:
 4788 0000 6C765F74 		.ascii	"lv_table_get_cell_crop: invalid row or column\000"
ARM GAS  C:\Users\gx\AppData\Local\Temp\ccSIsGPa.s 			page 141


 4788      61626C65 
 4788      5F676574 
 4788      5F63656C 
 4788      6C5F6372 
 4789              		.section	.text.lv_table_has_cell_ctrl,"ax",%progbits
 4790              		.align	1
 4791              		.global	lv_table_has_cell_ctrl
 4792              		.syntax unified
 4793              		.thumb
 4794              		.thumb_func
 4795              		.fpu fpv4-sp-d16
 4797              	lv_table_has_cell_ctrl:
 4798              	.LVL491:
 4799              	.LFB164:
 407:lvgl/lvgl/src/widgets/lv_table.c ****     LV_ASSERT_OBJ(obj, MY_CLASS);
 4800              		.loc 1 407 1 is_stmt 1 view -0
 4801              		.cfi_startproc
 4802              		@ args = 0, pretend = 0, frame = 0
 4803              		@ frame_needed = 0, uses_anonymous_args = 0
 407:lvgl/lvgl/src/widgets/lv_table.c ****     LV_ASSERT_OBJ(obj, MY_CLASS);
 4804              		.loc 1 407 1 is_stmt 0 view .LVU1607
 4805 0000 10B5     		push	{r4, lr}
 4806              	.LCFI55:
 4807              		.cfi_def_cfa_offset 8
 4808              		.cfi_offset 4, -8
 4809              		.cfi_offset 14, -4
 4810 0002 82B0     		sub	sp, sp, #8
 4811              	.LCFI56:
 4812              		.cfi_def_cfa_offset 16
 408:lvgl/lvgl/src/widgets/lv_table.c **** 
 4813              		.loc 1 408 5 is_stmt 1 view .LVU1608
 408:lvgl/lvgl/src/widgets/lv_table.c **** 
 4814              		.loc 1 408 5 view .LVU1609
 408:lvgl/lvgl/src/widgets/lv_table.c **** 
 4815              		.loc 1 408 5 view .LVU1610
 410:lvgl/lvgl/src/widgets/lv_table.c ****     if(row >= table->row_cnt || col >= table->col_cnt) {
 4816              		.loc 1 410 5 view .LVU1611
 4817              	.LVL492:
 411:lvgl/lvgl/src/widgets/lv_table.c ****         LV_LOG_WARN("lv_table_get_cell_crop: invalid row or column");
 4818              		.loc 1 411 5 view .LVU1612
 411:lvgl/lvgl/src/widgets/lv_table.c ****         LV_LOG_WARN("lv_table_get_cell_crop: invalid row or column");
 4819              		.loc 1 411 20 is_stmt 0 view .LVU1613
 4820 0004 C48C     		ldrh	r4, [r0, #38]
 411:lvgl/lvgl/src/widgets/lv_table.c ****         LV_LOG_WARN("lv_table_get_cell_crop: invalid row or column");
 4821              		.loc 1 411 7 view .LVU1614
 4822 0006 8C42     		cmp	r4, r1
 4823 0008 0ED9     		bls	.L270
 411:lvgl/lvgl/src/widgets/lv_table.c ****         LV_LOG_WARN("lv_table_get_cell_crop: invalid row or column");
 4824              		.loc 1 411 45 discriminator 1 view .LVU1615
 4825 000a 848C     		ldrh	r4, [r0, #36]
 411:lvgl/lvgl/src/widgets/lv_table.c ****         LV_LOG_WARN("lv_table_get_cell_crop: invalid row or column");
 4826              		.loc 1 411 30 discriminator 1 view .LVU1616
 4827 000c 9442     		cmp	r4, r2
 4828 000e 0BD9     		bls	.L270
 415:lvgl/lvgl/src/widgets/lv_table.c **** 
 4829              		.loc 1 415 5 is_stmt 1 view .LVU1617
 415:lvgl/lvgl/src/widgets/lv_table.c **** 
ARM GAS  C:\Users\gx\AppData\Local\Temp\ccSIsGPa.s 			page 142


 4830              		.loc 1 415 42 is_stmt 0 view .LVU1618
 4831 0010 04FB0121 		mla	r1, r4, r1, r2
 4832              	.LVL493:
 417:lvgl/lvgl/src/widgets/lv_table.c ****     else return (table->cell_data[cell][0] & ctrl) == ctrl ? true : false;
 4833              		.loc 1 417 5 is_stmt 1 view .LVU1619
 417:lvgl/lvgl/src/widgets/lv_table.c ****     else return (table->cell_data[cell][0] & ctrl) == ctrl ? true : false;
 4834              		.loc 1 417 13 is_stmt 0 view .LVU1620
 4835 0014 826A     		ldr	r2, [r0, #40]
 4836              	.LVL494:
 417:lvgl/lvgl/src/widgets/lv_table.c ****     else return (table->cell_data[cell][0] & ctrl) == ctrl ? true : false;
 4837              		.loc 1 417 24 view .LVU1621
 4838 0016 52F82120 		ldr	r2, [r2, r1, lsl #2]
 417:lvgl/lvgl/src/widgets/lv_table.c ****     else return (table->cell_data[cell][0] & ctrl) == ctrl ? true : false;
 4839              		.loc 1 417 7 view .LVU1622
 4840 001a 8AB1     		cbz	r2, .L273
 418:lvgl/lvgl/src/widgets/lv_table.c **** }
 4841              		.loc 1 418 10 is_stmt 1 view .LVU1623
 418:lvgl/lvgl/src/widgets/lv_table.c **** }
 4842              		.loc 1 418 40 is_stmt 0 view .LVU1624
 4843 001c 1278     		ldrb	r2, [r2]	@ zero_extendqisi2
 418:lvgl/lvgl/src/widgets/lv_table.c **** }
 4844              		.loc 1 418 67 view .LVU1625
 4845 001e 9343     		bics	r3, r3, r2
 4846              	.LVL495:
 418:lvgl/lvgl/src/widgets/lv_table.c **** }
 4847              		.loc 1 418 67 view .LVU1626
 4848 0020 0CBF     		ite	eq
 4849 0022 0120     		moveq	r0, #1
 4850              	.LVL496:
 418:lvgl/lvgl/src/widgets/lv_table.c **** }
 4851              		.loc 1 418 67 view .LVU1627
 4852 0024 0020     		movne	r0, #0
 4853 0026 09E0     		b	.L272
 4854              	.LVL497:
 4855              	.L270:
 412:lvgl/lvgl/src/widgets/lv_table.c ****         return false;
 4856              		.loc 1 412 9 is_stmt 1 view .LVU1628
 4857 0028 064B     		ldr	r3, .L275
 4858              	.LVL498:
 412:lvgl/lvgl/src/widgets/lv_table.c ****         return false;
 4859              		.loc 1 412 9 is_stmt 0 view .LVU1629
 4860 002a 0093     		str	r3, [sp]
 4861 002c 064B     		ldr	r3, .L275+4
 4862 002e 4FF4CE72 		mov	r2, #412
 4863              	.LVL499:
 412:lvgl/lvgl/src/widgets/lv_table.c ****         return false;
 4864              		.loc 1 412 9 view .LVU1630
 4865 0032 0649     		ldr	r1, .L275+8
 4866              	.LVL500:
 412:lvgl/lvgl/src/widgets/lv_table.c ****         return false;
 4867              		.loc 1 412 9 view .LVU1631
 4868 0034 0220     		movs	r0, #2
 4869              	.LVL501:
 412:lvgl/lvgl/src/widgets/lv_table.c ****         return false;
 4870              		.loc 1 412 9 view .LVU1632
 4871 0036 FFF7FEFF 		bl	_lv_log_add
 4872              	.LVL502:
ARM GAS  C:\Users\gx\AppData\Local\Temp\ccSIsGPa.s 			page 143


 412:lvgl/lvgl/src/widgets/lv_table.c ****         return false;
 4873              		.loc 1 412 69 is_stmt 1 view .LVU1633
 413:lvgl/lvgl/src/widgets/lv_table.c ****     }
 4874              		.loc 1 413 9 view .LVU1634
 413:lvgl/lvgl/src/widgets/lv_table.c ****     }
 4875              		.loc 1 413 16 is_stmt 0 view .LVU1635
 4876 003a 0020     		movs	r0, #0
 4877              	.L272:
 419:lvgl/lvgl/src/widgets/lv_table.c **** 
 4878              		.loc 1 419 1 view .LVU1636
 4879 003c 02B0     		add	sp, sp, #8
 4880              	.LCFI57:
 4881              		.cfi_remember_state
 4882              		.cfi_def_cfa_offset 8
 4883              		@ sp needed
 4884 003e 10BD     		pop	{r4, pc}
 4885              	.LVL503:
 4886              	.L273:
 4887              	.LCFI58:
 4888              		.cfi_restore_state
 417:lvgl/lvgl/src/widgets/lv_table.c ****     else return (table->cell_data[cell][0] & ctrl) == ctrl ? true : false;
 4889              		.loc 1 417 47 view .LVU1637
 4890 0040 0020     		movs	r0, #0
 4891              	.LVL504:
 417:lvgl/lvgl/src/widgets/lv_table.c ****     else return (table->cell_data[cell][0] & ctrl) == ctrl ? true : false;
 4892              		.loc 1 417 47 view .LVU1638
 4893 0042 FBE7     		b	.L272
 4894              	.L276:
 4895              		.align	2
 4896              	.L275:
 4897 0044 00000000 		.word	.LC15
 4898 0048 00000000 		.word	.LANCHOR9
 4899 004c 00000000 		.word	.LC0
 4900              		.cfi_endproc
 4901              	.LFE164:
 4903              		.section	.text.lv_table_get_selected_cell,"ax",%progbits
 4904              		.align	1
 4905              		.global	lv_table_get_selected_cell
 4906              		.syntax unified
 4907              		.thumb
 4908              		.thumb_func
 4909              		.fpu fpv4-sp-d16
 4911              	lv_table_get_selected_cell:
 4912              	.LVL505:
 4913              	.LFB165:
 422:lvgl/lvgl/src/widgets/lv_table.c ****     lv_table_t * table = (lv_table_t *)obj;
 4914              		.loc 1 422 1 is_stmt 1 view -0
 4915              		.cfi_startproc
 4916              		@ args = 0, pretend = 0, frame = 0
 4917              		@ frame_needed = 0, uses_anonymous_args = 0
 4918              		@ link register save eliminated.
 423:lvgl/lvgl/src/widgets/lv_table.c ****     *row = table->row_act;
 4919              		.loc 1 423 5 view .LVU1640
 424:lvgl/lvgl/src/widgets/lv_table.c ****     *col = table->col_act;
 4920              		.loc 1 424 5 view .LVU1641
 424:lvgl/lvgl/src/widgets/lv_table.c ****     *col = table->col_act;
 4921              		.loc 1 424 17 is_stmt 0 view .LVU1642
ARM GAS  C:\Users\gx\AppData\Local\Temp\ccSIsGPa.s 			page 144


 4922 0000 C38E     		ldrh	r3, [r0, #54]
 424:lvgl/lvgl/src/widgets/lv_table.c ****     *col = table->col_act;
 4923              		.loc 1 424 10 view .LVU1643
 4924 0002 0B80     		strh	r3, [r1]	@ movhi
 425:lvgl/lvgl/src/widgets/lv_table.c **** }
 4925              		.loc 1 425 5 is_stmt 1 view .LVU1644
 425:lvgl/lvgl/src/widgets/lv_table.c **** }
 4926              		.loc 1 425 17 is_stmt 0 view .LVU1645
 4927 0004 838E     		ldrh	r3, [r0, #52]
 425:lvgl/lvgl/src/widgets/lv_table.c **** }
 4928              		.loc 1 425 10 view .LVU1646
 4929 0006 1380     		strh	r3, [r2]	@ movhi
 426:lvgl/lvgl/src/widgets/lv_table.c **** 
 4930              		.loc 1 426 1 view .LVU1647
 4931 0008 7047     		bx	lr
 4932              		.cfi_endproc
 4933              	.LFE165:
 4935              		.global	lv_table_class
 4936              		.section	.rodata.__func__.10119,"a"
 4937              		.align	2
 4938              		.set	.LANCHOR4,. + 0
 4941              	__func__.10119:
 4942 0000 6C765F74 		.ascii	"lv_table_set_cell_value\000"
 4942      61626C65 
 4942      5F736574 
 4942      5F63656C 
 4942      6C5F7661 
 4943              		.section	.rodata.__func__.10131,"a"
 4944              		.align	2
 4945              		.set	.LANCHOR2,. + 0
 4948              	__func__.10131:
 4949 0000 6C765F74 		.ascii	"lv_table_set_cell_value_fmt\000"
 4949      61626C65 
 4949      5F736574 
 4949      5F63656C 
 4949      6C5F7661 
 4950              		.section	.rodata.__func__.10156,"a"
 4951              		.align	2
 4952              		.set	.LANCHOR1,. + 0
 4955              	__func__.10156:
 4956 0000 6C765F74 		.ascii	"lv_table_set_row_cnt\000"
 4956      61626C65 
 4956      5F736574 
 4956      5F726F77 
 4956      5F636E74 
 4957              		.section	.rodata.__func__.10173,"a"
 4958              		.align	2
 4959              		.set	.LANCHOR3,. + 0
 4962              	__func__.10173:
 4963 0000 6C765F74 		.ascii	"lv_table_set_col_cnt\000"
 4963      61626C65 
 4963      5F736574 
 4963      5F636F6C 
 4963      5F636E74 
 4964              		.section	.rodata.__func__.10209,"a"
 4965              		.align	2
 4966              		.set	.LANCHOR5,. + 0
ARM GAS  C:\Users\gx\AppData\Local\Temp\ccSIsGPa.s 			page 145


 4969              	__func__.10209:
 4970 0000 6C765F74 		.ascii	"lv_table_add_cell_ctrl\000"
 4970      61626C65 
 4970      5F616464 
 4970      5F63656C 
 4970      6C5F6374 
 4971              		.section	.rodata.__func__.10219,"a"
 4972              		.align	2
 4973              		.set	.LANCHOR6,. + 0
 4976              	__func__.10219:
 4977 0000 6C765F74 		.ascii	"lv_table_clear_cell_ctrl\000"
 4977      61626C65 
 4977      5F636C65 
 4977      61725F63 
 4977      656C6C5F 
 4978              		.section	.rodata.__func__.10227,"a"
 4979              		.align	2
 4980              		.set	.LANCHOR7,. + 0
 4983              	__func__.10227:
 4984 0000 6C765F74 		.ascii	"lv_table_get_cell_value\000"
 4984      61626C65 
 4984      5F676574 
 4984      5F63656C 
 4984      6C5F7661 
 4985              		.section	.rodata.__func__.10242,"a"
 4986              		.align	2
 4987              		.set	.LANCHOR8,. + 0
 4990              	__func__.10242:
 4991 0000 6C765F74 		.ascii	"lv_table_get_col_width\000"
 4991      61626C65 
 4991      5F676574 
 4991      5F636F6C 
 4991      5F776964 
 4992              		.section	.rodata.__func__.10250,"a"
 4993              		.align	2
 4994              		.set	.LANCHOR9,. + 0
 4997              	__func__.10250:
 4998 0000 6C765F74 		.ascii	"lv_table_has_cell_ctrl\000"
 4998      61626C65 
 4998      5F686173 
 4998      5F63656C 
 4998      6C5F6374 
 4999              		.section	.rodata.lv_table_class,"a"
 5000              		.align	2
 5001              		.set	.LANCHOR0,. + 0
 5004              	lv_table_class:
 5005 0000 00000000 		.word	lv_obj_class
 5006 0004 00000000 		.word	lv_table_constructor
 5007 0008 00000000 		.word	lv_table_destructor
 5008 000c 00000000 		.space	4
 5009 0010 00000000 		.word	lv_table_event
 5010 0014 D127     		.short	10193
 5011 0016 D127     		.short	10193
 5012 0018 85       		.byte	133
 5013 0019 03       		.byte	3
 5014 001a 00       		.byte	0
 5015 001b 00       		.space	1
ARM GAS  C:\Users\gx\AppData\Local\Temp\ccSIsGPa.s 			page 146


 5016              		.text
 5017              	.Letext0:
 5018              		.file 6 "c:\\program files (x86)\\gnu arm embedded toolchain\\9 2020-q2-update\\arm-none-eabi\\inc
 5019              		.file 7 "c:\\program files (x86)\\gnu arm embedded toolchain\\9 2020-q2-update\\arm-none-eabi\\inc
 5020              		.file 8 "c:\\program files (x86)\\gnu arm embedded toolchain\\9 2020-q2-update\\lib\\gcc\\arm-none
 5021              		.file 9 "c:\\program files (x86)\\gnu arm embedded toolchain\\9 2020-q2-update\\arm-none-eabi\\inc
 5022              		.file 10 "c:\\program files (x86)\\gnu arm embedded toolchain\\9 2020-q2-update\\arm-none-eabi\\in
 5023              		.file 11 "c:\\program files (x86)\\gnu arm embedded toolchain\\9 2020-q2-update\\arm-none-eabi\\in
 5024              		.file 12 "lvgl/lvgl/src/widgets/../core/../misc/lv_types.h"
 5025              		.file 13 "lvgl/lvgl/src/widgets/../core/../misc/lv_color.h"
 5026              		.file 14 "c:\\program files (x86)\\gnu arm embedded toolchain\\9 2020-q2-update\\lib\\gcc\\arm-non
 5027              		.file 15 "lvgl/lvgl/src/widgets/../core/../misc/lv_txt.h"
 5028              		.file 16 "lvgl/lvgl/src/widgets/../core/../misc/lv_bidi.h"
 5029              		.file 17 "lvgl/lvgl/src/widgets/../core/../misc/lv_style.h"
 5030              		.file 18 "d:\\practise\\f407_disc\\lvgl\\lvgl\\src\\misc\\lv_ll.h"
 5031              		.file 19 "d:\\practise\\f407_disc\\lvgl\\lvgl\\src\\misc\\lv_timer.h"
 5032              		.file 20 "lvgl/lvgl/src/widgets/../core/../hal/lv_hal_disp.h"
 5033              		.file 21 "lvgl/lvgl/src/widgets/../core/lv_obj.h"
 5034              		.file 22 "lvgl/lvgl/src/widgets/../core/../hal/lv_hal_indev.h"
 5035              		.file 23 "lvgl/lvgl/src/widgets/../core/lv_group.h"
 5036              		.file 24 "lvgl/lvgl/src/widgets/../core/lv_obj_scroll.h"
 5037              		.file 25 "lvgl/lvgl/src/widgets/../core/lv_obj_style.h"
 5038              		.file 26 "lvgl/lvgl/src/widgets/../core/../draw/lv_draw_rect.h"
 5039              		.file 27 "lvgl/lvgl/src/widgets/../core/../draw/lv_draw_label.h"
 5040              		.file 28 "lvgl/lvgl/src/widgets/../core/../draw/lv_draw_img.h"
 5041              		.file 29 "lvgl/lvgl/src/widgets/../core/../draw/lv_draw_line.h"
 5042              		.file 30 "lvgl/lvgl/src/widgets/../core/../draw/lv_draw_arc.h"
 5043              		.file 31 "lvgl/lvgl/src/widgets/../core/lv_obj_draw.h"
 5044              		.file 32 "lvgl/lvgl/src/widgets/../core/lv_obj_class.h"
 5045              		.file 33 "lvgl/lvgl/src/widgets/../core/lv_event.h"
 5046              		.file 34 "lvgl/lvgl/src/widgets/lv_label.h"
 5047              		.file 35 "lvgl/lvgl/src/widgets/lv_table.h"
 5048              		.file 36 "lvgl/lvgl/src/widgets/../core/lv_indev.h"
 5049              		.file 37 "lvgl/lvgl/src/widgets/../core/lv_obj_pos.h"
 5050              		.file 38 "d:\\practise\\f407_disc\\lvgl\\lvgl\\src\\misc\\lv_log.h"
 5051              		.file 39 "lvgl/lvgl/src/widgets/../core/../misc/lv_printf.h"
 5052              		.file 40 "c:\\program files (x86)\\gnu arm embedded toolchain\\9 2020-q2-update\\arm-none-eabi\\in
 5053              		.file 41 "<built-in>"
ARM GAS  C:\Users\gx\AppData\Local\Temp\ccSIsGPa.s 			page 147


DEFINED SYMBOLS
                            *ABS*:00000000 lv_table.c
C:\Users\gx\AppData\Local\Temp\ccSIsGPa.s:18     .text.get_row_height:00000000 $t
C:\Users\gx\AppData\Local\Temp\ccSIsGPa.s:25     .text.get_row_height:00000000 get_row_height
C:\Users\gx\AppData\Local\Temp\ccSIsGPa.s:344    .text.refr_size:00000000 $t
C:\Users\gx\AppData\Local\Temp\ccSIsGPa.s:350    .text.refr_size:00000000 refr_size
C:\Users\gx\AppData\Local\Temp\ccSIsGPa.s:616    .text.get_pressed_cell:00000000 $t
C:\Users\gx\AppData\Local\Temp\ccSIsGPa.s:622    .text.get_pressed_cell:00000000 get_pressed_cell
C:\Users\gx\AppData\Local\Temp\ccSIsGPa.s:951    .text.draw_main:00000000 $t
C:\Users\gx\AppData\Local\Temp\ccSIsGPa.s:957    .text.draw_main:00000000 draw_main
C:\Users\gx\AppData\Local\Temp\ccSIsGPa.s:1855   .text.draw_main:00000404 $d
C:\Users\gx\AppData\Local\Temp\ccSIsGPa.s:1860   .text.draw_main:00000408 $t
C:\Users\gx\AppData\Local\Temp\ccSIsGPa.s:2047   .text.lv_table_event:00000000 $t
C:\Users\gx\AppData\Local\Temp\ccSIsGPa.s:2053   .text.lv_table_event:00000000 lv_table_event
C:\Users\gx\AppData\Local\Temp\ccSIsGPa.s:2603   .text.lv_table_event:000001c4 $d
C:\Users\gx\AppData\Local\Temp\ccSIsGPa.s:2609   .text.lv_table_destructor:00000000 $t
C:\Users\gx\AppData\Local\Temp\ccSIsGPa.s:2615   .text.lv_table_destructor:00000000 lv_table_destructor
C:\Users\gx\AppData\Local\Temp\ccSIsGPa.s:2705   .text.lv_table_constructor:00000000 $t
C:\Users\gx\AppData\Local\Temp\ccSIsGPa.s:2711   .text.lv_table_constructor:00000000 lv_table_constructor
C:\Users\gx\AppData\Local\Temp\ccSIsGPa.s:2797   .text.lv_table_create:00000000 $t
C:\Users\gx\AppData\Local\Temp\ccSIsGPa.s:2804   .text.lv_table_create:00000000 lv_table_create
C:\Users\gx\AppData\Local\Temp\ccSIsGPa.s:2843   .text.lv_table_create:00000014 $d
C:\Users\gx\AppData\Local\Temp\ccSIsGPa.s:2848   .rodata.lv_table_set_row_cnt.str1.4:00000000 $d
C:\Users\gx\AppData\Local\Temp\ccSIsGPa.s:2864   .text.lv_table_set_row_cnt:00000000 $t
C:\Users\gx\AppData\Local\Temp\ccSIsGPa.s:2871   .text.lv_table_set_row_cnt:00000000 lv_table_set_row_cnt
C:\Users\gx\AppData\Local\Temp\ccSIsGPa.s:3080   .text.lv_table_set_row_cnt:000000b4 $d
C:\Users\gx\AppData\Local\Temp\ccSIsGPa.s:3091   .rodata.lv_table_set_cell_value_fmt.str1.4:00000000 $d
C:\Users\gx\AppData\Local\Temp\ccSIsGPa.s:3104   .text.lv_table_set_cell_value_fmt:00000000 $t
C:\Users\gx\AppData\Local\Temp\ccSIsGPa.s:3111   .text.lv_table_set_cell_value_fmt:00000000 lv_table_set_cell_value_fmt
C:\Users\gx\AppData\Local\Temp\ccSIsGPa.s:3574   .text.lv_table_set_cell_value_fmt:000001c0 $d
C:\Users\gx\AppData\Local\Temp\ccSIsGPa.s:3586   .rodata.lv_table_set_col_cnt.str1.4:00000000 $d
C:\Users\gx\AppData\Local\Temp\ccSIsGPa.s:3593   .text.lv_table_set_col_cnt:00000000 $t
C:\Users\gx\AppData\Local\Temp\ccSIsGPa.s:3600   .text.lv_table_set_col_cnt:00000000 lv_table_set_col_cnt
C:\Users\gx\AppData\Local\Temp\ccSIsGPa.s:3920   .text.lv_table_set_col_cnt:00000100 $d
C:\Users\gx\AppData\Local\Temp\ccSIsGPa.s:3930   .rodata.lv_table_set_cell_value.str1.4:00000000 $d
C:\Users\gx\AppData\Local\Temp\ccSIsGPa.s:3934   .text.lv_table_set_cell_value:00000000 $t
C:\Users\gx\AppData\Local\Temp\ccSIsGPa.s:3941   .text.lv_table_set_cell_value:00000000 lv_table_set_cell_value
C:\Users\gx\AppData\Local\Temp\ccSIsGPa.s:4139   .text.lv_table_set_cell_value:000000c4 $d
C:\Users\gx\AppData\Local\Temp\ccSIsGPa.s:4150   .text.lv_table_set_col_width:00000000 $t
C:\Users\gx\AppData\Local\Temp\ccSIsGPa.s:4157   .text.lv_table_set_col_width:00000000 lv_table_set_col_width
C:\Users\gx\AppData\Local\Temp\ccSIsGPa.s:4215   .text.lv_table_add_cell_ctrl:00000000 $t
C:\Users\gx\AppData\Local\Temp\ccSIsGPa.s:4222   .text.lv_table_add_cell_ctrl:00000000 lv_table_add_cell_ctrl
C:\Users\gx\AppData\Local\Temp\ccSIsGPa.s:4369   .text.lv_table_add_cell_ctrl:00000088 $d
C:\Users\gx\AppData\Local\Temp\ccSIsGPa.s:4378   .text.lv_table_clear_cell_ctrl:00000000 $t
C:\Users\gx\AppData\Local\Temp\ccSIsGPa.s:4385   .text.lv_table_clear_cell_ctrl:00000000 lv_table_clear_cell_ctrl
C:\Users\gx\AppData\Local\Temp\ccSIsGPa.s:4532   .text.lv_table_clear_cell_ctrl:0000008c $d
C:\Users\gx\AppData\Local\Temp\ccSIsGPa.s:4541   .rodata.lv_table_get_cell_value.str1.4:00000000 $d
C:\Users\gx\AppData\Local\Temp\ccSIsGPa.s:4548   .text.lv_table_get_cell_value:00000000 $t
C:\Users\gx\AppData\Local\Temp\ccSIsGPa.s:4555   .text.lv_table_get_cell_value:00000000 lv_table_get_cell_value
C:\Users\gx\AppData\Local\Temp\ccSIsGPa.s:4640   .text.lv_table_get_cell_value:00000040 $d
C:\Users\gx\AppData\Local\Temp\ccSIsGPa.s:4648   .text.lv_table_get_row_cnt:00000000 $t
C:\Users\gx\AppData\Local\Temp\ccSIsGPa.s:4655   .text.lv_table_get_row_cnt:00000000 lv_table_get_row_cnt
C:\Users\gx\AppData\Local\Temp\ccSIsGPa.s:4677   .text.lv_table_get_col_cnt:00000000 $t
C:\Users\gx\AppData\Local\Temp\ccSIsGPa.s:4684   .text.lv_table_get_col_cnt:00000000 lv_table_get_col_cnt
C:\Users\gx\AppData\Local\Temp\ccSIsGPa.s:4706   .rodata.lv_table_get_col_width.str1.4:00000000 $d
C:\Users\gx\AppData\Local\Temp\ccSIsGPa.s:4711   .text.lv_table_get_col_width:00000000 $t
C:\Users\gx\AppData\Local\Temp\ccSIsGPa.s:4718   .text.lv_table_get_col_width:00000000 lv_table_get_col_width
ARM GAS  C:\Users\gx\AppData\Local\Temp\ccSIsGPa.s 			page 148


C:\Users\gx\AppData\Local\Temp\ccSIsGPa.s:4779   .text.lv_table_get_col_width:0000002c $d
C:\Users\gx\AppData\Local\Temp\ccSIsGPa.s:4786   .rodata.lv_table_has_cell_ctrl.str1.4:00000000 $d
C:\Users\gx\AppData\Local\Temp\ccSIsGPa.s:4790   .text.lv_table_has_cell_ctrl:00000000 $t
C:\Users\gx\AppData\Local\Temp\ccSIsGPa.s:4797   .text.lv_table_has_cell_ctrl:00000000 lv_table_has_cell_ctrl
C:\Users\gx\AppData\Local\Temp\ccSIsGPa.s:4897   .text.lv_table_has_cell_ctrl:00000044 $d
C:\Users\gx\AppData\Local\Temp\ccSIsGPa.s:4904   .text.lv_table_get_selected_cell:00000000 $t
C:\Users\gx\AppData\Local\Temp\ccSIsGPa.s:4911   .text.lv_table_get_selected_cell:00000000 lv_table_get_selected_cell
C:\Users\gx\AppData\Local\Temp\ccSIsGPa.s:5004   .rodata.lv_table_class:00000000 lv_table_class
C:\Users\gx\AppData\Local\Temp\ccSIsGPa.s:4937   .rodata.__func__.10119:00000000 $d
C:\Users\gx\AppData\Local\Temp\ccSIsGPa.s:4941   .rodata.__func__.10119:00000000 __func__.10119
C:\Users\gx\AppData\Local\Temp\ccSIsGPa.s:4944   .rodata.__func__.10131:00000000 $d
C:\Users\gx\AppData\Local\Temp\ccSIsGPa.s:4948   .rodata.__func__.10131:00000000 __func__.10131
C:\Users\gx\AppData\Local\Temp\ccSIsGPa.s:4951   .rodata.__func__.10156:00000000 $d
C:\Users\gx\AppData\Local\Temp\ccSIsGPa.s:4955   .rodata.__func__.10156:00000000 __func__.10156
C:\Users\gx\AppData\Local\Temp\ccSIsGPa.s:4958   .rodata.__func__.10173:00000000 $d
C:\Users\gx\AppData\Local\Temp\ccSIsGPa.s:4962   .rodata.__func__.10173:00000000 __func__.10173
C:\Users\gx\AppData\Local\Temp\ccSIsGPa.s:4965   .rodata.__func__.10209:00000000 $d
C:\Users\gx\AppData\Local\Temp\ccSIsGPa.s:4969   .rodata.__func__.10209:00000000 __func__.10209
C:\Users\gx\AppData\Local\Temp\ccSIsGPa.s:4972   .rodata.__func__.10219:00000000 $d
C:\Users\gx\AppData\Local\Temp\ccSIsGPa.s:4976   .rodata.__func__.10219:00000000 __func__.10219
C:\Users\gx\AppData\Local\Temp\ccSIsGPa.s:4979   .rodata.__func__.10227:00000000 $d
C:\Users\gx\AppData\Local\Temp\ccSIsGPa.s:4983   .rodata.__func__.10227:00000000 __func__.10227
C:\Users\gx\AppData\Local\Temp\ccSIsGPa.s:4986   .rodata.__func__.10242:00000000 $d
C:\Users\gx\AppData\Local\Temp\ccSIsGPa.s:4990   .rodata.__func__.10242:00000000 __func__.10242
C:\Users\gx\AppData\Local\Temp\ccSIsGPa.s:4993   .rodata.__func__.10250:00000000 $d
C:\Users\gx\AppData\Local\Temp\ccSIsGPa.s:4997   .rodata.__func__.10250:00000000 __func__.10250
C:\Users\gx\AppData\Local\Temp\ccSIsGPa.s:5000   .rodata.lv_table_class:00000000 $d

UNDEFINED SYMBOLS
lv_txt_get_size
lv_obj_get_style_prop
lv_obj_refresh_self_size
lv_indev_get_act
lv_indev_get_type
lv_indev_get_point
lv_obj_get_scroll_x
lv_obj_get_scroll_y
lv_event_get_target
lv_event_get_param
_lv_area_intersect
lv_draw_rect_dsc_init
lv_obj_init_draw_rect_dsc
lv_draw_label_dsc_init
lv_obj_init_draw_label_dsc
lv_obj_draw_dsc_init
lv_memcpy
lv_event_send
lv_draw_rect
lv_draw_label
lv_obj_event_base
lv_event_get_code
lv_obj_invalidate
lv_indev_get_scroll_obj
lv_mem_free
lv_mem_alloc
lv_mem_realloc
lv_obj_class_create_obj
ARM GAS  C:\Users\gx\AppData\Local\Temp\ccSIsGPa.s 			page 149


lv_obj_class_init_obj
_lv_log_add
lv_memset_00
lv_vsnprintf
strlen
strcpy
lv_obj_class
