ARM GAS  C:\Users\gx\AppData\Local\Temp\ccWdDCgQ.s 			page 1


   1              		.cpu cortex-m4
   2              		.eabi_attribute 27, 1
   3              		.eabi_attribute 28, 1
   4              		.eabi_attribute 20, 1
   5              		.eabi_attribute 21, 1
   6              		.eabi_attribute 23, 3
   7              		.eabi_attribute 24, 1
   8              		.eabi_attribute 25, 1
   9              		.eabi_attribute 26, 1
  10              		.eabi_attribute 30, 1
  11              		.eabi_attribute 34, 1
  12              		.eabi_attribute 18, 4
  13              		.file	"lv_theme.c"
  14              		.text
  15              	.Ltext0:
  16              		.cfi_sections	.debug_frame
  17              		.section	.text.apply_theme,"ax",%progbits
  18              		.align	1
  19              		.arch armv7e-m
  20              		.syntax unified
  21              		.thumb
  22              		.thumb_func
  23              		.fpu fpv4-sp-d16
  25              	apply_theme:
  26              	.LVL0:
  27              	.LFB198:
  28              		.file 1 "lvgl/lvgl/src/core/lv_theme.c"
   1:lvgl/lvgl/src/core/lv_theme.c **** /**
   2:lvgl/lvgl/src/core/lv_theme.c ****  * @file lv_theme.c
   3:lvgl/lvgl/src/core/lv_theme.c ****  *
   4:lvgl/lvgl/src/core/lv_theme.c ****  */
   5:lvgl/lvgl/src/core/lv_theme.c **** 
   6:lvgl/lvgl/src/core/lv_theme.c **** /*********************
   7:lvgl/lvgl/src/core/lv_theme.c ****  *      INCLUDES
   8:lvgl/lvgl/src/core/lv_theme.c ****  *********************/
   9:lvgl/lvgl/src/core/lv_theme.c **** #include "../../lvgl.h"
  10:lvgl/lvgl/src/core/lv_theme.c **** 
  11:lvgl/lvgl/src/core/lv_theme.c **** /*********************
  12:lvgl/lvgl/src/core/lv_theme.c ****  *      DEFINES
  13:lvgl/lvgl/src/core/lv_theme.c ****  *********************/
  14:lvgl/lvgl/src/core/lv_theme.c **** 
  15:lvgl/lvgl/src/core/lv_theme.c **** /**********************
  16:lvgl/lvgl/src/core/lv_theme.c ****  *      TYPEDEFS
  17:lvgl/lvgl/src/core/lv_theme.c ****  **********************/
  18:lvgl/lvgl/src/core/lv_theme.c **** 
  19:lvgl/lvgl/src/core/lv_theme.c **** /**********************
  20:lvgl/lvgl/src/core/lv_theme.c ****  *  STATIC PROTOTYPES
  21:lvgl/lvgl/src/core/lv_theme.c ****  **********************/
  22:lvgl/lvgl/src/core/lv_theme.c **** static void apply_theme(lv_theme_t * th, lv_obj_t * obj);
  23:lvgl/lvgl/src/core/lv_theme.c **** 
  24:lvgl/lvgl/src/core/lv_theme.c **** /**********************
  25:lvgl/lvgl/src/core/lv_theme.c ****  *  STATIC VARIABLES
  26:lvgl/lvgl/src/core/lv_theme.c ****  **********************/
  27:lvgl/lvgl/src/core/lv_theme.c **** 
  28:lvgl/lvgl/src/core/lv_theme.c **** /**********************
  29:lvgl/lvgl/src/core/lv_theme.c ****  *      MACROS
  30:lvgl/lvgl/src/core/lv_theme.c ****  **********************/
ARM GAS  C:\Users\gx\AppData\Local\Temp\ccWdDCgQ.s 			page 2


  31:lvgl/lvgl/src/core/lv_theme.c **** 
  32:lvgl/lvgl/src/core/lv_theme.c **** /**********************
  33:lvgl/lvgl/src/core/lv_theme.c ****  *   GLOBAL FUNCTIONS
  34:lvgl/lvgl/src/core/lv_theme.c ****  **********************/
  35:lvgl/lvgl/src/core/lv_theme.c **** 
  36:lvgl/lvgl/src/core/lv_theme.c **** lv_theme_t *  lv_theme_get_from_obj(lv_obj_t * obj)
  37:lvgl/lvgl/src/core/lv_theme.c **** {
  38:lvgl/lvgl/src/core/lv_theme.c ****     lv_disp_t * disp = obj ? lv_obj_get_disp(obj) : lv_disp_get_default();
  39:lvgl/lvgl/src/core/lv_theme.c ****     return lv_disp_get_theme(disp);
  40:lvgl/lvgl/src/core/lv_theme.c **** }
  41:lvgl/lvgl/src/core/lv_theme.c **** 
  42:lvgl/lvgl/src/core/lv_theme.c **** /**
  43:lvgl/lvgl/src/core/lv_theme.c ****  * Apply the active theme on an object
  44:lvgl/lvgl/src/core/lv_theme.c ****  * @param obj pointer to an object
  45:lvgl/lvgl/src/core/lv_theme.c ****  * @param name the name of the theme element to apply. E.g. `LV_THEME_BTN`
  46:lvgl/lvgl/src/core/lv_theme.c ****  */
  47:lvgl/lvgl/src/core/lv_theme.c **** void lv_theme_apply(lv_obj_t * obj)
  48:lvgl/lvgl/src/core/lv_theme.c **** {
  49:lvgl/lvgl/src/core/lv_theme.c ****     lv_theme_t * th = lv_theme_get_from_obj(obj);
  50:lvgl/lvgl/src/core/lv_theme.c ****     if(th == NULL) return;
  51:lvgl/lvgl/src/core/lv_theme.c **** 
  52:lvgl/lvgl/src/core/lv_theme.c ****     lv_obj_remove_style_all(obj);
  53:lvgl/lvgl/src/core/lv_theme.c **** 
  54:lvgl/lvgl/src/core/lv_theme.c ****     apply_theme(th, obj);    /*Apply the theme including the base theme(s)*/
  55:lvgl/lvgl/src/core/lv_theme.c **** }
  56:lvgl/lvgl/src/core/lv_theme.c **** 
  57:lvgl/lvgl/src/core/lv_theme.c **** /**
  58:lvgl/lvgl/src/core/lv_theme.c ****  * Set a base theme for a theme.
  59:lvgl/lvgl/src/core/lv_theme.c ****  * The styles from the base them will be added before the styles of the current theme.
  60:lvgl/lvgl/src/core/lv_theme.c ****  * Arbitrary long chain of themes can be created by setting base themes.
  61:lvgl/lvgl/src/core/lv_theme.c ****  * @param new_theme pointer to theme which base should be set
  62:lvgl/lvgl/src/core/lv_theme.c ****  * @param base pointer to the base theme
  63:lvgl/lvgl/src/core/lv_theme.c ****  */
  64:lvgl/lvgl/src/core/lv_theme.c **** void lv_theme_set_parent(lv_theme_t * new_theme, lv_theme_t * base)
  65:lvgl/lvgl/src/core/lv_theme.c **** {
  66:lvgl/lvgl/src/core/lv_theme.c ****     new_theme->parent = base;
  67:lvgl/lvgl/src/core/lv_theme.c **** }
  68:lvgl/lvgl/src/core/lv_theme.c **** 
  69:lvgl/lvgl/src/core/lv_theme.c **** /**
  70:lvgl/lvgl/src/core/lv_theme.c ****  * Set a callback for a theme.
  71:lvgl/lvgl/src/core/lv_theme.c ****  * The callback is used to add styles to different objects
  72:lvgl/lvgl/src/core/lv_theme.c ****  * @param theme pointer to theme which callback should be set
  73:lvgl/lvgl/src/core/lv_theme.c ****  * @param cb pointer to the callback
  74:lvgl/lvgl/src/core/lv_theme.c ****  */
  75:lvgl/lvgl/src/core/lv_theme.c **** void lv_theme_set_apply_cb(lv_theme_t * theme, lv_theme_apply_cb_t apply_cb)
  76:lvgl/lvgl/src/core/lv_theme.c **** {
  77:lvgl/lvgl/src/core/lv_theme.c ****     theme->apply_cb = apply_cb;
  78:lvgl/lvgl/src/core/lv_theme.c **** }
  79:lvgl/lvgl/src/core/lv_theme.c **** 
  80:lvgl/lvgl/src/core/lv_theme.c **** const lv_font_t * lv_theme_get_font_small(lv_obj_t * obj)
  81:lvgl/lvgl/src/core/lv_theme.c **** {
  82:lvgl/lvgl/src/core/lv_theme.c ****     lv_theme_t * th = lv_theme_get_from_obj(obj);
  83:lvgl/lvgl/src/core/lv_theme.c ****     return th ? th->font_small : LV_FONT_DEFAULT;
  84:lvgl/lvgl/src/core/lv_theme.c **** }
  85:lvgl/lvgl/src/core/lv_theme.c **** 
  86:lvgl/lvgl/src/core/lv_theme.c **** const lv_font_t * lv_theme_get_font_normal(lv_obj_t * obj)
  87:lvgl/lvgl/src/core/lv_theme.c **** {
ARM GAS  C:\Users\gx\AppData\Local\Temp\ccWdDCgQ.s 			page 3


  88:lvgl/lvgl/src/core/lv_theme.c ****     lv_theme_t * th = lv_theme_get_from_obj(obj);
  89:lvgl/lvgl/src/core/lv_theme.c ****     return th ? th->font_normal : LV_FONT_DEFAULT;
  90:lvgl/lvgl/src/core/lv_theme.c **** }
  91:lvgl/lvgl/src/core/lv_theme.c **** 
  92:lvgl/lvgl/src/core/lv_theme.c **** const lv_font_t * lv_theme_get_font_large(lv_obj_t * obj)
  93:lvgl/lvgl/src/core/lv_theme.c **** {
  94:lvgl/lvgl/src/core/lv_theme.c ****     lv_theme_t * th = lv_theme_get_from_obj(obj);
  95:lvgl/lvgl/src/core/lv_theme.c ****     return th ? th->font_large : LV_FONT_DEFAULT;
  96:lvgl/lvgl/src/core/lv_theme.c **** }
  97:lvgl/lvgl/src/core/lv_theme.c **** 
  98:lvgl/lvgl/src/core/lv_theme.c **** lv_color_t lv_theme_get_color_primary(lv_obj_t * obj)
  99:lvgl/lvgl/src/core/lv_theme.c **** {
 100:lvgl/lvgl/src/core/lv_theme.c ****     lv_theme_t * th = lv_theme_get_from_obj(obj);
 101:lvgl/lvgl/src/core/lv_theme.c ****     return th ? th->color_primary : lv_palette_main(LV_PALETTE_BLUE_GREY);
 102:lvgl/lvgl/src/core/lv_theme.c **** }
 103:lvgl/lvgl/src/core/lv_theme.c **** 
 104:lvgl/lvgl/src/core/lv_theme.c **** lv_color_t lv_theme_get_color_secondary(lv_obj_t * obj)
 105:lvgl/lvgl/src/core/lv_theme.c **** {
 106:lvgl/lvgl/src/core/lv_theme.c ****     lv_theme_t * th = lv_theme_get_from_obj(obj);
 107:lvgl/lvgl/src/core/lv_theme.c ****     return th ? th->color_secondary : lv_palette_main(LV_PALETTE_BLUE);
 108:lvgl/lvgl/src/core/lv_theme.c **** }
 109:lvgl/lvgl/src/core/lv_theme.c **** 
 110:lvgl/lvgl/src/core/lv_theme.c **** /**********************
 111:lvgl/lvgl/src/core/lv_theme.c ****  *   STATIC FUNCTIONS
 112:lvgl/lvgl/src/core/lv_theme.c ****  **********************/
 113:lvgl/lvgl/src/core/lv_theme.c **** 
 114:lvgl/lvgl/src/core/lv_theme.c **** static void apply_theme(lv_theme_t * th, lv_obj_t * obj)
 115:lvgl/lvgl/src/core/lv_theme.c **** {
  29              		.loc 1 115 1 view -0
  30              		.cfi_startproc
  31              		@ args = 0, pretend = 0, frame = 0
  32              		@ frame_needed = 0, uses_anonymous_args = 0
  33              		.loc 1 115 1 is_stmt 0 view .LVU1
  34 0000 38B5     		push	{r3, r4, r5, lr}
  35              	.LCFI0:
  36              		.cfi_def_cfa_offset 16
  37              		.cfi_offset 3, -16
  38              		.cfi_offset 4, -12
  39              		.cfi_offset 5, -8
  40              		.cfi_offset 14, -4
  41 0002 0446     		mov	r4, r0
  42 0004 0D46     		mov	r5, r1
 116:lvgl/lvgl/src/core/lv_theme.c ****     if(th->parent) apply_theme(th->parent, obj);
  43              		.loc 1 116 5 is_stmt 1 view .LVU2
  44              		.loc 1 116 10 is_stmt 0 view .LVU3
  45 0006 4068     		ldr	r0, [r0, #4]
  46              	.LVL1:
  47              		.loc 1 116 7 view .LVU4
  48 0008 08B1     		cbz	r0, .L2
  49              		.loc 1 116 20 is_stmt 1 discriminator 1 view .LVU5
  50 000a FFF7F9FF 		bl	apply_theme
  51              	.LVL2:
  52              	.L2:
 117:lvgl/lvgl/src/core/lv_theme.c ****     if(th->apply_cb) th->apply_cb(th, obj);
  53              		.loc 1 117 5 view .LVU6
  54              		.loc 1 117 10 is_stmt 0 view .LVU7
  55 000e 2368     		ldr	r3, [r4]
ARM GAS  C:\Users\gx\AppData\Local\Temp\ccWdDCgQ.s 			page 4


  56              		.loc 1 117 7 view .LVU8
  57 0010 13B1     		cbz	r3, .L1
  58              		.loc 1 117 22 is_stmt 1 discriminator 1 view .LVU9
  59 0012 2946     		mov	r1, r5
  60 0014 2046     		mov	r0, r4
  61 0016 9847     		blx	r3
  62              	.LVL3:
  63              	.L1:
 118:lvgl/lvgl/src/core/lv_theme.c **** }
  64              		.loc 1 118 1 is_stmt 0 view .LVU10
  65 0018 38BD     		pop	{r3, r4, r5, pc}
  66              		.loc 1 118 1 view .LVU11
  67              		.cfi_endproc
  68              	.LFE198:
  70              		.section	.text.lv_theme_get_from_obj,"ax",%progbits
  71              		.align	1
  72              		.global	lv_theme_get_from_obj
  73              		.syntax unified
  74              		.thumb
  75              		.thumb_func
  76              		.fpu fpv4-sp-d16
  78              	lv_theme_get_from_obj:
  79              	.LVL4:
  80              	.LFB189:
  37:lvgl/lvgl/src/core/lv_theme.c ****     lv_disp_t * disp = obj ? lv_obj_get_disp(obj) : lv_disp_get_default();
  81              		.loc 1 37 1 is_stmt 1 view -0
  82              		.cfi_startproc
  83              		@ args = 0, pretend = 0, frame = 0
  84              		@ frame_needed = 0, uses_anonymous_args = 0
  37:lvgl/lvgl/src/core/lv_theme.c ****     lv_disp_t * disp = obj ? lv_obj_get_disp(obj) : lv_disp_get_default();
  85              		.loc 1 37 1 is_stmt 0 view .LVU13
  86 0000 08B5     		push	{r3, lr}
  87              	.LCFI1:
  88              		.cfi_def_cfa_offset 8
  89              		.cfi_offset 3, -8
  90              		.cfi_offset 14, -4
  38:lvgl/lvgl/src/core/lv_theme.c ****     return lv_disp_get_theme(disp);
  91              		.loc 1 38 5 is_stmt 1 view .LVU14
  38:lvgl/lvgl/src/core/lv_theme.c ****     return lv_disp_get_theme(disp);
  92              		.loc 1 38 51 is_stmt 0 view .LVU15
  93 0002 20B1     		cbz	r0, .L6
  38:lvgl/lvgl/src/core/lv_theme.c ****     return lv_disp_get_theme(disp);
  94              		.loc 1 38 30 discriminator 1 view .LVU16
  95 0004 FFF7FEFF 		bl	lv_obj_get_disp
  96              	.LVL5:
  97              	.L7:
  39:lvgl/lvgl/src/core/lv_theme.c **** }
  98              		.loc 1 39 5 is_stmt 1 discriminator 4 view .LVU17
  39:lvgl/lvgl/src/core/lv_theme.c **** }
  99              		.loc 1 39 12 is_stmt 0 discriminator 4 view .LVU18
 100 0008 FFF7FEFF 		bl	lv_disp_get_theme
 101              	.LVL6:
  40:lvgl/lvgl/src/core/lv_theme.c **** 
 102              		.loc 1 40 1 discriminator 4 view .LVU19
 103 000c 08BD     		pop	{r3, pc}
 104              	.LVL7:
 105              	.L6:
ARM GAS  C:\Users\gx\AppData\Local\Temp\ccWdDCgQ.s 			page 5


  38:lvgl/lvgl/src/core/lv_theme.c ****     return lv_disp_get_theme(disp);
 106              		.loc 1 38 53 discriminator 2 view .LVU20
 107 000e FFF7FEFF 		bl	lv_disp_get_default
 108              	.LVL8:
  38:lvgl/lvgl/src/core/lv_theme.c ****     return lv_disp_get_theme(disp);
 109              		.loc 1 38 53 discriminator 2 view .LVU21
 110 0012 F9E7     		b	.L7
 111              		.cfi_endproc
 112              	.LFE189:
 114              		.section	.text.lv_theme_apply,"ax",%progbits
 115              		.align	1
 116              		.global	lv_theme_apply
 117              		.syntax unified
 118              		.thumb
 119              		.thumb_func
 120              		.fpu fpv4-sp-d16
 122              	lv_theme_apply:
 123              	.LVL9:
 124              	.LFB190:
  48:lvgl/lvgl/src/core/lv_theme.c ****     lv_theme_t * th = lv_theme_get_from_obj(obj);
 125              		.loc 1 48 1 is_stmt 1 view -0
 126              		.cfi_startproc
 127              		@ args = 0, pretend = 0, frame = 0
 128              		@ frame_needed = 0, uses_anonymous_args = 0
  48:lvgl/lvgl/src/core/lv_theme.c ****     lv_theme_t * th = lv_theme_get_from_obj(obj);
 129              		.loc 1 48 1 is_stmt 0 view .LVU23
 130 0000 38B5     		push	{r3, r4, r5, lr}
 131              	.LCFI2:
 132              		.cfi_def_cfa_offset 16
 133              		.cfi_offset 3, -16
 134              		.cfi_offset 4, -12
 135              		.cfi_offset 5, -8
 136              		.cfi_offset 14, -4
 137 0002 0446     		mov	r4, r0
  49:lvgl/lvgl/src/core/lv_theme.c ****     if(th == NULL) return;
 138              		.loc 1 49 5 is_stmt 1 view .LVU24
  49:lvgl/lvgl/src/core/lv_theme.c ****     if(th == NULL) return;
 139              		.loc 1 49 23 is_stmt 0 view .LVU25
 140 0004 FFF7FEFF 		bl	lv_theme_get_from_obj
 141              	.LVL10:
  50:lvgl/lvgl/src/core/lv_theme.c **** 
 142              		.loc 1 50 5 is_stmt 1 view .LVU26
  50:lvgl/lvgl/src/core/lv_theme.c **** 
 143              		.loc 1 50 7 is_stmt 0 view .LVU27
 144 0008 48B1     		cbz	r0, .L9
 145 000a 0546     		mov	r5, r0
  52:lvgl/lvgl/src/core/lv_theme.c **** 
 146              		.loc 1 52 5 is_stmt 1 view .LVU28
 147              	.LVL11:
 148              	.LBB4:
 149              	.LBI4:
 150              		.file 2 "lvgl/lvgl/src/core/../../src/core/lv_obj_style.h"
   1:lvgl/lvgl/src/core/../../src/core/lv_obj_style.h **** /**
   2:lvgl/lvgl/src/core/../../src/core/lv_obj_style.h ****  * @file lv_obj_style.h
   3:lvgl/lvgl/src/core/../../src/core/lv_obj_style.h ****  *
   4:lvgl/lvgl/src/core/../../src/core/lv_obj_style.h ****  */
   5:lvgl/lvgl/src/core/../../src/core/lv_obj_style.h **** 
ARM GAS  C:\Users\gx\AppData\Local\Temp\ccWdDCgQ.s 			page 6


   6:lvgl/lvgl/src/core/../../src/core/lv_obj_style.h **** #ifndef LV_OBJ_STYLE_H
   7:lvgl/lvgl/src/core/../../src/core/lv_obj_style.h **** #define LV_OBJ_STYLE_H
   8:lvgl/lvgl/src/core/../../src/core/lv_obj_style.h **** 
   9:lvgl/lvgl/src/core/../../src/core/lv_obj_style.h **** #ifdef __cplusplus
  10:lvgl/lvgl/src/core/../../src/core/lv_obj_style.h **** extern "C" {
  11:lvgl/lvgl/src/core/../../src/core/lv_obj_style.h **** #endif
  12:lvgl/lvgl/src/core/../../src/core/lv_obj_style.h **** 
  13:lvgl/lvgl/src/core/../../src/core/lv_obj_style.h **** /*********************
  14:lvgl/lvgl/src/core/../../src/core/lv_obj_style.h ****  *      INCLUDES
  15:lvgl/lvgl/src/core/../../src/core/lv_obj_style.h ****  *********************/
  16:lvgl/lvgl/src/core/../../src/core/lv_obj_style.h **** #include <stdint.h>
  17:lvgl/lvgl/src/core/../../src/core/lv_obj_style.h **** #include <stdbool.h>
  18:lvgl/lvgl/src/core/../../src/core/lv_obj_style.h **** #include "../misc/lv_bidi.h"
  19:lvgl/lvgl/src/core/../../src/core/lv_obj_style.h **** 
  20:lvgl/lvgl/src/core/../../src/core/lv_obj_style.h **** /*********************
  21:lvgl/lvgl/src/core/../../src/core/lv_obj_style.h ****  *      DEFINES
  22:lvgl/lvgl/src/core/../../src/core/lv_obj_style.h ****  *********************/
  23:lvgl/lvgl/src/core/../../src/core/lv_obj_style.h **** 
  24:lvgl/lvgl/src/core/../../src/core/lv_obj_style.h **** /**********************
  25:lvgl/lvgl/src/core/../../src/core/lv_obj_style.h ****  *      TYPEDEFS
  26:lvgl/lvgl/src/core/../../src/core/lv_obj_style.h ****  **********************/
  27:lvgl/lvgl/src/core/../../src/core/lv_obj_style.h **** /*Can't include lv_obj.h because it includes this header file*/
  28:lvgl/lvgl/src/core/../../src/core/lv_obj_style.h **** struct _lv_obj_t;
  29:lvgl/lvgl/src/core/../../src/core/lv_obj_style.h **** 
  30:lvgl/lvgl/src/core/../../src/core/lv_obj_style.h **** typedef enum {
  31:lvgl/lvgl/src/core/../../src/core/lv_obj_style.h ****     _LV_STYLE_STATE_CMP_SAME,           /*The style properties in the 2 states are identical*/
  32:lvgl/lvgl/src/core/../../src/core/lv_obj_style.h ****     _LV_STYLE_STATE_CMP_DIFF_REDRAW,    /*The differences can be shown with a simple redraw*/
  33:lvgl/lvgl/src/core/../../src/core/lv_obj_style.h ****     _LV_STYLE_STATE_CMP_DIFF_DRAW_PAD,  /*The differences can be shown with a simple redraw*/
  34:lvgl/lvgl/src/core/../../src/core/lv_obj_style.h ****     _LV_STYLE_STATE_CMP_DIFF_LAYOUT,    /*The differences can be shown with a simple redraw*/
  35:lvgl/lvgl/src/core/../../src/core/lv_obj_style.h **** } _lv_style_state_cmp_t;
  36:lvgl/lvgl/src/core/../../src/core/lv_obj_style.h **** 
  37:lvgl/lvgl/src/core/../../src/core/lv_obj_style.h **** typedef uint32_t lv_style_selector_t;
  38:lvgl/lvgl/src/core/../../src/core/lv_obj_style.h **** 
  39:lvgl/lvgl/src/core/../../src/core/lv_obj_style.h **** typedef struct {
  40:lvgl/lvgl/src/core/../../src/core/lv_obj_style.h ****     lv_style_t * style;
  41:lvgl/lvgl/src/core/../../src/core/lv_obj_style.h ****     uint32_t selector :24;
  42:lvgl/lvgl/src/core/../../src/core/lv_obj_style.h ****     uint32_t is_local :1;
  43:lvgl/lvgl/src/core/../../src/core/lv_obj_style.h ****     uint32_t is_trans :1;
  44:lvgl/lvgl/src/core/../../src/core/lv_obj_style.h **** }_lv_obj_style_t;
  45:lvgl/lvgl/src/core/../../src/core/lv_obj_style.h **** 
  46:lvgl/lvgl/src/core/../../src/core/lv_obj_style.h **** typedef struct {
  47:lvgl/lvgl/src/core/../../src/core/lv_obj_style.h ****     uint16_t time;
  48:lvgl/lvgl/src/core/../../src/core/lv_obj_style.h ****     uint16_t delay;
  49:lvgl/lvgl/src/core/../../src/core/lv_obj_style.h ****     lv_style_selector_t selector;
  50:lvgl/lvgl/src/core/../../src/core/lv_obj_style.h ****     lv_style_prop_t prop;
  51:lvgl/lvgl/src/core/../../src/core/lv_obj_style.h ****     lv_anim_path_cb_t path_cb;
  52:lvgl/lvgl/src/core/../../src/core/lv_obj_style.h **** #if LV_USE_USER_DATA
  53:lvgl/lvgl/src/core/../../src/core/lv_obj_style.h ****     void * user_data;
  54:lvgl/lvgl/src/core/../../src/core/lv_obj_style.h **** #endif
  55:lvgl/lvgl/src/core/../../src/core/lv_obj_style.h **** }_lv_obj_style_transition_dsc_t;
  56:lvgl/lvgl/src/core/../../src/core/lv_obj_style.h **** 
  57:lvgl/lvgl/src/core/../../src/core/lv_obj_style.h **** /**********************
  58:lvgl/lvgl/src/core/../../src/core/lv_obj_style.h ****  * GLOBAL PROTOTYPES
  59:lvgl/lvgl/src/core/../../src/core/lv_obj_style.h ****  **********************/
  60:lvgl/lvgl/src/core/../../src/core/lv_obj_style.h **** 
  61:lvgl/lvgl/src/core/../../src/core/lv_obj_style.h **** /**
  62:lvgl/lvgl/src/core/../../src/core/lv_obj_style.h ****  * Initialize the object related style manager module.
ARM GAS  C:\Users\gx\AppData\Local\Temp\ccWdDCgQ.s 			page 7


  63:lvgl/lvgl/src/core/../../src/core/lv_obj_style.h ****  * Called by LVGL in `lv_init()`
  64:lvgl/lvgl/src/core/../../src/core/lv_obj_style.h ****  */
  65:lvgl/lvgl/src/core/../../src/core/lv_obj_style.h **** void _lv_obj_style_init(void);
  66:lvgl/lvgl/src/core/../../src/core/lv_obj_style.h **** 
  67:lvgl/lvgl/src/core/../../src/core/lv_obj_style.h **** /**
  68:lvgl/lvgl/src/core/../../src/core/lv_obj_style.h ****  * Add a style to an object.
  69:lvgl/lvgl/src/core/../../src/core/lv_obj_style.h ****  * @param obj       pointer to an object
  70:lvgl/lvgl/src/core/../../src/core/lv_obj_style.h ****  * @param style     pointer to a style to add
  71:lvgl/lvgl/src/core/../../src/core/lv_obj_style.h ****  * @param selector  OR-ed value of parts and state to which the style should be added
  72:lvgl/lvgl/src/core/../../src/core/lv_obj_style.h ****  * @example         lv_obj_add_style(btn, &style_btn, 0); //Default button style
  73:lvgl/lvgl/src/core/../../src/core/lv_obj_style.h ****  * @example         lv_obj_add_style(btn, &btn_red, LV_STATE_PRESSED); //Overwrite only some colors
  74:lvgl/lvgl/src/core/../../src/core/lv_obj_style.h ****  */
  75:lvgl/lvgl/src/core/../../src/core/lv_obj_style.h **** void lv_obj_add_style(struct _lv_obj_t * obj, lv_style_t * style, lv_style_selector_t selector);
  76:lvgl/lvgl/src/core/../../src/core/lv_obj_style.h **** 
  77:lvgl/lvgl/src/core/../../src/core/lv_obj_style.h **** /**
  78:lvgl/lvgl/src/core/../../src/core/lv_obj_style.h ****  * Add a style to an object.
  79:lvgl/lvgl/src/core/../../src/core/lv_obj_style.h ****  * @param obj       pointer to an object
  80:lvgl/lvgl/src/core/../../src/core/lv_obj_style.h ****  * @param style     pointer to a style to remove. Can be NULL to check only the selector
  81:lvgl/lvgl/src/core/../../src/core/lv_obj_style.h ****  * @param selector  OR-ed values of states and a part to remove only styles with matching selectors
  82:lvgl/lvgl/src/core/../../src/core/lv_obj_style.h ****  * @example lv_obj_remove_style(obj, &style, LV_PART_ANY | LV_STATE_ANY); //Remove a specific style
  83:lvgl/lvgl/src/core/../../src/core/lv_obj_style.h ****  * @example lv_obj_remove_style(obj, NULL, LV_PART_MAIN | LV_STATE_ANY); //Remove all styles from t
  84:lvgl/lvgl/src/core/../../src/core/lv_obj_style.h ****  * @example lv_obj_remove_style(obj, NULL, LV_PART_ANY | LV_STATE_ANY); //Remove all styles
  85:lvgl/lvgl/src/core/../../src/core/lv_obj_style.h ****  */
  86:lvgl/lvgl/src/core/../../src/core/lv_obj_style.h **** void lv_obj_remove_style(struct _lv_obj_t * obj, lv_style_t * style, lv_style_selector_t selector);
  87:lvgl/lvgl/src/core/../../src/core/lv_obj_style.h **** 
  88:lvgl/lvgl/src/core/../../src/core/lv_obj_style.h **** /**
  89:lvgl/lvgl/src/core/../../src/core/lv_obj_style.h ****  * Remove all styles from an object
  90:lvgl/lvgl/src/core/../../src/core/lv_obj_style.h ****  * @param obj       pointer to an object
  91:lvgl/lvgl/src/core/../../src/core/lv_obj_style.h ****  */
  92:lvgl/lvgl/src/core/../../src/core/lv_obj_style.h **** static inline void lv_obj_remove_style_all(struct _lv_obj_t * obj)
 151              		.loc 2 92 20 view .LVU29
 152              	.LBB5:
  93:lvgl/lvgl/src/core/../../src/core/lv_obj_style.h **** {
  94:lvgl/lvgl/src/core/../../src/core/lv_obj_style.h ****     lv_obj_remove_style(obj, NULL, LV_PART_ANY | LV_STATE_ANY);
 153              		.loc 2 94 5 view .LVU30
 154 000c 044A     		ldr	r2, .L12
 155 000e 0021     		movs	r1, #0
 156 0010 2046     		mov	r0, r4
 157              	.LVL12:
 158              		.loc 2 94 5 is_stmt 0 view .LVU31
 159 0012 FFF7FEFF 		bl	lv_obj_remove_style
 160              	.LVL13:
 161              		.loc 2 94 5 view .LVU32
 162              	.LBE5:
 163              	.LBE4:
  54:lvgl/lvgl/src/core/lv_theme.c **** }
 164              		.loc 1 54 5 is_stmt 1 view .LVU33
 165 0016 2146     		mov	r1, r4
 166 0018 2846     		mov	r0, r5
 167 001a FFF7FEFF 		bl	apply_theme
 168              	.LVL14:
 169              	.L9:
  55:lvgl/lvgl/src/core/lv_theme.c **** 
 170              		.loc 1 55 1 is_stmt 0 view .LVU34
 171 001e 38BD     		pop	{r3, r4, r5, pc}
 172              	.LVL15:
 173              	.L13:
ARM GAS  C:\Users\gx\AppData\Local\Temp\ccWdDCgQ.s 			page 8


  55:lvgl/lvgl/src/core/lv_theme.c **** 
 174              		.loc 1 55 1 view .LVU35
 175              		.align	2
 176              	.L12:
 177 0020 FFFF0F00 		.word	1048575
 178              		.cfi_endproc
 179              	.LFE190:
 181              		.section	.text.lv_theme_set_parent,"ax",%progbits
 182              		.align	1
 183              		.global	lv_theme_set_parent
 184              		.syntax unified
 185              		.thumb
 186              		.thumb_func
 187              		.fpu fpv4-sp-d16
 189              	lv_theme_set_parent:
 190              	.LVL16:
 191              	.LFB191:
  65:lvgl/lvgl/src/core/lv_theme.c ****     new_theme->parent = base;
 192              		.loc 1 65 1 is_stmt 1 view -0
 193              		.cfi_startproc
 194              		@ args = 0, pretend = 0, frame = 0
 195              		@ frame_needed = 0, uses_anonymous_args = 0
 196              		@ link register save eliminated.
  66:lvgl/lvgl/src/core/lv_theme.c **** }
 197              		.loc 1 66 5 view .LVU37
  66:lvgl/lvgl/src/core/lv_theme.c **** }
 198              		.loc 1 66 23 is_stmt 0 view .LVU38
 199 0000 4160     		str	r1, [r0, #4]
  67:lvgl/lvgl/src/core/lv_theme.c **** 
 200              		.loc 1 67 1 view .LVU39
 201 0002 7047     		bx	lr
 202              		.cfi_endproc
 203              	.LFE191:
 205              		.section	.text.lv_theme_set_apply_cb,"ax",%progbits
 206              		.align	1
 207              		.global	lv_theme_set_apply_cb
 208              		.syntax unified
 209              		.thumb
 210              		.thumb_func
 211              		.fpu fpv4-sp-d16
 213              	lv_theme_set_apply_cb:
 214              	.LVL17:
 215              	.LFB192:
  76:lvgl/lvgl/src/core/lv_theme.c ****     theme->apply_cb = apply_cb;
 216              		.loc 1 76 1 is_stmt 1 view -0
 217              		.cfi_startproc
 218              		@ args = 0, pretend = 0, frame = 0
 219              		@ frame_needed = 0, uses_anonymous_args = 0
 220              		@ link register save eliminated.
  77:lvgl/lvgl/src/core/lv_theme.c **** }
 221              		.loc 1 77 5 view .LVU41
  77:lvgl/lvgl/src/core/lv_theme.c **** }
 222              		.loc 1 77 21 is_stmt 0 view .LVU42
 223 0000 0160     		str	r1, [r0]
  78:lvgl/lvgl/src/core/lv_theme.c **** 
 224              		.loc 1 78 1 view .LVU43
 225 0002 7047     		bx	lr
ARM GAS  C:\Users\gx\AppData\Local\Temp\ccWdDCgQ.s 			page 9


 226              		.cfi_endproc
 227              	.LFE192:
 229              		.section	.text.lv_theme_get_font_small,"ax",%progbits
 230              		.align	1
 231              		.global	lv_theme_get_font_small
 232              		.syntax unified
 233              		.thumb
 234              		.thumb_func
 235              		.fpu fpv4-sp-d16
 237              	lv_theme_get_font_small:
 238              	.LVL18:
 239              	.LFB193:
  81:lvgl/lvgl/src/core/lv_theme.c ****     lv_theme_t * th = lv_theme_get_from_obj(obj);
 240              		.loc 1 81 1 is_stmt 1 view -0
 241              		.cfi_startproc
 242              		@ args = 0, pretend = 0, frame = 0
 243              		@ frame_needed = 0, uses_anonymous_args = 0
  81:lvgl/lvgl/src/core/lv_theme.c ****     lv_theme_t * th = lv_theme_get_from_obj(obj);
 244              		.loc 1 81 1 is_stmt 0 view .LVU45
 245 0000 08B5     		push	{r3, lr}
 246              	.LCFI3:
 247              		.cfi_def_cfa_offset 8
 248              		.cfi_offset 3, -8
 249              		.cfi_offset 14, -4
  82:lvgl/lvgl/src/core/lv_theme.c ****     return th ? th->font_small : LV_FONT_DEFAULT;
 250              		.loc 1 82 5 is_stmt 1 view .LVU46
  82:lvgl/lvgl/src/core/lv_theme.c ****     return th ? th->font_small : LV_FONT_DEFAULT;
 251              		.loc 1 82 23 is_stmt 0 view .LVU47
 252 0002 FFF7FEFF 		bl	lv_theme_get_from_obj
 253              	.LVL19:
  83:lvgl/lvgl/src/core/lv_theme.c **** }
 254              		.loc 1 83 5 is_stmt 1 view .LVU48
  83:lvgl/lvgl/src/core/lv_theme.c **** }
 255              		.loc 1 83 32 is_stmt 0 view .LVU49
 256 0006 08B1     		cbz	r0, .L18
  83:lvgl/lvgl/src/core/lv_theme.c **** }
 257              		.loc 1 83 32 discriminator 1 view .LVU50
 258 0008 4069     		ldr	r0, [r0, #20]
 259              	.LVL20:
 260              	.L16:
  84:lvgl/lvgl/src/core/lv_theme.c **** 
 261              		.loc 1 84 1 view .LVU51
 262 000a 08BD     		pop	{r3, pc}
 263              	.LVL21:
 264              	.L18:
  83:lvgl/lvgl/src/core/lv_theme.c **** }
 265              		.loc 1 83 32 view .LVU52
 266 000c 0048     		ldr	r0, .L20
 267              	.LVL22:
  83:lvgl/lvgl/src/core/lv_theme.c **** }
 268              		.loc 1 83 32 view .LVU53
 269 000e FCE7     		b	.L16
 270              	.L21:
 271              		.align	2
 272              	.L20:
 273 0010 00000000 		.word	lv_font_montserrat_14
 274              		.cfi_endproc
ARM GAS  C:\Users\gx\AppData\Local\Temp\ccWdDCgQ.s 			page 10


 275              	.LFE193:
 277              		.section	.text.lv_theme_get_font_normal,"ax",%progbits
 278              		.align	1
 279              		.global	lv_theme_get_font_normal
 280              		.syntax unified
 281              		.thumb
 282              		.thumb_func
 283              		.fpu fpv4-sp-d16
 285              	lv_theme_get_font_normal:
 286              	.LVL23:
 287              	.LFB194:
  87:lvgl/lvgl/src/core/lv_theme.c ****     lv_theme_t * th = lv_theme_get_from_obj(obj);
 288              		.loc 1 87 1 is_stmt 1 view -0
 289              		.cfi_startproc
 290              		@ args = 0, pretend = 0, frame = 0
 291              		@ frame_needed = 0, uses_anonymous_args = 0
  87:lvgl/lvgl/src/core/lv_theme.c ****     lv_theme_t * th = lv_theme_get_from_obj(obj);
 292              		.loc 1 87 1 is_stmt 0 view .LVU55
 293 0000 08B5     		push	{r3, lr}
 294              	.LCFI4:
 295              		.cfi_def_cfa_offset 8
 296              		.cfi_offset 3, -8
 297              		.cfi_offset 14, -4
  88:lvgl/lvgl/src/core/lv_theme.c ****     return th ? th->font_normal : LV_FONT_DEFAULT;
 298              		.loc 1 88 5 is_stmt 1 view .LVU56
  88:lvgl/lvgl/src/core/lv_theme.c ****     return th ? th->font_normal : LV_FONT_DEFAULT;
 299              		.loc 1 88 23 is_stmt 0 view .LVU57
 300 0002 FFF7FEFF 		bl	lv_theme_get_from_obj
 301              	.LVL24:
  89:lvgl/lvgl/src/core/lv_theme.c **** }
 302              		.loc 1 89 5 is_stmt 1 view .LVU58
  89:lvgl/lvgl/src/core/lv_theme.c **** }
 303              		.loc 1 89 33 is_stmt 0 view .LVU59
 304 0006 08B1     		cbz	r0, .L24
  89:lvgl/lvgl/src/core/lv_theme.c **** }
 305              		.loc 1 89 33 discriminator 1 view .LVU60
 306 0008 8069     		ldr	r0, [r0, #24]
 307              	.LVL25:
 308              	.L22:
  90:lvgl/lvgl/src/core/lv_theme.c **** 
 309              		.loc 1 90 1 view .LVU61
 310 000a 08BD     		pop	{r3, pc}
 311              	.LVL26:
 312              	.L24:
  89:lvgl/lvgl/src/core/lv_theme.c **** }
 313              		.loc 1 89 33 view .LVU62
 314 000c 0048     		ldr	r0, .L26
 315              	.LVL27:
  89:lvgl/lvgl/src/core/lv_theme.c **** }
 316              		.loc 1 89 33 view .LVU63
 317 000e FCE7     		b	.L22
 318              	.L27:
 319              		.align	2
 320              	.L26:
 321 0010 00000000 		.word	lv_font_montserrat_14
 322              		.cfi_endproc
 323              	.LFE194:
ARM GAS  C:\Users\gx\AppData\Local\Temp\ccWdDCgQ.s 			page 11


 325              		.section	.text.lv_theme_get_font_large,"ax",%progbits
 326              		.align	1
 327              		.global	lv_theme_get_font_large
 328              		.syntax unified
 329              		.thumb
 330              		.thumb_func
 331              		.fpu fpv4-sp-d16
 333              	lv_theme_get_font_large:
 334              	.LVL28:
 335              	.LFB195:
  93:lvgl/lvgl/src/core/lv_theme.c ****     lv_theme_t * th = lv_theme_get_from_obj(obj);
 336              		.loc 1 93 1 is_stmt 1 view -0
 337              		.cfi_startproc
 338              		@ args = 0, pretend = 0, frame = 0
 339              		@ frame_needed = 0, uses_anonymous_args = 0
  93:lvgl/lvgl/src/core/lv_theme.c ****     lv_theme_t * th = lv_theme_get_from_obj(obj);
 340              		.loc 1 93 1 is_stmt 0 view .LVU65
 341 0000 08B5     		push	{r3, lr}
 342              	.LCFI5:
 343              		.cfi_def_cfa_offset 8
 344              		.cfi_offset 3, -8
 345              		.cfi_offset 14, -4
  94:lvgl/lvgl/src/core/lv_theme.c ****     return th ? th->font_large : LV_FONT_DEFAULT;
 346              		.loc 1 94 5 is_stmt 1 view .LVU66
  94:lvgl/lvgl/src/core/lv_theme.c ****     return th ? th->font_large : LV_FONT_DEFAULT;
 347              		.loc 1 94 23 is_stmt 0 view .LVU67
 348 0002 FFF7FEFF 		bl	lv_theme_get_from_obj
 349              	.LVL29:
  95:lvgl/lvgl/src/core/lv_theme.c **** }
 350              		.loc 1 95 5 is_stmt 1 view .LVU68
  95:lvgl/lvgl/src/core/lv_theme.c **** }
 351              		.loc 1 95 32 is_stmt 0 view .LVU69
 352 0006 08B1     		cbz	r0, .L30
  95:lvgl/lvgl/src/core/lv_theme.c **** }
 353              		.loc 1 95 32 discriminator 1 view .LVU70
 354 0008 C069     		ldr	r0, [r0, #28]
 355              	.LVL30:
 356              	.L28:
  96:lvgl/lvgl/src/core/lv_theme.c **** 
 357              		.loc 1 96 1 view .LVU71
 358 000a 08BD     		pop	{r3, pc}
 359              	.LVL31:
 360              	.L30:
  95:lvgl/lvgl/src/core/lv_theme.c **** }
 361              		.loc 1 95 32 view .LVU72
 362 000c 0048     		ldr	r0, .L32
 363              	.LVL32:
  95:lvgl/lvgl/src/core/lv_theme.c **** }
 364              		.loc 1 95 32 view .LVU73
 365 000e FCE7     		b	.L28
 366              	.L33:
 367              		.align	2
 368              	.L32:
 369 0010 00000000 		.word	lv_font_montserrat_14
 370              		.cfi_endproc
 371              	.LFE195:
 373              		.section	.text.lv_theme_get_color_primary,"ax",%progbits
ARM GAS  C:\Users\gx\AppData\Local\Temp\ccWdDCgQ.s 			page 12


 374              		.align	1
 375              		.global	lv_theme_get_color_primary
 376              		.syntax unified
 377              		.thumb
 378              		.thumb_func
 379              		.fpu fpv4-sp-d16
 381              	lv_theme_get_color_primary:
 382              	.LVL33:
 383              	.LFB196:
  99:lvgl/lvgl/src/core/lv_theme.c ****     lv_theme_t * th = lv_theme_get_from_obj(obj);
 384              		.loc 1 99 1 is_stmt 1 view -0
 385              		.cfi_startproc
 386              		@ args = 0, pretend = 0, frame = 0
 387              		@ frame_needed = 0, uses_anonymous_args = 0
  99:lvgl/lvgl/src/core/lv_theme.c ****     lv_theme_t * th = lv_theme_get_from_obj(obj);
 388              		.loc 1 99 1 is_stmt 0 view .LVU75
 389 0000 08B5     		push	{r3, lr}
 390              	.LCFI6:
 391              		.cfi_def_cfa_offset 8
 392              		.cfi_offset 3, -8
 393              		.cfi_offset 14, -4
 100:lvgl/lvgl/src/core/lv_theme.c ****     return th ? th->color_primary : lv_palette_main(LV_PALETTE_BLUE_GREY);
 394              		.loc 1 100 5 is_stmt 1 view .LVU76
 100:lvgl/lvgl/src/core/lv_theme.c ****     return th ? th->color_primary : lv_palette_main(LV_PALETTE_BLUE_GREY);
 395              		.loc 1 100 23 is_stmt 0 view .LVU77
 396 0002 FFF7FEFF 		bl	lv_theme_get_from_obj
 397              	.LVL34:
 101:lvgl/lvgl/src/core/lv_theme.c **** }
 398              		.loc 1 101 5 is_stmt 1 view .LVU78
 101:lvgl/lvgl/src/core/lv_theme.c **** }
 399              		.loc 1 101 35 is_stmt 0 view .LVU79
 400 0006 08B1     		cbz	r0, .L35
 101:lvgl/lvgl/src/core/lv_theme.c **** }
 401              		.loc 1 101 35 discriminator 1 view .LVU80
 402 0008 008A     		ldrh	r0, [r0, #16]
 403              	.LVL35:
 404              	.L36:
 102:lvgl/lvgl/src/core/lv_theme.c **** 
 405              		.loc 1 102 1 view .LVU81
 406 000a 08BD     		pop	{r3, pc}
 407              	.LVL36:
 408              	.L35:
 101:lvgl/lvgl/src/core/lv_theme.c **** }
 409              		.loc 1 101 37 discriminator 2 view .LVU82
 410 000c 1120     		movs	r0, #17
 411              	.LVL37:
 101:lvgl/lvgl/src/core/lv_theme.c **** }
 412              		.loc 1 101 37 discriminator 2 view .LVU83
 413 000e FFF7FEFF 		bl	lv_palette_main
 414              	.LVL38:
 415 0012 FAE7     		b	.L36
 416              		.cfi_endproc
 417              	.LFE196:
 419              		.section	.text.lv_theme_get_color_secondary,"ax",%progbits
 420              		.align	1
 421              		.global	lv_theme_get_color_secondary
 422              		.syntax unified
ARM GAS  C:\Users\gx\AppData\Local\Temp\ccWdDCgQ.s 			page 13


 423              		.thumb
 424              		.thumb_func
 425              		.fpu fpv4-sp-d16
 427              	lv_theme_get_color_secondary:
 428              	.LVL39:
 429              	.LFB197:
 105:lvgl/lvgl/src/core/lv_theme.c ****     lv_theme_t * th = lv_theme_get_from_obj(obj);
 430              		.loc 1 105 1 is_stmt 1 view -0
 431              		.cfi_startproc
 432              		@ args = 0, pretend = 0, frame = 0
 433              		@ frame_needed = 0, uses_anonymous_args = 0
 105:lvgl/lvgl/src/core/lv_theme.c ****     lv_theme_t * th = lv_theme_get_from_obj(obj);
 434              		.loc 1 105 1 is_stmt 0 view .LVU85
 435 0000 08B5     		push	{r3, lr}
 436              	.LCFI7:
 437              		.cfi_def_cfa_offset 8
 438              		.cfi_offset 3, -8
 439              		.cfi_offset 14, -4
 106:lvgl/lvgl/src/core/lv_theme.c ****     return th ? th->color_secondary : lv_palette_main(LV_PALETTE_BLUE);
 440              		.loc 1 106 5 is_stmt 1 view .LVU86
 106:lvgl/lvgl/src/core/lv_theme.c ****     return th ? th->color_secondary : lv_palette_main(LV_PALETTE_BLUE);
 441              		.loc 1 106 23 is_stmt 0 view .LVU87
 442 0002 FFF7FEFF 		bl	lv_theme_get_from_obj
 443              	.LVL40:
 107:lvgl/lvgl/src/core/lv_theme.c **** }
 444              		.loc 1 107 5 is_stmt 1 view .LVU88
 107:lvgl/lvgl/src/core/lv_theme.c **** }
 445              		.loc 1 107 37 is_stmt 0 view .LVU89
 446 0006 08B1     		cbz	r0, .L39
 107:lvgl/lvgl/src/core/lv_theme.c **** }
 447              		.loc 1 107 37 discriminator 1 view .LVU90
 448 0008 408A     		ldrh	r0, [r0, #18]
 449              	.LVL41:
 450              	.L40:
 108:lvgl/lvgl/src/core/lv_theme.c **** 
 451              		.loc 1 108 1 view .LVU91
 452 000a 08BD     		pop	{r3, pc}
 453              	.LVL42:
 454              	.L39:
 107:lvgl/lvgl/src/core/lv_theme.c **** }
 455              		.loc 1 107 39 discriminator 2 view .LVU92
 456 000c 0520     		movs	r0, #5
 457              	.LVL43:
 107:lvgl/lvgl/src/core/lv_theme.c **** }
 458              		.loc 1 107 39 discriminator 2 view .LVU93
 459 000e FFF7FEFF 		bl	lv_palette_main
 460              	.LVL44:
 461 0012 FAE7     		b	.L40
 462              		.cfi_endproc
 463              	.LFE197:
 465              		.text
 466              	.Letext0:
 467              		.file 3 "c:\\program files (x86)\\gnu arm embedded toolchain\\9 2020-q2-update\\arm-none-eabi\\inc
 468              		.file 4 "c:\\program files (x86)\\gnu arm embedded toolchain\\9 2020-q2-update\\arm-none-eabi\\inc
 469              		.file 5 "lvgl/lvgl/src/core/../../src/misc/lv_ll.h"
 470              		.file 6 "lvgl/lvgl/src/core/../../src/misc/lv_timer.h"
 471              		.file 7 "c:\\program files (x86)\\gnu arm embedded toolchain\\9 2020-q2-update\\lib\\gcc\\arm-none
ARM GAS  C:\Users\gx\AppData\Local\Temp\ccWdDCgQ.s 			page 14


 472              		.file 8 "c:\\program files (x86)\\gnu arm embedded toolchain\\9 2020-q2-update\\arm-none-eabi\\inc
 473              		.file 9 "c:\\program files (x86)\\gnu arm embedded toolchain\\9 2020-q2-update\\arm-none-eabi\\inc
 474              		.file 10 "c:\\program files (x86)\\gnu arm embedded toolchain\\9 2020-q2-update\\arm-none-eabi\\in
 475              		.file 11 "d:\\practise\\f407_disc\\lvgl\\lvgl\\src\\misc\\lv_color.h"
 476              		.file 12 "d:\\practise\\f407_disc\\lvgl\\lvgl\\src\\misc\\lv_area.h"
 477              		.file 13 "lvgl/lvgl/src/core/../../src/hal/lv_hal_disp.h"
 478              		.file 14 "lvgl/lvgl/src/core/../../src/core/lv_theme.h"
 479              		.file 15 "lvgl/lvgl/src/core/../../src/core/lv_obj.h"
 480              		.file 16 "lvgl/lvgl/src/core/../../src/core/lv_group.h"
 481              		.file 17 "d:\\practise\\f407_disc\\lvgl\\lvgl\\src\\font\\lv_font.h"
 482              		.file 18 "d:\\practise\\f407_disc\\lvgl\\lvgl\\src\\misc\\lv_txt.h"
 483              		.file 19 "d:\\practise\\f407_disc\\lvgl\\lvgl\\src\\misc\\lv_style.h"
 484              		.file 20 "lvgl/lvgl/src/core/../../src/core/lv_obj_scroll.h"
 485              		.file 21 "d:\\practise\\f407_disc\\lvgl\\lvgl\\src\\draw\\lv_draw_label.h"
 486              		.file 22 "lvgl/lvgl/src/core/../../src/core/lv_obj_class.h"
 487              		.file 23 "lvgl/lvgl/src/core/../../src/core/lv_event.h"
 488              		.file 24 "lvgl/lvgl/src/core/../../src/widgets/lv_arc.h"
 489              		.file 25 "lvgl/lvgl/src/core/../../src/widgets/lv_btn.h"
 490              		.file 26 "lvgl/lvgl/src/core/../../src/widgets/lv_img.h"
 491              		.file 27 "lvgl/lvgl/src/core/../../src/widgets/lv_label.h"
 492              		.file 28 "lvgl/lvgl/src/core/../../src/widgets/lv_line.h"
 493              		.file 29 "lvgl/lvgl/src/core/../../src/widgets/lv_table.h"
 494              		.file 30 "lvgl/lvgl/src/core/../../src/widgets/lv_checkbox.h"
 495              		.file 31 "lvgl/lvgl/src/core/../../src/widgets/lv_bar.h"
 496              		.file 32 "lvgl/lvgl/src/core/../../src/widgets/lv_slider.h"
 497              		.file 33 "lvgl/lvgl/src/core/../../src/widgets/lv_btnmatrix.h"
 498              		.file 34 "lvgl/lvgl/src/core/../../src/widgets/lv_dropdown.h"
 499              		.file 35 "lvgl/lvgl/src/core/../../src/widgets/lv_roller.h"
 500              		.file 36 "lvgl/lvgl/src/core/../../src/widgets/lv_textarea.h"
 501              		.file 37 "lvgl/lvgl/src/core/../../src/widgets/lv_canvas.h"
 502              		.file 38 "lvgl/lvgl/src/core/../../src/widgets/lv_switch.h"
 503              		.file 39 "lvgl/lvgl/src/core/../../src/extra/widgets/animimg/lv_animimg.h"
 504              		.file 40 "lvgl/lvgl/src/core/../../src/extra/widgets/calendar/lv_calendar.h"
 505              		.file 41 "lvgl/lvgl/src/core/../../src/extra/widgets/calendar/lv_calendar_header_arrow.h"
 506              		.file 42 "lvgl/lvgl/src/core/../../src/extra/widgets/calendar/lv_calendar_header_dropdown.h"
 507              		.file 43 "lvgl/lvgl/src/core/../../src/extra/widgets/chart/lv_chart.h"
 508              		.file 44 "lvgl/lvgl/src/core/../../src/extra/widgets/keyboard/lv_keyboard.h"
 509              		.file 45 "d:\\practise\\f407_disc\\lvgl\\lvgl\\src\\extra\\layouts\\flex\\lv_flex.h"
 510              		.file 46 "lvgl/lvgl/src/core/../../src/extra/widgets/list/lv_list.h"
 511              		.file 47 "lvgl/lvgl/src/core/../../src/extra/widgets/msgbox/lv_msgbox.h"
 512              		.file 48 "lvgl/lvgl/src/core/../../src/extra/widgets/meter/lv_meter.h"
 513              		.file 49 "lvgl/lvgl/src/core/../../src/extra/widgets/spinbox/lv_spinbox.h"
 514              		.file 50 "lvgl/lvgl/src/core/../../src/extra/widgets/spinner/lv_spinner.h"
 515              		.file 51 "lvgl/lvgl/src/core/../../src/extra/widgets/tabview/lv_tabview.h"
 516              		.file 52 "lvgl/lvgl/src/core/../../src/extra/widgets/tileview/lv_tileview.h"
 517              		.file 53 "lvgl/lvgl/src/core/../../src/extra/widgets/win/lv_win.h"
 518              		.file 54 "lvgl/lvgl/src/core/../../src/extra/widgets/colorwheel/lv_colorwheel.h"
 519              		.file 55 "lvgl/lvgl/src/core/../../src/extra/widgets/led/lv_led.h"
 520              		.file 56 "lvgl/lvgl/src/core/../../src/extra/widgets/imgbtn/lv_imgbtn.h"
 521              		.file 57 "lvgl/lvgl/src/core/../../src/extra/widgets/span/lv_span.h"
 522              		.file 58 "lvgl/lvgl/src/core/../../src/extra/layouts/grid/lv_grid.h"
 523              		.file 59 "lvgl/lvgl/src/core/../../src/core/lv_obj_tree.h"
 524              		.file 60 "lvgl/lvgl/src/core/../../src/core/lv_disp.h"
ARM GAS  C:\Users\gx\AppData\Local\Temp\ccWdDCgQ.s 			page 15

