ARM GAS  C:\Users\gx\AppData\Local\Temp\ccpJsvWx.s 			page 1


   1              		.cpu cortex-m4
   2              		.eabi_attribute 27, 1
   3              		.eabi_attribute 28, 1
   4              		.eabi_attribute 20, 1
   5              		.eabi_attribute 21, 1
   6              		.eabi_attribute 23, 3
   7              		.eabi_attribute 24, 1
   8              		.eabi_attribute 25, 1
   9              		.eabi_attribute 26, 1
  10              		.eabi_attribute 30, 1
  11              		.eabi_attribute 34, 1
  12              		.eabi_attribute 18, 4
  13              		.file	"lv_theme_basic.c"
  14              		.text
  15              	.Ltext0:
  16              		.cfi_sections	.debug_frame
  17              		.section	.text.grey_filter_cb,"ax",%progbits
  18              		.align	1
  19              		.arch armv7e-m
  20              		.syntax unified
  21              		.thumb
  22              		.thumb_func
  23              		.fpu fpv4-sp-d16
  25              	grey_filter_cb:
  26              	.LVL0:
  27              	.LFB190:
  28              		.file 1 "lvgl/lvgl/src/extra/themes/basic/lv_theme_basic.c"
   1:lvgl/lvgl/src/extra/themes/basic/lv_theme_basic.c **** /**
   2:lvgl/lvgl/src/extra/themes/basic/lv_theme_basic.c ****  * @file lv_theme_basic.c
   3:lvgl/lvgl/src/extra/themes/basic/lv_theme_basic.c ****  *
   4:lvgl/lvgl/src/extra/themes/basic/lv_theme_basic.c ****  */
   5:lvgl/lvgl/src/extra/themes/basic/lv_theme_basic.c **** 
   6:lvgl/lvgl/src/extra/themes/basic/lv_theme_basic.c **** /*********************
   7:lvgl/lvgl/src/extra/themes/basic/lv_theme_basic.c ****  *      INCLUDES
   8:lvgl/lvgl/src/extra/themes/basic/lv_theme_basic.c ****  *********************/
   9:lvgl/lvgl/src/extra/themes/basic/lv_theme_basic.c **** #include "../../../lvgl.h" /*To see all the widgets*/
  10:lvgl/lvgl/src/extra/themes/basic/lv_theme_basic.c **** 
  11:lvgl/lvgl/src/extra/themes/basic/lv_theme_basic.c **** #if LV_USE_THEME_BASIC
  12:lvgl/lvgl/src/extra/themes/basic/lv_theme_basic.c **** 
  13:lvgl/lvgl/src/extra/themes/basic/lv_theme_basic.c **** #include "lv_theme_basic.h"
  14:lvgl/lvgl/src/extra/themes/basic/lv_theme_basic.c **** #include "../../../misc/lv_gc.h"
  15:lvgl/lvgl/src/extra/themes/basic/lv_theme_basic.c **** 
  16:lvgl/lvgl/src/extra/themes/basic/lv_theme_basic.c **** /*********************
  17:lvgl/lvgl/src/extra/themes/basic/lv_theme_basic.c ****  *      DEFINES
  18:lvgl/lvgl/src/extra/themes/basic/lv_theme_basic.c ****  *********************/
  19:lvgl/lvgl/src/extra/themes/basic/lv_theme_basic.c **** 
  20:lvgl/lvgl/src/extra/themes/basic/lv_theme_basic.c **** #define COLOR_WHITE   lv_color_white()
  21:lvgl/lvgl/src/extra/themes/basic/lv_theme_basic.c **** #define COLOR_LIGHT   lv_palette_lighten(LV_PALETTE_GREY, 3)
  22:lvgl/lvgl/src/extra/themes/basic/lv_theme_basic.c **** #define COLOR_MID     lv_palette_lighten(LV_PALETTE_GREY, 1)
  23:lvgl/lvgl/src/extra/themes/basic/lv_theme_basic.c **** #define COLOR_DARK    lv_palette_main(LV_PALETTE_GREY)
  24:lvgl/lvgl/src/extra/themes/basic/lv_theme_basic.c **** #define COLOR_DIM     lv_palette_darken(LV_PALETTE_GREY, 2)
  25:lvgl/lvgl/src/extra/themes/basic/lv_theme_basic.c **** #define PAD_DEF       LV_DPX(5)
  26:lvgl/lvgl/src/extra/themes/basic/lv_theme_basic.c **** 
  27:lvgl/lvgl/src/extra/themes/basic/lv_theme_basic.c **** /**********************
  28:lvgl/lvgl/src/extra/themes/basic/lv_theme_basic.c ****  *      TYPEDEFS
  29:lvgl/lvgl/src/extra/themes/basic/lv_theme_basic.c ****  **********************/
  30:lvgl/lvgl/src/extra/themes/basic/lv_theme_basic.c **** typedef struct {
ARM GAS  C:\Users\gx\AppData\Local\Temp\ccpJsvWx.s 			page 2


  31:lvgl/lvgl/src/extra/themes/basic/lv_theme_basic.c ****     lv_style_t scr;
  32:lvgl/lvgl/src/extra/themes/basic/lv_theme_basic.c ****     lv_style_t light;
  33:lvgl/lvgl/src/extra/themes/basic/lv_theme_basic.c ****     lv_style_t dark;
  34:lvgl/lvgl/src/extra/themes/basic/lv_theme_basic.c ****     lv_style_t scrollbar;
  35:lvgl/lvgl/src/extra/themes/basic/lv_theme_basic.c ****     lv_style_t pressed;
  36:lvgl/lvgl/src/extra/themes/basic/lv_theme_basic.c ****     lv_style_t disabled;
  37:lvgl/lvgl/src/extra/themes/basic/lv_theme_basic.c ****     lv_style_t pad_zero;
  38:lvgl/lvgl/src/extra/themes/basic/lv_theme_basic.c **** #if LV_USE_TEXTAREA
  39:lvgl/lvgl/src/extra/themes/basic/lv_theme_basic.c ****     lv_style_t ta_cursor;
  40:lvgl/lvgl/src/extra/themes/basic/lv_theme_basic.c **** #endif
  41:lvgl/lvgl/src/extra/themes/basic/lv_theme_basic.c **** } my_theme_styles_t;
  42:lvgl/lvgl/src/extra/themes/basic/lv_theme_basic.c **** 
  43:lvgl/lvgl/src/extra/themes/basic/lv_theme_basic.c **** 
  44:lvgl/lvgl/src/extra/themes/basic/lv_theme_basic.c **** /**********************
  45:lvgl/lvgl/src/extra/themes/basic/lv_theme_basic.c ****  *  STATIC PROTOTYPES
  46:lvgl/lvgl/src/extra/themes/basic/lv_theme_basic.c ****  **********************/
  47:lvgl/lvgl/src/extra/themes/basic/lv_theme_basic.c **** static void style_init_reset(lv_style_t * style);
  48:lvgl/lvgl/src/extra/themes/basic/lv_theme_basic.c **** static void theme_apply(lv_theme_t * th, lv_obj_t * obj);
  49:lvgl/lvgl/src/extra/themes/basic/lv_theme_basic.c **** 
  50:lvgl/lvgl/src/extra/themes/basic/lv_theme_basic.c **** /**********************
  51:lvgl/lvgl/src/extra/themes/basic/lv_theme_basic.c ****  *  STATIC VARIABLES
  52:lvgl/lvgl/src/extra/themes/basic/lv_theme_basic.c ****  **********************/
  53:lvgl/lvgl/src/extra/themes/basic/lv_theme_basic.c **** static my_theme_styles_t * styles;
  54:lvgl/lvgl/src/extra/themes/basic/lv_theme_basic.c **** static lv_theme_t theme;
  55:lvgl/lvgl/src/extra/themes/basic/lv_theme_basic.c **** static bool inited;
  56:lvgl/lvgl/src/extra/themes/basic/lv_theme_basic.c **** 
  57:lvgl/lvgl/src/extra/themes/basic/lv_theme_basic.c **** /**********************
  58:lvgl/lvgl/src/extra/themes/basic/lv_theme_basic.c ****  *      MACROS
  59:lvgl/lvgl/src/extra/themes/basic/lv_theme_basic.c ****  **********************/
  60:lvgl/lvgl/src/extra/themes/basic/lv_theme_basic.c **** 
  61:lvgl/lvgl/src/extra/themes/basic/lv_theme_basic.c **** /**********************
  62:lvgl/lvgl/src/extra/themes/basic/lv_theme_basic.c ****  *   STATIC FUNCTIONS
  63:lvgl/lvgl/src/extra/themes/basic/lv_theme_basic.c ****  **********************/
  64:lvgl/lvgl/src/extra/themes/basic/lv_theme_basic.c **** 
  65:lvgl/lvgl/src/extra/themes/basic/lv_theme_basic.c **** static lv_color_t dark_color_filter_cb(const lv_color_filter_dsc_t * f, lv_color_t c, lv_opa_t opa)
  66:lvgl/lvgl/src/extra/themes/basic/lv_theme_basic.c **** {
  67:lvgl/lvgl/src/extra/themes/basic/lv_theme_basic.c ****     LV_UNUSED(f);
  68:lvgl/lvgl/src/extra/themes/basic/lv_theme_basic.c ****     return lv_color_darken(c, opa);
  69:lvgl/lvgl/src/extra/themes/basic/lv_theme_basic.c **** }
  70:lvgl/lvgl/src/extra/themes/basic/lv_theme_basic.c **** 
  71:lvgl/lvgl/src/extra/themes/basic/lv_theme_basic.c **** 
  72:lvgl/lvgl/src/extra/themes/basic/lv_theme_basic.c **** static lv_color_t grey_filter_cb(const lv_color_filter_dsc_t * f, lv_color_t color, lv_opa_t opa)
  73:lvgl/lvgl/src/extra/themes/basic/lv_theme_basic.c **** {
  29              		.loc 1 73 1 view -0
  30              		.cfi_startproc
  31              		@ args = 0, pretend = 0, frame = 0
  32              		@ frame_needed = 0, uses_anonymous_args = 0
  33              		@ link register save eliminated.
  74:lvgl/lvgl/src/extra/themes/basic/lv_theme_basic.c ****     LV_UNUSED(f);
  34              		.loc 1 74 5 view .LVU1
  75:lvgl/lvgl/src/extra/themes/basic/lv_theme_basic.c ****     return lv_color_mix(lv_color_white(), color, opa);
  35              		.loc 1 75 5 view .LVU2
  36              	.LBB24:
  37              	.LBI24:
  38              		.file 2 "d:\\practise\\f407_disc\\lvgl\\lvgl\\src\\misc\\lv_color.h"
   1:d:\practise\f407_disc\lvgl\lvgl\src\misc\lv_color.h **** /**
   2:d:\practise\f407_disc\lvgl\lvgl\src\misc\lv_color.h ****  * @file lv_color.h
ARM GAS  C:\Users\gx\AppData\Local\Temp\ccpJsvWx.s 			page 3


   3:d:\practise\f407_disc\lvgl\lvgl\src\misc\lv_color.h ****  *
   4:d:\practise\f407_disc\lvgl\lvgl\src\misc\lv_color.h ****  */
   5:d:\practise\f407_disc\lvgl\lvgl\src\misc\lv_color.h **** 
   6:d:\practise\f407_disc\lvgl\lvgl\src\misc\lv_color.h **** #ifndef LV_COLOR_H
   7:d:\practise\f407_disc\lvgl\lvgl\src\misc\lv_color.h **** #define LV_COLOR_H
   8:d:\practise\f407_disc\lvgl\lvgl\src\misc\lv_color.h **** 
   9:d:\practise\f407_disc\lvgl\lvgl\src\misc\lv_color.h **** #ifdef __cplusplus
  10:d:\practise\f407_disc\lvgl\lvgl\src\misc\lv_color.h **** extern "C" {
  11:d:\practise\f407_disc\lvgl\lvgl\src\misc\lv_color.h **** #endif
  12:d:\practise\f407_disc\lvgl\lvgl\src\misc\lv_color.h **** 
  13:d:\practise\f407_disc\lvgl\lvgl\src\misc\lv_color.h **** /*********************
  14:d:\practise\f407_disc\lvgl\lvgl\src\misc\lv_color.h ****  *      INCLUDES
  15:d:\practise\f407_disc\lvgl\lvgl\src\misc\lv_color.h ****  *********************/
  16:d:\practise\f407_disc\lvgl\lvgl\src\misc\lv_color.h **** #include "../lv_conf_internal.h"
  17:d:\practise\f407_disc\lvgl\lvgl\src\misc\lv_color.h **** #include "lv_math.h"
  18:d:\practise\f407_disc\lvgl\lvgl\src\misc\lv_color.h **** #include "lv_types.h"
  19:d:\practise\f407_disc\lvgl\lvgl\src\misc\lv_color.h **** 
  20:d:\practise\f407_disc\lvgl\lvgl\src\misc\lv_color.h **** /*Error checking*/
  21:d:\practise\f407_disc\lvgl\lvgl\src\misc\lv_color.h **** #if LV_COLOR_DEPTH == 24
  22:d:\practise\f407_disc\lvgl\lvgl\src\misc\lv_color.h **** #error "LV_COLOR_DEPTH 24 is deprecated. Use LV_COLOR_DEPTH 32 instead (lv_conf.h)"
  23:d:\practise\f407_disc\lvgl\lvgl\src\misc\lv_color.h **** #endif
  24:d:\practise\f407_disc\lvgl\lvgl\src\misc\lv_color.h **** 
  25:d:\practise\f407_disc\lvgl\lvgl\src\misc\lv_color.h **** #if LV_COLOR_DEPTH != 32 && LV_COLOR_SCREEN_TRANSP != 0
  26:d:\practise\f407_disc\lvgl\lvgl\src\misc\lv_color.h **** #error "LV_COLOR_SCREEN_TRANSP requires LV_COLOR_DEPTH == 32. Set it in lv_conf.h"
  27:d:\practise\f407_disc\lvgl\lvgl\src\misc\lv_color.h **** #endif
  28:d:\practise\f407_disc\lvgl\lvgl\src\misc\lv_color.h **** 
  29:d:\practise\f407_disc\lvgl\lvgl\src\misc\lv_color.h **** #if LV_COLOR_DEPTH != 16 && LV_COLOR_16_SWAP != 0
  30:d:\practise\f407_disc\lvgl\lvgl\src\misc\lv_color.h **** #error "LV_COLOR_16_SWAP requires LV_COLOR_DEPTH == 16. Set it in lv_conf.h"
  31:d:\practise\f407_disc\lvgl\lvgl\src\misc\lv_color.h **** #endif
  32:d:\practise\f407_disc\lvgl\lvgl\src\misc\lv_color.h **** 
  33:d:\practise\f407_disc\lvgl\lvgl\src\misc\lv_color.h **** #include <stdint.h>
  34:d:\practise\f407_disc\lvgl\lvgl\src\misc\lv_color.h **** 
  35:d:\practise\f407_disc\lvgl\lvgl\src\misc\lv_color.h **** /*********************
  36:d:\practise\f407_disc\lvgl\lvgl\src\misc\lv_color.h ****  *      DEFINES
  37:d:\practise\f407_disc\lvgl\lvgl\src\misc\lv_color.h ****  *********************/
  38:d:\practise\f407_disc\lvgl\lvgl\src\misc\lv_color.h **** 
  39:d:\practise\f407_disc\lvgl\lvgl\src\misc\lv_color.h **** /**
  40:d:\practise\f407_disc\lvgl\lvgl\src\misc\lv_color.h ****  * Opacity percentages.
  41:d:\practise\f407_disc\lvgl\lvgl\src\misc\lv_color.h ****  */
  42:d:\practise\f407_disc\lvgl\lvgl\src\misc\lv_color.h **** enum {
  43:d:\practise\f407_disc\lvgl\lvgl\src\misc\lv_color.h ****     LV_OPA_TRANSP = 0,
  44:d:\practise\f407_disc\lvgl\lvgl\src\misc\lv_color.h ****     LV_OPA_0      = 0,
  45:d:\practise\f407_disc\lvgl\lvgl\src\misc\lv_color.h ****     LV_OPA_10     = 25,
  46:d:\practise\f407_disc\lvgl\lvgl\src\misc\lv_color.h ****     LV_OPA_20     = 51,
  47:d:\practise\f407_disc\lvgl\lvgl\src\misc\lv_color.h ****     LV_OPA_30     = 76,
  48:d:\practise\f407_disc\lvgl\lvgl\src\misc\lv_color.h ****     LV_OPA_40     = 102,
  49:d:\practise\f407_disc\lvgl\lvgl\src\misc\lv_color.h ****     LV_OPA_50     = 127,
  50:d:\practise\f407_disc\lvgl\lvgl\src\misc\lv_color.h ****     LV_OPA_60     = 153,
  51:d:\practise\f407_disc\lvgl\lvgl\src\misc\lv_color.h ****     LV_OPA_70     = 178,
  52:d:\practise\f407_disc\lvgl\lvgl\src\misc\lv_color.h ****     LV_OPA_80     = 204,
  53:d:\practise\f407_disc\lvgl\lvgl\src\misc\lv_color.h ****     LV_OPA_90     = 229,
  54:d:\practise\f407_disc\lvgl\lvgl\src\misc\lv_color.h ****     LV_OPA_100    = 255,
  55:d:\practise\f407_disc\lvgl\lvgl\src\misc\lv_color.h ****     LV_OPA_COVER  = 255,
  56:d:\practise\f407_disc\lvgl\lvgl\src\misc\lv_color.h **** };
  57:d:\practise\f407_disc\lvgl\lvgl\src\misc\lv_color.h **** 
  58:d:\practise\f407_disc\lvgl\lvgl\src\misc\lv_color.h **** #define LV_OPA_MIN 2    /*Opacities below this will be transparent*/
  59:d:\practise\f407_disc\lvgl\lvgl\src\misc\lv_color.h **** #define LV_OPA_MAX 253  /*Opacities above this will fully cover*/
ARM GAS  C:\Users\gx\AppData\Local\Temp\ccpJsvWx.s 			page 4


  60:d:\practise\f407_disc\lvgl\lvgl\src\misc\lv_color.h **** 
  61:d:\practise\f407_disc\lvgl\lvgl\src\misc\lv_color.h **** #if LV_COLOR_DEPTH == 1
  62:d:\practise\f407_disc\lvgl\lvgl\src\misc\lv_color.h **** #define LV_COLOR_SIZE 8
  63:d:\practise\f407_disc\lvgl\lvgl\src\misc\lv_color.h **** #elif LV_COLOR_DEPTH == 8
  64:d:\practise\f407_disc\lvgl\lvgl\src\misc\lv_color.h **** #define LV_COLOR_SIZE 8
  65:d:\practise\f407_disc\lvgl\lvgl\src\misc\lv_color.h **** #elif LV_COLOR_DEPTH == 16
  66:d:\practise\f407_disc\lvgl\lvgl\src\misc\lv_color.h **** #define LV_COLOR_SIZE 16
  67:d:\practise\f407_disc\lvgl\lvgl\src\misc\lv_color.h **** #elif LV_COLOR_DEPTH == 32
  68:d:\practise\f407_disc\lvgl\lvgl\src\misc\lv_color.h **** #define LV_COLOR_SIZE 32
  69:d:\practise\f407_disc\lvgl\lvgl\src\misc\lv_color.h **** #else
  70:d:\practise\f407_disc\lvgl\lvgl\src\misc\lv_color.h **** #error "Invalid LV_COLOR_DEPTH in lv_conf.h! Set it to 1, 8, 16 or 32!"
  71:d:\practise\f407_disc\lvgl\lvgl\src\misc\lv_color.h **** #endif
  72:d:\practise\f407_disc\lvgl\lvgl\src\misc\lv_color.h **** 
  73:d:\practise\f407_disc\lvgl\lvgl\src\misc\lv_color.h **** /**
  74:d:\practise\f407_disc\lvgl\lvgl\src\misc\lv_color.h ****  * Adjust color mix functions rounding.
  75:d:\practise\f407_disc\lvgl\lvgl\src\misc\lv_color.h ****  * GPUs might calculate color mix (blending) differently.
  76:d:\practise\f407_disc\lvgl\lvgl\src\misc\lv_color.h ****  * Should be in range of 0..254
  77:d:\practise\f407_disc\lvgl\lvgl\src\misc\lv_color.h ****  * 0: no adjustment, get the integer part of the result (round down)
  78:d:\practise\f407_disc\lvgl\lvgl\src\misc\lv_color.h ****  * 64: round up from x.75
  79:d:\practise\f407_disc\lvgl\lvgl\src\misc\lv_color.h ****  * 128: round up from half
  80:d:\practise\f407_disc\lvgl\lvgl\src\misc\lv_color.h ****  * 192: round up from x.25
  81:d:\practise\f407_disc\lvgl\lvgl\src\misc\lv_color.h ****  * 254: round up*/
  82:d:\practise\f407_disc\lvgl\lvgl\src\misc\lv_color.h **** #ifndef LV_COLOR_MIX_ROUND_OFS
  83:d:\practise\f407_disc\lvgl\lvgl\src\misc\lv_color.h **** #if LV_COLOR_DEPTH == 32
  84:d:\practise\f407_disc\lvgl\lvgl\src\misc\lv_color.h **** #define LV_COLOR_MIX_ROUND_OFS 0
  85:d:\practise\f407_disc\lvgl\lvgl\src\misc\lv_color.h **** #else
  86:d:\practise\f407_disc\lvgl\lvgl\src\misc\lv_color.h **** #define LV_COLOR_MIX_ROUND_OFS 128
  87:d:\practise\f407_disc\lvgl\lvgl\src\misc\lv_color.h **** #endif
  88:d:\practise\f407_disc\lvgl\lvgl\src\misc\lv_color.h **** #endif
  89:d:\practise\f407_disc\lvgl\lvgl\src\misc\lv_color.h **** 
  90:d:\practise\f407_disc\lvgl\lvgl\src\misc\lv_color.h **** #if defined(__cplusplus) && !defined(_LV_COLOR_HAS_MODERN_CPP)
  91:d:\practise\f407_disc\lvgl\lvgl\src\misc\lv_color.h **** /**
  92:d:\practise\f407_disc\lvgl\lvgl\src\misc\lv_color.h **** * MSVC compiler's definition of the __cplusplus indicating 199711L regardless to C++ standard versi
  93:d:\practise\f407_disc\lvgl\lvgl\src\misc\lv_color.h **** * see https://devblogs.microsoft.com/cppblog/msvc-now-correctly-reports-cplusplus
  94:d:\practise\f407_disc\lvgl\lvgl\src\misc\lv_color.h **** * so we use _MSC_VER macro instead of __cplusplus
  95:d:\practise\f407_disc\lvgl\lvgl\src\misc\lv_color.h **** */
  96:d:\practise\f407_disc\lvgl\lvgl\src\misc\lv_color.h **** #ifdef _MSC_VER
  97:d:\practise\f407_disc\lvgl\lvgl\src\misc\lv_color.h **** #if _MSC_VER >= 1900 /*Visual Studio 2015*/
  98:d:\practise\f407_disc\lvgl\lvgl\src\misc\lv_color.h **** #define _LV_COLOR_HAS_MODERN_CPP 1
  99:d:\practise\f407_disc\lvgl\lvgl\src\misc\lv_color.h **** #endif
 100:d:\practise\f407_disc\lvgl\lvgl\src\misc\lv_color.h **** #else
 101:d:\practise\f407_disc\lvgl\lvgl\src\misc\lv_color.h **** #if __cplusplus >= 201103L
 102:d:\practise\f407_disc\lvgl\lvgl\src\misc\lv_color.h **** #define _LV_COLOR_HAS_MODERN_CPP 1
 103:d:\practise\f407_disc\lvgl\lvgl\src\misc\lv_color.h **** #endif
 104:d:\practise\f407_disc\lvgl\lvgl\src\misc\lv_color.h **** #endif
 105:d:\practise\f407_disc\lvgl\lvgl\src\misc\lv_color.h **** #endif /*__cplusplus*/
 106:d:\practise\f407_disc\lvgl\lvgl\src\misc\lv_color.h **** 
 107:d:\practise\f407_disc\lvgl\lvgl\src\misc\lv_color.h **** #ifndef _LV_COLOR_HAS_MODERN_CPP
 108:d:\practise\f407_disc\lvgl\lvgl\src\misc\lv_color.h **** #define _LV_COLOR_HAS_MODERN_CPP 0
 109:d:\practise\f407_disc\lvgl\lvgl\src\misc\lv_color.h **** #endif
 110:d:\practise\f407_disc\lvgl\lvgl\src\misc\lv_color.h **** 
 111:d:\practise\f407_disc\lvgl\lvgl\src\misc\lv_color.h **** #if _LV_COLOR_HAS_MODERN_CPP
 112:d:\practise\f407_disc\lvgl\lvgl\src\misc\lv_color.h **** /*Fix msvc compiler error C4576 inside C++ code*/
 113:d:\practise\f407_disc\lvgl\lvgl\src\misc\lv_color.h **** #define _LV_COLOR_MAKE_TYPE_HELPER lv_color_t
 114:d:\practise\f407_disc\lvgl\lvgl\src\misc\lv_color.h **** #else
 115:d:\practise\f407_disc\lvgl\lvgl\src\misc\lv_color.h **** #define _LV_COLOR_MAKE_TYPE_HELPER (lv_color_t)
 116:d:\practise\f407_disc\lvgl\lvgl\src\misc\lv_color.h **** #endif
ARM GAS  C:\Users\gx\AppData\Local\Temp\ccpJsvWx.s 			page 5


 117:d:\practise\f407_disc\lvgl\lvgl\src\misc\lv_color.h **** 
 118:d:\practise\f407_disc\lvgl\lvgl\src\misc\lv_color.h **** /*---------------------------------------
 119:d:\practise\f407_disc\lvgl\lvgl\src\misc\lv_color.h ****  * Macros for all existing color depths
 120:d:\practise\f407_disc\lvgl\lvgl\src\misc\lv_color.h ****  * to set/get values of the color channels
 121:d:\practise\f407_disc\lvgl\lvgl\src\misc\lv_color.h ****  *------------------------------------------*/
 122:d:\practise\f407_disc\lvgl\lvgl\src\misc\lv_color.h **** # define LV_COLOR_SET_R1(c, v) (c).ch.red = (uint8_t)((v) & 0x1)
 123:d:\practise\f407_disc\lvgl\lvgl\src\misc\lv_color.h **** # define LV_COLOR_SET_G1(c, v) (c).ch.green = (uint8_t)((v) & 0x1)
 124:d:\practise\f407_disc\lvgl\lvgl\src\misc\lv_color.h **** # define LV_COLOR_SET_B1(c, v) (c).ch.blue = (uint8_t)((v) & 0x1)
 125:d:\practise\f407_disc\lvgl\lvgl\src\misc\lv_color.h **** # define LV_COLOR_SET_A1(c, v) do {} while(0)
 126:d:\practise\f407_disc\lvgl\lvgl\src\misc\lv_color.h **** 
 127:d:\practise\f407_disc\lvgl\lvgl\src\misc\lv_color.h **** # define LV_COLOR_GET_R1(c) (c).ch.red
 128:d:\practise\f407_disc\lvgl\lvgl\src\misc\lv_color.h **** # define LV_COLOR_GET_G1(c) (c).ch.green
 129:d:\practise\f407_disc\lvgl\lvgl\src\misc\lv_color.h **** # define LV_COLOR_GET_B1(c) (c).ch.blue
 130:d:\practise\f407_disc\lvgl\lvgl\src\misc\lv_color.h **** # define LV_COLOR_GET_A1(c) 0xFF
 131:d:\practise\f407_disc\lvgl\lvgl\src\misc\lv_color.h **** 
 132:d:\practise\f407_disc\lvgl\lvgl\src\misc\lv_color.h **** # define _LV_COLOR_ZERO_INITIALIZER1 {0x00}
 133:d:\practise\f407_disc\lvgl\lvgl\src\misc\lv_color.h **** # define LV_COLOR_MAKE1(r8, g8, b8)  {(uint8_t)((b8 >> 7) | (g8 >> 7) | (r8 >> 7))}
 134:d:\practise\f407_disc\lvgl\lvgl\src\misc\lv_color.h **** 
 135:d:\practise\f407_disc\lvgl\lvgl\src\misc\lv_color.h **** # define LV_COLOR_SET_R8(c, v) (c).ch.red = (uint8_t)((v) & 0x7U)
 136:d:\practise\f407_disc\lvgl\lvgl\src\misc\lv_color.h **** # define LV_COLOR_SET_G8(c, v) (c).ch.green = (uint8_t)((v) & 0x7U)
 137:d:\practise\f407_disc\lvgl\lvgl\src\misc\lv_color.h **** # define LV_COLOR_SET_B8(c, v) (c).ch.blue = (uint8_t)((v) & 0x3U)
 138:d:\practise\f407_disc\lvgl\lvgl\src\misc\lv_color.h **** # define LV_COLOR_SET_A8(c, v) do {} while(0)
 139:d:\practise\f407_disc\lvgl\lvgl\src\misc\lv_color.h **** 
 140:d:\practise\f407_disc\lvgl\lvgl\src\misc\lv_color.h **** # define LV_COLOR_GET_R8(c) (c).ch.red
 141:d:\practise\f407_disc\lvgl\lvgl\src\misc\lv_color.h **** # define LV_COLOR_GET_G8(c) (c).ch.green
 142:d:\practise\f407_disc\lvgl\lvgl\src\misc\lv_color.h **** # define LV_COLOR_GET_B8(c) (c).ch.blue
 143:d:\practise\f407_disc\lvgl\lvgl\src\misc\lv_color.h **** # define LV_COLOR_GET_A8(c) 0xFF
 144:d:\practise\f407_disc\lvgl\lvgl\src\misc\lv_color.h **** 
 145:d:\practise\f407_disc\lvgl\lvgl\src\misc\lv_color.h **** # define _LV_COLOR_ZERO_INITIALIZER8 {{0x00, 0x00, 0x00}}
 146:d:\practise\f407_disc\lvgl\lvgl\src\misc\lv_color.h **** # define LV_COLOR_MAKE8(r8, g8, b8) {{(uint8_t)((b8 >> 6) & 0x3U), (uint8_t)((g8 >> 5) & 0x7U), (ui
 147:d:\practise\f407_disc\lvgl\lvgl\src\misc\lv_color.h **** 
 148:d:\practise\f407_disc\lvgl\lvgl\src\misc\lv_color.h **** # define LV_COLOR_SET_R16(c, v) (c).ch.red = (uint8_t)((v) & 0x1FU)
 149:d:\practise\f407_disc\lvgl\lvgl\src\misc\lv_color.h **** #if LV_COLOR_16_SWAP == 0
 150:d:\practise\f407_disc\lvgl\lvgl\src\misc\lv_color.h **** # define LV_COLOR_SET_G16(c, v) (c).ch.green = (uint8_t)((v) & 0x3FU)
 151:d:\practise\f407_disc\lvgl\lvgl\src\misc\lv_color.h **** #else
 152:d:\practise\f407_disc\lvgl\lvgl\src\misc\lv_color.h **** # define LV_COLOR_SET_G16(c, v) {(c).ch.green_h = (uint8_t)(((v) >> 3) & 0x7); (c).ch.green_l = (ui
 153:d:\practise\f407_disc\lvgl\lvgl\src\misc\lv_color.h **** #endif
 154:d:\practise\f407_disc\lvgl\lvgl\src\misc\lv_color.h **** # define LV_COLOR_SET_B16(c, v) (c).ch.blue = (uint8_t)((v) & 0x1FU)
 155:d:\practise\f407_disc\lvgl\lvgl\src\misc\lv_color.h **** # define LV_COLOR_SET_A16(c, v) do {} while(0)
 156:d:\practise\f407_disc\lvgl\lvgl\src\misc\lv_color.h **** 
 157:d:\practise\f407_disc\lvgl\lvgl\src\misc\lv_color.h **** # define LV_COLOR_GET_R16(c) (c).ch.red
 158:d:\practise\f407_disc\lvgl\lvgl\src\misc\lv_color.h **** #if LV_COLOR_16_SWAP == 0
 159:d:\practise\f407_disc\lvgl\lvgl\src\misc\lv_color.h **** # define LV_COLOR_GET_G16(c) (c).ch.green
 160:d:\practise\f407_disc\lvgl\lvgl\src\misc\lv_color.h **** #else
 161:d:\practise\f407_disc\lvgl\lvgl\src\misc\lv_color.h **** # define LV_COLOR_GET_G16(c) (((c).ch.green_h << 3) + (c).ch.green_l)
 162:d:\practise\f407_disc\lvgl\lvgl\src\misc\lv_color.h **** #endif
 163:d:\practise\f407_disc\lvgl\lvgl\src\misc\lv_color.h **** # define LV_COLOR_GET_B16(c) (c).ch.blue
 164:d:\practise\f407_disc\lvgl\lvgl\src\misc\lv_color.h **** # define LV_COLOR_GET_A16(c) 0xFF
 165:d:\practise\f407_disc\lvgl\lvgl\src\misc\lv_color.h **** 
 166:d:\practise\f407_disc\lvgl\lvgl\src\misc\lv_color.h **** #if LV_COLOR_16_SWAP == 0
 167:d:\practise\f407_disc\lvgl\lvgl\src\misc\lv_color.h **** # define _LV_COLOR_ZERO_INITIALIZER16  {{0x00, 0x00, 0x00}}
 168:d:\practise\f407_disc\lvgl\lvgl\src\misc\lv_color.h **** # define LV_COLOR_MAKE16(r8, g8, b8) {{(uint8_t)((b8 >> 3) & 0x1FU), (uint8_t)((g8 >> 2) & 0x3FU), 
 169:d:\practise\f407_disc\lvgl\lvgl\src\misc\lv_color.h **** #else
 170:d:\practise\f407_disc\lvgl\lvgl\src\misc\lv_color.h **** # define _LV_COLOR_ZERO_INITIALIZER16 {{0x00, 0x00, 0x00, 0x00}}
 171:d:\practise\f407_disc\lvgl\lvgl\src\misc\lv_color.h **** # define LV_COLOR_MAKE16(r8, g8, b8) {{(uint8_t)((g8 >> 5) & 0x7U), (uint8_t)((r8 >> 3) & 0x1FU), (
 172:d:\practise\f407_disc\lvgl\lvgl\src\misc\lv_color.h **** #endif
 173:d:\practise\f407_disc\lvgl\lvgl\src\misc\lv_color.h **** 
ARM GAS  C:\Users\gx\AppData\Local\Temp\ccpJsvWx.s 			page 6


 174:d:\practise\f407_disc\lvgl\lvgl\src\misc\lv_color.h **** # define LV_COLOR_SET_R32(c, v) (c).ch.red = (uint8_t)((v) & 0xFF)
 175:d:\practise\f407_disc\lvgl\lvgl\src\misc\lv_color.h **** # define LV_COLOR_SET_G32(c, v) (c).ch.green = (uint8_t)((v) & 0xFF)
 176:d:\practise\f407_disc\lvgl\lvgl\src\misc\lv_color.h **** # define LV_COLOR_SET_B32(c, v) (c).ch.blue = (uint8_t)((v) & 0xFF)
 177:d:\practise\f407_disc\lvgl\lvgl\src\misc\lv_color.h **** # define LV_COLOR_SET_A32(c, v) (c).ch.alpha = (uint8_t)((v) & 0xFF)
 178:d:\practise\f407_disc\lvgl\lvgl\src\misc\lv_color.h **** 
 179:d:\practise\f407_disc\lvgl\lvgl\src\misc\lv_color.h **** # define LV_COLOR_GET_R32(c) (c).ch.red
 180:d:\practise\f407_disc\lvgl\lvgl\src\misc\lv_color.h **** # define LV_COLOR_GET_G32(c) (c).ch.green
 181:d:\practise\f407_disc\lvgl\lvgl\src\misc\lv_color.h **** # define LV_COLOR_GET_B32(c) (c).ch.blue
 182:d:\practise\f407_disc\lvgl\lvgl\src\misc\lv_color.h **** # define LV_COLOR_GET_A32(c) (c).ch.alpha
 183:d:\practise\f407_disc\lvgl\lvgl\src\misc\lv_color.h **** 
 184:d:\practise\f407_disc\lvgl\lvgl\src\misc\lv_color.h **** # define _LV_COLOR_ZERO_INITIALIZER32  {{0x00, 0x00, 0x00, 0x00}}
 185:d:\practise\f407_disc\lvgl\lvgl\src\misc\lv_color.h **** # define LV_COLOR_MAKE32(r8, g8, b8) {{b8, g8, r8, 0xff}} /*Fix 0xff alpha*/
 186:d:\practise\f407_disc\lvgl\lvgl\src\misc\lv_color.h **** 
 187:d:\practise\f407_disc\lvgl\lvgl\src\misc\lv_color.h **** /*---------------------------------------
 188:d:\practise\f407_disc\lvgl\lvgl\src\misc\lv_color.h ****  * Macros for the current color depth
 189:d:\practise\f407_disc\lvgl\lvgl\src\misc\lv_color.h ****  * to set/get values of the color channels
 190:d:\practise\f407_disc\lvgl\lvgl\src\misc\lv_color.h ****  *------------------------------------------*/
 191:d:\practise\f407_disc\lvgl\lvgl\src\misc\lv_color.h **** #define LV_COLOR_SET_R(c, v) LV_CONCAT(LV_COLOR_SET_R, LV_COLOR_DEPTH)(c, v)
 192:d:\practise\f407_disc\lvgl\lvgl\src\misc\lv_color.h **** #define LV_COLOR_SET_G(c, v) LV_CONCAT(LV_COLOR_SET_G, LV_COLOR_DEPTH)(c, v)
 193:d:\practise\f407_disc\lvgl\lvgl\src\misc\lv_color.h **** #define LV_COLOR_SET_B(c, v) LV_CONCAT(LV_COLOR_SET_B, LV_COLOR_DEPTH)(c, v)
 194:d:\practise\f407_disc\lvgl\lvgl\src\misc\lv_color.h **** #define LV_COLOR_SET_A(c, v) LV_CONCAT(LV_COLOR_SET_A, LV_COLOR_DEPTH)(c, v)
 195:d:\practise\f407_disc\lvgl\lvgl\src\misc\lv_color.h **** 
 196:d:\practise\f407_disc\lvgl\lvgl\src\misc\lv_color.h **** #define LV_COLOR_GET_R(c) LV_CONCAT(LV_COLOR_GET_R, LV_COLOR_DEPTH)(c)
 197:d:\practise\f407_disc\lvgl\lvgl\src\misc\lv_color.h **** #define LV_COLOR_GET_G(c) LV_CONCAT(LV_COLOR_GET_G, LV_COLOR_DEPTH)(c)
 198:d:\practise\f407_disc\lvgl\lvgl\src\misc\lv_color.h **** #define LV_COLOR_GET_B(c) LV_CONCAT(LV_COLOR_GET_B, LV_COLOR_DEPTH)(c)
 199:d:\practise\f407_disc\lvgl\lvgl\src\misc\lv_color.h **** #define LV_COLOR_GET_A(c) LV_CONCAT(LV_COLOR_GET_A, LV_COLOR_DEPTH)(c)
 200:d:\practise\f407_disc\lvgl\lvgl\src\misc\lv_color.h **** 
 201:d:\practise\f407_disc\lvgl\lvgl\src\misc\lv_color.h **** #define _LV_COLOR_ZERO_INITIALIZER LV_CONCAT(_LV_COLOR_ZERO_INITIALIZER, LV_COLOR_DEPTH)
 202:d:\practise\f407_disc\lvgl\lvgl\src\misc\lv_color.h **** #define LV_COLOR_MAKE(r8, g8, b8) LV_CONCAT(LV_COLOR_MAKE, LV_COLOR_DEPTH)(r8, g8, b8)
 203:d:\practise\f407_disc\lvgl\lvgl\src\misc\lv_color.h **** 
 204:d:\practise\f407_disc\lvgl\lvgl\src\misc\lv_color.h **** #define LV_UDIV255(x) ((uint32_t)((uint32_t) (x) * 0x8081) >> 0x17)
 205:d:\practise\f407_disc\lvgl\lvgl\src\misc\lv_color.h **** 
 206:d:\practise\f407_disc\lvgl\lvgl\src\misc\lv_color.h **** /**********************
 207:d:\practise\f407_disc\lvgl\lvgl\src\misc\lv_color.h ****  *      TYPEDEFS
 208:d:\practise\f407_disc\lvgl\lvgl\src\misc\lv_color.h ****  **********************/
 209:d:\practise\f407_disc\lvgl\lvgl\src\misc\lv_color.h **** 
 210:d:\practise\f407_disc\lvgl\lvgl\src\misc\lv_color.h **** typedef union {
 211:d:\practise\f407_disc\lvgl\lvgl\src\misc\lv_color.h ****     uint8_t full; /*must be declared first to set all bits of byte via initializer list*/
 212:d:\practise\f407_disc\lvgl\lvgl\src\misc\lv_color.h ****     union {
 213:d:\practise\f407_disc\lvgl\lvgl\src\misc\lv_color.h ****         uint8_t blue : 1;
 214:d:\practise\f407_disc\lvgl\lvgl\src\misc\lv_color.h ****         uint8_t green : 1;
 215:d:\practise\f407_disc\lvgl\lvgl\src\misc\lv_color.h ****         uint8_t red : 1;
 216:d:\practise\f407_disc\lvgl\lvgl\src\misc\lv_color.h ****     } ch;
 217:d:\practise\f407_disc\lvgl\lvgl\src\misc\lv_color.h **** } lv_color1_t;
 218:d:\practise\f407_disc\lvgl\lvgl\src\misc\lv_color.h **** 
 219:d:\practise\f407_disc\lvgl\lvgl\src\misc\lv_color.h **** typedef union {
 220:d:\practise\f407_disc\lvgl\lvgl\src\misc\lv_color.h ****     struct {
 221:d:\practise\f407_disc\lvgl\lvgl\src\misc\lv_color.h ****         uint8_t blue : 2;
 222:d:\practise\f407_disc\lvgl\lvgl\src\misc\lv_color.h ****         uint8_t green : 3;
 223:d:\practise\f407_disc\lvgl\lvgl\src\misc\lv_color.h ****         uint8_t red : 3;
 224:d:\practise\f407_disc\lvgl\lvgl\src\misc\lv_color.h ****     } ch;
 225:d:\practise\f407_disc\lvgl\lvgl\src\misc\lv_color.h ****     uint8_t full;
 226:d:\practise\f407_disc\lvgl\lvgl\src\misc\lv_color.h **** } lv_color8_t;
 227:d:\practise\f407_disc\lvgl\lvgl\src\misc\lv_color.h **** 
 228:d:\practise\f407_disc\lvgl\lvgl\src\misc\lv_color.h **** typedef union {
 229:d:\practise\f407_disc\lvgl\lvgl\src\misc\lv_color.h ****     struct {
 230:d:\practise\f407_disc\lvgl\lvgl\src\misc\lv_color.h **** #if LV_COLOR_16_SWAP == 0
ARM GAS  C:\Users\gx\AppData\Local\Temp\ccpJsvWx.s 			page 7


 231:d:\practise\f407_disc\lvgl\lvgl\src\misc\lv_color.h ****         uint16_t blue : 5;
 232:d:\practise\f407_disc\lvgl\lvgl\src\misc\lv_color.h ****         uint16_t green : 6;
 233:d:\practise\f407_disc\lvgl\lvgl\src\misc\lv_color.h ****         uint16_t red : 5;
 234:d:\practise\f407_disc\lvgl\lvgl\src\misc\lv_color.h **** #else
 235:d:\practise\f407_disc\lvgl\lvgl\src\misc\lv_color.h ****         uint16_t green_h : 3;
 236:d:\practise\f407_disc\lvgl\lvgl\src\misc\lv_color.h ****         uint16_t red : 5;
 237:d:\practise\f407_disc\lvgl\lvgl\src\misc\lv_color.h ****         uint16_t blue : 5;
 238:d:\practise\f407_disc\lvgl\lvgl\src\misc\lv_color.h ****         uint16_t green_l : 3;
 239:d:\practise\f407_disc\lvgl\lvgl\src\misc\lv_color.h **** #endif
 240:d:\practise\f407_disc\lvgl\lvgl\src\misc\lv_color.h ****     } ch;
 241:d:\practise\f407_disc\lvgl\lvgl\src\misc\lv_color.h ****     uint16_t full;
 242:d:\practise\f407_disc\lvgl\lvgl\src\misc\lv_color.h **** } lv_color16_t;
 243:d:\practise\f407_disc\lvgl\lvgl\src\misc\lv_color.h **** 
 244:d:\practise\f407_disc\lvgl\lvgl\src\misc\lv_color.h **** typedef union {
 245:d:\practise\f407_disc\lvgl\lvgl\src\misc\lv_color.h ****     struct {
 246:d:\practise\f407_disc\lvgl\lvgl\src\misc\lv_color.h ****         uint8_t blue;
 247:d:\practise\f407_disc\lvgl\lvgl\src\misc\lv_color.h ****         uint8_t green;
 248:d:\practise\f407_disc\lvgl\lvgl\src\misc\lv_color.h ****         uint8_t red;
 249:d:\practise\f407_disc\lvgl\lvgl\src\misc\lv_color.h ****         uint8_t alpha;
 250:d:\practise\f407_disc\lvgl\lvgl\src\misc\lv_color.h ****     } ch;
 251:d:\practise\f407_disc\lvgl\lvgl\src\misc\lv_color.h ****     uint32_t full;
 252:d:\practise\f407_disc\lvgl\lvgl\src\misc\lv_color.h **** } lv_color32_t;
 253:d:\practise\f407_disc\lvgl\lvgl\src\misc\lv_color.h **** 
 254:d:\practise\f407_disc\lvgl\lvgl\src\misc\lv_color.h **** typedef LV_CONCAT3(uint, LV_COLOR_SIZE, _t) lv_color_int_t;
 255:d:\practise\f407_disc\lvgl\lvgl\src\misc\lv_color.h **** typedef LV_CONCAT3(lv_color, LV_COLOR_DEPTH, _t) lv_color_t;
 256:d:\practise\f407_disc\lvgl\lvgl\src\misc\lv_color.h **** 
 257:d:\practise\f407_disc\lvgl\lvgl\src\misc\lv_color.h **** typedef struct {
 258:d:\practise\f407_disc\lvgl\lvgl\src\misc\lv_color.h ****     uint16_t h;
 259:d:\practise\f407_disc\lvgl\lvgl\src\misc\lv_color.h ****     uint8_t s;
 260:d:\practise\f407_disc\lvgl\lvgl\src\misc\lv_color.h ****     uint8_t v;
 261:d:\practise\f407_disc\lvgl\lvgl\src\misc\lv_color.h **** } lv_color_hsv_t;
 262:d:\practise\f407_disc\lvgl\lvgl\src\misc\lv_color.h **** 
 263:d:\practise\f407_disc\lvgl\lvgl\src\misc\lv_color.h **** //! @cond Doxygen_Suppress
 264:d:\practise\f407_disc\lvgl\lvgl\src\misc\lv_color.h **** /*No idea where the guard is required but else throws warnings in the docs*/
 265:d:\practise\f407_disc\lvgl\lvgl\src\misc\lv_color.h **** typedef uint8_t lv_opa_t;
 266:d:\practise\f407_disc\lvgl\lvgl\src\misc\lv_color.h **** //! @endcond
 267:d:\practise\f407_disc\lvgl\lvgl\src\misc\lv_color.h **** 
 268:d:\practise\f407_disc\lvgl\lvgl\src\misc\lv_color.h **** struct _lv_color_filter_dsc_t;
 269:d:\practise\f407_disc\lvgl\lvgl\src\misc\lv_color.h **** 
 270:d:\practise\f407_disc\lvgl\lvgl\src\misc\lv_color.h **** typedef lv_color_t (*lv_color_filter_cb_t)(const struct _lv_color_filter_dsc_t *, lv_color_t, lv_op
 271:d:\practise\f407_disc\lvgl\lvgl\src\misc\lv_color.h **** 
 272:d:\practise\f407_disc\lvgl\lvgl\src\misc\lv_color.h **** typedef struct _lv_color_filter_dsc_t {
 273:d:\practise\f407_disc\lvgl\lvgl\src\misc\lv_color.h ****     lv_color_filter_cb_t filter_cb;
 274:d:\practise\f407_disc\lvgl\lvgl\src\misc\lv_color.h ****     void * user_data;
 275:d:\practise\f407_disc\lvgl\lvgl\src\misc\lv_color.h **** }lv_color_filter_dsc_t;
 276:d:\practise\f407_disc\lvgl\lvgl\src\misc\lv_color.h **** 
 277:d:\practise\f407_disc\lvgl\lvgl\src\misc\lv_color.h **** 
 278:d:\practise\f407_disc\lvgl\lvgl\src\misc\lv_color.h **** typedef enum {
 279:d:\practise\f407_disc\lvgl\lvgl\src\misc\lv_color.h ****     LV_PALETTE_RED,
 280:d:\practise\f407_disc\lvgl\lvgl\src\misc\lv_color.h ****     LV_PALETTE_PINK,
 281:d:\practise\f407_disc\lvgl\lvgl\src\misc\lv_color.h ****     LV_PALETTE_PURPLE,
 282:d:\practise\f407_disc\lvgl\lvgl\src\misc\lv_color.h ****     LV_PALETTE_DEEP_PURPLE,
 283:d:\practise\f407_disc\lvgl\lvgl\src\misc\lv_color.h ****     LV_PALETTE_INDIGO,
 284:d:\practise\f407_disc\lvgl\lvgl\src\misc\lv_color.h ****     LV_PALETTE_BLUE,
 285:d:\practise\f407_disc\lvgl\lvgl\src\misc\lv_color.h ****     LV_PALETTE_LIGHT_BLUE,
 286:d:\practise\f407_disc\lvgl\lvgl\src\misc\lv_color.h ****     LV_PALETTE_CYAN,
 287:d:\practise\f407_disc\lvgl\lvgl\src\misc\lv_color.h ****     LV_PALETTE_TEAL,
ARM GAS  C:\Users\gx\AppData\Local\Temp\ccpJsvWx.s 			page 8


 288:d:\practise\f407_disc\lvgl\lvgl\src\misc\lv_color.h ****     LV_PALETTE_GREEN,
 289:d:\practise\f407_disc\lvgl\lvgl\src\misc\lv_color.h ****     LV_PALETTE_LIGHT_GREEN,
 290:d:\practise\f407_disc\lvgl\lvgl\src\misc\lv_color.h ****     LV_PALETTE_LIME,
 291:d:\practise\f407_disc\lvgl\lvgl\src\misc\lv_color.h ****     LV_PALETTE_YELLOW,
 292:d:\practise\f407_disc\lvgl\lvgl\src\misc\lv_color.h ****     LV_PALETTE_AMBER,
 293:d:\practise\f407_disc\lvgl\lvgl\src\misc\lv_color.h ****     LV_PALETTE_ORANGE,
 294:d:\practise\f407_disc\lvgl\lvgl\src\misc\lv_color.h ****     LV_PALETTE_DEEP_ORANGE,
 295:d:\practise\f407_disc\lvgl\lvgl\src\misc\lv_color.h ****     LV_PALETTE_BROWN,
 296:d:\practise\f407_disc\lvgl\lvgl\src\misc\lv_color.h ****     LV_PALETTE_BLUE_GREY,
 297:d:\practise\f407_disc\lvgl\lvgl\src\misc\lv_color.h ****     LV_PALETTE_GREY,
 298:d:\practise\f407_disc\lvgl\lvgl\src\misc\lv_color.h ****     _LV_PALETTE_LAST,
 299:d:\practise\f407_disc\lvgl\lvgl\src\misc\lv_color.h ****     LV_PALETTE_NONE = 0xff,
 300:d:\practise\f407_disc\lvgl\lvgl\src\misc\lv_color.h **** }lv_palette_t;
 301:d:\practise\f407_disc\lvgl\lvgl\src\misc\lv_color.h **** 
 302:d:\practise\f407_disc\lvgl\lvgl\src\misc\lv_color.h **** /**********************
 303:d:\practise\f407_disc\lvgl\lvgl\src\misc\lv_color.h ****  * GLOBAL PROTOTYPES
 304:d:\practise\f407_disc\lvgl\lvgl\src\misc\lv_color.h ****  **********************/
 305:d:\practise\f407_disc\lvgl\lvgl\src\misc\lv_color.h **** 
 306:d:\practise\f407_disc\lvgl\lvgl\src\misc\lv_color.h **** /*In color conversations:
 307:d:\practise\f407_disc\lvgl\lvgl\src\misc\lv_color.h ****  * - When converting to bigger color type the LSB weight of 1 LSB is calculated
 308:d:\practise\f407_disc\lvgl\lvgl\src\misc\lv_color.h ****  *   E.g. 16 bit Red has 5 bits
 309:d:\practise\f407_disc\lvgl\lvgl\src\misc\lv_color.h ****  *         8 bit Red has 3 bits
 310:d:\practise\f407_disc\lvgl\lvgl\src\misc\lv_color.h ****  *        ----------------------
 311:d:\practise\f407_disc\lvgl\lvgl\src\misc\lv_color.h ****  *        8 bit red LSB = (2^5 - 1) / (2^3 - 1) = 31 / 7 = 4
 312:d:\practise\f407_disc\lvgl\lvgl\src\misc\lv_color.h ****  *
 313:d:\practise\f407_disc\lvgl\lvgl\src\misc\lv_color.h ****  * - When calculating to smaller color type simply shift out the LSBs
 314:d:\practise\f407_disc\lvgl\lvgl\src\misc\lv_color.h ****  *   E.g.  8 bit Red has 3 bits
 315:d:\practise\f407_disc\lvgl\lvgl\src\misc\lv_color.h ****  *        16 bit Red has 5 bits
 316:d:\practise\f407_disc\lvgl\lvgl\src\misc\lv_color.h ****  *        ----------------------
 317:d:\practise\f407_disc\lvgl\lvgl\src\misc\lv_color.h ****  *         Shift right with 5 - 3 = 2
 318:d:\practise\f407_disc\lvgl\lvgl\src\misc\lv_color.h ****  */
 319:d:\practise\f407_disc\lvgl\lvgl\src\misc\lv_color.h **** static inline uint8_t lv_color_to1(lv_color_t color)
 320:d:\practise\f407_disc\lvgl\lvgl\src\misc\lv_color.h **** {
 321:d:\practise\f407_disc\lvgl\lvgl\src\misc\lv_color.h **** #if LV_COLOR_DEPTH == 1
 322:d:\practise\f407_disc\lvgl\lvgl\src\misc\lv_color.h ****     return color.full;
 323:d:\practise\f407_disc\lvgl\lvgl\src\misc\lv_color.h **** #elif LV_COLOR_DEPTH == 8
 324:d:\practise\f407_disc\lvgl\lvgl\src\misc\lv_color.h ****     if((LV_COLOR_GET_R(color) & 0x4) || (LV_COLOR_GET_G(color) & 0x4) || (LV_COLOR_GET_B(color) & 0
 325:d:\practise\f407_disc\lvgl\lvgl\src\misc\lv_color.h ****         return 1;
 326:d:\practise\f407_disc\lvgl\lvgl\src\misc\lv_color.h ****     }
 327:d:\practise\f407_disc\lvgl\lvgl\src\misc\lv_color.h ****     else {
 328:d:\practise\f407_disc\lvgl\lvgl\src\misc\lv_color.h ****         return 0;
 329:d:\practise\f407_disc\lvgl\lvgl\src\misc\lv_color.h ****     }
 330:d:\practise\f407_disc\lvgl\lvgl\src\misc\lv_color.h **** #elif LV_COLOR_DEPTH == 16
 331:d:\practise\f407_disc\lvgl\lvgl\src\misc\lv_color.h ****     if((LV_COLOR_GET_R(color) & 0x10) || (LV_COLOR_GET_G(color) & 0x20) || (LV_COLOR_GET_B(color) &
 332:d:\practise\f407_disc\lvgl\lvgl\src\misc\lv_color.h ****         return 1;
 333:d:\practise\f407_disc\lvgl\lvgl\src\misc\lv_color.h ****     }
 334:d:\practise\f407_disc\lvgl\lvgl\src\misc\lv_color.h ****     else {
 335:d:\practise\f407_disc\lvgl\lvgl\src\misc\lv_color.h ****         return 0;
 336:d:\practise\f407_disc\lvgl\lvgl\src\misc\lv_color.h ****     }
 337:d:\practise\f407_disc\lvgl\lvgl\src\misc\lv_color.h **** #elif LV_COLOR_DEPTH == 32
 338:d:\practise\f407_disc\lvgl\lvgl\src\misc\lv_color.h ****     if((LV_COLOR_GET_R(color) & 0x80) || (LV_COLOR_GET_G(color) & 0x80) || (LV_COLOR_GET_B(color) &
 339:d:\practise\f407_disc\lvgl\lvgl\src\misc\lv_color.h ****         return 1;
 340:d:\practise\f407_disc\lvgl\lvgl\src\misc\lv_color.h ****     }
 341:d:\practise\f407_disc\lvgl\lvgl\src\misc\lv_color.h ****     else {
 342:d:\practise\f407_disc\lvgl\lvgl\src\misc\lv_color.h ****         return 0;
 343:d:\practise\f407_disc\lvgl\lvgl\src\misc\lv_color.h ****     }
 344:d:\practise\f407_disc\lvgl\lvgl\src\misc\lv_color.h **** #endif
ARM GAS  C:\Users\gx\AppData\Local\Temp\ccpJsvWx.s 			page 9


 345:d:\practise\f407_disc\lvgl\lvgl\src\misc\lv_color.h **** }
 346:d:\practise\f407_disc\lvgl\lvgl\src\misc\lv_color.h **** 
 347:d:\practise\f407_disc\lvgl\lvgl\src\misc\lv_color.h **** static inline uint8_t lv_color_to8(lv_color_t color)
 348:d:\practise\f407_disc\lvgl\lvgl\src\misc\lv_color.h **** {
 349:d:\practise\f407_disc\lvgl\lvgl\src\misc\lv_color.h **** #if LV_COLOR_DEPTH == 1
 350:d:\practise\f407_disc\lvgl\lvgl\src\misc\lv_color.h ****     if(color.full == 0)
 351:d:\practise\f407_disc\lvgl\lvgl\src\misc\lv_color.h ****         return 0;
 352:d:\practise\f407_disc\lvgl\lvgl\src\misc\lv_color.h ****     else
 353:d:\practise\f407_disc\lvgl\lvgl\src\misc\lv_color.h ****         return 0xFF;
 354:d:\practise\f407_disc\lvgl\lvgl\src\misc\lv_color.h **** #elif LV_COLOR_DEPTH == 8
 355:d:\practise\f407_disc\lvgl\lvgl\src\misc\lv_color.h ****     return color.full;
 356:d:\practise\f407_disc\lvgl\lvgl\src\misc\lv_color.h **** #elif LV_COLOR_DEPTH == 16
 357:d:\practise\f407_disc\lvgl\lvgl\src\misc\lv_color.h ****     lv_color8_t ret;
 358:d:\practise\f407_disc\lvgl\lvgl\src\misc\lv_color.h ****     LV_COLOR_SET_R8(ret, LV_COLOR_GET_R(color) >> 2); /*5 - 3  = 2*/
 359:d:\practise\f407_disc\lvgl\lvgl\src\misc\lv_color.h ****     LV_COLOR_SET_G8(ret, LV_COLOR_GET_G(color) >> 3); /*6 - 3  = 3*/
 360:d:\practise\f407_disc\lvgl\lvgl\src\misc\lv_color.h ****     LV_COLOR_SET_B8(ret, LV_COLOR_GET_B(color) >> 3); /*5 - 2  = 3*/
 361:d:\practise\f407_disc\lvgl\lvgl\src\misc\lv_color.h ****     return ret.full;
 362:d:\practise\f407_disc\lvgl\lvgl\src\misc\lv_color.h **** #elif LV_COLOR_DEPTH == 32
 363:d:\practise\f407_disc\lvgl\lvgl\src\misc\lv_color.h ****     lv_color8_t ret;
 364:d:\practise\f407_disc\lvgl\lvgl\src\misc\lv_color.h ****     LV_COLOR_SET_R8(ret, LV_COLOR_GET_R(color) >> 5); /*8 - 3  = 5*/
 365:d:\practise\f407_disc\lvgl\lvgl\src\misc\lv_color.h ****     LV_COLOR_SET_G8(ret, LV_COLOR_GET_G(color) >> 5); /*8 - 3  = 5*/
 366:d:\practise\f407_disc\lvgl\lvgl\src\misc\lv_color.h ****     LV_COLOR_SET_B8(ret, LV_COLOR_GET_B(color) >> 6); /*8 - 2  = 6*/
 367:d:\practise\f407_disc\lvgl\lvgl\src\misc\lv_color.h ****     return ret.full;
 368:d:\practise\f407_disc\lvgl\lvgl\src\misc\lv_color.h **** #endif
 369:d:\practise\f407_disc\lvgl\lvgl\src\misc\lv_color.h **** }
 370:d:\practise\f407_disc\lvgl\lvgl\src\misc\lv_color.h **** 
 371:d:\practise\f407_disc\lvgl\lvgl\src\misc\lv_color.h **** static inline uint16_t lv_color_to16(lv_color_t color)
 372:d:\practise\f407_disc\lvgl\lvgl\src\misc\lv_color.h **** {
 373:d:\practise\f407_disc\lvgl\lvgl\src\misc\lv_color.h **** #if LV_COLOR_DEPTH == 1
 374:d:\practise\f407_disc\lvgl\lvgl\src\misc\lv_color.h ****     if(color.full == 0)
 375:d:\practise\f407_disc\lvgl\lvgl\src\misc\lv_color.h ****         return 0;
 376:d:\practise\f407_disc\lvgl\lvgl\src\misc\lv_color.h ****     else
 377:d:\practise\f407_disc\lvgl\lvgl\src\misc\lv_color.h ****         return 0xFFFF;
 378:d:\practise\f407_disc\lvgl\lvgl\src\misc\lv_color.h **** #elif LV_COLOR_DEPTH == 8
 379:d:\practise\f407_disc\lvgl\lvgl\src\misc\lv_color.h ****     lv_color16_t ret;
 380:d:\practise\f407_disc\lvgl\lvgl\src\misc\lv_color.h ****     LV_COLOR_SET_R16(ret, LV_COLOR_GET_R(color) * 4);  /*(2^5 - 1)/(2^3 - 1) = 31/7 = 4*/
 381:d:\practise\f407_disc\lvgl\lvgl\src\misc\lv_color.h ****     LV_COLOR_SET_G16(ret, LV_COLOR_GET_G(color) * 9);  /*(2^6 - 1)/(2^3 - 1) = 63/7 = 9*/
 382:d:\practise\f407_disc\lvgl\lvgl\src\misc\lv_color.h ****     LV_COLOR_SET_B16(ret, LV_COLOR_GET_B(color) * 10); /*(2^5 - 1)/(2^2 - 1) = 31/3 = 10*/
 383:d:\practise\f407_disc\lvgl\lvgl\src\misc\lv_color.h ****     return ret.full;
 384:d:\practise\f407_disc\lvgl\lvgl\src\misc\lv_color.h **** #elif LV_COLOR_DEPTH == 16
 385:d:\practise\f407_disc\lvgl\lvgl\src\misc\lv_color.h ****     return color.full;
 386:d:\practise\f407_disc\lvgl\lvgl\src\misc\lv_color.h **** #elif LV_COLOR_DEPTH == 32
 387:d:\practise\f407_disc\lvgl\lvgl\src\misc\lv_color.h ****     lv_color16_t ret;
 388:d:\practise\f407_disc\lvgl\lvgl\src\misc\lv_color.h ****     LV_COLOR_SET_R16(ret, LV_COLOR_GET_R(color) >> 3); /*8 - 5  = 3*/
 389:d:\practise\f407_disc\lvgl\lvgl\src\misc\lv_color.h ****     LV_COLOR_SET_G16(ret, LV_COLOR_GET_G(color) >> 2); /*8 - 6  = 2*/
 390:d:\practise\f407_disc\lvgl\lvgl\src\misc\lv_color.h ****     LV_COLOR_SET_B16(ret, LV_COLOR_GET_B(color) >> 3); /*8 - 5  = 3*/
 391:d:\practise\f407_disc\lvgl\lvgl\src\misc\lv_color.h ****     return ret.full;
 392:d:\practise\f407_disc\lvgl\lvgl\src\misc\lv_color.h **** #endif
 393:d:\practise\f407_disc\lvgl\lvgl\src\misc\lv_color.h **** }
 394:d:\practise\f407_disc\lvgl\lvgl\src\misc\lv_color.h **** 
 395:d:\practise\f407_disc\lvgl\lvgl\src\misc\lv_color.h **** static inline uint32_t lv_color_to32(lv_color_t color)
 396:d:\practise\f407_disc\lvgl\lvgl\src\misc\lv_color.h **** {
 397:d:\practise\f407_disc\lvgl\lvgl\src\misc\lv_color.h **** #if LV_COLOR_DEPTH == 1
 398:d:\practise\f407_disc\lvgl\lvgl\src\misc\lv_color.h ****     if(color.full == 0)
 399:d:\practise\f407_disc\lvgl\lvgl\src\misc\lv_color.h ****         return 0xFF000000;
 400:d:\practise\f407_disc\lvgl\lvgl\src\misc\lv_color.h ****     else
 401:d:\practise\f407_disc\lvgl\lvgl\src\misc\lv_color.h ****         return 0xFFFFFFFF;
ARM GAS  C:\Users\gx\AppData\Local\Temp\ccpJsvWx.s 			page 10


 402:d:\practise\f407_disc\lvgl\lvgl\src\misc\lv_color.h **** #elif LV_COLOR_DEPTH == 8
 403:d:\practise\f407_disc\lvgl\lvgl\src\misc\lv_color.h ****     lv_color32_t ret;
 404:d:\practise\f407_disc\lvgl\lvgl\src\misc\lv_color.h ****     LV_COLOR_SET_R32(ret, LV_COLOR_GET_R(color) * 36); /*(2^8 - 1)/(2^3 - 1) = 255/7 = 36*/
 405:d:\practise\f407_disc\lvgl\lvgl\src\misc\lv_color.h ****     LV_COLOR_SET_G32(ret, LV_COLOR_GET_G(color) * 36); /*(2^8 - 1)/(2^3 - 1) = 255/7 = 36*/
 406:d:\practise\f407_disc\lvgl\lvgl\src\misc\lv_color.h ****     LV_COLOR_SET_B32(ret, LV_COLOR_GET_B(color) * 85); /*(2^8 - 1)/(2^2 - 1) = 255/3 = 85*/
 407:d:\practise\f407_disc\lvgl\lvgl\src\misc\lv_color.h ****     LV_COLOR_SET_A32(ret, 0xFF);
 408:d:\practise\f407_disc\lvgl\lvgl\src\misc\lv_color.h ****     return ret.full;
 409:d:\practise\f407_disc\lvgl\lvgl\src\misc\lv_color.h **** #elif LV_COLOR_DEPTH == 16
 410:d:\practise\f407_disc\lvgl\lvgl\src\misc\lv_color.h ****     /**
 411:d:\practise\f407_disc\lvgl\lvgl\src\misc\lv_color.h ****      * The floating point math for conversion is:
 412:d:\practise\f407_disc\lvgl\lvgl\src\misc\lv_color.h ****      *  valueto = valuefrom * ( (2^bitsto - 1) / (float)(2^bitsfrom - 1) )
 413:d:\practise\f407_disc\lvgl\lvgl\src\misc\lv_color.h ****      * The faster integer math for conversion is:
 414:d:\practise\f407_disc\lvgl\lvgl\src\misc\lv_color.h ****      *  valueto = ( valuefrom * multiplier + adder ) >> divisor
 415:d:\practise\f407_disc\lvgl\lvgl\src\misc\lv_color.h ****      *   multiplier = FLOOR( ( (2^bitsto - 1) << divisor ) / (float)(2^bitsfrom - 1) )
 416:d:\practise\f407_disc\lvgl\lvgl\src\misc\lv_color.h ****      *
 417:d:\practise\f407_disc\lvgl\lvgl\src\misc\lv_color.h ****      * Find the first divisor where ( adder >> divisor ) <= 0
 418:d:\practise\f407_disc\lvgl\lvgl\src\misc\lv_color.h ****      *
 419:d:\practise\f407_disc\lvgl\lvgl\src\misc\lv_color.h ****      * 5-bit to 8-bit: ( 31 * multiplier + adder ) >> divisor = 255
 420:d:\practise\f407_disc\lvgl\lvgl\src\misc\lv_color.h ****      * divisor  multiplier  adder  min (0)  max (31)
 421:d:\practise\f407_disc\lvgl\lvgl\src\misc\lv_color.h ****      *       0           8      7        7       255
 422:d:\practise\f407_disc\lvgl\lvgl\src\misc\lv_color.h ****      *       1          16     14        7       255
 423:d:\practise\f407_disc\lvgl\lvgl\src\misc\lv_color.h ****      *       2          32     28        7       255
 424:d:\practise\f407_disc\lvgl\lvgl\src\misc\lv_color.h ****      *       3          65     25        3       255
 425:d:\practise\f407_disc\lvgl\lvgl\src\misc\lv_color.h ****      *       4         131     19        1       255
 426:d:\practise\f407_disc\lvgl\lvgl\src\misc\lv_color.h ****      *       5         263      7        0       255
 427:d:\practise\f407_disc\lvgl\lvgl\src\misc\lv_color.h ****      *
 428:d:\practise\f407_disc\lvgl\lvgl\src\misc\lv_color.h ****      * 6-bit to 8-bit: 255 = ( 63 * multiplier + adder ) >> divisor
 429:d:\practise\f407_disc\lvgl\lvgl\src\misc\lv_color.h ****      * divisor  multiplier  adder  min (0)  max (63)
 430:d:\practise\f407_disc\lvgl\lvgl\src\misc\lv_color.h ****      *       0           4      3        3       255
 431:d:\practise\f407_disc\lvgl\lvgl\src\misc\lv_color.h ****      *       1           8      6        3       255
 432:d:\practise\f407_disc\lvgl\lvgl\src\misc\lv_color.h ****      *       2          16     12        3       255
 433:d:\practise\f407_disc\lvgl\lvgl\src\misc\lv_color.h ****      *       3          32     24        3       255
 434:d:\practise\f407_disc\lvgl\lvgl\src\misc\lv_color.h ****      *       4          64     48        3       255
 435:d:\practise\f407_disc\lvgl\lvgl\src\misc\lv_color.h ****      *       5         129     33        1       255
 436:d:\practise\f407_disc\lvgl\lvgl\src\misc\lv_color.h ****      *       6         259      3        0       255
 437:d:\practise\f407_disc\lvgl\lvgl\src\misc\lv_color.h ****      */
 438:d:\practise\f407_disc\lvgl\lvgl\src\misc\lv_color.h **** 
 439:d:\practise\f407_disc\lvgl\lvgl\src\misc\lv_color.h ****     lv_color32_t ret;
 440:d:\practise\f407_disc\lvgl\lvgl\src\misc\lv_color.h ****     LV_COLOR_SET_R32(ret, (LV_COLOR_GET_R(color) * 263 + 7) >> 5);
 441:d:\practise\f407_disc\lvgl\lvgl\src\misc\lv_color.h ****     LV_COLOR_SET_G32(ret, (LV_COLOR_GET_G(color) * 259 + 3) >> 6);
 442:d:\practise\f407_disc\lvgl\lvgl\src\misc\lv_color.h ****     LV_COLOR_SET_B32(ret, (LV_COLOR_GET_B(color) * 263 + 7) >> 5);
 443:d:\practise\f407_disc\lvgl\lvgl\src\misc\lv_color.h ****     LV_COLOR_SET_A32(ret, 0xFF);
 444:d:\practise\f407_disc\lvgl\lvgl\src\misc\lv_color.h ****     return ret.full;
 445:d:\practise\f407_disc\lvgl\lvgl\src\misc\lv_color.h **** #elif LV_COLOR_DEPTH == 32
 446:d:\practise\f407_disc\lvgl\lvgl\src\misc\lv_color.h ****     return color.full;
 447:d:\practise\f407_disc\lvgl\lvgl\src\misc\lv_color.h **** #endif
 448:d:\practise\f407_disc\lvgl\lvgl\src\misc\lv_color.h **** }
 449:d:\practise\f407_disc\lvgl\lvgl\src\misc\lv_color.h **** 
 450:d:\practise\f407_disc\lvgl\lvgl\src\misc\lv_color.h **** //! @cond Doxygen_Suppress
 451:d:\practise\f407_disc\lvgl\lvgl\src\misc\lv_color.h **** 
 452:d:\practise\f407_disc\lvgl\lvgl\src\misc\lv_color.h **** /**
 453:d:\practise\f407_disc\lvgl\lvgl\src\misc\lv_color.h ****  * Mix two colors with a given ratio.
 454:d:\practise\f407_disc\lvgl\lvgl\src\misc\lv_color.h ****  * @param c1 the first color to mix (usually the foreground)
 455:d:\practise\f407_disc\lvgl\lvgl\src\misc\lv_color.h ****  * @param c2 the second color to mix (usually the background)
 456:d:\practise\f407_disc\lvgl\lvgl\src\misc\lv_color.h ****  * @param mix The ratio of the colors. 0: full `c2`, 255: full `c1`, 127: half `c1` and half`c2`
 457:d:\practise\f407_disc\lvgl\lvgl\src\misc\lv_color.h ****  * @return the mixed color
 458:d:\practise\f407_disc\lvgl\lvgl\src\misc\lv_color.h ****  */
ARM GAS  C:\Users\gx\AppData\Local\Temp\ccpJsvWx.s 			page 11


 459:d:\practise\f407_disc\lvgl\lvgl\src\misc\lv_color.h **** LV_ATTRIBUTE_FAST_MEM static inline lv_color_t lv_color_mix(lv_color_t c1, lv_color_t c2, uint8_t m
 460:d:\practise\f407_disc\lvgl\lvgl\src\misc\lv_color.h **** {
 461:d:\practise\f407_disc\lvgl\lvgl\src\misc\lv_color.h ****     lv_color_t ret;
 462:d:\practise\f407_disc\lvgl\lvgl\src\misc\lv_color.h **** 
 463:d:\practise\f407_disc\lvgl\lvgl\src\misc\lv_color.h **** #if LV_COLOR_DEPTH == 16 && LV_COLOR_16_SWAP == 0
 464:d:\practise\f407_disc\lvgl\lvgl\src\misc\lv_color.h ****     /*Source: https://stackoverflow.com/a/50012418/1999969*/
 465:d:\practise\f407_disc\lvgl\lvgl\src\misc\lv_color.h ****     mix = ( mix + 4 ) >> 3;
 466:d:\practise\f407_disc\lvgl\lvgl\src\misc\lv_color.h ****     uint32_t bg = (uint32_t)((uint32_t)c2.full | ((uint32_t)c2.full << 16)) & 0x7E0F81F; /*0b000001
 467:d:\practise\f407_disc\lvgl\lvgl\src\misc\lv_color.h ****     uint32_t fg = (uint32_t)((uint32_t)c1.full | (uint32_t)(c1.full << 16)) & 0x7E0F81F;
 468:d:\practise\f407_disc\lvgl\lvgl\src\misc\lv_color.h ****     uint32_t result = ((((fg - bg) * mix) >> 5) + bg) & 0x7E0F81F;
 469:d:\practise\f407_disc\lvgl\lvgl\src\misc\lv_color.h ****     ret.full = (uint16_t)((result >> 16) | result);
 470:d:\practise\f407_disc\lvgl\lvgl\src\misc\lv_color.h **** #elif LV_COLOR_DEPTH != 1
 471:d:\practise\f407_disc\lvgl\lvgl\src\misc\lv_color.h ****     /*LV_COLOR_DEPTH == 8, 16 or 32*/
 472:d:\practise\f407_disc\lvgl\lvgl\src\misc\lv_color.h ****     LV_COLOR_SET_R(ret, LV_UDIV255((uint16_t) LV_COLOR_GET_R(c1) * mix + LV_COLOR_GET_R(c2) *
 473:d:\practise\f407_disc\lvgl\lvgl\src\misc\lv_color.h ****                                         (255 - mix) + LV_COLOR_MIX_ROUND_OFS));
 474:d:\practise\f407_disc\lvgl\lvgl\src\misc\lv_color.h ****     LV_COLOR_SET_G(ret, LV_UDIV255((uint16_t) LV_COLOR_GET_G(c1) * mix + LV_COLOR_GET_G(c2) *
 475:d:\practise\f407_disc\lvgl\lvgl\src\misc\lv_color.h ****                                         (255 - mix) + LV_COLOR_MIX_ROUND_OFS));
 476:d:\practise\f407_disc\lvgl\lvgl\src\misc\lv_color.h ****     LV_COLOR_SET_B(ret, LV_UDIV255((uint16_t) LV_COLOR_GET_B(c1) * mix + LV_COLOR_GET_B(c2) *
 477:d:\practise\f407_disc\lvgl\lvgl\src\misc\lv_color.h ****                                         (255 - mix) + LV_COLOR_MIX_ROUND_OFS));
 478:d:\practise\f407_disc\lvgl\lvgl\src\misc\lv_color.h ****     LV_COLOR_SET_A(ret, 0xFF);
 479:d:\practise\f407_disc\lvgl\lvgl\src\misc\lv_color.h **** #else
 480:d:\practise\f407_disc\lvgl\lvgl\src\misc\lv_color.h ****     /*LV_COLOR_DEPTH == 1*/
 481:d:\practise\f407_disc\lvgl\lvgl\src\misc\lv_color.h ****     ret.full = mix > LV_OPA_50 ? c1.full : c2.full;
 482:d:\practise\f407_disc\lvgl\lvgl\src\misc\lv_color.h **** #endif
 483:d:\practise\f407_disc\lvgl\lvgl\src\misc\lv_color.h **** 
 484:d:\practise\f407_disc\lvgl\lvgl\src\misc\lv_color.h ****     return ret;
 485:d:\practise\f407_disc\lvgl\lvgl\src\misc\lv_color.h **** }
 486:d:\practise\f407_disc\lvgl\lvgl\src\misc\lv_color.h **** 
 487:d:\practise\f407_disc\lvgl\lvgl\src\misc\lv_color.h **** LV_ATTRIBUTE_FAST_MEM static inline void lv_color_premult(lv_color_t c, uint8_t mix, uint16_t * out
 488:d:\practise\f407_disc\lvgl\lvgl\src\misc\lv_color.h **** {
 489:d:\practise\f407_disc\lvgl\lvgl\src\misc\lv_color.h **** #if LV_COLOR_DEPTH != 1
 490:d:\practise\f407_disc\lvgl\lvgl\src\misc\lv_color.h ****     out[0] = (uint16_t) LV_COLOR_GET_R(c) * mix;
 491:d:\practise\f407_disc\lvgl\lvgl\src\misc\lv_color.h ****     out[1] = (uint16_t) LV_COLOR_GET_G(c) * mix;
 492:d:\practise\f407_disc\lvgl\lvgl\src\misc\lv_color.h ****     out[2] = (uint16_t) LV_COLOR_GET_B(c) * mix;
 493:d:\practise\f407_disc\lvgl\lvgl\src\misc\lv_color.h **** #else
 494:d:\practise\f407_disc\lvgl\lvgl\src\misc\lv_color.h ****     (void) mix;
 495:d:\practise\f407_disc\lvgl\lvgl\src\misc\lv_color.h ****     /*Pre-multiplication can't be used with 1 bpp*/
 496:d:\practise\f407_disc\lvgl\lvgl\src\misc\lv_color.h ****     out[0] = LV_COLOR_GET_R(c);
 497:d:\practise\f407_disc\lvgl\lvgl\src\misc\lv_color.h ****     out[1] = LV_COLOR_GET_G(c);
 498:d:\practise\f407_disc\lvgl\lvgl\src\misc\lv_color.h ****     out[2] = LV_COLOR_GET_B(c);
 499:d:\practise\f407_disc\lvgl\lvgl\src\misc\lv_color.h **** #endif
 500:d:\practise\f407_disc\lvgl\lvgl\src\misc\lv_color.h **** 
 501:d:\practise\f407_disc\lvgl\lvgl\src\misc\lv_color.h **** }
 502:d:\practise\f407_disc\lvgl\lvgl\src\misc\lv_color.h **** 
 503:d:\practise\f407_disc\lvgl\lvgl\src\misc\lv_color.h **** /**
 504:d:\practise\f407_disc\lvgl\lvgl\src\misc\lv_color.h ****  * Mix two colors with a given ratio. It runs faster then `lv_color_mix` but requires some pre comp
 505:d:\practise\f407_disc\lvgl\lvgl\src\misc\lv_color.h ****  * @param premult_c1 The first color. Should be preprocessed with `lv_color_premult(c1)`
 506:d:\practise\f407_disc\lvgl\lvgl\src\misc\lv_color.h ****  * @param c2 The second color. As it is no pre computation required on it
 507:d:\practise\f407_disc\lvgl\lvgl\src\misc\lv_color.h ****  * @param mix The ratio of the colors. 0: full `c1`, 255: full `c2`, 127: half `c1` and half `c2`.
 508:d:\practise\f407_disc\lvgl\lvgl\src\misc\lv_color.h ****  *            Should be modified like mix = `255 - mix`
 509:d:\practise\f407_disc\lvgl\lvgl\src\misc\lv_color.h ****  * @return the mixed color
 510:d:\practise\f407_disc\lvgl\lvgl\src\misc\lv_color.h ****  * @note 255 won't give clearly `c1`.
 511:d:\practise\f407_disc\lvgl\lvgl\src\misc\lv_color.h ****  */
 512:d:\practise\f407_disc\lvgl\lvgl\src\misc\lv_color.h **** LV_ATTRIBUTE_FAST_MEM static inline lv_color_t lv_color_mix_premult(uint16_t * premult_c1, lv_color
 513:d:\practise\f407_disc\lvgl\lvgl\src\misc\lv_color.h **** {
 514:d:\practise\f407_disc\lvgl\lvgl\src\misc\lv_color.h ****     lv_color_t ret;
 515:d:\practise\f407_disc\lvgl\lvgl\src\misc\lv_color.h **** #if LV_COLOR_DEPTH == 16 && LV_COLOR_16_SWAP == 0
ARM GAS  C:\Users\gx\AppData\Local\Temp\ccpJsvWx.s 			page 12


 516:d:\practise\f407_disc\lvgl\lvgl\src\misc\lv_color.h ****     /*For compatibility with lv_color_mix on 16 bit color depth*/
 517:d:\practise\f407_disc\lvgl\lvgl\src\misc\lv_color.h ****     LV_COLOR_SET_R(ret, (premult_c1[0] + LV_COLOR_GET_R(c2) * mix) >> 8);
 518:d:\practise\f407_disc\lvgl\lvgl\src\misc\lv_color.h ****     LV_COLOR_SET_G(ret, (premult_c1[1] + LV_COLOR_GET_G(c2) * mix) >> 8);
 519:d:\practise\f407_disc\lvgl\lvgl\src\misc\lv_color.h ****     LV_COLOR_SET_B(ret, (premult_c1[2] + LV_COLOR_GET_B(c2) * mix) >> 8);
 520:d:\practise\f407_disc\lvgl\lvgl\src\misc\lv_color.h **** #elif LV_COLOR_DEPTH != 1
 521:d:\practise\f407_disc\lvgl\lvgl\src\misc\lv_color.h ****     /*LV_COLOR_DEPTH == 8 or 32*/
 522:d:\practise\f407_disc\lvgl\lvgl\src\misc\lv_color.h ****     LV_COLOR_SET_R(ret, LV_UDIV255(premult_c1[0] + LV_COLOR_GET_R(c2) * mix + LV_COLOR_MIX_ROUND_OF
 523:d:\practise\f407_disc\lvgl\lvgl\src\misc\lv_color.h ****     LV_COLOR_SET_G(ret, LV_UDIV255(premult_c1[1] + LV_COLOR_GET_G(c2) * mix + LV_COLOR_MIX_ROUND_OF
 524:d:\practise\f407_disc\lvgl\lvgl\src\misc\lv_color.h ****     LV_COLOR_SET_B(ret, LV_UDIV255(premult_c1[2] + LV_COLOR_GET_B(c2) * mix + LV_COLOR_MIX_ROUND_OF
 525:d:\practise\f407_disc\lvgl\lvgl\src\misc\lv_color.h ****     LV_COLOR_SET_A(ret, 0xFF);
 526:d:\practise\f407_disc\lvgl\lvgl\src\misc\lv_color.h **** #else
 527:d:\practise\f407_disc\lvgl\lvgl\src\misc\lv_color.h ****     /*LV_COLOR_DEPTH == 1*/
 528:d:\practise\f407_disc\lvgl\lvgl\src\misc\lv_color.h ****     /*Restore color1*/
 529:d:\practise\f407_disc\lvgl\lvgl\src\misc\lv_color.h ****     lv_color_t c1;
 530:d:\practise\f407_disc\lvgl\lvgl\src\misc\lv_color.h ****     LV_COLOR_SET_R(c1, premult_c1[0]);
 531:d:\practise\f407_disc\lvgl\lvgl\src\misc\lv_color.h ****     LV_COLOR_SET_G(c1, premult_c1[1]);
 532:d:\practise\f407_disc\lvgl\lvgl\src\misc\lv_color.h ****     LV_COLOR_SET_B(c1, premult_c1[2]);
 533:d:\practise\f407_disc\lvgl\lvgl\src\misc\lv_color.h ****     ret.full = mix > LV_OPA_50 ? c2.full : c1.full;
 534:d:\practise\f407_disc\lvgl\lvgl\src\misc\lv_color.h **** #endif
 535:d:\practise\f407_disc\lvgl\lvgl\src\misc\lv_color.h **** 
 536:d:\practise\f407_disc\lvgl\lvgl\src\misc\lv_color.h ****     return ret;
 537:d:\practise\f407_disc\lvgl\lvgl\src\misc\lv_color.h **** }
 538:d:\practise\f407_disc\lvgl\lvgl\src\misc\lv_color.h **** 
 539:d:\practise\f407_disc\lvgl\lvgl\src\misc\lv_color.h **** /**
 540:d:\practise\f407_disc\lvgl\lvgl\src\misc\lv_color.h ****  * Mix two colors. Both color can have alpha value.
 541:d:\practise\f407_disc\lvgl\lvgl\src\misc\lv_color.h ****  * @param bg_color background color
 542:d:\practise\f407_disc\lvgl\lvgl\src\misc\lv_color.h ****  * @param bg_opa alpha of the background color
 543:d:\practise\f407_disc\lvgl\lvgl\src\misc\lv_color.h ****  * @param fg_color foreground color
 544:d:\practise\f407_disc\lvgl\lvgl\src\misc\lv_color.h ****  * @param fg_opa alpha of the foreground color
 545:d:\practise\f407_disc\lvgl\lvgl\src\misc\lv_color.h ****  * @param res_color the result color
 546:d:\practise\f407_disc\lvgl\lvgl\src\misc\lv_color.h ****  * @param res_opa the result opacity
 547:d:\practise\f407_disc\lvgl\lvgl\src\misc\lv_color.h ****  */
 548:d:\practise\f407_disc\lvgl\lvgl\src\misc\lv_color.h **** LV_ATTRIBUTE_FAST_MEM static inline void lv_color_mix_with_alpha(lv_color_t bg_color, lv_opa_t bg_o
 549:d:\practise\f407_disc\lvgl\lvgl\src\misc\lv_color.h ****                                                                  lv_color_t fg_color, lv_opa_t fg_o
 550:d:\practise\f407_disc\lvgl\lvgl\src\misc\lv_color.h ****                                                                  lv_color_t * res_color, lv_opa_t *
 551:d:\practise\f407_disc\lvgl\lvgl\src\misc\lv_color.h **** {
 552:d:\practise\f407_disc\lvgl\lvgl\src\misc\lv_color.h ****     /*Pick the foreground if it's fully opaque or the Background is fully transparent*/
 553:d:\practise\f407_disc\lvgl\lvgl\src\misc\lv_color.h ****     if(fg_opa >= LV_OPA_MAX || bg_opa <= LV_OPA_MIN) {
 554:d:\practise\f407_disc\lvgl\lvgl\src\misc\lv_color.h ****         res_color->full = fg_color.full;
 555:d:\practise\f407_disc\lvgl\lvgl\src\misc\lv_color.h ****         *res_opa = fg_opa;
 556:d:\practise\f407_disc\lvgl\lvgl\src\misc\lv_color.h ****     }
 557:d:\practise\f407_disc\lvgl\lvgl\src\misc\lv_color.h ****     /*Transparent foreground: use the Background*/
 558:d:\practise\f407_disc\lvgl\lvgl\src\misc\lv_color.h ****     else if(fg_opa <= LV_OPA_MIN) {
 559:d:\practise\f407_disc\lvgl\lvgl\src\misc\lv_color.h ****         res_color->full = bg_color.full;
 560:d:\practise\f407_disc\lvgl\lvgl\src\misc\lv_color.h ****         *res_opa = bg_opa;
 561:d:\practise\f407_disc\lvgl\lvgl\src\misc\lv_color.h ****     }
 562:d:\practise\f407_disc\lvgl\lvgl\src\misc\lv_color.h ****     /*Opaque background: use simple mix*/
 563:d:\practise\f407_disc\lvgl\lvgl\src\misc\lv_color.h ****     else if(bg_opa >= LV_OPA_MAX) {
 564:d:\practise\f407_disc\lvgl\lvgl\src\misc\lv_color.h ****         *res_color = lv_color_mix(fg_color, bg_color, fg_opa);
 565:d:\practise\f407_disc\lvgl\lvgl\src\misc\lv_color.h ****         *res_opa = LV_OPA_COVER;
 566:d:\practise\f407_disc\lvgl\lvgl\src\misc\lv_color.h ****     }
 567:d:\practise\f407_disc\lvgl\lvgl\src\misc\lv_color.h ****     /*Both colors have alpha. Expensive calculation need to be applied*/
 568:d:\practise\f407_disc\lvgl\lvgl\src\misc\lv_color.h ****     else {
 569:d:\practise\f407_disc\lvgl\lvgl\src\misc\lv_color.h ****         /*Save the parameters and the result. If they will be asked again don't compute again*/
 570:d:\practise\f407_disc\lvgl\lvgl\src\misc\lv_color.h ****         static lv_opa_t fg_opa_save     = 0;
 571:d:\practise\f407_disc\lvgl\lvgl\src\misc\lv_color.h ****         static lv_opa_t bg_opa_save     = 0;
 572:d:\practise\f407_disc\lvgl\lvgl\src\misc\lv_color.h ****         static lv_color_t fg_color_save = _LV_COLOR_ZERO_INITIALIZER;
ARM GAS  C:\Users\gx\AppData\Local\Temp\ccpJsvWx.s 			page 13


 573:d:\practise\f407_disc\lvgl\lvgl\src\misc\lv_color.h ****         static lv_color_t bg_color_save = _LV_COLOR_ZERO_INITIALIZER;
 574:d:\practise\f407_disc\lvgl\lvgl\src\misc\lv_color.h ****         static lv_color_t res_color_saved = _LV_COLOR_ZERO_INITIALIZER;
 575:d:\practise\f407_disc\lvgl\lvgl\src\misc\lv_color.h ****         static lv_opa_t res_opa_saved = 0;
 576:d:\practise\f407_disc\lvgl\lvgl\src\misc\lv_color.h **** 
 577:d:\practise\f407_disc\lvgl\lvgl\src\misc\lv_color.h ****         if(fg_opa != fg_opa_save || bg_opa != bg_opa_save || fg_color.full != fg_color_save.full ||
 578:d:\practise\f407_disc\lvgl\lvgl\src\misc\lv_color.h ****            bg_color.full != bg_color_save.full) {
 579:d:\practise\f407_disc\lvgl\lvgl\src\misc\lv_color.h ****             fg_opa_save        = fg_opa;
 580:d:\practise\f407_disc\lvgl\lvgl\src\misc\lv_color.h ****             bg_opa_save        = bg_opa;
 581:d:\practise\f407_disc\lvgl\lvgl\src\misc\lv_color.h ****             fg_color_save.full = fg_color.full;
 582:d:\practise\f407_disc\lvgl\lvgl\src\misc\lv_color.h ****             bg_color_save.full = bg_color.full;
 583:d:\practise\f407_disc\lvgl\lvgl\src\misc\lv_color.h ****             /*Info:
 584:d:\practise\f407_disc\lvgl\lvgl\src\misc\lv_color.h ****              * https://en.wikipedia.org/wiki/Alpha_compositing#Analytical_derivation_of_the_over_op
 585:d:\practise\f407_disc\lvgl\lvgl\src\misc\lv_color.h ****             res_opa_saved = 255 - ((uint16_t)((uint16_t)(255 - fg_opa) * (255 - bg_opa)) >> 8);
 586:d:\practise\f407_disc\lvgl\lvgl\src\misc\lv_color.h ****             if(res_opa_saved == 0) {
 587:d:\practise\f407_disc\lvgl\lvgl\src\misc\lv_color.h ****                 while(1)
 588:d:\practise\f407_disc\lvgl\lvgl\src\misc\lv_color.h ****                     ;
 589:d:\practise\f407_disc\lvgl\lvgl\src\misc\lv_color.h ****             }
 590:d:\practise\f407_disc\lvgl\lvgl\src\misc\lv_color.h ****             lv_opa_t ratio = (uint16_t)((uint16_t)fg_opa * 255) / res_opa_saved;
 591:d:\practise\f407_disc\lvgl\lvgl\src\misc\lv_color.h ****             res_color_saved = lv_color_mix(fg_color, bg_color, ratio);
 592:d:\practise\f407_disc\lvgl\lvgl\src\misc\lv_color.h **** 
 593:d:\practise\f407_disc\lvgl\lvgl\src\misc\lv_color.h ****         }
 594:d:\practise\f407_disc\lvgl\lvgl\src\misc\lv_color.h **** 
 595:d:\practise\f407_disc\lvgl\lvgl\src\misc\lv_color.h ****         res_color->full = res_color_saved.full;
 596:d:\practise\f407_disc\lvgl\lvgl\src\misc\lv_color.h ****         *res_opa = res_opa_saved;
 597:d:\practise\f407_disc\lvgl\lvgl\src\misc\lv_color.h ****     }
 598:d:\practise\f407_disc\lvgl\lvgl\src\misc\lv_color.h **** }
 599:d:\practise\f407_disc\lvgl\lvgl\src\misc\lv_color.h **** 
 600:d:\practise\f407_disc\lvgl\lvgl\src\misc\lv_color.h **** //! @endcond
 601:d:\practise\f407_disc\lvgl\lvgl\src\misc\lv_color.h **** 
 602:d:\practise\f407_disc\lvgl\lvgl\src\misc\lv_color.h **** /**
 603:d:\practise\f407_disc\lvgl\lvgl\src\misc\lv_color.h ****  * Get the brightness of a color
 604:d:\practise\f407_disc\lvgl\lvgl\src\misc\lv_color.h ****  * @param color a color
 605:d:\practise\f407_disc\lvgl\lvgl\src\misc\lv_color.h ****  * @return the brightness [0..255]
 606:d:\practise\f407_disc\lvgl\lvgl\src\misc\lv_color.h ****  */
 607:d:\practise\f407_disc\lvgl\lvgl\src\misc\lv_color.h **** static inline uint8_t lv_color_brightness(lv_color_t color)
 608:d:\practise\f407_disc\lvgl\lvgl\src\misc\lv_color.h **** {
 609:d:\practise\f407_disc\lvgl\lvgl\src\misc\lv_color.h ****     lv_color32_t c32;
 610:d:\practise\f407_disc\lvgl\lvgl\src\misc\lv_color.h ****     c32.full        = lv_color_to32(color);
 611:d:\practise\f407_disc\lvgl\lvgl\src\misc\lv_color.h ****     uint16_t bright = (uint16_t)(3u * LV_COLOR_GET_R32(c32) + LV_COLOR_GET_B32(c32) + 4u * LV_COLOR
 612:d:\practise\f407_disc\lvgl\lvgl\src\misc\lv_color.h ****     return (uint8_t)(bright >> 3);
 613:d:\practise\f407_disc\lvgl\lvgl\src\misc\lv_color.h **** }
 614:d:\practise\f407_disc\lvgl\lvgl\src\misc\lv_color.h **** 
 615:d:\practise\f407_disc\lvgl\lvgl\src\misc\lv_color.h **** static inline lv_color_t lv_color_make(uint8_t r, uint8_t g, uint8_t b)
 616:d:\practise\f407_disc\lvgl\lvgl\src\misc\lv_color.h **** {
 617:d:\practise\f407_disc\lvgl\lvgl\src\misc\lv_color.h ****     return _LV_COLOR_MAKE_TYPE_HELPER LV_COLOR_MAKE(r, g, b);
 618:d:\practise\f407_disc\lvgl\lvgl\src\misc\lv_color.h **** }
 619:d:\practise\f407_disc\lvgl\lvgl\src\misc\lv_color.h **** 
 620:d:\practise\f407_disc\lvgl\lvgl\src\misc\lv_color.h **** static inline lv_color_t lv_color_hex(uint32_t c)
 621:d:\practise\f407_disc\lvgl\lvgl\src\misc\lv_color.h **** {
 622:d:\practise\f407_disc\lvgl\lvgl\src\misc\lv_color.h ****     return lv_color_make((uint8_t)((c >> 16) & 0xFF), (uint8_t)((c >> 8) & 0xFF), (uint8_t)(c & 0xF
 623:d:\practise\f407_disc\lvgl\lvgl\src\misc\lv_color.h **** }
 624:d:\practise\f407_disc\lvgl\lvgl\src\misc\lv_color.h **** 
 625:d:\practise\f407_disc\lvgl\lvgl\src\misc\lv_color.h **** static inline lv_color_t lv_color_hex3(uint32_t c)
 626:d:\practise\f407_disc\lvgl\lvgl\src\misc\lv_color.h **** {
 627:d:\practise\f407_disc\lvgl\lvgl\src\misc\lv_color.h ****     return lv_color_make((uint8_t)(((c >> 4) & 0xF0) | ((c >> 8) & 0xF)), (uint8_t)((c & 0xF0) | ((
 628:d:\practise\f407_disc\lvgl\lvgl\src\misc\lv_color.h ****                          (uint8_t)((c & 0xF) | ((c & 0xF) << 4)));
 629:d:\practise\f407_disc\lvgl\lvgl\src\misc\lv_color.h **** }
ARM GAS  C:\Users\gx\AppData\Local\Temp\ccpJsvWx.s 			page 14


 630:d:\practise\f407_disc\lvgl\lvgl\src\misc\lv_color.h **** 
 631:d:\practise\f407_disc\lvgl\lvgl\src\misc\lv_color.h **** static inline void lv_color_filter_dsc_init(lv_color_filter_dsc_t * dsc, lv_color_filter_cb_t cb)
 632:d:\practise\f407_disc\lvgl\lvgl\src\misc\lv_color.h **** {
 633:d:\practise\f407_disc\lvgl\lvgl\src\misc\lv_color.h ****     dsc->filter_cb = cb;
 634:d:\practise\f407_disc\lvgl\lvgl\src\misc\lv_color.h **** }
 635:d:\practise\f407_disc\lvgl\lvgl\src\misc\lv_color.h **** 
 636:d:\practise\f407_disc\lvgl\lvgl\src\misc\lv_color.h **** //! @cond Doxygen_Suppress
 637:d:\practise\f407_disc\lvgl\lvgl\src\misc\lv_color.h **** //!
 638:d:\practise\f407_disc\lvgl\lvgl\src\misc\lv_color.h **** LV_ATTRIBUTE_FAST_MEM void lv_color_fill(lv_color_t * buf, lv_color_t color, uint32_t px_num);
 639:d:\practise\f407_disc\lvgl\lvgl\src\misc\lv_color.h **** 
 640:d:\practise\f407_disc\lvgl\lvgl\src\misc\lv_color.h **** //! @endcond
 641:d:\practise\f407_disc\lvgl\lvgl\src\misc\lv_color.h **** lv_color_t lv_color_lighten(lv_color_t c, lv_opa_t lvl);
 642:d:\practise\f407_disc\lvgl\lvgl\src\misc\lv_color.h **** 
 643:d:\practise\f407_disc\lvgl\lvgl\src\misc\lv_color.h **** lv_color_t lv_color_darken(lv_color_t c, lv_opa_t lvl);
 644:d:\practise\f407_disc\lvgl\lvgl\src\misc\lv_color.h **** 
 645:d:\practise\f407_disc\lvgl\lvgl\src\misc\lv_color.h **** lv_color_t lv_color_change_lightness(lv_color_t c, lv_opa_t lvl);
 646:d:\practise\f407_disc\lvgl\lvgl\src\misc\lv_color.h **** 
 647:d:\practise\f407_disc\lvgl\lvgl\src\misc\lv_color.h **** /**
 648:d:\practise\f407_disc\lvgl\lvgl\src\misc\lv_color.h ****  * Convert a HSV color to RGB
 649:d:\practise\f407_disc\lvgl\lvgl\src\misc\lv_color.h ****  * @param h hue [0..359]
 650:d:\practise\f407_disc\lvgl\lvgl\src\misc\lv_color.h ****  * @param s saturation [0..100]
 651:d:\practise\f407_disc\lvgl\lvgl\src\misc\lv_color.h ****  * @param v value [0..100]
 652:d:\practise\f407_disc\lvgl\lvgl\src\misc\lv_color.h ****  * @return the given RGB color in RGB (with LV_COLOR_DEPTH depth)
 653:d:\practise\f407_disc\lvgl\lvgl\src\misc\lv_color.h ****  */
 654:d:\practise\f407_disc\lvgl\lvgl\src\misc\lv_color.h **** lv_color_t lv_color_hsv_to_rgb(uint16_t h, uint8_t s, uint8_t v);
 655:d:\practise\f407_disc\lvgl\lvgl\src\misc\lv_color.h **** 
 656:d:\practise\f407_disc\lvgl\lvgl\src\misc\lv_color.h **** /**
 657:d:\practise\f407_disc\lvgl\lvgl\src\misc\lv_color.h ****  * Convert a 32-bit RGB color to HSV
 658:d:\practise\f407_disc\lvgl\lvgl\src\misc\lv_color.h ****  * @param r8 8-bit red
 659:d:\practise\f407_disc\lvgl\lvgl\src\misc\lv_color.h ****  * @param g8 8-bit green
 660:d:\practise\f407_disc\lvgl\lvgl\src\misc\lv_color.h ****  * @param b8 8-bit blue
 661:d:\practise\f407_disc\lvgl\lvgl\src\misc\lv_color.h ****  * @return the given RGB color in HSV
 662:d:\practise\f407_disc\lvgl\lvgl\src\misc\lv_color.h ****  */
 663:d:\practise\f407_disc\lvgl\lvgl\src\misc\lv_color.h **** lv_color_hsv_t lv_color_rgb_to_hsv(uint8_t r8, uint8_t g8, uint8_t b8);
 664:d:\practise\f407_disc\lvgl\lvgl\src\misc\lv_color.h **** 
 665:d:\practise\f407_disc\lvgl\lvgl\src\misc\lv_color.h **** /**
 666:d:\practise\f407_disc\lvgl\lvgl\src\misc\lv_color.h ****  * Convert a color to HSV
 667:d:\practise\f407_disc\lvgl\lvgl\src\misc\lv_color.h ****  * @param color color
 668:d:\practise\f407_disc\lvgl\lvgl\src\misc\lv_color.h ****  * @return the given color in HSV
 669:d:\practise\f407_disc\lvgl\lvgl\src\misc\lv_color.h ****  */
 670:d:\practise\f407_disc\lvgl\lvgl\src\misc\lv_color.h **** lv_color_hsv_t lv_color_to_hsv(lv_color_t color);
 671:d:\practise\f407_disc\lvgl\lvgl\src\misc\lv_color.h **** 
 672:d:\practise\f407_disc\lvgl\lvgl\src\misc\lv_color.h **** /**
 673:d:\practise\f407_disc\lvgl\lvgl\src\misc\lv_color.h ****  * Just a wrapper around LV_COLOR_CHROMA_KEY because it might be more convenient to use a function 
 674:d:\practise\f407_disc\lvgl\lvgl\src\misc\lv_color.h ****  * @return LV_COLOR_CHROMA_KEY
 675:d:\practise\f407_disc\lvgl\lvgl\src\misc\lv_color.h ****  */
 676:d:\practise\f407_disc\lvgl\lvgl\src\misc\lv_color.h **** static inline lv_color_t lv_color_chroma_key(void)
 677:d:\practise\f407_disc\lvgl\lvgl\src\misc\lv_color.h **** {
 678:d:\practise\f407_disc\lvgl\lvgl\src\misc\lv_color.h ****     return LV_COLOR_CHROMA_KEY;
 679:d:\practise\f407_disc\lvgl\lvgl\src\misc\lv_color.h **** }
 680:d:\practise\f407_disc\lvgl\lvgl\src\misc\lv_color.h **** 
 681:d:\practise\f407_disc\lvgl\lvgl\src\misc\lv_color.h **** /**********************
 682:d:\practise\f407_disc\lvgl\lvgl\src\misc\lv_color.h ****  *  PREDEFINED COLORS
 683:d:\practise\f407_disc\lvgl\lvgl\src\misc\lv_color.h ****  **********************/
 684:d:\practise\f407_disc\lvgl\lvgl\src\misc\lv_color.h **** /*Source: https://vuetifyjs.com/en/styles/colors/#material-colors*/
 685:d:\practise\f407_disc\lvgl\lvgl\src\misc\lv_color.h **** 
 686:d:\practise\f407_disc\lvgl\lvgl\src\misc\lv_color.h **** lv_color_t lv_palette_main(lv_palette_t p);
ARM GAS  C:\Users\gx\AppData\Local\Temp\ccpJsvWx.s 			page 15


 687:d:\practise\f407_disc\lvgl\lvgl\src\misc\lv_color.h **** static inline lv_color_t lv_color_white(void) { return lv_color_make(0xff, 0xff, 0xff);}
  39              		.loc 2 687 26 view .LVU3
  40              	.LBE24:
  41              		.loc 2 687 49 view .LVU4
  42              	.LBB27:
  43              	.LBB25:
  44              	.LBI25:
 615:d:\practise\f407_disc\lvgl\lvgl\src\misc\lv_color.h **** {
  45              		.loc 2 615 26 view .LVU5
  46              	.LBB26:
 617:d:\practise\f407_disc\lvgl\lvgl\src\misc\lv_color.h **** }
  47              		.loc 2 617 5 view .LVU6
 617:d:\practise\f407_disc\lvgl\lvgl\src\misc\lv_color.h **** }
  48              		.loc 2 617 5 is_stmt 0 view .LVU7
  49              	.LBE26:
  50              	.LBE25:
  51              	.LBE27:
  52              	.LBB28:
  53              	.LBI28:
 459:d:\practise\f407_disc\lvgl\lvgl\src\misc\lv_color.h **** {
  54              		.loc 2 459 48 is_stmt 1 view .LVU8
  55              	.LBB29:
 461:d:\practise\f407_disc\lvgl\lvgl\src\misc\lv_color.h **** 
  56              		.loc 2 461 5 view .LVU9
 465:d:\practise\f407_disc\lvgl\lvgl\src\misc\lv_color.h ****     uint32_t bg = (uint32_t)((uint32_t)c2.full | ((uint32_t)c2.full << 16)) & 0x7E0F81F; /*0b000001
  57              		.loc 2 465 5 view .LVU10
 465:d:\practise\f407_disc\lvgl\lvgl\src\misc\lv_color.h ****     uint32_t bg = (uint32_t)((uint32_t)c2.full | ((uint32_t)c2.full << 16)) & 0x7E0F81F; /*0b000001
  58              		.loc 2 465 17 is_stmt 0 view .LVU11
  59 0000 0432     		adds	r2, r2, #4
  60              	.LVL1:
 466:d:\practise\f407_disc\lvgl\lvgl\src\misc\lv_color.h ****     uint32_t fg = (uint32_t)((uint32_t)c1.full | (uint32_t)(c1.full << 16)) & 0x7E0F81F;
  61              		.loc 2 466 5 is_stmt 1 view .LVU12
 466:d:\practise\f407_disc\lvgl\lvgl\src\misc\lv_color.h ****     uint32_t fg = (uint32_t)((uint32_t)c1.full | (uint32_t)(c1.full << 16)) & 0x7E0F81F;
  62              		.loc 2 466 42 is_stmt 0 view .LVU13
  63 0002 8BB2     		uxth	r3, r1
 466:d:\practise\f407_disc\lvgl\lvgl\src\misc\lv_color.h ****     uint32_t fg = (uint32_t)((uint32_t)c1.full | (uint32_t)(c1.full << 16)) & 0x7E0F81F;
  64              		.loc 2 466 19 view .LVU14
  65 0004 43EA0141 		orr	r1, r3, r1, lsl #16
  66              	.LVL2:
 466:d:\practise\f407_disc\lvgl\lvgl\src\misc\lv_color.h ****     uint32_t fg = (uint32_t)((uint32_t)c1.full | (uint32_t)(c1.full << 16)) & 0x7E0F81F;
  67              		.loc 2 466 14 view .LVU15
  68 0008 074B     		ldr	r3, .L2
  69 000a 01EA0300 		and	r0, r1, r3
  70              	.LVL3:
 467:d:\practise\f407_disc\lvgl\lvgl\src\misc\lv_color.h ****     uint32_t result = ((((fg - bg) * mix) >> 5) + bg) & 0x7E0F81F;
  71              		.loc 2 467 5 is_stmt 1 view .LVU16
 468:d:\practise\f407_disc\lvgl\lvgl\src\misc\lv_color.h ****     ret.full = (uint16_t)((result >> 16) | result);
  72              		.loc 2 468 5 view .LVU17
 468:d:\practise\f407_disc\lvgl\lvgl\src\misc\lv_color.h ****     ret.full = (uint16_t)((result >> 16) | result);
  73              		.loc 2 468 30 is_stmt 0 view .LVU18
  74 000e 23EA0101 		bic	r1, r3, r1
 468:d:\practise\f407_disc\lvgl\lvgl\src\misc\lv_color.h ****     ret.full = (uint16_t)((result >> 16) | result);
  75              		.loc 2 468 36 view .LVU19
  76 0012 D208     		lsrs	r2, r2, #3
  77              	.LVL4:
 468:d:\practise\f407_disc\lvgl\lvgl\src\misc\lv_color.h ****     ret.full = (uint16_t)((result >> 16) | result);
  78              		.loc 2 468 36 view .LVU20
ARM GAS  C:\Users\gx\AppData\Local\Temp\ccpJsvWx.s 			page 16


  79 0014 01FB02F1 		mul	r1, r1, r2
 468:d:\practise\f407_disc\lvgl\lvgl\src\misc\lv_color.h ****     ret.full = (uint16_t)((result >> 16) | result);
  80              		.loc 2 468 49 view .LVU21
  81 0018 00EB5111 		add	r1, r0, r1, lsr #5
 468:d:\practise\f407_disc\lvgl\lvgl\src\misc\lv_color.h ****     ret.full = (uint16_t)((result >> 16) | result);
  82              		.loc 2 468 14 view .LVU22
  83 001c 01EA0300 		and	r0, r1, r3
  84              	.LVL5:
 469:d:\practise\f407_disc\lvgl\lvgl\src\misc\lv_color.h **** #elif LV_COLOR_DEPTH != 1
  85              		.loc 2 469 5 is_stmt 1 view .LVU23
 484:d:\practise\f407_disc\lvgl\lvgl\src\misc\lv_color.h **** }
  86              		.loc 2 484 5 view .LVU24
 484:d:\practise\f407_disc\lvgl\lvgl\src\misc\lv_color.h **** }
  87              		.loc 2 484 5 is_stmt 0 view .LVU25
  88              	.LBE29:
  89              	.LBE28:
  76:lvgl/lvgl/src/extra/themes/basic/lv_theme_basic.c **** }
  90              		.loc 1 76 1 view .LVU26
  91 0020 40EA1040 		orr	r0, r0, r0, lsr #16
  92 0024 7047     		bx	lr
  93              	.L3:
  94 0026 00BF     		.align	2
  95              	.L2:
  96 0028 1FF8E007 		.word	132184095
  97              		.cfi_endproc
  98              	.LFE190:
 100              		.section	.text.theme_apply,"ax",%progbits
 101              		.align	1
 102              		.syntax unified
 103              		.thumb
 104              		.thumb_func
 105              		.fpu fpv4-sp-d16
 107              	theme_apply:
 108              	.LVL6:
 109              	.LFB193:
  77:lvgl/lvgl/src/extra/themes/basic/lv_theme_basic.c **** 
  78:lvgl/lvgl/src/extra/themes/basic/lv_theme_basic.c **** static void style_init(void)
  79:lvgl/lvgl/src/extra/themes/basic/lv_theme_basic.c **** {
  80:lvgl/lvgl/src/extra/themes/basic/lv_theme_basic.c ****     style_init_reset(&styles->scrollbar);
  81:lvgl/lvgl/src/extra/themes/basic/lv_theme_basic.c ****     lv_style_set_bg_opa(&styles->scrollbar, LV_OPA_COVER);
  82:lvgl/lvgl/src/extra/themes/basic/lv_theme_basic.c ****     lv_style_set_bg_color(&styles->scrollbar, lv_palette_darken(LV_PALETTE_GREY, 2));
  83:lvgl/lvgl/src/extra/themes/basic/lv_theme_basic.c ****     lv_style_set_width(&styles->scrollbar,  PAD_DEF);
  84:lvgl/lvgl/src/extra/themes/basic/lv_theme_basic.c **** 
  85:lvgl/lvgl/src/extra/themes/basic/lv_theme_basic.c ****     style_init_reset(&styles->scr);
  86:lvgl/lvgl/src/extra/themes/basic/lv_theme_basic.c ****     lv_style_set_bg_opa(&styles->scr, LV_OPA_COVER);
  87:lvgl/lvgl/src/extra/themes/basic/lv_theme_basic.c ****     lv_style_set_bg_color(&styles->scr, COLOR_WHITE);
  88:lvgl/lvgl/src/extra/themes/basic/lv_theme_basic.c ****     lv_style_set_text_color(&styles->scr, COLOR_DIM);
  89:lvgl/lvgl/src/extra/themes/basic/lv_theme_basic.c ****     lv_style_set_pad_row(&styles->scr, PAD_DEF / 2);
  90:lvgl/lvgl/src/extra/themes/basic/lv_theme_basic.c ****     lv_style_set_pad_column(&styles->scr, PAD_DEF / 2);
  91:lvgl/lvgl/src/extra/themes/basic/lv_theme_basic.c **** 
  92:lvgl/lvgl/src/extra/themes/basic/lv_theme_basic.c ****     style_init_reset(&styles->light);
  93:lvgl/lvgl/src/extra/themes/basic/lv_theme_basic.c ****     lv_style_set_bg_opa(&styles->light, LV_OPA_COVER);
  94:lvgl/lvgl/src/extra/themes/basic/lv_theme_basic.c ****     lv_style_set_bg_color(&styles->light, COLOR_LIGHT);
  95:lvgl/lvgl/src/extra/themes/basic/lv_theme_basic.c ****     lv_style_set_border_color(&styles->light, COLOR_MID);
  96:lvgl/lvgl/src/extra/themes/basic/lv_theme_basic.c ****     lv_style_set_border_width(&styles->light, 1);
  97:lvgl/lvgl/src/extra/themes/basic/lv_theme_basic.c ****     lv_style_set_pad_all(&styles->light, PAD_DEF);
  98:lvgl/lvgl/src/extra/themes/basic/lv_theme_basic.c ****     lv_style_set_pad_gap(&styles->light, PAD_DEF / 2);
ARM GAS  C:\Users\gx\AppData\Local\Temp\ccpJsvWx.s 			page 17


  99:lvgl/lvgl/src/extra/themes/basic/lv_theme_basic.c ****     lv_style_set_line_width(&styles->light, LV_DPX(2));
 100:lvgl/lvgl/src/extra/themes/basic/lv_theme_basic.c ****     lv_style_set_line_color(&styles->light, COLOR_MID);
 101:lvgl/lvgl/src/extra/themes/basic/lv_theme_basic.c ****     lv_style_set_arc_width(&styles->light, LV_DPX(2));
 102:lvgl/lvgl/src/extra/themes/basic/lv_theme_basic.c ****     lv_style_set_arc_color(&styles->light, COLOR_MID);
 103:lvgl/lvgl/src/extra/themes/basic/lv_theme_basic.c **** 
 104:lvgl/lvgl/src/extra/themes/basic/lv_theme_basic.c ****     style_init_reset(&styles->dark);
 105:lvgl/lvgl/src/extra/themes/basic/lv_theme_basic.c ****     lv_style_set_bg_opa(&styles->dark, LV_OPA_COVER);
 106:lvgl/lvgl/src/extra/themes/basic/lv_theme_basic.c ****     lv_style_set_bg_color(&styles->dark, COLOR_DARK);
 107:lvgl/lvgl/src/extra/themes/basic/lv_theme_basic.c ****     lv_style_set_border_color(&styles->dark, COLOR_DIM);
 108:lvgl/lvgl/src/extra/themes/basic/lv_theme_basic.c ****     lv_style_set_border_width(&styles->dark, 1);
 109:lvgl/lvgl/src/extra/themes/basic/lv_theme_basic.c ****     lv_style_set_pad_all(&styles->dark, PAD_DEF);
 110:lvgl/lvgl/src/extra/themes/basic/lv_theme_basic.c ****     lv_style_set_pad_gap(&styles->dark, PAD_DEF / 2);
 111:lvgl/lvgl/src/extra/themes/basic/lv_theme_basic.c ****     lv_style_set_line_width(&styles->dark, LV_DPX(2));
 112:lvgl/lvgl/src/extra/themes/basic/lv_theme_basic.c ****     lv_style_set_line_color(&styles->dark, COLOR_DIM);
 113:lvgl/lvgl/src/extra/themes/basic/lv_theme_basic.c ****     lv_style_set_arc_width(&styles->dark, LV_DPX(2));
 114:lvgl/lvgl/src/extra/themes/basic/lv_theme_basic.c ****     lv_style_set_arc_color(&styles->dark, COLOR_DIM);
 115:lvgl/lvgl/src/extra/themes/basic/lv_theme_basic.c **** 
 116:lvgl/lvgl/src/extra/themes/basic/lv_theme_basic.c ****     static lv_color_filter_dsc_t dark_filter;
 117:lvgl/lvgl/src/extra/themes/basic/lv_theme_basic.c ****     lv_color_filter_dsc_init(&dark_filter, dark_color_filter_cb);
 118:lvgl/lvgl/src/extra/themes/basic/lv_theme_basic.c **** 
 119:lvgl/lvgl/src/extra/themes/basic/lv_theme_basic.c ****     style_init_reset(&styles->pressed);
 120:lvgl/lvgl/src/extra/themes/basic/lv_theme_basic.c ****     lv_style_set_color_filter_dsc(&styles->pressed, &dark_filter);
 121:lvgl/lvgl/src/extra/themes/basic/lv_theme_basic.c ****     lv_style_set_color_filter_opa(&styles->pressed, 35);
 122:lvgl/lvgl/src/extra/themes/basic/lv_theme_basic.c **** 
 123:lvgl/lvgl/src/extra/themes/basic/lv_theme_basic.c ****     static lv_color_filter_dsc_t grey_filter;
 124:lvgl/lvgl/src/extra/themes/basic/lv_theme_basic.c ****     lv_color_filter_dsc_init(&grey_filter, grey_filter_cb);
 125:lvgl/lvgl/src/extra/themes/basic/lv_theme_basic.c **** 
 126:lvgl/lvgl/src/extra/themes/basic/lv_theme_basic.c ****     style_init_reset(&styles->disabled);
 127:lvgl/lvgl/src/extra/themes/basic/lv_theme_basic.c ****     lv_style_set_color_filter_dsc(&styles->disabled, &grey_filter);
 128:lvgl/lvgl/src/extra/themes/basic/lv_theme_basic.c ****     lv_style_set_color_filter_opa(&styles->disabled, LV_OPA_70);
 129:lvgl/lvgl/src/extra/themes/basic/lv_theme_basic.c **** 
 130:lvgl/lvgl/src/extra/themes/basic/lv_theme_basic.c ****     style_init_reset(&styles->pad_zero);
 131:lvgl/lvgl/src/extra/themes/basic/lv_theme_basic.c ****     lv_style_set_pad_all(&styles->pad_zero, 0);
 132:lvgl/lvgl/src/extra/themes/basic/lv_theme_basic.c ****     lv_style_set_pad_gap(&styles->pad_zero, 0);
 133:lvgl/lvgl/src/extra/themes/basic/lv_theme_basic.c **** 
 134:lvgl/lvgl/src/extra/themes/basic/lv_theme_basic.c **** #if LV_USE_TEXTAREA
 135:lvgl/lvgl/src/extra/themes/basic/lv_theme_basic.c ****     style_init_reset(&styles->ta_cursor);
 136:lvgl/lvgl/src/extra/themes/basic/lv_theme_basic.c ****     lv_style_set_border_side(&styles->ta_cursor, LV_BORDER_SIDE_LEFT);
 137:lvgl/lvgl/src/extra/themes/basic/lv_theme_basic.c ****     lv_style_set_border_color(&styles->ta_cursor, COLOR_DIM);
 138:lvgl/lvgl/src/extra/themes/basic/lv_theme_basic.c ****     lv_style_set_border_width(&styles->ta_cursor, 2);
 139:lvgl/lvgl/src/extra/themes/basic/lv_theme_basic.c ****     lv_style_set_bg_opa(&styles->ta_cursor, LV_OPA_TRANSP);
 140:lvgl/lvgl/src/extra/themes/basic/lv_theme_basic.c ****     lv_style_set_anim_time(&styles->ta_cursor, 500);
 141:lvgl/lvgl/src/extra/themes/basic/lv_theme_basic.c **** #endif
 142:lvgl/lvgl/src/extra/themes/basic/lv_theme_basic.c **** }
 143:lvgl/lvgl/src/extra/themes/basic/lv_theme_basic.c **** 
 144:lvgl/lvgl/src/extra/themes/basic/lv_theme_basic.c **** 
 145:lvgl/lvgl/src/extra/themes/basic/lv_theme_basic.c **** /**********************
 146:lvgl/lvgl/src/extra/themes/basic/lv_theme_basic.c ****  *   GLOBAL FUNCTIONS
 147:lvgl/lvgl/src/extra/themes/basic/lv_theme_basic.c ****  **********************/
 148:lvgl/lvgl/src/extra/themes/basic/lv_theme_basic.c **** 
 149:lvgl/lvgl/src/extra/themes/basic/lv_theme_basic.c **** lv_theme_t * lv_theme_basic_init(lv_disp_t * disp)
 150:lvgl/lvgl/src/extra/themes/basic/lv_theme_basic.c **** {
 151:lvgl/lvgl/src/extra/themes/basic/lv_theme_basic.c **** 
 152:lvgl/lvgl/src/extra/themes/basic/lv_theme_basic.c ****     /*This trick is required only to avoid the garbage collection of
 153:lvgl/lvgl/src/extra/themes/basic/lv_theme_basic.c ****      *styles' data if LVGL is used in a binding (e.g. Micropython)
 154:lvgl/lvgl/src/extra/themes/basic/lv_theme_basic.c ****      *In a general case styles could be in simple `static lv_style_t my_style...` variables*/
 155:lvgl/lvgl/src/extra/themes/basic/lv_theme_basic.c ****     if(!inited) {
ARM GAS  C:\Users\gx\AppData\Local\Temp\ccpJsvWx.s 			page 18


 156:lvgl/lvgl/src/extra/themes/basic/lv_theme_basic.c ****         LV_GC_ROOT(_lv_theme_default_styles) = lv_mem_alloc(sizeof(my_theme_styles_t));
 157:lvgl/lvgl/src/extra/themes/basic/lv_theme_basic.c ****         styles = (my_theme_styles_t *)LV_GC_ROOT(_lv_theme_default_styles);
 158:lvgl/lvgl/src/extra/themes/basic/lv_theme_basic.c ****     }
 159:lvgl/lvgl/src/extra/themes/basic/lv_theme_basic.c **** 
 160:lvgl/lvgl/src/extra/themes/basic/lv_theme_basic.c ****     theme.disp = disp;
 161:lvgl/lvgl/src/extra/themes/basic/lv_theme_basic.c ****     theme.font_small = LV_FONT_DEFAULT;
 162:lvgl/lvgl/src/extra/themes/basic/lv_theme_basic.c ****     theme.font_normal = LV_FONT_DEFAULT;
 163:lvgl/lvgl/src/extra/themes/basic/lv_theme_basic.c ****     theme.font_large = LV_FONT_DEFAULT;
 164:lvgl/lvgl/src/extra/themes/basic/lv_theme_basic.c ****     theme.apply_cb = theme_apply;
 165:lvgl/lvgl/src/extra/themes/basic/lv_theme_basic.c **** 
 166:lvgl/lvgl/src/extra/themes/basic/lv_theme_basic.c ****     style_init();
 167:lvgl/lvgl/src/extra/themes/basic/lv_theme_basic.c **** 
 168:lvgl/lvgl/src/extra/themes/basic/lv_theme_basic.c ****     inited = true;
 169:lvgl/lvgl/src/extra/themes/basic/lv_theme_basic.c **** 
 170:lvgl/lvgl/src/extra/themes/basic/lv_theme_basic.c ****     if(disp == NULL || lv_disp_get_theme(disp) == &theme) lv_obj_report_style_change(NULL);
 171:lvgl/lvgl/src/extra/themes/basic/lv_theme_basic.c **** 
 172:lvgl/lvgl/src/extra/themes/basic/lv_theme_basic.c ****     return (lv_theme_t *)&theme;
 173:lvgl/lvgl/src/extra/themes/basic/lv_theme_basic.c **** }
 174:lvgl/lvgl/src/extra/themes/basic/lv_theme_basic.c **** 
 175:lvgl/lvgl/src/extra/themes/basic/lv_theme_basic.c **** 
 176:lvgl/lvgl/src/extra/themes/basic/lv_theme_basic.c **** static void theme_apply(lv_theme_t * th, lv_obj_t * obj)
 177:lvgl/lvgl/src/extra/themes/basic/lv_theme_basic.c **** {
 110              		.loc 1 177 1 is_stmt 1 view -0
 111              		.cfi_startproc
 112              		@ args = 0, pretend = 0, frame = 0
 113              		@ frame_needed = 0, uses_anonymous_args = 0
 114              		.loc 1 177 1 is_stmt 0 view .LVU28
 115 0000 70B5     		push	{r4, r5, r6, lr}
 116              	.LCFI0:
 117              		.cfi_def_cfa_offset 16
 118              		.cfi_offset 4, -16
 119              		.cfi_offset 5, -12
 120              		.cfi_offset 6, -8
 121              		.cfi_offset 14, -4
 122 0002 0C46     		mov	r4, r1
 178:lvgl/lvgl/src/extra/themes/basic/lv_theme_basic.c ****     LV_UNUSED(th);
 123              		.loc 1 178 5 is_stmt 1 view .LVU29
 179:lvgl/lvgl/src/extra/themes/basic/lv_theme_basic.c **** 
 180:lvgl/lvgl/src/extra/themes/basic/lv_theme_basic.c ****     if(lv_obj_get_parent(obj) == NULL) {
 124              		.loc 1 180 5 view .LVU30
 125              		.loc 1 180 8 is_stmt 0 view .LVU31
 126 0004 0846     		mov	r0, r1
 127              	.LVL7:
 128              		.loc 1 180 8 view .LVU32
 129 0006 FFF7FEFF 		bl	lv_obj_get_parent
 130              	.LVL8:
 131              		.loc 1 180 7 view .LVU33
 132 000a 0028     		cmp	r0, #0
 133 000c 36D0     		beq	.L38
 181:lvgl/lvgl/src/extra/themes/basic/lv_theme_basic.c ****         lv_obj_add_style(obj, &styles->scr, 0);
 182:lvgl/lvgl/src/extra/themes/basic/lv_theme_basic.c ****         lv_obj_add_style(obj, &styles->scrollbar, LV_PART_SCROLLBAR);
 183:lvgl/lvgl/src/extra/themes/basic/lv_theme_basic.c ****         return;
 184:lvgl/lvgl/src/extra/themes/basic/lv_theme_basic.c ****     }
 185:lvgl/lvgl/src/extra/themes/basic/lv_theme_basic.c **** 
 186:lvgl/lvgl/src/extra/themes/basic/lv_theme_basic.c ****     if(lv_obj_check_type(obj, &lv_obj_class)) {
 134              		.loc 1 186 5 is_stmt 1 view .LVU34
 135              		.loc 1 186 8 is_stmt 0 view .LVU35
ARM GAS  C:\Users\gx\AppData\Local\Temp\ccpJsvWx.s 			page 19


 136 000e BD49     		ldr	r1, .L47
 137 0010 2046     		mov	r0, r4
 138 0012 FFF7FEFF 		bl	lv_obj_check_type
 139              	.LVL9:
 140              		.loc 1 186 7 view .LVU36
 141 0016 0028     		cmp	r0, #0
 142 0018 74D0     		beq	.L7
 143              	.LBB30:
 187:lvgl/lvgl/src/extra/themes/basic/lv_theme_basic.c **** #if LV_USE_TABVIEW
 188:lvgl/lvgl/src/extra/themes/basic/lv_theme_basic.c ****         lv_obj_t * parent = lv_obj_get_parent(obj);
 144              		.loc 1 188 9 is_stmt 1 view .LVU37
 145              		.loc 1 188 29 is_stmt 0 view .LVU38
 146 001a 2046     		mov	r0, r4
 147 001c FFF7FEFF 		bl	lv_obj_get_parent
 148              	.LVL10:
 149 0020 0546     		mov	r5, r0
 150              	.LVL11:
 189:lvgl/lvgl/src/extra/themes/basic/lv_theme_basic.c ****         /*Tabview content area*/
 190:lvgl/lvgl/src/extra/themes/basic/lv_theme_basic.c ****         if(lv_obj_check_type(parent, &lv_tabview_class)) {
 151              		.loc 1 190 9 is_stmt 1 view .LVU39
 152              		.loc 1 190 12 is_stmt 0 view .LVU40
 153 0022 B949     		ldr	r1, .L47+4
 154 0024 FFF7FEFF 		bl	lv_obj_check_type
 155              	.LVL12:
 156              		.loc 1 190 11 view .LVU41
 157 0028 0028     		cmp	r0, #0
 158 002a 35D1     		bne	.L39
 191:lvgl/lvgl/src/extra/themes/basic/lv_theme_basic.c ****             lv_obj_add_style(obj, &styles->light, 0);
 192:lvgl/lvgl/src/extra/themes/basic/lv_theme_basic.c ****             return;
 193:lvgl/lvgl/src/extra/themes/basic/lv_theme_basic.c ****         }
 194:lvgl/lvgl/src/extra/themes/basic/lv_theme_basic.c ****         /*Tabview pages*/
 195:lvgl/lvgl/src/extra/themes/basic/lv_theme_basic.c ****         else if(lv_obj_check_type(lv_obj_get_parent(parent), &lv_tabview_class)) {
 159              		.loc 1 195 14 is_stmt 1 view .LVU42
 160              		.loc 1 195 35 is_stmt 0 view .LVU43
 161 002c 2846     		mov	r0, r5
 162 002e FFF7FEFF 		bl	lv_obj_get_parent
 163              	.LVL13:
 164              		.loc 1 195 17 view .LVU44
 165 0032 B549     		ldr	r1, .L47+4
 166 0034 FFF7FEFF 		bl	lv_obj_check_type
 167              	.LVL14:
 168              		.loc 1 195 16 view .LVU45
 169 0038 0028     		cmp	r0, #0
 170 003a 35D1     		bne	.L40
 196:lvgl/lvgl/src/extra/themes/basic/lv_theme_basic.c ****             lv_obj_add_style(obj, &styles->light, 0);
 197:lvgl/lvgl/src/extra/themes/basic/lv_theme_basic.c ****             lv_obj_add_style(obj, &styles->scrollbar, LV_PART_SCROLLBAR);
 198:lvgl/lvgl/src/extra/themes/basic/lv_theme_basic.c ****             return;
 199:lvgl/lvgl/src/extra/themes/basic/lv_theme_basic.c ****         }
 200:lvgl/lvgl/src/extra/themes/basic/lv_theme_basic.c **** #endif
 201:lvgl/lvgl/src/extra/themes/basic/lv_theme_basic.c **** 
 202:lvgl/lvgl/src/extra/themes/basic/lv_theme_basic.c **** #if LV_USE_WIN
 203:lvgl/lvgl/src/extra/themes/basic/lv_theme_basic.c ****         /*Header*/
 204:lvgl/lvgl/src/extra/themes/basic/lv_theme_basic.c ****         if(lv_obj_get_child_id(obj) == 0 && lv_obj_check_type(lv_obj_get_parent(obj), &lv_win_class
 171              		.loc 1 204 9 is_stmt 1 view .LVU46
 172              		.loc 1 204 12 is_stmt 0 view .LVU47
 173 003c 2046     		mov	r0, r4
 174 003e FFF7FEFF 		bl	lv_obj_get_child_id
ARM GAS  C:\Users\gx\AppData\Local\Temp\ccpJsvWx.s 			page 20


 175              	.LVL15:
 176              		.loc 1 204 11 view .LVU48
 177 0042 38B9     		cbnz	r0, .L10
 178              		.loc 1 204 63 discriminator 1 view .LVU49
 179 0044 2046     		mov	r0, r4
 180 0046 FFF7FEFF 		bl	lv_obj_get_parent
 181              	.LVL16:
 182              		.loc 1 204 45 discriminator 1 view .LVU50
 183 004a B049     		ldr	r1, .L47+8
 184 004c FFF7FEFF 		bl	lv_obj_check_type
 185              	.LVL17:
 186              		.loc 1 204 42 discriminator 1 view .LVU51
 187 0050 0028     		cmp	r0, #0
 188 0052 38D1     		bne	.L41
 189              	.L10:
 205:lvgl/lvgl/src/extra/themes/basic/lv_theme_basic.c ****             lv_obj_add_style(obj, &styles->light, 0);
 206:lvgl/lvgl/src/extra/themes/basic/lv_theme_basic.c ****             return;
 207:lvgl/lvgl/src/extra/themes/basic/lv_theme_basic.c ****         }
 208:lvgl/lvgl/src/extra/themes/basic/lv_theme_basic.c ****         /*Content*/
 209:lvgl/lvgl/src/extra/themes/basic/lv_theme_basic.c ****         else if(lv_obj_get_child_id(obj) == 1 && lv_obj_check_type(lv_obj_get_parent(obj), &lv_win_
 190              		.loc 1 209 14 is_stmt 1 view .LVU52
 191              		.loc 1 209 17 is_stmt 0 view .LVU53
 192 0054 2046     		mov	r0, r4
 193 0056 FFF7FEFF 		bl	lv_obj_get_child_id
 194              	.LVL18:
 195              		.loc 1 209 16 view .LVU54
 196 005a 0128     		cmp	r0, #1
 197 005c 3BD0     		beq	.L42
 198              	.L11:
 210:lvgl/lvgl/src/extra/themes/basic/lv_theme_basic.c ****             lv_obj_add_style(obj, &styles->light, 0);
 211:lvgl/lvgl/src/extra/themes/basic/lv_theme_basic.c ****             lv_obj_add_style(obj, &styles->scrollbar, LV_PART_SCROLLBAR);
 212:lvgl/lvgl/src/extra/themes/basic/lv_theme_basic.c ****             return;
 213:lvgl/lvgl/src/extra/themes/basic/lv_theme_basic.c ****         }
 214:lvgl/lvgl/src/extra/themes/basic/lv_theme_basic.c **** #endif
 215:lvgl/lvgl/src/extra/themes/basic/lv_theme_basic.c ****         lv_obj_add_style(obj, &styles->light, 0);
 199              		.loc 1 215 9 is_stmt 1 view .LVU55
 200              		.loc 1 215 38 is_stmt 0 view .LVU56
 201 005e AC4D     		ldr	r5, .L47+12
 202              	.LVL19:
 203              		.loc 1 215 38 view .LVU57
 204 0060 2968     		ldr	r1, [r5]
 205              		.loc 1 215 9 view .LVU58
 206 0062 0022     		movs	r2, #0
 207 0064 0831     		adds	r1, r1, #8
 208 0066 2046     		mov	r0, r4
 209 0068 FFF7FEFF 		bl	lv_obj_add_style
 210              	.LVL20:
 216:lvgl/lvgl/src/extra/themes/basic/lv_theme_basic.c ****         lv_obj_add_style(obj, &styles->scrollbar, LV_PART_SCROLLBAR);
 211              		.loc 1 216 9 is_stmt 1 view .LVU59
 212              		.loc 1 216 38 is_stmt 0 view .LVU60
 213 006c 2968     		ldr	r1, [r5]
 214              		.loc 1 216 9 view .LVU61
 215 006e 4FF48032 		mov	r2, #65536
 216 0072 1831     		adds	r1, r1, #24
 217 0074 2046     		mov	r0, r4
 218 0076 FFF7FEFF 		bl	lv_obj_add_style
 219              	.LVL21:
ARM GAS  C:\Users\gx\AppData\Local\Temp\ccpJsvWx.s 			page 21


 220              	.LBE30:
 221 007a 5BE0     		b	.L4
 222              	.L38:
 181:lvgl/lvgl/src/extra/themes/basic/lv_theme_basic.c ****         lv_obj_add_style(obj, &styles->scrollbar, LV_PART_SCROLLBAR);
 223              		.loc 1 181 9 is_stmt 1 view .LVU62
 181:lvgl/lvgl/src/extra/themes/basic/lv_theme_basic.c ****         lv_obj_add_style(obj, &styles->scrollbar, LV_PART_SCROLLBAR);
 224              		.loc 1 181 38 is_stmt 0 view .LVU63
 225 007c A44D     		ldr	r5, .L47+12
 181:lvgl/lvgl/src/extra/themes/basic/lv_theme_basic.c ****         lv_obj_add_style(obj, &styles->scrollbar, LV_PART_SCROLLBAR);
 226              		.loc 1 181 9 view .LVU64
 227 007e 0022     		movs	r2, #0
 228 0080 2968     		ldr	r1, [r5]
 229 0082 2046     		mov	r0, r4
 230 0084 FFF7FEFF 		bl	lv_obj_add_style
 231              	.LVL22:
 182:lvgl/lvgl/src/extra/themes/basic/lv_theme_basic.c ****         return;
 232              		.loc 1 182 9 is_stmt 1 view .LVU65
 182:lvgl/lvgl/src/extra/themes/basic/lv_theme_basic.c ****         return;
 233              		.loc 1 182 38 is_stmt 0 view .LVU66
 234 0088 2968     		ldr	r1, [r5]
 182:lvgl/lvgl/src/extra/themes/basic/lv_theme_basic.c ****         return;
 235              		.loc 1 182 9 view .LVU67
 236 008a 4FF48032 		mov	r2, #65536
 237 008e 1831     		adds	r1, r1, #24
 238 0090 2046     		mov	r0, r4
 239 0092 FFF7FEFF 		bl	lv_obj_add_style
 240              	.LVL23:
 183:lvgl/lvgl/src/extra/themes/basic/lv_theme_basic.c ****     }
 241              		.loc 1 183 9 is_stmt 1 view .LVU68
 242 0096 4DE0     		b	.L4
 243              	.LVL24:
 244              	.L39:
 245              	.LBB31:
 191:lvgl/lvgl/src/extra/themes/basic/lv_theme_basic.c ****             return;
 246              		.loc 1 191 13 view .LVU69
 191:lvgl/lvgl/src/extra/themes/basic/lv_theme_basic.c ****             return;
 247              		.loc 1 191 42 is_stmt 0 view .LVU70
 248 0098 9D4B     		ldr	r3, .L47+12
 249 009a 1968     		ldr	r1, [r3]
 191:lvgl/lvgl/src/extra/themes/basic/lv_theme_basic.c ****             return;
 250              		.loc 1 191 13 view .LVU71
 251 009c 0022     		movs	r2, #0
 252 009e 0831     		adds	r1, r1, #8
 253 00a0 2046     		mov	r0, r4
 254 00a2 FFF7FEFF 		bl	lv_obj_add_style
 255              	.LVL25:
 192:lvgl/lvgl/src/extra/themes/basic/lv_theme_basic.c ****         }
 256              		.loc 1 192 13 is_stmt 1 view .LVU72
 257 00a6 45E0     		b	.L4
 258              	.L40:
 196:lvgl/lvgl/src/extra/themes/basic/lv_theme_basic.c ****             lv_obj_add_style(obj, &styles->scrollbar, LV_PART_SCROLLBAR);
 259              		.loc 1 196 13 view .LVU73
 196:lvgl/lvgl/src/extra/themes/basic/lv_theme_basic.c ****             lv_obj_add_style(obj, &styles->scrollbar, LV_PART_SCROLLBAR);
 260              		.loc 1 196 42 is_stmt 0 view .LVU74
 261 00a8 994D     		ldr	r5, .L47+12
 262              	.LVL26:
 196:lvgl/lvgl/src/extra/themes/basic/lv_theme_basic.c ****             lv_obj_add_style(obj, &styles->scrollbar, LV_PART_SCROLLBAR);
ARM GAS  C:\Users\gx\AppData\Local\Temp\ccpJsvWx.s 			page 22


 263              		.loc 1 196 42 view .LVU75
 264 00aa 2968     		ldr	r1, [r5]
 196:lvgl/lvgl/src/extra/themes/basic/lv_theme_basic.c ****             lv_obj_add_style(obj, &styles->scrollbar, LV_PART_SCROLLBAR);
 265              		.loc 1 196 13 view .LVU76
 266 00ac 0022     		movs	r2, #0
 267 00ae 0831     		adds	r1, r1, #8
 268 00b0 2046     		mov	r0, r4
 269 00b2 FFF7FEFF 		bl	lv_obj_add_style
 270              	.LVL27:
 197:lvgl/lvgl/src/extra/themes/basic/lv_theme_basic.c ****             return;
 271              		.loc 1 197 13 is_stmt 1 view .LVU77
 197:lvgl/lvgl/src/extra/themes/basic/lv_theme_basic.c ****             return;
 272              		.loc 1 197 42 is_stmt 0 view .LVU78
 273 00b6 2968     		ldr	r1, [r5]
 197:lvgl/lvgl/src/extra/themes/basic/lv_theme_basic.c ****             return;
 274              		.loc 1 197 13 view .LVU79
 275 00b8 4FF48032 		mov	r2, #65536
 276 00bc 1831     		adds	r1, r1, #24
 277 00be 2046     		mov	r0, r4
 278 00c0 FFF7FEFF 		bl	lv_obj_add_style
 279              	.LVL28:
 198:lvgl/lvgl/src/extra/themes/basic/lv_theme_basic.c ****         }
 280              		.loc 1 198 13 is_stmt 1 view .LVU80
 281 00c4 36E0     		b	.L4
 282              	.LVL29:
 283              	.L41:
 205:lvgl/lvgl/src/extra/themes/basic/lv_theme_basic.c ****             return;
 284              		.loc 1 205 13 view .LVU81
 205:lvgl/lvgl/src/extra/themes/basic/lv_theme_basic.c ****             return;
 285              		.loc 1 205 42 is_stmt 0 view .LVU82
 286 00c6 924B     		ldr	r3, .L47+12
 287 00c8 1968     		ldr	r1, [r3]
 205:lvgl/lvgl/src/extra/themes/basic/lv_theme_basic.c ****             return;
 288              		.loc 1 205 13 view .LVU83
 289 00ca 0022     		movs	r2, #0
 290 00cc 0831     		adds	r1, r1, #8
 291 00ce 2046     		mov	r0, r4
 292 00d0 FFF7FEFF 		bl	lv_obj_add_style
 293              	.LVL30:
 206:lvgl/lvgl/src/extra/themes/basic/lv_theme_basic.c ****         }
 294              		.loc 1 206 13 is_stmt 1 view .LVU84
 295 00d4 2EE0     		b	.L4
 296              	.L42:
 209:lvgl/lvgl/src/extra/themes/basic/lv_theme_basic.c ****             lv_obj_add_style(obj, &styles->light, 0);
 297              		.loc 1 209 68 is_stmt 0 discriminator 1 view .LVU85
 298 00d6 2046     		mov	r0, r4
 299 00d8 FFF7FEFF 		bl	lv_obj_get_parent
 300              	.LVL31:
 209:lvgl/lvgl/src/extra/themes/basic/lv_theme_basic.c ****             lv_obj_add_style(obj, &styles->light, 0);
 301              		.loc 1 209 50 discriminator 1 view .LVU86
 302 00dc 8B49     		ldr	r1, .L47+8
 303 00de FFF7FEFF 		bl	lv_obj_check_type
 304              	.LVL32:
 209:lvgl/lvgl/src/extra/themes/basic/lv_theme_basic.c ****             lv_obj_add_style(obj, &styles->light, 0);
 305              		.loc 1 209 47 discriminator 1 view .LVU87
 306 00e2 0028     		cmp	r0, #0
 307 00e4 BBD0     		beq	.L11
ARM GAS  C:\Users\gx\AppData\Local\Temp\ccpJsvWx.s 			page 23


 210:lvgl/lvgl/src/extra/themes/basic/lv_theme_basic.c ****             lv_obj_add_style(obj, &styles->scrollbar, LV_PART_SCROLLBAR);
 308              		.loc 1 210 13 is_stmt 1 view .LVU88
 210:lvgl/lvgl/src/extra/themes/basic/lv_theme_basic.c ****             lv_obj_add_style(obj, &styles->scrollbar, LV_PART_SCROLLBAR);
 309              		.loc 1 210 42 is_stmt 0 view .LVU89
 310 00e6 8A4D     		ldr	r5, .L47+12
 311              	.LVL33:
 210:lvgl/lvgl/src/extra/themes/basic/lv_theme_basic.c ****             lv_obj_add_style(obj, &styles->scrollbar, LV_PART_SCROLLBAR);
 312              		.loc 1 210 42 view .LVU90
 313 00e8 2968     		ldr	r1, [r5]
 210:lvgl/lvgl/src/extra/themes/basic/lv_theme_basic.c ****             lv_obj_add_style(obj, &styles->scrollbar, LV_PART_SCROLLBAR);
 314              		.loc 1 210 13 view .LVU91
 315 00ea 0022     		movs	r2, #0
 316 00ec 0831     		adds	r1, r1, #8
 317 00ee 2046     		mov	r0, r4
 318 00f0 FFF7FEFF 		bl	lv_obj_add_style
 319              	.LVL34:
 211:lvgl/lvgl/src/extra/themes/basic/lv_theme_basic.c ****             return;
 320              		.loc 1 211 13 is_stmt 1 view .LVU92
 211:lvgl/lvgl/src/extra/themes/basic/lv_theme_basic.c ****             return;
 321              		.loc 1 211 42 is_stmt 0 view .LVU93
 322 00f4 2968     		ldr	r1, [r5]
 211:lvgl/lvgl/src/extra/themes/basic/lv_theme_basic.c ****             return;
 323              		.loc 1 211 13 view .LVU94
 324 00f6 4FF48032 		mov	r2, #65536
 325 00fa 1831     		adds	r1, r1, #24
 326 00fc 2046     		mov	r0, r4
 327 00fe FFF7FEFF 		bl	lv_obj_add_style
 328              	.LVL35:
 212:lvgl/lvgl/src/extra/themes/basic/lv_theme_basic.c ****         }
 329              		.loc 1 212 13 is_stmt 1 view .LVU95
 330 0102 17E0     		b	.L4
 331              	.L7:
 212:lvgl/lvgl/src/extra/themes/basic/lv_theme_basic.c ****         }
 332              		.loc 1 212 13 is_stmt 0 view .LVU96
 333              	.LBE31:
 217:lvgl/lvgl/src/extra/themes/basic/lv_theme_basic.c ****     }
 218:lvgl/lvgl/src/extra/themes/basic/lv_theme_basic.c **** #if LV_USE_BTN
 219:lvgl/lvgl/src/extra/themes/basic/lv_theme_basic.c ****     else if(lv_obj_check_type(obj, &lv_btn_class)) {
 334              		.loc 1 219 10 is_stmt 1 view .LVU97
 335              		.loc 1 219 13 is_stmt 0 view .LVU98
 336 0104 8349     		ldr	r1, .L47+16
 337 0106 2046     		mov	r0, r4
 338 0108 FFF7FEFF 		bl	lv_obj_check_type
 339              	.LVL36:
 340              		.loc 1 219 12 view .LVU99
 341 010c 98B1     		cbz	r0, .L12
 220:lvgl/lvgl/src/extra/themes/basic/lv_theme_basic.c ****         lv_obj_add_style(obj, &styles->dark, 0);
 342              		.loc 1 220 9 is_stmt 1 view .LVU100
 343              		.loc 1 220 38 is_stmt 0 view .LVU101
 344 010e 804D     		ldr	r5, .L47+12
 345 0110 2968     		ldr	r1, [r5]
 346              		.loc 1 220 9 view .LVU102
 347 0112 0022     		movs	r2, #0
 348 0114 1031     		adds	r1, r1, #16
 349 0116 2046     		mov	r0, r4
 350 0118 FFF7FEFF 		bl	lv_obj_add_style
 351              	.LVL37:
ARM GAS  C:\Users\gx\AppData\Local\Temp\ccpJsvWx.s 			page 24


 221:lvgl/lvgl/src/extra/themes/basic/lv_theme_basic.c ****         lv_obj_add_style(obj, &styles->pressed, LV_STATE_PRESSED);
 352              		.loc 1 221 9 is_stmt 1 view .LVU103
 353              		.loc 1 221 38 is_stmt 0 view .LVU104
 354 011c 2968     		ldr	r1, [r5]
 355              		.loc 1 221 9 view .LVU105
 356 011e 2022     		movs	r2, #32
 357 0120 1144     		add	r1, r1, r2
 358 0122 2046     		mov	r0, r4
 359 0124 FFF7FEFF 		bl	lv_obj_add_style
 360              	.LVL38:
 222:lvgl/lvgl/src/extra/themes/basic/lv_theme_basic.c ****         lv_obj_add_style(obj, &styles->disabled, LV_STATE_DISABLED);
 361              		.loc 1 222 9 is_stmt 1 view .LVU106
 362              		.loc 1 222 38 is_stmt 0 view .LVU107
 363 0128 2968     		ldr	r1, [r5]
 364              		.loc 1 222 9 view .LVU108
 365 012a 8022     		movs	r2, #128
 366 012c 2831     		adds	r1, r1, #40
 367 012e 2046     		mov	r0, r4
 368 0130 FFF7FEFF 		bl	lv_obj_add_style
 369              	.LVL39:
 370              	.L4:
 223:lvgl/lvgl/src/extra/themes/basic/lv_theme_basic.c ****     }
 224:lvgl/lvgl/src/extra/themes/basic/lv_theme_basic.c **** #endif
 225:lvgl/lvgl/src/extra/themes/basic/lv_theme_basic.c **** 
 226:lvgl/lvgl/src/extra/themes/basic/lv_theme_basic.c **** #if LV_USE_BTNMATRIX
 227:lvgl/lvgl/src/extra/themes/basic/lv_theme_basic.c ****     else if(lv_obj_check_type(obj, &lv_btnmatrix_class)) {
 228:lvgl/lvgl/src/extra/themes/basic/lv_theme_basic.c **** #if LV_USE_MSGBOX
 229:lvgl/lvgl/src/extra/themes/basic/lv_theme_basic.c ****         if(lv_obj_check_type(lv_obj_get_parent(obj), &lv_msgbox_class)) {
 230:lvgl/lvgl/src/extra/themes/basic/lv_theme_basic.c ****             lv_obj_add_style(obj, &styles->light, LV_PART_ITEMS);
 231:lvgl/lvgl/src/extra/themes/basic/lv_theme_basic.c ****             lv_obj_add_style(obj, &styles->pressed, LV_PART_ITEMS | LV_STATE_PRESSED);
 232:lvgl/lvgl/src/extra/themes/basic/lv_theme_basic.c ****             return;
 233:lvgl/lvgl/src/extra/themes/basic/lv_theme_basic.c ****         }
 234:lvgl/lvgl/src/extra/themes/basic/lv_theme_basic.c **** #endif
 235:lvgl/lvgl/src/extra/themes/basic/lv_theme_basic.c **** #if LV_USE_TABVIEW
 236:lvgl/lvgl/src/extra/themes/basic/lv_theme_basic.c ****         if(lv_obj_check_type(lv_obj_get_parent(obj), &lv_tabview_class)) {
 237:lvgl/lvgl/src/extra/themes/basic/lv_theme_basic.c ****             lv_obj_add_style(obj, &styles->light, LV_PART_ITEMS);
 238:lvgl/lvgl/src/extra/themes/basic/lv_theme_basic.c ****             lv_obj_add_style(obj, &styles->pressed, LV_PART_ITEMS | LV_STATE_PRESSED);
 239:lvgl/lvgl/src/extra/themes/basic/lv_theme_basic.c ****             return;
 240:lvgl/lvgl/src/extra/themes/basic/lv_theme_basic.c ****         }
 241:lvgl/lvgl/src/extra/themes/basic/lv_theme_basic.c **** #endif
 242:lvgl/lvgl/src/extra/themes/basic/lv_theme_basic.c ****         lv_obj_add_style(obj, &styles->light, 0);
 243:lvgl/lvgl/src/extra/themes/basic/lv_theme_basic.c ****         lv_obj_add_style(obj, &styles->dark, LV_PART_ITEMS);
 244:lvgl/lvgl/src/extra/themes/basic/lv_theme_basic.c ****         lv_obj_add_style(obj, &styles->pressed, LV_PART_ITEMS | LV_STATE_PRESSED);
 245:lvgl/lvgl/src/extra/themes/basic/lv_theme_basic.c ****     }
 246:lvgl/lvgl/src/extra/themes/basic/lv_theme_basic.c **** #endif
 247:lvgl/lvgl/src/extra/themes/basic/lv_theme_basic.c **** 
 248:lvgl/lvgl/src/extra/themes/basic/lv_theme_basic.c **** #if LV_USE_BAR
 249:lvgl/lvgl/src/extra/themes/basic/lv_theme_basic.c ****     else if(lv_obj_check_type(obj, &lv_bar_class)) {
 250:lvgl/lvgl/src/extra/themes/basic/lv_theme_basic.c ****         lv_obj_add_style(obj, &styles->light, 0);
 251:lvgl/lvgl/src/extra/themes/basic/lv_theme_basic.c ****         lv_obj_add_style(obj, &styles->pad_zero, 0);
 252:lvgl/lvgl/src/extra/themes/basic/lv_theme_basic.c ****         lv_obj_add_style(obj, &styles->dark, LV_PART_INDICATOR);
 253:lvgl/lvgl/src/extra/themes/basic/lv_theme_basic.c ****     }
 254:lvgl/lvgl/src/extra/themes/basic/lv_theme_basic.c **** #endif
 255:lvgl/lvgl/src/extra/themes/basic/lv_theme_basic.c **** 
 256:lvgl/lvgl/src/extra/themes/basic/lv_theme_basic.c **** #if LV_USE_SLIDER
 257:lvgl/lvgl/src/extra/themes/basic/lv_theme_basic.c ****     else if(lv_obj_check_type(obj, &lv_slider_class)) {
 258:lvgl/lvgl/src/extra/themes/basic/lv_theme_basic.c ****         lv_obj_add_style(obj, &styles->light, 0);
ARM GAS  C:\Users\gx\AppData\Local\Temp\ccpJsvWx.s 			page 25


 259:lvgl/lvgl/src/extra/themes/basic/lv_theme_basic.c ****         lv_obj_add_style(obj, &styles->pad_zero, 0);
 260:lvgl/lvgl/src/extra/themes/basic/lv_theme_basic.c ****         lv_obj_add_style(obj, &styles->dark, LV_PART_INDICATOR);
 261:lvgl/lvgl/src/extra/themes/basic/lv_theme_basic.c ****         lv_obj_add_style(obj, &styles->dark, LV_PART_KNOB);
 262:lvgl/lvgl/src/extra/themes/basic/lv_theme_basic.c ****     }
 263:lvgl/lvgl/src/extra/themes/basic/lv_theme_basic.c **** #endif
 264:lvgl/lvgl/src/extra/themes/basic/lv_theme_basic.c **** 
 265:lvgl/lvgl/src/extra/themes/basic/lv_theme_basic.c **** #if LV_USE_TABLE
 266:lvgl/lvgl/src/extra/themes/basic/lv_theme_basic.c ****     else if(lv_obj_check_type(obj, &lv_table_class)) {
 267:lvgl/lvgl/src/extra/themes/basic/lv_theme_basic.c ****         lv_obj_add_style(obj, &styles->scrollbar, LV_PART_SCROLLBAR);
 268:lvgl/lvgl/src/extra/themes/basic/lv_theme_basic.c ****         lv_obj_add_style(obj, &styles->light, LV_PART_ITEMS);
 269:lvgl/lvgl/src/extra/themes/basic/lv_theme_basic.c ****         lv_obj_add_style(obj, &styles->pressed, LV_PART_ITEMS | LV_STATE_PRESSED);
 270:lvgl/lvgl/src/extra/themes/basic/lv_theme_basic.c ****     }
 271:lvgl/lvgl/src/extra/themes/basic/lv_theme_basic.c **** #endif
 272:lvgl/lvgl/src/extra/themes/basic/lv_theme_basic.c **** 
 273:lvgl/lvgl/src/extra/themes/basic/lv_theme_basic.c **** #if LV_USE_CHECKBOX
 274:lvgl/lvgl/src/extra/themes/basic/lv_theme_basic.c ****     else if(lv_obj_check_type(obj, &lv_checkbox_class)) {
 275:lvgl/lvgl/src/extra/themes/basic/lv_theme_basic.c ****         lv_obj_add_style(obj, &styles->light, LV_PART_INDICATOR);
 276:lvgl/lvgl/src/extra/themes/basic/lv_theme_basic.c ****         lv_obj_add_style(obj, &styles->disabled, LV_PART_INDICATOR | LV_STATE_DISABLED);
 277:lvgl/lvgl/src/extra/themes/basic/lv_theme_basic.c ****         lv_obj_add_style(obj, &styles->dark, LV_PART_INDICATOR | LV_STATE_CHECKED);
 278:lvgl/lvgl/src/extra/themes/basic/lv_theme_basic.c ****         lv_obj_add_style(obj, &styles->pressed, LV_PART_INDICATOR | LV_STATE_PRESSED);
 279:lvgl/lvgl/src/extra/themes/basic/lv_theme_basic.c ****     }
 280:lvgl/lvgl/src/extra/themes/basic/lv_theme_basic.c **** #endif
 281:lvgl/lvgl/src/extra/themes/basic/lv_theme_basic.c **** 
 282:lvgl/lvgl/src/extra/themes/basic/lv_theme_basic.c **** #if LV_USE_SWITCH
 283:lvgl/lvgl/src/extra/themes/basic/lv_theme_basic.c ****     else if(lv_obj_check_type(obj, &lv_switch_class)) {
 284:lvgl/lvgl/src/extra/themes/basic/lv_theme_basic.c ****         lv_obj_add_style(obj, &styles->light, 0);
 285:lvgl/lvgl/src/extra/themes/basic/lv_theme_basic.c ****         lv_obj_add_style(obj, &styles->pad_zero, 0);
 286:lvgl/lvgl/src/extra/themes/basic/lv_theme_basic.c ****         lv_obj_add_style(obj, &styles->dark, LV_PART_INDICATOR);
 287:lvgl/lvgl/src/extra/themes/basic/lv_theme_basic.c ****         lv_obj_add_style(obj, &styles->dark, LV_PART_KNOB);
 288:lvgl/lvgl/src/extra/themes/basic/lv_theme_basic.c ****         lv_obj_add_style(obj, &styles->pad_zero, LV_PART_KNOB);
 289:lvgl/lvgl/src/extra/themes/basic/lv_theme_basic.c ****     }
 290:lvgl/lvgl/src/extra/themes/basic/lv_theme_basic.c **** #endif
 291:lvgl/lvgl/src/extra/themes/basic/lv_theme_basic.c **** 
 292:lvgl/lvgl/src/extra/themes/basic/lv_theme_basic.c **** #if LV_USE_CHART
 293:lvgl/lvgl/src/extra/themes/basic/lv_theme_basic.c ****     else if(lv_obj_check_type(obj, &lv_chart_class)) {
 294:lvgl/lvgl/src/extra/themes/basic/lv_theme_basic.c ****         lv_obj_add_style(obj, &styles->light, 0);
 295:lvgl/lvgl/src/extra/themes/basic/lv_theme_basic.c ****         lv_obj_add_style(obj, &styles->scrollbar, LV_PART_SCROLLBAR);
 296:lvgl/lvgl/src/extra/themes/basic/lv_theme_basic.c ****         lv_obj_add_style(obj, &styles->light, LV_PART_ITEMS);
 297:lvgl/lvgl/src/extra/themes/basic/lv_theme_basic.c ****         lv_obj_add_style(obj, &styles->light, LV_PART_TICKS);
 298:lvgl/lvgl/src/extra/themes/basic/lv_theme_basic.c ****         lv_obj_add_style(obj, &styles->light, LV_PART_CURSOR);
 299:lvgl/lvgl/src/extra/themes/basic/lv_theme_basic.c ****     }
 300:lvgl/lvgl/src/extra/themes/basic/lv_theme_basic.c **** #endif
 301:lvgl/lvgl/src/extra/themes/basic/lv_theme_basic.c **** 
 302:lvgl/lvgl/src/extra/themes/basic/lv_theme_basic.c **** #if LV_USE_ROLLER
 303:lvgl/lvgl/src/extra/themes/basic/lv_theme_basic.c ****     else if(lv_obj_check_type(obj, &lv_roller_class)) {
 304:lvgl/lvgl/src/extra/themes/basic/lv_theme_basic.c ****         lv_obj_add_style(obj, &styles->light, 0);
 305:lvgl/lvgl/src/extra/themes/basic/lv_theme_basic.c ****         lv_obj_add_style(obj, &styles->dark, LV_PART_SELECTED);
 306:lvgl/lvgl/src/extra/themes/basic/lv_theme_basic.c ****     }
 307:lvgl/lvgl/src/extra/themes/basic/lv_theme_basic.c **** #endif
 308:lvgl/lvgl/src/extra/themes/basic/lv_theme_basic.c **** 
 309:lvgl/lvgl/src/extra/themes/basic/lv_theme_basic.c **** #if LV_USE_DROPDOWN
 310:lvgl/lvgl/src/extra/themes/basic/lv_theme_basic.c ****     else if(lv_obj_check_type(obj, &lv_dropdown_class)) {
 311:lvgl/lvgl/src/extra/themes/basic/lv_theme_basic.c ****         lv_obj_add_style(obj, &styles->light, 0);
 312:lvgl/lvgl/src/extra/themes/basic/lv_theme_basic.c ****         lv_obj_add_style(obj, &styles->pressed, LV_STATE_PRESSED);
 313:lvgl/lvgl/src/extra/themes/basic/lv_theme_basic.c ****     }
 314:lvgl/lvgl/src/extra/themes/basic/lv_theme_basic.c ****     else if(lv_obj_check_type(obj, &lv_dropdownlist_class)) {
 315:lvgl/lvgl/src/extra/themes/basic/lv_theme_basic.c ****         lv_obj_add_style(obj, &styles->light, 0);
ARM GAS  C:\Users\gx\AppData\Local\Temp\ccpJsvWx.s 			page 26


 316:lvgl/lvgl/src/extra/themes/basic/lv_theme_basic.c ****         lv_obj_add_style(obj, &styles->scrollbar, LV_PART_SCROLLBAR);
 317:lvgl/lvgl/src/extra/themes/basic/lv_theme_basic.c ****         lv_obj_add_style(obj, &styles->light, LV_PART_SELECTED);
 318:lvgl/lvgl/src/extra/themes/basic/lv_theme_basic.c ****         lv_obj_add_style(obj, &styles->dark, LV_PART_SELECTED | LV_STATE_CHECKED);
 319:lvgl/lvgl/src/extra/themes/basic/lv_theme_basic.c ****         lv_obj_add_style(obj, &styles->pressed, LV_PART_SELECTED | LV_STATE_PRESSED);
 320:lvgl/lvgl/src/extra/themes/basic/lv_theme_basic.c ****     }
 321:lvgl/lvgl/src/extra/themes/basic/lv_theme_basic.c **** #endif
 322:lvgl/lvgl/src/extra/themes/basic/lv_theme_basic.c **** 
 323:lvgl/lvgl/src/extra/themes/basic/lv_theme_basic.c **** #if LV_USE_ARC
 324:lvgl/lvgl/src/extra/themes/basic/lv_theme_basic.c ****     else if(lv_obj_check_type(obj, &lv_arc_class)) {
 325:lvgl/lvgl/src/extra/themes/basic/lv_theme_basic.c ****         lv_obj_add_style(obj, &styles->light, 0);
 326:lvgl/lvgl/src/extra/themes/basic/lv_theme_basic.c ****         lv_obj_add_style(obj, &styles->dark, LV_PART_INDICATOR);
 327:lvgl/lvgl/src/extra/themes/basic/lv_theme_basic.c ****         lv_obj_add_style(obj, &styles->pad_zero, LV_PART_INDICATOR);
 328:lvgl/lvgl/src/extra/themes/basic/lv_theme_basic.c ****         lv_obj_add_style(obj, &styles->dark, LV_PART_KNOB);
 329:lvgl/lvgl/src/extra/themes/basic/lv_theme_basic.c ****     }
 330:lvgl/lvgl/src/extra/themes/basic/lv_theme_basic.c **** #endif
 331:lvgl/lvgl/src/extra/themes/basic/lv_theme_basic.c **** 
 332:lvgl/lvgl/src/extra/themes/basic/lv_theme_basic.c **** #if LV_USE_METER
 333:lvgl/lvgl/src/extra/themes/basic/lv_theme_basic.c ****     else if(lv_obj_check_type(obj, &lv_meter_class)) {
 334:lvgl/lvgl/src/extra/themes/basic/lv_theme_basic.c ****         lv_obj_add_style(obj, &styles->light, 0);
 335:lvgl/lvgl/src/extra/themes/basic/lv_theme_basic.c ****     }
 336:lvgl/lvgl/src/extra/themes/basic/lv_theme_basic.c **** #endif
 337:lvgl/lvgl/src/extra/themes/basic/lv_theme_basic.c **** 
 338:lvgl/lvgl/src/extra/themes/basic/lv_theme_basic.c **** #if LV_USE_TEXTAREA
 339:lvgl/lvgl/src/extra/themes/basic/lv_theme_basic.c ****     else if(lv_obj_check_type(obj, &lv_textarea_class)) {
 340:lvgl/lvgl/src/extra/themes/basic/lv_theme_basic.c ****         lv_obj_add_style(obj, &styles->light, 0);
 341:lvgl/lvgl/src/extra/themes/basic/lv_theme_basic.c ****         lv_obj_add_style(obj, &styles->scrollbar, LV_PART_SCROLLBAR);
 342:lvgl/lvgl/src/extra/themes/basic/lv_theme_basic.c ****         lv_obj_add_style(obj, &styles->ta_cursor, LV_PART_CURSOR);
 343:lvgl/lvgl/src/extra/themes/basic/lv_theme_basic.c ****         lv_obj_add_style(obj, &styles->light, LV_PART_TEXTAREA_PLACEHOLDER);
 344:lvgl/lvgl/src/extra/themes/basic/lv_theme_basic.c ****     }
 345:lvgl/lvgl/src/extra/themes/basic/lv_theme_basic.c **** #endif
 346:lvgl/lvgl/src/extra/themes/basic/lv_theme_basic.c **** 
 347:lvgl/lvgl/src/extra/themes/basic/lv_theme_basic.c **** #if LV_USE_CALENDAR
 348:lvgl/lvgl/src/extra/themes/basic/lv_theme_basic.c ****     else if(lv_obj_check_type(obj, &lv_calendar_class)) {
 349:lvgl/lvgl/src/extra/themes/basic/lv_theme_basic.c ****         lv_obj_add_style(obj, &styles->light, 0);
 350:lvgl/lvgl/src/extra/themes/basic/lv_theme_basic.c ****         lv_obj_add_style(obj, &styles->light, LV_PART_ITEMS | LV_STATE_PRESSED);
 351:lvgl/lvgl/src/extra/themes/basic/lv_theme_basic.c ****         lv_obj_add_style(obj, &styles->pressed, LV_PART_ITEMS | LV_STATE_PRESSED);
 352:lvgl/lvgl/src/extra/themes/basic/lv_theme_basic.c ****         lv_obj_add_style(obj, &styles->disabled, LV_PART_ITEMS | LV_STATE_DISABLED);
 353:lvgl/lvgl/src/extra/themes/basic/lv_theme_basic.c ****     }
 354:lvgl/lvgl/src/extra/themes/basic/lv_theme_basic.c **** #endif
 355:lvgl/lvgl/src/extra/themes/basic/lv_theme_basic.c **** 
 356:lvgl/lvgl/src/extra/themes/basic/lv_theme_basic.c **** #if LV_USE_KEYBOARD
 357:lvgl/lvgl/src/extra/themes/basic/lv_theme_basic.c ****     else if(lv_obj_check_type(obj, &lv_keyboard_class)) {
 358:lvgl/lvgl/src/extra/themes/basic/lv_theme_basic.c ****         lv_obj_add_style(obj, &styles->light, 0);
 359:lvgl/lvgl/src/extra/themes/basic/lv_theme_basic.c ****         lv_obj_add_style(obj, &styles->light, LV_PART_ITEMS);
 360:lvgl/lvgl/src/extra/themes/basic/lv_theme_basic.c ****         lv_obj_add_style(obj, &styles->pressed, LV_PART_ITEMS | LV_STATE_PRESSED);
 361:lvgl/lvgl/src/extra/themes/basic/lv_theme_basic.c ****     }
 362:lvgl/lvgl/src/extra/themes/basic/lv_theme_basic.c **** #endif
 363:lvgl/lvgl/src/extra/themes/basic/lv_theme_basic.c **** #if LV_USE_LIST
 364:lvgl/lvgl/src/extra/themes/basic/lv_theme_basic.c ****     else if(lv_obj_check_type(obj, &lv_list_class)) {
 365:lvgl/lvgl/src/extra/themes/basic/lv_theme_basic.c ****         lv_obj_add_style(obj, &styles->light, 0);
 366:lvgl/lvgl/src/extra/themes/basic/lv_theme_basic.c ****         lv_obj_add_style(obj, &styles->scrollbar, LV_PART_SCROLLBAR);
 367:lvgl/lvgl/src/extra/themes/basic/lv_theme_basic.c ****         return;
 368:lvgl/lvgl/src/extra/themes/basic/lv_theme_basic.c ****     }
 369:lvgl/lvgl/src/extra/themes/basic/lv_theme_basic.c ****     else if(lv_obj_check_type(obj, &lv_list_text_class)) {
 370:lvgl/lvgl/src/extra/themes/basic/lv_theme_basic.c **** 
 371:lvgl/lvgl/src/extra/themes/basic/lv_theme_basic.c ****     }
 372:lvgl/lvgl/src/extra/themes/basic/lv_theme_basic.c ****     else if(lv_obj_check_type(obj, &lv_list_btn_class)) {
ARM GAS  C:\Users\gx\AppData\Local\Temp\ccpJsvWx.s 			page 27


 373:lvgl/lvgl/src/extra/themes/basic/lv_theme_basic.c ****         lv_obj_add_style(obj, &styles->dark, 0);
 374:lvgl/lvgl/src/extra/themes/basic/lv_theme_basic.c ****         lv_obj_add_style(obj, &styles->pressed, LV_STATE_PRESSED);
 375:lvgl/lvgl/src/extra/themes/basic/lv_theme_basic.c **** 
 376:lvgl/lvgl/src/extra/themes/basic/lv_theme_basic.c ****     }
 377:lvgl/lvgl/src/extra/themes/basic/lv_theme_basic.c **** #endif
 378:lvgl/lvgl/src/extra/themes/basic/lv_theme_basic.c **** #if LV_USE_MSGBOX
 379:lvgl/lvgl/src/extra/themes/basic/lv_theme_basic.c ****     else if(lv_obj_check_type(obj, &lv_msgbox_class)) {
 380:lvgl/lvgl/src/extra/themes/basic/lv_theme_basic.c ****         lv_obj_add_style(obj, &styles->light, 0);
 381:lvgl/lvgl/src/extra/themes/basic/lv_theme_basic.c ****         return;
 382:lvgl/lvgl/src/extra/themes/basic/lv_theme_basic.c ****     }
 383:lvgl/lvgl/src/extra/themes/basic/lv_theme_basic.c **** #endif
 384:lvgl/lvgl/src/extra/themes/basic/lv_theme_basic.c **** #if LV_USE_SPINBOX
 385:lvgl/lvgl/src/extra/themes/basic/lv_theme_basic.c ****     else if(lv_obj_check_type(obj, &lv_spinbox_class)) {
 386:lvgl/lvgl/src/extra/themes/basic/lv_theme_basic.c ****         lv_obj_add_style(obj, &styles->light, 0);
 387:lvgl/lvgl/src/extra/themes/basic/lv_theme_basic.c ****         lv_obj_add_style(obj, &styles->dark, LV_PART_CURSOR);
 388:lvgl/lvgl/src/extra/themes/basic/lv_theme_basic.c ****     }
 389:lvgl/lvgl/src/extra/themes/basic/lv_theme_basic.c **** #endif
 390:lvgl/lvgl/src/extra/themes/basic/lv_theme_basic.c **** #if LV_USE_TILEVIEW
 391:lvgl/lvgl/src/extra/themes/basic/lv_theme_basic.c ****     else if(lv_obj_check_type(obj, &lv_tileview_class)) {
 392:lvgl/lvgl/src/extra/themes/basic/lv_theme_basic.c ****         lv_obj_add_style(obj, &styles->scr, 0);
 393:lvgl/lvgl/src/extra/themes/basic/lv_theme_basic.c ****         lv_obj_add_style(obj, &styles->scrollbar, LV_PART_SCROLLBAR);
 394:lvgl/lvgl/src/extra/themes/basic/lv_theme_basic.c ****     }
 395:lvgl/lvgl/src/extra/themes/basic/lv_theme_basic.c ****     else if(lv_obj_check_type(obj, &lv_tileview_tile_class)) {
 396:lvgl/lvgl/src/extra/themes/basic/lv_theme_basic.c ****         lv_obj_add_style(obj, &styles->scrollbar, LV_PART_SCROLLBAR);
 397:lvgl/lvgl/src/extra/themes/basic/lv_theme_basic.c ****     }
 398:lvgl/lvgl/src/extra/themes/basic/lv_theme_basic.c **** #endif
 399:lvgl/lvgl/src/extra/themes/basic/lv_theme_basic.c **** 
 400:lvgl/lvgl/src/extra/themes/basic/lv_theme_basic.c **** #if LV_USE_COLORWHEEL
 401:lvgl/lvgl/src/extra/themes/basic/lv_theme_basic.c ****     else if(lv_obj_check_type(obj, &lv_colorwheel_class)) {
 402:lvgl/lvgl/src/extra/themes/basic/lv_theme_basic.c ****         lv_obj_add_style(obj, &styles->light, 0);
 403:lvgl/lvgl/src/extra/themes/basic/lv_theme_basic.c ****         lv_obj_add_style(obj, &styles->light, LV_PART_KNOB);
 404:lvgl/lvgl/src/extra/themes/basic/lv_theme_basic.c ****     }
 405:lvgl/lvgl/src/extra/themes/basic/lv_theme_basic.c **** #endif
 406:lvgl/lvgl/src/extra/themes/basic/lv_theme_basic.c **** 
 407:lvgl/lvgl/src/extra/themes/basic/lv_theme_basic.c **** #if LV_USE_LED
 408:lvgl/lvgl/src/extra/themes/basic/lv_theme_basic.c ****     else if(lv_obj_check_type(obj, &lv_led_class)) {
 409:lvgl/lvgl/src/extra/themes/basic/lv_theme_basic.c ****             lv_obj_add_style(obj, &styles->light, 0);
 410:lvgl/lvgl/src/extra/themes/basic/lv_theme_basic.c ****         }
 411:lvgl/lvgl/src/extra/themes/basic/lv_theme_basic.c **** #endif
 412:lvgl/lvgl/src/extra/themes/basic/lv_theme_basic.c **** }
 371              		.loc 1 412 1 view .LVU109
 372 0134 70BD     		pop	{r4, r5, r6, pc}
 373              	.LVL40:
 374              	.L12:
 227:lvgl/lvgl/src/extra/themes/basic/lv_theme_basic.c **** #if LV_USE_MSGBOX
 375              		.loc 1 227 10 is_stmt 1 view .LVU110
 227:lvgl/lvgl/src/extra/themes/basic/lv_theme_basic.c **** #if LV_USE_MSGBOX
 376              		.loc 1 227 13 is_stmt 0 view .LVU111
 377 0136 7849     		ldr	r1, .L47+20
 378 0138 2046     		mov	r0, r4
 379 013a FFF7FEFF 		bl	lv_obj_check_type
 380              	.LVL41:
 227:lvgl/lvgl/src/extra/themes/basic/lv_theme_basic.c **** #if LV_USE_MSGBOX
 381              		.loc 1 227 12 view .LVU112
 382 013e 0028     		cmp	r0, #0
 383 0140 40D0     		beq	.L13
 229:lvgl/lvgl/src/extra/themes/basic/lv_theme_basic.c ****             lv_obj_add_style(obj, &styles->light, LV_PART_ITEMS);
ARM GAS  C:\Users\gx\AppData\Local\Temp\ccpJsvWx.s 			page 28


 384              		.loc 1 229 9 is_stmt 1 view .LVU113
 229:lvgl/lvgl/src/extra/themes/basic/lv_theme_basic.c ****             lv_obj_add_style(obj, &styles->light, LV_PART_ITEMS);
 385              		.loc 1 229 30 is_stmt 0 view .LVU114
 386 0142 2046     		mov	r0, r4
 387 0144 FFF7FEFF 		bl	lv_obj_get_parent
 388              	.LVL42:
 229:lvgl/lvgl/src/extra/themes/basic/lv_theme_basic.c ****             lv_obj_add_style(obj, &styles->light, LV_PART_ITEMS);
 389              		.loc 1 229 12 view .LVU115
 390 0148 7449     		ldr	r1, .L47+24
 391 014a FFF7FEFF 		bl	lv_obj_check_type
 392              	.LVL43:
 229:lvgl/lvgl/src/extra/themes/basic/lv_theme_basic.c ****             lv_obj_add_style(obj, &styles->light, LV_PART_ITEMS);
 393              		.loc 1 229 11 view .LVU116
 394 014e D8B9     		cbnz	r0, .L43
 236:lvgl/lvgl/src/extra/themes/basic/lv_theme_basic.c ****             lv_obj_add_style(obj, &styles->light, LV_PART_ITEMS);
 395              		.loc 1 236 9 is_stmt 1 view .LVU117
 236:lvgl/lvgl/src/extra/themes/basic/lv_theme_basic.c ****             lv_obj_add_style(obj, &styles->light, LV_PART_ITEMS);
 396              		.loc 1 236 30 is_stmt 0 view .LVU118
 397 0150 2046     		mov	r0, r4
 398 0152 FFF7FEFF 		bl	lv_obj_get_parent
 399              	.LVL44:
 236:lvgl/lvgl/src/extra/themes/basic/lv_theme_basic.c ****             lv_obj_add_style(obj, &styles->light, LV_PART_ITEMS);
 400              		.loc 1 236 12 view .LVU119
 401 0156 6C49     		ldr	r1, .L47+4
 402 0158 FFF7FEFF 		bl	lv_obj_check_type
 403              	.LVL45:
 236:lvgl/lvgl/src/extra/themes/basic/lv_theme_basic.c ****             lv_obj_add_style(obj, &styles->light, LV_PART_ITEMS);
 404              		.loc 1 236 11 view .LVU120
 405 015c 18BB     		cbnz	r0, .L44
 242:lvgl/lvgl/src/extra/themes/basic/lv_theme_basic.c ****         lv_obj_add_style(obj, &styles->dark, LV_PART_ITEMS);
 406              		.loc 1 242 9 is_stmt 1 view .LVU121
 242:lvgl/lvgl/src/extra/themes/basic/lv_theme_basic.c ****         lv_obj_add_style(obj, &styles->dark, LV_PART_ITEMS);
 407              		.loc 1 242 38 is_stmt 0 view .LVU122
 408 015e 6C4D     		ldr	r5, .L47+12
 409 0160 2968     		ldr	r1, [r5]
 242:lvgl/lvgl/src/extra/themes/basic/lv_theme_basic.c ****         lv_obj_add_style(obj, &styles->dark, LV_PART_ITEMS);
 410              		.loc 1 242 9 view .LVU123
 411 0162 0022     		movs	r2, #0
 412 0164 0831     		adds	r1, r1, #8
 413 0166 2046     		mov	r0, r4
 414 0168 FFF7FEFF 		bl	lv_obj_add_style
 415              	.LVL46:
 243:lvgl/lvgl/src/extra/themes/basic/lv_theme_basic.c ****         lv_obj_add_style(obj, &styles->pressed, LV_PART_ITEMS | LV_STATE_PRESSED);
 416              		.loc 1 243 9 is_stmt 1 view .LVU124
 243:lvgl/lvgl/src/extra/themes/basic/lv_theme_basic.c ****         lv_obj_add_style(obj, &styles->pressed, LV_PART_ITEMS | LV_STATE_PRESSED);
 417              		.loc 1 243 38 is_stmt 0 view .LVU125
 418 016c 2968     		ldr	r1, [r5]
 243:lvgl/lvgl/src/extra/themes/basic/lv_theme_basic.c ****         lv_obj_add_style(obj, &styles->pressed, LV_PART_ITEMS | LV_STATE_PRESSED);
 419              		.loc 1 243 9 view .LVU126
 420 016e 4FF4A022 		mov	r2, #327680
 421 0172 1031     		adds	r1, r1, #16
 422 0174 2046     		mov	r0, r4
 423 0176 FFF7FEFF 		bl	lv_obj_add_style
 424              	.LVL47:
 244:lvgl/lvgl/src/extra/themes/basic/lv_theme_basic.c ****     }
 425              		.loc 1 244 9 is_stmt 1 view .LVU127
 244:lvgl/lvgl/src/extra/themes/basic/lv_theme_basic.c ****     }
ARM GAS  C:\Users\gx\AppData\Local\Temp\ccpJsvWx.s 			page 29


 426              		.loc 1 244 38 is_stmt 0 view .LVU128
 427 017a 2968     		ldr	r1, [r5]
 244:lvgl/lvgl/src/extra/themes/basic/lv_theme_basic.c ****     }
 428              		.loc 1 244 9 view .LVU129
 429 017c 684A     		ldr	r2, .L47+28
 430 017e 2031     		adds	r1, r1, #32
 431 0180 2046     		mov	r0, r4
 432 0182 FFF7FEFF 		bl	lv_obj_add_style
 433              	.LVL48:
 434 0186 D5E7     		b	.L4
 435              	.L43:
 230:lvgl/lvgl/src/extra/themes/basic/lv_theme_basic.c ****             lv_obj_add_style(obj, &styles->pressed, LV_PART_ITEMS | LV_STATE_PRESSED);
 436              		.loc 1 230 13 is_stmt 1 view .LVU130
 230:lvgl/lvgl/src/extra/themes/basic/lv_theme_basic.c ****             lv_obj_add_style(obj, &styles->pressed, LV_PART_ITEMS | LV_STATE_PRESSED);
 437              		.loc 1 230 42 is_stmt 0 view .LVU131
 438 0188 614D     		ldr	r5, .L47+12
 439 018a 2968     		ldr	r1, [r5]
 230:lvgl/lvgl/src/extra/themes/basic/lv_theme_basic.c ****             lv_obj_add_style(obj, &styles->pressed, LV_PART_ITEMS | LV_STATE_PRESSED);
 440              		.loc 1 230 13 view .LVU132
 441 018c 4FF4A022 		mov	r2, #327680
 442 0190 0831     		adds	r1, r1, #8
 443 0192 2046     		mov	r0, r4
 444 0194 FFF7FEFF 		bl	lv_obj_add_style
 445              	.LVL49:
 231:lvgl/lvgl/src/extra/themes/basic/lv_theme_basic.c ****             return;
 446              		.loc 1 231 13 is_stmt 1 view .LVU133
 231:lvgl/lvgl/src/extra/themes/basic/lv_theme_basic.c ****             return;
 447              		.loc 1 231 42 is_stmt 0 view .LVU134
 448 0198 2968     		ldr	r1, [r5]
 231:lvgl/lvgl/src/extra/themes/basic/lv_theme_basic.c ****             return;
 449              		.loc 1 231 13 view .LVU135
 450 019a 614A     		ldr	r2, .L47+28
 451 019c 2031     		adds	r1, r1, #32
 452 019e 2046     		mov	r0, r4
 453 01a0 FFF7FEFF 		bl	lv_obj_add_style
 454              	.LVL50:
 232:lvgl/lvgl/src/extra/themes/basic/lv_theme_basic.c ****         }
 455              		.loc 1 232 13 is_stmt 1 view .LVU136
 456 01a4 C6E7     		b	.L4
 457              	.L44:
 237:lvgl/lvgl/src/extra/themes/basic/lv_theme_basic.c ****             lv_obj_add_style(obj, &styles->pressed, LV_PART_ITEMS | LV_STATE_PRESSED);
 458              		.loc 1 237 13 view .LVU137
 237:lvgl/lvgl/src/extra/themes/basic/lv_theme_basic.c ****             lv_obj_add_style(obj, &styles->pressed, LV_PART_ITEMS | LV_STATE_PRESSED);
 459              		.loc 1 237 42 is_stmt 0 view .LVU138
 460 01a6 5A4D     		ldr	r5, .L47+12
 461 01a8 2968     		ldr	r1, [r5]
 237:lvgl/lvgl/src/extra/themes/basic/lv_theme_basic.c ****             lv_obj_add_style(obj, &styles->pressed, LV_PART_ITEMS | LV_STATE_PRESSED);
 462              		.loc 1 237 13 view .LVU139
 463 01aa 4FF4A022 		mov	r2, #327680
 464 01ae 0831     		adds	r1, r1, #8
 465 01b0 2046     		mov	r0, r4
 466 01b2 FFF7FEFF 		bl	lv_obj_add_style
 467              	.LVL51:
 238:lvgl/lvgl/src/extra/themes/basic/lv_theme_basic.c ****             return;
 468              		.loc 1 238 13 is_stmt 1 view .LVU140
 238:lvgl/lvgl/src/extra/themes/basic/lv_theme_basic.c ****             return;
 469              		.loc 1 238 42 is_stmt 0 view .LVU141
ARM GAS  C:\Users\gx\AppData\Local\Temp\ccpJsvWx.s 			page 30


 470 01b6 2968     		ldr	r1, [r5]
 238:lvgl/lvgl/src/extra/themes/basic/lv_theme_basic.c ****             return;
 471              		.loc 1 238 13 view .LVU142
 472 01b8 594A     		ldr	r2, .L47+28
 473 01ba 2031     		adds	r1, r1, #32
 474 01bc 2046     		mov	r0, r4
 475 01be FFF7FEFF 		bl	lv_obj_add_style
 476              	.LVL52:
 239:lvgl/lvgl/src/extra/themes/basic/lv_theme_basic.c ****         }
 477              		.loc 1 239 13 is_stmt 1 view .LVU143
 478 01c2 B7E7     		b	.L4
 479              	.L13:
 249:lvgl/lvgl/src/extra/themes/basic/lv_theme_basic.c ****         lv_obj_add_style(obj, &styles->light, 0);
 480              		.loc 1 249 10 view .LVU144
 249:lvgl/lvgl/src/extra/themes/basic/lv_theme_basic.c ****         lv_obj_add_style(obj, &styles->light, 0);
 481              		.loc 1 249 13 is_stmt 0 view .LVU145
 482 01c4 5749     		ldr	r1, .L47+32
 483 01c6 2046     		mov	r0, r4
 484 01c8 FFF7FEFF 		bl	lv_obj_check_type
 485              	.LVL53:
 249:lvgl/lvgl/src/extra/themes/basic/lv_theme_basic.c ****         lv_obj_add_style(obj, &styles->light, 0);
 486              		.loc 1 249 12 view .LVU146
 487 01cc A0B1     		cbz	r0, .L16
 250:lvgl/lvgl/src/extra/themes/basic/lv_theme_basic.c ****         lv_obj_add_style(obj, &styles->pad_zero, 0);
 488              		.loc 1 250 9 is_stmt 1 view .LVU147
 250:lvgl/lvgl/src/extra/themes/basic/lv_theme_basic.c ****         lv_obj_add_style(obj, &styles->pad_zero, 0);
 489              		.loc 1 250 38 is_stmt 0 view .LVU148
 490 01ce 504D     		ldr	r5, .L47+12
 491 01d0 2968     		ldr	r1, [r5]
 250:lvgl/lvgl/src/extra/themes/basic/lv_theme_basic.c ****         lv_obj_add_style(obj, &styles->pad_zero, 0);
 492              		.loc 1 250 9 view .LVU149
 493 01d2 0022     		movs	r2, #0
 494 01d4 0831     		adds	r1, r1, #8
 495 01d6 2046     		mov	r0, r4
 496 01d8 FFF7FEFF 		bl	lv_obj_add_style
 497              	.LVL54:
 251:lvgl/lvgl/src/extra/themes/basic/lv_theme_basic.c ****         lv_obj_add_style(obj, &styles->dark, LV_PART_INDICATOR);
 498              		.loc 1 251 9 is_stmt 1 view .LVU150
 251:lvgl/lvgl/src/extra/themes/basic/lv_theme_basic.c ****         lv_obj_add_style(obj, &styles->dark, LV_PART_INDICATOR);
 499              		.loc 1 251 38 is_stmt 0 view .LVU151
 500 01dc 2968     		ldr	r1, [r5]
 251:lvgl/lvgl/src/extra/themes/basic/lv_theme_basic.c ****         lv_obj_add_style(obj, &styles->dark, LV_PART_INDICATOR);
 501              		.loc 1 251 9 view .LVU152
 502 01de 0022     		movs	r2, #0
 503 01e0 3031     		adds	r1, r1, #48
 504 01e2 2046     		mov	r0, r4
 505 01e4 FFF7FEFF 		bl	lv_obj_add_style
 506              	.LVL55:
 252:lvgl/lvgl/src/extra/themes/basic/lv_theme_basic.c ****     }
 507              		.loc 1 252 9 is_stmt 1 view .LVU153
 252:lvgl/lvgl/src/extra/themes/basic/lv_theme_basic.c ****     }
 508              		.loc 1 252 38 is_stmt 0 view .LVU154
 509 01e8 2968     		ldr	r1, [r5]
 252:lvgl/lvgl/src/extra/themes/basic/lv_theme_basic.c ****     }
 510              		.loc 1 252 9 view .LVU155
 511 01ea 4FF40032 		mov	r2, #131072
 512 01ee 1031     		adds	r1, r1, #16
ARM GAS  C:\Users\gx\AppData\Local\Temp\ccpJsvWx.s 			page 31


 513 01f0 2046     		mov	r0, r4
 514 01f2 FFF7FEFF 		bl	lv_obj_add_style
 515              	.LVL56:
 516 01f6 9DE7     		b	.L4
 517              	.L16:
 257:lvgl/lvgl/src/extra/themes/basic/lv_theme_basic.c ****         lv_obj_add_style(obj, &styles->light, 0);
 518              		.loc 1 257 10 is_stmt 1 view .LVU156
 257:lvgl/lvgl/src/extra/themes/basic/lv_theme_basic.c ****         lv_obj_add_style(obj, &styles->light, 0);
 519              		.loc 1 257 13 is_stmt 0 view .LVU157
 520 01f8 4B49     		ldr	r1, .L47+36
 521 01fa 2046     		mov	r0, r4
 522 01fc FFF7FEFF 		bl	lv_obj_check_type
 523              	.LVL57:
 257:lvgl/lvgl/src/extra/themes/basic/lv_theme_basic.c ****         lv_obj_add_style(obj, &styles->light, 0);
 524              		.loc 1 257 12 view .LVU158
 525 0200 D8B1     		cbz	r0, .L17
 258:lvgl/lvgl/src/extra/themes/basic/lv_theme_basic.c ****         lv_obj_add_style(obj, &styles->pad_zero, 0);
 526              		.loc 1 258 9 is_stmt 1 view .LVU159
 258:lvgl/lvgl/src/extra/themes/basic/lv_theme_basic.c ****         lv_obj_add_style(obj, &styles->pad_zero, 0);
 527              		.loc 1 258 38 is_stmt 0 view .LVU160
 528 0202 434D     		ldr	r5, .L47+12
 529 0204 2968     		ldr	r1, [r5]
 258:lvgl/lvgl/src/extra/themes/basic/lv_theme_basic.c ****         lv_obj_add_style(obj, &styles->pad_zero, 0);
 530              		.loc 1 258 9 view .LVU161
 531 0206 0022     		movs	r2, #0
 532 0208 0831     		adds	r1, r1, #8
 533 020a 2046     		mov	r0, r4
 534 020c FFF7FEFF 		bl	lv_obj_add_style
 535              	.LVL58:
 259:lvgl/lvgl/src/extra/themes/basic/lv_theme_basic.c ****         lv_obj_add_style(obj, &styles->dark, LV_PART_INDICATOR);
 536              		.loc 1 259 9 is_stmt 1 view .LVU162
 259:lvgl/lvgl/src/extra/themes/basic/lv_theme_basic.c ****         lv_obj_add_style(obj, &styles->dark, LV_PART_INDICATOR);
 537              		.loc 1 259 38 is_stmt 0 view .LVU163
 538 0210 2968     		ldr	r1, [r5]
 259:lvgl/lvgl/src/extra/themes/basic/lv_theme_basic.c ****         lv_obj_add_style(obj, &styles->dark, LV_PART_INDICATOR);
 539              		.loc 1 259 9 view .LVU164
 540 0212 0022     		movs	r2, #0
 541 0214 3031     		adds	r1, r1, #48
 542 0216 2046     		mov	r0, r4
 543 0218 FFF7FEFF 		bl	lv_obj_add_style
 544              	.LVL59:
 260:lvgl/lvgl/src/extra/themes/basic/lv_theme_basic.c ****         lv_obj_add_style(obj, &styles->dark, LV_PART_KNOB);
 545              		.loc 1 260 9 is_stmt 1 view .LVU165
 260:lvgl/lvgl/src/extra/themes/basic/lv_theme_basic.c ****         lv_obj_add_style(obj, &styles->dark, LV_PART_KNOB);
 546              		.loc 1 260 38 is_stmt 0 view .LVU166
 547 021c 2968     		ldr	r1, [r5]
 260:lvgl/lvgl/src/extra/themes/basic/lv_theme_basic.c ****         lv_obj_add_style(obj, &styles->dark, LV_PART_KNOB);
 548              		.loc 1 260 9 view .LVU167
 549 021e 4FF40032 		mov	r2, #131072
 550 0222 1031     		adds	r1, r1, #16
 551 0224 2046     		mov	r0, r4
 552 0226 FFF7FEFF 		bl	lv_obj_add_style
 553              	.LVL60:
 261:lvgl/lvgl/src/extra/themes/basic/lv_theme_basic.c ****     }
 554              		.loc 1 261 9 is_stmt 1 view .LVU168
 261:lvgl/lvgl/src/extra/themes/basic/lv_theme_basic.c ****     }
 555              		.loc 1 261 38 is_stmt 0 view .LVU169
ARM GAS  C:\Users\gx\AppData\Local\Temp\ccpJsvWx.s 			page 32


 556 022a 2968     		ldr	r1, [r5]
 261:lvgl/lvgl/src/extra/themes/basic/lv_theme_basic.c ****     }
 557              		.loc 1 261 9 view .LVU170
 558 022c 4FF44032 		mov	r2, #196608
 559 0230 1031     		adds	r1, r1, #16
 560 0232 2046     		mov	r0, r4
 561 0234 FFF7FEFF 		bl	lv_obj_add_style
 562              	.LVL61:
 563 0238 7CE7     		b	.L4
 564              	.L17:
 266:lvgl/lvgl/src/extra/themes/basic/lv_theme_basic.c ****         lv_obj_add_style(obj, &styles->scrollbar, LV_PART_SCROLLBAR);
 565              		.loc 1 266 10 is_stmt 1 view .LVU171
 266:lvgl/lvgl/src/extra/themes/basic/lv_theme_basic.c ****         lv_obj_add_style(obj, &styles->scrollbar, LV_PART_SCROLLBAR);
 566              		.loc 1 266 13 is_stmt 0 view .LVU172
 567 023a 3C49     		ldr	r1, .L47+40
 568 023c 2046     		mov	r0, r4
 569 023e FFF7FEFF 		bl	lv_obj_check_type
 570              	.LVL62:
 266:lvgl/lvgl/src/extra/themes/basic/lv_theme_basic.c ****         lv_obj_add_style(obj, &styles->scrollbar, LV_PART_SCROLLBAR);
 571              		.loc 1 266 12 view .LVU173
 572 0242 A8B1     		cbz	r0, .L18
 267:lvgl/lvgl/src/extra/themes/basic/lv_theme_basic.c ****         lv_obj_add_style(obj, &styles->light, LV_PART_ITEMS);
 573              		.loc 1 267 9 is_stmt 1 view .LVU174
 267:lvgl/lvgl/src/extra/themes/basic/lv_theme_basic.c ****         lv_obj_add_style(obj, &styles->light, LV_PART_ITEMS);
 574              		.loc 1 267 38 is_stmt 0 view .LVU175
 575 0244 324D     		ldr	r5, .L47+12
 576 0246 2968     		ldr	r1, [r5]
 267:lvgl/lvgl/src/extra/themes/basic/lv_theme_basic.c ****         lv_obj_add_style(obj, &styles->light, LV_PART_ITEMS);
 577              		.loc 1 267 9 view .LVU176
 578 0248 4FF48032 		mov	r2, #65536
 579 024c 1831     		adds	r1, r1, #24
 580 024e 2046     		mov	r0, r4
 581 0250 FFF7FEFF 		bl	lv_obj_add_style
 582              	.LVL63:
 268:lvgl/lvgl/src/extra/themes/basic/lv_theme_basic.c ****         lv_obj_add_style(obj, &styles->pressed, LV_PART_ITEMS | LV_STATE_PRESSED);
 583              		.loc 1 268 9 is_stmt 1 view .LVU177
 268:lvgl/lvgl/src/extra/themes/basic/lv_theme_basic.c ****         lv_obj_add_style(obj, &styles->pressed, LV_PART_ITEMS | LV_STATE_PRESSED);
 584              		.loc 1 268 38 is_stmt 0 view .LVU178
 585 0254 2968     		ldr	r1, [r5]
 268:lvgl/lvgl/src/extra/themes/basic/lv_theme_basic.c ****         lv_obj_add_style(obj, &styles->pressed, LV_PART_ITEMS | LV_STATE_PRESSED);
 586              		.loc 1 268 9 view .LVU179
 587 0256 4FF4A022 		mov	r2, #327680
 588 025a 0831     		adds	r1, r1, #8
 589 025c 2046     		mov	r0, r4
 590 025e FFF7FEFF 		bl	lv_obj_add_style
 591              	.LVL64:
 269:lvgl/lvgl/src/extra/themes/basic/lv_theme_basic.c ****     }
 592              		.loc 1 269 9 is_stmt 1 view .LVU180
 269:lvgl/lvgl/src/extra/themes/basic/lv_theme_basic.c ****     }
 593              		.loc 1 269 38 is_stmt 0 view .LVU181
 594 0262 2968     		ldr	r1, [r5]
 269:lvgl/lvgl/src/extra/themes/basic/lv_theme_basic.c ****     }
 595              		.loc 1 269 9 view .LVU182
 596 0264 2E4A     		ldr	r2, .L47+28
 597 0266 2031     		adds	r1, r1, #32
 598 0268 2046     		mov	r0, r4
 599 026a FFF7FEFF 		bl	lv_obj_add_style
ARM GAS  C:\Users\gx\AppData\Local\Temp\ccpJsvWx.s 			page 33


 600              	.LVL65:
 601 026e 61E7     		b	.L4
 602              	.L18:
 274:lvgl/lvgl/src/extra/themes/basic/lv_theme_basic.c ****         lv_obj_add_style(obj, &styles->light, LV_PART_INDICATOR);
 603              		.loc 1 274 10 is_stmt 1 view .LVU183
 274:lvgl/lvgl/src/extra/themes/basic/lv_theme_basic.c ****         lv_obj_add_style(obj, &styles->light, LV_PART_INDICATOR);
 604              		.loc 1 274 13 is_stmt 0 view .LVU184
 605 0270 2F49     		ldr	r1, .L47+44
 606 0272 2046     		mov	r0, r4
 607 0274 FFF7FEFF 		bl	lv_obj_check_type
 608              	.LVL66:
 274:lvgl/lvgl/src/extra/themes/basic/lv_theme_basic.c ****         lv_obj_add_style(obj, &styles->light, LV_PART_INDICATOR);
 609              		.loc 1 274 12 view .LVU185
 610 0278 D0B1     		cbz	r0, .L19
 275:lvgl/lvgl/src/extra/themes/basic/lv_theme_basic.c ****         lv_obj_add_style(obj, &styles->disabled, LV_PART_INDICATOR | LV_STATE_DISABLED);
 611              		.loc 1 275 9 is_stmt 1 view .LVU186
 275:lvgl/lvgl/src/extra/themes/basic/lv_theme_basic.c ****         lv_obj_add_style(obj, &styles->disabled, LV_PART_INDICATOR | LV_STATE_DISABLED);
 612              		.loc 1 275 38 is_stmt 0 view .LVU187
 613 027a 254D     		ldr	r5, .L47+12
 614 027c 2968     		ldr	r1, [r5]
 275:lvgl/lvgl/src/extra/themes/basic/lv_theme_basic.c ****         lv_obj_add_style(obj, &styles->disabled, LV_PART_INDICATOR | LV_STATE_DISABLED);
 615              		.loc 1 275 9 view .LVU188
 616 027e 4FF40032 		mov	r2, #131072
 617 0282 0831     		adds	r1, r1, #8
 618 0284 2046     		mov	r0, r4
 619 0286 FFF7FEFF 		bl	lv_obj_add_style
 620              	.LVL67:
 276:lvgl/lvgl/src/extra/themes/basic/lv_theme_basic.c ****         lv_obj_add_style(obj, &styles->dark, LV_PART_INDICATOR | LV_STATE_CHECKED);
 621              		.loc 1 276 9 is_stmt 1 view .LVU189
 276:lvgl/lvgl/src/extra/themes/basic/lv_theme_basic.c ****         lv_obj_add_style(obj, &styles->dark, LV_PART_INDICATOR | LV_STATE_CHECKED);
 622              		.loc 1 276 38 is_stmt 0 view .LVU190
 623 028a 2968     		ldr	r1, [r5]
 276:lvgl/lvgl/src/extra/themes/basic/lv_theme_basic.c ****         lv_obj_add_style(obj, &styles->dark, LV_PART_INDICATOR | LV_STATE_CHECKED);
 624              		.loc 1 276 9 view .LVU191
 625 028c 294A     		ldr	r2, .L47+48
 626 028e 2831     		adds	r1, r1, #40
 627 0290 2046     		mov	r0, r4
 628 0292 FFF7FEFF 		bl	lv_obj_add_style
 629              	.LVL68:
 277:lvgl/lvgl/src/extra/themes/basic/lv_theme_basic.c ****         lv_obj_add_style(obj, &styles->pressed, LV_PART_INDICATOR | LV_STATE_PRESSED);
 630              		.loc 1 277 9 is_stmt 1 view .LVU192
 277:lvgl/lvgl/src/extra/themes/basic/lv_theme_basic.c ****         lv_obj_add_style(obj, &styles->pressed, LV_PART_INDICATOR | LV_STATE_PRESSED);
 631              		.loc 1 277 38 is_stmt 0 view .LVU193
 632 0296 2968     		ldr	r1, [r5]
 277:lvgl/lvgl/src/extra/themes/basic/lv_theme_basic.c ****         lv_obj_add_style(obj, &styles->pressed, LV_PART_INDICATOR | LV_STATE_PRESSED);
 633              		.loc 1 277 9 view .LVU194
 634 0298 274A     		ldr	r2, .L47+52
 635 029a 1031     		adds	r1, r1, #16
 636 029c 2046     		mov	r0, r4
 637 029e FFF7FEFF 		bl	lv_obj_add_style
 638              	.LVL69:
 278:lvgl/lvgl/src/extra/themes/basic/lv_theme_basic.c ****     }
 639              		.loc 1 278 9 is_stmt 1 view .LVU195
 278:lvgl/lvgl/src/extra/themes/basic/lv_theme_basic.c ****     }
 640              		.loc 1 278 38 is_stmt 0 view .LVU196
 641 02a2 2968     		ldr	r1, [r5]
 278:lvgl/lvgl/src/extra/themes/basic/lv_theme_basic.c ****     }
ARM GAS  C:\Users\gx\AppData\Local\Temp\ccpJsvWx.s 			page 34


 642              		.loc 1 278 9 view .LVU197
 643 02a4 254A     		ldr	r2, .L47+56
 644 02a6 2031     		adds	r1, r1, #32
 645 02a8 2046     		mov	r0, r4
 646 02aa FFF7FEFF 		bl	lv_obj_add_style
 647              	.LVL70:
 648 02ae 41E7     		b	.L4
 649              	.L19:
 283:lvgl/lvgl/src/extra/themes/basic/lv_theme_basic.c ****         lv_obj_add_style(obj, &styles->light, 0);
 650              		.loc 1 283 10 is_stmt 1 view .LVU198
 283:lvgl/lvgl/src/extra/themes/basic/lv_theme_basic.c ****         lv_obj_add_style(obj, &styles->light, 0);
 651              		.loc 1 283 13 is_stmt 0 view .LVU199
 652 02b0 2349     		ldr	r1, .L47+60
 653 02b2 2046     		mov	r0, r4
 654 02b4 FFF7FEFF 		bl	lv_obj_check_type
 655              	.LVL71:
 283:lvgl/lvgl/src/extra/themes/basic/lv_theme_basic.c ****         lv_obj_add_style(obj, &styles->light, 0);
 656              		.loc 1 283 12 view .LVU200
 657 02b8 0028     		cmp	r0, #0
 658 02ba 43D0     		beq	.L20
 284:lvgl/lvgl/src/extra/themes/basic/lv_theme_basic.c ****         lv_obj_add_style(obj, &styles->pad_zero, 0);
 659              		.loc 1 284 9 is_stmt 1 view .LVU201
 284:lvgl/lvgl/src/extra/themes/basic/lv_theme_basic.c ****         lv_obj_add_style(obj, &styles->pad_zero, 0);
 660              		.loc 1 284 38 is_stmt 0 view .LVU202
 661 02bc 144D     		ldr	r5, .L47+12
 662 02be 2968     		ldr	r1, [r5]
 284:lvgl/lvgl/src/extra/themes/basic/lv_theme_basic.c ****         lv_obj_add_style(obj, &styles->pad_zero, 0);
 663              		.loc 1 284 9 view .LVU203
 664 02c0 0022     		movs	r2, #0
 665 02c2 0831     		adds	r1, r1, #8
 666 02c4 2046     		mov	r0, r4
 667 02c6 FFF7FEFF 		bl	lv_obj_add_style
 668              	.LVL72:
 285:lvgl/lvgl/src/extra/themes/basic/lv_theme_basic.c ****         lv_obj_add_style(obj, &styles->dark, LV_PART_INDICATOR);
 669              		.loc 1 285 9 is_stmt 1 view .LVU204
 285:lvgl/lvgl/src/extra/themes/basic/lv_theme_basic.c ****         lv_obj_add_style(obj, &styles->dark, LV_PART_INDICATOR);
 670              		.loc 1 285 38 is_stmt 0 view .LVU205
 671 02ca 2968     		ldr	r1, [r5]
 285:lvgl/lvgl/src/extra/themes/basic/lv_theme_basic.c ****         lv_obj_add_style(obj, &styles->dark, LV_PART_INDICATOR);
 672              		.loc 1 285 9 view .LVU206
 673 02cc 0022     		movs	r2, #0
 674 02ce 3031     		adds	r1, r1, #48
 675 02d0 2046     		mov	r0, r4
 676 02d2 FFF7FEFF 		bl	lv_obj_add_style
 677              	.LVL73:
 286:lvgl/lvgl/src/extra/themes/basic/lv_theme_basic.c ****         lv_obj_add_style(obj, &styles->dark, LV_PART_KNOB);
 678              		.loc 1 286 9 is_stmt 1 view .LVU207
 286:lvgl/lvgl/src/extra/themes/basic/lv_theme_basic.c ****         lv_obj_add_style(obj, &styles->dark, LV_PART_KNOB);
 679              		.loc 1 286 38 is_stmt 0 view .LVU208
 680 02d6 2968     		ldr	r1, [r5]
 286:lvgl/lvgl/src/extra/themes/basic/lv_theme_basic.c ****         lv_obj_add_style(obj, &styles->dark, LV_PART_KNOB);
 681              		.loc 1 286 9 view .LVU209
 682 02d8 4FF40032 		mov	r2, #131072
 683 02dc 1031     		adds	r1, r1, #16
 684 02de 2046     		mov	r0, r4
 685 02e0 FFF7FEFF 		bl	lv_obj_add_style
 686              	.LVL74:
ARM GAS  C:\Users\gx\AppData\Local\Temp\ccpJsvWx.s 			page 35


 287:lvgl/lvgl/src/extra/themes/basic/lv_theme_basic.c ****         lv_obj_add_style(obj, &styles->pad_zero, LV_PART_KNOB);
 687              		.loc 1 287 9 is_stmt 1 view .LVU210
 287:lvgl/lvgl/src/extra/themes/basic/lv_theme_basic.c ****         lv_obj_add_style(obj, &styles->pad_zero, LV_PART_KNOB);
 688              		.loc 1 287 38 is_stmt 0 view .LVU211
 689 02e4 2968     		ldr	r1, [r5]
 287:lvgl/lvgl/src/extra/themes/basic/lv_theme_basic.c ****         lv_obj_add_style(obj, &styles->pad_zero, LV_PART_KNOB);
 690              		.loc 1 287 9 view .LVU212
 691 02e6 4FF44032 		mov	r2, #196608
 692 02ea 1031     		adds	r1, r1, #16
 693 02ec 2046     		mov	r0, r4
 694 02ee FFF7FEFF 		bl	lv_obj_add_style
 695              	.LVL75:
 288:lvgl/lvgl/src/extra/themes/basic/lv_theme_basic.c ****     }
 696              		.loc 1 288 9 is_stmt 1 view .LVU213
 288:lvgl/lvgl/src/extra/themes/basic/lv_theme_basic.c ****     }
 697              		.loc 1 288 38 is_stmt 0 view .LVU214
 698 02f2 2968     		ldr	r1, [r5]
 288:lvgl/lvgl/src/extra/themes/basic/lv_theme_basic.c ****     }
 699              		.loc 1 288 9 view .LVU215
 700 02f4 4FF44032 		mov	r2, #196608
 701 02f8 3031     		adds	r1, r1, #48
 702 02fa 2046     		mov	r0, r4
 703 02fc FFF7FEFF 		bl	lv_obj_add_style
 704              	.LVL76:
 705 0300 18E7     		b	.L4
 706              	.L48:
 707 0302 00BF     		.align	2
 708              	.L47:
 709 0304 00000000 		.word	lv_obj_class
 710 0308 00000000 		.word	lv_tabview_class
 711 030c 00000000 		.word	lv_win_class
 712 0310 00000000 		.word	.LANCHOR0
 713 0314 00000000 		.word	lv_btn_class
 714 0318 00000000 		.word	lv_btnmatrix_class
 715 031c 00000000 		.word	lv_msgbox_class
 716 0320 20000500 		.word	327712
 717 0324 00000000 		.word	lv_bar_class
 718 0328 00000000 		.word	lv_slider_class
 719 032c 00000000 		.word	lv_table_class
 720 0330 00000000 		.word	lv_checkbox_class
 721 0334 80000200 		.word	131200
 722 0338 01000200 		.word	131073
 723 033c 20000200 		.word	131104
 724 0340 00000000 		.word	lv_switch_class
 725              	.L20:
 293:lvgl/lvgl/src/extra/themes/basic/lv_theme_basic.c ****         lv_obj_add_style(obj, &styles->light, 0);
 726              		.loc 1 293 10 is_stmt 1 view .LVU216
 293:lvgl/lvgl/src/extra/themes/basic/lv_theme_basic.c ****         lv_obj_add_style(obj, &styles->light, 0);
 727              		.loc 1 293 13 is_stmt 0 view .LVU217
 728 0344 B849     		ldr	r1, .L49
 729 0346 2046     		mov	r0, r4
 730 0348 FFF7FEFF 		bl	lv_obj_check_type
 731              	.LVL77:
 293:lvgl/lvgl/src/extra/themes/basic/lv_theme_basic.c ****         lv_obj_add_style(obj, &styles->light, 0);
 732              		.loc 1 293 12 view .LVU218
 733 034c 18B3     		cbz	r0, .L21
 294:lvgl/lvgl/src/extra/themes/basic/lv_theme_basic.c ****         lv_obj_add_style(obj, &styles->scrollbar, LV_PART_SCROLLBAR);
ARM GAS  C:\Users\gx\AppData\Local\Temp\ccpJsvWx.s 			page 36


 734              		.loc 1 294 9 is_stmt 1 view .LVU219
 294:lvgl/lvgl/src/extra/themes/basic/lv_theme_basic.c ****         lv_obj_add_style(obj, &styles->scrollbar, LV_PART_SCROLLBAR);
 735              		.loc 1 294 38 is_stmt 0 view .LVU220
 736 034e B74D     		ldr	r5, .L49+4
 737 0350 2968     		ldr	r1, [r5]
 294:lvgl/lvgl/src/extra/themes/basic/lv_theme_basic.c ****         lv_obj_add_style(obj, &styles->scrollbar, LV_PART_SCROLLBAR);
 738              		.loc 1 294 9 view .LVU221
 739 0352 0022     		movs	r2, #0
 740 0354 0831     		adds	r1, r1, #8
 741 0356 2046     		mov	r0, r4
 742 0358 FFF7FEFF 		bl	lv_obj_add_style
 743              	.LVL78:
 295:lvgl/lvgl/src/extra/themes/basic/lv_theme_basic.c ****         lv_obj_add_style(obj, &styles->light, LV_PART_ITEMS);
 744              		.loc 1 295 9 is_stmt 1 view .LVU222
 295:lvgl/lvgl/src/extra/themes/basic/lv_theme_basic.c ****         lv_obj_add_style(obj, &styles->light, LV_PART_ITEMS);
 745              		.loc 1 295 38 is_stmt 0 view .LVU223
 746 035c 2968     		ldr	r1, [r5]
 295:lvgl/lvgl/src/extra/themes/basic/lv_theme_basic.c ****         lv_obj_add_style(obj, &styles->light, LV_PART_ITEMS);
 747              		.loc 1 295 9 view .LVU224
 748 035e 4FF48032 		mov	r2, #65536
 749 0362 1831     		adds	r1, r1, #24
 750 0364 2046     		mov	r0, r4
 751 0366 FFF7FEFF 		bl	lv_obj_add_style
 752              	.LVL79:
 296:lvgl/lvgl/src/extra/themes/basic/lv_theme_basic.c ****         lv_obj_add_style(obj, &styles->light, LV_PART_TICKS);
 753              		.loc 1 296 9 is_stmt 1 view .LVU225
 296:lvgl/lvgl/src/extra/themes/basic/lv_theme_basic.c ****         lv_obj_add_style(obj, &styles->light, LV_PART_TICKS);
 754              		.loc 1 296 38 is_stmt 0 view .LVU226
 755 036a 2968     		ldr	r1, [r5]
 296:lvgl/lvgl/src/extra/themes/basic/lv_theme_basic.c ****         lv_obj_add_style(obj, &styles->light, LV_PART_TICKS);
 756              		.loc 1 296 9 view .LVU227
 757 036c 4FF4A022 		mov	r2, #327680
 758 0370 0831     		adds	r1, r1, #8
 759 0372 2046     		mov	r0, r4
 760 0374 FFF7FEFF 		bl	lv_obj_add_style
 761              	.LVL80:
 297:lvgl/lvgl/src/extra/themes/basic/lv_theme_basic.c ****         lv_obj_add_style(obj, &styles->light, LV_PART_CURSOR);
 762              		.loc 1 297 9 is_stmt 1 view .LVU228
 297:lvgl/lvgl/src/extra/themes/basic/lv_theme_basic.c ****         lv_obj_add_style(obj, &styles->light, LV_PART_CURSOR);
 763              		.loc 1 297 38 is_stmt 0 view .LVU229
 764 0378 2968     		ldr	r1, [r5]
 297:lvgl/lvgl/src/extra/themes/basic/lv_theme_basic.c ****         lv_obj_add_style(obj, &styles->light, LV_PART_CURSOR);
 765              		.loc 1 297 9 view .LVU230
 766 037a 4FF4C022 		mov	r2, #393216
 767 037e 0831     		adds	r1, r1, #8
 768 0380 2046     		mov	r0, r4
 769 0382 FFF7FEFF 		bl	lv_obj_add_style
 770              	.LVL81:
 298:lvgl/lvgl/src/extra/themes/basic/lv_theme_basic.c ****     }
 771              		.loc 1 298 9 is_stmt 1 view .LVU231
 298:lvgl/lvgl/src/extra/themes/basic/lv_theme_basic.c ****     }
 772              		.loc 1 298 38 is_stmt 0 view .LVU232
 773 0386 2968     		ldr	r1, [r5]
 298:lvgl/lvgl/src/extra/themes/basic/lv_theme_basic.c ****     }
 774              		.loc 1 298 9 view .LVU233
 775 0388 4FF4E022 		mov	r2, #458752
 776 038c 0831     		adds	r1, r1, #8
ARM GAS  C:\Users\gx\AppData\Local\Temp\ccpJsvWx.s 			page 37


 777 038e 2046     		mov	r0, r4
 778 0390 FFF7FEFF 		bl	lv_obj_add_style
 779              	.LVL82:
 780 0394 CEE6     		b	.L4
 781              	.L21:
 303:lvgl/lvgl/src/extra/themes/basic/lv_theme_basic.c ****         lv_obj_add_style(obj, &styles->light, 0);
 782              		.loc 1 303 10 is_stmt 1 view .LVU234
 303:lvgl/lvgl/src/extra/themes/basic/lv_theme_basic.c ****         lv_obj_add_style(obj, &styles->light, 0);
 783              		.loc 1 303 13 is_stmt 0 view .LVU235
 784 0396 A649     		ldr	r1, .L49+8
 785 0398 2046     		mov	r0, r4
 786 039a FFF7FEFF 		bl	lv_obj_check_type
 787              	.LVL83:
 303:lvgl/lvgl/src/extra/themes/basic/lv_theme_basic.c ****         lv_obj_add_style(obj, &styles->light, 0);
 788              		.loc 1 303 12 view .LVU236
 789 039e 70B1     		cbz	r0, .L22
 304:lvgl/lvgl/src/extra/themes/basic/lv_theme_basic.c ****         lv_obj_add_style(obj, &styles->dark, LV_PART_SELECTED);
 790              		.loc 1 304 9 is_stmt 1 view .LVU237
 304:lvgl/lvgl/src/extra/themes/basic/lv_theme_basic.c ****         lv_obj_add_style(obj, &styles->dark, LV_PART_SELECTED);
 791              		.loc 1 304 38 is_stmt 0 view .LVU238
 792 03a0 A24D     		ldr	r5, .L49+4
 793 03a2 2968     		ldr	r1, [r5]
 304:lvgl/lvgl/src/extra/themes/basic/lv_theme_basic.c ****         lv_obj_add_style(obj, &styles->dark, LV_PART_SELECTED);
 794              		.loc 1 304 9 view .LVU239
 795 03a4 0022     		movs	r2, #0
 796 03a6 0831     		adds	r1, r1, #8
 797 03a8 2046     		mov	r0, r4
 798 03aa FFF7FEFF 		bl	lv_obj_add_style
 799              	.LVL84:
 305:lvgl/lvgl/src/extra/themes/basic/lv_theme_basic.c ****     }
 800              		.loc 1 305 9 is_stmt 1 view .LVU240
 305:lvgl/lvgl/src/extra/themes/basic/lv_theme_basic.c ****     }
 801              		.loc 1 305 38 is_stmt 0 view .LVU241
 802 03ae 2968     		ldr	r1, [r5]
 305:lvgl/lvgl/src/extra/themes/basic/lv_theme_basic.c ****     }
 803              		.loc 1 305 9 view .LVU242
 804 03b0 4FF48022 		mov	r2, #262144
 805 03b4 1031     		adds	r1, r1, #16
 806 03b6 2046     		mov	r0, r4
 807 03b8 FFF7FEFF 		bl	lv_obj_add_style
 808              	.LVL85:
 809 03bc BAE6     		b	.L4
 810              	.L22:
 310:lvgl/lvgl/src/extra/themes/basic/lv_theme_basic.c ****         lv_obj_add_style(obj, &styles->light, 0);
 811              		.loc 1 310 10 is_stmt 1 view .LVU243
 310:lvgl/lvgl/src/extra/themes/basic/lv_theme_basic.c ****         lv_obj_add_style(obj, &styles->light, 0);
 812              		.loc 1 310 13 is_stmt 0 view .LVU244
 813 03be 9D49     		ldr	r1, .L49+12
 814 03c0 2046     		mov	r0, r4
 815 03c2 FFF7FEFF 		bl	lv_obj_check_type
 816              	.LVL86:
 310:lvgl/lvgl/src/extra/themes/basic/lv_theme_basic.c ****         lv_obj_add_style(obj, &styles->light, 0);
 817              		.loc 1 310 12 view .LVU245
 818 03c6 68B1     		cbz	r0, .L23
 311:lvgl/lvgl/src/extra/themes/basic/lv_theme_basic.c ****         lv_obj_add_style(obj, &styles->pressed, LV_STATE_PRESSED);
 819              		.loc 1 311 9 is_stmt 1 view .LVU246
 311:lvgl/lvgl/src/extra/themes/basic/lv_theme_basic.c ****         lv_obj_add_style(obj, &styles->pressed, LV_STATE_PRESSED);
ARM GAS  C:\Users\gx\AppData\Local\Temp\ccpJsvWx.s 			page 38


 820              		.loc 1 311 38 is_stmt 0 view .LVU247
 821 03c8 984D     		ldr	r5, .L49+4
 822 03ca 2968     		ldr	r1, [r5]
 311:lvgl/lvgl/src/extra/themes/basic/lv_theme_basic.c ****         lv_obj_add_style(obj, &styles->pressed, LV_STATE_PRESSED);
 823              		.loc 1 311 9 view .LVU248
 824 03cc 0022     		movs	r2, #0
 825 03ce 0831     		adds	r1, r1, #8
 826 03d0 2046     		mov	r0, r4
 827 03d2 FFF7FEFF 		bl	lv_obj_add_style
 828              	.LVL87:
 312:lvgl/lvgl/src/extra/themes/basic/lv_theme_basic.c ****     }
 829              		.loc 1 312 9 is_stmt 1 view .LVU249
 312:lvgl/lvgl/src/extra/themes/basic/lv_theme_basic.c ****     }
 830              		.loc 1 312 38 is_stmt 0 view .LVU250
 831 03d6 2968     		ldr	r1, [r5]
 312:lvgl/lvgl/src/extra/themes/basic/lv_theme_basic.c ****     }
 832              		.loc 1 312 9 view .LVU251
 833 03d8 2022     		movs	r2, #32
 834 03da 1144     		add	r1, r1, r2
 835 03dc 2046     		mov	r0, r4
 836 03de FFF7FEFF 		bl	lv_obj_add_style
 837              	.LVL88:
 838 03e2 A7E6     		b	.L4
 839              	.L23:
 314:lvgl/lvgl/src/extra/themes/basic/lv_theme_basic.c ****         lv_obj_add_style(obj, &styles->light, 0);
 840              		.loc 1 314 10 is_stmt 1 view .LVU252
 314:lvgl/lvgl/src/extra/themes/basic/lv_theme_basic.c ****         lv_obj_add_style(obj, &styles->light, 0);
 841              		.loc 1 314 13 is_stmt 0 view .LVU253
 842 03e4 9449     		ldr	r1, .L49+16
 843 03e6 2046     		mov	r0, r4
 844 03e8 FFF7FEFF 		bl	lv_obj_check_type
 845              	.LVL89:
 314:lvgl/lvgl/src/extra/themes/basic/lv_theme_basic.c ****         lv_obj_add_style(obj, &styles->light, 0);
 846              		.loc 1 314 12 view .LVU254
 847 03ec 08B3     		cbz	r0, .L24
 315:lvgl/lvgl/src/extra/themes/basic/lv_theme_basic.c ****         lv_obj_add_style(obj, &styles->scrollbar, LV_PART_SCROLLBAR);
 848              		.loc 1 315 9 is_stmt 1 view .LVU255
 315:lvgl/lvgl/src/extra/themes/basic/lv_theme_basic.c ****         lv_obj_add_style(obj, &styles->scrollbar, LV_PART_SCROLLBAR);
 849              		.loc 1 315 38 is_stmt 0 view .LVU256
 850 03ee 8F4D     		ldr	r5, .L49+4
 851 03f0 2968     		ldr	r1, [r5]
 315:lvgl/lvgl/src/extra/themes/basic/lv_theme_basic.c ****         lv_obj_add_style(obj, &styles->scrollbar, LV_PART_SCROLLBAR);
 852              		.loc 1 315 9 view .LVU257
 853 03f2 0022     		movs	r2, #0
 854 03f4 0831     		adds	r1, r1, #8
 855 03f6 2046     		mov	r0, r4
 856 03f8 FFF7FEFF 		bl	lv_obj_add_style
 857              	.LVL90:
 316:lvgl/lvgl/src/extra/themes/basic/lv_theme_basic.c ****         lv_obj_add_style(obj, &styles->light, LV_PART_SELECTED);
 858              		.loc 1 316 9 is_stmt 1 view .LVU258
 316:lvgl/lvgl/src/extra/themes/basic/lv_theme_basic.c ****         lv_obj_add_style(obj, &styles->light, LV_PART_SELECTED);
 859              		.loc 1 316 38 is_stmt 0 view .LVU259
 860 03fc 2968     		ldr	r1, [r5]
 316:lvgl/lvgl/src/extra/themes/basic/lv_theme_basic.c ****         lv_obj_add_style(obj, &styles->light, LV_PART_SELECTED);
 861              		.loc 1 316 9 view .LVU260
 862 03fe 4FF48032 		mov	r2, #65536
 863 0402 1831     		adds	r1, r1, #24
ARM GAS  C:\Users\gx\AppData\Local\Temp\ccpJsvWx.s 			page 39


 864 0404 2046     		mov	r0, r4
 865 0406 FFF7FEFF 		bl	lv_obj_add_style
 866              	.LVL91:
 317:lvgl/lvgl/src/extra/themes/basic/lv_theme_basic.c ****         lv_obj_add_style(obj, &styles->dark, LV_PART_SELECTED | LV_STATE_CHECKED);
 867              		.loc 1 317 9 is_stmt 1 view .LVU261
 317:lvgl/lvgl/src/extra/themes/basic/lv_theme_basic.c ****         lv_obj_add_style(obj, &styles->dark, LV_PART_SELECTED | LV_STATE_CHECKED);
 868              		.loc 1 317 38 is_stmt 0 view .LVU262
 869 040a 2968     		ldr	r1, [r5]
 317:lvgl/lvgl/src/extra/themes/basic/lv_theme_basic.c ****         lv_obj_add_style(obj, &styles->dark, LV_PART_SELECTED | LV_STATE_CHECKED);
 870              		.loc 1 317 9 view .LVU263
 871 040c 4FF48022 		mov	r2, #262144
 872 0410 0831     		adds	r1, r1, #8
 873 0412 2046     		mov	r0, r4
 874 0414 FFF7FEFF 		bl	lv_obj_add_style
 875              	.LVL92:
 318:lvgl/lvgl/src/extra/themes/basic/lv_theme_basic.c ****         lv_obj_add_style(obj, &styles->pressed, LV_PART_SELECTED | LV_STATE_PRESSED);
 876              		.loc 1 318 9 is_stmt 1 view .LVU264
 318:lvgl/lvgl/src/extra/themes/basic/lv_theme_basic.c ****         lv_obj_add_style(obj, &styles->pressed, LV_PART_SELECTED | LV_STATE_PRESSED);
 877              		.loc 1 318 38 is_stmt 0 view .LVU265
 878 0418 2968     		ldr	r1, [r5]
 318:lvgl/lvgl/src/extra/themes/basic/lv_theme_basic.c ****         lv_obj_add_style(obj, &styles->pressed, LV_PART_SELECTED | LV_STATE_PRESSED);
 879              		.loc 1 318 9 view .LVU266
 880 041a 884A     		ldr	r2, .L49+20
 881 041c 1031     		adds	r1, r1, #16
 882 041e 2046     		mov	r0, r4
 883 0420 FFF7FEFF 		bl	lv_obj_add_style
 884              	.LVL93:
 319:lvgl/lvgl/src/extra/themes/basic/lv_theme_basic.c ****     }
 885              		.loc 1 319 9 is_stmt 1 view .LVU267
 319:lvgl/lvgl/src/extra/themes/basic/lv_theme_basic.c ****     }
 886              		.loc 1 319 38 is_stmt 0 view .LVU268
 887 0424 2968     		ldr	r1, [r5]
 319:lvgl/lvgl/src/extra/themes/basic/lv_theme_basic.c ****     }
 888              		.loc 1 319 9 view .LVU269
 889 0426 864A     		ldr	r2, .L49+24
 890 0428 2031     		adds	r1, r1, #32
 891 042a 2046     		mov	r0, r4
 892 042c FFF7FEFF 		bl	lv_obj_add_style
 893              	.LVL94:
 894 0430 80E6     		b	.L4
 895              	.L24:
 324:lvgl/lvgl/src/extra/themes/basic/lv_theme_basic.c ****         lv_obj_add_style(obj, &styles->light, 0);
 896              		.loc 1 324 10 is_stmt 1 view .LVU270
 324:lvgl/lvgl/src/extra/themes/basic/lv_theme_basic.c ****         lv_obj_add_style(obj, &styles->light, 0);
 897              		.loc 1 324 13 is_stmt 0 view .LVU271
 898 0432 8449     		ldr	r1, .L49+28
 899 0434 2046     		mov	r0, r4
 900 0436 FFF7FEFF 		bl	lv_obj_check_type
 901              	.LVL95:
 324:lvgl/lvgl/src/extra/themes/basic/lv_theme_basic.c ****         lv_obj_add_style(obj, &styles->light, 0);
 902              		.loc 1 324 12 view .LVU272
 903 043a E0B1     		cbz	r0, .L25
 325:lvgl/lvgl/src/extra/themes/basic/lv_theme_basic.c ****         lv_obj_add_style(obj, &styles->dark, LV_PART_INDICATOR);
 904              		.loc 1 325 9 is_stmt 1 view .LVU273
 325:lvgl/lvgl/src/extra/themes/basic/lv_theme_basic.c ****         lv_obj_add_style(obj, &styles->dark, LV_PART_INDICATOR);
 905              		.loc 1 325 38 is_stmt 0 view .LVU274
 906 043c 7B4D     		ldr	r5, .L49+4
ARM GAS  C:\Users\gx\AppData\Local\Temp\ccpJsvWx.s 			page 40


 907 043e 2968     		ldr	r1, [r5]
 325:lvgl/lvgl/src/extra/themes/basic/lv_theme_basic.c ****         lv_obj_add_style(obj, &styles->dark, LV_PART_INDICATOR);
 908              		.loc 1 325 9 view .LVU275
 909 0440 0022     		movs	r2, #0
 910 0442 0831     		adds	r1, r1, #8
 911 0444 2046     		mov	r0, r4
 912 0446 FFF7FEFF 		bl	lv_obj_add_style
 913              	.LVL96:
 326:lvgl/lvgl/src/extra/themes/basic/lv_theme_basic.c ****         lv_obj_add_style(obj, &styles->pad_zero, LV_PART_INDICATOR);
 914              		.loc 1 326 9 is_stmt 1 view .LVU276
 326:lvgl/lvgl/src/extra/themes/basic/lv_theme_basic.c ****         lv_obj_add_style(obj, &styles->pad_zero, LV_PART_INDICATOR);
 915              		.loc 1 326 38 is_stmt 0 view .LVU277
 916 044a 2968     		ldr	r1, [r5]
 326:lvgl/lvgl/src/extra/themes/basic/lv_theme_basic.c ****         lv_obj_add_style(obj, &styles->pad_zero, LV_PART_INDICATOR);
 917              		.loc 1 326 9 view .LVU278
 918 044c 4FF40032 		mov	r2, #131072
 919 0450 1031     		adds	r1, r1, #16
 920 0452 2046     		mov	r0, r4
 921 0454 FFF7FEFF 		bl	lv_obj_add_style
 922              	.LVL97:
 327:lvgl/lvgl/src/extra/themes/basic/lv_theme_basic.c ****         lv_obj_add_style(obj, &styles->dark, LV_PART_KNOB);
 923              		.loc 1 327 9 is_stmt 1 view .LVU279
 327:lvgl/lvgl/src/extra/themes/basic/lv_theme_basic.c ****         lv_obj_add_style(obj, &styles->dark, LV_PART_KNOB);
 924              		.loc 1 327 38 is_stmt 0 view .LVU280
 925 0458 2968     		ldr	r1, [r5]
 327:lvgl/lvgl/src/extra/themes/basic/lv_theme_basic.c ****         lv_obj_add_style(obj, &styles->dark, LV_PART_KNOB);
 926              		.loc 1 327 9 view .LVU281
 927 045a 4FF40032 		mov	r2, #131072
 928 045e 3031     		adds	r1, r1, #48
 929 0460 2046     		mov	r0, r4
 930 0462 FFF7FEFF 		bl	lv_obj_add_style
 931              	.LVL98:
 328:lvgl/lvgl/src/extra/themes/basic/lv_theme_basic.c ****     }
 932              		.loc 1 328 9 is_stmt 1 view .LVU282
 328:lvgl/lvgl/src/extra/themes/basic/lv_theme_basic.c ****     }
 933              		.loc 1 328 38 is_stmt 0 view .LVU283
 934 0466 2968     		ldr	r1, [r5]
 328:lvgl/lvgl/src/extra/themes/basic/lv_theme_basic.c ****     }
 935              		.loc 1 328 9 view .LVU284
 936 0468 4FF44032 		mov	r2, #196608
 937 046c 1031     		adds	r1, r1, #16
 938 046e 2046     		mov	r0, r4
 939 0470 FFF7FEFF 		bl	lv_obj_add_style
 940              	.LVL99:
 941 0474 5EE6     		b	.L4
 942              	.L25:
 333:lvgl/lvgl/src/extra/themes/basic/lv_theme_basic.c ****         lv_obj_add_style(obj, &styles->light, 0);
 943              		.loc 1 333 10 is_stmt 1 view .LVU285
 333:lvgl/lvgl/src/extra/themes/basic/lv_theme_basic.c ****         lv_obj_add_style(obj, &styles->light, 0);
 944              		.loc 1 333 13 is_stmt 0 view .LVU286
 945 0476 7449     		ldr	r1, .L49+32
 946 0478 2046     		mov	r0, r4
 947 047a FFF7FEFF 		bl	lv_obj_check_type
 948              	.LVL100:
 333:lvgl/lvgl/src/extra/themes/basic/lv_theme_basic.c ****         lv_obj_add_style(obj, &styles->light, 0);
 949              		.loc 1 333 12 view .LVU287
 950 047e 38B1     		cbz	r0, .L26
ARM GAS  C:\Users\gx\AppData\Local\Temp\ccpJsvWx.s 			page 41


 334:lvgl/lvgl/src/extra/themes/basic/lv_theme_basic.c ****     }
 951              		.loc 1 334 9 is_stmt 1 view .LVU288
 334:lvgl/lvgl/src/extra/themes/basic/lv_theme_basic.c ****     }
 952              		.loc 1 334 38 is_stmt 0 view .LVU289
 953 0480 6A4B     		ldr	r3, .L49+4
 954 0482 1968     		ldr	r1, [r3]
 334:lvgl/lvgl/src/extra/themes/basic/lv_theme_basic.c ****     }
 955              		.loc 1 334 9 view .LVU290
 956 0484 0022     		movs	r2, #0
 957 0486 0831     		adds	r1, r1, #8
 958 0488 2046     		mov	r0, r4
 959 048a FFF7FEFF 		bl	lv_obj_add_style
 960              	.LVL101:
 961 048e 51E6     		b	.L4
 962              	.L26:
 339:lvgl/lvgl/src/extra/themes/basic/lv_theme_basic.c ****         lv_obj_add_style(obj, &styles->light, 0);
 963              		.loc 1 339 10 is_stmt 1 view .LVU291
 339:lvgl/lvgl/src/extra/themes/basic/lv_theme_basic.c ****         lv_obj_add_style(obj, &styles->light, 0);
 964              		.loc 1 339 13 is_stmt 0 view .LVU292
 965 0490 6E49     		ldr	r1, .L49+36
 966 0492 2046     		mov	r0, r4
 967 0494 FFF7FEFF 		bl	lv_obj_check_type
 968              	.LVL102:
 339:lvgl/lvgl/src/extra/themes/basic/lv_theme_basic.c ****         lv_obj_add_style(obj, &styles->light, 0);
 969              		.loc 1 339 12 view .LVU293
 970 0498 E0B1     		cbz	r0, .L27
 340:lvgl/lvgl/src/extra/themes/basic/lv_theme_basic.c ****         lv_obj_add_style(obj, &styles->scrollbar, LV_PART_SCROLLBAR);
 971              		.loc 1 340 9 is_stmt 1 view .LVU294
 340:lvgl/lvgl/src/extra/themes/basic/lv_theme_basic.c ****         lv_obj_add_style(obj, &styles->scrollbar, LV_PART_SCROLLBAR);
 972              		.loc 1 340 38 is_stmt 0 view .LVU295
 973 049a 644D     		ldr	r5, .L49+4
 974 049c 2968     		ldr	r1, [r5]
 340:lvgl/lvgl/src/extra/themes/basic/lv_theme_basic.c ****         lv_obj_add_style(obj, &styles->scrollbar, LV_PART_SCROLLBAR);
 975              		.loc 1 340 9 view .LVU296
 976 049e 0022     		movs	r2, #0
 977 04a0 0831     		adds	r1, r1, #8
 978 04a2 2046     		mov	r0, r4
 979 04a4 FFF7FEFF 		bl	lv_obj_add_style
 980              	.LVL103:
 341:lvgl/lvgl/src/extra/themes/basic/lv_theme_basic.c ****         lv_obj_add_style(obj, &styles->ta_cursor, LV_PART_CURSOR);
 981              		.loc 1 341 9 is_stmt 1 view .LVU297
 341:lvgl/lvgl/src/extra/themes/basic/lv_theme_basic.c ****         lv_obj_add_style(obj, &styles->ta_cursor, LV_PART_CURSOR);
 982              		.loc 1 341 38 is_stmt 0 view .LVU298
 983 04a8 2968     		ldr	r1, [r5]
 341:lvgl/lvgl/src/extra/themes/basic/lv_theme_basic.c ****         lv_obj_add_style(obj, &styles->ta_cursor, LV_PART_CURSOR);
 984              		.loc 1 341 9 view .LVU299
 985 04aa 4FF48032 		mov	r2, #65536
 986 04ae 1831     		adds	r1, r1, #24
 987 04b0 2046     		mov	r0, r4
 988 04b2 FFF7FEFF 		bl	lv_obj_add_style
 989              	.LVL104:
 342:lvgl/lvgl/src/extra/themes/basic/lv_theme_basic.c ****         lv_obj_add_style(obj, &styles->light, LV_PART_TEXTAREA_PLACEHOLDER);
 990              		.loc 1 342 9 is_stmt 1 view .LVU300
 342:lvgl/lvgl/src/extra/themes/basic/lv_theme_basic.c ****         lv_obj_add_style(obj, &styles->light, LV_PART_TEXTAREA_PLACEHOLDER);
 991              		.loc 1 342 38 is_stmt 0 view .LVU301
 992 04b6 2968     		ldr	r1, [r5]
 342:lvgl/lvgl/src/extra/themes/basic/lv_theme_basic.c ****         lv_obj_add_style(obj, &styles->light, LV_PART_TEXTAREA_PLACEHOLDER);
ARM GAS  C:\Users\gx\AppData\Local\Temp\ccpJsvWx.s 			page 42


 993              		.loc 1 342 9 view .LVU302
 994 04b8 4FF4E022 		mov	r2, #458752
 995 04bc 3831     		adds	r1, r1, #56
 996 04be 2046     		mov	r0, r4
 997 04c0 FFF7FEFF 		bl	lv_obj_add_style
 998              	.LVL105:
 343:lvgl/lvgl/src/extra/themes/basic/lv_theme_basic.c ****     }
 999              		.loc 1 343 9 is_stmt 1 view .LVU303
 343:lvgl/lvgl/src/extra/themes/basic/lv_theme_basic.c ****     }
 1000              		.loc 1 343 38 is_stmt 0 view .LVU304
 1001 04c4 2968     		ldr	r1, [r5]
 343:lvgl/lvgl/src/extra/themes/basic/lv_theme_basic.c ****     }
 1002              		.loc 1 343 9 view .LVU305
 1003 04c6 4FF40022 		mov	r2, #524288
 1004 04ca 0831     		adds	r1, r1, #8
 1005 04cc 2046     		mov	r0, r4
 1006 04ce FFF7FEFF 		bl	lv_obj_add_style
 1007              	.LVL106:
 1008 04d2 2FE6     		b	.L4
 1009              	.L27:
 348:lvgl/lvgl/src/extra/themes/basic/lv_theme_basic.c ****         lv_obj_add_style(obj, &styles->light, 0);
 1010              		.loc 1 348 10 is_stmt 1 view .LVU306
 348:lvgl/lvgl/src/extra/themes/basic/lv_theme_basic.c ****         lv_obj_add_style(obj, &styles->light, 0);
 1011              		.loc 1 348 13 is_stmt 0 view .LVU307
 1012 04d4 5E49     		ldr	r1, .L49+40
 1013 04d6 2046     		mov	r0, r4
 1014 04d8 FFF7FEFF 		bl	lv_obj_check_type
 1015              	.LVL107:
 348:lvgl/lvgl/src/extra/themes/basic/lv_theme_basic.c ****         lv_obj_add_style(obj, &styles->light, 0);
 1016              		.loc 1 348 12 view .LVU308
 1017 04dc D0B1     		cbz	r0, .L28
 349:lvgl/lvgl/src/extra/themes/basic/lv_theme_basic.c ****         lv_obj_add_style(obj, &styles->light, LV_PART_ITEMS | LV_STATE_PRESSED);
 1018              		.loc 1 349 9 is_stmt 1 view .LVU309
 349:lvgl/lvgl/src/extra/themes/basic/lv_theme_basic.c ****         lv_obj_add_style(obj, &styles->light, LV_PART_ITEMS | LV_STATE_PRESSED);
 1019              		.loc 1 349 38 is_stmt 0 view .LVU310
 1020 04de 534D     		ldr	r5, .L49+4
 1021 04e0 2968     		ldr	r1, [r5]
 349:lvgl/lvgl/src/extra/themes/basic/lv_theme_basic.c ****         lv_obj_add_style(obj, &styles->light, LV_PART_ITEMS | LV_STATE_PRESSED);
 1022              		.loc 1 349 9 view .LVU311
 1023 04e2 0022     		movs	r2, #0
 1024 04e4 0831     		adds	r1, r1, #8
 1025 04e6 2046     		mov	r0, r4
 1026 04e8 FFF7FEFF 		bl	lv_obj_add_style
 1027              	.LVL108:
 350:lvgl/lvgl/src/extra/themes/basic/lv_theme_basic.c ****         lv_obj_add_style(obj, &styles->pressed, LV_PART_ITEMS | LV_STATE_PRESSED);
 1028              		.loc 1 350 9 is_stmt 1 view .LVU312
 350:lvgl/lvgl/src/extra/themes/basic/lv_theme_basic.c ****         lv_obj_add_style(obj, &styles->pressed, LV_PART_ITEMS | LV_STATE_PRESSED);
 1029              		.loc 1 350 38 is_stmt 0 view .LVU313
 1030 04ec 2968     		ldr	r1, [r5]
 350:lvgl/lvgl/src/extra/themes/basic/lv_theme_basic.c ****         lv_obj_add_style(obj, &styles->pressed, LV_PART_ITEMS | LV_STATE_PRESSED);
 1031              		.loc 1 350 9 view .LVU314
 1032 04ee 594E     		ldr	r6, .L49+44
 1033 04f0 3246     		mov	r2, r6
 1034 04f2 0831     		adds	r1, r1, #8
 1035 04f4 2046     		mov	r0, r4
 1036 04f6 FFF7FEFF 		bl	lv_obj_add_style
 1037              	.LVL109:
ARM GAS  C:\Users\gx\AppData\Local\Temp\ccpJsvWx.s 			page 43


 351:lvgl/lvgl/src/extra/themes/basic/lv_theme_basic.c ****         lv_obj_add_style(obj, &styles->disabled, LV_PART_ITEMS | LV_STATE_DISABLED);
 1038              		.loc 1 351 9 is_stmt 1 view .LVU315
 351:lvgl/lvgl/src/extra/themes/basic/lv_theme_basic.c ****         lv_obj_add_style(obj, &styles->disabled, LV_PART_ITEMS | LV_STATE_DISABLED);
 1039              		.loc 1 351 38 is_stmt 0 view .LVU316
 1040 04fa 2968     		ldr	r1, [r5]
 351:lvgl/lvgl/src/extra/themes/basic/lv_theme_basic.c ****         lv_obj_add_style(obj, &styles->disabled, LV_PART_ITEMS | LV_STATE_DISABLED);
 1041              		.loc 1 351 9 view .LVU317
 1042 04fc 3246     		mov	r2, r6
 1043 04fe 2031     		adds	r1, r1, #32
 1044 0500 2046     		mov	r0, r4
 1045 0502 FFF7FEFF 		bl	lv_obj_add_style
 1046              	.LVL110:
 352:lvgl/lvgl/src/extra/themes/basic/lv_theme_basic.c ****     }
 1047              		.loc 1 352 9 is_stmt 1 view .LVU318
 352:lvgl/lvgl/src/extra/themes/basic/lv_theme_basic.c ****     }
 1048              		.loc 1 352 38 is_stmt 0 view .LVU319
 1049 0506 2968     		ldr	r1, [r5]
 352:lvgl/lvgl/src/extra/themes/basic/lv_theme_basic.c ****     }
 1050              		.loc 1 352 9 view .LVU320
 1051 0508 534A     		ldr	r2, .L49+48
 1052 050a 2831     		adds	r1, r1, #40
 1053 050c 2046     		mov	r0, r4
 1054 050e FFF7FEFF 		bl	lv_obj_add_style
 1055              	.LVL111:
 1056 0512 0FE6     		b	.L4
 1057              	.L28:
 357:lvgl/lvgl/src/extra/themes/basic/lv_theme_basic.c ****         lv_obj_add_style(obj, &styles->light, 0);
 1058              		.loc 1 357 10 is_stmt 1 view .LVU321
 357:lvgl/lvgl/src/extra/themes/basic/lv_theme_basic.c ****         lv_obj_add_style(obj, &styles->light, 0);
 1059              		.loc 1 357 13 is_stmt 0 view .LVU322
 1060 0514 5149     		ldr	r1, .L49+52
 1061 0516 2046     		mov	r0, r4
 1062 0518 FFF7FEFF 		bl	lv_obj_check_type
 1063              	.LVL112:
 357:lvgl/lvgl/src/extra/themes/basic/lv_theme_basic.c ****         lv_obj_add_style(obj, &styles->light, 0);
 1064              		.loc 1 357 12 view .LVU323
 1065 051c A0B1     		cbz	r0, .L29
 358:lvgl/lvgl/src/extra/themes/basic/lv_theme_basic.c ****         lv_obj_add_style(obj, &styles->light, LV_PART_ITEMS);
 1066              		.loc 1 358 9 is_stmt 1 view .LVU324
 358:lvgl/lvgl/src/extra/themes/basic/lv_theme_basic.c ****         lv_obj_add_style(obj, &styles->light, LV_PART_ITEMS);
 1067              		.loc 1 358 38 is_stmt 0 view .LVU325
 1068 051e 434D     		ldr	r5, .L49+4
 1069 0520 2968     		ldr	r1, [r5]
 358:lvgl/lvgl/src/extra/themes/basic/lv_theme_basic.c ****         lv_obj_add_style(obj, &styles->light, LV_PART_ITEMS);
 1070              		.loc 1 358 9 view .LVU326
 1071 0522 0022     		movs	r2, #0
 1072 0524 0831     		adds	r1, r1, #8
 1073 0526 2046     		mov	r0, r4
 1074 0528 FFF7FEFF 		bl	lv_obj_add_style
 1075              	.LVL113:
 359:lvgl/lvgl/src/extra/themes/basic/lv_theme_basic.c ****         lv_obj_add_style(obj, &styles->pressed, LV_PART_ITEMS | LV_STATE_PRESSED);
 1076              		.loc 1 359 9 is_stmt 1 view .LVU327
 359:lvgl/lvgl/src/extra/themes/basic/lv_theme_basic.c ****         lv_obj_add_style(obj, &styles->pressed, LV_PART_ITEMS | LV_STATE_PRESSED);
 1077              		.loc 1 359 38 is_stmt 0 view .LVU328
 1078 052c 2968     		ldr	r1, [r5]
 359:lvgl/lvgl/src/extra/themes/basic/lv_theme_basic.c ****         lv_obj_add_style(obj, &styles->pressed, LV_PART_ITEMS | LV_STATE_PRESSED);
 1079              		.loc 1 359 9 view .LVU329
ARM GAS  C:\Users\gx\AppData\Local\Temp\ccpJsvWx.s 			page 44


 1080 052e 4FF4A022 		mov	r2, #327680
 1081 0532 0831     		adds	r1, r1, #8
 1082 0534 2046     		mov	r0, r4
 1083 0536 FFF7FEFF 		bl	lv_obj_add_style
 1084              	.LVL114:
 360:lvgl/lvgl/src/extra/themes/basic/lv_theme_basic.c ****     }
 1085              		.loc 1 360 9 is_stmt 1 view .LVU330
 360:lvgl/lvgl/src/extra/themes/basic/lv_theme_basic.c ****     }
 1086              		.loc 1 360 38 is_stmt 0 view .LVU331
 1087 053a 2968     		ldr	r1, [r5]
 360:lvgl/lvgl/src/extra/themes/basic/lv_theme_basic.c ****     }
 1088              		.loc 1 360 9 view .LVU332
 1089 053c 454A     		ldr	r2, .L49+44
 1090 053e 2031     		adds	r1, r1, #32
 1091 0540 2046     		mov	r0, r4
 1092 0542 FFF7FEFF 		bl	lv_obj_add_style
 1093              	.LVL115:
 1094 0546 F5E5     		b	.L4
 1095              	.L29:
 364:lvgl/lvgl/src/extra/themes/basic/lv_theme_basic.c ****         lv_obj_add_style(obj, &styles->light, 0);
 1096              		.loc 1 364 10 is_stmt 1 view .LVU333
 364:lvgl/lvgl/src/extra/themes/basic/lv_theme_basic.c ****         lv_obj_add_style(obj, &styles->light, 0);
 1097              		.loc 1 364 13 is_stmt 0 view .LVU334
 1098 0548 4549     		ldr	r1, .L49+56
 1099 054a 2046     		mov	r0, r4
 1100 054c FFF7FEFF 		bl	lv_obj_check_type
 1101              	.LVL116:
 364:lvgl/lvgl/src/extra/themes/basic/lv_theme_basic.c ****         lv_obj_add_style(obj, &styles->light, 0);
 1102              		.loc 1 364 12 view .LVU335
 1103 0550 C8B9     		cbnz	r0, .L45
 369:lvgl/lvgl/src/extra/themes/basic/lv_theme_basic.c **** 
 1104              		.loc 1 369 10 is_stmt 1 view .LVU336
 369:lvgl/lvgl/src/extra/themes/basic/lv_theme_basic.c **** 
 1105              		.loc 1 369 13 is_stmt 0 view .LVU337
 1106 0552 4449     		ldr	r1, .L49+60
 1107 0554 2046     		mov	r0, r4
 1108 0556 FFF7FEFF 		bl	lv_obj_check_type
 1109              	.LVL117:
 369:lvgl/lvgl/src/extra/themes/basic/lv_theme_basic.c **** 
 1110              		.loc 1 369 12 view .LVU338
 1111 055a 0028     		cmp	r0, #0
 1112 055c 7FF4EAAD 		bne	.L4
 372:lvgl/lvgl/src/extra/themes/basic/lv_theme_basic.c ****         lv_obj_add_style(obj, &styles->dark, 0);
 1113              		.loc 1 372 10 is_stmt 1 view .LVU339
 372:lvgl/lvgl/src/extra/themes/basic/lv_theme_basic.c ****         lv_obj_add_style(obj, &styles->dark, 0);
 1114              		.loc 1 372 13 is_stmt 0 view .LVU340
 1115 0560 4149     		ldr	r1, .L49+64
 1116 0562 2046     		mov	r0, r4
 1117 0564 FFF7FEFF 		bl	lv_obj_check_type
 1118              	.LVL118:
 372:lvgl/lvgl/src/extra/themes/basic/lv_theme_basic.c ****         lv_obj_add_style(obj, &styles->dark, 0);
 1119              		.loc 1 372 12 view .LVU341
 1120 0568 E0B1     		cbz	r0, .L31
 373:lvgl/lvgl/src/extra/themes/basic/lv_theme_basic.c ****         lv_obj_add_style(obj, &styles->pressed, LV_STATE_PRESSED);
 1121              		.loc 1 373 9 is_stmt 1 view .LVU342
 373:lvgl/lvgl/src/extra/themes/basic/lv_theme_basic.c ****         lv_obj_add_style(obj, &styles->pressed, LV_STATE_PRESSED);
 1122              		.loc 1 373 38 is_stmt 0 view .LVU343
ARM GAS  C:\Users\gx\AppData\Local\Temp\ccpJsvWx.s 			page 45


 1123 056a 304D     		ldr	r5, .L49+4
 1124 056c 2968     		ldr	r1, [r5]
 373:lvgl/lvgl/src/extra/themes/basic/lv_theme_basic.c ****         lv_obj_add_style(obj, &styles->pressed, LV_STATE_PRESSED);
 1125              		.loc 1 373 9 view .LVU344
 1126 056e 0022     		movs	r2, #0
 1127 0570 1031     		adds	r1, r1, #16
 1128 0572 2046     		mov	r0, r4
 1129 0574 FFF7FEFF 		bl	lv_obj_add_style
 1130              	.LVL119:
 374:lvgl/lvgl/src/extra/themes/basic/lv_theme_basic.c **** 
 1131              		.loc 1 374 9 is_stmt 1 view .LVU345
 374:lvgl/lvgl/src/extra/themes/basic/lv_theme_basic.c **** 
 1132              		.loc 1 374 38 is_stmt 0 view .LVU346
 1133 0578 2968     		ldr	r1, [r5]
 374:lvgl/lvgl/src/extra/themes/basic/lv_theme_basic.c **** 
 1134              		.loc 1 374 9 view .LVU347
 1135 057a 2022     		movs	r2, #32
 1136 057c 1144     		add	r1, r1, r2
 1137 057e 2046     		mov	r0, r4
 1138 0580 FFF7FEFF 		bl	lv_obj_add_style
 1139              	.LVL120:
 1140 0584 D6E5     		b	.L4
 1141              	.L45:
 365:lvgl/lvgl/src/extra/themes/basic/lv_theme_basic.c ****         lv_obj_add_style(obj, &styles->scrollbar, LV_PART_SCROLLBAR);
 1142              		.loc 1 365 9 is_stmt 1 view .LVU348
 365:lvgl/lvgl/src/extra/themes/basic/lv_theme_basic.c ****         lv_obj_add_style(obj, &styles->scrollbar, LV_PART_SCROLLBAR);
 1143              		.loc 1 365 38 is_stmt 0 view .LVU349
 1144 0586 294D     		ldr	r5, .L49+4
 1145 0588 2968     		ldr	r1, [r5]
 365:lvgl/lvgl/src/extra/themes/basic/lv_theme_basic.c ****         lv_obj_add_style(obj, &styles->scrollbar, LV_PART_SCROLLBAR);
 1146              		.loc 1 365 9 view .LVU350
 1147 058a 0022     		movs	r2, #0
 1148 058c 0831     		adds	r1, r1, #8
 1149 058e 2046     		mov	r0, r4
 1150 0590 FFF7FEFF 		bl	lv_obj_add_style
 1151              	.LVL121:
 366:lvgl/lvgl/src/extra/themes/basic/lv_theme_basic.c ****         return;
 1152              		.loc 1 366 9 is_stmt 1 view .LVU351
 366:lvgl/lvgl/src/extra/themes/basic/lv_theme_basic.c ****         return;
 1153              		.loc 1 366 38 is_stmt 0 view .LVU352
 1154 0594 2968     		ldr	r1, [r5]
 366:lvgl/lvgl/src/extra/themes/basic/lv_theme_basic.c ****         return;
 1155              		.loc 1 366 9 view .LVU353
 1156 0596 4FF48032 		mov	r2, #65536
 1157 059a 1831     		adds	r1, r1, #24
 1158 059c 2046     		mov	r0, r4
 1159 059e FFF7FEFF 		bl	lv_obj_add_style
 1160              	.LVL122:
 367:lvgl/lvgl/src/extra/themes/basic/lv_theme_basic.c ****     }
 1161              		.loc 1 367 9 is_stmt 1 view .LVU354
 1162 05a2 C7E5     		b	.L4
 1163              	.L31:
 379:lvgl/lvgl/src/extra/themes/basic/lv_theme_basic.c ****         lv_obj_add_style(obj, &styles->light, 0);
 1164              		.loc 1 379 10 view .LVU355
 379:lvgl/lvgl/src/extra/themes/basic/lv_theme_basic.c ****         lv_obj_add_style(obj, &styles->light, 0);
 1165              		.loc 1 379 13 is_stmt 0 view .LVU356
 1166 05a4 3149     		ldr	r1, .L49+68
ARM GAS  C:\Users\gx\AppData\Local\Temp\ccpJsvWx.s 			page 46


 1167 05a6 2046     		mov	r0, r4
 1168 05a8 FFF7FEFF 		bl	lv_obj_check_type
 1169              	.LVL123:
 379:lvgl/lvgl/src/extra/themes/basic/lv_theme_basic.c ****         lv_obj_add_style(obj, &styles->light, 0);
 1170              		.loc 1 379 12 view .LVU357
 1171 05ac 98B9     		cbnz	r0, .L46
 385:lvgl/lvgl/src/extra/themes/basic/lv_theme_basic.c ****         lv_obj_add_style(obj, &styles->light, 0);
 1172              		.loc 1 385 10 is_stmt 1 view .LVU358
 385:lvgl/lvgl/src/extra/themes/basic/lv_theme_basic.c ****         lv_obj_add_style(obj, &styles->light, 0);
 1173              		.loc 1 385 13 is_stmt 0 view .LVU359
 1174 05ae 3049     		ldr	r1, .L49+72
 1175 05b0 2046     		mov	r0, r4
 1176 05b2 FFF7FEFF 		bl	lv_obj_check_type
 1177              	.LVL124:
 385:lvgl/lvgl/src/extra/themes/basic/lv_theme_basic.c ****         lv_obj_add_style(obj, &styles->light, 0);
 1178              		.loc 1 385 12 view .LVU360
 1179 05b6 B0B1     		cbz	r0, .L33
 386:lvgl/lvgl/src/extra/themes/basic/lv_theme_basic.c ****         lv_obj_add_style(obj, &styles->dark, LV_PART_CURSOR);
 1180              		.loc 1 386 9 is_stmt 1 view .LVU361
 386:lvgl/lvgl/src/extra/themes/basic/lv_theme_basic.c ****         lv_obj_add_style(obj, &styles->dark, LV_PART_CURSOR);
 1181              		.loc 1 386 38 is_stmt 0 view .LVU362
 1182 05b8 1C4D     		ldr	r5, .L49+4
 1183 05ba 2968     		ldr	r1, [r5]
 386:lvgl/lvgl/src/extra/themes/basic/lv_theme_basic.c ****         lv_obj_add_style(obj, &styles->dark, LV_PART_CURSOR);
 1184              		.loc 1 386 9 view .LVU363
 1185 05bc 0022     		movs	r2, #0
 1186 05be 0831     		adds	r1, r1, #8
 1187 05c0 2046     		mov	r0, r4
 1188 05c2 FFF7FEFF 		bl	lv_obj_add_style
 1189              	.LVL125:
 387:lvgl/lvgl/src/extra/themes/basic/lv_theme_basic.c ****     }
 1190              		.loc 1 387 9 is_stmt 1 view .LVU364
 387:lvgl/lvgl/src/extra/themes/basic/lv_theme_basic.c ****     }
 1191              		.loc 1 387 38 is_stmt 0 view .LVU365
 1192 05c6 2968     		ldr	r1, [r5]
 387:lvgl/lvgl/src/extra/themes/basic/lv_theme_basic.c ****     }
 1193              		.loc 1 387 9 view .LVU366
 1194 05c8 4FF4E022 		mov	r2, #458752
 1195 05cc 1031     		adds	r1, r1, #16
 1196 05ce 2046     		mov	r0, r4
 1197 05d0 FFF7FEFF 		bl	lv_obj_add_style
 1198              	.LVL126:
 1199 05d4 AEE5     		b	.L4
 1200              	.L46:
 380:lvgl/lvgl/src/extra/themes/basic/lv_theme_basic.c ****         return;
 1201              		.loc 1 380 9 is_stmt 1 view .LVU367
 380:lvgl/lvgl/src/extra/themes/basic/lv_theme_basic.c ****         return;
 1202              		.loc 1 380 38 is_stmt 0 view .LVU368
 1203 05d6 154B     		ldr	r3, .L49+4
 1204 05d8 1968     		ldr	r1, [r3]
 380:lvgl/lvgl/src/extra/themes/basic/lv_theme_basic.c ****         return;
 1205              		.loc 1 380 9 view .LVU369
 1206 05da 0022     		movs	r2, #0
 1207 05dc 0831     		adds	r1, r1, #8
 1208 05de 2046     		mov	r0, r4
 1209 05e0 FFF7FEFF 		bl	lv_obj_add_style
 1210              	.LVL127:
ARM GAS  C:\Users\gx\AppData\Local\Temp\ccpJsvWx.s 			page 47


 381:lvgl/lvgl/src/extra/themes/basic/lv_theme_basic.c ****     }
 1211              		.loc 1 381 9 is_stmt 1 view .LVU370
 1212 05e4 A6E5     		b	.L4
 1213              	.L33:
 391:lvgl/lvgl/src/extra/themes/basic/lv_theme_basic.c ****         lv_obj_add_style(obj, &styles->scr, 0);
 1214              		.loc 1 391 10 view .LVU371
 391:lvgl/lvgl/src/extra/themes/basic/lv_theme_basic.c ****         lv_obj_add_style(obj, &styles->scr, 0);
 1215              		.loc 1 391 13 is_stmt 0 view .LVU372
 1216 05e6 2349     		ldr	r1, .L49+76
 1217 05e8 2046     		mov	r0, r4
 1218 05ea FFF7FEFF 		bl	lv_obj_check_type
 1219              	.LVL128:
 391:lvgl/lvgl/src/extra/themes/basic/lv_theme_basic.c ****         lv_obj_add_style(obj, &styles->scr, 0);
 1220              		.loc 1 391 12 view .LVU373
 1221 05ee 68B1     		cbz	r0, .L34
 392:lvgl/lvgl/src/extra/themes/basic/lv_theme_basic.c ****         lv_obj_add_style(obj, &styles->scrollbar, LV_PART_SCROLLBAR);
 1222              		.loc 1 392 9 is_stmt 1 view .LVU374
 392:lvgl/lvgl/src/extra/themes/basic/lv_theme_basic.c ****         lv_obj_add_style(obj, &styles->scrollbar, LV_PART_SCROLLBAR);
 1223              		.loc 1 392 38 is_stmt 0 view .LVU375
 1224 05f0 0E4D     		ldr	r5, .L49+4
 392:lvgl/lvgl/src/extra/themes/basic/lv_theme_basic.c ****         lv_obj_add_style(obj, &styles->scrollbar, LV_PART_SCROLLBAR);
 1225              		.loc 1 392 9 view .LVU376
 1226 05f2 0022     		movs	r2, #0
 1227 05f4 2968     		ldr	r1, [r5]
 1228 05f6 2046     		mov	r0, r4
 1229 05f8 FFF7FEFF 		bl	lv_obj_add_style
 1230              	.LVL129:
 393:lvgl/lvgl/src/extra/themes/basic/lv_theme_basic.c ****     }
 1231              		.loc 1 393 9 is_stmt 1 view .LVU377
 393:lvgl/lvgl/src/extra/themes/basic/lv_theme_basic.c ****     }
 1232              		.loc 1 393 38 is_stmt 0 view .LVU378
 1233 05fc 2968     		ldr	r1, [r5]
 393:lvgl/lvgl/src/extra/themes/basic/lv_theme_basic.c ****     }
 1234              		.loc 1 393 9 view .LVU379
 1235 05fe 4FF48032 		mov	r2, #65536
 1236 0602 1831     		adds	r1, r1, #24
 1237 0604 2046     		mov	r0, r4
 1238 0606 FFF7FEFF 		bl	lv_obj_add_style
 1239              	.LVL130:
 1240 060a 93E5     		b	.L4
 1241              	.L34:
 395:lvgl/lvgl/src/extra/themes/basic/lv_theme_basic.c ****         lv_obj_add_style(obj, &styles->scrollbar, LV_PART_SCROLLBAR);
 1242              		.loc 1 395 10 is_stmt 1 view .LVU380
 395:lvgl/lvgl/src/extra/themes/basic/lv_theme_basic.c ****         lv_obj_add_style(obj, &styles->scrollbar, LV_PART_SCROLLBAR);
 1243              		.loc 1 395 13 is_stmt 0 view .LVU381
 1244 060c 1A49     		ldr	r1, .L49+80
 1245 060e 2046     		mov	r0, r4
 1246 0610 FFF7FEFF 		bl	lv_obj_check_type
 1247              	.LVL131:
 395:lvgl/lvgl/src/extra/themes/basic/lv_theme_basic.c ****         lv_obj_add_style(obj, &styles->scrollbar, LV_PART_SCROLLBAR);
 1248              		.loc 1 395 12 view .LVU382
 1249 0614 90B3     		cbz	r0, .L35
 396:lvgl/lvgl/src/extra/themes/basic/lv_theme_basic.c ****     }
 1250              		.loc 1 396 9 is_stmt 1 view .LVU383
 396:lvgl/lvgl/src/extra/themes/basic/lv_theme_basic.c ****     }
 1251              		.loc 1 396 38 is_stmt 0 view .LVU384
 1252 0616 054B     		ldr	r3, .L49+4
ARM GAS  C:\Users\gx\AppData\Local\Temp\ccpJsvWx.s 			page 48


 1253 0618 1968     		ldr	r1, [r3]
 396:lvgl/lvgl/src/extra/themes/basic/lv_theme_basic.c ****     }
 1254              		.loc 1 396 9 view .LVU385
 1255 061a 4FF48032 		mov	r2, #65536
 1256 061e 1831     		adds	r1, r1, #24
 1257 0620 2046     		mov	r0, r4
 1258 0622 FFF7FEFF 		bl	lv_obj_add_style
 1259              	.LVL132:
 1260 0626 85E5     		b	.L4
 1261              	.L50:
 1262              		.align	2
 1263              	.L49:
 1264 0628 00000000 		.word	lv_chart_class
 1265 062c 00000000 		.word	.LANCHOR0
 1266 0630 00000000 		.word	lv_roller_class
 1267 0634 00000000 		.word	lv_dropdown_class
 1268 0638 00000000 		.word	lv_dropdownlist_class
 1269 063c 01000400 		.word	262145
 1270 0640 20000400 		.word	262176
 1271 0644 00000000 		.word	lv_arc_class
 1272 0648 00000000 		.word	lv_meter_class
 1273 064c 00000000 		.word	lv_textarea_class
 1274 0650 00000000 		.word	lv_calendar_class
 1275 0654 20000500 		.word	327712
 1276 0658 80000500 		.word	327808
 1277 065c 00000000 		.word	lv_keyboard_class
 1278 0660 00000000 		.word	lv_list_class
 1279 0664 00000000 		.word	lv_list_text_class
 1280 0668 00000000 		.word	lv_list_btn_class
 1281 066c 00000000 		.word	lv_msgbox_class
 1282 0670 00000000 		.word	lv_spinbox_class
 1283 0674 00000000 		.word	lv_tileview_class
 1284 0678 00000000 		.word	lv_tileview_tile_class
 1285              	.L35:
 401:lvgl/lvgl/src/extra/themes/basic/lv_theme_basic.c ****         lv_obj_add_style(obj, &styles->light, 0);
 1286              		.loc 1 401 10 is_stmt 1 view .LVU386
 401:lvgl/lvgl/src/extra/themes/basic/lv_theme_basic.c ****         lv_obj_add_style(obj, &styles->light, 0);
 1287              		.loc 1 401 13 is_stmt 0 view .LVU387
 1288 067c 1149     		ldr	r1, .L51
 1289 067e 2046     		mov	r0, r4
 1290 0680 FFF7FEFF 		bl	lv_obj_check_type
 1291              	.LVL133:
 401:lvgl/lvgl/src/extra/themes/basic/lv_theme_basic.c ****         lv_obj_add_style(obj, &styles->light, 0);
 1292              		.loc 1 401 12 view .LVU388
 1293 0684 70B1     		cbz	r0, .L36
 402:lvgl/lvgl/src/extra/themes/basic/lv_theme_basic.c ****         lv_obj_add_style(obj, &styles->light, LV_PART_KNOB);
 1294              		.loc 1 402 9 is_stmt 1 view .LVU389
 402:lvgl/lvgl/src/extra/themes/basic/lv_theme_basic.c ****         lv_obj_add_style(obj, &styles->light, LV_PART_KNOB);
 1295              		.loc 1 402 38 is_stmt 0 view .LVU390
 1296 0686 104D     		ldr	r5, .L51+4
 1297 0688 2968     		ldr	r1, [r5]
 402:lvgl/lvgl/src/extra/themes/basic/lv_theme_basic.c ****         lv_obj_add_style(obj, &styles->light, LV_PART_KNOB);
 1298              		.loc 1 402 9 view .LVU391
 1299 068a 0022     		movs	r2, #0
 1300 068c 0831     		adds	r1, r1, #8
 1301 068e 2046     		mov	r0, r4
 1302 0690 FFF7FEFF 		bl	lv_obj_add_style
ARM GAS  C:\Users\gx\AppData\Local\Temp\ccpJsvWx.s 			page 49


 1303              	.LVL134:
 403:lvgl/lvgl/src/extra/themes/basic/lv_theme_basic.c ****     }
 1304              		.loc 1 403 9 is_stmt 1 view .LVU392
 403:lvgl/lvgl/src/extra/themes/basic/lv_theme_basic.c ****     }
 1305              		.loc 1 403 38 is_stmt 0 view .LVU393
 1306 0694 2968     		ldr	r1, [r5]
 403:lvgl/lvgl/src/extra/themes/basic/lv_theme_basic.c ****     }
 1307              		.loc 1 403 9 view .LVU394
 1308 0696 4FF44032 		mov	r2, #196608
 1309 069a 0831     		adds	r1, r1, #8
 1310 069c 2046     		mov	r0, r4
 1311 069e FFF7FEFF 		bl	lv_obj_add_style
 1312              	.LVL135:
 1313 06a2 47E5     		b	.L4
 1314              	.L36:
 408:lvgl/lvgl/src/extra/themes/basic/lv_theme_basic.c ****             lv_obj_add_style(obj, &styles->light, 0);
 1315              		.loc 1 408 10 is_stmt 1 view .LVU395
 408:lvgl/lvgl/src/extra/themes/basic/lv_theme_basic.c ****             lv_obj_add_style(obj, &styles->light, 0);
 1316              		.loc 1 408 13 is_stmt 0 view .LVU396
 1317 06a4 0949     		ldr	r1, .L51+8
 1318 06a6 2046     		mov	r0, r4
 1319 06a8 FFF7FEFF 		bl	lv_obj_check_type
 1320              	.LVL136:
 408:lvgl/lvgl/src/extra/themes/basic/lv_theme_basic.c ****             lv_obj_add_style(obj, &styles->light, 0);
 1321              		.loc 1 408 12 view .LVU397
 1322 06ac 0028     		cmp	r0, #0
 1323 06ae 3FF441AD 		beq	.L4
 409:lvgl/lvgl/src/extra/themes/basic/lv_theme_basic.c ****         }
 1324              		.loc 1 409 13 is_stmt 1 view .LVU398
 409:lvgl/lvgl/src/extra/themes/basic/lv_theme_basic.c ****         }
 1325              		.loc 1 409 42 is_stmt 0 view .LVU399
 1326 06b2 054B     		ldr	r3, .L51+4
 1327 06b4 1968     		ldr	r1, [r3]
 409:lvgl/lvgl/src/extra/themes/basic/lv_theme_basic.c ****         }
 1328              		.loc 1 409 13 view .LVU400
 1329 06b6 0022     		movs	r2, #0
 1330 06b8 0831     		adds	r1, r1, #8
 1331 06ba 2046     		mov	r0, r4
 1332 06bc FFF7FEFF 		bl	lv_obj_add_style
 1333              	.LVL137:
 1334 06c0 38E5     		b	.L4
 1335              	.L52:
 1336 06c2 00BF     		.align	2
 1337              	.L51:
 1338 06c4 00000000 		.word	lv_colorwheel_class
 1339 06c8 00000000 		.word	.LANCHOR0
 1340 06cc 00000000 		.word	lv_led_class
 1341              		.cfi_endproc
 1342              	.LFE193:
 1344              		.section	.text.dark_color_filter_cb,"ax",%progbits
 1345              		.align	1
 1346              		.syntax unified
 1347              		.thumb
 1348              		.thumb_func
 1349              		.fpu fpv4-sp-d16
 1351              	dark_color_filter_cb:
 1352              	.LVL138:
ARM GAS  C:\Users\gx\AppData\Local\Temp\ccpJsvWx.s 			page 50


 1353              	.LFB189:
  66:lvgl/lvgl/src/extra/themes/basic/lv_theme_basic.c ****     LV_UNUSED(f);
 1354              		.loc 1 66 1 is_stmt 1 view -0
 1355              		.cfi_startproc
 1356              		@ args = 0, pretend = 0, frame = 0
 1357              		@ frame_needed = 0, uses_anonymous_args = 0
  66:lvgl/lvgl/src/extra/themes/basic/lv_theme_basic.c ****     LV_UNUSED(f);
 1358              		.loc 1 66 1 is_stmt 0 view .LVU402
 1359 0000 08B5     		push	{r3, lr}
 1360              	.LCFI1:
 1361              		.cfi_def_cfa_offset 8
 1362              		.cfi_offset 3, -8
 1363              		.cfi_offset 14, -4
 1364 0002 0846     		mov	r0, r1	@ movhi
 1365              	.LVL139:
  67:lvgl/lvgl/src/extra/themes/basic/lv_theme_basic.c ****     return lv_color_darken(c, opa);
 1366              		.loc 1 67 5 is_stmt 1 view .LVU403
  68:lvgl/lvgl/src/extra/themes/basic/lv_theme_basic.c **** }
 1367              		.loc 1 68 5 view .LVU404
  68:lvgl/lvgl/src/extra/themes/basic/lv_theme_basic.c **** }
 1368              		.loc 1 68 12 is_stmt 0 view .LVU405
 1369 0004 1146     		mov	r1, r2
 1370              	.LVL140:
  68:lvgl/lvgl/src/extra/themes/basic/lv_theme_basic.c **** }
 1371              		.loc 1 68 12 view .LVU406
 1372 0006 FFF7FEFF 		bl	lv_color_darken
 1373              	.LVL141:
  69:lvgl/lvgl/src/extra/themes/basic/lv_theme_basic.c **** 
 1374              		.loc 1 69 1 view .LVU407
 1375 000a 08BD     		pop	{r3, pc}
 1376              		.cfi_endproc
 1377              	.LFE189:
 1379              		.section	.text.style_init_reset,"ax",%progbits
 1380              		.align	1
 1381              		.syntax unified
 1382              		.thumb
 1383              		.thumb_func
 1384              		.fpu fpv4-sp-d16
 1386              	style_init_reset:
 1387              	.LVL142:
 1388              	.LFB194:
 413:lvgl/lvgl/src/extra/themes/basic/lv_theme_basic.c **** 
 414:lvgl/lvgl/src/extra/themes/basic/lv_theme_basic.c **** /**********************
 415:lvgl/lvgl/src/extra/themes/basic/lv_theme_basic.c ****  *   STATIC FUNCTIONS
 416:lvgl/lvgl/src/extra/themes/basic/lv_theme_basic.c ****  **********************/
 417:lvgl/lvgl/src/extra/themes/basic/lv_theme_basic.c **** 
 418:lvgl/lvgl/src/extra/themes/basic/lv_theme_basic.c **** static void style_init_reset(lv_style_t * style)
 419:lvgl/lvgl/src/extra/themes/basic/lv_theme_basic.c **** {
 1389              		.loc 1 419 1 is_stmt 1 view -0
 1390              		.cfi_startproc
 1391              		@ args = 0, pretend = 0, frame = 0
 1392              		@ frame_needed = 0, uses_anonymous_args = 0
 1393              		.loc 1 419 1 is_stmt 0 view .LVU409
 1394 0000 08B5     		push	{r3, lr}
 1395              	.LCFI2:
 1396              		.cfi_def_cfa_offset 8
 1397              		.cfi_offset 3, -8
ARM GAS  C:\Users\gx\AppData\Local\Temp\ccpJsvWx.s 			page 51


 1398              		.cfi_offset 14, -4
 420:lvgl/lvgl/src/extra/themes/basic/lv_theme_basic.c ****     if(inited) lv_style_reset(style);
 1399              		.loc 1 420 5 is_stmt 1 view .LVU410
 1400              		.loc 1 420 8 is_stmt 0 view .LVU411
 1401 0002 044B     		ldr	r3, .L59
 1402 0004 1B78     		ldrb	r3, [r3]	@ zero_extendqisi2
 1403              		.loc 1 420 7 view .LVU412
 1404 0006 13B1     		cbz	r3, .L56
 1405              		.loc 1 420 16 is_stmt 1 discriminator 1 view .LVU413
 1406 0008 FFF7FEFF 		bl	lv_style_reset
 1407              	.LVL143:
 1408              	.L55:
 421:lvgl/lvgl/src/extra/themes/basic/lv_theme_basic.c ****     else lv_style_init(style);
 422:lvgl/lvgl/src/extra/themes/basic/lv_theme_basic.c **** }
 1409              		.loc 1 422 1 is_stmt 0 view .LVU414
 1410 000c 08BD     		pop	{r3, pc}
 1411              	.LVL144:
 1412              	.L56:
 421:lvgl/lvgl/src/extra/themes/basic/lv_theme_basic.c ****     else lv_style_init(style);
 1413              		.loc 1 421 10 is_stmt 1 view .LVU415
 1414 000e FFF7FEFF 		bl	lv_style_init
 1415              	.LVL145:
 1416              		.loc 1 422 1 is_stmt 0 view .LVU416
 1417 0012 FBE7     		b	.L55
 1418              	.L60:
 1419              		.align	2
 1420              	.L59:
 1421 0014 00000000 		.word	.LANCHOR1
 1422              		.cfi_endproc
 1423              	.LFE194:
 1425              		.section	.text.style_init,"ax",%progbits
 1426              		.align	1
 1427              		.syntax unified
 1428              		.thumb
 1429              		.thumb_func
 1430              		.fpu fpv4-sp-d16
 1432              	style_init:
 1433              	.LFB191:
  79:lvgl/lvgl/src/extra/themes/basic/lv_theme_basic.c ****     style_init_reset(&styles->scrollbar);
 1434              		.loc 1 79 1 is_stmt 1 view -0
 1435              		.cfi_startproc
 1436              		@ args = 0, pretend = 0, frame = 0
 1437              		@ frame_needed = 0, uses_anonymous_args = 0
 1438 0000 38B5     		push	{r3, r4, r5, lr}
 1439              	.LCFI3:
 1440              		.cfi_def_cfa_offset 16
 1441              		.cfi_offset 3, -16
 1442              		.cfi_offset 4, -12
 1443              		.cfi_offset 5, -8
 1444              		.cfi_offset 14, -4
  80:lvgl/lvgl/src/extra/themes/basic/lv_theme_basic.c ****     lv_style_set_bg_opa(&styles->scrollbar, LV_OPA_COVER);
 1445              		.loc 1 80 5 view .LVU418
  80:lvgl/lvgl/src/extra/themes/basic/lv_theme_basic.c ****     lv_style_set_bg_opa(&styles->scrollbar, LV_OPA_COVER);
 1446              		.loc 1 80 29 is_stmt 0 view .LVU419
 1447 0002 DC4C     		ldr	r4, .L96
 1448 0004 2068     		ldr	r0, [r4]
  80:lvgl/lvgl/src/extra/themes/basic/lv_theme_basic.c ****     lv_style_set_bg_opa(&styles->scrollbar, LV_OPA_COVER);
ARM GAS  C:\Users\gx\AppData\Local\Temp\ccpJsvWx.s 			page 52


 1449              		.loc 1 80 5 view .LVU420
 1450 0006 1830     		adds	r0, r0, #24
 1451 0008 FFF7FEFF 		bl	style_init_reset
 1452              	.LVL146:
  81:lvgl/lvgl/src/extra/themes/basic/lv_theme_basic.c ****     lv_style_set_bg_color(&styles->scrollbar, lv_palette_darken(LV_PALETTE_GREY, 2));
 1453              		.loc 1 81 5 is_stmt 1 view .LVU421
  81:lvgl/lvgl/src/extra/themes/basic/lv_theme_basic.c ****     lv_style_set_bg_color(&styles->scrollbar, lv_palette_darken(LV_PALETTE_GREY, 2));
 1454              		.loc 1 81 32 is_stmt 0 view .LVU422
 1455 000c 2068     		ldr	r0, [r4]
  81:lvgl/lvgl/src/extra/themes/basic/lv_theme_basic.c ****     lv_style_set_bg_color(&styles->scrollbar, lv_palette_darken(LV_PALETTE_GREY, 2));
 1456              		.loc 1 81 5 view .LVU423
 1457 000e FF21     		movs	r1, #255
 1458 0010 1830     		adds	r0, r0, #24
 1459 0012 FFF7FEFF 		bl	lv_style_set_bg_opa
 1460              	.LVL147:
  82:lvgl/lvgl/src/extra/themes/basic/lv_theme_basic.c ****     lv_style_set_width(&styles->scrollbar,  PAD_DEF);
 1461              		.loc 1 82 5 is_stmt 1 view .LVU424
  82:lvgl/lvgl/src/extra/themes/basic/lv_theme_basic.c ****     lv_style_set_width(&styles->scrollbar,  PAD_DEF);
 1462              		.loc 1 82 34 is_stmt 0 view .LVU425
 1463 0016 2568     		ldr	r5, [r4]
  82:lvgl/lvgl/src/extra/themes/basic/lv_theme_basic.c ****     lv_style_set_width(&styles->scrollbar,  PAD_DEF);
 1464              		.loc 1 82 5 view .LVU426
 1465 0018 0221     		movs	r1, #2
 1466 001a 1220     		movs	r0, #18
 1467 001c FFF7FEFF 		bl	lv_palette_darken
 1468              	.LVL148:
 1469 0020 0146     		mov	r1, r0	@ movhi
 1470 0022 05F11800 		add	r0, r5, #24
 1471 0026 FFF7FEFF 		bl	lv_style_set_bg_color
 1472              	.LVL149:
  83:lvgl/lvgl/src/extra/themes/basic/lv_theme_basic.c **** 
 1473              		.loc 1 83 5 is_stmt 1 view .LVU427
  83:lvgl/lvgl/src/extra/themes/basic/lv_theme_basic.c **** 
 1474              		.loc 1 83 31 is_stmt 0 view .LVU428
 1475 002a 2468     		ldr	r4, [r4]
  83:lvgl/lvgl/src/extra/themes/basic/lv_theme_basic.c **** 
 1476              		.loc 1 83 5 view .LVU429
 1477 002c 1834     		adds	r4, r4, #24
  83:lvgl/lvgl/src/extra/themes/basic/lv_theme_basic.c **** 
 1478              		.loc 1 83 45 view .LVU430
 1479 002e 0020     		movs	r0, #0
 1480 0030 FFF7FEFF 		bl	lv_disp_get_dpi
 1481              	.LVL150:
 1482 0034 00EB8000 		add	r0, r0, r0, lsl #2
  83:lvgl/lvgl/src/extra/themes/basic/lv_theme_basic.c **** 
 1483              		.loc 1 83 5 view .LVU431
 1484 0038 EF28     		cmp	r0, #239
 1485 003a 00F3A581 		bgt	.L85
 1486 003e 0121     		movs	r1, #1
 1487              	.L62:
  83:lvgl/lvgl/src/extra/themes/basic/lv_theme_basic.c **** 
 1488              		.loc 1 83 5 discriminator 4 view .LVU432
 1489 0040 2046     		mov	r0, r4
 1490 0042 FFF7FEFF 		bl	lv_style_set_width
 1491              	.LVL151:
  85:lvgl/lvgl/src/extra/themes/basic/lv_theme_basic.c ****     lv_style_set_bg_opa(&styles->scr, LV_OPA_COVER);
 1492              		.loc 1 85 5 is_stmt 1 discriminator 4 view .LVU433
ARM GAS  C:\Users\gx\AppData\Local\Temp\ccpJsvWx.s 			page 53


  85:lvgl/lvgl/src/extra/themes/basic/lv_theme_basic.c ****     lv_style_set_bg_opa(&styles->scr, LV_OPA_COVER);
 1493              		.loc 1 85 29 is_stmt 0 discriminator 4 view .LVU434
 1494 0046 CB4C     		ldr	r4, .L96
  85:lvgl/lvgl/src/extra/themes/basic/lv_theme_basic.c ****     lv_style_set_bg_opa(&styles->scr, LV_OPA_COVER);
 1495              		.loc 1 85 5 discriminator 4 view .LVU435
 1496 0048 2068     		ldr	r0, [r4]
 1497 004a FFF7FEFF 		bl	style_init_reset
 1498              	.LVL152:
  86:lvgl/lvgl/src/extra/themes/basic/lv_theme_basic.c ****     lv_style_set_bg_color(&styles->scr, COLOR_WHITE);
 1499              		.loc 1 86 5 is_stmt 1 discriminator 4 view .LVU436
 1500 004e FF21     		movs	r1, #255
 1501 0050 2068     		ldr	r0, [r4]
 1502 0052 FFF7FEFF 		bl	lv_style_set_bg_opa
 1503              	.LVL153:
  87:lvgl/lvgl/src/extra/themes/basic/lv_theme_basic.c ****     lv_style_set_text_color(&styles->scr, COLOR_DIM);
 1504              		.loc 1 87 5 discriminator 4 view .LVU437
 1505              	.LBB51:
 1506              	.LBI51:
 1507              		.loc 2 687 26 discriminator 4 view .LVU438
 1508              	.LBE51:
 1509              		.loc 2 687 49 discriminator 4 view .LVU439
 1510              	.LBB54:
 1511              	.LBB52:
 1512              	.LBI52:
 615:d:\practise\f407_disc\lvgl\lvgl\src\misc\lv_color.h **** {
 1513              		.loc 2 615 26 discriminator 4 view .LVU440
 1514              	.LBB53:
 617:d:\practise\f407_disc\lvgl\lvgl\src\misc\lv_color.h **** }
 1515              		.loc 2 617 5 discriminator 4 view .LVU441
 617:d:\practise\f407_disc\lvgl\lvgl\src\misc\lv_color.h **** }
 1516              		.loc 2 617 5 is_stmt 0 discriminator 4 view .LVU442
 1517              	.LBE53:
 1518              	.LBE52:
 1519              	.LBE54:
  87:lvgl/lvgl/src/extra/themes/basic/lv_theme_basic.c ****     lv_style_set_text_color(&styles->scr, COLOR_DIM);
 1520              		.loc 1 87 5 discriminator 4 view .LVU443
 1521 0056 4FF0FF31 		mov	r1, #-1	@ movhi
 1522 005a 2068     		ldr	r0, [r4]
 1523 005c FFF7FEFF 		bl	lv_style_set_bg_color
 1524              	.LVL154:
  88:lvgl/lvgl/src/extra/themes/basic/lv_theme_basic.c ****     lv_style_set_pad_row(&styles->scr, PAD_DEF / 2);
 1525              		.loc 1 88 5 is_stmt 1 discriminator 4 view .LVU444
  88:lvgl/lvgl/src/extra/themes/basic/lv_theme_basic.c ****     lv_style_set_pad_row(&styles->scr, PAD_DEF / 2);
 1526              		.loc 1 88 36 is_stmt 0 discriminator 4 view .LVU445
 1527 0060 2568     		ldr	r5, [r4]
  88:lvgl/lvgl/src/extra/themes/basic/lv_theme_basic.c ****     lv_style_set_pad_row(&styles->scr, PAD_DEF / 2);
 1528              		.loc 1 88 5 discriminator 4 view .LVU446
 1529 0062 0221     		movs	r1, #2
 1530 0064 1220     		movs	r0, #18
 1531 0066 FFF7FEFF 		bl	lv_palette_darken
 1532              	.LVL155:
 1533 006a 0146     		mov	r1, r0	@ movhi
 1534 006c 2846     		mov	r0, r5
 1535 006e FFF7FEFF 		bl	lv_style_set_text_color
 1536              	.LVL156:
  89:lvgl/lvgl/src/extra/themes/basic/lv_theme_basic.c ****     lv_style_set_pad_column(&styles->scr, PAD_DEF / 2);
 1537              		.loc 1 89 5 is_stmt 1 discriminator 4 view .LVU447
ARM GAS  C:\Users\gx\AppData\Local\Temp\ccpJsvWx.s 			page 54


  89:lvgl/lvgl/src/extra/themes/basic/lv_theme_basic.c ****     lv_style_set_pad_column(&styles->scr, PAD_DEF / 2);
 1538              		.loc 1 89 33 is_stmt 0 discriminator 4 view .LVU448
 1539 0072 2468     		ldr	r4, [r4]
  89:lvgl/lvgl/src/extra/themes/basic/lv_theme_basic.c ****     lv_style_set_pad_column(&styles->scr, PAD_DEF / 2);
 1540              		.loc 1 89 40 discriminator 4 view .LVU449
 1541 0074 0020     		movs	r0, #0
 1542 0076 FFF7FEFF 		bl	lv_disp_get_dpi
 1543              	.LVL157:
 1544 007a 00EB8000 		add	r0, r0, r0, lsl #2
  89:lvgl/lvgl/src/extra/themes/basic/lv_theme_basic.c ****     lv_style_set_pad_column(&styles->scr, PAD_DEF / 2);
 1545              		.loc 1 89 5 discriminator 4 view .LVU450
 1546 007e EF28     		cmp	r0, #239
 1547 0080 00F39081 		bgt	.L86
  89:lvgl/lvgl/src/extra/themes/basic/lv_theme_basic.c ****     lv_style_set_pad_column(&styles->scr, PAD_DEF / 2);
 1548              		.loc 1 89 5 view .LVU451
 1549 0084 0021     		movs	r1, #0
 1550              	.L63:
  89:lvgl/lvgl/src/extra/themes/basic/lv_theme_basic.c ****     lv_style_set_pad_column(&styles->scr, PAD_DEF / 2);
 1551              		.loc 1 89 5 discriminator 4 view .LVU452
 1552 0086 2046     		mov	r0, r4
 1553 0088 FFF7FEFF 		bl	lv_style_set_pad_row
 1554              	.LVL158:
  90:lvgl/lvgl/src/extra/themes/basic/lv_theme_basic.c **** 
 1555              		.loc 1 90 5 is_stmt 1 discriminator 4 view .LVU453
  90:lvgl/lvgl/src/extra/themes/basic/lv_theme_basic.c **** 
 1556              		.loc 1 90 36 is_stmt 0 discriminator 4 view .LVU454
 1557 008c B94B     		ldr	r3, .L96
 1558 008e 1C68     		ldr	r4, [r3]
  90:lvgl/lvgl/src/extra/themes/basic/lv_theme_basic.c **** 
 1559              		.loc 1 90 43 discriminator 4 view .LVU455
 1560 0090 0020     		movs	r0, #0
 1561 0092 FFF7FEFF 		bl	lv_disp_get_dpi
 1562              	.LVL159:
 1563 0096 00EB8000 		add	r0, r0, r0, lsl #2
  90:lvgl/lvgl/src/extra/themes/basic/lv_theme_basic.c **** 
 1564              		.loc 1 90 5 discriminator 4 view .LVU456
 1565 009a EF28     		cmp	r0, #239
 1566 009c 00F39081 		bgt	.L87
  90:lvgl/lvgl/src/extra/themes/basic/lv_theme_basic.c **** 
 1567              		.loc 1 90 5 view .LVU457
 1568 00a0 0021     		movs	r1, #0
 1569              	.L64:
  90:lvgl/lvgl/src/extra/themes/basic/lv_theme_basic.c **** 
 1570              		.loc 1 90 5 discriminator 4 view .LVU458
 1571 00a2 2046     		mov	r0, r4
 1572 00a4 FFF7FEFF 		bl	lv_style_set_pad_column
 1573              	.LVL160:
  92:lvgl/lvgl/src/extra/themes/basic/lv_theme_basic.c ****     lv_style_set_bg_opa(&styles->light, LV_OPA_COVER);
 1574              		.loc 1 92 5 is_stmt 1 discriminator 4 view .LVU459
  92:lvgl/lvgl/src/extra/themes/basic/lv_theme_basic.c ****     lv_style_set_bg_opa(&styles->light, LV_OPA_COVER);
 1575              		.loc 1 92 29 is_stmt 0 discriminator 4 view .LVU460
 1576 00a8 B24C     		ldr	r4, .L96
 1577 00aa 2068     		ldr	r0, [r4]
  92:lvgl/lvgl/src/extra/themes/basic/lv_theme_basic.c ****     lv_style_set_bg_opa(&styles->light, LV_OPA_COVER);
 1578              		.loc 1 92 5 discriminator 4 view .LVU461
 1579 00ac 0830     		adds	r0, r0, #8
 1580 00ae FFF7FEFF 		bl	style_init_reset
ARM GAS  C:\Users\gx\AppData\Local\Temp\ccpJsvWx.s 			page 55


 1581              	.LVL161:
  93:lvgl/lvgl/src/extra/themes/basic/lv_theme_basic.c ****     lv_style_set_bg_color(&styles->light, COLOR_LIGHT);
 1582              		.loc 1 93 5 is_stmt 1 discriminator 4 view .LVU462
  93:lvgl/lvgl/src/extra/themes/basic/lv_theme_basic.c ****     lv_style_set_bg_color(&styles->light, COLOR_LIGHT);
 1583              		.loc 1 93 32 is_stmt 0 discriminator 4 view .LVU463
 1584 00b2 2068     		ldr	r0, [r4]
  93:lvgl/lvgl/src/extra/themes/basic/lv_theme_basic.c ****     lv_style_set_bg_color(&styles->light, COLOR_LIGHT);
 1585              		.loc 1 93 5 discriminator 4 view .LVU464
 1586 00b4 FF21     		movs	r1, #255
 1587 00b6 0830     		adds	r0, r0, #8
 1588 00b8 FFF7FEFF 		bl	lv_style_set_bg_opa
 1589              	.LVL162:
  94:lvgl/lvgl/src/extra/themes/basic/lv_theme_basic.c ****     lv_style_set_border_color(&styles->light, COLOR_MID);
 1590              		.loc 1 94 5 is_stmt 1 discriminator 4 view .LVU465
  94:lvgl/lvgl/src/extra/themes/basic/lv_theme_basic.c ****     lv_style_set_border_color(&styles->light, COLOR_MID);
 1591              		.loc 1 94 34 is_stmt 0 discriminator 4 view .LVU466
 1592 00bc 2568     		ldr	r5, [r4]
  94:lvgl/lvgl/src/extra/themes/basic/lv_theme_basic.c ****     lv_style_set_border_color(&styles->light, COLOR_MID);
 1593              		.loc 1 94 5 discriminator 4 view .LVU467
 1594 00be 0321     		movs	r1, #3
 1595 00c0 1220     		movs	r0, #18
 1596 00c2 FFF7FEFF 		bl	lv_palette_lighten
 1597              	.LVL163:
 1598 00c6 0146     		mov	r1, r0	@ movhi
 1599 00c8 05F10800 		add	r0, r5, #8
 1600 00cc FFF7FEFF 		bl	lv_style_set_bg_color
 1601              	.LVL164:
  95:lvgl/lvgl/src/extra/themes/basic/lv_theme_basic.c ****     lv_style_set_border_width(&styles->light, 1);
 1602              		.loc 1 95 5 is_stmt 1 discriminator 4 view .LVU468
  95:lvgl/lvgl/src/extra/themes/basic/lv_theme_basic.c ****     lv_style_set_border_width(&styles->light, 1);
 1603              		.loc 1 95 38 is_stmt 0 discriminator 4 view .LVU469
 1604 00d0 2568     		ldr	r5, [r4]
  95:lvgl/lvgl/src/extra/themes/basic/lv_theme_basic.c ****     lv_style_set_border_width(&styles->light, 1);
 1605              		.loc 1 95 5 discriminator 4 view .LVU470
 1606 00d2 0121     		movs	r1, #1
 1607 00d4 1220     		movs	r0, #18
 1608 00d6 FFF7FEFF 		bl	lv_palette_lighten
 1609              	.LVL165:
 1610 00da 0146     		mov	r1, r0	@ movhi
 1611 00dc 05F10800 		add	r0, r5, #8
 1612 00e0 FFF7FEFF 		bl	lv_style_set_border_color
 1613              	.LVL166:
  96:lvgl/lvgl/src/extra/themes/basic/lv_theme_basic.c ****     lv_style_set_pad_all(&styles->light, PAD_DEF);
 1614              		.loc 1 96 5 is_stmt 1 discriminator 4 view .LVU471
  96:lvgl/lvgl/src/extra/themes/basic/lv_theme_basic.c ****     lv_style_set_pad_all(&styles->light, PAD_DEF);
 1615              		.loc 1 96 38 is_stmt 0 discriminator 4 view .LVU472
 1616 00e4 2068     		ldr	r0, [r4]
  96:lvgl/lvgl/src/extra/themes/basic/lv_theme_basic.c ****     lv_style_set_pad_all(&styles->light, PAD_DEF);
 1617              		.loc 1 96 5 discriminator 4 view .LVU473
 1618 00e6 0121     		movs	r1, #1
 1619 00e8 0830     		adds	r0, r0, #8
 1620 00ea FFF7FEFF 		bl	lv_style_set_border_width
 1621              	.LVL167:
  97:lvgl/lvgl/src/extra/themes/basic/lv_theme_basic.c ****     lv_style_set_pad_gap(&styles->light, PAD_DEF / 2);
 1622              		.loc 1 97 5 is_stmt 1 discriminator 4 view .LVU474
  97:lvgl/lvgl/src/extra/themes/basic/lv_theme_basic.c ****     lv_style_set_pad_gap(&styles->light, PAD_DEF / 2);
 1623              		.loc 1 97 33 is_stmt 0 discriminator 4 view .LVU475
ARM GAS  C:\Users\gx\AppData\Local\Temp\ccpJsvWx.s 			page 56


 1624 00ee 2568     		ldr	r5, [r4]
  97:lvgl/lvgl/src/extra/themes/basic/lv_theme_basic.c ****     lv_style_set_pad_gap(&styles->light, PAD_DEF / 2);
 1625              		.loc 1 97 5 discriminator 4 view .LVU476
 1626 00f0 0835     		adds	r5, r5, #8
  97:lvgl/lvgl/src/extra/themes/basic/lv_theme_basic.c ****     lv_style_set_pad_gap(&styles->light, PAD_DEF / 2);
 1627              		.loc 1 97 42 discriminator 4 view .LVU477
 1628 00f2 0020     		movs	r0, #0
 1629 00f4 FFF7FEFF 		bl	lv_disp_get_dpi
 1630              	.LVL168:
 1631 00f8 00EB8000 		add	r0, r0, r0, lsl #2
  97:lvgl/lvgl/src/extra/themes/basic/lv_theme_basic.c ****     lv_style_set_pad_gap(&styles->light, PAD_DEF / 2);
 1632              		.loc 1 97 5 discriminator 4 view .LVU478
 1633 00fc EF28     		cmp	r0, #239
 1634 00fe 00F36D81 		bgt	.L88
  97:lvgl/lvgl/src/extra/themes/basic/lv_theme_basic.c ****     lv_style_set_pad_gap(&styles->light, PAD_DEF / 2);
 1635              		.loc 1 97 5 view .LVU479
 1636 0102 0124     		movs	r4, #1
 1637              	.L65:
 1638              	.LVL169:
 1639              	.LBB55:
 1640              	.LBI55:
 1641              		.file 3 "d:\\practise\\f407_disc\\lvgl\\lvgl\\src\\misc\\lv_style.h"
   1:d:\practise\f407_disc\lvgl\lvgl\src\misc\lv_style.h **** /**
   2:d:\practise\f407_disc\lvgl\lvgl\src\misc\lv_style.h ****  * @file lv_style.h
   3:d:\practise\f407_disc\lvgl\lvgl\src\misc\lv_style.h ****  *
   4:d:\practise\f407_disc\lvgl\lvgl\src\misc\lv_style.h ****  */
   5:d:\practise\f407_disc\lvgl\lvgl\src\misc\lv_style.h **** 
   6:d:\practise\f407_disc\lvgl\lvgl\src\misc\lv_style.h **** #ifndef LV_STYLE_H
   7:d:\practise\f407_disc\lvgl\lvgl\src\misc\lv_style.h **** #define LV_STYLE_H
   8:d:\practise\f407_disc\lvgl\lvgl\src\misc\lv_style.h **** 
   9:d:\practise\f407_disc\lvgl\lvgl\src\misc\lv_style.h **** #ifdef __cplusplus
  10:d:\practise\f407_disc\lvgl\lvgl\src\misc\lv_style.h **** extern "C" {
  11:d:\practise\f407_disc\lvgl\lvgl\src\misc\lv_style.h **** #endif
  12:d:\practise\f407_disc\lvgl\lvgl\src\misc\lv_style.h **** 
  13:d:\practise\f407_disc\lvgl\lvgl\src\misc\lv_style.h **** /*********************
  14:d:\practise\f407_disc\lvgl\lvgl\src\misc\lv_style.h ****  *      INCLUDES
  15:d:\practise\f407_disc\lvgl\lvgl\src\misc\lv_style.h ****  *********************/
  16:d:\practise\f407_disc\lvgl\lvgl\src\misc\lv_style.h **** #include <stdbool.h>
  17:d:\practise\f407_disc\lvgl\lvgl\src\misc\lv_style.h **** #include "../font/lv_font.h"
  18:d:\practise\f407_disc\lvgl\lvgl\src\misc\lv_style.h **** #include "lv_color.h"
  19:d:\practise\f407_disc\lvgl\lvgl\src\misc\lv_style.h **** #include "lv_area.h"
  20:d:\practise\f407_disc\lvgl\lvgl\src\misc\lv_style.h **** #include "lv_anim.h"
  21:d:\practise\f407_disc\lvgl\lvgl\src\misc\lv_style.h **** #include "lv_txt.h"
  22:d:\practise\f407_disc\lvgl\lvgl\src\misc\lv_style.h **** #include "lv_types.h"
  23:d:\practise\f407_disc\lvgl\lvgl\src\misc\lv_style.h **** #include "lv_assert.h"
  24:d:\practise\f407_disc\lvgl\lvgl\src\misc\lv_style.h **** #include "lv_bidi.h"
  25:d:\practise\f407_disc\lvgl\lvgl\src\misc\lv_style.h **** 
  26:d:\practise\f407_disc\lvgl\lvgl\src\misc\lv_style.h **** /*********************
  27:d:\practise\f407_disc\lvgl\lvgl\src\misc\lv_style.h ****  *      DEFINES
  28:d:\practise\f407_disc\lvgl\lvgl\src\misc\lv_style.h ****  *********************/
  29:d:\practise\f407_disc\lvgl\lvgl\src\misc\lv_style.h **** 
  30:d:\practise\f407_disc\lvgl\lvgl\src\misc\lv_style.h **** #define LV_STYLE_SENTINEL_VALUE     0xAABBCCDD
  31:d:\practise\f407_disc\lvgl\lvgl\src\misc\lv_style.h **** 
  32:d:\practise\f407_disc\lvgl\lvgl\src\misc\lv_style.h **** /**
  33:d:\practise\f407_disc\lvgl\lvgl\src\misc\lv_style.h ****  * Flags for style properties
  34:d:\practise\f407_disc\lvgl\lvgl\src\misc\lv_style.h ****  */
  35:d:\practise\f407_disc\lvgl\lvgl\src\misc\lv_style.h **** #define LV_STYLE_PROP_INHERIT               (1 << 10)  /*Inherited*/
ARM GAS  C:\Users\gx\AppData\Local\Temp\ccpJsvWx.s 			page 57


  36:d:\practise\f407_disc\lvgl\lvgl\src\misc\lv_style.h **** #define LV_STYLE_PROP_EXT_DRAW              (1 << 11)  /*Requires ext. draw size update when change
  37:d:\practise\f407_disc\lvgl\lvgl\src\misc\lv_style.h **** #define LV_STYLE_PROP_LAYOUT_REFR           (1 << 12)  /*Requires layout update when changed*/
  38:d:\practise\f407_disc\lvgl\lvgl\src\misc\lv_style.h **** #define LV_STYLE_PROP_PARENT_LAYOUT_REFR    (1 << 13)  /*Requires layout update on parent when chan
  39:d:\practise\f407_disc\lvgl\lvgl\src\misc\lv_style.h **** #define LV_STYLE_PROP_FILTER                (1 << 14)  /*Apply color filter*/
  40:d:\practise\f407_disc\lvgl\lvgl\src\misc\lv_style.h **** 
  41:d:\practise\f407_disc\lvgl\lvgl\src\misc\lv_style.h **** /**
  42:d:\practise\f407_disc\lvgl\lvgl\src\misc\lv_style.h ****  * Other constants
  43:d:\practise\f407_disc\lvgl\lvgl\src\misc\lv_style.h ****  */
  44:d:\practise\f407_disc\lvgl\lvgl\src\misc\lv_style.h **** #define LV_IMG_ZOOM_NONE            256        /*Value for not zooming the image*/
  45:d:\practise\f407_disc\lvgl\lvgl\src\misc\lv_style.h **** LV_EXPORT_CONST_INT(LV_IMG_ZOOM_NONE);
  46:d:\practise\f407_disc\lvgl\lvgl\src\misc\lv_style.h **** 
  47:d:\practise\f407_disc\lvgl\lvgl\src\misc\lv_style.h **** #if LV_USE_ASSERT_STYLE
  48:d:\practise\f407_disc\lvgl\lvgl\src\misc\lv_style.h **** #define LV_STYLE_CONST_INIT(var_name, prop_array) const lv_style_t var_name = { .sentinel = LV_STYL
  49:d:\practise\f407_disc\lvgl\lvgl\src\misc\lv_style.h **** #else
  50:d:\practise\f407_disc\lvgl\lvgl\src\misc\lv_style.h **** #define LV_STYLE_CONST_INIT(var_name, prop_array) const lv_style_t var_name = { .v_p = { .const_pro
  51:d:\practise\f407_disc\lvgl\lvgl\src\misc\lv_style.h **** #endif
  52:d:\practise\f407_disc\lvgl\lvgl\src\misc\lv_style.h **** 
  53:d:\practise\f407_disc\lvgl\lvgl\src\misc\lv_style.h **** /**********************
  54:d:\practise\f407_disc\lvgl\lvgl\src\misc\lv_style.h ****  *      TYPEDEFS
  55:d:\practise\f407_disc\lvgl\lvgl\src\misc\lv_style.h ****  **********************/
  56:d:\practise\f407_disc\lvgl\lvgl\src\misc\lv_style.h **** 
  57:d:\practise\f407_disc\lvgl\lvgl\src\misc\lv_style.h **** /**
  58:d:\practise\f407_disc\lvgl\lvgl\src\misc\lv_style.h ****  * Possible options how to blend opaque drawings
  59:d:\practise\f407_disc\lvgl\lvgl\src\misc\lv_style.h ****  */
  60:d:\practise\f407_disc\lvgl\lvgl\src\misc\lv_style.h **** enum {
  61:d:\practise\f407_disc\lvgl\lvgl\src\misc\lv_style.h ****     LV_BLEND_MODE_NORMAL,     /**< Simply mix according to the opacity value*/
  62:d:\practise\f407_disc\lvgl\lvgl\src\misc\lv_style.h ****     LV_BLEND_MODE_ADDITIVE,   /**< Add the respective color channels*/
  63:d:\practise\f407_disc\lvgl\lvgl\src\misc\lv_style.h ****     LV_BLEND_MODE_SUBTRACTIVE,/**< Subtract the foreground from the background*/
  64:d:\practise\f407_disc\lvgl\lvgl\src\misc\lv_style.h **** };
  65:d:\practise\f407_disc\lvgl\lvgl\src\misc\lv_style.h **** 
  66:d:\practise\f407_disc\lvgl\lvgl\src\misc\lv_style.h **** typedef uint8_t lv_blend_mode_t;
  67:d:\practise\f407_disc\lvgl\lvgl\src\misc\lv_style.h **** 
  68:d:\practise\f407_disc\lvgl\lvgl\src\misc\lv_style.h **** /**
  69:d:\practise\f407_disc\lvgl\lvgl\src\misc\lv_style.h ****  * Some options to apply decorations on texts.
  70:d:\practise\f407_disc\lvgl\lvgl\src\misc\lv_style.h ****  * 'OR'ed values can be used.
  71:d:\practise\f407_disc\lvgl\lvgl\src\misc\lv_style.h ****  */
  72:d:\practise\f407_disc\lvgl\lvgl\src\misc\lv_style.h **** enum {
  73:d:\practise\f407_disc\lvgl\lvgl\src\misc\lv_style.h ****     LV_TEXT_DECOR_NONE          = 0x00,
  74:d:\practise\f407_disc\lvgl\lvgl\src\misc\lv_style.h ****     LV_TEXT_DECOR_UNDERLINE     = 0x01,
  75:d:\practise\f407_disc\lvgl\lvgl\src\misc\lv_style.h ****     LV_TEXT_DECOR_STRIKETHROUGH = 0x02,
  76:d:\practise\f407_disc\lvgl\lvgl\src\misc\lv_style.h **** };
  77:d:\practise\f407_disc\lvgl\lvgl\src\misc\lv_style.h **** 
  78:d:\practise\f407_disc\lvgl\lvgl\src\misc\lv_style.h **** typedef uint8_t lv_text_decor_t;
  79:d:\practise\f407_disc\lvgl\lvgl\src\misc\lv_style.h **** 
  80:d:\practise\f407_disc\lvgl\lvgl\src\misc\lv_style.h **** /**
  81:d:\practise\f407_disc\lvgl\lvgl\src\misc\lv_style.h ****  * Selects on which sides border should be drawn
  82:d:\practise\f407_disc\lvgl\lvgl\src\misc\lv_style.h ****  * 'OR'ed values can be used.
  83:d:\practise\f407_disc\lvgl\lvgl\src\misc\lv_style.h ****  */
  84:d:\practise\f407_disc\lvgl\lvgl\src\misc\lv_style.h **** enum {
  85:d:\practise\f407_disc\lvgl\lvgl\src\misc\lv_style.h ****     LV_BORDER_SIDE_NONE     = 0x00,
  86:d:\practise\f407_disc\lvgl\lvgl\src\misc\lv_style.h ****     LV_BORDER_SIDE_BOTTOM   = 0x01,
  87:d:\practise\f407_disc\lvgl\lvgl\src\misc\lv_style.h ****     LV_BORDER_SIDE_TOP      = 0x02,
  88:d:\practise\f407_disc\lvgl\lvgl\src\misc\lv_style.h ****     LV_BORDER_SIDE_LEFT     = 0x04,
  89:d:\practise\f407_disc\lvgl\lvgl\src\misc\lv_style.h ****     LV_BORDER_SIDE_RIGHT    = 0x08,
  90:d:\practise\f407_disc\lvgl\lvgl\src\misc\lv_style.h ****     LV_BORDER_SIDE_FULL     = 0x0F,
  91:d:\practise\f407_disc\lvgl\lvgl\src\misc\lv_style.h ****     LV_BORDER_SIDE_INTERNAL = 0x10, /**< FOR matrix-like objects (e.g. Button matrix)*/
  92:d:\practise\f407_disc\lvgl\lvgl\src\misc\lv_style.h **** };
ARM GAS  C:\Users\gx\AppData\Local\Temp\ccpJsvWx.s 			page 58


  93:d:\practise\f407_disc\lvgl\lvgl\src\misc\lv_style.h **** typedef uint8_t lv_border_side_t;
  94:d:\practise\f407_disc\lvgl\lvgl\src\misc\lv_style.h **** 
  95:d:\practise\f407_disc\lvgl\lvgl\src\misc\lv_style.h **** /**
  96:d:\practise\f407_disc\lvgl\lvgl\src\misc\lv_style.h ****  * The direction of the gradient.
  97:d:\practise\f407_disc\lvgl\lvgl\src\misc\lv_style.h ****  */
  98:d:\practise\f407_disc\lvgl\lvgl\src\misc\lv_style.h **** enum {
  99:d:\practise\f407_disc\lvgl\lvgl\src\misc\lv_style.h ****     LV_GRAD_DIR_NONE, /**< No gradient (the `grad_color` property is ignored)*/
 100:d:\practise\f407_disc\lvgl\lvgl\src\misc\lv_style.h ****     LV_GRAD_DIR_VER,  /**< Vertical (top to bottom) gradient*/
 101:d:\practise\f407_disc\lvgl\lvgl\src\misc\lv_style.h ****     LV_GRAD_DIR_HOR,  /**< Horizontal (left to right) gradient*/
 102:d:\practise\f407_disc\lvgl\lvgl\src\misc\lv_style.h **** };
 103:d:\practise\f407_disc\lvgl\lvgl\src\misc\lv_style.h **** 
 104:d:\practise\f407_disc\lvgl\lvgl\src\misc\lv_style.h **** typedef uint8_t lv_grad_dir_t;
 105:d:\practise\f407_disc\lvgl\lvgl\src\misc\lv_style.h **** 
 106:d:\practise\f407_disc\lvgl\lvgl\src\misc\lv_style.h **** /**
 107:d:\practise\f407_disc\lvgl\lvgl\src\misc\lv_style.h ****  * A common type to handle all the property types in the same way.
 108:d:\practise\f407_disc\lvgl\lvgl\src\misc\lv_style.h ****  */
 109:d:\practise\f407_disc\lvgl\lvgl\src\misc\lv_style.h **** typedef union {
 110:d:\practise\f407_disc\lvgl\lvgl\src\misc\lv_style.h ****     int32_t num;         /**< Number integer number (opacity, enums, booleans or "normal" numbers)*
 111:d:\practise\f407_disc\lvgl\lvgl\src\misc\lv_style.h ****     const void * ptr;    /**< Constant pointers  (font, cone text, etc)*/
 112:d:\practise\f407_disc\lvgl\lvgl\src\misc\lv_style.h ****     lv_color_t color;    /**< Colors*/
 113:d:\practise\f407_disc\lvgl\lvgl\src\misc\lv_style.h **** }lv_style_value_t;
 114:d:\practise\f407_disc\lvgl\lvgl\src\misc\lv_style.h **** 
 115:d:\practise\f407_disc\lvgl\lvgl\src\misc\lv_style.h **** /**
 116:d:\practise\f407_disc\lvgl\lvgl\src\misc\lv_style.h ****  * Enumeration of all built in style properties
 117:d:\practise\f407_disc\lvgl\lvgl\src\misc\lv_style.h ****  */
 118:d:\practise\f407_disc\lvgl\lvgl\src\misc\lv_style.h **** typedef enum {
 119:d:\practise\f407_disc\lvgl\lvgl\src\misc\lv_style.h ****     LV_STYLE_PROP_INV                = 0,
 120:d:\practise\f407_disc\lvgl\lvgl\src\misc\lv_style.h **** 
 121:d:\practise\f407_disc\lvgl\lvgl\src\misc\lv_style.h ****     /*Group 0*/
 122:d:\practise\f407_disc\lvgl\lvgl\src\misc\lv_style.h ****     LV_STYLE_WIDTH                   = 1 | LV_STYLE_PROP_LAYOUT_REFR,
 123:d:\practise\f407_disc\lvgl\lvgl\src\misc\lv_style.h ****     LV_STYLE_MIN_WIDTH               = 2 | LV_STYLE_PROP_LAYOUT_REFR,
 124:d:\practise\f407_disc\lvgl\lvgl\src\misc\lv_style.h ****     LV_STYLE_MAX_WIDTH               = 3 | LV_STYLE_PROP_LAYOUT_REFR,
 125:d:\practise\f407_disc\lvgl\lvgl\src\misc\lv_style.h ****     LV_STYLE_HEIGHT                  = 4 | LV_STYLE_PROP_LAYOUT_REFR,
 126:d:\practise\f407_disc\lvgl\lvgl\src\misc\lv_style.h ****     LV_STYLE_MIN_HEIGHT              = 5 | LV_STYLE_PROP_LAYOUT_REFR,
 127:d:\practise\f407_disc\lvgl\lvgl\src\misc\lv_style.h ****     LV_STYLE_MAX_HEIGHT              = 6 | LV_STYLE_PROP_LAYOUT_REFR,
 128:d:\practise\f407_disc\lvgl\lvgl\src\misc\lv_style.h ****     LV_STYLE_X                       = 7 | LV_STYLE_PROP_LAYOUT_REFR,
 129:d:\practise\f407_disc\lvgl\lvgl\src\misc\lv_style.h ****     LV_STYLE_Y                       = 8 | LV_STYLE_PROP_LAYOUT_REFR,
 130:d:\practise\f407_disc\lvgl\lvgl\src\misc\lv_style.h ****     LV_STYLE_ALIGN                   = 9 | LV_STYLE_PROP_LAYOUT_REFR,
 131:d:\practise\f407_disc\lvgl\lvgl\src\misc\lv_style.h ****     LV_STYLE_TRANSFORM_WIDTH         = 10 | LV_STYLE_PROP_EXT_DRAW,
 132:d:\practise\f407_disc\lvgl\lvgl\src\misc\lv_style.h ****     LV_STYLE_TRANSFORM_HEIGHT        = 11 | LV_STYLE_PROP_EXT_DRAW,
 133:d:\practise\f407_disc\lvgl\lvgl\src\misc\lv_style.h ****     LV_STYLE_TRANSLATE_X             = 12 | LV_STYLE_PROP_LAYOUT_REFR | LV_STYLE_PROP_PARENT_LAYOUT
 134:d:\practise\f407_disc\lvgl\lvgl\src\misc\lv_style.h ****     LV_STYLE_TRANSLATE_Y             = 13 | LV_STYLE_PROP_LAYOUT_REFR | LV_STYLE_PROP_PARENT_LAYOUT
 135:d:\practise\f407_disc\lvgl\lvgl\src\misc\lv_style.h ****     LV_STYLE_TRANSFORM_ZOOM          = 14 | LV_STYLE_PROP_EXT_DRAW | LV_STYLE_PROP_LAYOUT_REFR | LV
 136:d:\practise\f407_disc\lvgl\lvgl\src\misc\lv_style.h ****     LV_STYLE_TRANSFORM_ANGLE         = 15 | LV_STYLE_PROP_EXT_DRAW | LV_STYLE_PROP_LAYOUT_REFR | LV
 137:d:\practise\f407_disc\lvgl\lvgl\src\misc\lv_style.h **** 
 138:d:\practise\f407_disc\lvgl\lvgl\src\misc\lv_style.h ****     /*Group 1*/
 139:d:\practise\f407_disc\lvgl\lvgl\src\misc\lv_style.h ****     LV_STYLE_PAD_TOP                 = 16 | LV_STYLE_PROP_LAYOUT_REFR,
 140:d:\practise\f407_disc\lvgl\lvgl\src\misc\lv_style.h ****     LV_STYLE_PAD_BOTTOM              = 17 | LV_STYLE_PROP_LAYOUT_REFR,
 141:d:\practise\f407_disc\lvgl\lvgl\src\misc\lv_style.h ****     LV_STYLE_PAD_LEFT                = 18 | LV_STYLE_PROP_LAYOUT_REFR,
 142:d:\practise\f407_disc\lvgl\lvgl\src\misc\lv_style.h ****     LV_STYLE_PAD_RIGHT               = 19 | LV_STYLE_PROP_LAYOUT_REFR,
 143:d:\practise\f407_disc\lvgl\lvgl\src\misc\lv_style.h ****     LV_STYLE_PAD_ROW                 = 20 | LV_STYLE_PROP_LAYOUT_REFR,
 144:d:\practise\f407_disc\lvgl\lvgl\src\misc\lv_style.h ****     LV_STYLE_PAD_COLUMN              = 21 | LV_STYLE_PROP_LAYOUT_REFR,
 145:d:\practise\f407_disc\lvgl\lvgl\src\misc\lv_style.h **** 
 146:d:\practise\f407_disc\lvgl\lvgl\src\misc\lv_style.h ****     /*Group 2*/
 147:d:\practise\f407_disc\lvgl\lvgl\src\misc\lv_style.h ****     LV_STYLE_BG_COLOR                = 32,
 148:d:\practise\f407_disc\lvgl\lvgl\src\misc\lv_style.h ****     LV_STYLE_BG_COLOR_FILTERED       = 32 | LV_STYLE_PROP_FILTER,
 149:d:\practise\f407_disc\lvgl\lvgl\src\misc\lv_style.h ****     LV_STYLE_BG_OPA                  = 33,
ARM GAS  C:\Users\gx\AppData\Local\Temp\ccpJsvWx.s 			page 59


 150:d:\practise\f407_disc\lvgl\lvgl\src\misc\lv_style.h ****     LV_STYLE_BG_GRAD_COLOR           = 34,
 151:d:\practise\f407_disc\lvgl\lvgl\src\misc\lv_style.h ****     LV_STYLE_BG_GRAD_COLOR_FILTERED  = 34 | LV_STYLE_PROP_FILTER,
 152:d:\practise\f407_disc\lvgl\lvgl\src\misc\lv_style.h ****     LV_STYLE_BG_GRAD_DIR             = 35,
 153:d:\practise\f407_disc\lvgl\lvgl\src\misc\lv_style.h ****     LV_STYLE_BG_MAIN_STOP            = 36,
 154:d:\practise\f407_disc\lvgl\lvgl\src\misc\lv_style.h ****     LV_STYLE_BG_GRAD_STOP            = 37,
 155:d:\practise\f407_disc\lvgl\lvgl\src\misc\lv_style.h **** 
 156:d:\practise\f407_disc\lvgl\lvgl\src\misc\lv_style.h ****     LV_STYLE_BG_IMG_SRC              = 38,
 157:d:\practise\f407_disc\lvgl\lvgl\src\misc\lv_style.h ****     LV_STYLE_BG_IMG_OPA              = 39,
 158:d:\practise\f407_disc\lvgl\lvgl\src\misc\lv_style.h ****     LV_STYLE_BG_IMG_RECOLOR          = 40,
 159:d:\practise\f407_disc\lvgl\lvgl\src\misc\lv_style.h ****     LV_STYLE_BG_IMG_RECOLOR_FILTERED = 40 | LV_STYLE_PROP_FILTER,
 160:d:\practise\f407_disc\lvgl\lvgl\src\misc\lv_style.h ****     LV_STYLE_BG_IMG_RECOLOR_OPA      = 41,
 161:d:\practise\f407_disc\lvgl\lvgl\src\misc\lv_style.h ****     LV_STYLE_BG_IMG_TILED            = 42,
 162:d:\practise\f407_disc\lvgl\lvgl\src\misc\lv_style.h **** 
 163:d:\practise\f407_disc\lvgl\lvgl\src\misc\lv_style.h ****     /*Group 3*/
 164:d:\practise\f407_disc\lvgl\lvgl\src\misc\lv_style.h ****     LV_STYLE_BORDER_COLOR            = 48,
 165:d:\practise\f407_disc\lvgl\lvgl\src\misc\lv_style.h ****     LV_STYLE_BORDER_COLOR_FILTERED   = 48 | LV_STYLE_PROP_FILTER,
 166:d:\practise\f407_disc\lvgl\lvgl\src\misc\lv_style.h ****     LV_STYLE_BORDER_OPA              = 49,
 167:d:\practise\f407_disc\lvgl\lvgl\src\misc\lv_style.h ****     LV_STYLE_BORDER_WIDTH            = 50 | LV_STYLE_PROP_LAYOUT_REFR,
 168:d:\practise\f407_disc\lvgl\lvgl\src\misc\lv_style.h ****     LV_STYLE_BORDER_SIDE             = 51,
 169:d:\practise\f407_disc\lvgl\lvgl\src\misc\lv_style.h ****     LV_STYLE_BORDER_POST             = 52,
 170:d:\practise\f407_disc\lvgl\lvgl\src\misc\lv_style.h **** 
 171:d:\practise\f407_disc\lvgl\lvgl\src\misc\lv_style.h ****     LV_STYLE_OUTLINE_WIDTH           = 58 | LV_STYLE_PROP_EXT_DRAW,
 172:d:\practise\f407_disc\lvgl\lvgl\src\misc\lv_style.h ****     LV_STYLE_OUTLINE_COLOR           = 59,
 173:d:\practise\f407_disc\lvgl\lvgl\src\misc\lv_style.h ****     LV_STYLE_OUTLINE_COLOR_FILTERED  = 59 | LV_STYLE_PROP_FILTER,
 174:d:\practise\f407_disc\lvgl\lvgl\src\misc\lv_style.h ****     LV_STYLE_OUTLINE_OPA             = 60 | LV_STYLE_PROP_EXT_DRAW,
 175:d:\practise\f407_disc\lvgl\lvgl\src\misc\lv_style.h ****     LV_STYLE_OUTLINE_PAD             = 61 | LV_STYLE_PROP_EXT_DRAW,
 176:d:\practise\f407_disc\lvgl\lvgl\src\misc\lv_style.h **** 
 177:d:\practise\f407_disc\lvgl\lvgl\src\misc\lv_style.h ****     /*Group 4*/
 178:d:\practise\f407_disc\lvgl\lvgl\src\misc\lv_style.h ****     LV_STYLE_SHADOW_WIDTH            = 64 | LV_STYLE_PROP_EXT_DRAW,
 179:d:\practise\f407_disc\lvgl\lvgl\src\misc\lv_style.h ****     LV_STYLE_SHADOW_OFS_X            = 65 | LV_STYLE_PROP_EXT_DRAW,
 180:d:\practise\f407_disc\lvgl\lvgl\src\misc\lv_style.h ****     LV_STYLE_SHADOW_OFS_Y            = 66 | LV_STYLE_PROP_EXT_DRAW,
 181:d:\practise\f407_disc\lvgl\lvgl\src\misc\lv_style.h ****     LV_STYLE_SHADOW_SPREAD           = 67 | LV_STYLE_PROP_EXT_DRAW,
 182:d:\practise\f407_disc\lvgl\lvgl\src\misc\lv_style.h ****     LV_STYLE_SHADOW_COLOR            = 68,
 183:d:\practise\f407_disc\lvgl\lvgl\src\misc\lv_style.h ****     LV_STYLE_SHADOW_COLOR_FILTERED   = 68 | LV_STYLE_PROP_FILTER,
 184:d:\practise\f407_disc\lvgl\lvgl\src\misc\lv_style.h ****     LV_STYLE_SHADOW_OPA              = 69 | LV_STYLE_PROP_EXT_DRAW,
 185:d:\practise\f407_disc\lvgl\lvgl\src\misc\lv_style.h **** 
 186:d:\practise\f407_disc\lvgl\lvgl\src\misc\lv_style.h ****     LV_STYLE_IMG_OPA                 = 70,
 187:d:\practise\f407_disc\lvgl\lvgl\src\misc\lv_style.h ****     LV_STYLE_IMG_RECOLOR             = 71,
 188:d:\practise\f407_disc\lvgl\lvgl\src\misc\lv_style.h ****     LV_STYLE_IMG_RECOLOR_FILTERED    = 71 | LV_STYLE_PROP_FILTER,
 189:d:\practise\f407_disc\lvgl\lvgl\src\misc\lv_style.h ****     LV_STYLE_IMG_RECOLOR_OPA         = 72,
 190:d:\practise\f407_disc\lvgl\lvgl\src\misc\lv_style.h **** 
 191:d:\practise\f407_disc\lvgl\lvgl\src\misc\lv_style.h ****     LV_STYLE_LINE_WIDTH              = 73 | LV_STYLE_PROP_EXT_DRAW,
 192:d:\practise\f407_disc\lvgl\lvgl\src\misc\lv_style.h ****     LV_STYLE_LINE_DASH_WIDTH         = 74,
 193:d:\practise\f407_disc\lvgl\lvgl\src\misc\lv_style.h ****     LV_STYLE_LINE_DASH_GAP           = 75,
 194:d:\practise\f407_disc\lvgl\lvgl\src\misc\lv_style.h ****     LV_STYLE_LINE_ROUNDED            = 76,
 195:d:\practise\f407_disc\lvgl\lvgl\src\misc\lv_style.h ****     LV_STYLE_LINE_COLOR              = 77,
 196:d:\practise\f407_disc\lvgl\lvgl\src\misc\lv_style.h ****     LV_STYLE_LINE_COLOR_FILTERED     = 77 | LV_STYLE_PROP_FILTER,
 197:d:\practise\f407_disc\lvgl\lvgl\src\misc\lv_style.h ****     LV_STYLE_LINE_OPA                = 78,
 198:d:\practise\f407_disc\lvgl\lvgl\src\misc\lv_style.h **** 
 199:d:\practise\f407_disc\lvgl\lvgl\src\misc\lv_style.h ****     /*Group 5*/
 200:d:\practise\f407_disc\lvgl\lvgl\src\misc\lv_style.h ****     LV_STYLE_ARC_WIDTH               = 80 | LV_STYLE_PROP_EXT_DRAW,
 201:d:\practise\f407_disc\lvgl\lvgl\src\misc\lv_style.h ****     LV_STYLE_ARC_ROUNDED             = 81,
 202:d:\practise\f407_disc\lvgl\lvgl\src\misc\lv_style.h ****     LV_STYLE_ARC_COLOR               = 82,
 203:d:\practise\f407_disc\lvgl\lvgl\src\misc\lv_style.h ****     LV_STYLE_ARC_COLOR_FILTERED      = 82 | LV_STYLE_PROP_FILTER,
 204:d:\practise\f407_disc\lvgl\lvgl\src\misc\lv_style.h ****     LV_STYLE_ARC_OPA                 = 83,
 205:d:\practise\f407_disc\lvgl\lvgl\src\misc\lv_style.h ****     LV_STYLE_ARC_IMG_SRC             = 84,
 206:d:\practise\f407_disc\lvgl\lvgl\src\misc\lv_style.h **** 
ARM GAS  C:\Users\gx\AppData\Local\Temp\ccpJsvWx.s 			page 60


 207:d:\practise\f407_disc\lvgl\lvgl\src\misc\lv_style.h ****     LV_STYLE_TEXT_COLOR              = 87 | LV_STYLE_PROP_INHERIT,
 208:d:\practise\f407_disc\lvgl\lvgl\src\misc\lv_style.h ****     LV_STYLE_TEXT_COLOR_FILTERED     = 87 | LV_STYLE_PROP_INHERIT | LV_STYLE_PROP_FILTER,
 209:d:\practise\f407_disc\lvgl\lvgl\src\misc\lv_style.h ****     LV_STYLE_TEXT_OPA                = 88 | LV_STYLE_PROP_INHERIT,
 210:d:\practise\f407_disc\lvgl\lvgl\src\misc\lv_style.h ****     LV_STYLE_TEXT_FONT               = 89 | LV_STYLE_PROP_INHERIT | LV_STYLE_PROP_LAYOUT_REFR,
 211:d:\practise\f407_disc\lvgl\lvgl\src\misc\lv_style.h ****     LV_STYLE_TEXT_LETTER_SPACE       = 90 | LV_STYLE_PROP_INHERIT | LV_STYLE_PROP_LAYOUT_REFR,
 212:d:\practise\f407_disc\lvgl\lvgl\src\misc\lv_style.h ****     LV_STYLE_TEXT_LINE_SPACE         = 91 | LV_STYLE_PROP_INHERIT | LV_STYLE_PROP_LAYOUT_REFR,
 213:d:\practise\f407_disc\lvgl\lvgl\src\misc\lv_style.h ****     LV_STYLE_TEXT_DECOR              = 92 | LV_STYLE_PROP_INHERIT,
 214:d:\practise\f407_disc\lvgl\lvgl\src\misc\lv_style.h ****     LV_STYLE_TEXT_ALIGN              = 93 | LV_STYLE_PROP_INHERIT | LV_STYLE_PROP_LAYOUT_REFR,
 215:d:\practise\f407_disc\lvgl\lvgl\src\misc\lv_style.h **** 
 216:d:\practise\f407_disc\lvgl\lvgl\src\misc\lv_style.h ****     /*Group 6*/
 217:d:\practise\f407_disc\lvgl\lvgl\src\misc\lv_style.h ****     LV_STYLE_RADIUS                  = 96,
 218:d:\practise\f407_disc\lvgl\lvgl\src\misc\lv_style.h ****     LV_STYLE_CLIP_CORNER             = 97,
 219:d:\practise\f407_disc\lvgl\lvgl\src\misc\lv_style.h ****     LV_STYLE_OPA                     = 98 | LV_STYLE_PROP_INHERIT,
 220:d:\practise\f407_disc\lvgl\lvgl\src\misc\lv_style.h ****     LV_STYLE_COLOR_FILTER_DSC        = 99,
 221:d:\practise\f407_disc\lvgl\lvgl\src\misc\lv_style.h ****     LV_STYLE_COLOR_FILTER_OPA        = 100,
 222:d:\practise\f407_disc\lvgl\lvgl\src\misc\lv_style.h ****     LV_STYLE_ANIM_TIME               = 101,
 223:d:\practise\f407_disc\lvgl\lvgl\src\misc\lv_style.h ****     LV_STYLE_ANIM_SPEED              = 102,
 224:d:\practise\f407_disc\lvgl\lvgl\src\misc\lv_style.h ****     LV_STYLE_TRANSITION              = 103,
 225:d:\practise\f407_disc\lvgl\lvgl\src\misc\lv_style.h ****     LV_STYLE_BLEND_MODE              = 104,
 226:d:\practise\f407_disc\lvgl\lvgl\src\misc\lv_style.h ****     LV_STYLE_LAYOUT                  = 105 | LV_STYLE_PROP_LAYOUT_REFR,
 227:d:\practise\f407_disc\lvgl\lvgl\src\misc\lv_style.h ****     LV_STYLE_BASE_DIR                = 106 | LV_STYLE_PROP_INHERIT | LV_STYLE_PROP_LAYOUT_REFR,
 228:d:\practise\f407_disc\lvgl\lvgl\src\misc\lv_style.h **** 
 229:d:\practise\f407_disc\lvgl\lvgl\src\misc\lv_style.h ****     _LV_STYLE_LAST_BUILT_IN_PROP     = 111,
 230:d:\practise\f407_disc\lvgl\lvgl\src\misc\lv_style.h **** 
 231:d:\practise\f407_disc\lvgl\lvgl\src\misc\lv_style.h ****     LV_STYLE_PROP_ANY                = 0xFFFF
 232:d:\practise\f407_disc\lvgl\lvgl\src\misc\lv_style.h **** }lv_style_prop_t;
 233:d:\practise\f407_disc\lvgl\lvgl\src\misc\lv_style.h **** 
 234:d:\practise\f407_disc\lvgl\lvgl\src\misc\lv_style.h **** /**
 235:d:\practise\f407_disc\lvgl\lvgl\src\misc\lv_style.h ****  * Descriptor for style transitions
 236:d:\practise\f407_disc\lvgl\lvgl\src\misc\lv_style.h ****  */
 237:d:\practise\f407_disc\lvgl\lvgl\src\misc\lv_style.h **** typedef struct {
 238:d:\practise\f407_disc\lvgl\lvgl\src\misc\lv_style.h ****     const lv_style_prop_t * props; /**< An array with the properties to animate.*/
 239:d:\practise\f407_disc\lvgl\lvgl\src\misc\lv_style.h **** #if LV_USE_USER_DATA
 240:d:\practise\f407_disc\lvgl\lvgl\src\misc\lv_style.h ****     void * user_data;              /**< A custom user data that will be passed to the animation's u
 241:d:\practise\f407_disc\lvgl\lvgl\src\misc\lv_style.h **** #endif
 242:d:\practise\f407_disc\lvgl\lvgl\src\misc\lv_style.h ****     lv_anim_path_cb_t path_xcb;     /**< A path for the animation.*/
 243:d:\practise\f407_disc\lvgl\lvgl\src\misc\lv_style.h ****     uint32_t time;                 /**< Duration of the transition in [ms]*/
 244:d:\practise\f407_disc\lvgl\lvgl\src\misc\lv_style.h ****     uint32_t delay;                /**< Delay before the transition in [ms]*/
 245:d:\practise\f407_disc\lvgl\lvgl\src\misc\lv_style.h **** }lv_style_transition_dsc_t;
 246:d:\practise\f407_disc\lvgl\lvgl\src\misc\lv_style.h **** 
 247:d:\practise\f407_disc\lvgl\lvgl\src\misc\lv_style.h **** /**
 248:d:\practise\f407_disc\lvgl\lvgl\src\misc\lv_style.h ****  * Descriptor of a constant style property.
 249:d:\practise\f407_disc\lvgl\lvgl\src\misc\lv_style.h ****  */
 250:d:\practise\f407_disc\lvgl\lvgl\src\misc\lv_style.h **** typedef struct {
 251:d:\practise\f407_disc\lvgl\lvgl\src\misc\lv_style.h ****     lv_style_prop_t prop;
 252:d:\practise\f407_disc\lvgl\lvgl\src\misc\lv_style.h ****     lv_style_value_t value;
 253:d:\practise\f407_disc\lvgl\lvgl\src\misc\lv_style.h **** } lv_style_const_prop_t;
 254:d:\practise\f407_disc\lvgl\lvgl\src\misc\lv_style.h **** 
 255:d:\practise\f407_disc\lvgl\lvgl\src\misc\lv_style.h **** /**
 256:d:\practise\f407_disc\lvgl\lvgl\src\misc\lv_style.h ****  * Descriptor of a style (a collection of properties and values).
 257:d:\practise\f407_disc\lvgl\lvgl\src\misc\lv_style.h ****  */
 258:d:\practise\f407_disc\lvgl\lvgl\src\misc\lv_style.h **** typedef struct {
 259:d:\practise\f407_disc\lvgl\lvgl\src\misc\lv_style.h **** 
 260:d:\practise\f407_disc\lvgl\lvgl\src\misc\lv_style.h **** #if LV_USE_ASSERT_STYLE
 261:d:\practise\f407_disc\lvgl\lvgl\src\misc\lv_style.h ****     uint32_t sentinel;
 262:d:\practise\f407_disc\lvgl\lvgl\src\misc\lv_style.h **** #endif
 263:d:\practise\f407_disc\lvgl\lvgl\src\misc\lv_style.h **** 
ARM GAS  C:\Users\gx\AppData\Local\Temp\ccpJsvWx.s 			page 61


 264:d:\practise\f407_disc\lvgl\lvgl\src\misc\lv_style.h ****     /*If there is only one property store it directly.
 265:d:\practise\f407_disc\lvgl\lvgl\src\misc\lv_style.h ****      *For more properties allocate an array*/
 266:d:\practise\f407_disc\lvgl\lvgl\src\misc\lv_style.h ****     union {
 267:d:\practise\f407_disc\lvgl\lvgl\src\misc\lv_style.h ****         lv_style_value_t value1;
 268:d:\practise\f407_disc\lvgl\lvgl\src\misc\lv_style.h ****         uint8_t * values_and_props;
 269:d:\practise\f407_disc\lvgl\lvgl\src\misc\lv_style.h ****         const lv_style_const_prop_t * const_props;
 270:d:\practise\f407_disc\lvgl\lvgl\src\misc\lv_style.h ****     } v_p;
 271:d:\practise\f407_disc\lvgl\lvgl\src\misc\lv_style.h **** 
 272:d:\practise\f407_disc\lvgl\lvgl\src\misc\lv_style.h ****     uint16_t prop1 :15;
 273:d:\practise\f407_disc\lvgl\lvgl\src\misc\lv_style.h ****     uint16_t is_const :1;
 274:d:\practise\f407_disc\lvgl\lvgl\src\misc\lv_style.h ****     uint8_t has_group;
 275:d:\practise\f407_disc\lvgl\lvgl\src\misc\lv_style.h ****     uint8_t prop_cnt;
 276:d:\practise\f407_disc\lvgl\lvgl\src\misc\lv_style.h **** } lv_style_t;
 277:d:\practise\f407_disc\lvgl\lvgl\src\misc\lv_style.h **** 
 278:d:\practise\f407_disc\lvgl\lvgl\src\misc\lv_style.h **** /**********************
 279:d:\practise\f407_disc\lvgl\lvgl\src\misc\lv_style.h ****  * GLOBAL PROTOTYPES
 280:d:\practise\f407_disc\lvgl\lvgl\src\misc\lv_style.h ****  **********************/
 281:d:\practise\f407_disc\lvgl\lvgl\src\misc\lv_style.h **** 
 282:d:\practise\f407_disc\lvgl\lvgl\src\misc\lv_style.h **** 
 283:d:\practise\f407_disc\lvgl\lvgl\src\misc\lv_style.h **** /**
 284:d:\practise\f407_disc\lvgl\lvgl\src\misc\lv_style.h ****  * Initialize a style
 285:d:\practise\f407_disc\lvgl\lvgl\src\misc\lv_style.h ****  * @param style pointer to a style to initialize
 286:d:\practise\f407_disc\lvgl\lvgl\src\misc\lv_style.h ****  * @note Do not call `lv_style_init` on styles that are already have some properties
 287:d:\practise\f407_disc\lvgl\lvgl\src\misc\lv_style.h ****  *       because this function won't free the used memory just set a default state for the style.
 288:d:\practise\f407_disc\lvgl\lvgl\src\misc\lv_style.h ****  *       In other words be sure to initialize styles only once!
 289:d:\practise\f407_disc\lvgl\lvgl\src\misc\lv_style.h ****  */
 290:d:\practise\f407_disc\lvgl\lvgl\src\misc\lv_style.h **** void lv_style_init(lv_style_t * style);
 291:d:\practise\f407_disc\lvgl\lvgl\src\misc\lv_style.h **** 
 292:d:\practise\f407_disc\lvgl\lvgl\src\misc\lv_style.h **** /**
 293:d:\practise\f407_disc\lvgl\lvgl\src\misc\lv_style.h ****  * Clear all properties from a style and free all allocated memories.
 294:d:\practise\f407_disc\lvgl\lvgl\src\misc\lv_style.h ****  * @param style pointer to a style
 295:d:\practise\f407_disc\lvgl\lvgl\src\misc\lv_style.h ****  */
 296:d:\practise\f407_disc\lvgl\lvgl\src\misc\lv_style.h **** void lv_style_reset(lv_style_t * style);
 297:d:\practise\f407_disc\lvgl\lvgl\src\misc\lv_style.h **** 
 298:d:\practise\f407_disc\lvgl\lvgl\src\misc\lv_style.h **** /**
 299:d:\practise\f407_disc\lvgl\lvgl\src\misc\lv_style.h ****  * Register a new style property for custom usage
 300:d:\practise\f407_disc\lvgl\lvgl\src\misc\lv_style.h ****  * @return a new property ID.
 301:d:\practise\f407_disc\lvgl\lvgl\src\misc\lv_style.h ****  * @example
 302:d:\practise\f407_disc\lvgl\lvgl\src\misc\lv_style.h ****  * lv_style_prop_t MY_PROP;
 303:d:\practise\f407_disc\lvgl\lvgl\src\misc\lv_style.h ****  * static inline void lv_style_set_my_prop(lv_style_t * style, lv_color_t value) {
 304:d:\practise\f407_disc\lvgl\lvgl\src\misc\lv_style.h ****  * lv_style_value_t v = {.color = value}; lv_style_set_prop(style, MY_PROP, v); }
 305:d:\practise\f407_disc\lvgl\lvgl\src\misc\lv_style.h ****  *
 306:d:\practise\f407_disc\lvgl\lvgl\src\misc\lv_style.h ****  * ...
 307:d:\practise\f407_disc\lvgl\lvgl\src\misc\lv_style.h ****  * MY_PROP = lv_style_register_prop();
 308:d:\practise\f407_disc\lvgl\lvgl\src\misc\lv_style.h ****  * ...
 309:d:\practise\f407_disc\lvgl\lvgl\src\misc\lv_style.h ****  * lv_style_set_my_prop(&style1, lv_palette_main(LV_PALETTE_RED));
 310:d:\practise\f407_disc\lvgl\lvgl\src\misc\lv_style.h ****  */
 311:d:\practise\f407_disc\lvgl\lvgl\src\misc\lv_style.h **** lv_style_prop_t lv_style_register_prop(void);
 312:d:\practise\f407_disc\lvgl\lvgl\src\misc\lv_style.h **** 
 313:d:\practise\f407_disc\lvgl\lvgl\src\misc\lv_style.h **** /**
 314:d:\practise\f407_disc\lvgl\lvgl\src\misc\lv_style.h ****  * Remove a property from a style
 315:d:\practise\f407_disc\lvgl\lvgl\src\misc\lv_style.h ****  * @param style pointer to a style
 316:d:\practise\f407_disc\lvgl\lvgl\src\misc\lv_style.h ****  * @param prop  a style property ORed with a state.
 317:d:\practise\f407_disc\lvgl\lvgl\src\misc\lv_style.h ****  * @return true: the property was found and removed; false: the property wasn't found
 318:d:\practise\f407_disc\lvgl\lvgl\src\misc\lv_style.h ****  */
 319:d:\practise\f407_disc\lvgl\lvgl\src\misc\lv_style.h **** bool lv_style_remove_prop(lv_style_t * style, lv_style_prop_t prop);
 320:d:\practise\f407_disc\lvgl\lvgl\src\misc\lv_style.h **** 
ARM GAS  C:\Users\gx\AppData\Local\Temp\ccpJsvWx.s 			page 62


 321:d:\practise\f407_disc\lvgl\lvgl\src\misc\lv_style.h **** /**
 322:d:\practise\f407_disc\lvgl\lvgl\src\misc\lv_style.h ****  * Set the value of property in a style.
