ARM GAS  C:\Users\gx\AppData\Local\Temp\cc9hJkVh.s 			page 1


   1              		.cpu cortex-m4
   2              		.eabi_attribute 27, 1
   3              		.eabi_attribute 28, 1
   4              		.eabi_attribute 20, 1
   5              		.eabi_attribute 21, 1
   6              		.eabi_attribute 23, 3
   7              		.eabi_attribute 24, 1
   8              		.eabi_attribute 25, 1
   9              		.eabi_attribute 26, 1
  10              		.eabi_attribute 30, 1
  11              		.eabi_attribute 34, 1
  12              		.eabi_attribute 18, 4
  13              		.file	"rtc.c"
  14              		.text
  15              	.Ltext0:
  16              		.cfi_sections	.debug_frame
  17              		.section	.text.MX_RTC_Init,"ax",%progbits
  18              		.align	1
  19              		.global	MX_RTC_Init
  20              		.arch armv7e-m
  21              		.syntax unified
  22              		.thumb
  23              		.thumb_func
  24              		.fpu fpv4-sp-d16
  26              	MX_RTC_Init:
  27              	.LFB126:
  28              		.file 1 "Src/rtc.c"
   1:Src/rtc.c     **** /**
   2:Src/rtc.c     ****   ******************************************************************************
   3:Src/rtc.c     ****   * File Name          : RTC.c
   4:Src/rtc.c     ****   * Description        : This file provides code for the configuration
   5:Src/rtc.c     ****   *                      of the RTC instances.
   6:Src/rtc.c     ****   ******************************************************************************
   7:Src/rtc.c     ****   * This notice applies to any and all portions of this file
   8:Src/rtc.c     ****   * that are not between comment pairs USER CODE BEGIN and
   9:Src/rtc.c     ****   * USER CODE END. Other portions of this file, whether 
  10:Src/rtc.c     ****   * inserted by the user or by software development tools
  11:Src/rtc.c     ****   * are owned by their respective copyright owners.
  12:Src/rtc.c     ****   *
  13:Src/rtc.c     ****   * Copyright (c) 2020 STMicroelectronics International N.V. 
  14:Src/rtc.c     ****   * All rights reserved.
  15:Src/rtc.c     ****   *
  16:Src/rtc.c     ****   * Redistribution and use in source and binary forms, with or without 
  17:Src/rtc.c     ****   * modification, are permitted, provided that the following conditions are met:
  18:Src/rtc.c     ****   *
  19:Src/rtc.c     ****   * 1. Redistribution of source code must retain the above copyright notice, 
  20:Src/rtc.c     ****   *    this list of conditions and the following disclaimer.
  21:Src/rtc.c     ****   * 2. Redistributions in binary form must reproduce the above copyright notice,
  22:Src/rtc.c     ****   *    this list of conditions and the following disclaimer in the documentation
  23:Src/rtc.c     ****   *    and/or other materials provided with the distribution.
  24:Src/rtc.c     ****   * 3. Neither the name of STMicroelectronics nor the names of other 
  25:Src/rtc.c     ****   *    contributors to this software may be used to endorse or promote products 
  26:Src/rtc.c     ****   *    derived from this software without specific written permission.
  27:Src/rtc.c     ****   * 4. This software, including modifications and/or derivative works of this 
  28:Src/rtc.c     ****   *    software, must execute solely and exclusively on microcontroller or
  29:Src/rtc.c     ****   *    microprocessor devices manufactured by or for STMicroelectronics.
  30:Src/rtc.c     ****   * 5. Redistribution and use of this software other than as permitted under 
ARM GAS  C:\Users\gx\AppData\Local\Temp\cc9hJkVh.s 			page 2


  31:Src/rtc.c     ****   *    this license is void and will automatically terminate your rights under 
  32:Src/rtc.c     ****   *    this license. 
  33:Src/rtc.c     ****   *
  34:Src/rtc.c     ****   * THIS SOFTWARE IS PROVIDED BY STMICROELECTRONICS AND CONTRIBUTORS "AS IS" 
  35:Src/rtc.c     ****   * AND ANY EXPRESS, IMPLIED OR STATUTORY WARRANTIES, INCLUDING, BUT NOT 
  36:Src/rtc.c     ****   * LIMITED TO, THE IMPLIED WARRANTIES OF MERCHANTABILITY, FITNESS FOR A 
  37:Src/rtc.c     ****   * PARTICULAR PURPOSE AND NON-INFRINGEMENT OF THIRD PARTY INTELLECTUAL PROPERTY
  38:Src/rtc.c     ****   * RIGHTS ARE DISCLAIMED TO THE FULLEST EXTENT PERMITTED BY LAW. IN NO EVENT 
  39:Src/rtc.c     ****   * SHALL STMICROELECTRONICS OR CONTRIBUTORS BE LIABLE FOR ANY DIRECT, INDIRECT,
  40:Src/rtc.c     ****   * INCIDENTAL, SPECIAL, EXEMPLARY, OR CONSEQUENTIAL DAMAGES (INCLUDING, BUT NOT
  41:Src/rtc.c     ****   * LIMITED TO, PROCUREMENT OF SUBSTITUTE GOODS OR SERVICES; LOSS OF USE, DATA, 
  42:Src/rtc.c     ****   * OR PROFITS; OR BUSINESS INTERRUPTION) HOWEVER CAUSED AND ON ANY THEORY OF 
  43:Src/rtc.c     ****   * LIABILITY, WHETHER IN CONTRACT, STRICT LIABILITY, OR TORT (INCLUDING 
  44:Src/rtc.c     ****   * NEGLIGENCE OR OTHERWISE) ARISING IN ANY WAY OUT OF THE USE OF THIS SOFTWARE,
  45:Src/rtc.c     ****   * EVEN IF ADVISED OF THE POSSIBILITY OF SUCH DAMAGE.
  46:Src/rtc.c     ****   *
  47:Src/rtc.c     ****   ******************************************************************************
  48:Src/rtc.c     ****   */
  49:Src/rtc.c     **** 
  50:Src/rtc.c     **** /* Includes ------------------------------------------------------------------*/
  51:Src/rtc.c     **** #include "rtc.h"
  52:Src/rtc.c     **** 
  53:Src/rtc.c     **** /* USER CODE BEGIN 0 */
  54:Src/rtc.c     **** 
  55:Src/rtc.c     **** /* USER CODE END 0 */
  56:Src/rtc.c     **** 
  57:Src/rtc.c     **** RTC_HandleTypeDef hrtc;
  58:Src/rtc.c     **** 
  59:Src/rtc.c     **** /* RTC init function */
  60:Src/rtc.c     **** void MX_RTC_Init(void)
  61:Src/rtc.c     **** {
  29              		.loc 1 61 1 view -0
  30              		.cfi_startproc
  31              		@ args = 0, pretend = 0, frame = 0
  32              		@ frame_needed = 0, uses_anonymous_args = 0
  33 0000 08B5     		push	{r3, lr}
  34              	.LCFI0:
  35              		.cfi_def_cfa_offset 8
  36              		.cfi_offset 3, -8
  37              		.cfi_offset 14, -4
  62:Src/rtc.c     **** 
  63:Src/rtc.c     ****   /**Initialize RTC Only 
  64:Src/rtc.c     ****   */
  65:Src/rtc.c     ****   hrtc.Instance = RTC;
  38              		.loc 1 65 3 view .LVU1
  39              		.loc 1 65 17 is_stmt 0 view .LVU2
  40 0002 0948     		ldr	r0, .L5
  41 0004 094B     		ldr	r3, .L5+4
  42 0006 0360     		str	r3, [r0]
  66:Src/rtc.c     ****   hrtc.Init.HourFormat = RTC_HOURFORMAT_24;
  43              		.loc 1 66 3 is_stmt 1 view .LVU3
  44              		.loc 1 66 24 is_stmt 0 view .LVU4
  45 0008 0023     		movs	r3, #0
  46 000a 4360     		str	r3, [r0, #4]
  67:Src/rtc.c     ****   hrtc.Init.AsynchPrediv = 127;
  47              		.loc 1 67 3 is_stmt 1 view .LVU5
  48              		.loc 1 67 26 is_stmt 0 view .LVU6
ARM GAS  C:\Users\gx\AppData\Local\Temp\cc9hJkVh.s 			page 3


  49 000c 7F22     		movs	r2, #127
  50 000e 8260     		str	r2, [r0, #8]
  68:Src/rtc.c     ****   hrtc.Init.SynchPrediv = 255;
  51              		.loc 1 68 3 is_stmt 1 view .LVU7
  52              		.loc 1 68 25 is_stmt 0 view .LVU8
  53 0010 FF22     		movs	r2, #255
  54 0012 C260     		str	r2, [r0, #12]
  69:Src/rtc.c     ****   hrtc.Init.OutPut = RTC_OUTPUT_DISABLE;
  55              		.loc 1 69 3 is_stmt 1 view .LVU9
  56              		.loc 1 69 20 is_stmt 0 view .LVU10
  57 0014 0361     		str	r3, [r0, #16]
  70:Src/rtc.c     ****   hrtc.Init.OutPutPolarity = RTC_OUTPUT_POLARITY_HIGH;
  58              		.loc 1 70 3 is_stmt 1 view .LVU11
  59              		.loc 1 70 28 is_stmt 0 view .LVU12
  60 0016 4361     		str	r3, [r0, #20]
  71:Src/rtc.c     ****   hrtc.Init.OutPutType = RTC_OUTPUT_TYPE_OPENDRAIN;
  61              		.loc 1 71 3 is_stmt 1 view .LVU13
  62              		.loc 1 71 24 is_stmt 0 view .LVU14
  63 0018 8361     		str	r3, [r0, #24]
  72:Src/rtc.c     ****   if (HAL_RTC_Init(&hrtc) != HAL_OK)
  64              		.loc 1 72 3 is_stmt 1 view .LVU15
  65              		.loc 1 72 7 is_stmt 0 view .LVU16
  66 001a FFF7FEFF 		bl	HAL_RTC_Init
  67              	.LVL0:
  68              		.loc 1 72 6 view .LVU17
  69 001e 00B9     		cbnz	r0, .L4
  70              	.L1:
  73:Src/rtc.c     ****   {
  74:Src/rtc.c     ****     Error_Handler();
  75:Src/rtc.c     ****   }
  76:Src/rtc.c     **** 
  77:Src/rtc.c     **** }
  71              		.loc 1 77 1 view .LVU18
  72 0020 08BD     		pop	{r3, pc}
  73              	.L4:
  74:Src/rtc.c     ****   }
  74              		.loc 1 74 5 is_stmt 1 view .LVU19
  75 0022 FFF7FEFF 		bl	Error_Handler
  76              	.LVL1:
  77              		.loc 1 77 1 is_stmt 0 view .LVU20
  78 0026 FBE7     		b	.L1
  79              	.L6:
  80              		.align	2
  81              	.L5:
  82 0028 00000000 		.word	hrtc
  83 002c 00280040 		.word	1073752064
  84              		.cfi_endproc
  85              	.LFE126:
  87              		.section	.text.HAL_RTC_MspInit,"ax",%progbits
  88              		.align	1
  89              		.global	HAL_RTC_MspInit
  90              		.syntax unified
  91              		.thumb
  92              		.thumb_func
  93              		.fpu fpv4-sp-d16
  95              	HAL_RTC_MspInit:
  96              	.LVL2:
ARM GAS  C:\Users\gx\AppData\Local\Temp\cc9hJkVh.s 			page 4


  97              	.LFB127:
  78:Src/rtc.c     **** 
  79:Src/rtc.c     **** void HAL_RTC_MspInit(RTC_HandleTypeDef* rtcHandle)
  80:Src/rtc.c     **** {
  98              		.loc 1 80 1 is_stmt 1 view -0
  99              		.cfi_startproc
 100              		@ args = 0, pretend = 0, frame = 0
 101              		@ frame_needed = 0, uses_anonymous_args = 0
 102              		@ link register save eliminated.
  81:Src/rtc.c     **** 
  82:Src/rtc.c     ****   if(rtcHandle->Instance==RTC)
 103              		.loc 1 82 3 view .LVU22
 104              		.loc 1 82 15 is_stmt 0 view .LVU23
 105 0000 0268     		ldr	r2, [r0]
 106              		.loc 1 82 5 view .LVU24
 107 0002 044B     		ldr	r3, .L10
 108 0004 9A42     		cmp	r2, r3
 109 0006 00D0     		beq	.L9
 110              	.L7:
  83:Src/rtc.c     ****   {
  84:Src/rtc.c     ****   /* USER CODE BEGIN RTC_MspInit 0 */
  85:Src/rtc.c     **** 
  86:Src/rtc.c     ****   /* USER CODE END RTC_MspInit 0 */
  87:Src/rtc.c     ****     /* RTC clock enable */
  88:Src/rtc.c     ****     __HAL_RCC_RTC_ENABLE();
  89:Src/rtc.c     ****   /* USER CODE BEGIN RTC_MspInit 1 */
  90:Src/rtc.c     **** 
  91:Src/rtc.c     ****   /* USER CODE END RTC_MspInit 1 */
  92:Src/rtc.c     ****   }
  93:Src/rtc.c     **** }
 111              		.loc 1 93 1 view .LVU25
 112 0008 7047     		bx	lr
 113              	.L9:
  88:Src/rtc.c     ****   /* USER CODE BEGIN RTC_MspInit 1 */
 114              		.loc 1 88 5 is_stmt 1 view .LVU26
 115 000a 034B     		ldr	r3, .L10+4
 116 000c 0122     		movs	r2, #1
 117 000e 1A60     		str	r2, [r3]
 118              		.loc 1 93 1 is_stmt 0 view .LVU27
 119 0010 FAE7     		b	.L7
 120              	.L11:
 121 0012 00BF     		.align	2
 122              	.L10:
 123 0014 00280040 		.word	1073752064
 124 0018 3C0E4742 		.word	1111952956
 125              		.cfi_endproc
 126              	.LFE127:
 128              		.section	.text.HAL_RTC_MspDeInit,"ax",%progbits
 129              		.align	1
 130              		.global	HAL_RTC_MspDeInit
 131              		.syntax unified
 132              		.thumb
 133              		.thumb_func
 134              		.fpu fpv4-sp-d16
 136              	HAL_RTC_MspDeInit:
 137              	.LVL3:
 138              	.LFB128:
ARM GAS  C:\Users\gx\AppData\Local\Temp\cc9hJkVh.s 			page 5


  94:Src/rtc.c     **** 
  95:Src/rtc.c     **** void HAL_RTC_MspDeInit(RTC_HandleTypeDef* rtcHandle)
  96:Src/rtc.c     **** {
 139              		.loc 1 96 1 is_stmt 1 view -0
 140              		.cfi_startproc
 141              		@ args = 0, pretend = 0, frame = 0
 142              		@ frame_needed = 0, uses_anonymous_args = 0
 143              		@ link register save eliminated.
  97:Src/rtc.c     **** 
  98:Src/rtc.c     ****   if(rtcHandle->Instance==RTC)
 144              		.loc 1 98 3 view .LVU29
 145              		.loc 1 98 15 is_stmt 0 view .LVU30
 146 0000 0268     		ldr	r2, [r0]
 147              		.loc 1 98 5 view .LVU31
 148 0002 044B     		ldr	r3, .L15
 149 0004 9A42     		cmp	r2, r3
 150 0006 00D0     		beq	.L14
 151              	.L12:
  99:Src/rtc.c     ****   {
 100:Src/rtc.c     ****   /* USER CODE BEGIN RTC_MspDeInit 0 */
 101:Src/rtc.c     **** 
 102:Src/rtc.c     ****   /* USER CODE END RTC_MspDeInit 0 */
 103:Src/rtc.c     ****     /* Peripheral clock disable */
 104:Src/rtc.c     ****     __HAL_RCC_RTC_DISABLE();
 105:Src/rtc.c     ****   /* USER CODE BEGIN RTC_MspDeInit 1 */
 106:Src/rtc.c     **** 
 107:Src/rtc.c     ****   /* USER CODE END RTC_MspDeInit 1 */
 108:Src/rtc.c     ****   }
 109:Src/rtc.c     **** } 
 152              		.loc 1 109 1 view .LVU32
 153 0008 7047     		bx	lr
 154              	.L14:
 104:Src/rtc.c     ****   /* USER CODE BEGIN RTC_MspDeInit 1 */
 155              		.loc 1 104 5 is_stmt 1 view .LVU33
 156 000a 034B     		ldr	r3, .L15+4
 157 000c 0022     		movs	r2, #0
 158 000e 1A60     		str	r2, [r3]
 159              		.loc 1 109 1 is_stmt 0 view .LVU34
 160 0010 FAE7     		b	.L12
 161              	.L16:
 162 0012 00BF     		.align	2
 163              	.L15:
 164 0014 00280040 		.word	1073752064
 165 0018 3C0E4742 		.word	1111952956
 166              		.cfi_endproc
 167              	.LFE128:
 169              		.comm	hrtc,32,4
 170              		.text
 171              	.Letext0:
 172              		.file 2 "c:\\program files (x86)\\gnu arm embedded toolchain\\9 2020-q2-update\\arm-none-eabi\\inc
 173              		.file 3 "c:\\program files (x86)\\gnu arm embedded toolchain\\9 2020-q2-update\\arm-none-eabi\\inc
 174              		.file 4 "Drivers/CMSIS/Include/core_cm4.h"
 175              		.file 5 "Drivers/CMSIS/Device/ST/STM32F4xx/Include/system_stm32f4xx.h"
 176              		.file 6 "Drivers/CMSIS/Device/ST/STM32F4xx/Include/stm32f407xx.h"
 177              		.file 7 "c:\\program files (x86)\\gnu arm embedded toolchain\\9 2020-q2-update\\lib\\gcc\\arm-none
 178              		.file 8 "c:\\program files (x86)\\gnu arm embedded toolchain\\9 2020-q2-update\\arm-none-eabi\\inc
 179              		.file 9 "c:\\program files (x86)\\gnu arm embedded toolchain\\9 2020-q2-update\\arm-none-eabi\\inc
ARM GAS  C:\Users\gx\AppData\Local\Temp\cc9hJkVh.s 			page 6


 180              		.file 10 "c:\\program files (x86)\\gnu arm embedded toolchain\\9 2020-q2-update\\arm-none-eabi\\in
 181              		.file 11 "Drivers/CMSIS/Device/ST/STM32F4xx/Include/stm32f4xx.h"
 182              		.file 12 "Drivers/STM32F4xx_HAL_Driver/Inc/stm32f4xx_hal_def.h"
 183              		.file 13 "Drivers/STM32F4xx_HAL_Driver/Inc/stm32f4xx_hal_rtc.h"
 184              		.file 14 "Inc/rtc.h"
 185              		.file 15 "Inc/main.h"
ARM GAS  C:\Users\gx\AppData\Local\Temp\cc9hJkVh.s 			page 7

