ARM GAS  C:\Users\gx\AppData\Local\Temp\cc1Gf6cM.s 			page 1


   1              		.cpu cortex-m4
   2              		.eabi_attribute 27, 1
   3              		.eabi_attribute 28, 1
   4              		.eabi_attribute 20, 1
   5              		.eabi_attribute 21, 1
   6              		.eabi_attribute 23, 3
   7              		.eabi_attribute 24, 1
   8              		.eabi_attribute 25, 1
   9              		.eabi_attribute 26, 1
  10              		.eabi_attribute 30, 1
  11              		.eabi_attribute 34, 1
  12              		.eabi_attribute 18, 4
  13              		.file	"sdio.c"
  14              		.text
  15              	.Ltext0:
  16              		.cfi_sections	.debug_frame
  17              		.section	.text.MX_SDIO_SD_Init,"ax",%progbits
  18              		.align	1
  19              		.global	MX_SDIO_SD_Init
  20              		.arch armv7e-m
  21              		.syntax unified
  22              		.thumb
  23              		.thumb_func
  24              		.fpu fpv4-sp-d16
  26              	MX_SDIO_SD_Init:
  27              	.LFB126:
  28              		.file 1 "Src/sdio.c"
   1:Src/sdio.c    **** /**
   2:Src/sdio.c    ****   ******************************************************************************
   3:Src/sdio.c    ****   * File Name          : SDIO.c
   4:Src/sdio.c    ****   * Description        : This file provides code for the configuration
   5:Src/sdio.c    ****   *                      of the SDIO instances.
   6:Src/sdio.c    ****   ******************************************************************************
   7:Src/sdio.c    ****   * This notice applies to any and all portions of this file
   8:Src/sdio.c    ****   * that are not between comment pairs USER CODE BEGIN and
   9:Src/sdio.c    ****   * USER CODE END. Other portions of this file, whether 
  10:Src/sdio.c    ****   * inserted by the user or by software development tools
  11:Src/sdio.c    ****   * are owned by their respective copyright owners.
  12:Src/sdio.c    ****   *
  13:Src/sdio.c    ****   * Copyright (c) 2020 STMicroelectronics International N.V. 
  14:Src/sdio.c    ****   * All rights reserved.
  15:Src/sdio.c    ****   *
  16:Src/sdio.c    ****   * Redistribution and use in source and binary forms, with or without 
  17:Src/sdio.c    ****   * modification, are permitted, provided that the following conditions are met:
  18:Src/sdio.c    ****   *
  19:Src/sdio.c    ****   * 1. Redistribution of source code must retain the above copyright notice, 
  20:Src/sdio.c    ****   *    this list of conditions and the following disclaimer.
  21:Src/sdio.c    ****   * 2. Redistributions in binary form must reproduce the above copyright notice,
  22:Src/sdio.c    ****   *    this list of conditions and the following disclaimer in the documentation
  23:Src/sdio.c    ****   *    and/or other materials provided with the distribution.
  24:Src/sdio.c    ****   * 3. Neither the name of STMicroelectronics nor the names of other 
  25:Src/sdio.c    ****   *    contributors to this software may be used to endorse or promote products 
  26:Src/sdio.c    ****   *    derived from this software without specific written permission.
  27:Src/sdio.c    ****   * 4. This software, including modifications and/or derivative works of this 
  28:Src/sdio.c    ****   *    software, must execute solely and exclusively on microcontroller or
  29:Src/sdio.c    ****   *    microprocessor devices manufactured by or for STMicroelectronics.
  30:Src/sdio.c    ****   * 5. Redistribution and use of this software other than as permitted under 
ARM GAS  C:\Users\gx\AppData\Local\Temp\cc1Gf6cM.s 			page 2


  31:Src/sdio.c    ****   *    this license is void and will automatically terminate your rights under 
  32:Src/sdio.c    ****   *    this license. 
  33:Src/sdio.c    ****   *
  34:Src/sdio.c    ****   * THIS SOFTWARE IS PROVIDED BY STMICROELECTRONICS AND CONTRIBUTORS "AS IS" 
  35:Src/sdio.c    ****   * AND ANY EXPRESS, IMPLIED OR STATUTORY WARRANTIES, INCLUDING, BUT NOT 
  36:Src/sdio.c    ****   * LIMITED TO, THE IMPLIED WARRANTIES OF MERCHANTABILITY, FITNESS FOR A 
  37:Src/sdio.c    ****   * PARTICULAR PURPOSE AND NON-INFRINGEMENT OF THIRD PARTY INTELLECTUAL PROPERTY
  38:Src/sdio.c    ****   * RIGHTS ARE DISCLAIMED TO THE FULLEST EXTENT PERMITTED BY LAW. IN NO EVENT 
  39:Src/sdio.c    ****   * SHALL STMICROELECTRONICS OR CONTRIBUTORS BE LIABLE FOR ANY DIRECT, INDIRECT,
  40:Src/sdio.c    ****   * INCIDENTAL, SPECIAL, EXEMPLARY, OR CONSEQUENTIAL DAMAGES (INCLUDING, BUT NOT
  41:Src/sdio.c    ****   * LIMITED TO, PROCUREMENT OF SUBSTITUTE GOODS OR SERVICES; LOSS OF USE, DATA, 
  42:Src/sdio.c    ****   * OR PROFITS; OR BUSINESS INTERRUPTION) HOWEVER CAUSED AND ON ANY THEORY OF 
  43:Src/sdio.c    ****   * LIABILITY, WHETHER IN CONTRACT, STRICT LIABILITY, OR TORT (INCLUDING 
  44:Src/sdio.c    ****   * NEGLIGENCE OR OTHERWISE) ARISING IN ANY WAY OUT OF THE USE OF THIS SOFTWARE,
  45:Src/sdio.c    ****   * EVEN IF ADVISED OF THE POSSIBILITY OF SUCH DAMAGE.
  46:Src/sdio.c    ****   *
  47:Src/sdio.c    ****   ******************************************************************************
  48:Src/sdio.c    ****   */
  49:Src/sdio.c    **** 
  50:Src/sdio.c    **** /* Includes ------------------------------------------------------------------*/
  51:Src/sdio.c    **** #include "sdio.h"
  52:Src/sdio.c    **** 
  53:Src/sdio.c    **** /* USER CODE BEGIN 0 */
  54:Src/sdio.c    **** 
  55:Src/sdio.c    **** /* USER CODE END 0 */
  56:Src/sdio.c    **** 
  57:Src/sdio.c    **** SD_HandleTypeDef hsd;
  58:Src/sdio.c    **** 
  59:Src/sdio.c    **** /* SDIO init function */
  60:Src/sdio.c    **** 
  61:Src/sdio.c    **** void MX_SDIO_SD_Init(void)
  62:Src/sdio.c    **** {
  29              		.loc 1 62 1 view -0
  30              		.cfi_startproc
  31              		@ args = 0, pretend = 0, frame = 0
  32              		@ frame_needed = 0, uses_anonymous_args = 0
  33 0000 08B5     		push	{r3, lr}
  34              	.LCFI0:
  35              		.cfi_def_cfa_offset 8
  36              		.cfi_offset 3, -8
  37              		.cfi_offset 14, -4
  63:Src/sdio.c    **** 
  64:Src/sdio.c    ****   hsd.Instance = SDIO;
  38              		.loc 1 64 3 view .LVU1
  39              		.loc 1 64 16 is_stmt 0 view .LVU2
  40 0002 0D48     		ldr	r0, .L7
  41 0004 0D4B     		ldr	r3, .L7+4
  42 0006 0360     		str	r3, [r0]
  65:Src/sdio.c    ****   hsd.Init.ClockEdge = SDIO_CLOCK_EDGE_RISING;
  43              		.loc 1 65 3 is_stmt 1 view .LVU3
  44              		.loc 1 65 22 is_stmt 0 view .LVU4
  45 0008 0023     		movs	r3, #0
  46 000a 4360     		str	r3, [r0, #4]
  66:Src/sdio.c    ****   hsd.Init.ClockBypass = SDIO_CLOCK_BYPASS_DISABLE;
  47              		.loc 1 66 3 is_stmt 1 view .LVU5
  48              		.loc 1 66 24 is_stmt 0 view .LVU6
  49 000c 8360     		str	r3, [r0, #8]
ARM GAS  C:\Users\gx\AppData\Local\Temp\cc1Gf6cM.s 			page 3


  67:Src/sdio.c    ****   hsd.Init.ClockPowerSave = SDIO_CLOCK_POWER_SAVE_DISABLE;
  50              		.loc 1 67 3 is_stmt 1 view .LVU7
  51              		.loc 1 67 27 is_stmt 0 view .LVU8
  52 000e C360     		str	r3, [r0, #12]
  68:Src/sdio.c    ****   hsd.Init.BusWide = SDIO_BUS_WIDE_1B;
  53              		.loc 1 68 3 is_stmt 1 view .LVU9
  54              		.loc 1 68 20 is_stmt 0 view .LVU10
  55 0010 0361     		str	r3, [r0, #16]
  69:Src/sdio.c    ****   hsd.Init.HardwareFlowControl = SDIO_HARDWARE_FLOW_CONTROL_DISABLE;
  56              		.loc 1 69 3 is_stmt 1 view .LVU11
  57              		.loc 1 69 32 is_stmt 0 view .LVU12
  58 0012 4361     		str	r3, [r0, #20]
  70:Src/sdio.c    ****   hsd.Init.ClockDiv = 0;
  59              		.loc 1 70 3 is_stmt 1 view .LVU13
  60              		.loc 1 70 21 is_stmt 0 view .LVU14
  61 0014 8361     		str	r3, [r0, #24]
  71:Src/sdio.c    ****   if (HAL_SD_Init(&hsd) != HAL_OK)
  62              		.loc 1 71 3 is_stmt 1 view .LVU15
  63              		.loc 1 71 7 is_stmt 0 view .LVU16
  64 0016 FFF7FEFF 		bl	HAL_SD_Init
  65              	.LVL0:
  66              		.loc 1 71 6 view .LVU17
  67 001a 30B9     		cbnz	r0, .L5
  68              	.L2:
  72:Src/sdio.c    ****   {
  73:Src/sdio.c    ****     Error_Handler();
  74:Src/sdio.c    ****   }
  75:Src/sdio.c    ****   if (HAL_SD_ConfigWideBusOperation(&hsd, SDIO_BUS_WIDE_4B) != HAL_OK)
  69              		.loc 1 75 3 is_stmt 1 view .LVU18
  70              		.loc 1 75 7 is_stmt 0 view .LVU19
  71 001c 4FF40061 		mov	r1, #2048
  72 0020 0548     		ldr	r0, .L7
  73 0022 FFF7FEFF 		bl	HAL_SD_ConfigWideBusOperation
  74              	.LVL1:
  75              		.loc 1 75 6 view .LVU20
  76 0026 18B9     		cbnz	r0, .L6
  77              	.L1:
  76:Src/sdio.c    ****   {
  77:Src/sdio.c    ****     Error_Handler();
  78:Src/sdio.c    ****   }
  79:Src/sdio.c    **** 
  80:Src/sdio.c    **** }
  78              		.loc 1 80 1 view .LVU21
  79 0028 08BD     		pop	{r3, pc}
  80              	.L5:
  73:Src/sdio.c    ****   }
  81              		.loc 1 73 5 is_stmt 1 view .LVU22
  82 002a FFF7FEFF 		bl	Error_Handler
  83              	.LVL2:
  84 002e F5E7     		b	.L2
  85              	.L6:
  77:Src/sdio.c    ****   }
  86              		.loc 1 77 5 view .LVU23
  87 0030 FFF7FEFF 		bl	Error_Handler
  88              	.LVL3:
  89              		.loc 1 80 1 is_stmt 0 view .LVU24
  90 0034 F8E7     		b	.L1
ARM GAS  C:\Users\gx\AppData\Local\Temp\cc1Gf6cM.s 			page 4


  91              	.L8:
  92 0036 00BF     		.align	2
  93              	.L7:
  94 0038 00000000 		.word	hsd
  95 003c 002C0140 		.word	1073818624
  96              		.cfi_endproc
  97              	.LFE126:
  99              		.section	.text.HAL_SD_MspInit,"ax",%progbits
 100              		.align	1
 101              		.global	HAL_SD_MspInit
 102              		.syntax unified
 103              		.thumb
 104              		.thumb_func
 105              		.fpu fpv4-sp-d16
 107              	HAL_SD_MspInit:
 108              	.LVL4:
 109              	.LFB127:
  81:Src/sdio.c    **** 
  82:Src/sdio.c    **** void HAL_SD_MspInit(SD_HandleTypeDef* sdHandle)
  83:Src/sdio.c    **** {
 110              		.loc 1 83 1 is_stmt 1 view -0
 111              		.cfi_startproc
 112              		@ args = 0, pretend = 0, frame = 32
 113              		@ frame_needed = 0, uses_anonymous_args = 0
 114              		.loc 1 83 1 is_stmt 0 view .LVU26
 115 0000 F0B5     		push	{r4, r5, r6, r7, lr}
 116              	.LCFI1:
 117              		.cfi_def_cfa_offset 20
 118              		.cfi_offset 4, -20
 119              		.cfi_offset 5, -16
 120              		.cfi_offset 6, -12
 121              		.cfi_offset 7, -8
 122              		.cfi_offset 14, -4
 123 0002 89B0     		sub	sp, sp, #36
 124              	.LCFI2:
 125              		.cfi_def_cfa_offset 56
  84:Src/sdio.c    **** 
  85:Src/sdio.c    ****   GPIO_InitTypeDef GPIO_InitStruct = {0};
 126              		.loc 1 85 3 is_stmt 1 view .LVU27
 127              		.loc 1 85 20 is_stmt 0 view .LVU28
 128 0004 0023     		movs	r3, #0
 129 0006 0393     		str	r3, [sp, #12]
 130 0008 0493     		str	r3, [sp, #16]
 131 000a 0593     		str	r3, [sp, #20]
 132 000c 0693     		str	r3, [sp, #24]
 133 000e 0793     		str	r3, [sp, #28]
  86:Src/sdio.c    ****   if(sdHandle->Instance==SDIO)
 134              		.loc 1 86 3 is_stmt 1 view .LVU29
 135              		.loc 1 86 14 is_stmt 0 view .LVU30
 136 0010 0268     		ldr	r2, [r0]
 137              		.loc 1 86 5 view .LVU31
 138 0012 204B     		ldr	r3, .L13
 139 0014 9A42     		cmp	r2, r3
 140 0016 01D0     		beq	.L12
 141              	.LVL5:
 142              	.L9:
  87:Src/sdio.c    ****   {
ARM GAS  C:\Users\gx\AppData\Local\Temp\cc1Gf6cM.s 			page 5


  88:Src/sdio.c    ****   /* USER CODE BEGIN SDIO_MspInit 0 */
  89:Src/sdio.c    **** 
  90:Src/sdio.c    ****   /* USER CODE END SDIO_MspInit 0 */
  91:Src/sdio.c    ****     /* SDIO clock enable */
  92:Src/sdio.c    ****     __HAL_RCC_SDIO_CLK_ENABLE();
  93:Src/sdio.c    ****   
  94:Src/sdio.c    ****     __HAL_RCC_GPIOC_CLK_ENABLE();
  95:Src/sdio.c    ****     __HAL_RCC_GPIOD_CLK_ENABLE();
  96:Src/sdio.c    ****     /**SDIO GPIO Configuration    
  97:Src/sdio.c    ****     PC8     ------> SDIO_D0
  98:Src/sdio.c    ****     PC9     ------> SDIO_D1
  99:Src/sdio.c    ****     PC10     ------> SDIO_D2
 100:Src/sdio.c    ****     PC11     ------> SDIO_D3
 101:Src/sdio.c    ****     PC12     ------> SDIO_CK
 102:Src/sdio.c    ****     PD2     ------> SDIO_CMD 
 103:Src/sdio.c    ****     */
 104:Src/sdio.c    ****     GPIO_InitStruct.Pin = GPIO_PIN_8|GPIO_PIN_9|GPIO_PIN_10|GPIO_PIN_11 
 105:Src/sdio.c    ****                           |GPIO_PIN_12;
 106:Src/sdio.c    ****     GPIO_InitStruct.Mode = GPIO_MODE_AF_PP;
 107:Src/sdio.c    ****     GPIO_InitStruct.Pull = GPIO_NOPULL;
 108:Src/sdio.c    ****     GPIO_InitStruct.Speed = GPIO_SPEED_FREQ_VERY_HIGH;
 109:Src/sdio.c    ****     GPIO_InitStruct.Alternate = GPIO_AF12_SDIO;
 110:Src/sdio.c    ****     HAL_GPIO_Init(GPIOC, &GPIO_InitStruct);
 111:Src/sdio.c    **** 
 112:Src/sdio.c    ****     GPIO_InitStruct.Pin = GPIO_PIN_2;
 113:Src/sdio.c    ****     GPIO_InitStruct.Mode = GPIO_MODE_AF_PP;
 114:Src/sdio.c    ****     GPIO_InitStruct.Pull = GPIO_NOPULL;
 115:Src/sdio.c    ****     GPIO_InitStruct.Speed = GPIO_SPEED_FREQ_VERY_HIGH;
 116:Src/sdio.c    ****     GPIO_InitStruct.Alternate = GPIO_AF12_SDIO;
 117:Src/sdio.c    ****     HAL_GPIO_Init(GPIOD, &GPIO_InitStruct);
 118:Src/sdio.c    **** 
 119:Src/sdio.c    ****   /* USER CODE BEGIN SDIO_MspInit 1 */
 120:Src/sdio.c    **** 
 121:Src/sdio.c    ****   /* USER CODE END SDIO_MspInit 1 */
 122:Src/sdio.c    ****   }
 123:Src/sdio.c    **** }
 143              		.loc 1 123 1 view .LVU32
 144 0018 09B0     		add	sp, sp, #36
 145              	.LCFI3:
 146              		.cfi_remember_state
 147              		.cfi_def_cfa_offset 20
 148              		@ sp needed
 149 001a F0BD     		pop	{r4, r5, r6, r7, pc}
 150              	.LVL6:
 151              	.L12:
 152              	.LCFI4:
 153              		.cfi_restore_state
  92:Src/sdio.c    ****   
 154              		.loc 1 92 5 is_stmt 1 view .LVU33
 155              	.LBB2:
  92:Src/sdio.c    ****   
 156              		.loc 1 92 5 view .LVU34
 157 001c 0024     		movs	r4, #0
 158 001e 0094     		str	r4, [sp]
  92:Src/sdio.c    ****   
 159              		.loc 1 92 5 view .LVU35
 160 0020 03F58633 		add	r3, r3, #68608
ARM GAS  C:\Users\gx\AppData\Local\Temp\cc1Gf6cM.s 			page 6


 161 0024 5A6C     		ldr	r2, [r3, #68]
 162 0026 42F40062 		orr	r2, r2, #2048
 163 002a 5A64     		str	r2, [r3, #68]
  92:Src/sdio.c    ****   
 164              		.loc 1 92 5 view .LVU36
 165 002c 5A6C     		ldr	r2, [r3, #68]
 166 002e 02F40062 		and	r2, r2, #2048
 167 0032 0092     		str	r2, [sp]
  92:Src/sdio.c    ****   
 168              		.loc 1 92 5 view .LVU37
 169 0034 009A     		ldr	r2, [sp]
 170              	.LBE2:
  92:Src/sdio.c    ****   
 171              		.loc 1 92 5 view .LVU38
  94:Src/sdio.c    ****     __HAL_RCC_GPIOD_CLK_ENABLE();
 172              		.loc 1 94 5 view .LVU39
 173              	.LBB3:
  94:Src/sdio.c    ****     __HAL_RCC_GPIOD_CLK_ENABLE();
 174              		.loc 1 94 5 view .LVU40
 175 0036 0194     		str	r4, [sp, #4]
  94:Src/sdio.c    ****     __HAL_RCC_GPIOD_CLK_ENABLE();
 176              		.loc 1 94 5 view .LVU41
 177 0038 1A6B     		ldr	r2, [r3, #48]
 178 003a 42F00402 		orr	r2, r2, #4
 179 003e 1A63     		str	r2, [r3, #48]
  94:Src/sdio.c    ****     __HAL_RCC_GPIOD_CLK_ENABLE();
 180              		.loc 1 94 5 view .LVU42
 181 0040 1A6B     		ldr	r2, [r3, #48]
 182 0042 02F00402 		and	r2, r2, #4
 183 0046 0192     		str	r2, [sp, #4]
  94:Src/sdio.c    ****     __HAL_RCC_GPIOD_CLK_ENABLE();
 184              		.loc 1 94 5 view .LVU43
 185 0048 019A     		ldr	r2, [sp, #4]
 186              	.LBE3:
  94:Src/sdio.c    ****     __HAL_RCC_GPIOD_CLK_ENABLE();
 187              		.loc 1 94 5 view .LVU44
  95:Src/sdio.c    ****     /**SDIO GPIO Configuration    
 188              		.loc 1 95 5 view .LVU45
 189              	.LBB4:
  95:Src/sdio.c    ****     /**SDIO GPIO Configuration    
 190              		.loc 1 95 5 view .LVU46
 191 004a 0294     		str	r4, [sp, #8]
  95:Src/sdio.c    ****     /**SDIO GPIO Configuration    
 192              		.loc 1 95 5 view .LVU47
 193 004c 1A6B     		ldr	r2, [r3, #48]
 194 004e 42F00802 		orr	r2, r2, #8
 195 0052 1A63     		str	r2, [r3, #48]
  95:Src/sdio.c    ****     /**SDIO GPIO Configuration    
 196              		.loc 1 95 5 view .LVU48
 197 0054 1B6B     		ldr	r3, [r3, #48]
 198 0056 03F00803 		and	r3, r3, #8
 199 005a 0293     		str	r3, [sp, #8]
  95:Src/sdio.c    ****     /**SDIO GPIO Configuration    
 200              		.loc 1 95 5 view .LVU49
 201 005c 029B     		ldr	r3, [sp, #8]
 202              	.LBE4:
  95:Src/sdio.c    ****     /**SDIO GPIO Configuration    
ARM GAS  C:\Users\gx\AppData\Local\Temp\cc1Gf6cM.s 			page 7


 203              		.loc 1 95 5 view .LVU50
 104:Src/sdio.c    ****                           |GPIO_PIN_12;
 204              		.loc 1 104 5 view .LVU51
 104:Src/sdio.c    ****                           |GPIO_PIN_12;
 205              		.loc 1 104 25 is_stmt 0 view .LVU52
 206 005e 4FF4F853 		mov	r3, #7936
 207 0062 0393     		str	r3, [sp, #12]
 106:Src/sdio.c    ****     GPIO_InitStruct.Pull = GPIO_NOPULL;
 208              		.loc 1 106 5 is_stmt 1 view .LVU53
 106:Src/sdio.c    ****     GPIO_InitStruct.Pull = GPIO_NOPULL;
 209              		.loc 1 106 26 is_stmt 0 view .LVU54
 210 0064 0227     		movs	r7, #2
 211 0066 0497     		str	r7, [sp, #16]
 107:Src/sdio.c    ****     GPIO_InitStruct.Speed = GPIO_SPEED_FREQ_VERY_HIGH;
 212              		.loc 1 107 5 is_stmt 1 view .LVU55
 107:Src/sdio.c    ****     GPIO_InitStruct.Speed = GPIO_SPEED_FREQ_VERY_HIGH;
 213              		.loc 1 107 26 is_stmt 0 view .LVU56
 214 0068 0594     		str	r4, [sp, #20]
 108:Src/sdio.c    ****     GPIO_InitStruct.Alternate = GPIO_AF12_SDIO;
 215              		.loc 1 108 5 is_stmt 1 view .LVU57
 108:Src/sdio.c    ****     GPIO_InitStruct.Alternate = GPIO_AF12_SDIO;
 216              		.loc 1 108 27 is_stmt 0 view .LVU58
 217 006a 0326     		movs	r6, #3
 218 006c 0696     		str	r6, [sp, #24]
 109:Src/sdio.c    ****     HAL_GPIO_Init(GPIOC, &GPIO_InitStruct);
 219              		.loc 1 109 5 is_stmt 1 view .LVU59
 109:Src/sdio.c    ****     HAL_GPIO_Init(GPIOC, &GPIO_InitStruct);
 220              		.loc 1 109 31 is_stmt 0 view .LVU60
 221 006e 0C25     		movs	r5, #12
 222 0070 0795     		str	r5, [sp, #28]
 110:Src/sdio.c    **** 
 223              		.loc 1 110 5 is_stmt 1 view .LVU61
 224 0072 0DEB0501 		add	r1, sp, r5
 225 0076 0848     		ldr	r0, .L13+4
 226              	.LVL7:
 110:Src/sdio.c    **** 
 227              		.loc 1 110 5 is_stmt 0 view .LVU62
 228 0078 FFF7FEFF 		bl	HAL_GPIO_Init
 229              	.LVL8:
 112:Src/sdio.c    ****     GPIO_InitStruct.Mode = GPIO_MODE_AF_PP;
 230              		.loc 1 112 5 is_stmt 1 view .LVU63
 112:Src/sdio.c    ****     GPIO_InitStruct.Mode = GPIO_MODE_AF_PP;
 231              		.loc 1 112 25 is_stmt 0 view .LVU64
 232 007c 0423     		movs	r3, #4
 233 007e 0393     		str	r3, [sp, #12]
 113:Src/sdio.c    ****     GPIO_InitStruct.Pull = GPIO_NOPULL;
 234              		.loc 1 113 5 is_stmt 1 view .LVU65
 113:Src/sdio.c    ****     GPIO_InitStruct.Pull = GPIO_NOPULL;
 235              		.loc 1 113 26 is_stmt 0 view .LVU66
 236 0080 0497     		str	r7, [sp, #16]
 114:Src/sdio.c    ****     GPIO_InitStruct.Speed = GPIO_SPEED_FREQ_VERY_HIGH;
 237              		.loc 1 114 5 is_stmt 1 view .LVU67
 114:Src/sdio.c    ****     GPIO_InitStruct.Speed = GPIO_SPEED_FREQ_VERY_HIGH;
 238              		.loc 1 114 26 is_stmt 0 view .LVU68
 239 0082 0594     		str	r4, [sp, #20]
 115:Src/sdio.c    ****     GPIO_InitStruct.Alternate = GPIO_AF12_SDIO;
 240              		.loc 1 115 5 is_stmt 1 view .LVU69
ARM GAS  C:\Users\gx\AppData\Local\Temp\cc1Gf6cM.s 			page 8


 115:Src/sdio.c    ****     GPIO_InitStruct.Alternate = GPIO_AF12_SDIO;
 241              		.loc 1 115 27 is_stmt 0 view .LVU70
 242 0084 0696     		str	r6, [sp, #24]
 116:Src/sdio.c    ****     HAL_GPIO_Init(GPIOD, &GPIO_InitStruct);
 243              		.loc 1 116 5 is_stmt 1 view .LVU71
 116:Src/sdio.c    ****     HAL_GPIO_Init(GPIOD, &GPIO_InitStruct);
 244              		.loc 1 116 31 is_stmt 0 view .LVU72
 245 0086 0795     		str	r5, [sp, #28]
 117:Src/sdio.c    **** 
 246              		.loc 1 117 5 is_stmt 1 view .LVU73
 247 0088 0DEB0501 		add	r1, sp, r5
 248 008c 0348     		ldr	r0, .L13+8
 249 008e FFF7FEFF 		bl	HAL_GPIO_Init
 250              	.LVL9:
 251              		.loc 1 123 1 is_stmt 0 view .LVU74
 252 0092 C1E7     		b	.L9
 253              	.L14:
 254              		.align	2
 255              	.L13:
 256 0094 002C0140 		.word	1073818624
 257 0098 00080240 		.word	1073874944
 258 009c 000C0240 		.word	1073875968
 259              		.cfi_endproc
 260              	.LFE127:
 262              		.section	.text.HAL_SD_MspDeInit,"ax",%progbits
 263              		.align	1
 264              		.global	HAL_SD_MspDeInit
 265              		.syntax unified
 266              		.thumb
 267              		.thumb_func
 268              		.fpu fpv4-sp-d16
 270              	HAL_SD_MspDeInit:
 271              	.LVL10:
 272              	.LFB128:
 124:Src/sdio.c    **** 
 125:Src/sdio.c    **** void HAL_SD_MspDeInit(SD_HandleTypeDef* sdHandle)
 126:Src/sdio.c    **** {
 273              		.loc 1 126 1 is_stmt 1 view -0
 274              		.cfi_startproc
 275              		@ args = 0, pretend = 0, frame = 0
 276              		@ frame_needed = 0, uses_anonymous_args = 0
 277              		.loc 1 126 1 is_stmt 0 view .LVU76
 278 0000 08B5     		push	{r3, lr}
 279              	.LCFI5:
 280              		.cfi_def_cfa_offset 8
 281              		.cfi_offset 3, -8
 282              		.cfi_offset 14, -4
 127:Src/sdio.c    **** 
 128:Src/sdio.c    ****   if(sdHandle->Instance==SDIO)
 283              		.loc 1 128 3 is_stmt 1 view .LVU77
 284              		.loc 1 128 14 is_stmt 0 view .LVU78
 285 0002 0268     		ldr	r2, [r0]
 286              		.loc 1 128 5 view .LVU79
 287 0004 094B     		ldr	r3, .L19
 288 0006 9A42     		cmp	r2, r3
 289 0008 00D0     		beq	.L18
 290              	.LVL11:
ARM GAS  C:\Users\gx\AppData\Local\Temp\cc1Gf6cM.s 			page 9


 291              	.L15:
 129:Src/sdio.c    ****   {
 130:Src/sdio.c    ****   /* USER CODE BEGIN SDIO_MspDeInit 0 */
 131:Src/sdio.c    **** 
 132:Src/sdio.c    ****   /* USER CODE END SDIO_MspDeInit 0 */
 133:Src/sdio.c    ****     /* Peripheral clock disable */
 134:Src/sdio.c    ****     __HAL_RCC_SDIO_CLK_DISABLE();
 135:Src/sdio.c    ****   
 136:Src/sdio.c    ****     /**SDIO GPIO Configuration    
 137:Src/sdio.c    ****     PC8     ------> SDIO_D0
 138:Src/sdio.c    ****     PC9     ------> SDIO_D1
 139:Src/sdio.c    ****     PC10     ------> SDIO_D2
 140:Src/sdio.c    ****     PC11     ------> SDIO_D3
 141:Src/sdio.c    ****     PC12     ------> SDIO_CK
 142:Src/sdio.c    ****     PD2     ------> SDIO_CMD 
 143:Src/sdio.c    ****     */
 144:Src/sdio.c    ****     HAL_GPIO_DeInit(GPIOC, GPIO_PIN_8|GPIO_PIN_9|GPIO_PIN_10|GPIO_PIN_11 
 145:Src/sdio.c    ****                           |GPIO_PIN_12);
 146:Src/sdio.c    **** 
 147:Src/sdio.c    ****     HAL_GPIO_DeInit(GPIOD, GPIO_PIN_2);
 148:Src/sdio.c    **** 
 149:Src/sdio.c    ****   /* USER CODE BEGIN SDIO_MspDeInit 1 */
 150:Src/sdio.c    **** 
 151:Src/sdio.c    ****   /* USER CODE END SDIO_MspDeInit 1 */
 152:Src/sdio.c    ****   }
 153:Src/sdio.c    **** } 
 292              		.loc 1 153 1 view .LVU80
 293 000a 08BD     		pop	{r3, pc}
 294              	.LVL12:
 295              	.L18:
 134:Src/sdio.c    ****   
 296              		.loc 1 134 5 is_stmt 1 view .LVU81
 297 000c 084A     		ldr	r2, .L19+4
 298 000e 536C     		ldr	r3, [r2, #68]
 299 0010 23F40063 		bic	r3, r3, #2048
 300 0014 5364     		str	r3, [r2, #68]
 144:Src/sdio.c    ****                           |GPIO_PIN_12);
 301              		.loc 1 144 5 view .LVU82
 302 0016 4FF4F851 		mov	r1, #7936
 303 001a 0648     		ldr	r0, .L19+8
 304              	.LVL13:
 144:Src/sdio.c    ****                           |GPIO_PIN_12);
 305              		.loc 1 144 5 is_stmt 0 view .LVU83
 306 001c FFF7FEFF 		bl	HAL_GPIO_DeInit
 307              	.LVL14:
 147:Src/sdio.c    **** 
 308              		.loc 1 147 5 is_stmt 1 view .LVU84
 309 0020 0421     		movs	r1, #4
 310 0022 0548     		ldr	r0, .L19+12
 311 0024 FFF7FEFF 		bl	HAL_GPIO_DeInit
 312              	.LVL15:
 313              		.loc 1 153 1 is_stmt 0 view .LVU85
 314 0028 EFE7     		b	.L15
 315              	.L20:
 316 002a 00BF     		.align	2
 317              	.L19:
 318 002c 002C0140 		.word	1073818624
ARM GAS  C:\Users\gx\AppData\Local\Temp\cc1Gf6cM.s 			page 10


 319 0030 00380240 		.word	1073887232
 320 0034 00080240 		.word	1073874944
 321 0038 000C0240 		.word	1073875968
 322              		.cfi_endproc
 323              	.LFE128:
 325              		.comm	hsd,132,4
 326              		.text
 327              	.Letext0:
 328              		.file 2 "c:\\program files (x86)\\gnu arm embedded toolchain\\9 2020-q2-update\\arm-none-eabi\\inc
 329              		.file 3 "c:\\program files (x86)\\gnu arm embedded toolchain\\9 2020-q2-update\\arm-none-eabi\\inc
 330              		.file 4 "Drivers/CMSIS/Include/core_cm4.h"
 331              		.file 5 "Drivers/CMSIS/Device/ST/STM32F4xx/Include/system_stm32f4xx.h"
 332              		.file 6 "Drivers/CMSIS/Device/ST/STM32F4xx/Include/stm32f407xx.h"
 333              		.file 7 "c:\\program files (x86)\\gnu arm embedded toolchain\\9 2020-q2-update\\lib\\gcc\\arm-none
 334              		.file 8 "c:\\program files (x86)\\gnu arm embedded toolchain\\9 2020-q2-update\\arm-none-eabi\\inc
 335              		.file 9 "c:\\program files (x86)\\gnu arm embedded toolchain\\9 2020-q2-update\\arm-none-eabi\\inc
 336              		.file 10 "c:\\program files (x86)\\gnu arm embedded toolchain\\9 2020-q2-update\\arm-none-eabi\\in
 337              		.file 11 "Drivers/STM32F4xx_HAL_Driver/Inc/stm32f4xx_hal_def.h"
 338              		.file 12 "Drivers/STM32F4xx_HAL_Driver/Inc/stm32f4xx_hal_gpio.h"
 339              		.file 13 "Drivers/STM32F4xx_HAL_Driver/Inc/stm32f4xx_hal_dma.h"
 340              		.file 14 "Drivers/STM32F4xx_HAL_Driver/Inc/stm32f4xx_ll_sdmmc.h"
 341              		.file 15 "Drivers/STM32F4xx_HAL_Driver/Inc/stm32f4xx_hal_sd.h"
 342              		.file 16 "Inc/main.h"
 343              		.file 17 "Inc/sdio.h"
ARM GAS  C:\Users\gx\AppData\Local\Temp\cc1Gf6cM.s 			page 11

