ARM GAS  C:\Users\gx\AppData\Local\Temp\ccXSZ03x.s 			page 1


   1              		.cpu cortex-m4
   2              		.eabi_attribute 27, 1
   3              		.eabi_attribute 28, 1
   4              		.eabi_attribute 20, 1
   5              		.eabi_attribute 21, 1
   6              		.eabi_attribute 23, 3
   7              		.eabi_attribute 24, 1
   8              		.eabi_attribute 25, 1
   9              		.eabi_attribute 26, 1
  10              		.eabi_attribute 30, 1
  11              		.eabi_attribute 34, 1
  12              		.eabi_attribute 18, 4
  13              		.file	"stm32f4xx_ll_usb.c"
  14              		.text
  15              	.Ltext0:
  16              		.cfi_sections	.debug_frame
  17              		.section	.text.USB_HC_StartXfer,"ax",%progbits
  18              		.align	1
  19              		.global	USB_HC_StartXfer
  20              		.arch armv7e-m
  21              		.syntax unified
  22              		.thumb
  23              		.thumb_func
  24              		.fpu fpv4-sp-d16
  26              	USB_HC_StartXfer:
  27              	.LVL0:
  28              	.LFB166:
  29              		.file 1 "Drivers/STM32F4xx_HAL_Driver/Src/stm32f4xx_ll_usb.c"
   1:Drivers/STM32F4xx_HAL_Driver/Src/stm32f4xx_ll_usb.c **** /**
   2:Drivers/STM32F4xx_HAL_Driver/Src/stm32f4xx_ll_usb.c ****   ******************************************************************************
   3:Drivers/STM32F4xx_HAL_Driver/Src/stm32f4xx_ll_usb.c ****   * @file    stm32f4xx_ll_usb.c
   4:Drivers/STM32F4xx_HAL_Driver/Src/stm32f4xx_ll_usb.c ****   * @author  MCD Application Team
   5:Drivers/STM32F4xx_HAL_Driver/Src/stm32f4xx_ll_usb.c ****   * @brief   USB Low Layer HAL module driver.
   6:Drivers/STM32F4xx_HAL_Driver/Src/stm32f4xx_ll_usb.c ****   *    
   7:Drivers/STM32F4xx_HAL_Driver/Src/stm32f4xx_ll_usb.c ****   *          This file provides firmware functions to manage the following 
   8:Drivers/STM32F4xx_HAL_Driver/Src/stm32f4xx_ll_usb.c ****   *          functionalities of the USB Peripheral Controller:
   9:Drivers/STM32F4xx_HAL_Driver/Src/stm32f4xx_ll_usb.c ****   *           + Initialization/de-initialization functions
  10:Drivers/STM32F4xx_HAL_Driver/Src/stm32f4xx_ll_usb.c ****   *           + I/O operation functions
  11:Drivers/STM32F4xx_HAL_Driver/Src/stm32f4xx_ll_usb.c ****   *           + Peripheral Control functions 
  12:Drivers/STM32F4xx_HAL_Driver/Src/stm32f4xx_ll_usb.c ****   *           + Peripheral State functions
  13:Drivers/STM32F4xx_HAL_Driver/Src/stm32f4xx_ll_usb.c ****   *         
  14:Drivers/STM32F4xx_HAL_Driver/Src/stm32f4xx_ll_usb.c ****   @verbatim
  15:Drivers/STM32F4xx_HAL_Driver/Src/stm32f4xx_ll_usb.c ****   ==============================================================================
  16:Drivers/STM32F4xx_HAL_Driver/Src/stm32f4xx_ll_usb.c ****                     ##### How to use this driver #####
  17:Drivers/STM32F4xx_HAL_Driver/Src/stm32f4xx_ll_usb.c ****   ==============================================================================
  18:Drivers/STM32F4xx_HAL_Driver/Src/stm32f4xx_ll_usb.c ****     [..]
  19:Drivers/STM32F4xx_HAL_Driver/Src/stm32f4xx_ll_usb.c ****       (#) Fill parameters of Init structure in USB_OTG_CfgTypeDef structure.
  20:Drivers/STM32F4xx_HAL_Driver/Src/stm32f4xx_ll_usb.c ****   
  21:Drivers/STM32F4xx_HAL_Driver/Src/stm32f4xx_ll_usb.c ****       (#) Call USB_CoreInit() API to initialize the USB Core peripheral.
  22:Drivers/STM32F4xx_HAL_Driver/Src/stm32f4xx_ll_usb.c **** 
  23:Drivers/STM32F4xx_HAL_Driver/Src/stm32f4xx_ll_usb.c ****       (#) The upper HAL HCD/PCD driver will call the right routines for its internal processes.
  24:Drivers/STM32F4xx_HAL_Driver/Src/stm32f4xx_ll_usb.c **** 
  25:Drivers/STM32F4xx_HAL_Driver/Src/stm32f4xx_ll_usb.c ****   @endverbatim
  26:Drivers/STM32F4xx_HAL_Driver/Src/stm32f4xx_ll_usb.c ****   ******************************************************************************
  27:Drivers/STM32F4xx_HAL_Driver/Src/stm32f4xx_ll_usb.c ****   * @attention
  28:Drivers/STM32F4xx_HAL_Driver/Src/stm32f4xx_ll_usb.c ****   *
  29:Drivers/STM32F4xx_HAL_Driver/Src/stm32f4xx_ll_usb.c ****   * <h2><center>&copy; COPYRIGHT(c) 2017 STMicroelectronics</center></h2>
ARM GAS  C:\Users\gx\AppData\Local\Temp\ccXSZ03x.s 			page 2


  30:Drivers/STM32F4xx_HAL_Driver/Src/stm32f4xx_ll_usb.c ****   *
  31:Drivers/STM32F4xx_HAL_Driver/Src/stm32f4xx_ll_usb.c ****   * Redistribution and use in source and binary forms, with or without modification,
  32:Drivers/STM32F4xx_HAL_Driver/Src/stm32f4xx_ll_usb.c ****   * are permitted provided that the following conditions are met:
  33:Drivers/STM32F4xx_HAL_Driver/Src/stm32f4xx_ll_usb.c ****   *   1. Redistributions of source code must retain the above copyright notice,
  34:Drivers/STM32F4xx_HAL_Driver/Src/stm32f4xx_ll_usb.c ****   *      this list of conditions and the following disclaimer.
  35:Drivers/STM32F4xx_HAL_Driver/Src/stm32f4xx_ll_usb.c ****   *   2. Redistributions in binary form must reproduce the above copyright notice,
  36:Drivers/STM32F4xx_HAL_Driver/Src/stm32f4xx_ll_usb.c ****   *      this list of conditions and the following disclaimer in the documentation
  37:Drivers/STM32F4xx_HAL_Driver/Src/stm32f4xx_ll_usb.c ****   *      and/or other materials provided with the distribution.
  38:Drivers/STM32F4xx_HAL_Driver/Src/stm32f4xx_ll_usb.c ****   *   3. Neither the name of STMicroelectronics nor the names of its contributors
  39:Drivers/STM32F4xx_HAL_Driver/Src/stm32f4xx_ll_usb.c ****   *      may be used to endorse or promote products derived from this software
  40:Drivers/STM32F4xx_HAL_Driver/Src/stm32f4xx_ll_usb.c ****   *      without specific prior written permission.
  41:Drivers/STM32F4xx_HAL_Driver/Src/stm32f4xx_ll_usb.c ****   *
  42:Drivers/STM32F4xx_HAL_Driver/Src/stm32f4xx_ll_usb.c ****   * THIS SOFTWARE IS PROVIDED BY THE COPYRIGHT HOLDERS AND CONTRIBUTORS "AS IS"
  43:Drivers/STM32F4xx_HAL_Driver/Src/stm32f4xx_ll_usb.c ****   * AND ANY EXPRESS OR IMPLIED WARRANTIES, INCLUDING, BUT NOT LIMITED TO, THE
  44:Drivers/STM32F4xx_HAL_Driver/Src/stm32f4xx_ll_usb.c ****   * IMPLIED WARRANTIES OF MERCHANTABILITY AND FITNESS FOR A PARTICULAR PURPOSE ARE
  45:Drivers/STM32F4xx_HAL_Driver/Src/stm32f4xx_ll_usb.c ****   * DISCLAIMED. IN NO EVENT SHALL THE COPYRIGHT HOLDER OR CONTRIBUTORS BE LIABLE
  46:Drivers/STM32F4xx_HAL_Driver/Src/stm32f4xx_ll_usb.c ****   * FOR ANY DIRECT, INDIRECT, INCIDENTAL, SPECIAL, EXEMPLARY, OR CONSEQUENTIAL
  47:Drivers/STM32F4xx_HAL_Driver/Src/stm32f4xx_ll_usb.c ****   * DAMAGES (INCLUDING, BUT NOT LIMITED TO, PROCUREMENT OF SUBSTITUTE GOODS OR
  48:Drivers/STM32F4xx_HAL_Driver/Src/stm32f4xx_ll_usb.c ****   * SERVICES; LOSS OF USE, DATA, OR PROFITS; OR BUSINESS INTERRUPTION) HOWEVER
  49:Drivers/STM32F4xx_HAL_Driver/Src/stm32f4xx_ll_usb.c ****   * CAUSED AND ON ANY THEORY OF LIABILITY, WHETHER IN CONTRACT, STRICT LIABILITY,
  50:Drivers/STM32F4xx_HAL_Driver/Src/stm32f4xx_ll_usb.c ****   * OR TORT (INCLUDING NEGLIGENCE OR OTHERWISE) ARISING IN ANY WAY OUT OF THE USE
  51:Drivers/STM32F4xx_HAL_Driver/Src/stm32f4xx_ll_usb.c ****   * OF THIS SOFTWARE, EVEN IF ADVISED OF THE POSSIBILITY OF SUCH DAMAGE.
  52:Drivers/STM32F4xx_HAL_Driver/Src/stm32f4xx_ll_usb.c ****   *
  53:Drivers/STM32F4xx_HAL_Driver/Src/stm32f4xx_ll_usb.c ****   ******************************************************************************
  54:Drivers/STM32F4xx_HAL_Driver/Src/stm32f4xx_ll_usb.c ****   */ 
  55:Drivers/STM32F4xx_HAL_Driver/Src/stm32f4xx_ll_usb.c **** 
  56:Drivers/STM32F4xx_HAL_Driver/Src/stm32f4xx_ll_usb.c **** /* Includes ------------------------------------------------------------------*/
  57:Drivers/STM32F4xx_HAL_Driver/Src/stm32f4xx_ll_usb.c **** #include "stm32f4xx_hal.h"
  58:Drivers/STM32F4xx_HAL_Driver/Src/stm32f4xx_ll_usb.c **** 
  59:Drivers/STM32F4xx_HAL_Driver/Src/stm32f4xx_ll_usb.c **** /** @addtogroup STM32F4xx_LL_USB_DRIVER
  60:Drivers/STM32F4xx_HAL_Driver/Src/stm32f4xx_ll_usb.c ****   * @{
  61:Drivers/STM32F4xx_HAL_Driver/Src/stm32f4xx_ll_usb.c ****   */
  62:Drivers/STM32F4xx_HAL_Driver/Src/stm32f4xx_ll_usb.c **** 
  63:Drivers/STM32F4xx_HAL_Driver/Src/stm32f4xx_ll_usb.c **** #if defined(HAL_PCD_MODULE_ENABLED) || defined(HAL_HCD_MODULE_ENABLED)
  64:Drivers/STM32F4xx_HAL_Driver/Src/stm32f4xx_ll_usb.c **** #if defined(STM32F405xx) || defined(STM32F415xx) || defined(STM32F407xx) || defined(STM32F417xx) ||
  65:Drivers/STM32F4xx_HAL_Driver/Src/stm32f4xx_ll_usb.c ****     defined(STM32F427xx) || defined(STM32F437xx) || defined(STM32F429xx) || defined(STM32F439xx) ||
  66:Drivers/STM32F4xx_HAL_Driver/Src/stm32f4xx_ll_usb.c ****     defined(STM32F401xC) || defined(STM32F401xE) || defined(STM32F411xE) || defined(STM32F446xx) ||
  67:Drivers/STM32F4xx_HAL_Driver/Src/stm32f4xx_ll_usb.c ****     defined(STM32F469xx) || defined(STM32F479xx) || defined(STM32F412Zx) || defined(STM32F412Vx) ||
  68:Drivers/STM32F4xx_HAL_Driver/Src/stm32f4xx_ll_usb.c ****     defined(STM32F412Rx) || defined(STM32F412Cx) || defined(STM32F413xx) || defined(STM32F423xx)
  69:Drivers/STM32F4xx_HAL_Driver/Src/stm32f4xx_ll_usb.c **** /* Private typedef -----------------------------------------------------------*/
  70:Drivers/STM32F4xx_HAL_Driver/Src/stm32f4xx_ll_usb.c **** /* Private define ------------------------------------------------------------*/
  71:Drivers/STM32F4xx_HAL_Driver/Src/stm32f4xx_ll_usb.c **** /* Private macro -------------------------------------------------------------*/
  72:Drivers/STM32F4xx_HAL_Driver/Src/stm32f4xx_ll_usb.c **** /* Private variables ---------------------------------------------------------*/
  73:Drivers/STM32F4xx_HAL_Driver/Src/stm32f4xx_ll_usb.c **** /* Private function prototypes -----------------------------------------------*/
  74:Drivers/STM32F4xx_HAL_Driver/Src/stm32f4xx_ll_usb.c **** /* Private functions ---------------------------------------------------------*/
  75:Drivers/STM32F4xx_HAL_Driver/Src/stm32f4xx_ll_usb.c **** static HAL_StatusTypeDef USB_CoreReset(USB_OTG_GlobalTypeDef *USBx);
  76:Drivers/STM32F4xx_HAL_Driver/Src/stm32f4xx_ll_usb.c **** 
  77:Drivers/STM32F4xx_HAL_Driver/Src/stm32f4xx_ll_usb.c **** /* Exported functions --------------------------------------------------------*/
  78:Drivers/STM32F4xx_HAL_Driver/Src/stm32f4xx_ll_usb.c **** 
  79:Drivers/STM32F4xx_HAL_Driver/Src/stm32f4xx_ll_usb.c **** /** @defgroup LL_USB_Exported_Functions USB Low Layer Exported Functions
  80:Drivers/STM32F4xx_HAL_Driver/Src/stm32f4xx_ll_usb.c ****   * @{
  81:Drivers/STM32F4xx_HAL_Driver/Src/stm32f4xx_ll_usb.c ****   */
  82:Drivers/STM32F4xx_HAL_Driver/Src/stm32f4xx_ll_usb.c **** 
  83:Drivers/STM32F4xx_HAL_Driver/Src/stm32f4xx_ll_usb.c **** /** @defgroup LL_USB_Group1 Initialization/de-initialization functions 
  84:Drivers/STM32F4xx_HAL_Driver/Src/stm32f4xx_ll_usb.c ****  *  @brief    Initialization and Configuration functions 
  85:Drivers/STM32F4xx_HAL_Driver/Src/stm32f4xx_ll_usb.c ****  *
  86:Drivers/STM32F4xx_HAL_Driver/Src/stm32f4xx_ll_usb.c **** @verbatim    
ARM GAS  C:\Users\gx\AppData\Local\Temp\ccXSZ03x.s 			page 3


  87:Drivers/STM32F4xx_HAL_Driver/Src/stm32f4xx_ll_usb.c ****  ===============================================================================
  88:Drivers/STM32F4xx_HAL_Driver/Src/stm32f4xx_ll_usb.c ****               ##### Initialization/de-initialization functions #####
  89:Drivers/STM32F4xx_HAL_Driver/Src/stm32f4xx_ll_usb.c ****  ===============================================================================
  90:Drivers/STM32F4xx_HAL_Driver/Src/stm32f4xx_ll_usb.c ****     [..]  This section provides functions allowing to:
  91:Drivers/STM32F4xx_HAL_Driver/Src/stm32f4xx_ll_usb.c ****  
  92:Drivers/STM32F4xx_HAL_Driver/Src/stm32f4xx_ll_usb.c **** @endverbatim
  93:Drivers/STM32F4xx_HAL_Driver/Src/stm32f4xx_ll_usb.c ****   * @{
  94:Drivers/STM32F4xx_HAL_Driver/Src/stm32f4xx_ll_usb.c ****   */
  95:Drivers/STM32F4xx_HAL_Driver/Src/stm32f4xx_ll_usb.c **** 
  96:Drivers/STM32F4xx_HAL_Driver/Src/stm32f4xx_ll_usb.c **** /**
  97:Drivers/STM32F4xx_HAL_Driver/Src/stm32f4xx_ll_usb.c ****   * @brief  Initializes the USB Core
  98:Drivers/STM32F4xx_HAL_Driver/Src/stm32f4xx_ll_usb.c ****   * @param  USBx USB Instance
  99:Drivers/STM32F4xx_HAL_Driver/Src/stm32f4xx_ll_usb.c ****   * @param  cfg  pointer to a USB_OTG_CfgTypeDef structure that contains
 100:Drivers/STM32F4xx_HAL_Driver/Src/stm32f4xx_ll_usb.c ****   *         the configuration information for the specified USBx peripheral.
 101:Drivers/STM32F4xx_HAL_Driver/Src/stm32f4xx_ll_usb.c ****   * @retval HAL status
 102:Drivers/STM32F4xx_HAL_Driver/Src/stm32f4xx_ll_usb.c ****   */
 103:Drivers/STM32F4xx_HAL_Driver/Src/stm32f4xx_ll_usb.c **** HAL_StatusTypeDef USB_CoreInit(USB_OTG_GlobalTypeDef *USBx, USB_OTG_CfgTypeDef cfg)
 104:Drivers/STM32F4xx_HAL_Driver/Src/stm32f4xx_ll_usb.c **** {
 105:Drivers/STM32F4xx_HAL_Driver/Src/stm32f4xx_ll_usb.c ****   if (cfg.phy_itface == USB_OTG_ULPI_PHY)
 106:Drivers/STM32F4xx_HAL_Driver/Src/stm32f4xx_ll_usb.c ****   {
 107:Drivers/STM32F4xx_HAL_Driver/Src/stm32f4xx_ll_usb.c ****     
 108:Drivers/STM32F4xx_HAL_Driver/Src/stm32f4xx_ll_usb.c ****     USBx->GCCFG &= ~(USB_OTG_GCCFG_PWRDWN);
 109:Drivers/STM32F4xx_HAL_Driver/Src/stm32f4xx_ll_usb.c **** 
 110:Drivers/STM32F4xx_HAL_Driver/Src/stm32f4xx_ll_usb.c ****     /* Init The ULPI Interface */
 111:Drivers/STM32F4xx_HAL_Driver/Src/stm32f4xx_ll_usb.c ****     USBx->GUSBCFG &= ~(USB_OTG_GUSBCFG_TSDPS | USB_OTG_GUSBCFG_ULPIFSLS | USB_OTG_GUSBCFG_PHYSEL);
 112:Drivers/STM32F4xx_HAL_Driver/Src/stm32f4xx_ll_usb.c ****    
 113:Drivers/STM32F4xx_HAL_Driver/Src/stm32f4xx_ll_usb.c ****     /* Select vbus source */
 114:Drivers/STM32F4xx_HAL_Driver/Src/stm32f4xx_ll_usb.c ****     USBx->GUSBCFG &= ~(USB_OTG_GUSBCFG_ULPIEVBUSD | USB_OTG_GUSBCFG_ULPIEVBUSI);
 115:Drivers/STM32F4xx_HAL_Driver/Src/stm32f4xx_ll_usb.c ****     if(cfg.use_external_vbus == 1U)
 116:Drivers/STM32F4xx_HAL_Driver/Src/stm32f4xx_ll_usb.c ****     {
 117:Drivers/STM32F4xx_HAL_Driver/Src/stm32f4xx_ll_usb.c ****       USBx->GUSBCFG |= USB_OTG_GUSBCFG_ULPIEVBUSD;
 118:Drivers/STM32F4xx_HAL_Driver/Src/stm32f4xx_ll_usb.c ****     }
 119:Drivers/STM32F4xx_HAL_Driver/Src/stm32f4xx_ll_usb.c ****     /* Reset after a PHY select  */
 120:Drivers/STM32F4xx_HAL_Driver/Src/stm32f4xx_ll_usb.c ****     USB_CoreReset(USBx); 
 121:Drivers/STM32F4xx_HAL_Driver/Src/stm32f4xx_ll_usb.c ****   }
 122:Drivers/STM32F4xx_HAL_Driver/Src/stm32f4xx_ll_usb.c ****   else /* FS interface (embedded Phy) */
 123:Drivers/STM32F4xx_HAL_Driver/Src/stm32f4xx_ll_usb.c ****   {
 124:Drivers/STM32F4xx_HAL_Driver/Src/stm32f4xx_ll_usb.c ****     /* Select FS Embedded PHY */
 125:Drivers/STM32F4xx_HAL_Driver/Src/stm32f4xx_ll_usb.c ****     USBx->GUSBCFG |= USB_OTG_GUSBCFG_PHYSEL;
 126:Drivers/STM32F4xx_HAL_Driver/Src/stm32f4xx_ll_usb.c ****     
 127:Drivers/STM32F4xx_HAL_Driver/Src/stm32f4xx_ll_usb.c ****     /* Reset after a PHY select and set Host mode */
 128:Drivers/STM32F4xx_HAL_Driver/Src/stm32f4xx_ll_usb.c ****     USB_CoreReset(USBx);
 129:Drivers/STM32F4xx_HAL_Driver/Src/stm32f4xx_ll_usb.c ****     
 130:Drivers/STM32F4xx_HAL_Driver/Src/stm32f4xx_ll_usb.c ****     /* Deactivate the power down*/
 131:Drivers/STM32F4xx_HAL_Driver/Src/stm32f4xx_ll_usb.c ****     USBx->GCCFG = USB_OTG_GCCFG_PWRDWN;
 132:Drivers/STM32F4xx_HAL_Driver/Src/stm32f4xx_ll_usb.c ****   }
 133:Drivers/STM32F4xx_HAL_Driver/Src/stm32f4xx_ll_usb.c ****  
 134:Drivers/STM32F4xx_HAL_Driver/Src/stm32f4xx_ll_usb.c ****   if(cfg.dma_enable == ENABLE)
 135:Drivers/STM32F4xx_HAL_Driver/Src/stm32f4xx_ll_usb.c ****   {
 136:Drivers/STM32F4xx_HAL_Driver/Src/stm32f4xx_ll_usb.c ****     USBx->GAHBCFG |= USB_OTG_GAHBCFG_HBSTLEN_2;
 137:Drivers/STM32F4xx_HAL_Driver/Src/stm32f4xx_ll_usb.c ****     USBx->GAHBCFG |= USB_OTG_GAHBCFG_DMAEN;
 138:Drivers/STM32F4xx_HAL_Driver/Src/stm32f4xx_ll_usb.c ****   }  
 139:Drivers/STM32F4xx_HAL_Driver/Src/stm32f4xx_ll_usb.c **** 
 140:Drivers/STM32F4xx_HAL_Driver/Src/stm32f4xx_ll_usb.c ****   return HAL_OK;
 141:Drivers/STM32F4xx_HAL_Driver/Src/stm32f4xx_ll_usb.c **** }
 142:Drivers/STM32F4xx_HAL_Driver/Src/stm32f4xx_ll_usb.c **** 
 143:Drivers/STM32F4xx_HAL_Driver/Src/stm32f4xx_ll_usb.c **** /**
ARM GAS  C:\Users\gx\AppData\Local\Temp\ccXSZ03x.s 			page 4


 144:Drivers/STM32F4xx_HAL_Driver/Src/stm32f4xx_ll_usb.c ****   * @brief  USB_EnableGlobalInt
 145:Drivers/STM32F4xx_HAL_Driver/Src/stm32f4xx_ll_usb.c ****   *         Enables the controller's Global Int in the AHB Config reg
 146:Drivers/STM32F4xx_HAL_Driver/Src/stm32f4xx_ll_usb.c ****   * @param  USBx  Selected device
 147:Drivers/STM32F4xx_HAL_Driver/Src/stm32f4xx_ll_usb.c ****   * @retval HAL status
 148:Drivers/STM32F4xx_HAL_Driver/Src/stm32f4xx_ll_usb.c ****   */
 149:Drivers/STM32F4xx_HAL_Driver/Src/stm32f4xx_ll_usb.c **** HAL_StatusTypeDef USB_EnableGlobalInt(USB_OTG_GlobalTypeDef *USBx)
 150:Drivers/STM32F4xx_HAL_Driver/Src/stm32f4xx_ll_usb.c **** {
 151:Drivers/STM32F4xx_HAL_Driver/Src/stm32f4xx_ll_usb.c ****   USBx->GAHBCFG |= USB_OTG_GAHBCFG_GINT;
 152:Drivers/STM32F4xx_HAL_Driver/Src/stm32f4xx_ll_usb.c ****   return HAL_OK;
 153:Drivers/STM32F4xx_HAL_Driver/Src/stm32f4xx_ll_usb.c **** }
 154:Drivers/STM32F4xx_HAL_Driver/Src/stm32f4xx_ll_usb.c **** 
 155:Drivers/STM32F4xx_HAL_Driver/Src/stm32f4xx_ll_usb.c **** 
 156:Drivers/STM32F4xx_HAL_Driver/Src/stm32f4xx_ll_usb.c **** /**
 157:Drivers/STM32F4xx_HAL_Driver/Src/stm32f4xx_ll_usb.c ****   * @brief  USB_DisableGlobalInt
 158:Drivers/STM32F4xx_HAL_Driver/Src/stm32f4xx_ll_usb.c ****   *         Disable the controller's Global Int in the AHB Config reg
 159:Drivers/STM32F4xx_HAL_Driver/Src/stm32f4xx_ll_usb.c ****   * @param  USBx  Selected device
 160:Drivers/STM32F4xx_HAL_Driver/Src/stm32f4xx_ll_usb.c ****   * @retval HAL status
 161:Drivers/STM32F4xx_HAL_Driver/Src/stm32f4xx_ll_usb.c **** */
 162:Drivers/STM32F4xx_HAL_Driver/Src/stm32f4xx_ll_usb.c **** HAL_StatusTypeDef USB_DisableGlobalInt(USB_OTG_GlobalTypeDef *USBx)
 163:Drivers/STM32F4xx_HAL_Driver/Src/stm32f4xx_ll_usb.c **** {
 164:Drivers/STM32F4xx_HAL_Driver/Src/stm32f4xx_ll_usb.c ****   USBx->GAHBCFG &= ~USB_OTG_GAHBCFG_GINT;
 165:Drivers/STM32F4xx_HAL_Driver/Src/stm32f4xx_ll_usb.c ****   return HAL_OK;
 166:Drivers/STM32F4xx_HAL_Driver/Src/stm32f4xx_ll_usb.c **** }
 167:Drivers/STM32F4xx_HAL_Driver/Src/stm32f4xx_ll_usb.c ****    
 168:Drivers/STM32F4xx_HAL_Driver/Src/stm32f4xx_ll_usb.c **** /**
 169:Drivers/STM32F4xx_HAL_Driver/Src/stm32f4xx_ll_usb.c ****   * @brief  USB_SetCurrentMode : Set functional mode
 170:Drivers/STM32F4xx_HAL_Driver/Src/stm32f4xx_ll_usb.c ****   * @param  USBx  Selected device
 171:Drivers/STM32F4xx_HAL_Driver/Src/stm32f4xx_ll_usb.c ****   * @param  mode   current core mode
 172:Drivers/STM32F4xx_HAL_Driver/Src/stm32f4xx_ll_usb.c ****   *          This parameter can be one of these values:
 173:Drivers/STM32F4xx_HAL_Driver/Src/stm32f4xx_ll_usb.c ****   *            @arg USB_OTG_DEVICE_MODE: Peripheral mode
 174:Drivers/STM32F4xx_HAL_Driver/Src/stm32f4xx_ll_usb.c ****   *            @arg USB_OTG_HOST_MODE: Host mode
 175:Drivers/STM32F4xx_HAL_Driver/Src/stm32f4xx_ll_usb.c ****   *            @arg USB_OTG_DRD_MODE: Dual Role Device mode  
 176:Drivers/STM32F4xx_HAL_Driver/Src/stm32f4xx_ll_usb.c ****   * @retval HAL status
 177:Drivers/STM32F4xx_HAL_Driver/Src/stm32f4xx_ll_usb.c ****   */
 178:Drivers/STM32F4xx_HAL_Driver/Src/stm32f4xx_ll_usb.c **** HAL_StatusTypeDef USB_SetCurrentMode(USB_OTG_GlobalTypeDef *USBx , USB_OTG_ModeTypeDef mode)
 179:Drivers/STM32F4xx_HAL_Driver/Src/stm32f4xx_ll_usb.c **** {
 180:Drivers/STM32F4xx_HAL_Driver/Src/stm32f4xx_ll_usb.c ****   USBx->GUSBCFG &= ~(USB_OTG_GUSBCFG_FHMOD | USB_OTG_GUSBCFG_FDMOD); 
 181:Drivers/STM32F4xx_HAL_Driver/Src/stm32f4xx_ll_usb.c ****   
 182:Drivers/STM32F4xx_HAL_Driver/Src/stm32f4xx_ll_usb.c ****   if ( mode == USB_OTG_HOST_MODE)
 183:Drivers/STM32F4xx_HAL_Driver/Src/stm32f4xx_ll_usb.c ****   {
 184:Drivers/STM32F4xx_HAL_Driver/Src/stm32f4xx_ll_usb.c ****     USBx->GUSBCFG |= USB_OTG_GUSBCFG_FHMOD; 
 185:Drivers/STM32F4xx_HAL_Driver/Src/stm32f4xx_ll_usb.c ****   }
 186:Drivers/STM32F4xx_HAL_Driver/Src/stm32f4xx_ll_usb.c ****   else if ( mode == USB_OTG_DEVICE_MODE)
 187:Drivers/STM32F4xx_HAL_Driver/Src/stm32f4xx_ll_usb.c ****   {
 188:Drivers/STM32F4xx_HAL_Driver/Src/stm32f4xx_ll_usb.c ****     USBx->GUSBCFG |= USB_OTG_GUSBCFG_FDMOD; 
 189:Drivers/STM32F4xx_HAL_Driver/Src/stm32f4xx_ll_usb.c ****   }
 190:Drivers/STM32F4xx_HAL_Driver/Src/stm32f4xx_ll_usb.c ****   HAL_Delay(50U);
 191:Drivers/STM32F4xx_HAL_Driver/Src/stm32f4xx_ll_usb.c ****   
 192:Drivers/STM32F4xx_HAL_Driver/Src/stm32f4xx_ll_usb.c ****   return HAL_OK;
 193:Drivers/STM32F4xx_HAL_Driver/Src/stm32f4xx_ll_usb.c **** }
 194:Drivers/STM32F4xx_HAL_Driver/Src/stm32f4xx_ll_usb.c **** 
 195:Drivers/STM32F4xx_HAL_Driver/Src/stm32f4xx_ll_usb.c **** /**
 196:Drivers/STM32F4xx_HAL_Driver/Src/stm32f4xx_ll_usb.c ****   * @brief  USB_DevInit : Initializes the USB_OTG controller registers 
 197:Drivers/STM32F4xx_HAL_Driver/Src/stm32f4xx_ll_usb.c ****   *         for device mode
 198:Drivers/STM32F4xx_HAL_Driver/Src/stm32f4xx_ll_usb.c ****   * @param  USBx  Selected device
 199:Drivers/STM32F4xx_HAL_Driver/Src/stm32f4xx_ll_usb.c ****   * @param  cfg   pointer to a USB_OTG_CfgTypeDef structure that contains
 200:Drivers/STM32F4xx_HAL_Driver/Src/stm32f4xx_ll_usb.c ****   *         the configuration information for the specified USBx peripheral.
ARM GAS  C:\Users\gx\AppData\Local\Temp\ccXSZ03x.s 			page 5


 201:Drivers/STM32F4xx_HAL_Driver/Src/stm32f4xx_ll_usb.c ****   * @retval HAL status
 202:Drivers/STM32F4xx_HAL_Driver/Src/stm32f4xx_ll_usb.c ****   */
 203:Drivers/STM32F4xx_HAL_Driver/Src/stm32f4xx_ll_usb.c **** HAL_StatusTypeDef USB_DevInit (USB_OTG_GlobalTypeDef *USBx, USB_OTG_CfgTypeDef cfg)
 204:Drivers/STM32F4xx_HAL_Driver/Src/stm32f4xx_ll_usb.c **** {
 205:Drivers/STM32F4xx_HAL_Driver/Src/stm32f4xx_ll_usb.c ****   uint32_t i = 0U;
 206:Drivers/STM32F4xx_HAL_Driver/Src/stm32f4xx_ll_usb.c **** 
 207:Drivers/STM32F4xx_HAL_Driver/Src/stm32f4xx_ll_usb.c ****   /*Activate VBUS Sensing B */
 208:Drivers/STM32F4xx_HAL_Driver/Src/stm32f4xx_ll_usb.c **** #if defined(STM32F446xx) || defined(STM32F469xx) || defined(STM32F479xx) || defined(STM32F412Zx) ||
 209:Drivers/STM32F4xx_HAL_Driver/Src/stm32f4xx_ll_usb.c ****     defined(STM32F412Rx) || defined(STM32F412Cx) || defined(STM32F413xx) || defined(STM32F423xx)
 210:Drivers/STM32F4xx_HAL_Driver/Src/stm32f4xx_ll_usb.c ****   USBx->GCCFG |= USB_OTG_GCCFG_VBDEN;
 211:Drivers/STM32F4xx_HAL_Driver/Src/stm32f4xx_ll_usb.c ****   
 212:Drivers/STM32F4xx_HAL_Driver/Src/stm32f4xx_ll_usb.c ****   if (cfg.vbus_sensing_enable == 0U)
 213:Drivers/STM32F4xx_HAL_Driver/Src/stm32f4xx_ll_usb.c ****   {
 214:Drivers/STM32F4xx_HAL_Driver/Src/stm32f4xx_ll_usb.c ****     /* Deactivate VBUS Sensing B */
 215:Drivers/STM32F4xx_HAL_Driver/Src/stm32f4xx_ll_usb.c ****     USBx->GCCFG &= ~USB_OTG_GCCFG_VBDEN;
 216:Drivers/STM32F4xx_HAL_Driver/Src/stm32f4xx_ll_usb.c ****     
 217:Drivers/STM32F4xx_HAL_Driver/Src/stm32f4xx_ll_usb.c ****     /* B-peripheral session valid override enable*/ 
 218:Drivers/STM32F4xx_HAL_Driver/Src/stm32f4xx_ll_usb.c ****     USBx->GOTGCTL |= USB_OTG_GOTGCTL_BVALOEN;
 219:Drivers/STM32F4xx_HAL_Driver/Src/stm32f4xx_ll_usb.c ****     USBx->GOTGCTL |= USB_OTG_GOTGCTL_BVALOVAL;
 220:Drivers/STM32F4xx_HAL_Driver/Src/stm32f4xx_ll_usb.c ****   }
 221:Drivers/STM32F4xx_HAL_Driver/Src/stm32f4xx_ll_usb.c **** #else
 222:Drivers/STM32F4xx_HAL_Driver/Src/stm32f4xx_ll_usb.c ****   if (cfg.vbus_sensing_enable == 0U)
 223:Drivers/STM32F4xx_HAL_Driver/Src/stm32f4xx_ll_usb.c ****   {
 224:Drivers/STM32F4xx_HAL_Driver/Src/stm32f4xx_ll_usb.c ****     USBx->GCCFG |= USB_OTG_GCCFG_NOVBUSSENS;
 225:Drivers/STM32F4xx_HAL_Driver/Src/stm32f4xx_ll_usb.c ****   }
 226:Drivers/STM32F4xx_HAL_Driver/Src/stm32f4xx_ll_usb.c ****   else
 227:Drivers/STM32F4xx_HAL_Driver/Src/stm32f4xx_ll_usb.c ****   {
 228:Drivers/STM32F4xx_HAL_Driver/Src/stm32f4xx_ll_usb.c ****     /* Enable VBUS */
 229:Drivers/STM32F4xx_HAL_Driver/Src/stm32f4xx_ll_usb.c ****     USBx->GCCFG |= USB_OTG_GCCFG_VBUSBSEN;
 230:Drivers/STM32F4xx_HAL_Driver/Src/stm32f4xx_ll_usb.c ****   }
 231:Drivers/STM32F4xx_HAL_Driver/Src/stm32f4xx_ll_usb.c **** #endif /* STM32F446xx || STM32F469xx || STM32F479xx || STM32F412Zx || STM32F412Rx || STM32F412Vx ||
 232:Drivers/STM32F4xx_HAL_Driver/Src/stm32f4xx_ll_usb.c ****   
 233:Drivers/STM32F4xx_HAL_Driver/Src/stm32f4xx_ll_usb.c ****   /* Restart the Phy Clock */
 234:Drivers/STM32F4xx_HAL_Driver/Src/stm32f4xx_ll_usb.c ****   USBx_PCGCCTL = 0U;
 235:Drivers/STM32F4xx_HAL_Driver/Src/stm32f4xx_ll_usb.c ****   
 236:Drivers/STM32F4xx_HAL_Driver/Src/stm32f4xx_ll_usb.c ****   /* Device mode configuration */
 237:Drivers/STM32F4xx_HAL_Driver/Src/stm32f4xx_ll_usb.c ****   USBx_DEVICE->DCFG |= DCFG_FRAME_INTERVAL_80;
 238:Drivers/STM32F4xx_HAL_Driver/Src/stm32f4xx_ll_usb.c ****   
 239:Drivers/STM32F4xx_HAL_Driver/Src/stm32f4xx_ll_usb.c ****   if(cfg.phy_itface  == USB_OTG_ULPI_PHY)
 240:Drivers/STM32F4xx_HAL_Driver/Src/stm32f4xx_ll_usb.c ****   {
 241:Drivers/STM32F4xx_HAL_Driver/Src/stm32f4xx_ll_usb.c ****     if(cfg.speed == USB_OTG_SPEED_HIGH)
 242:Drivers/STM32F4xx_HAL_Driver/Src/stm32f4xx_ll_usb.c ****     {      
 243:Drivers/STM32F4xx_HAL_Driver/Src/stm32f4xx_ll_usb.c ****       /* Set High speed phy */
 244:Drivers/STM32F4xx_HAL_Driver/Src/stm32f4xx_ll_usb.c ****       USB_SetDevSpeed (USBx , USB_OTG_SPEED_HIGH);
 245:Drivers/STM32F4xx_HAL_Driver/Src/stm32f4xx_ll_usb.c ****     }
 246:Drivers/STM32F4xx_HAL_Driver/Src/stm32f4xx_ll_usb.c ****     else 
 247:Drivers/STM32F4xx_HAL_Driver/Src/stm32f4xx_ll_usb.c ****     {
 248:Drivers/STM32F4xx_HAL_Driver/Src/stm32f4xx_ll_usb.c ****       /* set High speed phy in Full speed mode */
 249:Drivers/STM32F4xx_HAL_Driver/Src/stm32f4xx_ll_usb.c ****       USB_SetDevSpeed (USBx , USB_OTG_SPEED_HIGH_IN_FULL);
 250:Drivers/STM32F4xx_HAL_Driver/Src/stm32f4xx_ll_usb.c ****     }
 251:Drivers/STM32F4xx_HAL_Driver/Src/stm32f4xx_ll_usb.c ****   }
 252:Drivers/STM32F4xx_HAL_Driver/Src/stm32f4xx_ll_usb.c ****   else
 253:Drivers/STM32F4xx_HAL_Driver/Src/stm32f4xx_ll_usb.c ****   {
 254:Drivers/STM32F4xx_HAL_Driver/Src/stm32f4xx_ll_usb.c ****     /* Set Full speed phy */
 255:Drivers/STM32F4xx_HAL_Driver/Src/stm32f4xx_ll_usb.c ****     USB_SetDevSpeed (USBx , USB_OTG_SPEED_FULL);
 256:Drivers/STM32F4xx_HAL_Driver/Src/stm32f4xx_ll_usb.c ****   }
 257:Drivers/STM32F4xx_HAL_Driver/Src/stm32f4xx_ll_usb.c **** 
ARM GAS  C:\Users\gx\AppData\Local\Temp\ccXSZ03x.s 			page 6


 258:Drivers/STM32F4xx_HAL_Driver/Src/stm32f4xx_ll_usb.c ****   /* Flush the FIFOs */
 259:Drivers/STM32F4xx_HAL_Driver/Src/stm32f4xx_ll_usb.c ****   USB_FlushTxFifo(USBx , 0x10U); /* all Tx FIFOs */
 260:Drivers/STM32F4xx_HAL_Driver/Src/stm32f4xx_ll_usb.c ****   USB_FlushRxFifo(USBx);
 261:Drivers/STM32F4xx_HAL_Driver/Src/stm32f4xx_ll_usb.c ****   
 262:Drivers/STM32F4xx_HAL_Driver/Src/stm32f4xx_ll_usb.c ****   /* Clear all pending Device Interrupts */
 263:Drivers/STM32F4xx_HAL_Driver/Src/stm32f4xx_ll_usb.c ****   USBx_DEVICE->DIEPMSK = 0U;
 264:Drivers/STM32F4xx_HAL_Driver/Src/stm32f4xx_ll_usb.c ****   USBx_DEVICE->DOEPMSK = 0U;
 265:Drivers/STM32F4xx_HAL_Driver/Src/stm32f4xx_ll_usb.c ****   USBx_DEVICE->DAINT = 0xFFFFFFFFU;
 266:Drivers/STM32F4xx_HAL_Driver/Src/stm32f4xx_ll_usb.c ****   USBx_DEVICE->DAINTMSK = 0U;
 267:Drivers/STM32F4xx_HAL_Driver/Src/stm32f4xx_ll_usb.c ****   
 268:Drivers/STM32F4xx_HAL_Driver/Src/stm32f4xx_ll_usb.c ****   for (i = 0U; i < cfg.dev_endpoints; i++)
 269:Drivers/STM32F4xx_HAL_Driver/Src/stm32f4xx_ll_usb.c ****   {
 270:Drivers/STM32F4xx_HAL_Driver/Src/stm32f4xx_ll_usb.c ****     if ((USBx_INEP(i)->DIEPCTL & USB_OTG_DIEPCTL_EPENA) == USB_OTG_DIEPCTL_EPENA)
 271:Drivers/STM32F4xx_HAL_Driver/Src/stm32f4xx_ll_usb.c ****     {
 272:Drivers/STM32F4xx_HAL_Driver/Src/stm32f4xx_ll_usb.c ****       USBx_INEP(i)->DIEPCTL = (USB_OTG_DIEPCTL_EPDIS | USB_OTG_DIEPCTL_SNAK);
 273:Drivers/STM32F4xx_HAL_Driver/Src/stm32f4xx_ll_usb.c ****     }
 274:Drivers/STM32F4xx_HAL_Driver/Src/stm32f4xx_ll_usb.c ****     else
 275:Drivers/STM32F4xx_HAL_Driver/Src/stm32f4xx_ll_usb.c ****     {
 276:Drivers/STM32F4xx_HAL_Driver/Src/stm32f4xx_ll_usb.c ****       USBx_INEP(i)->DIEPCTL = 0U;
 277:Drivers/STM32F4xx_HAL_Driver/Src/stm32f4xx_ll_usb.c ****     }
 278:Drivers/STM32F4xx_HAL_Driver/Src/stm32f4xx_ll_usb.c ****     
 279:Drivers/STM32F4xx_HAL_Driver/Src/stm32f4xx_ll_usb.c ****     USBx_INEP(i)->DIEPTSIZ = 0U;
 280:Drivers/STM32F4xx_HAL_Driver/Src/stm32f4xx_ll_usb.c ****     USBx_INEP(i)->DIEPINT  = 0xFFU;
 281:Drivers/STM32F4xx_HAL_Driver/Src/stm32f4xx_ll_usb.c ****   }
 282:Drivers/STM32F4xx_HAL_Driver/Src/stm32f4xx_ll_usb.c ****   
 283:Drivers/STM32F4xx_HAL_Driver/Src/stm32f4xx_ll_usb.c ****   for (i = 0U; i < cfg.dev_endpoints; i++)
 284:Drivers/STM32F4xx_HAL_Driver/Src/stm32f4xx_ll_usb.c ****   {
 285:Drivers/STM32F4xx_HAL_Driver/Src/stm32f4xx_ll_usb.c ****     if ((USBx_OUTEP(i)->DOEPCTL & USB_OTG_DOEPCTL_EPENA) == USB_OTG_DOEPCTL_EPENA)
 286:Drivers/STM32F4xx_HAL_Driver/Src/stm32f4xx_ll_usb.c ****     {
 287:Drivers/STM32F4xx_HAL_Driver/Src/stm32f4xx_ll_usb.c ****       USBx_OUTEP(i)->DOEPCTL = (USB_OTG_DOEPCTL_EPDIS | USB_OTG_DOEPCTL_SNAK);
 288:Drivers/STM32F4xx_HAL_Driver/Src/stm32f4xx_ll_usb.c ****     }
 289:Drivers/STM32F4xx_HAL_Driver/Src/stm32f4xx_ll_usb.c ****     else
 290:Drivers/STM32F4xx_HAL_Driver/Src/stm32f4xx_ll_usb.c ****     {
 291:Drivers/STM32F4xx_HAL_Driver/Src/stm32f4xx_ll_usb.c ****       USBx_OUTEP(i)->DOEPCTL = 0U;
 292:Drivers/STM32F4xx_HAL_Driver/Src/stm32f4xx_ll_usb.c ****     }
 293:Drivers/STM32F4xx_HAL_Driver/Src/stm32f4xx_ll_usb.c ****     
 294:Drivers/STM32F4xx_HAL_Driver/Src/stm32f4xx_ll_usb.c ****     USBx_OUTEP(i)->DOEPTSIZ = 0U;
 295:Drivers/STM32F4xx_HAL_Driver/Src/stm32f4xx_ll_usb.c ****     USBx_OUTEP(i)->DOEPINT  = 0xFFU;
 296:Drivers/STM32F4xx_HAL_Driver/Src/stm32f4xx_ll_usb.c ****   }
 297:Drivers/STM32F4xx_HAL_Driver/Src/stm32f4xx_ll_usb.c ****   
 298:Drivers/STM32F4xx_HAL_Driver/Src/stm32f4xx_ll_usb.c ****   USBx_DEVICE->DIEPMSK &= ~(USB_OTG_DIEPMSK_TXFURM);
 299:Drivers/STM32F4xx_HAL_Driver/Src/stm32f4xx_ll_usb.c ****   
 300:Drivers/STM32F4xx_HAL_Driver/Src/stm32f4xx_ll_usb.c ****   if (cfg.dma_enable == 1U)
 301:Drivers/STM32F4xx_HAL_Driver/Src/stm32f4xx_ll_usb.c ****   {
 302:Drivers/STM32F4xx_HAL_Driver/Src/stm32f4xx_ll_usb.c ****     /*Set threshold parameters */
 303:Drivers/STM32F4xx_HAL_Driver/Src/stm32f4xx_ll_usb.c ****     USBx_DEVICE->DTHRCTL = (USB_OTG_DTHRCTL_TXTHRLEN_6 | USB_OTG_DTHRCTL_RXTHRLEN_6);
 304:Drivers/STM32F4xx_HAL_Driver/Src/stm32f4xx_ll_usb.c ****     USBx_DEVICE->DTHRCTL |= (USB_OTG_DTHRCTL_RXTHREN | USB_OTG_DTHRCTL_ISOTHREN | USB_OTG_DTHRCTL_N
 305:Drivers/STM32F4xx_HAL_Driver/Src/stm32f4xx_ll_usb.c ****     
 306:Drivers/STM32F4xx_HAL_Driver/Src/stm32f4xx_ll_usb.c ****     i= USBx_DEVICE->DTHRCTL;
 307:Drivers/STM32F4xx_HAL_Driver/Src/stm32f4xx_ll_usb.c ****   }
 308:Drivers/STM32F4xx_HAL_Driver/Src/stm32f4xx_ll_usb.c ****   
 309:Drivers/STM32F4xx_HAL_Driver/Src/stm32f4xx_ll_usb.c ****   /* Disable all interrupts. */
 310:Drivers/STM32F4xx_HAL_Driver/Src/stm32f4xx_ll_usb.c ****   USBx->GINTMSK = 0U;
 311:Drivers/STM32F4xx_HAL_Driver/Src/stm32f4xx_ll_usb.c ****   
 312:Drivers/STM32F4xx_HAL_Driver/Src/stm32f4xx_ll_usb.c ****   /* Clear any pending interrupts */
 313:Drivers/STM32F4xx_HAL_Driver/Src/stm32f4xx_ll_usb.c ****   USBx->GINTSTS = 0xBFFFFFFFU;
 314:Drivers/STM32F4xx_HAL_Driver/Src/stm32f4xx_ll_usb.c **** 
ARM GAS  C:\Users\gx\AppData\Local\Temp\ccXSZ03x.s 			page 7


 315:Drivers/STM32F4xx_HAL_Driver/Src/stm32f4xx_ll_usb.c ****   /* Enable the common interrupts */
 316:Drivers/STM32F4xx_HAL_Driver/Src/stm32f4xx_ll_usb.c ****   if (cfg.dma_enable == DISABLE)
 317:Drivers/STM32F4xx_HAL_Driver/Src/stm32f4xx_ll_usb.c ****   {
 318:Drivers/STM32F4xx_HAL_Driver/Src/stm32f4xx_ll_usb.c ****     USBx->GINTMSK |= USB_OTG_GINTMSK_RXFLVLM; 
 319:Drivers/STM32F4xx_HAL_Driver/Src/stm32f4xx_ll_usb.c ****   }
 320:Drivers/STM32F4xx_HAL_Driver/Src/stm32f4xx_ll_usb.c ****   
 321:Drivers/STM32F4xx_HAL_Driver/Src/stm32f4xx_ll_usb.c ****   /* Enable interrupts matching to the Device mode ONLY */
 322:Drivers/STM32F4xx_HAL_Driver/Src/stm32f4xx_ll_usb.c ****   USBx->GINTMSK |= (USB_OTG_GINTMSK_USBSUSPM | USB_OTG_GINTMSK_USBRST |\
 323:Drivers/STM32F4xx_HAL_Driver/Src/stm32f4xx_ll_usb.c ****                     USB_OTG_GINTMSK_ENUMDNEM | USB_OTG_GINTMSK_IEPINT |\
 324:Drivers/STM32F4xx_HAL_Driver/Src/stm32f4xx_ll_usb.c ****                     USB_OTG_GINTMSK_OEPINT   | USB_OTG_GINTMSK_IISOIXFRM|\
 325:Drivers/STM32F4xx_HAL_Driver/Src/stm32f4xx_ll_usb.c ****                     USB_OTG_GINTMSK_PXFRM_IISOOXFRM | USB_OTG_GINTMSK_WUIM);
 326:Drivers/STM32F4xx_HAL_Driver/Src/stm32f4xx_ll_usb.c ****   
 327:Drivers/STM32F4xx_HAL_Driver/Src/stm32f4xx_ll_usb.c ****   if(cfg.Sof_enable)
 328:Drivers/STM32F4xx_HAL_Driver/Src/stm32f4xx_ll_usb.c ****   {
 329:Drivers/STM32F4xx_HAL_Driver/Src/stm32f4xx_ll_usb.c ****     USBx->GINTMSK |= USB_OTG_GINTMSK_SOFM;
 330:Drivers/STM32F4xx_HAL_Driver/Src/stm32f4xx_ll_usb.c ****   }
 331:Drivers/STM32F4xx_HAL_Driver/Src/stm32f4xx_ll_usb.c **** 
 332:Drivers/STM32F4xx_HAL_Driver/Src/stm32f4xx_ll_usb.c ****   if (cfg.vbus_sensing_enable == ENABLE)
 333:Drivers/STM32F4xx_HAL_Driver/Src/stm32f4xx_ll_usb.c ****   {
 334:Drivers/STM32F4xx_HAL_Driver/Src/stm32f4xx_ll_usb.c ****     USBx->GINTMSK |= (USB_OTG_GINTMSK_SRQIM | USB_OTG_GINTMSK_OTGINT); 
 335:Drivers/STM32F4xx_HAL_Driver/Src/stm32f4xx_ll_usb.c ****   }
 336:Drivers/STM32F4xx_HAL_Driver/Src/stm32f4xx_ll_usb.c ****   
 337:Drivers/STM32F4xx_HAL_Driver/Src/stm32f4xx_ll_usb.c ****   return HAL_OK;
 338:Drivers/STM32F4xx_HAL_Driver/Src/stm32f4xx_ll_usb.c **** }
 339:Drivers/STM32F4xx_HAL_Driver/Src/stm32f4xx_ll_usb.c **** 
 340:Drivers/STM32F4xx_HAL_Driver/Src/stm32f4xx_ll_usb.c **** 
 341:Drivers/STM32F4xx_HAL_Driver/Src/stm32f4xx_ll_usb.c **** /**
 342:Drivers/STM32F4xx_HAL_Driver/Src/stm32f4xx_ll_usb.c ****   * @brief  USB_OTG_FlushTxFifo : Flush a Tx FIFO
 343:Drivers/STM32F4xx_HAL_Driver/Src/stm32f4xx_ll_usb.c ****   * @param  USBx  Selected device
 344:Drivers/STM32F4xx_HAL_Driver/Src/stm32f4xx_ll_usb.c ****   * @param  num  FIFO number
 345:Drivers/STM32F4xx_HAL_Driver/Src/stm32f4xx_ll_usb.c ****   *         This parameter can be a value from 1 to 15
 346:Drivers/STM32F4xx_HAL_Driver/Src/stm32f4xx_ll_usb.c ****             15 means Flush all Tx FIFOs
 347:Drivers/STM32F4xx_HAL_Driver/Src/stm32f4xx_ll_usb.c ****   * @retval HAL status
 348:Drivers/STM32F4xx_HAL_Driver/Src/stm32f4xx_ll_usb.c ****   */
 349:Drivers/STM32F4xx_HAL_Driver/Src/stm32f4xx_ll_usb.c **** HAL_StatusTypeDef USB_FlushTxFifo (USB_OTG_GlobalTypeDef *USBx, uint32_t num )
 350:Drivers/STM32F4xx_HAL_Driver/Src/stm32f4xx_ll_usb.c **** {
 351:Drivers/STM32F4xx_HAL_Driver/Src/stm32f4xx_ll_usb.c ****   uint32_t count = 0;
 352:Drivers/STM32F4xx_HAL_Driver/Src/stm32f4xx_ll_usb.c ****   
 353:Drivers/STM32F4xx_HAL_Driver/Src/stm32f4xx_ll_usb.c ****   USBx->GRSTCTL = ( USB_OTG_GRSTCTL_TXFFLSH |(uint32_t)( num << 6)); 
 354:Drivers/STM32F4xx_HAL_Driver/Src/stm32f4xx_ll_usb.c ****   
 355:Drivers/STM32F4xx_HAL_Driver/Src/stm32f4xx_ll_usb.c ****   do
 356:Drivers/STM32F4xx_HAL_Driver/Src/stm32f4xx_ll_usb.c ****   {
 357:Drivers/STM32F4xx_HAL_Driver/Src/stm32f4xx_ll_usb.c ****     if (++count > 200000)
 358:Drivers/STM32F4xx_HAL_Driver/Src/stm32f4xx_ll_usb.c ****     {
 359:Drivers/STM32F4xx_HAL_Driver/Src/stm32f4xx_ll_usb.c ****       return HAL_TIMEOUT;
 360:Drivers/STM32F4xx_HAL_Driver/Src/stm32f4xx_ll_usb.c ****     }
 361:Drivers/STM32F4xx_HAL_Driver/Src/stm32f4xx_ll_usb.c ****   }
 362:Drivers/STM32F4xx_HAL_Driver/Src/stm32f4xx_ll_usb.c ****   while ((USBx->GRSTCTL & USB_OTG_GRSTCTL_TXFFLSH) == USB_OTG_GRSTCTL_TXFFLSH);
 363:Drivers/STM32F4xx_HAL_Driver/Src/stm32f4xx_ll_usb.c ****   
 364:Drivers/STM32F4xx_HAL_Driver/Src/stm32f4xx_ll_usb.c ****   return HAL_OK;
 365:Drivers/STM32F4xx_HAL_Driver/Src/stm32f4xx_ll_usb.c **** }
 366:Drivers/STM32F4xx_HAL_Driver/Src/stm32f4xx_ll_usb.c **** 
 367:Drivers/STM32F4xx_HAL_Driver/Src/stm32f4xx_ll_usb.c **** 
 368:Drivers/STM32F4xx_HAL_Driver/Src/stm32f4xx_ll_usb.c **** /**
 369:Drivers/STM32F4xx_HAL_Driver/Src/stm32f4xx_ll_usb.c ****   * @brief  USB_FlushRxFifo : Flush Rx FIFO
 370:Drivers/STM32F4xx_HAL_Driver/Src/stm32f4xx_ll_usb.c ****   * @param  USBx  Selected device
 371:Drivers/STM32F4xx_HAL_Driver/Src/stm32f4xx_ll_usb.c ****   * @retval HAL status
ARM GAS  C:\Users\gx\AppData\Local\Temp\ccXSZ03x.s 			page 8


 372:Drivers/STM32F4xx_HAL_Driver/Src/stm32f4xx_ll_usb.c ****   */
 373:Drivers/STM32F4xx_HAL_Driver/Src/stm32f4xx_ll_usb.c **** HAL_StatusTypeDef USB_FlushRxFifo(USB_OTG_GlobalTypeDef *USBx)
 374:Drivers/STM32F4xx_HAL_Driver/Src/stm32f4xx_ll_usb.c **** {
 375:Drivers/STM32F4xx_HAL_Driver/Src/stm32f4xx_ll_usb.c ****   uint32_t count = 0;
 376:Drivers/STM32F4xx_HAL_Driver/Src/stm32f4xx_ll_usb.c ****   
 377:Drivers/STM32F4xx_HAL_Driver/Src/stm32f4xx_ll_usb.c ****   USBx->GRSTCTL = USB_OTG_GRSTCTL_RXFFLSH;
 378:Drivers/STM32F4xx_HAL_Driver/Src/stm32f4xx_ll_usb.c ****   
 379:Drivers/STM32F4xx_HAL_Driver/Src/stm32f4xx_ll_usb.c ****   do
 380:Drivers/STM32F4xx_HAL_Driver/Src/stm32f4xx_ll_usb.c ****   {
 381:Drivers/STM32F4xx_HAL_Driver/Src/stm32f4xx_ll_usb.c ****     if (++count > 200000)
 382:Drivers/STM32F4xx_HAL_Driver/Src/stm32f4xx_ll_usb.c ****     {
 383:Drivers/STM32F4xx_HAL_Driver/Src/stm32f4xx_ll_usb.c ****       return HAL_TIMEOUT;
 384:Drivers/STM32F4xx_HAL_Driver/Src/stm32f4xx_ll_usb.c ****     }
 385:Drivers/STM32F4xx_HAL_Driver/Src/stm32f4xx_ll_usb.c ****   }
 386:Drivers/STM32F4xx_HAL_Driver/Src/stm32f4xx_ll_usb.c ****   while ((USBx->GRSTCTL & USB_OTG_GRSTCTL_RXFFLSH) == USB_OTG_GRSTCTL_RXFFLSH);
 387:Drivers/STM32F4xx_HAL_Driver/Src/stm32f4xx_ll_usb.c ****   
 388:Drivers/STM32F4xx_HAL_Driver/Src/stm32f4xx_ll_usb.c ****   return HAL_OK;
 389:Drivers/STM32F4xx_HAL_Driver/Src/stm32f4xx_ll_usb.c **** }
 390:Drivers/STM32F4xx_HAL_Driver/Src/stm32f4xx_ll_usb.c **** 
 391:Drivers/STM32F4xx_HAL_Driver/Src/stm32f4xx_ll_usb.c **** /**
 392:Drivers/STM32F4xx_HAL_Driver/Src/stm32f4xx_ll_usb.c ****   * @brief  USB_SetDevSpeed :Initializes the DevSpd field of DCFG register 
 393:Drivers/STM32F4xx_HAL_Driver/Src/stm32f4xx_ll_usb.c ****   *         depending the PHY type and the enumeration speed of the device.
 394:Drivers/STM32F4xx_HAL_Driver/Src/stm32f4xx_ll_usb.c ****   * @param  USBx  Selected device
 395:Drivers/STM32F4xx_HAL_Driver/Src/stm32f4xx_ll_usb.c ****   * @param  speed  device speed
 396:Drivers/STM32F4xx_HAL_Driver/Src/stm32f4xx_ll_usb.c ****   *          This parameter can be one of these values:
 397:Drivers/STM32F4xx_HAL_Driver/Src/stm32f4xx_ll_usb.c ****   *            @arg USB_OTG_SPEED_HIGH: High speed mode
 398:Drivers/STM32F4xx_HAL_Driver/Src/stm32f4xx_ll_usb.c ****   *            @arg USB_OTG_SPEED_HIGH_IN_FULL: High speed core in Full Speed mode
 399:Drivers/STM32F4xx_HAL_Driver/Src/stm32f4xx_ll_usb.c ****   *            @arg USB_OTG_SPEED_FULL: Full speed mode
 400:Drivers/STM32F4xx_HAL_Driver/Src/stm32f4xx_ll_usb.c ****   *            @arg USB_OTG_SPEED_LOW: Low speed mode
 401:Drivers/STM32F4xx_HAL_Driver/Src/stm32f4xx_ll_usb.c ****   * @retval  Hal status
 402:Drivers/STM32F4xx_HAL_Driver/Src/stm32f4xx_ll_usb.c ****   */
 403:Drivers/STM32F4xx_HAL_Driver/Src/stm32f4xx_ll_usb.c **** HAL_StatusTypeDef USB_SetDevSpeed(USB_OTG_GlobalTypeDef *USBx , uint8_t speed)
 404:Drivers/STM32F4xx_HAL_Driver/Src/stm32f4xx_ll_usb.c **** {
 405:Drivers/STM32F4xx_HAL_Driver/Src/stm32f4xx_ll_usb.c ****   USBx_DEVICE->DCFG |= speed;
 406:Drivers/STM32F4xx_HAL_Driver/Src/stm32f4xx_ll_usb.c ****   return HAL_OK;
 407:Drivers/STM32F4xx_HAL_Driver/Src/stm32f4xx_ll_usb.c **** }
 408:Drivers/STM32F4xx_HAL_Driver/Src/stm32f4xx_ll_usb.c **** 
 409:Drivers/STM32F4xx_HAL_Driver/Src/stm32f4xx_ll_usb.c **** /**
 410:Drivers/STM32F4xx_HAL_Driver/Src/stm32f4xx_ll_usb.c ****   * @brief  USB_GetDevSpeed :Return the  Dev Speed 
 411:Drivers/STM32F4xx_HAL_Driver/Src/stm32f4xx_ll_usb.c ****   * @param  USBx  Selected device
 412:Drivers/STM32F4xx_HAL_Driver/Src/stm32f4xx_ll_usb.c ****   * @retval speed : device speed
 413:Drivers/STM32F4xx_HAL_Driver/Src/stm32f4xx_ll_usb.c ****   *          This parameter can be one of these values:
 414:Drivers/STM32F4xx_HAL_Driver/Src/stm32f4xx_ll_usb.c ****   *            @arg USB_OTG_SPEED_HIGH: High speed mode
 415:Drivers/STM32F4xx_HAL_Driver/Src/stm32f4xx_ll_usb.c ****   *            @arg USB_OTG_SPEED_FULL: Full speed mode
 416:Drivers/STM32F4xx_HAL_Driver/Src/stm32f4xx_ll_usb.c ****   *            @arg USB_OTG_SPEED_LOW: Low speed mode
 417:Drivers/STM32F4xx_HAL_Driver/Src/stm32f4xx_ll_usb.c ****   */
 418:Drivers/STM32F4xx_HAL_Driver/Src/stm32f4xx_ll_usb.c **** uint8_t USB_GetDevSpeed(USB_OTG_GlobalTypeDef *USBx)
 419:Drivers/STM32F4xx_HAL_Driver/Src/stm32f4xx_ll_usb.c **** {
 420:Drivers/STM32F4xx_HAL_Driver/Src/stm32f4xx_ll_usb.c ****   uint8_t speed = 0U;
 421:Drivers/STM32F4xx_HAL_Driver/Src/stm32f4xx_ll_usb.c ****   
 422:Drivers/STM32F4xx_HAL_Driver/Src/stm32f4xx_ll_usb.c ****   if((USBx_DEVICE->DSTS & USB_OTG_DSTS_ENUMSPD) == DSTS_ENUMSPD_HS_PHY_30MHZ_OR_60MHZ)
 423:Drivers/STM32F4xx_HAL_Driver/Src/stm32f4xx_ll_usb.c ****   {
 424:Drivers/STM32F4xx_HAL_Driver/Src/stm32f4xx_ll_usb.c ****     speed = USB_OTG_SPEED_HIGH;
 425:Drivers/STM32F4xx_HAL_Driver/Src/stm32f4xx_ll_usb.c ****   }
 426:Drivers/STM32F4xx_HAL_Driver/Src/stm32f4xx_ll_usb.c ****   else if (((USBx_DEVICE->DSTS & USB_OTG_DSTS_ENUMSPD) == DSTS_ENUMSPD_FS_PHY_30MHZ_OR_60MHZ)||
 427:Drivers/STM32F4xx_HAL_Driver/Src/stm32f4xx_ll_usb.c ****            ((USBx_DEVICE->DSTS & USB_OTG_DSTS_ENUMSPD) == DSTS_ENUMSPD_FS_PHY_48MHZ))
 428:Drivers/STM32F4xx_HAL_Driver/Src/stm32f4xx_ll_usb.c ****   {
ARM GAS  C:\Users\gx\AppData\Local\Temp\ccXSZ03x.s 			page 9


 429:Drivers/STM32F4xx_HAL_Driver/Src/stm32f4xx_ll_usb.c ****     speed = USB_OTG_SPEED_FULL;
 430:Drivers/STM32F4xx_HAL_Driver/Src/stm32f4xx_ll_usb.c ****   }
 431:Drivers/STM32F4xx_HAL_Driver/Src/stm32f4xx_ll_usb.c ****   else if((USBx_DEVICE->DSTS & USB_OTG_DSTS_ENUMSPD) == DSTS_ENUMSPD_LS_PHY_6MHZ)
 432:Drivers/STM32F4xx_HAL_Driver/Src/stm32f4xx_ll_usb.c ****   {
 433:Drivers/STM32F4xx_HAL_Driver/Src/stm32f4xx_ll_usb.c ****     speed = USB_OTG_SPEED_LOW;
 434:Drivers/STM32F4xx_HAL_Driver/Src/stm32f4xx_ll_usb.c ****   }
 435:Drivers/STM32F4xx_HAL_Driver/Src/stm32f4xx_ll_usb.c ****   
 436:Drivers/STM32F4xx_HAL_Driver/Src/stm32f4xx_ll_usb.c ****   return speed;
 437:Drivers/STM32F4xx_HAL_Driver/Src/stm32f4xx_ll_usb.c **** }
 438:Drivers/STM32F4xx_HAL_Driver/Src/stm32f4xx_ll_usb.c **** 
 439:Drivers/STM32F4xx_HAL_Driver/Src/stm32f4xx_ll_usb.c **** /**
 440:Drivers/STM32F4xx_HAL_Driver/Src/stm32f4xx_ll_usb.c ****   * @brief  Activate and configure an endpoint
 441:Drivers/STM32F4xx_HAL_Driver/Src/stm32f4xx_ll_usb.c ****   * @param  USBx  Selected device
 442:Drivers/STM32F4xx_HAL_Driver/Src/stm32f4xx_ll_usb.c ****   * @param  ep pointer to endpoint structure
 443:Drivers/STM32F4xx_HAL_Driver/Src/stm32f4xx_ll_usb.c ****   * @retval HAL status
 444:Drivers/STM32F4xx_HAL_Driver/Src/stm32f4xx_ll_usb.c ****   */
 445:Drivers/STM32F4xx_HAL_Driver/Src/stm32f4xx_ll_usb.c **** HAL_StatusTypeDef USB_ActivateEndpoint(USB_OTG_GlobalTypeDef *USBx, USB_OTG_EPTypeDef *ep)
 446:Drivers/STM32F4xx_HAL_Driver/Src/stm32f4xx_ll_usb.c **** {
 447:Drivers/STM32F4xx_HAL_Driver/Src/stm32f4xx_ll_usb.c ****   if (ep->is_in == 1U)
 448:Drivers/STM32F4xx_HAL_Driver/Src/stm32f4xx_ll_usb.c ****   {
 449:Drivers/STM32F4xx_HAL_Driver/Src/stm32f4xx_ll_usb.c ****    USBx_DEVICE->DAINTMSK |= USB_OTG_DAINTMSK_IEPM & ((1U << (ep->num)));
 450:Drivers/STM32F4xx_HAL_Driver/Src/stm32f4xx_ll_usb.c ****    
 451:Drivers/STM32F4xx_HAL_Driver/Src/stm32f4xx_ll_usb.c ****     if (((USBx_INEP(ep->num)->DIEPCTL) & USB_OTG_DIEPCTL_USBAEP) == 0U)
 452:Drivers/STM32F4xx_HAL_Driver/Src/stm32f4xx_ll_usb.c ****     {
 453:Drivers/STM32F4xx_HAL_Driver/Src/stm32f4xx_ll_usb.c ****       USBx_INEP(ep->num)->DIEPCTL |= ((ep->maxpacket & USB_OTG_DIEPCTL_MPSIZ ) | (ep->type << 18U) 
 454:Drivers/STM32F4xx_HAL_Driver/Src/stm32f4xx_ll_usb.c ****         ((ep->num) << 22U) | (USB_OTG_DIEPCTL_SD0PID_SEVNFRM) | (USB_OTG_DIEPCTL_USBAEP)); 
 455:Drivers/STM32F4xx_HAL_Driver/Src/stm32f4xx_ll_usb.c ****     } 
 456:Drivers/STM32F4xx_HAL_Driver/Src/stm32f4xx_ll_usb.c ****   }
 457:Drivers/STM32F4xx_HAL_Driver/Src/stm32f4xx_ll_usb.c ****   else
 458:Drivers/STM32F4xx_HAL_Driver/Src/stm32f4xx_ll_usb.c ****   {
 459:Drivers/STM32F4xx_HAL_Driver/Src/stm32f4xx_ll_usb.c ****      USBx_DEVICE->DAINTMSK |= USB_OTG_DAINTMSK_OEPM & ((1U << (ep->num)) << 16U);
 460:Drivers/STM32F4xx_HAL_Driver/Src/stm32f4xx_ll_usb.c ****      
 461:Drivers/STM32F4xx_HAL_Driver/Src/stm32f4xx_ll_usb.c ****     if (((USBx_OUTEP(ep->num)->DOEPCTL) & USB_OTG_DOEPCTL_USBAEP) == 0U)
 462:Drivers/STM32F4xx_HAL_Driver/Src/stm32f4xx_ll_usb.c ****     {
 463:Drivers/STM32F4xx_HAL_Driver/Src/stm32f4xx_ll_usb.c ****       USBx_OUTEP(ep->num)->DOEPCTL |= ((ep->maxpacket & USB_OTG_DOEPCTL_MPSIZ ) | (ep->type << 18U)
 464:Drivers/STM32F4xx_HAL_Driver/Src/stm32f4xx_ll_usb.c ****        (USB_OTG_DIEPCTL_SD0PID_SEVNFRM)| (USB_OTG_DOEPCTL_USBAEP));
 465:Drivers/STM32F4xx_HAL_Driver/Src/stm32f4xx_ll_usb.c ****     } 
 466:Drivers/STM32F4xx_HAL_Driver/Src/stm32f4xx_ll_usb.c ****   }
 467:Drivers/STM32F4xx_HAL_Driver/Src/stm32f4xx_ll_usb.c ****   return HAL_OK;
 468:Drivers/STM32F4xx_HAL_Driver/Src/stm32f4xx_ll_usb.c **** }
 469:Drivers/STM32F4xx_HAL_Driver/Src/stm32f4xx_ll_usb.c **** /**
 470:Drivers/STM32F4xx_HAL_Driver/Src/stm32f4xx_ll_usb.c ****   * @brief  Activate and configure a dedicated endpoint
 471:Drivers/STM32F4xx_HAL_Driver/Src/stm32f4xx_ll_usb.c ****   * @param  USBx  Selected device
 472:Drivers/STM32F4xx_HAL_Driver/Src/stm32f4xx_ll_usb.c ****   * @param  ep pointer to endpoint structure
 473:Drivers/STM32F4xx_HAL_Driver/Src/stm32f4xx_ll_usb.c ****   * @retval HAL status
 474:Drivers/STM32F4xx_HAL_Driver/Src/stm32f4xx_ll_usb.c ****   */
 475:Drivers/STM32F4xx_HAL_Driver/Src/stm32f4xx_ll_usb.c **** HAL_StatusTypeDef USB_ActivateDedicatedEndpoint(USB_OTG_GlobalTypeDef *USBx, USB_OTG_EPTypeDef *ep)
 476:Drivers/STM32F4xx_HAL_Driver/Src/stm32f4xx_ll_usb.c **** {
 477:Drivers/STM32F4xx_HAL_Driver/Src/stm32f4xx_ll_usb.c ****   static __IO uint32_t debug = 0U;
 478:Drivers/STM32F4xx_HAL_Driver/Src/stm32f4xx_ll_usb.c ****   
 479:Drivers/STM32F4xx_HAL_Driver/Src/stm32f4xx_ll_usb.c ****   /* Read DEPCTLn register */
 480:Drivers/STM32F4xx_HAL_Driver/Src/stm32f4xx_ll_usb.c ****   if (ep->is_in == 1U)
 481:Drivers/STM32F4xx_HAL_Driver/Src/stm32f4xx_ll_usb.c ****   {
 482:Drivers/STM32F4xx_HAL_Driver/Src/stm32f4xx_ll_usb.c ****     if (((USBx_INEP(ep->num)->DIEPCTL) & USB_OTG_DIEPCTL_USBAEP) == 0U)
 483:Drivers/STM32F4xx_HAL_Driver/Src/stm32f4xx_ll_usb.c ****     {
 484:Drivers/STM32F4xx_HAL_Driver/Src/stm32f4xx_ll_usb.c ****       USBx_INEP(ep->num)->DIEPCTL |= ((ep->maxpacket & USB_OTG_DIEPCTL_MPSIZ ) | (ep->type << 18U) 
 485:Drivers/STM32F4xx_HAL_Driver/Src/stm32f4xx_ll_usb.c ****         ((ep->num) << 22U) | (USB_OTG_DIEPCTL_SD0PID_SEVNFRM) | (USB_OTG_DIEPCTL_USBAEP)); 
ARM GAS  C:\Users\gx\AppData\Local\Temp\ccXSZ03x.s 			page 10


 486:Drivers/STM32F4xx_HAL_Driver/Src/stm32f4xx_ll_usb.c ****     } 
 487:Drivers/STM32F4xx_HAL_Driver/Src/stm32f4xx_ll_usb.c ****     
 488:Drivers/STM32F4xx_HAL_Driver/Src/stm32f4xx_ll_usb.c ****     
 489:Drivers/STM32F4xx_HAL_Driver/Src/stm32f4xx_ll_usb.c ****     debug  |= ((ep->maxpacket & USB_OTG_DIEPCTL_MPSIZ ) | (ep->type << 18U) |\
 490:Drivers/STM32F4xx_HAL_Driver/Src/stm32f4xx_ll_usb.c ****         ((ep->num) << 22U) | (USB_OTG_DIEPCTL_SD0PID_SEVNFRM) | (USB_OTG_DIEPCTL_USBAEP)); 
 491:Drivers/STM32F4xx_HAL_Driver/Src/stm32f4xx_ll_usb.c ****     
 492:Drivers/STM32F4xx_HAL_Driver/Src/stm32f4xx_ll_usb.c ****    USBx_DEVICE->DEACHMSK |= USB_OTG_DAINTMSK_IEPM & ((1U << (ep->num)));
 493:Drivers/STM32F4xx_HAL_Driver/Src/stm32f4xx_ll_usb.c ****   }
 494:Drivers/STM32F4xx_HAL_Driver/Src/stm32f4xx_ll_usb.c ****   else
 495:Drivers/STM32F4xx_HAL_Driver/Src/stm32f4xx_ll_usb.c ****   {
 496:Drivers/STM32F4xx_HAL_Driver/Src/stm32f4xx_ll_usb.c ****     if (((USBx_OUTEP(ep->num)->DOEPCTL) & USB_OTG_DOEPCTL_USBAEP) == 0U)
 497:Drivers/STM32F4xx_HAL_Driver/Src/stm32f4xx_ll_usb.c ****     {
 498:Drivers/STM32F4xx_HAL_Driver/Src/stm32f4xx_ll_usb.c ****       USBx_OUTEP(ep->num)->DOEPCTL |= ((ep->maxpacket & USB_OTG_DOEPCTL_MPSIZ ) | (ep->type << 18U)
 499:Drivers/STM32F4xx_HAL_Driver/Src/stm32f4xx_ll_usb.c ****         ((ep->num) << 22U) | (USB_OTG_DOEPCTL_USBAEP));
 500:Drivers/STM32F4xx_HAL_Driver/Src/stm32f4xx_ll_usb.c ****       
 501:Drivers/STM32F4xx_HAL_Driver/Src/stm32f4xx_ll_usb.c ****       debug = (uint32_t)(((uint32_t )USBx) + USB_OTG_OUT_ENDPOINT_BASE + (0U)*USB_OTG_EP_REG_SIZE);
 502:Drivers/STM32F4xx_HAL_Driver/Src/stm32f4xx_ll_usb.c ****       debug = (uint32_t )&USBx_OUTEP(ep->num)->DOEPCTL;
 503:Drivers/STM32F4xx_HAL_Driver/Src/stm32f4xx_ll_usb.c ****       debug |= ((ep->maxpacket & USB_OTG_DOEPCTL_MPSIZ ) | (ep->type << 18U) |\
 504:Drivers/STM32F4xx_HAL_Driver/Src/stm32f4xx_ll_usb.c ****         ((ep->num) << 22U) | (USB_OTG_DOEPCTL_USBAEP)); 
 505:Drivers/STM32F4xx_HAL_Driver/Src/stm32f4xx_ll_usb.c ****     } 
 506:Drivers/STM32F4xx_HAL_Driver/Src/stm32f4xx_ll_usb.c ****     
 507:Drivers/STM32F4xx_HAL_Driver/Src/stm32f4xx_ll_usb.c ****      USBx_DEVICE->DEACHMSK |= USB_OTG_DAINTMSK_OEPM & ((1U << (ep->num)) << 16U);
 508:Drivers/STM32F4xx_HAL_Driver/Src/stm32f4xx_ll_usb.c ****   }
 509:Drivers/STM32F4xx_HAL_Driver/Src/stm32f4xx_ll_usb.c **** 
 510:Drivers/STM32F4xx_HAL_Driver/Src/stm32f4xx_ll_usb.c ****   return HAL_OK;
 511:Drivers/STM32F4xx_HAL_Driver/Src/stm32f4xx_ll_usb.c **** }
 512:Drivers/STM32F4xx_HAL_Driver/Src/stm32f4xx_ll_usb.c **** /**
 513:Drivers/STM32F4xx_HAL_Driver/Src/stm32f4xx_ll_usb.c ****   * @brief  De-activate and de-initialize an endpoint
 514:Drivers/STM32F4xx_HAL_Driver/Src/stm32f4xx_ll_usb.c ****   * @param  USBx  Selected device
 515:Drivers/STM32F4xx_HAL_Driver/Src/stm32f4xx_ll_usb.c ****   * @param  ep pointer to endpoint structure
 516:Drivers/STM32F4xx_HAL_Driver/Src/stm32f4xx_ll_usb.c ****   * @retval HAL status
 517:Drivers/STM32F4xx_HAL_Driver/Src/stm32f4xx_ll_usb.c ****   */
 518:Drivers/STM32F4xx_HAL_Driver/Src/stm32f4xx_ll_usb.c **** HAL_StatusTypeDef USB_DeactivateEndpoint(USB_OTG_GlobalTypeDef *USBx, USB_OTG_EPTypeDef *ep)
 519:Drivers/STM32F4xx_HAL_Driver/Src/stm32f4xx_ll_usb.c **** {
 520:Drivers/STM32F4xx_HAL_Driver/Src/stm32f4xx_ll_usb.c ****   uint32_t count = 0U;
 521:Drivers/STM32F4xx_HAL_Driver/Src/stm32f4xx_ll_usb.c ****   
 522:Drivers/STM32F4xx_HAL_Driver/Src/stm32f4xx_ll_usb.c ****   /* Disable the IN endpoint */
 523:Drivers/STM32F4xx_HAL_Driver/Src/stm32f4xx_ll_usb.c ****   if (ep->is_in == 1U)
 524:Drivers/STM32F4xx_HAL_Driver/Src/stm32f4xx_ll_usb.c ****   {
 525:Drivers/STM32F4xx_HAL_Driver/Src/stm32f4xx_ll_usb.c ****     USBx_INEP(ep->num)->DIEPCTL &= ~USB_OTG_DIEPCTL_USBAEP;  
 526:Drivers/STM32F4xx_HAL_Driver/Src/stm32f4xx_ll_usb.c ****     
 527:Drivers/STM32F4xx_HAL_Driver/Src/stm32f4xx_ll_usb.c ****     /* sets the NAK bit for the IN endpoint */
 528:Drivers/STM32F4xx_HAL_Driver/Src/stm32f4xx_ll_usb.c ****     USBx_INEP(ep->num)->DIEPCTL = USB_OTG_DIEPCTL_SNAK;
 529:Drivers/STM32F4xx_HAL_Driver/Src/stm32f4xx_ll_usb.c ****     
 530:Drivers/STM32F4xx_HAL_Driver/Src/stm32f4xx_ll_usb.c ****     /* Disable IN endpoint */
 531:Drivers/STM32F4xx_HAL_Driver/Src/stm32f4xx_ll_usb.c ****     USBx_INEP(ep->num)->DIEPCTL = USB_OTG_DIEPCTL_EPDIS;
 532:Drivers/STM32F4xx_HAL_Driver/Src/stm32f4xx_ll_usb.c ****     
 533:Drivers/STM32F4xx_HAL_Driver/Src/stm32f4xx_ll_usb.c ****     do
 534:Drivers/STM32F4xx_HAL_Driver/Src/stm32f4xx_ll_usb.c ****     {
 535:Drivers/STM32F4xx_HAL_Driver/Src/stm32f4xx_ll_usb.c ****       if (++count > 200000U)
 536:Drivers/STM32F4xx_HAL_Driver/Src/stm32f4xx_ll_usb.c ****       {
 537:Drivers/STM32F4xx_HAL_Driver/Src/stm32f4xx_ll_usb.c ****         return HAL_TIMEOUT;
 538:Drivers/STM32F4xx_HAL_Driver/Src/stm32f4xx_ll_usb.c ****       }
 539:Drivers/STM32F4xx_HAL_Driver/Src/stm32f4xx_ll_usb.c ****     }
 540:Drivers/STM32F4xx_HAL_Driver/Src/stm32f4xx_ll_usb.c ****     
 541:Drivers/STM32F4xx_HAL_Driver/Src/stm32f4xx_ll_usb.c ****     /*Wait for  EPDISD endpoint disabled interrupt*/ 
 542:Drivers/STM32F4xx_HAL_Driver/Src/stm32f4xx_ll_usb.c ****     while ((USBx_INEP(ep->num)->DIEPINT & USB_OTG_DIEPCTL_EPDIS) == USB_OTG_DIEPCTL_EPDIS);
ARM GAS  C:\Users\gx\AppData\Local\Temp\ccXSZ03x.s 			page 11


 543:Drivers/STM32F4xx_HAL_Driver/Src/stm32f4xx_ll_usb.c ****     
 544:Drivers/STM32F4xx_HAL_Driver/Src/stm32f4xx_ll_usb.c ****     
 545:Drivers/STM32F4xx_HAL_Driver/Src/stm32f4xx_ll_usb.c ****     /* Flush any data remaining in the TxFIFO */
 546:Drivers/STM32F4xx_HAL_Driver/Src/stm32f4xx_ll_usb.c ****     USB_FlushTxFifo(USBx , 0x10U);
 547:Drivers/STM32F4xx_HAL_Driver/Src/stm32f4xx_ll_usb.c ****     
 548:Drivers/STM32F4xx_HAL_Driver/Src/stm32f4xx_ll_usb.c ****     /* Disable endpoint interrupts */
 549:Drivers/STM32F4xx_HAL_Driver/Src/stm32f4xx_ll_usb.c ****     USBx_DEVICE->DAINTMSK &= ~(USB_OTG_DAINTMSK_IEPM & ((1U << (ep->num))));   
 550:Drivers/STM32F4xx_HAL_Driver/Src/stm32f4xx_ll_usb.c ****   
 551:Drivers/STM32F4xx_HAL_Driver/Src/stm32f4xx_ll_usb.c ****   }
 552:Drivers/STM32F4xx_HAL_Driver/Src/stm32f4xx_ll_usb.c ****   else /* Disable the OUT endpoint */
 553:Drivers/STM32F4xx_HAL_Driver/Src/stm32f4xx_ll_usb.c ****   {
 554:Drivers/STM32F4xx_HAL_Driver/Src/stm32f4xx_ll_usb.c ****     
 555:Drivers/STM32F4xx_HAL_Driver/Src/stm32f4xx_ll_usb.c ****     USBx_OUTEP(ep->num)->DOEPCTL &= ~USB_OTG_DOEPCTL_USBAEP;  
 556:Drivers/STM32F4xx_HAL_Driver/Src/stm32f4xx_ll_usb.c ****     
 557:Drivers/STM32F4xx_HAL_Driver/Src/stm32f4xx_ll_usb.c ****     /* sets the NAK bit for the OUT endpoint */
 558:Drivers/STM32F4xx_HAL_Driver/Src/stm32f4xx_ll_usb.c ****     USBx_OUTEP(ep->num)->DOEPCTL = USB_OTG_DOEPCTL_SNAK;
 559:Drivers/STM32F4xx_HAL_Driver/Src/stm32f4xx_ll_usb.c ****     
 560:Drivers/STM32F4xx_HAL_Driver/Src/stm32f4xx_ll_usb.c ****     /* Disable OUT endpoint */
 561:Drivers/STM32F4xx_HAL_Driver/Src/stm32f4xx_ll_usb.c ****     USBx_OUTEP(ep->num)->DOEPCTL = USB_OTG_DOEPCTL_EPDIS;
 562:Drivers/STM32F4xx_HAL_Driver/Src/stm32f4xx_ll_usb.c ****     
 563:Drivers/STM32F4xx_HAL_Driver/Src/stm32f4xx_ll_usb.c ****     do
 564:Drivers/STM32F4xx_HAL_Driver/Src/stm32f4xx_ll_usb.c ****     {
 565:Drivers/STM32F4xx_HAL_Driver/Src/stm32f4xx_ll_usb.c ****       if (++count > 200000U)
 566:Drivers/STM32F4xx_HAL_Driver/Src/stm32f4xx_ll_usb.c ****       {
 567:Drivers/STM32F4xx_HAL_Driver/Src/stm32f4xx_ll_usb.c ****         return HAL_TIMEOUT;
 568:Drivers/STM32F4xx_HAL_Driver/Src/stm32f4xx_ll_usb.c ****       }
 569:Drivers/STM32F4xx_HAL_Driver/Src/stm32f4xx_ll_usb.c ****     }
 570:Drivers/STM32F4xx_HAL_Driver/Src/stm32f4xx_ll_usb.c ****     
 571:Drivers/STM32F4xx_HAL_Driver/Src/stm32f4xx_ll_usb.c ****     /*Wait for  EPDISD endpoint disabled interrupt*/ 
 572:Drivers/STM32F4xx_HAL_Driver/Src/stm32f4xx_ll_usb.c ****     while ((USBx_OUTEP(ep->num)->DOEPINT & USB_OTG_DOEPINT_OTEPDIS) == USB_OTG_DOEPINT_OTEPDIS);
 573:Drivers/STM32F4xx_HAL_Driver/Src/stm32f4xx_ll_usb.c ****     
 574:Drivers/STM32F4xx_HAL_Driver/Src/stm32f4xx_ll_usb.c ****     /* Set the "Clear the Global OUT NAK bit" to disable global OUT NAK mode */
 575:Drivers/STM32F4xx_HAL_Driver/Src/stm32f4xx_ll_usb.c ****     USBx_DEVICE->DCTL |= USB_OTG_DCTL_CGONAK;
 576:Drivers/STM32F4xx_HAL_Driver/Src/stm32f4xx_ll_usb.c ****     
 577:Drivers/STM32F4xx_HAL_Driver/Src/stm32f4xx_ll_usb.c ****     /* Disable endpoint interrupts */
 578:Drivers/STM32F4xx_HAL_Driver/Src/stm32f4xx_ll_usb.c ****     USBx_DEVICE->DAINTMSK &= ~(USB_OTG_DAINTMSK_OEPM & ((1U << (ep->num)) << 16U));         
 579:Drivers/STM32F4xx_HAL_Driver/Src/stm32f4xx_ll_usb.c ****   }
 580:Drivers/STM32F4xx_HAL_Driver/Src/stm32f4xx_ll_usb.c ****   return HAL_OK;
 581:Drivers/STM32F4xx_HAL_Driver/Src/stm32f4xx_ll_usb.c **** }
 582:Drivers/STM32F4xx_HAL_Driver/Src/stm32f4xx_ll_usb.c **** 
 583:Drivers/STM32F4xx_HAL_Driver/Src/stm32f4xx_ll_usb.c **** /**
 584:Drivers/STM32F4xx_HAL_Driver/Src/stm32f4xx_ll_usb.c ****   * @brief  De-activate and de-initialize a dedicated endpoint
 585:Drivers/STM32F4xx_HAL_Driver/Src/stm32f4xx_ll_usb.c ****   * @param  USBx  Selected device
 586:Drivers/STM32F4xx_HAL_Driver/Src/stm32f4xx_ll_usb.c ****   * @param  ep pointer to endpoint structure
 587:Drivers/STM32F4xx_HAL_Driver/Src/stm32f4xx_ll_usb.c ****   * @retval HAL status
 588:Drivers/STM32F4xx_HAL_Driver/Src/stm32f4xx_ll_usb.c ****   */
 589:Drivers/STM32F4xx_HAL_Driver/Src/stm32f4xx_ll_usb.c **** HAL_StatusTypeDef USB_DeactivateDedicatedEndpoint(USB_OTG_GlobalTypeDef *USBx, USB_OTG_EPTypeDef *e
 590:Drivers/STM32F4xx_HAL_Driver/Src/stm32f4xx_ll_usb.c **** {
 591:Drivers/STM32F4xx_HAL_Driver/Src/stm32f4xx_ll_usb.c ****   uint32_t count = 0U;
 592:Drivers/STM32F4xx_HAL_Driver/Src/stm32f4xx_ll_usb.c ****   
 593:Drivers/STM32F4xx_HAL_Driver/Src/stm32f4xx_ll_usb.c ****   /* Disable the IN endpoint */
 594:Drivers/STM32F4xx_HAL_Driver/Src/stm32f4xx_ll_usb.c ****   if (ep->is_in == 1U)
 595:Drivers/STM32F4xx_HAL_Driver/Src/stm32f4xx_ll_usb.c ****   {
 596:Drivers/STM32F4xx_HAL_Driver/Src/stm32f4xx_ll_usb.c ****     USBx_INEP(ep->num)->DIEPCTL &= ~USB_OTG_DIEPCTL_USBAEP;  
 597:Drivers/STM32F4xx_HAL_Driver/Src/stm32f4xx_ll_usb.c ****     
 598:Drivers/STM32F4xx_HAL_Driver/Src/stm32f4xx_ll_usb.c ****     /* sets the NAK bit for the IN endpoint */
 599:Drivers/STM32F4xx_HAL_Driver/Src/stm32f4xx_ll_usb.c ****     USBx_INEP(ep->num)->DIEPCTL = USB_OTG_DIEPCTL_SNAK;
ARM GAS  C:\Users\gx\AppData\Local\Temp\ccXSZ03x.s 			page 12


 600:Drivers/STM32F4xx_HAL_Driver/Src/stm32f4xx_ll_usb.c ****     
 601:Drivers/STM32F4xx_HAL_Driver/Src/stm32f4xx_ll_usb.c ****     /* Disable IN endpoint */
 602:Drivers/STM32F4xx_HAL_Driver/Src/stm32f4xx_ll_usb.c ****     USBx_INEP(ep->num)->DIEPCTL = USB_OTG_DIEPCTL_EPDIS;
 603:Drivers/STM32F4xx_HAL_Driver/Src/stm32f4xx_ll_usb.c ****     
 604:Drivers/STM32F4xx_HAL_Driver/Src/stm32f4xx_ll_usb.c ****     do
 605:Drivers/STM32F4xx_HAL_Driver/Src/stm32f4xx_ll_usb.c ****     {
 606:Drivers/STM32F4xx_HAL_Driver/Src/stm32f4xx_ll_usb.c ****       if (++count > 200000U)
 607:Drivers/STM32F4xx_HAL_Driver/Src/stm32f4xx_ll_usb.c ****       {
 608:Drivers/STM32F4xx_HAL_Driver/Src/stm32f4xx_ll_usb.c ****         return HAL_TIMEOUT;
 609:Drivers/STM32F4xx_HAL_Driver/Src/stm32f4xx_ll_usb.c ****       }
 610:Drivers/STM32F4xx_HAL_Driver/Src/stm32f4xx_ll_usb.c ****     }
 611:Drivers/STM32F4xx_HAL_Driver/Src/stm32f4xx_ll_usb.c ****     
 612:Drivers/STM32F4xx_HAL_Driver/Src/stm32f4xx_ll_usb.c ****     /*Wait for  EPDISD endpoint disabled interrupt*/ 
 613:Drivers/STM32F4xx_HAL_Driver/Src/stm32f4xx_ll_usb.c ****     while ((USBx_INEP(ep->num)->DIEPINT & USB_OTG_DIEPCTL_EPDIS) == USB_OTG_DIEPCTL_EPDIS);
 614:Drivers/STM32F4xx_HAL_Driver/Src/stm32f4xx_ll_usb.c ****     
 615:Drivers/STM32F4xx_HAL_Driver/Src/stm32f4xx_ll_usb.c ****     
 616:Drivers/STM32F4xx_HAL_Driver/Src/stm32f4xx_ll_usb.c ****     /* Flush any data remaining in the TxFIFO */
 617:Drivers/STM32F4xx_HAL_Driver/Src/stm32f4xx_ll_usb.c ****     USB_FlushTxFifo(USBx , 0x10U);
 618:Drivers/STM32F4xx_HAL_Driver/Src/stm32f4xx_ll_usb.c ****     
 619:Drivers/STM32F4xx_HAL_Driver/Src/stm32f4xx_ll_usb.c ****     /* Disable endpoint interrupts */
 620:Drivers/STM32F4xx_HAL_Driver/Src/stm32f4xx_ll_usb.c ****     USBx_DEVICE->DAINTMSK &= ~(USB_OTG_DAINTMSK_IEPM & ((1U << (ep->num))));   
 621:Drivers/STM32F4xx_HAL_Driver/Src/stm32f4xx_ll_usb.c ****   
 622:Drivers/STM32F4xx_HAL_Driver/Src/stm32f4xx_ll_usb.c ****   }
 623:Drivers/STM32F4xx_HAL_Driver/Src/stm32f4xx_ll_usb.c ****   else /* Disable the OUT endpoint */
 624:Drivers/STM32F4xx_HAL_Driver/Src/stm32f4xx_ll_usb.c ****   {
 625:Drivers/STM32F4xx_HAL_Driver/Src/stm32f4xx_ll_usb.c ****     
 626:Drivers/STM32F4xx_HAL_Driver/Src/stm32f4xx_ll_usb.c ****     USBx_OUTEP(ep->num)->DOEPCTL &= ~USB_OTG_DOEPCTL_USBAEP;  
 627:Drivers/STM32F4xx_HAL_Driver/Src/stm32f4xx_ll_usb.c ****     
 628:Drivers/STM32F4xx_HAL_Driver/Src/stm32f4xx_ll_usb.c ****     /* sets the NAK bit for the OUT endpoint */
 629:Drivers/STM32F4xx_HAL_Driver/Src/stm32f4xx_ll_usb.c ****     USBx_OUTEP(ep->num)->DOEPCTL = USB_OTG_DOEPCTL_SNAK;
 630:Drivers/STM32F4xx_HAL_Driver/Src/stm32f4xx_ll_usb.c ****     
 631:Drivers/STM32F4xx_HAL_Driver/Src/stm32f4xx_ll_usb.c ****     /* Disable OUT endpoint */
 632:Drivers/STM32F4xx_HAL_Driver/Src/stm32f4xx_ll_usb.c ****     USBx_OUTEP(ep->num)->DOEPCTL = USB_OTG_DOEPCTL_EPDIS;
 633:Drivers/STM32F4xx_HAL_Driver/Src/stm32f4xx_ll_usb.c ****     
 634:Drivers/STM32F4xx_HAL_Driver/Src/stm32f4xx_ll_usb.c ****     do
 635:Drivers/STM32F4xx_HAL_Driver/Src/stm32f4xx_ll_usb.c ****     {
 636:Drivers/STM32F4xx_HAL_Driver/Src/stm32f4xx_ll_usb.c ****       if (++count > 200000U)
 637:Drivers/STM32F4xx_HAL_Driver/Src/stm32f4xx_ll_usb.c ****       {
 638:Drivers/STM32F4xx_HAL_Driver/Src/stm32f4xx_ll_usb.c ****         return HAL_TIMEOUT;
 639:Drivers/STM32F4xx_HAL_Driver/Src/stm32f4xx_ll_usb.c ****       }
 640:Drivers/STM32F4xx_HAL_Driver/Src/stm32f4xx_ll_usb.c ****     }
 641:Drivers/STM32F4xx_HAL_Driver/Src/stm32f4xx_ll_usb.c ****     
 642:Drivers/STM32F4xx_HAL_Driver/Src/stm32f4xx_ll_usb.c ****     /*Wait for  EPDISD endpoint disabled interrupt*/ 
 643:Drivers/STM32F4xx_HAL_Driver/Src/stm32f4xx_ll_usb.c ****     while ((USBx_OUTEP(ep->num)->DOEPINT & USB_OTG_DOEPINT_OTEPDIS) == USB_OTG_DOEPINT_OTEPDIS);
 644:Drivers/STM32F4xx_HAL_Driver/Src/stm32f4xx_ll_usb.c ****     
 645:Drivers/STM32F4xx_HAL_Driver/Src/stm32f4xx_ll_usb.c ****     /* Set the "Clear the Global OUT NAK bit" to disable global OUT NAK mode */
 646:Drivers/STM32F4xx_HAL_Driver/Src/stm32f4xx_ll_usb.c ****     USBx_DEVICE->DCTL |= USB_OTG_DCTL_CGONAK;
 647:Drivers/STM32F4xx_HAL_Driver/Src/stm32f4xx_ll_usb.c ****     
 648:Drivers/STM32F4xx_HAL_Driver/Src/stm32f4xx_ll_usb.c ****     /* Disable endpoint interrupts */
 649:Drivers/STM32F4xx_HAL_Driver/Src/stm32f4xx_ll_usb.c ****     USBx_DEVICE->DAINTMSK &= ~(USB_OTG_DAINTMSK_OEPM & ((1U << (ep->num)) << 16U));         
 650:Drivers/STM32F4xx_HAL_Driver/Src/stm32f4xx_ll_usb.c ****   }
 651:Drivers/STM32F4xx_HAL_Driver/Src/stm32f4xx_ll_usb.c ****   return HAL_OK;
 652:Drivers/STM32F4xx_HAL_Driver/Src/stm32f4xx_ll_usb.c **** 
 653:Drivers/STM32F4xx_HAL_Driver/Src/stm32f4xx_ll_usb.c **** }
 654:Drivers/STM32F4xx_HAL_Driver/Src/stm32f4xx_ll_usb.c **** 
 655:Drivers/STM32F4xx_HAL_Driver/Src/stm32f4xx_ll_usb.c **** /**
 656:Drivers/STM32F4xx_HAL_Driver/Src/stm32f4xx_ll_usb.c ****   * @brief  USB_EPStartXfer : setup and starts a transfer over an EP
ARM GAS  C:\Users\gx\AppData\Local\Temp\ccXSZ03x.s 			page 13


 657:Drivers/STM32F4xx_HAL_Driver/Src/stm32f4xx_ll_usb.c ****   * @param  USBx  Selected device
 658:Drivers/STM32F4xx_HAL_Driver/Src/stm32f4xx_ll_usb.c ****   * @param  ep pointer to endpoint structure
 659:Drivers/STM32F4xx_HAL_Driver/Src/stm32f4xx_ll_usb.c ****   * @param  dma USB dma enabled or disabled 
 660:Drivers/STM32F4xx_HAL_Driver/Src/stm32f4xx_ll_usb.c ****   *          This parameter can be one of these values:
 661:Drivers/STM32F4xx_HAL_Driver/Src/stm32f4xx_ll_usb.c ****   *           0 : DMA feature not used 
 662:Drivers/STM32F4xx_HAL_Driver/Src/stm32f4xx_ll_usb.c ****   *           1 : DMA feature used  
 663:Drivers/STM32F4xx_HAL_Driver/Src/stm32f4xx_ll_usb.c ****   * @retval HAL status
 664:Drivers/STM32F4xx_HAL_Driver/Src/stm32f4xx_ll_usb.c ****   */
 665:Drivers/STM32F4xx_HAL_Driver/Src/stm32f4xx_ll_usb.c **** HAL_StatusTypeDef USB_EPStartXfer(USB_OTG_GlobalTypeDef *USBx , USB_OTG_EPTypeDef *ep, uint8_t dma)
 666:Drivers/STM32F4xx_HAL_Driver/Src/stm32f4xx_ll_usb.c **** {
 667:Drivers/STM32F4xx_HAL_Driver/Src/stm32f4xx_ll_usb.c ****   uint16_t pktcnt = 0U;
 668:Drivers/STM32F4xx_HAL_Driver/Src/stm32f4xx_ll_usb.c ****   
 669:Drivers/STM32F4xx_HAL_Driver/Src/stm32f4xx_ll_usb.c ****   /* IN endpoint */
 670:Drivers/STM32F4xx_HAL_Driver/Src/stm32f4xx_ll_usb.c ****   if (ep->is_in == 1U)
 671:Drivers/STM32F4xx_HAL_Driver/Src/stm32f4xx_ll_usb.c ****   {
 672:Drivers/STM32F4xx_HAL_Driver/Src/stm32f4xx_ll_usb.c ****     /* Zero Length Packet? */
 673:Drivers/STM32F4xx_HAL_Driver/Src/stm32f4xx_ll_usb.c ****     if (ep->xfer_len == 0U)
 674:Drivers/STM32F4xx_HAL_Driver/Src/stm32f4xx_ll_usb.c ****     {
 675:Drivers/STM32F4xx_HAL_Driver/Src/stm32f4xx_ll_usb.c ****       USBx_INEP(ep->num)->DIEPTSIZ &= ~(USB_OTG_DIEPTSIZ_PKTCNT); 
 676:Drivers/STM32F4xx_HAL_Driver/Src/stm32f4xx_ll_usb.c ****       USBx_INEP(ep->num)->DIEPTSIZ |= (USB_OTG_DIEPTSIZ_PKTCNT & (1U << 19U)) ;
 677:Drivers/STM32F4xx_HAL_Driver/Src/stm32f4xx_ll_usb.c ****       USBx_INEP(ep->num)->DIEPTSIZ &= ~(USB_OTG_DIEPTSIZ_XFRSIZ); 
 678:Drivers/STM32F4xx_HAL_Driver/Src/stm32f4xx_ll_usb.c ****     }
 679:Drivers/STM32F4xx_HAL_Driver/Src/stm32f4xx_ll_usb.c ****     else
 680:Drivers/STM32F4xx_HAL_Driver/Src/stm32f4xx_ll_usb.c ****     {
 681:Drivers/STM32F4xx_HAL_Driver/Src/stm32f4xx_ll_usb.c ****       /* Program the transfer size and packet count
 682:Drivers/STM32F4xx_HAL_Driver/Src/stm32f4xx_ll_usb.c ****       * as follows: xfersize = N * maxpacket +
 683:Drivers/STM32F4xx_HAL_Driver/Src/stm32f4xx_ll_usb.c ****       * short_packet pktcnt = N + (short_packet
 684:Drivers/STM32F4xx_HAL_Driver/Src/stm32f4xx_ll_usb.c ****       * exist ? 1 : 0)
 685:Drivers/STM32F4xx_HAL_Driver/Src/stm32f4xx_ll_usb.c ****       */
 686:Drivers/STM32F4xx_HAL_Driver/Src/stm32f4xx_ll_usb.c ****       USBx_INEP(ep->num)->DIEPTSIZ &= ~(USB_OTG_DIEPTSIZ_XFRSIZ);
 687:Drivers/STM32F4xx_HAL_Driver/Src/stm32f4xx_ll_usb.c ****       USBx_INEP(ep->num)->DIEPTSIZ &= ~(USB_OTG_DIEPTSIZ_PKTCNT); 
 688:Drivers/STM32F4xx_HAL_Driver/Src/stm32f4xx_ll_usb.c ****       USBx_INEP(ep->num)->DIEPTSIZ |= (USB_OTG_DIEPTSIZ_PKTCNT & (((ep->xfer_len + ep->maxpacket -1
 689:Drivers/STM32F4xx_HAL_Driver/Src/stm32f4xx_ll_usb.c ****       USBx_INEP(ep->num)->DIEPTSIZ |= (USB_OTG_DIEPTSIZ_XFRSIZ & ep->xfer_len); 
 690:Drivers/STM32F4xx_HAL_Driver/Src/stm32f4xx_ll_usb.c ****       
 691:Drivers/STM32F4xx_HAL_Driver/Src/stm32f4xx_ll_usb.c ****       if (ep->type == EP_TYPE_ISOC)
 692:Drivers/STM32F4xx_HAL_Driver/Src/stm32f4xx_ll_usb.c ****       {
 693:Drivers/STM32F4xx_HAL_Driver/Src/stm32f4xx_ll_usb.c ****         USBx_INEP(ep->num)->DIEPTSIZ &= ~(USB_OTG_DIEPTSIZ_MULCNT); 
 694:Drivers/STM32F4xx_HAL_Driver/Src/stm32f4xx_ll_usb.c ****         USBx_INEP(ep->num)->DIEPTSIZ |= (USB_OTG_DIEPTSIZ_MULCNT & (1U << 29U)); 
 695:Drivers/STM32F4xx_HAL_Driver/Src/stm32f4xx_ll_usb.c ****       }       
 696:Drivers/STM32F4xx_HAL_Driver/Src/stm32f4xx_ll_usb.c ****     }
 697:Drivers/STM32F4xx_HAL_Driver/Src/stm32f4xx_ll_usb.c **** 
 698:Drivers/STM32F4xx_HAL_Driver/Src/stm32f4xx_ll_usb.c ****     if (dma == 1U)
 699:Drivers/STM32F4xx_HAL_Driver/Src/stm32f4xx_ll_usb.c ****     {
 700:Drivers/STM32F4xx_HAL_Driver/Src/stm32f4xx_ll_usb.c ****       USBx_INEP(ep->num)->DIEPDMA = (uint32_t)(ep->dma_addr);
 701:Drivers/STM32F4xx_HAL_Driver/Src/stm32f4xx_ll_usb.c ****     }
 702:Drivers/STM32F4xx_HAL_Driver/Src/stm32f4xx_ll_usb.c ****     else
 703:Drivers/STM32F4xx_HAL_Driver/Src/stm32f4xx_ll_usb.c ****     {
 704:Drivers/STM32F4xx_HAL_Driver/Src/stm32f4xx_ll_usb.c ****       if (ep->type != EP_TYPE_ISOC)
 705:Drivers/STM32F4xx_HAL_Driver/Src/stm32f4xx_ll_usb.c ****       {
 706:Drivers/STM32F4xx_HAL_Driver/Src/stm32f4xx_ll_usb.c ****         /* Enable the Tx FIFO Empty Interrupt for this EP */
 707:Drivers/STM32F4xx_HAL_Driver/Src/stm32f4xx_ll_usb.c ****         if (ep->xfer_len > 0U)
 708:Drivers/STM32F4xx_HAL_Driver/Src/stm32f4xx_ll_usb.c ****         {
 709:Drivers/STM32F4xx_HAL_Driver/Src/stm32f4xx_ll_usb.c ****           USBx_DEVICE->DIEPEMPMSK |= 1U << ep->num;
 710:Drivers/STM32F4xx_HAL_Driver/Src/stm32f4xx_ll_usb.c ****         }
 711:Drivers/STM32F4xx_HAL_Driver/Src/stm32f4xx_ll_usb.c ****       }
 712:Drivers/STM32F4xx_HAL_Driver/Src/stm32f4xx_ll_usb.c ****     }
 713:Drivers/STM32F4xx_HAL_Driver/Src/stm32f4xx_ll_usb.c **** 
ARM GAS  C:\Users\gx\AppData\Local\Temp\ccXSZ03x.s 			page 14


 714:Drivers/STM32F4xx_HAL_Driver/Src/stm32f4xx_ll_usb.c ****     if (ep->type == EP_TYPE_ISOC)
 715:Drivers/STM32F4xx_HAL_Driver/Src/stm32f4xx_ll_usb.c ****     {
 716:Drivers/STM32F4xx_HAL_Driver/Src/stm32f4xx_ll_usb.c ****       if ((USBx_DEVICE->DSTS & ( 1U << 8U )) == 0U)
 717:Drivers/STM32F4xx_HAL_Driver/Src/stm32f4xx_ll_usb.c ****       {
 718:Drivers/STM32F4xx_HAL_Driver/Src/stm32f4xx_ll_usb.c ****         USBx_INEP(ep->num)->DIEPCTL |= USB_OTG_DIEPCTL_SODDFRM;
 719:Drivers/STM32F4xx_HAL_Driver/Src/stm32f4xx_ll_usb.c ****       }
 720:Drivers/STM32F4xx_HAL_Driver/Src/stm32f4xx_ll_usb.c ****       else
 721:Drivers/STM32F4xx_HAL_Driver/Src/stm32f4xx_ll_usb.c ****       {
 722:Drivers/STM32F4xx_HAL_Driver/Src/stm32f4xx_ll_usb.c ****         USBx_INEP(ep->num)->DIEPCTL |= USB_OTG_DIEPCTL_SD0PID_SEVNFRM;
 723:Drivers/STM32F4xx_HAL_Driver/Src/stm32f4xx_ll_usb.c ****       }
 724:Drivers/STM32F4xx_HAL_Driver/Src/stm32f4xx_ll_usb.c ****     } 
 725:Drivers/STM32F4xx_HAL_Driver/Src/stm32f4xx_ll_usb.c ****     
 726:Drivers/STM32F4xx_HAL_Driver/Src/stm32f4xx_ll_usb.c ****     /* EP enable, IN data in FIFO */
 727:Drivers/STM32F4xx_HAL_Driver/Src/stm32f4xx_ll_usb.c ****     USBx_INEP(ep->num)->DIEPCTL |= (USB_OTG_DIEPCTL_CNAK | USB_OTG_DIEPCTL_EPENA);
 728:Drivers/STM32F4xx_HAL_Driver/Src/stm32f4xx_ll_usb.c ****     
 729:Drivers/STM32F4xx_HAL_Driver/Src/stm32f4xx_ll_usb.c ****     if (ep->type == EP_TYPE_ISOC)
 730:Drivers/STM32F4xx_HAL_Driver/Src/stm32f4xx_ll_usb.c ****     {
 731:Drivers/STM32F4xx_HAL_Driver/Src/stm32f4xx_ll_usb.c ****       USB_WritePacket(USBx, ep->xfer_buff, ep->num, ep->xfer_len, dma);   
 732:Drivers/STM32F4xx_HAL_Driver/Src/stm32f4xx_ll_usb.c ****     }    
 733:Drivers/STM32F4xx_HAL_Driver/Src/stm32f4xx_ll_usb.c ****   }
 734:Drivers/STM32F4xx_HAL_Driver/Src/stm32f4xx_ll_usb.c ****   else /* OUT endpoint */
 735:Drivers/STM32F4xx_HAL_Driver/Src/stm32f4xx_ll_usb.c ****   {
 736:Drivers/STM32F4xx_HAL_Driver/Src/stm32f4xx_ll_usb.c ****     /* Program the transfer size and packet count as follows:
 737:Drivers/STM32F4xx_HAL_Driver/Src/stm32f4xx_ll_usb.c ****     * pktcnt = N
 738:Drivers/STM32F4xx_HAL_Driver/Src/stm32f4xx_ll_usb.c ****     * xfersize = N * maxpacket
 739:Drivers/STM32F4xx_HAL_Driver/Src/stm32f4xx_ll_usb.c ****     */  
 740:Drivers/STM32F4xx_HAL_Driver/Src/stm32f4xx_ll_usb.c ****     USBx_OUTEP(ep->num)->DOEPTSIZ &= ~(USB_OTG_DOEPTSIZ_XFRSIZ); 
 741:Drivers/STM32F4xx_HAL_Driver/Src/stm32f4xx_ll_usb.c ****     USBx_OUTEP(ep->num)->DOEPTSIZ &= ~(USB_OTG_DOEPTSIZ_PKTCNT); 
 742:Drivers/STM32F4xx_HAL_Driver/Src/stm32f4xx_ll_usb.c **** 
 743:Drivers/STM32F4xx_HAL_Driver/Src/stm32f4xx_ll_usb.c ****     if (ep->xfer_len == 0U)
 744:Drivers/STM32F4xx_HAL_Driver/Src/stm32f4xx_ll_usb.c ****     {
 745:Drivers/STM32F4xx_HAL_Driver/Src/stm32f4xx_ll_usb.c ****       USBx_OUTEP(ep->num)->DOEPTSIZ |= (USB_OTG_DOEPTSIZ_XFRSIZ & ep->maxpacket);
 746:Drivers/STM32F4xx_HAL_Driver/Src/stm32f4xx_ll_usb.c ****       USBx_OUTEP(ep->num)->DOEPTSIZ |= (USB_OTG_DOEPTSIZ_PKTCNT & (1U << 19U));
 747:Drivers/STM32F4xx_HAL_Driver/Src/stm32f4xx_ll_usb.c ****     }
 748:Drivers/STM32F4xx_HAL_Driver/Src/stm32f4xx_ll_usb.c ****     else
 749:Drivers/STM32F4xx_HAL_Driver/Src/stm32f4xx_ll_usb.c ****     {
 750:Drivers/STM32F4xx_HAL_Driver/Src/stm32f4xx_ll_usb.c ****       pktcnt = (ep->xfer_len + ep->maxpacket -1U)/ ep->maxpacket; 
 751:Drivers/STM32F4xx_HAL_Driver/Src/stm32f4xx_ll_usb.c ****       USBx_OUTEP(ep->num)->DOEPTSIZ |= (USB_OTG_DOEPTSIZ_PKTCNT & (pktcnt << 19U));
 752:Drivers/STM32F4xx_HAL_Driver/Src/stm32f4xx_ll_usb.c ****       USBx_OUTEP(ep->num)->DOEPTSIZ |= (USB_OTG_DOEPTSIZ_XFRSIZ & (ep->maxpacket * pktcnt));
 753:Drivers/STM32F4xx_HAL_Driver/Src/stm32f4xx_ll_usb.c ****     }
 754:Drivers/STM32F4xx_HAL_Driver/Src/stm32f4xx_ll_usb.c **** 
 755:Drivers/STM32F4xx_HAL_Driver/Src/stm32f4xx_ll_usb.c ****     if (dma == 1U)
 756:Drivers/STM32F4xx_HAL_Driver/Src/stm32f4xx_ll_usb.c ****     {
 757:Drivers/STM32F4xx_HAL_Driver/Src/stm32f4xx_ll_usb.c ****       USBx_OUTEP(ep->num)->DOEPDMA = (uint32_t)ep->xfer_buff;
 758:Drivers/STM32F4xx_HAL_Driver/Src/stm32f4xx_ll_usb.c ****     }
 759:Drivers/STM32F4xx_HAL_Driver/Src/stm32f4xx_ll_usb.c ****     
 760:Drivers/STM32F4xx_HAL_Driver/Src/stm32f4xx_ll_usb.c ****     if (ep->type == EP_TYPE_ISOC)
 761:Drivers/STM32F4xx_HAL_Driver/Src/stm32f4xx_ll_usb.c ****     {
 762:Drivers/STM32F4xx_HAL_Driver/Src/stm32f4xx_ll_usb.c ****       if ((USBx_DEVICE->DSTS & ( 1U << 8U )) == 0U)
 763:Drivers/STM32F4xx_HAL_Driver/Src/stm32f4xx_ll_usb.c ****       {
 764:Drivers/STM32F4xx_HAL_Driver/Src/stm32f4xx_ll_usb.c ****         USBx_OUTEP(ep->num)->DOEPCTL |= USB_OTG_DOEPCTL_SODDFRM;
 765:Drivers/STM32F4xx_HAL_Driver/Src/stm32f4xx_ll_usb.c ****       }
 766:Drivers/STM32F4xx_HAL_Driver/Src/stm32f4xx_ll_usb.c ****       else
 767:Drivers/STM32F4xx_HAL_Driver/Src/stm32f4xx_ll_usb.c ****       {
 768:Drivers/STM32F4xx_HAL_Driver/Src/stm32f4xx_ll_usb.c ****         USBx_OUTEP(ep->num)->DOEPCTL |= USB_OTG_DOEPCTL_SD0PID_SEVNFRM;
 769:Drivers/STM32F4xx_HAL_Driver/Src/stm32f4xx_ll_usb.c ****       }
 770:Drivers/STM32F4xx_HAL_Driver/Src/stm32f4xx_ll_usb.c ****     }
ARM GAS  C:\Users\gx\AppData\Local\Temp\ccXSZ03x.s 			page 15


 771:Drivers/STM32F4xx_HAL_Driver/Src/stm32f4xx_ll_usb.c ****     /* EP enable */
 772:Drivers/STM32F4xx_HAL_Driver/Src/stm32f4xx_ll_usb.c ****     USBx_OUTEP(ep->num)->DOEPCTL |= (USB_OTG_DOEPCTL_CNAK | USB_OTG_DOEPCTL_EPENA);
 773:Drivers/STM32F4xx_HAL_Driver/Src/stm32f4xx_ll_usb.c ****   }
 774:Drivers/STM32F4xx_HAL_Driver/Src/stm32f4xx_ll_usb.c ****   return HAL_OK;
 775:Drivers/STM32F4xx_HAL_Driver/Src/stm32f4xx_ll_usb.c **** }
 776:Drivers/STM32F4xx_HAL_Driver/Src/stm32f4xx_ll_usb.c **** 
 777:Drivers/STM32F4xx_HAL_Driver/Src/stm32f4xx_ll_usb.c **** /**
 778:Drivers/STM32F4xx_HAL_Driver/Src/stm32f4xx_ll_usb.c ****   * @brief  USB_EP0StartXfer : setup and starts a transfer over the EP  0
 779:Drivers/STM32F4xx_HAL_Driver/Src/stm32f4xx_ll_usb.c ****   * @param  USBx  Selected device
 780:Drivers/STM32F4xx_HAL_Driver/Src/stm32f4xx_ll_usb.c ****   * @param  ep pointer to endpoint structure
 781:Drivers/STM32F4xx_HAL_Driver/Src/stm32f4xx_ll_usb.c ****   * @param  dma USB dma enabled or disabled 
 782:Drivers/STM32F4xx_HAL_Driver/Src/stm32f4xx_ll_usb.c ****   *          This parameter can be one of these values:
 783:Drivers/STM32F4xx_HAL_Driver/Src/stm32f4xx_ll_usb.c ****   *           0 : DMA feature not used 
 784:Drivers/STM32F4xx_HAL_Driver/Src/stm32f4xx_ll_usb.c ****   *           1 : DMA feature used  
 785:Drivers/STM32F4xx_HAL_Driver/Src/stm32f4xx_ll_usb.c ****   * @retval HAL status
 786:Drivers/STM32F4xx_HAL_Driver/Src/stm32f4xx_ll_usb.c ****   */
 787:Drivers/STM32F4xx_HAL_Driver/Src/stm32f4xx_ll_usb.c **** HAL_StatusTypeDef USB_EP0StartXfer(USB_OTG_GlobalTypeDef *USBx , USB_OTG_EPTypeDef *ep, uint8_t dma
 788:Drivers/STM32F4xx_HAL_Driver/Src/stm32f4xx_ll_usb.c **** {
 789:Drivers/STM32F4xx_HAL_Driver/Src/stm32f4xx_ll_usb.c ****   /* IN endpoint */
 790:Drivers/STM32F4xx_HAL_Driver/Src/stm32f4xx_ll_usb.c ****   if (ep->is_in == 1U)
 791:Drivers/STM32F4xx_HAL_Driver/Src/stm32f4xx_ll_usb.c ****   {
 792:Drivers/STM32F4xx_HAL_Driver/Src/stm32f4xx_ll_usb.c ****     /* Zero Length Packet? */
 793:Drivers/STM32F4xx_HAL_Driver/Src/stm32f4xx_ll_usb.c ****     if (ep->xfer_len == 0U)
 794:Drivers/STM32F4xx_HAL_Driver/Src/stm32f4xx_ll_usb.c ****     {
 795:Drivers/STM32F4xx_HAL_Driver/Src/stm32f4xx_ll_usb.c ****       USBx_INEP(ep->num)->DIEPTSIZ &= ~(USB_OTG_DIEPTSIZ_PKTCNT); 
 796:Drivers/STM32F4xx_HAL_Driver/Src/stm32f4xx_ll_usb.c ****       USBx_INEP(ep->num)->DIEPTSIZ |= (USB_OTG_DIEPTSIZ_PKTCNT & (1U << 19U)) ;
 797:Drivers/STM32F4xx_HAL_Driver/Src/stm32f4xx_ll_usb.c ****       USBx_INEP(ep->num)->DIEPTSIZ &= ~(USB_OTG_DIEPTSIZ_XFRSIZ); 
 798:Drivers/STM32F4xx_HAL_Driver/Src/stm32f4xx_ll_usb.c ****     }
 799:Drivers/STM32F4xx_HAL_Driver/Src/stm32f4xx_ll_usb.c ****     else
 800:Drivers/STM32F4xx_HAL_Driver/Src/stm32f4xx_ll_usb.c ****     {
 801:Drivers/STM32F4xx_HAL_Driver/Src/stm32f4xx_ll_usb.c ****       /* Program the transfer size and packet count
 802:Drivers/STM32F4xx_HAL_Driver/Src/stm32f4xx_ll_usb.c ****       * as follows: xfersize = N * maxpacket +
 803:Drivers/STM32F4xx_HAL_Driver/Src/stm32f4xx_ll_usb.c ****       * short_packet pktcnt = N + (short_packet
 804:Drivers/STM32F4xx_HAL_Driver/Src/stm32f4xx_ll_usb.c ****       * exist ? 1 : 0)
 805:Drivers/STM32F4xx_HAL_Driver/Src/stm32f4xx_ll_usb.c ****       */
 806:Drivers/STM32F4xx_HAL_Driver/Src/stm32f4xx_ll_usb.c ****       USBx_INEP(ep->num)->DIEPTSIZ &= ~(USB_OTG_DIEPTSIZ_XFRSIZ);
 807:Drivers/STM32F4xx_HAL_Driver/Src/stm32f4xx_ll_usb.c ****       USBx_INEP(ep->num)->DIEPTSIZ &= ~(USB_OTG_DIEPTSIZ_PKTCNT); 
 808:Drivers/STM32F4xx_HAL_Driver/Src/stm32f4xx_ll_usb.c ****       
 809:Drivers/STM32F4xx_HAL_Driver/Src/stm32f4xx_ll_usb.c ****       if(ep->xfer_len > ep->maxpacket)
 810:Drivers/STM32F4xx_HAL_Driver/Src/stm32f4xx_ll_usb.c ****       {
 811:Drivers/STM32F4xx_HAL_Driver/Src/stm32f4xx_ll_usb.c ****         ep->xfer_len = ep->maxpacket;
 812:Drivers/STM32F4xx_HAL_Driver/Src/stm32f4xx_ll_usb.c ****       }
 813:Drivers/STM32F4xx_HAL_Driver/Src/stm32f4xx_ll_usb.c ****       USBx_INEP(ep->num)->DIEPTSIZ |= (USB_OTG_DIEPTSIZ_PKTCNT & (1U << 19U)) ;
 814:Drivers/STM32F4xx_HAL_Driver/Src/stm32f4xx_ll_usb.c ****       USBx_INEP(ep->num)->DIEPTSIZ |= (USB_OTG_DIEPTSIZ_XFRSIZ & ep->xfer_len); 
 815:Drivers/STM32F4xx_HAL_Driver/Src/stm32f4xx_ll_usb.c ****     
 816:Drivers/STM32F4xx_HAL_Driver/Src/stm32f4xx_ll_usb.c ****     }
 817:Drivers/STM32F4xx_HAL_Driver/Src/stm32f4xx_ll_usb.c ****     
 818:Drivers/STM32F4xx_HAL_Driver/Src/stm32f4xx_ll_usb.c ****     /* EP enable, IN data in FIFO */
 819:Drivers/STM32F4xx_HAL_Driver/Src/stm32f4xx_ll_usb.c ****     USBx_INEP(ep->num)->DIEPCTL |= (USB_OTG_DIEPCTL_CNAK | USB_OTG_DIEPCTL_EPENA);     
 820:Drivers/STM32F4xx_HAL_Driver/Src/stm32f4xx_ll_usb.c ****     
 821:Drivers/STM32F4xx_HAL_Driver/Src/stm32f4xx_ll_usb.c ****     if (dma == 1)
 822:Drivers/STM32F4xx_HAL_Driver/Src/stm32f4xx_ll_usb.c ****     {
 823:Drivers/STM32F4xx_HAL_Driver/Src/stm32f4xx_ll_usb.c ****       USBx_INEP(ep->num)->DIEPDMA = (uint32_t)(ep->dma_addr);
 824:Drivers/STM32F4xx_HAL_Driver/Src/stm32f4xx_ll_usb.c ****     }
 825:Drivers/STM32F4xx_HAL_Driver/Src/stm32f4xx_ll_usb.c ****     else
 826:Drivers/STM32F4xx_HAL_Driver/Src/stm32f4xx_ll_usb.c ****     {
 827:Drivers/STM32F4xx_HAL_Driver/Src/stm32f4xx_ll_usb.c ****       /* Enable the Tx FIFO Empty Interrupt for this EP */
ARM GAS  C:\Users\gx\AppData\Local\Temp\ccXSZ03x.s 			page 16


 828:Drivers/STM32F4xx_HAL_Driver/Src/stm32f4xx_ll_usb.c ****       if (ep->xfer_len > 0U)
 829:Drivers/STM32F4xx_HAL_Driver/Src/stm32f4xx_ll_usb.c ****       {
 830:Drivers/STM32F4xx_HAL_Driver/Src/stm32f4xx_ll_usb.c ****         USBx_DEVICE->DIEPEMPMSK |= 1U << (ep->num);
 831:Drivers/STM32F4xx_HAL_Driver/Src/stm32f4xx_ll_usb.c ****       }
 832:Drivers/STM32F4xx_HAL_Driver/Src/stm32f4xx_ll_usb.c ****     }
 833:Drivers/STM32F4xx_HAL_Driver/Src/stm32f4xx_ll_usb.c ****   }
 834:Drivers/STM32F4xx_HAL_Driver/Src/stm32f4xx_ll_usb.c ****   
 835:Drivers/STM32F4xx_HAL_Driver/Src/stm32f4xx_ll_usb.c ****   else /* OUT endpoint */
 836:Drivers/STM32F4xx_HAL_Driver/Src/stm32f4xx_ll_usb.c ****   {
 837:Drivers/STM32F4xx_HAL_Driver/Src/stm32f4xx_ll_usb.c ****     /* Program the transfer size and packet count as follows:
 838:Drivers/STM32F4xx_HAL_Driver/Src/stm32f4xx_ll_usb.c ****     * pktcnt = N
 839:Drivers/STM32F4xx_HAL_Driver/Src/stm32f4xx_ll_usb.c ****     * xfersize = N * maxpacket
 840:Drivers/STM32F4xx_HAL_Driver/Src/stm32f4xx_ll_usb.c ****     */
 841:Drivers/STM32F4xx_HAL_Driver/Src/stm32f4xx_ll_usb.c ****     USBx_OUTEP(ep->num)->DOEPTSIZ &= ~(USB_OTG_DOEPTSIZ_XFRSIZ); 
 842:Drivers/STM32F4xx_HAL_Driver/Src/stm32f4xx_ll_usb.c ****     USBx_OUTEP(ep->num)->DOEPTSIZ &= ~(USB_OTG_DOEPTSIZ_PKTCNT); 
 843:Drivers/STM32F4xx_HAL_Driver/Src/stm32f4xx_ll_usb.c ****       
 844:Drivers/STM32F4xx_HAL_Driver/Src/stm32f4xx_ll_usb.c ****     if (ep->xfer_len > 0U)
 845:Drivers/STM32F4xx_HAL_Driver/Src/stm32f4xx_ll_usb.c ****     {
 846:Drivers/STM32F4xx_HAL_Driver/Src/stm32f4xx_ll_usb.c ****       ep->xfer_len = ep->maxpacket;
 847:Drivers/STM32F4xx_HAL_Driver/Src/stm32f4xx_ll_usb.c ****     }
 848:Drivers/STM32F4xx_HAL_Driver/Src/stm32f4xx_ll_usb.c ****     
 849:Drivers/STM32F4xx_HAL_Driver/Src/stm32f4xx_ll_usb.c ****     USBx_OUTEP(ep->num)->DOEPTSIZ |= (USB_OTG_DOEPTSIZ_PKTCNT & (1U << 19U));
 850:Drivers/STM32F4xx_HAL_Driver/Src/stm32f4xx_ll_usb.c ****     USBx_OUTEP(ep->num)->DOEPTSIZ |= (USB_OTG_DOEPTSIZ_XFRSIZ & (ep->maxpacket)); 
 851:Drivers/STM32F4xx_HAL_Driver/Src/stm32f4xx_ll_usb.c ****     
 852:Drivers/STM32F4xx_HAL_Driver/Src/stm32f4xx_ll_usb.c **** 
 853:Drivers/STM32F4xx_HAL_Driver/Src/stm32f4xx_ll_usb.c ****     if (dma == 1U)
 854:Drivers/STM32F4xx_HAL_Driver/Src/stm32f4xx_ll_usb.c ****     {
 855:Drivers/STM32F4xx_HAL_Driver/Src/stm32f4xx_ll_usb.c ****       USBx_OUTEP(ep->num)->DOEPDMA = (uint32_t)(ep->xfer_buff);
 856:Drivers/STM32F4xx_HAL_Driver/Src/stm32f4xx_ll_usb.c ****     }
 857:Drivers/STM32F4xx_HAL_Driver/Src/stm32f4xx_ll_usb.c ****     
 858:Drivers/STM32F4xx_HAL_Driver/Src/stm32f4xx_ll_usb.c ****     /* EP enable */
 859:Drivers/STM32F4xx_HAL_Driver/Src/stm32f4xx_ll_usb.c ****     USBx_OUTEP(ep->num)->DOEPCTL |= (USB_OTG_DOEPCTL_CNAK | USB_OTG_DOEPCTL_EPENA);    
 860:Drivers/STM32F4xx_HAL_Driver/Src/stm32f4xx_ll_usb.c ****   }
 861:Drivers/STM32F4xx_HAL_Driver/Src/stm32f4xx_ll_usb.c ****   return HAL_OK;
 862:Drivers/STM32F4xx_HAL_Driver/Src/stm32f4xx_ll_usb.c **** }
 863:Drivers/STM32F4xx_HAL_Driver/Src/stm32f4xx_ll_usb.c **** 
 864:Drivers/STM32F4xx_HAL_Driver/Src/stm32f4xx_ll_usb.c **** /**
 865:Drivers/STM32F4xx_HAL_Driver/Src/stm32f4xx_ll_usb.c ****   * @brief  USB_WritePacket : Writes a packet into the Tx FIFO associated 
 866:Drivers/STM32F4xx_HAL_Driver/Src/stm32f4xx_ll_usb.c ****   *         with the EP/channel
 867:Drivers/STM32F4xx_HAL_Driver/Src/stm32f4xx_ll_usb.c ****   * @param  USBx  Selected device           
 868:Drivers/STM32F4xx_HAL_Driver/Src/stm32f4xx_ll_usb.c ****   * @param  src   pointer to source buffer
 869:Drivers/STM32F4xx_HAL_Driver/Src/stm32f4xx_ll_usb.c ****   * @param  ch_ep_num  endpoint or host channel number
 870:Drivers/STM32F4xx_HAL_Driver/Src/stm32f4xx_ll_usb.c ****   * @param  len  Number of bytes to write
 871:Drivers/STM32F4xx_HAL_Driver/Src/stm32f4xx_ll_usb.c ****   * @param  dma USB dma enabled or disabled 
 872:Drivers/STM32F4xx_HAL_Driver/Src/stm32f4xx_ll_usb.c ****   *          This parameter can be one of these values:
 873:Drivers/STM32F4xx_HAL_Driver/Src/stm32f4xx_ll_usb.c ****   *           0 : DMA feature not used 
 874:Drivers/STM32F4xx_HAL_Driver/Src/stm32f4xx_ll_usb.c ****   *           1 : DMA feature used  
 875:Drivers/STM32F4xx_HAL_Driver/Src/stm32f4xx_ll_usb.c ****   * @retval HAL status
 876:Drivers/STM32F4xx_HAL_Driver/Src/stm32f4xx_ll_usb.c ****   */
 877:Drivers/STM32F4xx_HAL_Driver/Src/stm32f4xx_ll_usb.c **** HAL_StatusTypeDef USB_WritePacket(USB_OTG_GlobalTypeDef *USBx, uint8_t *src, uint8_t ch_ep_num, uin
 878:Drivers/STM32F4xx_HAL_Driver/Src/stm32f4xx_ll_usb.c **** {
 879:Drivers/STM32F4xx_HAL_Driver/Src/stm32f4xx_ll_usb.c ****   uint32_t count32b = 0U , i = 0U;
 880:Drivers/STM32F4xx_HAL_Driver/Src/stm32f4xx_ll_usb.c ****   
 881:Drivers/STM32F4xx_HAL_Driver/Src/stm32f4xx_ll_usb.c ****   if (dma == 0U)
 882:Drivers/STM32F4xx_HAL_Driver/Src/stm32f4xx_ll_usb.c ****   {
 883:Drivers/STM32F4xx_HAL_Driver/Src/stm32f4xx_ll_usb.c ****     count32b =  (len + 3U) / 4U;
 884:Drivers/STM32F4xx_HAL_Driver/Src/stm32f4xx_ll_usb.c ****     for (i = 0U; i < count32b; i++, src += 4U)
ARM GAS  C:\Users\gx\AppData\Local\Temp\ccXSZ03x.s 			page 17


 885:Drivers/STM32F4xx_HAL_Driver/Src/stm32f4xx_ll_usb.c ****     {
 886:Drivers/STM32F4xx_HAL_Driver/Src/stm32f4xx_ll_usb.c ****       USBx_DFIFO(ch_ep_num) = *((__packed uint32_t *)src);
 887:Drivers/STM32F4xx_HAL_Driver/Src/stm32f4xx_ll_usb.c ****     }
 888:Drivers/STM32F4xx_HAL_Driver/Src/stm32f4xx_ll_usb.c ****   }
 889:Drivers/STM32F4xx_HAL_Driver/Src/stm32f4xx_ll_usb.c ****   return HAL_OK;
 890:Drivers/STM32F4xx_HAL_Driver/Src/stm32f4xx_ll_usb.c **** }
 891:Drivers/STM32F4xx_HAL_Driver/Src/stm32f4xx_ll_usb.c **** 
 892:Drivers/STM32F4xx_HAL_Driver/Src/stm32f4xx_ll_usb.c **** /**
 893:Drivers/STM32F4xx_HAL_Driver/Src/stm32f4xx_ll_usb.c ****   * @brief  USB_ReadPacket : read a packet from the Tx FIFO associated 
 894:Drivers/STM32F4xx_HAL_Driver/Src/stm32f4xx_ll_usb.c ****   *         with the EP/channel
 895:Drivers/STM32F4xx_HAL_Driver/Src/stm32f4xx_ll_usb.c ****   * @param  USBx  Selected device  
 896:Drivers/STM32F4xx_HAL_Driver/Src/stm32f4xx_ll_usb.c ****   * @param  src  source pointer
 897:Drivers/STM32F4xx_HAL_Driver/Src/stm32f4xx_ll_usb.c ****   * @param  ch_ep_num  endpoint or host channel number
 898:Drivers/STM32F4xx_HAL_Driver/Src/stm32f4xx_ll_usb.c ****   * @param  len  Number of bytes to read
 899:Drivers/STM32F4xx_HAL_Driver/Src/stm32f4xx_ll_usb.c ****   * @param  dma USB dma enabled or disabled 
 900:Drivers/STM32F4xx_HAL_Driver/Src/stm32f4xx_ll_usb.c ****   *          This parameter can be one of these values:
 901:Drivers/STM32F4xx_HAL_Driver/Src/stm32f4xx_ll_usb.c ****   *           0 : DMA feature not used 
 902:Drivers/STM32F4xx_HAL_Driver/Src/stm32f4xx_ll_usb.c ****   *           1 : DMA feature used  
 903:Drivers/STM32F4xx_HAL_Driver/Src/stm32f4xx_ll_usb.c ****   * @retval pointer to destination buffer
 904:Drivers/STM32F4xx_HAL_Driver/Src/stm32f4xx_ll_usb.c ****   */
 905:Drivers/STM32F4xx_HAL_Driver/Src/stm32f4xx_ll_usb.c **** void *USB_ReadPacket(USB_OTG_GlobalTypeDef *USBx, uint8_t *dest, uint16_t len)
 906:Drivers/STM32F4xx_HAL_Driver/Src/stm32f4xx_ll_usb.c **** {
 907:Drivers/STM32F4xx_HAL_Driver/Src/stm32f4xx_ll_usb.c ****   uint32_t i=0U;
 908:Drivers/STM32F4xx_HAL_Driver/Src/stm32f4xx_ll_usb.c ****   uint32_t count32b = (len + 3U) / 4U;
 909:Drivers/STM32F4xx_HAL_Driver/Src/stm32f4xx_ll_usb.c ****   
 910:Drivers/STM32F4xx_HAL_Driver/Src/stm32f4xx_ll_usb.c ****   for ( i = 0U; i < count32b; i++, dest += 4U )
 911:Drivers/STM32F4xx_HAL_Driver/Src/stm32f4xx_ll_usb.c ****   {
 912:Drivers/STM32F4xx_HAL_Driver/Src/stm32f4xx_ll_usb.c ****     *(__packed uint32_t *)dest = USBx_DFIFO(0U);
 913:Drivers/STM32F4xx_HAL_Driver/Src/stm32f4xx_ll_usb.c ****     
 914:Drivers/STM32F4xx_HAL_Driver/Src/stm32f4xx_ll_usb.c ****   }
 915:Drivers/STM32F4xx_HAL_Driver/Src/stm32f4xx_ll_usb.c ****   return ((void *)dest);
 916:Drivers/STM32F4xx_HAL_Driver/Src/stm32f4xx_ll_usb.c **** }
 917:Drivers/STM32F4xx_HAL_Driver/Src/stm32f4xx_ll_usb.c **** 
 918:Drivers/STM32F4xx_HAL_Driver/Src/stm32f4xx_ll_usb.c **** /**
 919:Drivers/STM32F4xx_HAL_Driver/Src/stm32f4xx_ll_usb.c ****   * @brief  USB_EPSetStall : set a stall condition over an EP
 920:Drivers/STM32F4xx_HAL_Driver/Src/stm32f4xx_ll_usb.c ****   * @param  USBx  Selected device
 921:Drivers/STM32F4xx_HAL_Driver/Src/stm32f4xx_ll_usb.c ****   * @param  ep pointer to endpoint structure   
 922:Drivers/STM32F4xx_HAL_Driver/Src/stm32f4xx_ll_usb.c ****   * @retval HAL status
 923:Drivers/STM32F4xx_HAL_Driver/Src/stm32f4xx_ll_usb.c ****   */
 924:Drivers/STM32F4xx_HAL_Driver/Src/stm32f4xx_ll_usb.c **** HAL_StatusTypeDef USB_EPSetStall(USB_OTG_GlobalTypeDef *USBx , USB_OTG_EPTypeDef *ep)
 925:Drivers/STM32F4xx_HAL_Driver/Src/stm32f4xx_ll_usb.c **** {
 926:Drivers/STM32F4xx_HAL_Driver/Src/stm32f4xx_ll_usb.c ****   if (ep->is_in == 1U)
 927:Drivers/STM32F4xx_HAL_Driver/Src/stm32f4xx_ll_usb.c ****   {
 928:Drivers/STM32F4xx_HAL_Driver/Src/stm32f4xx_ll_usb.c ****     if (((USBx_INEP(ep->num)->DIEPCTL) & USB_OTG_DIEPCTL_EPENA) == 0U)
 929:Drivers/STM32F4xx_HAL_Driver/Src/stm32f4xx_ll_usb.c ****     {
 930:Drivers/STM32F4xx_HAL_Driver/Src/stm32f4xx_ll_usb.c ****       USBx_INEP(ep->num)->DIEPCTL &= ~(USB_OTG_DIEPCTL_EPDIS); 
 931:Drivers/STM32F4xx_HAL_Driver/Src/stm32f4xx_ll_usb.c ****     } 
 932:Drivers/STM32F4xx_HAL_Driver/Src/stm32f4xx_ll_usb.c ****     USBx_INEP(ep->num)->DIEPCTL |= USB_OTG_DIEPCTL_STALL;
 933:Drivers/STM32F4xx_HAL_Driver/Src/stm32f4xx_ll_usb.c ****   }
 934:Drivers/STM32F4xx_HAL_Driver/Src/stm32f4xx_ll_usb.c ****   else
 935:Drivers/STM32F4xx_HAL_Driver/Src/stm32f4xx_ll_usb.c ****   {
 936:Drivers/STM32F4xx_HAL_Driver/Src/stm32f4xx_ll_usb.c ****     if (((USBx_OUTEP(ep->num)->DOEPCTL) & USB_OTG_DOEPCTL_EPENA) == 0U)
 937:Drivers/STM32F4xx_HAL_Driver/Src/stm32f4xx_ll_usb.c ****     {
 938:Drivers/STM32F4xx_HAL_Driver/Src/stm32f4xx_ll_usb.c ****       USBx_OUTEP(ep->num)->DOEPCTL &= ~(USB_OTG_DOEPCTL_EPDIS); 
 939:Drivers/STM32F4xx_HAL_Driver/Src/stm32f4xx_ll_usb.c ****     } 
 940:Drivers/STM32F4xx_HAL_Driver/Src/stm32f4xx_ll_usb.c ****     USBx_OUTEP(ep->num)->DOEPCTL |= USB_OTG_DOEPCTL_STALL;
 941:Drivers/STM32F4xx_HAL_Driver/Src/stm32f4xx_ll_usb.c ****   }
ARM GAS  C:\Users\gx\AppData\Local\Temp\ccXSZ03x.s 			page 18


 942:Drivers/STM32F4xx_HAL_Driver/Src/stm32f4xx_ll_usb.c ****   return HAL_OK;
 943:Drivers/STM32F4xx_HAL_Driver/Src/stm32f4xx_ll_usb.c **** }
 944:Drivers/STM32F4xx_HAL_Driver/Src/stm32f4xx_ll_usb.c **** 
 945:Drivers/STM32F4xx_HAL_Driver/Src/stm32f4xx_ll_usb.c **** 
 946:Drivers/STM32F4xx_HAL_Driver/Src/stm32f4xx_ll_usb.c **** /**
 947:Drivers/STM32F4xx_HAL_Driver/Src/stm32f4xx_ll_usb.c ****   * @brief  USB_EPClearStall : Clear a stall condition over an EP
 948:Drivers/STM32F4xx_HAL_Driver/Src/stm32f4xx_ll_usb.c ****   * @param  USBx  Selected device
 949:Drivers/STM32F4xx_HAL_Driver/Src/stm32f4xx_ll_usb.c ****   * @param  ep pointer to endpoint structure   
 950:Drivers/STM32F4xx_HAL_Driver/Src/stm32f4xx_ll_usb.c ****   * @retval HAL status
 951:Drivers/STM32F4xx_HAL_Driver/Src/stm32f4xx_ll_usb.c ****   */
 952:Drivers/STM32F4xx_HAL_Driver/Src/stm32f4xx_ll_usb.c **** HAL_StatusTypeDef USB_EPClearStall(USB_OTG_GlobalTypeDef *USBx, USB_OTG_EPTypeDef *ep)
 953:Drivers/STM32F4xx_HAL_Driver/Src/stm32f4xx_ll_usb.c **** {
 954:Drivers/STM32F4xx_HAL_Driver/Src/stm32f4xx_ll_usb.c ****   if (ep->is_in == 1U)
 955:Drivers/STM32F4xx_HAL_Driver/Src/stm32f4xx_ll_usb.c ****   {
 956:Drivers/STM32F4xx_HAL_Driver/Src/stm32f4xx_ll_usb.c ****     USBx_INEP(ep->num)->DIEPCTL &= ~USB_OTG_DIEPCTL_STALL;
 957:Drivers/STM32F4xx_HAL_Driver/Src/stm32f4xx_ll_usb.c ****     if (ep->type == EP_TYPE_INTR || ep->type == EP_TYPE_BULK)
 958:Drivers/STM32F4xx_HAL_Driver/Src/stm32f4xx_ll_usb.c ****     {
 959:Drivers/STM32F4xx_HAL_Driver/Src/stm32f4xx_ll_usb.c ****        USBx_INEP(ep->num)->DIEPCTL |= USB_OTG_DIEPCTL_SD0PID_SEVNFRM; /* DATA0 */
 960:Drivers/STM32F4xx_HAL_Driver/Src/stm32f4xx_ll_usb.c ****     }    
 961:Drivers/STM32F4xx_HAL_Driver/Src/stm32f4xx_ll_usb.c ****   }
 962:Drivers/STM32F4xx_HAL_Driver/Src/stm32f4xx_ll_usb.c ****   else
 963:Drivers/STM32F4xx_HAL_Driver/Src/stm32f4xx_ll_usb.c ****   {
 964:Drivers/STM32F4xx_HAL_Driver/Src/stm32f4xx_ll_usb.c ****     USBx_OUTEP(ep->num)->DOEPCTL &= ~USB_OTG_DOEPCTL_STALL;
 965:Drivers/STM32F4xx_HAL_Driver/Src/stm32f4xx_ll_usb.c ****     if (ep->type == EP_TYPE_INTR || ep->type == EP_TYPE_BULK)
 966:Drivers/STM32F4xx_HAL_Driver/Src/stm32f4xx_ll_usb.c ****     {
 967:Drivers/STM32F4xx_HAL_Driver/Src/stm32f4xx_ll_usb.c ****       USBx_OUTEP(ep->num)->DOEPCTL |= USB_OTG_DOEPCTL_SD0PID_SEVNFRM; /* DATA0 */
 968:Drivers/STM32F4xx_HAL_Driver/Src/stm32f4xx_ll_usb.c ****     }    
 969:Drivers/STM32F4xx_HAL_Driver/Src/stm32f4xx_ll_usb.c ****   }
 970:Drivers/STM32F4xx_HAL_Driver/Src/stm32f4xx_ll_usb.c ****   return HAL_OK;
 971:Drivers/STM32F4xx_HAL_Driver/Src/stm32f4xx_ll_usb.c **** }
 972:Drivers/STM32F4xx_HAL_Driver/Src/stm32f4xx_ll_usb.c **** 
 973:Drivers/STM32F4xx_HAL_Driver/Src/stm32f4xx_ll_usb.c **** /**
 974:Drivers/STM32F4xx_HAL_Driver/Src/stm32f4xx_ll_usb.c ****   * @brief  USB_StopDevice : Stop the usb device mode
 975:Drivers/STM32F4xx_HAL_Driver/Src/stm32f4xx_ll_usb.c ****   * @param  USBx  Selected device
 976:Drivers/STM32F4xx_HAL_Driver/Src/stm32f4xx_ll_usb.c ****   * @retval HAL status
 977:Drivers/STM32F4xx_HAL_Driver/Src/stm32f4xx_ll_usb.c ****   */
 978:Drivers/STM32F4xx_HAL_Driver/Src/stm32f4xx_ll_usb.c **** HAL_StatusTypeDef USB_StopDevice(USB_OTG_GlobalTypeDef *USBx)
 979:Drivers/STM32F4xx_HAL_Driver/Src/stm32f4xx_ll_usb.c **** {
 980:Drivers/STM32F4xx_HAL_Driver/Src/stm32f4xx_ll_usb.c ****   uint32_t i;
 981:Drivers/STM32F4xx_HAL_Driver/Src/stm32f4xx_ll_usb.c ****   
 982:Drivers/STM32F4xx_HAL_Driver/Src/stm32f4xx_ll_usb.c ****   /* Clear Pending interrupt */
 983:Drivers/STM32F4xx_HAL_Driver/Src/stm32f4xx_ll_usb.c ****   for (i = 0U; i < 15U ; i++)
 984:Drivers/STM32F4xx_HAL_Driver/Src/stm32f4xx_ll_usb.c ****   {
 985:Drivers/STM32F4xx_HAL_Driver/Src/stm32f4xx_ll_usb.c ****     USBx_INEP(i)->DIEPINT  = 0xFFU;
 986:Drivers/STM32F4xx_HAL_Driver/Src/stm32f4xx_ll_usb.c ****     USBx_OUTEP(i)->DOEPINT  = 0xFFU;
 987:Drivers/STM32F4xx_HAL_Driver/Src/stm32f4xx_ll_usb.c ****   }
 988:Drivers/STM32F4xx_HAL_Driver/Src/stm32f4xx_ll_usb.c ****   USBx_DEVICE->DAINT = 0xFFFFFFFFU;
 989:Drivers/STM32F4xx_HAL_Driver/Src/stm32f4xx_ll_usb.c ****   
 990:Drivers/STM32F4xx_HAL_Driver/Src/stm32f4xx_ll_usb.c ****   /* Clear interrupt masks */
 991:Drivers/STM32F4xx_HAL_Driver/Src/stm32f4xx_ll_usb.c ****   USBx_DEVICE->DIEPMSK  = 0U;
 992:Drivers/STM32F4xx_HAL_Driver/Src/stm32f4xx_ll_usb.c ****   USBx_DEVICE->DOEPMSK  = 0U;
 993:Drivers/STM32F4xx_HAL_Driver/Src/stm32f4xx_ll_usb.c ****   USBx_DEVICE->DAINTMSK = 0U;
 994:Drivers/STM32F4xx_HAL_Driver/Src/stm32f4xx_ll_usb.c ****   
 995:Drivers/STM32F4xx_HAL_Driver/Src/stm32f4xx_ll_usb.c ****   /* Flush the FIFO */
 996:Drivers/STM32F4xx_HAL_Driver/Src/stm32f4xx_ll_usb.c ****   USB_FlushRxFifo(USBx);
 997:Drivers/STM32F4xx_HAL_Driver/Src/stm32f4xx_ll_usb.c ****   USB_FlushTxFifo(USBx ,  0x10U);  
 998:Drivers/STM32F4xx_HAL_Driver/Src/stm32f4xx_ll_usb.c ****   
ARM GAS  C:\Users\gx\AppData\Local\Temp\ccXSZ03x.s 			page 19


 999:Drivers/STM32F4xx_HAL_Driver/Src/stm32f4xx_ll_usb.c ****   return HAL_OK;
1000:Drivers/STM32F4xx_HAL_Driver/Src/stm32f4xx_ll_usb.c **** }
1001:Drivers/STM32F4xx_HAL_Driver/Src/stm32f4xx_ll_usb.c **** 
1002:Drivers/STM32F4xx_HAL_Driver/Src/stm32f4xx_ll_usb.c **** /**
1003:Drivers/STM32F4xx_HAL_Driver/Src/stm32f4xx_ll_usb.c ****   * @brief  USB_SetDevAddress : Stop the usb device mode
1004:Drivers/STM32F4xx_HAL_Driver/Src/stm32f4xx_ll_usb.c ****   * @param  USBx  Selected device
1005:Drivers/STM32F4xx_HAL_Driver/Src/stm32f4xx_ll_usb.c ****   * @param  address  new device address to be assigned
1006:Drivers/STM32F4xx_HAL_Driver/Src/stm32f4xx_ll_usb.c ****   *          This parameter can be a value from 0 to 255
1007:Drivers/STM32F4xx_HAL_Driver/Src/stm32f4xx_ll_usb.c ****   * @retval HAL status
1008:Drivers/STM32F4xx_HAL_Driver/Src/stm32f4xx_ll_usb.c ****   */
1009:Drivers/STM32F4xx_HAL_Driver/Src/stm32f4xx_ll_usb.c **** HAL_StatusTypeDef  USB_SetDevAddress (USB_OTG_GlobalTypeDef *USBx, uint8_t address)
1010:Drivers/STM32F4xx_HAL_Driver/Src/stm32f4xx_ll_usb.c **** {
1011:Drivers/STM32F4xx_HAL_Driver/Src/stm32f4xx_ll_usb.c ****   USBx_DEVICE->DCFG &= ~ (USB_OTG_DCFG_DAD);
1012:Drivers/STM32F4xx_HAL_Driver/Src/stm32f4xx_ll_usb.c ****   USBx_DEVICE->DCFG |= (address << 4U) & USB_OTG_DCFG_DAD ;
1013:Drivers/STM32F4xx_HAL_Driver/Src/stm32f4xx_ll_usb.c ****   
1014:Drivers/STM32F4xx_HAL_Driver/Src/stm32f4xx_ll_usb.c ****   return HAL_OK;  
1015:Drivers/STM32F4xx_HAL_Driver/Src/stm32f4xx_ll_usb.c **** }
1016:Drivers/STM32F4xx_HAL_Driver/Src/stm32f4xx_ll_usb.c **** 
1017:Drivers/STM32F4xx_HAL_Driver/Src/stm32f4xx_ll_usb.c **** /**
1018:Drivers/STM32F4xx_HAL_Driver/Src/stm32f4xx_ll_usb.c ****   * @brief  USB_DevConnect : Connect the USB device by enabling the pull-up/pull-down
1019:Drivers/STM32F4xx_HAL_Driver/Src/stm32f4xx_ll_usb.c ****   * @param  USBx  Selected device
1020:Drivers/STM32F4xx_HAL_Driver/Src/stm32f4xx_ll_usb.c ****   * @retval HAL status
1021:Drivers/STM32F4xx_HAL_Driver/Src/stm32f4xx_ll_usb.c ****   */
1022:Drivers/STM32F4xx_HAL_Driver/Src/stm32f4xx_ll_usb.c **** HAL_StatusTypeDef  USB_DevConnect (USB_OTG_GlobalTypeDef *USBx)
1023:Drivers/STM32F4xx_HAL_Driver/Src/stm32f4xx_ll_usb.c **** {
1024:Drivers/STM32F4xx_HAL_Driver/Src/stm32f4xx_ll_usb.c ****   USBx_DEVICE->DCTL &= ~USB_OTG_DCTL_SDIS ;
1025:Drivers/STM32F4xx_HAL_Driver/Src/stm32f4xx_ll_usb.c ****   HAL_Delay(3U);
1026:Drivers/STM32F4xx_HAL_Driver/Src/stm32f4xx_ll_usb.c ****   
1027:Drivers/STM32F4xx_HAL_Driver/Src/stm32f4xx_ll_usb.c ****   return HAL_OK;  
1028:Drivers/STM32F4xx_HAL_Driver/Src/stm32f4xx_ll_usb.c **** }
1029:Drivers/STM32F4xx_HAL_Driver/Src/stm32f4xx_ll_usb.c **** 
1030:Drivers/STM32F4xx_HAL_Driver/Src/stm32f4xx_ll_usb.c **** /**
1031:Drivers/STM32F4xx_HAL_Driver/Src/stm32f4xx_ll_usb.c ****   * @brief  USB_DevDisconnect : Disconnect the USB device by disabling the pull-up/pull-down
1032:Drivers/STM32F4xx_HAL_Driver/Src/stm32f4xx_ll_usb.c ****   * @param  USBx  Selected device
1033:Drivers/STM32F4xx_HAL_Driver/Src/stm32f4xx_ll_usb.c ****   * @retval HAL status
1034:Drivers/STM32F4xx_HAL_Driver/Src/stm32f4xx_ll_usb.c ****   */
1035:Drivers/STM32F4xx_HAL_Driver/Src/stm32f4xx_ll_usb.c **** HAL_StatusTypeDef  USB_DevDisconnect (USB_OTG_GlobalTypeDef *USBx)
1036:Drivers/STM32F4xx_HAL_Driver/Src/stm32f4xx_ll_usb.c **** {
1037:Drivers/STM32F4xx_HAL_Driver/Src/stm32f4xx_ll_usb.c ****   USBx_DEVICE->DCTL |= USB_OTG_DCTL_SDIS ;
1038:Drivers/STM32F4xx_HAL_Driver/Src/stm32f4xx_ll_usb.c ****   HAL_Delay(3U);
1039:Drivers/STM32F4xx_HAL_Driver/Src/stm32f4xx_ll_usb.c ****   
1040:Drivers/STM32F4xx_HAL_Driver/Src/stm32f4xx_ll_usb.c ****   return HAL_OK;  
1041:Drivers/STM32F4xx_HAL_Driver/Src/stm32f4xx_ll_usb.c **** }
1042:Drivers/STM32F4xx_HAL_Driver/Src/stm32f4xx_ll_usb.c **** 
1043:Drivers/STM32F4xx_HAL_Driver/Src/stm32f4xx_ll_usb.c **** /**
1044:Drivers/STM32F4xx_HAL_Driver/Src/stm32f4xx_ll_usb.c ****   * @brief  USB_ReadInterrupts: return the global USB interrupt status
1045:Drivers/STM32F4xx_HAL_Driver/Src/stm32f4xx_ll_usb.c ****   * @param  USBx  Selected device
1046:Drivers/STM32F4xx_HAL_Driver/Src/stm32f4xx_ll_usb.c ****   * @retval HAL status
1047:Drivers/STM32F4xx_HAL_Driver/Src/stm32f4xx_ll_usb.c ****   */
1048:Drivers/STM32F4xx_HAL_Driver/Src/stm32f4xx_ll_usb.c **** uint32_t  USB_ReadInterrupts (USB_OTG_GlobalTypeDef *USBx)
1049:Drivers/STM32F4xx_HAL_Driver/Src/stm32f4xx_ll_usb.c **** {
1050:Drivers/STM32F4xx_HAL_Driver/Src/stm32f4xx_ll_usb.c ****   uint32_t v = 0U;
1051:Drivers/STM32F4xx_HAL_Driver/Src/stm32f4xx_ll_usb.c ****   
1052:Drivers/STM32F4xx_HAL_Driver/Src/stm32f4xx_ll_usb.c ****   v = USBx->GINTSTS;
1053:Drivers/STM32F4xx_HAL_Driver/Src/stm32f4xx_ll_usb.c ****   v &= USBx->GINTMSK;
1054:Drivers/STM32F4xx_HAL_Driver/Src/stm32f4xx_ll_usb.c ****   return v;  
1055:Drivers/STM32F4xx_HAL_Driver/Src/stm32f4xx_ll_usb.c **** }
ARM GAS  C:\Users\gx\AppData\Local\Temp\ccXSZ03x.s 			page 20


1056:Drivers/STM32F4xx_HAL_Driver/Src/stm32f4xx_ll_usb.c **** 
1057:Drivers/STM32F4xx_HAL_Driver/Src/stm32f4xx_ll_usb.c **** /**
1058:Drivers/STM32F4xx_HAL_Driver/Src/stm32f4xx_ll_usb.c ****   * @brief  USB_ReadDevAllOutEpInterrupt: return the USB device OUT endpoints interrupt status
1059:Drivers/STM32F4xx_HAL_Driver/Src/stm32f4xx_ll_usb.c ****   * @param  USBx  Selected device
1060:Drivers/STM32F4xx_HAL_Driver/Src/stm32f4xx_ll_usb.c ****   * @retval HAL status
1061:Drivers/STM32F4xx_HAL_Driver/Src/stm32f4xx_ll_usb.c ****   */
1062:Drivers/STM32F4xx_HAL_Driver/Src/stm32f4xx_ll_usb.c **** uint32_t USB_ReadDevAllOutEpInterrupt (USB_OTG_GlobalTypeDef *USBx)
1063:Drivers/STM32F4xx_HAL_Driver/Src/stm32f4xx_ll_usb.c **** {
1064:Drivers/STM32F4xx_HAL_Driver/Src/stm32f4xx_ll_usb.c ****   uint32_t v;
1065:Drivers/STM32F4xx_HAL_Driver/Src/stm32f4xx_ll_usb.c ****   v  = USBx_DEVICE->DAINT;
1066:Drivers/STM32F4xx_HAL_Driver/Src/stm32f4xx_ll_usb.c ****   v &= USBx_DEVICE->DAINTMSK;
1067:Drivers/STM32F4xx_HAL_Driver/Src/stm32f4xx_ll_usb.c ****   return ((v & 0xffff0000U) >> 16U);
1068:Drivers/STM32F4xx_HAL_Driver/Src/stm32f4xx_ll_usb.c **** }
1069:Drivers/STM32F4xx_HAL_Driver/Src/stm32f4xx_ll_usb.c **** 
1070:Drivers/STM32F4xx_HAL_Driver/Src/stm32f4xx_ll_usb.c **** /**
1071:Drivers/STM32F4xx_HAL_Driver/Src/stm32f4xx_ll_usb.c ****   * @brief  USB_ReadDevAllInEpInterrupt: return the USB device IN endpoints interrupt status
1072:Drivers/STM32F4xx_HAL_Driver/Src/stm32f4xx_ll_usb.c ****   * @param  USBx  Selected device
1073:Drivers/STM32F4xx_HAL_Driver/Src/stm32f4xx_ll_usb.c ****   * @retval HAL status
1074:Drivers/STM32F4xx_HAL_Driver/Src/stm32f4xx_ll_usb.c ****   */
1075:Drivers/STM32F4xx_HAL_Driver/Src/stm32f4xx_ll_usb.c **** uint32_t USB_ReadDevAllInEpInterrupt (USB_OTG_GlobalTypeDef *USBx)
1076:Drivers/STM32F4xx_HAL_Driver/Src/stm32f4xx_ll_usb.c **** {
1077:Drivers/STM32F4xx_HAL_Driver/Src/stm32f4xx_ll_usb.c ****   uint32_t v;
1078:Drivers/STM32F4xx_HAL_Driver/Src/stm32f4xx_ll_usb.c ****   v  = USBx_DEVICE->DAINT;
1079:Drivers/STM32F4xx_HAL_Driver/Src/stm32f4xx_ll_usb.c ****   v &= USBx_DEVICE->DAINTMSK;
1080:Drivers/STM32F4xx_HAL_Driver/Src/stm32f4xx_ll_usb.c ****   return ((v & 0xFFFFU));
1081:Drivers/STM32F4xx_HAL_Driver/Src/stm32f4xx_ll_usb.c **** }
1082:Drivers/STM32F4xx_HAL_Driver/Src/stm32f4xx_ll_usb.c **** 
1083:Drivers/STM32F4xx_HAL_Driver/Src/stm32f4xx_ll_usb.c **** /**
1084:Drivers/STM32F4xx_HAL_Driver/Src/stm32f4xx_ll_usb.c ****   * @brief  Returns Device OUT EP Interrupt register
1085:Drivers/STM32F4xx_HAL_Driver/Src/stm32f4xx_ll_usb.c ****   * @param  USBx  Selected device
1086:Drivers/STM32F4xx_HAL_Driver/Src/stm32f4xx_ll_usb.c ****   * @param  epnum  endpoint number
1087:Drivers/STM32F4xx_HAL_Driver/Src/stm32f4xx_ll_usb.c ****   *          This parameter can be a value from 0 to 15
1088:Drivers/STM32F4xx_HAL_Driver/Src/stm32f4xx_ll_usb.c ****   * @retval Device OUT EP Interrupt register
1089:Drivers/STM32F4xx_HAL_Driver/Src/stm32f4xx_ll_usb.c ****   */
1090:Drivers/STM32F4xx_HAL_Driver/Src/stm32f4xx_ll_usb.c **** uint32_t USB_ReadDevOutEPInterrupt (USB_OTG_GlobalTypeDef *USBx , uint8_t epnum)
1091:Drivers/STM32F4xx_HAL_Driver/Src/stm32f4xx_ll_usb.c **** {
1092:Drivers/STM32F4xx_HAL_Driver/Src/stm32f4xx_ll_usb.c ****   uint32_t v;
1093:Drivers/STM32F4xx_HAL_Driver/Src/stm32f4xx_ll_usb.c ****   v  = USBx_OUTEP(epnum)->DOEPINT;
1094:Drivers/STM32F4xx_HAL_Driver/Src/stm32f4xx_ll_usb.c ****   v &= USBx_DEVICE->DOEPMSK;
1095:Drivers/STM32F4xx_HAL_Driver/Src/stm32f4xx_ll_usb.c ****   return v;
1096:Drivers/STM32F4xx_HAL_Driver/Src/stm32f4xx_ll_usb.c **** }
1097:Drivers/STM32F4xx_HAL_Driver/Src/stm32f4xx_ll_usb.c **** 
1098:Drivers/STM32F4xx_HAL_Driver/Src/stm32f4xx_ll_usb.c **** /**
1099:Drivers/STM32F4xx_HAL_Driver/Src/stm32f4xx_ll_usb.c ****   * @brief  Returns Device IN EP Interrupt register
1100:Drivers/STM32F4xx_HAL_Driver/Src/stm32f4xx_ll_usb.c ****   * @param  USBx  Selected device
1101:Drivers/STM32F4xx_HAL_Driver/Src/stm32f4xx_ll_usb.c ****   * @param  epnum  endpoint number
1102:Drivers/STM32F4xx_HAL_Driver/Src/stm32f4xx_ll_usb.c ****   *          This parameter can be a value from 0 to 15
1103:Drivers/STM32F4xx_HAL_Driver/Src/stm32f4xx_ll_usb.c ****   * @retval Device IN EP Interrupt register
1104:Drivers/STM32F4xx_HAL_Driver/Src/stm32f4xx_ll_usb.c ****   */
1105:Drivers/STM32F4xx_HAL_Driver/Src/stm32f4xx_ll_usb.c **** uint32_t USB_ReadDevInEPInterrupt (USB_OTG_GlobalTypeDef *USBx , uint8_t epnum)
1106:Drivers/STM32F4xx_HAL_Driver/Src/stm32f4xx_ll_usb.c **** {
1107:Drivers/STM32F4xx_HAL_Driver/Src/stm32f4xx_ll_usb.c ****   uint32_t v, msk, emp;
1108:Drivers/STM32F4xx_HAL_Driver/Src/stm32f4xx_ll_usb.c ****   
1109:Drivers/STM32F4xx_HAL_Driver/Src/stm32f4xx_ll_usb.c ****   msk = USBx_DEVICE->DIEPMSK;
1110:Drivers/STM32F4xx_HAL_Driver/Src/stm32f4xx_ll_usb.c ****   emp = USBx_DEVICE->DIEPEMPMSK;
1111:Drivers/STM32F4xx_HAL_Driver/Src/stm32f4xx_ll_usb.c ****   msk |= ((emp >> epnum) & 0x1U) << 7U;
1112:Drivers/STM32F4xx_HAL_Driver/Src/stm32f4xx_ll_usb.c ****   v = USBx_INEP(epnum)->DIEPINT & msk;
ARM GAS  C:\Users\gx\AppData\Local\Temp\ccXSZ03x.s 			page 21


1113:Drivers/STM32F4xx_HAL_Driver/Src/stm32f4xx_ll_usb.c ****   return v;
1114:Drivers/STM32F4xx_HAL_Driver/Src/stm32f4xx_ll_usb.c **** }
1115:Drivers/STM32F4xx_HAL_Driver/Src/stm32f4xx_ll_usb.c **** 
1116:Drivers/STM32F4xx_HAL_Driver/Src/stm32f4xx_ll_usb.c **** /**
1117:Drivers/STM32F4xx_HAL_Driver/Src/stm32f4xx_ll_usb.c ****   * @brief  USB_ClearInterrupts: clear a USB interrupt
1118:Drivers/STM32F4xx_HAL_Driver/Src/stm32f4xx_ll_usb.c ****   * @param  USBx  Selected device
1119:Drivers/STM32F4xx_HAL_Driver/Src/stm32f4xx_ll_usb.c ****   * @param  interrupt  interrupt flag
1120:Drivers/STM32F4xx_HAL_Driver/Src/stm32f4xx_ll_usb.c ****   * @retval None
1121:Drivers/STM32F4xx_HAL_Driver/Src/stm32f4xx_ll_usb.c ****   */
1122:Drivers/STM32F4xx_HAL_Driver/Src/stm32f4xx_ll_usb.c **** void  USB_ClearInterrupts (USB_OTG_GlobalTypeDef *USBx, uint32_t interrupt)
1123:Drivers/STM32F4xx_HAL_Driver/Src/stm32f4xx_ll_usb.c **** {
1124:Drivers/STM32F4xx_HAL_Driver/Src/stm32f4xx_ll_usb.c ****   USBx->GINTSTS |= interrupt; 
1125:Drivers/STM32F4xx_HAL_Driver/Src/stm32f4xx_ll_usb.c **** }
1126:Drivers/STM32F4xx_HAL_Driver/Src/stm32f4xx_ll_usb.c **** 
1127:Drivers/STM32F4xx_HAL_Driver/Src/stm32f4xx_ll_usb.c **** /**
1128:Drivers/STM32F4xx_HAL_Driver/Src/stm32f4xx_ll_usb.c ****   * @brief  Returns USB core mode
1129:Drivers/STM32F4xx_HAL_Driver/Src/stm32f4xx_ll_usb.c ****   * @param  USBx  Selected device
1130:Drivers/STM32F4xx_HAL_Driver/Src/stm32f4xx_ll_usb.c ****   * @retval return core mode : Host or Device
1131:Drivers/STM32F4xx_HAL_Driver/Src/stm32f4xx_ll_usb.c ****   *          This parameter can be one of these values:
1132:Drivers/STM32F4xx_HAL_Driver/Src/stm32f4xx_ll_usb.c ****   *           0 : Host 
1133:Drivers/STM32F4xx_HAL_Driver/Src/stm32f4xx_ll_usb.c ****   *           1 : Device
1134:Drivers/STM32F4xx_HAL_Driver/Src/stm32f4xx_ll_usb.c ****   */
1135:Drivers/STM32F4xx_HAL_Driver/Src/stm32f4xx_ll_usb.c **** uint32_t USB_GetMode(USB_OTG_GlobalTypeDef *USBx)
1136:Drivers/STM32F4xx_HAL_Driver/Src/stm32f4xx_ll_usb.c **** {
1137:Drivers/STM32F4xx_HAL_Driver/Src/stm32f4xx_ll_usb.c ****   return ((USBx->GINTSTS ) & 0x1U);
1138:Drivers/STM32F4xx_HAL_Driver/Src/stm32f4xx_ll_usb.c **** }
1139:Drivers/STM32F4xx_HAL_Driver/Src/stm32f4xx_ll_usb.c **** 
1140:Drivers/STM32F4xx_HAL_Driver/Src/stm32f4xx_ll_usb.c **** 
1141:Drivers/STM32F4xx_HAL_Driver/Src/stm32f4xx_ll_usb.c **** /**
1142:Drivers/STM32F4xx_HAL_Driver/Src/stm32f4xx_ll_usb.c ****   * @brief  Activate EP0 for Setup transactions
1143:Drivers/STM32F4xx_HAL_Driver/Src/stm32f4xx_ll_usb.c ****   * @param  USBx  Selected device
1144:Drivers/STM32F4xx_HAL_Driver/Src/stm32f4xx_ll_usb.c ****   * @retval HAL status
1145:Drivers/STM32F4xx_HAL_Driver/Src/stm32f4xx_ll_usb.c ****   */
1146:Drivers/STM32F4xx_HAL_Driver/Src/stm32f4xx_ll_usb.c **** HAL_StatusTypeDef  USB_ActivateSetup (USB_OTG_GlobalTypeDef *USBx)
1147:Drivers/STM32F4xx_HAL_Driver/Src/stm32f4xx_ll_usb.c **** {
1148:Drivers/STM32F4xx_HAL_Driver/Src/stm32f4xx_ll_usb.c ****   /* Set the MPS of the IN EP based on the enumeration speed */
1149:Drivers/STM32F4xx_HAL_Driver/Src/stm32f4xx_ll_usb.c ****   USBx_INEP(0U)->DIEPCTL &= ~USB_OTG_DIEPCTL_MPSIZ;
1150:Drivers/STM32F4xx_HAL_Driver/Src/stm32f4xx_ll_usb.c ****   
1151:Drivers/STM32F4xx_HAL_Driver/Src/stm32f4xx_ll_usb.c ****   if((USBx_DEVICE->DSTS & USB_OTG_DSTS_ENUMSPD) == DSTS_ENUMSPD_LS_PHY_6MHZ)
1152:Drivers/STM32F4xx_HAL_Driver/Src/stm32f4xx_ll_usb.c ****   {
1153:Drivers/STM32F4xx_HAL_Driver/Src/stm32f4xx_ll_usb.c ****     USBx_INEP(0U)->DIEPCTL |= 3U;
1154:Drivers/STM32F4xx_HAL_Driver/Src/stm32f4xx_ll_usb.c ****   }
1155:Drivers/STM32F4xx_HAL_Driver/Src/stm32f4xx_ll_usb.c ****   USBx_DEVICE->DCTL |= USB_OTG_DCTL_CGINAK;
1156:Drivers/STM32F4xx_HAL_Driver/Src/stm32f4xx_ll_usb.c **** 
1157:Drivers/STM32F4xx_HAL_Driver/Src/stm32f4xx_ll_usb.c ****   return HAL_OK;
1158:Drivers/STM32F4xx_HAL_Driver/Src/stm32f4xx_ll_usb.c **** }
1159:Drivers/STM32F4xx_HAL_Driver/Src/stm32f4xx_ll_usb.c **** 
1160:Drivers/STM32F4xx_HAL_Driver/Src/stm32f4xx_ll_usb.c **** 
1161:Drivers/STM32F4xx_HAL_Driver/Src/stm32f4xx_ll_usb.c **** /**
1162:Drivers/STM32F4xx_HAL_Driver/Src/stm32f4xx_ll_usb.c ****   * @brief  Prepare the EP0 to start the first control setup
1163:Drivers/STM32F4xx_HAL_Driver/Src/stm32f4xx_ll_usb.c ****   * @param  USBx  Selected device
1164:Drivers/STM32F4xx_HAL_Driver/Src/stm32f4xx_ll_usb.c ****   * @param  dma USB dma enabled or disabled 
1165:Drivers/STM32F4xx_HAL_Driver/Src/stm32f4xx_ll_usb.c ****   *          This parameter can be one of these values:
1166:Drivers/STM32F4xx_HAL_Driver/Src/stm32f4xx_ll_usb.c ****   *           0 : DMA feature not used 
1167:Drivers/STM32F4xx_HAL_Driver/Src/stm32f4xx_ll_usb.c ****   *           1 : DMA feature used  
1168:Drivers/STM32F4xx_HAL_Driver/Src/stm32f4xx_ll_usb.c ****   * @param  psetup  pointer to setup packet
1169:Drivers/STM32F4xx_HAL_Driver/Src/stm32f4xx_ll_usb.c ****   * @retval HAL status
ARM GAS  C:\Users\gx\AppData\Local\Temp\ccXSZ03x.s 			page 22


1170:Drivers/STM32F4xx_HAL_Driver/Src/stm32f4xx_ll_usb.c ****   */
1171:Drivers/STM32F4xx_HAL_Driver/Src/stm32f4xx_ll_usb.c **** HAL_StatusTypeDef USB_EP0_OutStart(USB_OTG_GlobalTypeDef *USBx, uint8_t dma, uint8_t *psetup)
1172:Drivers/STM32F4xx_HAL_Driver/Src/stm32f4xx_ll_usb.c **** {
1173:Drivers/STM32F4xx_HAL_Driver/Src/stm32f4xx_ll_usb.c ****   USBx_OUTEP(0U)->DOEPTSIZ = 0U;
1174:Drivers/STM32F4xx_HAL_Driver/Src/stm32f4xx_ll_usb.c ****   USBx_OUTEP(0U)->DOEPTSIZ |= (USB_OTG_DOEPTSIZ_PKTCNT & (1U << 19U)) ;
1175:Drivers/STM32F4xx_HAL_Driver/Src/stm32f4xx_ll_usb.c ****   USBx_OUTEP(0U)->DOEPTSIZ |= (3U * 8U);
1176:Drivers/STM32F4xx_HAL_Driver/Src/stm32f4xx_ll_usb.c ****   USBx_OUTEP(0U)->DOEPTSIZ |=  USB_OTG_DOEPTSIZ_STUPCNT;  
1177:Drivers/STM32F4xx_HAL_Driver/Src/stm32f4xx_ll_usb.c ****   
1178:Drivers/STM32F4xx_HAL_Driver/Src/stm32f4xx_ll_usb.c ****   if (dma == 1U)
1179:Drivers/STM32F4xx_HAL_Driver/Src/stm32f4xx_ll_usb.c ****   {
1180:Drivers/STM32F4xx_HAL_Driver/Src/stm32f4xx_ll_usb.c ****     USBx_OUTEP(0U)->DOEPDMA = (uint32_t)psetup;
1181:Drivers/STM32F4xx_HAL_Driver/Src/stm32f4xx_ll_usb.c ****     /* EP enable */
1182:Drivers/STM32F4xx_HAL_Driver/Src/stm32f4xx_ll_usb.c ****     USBx_OUTEP(0U)->DOEPCTL = 0x80008000U;
1183:Drivers/STM32F4xx_HAL_Driver/Src/stm32f4xx_ll_usb.c ****   }
1184:Drivers/STM32F4xx_HAL_Driver/Src/stm32f4xx_ll_usb.c ****   
1185:Drivers/STM32F4xx_HAL_Driver/Src/stm32f4xx_ll_usb.c ****   return HAL_OK;  
1186:Drivers/STM32F4xx_HAL_Driver/Src/stm32f4xx_ll_usb.c **** }
1187:Drivers/STM32F4xx_HAL_Driver/Src/stm32f4xx_ll_usb.c **** 
1188:Drivers/STM32F4xx_HAL_Driver/Src/stm32f4xx_ll_usb.c **** 
1189:Drivers/STM32F4xx_HAL_Driver/Src/stm32f4xx_ll_usb.c **** /**
1190:Drivers/STM32F4xx_HAL_Driver/Src/stm32f4xx_ll_usb.c ****   * @brief  Reset the USB Core (needed after USB clock settings change)
1191:Drivers/STM32F4xx_HAL_Driver/Src/stm32f4xx_ll_usb.c ****   * @param  USBx  Selected device
1192:Drivers/STM32F4xx_HAL_Driver/Src/stm32f4xx_ll_usb.c ****   * @retval HAL status
1193:Drivers/STM32F4xx_HAL_Driver/Src/stm32f4xx_ll_usb.c ****   */
1194:Drivers/STM32F4xx_HAL_Driver/Src/stm32f4xx_ll_usb.c **** static HAL_StatusTypeDef USB_CoreReset(USB_OTG_GlobalTypeDef *USBx)
1195:Drivers/STM32F4xx_HAL_Driver/Src/stm32f4xx_ll_usb.c **** {
1196:Drivers/STM32F4xx_HAL_Driver/Src/stm32f4xx_ll_usb.c ****   uint32_t count = 0U;
1197:Drivers/STM32F4xx_HAL_Driver/Src/stm32f4xx_ll_usb.c **** 
1198:Drivers/STM32F4xx_HAL_Driver/Src/stm32f4xx_ll_usb.c ****   /* Wait for AHB master IDLE state. */
1199:Drivers/STM32F4xx_HAL_Driver/Src/stm32f4xx_ll_usb.c ****   do
1200:Drivers/STM32F4xx_HAL_Driver/Src/stm32f4xx_ll_usb.c ****   {
1201:Drivers/STM32F4xx_HAL_Driver/Src/stm32f4xx_ll_usb.c ****     if (++count > 200000U)
1202:Drivers/STM32F4xx_HAL_Driver/Src/stm32f4xx_ll_usb.c ****     {
1203:Drivers/STM32F4xx_HAL_Driver/Src/stm32f4xx_ll_usb.c ****       return HAL_TIMEOUT;
1204:Drivers/STM32F4xx_HAL_Driver/Src/stm32f4xx_ll_usb.c ****     }
1205:Drivers/STM32F4xx_HAL_Driver/Src/stm32f4xx_ll_usb.c ****   }
1206:Drivers/STM32F4xx_HAL_Driver/Src/stm32f4xx_ll_usb.c ****   while ((USBx->GRSTCTL & USB_OTG_GRSTCTL_AHBIDL) == 0U);
1207:Drivers/STM32F4xx_HAL_Driver/Src/stm32f4xx_ll_usb.c ****   
1208:Drivers/STM32F4xx_HAL_Driver/Src/stm32f4xx_ll_usb.c ****   /* Core Soft Reset */
1209:Drivers/STM32F4xx_HAL_Driver/Src/stm32f4xx_ll_usb.c ****   count = 0U;
1210:Drivers/STM32F4xx_HAL_Driver/Src/stm32f4xx_ll_usb.c ****   USBx->GRSTCTL |= USB_OTG_GRSTCTL_CSRST;
1211:Drivers/STM32F4xx_HAL_Driver/Src/stm32f4xx_ll_usb.c **** 
1212:Drivers/STM32F4xx_HAL_Driver/Src/stm32f4xx_ll_usb.c ****   do
1213:Drivers/STM32F4xx_HAL_Driver/Src/stm32f4xx_ll_usb.c ****   {
1214:Drivers/STM32F4xx_HAL_Driver/Src/stm32f4xx_ll_usb.c ****     if (++count > 200000U)
1215:Drivers/STM32F4xx_HAL_Driver/Src/stm32f4xx_ll_usb.c ****     {
1216:Drivers/STM32F4xx_HAL_Driver/Src/stm32f4xx_ll_usb.c ****       return HAL_TIMEOUT;
1217:Drivers/STM32F4xx_HAL_Driver/Src/stm32f4xx_ll_usb.c ****     }
1218:Drivers/STM32F4xx_HAL_Driver/Src/stm32f4xx_ll_usb.c ****   }
1219:Drivers/STM32F4xx_HAL_Driver/Src/stm32f4xx_ll_usb.c ****   while ((USBx->GRSTCTL & USB_OTG_GRSTCTL_CSRST) == USB_OTG_GRSTCTL_CSRST);
1220:Drivers/STM32F4xx_HAL_Driver/Src/stm32f4xx_ll_usb.c ****   
1221:Drivers/STM32F4xx_HAL_Driver/Src/stm32f4xx_ll_usb.c ****   return HAL_OK;
1222:Drivers/STM32F4xx_HAL_Driver/Src/stm32f4xx_ll_usb.c **** }
1223:Drivers/STM32F4xx_HAL_Driver/Src/stm32f4xx_ll_usb.c **** 
1224:Drivers/STM32F4xx_HAL_Driver/Src/stm32f4xx_ll_usb.c **** 
1225:Drivers/STM32F4xx_HAL_Driver/Src/stm32f4xx_ll_usb.c **** /**
1226:Drivers/STM32F4xx_HAL_Driver/Src/stm32f4xx_ll_usb.c ****   * @brief  USB_HostInit : Initializes the USB OTG controller registers 
ARM GAS  C:\Users\gx\AppData\Local\Temp\ccXSZ03x.s 			page 23


1227:Drivers/STM32F4xx_HAL_Driver/Src/stm32f4xx_ll_usb.c ****   *         for Host mode 
1228:Drivers/STM32F4xx_HAL_Driver/Src/stm32f4xx_ll_usb.c ****   * @param  USBx  Selected device
1229:Drivers/STM32F4xx_HAL_Driver/Src/stm32f4xx_ll_usb.c ****   * @param  cfg   pointer to a USB_OTG_CfgTypeDef structure that contains
1230:Drivers/STM32F4xx_HAL_Driver/Src/stm32f4xx_ll_usb.c ****   *         the configuration information for the specified USBx peripheral.
1231:Drivers/STM32F4xx_HAL_Driver/Src/stm32f4xx_ll_usb.c ****   * @retval HAL status
1232:Drivers/STM32F4xx_HAL_Driver/Src/stm32f4xx_ll_usb.c ****   */
1233:Drivers/STM32F4xx_HAL_Driver/Src/stm32f4xx_ll_usb.c **** HAL_StatusTypeDef USB_HostInit (USB_OTG_GlobalTypeDef *USBx, USB_OTG_CfgTypeDef cfg)
1234:Drivers/STM32F4xx_HAL_Driver/Src/stm32f4xx_ll_usb.c **** {
1235:Drivers/STM32F4xx_HAL_Driver/Src/stm32f4xx_ll_usb.c ****   uint32_t i;
1236:Drivers/STM32F4xx_HAL_Driver/Src/stm32f4xx_ll_usb.c ****   
1237:Drivers/STM32F4xx_HAL_Driver/Src/stm32f4xx_ll_usb.c ****   /* Restart the Phy Clock */
1238:Drivers/STM32F4xx_HAL_Driver/Src/stm32f4xx_ll_usb.c ****   USBx_PCGCCTL = 0U;
1239:Drivers/STM32F4xx_HAL_Driver/Src/stm32f4xx_ll_usb.c ****   
1240:Drivers/STM32F4xx_HAL_Driver/Src/stm32f4xx_ll_usb.c ****   /* Activate VBUS Sensing B */
1241:Drivers/STM32F4xx_HAL_Driver/Src/stm32f4xx_ll_usb.c **** #if defined(STM32F446xx) || defined(STM32F469xx) || defined(STM32F479xx) || defined(STM32F412Zx) ||
1242:Drivers/STM32F4xx_HAL_Driver/Src/stm32f4xx_ll_usb.c ****     defined(STM32F412Rx) || defined(STM32F412Cx) || defined(STM32F413xx) || defined(STM32F423xx)
1243:Drivers/STM32F4xx_HAL_Driver/Src/stm32f4xx_ll_usb.c ****   USBx->GCCFG |= USB_OTG_GCCFG_VBDEN;
1244:Drivers/STM32F4xx_HAL_Driver/Src/stm32f4xx_ll_usb.c **** #else
1245:Drivers/STM32F4xx_HAL_Driver/Src/stm32f4xx_ll_usb.c ****   USBx->GCCFG &=~ (USB_OTG_GCCFG_VBUSASEN);
1246:Drivers/STM32F4xx_HAL_Driver/Src/stm32f4xx_ll_usb.c ****   USBx->GCCFG &=~ (USB_OTG_GCCFG_VBUSBSEN);
1247:Drivers/STM32F4xx_HAL_Driver/Src/stm32f4xx_ll_usb.c ****   USBx->GCCFG |= USB_OTG_GCCFG_NOVBUSSENS;
1248:Drivers/STM32F4xx_HAL_Driver/Src/stm32f4xx_ll_usb.c **** #endif /* STM32F446xx || STM32F469xx || STM32F479xx || STM32F412Zx || STM32F412Rx || STM32F412Vx ||
1249:Drivers/STM32F4xx_HAL_Driver/Src/stm32f4xx_ll_usb.c **** 
1250:Drivers/STM32F4xx_HAL_Driver/Src/stm32f4xx_ll_usb.c ****   /* Disable the FS/LS support mode only */
1251:Drivers/STM32F4xx_HAL_Driver/Src/stm32f4xx_ll_usb.c ****   if((cfg.speed == USB_OTG_SPEED_FULL)&&
1252:Drivers/STM32F4xx_HAL_Driver/Src/stm32f4xx_ll_usb.c ****      (USBx != USB_OTG_FS))
1253:Drivers/STM32F4xx_HAL_Driver/Src/stm32f4xx_ll_usb.c ****   {
1254:Drivers/STM32F4xx_HAL_Driver/Src/stm32f4xx_ll_usb.c ****     USBx_HOST->HCFG |= USB_OTG_HCFG_FSLSS; 
1255:Drivers/STM32F4xx_HAL_Driver/Src/stm32f4xx_ll_usb.c ****   }
1256:Drivers/STM32F4xx_HAL_Driver/Src/stm32f4xx_ll_usb.c ****   else
1257:Drivers/STM32F4xx_HAL_Driver/Src/stm32f4xx_ll_usb.c ****   {
1258:Drivers/STM32F4xx_HAL_Driver/Src/stm32f4xx_ll_usb.c ****     USBx_HOST->HCFG &= ~(USB_OTG_HCFG_FSLSS);  
1259:Drivers/STM32F4xx_HAL_Driver/Src/stm32f4xx_ll_usb.c ****   }
1260:Drivers/STM32F4xx_HAL_Driver/Src/stm32f4xx_ll_usb.c **** 
1261:Drivers/STM32F4xx_HAL_Driver/Src/stm32f4xx_ll_usb.c ****   /* Make sure the FIFOs are flushed. */
1262:Drivers/STM32F4xx_HAL_Driver/Src/stm32f4xx_ll_usb.c ****   USB_FlushTxFifo(USBx, 0x10U); /* all Tx FIFOs */
1263:Drivers/STM32F4xx_HAL_Driver/Src/stm32f4xx_ll_usb.c ****   USB_FlushRxFifo(USBx);
1264:Drivers/STM32F4xx_HAL_Driver/Src/stm32f4xx_ll_usb.c **** 
1265:Drivers/STM32F4xx_HAL_Driver/Src/stm32f4xx_ll_usb.c ****   /* Clear all pending HC Interrupts */
1266:Drivers/STM32F4xx_HAL_Driver/Src/stm32f4xx_ll_usb.c ****   for (i = 0U; i < cfg.Host_channels; i++)
1267:Drivers/STM32F4xx_HAL_Driver/Src/stm32f4xx_ll_usb.c ****   {
1268:Drivers/STM32F4xx_HAL_Driver/Src/stm32f4xx_ll_usb.c ****     USBx_HC(i)->HCINT = 0xFFFFFFFFU;
1269:Drivers/STM32F4xx_HAL_Driver/Src/stm32f4xx_ll_usb.c ****     USBx_HC(i)->HCINTMSK = 0U;
1270:Drivers/STM32F4xx_HAL_Driver/Src/stm32f4xx_ll_usb.c ****   }
1271:Drivers/STM32F4xx_HAL_Driver/Src/stm32f4xx_ll_usb.c ****   
1272:Drivers/STM32F4xx_HAL_Driver/Src/stm32f4xx_ll_usb.c ****   /* Enable VBUS driving */
1273:Drivers/STM32F4xx_HAL_Driver/Src/stm32f4xx_ll_usb.c ****   USB_DriveVbus(USBx, 1U);
1274:Drivers/STM32F4xx_HAL_Driver/Src/stm32f4xx_ll_usb.c ****   
1275:Drivers/STM32F4xx_HAL_Driver/Src/stm32f4xx_ll_usb.c ****   HAL_Delay(200U);
1276:Drivers/STM32F4xx_HAL_Driver/Src/stm32f4xx_ll_usb.c ****   
1277:Drivers/STM32F4xx_HAL_Driver/Src/stm32f4xx_ll_usb.c ****   /* Disable all interrupts. */
1278:Drivers/STM32F4xx_HAL_Driver/Src/stm32f4xx_ll_usb.c ****   USBx->GINTMSK = 0U;
1279:Drivers/STM32F4xx_HAL_Driver/Src/stm32f4xx_ll_usb.c ****   
1280:Drivers/STM32F4xx_HAL_Driver/Src/stm32f4xx_ll_usb.c ****   /* Clear any pending interrupts */
1281:Drivers/STM32F4xx_HAL_Driver/Src/stm32f4xx_ll_usb.c ****   USBx->GINTSTS = 0xFFFFFFFFU;
1282:Drivers/STM32F4xx_HAL_Driver/Src/stm32f4xx_ll_usb.c ****   
1283:Drivers/STM32F4xx_HAL_Driver/Src/stm32f4xx_ll_usb.c ****   if(USBx == USB_OTG_FS)
ARM GAS  C:\Users\gx\AppData\Local\Temp\ccXSZ03x.s 			page 24


1284:Drivers/STM32F4xx_HAL_Driver/Src/stm32f4xx_ll_usb.c ****   {
1285:Drivers/STM32F4xx_HAL_Driver/Src/stm32f4xx_ll_usb.c ****     /* set Rx FIFO size */
1286:Drivers/STM32F4xx_HAL_Driver/Src/stm32f4xx_ll_usb.c ****     USBx->GRXFSIZ  = 0x80U; 
1287:Drivers/STM32F4xx_HAL_Driver/Src/stm32f4xx_ll_usb.c ****     USBx->DIEPTXF0_HNPTXFSIZ = (uint32_t )(((0x60U << 16U)& USB_OTG_NPTXFD) | 0x80U);
1288:Drivers/STM32F4xx_HAL_Driver/Src/stm32f4xx_ll_usb.c ****     USBx->HPTXFSIZ = (uint32_t )(((0x40U << 16U)& USB_OTG_HPTXFSIZ_PTXFD) | 0xE0U);
1289:Drivers/STM32F4xx_HAL_Driver/Src/stm32f4xx_ll_usb.c ****   }
1290:Drivers/STM32F4xx_HAL_Driver/Src/stm32f4xx_ll_usb.c ****   else
1291:Drivers/STM32F4xx_HAL_Driver/Src/stm32f4xx_ll_usb.c ****   {
1292:Drivers/STM32F4xx_HAL_Driver/Src/stm32f4xx_ll_usb.c ****     /* set Rx FIFO size */
1293:Drivers/STM32F4xx_HAL_Driver/Src/stm32f4xx_ll_usb.c ****     USBx->GRXFSIZ  = 0x200U; 
1294:Drivers/STM32F4xx_HAL_Driver/Src/stm32f4xx_ll_usb.c ****     USBx->DIEPTXF0_HNPTXFSIZ = (uint32_t )(((0x100U << 16U)& USB_OTG_NPTXFD) | 0x200U);
1295:Drivers/STM32F4xx_HAL_Driver/Src/stm32f4xx_ll_usb.c ****     USBx->HPTXFSIZ = (uint32_t )(((0xE0U << 16U)& USB_OTG_HPTXFSIZ_PTXFD) | 0x300U);
1296:Drivers/STM32F4xx_HAL_Driver/Src/stm32f4xx_ll_usb.c ****   }
1297:Drivers/STM32F4xx_HAL_Driver/Src/stm32f4xx_ll_usb.c ****   
1298:Drivers/STM32F4xx_HAL_Driver/Src/stm32f4xx_ll_usb.c ****   /* Enable the common interrupts */
1299:Drivers/STM32F4xx_HAL_Driver/Src/stm32f4xx_ll_usb.c ****   if (cfg.dma_enable == DISABLE)
1300:Drivers/STM32F4xx_HAL_Driver/Src/stm32f4xx_ll_usb.c ****   {
1301:Drivers/STM32F4xx_HAL_Driver/Src/stm32f4xx_ll_usb.c ****     USBx->GINTMSK |= USB_OTG_GINTMSK_RXFLVLM; 
1302:Drivers/STM32F4xx_HAL_Driver/Src/stm32f4xx_ll_usb.c ****   }
1303:Drivers/STM32F4xx_HAL_Driver/Src/stm32f4xx_ll_usb.c ****   
1304:Drivers/STM32F4xx_HAL_Driver/Src/stm32f4xx_ll_usb.c ****   /* Enable interrupts matching to the Host mode ONLY */
1305:Drivers/STM32F4xx_HAL_Driver/Src/stm32f4xx_ll_usb.c ****   USBx->GINTMSK |= (USB_OTG_GINTMSK_PRTIM            | USB_OTG_GINTMSK_HCIM |\
1306:Drivers/STM32F4xx_HAL_Driver/Src/stm32f4xx_ll_usb.c ****                     USB_OTG_GINTMSK_SOFM             |USB_OTG_GINTSTS_DISCINT|\
1307:Drivers/STM32F4xx_HAL_Driver/Src/stm32f4xx_ll_usb.c ****                     USB_OTG_GINTMSK_PXFRM_IISOOXFRM  | USB_OTG_GINTMSK_WUIM);
1308:Drivers/STM32F4xx_HAL_Driver/Src/stm32f4xx_ll_usb.c **** 
1309:Drivers/STM32F4xx_HAL_Driver/Src/stm32f4xx_ll_usb.c ****   return HAL_OK;
1310:Drivers/STM32F4xx_HAL_Driver/Src/stm32f4xx_ll_usb.c **** }
1311:Drivers/STM32F4xx_HAL_Driver/Src/stm32f4xx_ll_usb.c **** 
1312:Drivers/STM32F4xx_HAL_Driver/Src/stm32f4xx_ll_usb.c **** /**
1313:Drivers/STM32F4xx_HAL_Driver/Src/stm32f4xx_ll_usb.c ****   * @brief  USB_InitFSLSPClkSel : Initializes the FSLSPClkSel field of the 
1314:Drivers/STM32F4xx_HAL_Driver/Src/stm32f4xx_ll_usb.c ****   *         HCFG register on the PHY type and set the right frame interval
1315:Drivers/STM32F4xx_HAL_Driver/Src/stm32f4xx_ll_usb.c ****   * @param  USBx  Selected device
1316:Drivers/STM32F4xx_HAL_Driver/Src/stm32f4xx_ll_usb.c ****   * @param  freq  clock frequency
1317:Drivers/STM32F4xx_HAL_Driver/Src/stm32f4xx_ll_usb.c ****   *          This parameter can be one of these values:
1318:Drivers/STM32F4xx_HAL_Driver/Src/stm32f4xx_ll_usb.c ****   *           HCFG_48_MHZ : Full Speed 48 MHz Clock 
1319:Drivers/STM32F4xx_HAL_Driver/Src/stm32f4xx_ll_usb.c ****   *           HCFG_6_MHZ : Low Speed 6 MHz Clock 
1320:Drivers/STM32F4xx_HAL_Driver/Src/stm32f4xx_ll_usb.c ****   * @retval HAL status
1321:Drivers/STM32F4xx_HAL_Driver/Src/stm32f4xx_ll_usb.c ****   */
1322:Drivers/STM32F4xx_HAL_Driver/Src/stm32f4xx_ll_usb.c **** HAL_StatusTypeDef USB_InitFSLSPClkSel(USB_OTG_GlobalTypeDef *USBx , uint8_t freq)
1323:Drivers/STM32F4xx_HAL_Driver/Src/stm32f4xx_ll_usb.c **** {
1324:Drivers/STM32F4xx_HAL_Driver/Src/stm32f4xx_ll_usb.c ****   USBx_HOST->HCFG &= ~(USB_OTG_HCFG_FSLSPCS);
1325:Drivers/STM32F4xx_HAL_Driver/Src/stm32f4xx_ll_usb.c ****   USBx_HOST->HCFG |= (freq & USB_OTG_HCFG_FSLSPCS);
1326:Drivers/STM32F4xx_HAL_Driver/Src/stm32f4xx_ll_usb.c ****   
1327:Drivers/STM32F4xx_HAL_Driver/Src/stm32f4xx_ll_usb.c ****   if (freq ==  HCFG_48_MHZ)
1328:Drivers/STM32F4xx_HAL_Driver/Src/stm32f4xx_ll_usb.c ****   {
1329:Drivers/STM32F4xx_HAL_Driver/Src/stm32f4xx_ll_usb.c ****     USBx_HOST->HFIR = 48000U;
1330:Drivers/STM32F4xx_HAL_Driver/Src/stm32f4xx_ll_usb.c ****   }
1331:Drivers/STM32F4xx_HAL_Driver/Src/stm32f4xx_ll_usb.c ****   else if (freq ==  HCFG_6_MHZ)
1332:Drivers/STM32F4xx_HAL_Driver/Src/stm32f4xx_ll_usb.c ****   {
1333:Drivers/STM32F4xx_HAL_Driver/Src/stm32f4xx_ll_usb.c ****     USBx_HOST->HFIR = 6000U;
1334:Drivers/STM32F4xx_HAL_Driver/Src/stm32f4xx_ll_usb.c ****   } 
1335:Drivers/STM32F4xx_HAL_Driver/Src/stm32f4xx_ll_usb.c ****   return HAL_OK;  
1336:Drivers/STM32F4xx_HAL_Driver/Src/stm32f4xx_ll_usb.c **** }
1337:Drivers/STM32F4xx_HAL_Driver/Src/stm32f4xx_ll_usb.c **** 
1338:Drivers/STM32F4xx_HAL_Driver/Src/stm32f4xx_ll_usb.c **** /**
1339:Drivers/STM32F4xx_HAL_Driver/Src/stm32f4xx_ll_usb.c **** * @brief  USB_OTG_ResetPort : Reset Host Port
1340:Drivers/STM32F4xx_HAL_Driver/Src/stm32f4xx_ll_usb.c ****   * @param  USBx  Selected device
ARM GAS  C:\Users\gx\AppData\Local\Temp\ccXSZ03x.s 			page 25


1341:Drivers/STM32F4xx_HAL_Driver/Src/stm32f4xx_ll_usb.c ****   * @retval HAL status
1342:Drivers/STM32F4xx_HAL_Driver/Src/stm32f4xx_ll_usb.c ****   * @note   (1)The application must wait at least 10 ms
1343:Drivers/STM32F4xx_HAL_Driver/Src/stm32f4xx_ll_usb.c ****   *   before clearing the reset bit.
1344:Drivers/STM32F4xx_HAL_Driver/Src/stm32f4xx_ll_usb.c ****   */
1345:Drivers/STM32F4xx_HAL_Driver/Src/stm32f4xx_ll_usb.c **** HAL_StatusTypeDef USB_ResetPort(USB_OTG_GlobalTypeDef *USBx)
1346:Drivers/STM32F4xx_HAL_Driver/Src/stm32f4xx_ll_usb.c **** {
1347:Drivers/STM32F4xx_HAL_Driver/Src/stm32f4xx_ll_usb.c ****   __IO uint32_t hprt0;
1348:Drivers/STM32F4xx_HAL_Driver/Src/stm32f4xx_ll_usb.c ****   
1349:Drivers/STM32F4xx_HAL_Driver/Src/stm32f4xx_ll_usb.c ****   hprt0 = USBx_HPRT0;
1350:Drivers/STM32F4xx_HAL_Driver/Src/stm32f4xx_ll_usb.c ****   
1351:Drivers/STM32F4xx_HAL_Driver/Src/stm32f4xx_ll_usb.c ****   hprt0 &= ~(USB_OTG_HPRT_PENA    | USB_OTG_HPRT_PCDET |\
1352:Drivers/STM32F4xx_HAL_Driver/Src/stm32f4xx_ll_usb.c ****     USB_OTG_HPRT_PENCHNG | USB_OTG_HPRT_POCCHNG );
1353:Drivers/STM32F4xx_HAL_Driver/Src/stm32f4xx_ll_usb.c ****   
1354:Drivers/STM32F4xx_HAL_Driver/Src/stm32f4xx_ll_usb.c ****   USBx_HPRT0 = (USB_OTG_HPRT_PRST | hprt0);  
1355:Drivers/STM32F4xx_HAL_Driver/Src/stm32f4xx_ll_usb.c ****   HAL_Delay (10U);                                /* See Note #1 */
1356:Drivers/STM32F4xx_HAL_Driver/Src/stm32f4xx_ll_usb.c ****   USBx_HPRT0 = ((~USB_OTG_HPRT_PRST) & hprt0); 
1357:Drivers/STM32F4xx_HAL_Driver/Src/stm32f4xx_ll_usb.c ****   return HAL_OK;
1358:Drivers/STM32F4xx_HAL_Driver/Src/stm32f4xx_ll_usb.c **** }
1359:Drivers/STM32F4xx_HAL_Driver/Src/stm32f4xx_ll_usb.c **** 
1360:Drivers/STM32F4xx_HAL_Driver/Src/stm32f4xx_ll_usb.c **** /**
1361:Drivers/STM32F4xx_HAL_Driver/Src/stm32f4xx_ll_usb.c ****   * @brief  USB_DriveVbus : activate or de-activate vbus
1362:Drivers/STM32F4xx_HAL_Driver/Src/stm32f4xx_ll_usb.c ****   * @param  state  VBUS state
1363:Drivers/STM32F4xx_HAL_Driver/Src/stm32f4xx_ll_usb.c ****   *          This parameter can be one of these values:
1364:Drivers/STM32F4xx_HAL_Driver/Src/stm32f4xx_ll_usb.c ****   *           0 : VBUS Active 
1365:Drivers/STM32F4xx_HAL_Driver/Src/stm32f4xx_ll_usb.c ****   *           1 : VBUS Inactive
1366:Drivers/STM32F4xx_HAL_Driver/Src/stm32f4xx_ll_usb.c ****   * @retval HAL status
1367:Drivers/STM32F4xx_HAL_Driver/Src/stm32f4xx_ll_usb.c **** */
1368:Drivers/STM32F4xx_HAL_Driver/Src/stm32f4xx_ll_usb.c **** HAL_StatusTypeDef USB_DriveVbus (USB_OTG_GlobalTypeDef *USBx, uint8_t state)
1369:Drivers/STM32F4xx_HAL_Driver/Src/stm32f4xx_ll_usb.c **** {
1370:Drivers/STM32F4xx_HAL_Driver/Src/stm32f4xx_ll_usb.c ****   __IO uint32_t hprt0;
1371:Drivers/STM32F4xx_HAL_Driver/Src/stm32f4xx_ll_usb.c **** 
1372:Drivers/STM32F4xx_HAL_Driver/Src/stm32f4xx_ll_usb.c ****   hprt0 = USBx_HPRT0;
1373:Drivers/STM32F4xx_HAL_Driver/Src/stm32f4xx_ll_usb.c ****   hprt0 &= ~(USB_OTG_HPRT_PENA    | USB_OTG_HPRT_PCDET |\
1374:Drivers/STM32F4xx_HAL_Driver/Src/stm32f4xx_ll_usb.c ****                          USB_OTG_HPRT_PENCHNG | USB_OTG_HPRT_POCCHNG );
1375:Drivers/STM32F4xx_HAL_Driver/Src/stm32f4xx_ll_usb.c ****   
1376:Drivers/STM32F4xx_HAL_Driver/Src/stm32f4xx_ll_usb.c ****   if (((hprt0 & USB_OTG_HPRT_PPWR) == 0U) && (state == 1U))
1377:Drivers/STM32F4xx_HAL_Driver/Src/stm32f4xx_ll_usb.c ****   {
1378:Drivers/STM32F4xx_HAL_Driver/Src/stm32f4xx_ll_usb.c ****     USBx_HPRT0 = (USB_OTG_HPRT_PPWR | hprt0); 
1379:Drivers/STM32F4xx_HAL_Driver/Src/stm32f4xx_ll_usb.c ****   }
1380:Drivers/STM32F4xx_HAL_Driver/Src/stm32f4xx_ll_usb.c ****   if (((hprt0 & USB_OTG_HPRT_PPWR) == USB_OTG_HPRT_PPWR) && (state == 0U))
1381:Drivers/STM32F4xx_HAL_Driver/Src/stm32f4xx_ll_usb.c ****   {
1382:Drivers/STM32F4xx_HAL_Driver/Src/stm32f4xx_ll_usb.c ****     USBx_HPRT0 = ((~USB_OTG_HPRT_PPWR) & hprt0); 
1383:Drivers/STM32F4xx_HAL_Driver/Src/stm32f4xx_ll_usb.c ****   }
1384:Drivers/STM32F4xx_HAL_Driver/Src/stm32f4xx_ll_usb.c ****   return HAL_OK; 
1385:Drivers/STM32F4xx_HAL_Driver/Src/stm32f4xx_ll_usb.c **** }
1386:Drivers/STM32F4xx_HAL_Driver/Src/stm32f4xx_ll_usb.c **** 
1387:Drivers/STM32F4xx_HAL_Driver/Src/stm32f4xx_ll_usb.c **** /**
1388:Drivers/STM32F4xx_HAL_Driver/Src/stm32f4xx_ll_usb.c ****   * @brief  Return Host Core speed
1389:Drivers/STM32F4xx_HAL_Driver/Src/stm32f4xx_ll_usb.c ****   * @param  USBx  Selected device
1390:Drivers/STM32F4xx_HAL_Driver/Src/stm32f4xx_ll_usb.c ****   * @retval speed : Host speed
1391:Drivers/STM32F4xx_HAL_Driver/Src/stm32f4xx_ll_usb.c ****   *          This parameter can be one of these values:
1392:Drivers/STM32F4xx_HAL_Driver/Src/stm32f4xx_ll_usb.c ****   *            @arg USB_OTG_SPEED_HIGH: High speed mode
1393:Drivers/STM32F4xx_HAL_Driver/Src/stm32f4xx_ll_usb.c ****   *            @arg USB_OTG_SPEED_FULL: Full speed mode
1394:Drivers/STM32F4xx_HAL_Driver/Src/stm32f4xx_ll_usb.c ****   *            @arg USB_OTG_SPEED_LOW: Low speed mode
1395:Drivers/STM32F4xx_HAL_Driver/Src/stm32f4xx_ll_usb.c ****   */
1396:Drivers/STM32F4xx_HAL_Driver/Src/stm32f4xx_ll_usb.c **** uint32_t USB_GetHostSpeed (USB_OTG_GlobalTypeDef *USBx)
1397:Drivers/STM32F4xx_HAL_Driver/Src/stm32f4xx_ll_usb.c **** {
ARM GAS  C:\Users\gx\AppData\Local\Temp\ccXSZ03x.s 			page 26


1398:Drivers/STM32F4xx_HAL_Driver/Src/stm32f4xx_ll_usb.c ****   __IO uint32_t hprt0;
1399:Drivers/STM32F4xx_HAL_Driver/Src/stm32f4xx_ll_usb.c ****   
1400:Drivers/STM32F4xx_HAL_Driver/Src/stm32f4xx_ll_usb.c ****   hprt0 = USBx_HPRT0;
1401:Drivers/STM32F4xx_HAL_Driver/Src/stm32f4xx_ll_usb.c ****   return ((hprt0 & USB_OTG_HPRT_PSPD) >> 17U);
1402:Drivers/STM32F4xx_HAL_Driver/Src/stm32f4xx_ll_usb.c **** }
1403:Drivers/STM32F4xx_HAL_Driver/Src/stm32f4xx_ll_usb.c **** 
1404:Drivers/STM32F4xx_HAL_Driver/Src/stm32f4xx_ll_usb.c **** /**
1405:Drivers/STM32F4xx_HAL_Driver/Src/stm32f4xx_ll_usb.c ****   * @brief  Return Host Current Frame number
1406:Drivers/STM32F4xx_HAL_Driver/Src/stm32f4xx_ll_usb.c ****   * @param  USBx  Selected device
1407:Drivers/STM32F4xx_HAL_Driver/Src/stm32f4xx_ll_usb.c ****   * @retval current frame number
1408:Drivers/STM32F4xx_HAL_Driver/Src/stm32f4xx_ll_usb.c **** */
1409:Drivers/STM32F4xx_HAL_Driver/Src/stm32f4xx_ll_usb.c **** uint32_t USB_GetCurrentFrame (USB_OTG_GlobalTypeDef *USBx)
1410:Drivers/STM32F4xx_HAL_Driver/Src/stm32f4xx_ll_usb.c **** {
1411:Drivers/STM32F4xx_HAL_Driver/Src/stm32f4xx_ll_usb.c ****   return (USBx_HOST->HFNUM & USB_OTG_HFNUM_FRNUM);
1412:Drivers/STM32F4xx_HAL_Driver/Src/stm32f4xx_ll_usb.c **** }
1413:Drivers/STM32F4xx_HAL_Driver/Src/stm32f4xx_ll_usb.c **** 
1414:Drivers/STM32F4xx_HAL_Driver/Src/stm32f4xx_ll_usb.c **** /**
1415:Drivers/STM32F4xx_HAL_Driver/Src/stm32f4xx_ll_usb.c ****   * @brief  Initialize a host channel
1416:Drivers/STM32F4xx_HAL_Driver/Src/stm32f4xx_ll_usb.c ****   * @param  USBx  Selected device
1417:Drivers/STM32F4xx_HAL_Driver/Src/stm32f4xx_ll_usb.c ****   * @param  ch_num  Channel number
1418:Drivers/STM32F4xx_HAL_Driver/Src/stm32f4xx_ll_usb.c ****   *         This parameter can be a value from 1 to 15
1419:Drivers/STM32F4xx_HAL_Driver/Src/stm32f4xx_ll_usb.c ****   * @param  epnum  Endpoint number
1420:Drivers/STM32F4xx_HAL_Driver/Src/stm32f4xx_ll_usb.c ****   *          This parameter can be a value from 1 to 15
1421:Drivers/STM32F4xx_HAL_Driver/Src/stm32f4xx_ll_usb.c ****   * @param  dev_address  Current device address
1422:Drivers/STM32F4xx_HAL_Driver/Src/stm32f4xx_ll_usb.c ****   *          This parameter can be a value from 0 to 255
1423:Drivers/STM32F4xx_HAL_Driver/Src/stm32f4xx_ll_usb.c ****   * @param  speed  Current device speed
1424:Drivers/STM32F4xx_HAL_Driver/Src/stm32f4xx_ll_usb.c ****   *          This parameter can be one of these values:
1425:Drivers/STM32F4xx_HAL_Driver/Src/stm32f4xx_ll_usb.c ****   *            @arg USB_OTG_SPEED_HIGH: High speed mode
1426:Drivers/STM32F4xx_HAL_Driver/Src/stm32f4xx_ll_usb.c ****   *            @arg USB_OTG_SPEED_FULL: Full speed mode
1427:Drivers/STM32F4xx_HAL_Driver/Src/stm32f4xx_ll_usb.c ****   *            @arg USB_OTG_SPEED_LOW: Low speed mode
1428:Drivers/STM32F4xx_HAL_Driver/Src/stm32f4xx_ll_usb.c ****   * @param  ep_type  Endpoint Type
1429:Drivers/STM32F4xx_HAL_Driver/Src/stm32f4xx_ll_usb.c ****   *          This parameter can be one of these values:
1430:Drivers/STM32F4xx_HAL_Driver/Src/stm32f4xx_ll_usb.c ****   *            @arg EP_TYPE_CTRL: Control type
1431:Drivers/STM32F4xx_HAL_Driver/Src/stm32f4xx_ll_usb.c ****   *            @arg EP_TYPE_ISOC: Isochronous type
1432:Drivers/STM32F4xx_HAL_Driver/Src/stm32f4xx_ll_usb.c ****   *            @arg EP_TYPE_BULK: Bulk type
1433:Drivers/STM32F4xx_HAL_Driver/Src/stm32f4xx_ll_usb.c ****   *            @arg EP_TYPE_INTR: Interrupt type
1434:Drivers/STM32F4xx_HAL_Driver/Src/stm32f4xx_ll_usb.c ****   * @param  mps  Max Packet Size
1435:Drivers/STM32F4xx_HAL_Driver/Src/stm32f4xx_ll_usb.c ****   *          This parameter can be a value from 0 to32K
1436:Drivers/STM32F4xx_HAL_Driver/Src/stm32f4xx_ll_usb.c ****   * @retval HAL state
1437:Drivers/STM32F4xx_HAL_Driver/Src/stm32f4xx_ll_usb.c ****   */
1438:Drivers/STM32F4xx_HAL_Driver/Src/stm32f4xx_ll_usb.c **** HAL_StatusTypeDef USB_HC_Init(USB_OTG_GlobalTypeDef *USBx,  
1439:Drivers/STM32F4xx_HAL_Driver/Src/stm32f4xx_ll_usb.c ****                               uint8_t ch_num,
1440:Drivers/STM32F4xx_HAL_Driver/Src/stm32f4xx_ll_usb.c ****                               uint8_t epnum,
1441:Drivers/STM32F4xx_HAL_Driver/Src/stm32f4xx_ll_usb.c ****                               uint8_t dev_address,
1442:Drivers/STM32F4xx_HAL_Driver/Src/stm32f4xx_ll_usb.c ****                               uint8_t speed,
1443:Drivers/STM32F4xx_HAL_Driver/Src/stm32f4xx_ll_usb.c ****                               uint8_t ep_type,
1444:Drivers/STM32F4xx_HAL_Driver/Src/stm32f4xx_ll_usb.c ****                               uint16_t mps)
1445:Drivers/STM32F4xx_HAL_Driver/Src/stm32f4xx_ll_usb.c **** {
1446:Drivers/STM32F4xx_HAL_Driver/Src/stm32f4xx_ll_usb.c ****     
1447:Drivers/STM32F4xx_HAL_Driver/Src/stm32f4xx_ll_usb.c ****   /* Clear old interrupt conditions for this host channel. */
1448:Drivers/STM32F4xx_HAL_Driver/Src/stm32f4xx_ll_usb.c ****   USBx_HC(ch_num)->HCINT = 0xFFFFFFFFU;
1449:Drivers/STM32F4xx_HAL_Driver/Src/stm32f4xx_ll_usb.c ****   
1450:Drivers/STM32F4xx_HAL_Driver/Src/stm32f4xx_ll_usb.c ****   /* Enable channel interrupts required for this transfer. */
1451:Drivers/STM32F4xx_HAL_Driver/Src/stm32f4xx_ll_usb.c ****   switch (ep_type) 
1452:Drivers/STM32F4xx_HAL_Driver/Src/stm32f4xx_ll_usb.c ****   {
1453:Drivers/STM32F4xx_HAL_Driver/Src/stm32f4xx_ll_usb.c ****   case EP_TYPE_CTRL:
1454:Drivers/STM32F4xx_HAL_Driver/Src/stm32f4xx_ll_usb.c ****   case EP_TYPE_BULK:
ARM GAS  C:\Users\gx\AppData\Local\Temp\ccXSZ03x.s 			page 27


1455:Drivers/STM32F4xx_HAL_Driver/Src/stm32f4xx_ll_usb.c ****     
1456:Drivers/STM32F4xx_HAL_Driver/Src/stm32f4xx_ll_usb.c ****     USBx_HC(ch_num)->HCINTMSK = USB_OTG_HCINTMSK_XFRCM  |\
1457:Drivers/STM32F4xx_HAL_Driver/Src/stm32f4xx_ll_usb.c ****                                 USB_OTG_HCINTMSK_STALLM |\
1458:Drivers/STM32F4xx_HAL_Driver/Src/stm32f4xx_ll_usb.c ****                                 USB_OTG_HCINTMSK_TXERRM |\
1459:Drivers/STM32F4xx_HAL_Driver/Src/stm32f4xx_ll_usb.c ****                                 USB_OTG_HCINTMSK_DTERRM |\
1460:Drivers/STM32F4xx_HAL_Driver/Src/stm32f4xx_ll_usb.c ****                                 USB_OTG_HCINTMSK_AHBERR |\
1461:Drivers/STM32F4xx_HAL_Driver/Src/stm32f4xx_ll_usb.c ****                                 USB_OTG_HCINTMSK_NAKM ;
1462:Drivers/STM32F4xx_HAL_Driver/Src/stm32f4xx_ll_usb.c ****  
1463:Drivers/STM32F4xx_HAL_Driver/Src/stm32f4xx_ll_usb.c ****     if (epnum & 0x80U) 
1464:Drivers/STM32F4xx_HAL_Driver/Src/stm32f4xx_ll_usb.c ****     {
1465:Drivers/STM32F4xx_HAL_Driver/Src/stm32f4xx_ll_usb.c ****       USBx_HC(ch_num)->HCINTMSK |= USB_OTG_HCINTMSK_BBERRM;
1466:Drivers/STM32F4xx_HAL_Driver/Src/stm32f4xx_ll_usb.c ****     } 
1467:Drivers/STM32F4xx_HAL_Driver/Src/stm32f4xx_ll_usb.c ****     else 
1468:Drivers/STM32F4xx_HAL_Driver/Src/stm32f4xx_ll_usb.c ****     {
1469:Drivers/STM32F4xx_HAL_Driver/Src/stm32f4xx_ll_usb.c ****       if(USBx != USB_OTG_FS)
1470:Drivers/STM32F4xx_HAL_Driver/Src/stm32f4xx_ll_usb.c ****       {
1471:Drivers/STM32F4xx_HAL_Driver/Src/stm32f4xx_ll_usb.c ****         USBx_HC(ch_num)->HCINTMSK |= (USB_OTG_HCINTMSK_NYET | USB_OTG_HCINTMSK_ACKM);
1472:Drivers/STM32F4xx_HAL_Driver/Src/stm32f4xx_ll_usb.c ****       }
1473:Drivers/STM32F4xx_HAL_Driver/Src/stm32f4xx_ll_usb.c ****     }
1474:Drivers/STM32F4xx_HAL_Driver/Src/stm32f4xx_ll_usb.c ****     break;
1475:Drivers/STM32F4xx_HAL_Driver/Src/stm32f4xx_ll_usb.c ****     
1476:Drivers/STM32F4xx_HAL_Driver/Src/stm32f4xx_ll_usb.c ****   case EP_TYPE_INTR:
1477:Drivers/STM32F4xx_HAL_Driver/Src/stm32f4xx_ll_usb.c ****     
1478:Drivers/STM32F4xx_HAL_Driver/Src/stm32f4xx_ll_usb.c ****     USBx_HC(ch_num)->HCINTMSK = USB_OTG_HCINTMSK_XFRCM  |\
1479:Drivers/STM32F4xx_HAL_Driver/Src/stm32f4xx_ll_usb.c ****                                 USB_OTG_HCINTMSK_STALLM |\
1480:Drivers/STM32F4xx_HAL_Driver/Src/stm32f4xx_ll_usb.c ****                                 USB_OTG_HCINTMSK_TXERRM |\
1481:Drivers/STM32F4xx_HAL_Driver/Src/stm32f4xx_ll_usb.c ****                                 USB_OTG_HCINTMSK_DTERRM |\
1482:Drivers/STM32F4xx_HAL_Driver/Src/stm32f4xx_ll_usb.c ****                                 USB_OTG_HCINTMSK_NAKM   |\
1483:Drivers/STM32F4xx_HAL_Driver/Src/stm32f4xx_ll_usb.c ****                                 USB_OTG_HCINTMSK_AHBERR |\
1484:Drivers/STM32F4xx_HAL_Driver/Src/stm32f4xx_ll_usb.c ****                                 USB_OTG_HCINTMSK_FRMORM ;    
1485:Drivers/STM32F4xx_HAL_Driver/Src/stm32f4xx_ll_usb.c ****     
1486:Drivers/STM32F4xx_HAL_Driver/Src/stm32f4xx_ll_usb.c ****     if (epnum & 0x80U) 
1487:Drivers/STM32F4xx_HAL_Driver/Src/stm32f4xx_ll_usb.c ****     {
1488:Drivers/STM32F4xx_HAL_Driver/Src/stm32f4xx_ll_usb.c ****       USBx_HC(ch_num)->HCINTMSK |= USB_OTG_HCINTMSK_BBERRM;
1489:Drivers/STM32F4xx_HAL_Driver/Src/stm32f4xx_ll_usb.c ****     }
1490:Drivers/STM32F4xx_HAL_Driver/Src/stm32f4xx_ll_usb.c ****     
1491:Drivers/STM32F4xx_HAL_Driver/Src/stm32f4xx_ll_usb.c ****     break;
1492:Drivers/STM32F4xx_HAL_Driver/Src/stm32f4xx_ll_usb.c ****   case EP_TYPE_ISOC:
1493:Drivers/STM32F4xx_HAL_Driver/Src/stm32f4xx_ll_usb.c ****     
1494:Drivers/STM32F4xx_HAL_Driver/Src/stm32f4xx_ll_usb.c ****     USBx_HC(ch_num)->HCINTMSK = USB_OTG_HCINTMSK_XFRCM  |\
1495:Drivers/STM32F4xx_HAL_Driver/Src/stm32f4xx_ll_usb.c ****                                 USB_OTG_HCINTMSK_ACKM   |\
1496:Drivers/STM32F4xx_HAL_Driver/Src/stm32f4xx_ll_usb.c ****                                 USB_OTG_HCINTMSK_AHBERR |\
1497:Drivers/STM32F4xx_HAL_Driver/Src/stm32f4xx_ll_usb.c ****                                 USB_OTG_HCINTMSK_FRMORM ;   
1498:Drivers/STM32F4xx_HAL_Driver/Src/stm32f4xx_ll_usb.c ****     
1499:Drivers/STM32F4xx_HAL_Driver/Src/stm32f4xx_ll_usb.c ****     if (epnum & 0x80U) 
1500:Drivers/STM32F4xx_HAL_Driver/Src/stm32f4xx_ll_usb.c ****     {
1501:Drivers/STM32F4xx_HAL_Driver/Src/stm32f4xx_ll_usb.c ****       USBx_HC(ch_num)->HCINTMSK |= (USB_OTG_HCINTMSK_TXERRM | USB_OTG_HCINTMSK_BBERRM);      
1502:Drivers/STM32F4xx_HAL_Driver/Src/stm32f4xx_ll_usb.c ****     }
1503:Drivers/STM32F4xx_HAL_Driver/Src/stm32f4xx_ll_usb.c ****     break;
1504:Drivers/STM32F4xx_HAL_Driver/Src/stm32f4xx_ll_usb.c ****   }
1505:Drivers/STM32F4xx_HAL_Driver/Src/stm32f4xx_ll_usb.c ****   
1506:Drivers/STM32F4xx_HAL_Driver/Src/stm32f4xx_ll_usb.c ****   /* Enable the top level host channel interrupt. */
1507:Drivers/STM32F4xx_HAL_Driver/Src/stm32f4xx_ll_usb.c ****   USBx_HOST->HAINTMSK |= (1 << ch_num);
1508:Drivers/STM32F4xx_HAL_Driver/Src/stm32f4xx_ll_usb.c ****   
1509:Drivers/STM32F4xx_HAL_Driver/Src/stm32f4xx_ll_usb.c ****   /* Make sure host channel interrupts are enabled. */
1510:Drivers/STM32F4xx_HAL_Driver/Src/stm32f4xx_ll_usb.c ****   USBx->GINTMSK |= USB_OTG_GINTMSK_HCIM;
1511:Drivers/STM32F4xx_HAL_Driver/Src/stm32f4xx_ll_usb.c ****   
ARM GAS  C:\Users\gx\AppData\Local\Temp\ccXSZ03x.s 			page 28


1512:Drivers/STM32F4xx_HAL_Driver/Src/stm32f4xx_ll_usb.c ****   /* Program the HCCHAR register */
1513:Drivers/STM32F4xx_HAL_Driver/Src/stm32f4xx_ll_usb.c ****   USBx_HC(ch_num)->HCCHAR = (((dev_address << 22U) & USB_OTG_HCCHAR_DAD)  |\
1514:Drivers/STM32F4xx_HAL_Driver/Src/stm32f4xx_ll_usb.c ****                              (((epnum & 0x7FU)<< 11U) & USB_OTG_HCCHAR_EPNUM)|\
1515:Drivers/STM32F4xx_HAL_Driver/Src/stm32f4xx_ll_usb.c ****                              ((((epnum & 0x80U) == 0x80U)<< 15U) & USB_OTG_HCCHAR_EPDIR)|\
1516:Drivers/STM32F4xx_HAL_Driver/Src/stm32f4xx_ll_usb.c ****                              (((speed == USB_OTG_SPEED_LOW)<< 17U) & USB_OTG_HCCHAR_LSDEV)|\
1517:Drivers/STM32F4xx_HAL_Driver/Src/stm32f4xx_ll_usb.c ****                              ((ep_type << 18U) & USB_OTG_HCCHAR_EPTYP)|\
1518:Drivers/STM32F4xx_HAL_Driver/Src/stm32f4xx_ll_usb.c ****                              (mps & USB_OTG_HCCHAR_MPSIZ));
1519:Drivers/STM32F4xx_HAL_Driver/Src/stm32f4xx_ll_usb.c ****     
1520:Drivers/STM32F4xx_HAL_Driver/Src/stm32f4xx_ll_usb.c ****   if (ep_type == EP_TYPE_INTR)
1521:Drivers/STM32F4xx_HAL_Driver/Src/stm32f4xx_ll_usb.c ****   {
1522:Drivers/STM32F4xx_HAL_Driver/Src/stm32f4xx_ll_usb.c ****     USBx_HC(ch_num)->HCCHAR |= USB_OTG_HCCHAR_ODDFRM ;
1523:Drivers/STM32F4xx_HAL_Driver/Src/stm32f4xx_ll_usb.c ****   }
1524:Drivers/STM32F4xx_HAL_Driver/Src/stm32f4xx_ll_usb.c **** 
1525:Drivers/STM32F4xx_HAL_Driver/Src/stm32f4xx_ll_usb.c ****   return HAL_OK; 
1526:Drivers/STM32F4xx_HAL_Driver/Src/stm32f4xx_ll_usb.c **** }
1527:Drivers/STM32F4xx_HAL_Driver/Src/stm32f4xx_ll_usb.c **** 
1528:Drivers/STM32F4xx_HAL_Driver/Src/stm32f4xx_ll_usb.c **** /**
1529:Drivers/STM32F4xx_HAL_Driver/Src/stm32f4xx_ll_usb.c ****   * @brief  Start a transfer over a host channel
1530:Drivers/STM32F4xx_HAL_Driver/Src/stm32f4xx_ll_usb.c ****   * @param  USBx  Selected device
1531:Drivers/STM32F4xx_HAL_Driver/Src/stm32f4xx_ll_usb.c ****   * @param  hc  pointer to host channel structure
1532:Drivers/STM32F4xx_HAL_Driver/Src/stm32f4xx_ll_usb.c ****   * @param  dma USB dma enabled or disabled 
1533:Drivers/STM32F4xx_HAL_Driver/Src/stm32f4xx_ll_usb.c ****   *          This parameter can be one of these values:
1534:Drivers/STM32F4xx_HAL_Driver/Src/stm32f4xx_ll_usb.c ****   *           0 : DMA feature not used 
1535:Drivers/STM32F4xx_HAL_Driver/Src/stm32f4xx_ll_usb.c ****   *           1 : DMA feature used  
1536:Drivers/STM32F4xx_HAL_Driver/Src/stm32f4xx_ll_usb.c ****   * @retval HAL state
1537:Drivers/STM32F4xx_HAL_Driver/Src/stm32f4xx_ll_usb.c ****   */
1538:Drivers/STM32F4xx_HAL_Driver/Src/stm32f4xx_ll_usb.c **** #if defined   (__CC_ARM) /*!< ARM Compiler */
1539:Drivers/STM32F4xx_HAL_Driver/Src/stm32f4xx_ll_usb.c **** #pragma O0
1540:Drivers/STM32F4xx_HAL_Driver/Src/stm32f4xx_ll_usb.c **** #elif defined (__GNUC__) /*!< GNU Compiler */
1541:Drivers/STM32F4xx_HAL_Driver/Src/stm32f4xx_ll_usb.c **** #pragma GCC optimize ("O0")
1542:Drivers/STM32F4xx_HAL_Driver/Src/stm32f4xx_ll_usb.c **** #endif /* __CC_ARM */
1543:Drivers/STM32F4xx_HAL_Driver/Src/stm32f4xx_ll_usb.c **** HAL_StatusTypeDef USB_HC_StartXfer(USB_OTG_GlobalTypeDef *USBx, USB_OTG_HCTypeDef *hc, uint8_t dma)
1544:Drivers/STM32F4xx_HAL_Driver/Src/stm32f4xx_ll_usb.c **** {
  30              		.loc 1 1544 1 view -0
  31              		.cfi_startproc
  32              		@ args = 0, pretend = 0, frame = 32
  33              		@ frame_needed = 1, uses_anonymous_args = 0
  34              		.loc 1 1544 1 is_stmt 0 view .LVU1
  35 0000 80B5     		push	{r7, lr}
  36              	.LCFI0:
  37              		.cfi_def_cfa_offset 8
  38              		.cfi_offset 7, -8
  39              		.cfi_offset 14, -4
  40 0002 8AB0     		sub	sp, sp, #40
  41              	.LCFI1:
  42              		.cfi_def_cfa_offset 48
  43 0004 02AF     		add	r7, sp, #8
  44              	.LCFI2:
  45              		.cfi_def_cfa 7, 40
  46 0006 F860     		str	r0, [r7, #12]
  47 0008 B960     		str	r1, [r7, #8]
  48 000a 1346     		mov	r3, r2
  49 000c FB71     		strb	r3, [r7, #7]
1545:Drivers/STM32F4xx_HAL_Driver/Src/stm32f4xx_ll_usb.c ****   uint8_t  is_oddframe = 0; 
  50              		.loc 1 1545 3 is_stmt 1 view .LVU2
  51              		.loc 1 1545 12 is_stmt 0 view .LVU3
  52 000e 0023     		movs	r3, #0
ARM GAS  C:\Users\gx\AppData\Local\Temp\ccXSZ03x.s 			page 29


  53 0010 7B77     		strb	r3, [r7, #29]
  54              	.LVL1:
1546:Drivers/STM32F4xx_HAL_Driver/Src/stm32f4xx_ll_usb.c ****   uint16_t len_words = 0;   
  55              		.loc 1 1546 3 is_stmt 1 view .LVU4
  56              		.loc 1 1546 12 is_stmt 0 view .LVU5
  57 0012 0023     		movs	r3, #0
  58              	.LVL2:
  59              		.loc 1 1546 12 view .LVU6
  60 0014 7B83     		strh	r3, [r7, #26]	@ movhi
  61              	.LVL3:
1547:Drivers/STM32F4xx_HAL_Driver/Src/stm32f4xx_ll_usb.c ****   uint16_t num_packets = 0;
  62              		.loc 1 1547 3 is_stmt 1 view .LVU7
  63              		.loc 1 1547 12 is_stmt 0 view .LVU8
  64 0016 0023     		movs	r3, #0
  65              	.LVL4:
  66              		.loc 1 1547 12 view .LVU9
  67 0018 FB83     		strh	r3, [r7, #30]	@ movhi
  68              	.LVL5:
1548:Drivers/STM32F4xx_HAL_Driver/Src/stm32f4xx_ll_usb.c ****   uint16_t max_hc_pkt_count = 256;
  69              		.loc 1 1548 3 is_stmt 1 view .LVU10
  70              		.loc 1 1548 12 is_stmt 0 view .LVU11
  71 001a 4FF48073 		mov	r3, #256
  72              	.LVL6:
  73              		.loc 1 1548 12 view .LVU12
  74 001e 3B83     		strh	r3, [r7, #24]	@ movhi
  75              	.LVL7:
1549:Drivers/STM32F4xx_HAL_Driver/Src/stm32f4xx_ll_usb.c ****   uint32_t tmpreg = 0U;
  76              		.loc 1 1549 3 is_stmt 1 view .LVU13
  77              		.loc 1 1549 12 is_stmt 0 view .LVU14
  78 0020 0023     		movs	r3, #0
  79              	.LVL8:
  80              		.loc 1 1549 12 view .LVU15
  81 0022 7B61     		str	r3, [r7, #20]
  82              	.LVL9:
1550:Drivers/STM32F4xx_HAL_Driver/Src/stm32f4xx_ll_usb.c ****     
1551:Drivers/STM32F4xx_HAL_Driver/Src/stm32f4xx_ll_usb.c ****   if((USBx != USB_OTG_FS) && (hc->speed == USB_OTG_SPEED_HIGH))
  83              		.loc 1 1551 3 is_stmt 1 view .LVU16
  84              		.loc 1 1551 5 is_stmt 0 view .LVU17
  85 0024 FB68     		ldr	r3, [r7, #12]
  86              	.LVL10:
  87              		.loc 1 1551 5 view .LVU18
  88 0026 B3F1A04F 		cmp	r3, #1342177280
  89 002a 2AD0     		beq	.L2
  90              		.loc 1 1551 33 discriminator 1 view .LVU19
  91 002c BB68     		ldr	r3, [r7, #8]
  92 002e 1B79     		ldrb	r3, [r3, #4]	@ zero_extendqisi2
  93              		.loc 1 1551 27 discriminator 1 view .LVU20
  94 0030 002B     		cmp	r3, #0
  95 0032 26D1     		bne	.L2
1552:Drivers/STM32F4xx_HAL_Driver/Src/stm32f4xx_ll_usb.c ****   {
1553:Drivers/STM32F4xx_HAL_Driver/Src/stm32f4xx_ll_usb.c ****     if((dma == 0) && (hc->do_ping == 1U))
  96              		.loc 1 1553 5 is_stmt 1 view .LVU21
  97              		.loc 1 1553 7 is_stmt 0 view .LVU22
  98 0034 FB79     		ldrb	r3, [r7, #7]	@ zero_extendqisi2
  99 0036 002B     		cmp	r3, #0
 100 0038 0BD1     		bne	.L3
 101              		.loc 1 1553 25 discriminator 1 view .LVU23
ARM GAS  C:\Users\gx\AppData\Local\Temp\ccXSZ03x.s 			page 30


 102 003a BB68     		ldr	r3, [r7, #8]
 103 003c 5B79     		ldrb	r3, [r3, #5]	@ zero_extendqisi2
 104              		.loc 1 1553 19 discriminator 1 view .LVU24
 105 003e 012B     		cmp	r3, #1
 106 0040 07D1     		bne	.L3
1554:Drivers/STM32F4xx_HAL_Driver/Src/stm32f4xx_ll_usb.c ****     {
1555:Drivers/STM32F4xx_HAL_Driver/Src/stm32f4xx_ll_usb.c ****       USB_DoPing(USBx, hc->ch_num);
 107              		.loc 1 1555 7 is_stmt 1 view .LVU25
 108 0042 BB68     		ldr	r3, [r7, #8]
 109 0044 5B78     		ldrb	r3, [r3, #1]	@ zero_extendqisi2
 110 0046 1946     		mov	r1, r3
 111              	.LVL11:
 112              		.loc 1 1555 7 is_stmt 0 view .LVU26
 113 0048 F868     		ldr	r0, [r7, #12]
 114              		.loc 1 1555 7 view .LVU27
 115 004a FFF7FEFF 		bl	USB_DoPing
 116              	.LVL12:
1556:Drivers/STM32F4xx_HAL_Driver/Src/stm32f4xx_ll_usb.c ****       return HAL_OK;
 117              		.loc 1 1556 7 is_stmt 1 view .LVU28
 118              		.loc 1 1556 14 is_stmt 0 view .LVU29
 119 004e 0023     		movs	r3, #0
 120 0050 08E1     		b	.L4
 121              	.LVL13:
 122              	.L3:
1557:Drivers/STM32F4xx_HAL_Driver/Src/stm32f4xx_ll_usb.c ****     }
1558:Drivers/STM32F4xx_HAL_Driver/Src/stm32f4xx_ll_usb.c ****     else if(dma == 1)
 123              		.loc 1 1558 10 is_stmt 1 view .LVU30
 124              		.loc 1 1558 12 is_stmt 0 view .LVU31
 125 0052 FB79     		ldrb	r3, [r7, #7]	@ zero_extendqisi2
 126 0054 012B     		cmp	r3, #1
 127 0056 14D1     		bne	.L2
1559:Drivers/STM32F4xx_HAL_Driver/Src/stm32f4xx_ll_usb.c ****     {
1560:Drivers/STM32F4xx_HAL_Driver/Src/stm32f4xx_ll_usb.c ****       USBx_HC(hc->ch_num)->HCINTMSK &= ~(USB_OTG_HCINTMSK_NYET | USB_OTG_HCINTMSK_ACKM);
 128              		.loc 1 1560 7 is_stmt 1 view .LVU32
 129 0058 BB68     		ldr	r3, [r7, #8]
 130 005a 5B78     		ldrb	r3, [r3, #1]	@ zero_extendqisi2
 131              		.loc 1 1560 37 is_stmt 0 view .LVU33
 132 005c 5A01     		lsls	r2, r3, #5
 133              	.LVL14:
 134              		.loc 1 1560 37 view .LVU34
 135 005e FB68     		ldr	r3, [r7, #12]
 136 0060 1344     		add	r3, r3, r2
 137 0062 03F5A063 		add	r3, r3, #1280
 138 0066 DB68     		ldr	r3, [r3, #12]
 139              		.loc 1 1560 7 view .LVU35
 140 0068 BA68     		ldr	r2, [r7, #8]
 141 006a 5278     		ldrb	r2, [r2, #1]	@ zero_extendqisi2
 142              		.loc 1 1560 37 view .LVU36
 143 006c 5101     		lsls	r1, r2, #5
 144              	.LVL15:
 145              		.loc 1 1560 37 view .LVU37
 146 006e FA68     		ldr	r2, [r7, #12]
 147 0070 0A44     		add	r2, r2, r1
 148 0072 02F5A062 		add	r2, r2, #1280
 149 0076 23F06003 		bic	r3, r3, #96
 150 007a D360     		str	r3, [r2, #12]
1561:Drivers/STM32F4xx_HAL_Driver/Src/stm32f4xx_ll_usb.c ****       hc->do_ping = 0U;
ARM GAS  C:\Users\gx\AppData\Local\Temp\ccXSZ03x.s 			page 31


 151              		.loc 1 1561 7 is_stmt 1 view .LVU38
 152              		.loc 1 1561 19 is_stmt 0 view .LVU39
 153 007c BB68     		ldr	r3, [r7, #8]
 154 007e 0022     		movs	r2, #0
 155 0080 5A71     		strb	r2, [r3, #5]
 156              	.L2:
1562:Drivers/STM32F4xx_HAL_Driver/Src/stm32f4xx_ll_usb.c ****     }
1563:Drivers/STM32F4xx_HAL_Driver/Src/stm32f4xx_ll_usb.c ****   }
1564:Drivers/STM32F4xx_HAL_Driver/Src/stm32f4xx_ll_usb.c ****   
1565:Drivers/STM32F4xx_HAL_Driver/Src/stm32f4xx_ll_usb.c ****   /* Compute the expected number of packets associated to the transfer */
1566:Drivers/STM32F4xx_HAL_Driver/Src/stm32f4xx_ll_usb.c ****   if (hc->xfer_len > 0U)
 157              		.loc 1 1566 3 is_stmt 1 view .LVU40
 158              		.loc 1 1566 9 is_stmt 0 view .LVU41
 159 0082 BB68     		ldr	r3, [r7, #8]
 160 0084 1B69     		ldr	r3, [r3, #16]
 161              		.loc 1 1566 6 view .LVU42
 162 0086 002B     		cmp	r3, #0
 163 0088 19D0     		beq	.L5
1567:Drivers/STM32F4xx_HAL_Driver/Src/stm32f4xx_ll_usb.c ****   {
1568:Drivers/STM32F4xx_HAL_Driver/Src/stm32f4xx_ll_usb.c ****     num_packets = (hc->xfer_len + hc->max_packet - 1U) / hc->max_packet;
 164              		.loc 1 1568 5 is_stmt 1 view .LVU43
 165              		.loc 1 1568 22 is_stmt 0 view .LVU44
 166 008a BB68     		ldr	r3, [r7, #8]
 167 008c 1B69     		ldr	r3, [r3, #16]
 168              		.loc 1 1568 37 view .LVU45
 169 008e BA68     		ldr	r2, [r7, #8]
 170 0090 1289     		ldrh	r2, [r2, #8]
 171              		.loc 1 1568 33 view .LVU46
 172 0092 1344     		add	r3, r3, r2
 173              		.loc 1 1568 50 view .LVU47
 174 0094 013B     		subs	r3, r3, #1
 175              		.loc 1 1568 60 view .LVU48
 176 0096 BA68     		ldr	r2, [r7, #8]
 177 0098 1289     		ldrh	r2, [r2, #8]
 178              		.loc 1 1568 56 view .LVU49
 179 009a B3FBF2F3 		udiv	r3, r3, r2
 180              		.loc 1 1568 17 view .LVU50
 181 009e FB83     		strh	r3, [r7, #30]	@ movhi
 182              	.LVL16:
1569:Drivers/STM32F4xx_HAL_Driver/Src/stm32f4xx_ll_usb.c ****     
1570:Drivers/STM32F4xx_HAL_Driver/Src/stm32f4xx_ll_usb.c ****     if (num_packets > max_hc_pkt_count)
 183              		.loc 1 1570 5 is_stmt 1 view .LVU51
 184              		.loc 1 1570 8 is_stmt 0 view .LVU52
 185 00a0 FA8B     		ldrh	r2, [r7, #30]
 186 00a2 3B8B     		ldrh	r3, [r7, #24]
 187              	.LVL17:
 188              		.loc 1 1570 8 view .LVU53
 189 00a4 9A42     		cmp	r2, r3
 190 00a6 0CD9     		bls	.L6
1571:Drivers/STM32F4xx_HAL_Driver/Src/stm32f4xx_ll_usb.c ****     {
1572:Drivers/STM32F4xx_HAL_Driver/Src/stm32f4xx_ll_usb.c ****       num_packets = max_hc_pkt_count;
 191              		.loc 1 1572 7 is_stmt 1 view .LVU54
 192              		.loc 1 1572 19 is_stmt 0 view .LVU55
 193 00a8 3B8B     		ldrh	r3, [r7, #24]	@ movhi
 194 00aa FB83     		strh	r3, [r7, #30]	@ movhi
 195              	.LVL18:
1573:Drivers/STM32F4xx_HAL_Driver/Src/stm32f4xx_ll_usb.c ****       hc->xfer_len = num_packets * hc->max_packet;
ARM GAS  C:\Users\gx\AppData\Local\Temp\ccXSZ03x.s 			page 32


 196              		.loc 1 1573 7 is_stmt 1 view .LVU56
 197              		.loc 1 1573 34 is_stmt 0 view .LVU57
 198 00ac FB8B     		ldrh	r3, [r7, #30]
 199              	.LVL19:
 200              		.loc 1 1573 38 view .LVU58
 201 00ae BA68     		ldr	r2, [r7, #8]
 202 00b0 1289     		ldrh	r2, [r2, #8]
 203              		.loc 1 1573 34 view .LVU59
 204 00b2 02FB03F3 		mul	r3, r2, r3
 205 00b6 1A46     		mov	r2, r3
 206              		.loc 1 1573 20 view .LVU60
 207 00b8 BB68     		ldr	r3, [r7, #8]
 208 00ba 1A61     		str	r2, [r3, #16]
 209 00bc 01E0     		b	.L6
 210              	.L5:
1574:Drivers/STM32F4xx_HAL_Driver/Src/stm32f4xx_ll_usb.c ****     }
1575:Drivers/STM32F4xx_HAL_Driver/Src/stm32f4xx_ll_usb.c ****   }
1576:Drivers/STM32F4xx_HAL_Driver/Src/stm32f4xx_ll_usb.c ****   else
1577:Drivers/STM32F4xx_HAL_Driver/Src/stm32f4xx_ll_usb.c ****   {
1578:Drivers/STM32F4xx_HAL_Driver/Src/stm32f4xx_ll_usb.c ****     num_packets = 1;
 211              		.loc 1 1578 5 is_stmt 1 view .LVU61
 212              		.loc 1 1578 17 is_stmt 0 view .LVU62
 213 00be 0123     		movs	r3, #1
 214 00c0 FB83     		strh	r3, [r7, #30]	@ movhi
 215              	.LVL20:
 216              	.L6:
1579:Drivers/STM32F4xx_HAL_Driver/Src/stm32f4xx_ll_usb.c ****   }
1580:Drivers/STM32F4xx_HAL_Driver/Src/stm32f4xx_ll_usb.c ****   if (hc->ep_is_in)
 217              		.loc 1 1580 3 is_stmt 1 view .LVU63
 218              		.loc 1 1580 9 is_stmt 0 view .LVU64
 219 00c2 BB68     		ldr	r3, [r7, #8]
 220 00c4 DB78     		ldrb	r3, [r3, #3]	@ zero_extendqisi2
 221              		.loc 1 1580 6 view .LVU65
 222 00c6 002B     		cmp	r3, #0
 223 00c8 07D0     		beq	.L7
1581:Drivers/STM32F4xx_HAL_Driver/Src/stm32f4xx_ll_usb.c ****   {
1582:Drivers/STM32F4xx_HAL_Driver/Src/stm32f4xx_ll_usb.c ****     hc->xfer_len = num_packets * hc->max_packet;
 224              		.loc 1 1582 5 is_stmt 1 view .LVU66
 225              		.loc 1 1582 32 is_stmt 0 view .LVU67
 226 00ca FB8B     		ldrh	r3, [r7, #30]
 227              		.loc 1 1582 36 view .LVU68
 228 00cc BA68     		ldr	r2, [r7, #8]
 229 00ce 1289     		ldrh	r2, [r2, #8]
 230              		.loc 1 1582 32 view .LVU69
 231 00d0 02FB03F3 		mul	r3, r2, r3
 232 00d4 1A46     		mov	r2, r3
 233              		.loc 1 1582 18 view .LVU70
 234 00d6 BB68     		ldr	r3, [r7, #8]
 235 00d8 1A61     		str	r2, [r3, #16]
 236              	.L7:
1583:Drivers/STM32F4xx_HAL_Driver/Src/stm32f4xx_ll_usb.c ****   }
1584:Drivers/STM32F4xx_HAL_Driver/Src/stm32f4xx_ll_usb.c ****   
1585:Drivers/STM32F4xx_HAL_Driver/Src/stm32f4xx_ll_usb.c ****   /* Initialize the HCTSIZn register */
1586:Drivers/STM32F4xx_HAL_Driver/Src/stm32f4xx_ll_usb.c ****   USBx_HC(hc->ch_num)->HCTSIZ = (((hc->xfer_len) & USB_OTG_HCTSIZ_XFRSIZ)) |\
 237              		.loc 1 1586 3 is_stmt 1 view .LVU71
 238              		.loc 1 1586 38 is_stmt 0 view .LVU72
 239 00da BB68     		ldr	r3, [r7, #8]
ARM GAS  C:\Users\gx\AppData\Local\Temp\ccXSZ03x.s 			page 33


 240 00dc 1B69     		ldr	r3, [r3, #16]
 241              		.loc 1 1586 50 view .LVU73
 242 00de C3F31202 		ubfx	r2, r3, #0, #19
1587:Drivers/STM32F4xx_HAL_Driver/Src/stm32f4xx_ll_usb.c ****     ((num_packets << 19U) & USB_OTG_HCTSIZ_PKTCNT) |\
 243              		.loc 1 1587 19 view .LVU74
 244 00e2 FB8B     		ldrh	r3, [r7, #30]
 245 00e4 DB04     		lsls	r3, r3, #19
 246              		.loc 1 1587 27 view .LVU75
 247 00e6 1946     		mov	r1, r3
 248 00e8 604B     		ldr	r3, .L20
 249 00ea 0B40     		ands	r3, r3, r1
1586:Drivers/STM32F4xx_HAL_Driver/Src/stm32f4xx_ll_usb.c ****     ((num_packets << 19U) & USB_OTG_HCTSIZ_PKTCNT) |\
 250              		.loc 1 1586 76 view .LVU76
 251 00ec 1A43     		orrs	r2, r2, r3
1588:Drivers/STM32F4xx_HAL_Driver/Src/stm32f4xx_ll_usb.c ****       (((hc->data_pid) << 29U) & USB_OTG_HCTSIZ_DPID);
 252              		.loc 1 1588 12 view .LVU77
 253 00ee BB68     		ldr	r3, [r7, #8]
 254 00f0 9B7A     		ldrb	r3, [r3, #10]	@ zero_extendqisi2
 255              		.loc 1 1588 24 view .LVU78
 256 00f2 5B07     		lsls	r3, r3, #29
 257              		.loc 1 1588 32 view .LVU79
 258 00f4 03F0C043 		and	r3, r3, #1610612736
1586:Drivers/STM32F4xx_HAL_Driver/Src/stm32f4xx_ll_usb.c ****     ((num_packets << 19U) & USB_OTG_HCTSIZ_PKTCNT) |\
 259              		.loc 1 1586 3 view .LVU80
 260 00f8 B968     		ldr	r1, [r7, #8]
 261 00fa 4978     		ldrb	r1, [r1, #1]	@ zero_extendqisi2
 262 00fc 4801     		lsls	r0, r1, #5
 263              	.LVL21:
1586:Drivers/STM32F4xx_HAL_Driver/Src/stm32f4xx_ll_usb.c ****     ((num_packets << 19U) & USB_OTG_HCTSIZ_PKTCNT) |\
 264              		.loc 1 1586 3 view .LVU81
 265 00fe F968     		ldr	r1, [r7, #12]
 266 0100 0144     		add	r1, r1, r0
 267 0102 01F5A061 		add	r1, r1, #1280
1587:Drivers/STM32F4xx_HAL_Driver/Src/stm32f4xx_ll_usb.c ****     ((num_packets << 19U) & USB_OTG_HCTSIZ_PKTCNT) |\
 268              		.loc 1 1587 52 view .LVU82
 269 0106 1343     		orrs	r3, r3, r2
1586:Drivers/STM32F4xx_HAL_Driver/Src/stm32f4xx_ll_usb.c ****     ((num_packets << 19U) & USB_OTG_HCTSIZ_PKTCNT) |\
 270              		.loc 1 1586 31 view .LVU83
 271 0108 0B61     		str	r3, [r1, #16]
1589:Drivers/STM32F4xx_HAL_Driver/Src/stm32f4xx_ll_usb.c ****   
1590:Drivers/STM32F4xx_HAL_Driver/Src/stm32f4xx_ll_usb.c ****   if (dma)
 272              		.loc 1 1590 3 is_stmt 1 view .LVU84
 273              		.loc 1 1590 6 is_stmt 0 view .LVU85
 274 010a FB79     		ldrb	r3, [r7, #7]	@ zero_extendqisi2
 275 010c 002B     		cmp	r3, #0
 276 010e 0AD0     		beq	.L8
1591:Drivers/STM32F4xx_HAL_Driver/Src/stm32f4xx_ll_usb.c ****   {
1592:Drivers/STM32F4xx_HAL_Driver/Src/stm32f4xx_ll_usb.c ****     /* xfer_buff MUST be 32-bits aligned */
1593:Drivers/STM32F4xx_HAL_Driver/Src/stm32f4xx_ll_usb.c ****     USBx_HC(hc->ch_num)->HCDMA = (uint32_t)hc->xfer_buff;
 277              		.loc 1 1593 5 is_stmt 1 view .LVU86
 278              		.loc 1 1593 46 is_stmt 0 view .LVU87
 279 0110 BB68     		ldr	r3, [r7, #8]
 280 0112 D968     		ldr	r1, [r3, #12]
 281              		.loc 1 1593 5 view .LVU88
 282 0114 BB68     		ldr	r3, [r7, #8]
 283 0116 5B78     		ldrb	r3, [r3, #1]	@ zero_extendqisi2
 284 0118 5A01     		lsls	r2, r3, #5
ARM GAS  C:\Users\gx\AppData\Local\Temp\ccXSZ03x.s 			page 34


 285 011a FB68     		ldr	r3, [r7, #12]
 286 011c 1344     		add	r3, r3, r2
 287 011e 03F5A063 		add	r3, r3, #1280
 288              		.loc 1 1593 34 view .LVU89
 289 0122 0A46     		mov	r2, r1
 290              		.loc 1 1593 32 view .LVU90
 291 0124 5A61     		str	r2, [r3, #20]
 292              	.L8:
1594:Drivers/STM32F4xx_HAL_Driver/Src/stm32f4xx_ll_usb.c ****   }
1595:Drivers/STM32F4xx_HAL_Driver/Src/stm32f4xx_ll_usb.c ****   
1596:Drivers/STM32F4xx_HAL_Driver/Src/stm32f4xx_ll_usb.c ****   is_oddframe = (USBx_HOST->HFNUM & 0x01) ? 0 : 1;
 293              		.loc 1 1596 3 is_stmt 1 view .LVU91
 294              		.loc 1 1596 18 is_stmt 0 view .LVU92
 295 0126 FB68     		ldr	r3, [r7, #12]
 296 0128 03F58063 		add	r3, r3, #1024
 297              		.loc 1 1596 27 view .LVU93
 298 012c 9B68     		ldr	r3, [r3, #8]
 299              		.loc 1 1596 35 view .LVU94
 300 012e 03F00103 		and	r3, r3, #1
 301              		.loc 1 1596 47 view .LVU95
 302 0132 002B     		cmp	r3, #0
 303 0134 0CBF     		ite	eq
 304 0136 0123     		moveq	r3, #1
 305 0138 0023     		movne	r3, #0
 306 013a DBB2     		uxtb	r3, r3
 307              		.loc 1 1596 15 view .LVU96
 308 013c 7B77     		strb	r3, [r7, #29]
 309              	.LVL22:
1597:Drivers/STM32F4xx_HAL_Driver/Src/stm32f4xx_ll_usb.c ****   USBx_HC(hc->ch_num)->HCCHAR &= ~USB_OTG_HCCHAR_ODDFRM;
 310              		.loc 1 1597 3 is_stmt 1 view .LVU97
 311 013e BB68     		ldr	r3, [r7, #8]
 312              	.LVL23:
 313              		.loc 1 1597 3 is_stmt 0 view .LVU98
 314 0140 5B78     		ldrb	r3, [r3, #1]	@ zero_extendqisi2
 315              		.loc 1 1597 31 view .LVU99
 316 0142 5A01     		lsls	r2, r3, #5
 317 0144 FB68     		ldr	r3, [r7, #12]
 318 0146 1344     		add	r3, r3, r2
 319 0148 03F5A063 		add	r3, r3, #1280
 320 014c 1B68     		ldr	r3, [r3]
 321              		.loc 1 1597 3 view .LVU100
 322 014e BA68     		ldr	r2, [r7, #8]
 323 0150 5278     		ldrb	r2, [r2, #1]	@ zero_extendqisi2
 324              		.loc 1 1597 31 view .LVU101
 325 0152 5101     		lsls	r1, r2, #5
 326 0154 FA68     		ldr	r2, [r7, #12]
 327 0156 0A44     		add	r2, r2, r1
 328 0158 02F5A062 		add	r2, r2, #1280
 329 015c 23F00053 		bic	r3, r3, #536870912
 330 0160 1360     		str	r3, [r2]
1598:Drivers/STM32F4xx_HAL_Driver/Src/stm32f4xx_ll_usb.c ****   USBx_HC(hc->ch_num)->HCCHAR |= (is_oddframe << 29);
 331              		.loc 1 1598 3 is_stmt 1 view .LVU102
 332 0162 BB68     		ldr	r3, [r7, #8]
 333 0164 5B78     		ldrb	r3, [r3, #1]	@ zero_extendqisi2
 334              		.loc 1 1598 31 is_stmt 0 view .LVU103
 335 0166 5A01     		lsls	r2, r3, #5
 336 0168 FB68     		ldr	r3, [r7, #12]
ARM GAS  C:\Users\gx\AppData\Local\Temp\ccXSZ03x.s 			page 35


 337 016a 1344     		add	r3, r3, r2
 338 016c 03F5A063 		add	r3, r3, #1280
 339 0170 1B68     		ldr	r3, [r3]
 340              		.loc 1 1598 47 view .LVU104
 341 0172 7A7F     		ldrb	r2, [r7, #29]	@ zero_extendqisi2
 342 0174 5207     		lsls	r2, r2, #29
 343 0176 1046     		mov	r0, r2
 344              		.loc 1 1598 3 view .LVU105
 345 0178 BA68     		ldr	r2, [r7, #8]
 346 017a 5278     		ldrb	r2, [r2, #1]	@ zero_extendqisi2
 347              		.loc 1 1598 31 view .LVU106
 348 017c 5101     		lsls	r1, r2, #5
 349 017e FA68     		ldr	r2, [r7, #12]
 350 0180 0A44     		add	r2, r2, r1
 351 0182 02F5A062 		add	r2, r2, #1280
 352 0186 0343     		orrs	r3, r3, r0
 353 0188 1360     		str	r3, [r2]
1599:Drivers/STM32F4xx_HAL_Driver/Src/stm32f4xx_ll_usb.c ****   
1600:Drivers/STM32F4xx_HAL_Driver/Src/stm32f4xx_ll_usb.c ****   /* Set host channel enable */
1601:Drivers/STM32F4xx_HAL_Driver/Src/stm32f4xx_ll_usb.c ****   tmpreg = USBx_HC(hc->ch_num)->HCCHAR;
 354              		.loc 1 1601 3 is_stmt 1 view .LVU107
 355              		.loc 1 1601 12 is_stmt 0 view .LVU108
 356 018a BB68     		ldr	r3, [r7, #8]
 357 018c 5B78     		ldrb	r3, [r3, #1]	@ zero_extendqisi2
 358 018e 5A01     		lsls	r2, r3, #5
 359 0190 FB68     		ldr	r3, [r7, #12]
 360 0192 1344     		add	r3, r3, r2
 361 0194 03F5A063 		add	r3, r3, #1280
 362              		.loc 1 1601 10 view .LVU109
 363 0198 1B68     		ldr	r3, [r3]
 364 019a 7B61     		str	r3, [r7, #20]
 365              	.LVL24:
1602:Drivers/STM32F4xx_HAL_Driver/Src/stm32f4xx_ll_usb.c ****   tmpreg &= ~USB_OTG_HCCHAR_CHDIS;
 366              		.loc 1 1602 3 is_stmt 1 view .LVU110
 367              		.loc 1 1602 10 is_stmt 0 view .LVU111
 368 019c 7B69     		ldr	r3, [r7, #20]
 369              		.loc 1 1602 10 view .LVU112
 370 019e 23F08043 		bic	r3, r3, #1073741824
 371              	.LVL25:
 372              		.loc 1 1602 10 view .LVU113
 373 01a2 7B61     		str	r3, [r7, #20]
 374              	.LVL26:
1603:Drivers/STM32F4xx_HAL_Driver/Src/stm32f4xx_ll_usb.c ****   tmpreg |= USB_OTG_HCCHAR_CHENA;
 375              		.loc 1 1603 3 is_stmt 1 view .LVU114
 376              		.loc 1 1603 10 is_stmt 0 view .LVU115
 377 01a4 7B69     		ldr	r3, [r7, #20]
 378              		.loc 1 1603 10 view .LVU116
 379 01a6 43F00043 		orr	r3, r3, #-2147483648
 380              	.LVL27:
 381              		.loc 1 1603 10 view .LVU117
 382 01aa 7B61     		str	r3, [r7, #20]
 383              	.LVL28:
1604:Drivers/STM32F4xx_HAL_Driver/Src/stm32f4xx_ll_usb.c ****   USBx_HC(hc->ch_num)->HCCHAR = tmpreg;
 384              		.loc 1 1604 3 is_stmt 1 view .LVU118
 385 01ac BB68     		ldr	r3, [r7, #8]
 386              	.LVL29:
 387              		.loc 1 1604 3 is_stmt 0 view .LVU119
ARM GAS  C:\Users\gx\AppData\Local\Temp\ccXSZ03x.s 			page 36


 388 01ae 5B78     		ldrb	r3, [r3, #1]	@ zero_extendqisi2
 389 01b0 5A01     		lsls	r2, r3, #5
 390 01b2 FB68     		ldr	r3, [r7, #12]
 391 01b4 1344     		add	r3, r3, r2
 392 01b6 03F5A063 		add	r3, r3, #1280
 393 01ba 1A46     		mov	r2, r3
 394              		.loc 1 1604 31 view .LVU120
 395 01bc 7B69     		ldr	r3, [r7, #20]
 396 01be 1360     		str	r3, [r2]
1605:Drivers/STM32F4xx_HAL_Driver/Src/stm32f4xx_ll_usb.c ****   
1606:Drivers/STM32F4xx_HAL_Driver/Src/stm32f4xx_ll_usb.c ****   if (dma == 0) /* Slave mode */
 397              		.loc 1 1606 3 is_stmt 1 view .LVU121
 398              		.loc 1 1606 6 is_stmt 0 view .LVU122
 399 01c0 FB79     		ldrb	r3, [r7, #7]	@ zero_extendqisi2
 400 01c2 002B     		cmp	r3, #0
 401 01c4 4DD1     		bne	.L9
1607:Drivers/STM32F4xx_HAL_Driver/Src/stm32f4xx_ll_usb.c ****   {  
1608:Drivers/STM32F4xx_HAL_Driver/Src/stm32f4xx_ll_usb.c ****     if((hc->ep_is_in == 0U) && (hc->xfer_len > 0U))
 402              		.loc 1 1608 5 is_stmt 1 view .LVU123
 403              		.loc 1 1608 11 is_stmt 0 view .LVU124
 404 01c6 BB68     		ldr	r3, [r7, #8]
 405 01c8 DB78     		ldrb	r3, [r3, #3]	@ zero_extendqisi2
 406              		.loc 1 1608 7 view .LVU125
 407 01ca 002B     		cmp	r3, #0
 408 01cc 49D1     		bne	.L9
 409              		.loc 1 1608 35 discriminator 1 view .LVU126
 410 01ce BB68     		ldr	r3, [r7, #8]
 411 01d0 1B69     		ldr	r3, [r3, #16]
 412              		.loc 1 1608 29 discriminator 1 view .LVU127
 413 01d2 002B     		cmp	r3, #0
 414 01d4 45D0     		beq	.L9
1609:Drivers/STM32F4xx_HAL_Driver/Src/stm32f4xx_ll_usb.c ****     {
1610:Drivers/STM32F4xx_HAL_Driver/Src/stm32f4xx_ll_usb.c ****       switch(hc->ep_type) 
 415              		.loc 1 1610 7 is_stmt 1 view .LVU128
 416              		.loc 1 1610 16 is_stmt 0 view .LVU129
 417 01d6 BB68     		ldr	r3, [r7, #8]
 418 01d8 DB79     		ldrb	r3, [r3, #7]	@ zero_extendqisi2
 419 01da 032B     		cmp	r3, #3
 420 01dc 30D8     		bhi	.L17
 421 01de 01A2     		adr	r2, .L12
 422 01e0 52F823F0 		ldr	pc, [r2, r3, lsl #2]
 423              		.p2align 2
 424              	.L12:
 425 01e4 F5010000 		.word	.L13+1
 426 01e8 19020000 		.word	.L11+1
 427 01ec F5010000 		.word	.L13+1
 428 01f0 19020000 		.word	.L11+1
 429              		.p2align 1
 430              	.L13:
1611:Drivers/STM32F4xx_HAL_Driver/Src/stm32f4xx_ll_usb.c ****       {
1612:Drivers/STM32F4xx_HAL_Driver/Src/stm32f4xx_ll_usb.c ****         /* Non periodic transfer */
1613:Drivers/STM32F4xx_HAL_Driver/Src/stm32f4xx_ll_usb.c ****       case EP_TYPE_CTRL:
1614:Drivers/STM32F4xx_HAL_Driver/Src/stm32f4xx_ll_usb.c ****       case EP_TYPE_BULK:
1615:Drivers/STM32F4xx_HAL_Driver/Src/stm32f4xx_ll_usb.c ****         
1616:Drivers/STM32F4xx_HAL_Driver/Src/stm32f4xx_ll_usb.c ****         len_words = (hc->xfer_len + 3) / 4;
 431              		.loc 1 1616 9 is_stmt 1 view .LVU130
 432              		.loc 1 1616 24 is_stmt 0 view .LVU131
ARM GAS  C:\Users\gx\AppData\Local\Temp\ccXSZ03x.s 			page 37


 433 01f4 BB68     		ldr	r3, [r7, #8]
 434 01f6 1B69     		ldr	r3, [r3, #16]
 435              		.loc 1 1616 35 view .LVU132
 436 01f8 0333     		adds	r3, r3, #3
 437              		.loc 1 1616 40 view .LVU133
 438 01fa 9B08     		lsrs	r3, r3, #2
 439              		.loc 1 1616 19 view .LVU134
 440 01fc 7B83     		strh	r3, [r7, #26]	@ movhi
 441              	.LVL30:
1617:Drivers/STM32F4xx_HAL_Driver/Src/stm32f4xx_ll_usb.c ****         
1618:Drivers/STM32F4xx_HAL_Driver/Src/stm32f4xx_ll_usb.c ****         /* check if there is enough space in FIFO space */
1619:Drivers/STM32F4xx_HAL_Driver/Src/stm32f4xx_ll_usb.c ****         if(len_words > (USBx->HNPTXSTS & 0xFFFF))
 442              		.loc 1 1619 9 is_stmt 1 view .LVU135
 443              		.loc 1 1619 22 is_stmt 0 view .LVU136
 444 01fe 7A8B     		ldrh	r2, [r7, #26]
 445              		.loc 1 1619 29 view .LVU137
 446 0200 FB68     		ldr	r3, [r7, #12]
 447              	.LVL31:
 448              		.loc 1 1619 29 view .LVU138
 449 0202 DB6A     		ldr	r3, [r3, #44]
 450              		.loc 1 1619 40 view .LVU139
 451 0204 9BB2     		uxth	r3, r3
 452              		.loc 1 1619 11 view .LVU140
 453 0206 9A42     		cmp	r2, r3
 454 0208 1CD9     		bls	.L18
1620:Drivers/STM32F4xx_HAL_Driver/Src/stm32f4xx_ll_usb.c ****         {
1621:Drivers/STM32F4xx_HAL_Driver/Src/stm32f4xx_ll_usb.c ****           /* need to process data in nptxfempty interrupt */
1622:Drivers/STM32F4xx_HAL_Driver/Src/stm32f4xx_ll_usb.c ****           USBx->GINTMSK |= USB_OTG_GINTMSK_NPTXFEM;
 455              		.loc 1 1622 11 is_stmt 1 view .LVU141
 456              		.loc 1 1622 25 is_stmt 0 view .LVU142
 457 020a FB68     		ldr	r3, [r7, #12]
 458 020c 9B69     		ldr	r3, [r3, #24]
 459 020e 43F02002 		orr	r2, r3, #32
 460 0212 FB68     		ldr	r3, [r7, #12]
 461 0214 9A61     		str	r2, [r3, #24]
1623:Drivers/STM32F4xx_HAL_Driver/Src/stm32f4xx_ll_usb.c ****         }
1624:Drivers/STM32F4xx_HAL_Driver/Src/stm32f4xx_ll_usb.c ****         break;
 462              		.loc 1 1624 9 is_stmt 1 view .LVU143
 463 0216 15E0     		b	.L18
 464              	.L11:
1625:Drivers/STM32F4xx_HAL_Driver/Src/stm32f4xx_ll_usb.c ****         /* Periodic transfer */
1626:Drivers/STM32F4xx_HAL_Driver/Src/stm32f4xx_ll_usb.c ****       case EP_TYPE_INTR:
1627:Drivers/STM32F4xx_HAL_Driver/Src/stm32f4xx_ll_usb.c ****       case EP_TYPE_ISOC:
1628:Drivers/STM32F4xx_HAL_Driver/Src/stm32f4xx_ll_usb.c ****         len_words = (hc->xfer_len + 3) / 4;
 465              		.loc 1 1628 9 view .LVU144
 466              		.loc 1 1628 24 is_stmt 0 view .LVU145
 467 0218 BB68     		ldr	r3, [r7, #8]
 468 021a 1B69     		ldr	r3, [r3, #16]
 469              		.loc 1 1628 35 view .LVU146
 470 021c 0333     		adds	r3, r3, #3
 471              		.loc 1 1628 40 view .LVU147
 472 021e 9B08     		lsrs	r3, r3, #2
 473              		.loc 1 1628 19 view .LVU148
 474 0220 7B83     		strh	r3, [r7, #26]	@ movhi
 475              	.LVL32:
1629:Drivers/STM32F4xx_HAL_Driver/Src/stm32f4xx_ll_usb.c ****         /* check if there is enough space in FIFO space */
1630:Drivers/STM32F4xx_HAL_Driver/Src/stm32f4xx_ll_usb.c ****         if(len_words > (USBx_HOST->HPTXSTS & 0xFFFF)) /* split the transfer */
ARM GAS  C:\Users\gx\AppData\Local\Temp\ccXSZ03x.s 			page 38


 476              		.loc 1 1630 9 is_stmt 1 view .LVU149
 477              		.loc 1 1630 22 is_stmt 0 view .LVU150
 478 0222 7A8B     		ldrh	r2, [r7, #26]
 479              		.loc 1 1630 25 view .LVU151
 480 0224 FB68     		ldr	r3, [r7, #12]
 481              	.LVL33:
 482              		.loc 1 1630 25 view .LVU152
 483 0226 03F58063 		add	r3, r3, #1024
 484              		.loc 1 1630 34 view .LVU153
 485 022a 1B69     		ldr	r3, [r3, #16]
 486              		.loc 1 1630 44 view .LVU154
 487 022c 9BB2     		uxth	r3, r3
 488              		.loc 1 1630 11 view .LVU155
 489 022e 9A42     		cmp	r2, r3
 490 0230 0AD9     		bls	.L19
1631:Drivers/STM32F4xx_HAL_Driver/Src/stm32f4xx_ll_usb.c ****         {
1632:Drivers/STM32F4xx_HAL_Driver/Src/stm32f4xx_ll_usb.c ****           /* need to process data in ptxfempty interrupt */
1633:Drivers/STM32F4xx_HAL_Driver/Src/stm32f4xx_ll_usb.c ****           USBx->GINTMSK |= USB_OTG_GINTMSK_PTXFEM;          
 491              		.loc 1 1633 11 is_stmt 1 view .LVU156
 492              		.loc 1 1633 25 is_stmt 0 view .LVU157
 493 0232 FB68     		ldr	r3, [r7, #12]
 494 0234 9B69     		ldr	r3, [r3, #24]
 495 0236 43F08062 		orr	r2, r3, #67108864
 496 023a FB68     		ldr	r3, [r7, #12]
 497 023c 9A61     		str	r2, [r3, #24]
1634:Drivers/STM32F4xx_HAL_Driver/Src/stm32f4xx_ll_usb.c ****         }
1635:Drivers/STM32F4xx_HAL_Driver/Src/stm32f4xx_ll_usb.c ****         break;
 498              		.loc 1 1635 9 is_stmt 1 view .LVU158
 499 023e 03E0     		b	.L19
 500              	.L17:
1636:Drivers/STM32F4xx_HAL_Driver/Src/stm32f4xx_ll_usb.c ****         
1637:Drivers/STM32F4xx_HAL_Driver/Src/stm32f4xx_ll_usb.c ****       default:
1638:Drivers/STM32F4xx_HAL_Driver/Src/stm32f4xx_ll_usb.c ****         break;
 501              		.loc 1 1638 9 is_stmt 0 view .LVU159
 502 0240 00BF     		nop
 503 0242 02E0     		b	.L15
 504              	.L18:
1624:Drivers/STM32F4xx_HAL_Driver/Src/stm32f4xx_ll_usb.c ****         /* Periodic transfer */
 505              		.loc 1 1624 9 view .LVU160
 506 0244 00BF     		nop
 507 0246 00E0     		b	.L15
 508              	.L19:
1635:Drivers/STM32F4xx_HAL_Driver/Src/stm32f4xx_ll_usb.c ****         
 509              		.loc 1 1635 9 view .LVU161
 510 0248 00BF     		nop
 511              	.L15:
1639:Drivers/STM32F4xx_HAL_Driver/Src/stm32f4xx_ll_usb.c ****       }
1640:Drivers/STM32F4xx_HAL_Driver/Src/stm32f4xx_ll_usb.c ****       
1641:Drivers/STM32F4xx_HAL_Driver/Src/stm32f4xx_ll_usb.c ****       /* Write packet into the Tx FIFO. */
1642:Drivers/STM32F4xx_HAL_Driver/Src/stm32f4xx_ll_usb.c ****       USB_WritePacket(USBx, hc->xfer_buff, hc->ch_num, hc->xfer_len, 0);
 512              		.loc 1 1642 7 is_stmt 1 view .LVU162
 513 024a BB68     		ldr	r3, [r7, #8]
 514 024c D968     		ldr	r1, [r3, #12]
 515 024e BB68     		ldr	r3, [r7, #8]
 516 0250 5A78     		ldrb	r2, [r3, #1]	@ zero_extendqisi2
 517              		.loc 1 1642 58 is_stmt 0 view .LVU163
 518 0252 BB68     		ldr	r3, [r7, #8]
ARM GAS  C:\Users\gx\AppData\Local\Temp\ccXSZ03x.s 			page 39


 519 0254 1B69     		ldr	r3, [r3, #16]
 520              		.loc 1 1642 7 view .LVU164
 521 0256 9BB2     		uxth	r3, r3
 522 0258 0020     		movs	r0, #0
 523 025a 0090     		str	r0, [sp]
 524 025c F868     		ldr	r0, [r7, #12]
 525 025e FFF7FEFF 		bl	USB_WritePacket
 526              	.LVL34:
 527              	.L9:
1643:Drivers/STM32F4xx_HAL_Driver/Src/stm32f4xx_ll_usb.c ****     }
1644:Drivers/STM32F4xx_HAL_Driver/Src/stm32f4xx_ll_usb.c ****   }
1645:Drivers/STM32F4xx_HAL_Driver/Src/stm32f4xx_ll_usb.c ****   
1646:Drivers/STM32F4xx_HAL_Driver/Src/stm32f4xx_ll_usb.c ****   return HAL_OK;
 528              		.loc 1 1646 3 is_stmt 1 view .LVU165
 529              		.loc 1 1646 10 is_stmt 0 view .LVU166
 530 0262 0023     		movs	r3, #0
 531              	.L4:
1647:Drivers/STM32F4xx_HAL_Driver/Src/stm32f4xx_ll_usb.c **** }
 532              		.loc 1 1647 1 view .LVU167
 533 0264 1846     		mov	r0, r3
 534 0266 2037     		adds	r7, r7, #32
 535              	.LCFI3:
 536              		.cfi_def_cfa_offset 8
 537 0268 BD46     		mov	sp, r7
 538              	.LCFI4:
 539              		.cfi_def_cfa_register 13
 540              	.LVL35:
 541              		.loc 1 1647 1 view .LVU168
 542              		@ sp needed
 543 026a 80BD     		pop	{r7, pc}
 544              	.L21:
 545              		.align	2
 546              	.L20:
 547 026c 0000F81F 		.word	536346624
 548              		.cfi_endproc
 549              	.LFE166:
 551              		.section	.text.USB_HC_ReadInterrupt,"ax",%progbits
 552              		.align	1
 553              		.global	USB_HC_ReadInterrupt
 554              		.syntax unified
 555              		.thumb
 556              		.thumb_func
 557              		.fpu fpv4-sp-d16
 559              	USB_HC_ReadInterrupt:
 560              	.LVL36:
 561              	.LFB167:
1648:Drivers/STM32F4xx_HAL_Driver/Src/stm32f4xx_ll_usb.c **** 
1649:Drivers/STM32F4xx_HAL_Driver/Src/stm32f4xx_ll_usb.c **** /**
1650:Drivers/STM32F4xx_HAL_Driver/Src/stm32f4xx_ll_usb.c ****   * @brief Read all host channel interrupts status
1651:Drivers/STM32F4xx_HAL_Driver/Src/stm32f4xx_ll_usb.c ****   * @param  USBx  Selected device
1652:Drivers/STM32F4xx_HAL_Driver/Src/stm32f4xx_ll_usb.c ****   * @retval HAL state
1653:Drivers/STM32F4xx_HAL_Driver/Src/stm32f4xx_ll_usb.c ****   */
1654:Drivers/STM32F4xx_HAL_Driver/Src/stm32f4xx_ll_usb.c **** uint32_t USB_HC_ReadInterrupt (USB_OTG_GlobalTypeDef *USBx)
1655:Drivers/STM32F4xx_HAL_Driver/Src/stm32f4xx_ll_usb.c **** {
 562              		.loc 1 1655 1 is_stmt 1 view -0
 563              		.cfi_startproc
 564              		@ args = 0, pretend = 0, frame = 8
ARM GAS  C:\Users\gx\AppData\Local\Temp\ccXSZ03x.s 			page 40


 565              		@ frame_needed = 1, uses_anonymous_args = 0
 566              		@ link register save eliminated.
 567              		.loc 1 1655 1 is_stmt 0 view .LVU170
 568 0000 80B4     		push	{r7}
 569              	.LCFI5:
 570              		.cfi_def_cfa_offset 4
 571              		.cfi_offset 7, -4
 572 0002 83B0     		sub	sp, sp, #12
 573              	.LCFI6:
 574              		.cfi_def_cfa_offset 16
 575 0004 00AF     		add	r7, sp, #0
 576              	.LCFI7:
 577              		.cfi_def_cfa_register 7
 578 0006 7860     		str	r0, [r7, #4]
1656:Drivers/STM32F4xx_HAL_Driver/Src/stm32f4xx_ll_usb.c ****   return ((USBx_HOST->HAINT) & 0xFFFFU);
 579              		.loc 1 1656 3 is_stmt 1 view .LVU171
 580              		.loc 1 1656 12 is_stmt 0 view .LVU172
 581 0008 7B68     		ldr	r3, [r7, #4]
 582 000a 03F58063 		add	r3, r3, #1024
 583              		.loc 1 1656 21 view .LVU173
 584 000e 5B69     		ldr	r3, [r3, #20]
 585              		.loc 1 1656 30 view .LVU174
 586 0010 9BB2     		uxth	r3, r3
1657:Drivers/STM32F4xx_HAL_Driver/Src/stm32f4xx_ll_usb.c **** }
 587              		.loc 1 1657 1 view .LVU175
 588 0012 1846     		mov	r0, r3
 589              	.LVL37:
 590              		.loc 1 1657 1 view .LVU176
 591 0014 0C37     		adds	r7, r7, #12
 592              	.LCFI8:
 593              		.cfi_def_cfa_offset 4
 594              	.LVL38:
 595              		.loc 1 1657 1 view .LVU177
 596 0016 BD46     		mov	sp, r7
 597              	.LCFI9:
 598              		.cfi_def_cfa_register 13
 599              		@ sp needed
 600 0018 5DF8047B 		ldr	r7, [sp], #4
 601              	.LCFI10:
 602              		.cfi_restore 7
 603              		.cfi_def_cfa_offset 0
 604              	.LVL39:
 605              		.loc 1 1657 1 view .LVU178
 606 001c 7047     		bx	lr
 607              		.cfi_endproc
 608              	.LFE167:
 610              		.section	.text.USB_HC_Halt,"ax",%progbits
 611              		.align	1
 612              		.global	USB_HC_Halt
 613              		.syntax unified
 614              		.thumb
 615              		.thumb_func
 616              		.fpu fpv4-sp-d16
 618              	USB_HC_Halt:
 619              	.LVL40:
 620              	.LFB168:
1658:Drivers/STM32F4xx_HAL_Driver/Src/stm32f4xx_ll_usb.c **** 
ARM GAS  C:\Users\gx\AppData\Local\Temp\ccXSZ03x.s 			page 41


1659:Drivers/STM32F4xx_HAL_Driver/Src/stm32f4xx_ll_usb.c **** /**
1660:Drivers/STM32F4xx_HAL_Driver/Src/stm32f4xx_ll_usb.c ****   * @brief  Halt a host channel
1661:Drivers/STM32F4xx_HAL_Driver/Src/stm32f4xx_ll_usb.c ****   * @param  USBx  Selected device
1662:Drivers/STM32F4xx_HAL_Driver/Src/stm32f4xx_ll_usb.c ****   * @param  hc_num  Host Channel number
1663:Drivers/STM32F4xx_HAL_Driver/Src/stm32f4xx_ll_usb.c ****   *         This parameter can be a value from 1 to 15
1664:Drivers/STM32F4xx_HAL_Driver/Src/stm32f4xx_ll_usb.c ****   * @retval HAL state
1665:Drivers/STM32F4xx_HAL_Driver/Src/stm32f4xx_ll_usb.c ****   */
1666:Drivers/STM32F4xx_HAL_Driver/Src/stm32f4xx_ll_usb.c **** HAL_StatusTypeDef USB_HC_Halt(USB_OTG_GlobalTypeDef *USBx , uint8_t hc_num)
1667:Drivers/STM32F4xx_HAL_Driver/Src/stm32f4xx_ll_usb.c **** {
 621              		.loc 1 1667 1 is_stmt 1 view -0
 622              		.cfi_startproc
 623              		@ args = 0, pretend = 0, frame = 16
 624              		@ frame_needed = 1, uses_anonymous_args = 0
 625              		@ link register save eliminated.
 626              		.loc 1 1667 1 is_stmt 0 view .LVU180
 627 0000 80B4     		push	{r7}
 628              	.LCFI11:
 629              		.cfi_def_cfa_offset 4
 630              		.cfi_offset 7, -4
 631 0002 85B0     		sub	sp, sp, #20
 632              	.LCFI12:
 633              		.cfi_def_cfa_offset 24
 634 0004 00AF     		add	r7, sp, #0
 635              	.LCFI13:
 636              		.cfi_def_cfa_register 7
 637 0006 7860     		str	r0, [r7, #4]
 638 0008 0B46     		mov	r3, r1
 639 000a FB70     		strb	r3, [r7, #3]
1668:Drivers/STM32F4xx_HAL_Driver/Src/stm32f4xx_ll_usb.c ****   uint32_t count = 0U;
 640              		.loc 1 1668 3 is_stmt 1 view .LVU181
 641              		.loc 1 1668 12 is_stmt 0 view .LVU182
 642 000c 0023     		movs	r3, #0
 643 000e FB60     		str	r3, [r7, #12]
 644              	.LVL41:
1669:Drivers/STM32F4xx_HAL_Driver/Src/stm32f4xx_ll_usb.c ****   
1670:Drivers/STM32F4xx_HAL_Driver/Src/stm32f4xx_ll_usb.c ****   /* Check for space in the request queue to issue the halt. */
1671:Drivers/STM32F4xx_HAL_Driver/Src/stm32f4xx_ll_usb.c ****   if (((((USBx_HC(hc_num)->HCCHAR) & USB_OTG_HCCHAR_EPTYP) >> 18) == HCCHAR_CTRL) || (((((USBx_HC(h
 645              		.loc 1 1671 3 is_stmt 1 view .LVU183
 646              		.loc 1 1671 11 is_stmt 0 view .LVU184
 647 0010 FB78     		ldrb	r3, [r7, #3]	@ zero_extendqisi2
 648              	.LVL42:
 649              		.loc 1 1671 11 view .LVU185
 650 0012 5A01     		lsls	r2, r3, #5
 651 0014 7B68     		ldr	r3, [r7, #4]
 652 0016 1344     		add	r3, r3, r2
 653 0018 03F5A063 		add	r3, r3, #1280
 654              		.loc 1 1671 26 view .LVU186
 655 001c 1B68     		ldr	r3, [r3]
 656              		.loc 1 1671 60 view .LVU187
 657 001e 9B0C     		lsrs	r3, r3, #18
 658 0020 03F00303 		and	r3, r3, #3
 659              		.loc 1 1671 6 view .LVU188
 660 0024 002B     		cmp	r3, #0
 661 0026 0BD0     		beq	.L25
 662              		.loc 1 1671 91 discriminator 1 view .LVU189
 663 0028 FB78     		ldrb	r3, [r7, #3]	@ zero_extendqisi2
 664 002a 5A01     		lsls	r2, r3, #5
ARM GAS  C:\Users\gx\AppData\Local\Temp\ccXSZ03x.s 			page 42


 665 002c 7B68     		ldr	r3, [r7, #4]
 666 002e 1344     		add	r3, r3, r2
 667 0030 03F5A063 		add	r3, r3, #1280
 668              		.loc 1 1671 106 discriminator 1 view .LVU190
 669 0034 1B68     		ldr	r3, [r3]
1672:Drivers/STM32F4xx_HAL_Driver/Src/stm32f4xx_ll_usb.c ****   USB_OTG_HCCHAR_EPTYP) >> 18) == HCCHAR_BULK)))
 670              		.loc 1 1672 25 discriminator 1 view .LVU191
 671 0036 9B0C     		lsrs	r3, r3, #18
 672 0038 03F00303 		and	r3, r3, #3
1671:Drivers/STM32F4xx_HAL_Driver/Src/stm32f4xx_ll_usb.c ****   USB_OTG_HCCHAR_EPTYP) >> 18) == HCCHAR_BULK)))
 673              		.loc 1 1671 83 discriminator 1 view .LVU192
 674 003c 022B     		cmp	r3, #2
 675 003e 5CD1     		bne	.L26
 676              	.L25:
1673:Drivers/STM32F4xx_HAL_Driver/Src/stm32f4xx_ll_usb.c ****   {
1674:Drivers/STM32F4xx_HAL_Driver/Src/stm32f4xx_ll_usb.c ****     USBx_HC(hc_num)->HCCHAR |= USB_OTG_HCCHAR_CHDIS;
 677              		.loc 1 1674 5 is_stmt 1 view .LVU193
 678              		.loc 1 1674 29 is_stmt 0 view .LVU194
 679 0040 FB78     		ldrb	r3, [r7, #3]	@ zero_extendqisi2
 680 0042 5A01     		lsls	r2, r3, #5
 681 0044 7B68     		ldr	r3, [r7, #4]
 682 0046 1344     		add	r3, r3, r2
 683 0048 03F5A063 		add	r3, r3, #1280
 684 004c 1B68     		ldr	r3, [r3]
 685 004e FA78     		ldrb	r2, [r7, #3]	@ zero_extendqisi2
 686 0050 5101     		lsls	r1, r2, #5
 687              	.LVL43:
 688              		.loc 1 1674 29 view .LVU195
 689 0052 7A68     		ldr	r2, [r7, #4]
 690 0054 0A44     		add	r2, r2, r1
 691 0056 02F5A062 		add	r2, r2, #1280
 692 005a 43F08043 		orr	r3, r3, #1073741824
 693 005e 1360     		str	r3, [r2]
1675:Drivers/STM32F4xx_HAL_Driver/Src/stm32f4xx_ll_usb.c ****     
1676:Drivers/STM32F4xx_HAL_Driver/Src/stm32f4xx_ll_usb.c ****     if ((USBx->HNPTXSTS & 0xFF0000U) == 0U)
 694              		.loc 1 1676 5 is_stmt 1 view .LVU196
 695              		.loc 1 1676 14 is_stmt 0 view .LVU197
 696 0060 7B68     		ldr	r3, [r7, #4]
 697 0062 DB6A     		ldr	r3, [r3, #44]
 698              		.loc 1 1676 25 view .LVU198
 699 0064 03F47F03 		and	r3, r3, #16711680
 700              		.loc 1 1676 8 view .LVU199
 701 0068 002B     		cmp	r3, #0
 702 006a 33D1     		bne	.L27
1677:Drivers/STM32F4xx_HAL_Driver/Src/stm32f4xx_ll_usb.c ****     {
1678:Drivers/STM32F4xx_HAL_Driver/Src/stm32f4xx_ll_usb.c ****       USBx_HC(hc_num)->HCCHAR &= ~USB_OTG_HCCHAR_CHENA;
 703              		.loc 1 1678 7 is_stmt 1 view .LVU200
 704              		.loc 1 1678 31 is_stmt 0 view .LVU201
 705 006c FB78     		ldrb	r3, [r7, #3]	@ zero_extendqisi2
 706 006e 5A01     		lsls	r2, r3, #5
 707 0070 7B68     		ldr	r3, [r7, #4]
 708 0072 1344     		add	r3, r3, r2
 709 0074 03F5A063 		add	r3, r3, #1280
 710 0078 1B68     		ldr	r3, [r3]
 711 007a FA78     		ldrb	r2, [r7, #3]	@ zero_extendqisi2
 712 007c 5101     		lsls	r1, r2, #5
 713 007e 7A68     		ldr	r2, [r7, #4]
ARM GAS  C:\Users\gx\AppData\Local\Temp\ccXSZ03x.s 			page 43


 714 0080 0A44     		add	r2, r2, r1
 715 0082 02F5A062 		add	r2, r2, #1280
 716 0086 23F00043 		bic	r3, r3, #-2147483648
 717 008a 1360     		str	r3, [r2]
1679:Drivers/STM32F4xx_HAL_Driver/Src/stm32f4xx_ll_usb.c ****       USBx_HC(hc_num)->HCCHAR |= USB_OTG_HCCHAR_CHENA;  
 718              		.loc 1 1679 7 is_stmt 1 view .LVU202
 719              		.loc 1 1679 31 is_stmt 0 view .LVU203
 720 008c FB78     		ldrb	r3, [r7, #3]	@ zero_extendqisi2
 721 008e 5A01     		lsls	r2, r3, #5
 722 0090 7B68     		ldr	r3, [r7, #4]
 723 0092 1344     		add	r3, r3, r2
 724 0094 03F5A063 		add	r3, r3, #1280
 725 0098 1B68     		ldr	r3, [r3]
 726 009a FA78     		ldrb	r2, [r7, #3]	@ zero_extendqisi2
 727 009c 5101     		lsls	r1, r2, #5
 728 009e 7A68     		ldr	r2, [r7, #4]
 729 00a0 0A44     		add	r2, r2, r1
 730 00a2 02F5A062 		add	r2, r2, #1280
 731 00a6 43F00043 		orr	r3, r3, #-2147483648
 732 00aa 1360     		str	r3, [r2]
 733              	.L30:
1680:Drivers/STM32F4xx_HAL_Driver/Src/stm32f4xx_ll_usb.c ****       do 
 734              		.loc 1 1680 7 is_stmt 1 view .LVU204
1681:Drivers/STM32F4xx_HAL_Driver/Src/stm32f4xx_ll_usb.c ****       {
1682:Drivers/STM32F4xx_HAL_Driver/Src/stm32f4xx_ll_usb.c ****         if (++count > 1000U) 
 735              		.loc 1 1682 9 view .LVU205
 736              		.loc 1 1682 12 is_stmt 0 view .LVU206
 737 00ac FB68     		ldr	r3, [r7, #12]
 738 00ae 0133     		adds	r3, r3, #1
 739 00b0 FB60     		str	r3, [r7, #12]
 740              	.LVL44:
 741              		.loc 1 1682 12 view .LVU207
 742 00b2 FB68     		ldr	r3, [r7, #12]
 743              		.loc 1 1682 12 view .LVU208
 744 00b4 B3F57A7F 		cmp	r3, #1000
 745 00b8 1DD8     		bhi	.L39
1683:Drivers/STM32F4xx_HAL_Driver/Src/stm32f4xx_ll_usb.c ****         {
1684:Drivers/STM32F4xx_HAL_Driver/Src/stm32f4xx_ll_usb.c ****           break;
1685:Drivers/STM32F4xx_HAL_Driver/Src/stm32f4xx_ll_usb.c ****         }
1686:Drivers/STM32F4xx_HAL_Driver/Src/stm32f4xx_ll_usb.c ****       } 
1687:Drivers/STM32F4xx_HAL_Driver/Src/stm32f4xx_ll_usb.c ****       while ((USBx_HC(hc_num)->HCCHAR & USB_OTG_HCCHAR_CHENA) == USB_OTG_HCCHAR_CHENA);     
 746              		.loc 1 1687 13 is_stmt 1 view .LVU209
 747              		.loc 1 1687 15 is_stmt 0 view .LVU210
 748 00ba FB78     		ldrb	r3, [r7, #3]	@ zero_extendqisi2
 749              	.LVL45:
 750              		.loc 1 1687 15 view .LVU211
 751 00bc 5A01     		lsls	r2, r3, #5
 752 00be 7B68     		ldr	r3, [r7, #4]
 753 00c0 1344     		add	r3, r3, r2
 754 00c2 03F5A063 		add	r3, r3, #1280
 755              		.loc 1 1687 30 view .LVU212
 756 00c6 1B68     		ldr	r3, [r3]
 757              		.loc 1 1687 39 view .LVU213
 758 00c8 03F00043 		and	r3, r3, #-2147483648
 759              		.loc 1 1687 7 view .LVU214
 760 00cc B3F1004F 		cmp	r3, #-2147483648
 761 00d0 ECD0     		beq	.L30
ARM GAS  C:\Users\gx\AppData\Local\Temp\ccXSZ03x.s 			page 44


1676:Drivers/STM32F4xx_HAL_Driver/Src/stm32f4xx_ll_usb.c ****     {
 762              		.loc 1 1676 8 view .LVU215
 763 00d2 6FE0     		b	.L32
 764              	.L27:
1688:Drivers/STM32F4xx_HAL_Driver/Src/stm32f4xx_ll_usb.c ****     }
1689:Drivers/STM32F4xx_HAL_Driver/Src/stm32f4xx_ll_usb.c ****     else
1690:Drivers/STM32F4xx_HAL_Driver/Src/stm32f4xx_ll_usb.c ****     {
1691:Drivers/STM32F4xx_HAL_Driver/Src/stm32f4xx_ll_usb.c ****       USBx_HC(hc_num)->HCCHAR |= USB_OTG_HCCHAR_CHENA; 
 765              		.loc 1 1691 7 is_stmt 1 view .LVU216
 766              		.loc 1 1691 31 is_stmt 0 view .LVU217
 767 00d4 FB78     		ldrb	r3, [r7, #3]	@ zero_extendqisi2
 768 00d6 5A01     		lsls	r2, r3, #5
 769 00d8 7B68     		ldr	r3, [r7, #4]
 770 00da 1344     		add	r3, r3, r2
 771 00dc 03F5A063 		add	r3, r3, #1280
 772 00e0 1B68     		ldr	r3, [r3]
 773 00e2 FA78     		ldrb	r2, [r7, #3]	@ zero_extendqisi2
 774 00e4 5101     		lsls	r1, r2, #5
 775 00e6 7A68     		ldr	r2, [r7, #4]
 776 00e8 0A44     		add	r2, r2, r1
 777 00ea 02F5A062 		add	r2, r2, #1280
 778 00ee 43F00043 		orr	r3, r3, #-2147483648
 779 00f2 1360     		str	r3, [r2]
1676:Drivers/STM32F4xx_HAL_Driver/Src/stm32f4xx_ll_usb.c ****     {
 780              		.loc 1 1676 8 view .LVU218
 781 00f4 5EE0     		b	.L32
 782              	.LVL46:
 783              	.L39:
1684:Drivers/STM32F4xx_HAL_Driver/Src/stm32f4xx_ll_usb.c ****         }
 784              		.loc 1 1684 11 view .LVU219
 785 00f6 00BF     		nop
1676:Drivers/STM32F4xx_HAL_Driver/Src/stm32f4xx_ll_usb.c ****     {
 786              		.loc 1 1676 8 view .LVU220
 787 00f8 5CE0     		b	.L32
 788              	.LVL47:
 789              	.L26:
1692:Drivers/STM32F4xx_HAL_Driver/Src/stm32f4xx_ll_usb.c ****     }
1693:Drivers/STM32F4xx_HAL_Driver/Src/stm32f4xx_ll_usb.c ****   }
1694:Drivers/STM32F4xx_HAL_Driver/Src/stm32f4xx_ll_usb.c ****   else
1695:Drivers/STM32F4xx_HAL_Driver/Src/stm32f4xx_ll_usb.c ****   {
1696:Drivers/STM32F4xx_HAL_Driver/Src/stm32f4xx_ll_usb.c ****     USBx_HC(hc_num)->HCCHAR |= USB_OTG_HCCHAR_CHDIS;
 790              		.loc 1 1696 5 is_stmt 1 view .LVU221
 791              		.loc 1 1696 29 is_stmt 0 view .LVU222
 792 00fa FB78     		ldrb	r3, [r7, #3]	@ zero_extendqisi2
 793 00fc 5A01     		lsls	r2, r3, #5
 794 00fe 7B68     		ldr	r3, [r7, #4]
 795 0100 1344     		add	r3, r3, r2
 796 0102 03F5A063 		add	r3, r3, #1280
 797 0106 1B68     		ldr	r3, [r3]
 798 0108 FA78     		ldrb	r2, [r7, #3]	@ zero_extendqisi2
 799 010a 5101     		lsls	r1, r2, #5
 800              	.LVL48:
 801              		.loc 1 1696 29 view .LVU223
 802 010c 7A68     		ldr	r2, [r7, #4]
 803 010e 0A44     		add	r2, r2, r1
 804 0110 02F5A062 		add	r2, r2, #1280
 805 0114 43F08043 		orr	r3, r3, #1073741824
ARM GAS  C:\Users\gx\AppData\Local\Temp\ccXSZ03x.s 			page 45


 806 0118 1360     		str	r3, [r2]
1697:Drivers/STM32F4xx_HAL_Driver/Src/stm32f4xx_ll_usb.c ****     
1698:Drivers/STM32F4xx_HAL_Driver/Src/stm32f4xx_ll_usb.c ****     if ((USBx_HOST->HPTXSTS & 0xFFFFU) == 0U)
 807              		.loc 1 1698 5 is_stmt 1 view .LVU224
 808              		.loc 1 1698 10 is_stmt 0 view .LVU225
 809 011a 7B68     		ldr	r3, [r7, #4]
 810 011c 03F58063 		add	r3, r3, #1024
 811              		.loc 1 1698 19 view .LVU226
 812 0120 1B69     		ldr	r3, [r3, #16]
 813              		.loc 1 1698 29 view .LVU227
 814 0122 9BB2     		uxth	r3, r3
 815              		.loc 1 1698 8 view .LVU228
 816 0124 002B     		cmp	r3, #0
 817 0126 33D1     		bne	.L33
1699:Drivers/STM32F4xx_HAL_Driver/Src/stm32f4xx_ll_usb.c ****     {
1700:Drivers/STM32F4xx_HAL_Driver/Src/stm32f4xx_ll_usb.c ****       USBx_HC(hc_num)->HCCHAR &= ~USB_OTG_HCCHAR_CHENA;
 818              		.loc 1 1700 7 is_stmt 1 view .LVU229
 819              		.loc 1 1700 31 is_stmt 0 view .LVU230
 820 0128 FB78     		ldrb	r3, [r7, #3]	@ zero_extendqisi2
 821 012a 5A01     		lsls	r2, r3, #5
 822 012c 7B68     		ldr	r3, [r7, #4]
 823 012e 1344     		add	r3, r3, r2
 824 0130 03F5A063 		add	r3, r3, #1280
 825 0134 1B68     		ldr	r3, [r3]
 826 0136 FA78     		ldrb	r2, [r7, #3]	@ zero_extendqisi2
 827 0138 5101     		lsls	r1, r2, #5
 828 013a 7A68     		ldr	r2, [r7, #4]
 829 013c 0A44     		add	r2, r2, r1
 830 013e 02F5A062 		add	r2, r2, #1280
 831 0142 23F00043 		bic	r3, r3, #-2147483648
 832 0146 1360     		str	r3, [r2]
1701:Drivers/STM32F4xx_HAL_Driver/Src/stm32f4xx_ll_usb.c ****       USBx_HC(hc_num)->HCCHAR |= USB_OTG_HCCHAR_CHENA;  
 833              		.loc 1 1701 7 is_stmt 1 view .LVU231
 834              		.loc 1 1701 31 is_stmt 0 view .LVU232
 835 0148 FB78     		ldrb	r3, [r7, #3]	@ zero_extendqisi2
 836 014a 5A01     		lsls	r2, r3, #5
 837 014c 7B68     		ldr	r3, [r7, #4]
 838 014e 1344     		add	r3, r3, r2
 839 0150 03F5A063 		add	r3, r3, #1280
 840 0154 1B68     		ldr	r3, [r3]
 841 0156 FA78     		ldrb	r2, [r7, #3]	@ zero_extendqisi2
 842 0158 5101     		lsls	r1, r2, #5
 843 015a 7A68     		ldr	r2, [r7, #4]
 844 015c 0A44     		add	r2, r2, r1
 845 015e 02F5A062 		add	r2, r2, #1280
 846 0162 43F00043 		orr	r3, r3, #-2147483648
 847 0166 1360     		str	r3, [r2]
 848              	.L36:
1702:Drivers/STM32F4xx_HAL_Driver/Src/stm32f4xx_ll_usb.c ****       do 
 849              		.loc 1 1702 7 is_stmt 1 view .LVU233
1703:Drivers/STM32F4xx_HAL_Driver/Src/stm32f4xx_ll_usb.c ****       {
1704:Drivers/STM32F4xx_HAL_Driver/Src/stm32f4xx_ll_usb.c ****         if (++count > 1000U) 
 850              		.loc 1 1704 9 view .LVU234
 851              		.loc 1 1704 12 is_stmt 0 view .LVU235
 852 0168 FB68     		ldr	r3, [r7, #12]
 853 016a 0133     		adds	r3, r3, #1
 854 016c FB60     		str	r3, [r7, #12]
ARM GAS  C:\Users\gx\AppData\Local\Temp\ccXSZ03x.s 			page 46


 855              	.LVL49:
 856              		.loc 1 1704 12 view .LVU236
 857 016e FB68     		ldr	r3, [r7, #12]
 858              		.loc 1 1704 12 view .LVU237
 859 0170 B3F57A7F 		cmp	r3, #1000
 860 0174 1DD8     		bhi	.L40
1705:Drivers/STM32F4xx_HAL_Driver/Src/stm32f4xx_ll_usb.c ****         {
1706:Drivers/STM32F4xx_HAL_Driver/Src/stm32f4xx_ll_usb.c ****           break;
1707:Drivers/STM32F4xx_HAL_Driver/Src/stm32f4xx_ll_usb.c ****         }
1708:Drivers/STM32F4xx_HAL_Driver/Src/stm32f4xx_ll_usb.c ****       } 
1709:Drivers/STM32F4xx_HAL_Driver/Src/stm32f4xx_ll_usb.c ****       while ((USBx_HC(hc_num)->HCCHAR & USB_OTG_HCCHAR_CHENA) == USB_OTG_HCCHAR_CHENA);     
 861              		.loc 1 1709 13 is_stmt 1 view .LVU238
 862              		.loc 1 1709 15 is_stmt 0 view .LVU239
 863 0176 FB78     		ldrb	r3, [r7, #3]	@ zero_extendqisi2
 864              	.LVL50:
 865              		.loc 1 1709 15 view .LVU240
 866 0178 5A01     		lsls	r2, r3, #5
 867 017a 7B68     		ldr	r3, [r7, #4]
 868 017c 1344     		add	r3, r3, r2
 869 017e 03F5A063 		add	r3, r3, #1280
 870              		.loc 1 1709 30 view .LVU241
 871 0182 1B68     		ldr	r3, [r3]
 872              		.loc 1 1709 39 view .LVU242
 873 0184 03F00043 		and	r3, r3, #-2147483648
 874              		.loc 1 1709 7 view .LVU243
 875 0188 B3F1004F 		cmp	r3, #-2147483648
 876 018c ECD0     		beq	.L36
 877 018e 11E0     		b	.L32
 878              	.L33:
1710:Drivers/STM32F4xx_HAL_Driver/Src/stm32f4xx_ll_usb.c ****     }
1711:Drivers/STM32F4xx_HAL_Driver/Src/stm32f4xx_ll_usb.c ****     else
1712:Drivers/STM32F4xx_HAL_Driver/Src/stm32f4xx_ll_usb.c ****     {
1713:Drivers/STM32F4xx_HAL_Driver/Src/stm32f4xx_ll_usb.c ****        USBx_HC(hc_num)->HCCHAR |= USB_OTG_HCCHAR_CHENA; 
 879              		.loc 1 1713 8 is_stmt 1 view .LVU244
 880              		.loc 1 1713 32 is_stmt 0 view .LVU245
 881 0190 FB78     		ldrb	r3, [r7, #3]	@ zero_extendqisi2
 882 0192 5A01     		lsls	r2, r3, #5
 883 0194 7B68     		ldr	r3, [r7, #4]
 884 0196 1344     		add	r3, r3, r2
 885 0198 03F5A063 		add	r3, r3, #1280
 886 019c 1B68     		ldr	r3, [r3]
 887 019e FA78     		ldrb	r2, [r7, #3]	@ zero_extendqisi2
 888 01a0 5101     		lsls	r1, r2, #5
 889 01a2 7A68     		ldr	r2, [r7, #4]
 890 01a4 0A44     		add	r2, r2, r1
 891 01a6 02F5A062 		add	r2, r2, #1280
 892 01aa 43F00043 		orr	r3, r3, #-2147483648
 893 01ae 1360     		str	r3, [r2]
 894 01b0 00E0     		b	.L32
 895              	.LVL51:
 896              	.L40:
1706:Drivers/STM32F4xx_HAL_Driver/Src/stm32f4xx_ll_usb.c ****         }
 897              		.loc 1 1706 11 view .LVU246
 898 01b2 00BF     		nop
 899              	.LVL52:
 900              	.L32:
1714:Drivers/STM32F4xx_HAL_Driver/Src/stm32f4xx_ll_usb.c ****     }
ARM GAS  C:\Users\gx\AppData\Local\Temp\ccXSZ03x.s 			page 47


1715:Drivers/STM32F4xx_HAL_Driver/Src/stm32f4xx_ll_usb.c ****   }
1716:Drivers/STM32F4xx_HAL_Driver/Src/stm32f4xx_ll_usb.c ****   
1717:Drivers/STM32F4xx_HAL_Driver/Src/stm32f4xx_ll_usb.c ****   return HAL_OK;
 901              		.loc 1 1717 3 is_stmt 1 view .LVU247
 902              		.loc 1 1717 10 is_stmt 0 view .LVU248
 903 01b4 0023     		movs	r3, #0
1718:Drivers/STM32F4xx_HAL_Driver/Src/stm32f4xx_ll_usb.c **** }
 904              		.loc 1 1718 1 view .LVU249
 905 01b6 1846     		mov	r0, r3
 906              	.LVL53:
 907              		.loc 1 1718 1 view .LVU250
 908 01b8 1437     		adds	r7, r7, #20
 909              	.LCFI14:
 910              		.cfi_def_cfa_offset 4
 911 01ba BD46     		mov	sp, r7
 912              	.LCFI15:
 913              		.cfi_def_cfa_register 13
 914              	.LVL54:
 915              		.loc 1 1718 1 view .LVU251
 916              		@ sp needed
 917 01bc 5DF8047B 		ldr	r7, [sp], #4
 918              	.LCFI16:
 919              		.cfi_restore 7
 920              		.cfi_def_cfa_offset 0
 921 01c0 7047     		bx	lr
 922              		.cfi_endproc
 923              	.LFE168:
 925              		.section	.text.USB_DoPing,"ax",%progbits
 926              		.align	1
 927              		.global	USB_DoPing
 928              		.syntax unified
 929              		.thumb
 930              		.thumb_func
 931              		.fpu fpv4-sp-d16
 933              	USB_DoPing:
 934              	.LVL55:
 935              	.LFB169:
1719:Drivers/STM32F4xx_HAL_Driver/Src/stm32f4xx_ll_usb.c **** 
1720:Drivers/STM32F4xx_HAL_Driver/Src/stm32f4xx_ll_usb.c **** /**
1721:Drivers/STM32F4xx_HAL_Driver/Src/stm32f4xx_ll_usb.c ****   * @brief  Initiate Do Ping protocol
1722:Drivers/STM32F4xx_HAL_Driver/Src/stm32f4xx_ll_usb.c ****   * @param  USBx  Selected device
1723:Drivers/STM32F4xx_HAL_Driver/Src/stm32f4xx_ll_usb.c ****   * @param  hc_num  Host Channel number
1724:Drivers/STM32F4xx_HAL_Driver/Src/stm32f4xx_ll_usb.c ****   *         This parameter can be a value from 1 to 15
1725:Drivers/STM32F4xx_HAL_Driver/Src/stm32f4xx_ll_usb.c ****   * @retval HAL state
1726:Drivers/STM32F4xx_HAL_Driver/Src/stm32f4xx_ll_usb.c ****   */
1727:Drivers/STM32F4xx_HAL_Driver/Src/stm32f4xx_ll_usb.c **** HAL_StatusTypeDef USB_DoPing(USB_OTG_GlobalTypeDef *USBx , uint8_t ch_num)
1728:Drivers/STM32F4xx_HAL_Driver/Src/stm32f4xx_ll_usb.c **** {
 936              		.loc 1 1728 1 is_stmt 1 view -0
 937              		.cfi_startproc
 938              		@ args = 0, pretend = 0, frame = 16
 939              		@ frame_needed = 1, uses_anonymous_args = 0
 940              		@ link register save eliminated.
 941              		.loc 1 1728 1 is_stmt 0 view .LVU253
 942 0000 80B4     		push	{r7}
 943              	.LCFI17:
 944              		.cfi_def_cfa_offset 4
 945              		.cfi_offset 7, -4
ARM GAS  C:\Users\gx\AppData\Local\Temp\ccXSZ03x.s 			page 48


 946 0002 85B0     		sub	sp, sp, #20
 947              	.LCFI18:
 948              		.cfi_def_cfa_offset 24
 949 0004 00AF     		add	r7, sp, #0
 950              	.LCFI19:
 951              		.cfi_def_cfa_register 7
 952 0006 7860     		str	r0, [r7, #4]
 953 0008 0B46     		mov	r3, r1
 954 000a FB70     		strb	r3, [r7, #3]
1729:Drivers/STM32F4xx_HAL_Driver/Src/stm32f4xx_ll_usb.c ****   uint8_t  num_packets = 1U;
 955              		.loc 1 1729 3 is_stmt 1 view .LVU254
 956              		.loc 1 1729 12 is_stmt 0 view .LVU255
 957 000c 0123     		movs	r3, #1
 958 000e FB73     		strb	r3, [r7, #15]
 959              	.LVL56:
1730:Drivers/STM32F4xx_HAL_Driver/Src/stm32f4xx_ll_usb.c ****   uint32_t tmpreg = 0U;
 960              		.loc 1 1730 3 is_stmt 1 view .LVU256
 961              		.loc 1 1730 12 is_stmt 0 view .LVU257
 962 0010 0023     		movs	r3, #0
 963              	.LVL57:
 964              		.loc 1 1730 12 view .LVU258
 965 0012 BB60     		str	r3, [r7, #8]
 966              	.LVL58:
1731:Drivers/STM32F4xx_HAL_Driver/Src/stm32f4xx_ll_usb.c **** 
1732:Drivers/STM32F4xx_HAL_Driver/Src/stm32f4xx_ll_usb.c ****   USBx_HC(ch_num)->HCTSIZ = ((num_packets << 19U) & USB_OTG_HCTSIZ_PKTCNT) |\
 967              		.loc 1 1732 3 is_stmt 1 view .LVU259
 968              		.loc 1 1732 43 is_stmt 0 view .LVU260
 969 0014 FB7B     		ldrb	r3, [r7, #15]	@ zero_extendqisi2
 970              	.LVL59:
 971              		.loc 1 1732 43 view .LVU261
 972 0016 DB04     		lsls	r3, r3, #19
 973 0018 1A46     		mov	r2, r3
 974              		.loc 1 1732 51 view .LVU262
 975 001a 154B     		ldr	r3, .L43
 976 001c 1340     		ands	r3, r3, r2
 977              		.loc 1 1732 3 view .LVU263
 978 001e FA78     		ldrb	r2, [r7, #3]	@ zero_extendqisi2
 979 0020 5101     		lsls	r1, r2, #5
 980              	.LVL60:
 981              		.loc 1 1732 3 view .LVU264
 982 0022 7A68     		ldr	r2, [r7, #4]
 983 0024 0A44     		add	r2, r2, r1
 984 0026 02F5A062 		add	r2, r2, #1280
 985              		.loc 1 1732 76 view .LVU265
 986 002a 43F00043 		orr	r3, r3, #-2147483648
 987              		.loc 1 1732 27 view .LVU266
 988 002e 1361     		str	r3, [r2, #16]
1733:Drivers/STM32F4xx_HAL_Driver/Src/stm32f4xx_ll_usb.c ****                                 USB_OTG_HCTSIZ_DOPING;
1734:Drivers/STM32F4xx_HAL_Driver/Src/stm32f4xx_ll_usb.c ****   
1735:Drivers/STM32F4xx_HAL_Driver/Src/stm32f4xx_ll_usb.c ****   /* Set host channel enable */
1736:Drivers/STM32F4xx_HAL_Driver/Src/stm32f4xx_ll_usb.c ****   tmpreg = USBx_HC(ch_num)->HCCHAR;
 989              		.loc 1 1736 3 is_stmt 1 view .LVU267
 990              		.loc 1 1736 12 is_stmt 0 view .LVU268
 991 0030 FB78     		ldrb	r3, [r7, #3]	@ zero_extendqisi2
 992 0032 5A01     		lsls	r2, r3, #5
 993 0034 7B68     		ldr	r3, [r7, #4]
 994 0036 1344     		add	r3, r3, r2
ARM GAS  C:\Users\gx\AppData\Local\Temp\ccXSZ03x.s 			page 49


 995 0038 03F5A063 		add	r3, r3, #1280
 996              		.loc 1 1736 10 view .LVU269
 997 003c 1B68     		ldr	r3, [r3]
 998 003e BB60     		str	r3, [r7, #8]
 999              	.LVL61:
1737:Drivers/STM32F4xx_HAL_Driver/Src/stm32f4xx_ll_usb.c ****   tmpreg &= ~USB_OTG_HCCHAR_CHDIS;
 1000              		.loc 1 1737 3 is_stmt 1 view .LVU270
 1001              		.loc 1 1737 10 is_stmt 0 view .LVU271
 1002 0040 BB68     		ldr	r3, [r7, #8]
 1003              		.loc 1 1737 10 view .LVU272
 1004 0042 23F08043 		bic	r3, r3, #1073741824
 1005              	.LVL62:
 1006              		.loc 1 1737 10 view .LVU273
 1007 0046 BB60     		str	r3, [r7, #8]
 1008              	.LVL63:
1738:Drivers/STM32F4xx_HAL_Driver/Src/stm32f4xx_ll_usb.c ****   tmpreg |= USB_OTG_HCCHAR_CHENA;
 1009              		.loc 1 1738 3 is_stmt 1 view .LVU274
 1010              		.loc 1 1738 10 is_stmt 0 view .LVU275
 1011 0048 BB68     		ldr	r3, [r7, #8]
 1012              		.loc 1 1738 10 view .LVU276
 1013 004a 43F00043 		orr	r3, r3, #-2147483648
 1014              	.LVL64:
 1015              		.loc 1 1738 10 view .LVU277
 1016 004e BB60     		str	r3, [r7, #8]
 1017              	.LVL65:
1739:Drivers/STM32F4xx_HAL_Driver/Src/stm32f4xx_ll_usb.c ****   USBx_HC(ch_num)->HCCHAR = tmpreg;
 1018              		.loc 1 1739 3 is_stmt 1 view .LVU278
 1019 0050 FB78     		ldrb	r3, [r7, #3]	@ zero_extendqisi2
 1020              	.LVL66:
 1021              		.loc 1 1739 3 is_stmt 0 view .LVU279
 1022 0052 5A01     		lsls	r2, r3, #5
 1023 0054 7B68     		ldr	r3, [r7, #4]
 1024 0056 1344     		add	r3, r3, r2
 1025 0058 03F5A063 		add	r3, r3, #1280
 1026 005c 1A46     		mov	r2, r3
 1027              		.loc 1 1739 27 view .LVU280
 1028 005e BB68     		ldr	r3, [r7, #8]
 1029 0060 1360     		str	r3, [r2]
1740:Drivers/STM32F4xx_HAL_Driver/Src/stm32f4xx_ll_usb.c ****   
1741:Drivers/STM32F4xx_HAL_Driver/Src/stm32f4xx_ll_usb.c ****   return HAL_OK;  
 1030              		.loc 1 1741 3 is_stmt 1 view .LVU281
 1031              		.loc 1 1741 10 is_stmt 0 view .LVU282
 1032 0062 0023     		movs	r3, #0
1742:Drivers/STM32F4xx_HAL_Driver/Src/stm32f4xx_ll_usb.c **** }
 1033              		.loc 1 1742 1 view .LVU283
 1034 0064 1846     		mov	r0, r3
 1035              	.LVL67:
 1036              		.loc 1 1742 1 view .LVU284
 1037 0066 1437     		adds	r7, r7, #20
 1038              	.LCFI20:
 1039              		.cfi_def_cfa_offset 4
 1040 0068 BD46     		mov	sp, r7
 1041              	.LCFI21:
 1042              		.cfi_def_cfa_register 13
 1043              	.LVL68:
 1044              		.loc 1 1742 1 view .LVU285
 1045              		@ sp needed
ARM GAS  C:\Users\gx\AppData\Local\Temp\ccXSZ03x.s 			page 50


 1046 006a 5DF8047B 		ldr	r7, [sp], #4
 1047              	.LCFI22:
 1048              		.cfi_restore 7
 1049              		.cfi_def_cfa_offset 0
 1050 006e 7047     		bx	lr
 1051              	.L44:
 1052              		.align	2
 1053              	.L43:
 1054 0070 0000F81F 		.word	536346624
 1055              		.cfi_endproc
 1056              	.LFE169:
 1058              		.section	.text.USB_StopHost,"ax",%progbits
 1059              		.align	1
 1060              		.global	USB_StopHost
 1061              		.syntax unified
 1062              		.thumb
 1063              		.thumb_func
 1064              		.fpu fpv4-sp-d16
 1066              	USB_StopHost:
 1067              	.LVL69:
 1068              	.LFB170:
1743:Drivers/STM32F4xx_HAL_Driver/Src/stm32f4xx_ll_usb.c **** 
1744:Drivers/STM32F4xx_HAL_Driver/Src/stm32f4xx_ll_usb.c **** /**
1745:Drivers/STM32F4xx_HAL_Driver/Src/stm32f4xx_ll_usb.c ****   * @brief  Stop Host Core
1746:Drivers/STM32F4xx_HAL_Driver/Src/stm32f4xx_ll_usb.c ****   * @param  USBx  Selected device
1747:Drivers/STM32F4xx_HAL_Driver/Src/stm32f4xx_ll_usb.c ****   * @retval HAL state
1748:Drivers/STM32F4xx_HAL_Driver/Src/stm32f4xx_ll_usb.c ****   */
1749:Drivers/STM32F4xx_HAL_Driver/Src/stm32f4xx_ll_usb.c **** HAL_StatusTypeDef USB_StopHost(USB_OTG_GlobalTypeDef *USBx)
1750:Drivers/STM32F4xx_HAL_Driver/Src/stm32f4xx_ll_usb.c **** {
 1069              		.loc 1 1750 1 is_stmt 1 view -0
 1070              		.cfi_startproc
 1071              		@ args = 0, pretend = 0, frame = 24
 1072              		@ frame_needed = 1, uses_anonymous_args = 0
 1073              		.loc 1 1750 1 is_stmt 0 view .LVU287
 1074 0000 80B5     		push	{r7, lr}
 1075              	.LCFI23:
 1076              		.cfi_def_cfa_offset 8
 1077              		.cfi_offset 7, -8
 1078              		.cfi_offset 14, -4
 1079 0002 86B0     		sub	sp, sp, #24
 1080              	.LCFI24:
 1081              		.cfi_def_cfa_offset 32
 1082 0004 00AF     		add	r7, sp, #0
 1083              	.LCFI25:
 1084              		.cfi_def_cfa_register 7
 1085 0006 7860     		str	r0, [r7, #4]
1751:Drivers/STM32F4xx_HAL_Driver/Src/stm32f4xx_ll_usb.c ****   uint8_t i;
 1086              		.loc 1 1751 3 is_stmt 1 view .LVU288
1752:Drivers/STM32F4xx_HAL_Driver/Src/stm32f4xx_ll_usb.c ****   uint32_t count = 0U;
 1087              		.loc 1 1752 3 view .LVU289
 1088              		.loc 1 1752 12 is_stmt 0 view .LVU290
 1089 0008 0023     		movs	r3, #0
 1090 000a 3B61     		str	r3, [r7, #16]
 1091              	.LVL70:
1753:Drivers/STM32F4xx_HAL_Driver/Src/stm32f4xx_ll_usb.c ****   uint32_t value;
 1092              		.loc 1 1753 3 is_stmt 1 view .LVU291
1754:Drivers/STM32F4xx_HAL_Driver/Src/stm32f4xx_ll_usb.c ****   
ARM GAS  C:\Users\gx\AppData\Local\Temp\ccXSZ03x.s 			page 51


1755:Drivers/STM32F4xx_HAL_Driver/Src/stm32f4xx_ll_usb.c ****   USB_DisableGlobalInt(USBx);
 1093              		.loc 1 1755 3 view .LVU292
 1094 000c 7868     		ldr	r0, [r7, #4]
 1095              		.loc 1 1755 3 is_stmt 0 view .LVU293
 1096 000e FFF7FEFF 		bl	USB_DisableGlobalInt
 1097              	.LVL71:
1756:Drivers/STM32F4xx_HAL_Driver/Src/stm32f4xx_ll_usb.c ****   
1757:Drivers/STM32F4xx_HAL_Driver/Src/stm32f4xx_ll_usb.c ****     /* Flush FIFO */
1758:Drivers/STM32F4xx_HAL_Driver/Src/stm32f4xx_ll_usb.c ****   USB_FlushTxFifo(USBx, 0x10U);
 1098              		.loc 1 1758 3 is_stmt 1 view .LVU294
 1099 0012 1021     		movs	r1, #16
 1100 0014 7868     		ldr	r0, [r7, #4]
 1101 0016 FFF7FEFF 		bl	USB_FlushTxFifo
 1102              	.LVL72:
1759:Drivers/STM32F4xx_HAL_Driver/Src/stm32f4xx_ll_usb.c ****   USB_FlushRxFifo(USBx);
 1103              		.loc 1 1759 3 view .LVU295
 1104 001a 7868     		ldr	r0, [r7, #4]
 1105 001c FFF7FEFF 		bl	USB_FlushRxFifo
 1106              	.LVL73:
1760:Drivers/STM32F4xx_HAL_Driver/Src/stm32f4xx_ll_usb.c ****   
1761:Drivers/STM32F4xx_HAL_Driver/Src/stm32f4xx_ll_usb.c ****   /* Flush out any leftover queued requests. */
1762:Drivers/STM32F4xx_HAL_Driver/Src/stm32f4xx_ll_usb.c ****   for (i = 0; i <= 15; i++)
 1107              		.loc 1 1762 3 view .LVU296
 1108              		.loc 1 1762 10 is_stmt 0 view .LVU297
 1109 0020 0023     		movs	r3, #0
 1110 0022 FB75     		strb	r3, [r7, #23]
 1111              	.LVL74:
 1112              		.loc 1 1762 3 view .LVU298
 1113 0024 1FE0     		b	.L46
 1114              	.LVL75:
 1115              	.L47:
1763:Drivers/STM32F4xx_HAL_Driver/Src/stm32f4xx_ll_usb.c ****   {   
1764:Drivers/STM32F4xx_HAL_Driver/Src/stm32f4xx_ll_usb.c **** 
1765:Drivers/STM32F4xx_HAL_Driver/Src/stm32f4xx_ll_usb.c ****     value = USBx_HC(i)->HCCHAR ;
 1116              		.loc 1 1765 5 is_stmt 1 discriminator 3 view .LVU299
 1117              		.loc 1 1765 13 is_stmt 0 discriminator 3 view .LVU300
 1118 0026 FB7D     		ldrb	r3, [r7, #23]	@ zero_extendqisi2
 1119 0028 5A01     		lsls	r2, r3, #5
 1120 002a 7B68     		ldr	r3, [r7, #4]
 1121 002c 1344     		add	r3, r3, r2
 1122 002e 03F5A063 		add	r3, r3, #1280
 1123              		.loc 1 1765 11 discriminator 3 view .LVU301
 1124 0032 1B68     		ldr	r3, [r3]
 1125 0034 FB60     		str	r3, [r7, #12]
 1126              	.LVL76:
1766:Drivers/STM32F4xx_HAL_Driver/Src/stm32f4xx_ll_usb.c ****     value |=  USB_OTG_HCCHAR_CHDIS;
 1127              		.loc 1 1766 5 is_stmt 1 discriminator 3 view .LVU302
 1128              		.loc 1 1766 11 is_stmt 0 discriminator 3 view .LVU303
 1129 0036 FB68     		ldr	r3, [r7, #12]
 1130              		.loc 1 1766 11 discriminator 3 view .LVU304
 1131 0038 43F08043 		orr	r3, r3, #1073741824
 1132              	.LVL77:
 1133              		.loc 1 1766 11 discriminator 3 view .LVU305
 1134 003c FB60     		str	r3, [r7, #12]
 1135              	.LVL78:
1767:Drivers/STM32F4xx_HAL_Driver/Src/stm32f4xx_ll_usb.c ****     value &= ~USB_OTG_HCCHAR_CHENA;  
 1136              		.loc 1 1767 5 is_stmt 1 discriminator 3 view .LVU306
ARM GAS  C:\Users\gx\AppData\Local\Temp\ccXSZ03x.s 			page 52


 1137              		.loc 1 1767 11 is_stmt 0 discriminator 3 view .LVU307
 1138 003e FB68     		ldr	r3, [r7, #12]
 1139              		.loc 1 1767 11 discriminator 3 view .LVU308
 1140 0040 23F00043 		bic	r3, r3, #-2147483648
 1141              	.LVL79:
 1142              		.loc 1 1767 11 discriminator 3 view .LVU309
 1143 0044 FB60     		str	r3, [r7, #12]
 1144              	.LVL80:
1768:Drivers/STM32F4xx_HAL_Driver/Src/stm32f4xx_ll_usb.c ****     value &= ~USB_OTG_HCCHAR_EPDIR;
 1145              		.loc 1 1768 5 is_stmt 1 discriminator 3 view .LVU310
 1146              		.loc 1 1768 11 is_stmt 0 discriminator 3 view .LVU311
 1147 0046 FB68     		ldr	r3, [r7, #12]
 1148              		.loc 1 1768 11 discriminator 3 view .LVU312
 1149 0048 23F40043 		bic	r3, r3, #32768
 1150              	.LVL81:
 1151              		.loc 1 1768 11 discriminator 3 view .LVU313
 1152 004c FB60     		str	r3, [r7, #12]
 1153              	.LVL82:
1769:Drivers/STM32F4xx_HAL_Driver/Src/stm32f4xx_ll_usb.c ****     USBx_HC(i)->HCCHAR = value;
 1154              		.loc 1 1769 5 is_stmt 1 discriminator 3 view .LVU314
 1155 004e FB7D     		ldrb	r3, [r7, #23]	@ zero_extendqisi2
 1156              	.LVL83:
 1157              		.loc 1 1769 5 is_stmt 0 discriminator 3 view .LVU315
 1158 0050 5A01     		lsls	r2, r3, #5
 1159 0052 7B68     		ldr	r3, [r7, #4]
 1160 0054 1344     		add	r3, r3, r2
 1161 0056 03F5A063 		add	r3, r3, #1280
 1162 005a 1A46     		mov	r2, r3
 1163              		.loc 1 1769 24 discriminator 3 view .LVU316
 1164 005c FB68     		ldr	r3, [r7, #12]
 1165 005e 1360     		str	r3, [r2]
1762:Drivers/STM32F4xx_HAL_Driver/Src/stm32f4xx_ll_usb.c ****   {   
 1166              		.loc 1 1762 24 is_stmt 1 discriminator 3 view .LVU317
1762:Drivers/STM32F4xx_HAL_Driver/Src/stm32f4xx_ll_usb.c ****   {   
 1167              		.loc 1 1762 25 is_stmt 0 discriminator 3 view .LVU318
 1168 0060 FB7D     		ldrb	r3, [r7, #23]	@ zero_extendqisi2
 1169 0062 0133     		adds	r3, r3, #1
 1170 0064 FB75     		strb	r3, [r7, #23]
 1171              	.LVL84:
 1172              	.L46:
1762:Drivers/STM32F4xx_HAL_Driver/Src/stm32f4xx_ll_usb.c ****   {   
 1173              		.loc 1 1762 15 is_stmt 1 discriminator 1 view .LVU319
1762:Drivers/STM32F4xx_HAL_Driver/Src/stm32f4xx_ll_usb.c ****   {   
 1174              		.loc 1 1762 3 is_stmt 0 discriminator 1 view .LVU320
 1175 0066 FB7D     		ldrb	r3, [r7, #23]	@ zero_extendqisi2
 1176 0068 0F2B     		cmp	r3, #15
 1177 006a DCD9     		bls	.L47
1770:Drivers/STM32F4xx_HAL_Driver/Src/stm32f4xx_ll_usb.c ****   }
1771:Drivers/STM32F4xx_HAL_Driver/Src/stm32f4xx_ll_usb.c ****   
1772:Drivers/STM32F4xx_HAL_Driver/Src/stm32f4xx_ll_usb.c ****   /* Halt all channels to put them into a known state. */  
1773:Drivers/STM32F4xx_HAL_Driver/Src/stm32f4xx_ll_usb.c ****   for (i = 0; i <= 15; i++)
 1178              		.loc 1 1773 3 is_stmt 1 view .LVU321
 1179              		.loc 1 1773 10 is_stmt 0 view .LVU322
 1180 006c 0023     		movs	r3, #0
 1181 006e FB75     		strb	r3, [r7, #23]
 1182              	.LVL85:
 1183              		.loc 1 1773 3 view .LVU323
ARM GAS  C:\Users\gx\AppData\Local\Temp\ccXSZ03x.s 			page 53


 1184 0070 34E0     		b	.L48
 1185              	.LVL86:
 1186              	.L52:
1774:Drivers/STM32F4xx_HAL_Driver/Src/stm32f4xx_ll_usb.c ****   {
1775:Drivers/STM32F4xx_HAL_Driver/Src/stm32f4xx_ll_usb.c ****     value = USBx_HC(i)->HCCHAR ;
 1187              		.loc 1 1775 5 is_stmt 1 view .LVU324
 1188              		.loc 1 1775 13 is_stmt 0 view .LVU325
 1189 0072 FB7D     		ldrb	r3, [r7, #23]	@ zero_extendqisi2
 1190 0074 5A01     		lsls	r2, r3, #5
 1191 0076 7B68     		ldr	r3, [r7, #4]
 1192 0078 1344     		add	r3, r3, r2
 1193 007a 03F5A063 		add	r3, r3, #1280
 1194              		.loc 1 1775 11 view .LVU326
 1195 007e 1B68     		ldr	r3, [r3]
 1196 0080 FB60     		str	r3, [r7, #12]
 1197              	.LVL87:
1776:Drivers/STM32F4xx_HAL_Driver/Src/stm32f4xx_ll_usb.c ****     
1777:Drivers/STM32F4xx_HAL_Driver/Src/stm32f4xx_ll_usb.c ****     value |= USB_OTG_HCCHAR_CHDIS;
 1198              		.loc 1 1777 5 is_stmt 1 view .LVU327
 1199              		.loc 1 1777 11 is_stmt 0 view .LVU328
 1200 0082 FB68     		ldr	r3, [r7, #12]
 1201              		.loc 1 1777 11 view .LVU329
 1202 0084 43F08043 		orr	r3, r3, #1073741824
 1203              	.LVL88:
 1204              		.loc 1 1777 11 view .LVU330
 1205 0088 FB60     		str	r3, [r7, #12]
 1206              	.LVL89:
1778:Drivers/STM32F4xx_HAL_Driver/Src/stm32f4xx_ll_usb.c ****     value |= USB_OTG_HCCHAR_CHENA;  
 1207              		.loc 1 1778 5 is_stmt 1 view .LVU331
 1208              		.loc 1 1778 11 is_stmt 0 view .LVU332
 1209 008a FB68     		ldr	r3, [r7, #12]
 1210              		.loc 1 1778 11 view .LVU333
 1211 008c 43F00043 		orr	r3, r3, #-2147483648
 1212              	.LVL90:
 1213              		.loc 1 1778 11 view .LVU334
 1214 0090 FB60     		str	r3, [r7, #12]
 1215              	.LVL91:
1779:Drivers/STM32F4xx_HAL_Driver/Src/stm32f4xx_ll_usb.c ****     value &= ~USB_OTG_HCCHAR_EPDIR;
 1216              		.loc 1 1779 5 is_stmt 1 view .LVU335
 1217              		.loc 1 1779 11 is_stmt 0 view .LVU336
 1218 0092 FB68     		ldr	r3, [r7, #12]
 1219              		.loc 1 1779 11 view .LVU337
 1220 0094 23F40043 		bic	r3, r3, #32768
 1221              	.LVL92:
 1222              		.loc 1 1779 11 view .LVU338
 1223 0098 FB60     		str	r3, [r7, #12]
 1224              	.LVL93:
1780:Drivers/STM32F4xx_HAL_Driver/Src/stm32f4xx_ll_usb.c ****     
1781:Drivers/STM32F4xx_HAL_Driver/Src/stm32f4xx_ll_usb.c ****     USBx_HC(i)->HCCHAR = value;
 1225              		.loc 1 1781 5 is_stmt 1 view .LVU339
 1226 009a FB7D     		ldrb	r3, [r7, #23]	@ zero_extendqisi2
 1227              	.LVL94:
 1228              		.loc 1 1781 5 is_stmt 0 view .LVU340
 1229 009c 5A01     		lsls	r2, r3, #5
 1230 009e 7B68     		ldr	r3, [r7, #4]
 1231 00a0 1344     		add	r3, r3, r2
 1232 00a2 03F5A063 		add	r3, r3, #1280
ARM GAS  C:\Users\gx\AppData\Local\Temp\ccXSZ03x.s 			page 54


 1233 00a6 1A46     		mov	r2, r3
 1234              		.loc 1 1781 24 view .LVU341
 1235 00a8 FB68     		ldr	r3, [r7, #12]
 1236 00aa 1360     		str	r3, [r2]
 1237              	.L51:
1782:Drivers/STM32F4xx_HAL_Driver/Src/stm32f4xx_ll_usb.c ****     do 
 1238              		.loc 1 1782 5 is_stmt 1 view .LVU342
1783:Drivers/STM32F4xx_HAL_Driver/Src/stm32f4xx_ll_usb.c ****     {
1784:Drivers/STM32F4xx_HAL_Driver/Src/stm32f4xx_ll_usb.c ****       if (++count > 1000U) 
 1239              		.loc 1 1784 7 view .LVU343
 1240              		.loc 1 1784 10 is_stmt 0 view .LVU344
 1241 00ac 3B69     		ldr	r3, [r7, #16]
 1242 00ae 0133     		adds	r3, r3, #1
 1243 00b0 3B61     		str	r3, [r7, #16]
 1244              	.LVL95:
 1245              		.loc 1 1784 10 view .LVU345
 1246 00b2 3B69     		ldr	r3, [r7, #16]
 1247              		.loc 1 1784 10 view .LVU346
 1248 00b4 B3F57A7F 		cmp	r3, #1000
 1249 00b8 0CD8     		bhi	.L54
1785:Drivers/STM32F4xx_HAL_Driver/Src/stm32f4xx_ll_usb.c ****       {
1786:Drivers/STM32F4xx_HAL_Driver/Src/stm32f4xx_ll_usb.c ****         break;
1787:Drivers/STM32F4xx_HAL_Driver/Src/stm32f4xx_ll_usb.c ****       }
1788:Drivers/STM32F4xx_HAL_Driver/Src/stm32f4xx_ll_usb.c ****     } 
1789:Drivers/STM32F4xx_HAL_Driver/Src/stm32f4xx_ll_usb.c ****     while ((USBx_HC(i)->HCCHAR & USB_OTG_HCCHAR_CHENA) == USB_OTG_HCCHAR_CHENA);
 1250              		.loc 1 1789 11 is_stmt 1 view .LVU347
 1251              		.loc 1 1789 13 is_stmt 0 view .LVU348
 1252 00ba FB7D     		ldrb	r3, [r7, #23]	@ zero_extendqisi2
 1253              	.LVL96:
 1254              		.loc 1 1789 13 view .LVU349
 1255 00bc 5A01     		lsls	r2, r3, #5
 1256 00be 7B68     		ldr	r3, [r7, #4]
 1257 00c0 1344     		add	r3, r3, r2
 1258 00c2 03F5A063 		add	r3, r3, #1280
 1259              		.loc 1 1789 23 view .LVU350
 1260 00c6 1B68     		ldr	r3, [r3]
 1261              		.loc 1 1789 32 view .LVU351
 1262 00c8 03F00043 		and	r3, r3, #-2147483648
 1263              		.loc 1 1789 5 view .LVU352
 1264 00cc B3F1004F 		cmp	r3, #-2147483648
 1265 00d0 ECD0     		beq	.L51
 1266 00d2 00E0     		b	.L50
 1267              	.LVL97:
 1268              	.L54:
1786:Drivers/STM32F4xx_HAL_Driver/Src/stm32f4xx_ll_usb.c ****       }
 1269              		.loc 1 1786 9 view .LVU353
 1270 00d4 00BF     		nop
 1271              	.LVL98:
 1272              	.L50:
1773:Drivers/STM32F4xx_HAL_Driver/Src/stm32f4xx_ll_usb.c ****   {
 1273              		.loc 1 1773 24 is_stmt 1 discriminator 2 view .LVU354
1773:Drivers/STM32F4xx_HAL_Driver/Src/stm32f4xx_ll_usb.c ****   {
 1274              		.loc 1 1773 25 is_stmt 0 discriminator 2 view .LVU355
 1275 00d6 FB7D     		ldrb	r3, [r7, #23]	@ zero_extendqisi2
 1276 00d8 0133     		adds	r3, r3, #1
 1277 00da FB75     		strb	r3, [r7, #23]
 1278              	.LVL99:
ARM GAS  C:\Users\gx\AppData\Local\Temp\ccXSZ03x.s 			page 55


 1279              	.L48:
1773:Drivers/STM32F4xx_HAL_Driver/Src/stm32f4xx_ll_usb.c ****   {
 1280              		.loc 1 1773 15 is_stmt 1 discriminator 1 view .LVU356
1773:Drivers/STM32F4xx_HAL_Driver/Src/stm32f4xx_ll_usb.c ****   {
 1281              		.loc 1 1773 3 is_stmt 0 discriminator 1 view .LVU357
 1282 00dc FB7D     		ldrb	r3, [r7, #23]	@ zero_extendqisi2
 1283 00de 0F2B     		cmp	r3, #15
 1284 00e0 C7D9     		bls	.L52
1790:Drivers/STM32F4xx_HAL_Driver/Src/stm32f4xx_ll_usb.c ****   }
1791:Drivers/STM32F4xx_HAL_Driver/Src/stm32f4xx_ll_usb.c **** 
1792:Drivers/STM32F4xx_HAL_Driver/Src/stm32f4xx_ll_usb.c ****   /* Clear any pending Host interrupts */  
1793:Drivers/STM32F4xx_HAL_Driver/Src/stm32f4xx_ll_usb.c ****   USBx_HOST->HAINT = 0xFFFFFFFFU;
 1285              		.loc 1 1793 3 is_stmt 1 view .LVU358
 1286 00e2 7B68     		ldr	r3, [r7, #4]
 1287 00e4 03F58063 		add	r3, r3, #1024
 1288 00e8 1A46     		mov	r2, r3
 1289              		.loc 1 1793 20 is_stmt 0 view .LVU359
 1290 00ea 4FF0FF33 		mov	r3, #-1
 1291 00ee 5361     		str	r3, [r2, #20]
1794:Drivers/STM32F4xx_HAL_Driver/Src/stm32f4xx_ll_usb.c ****   USBx->GINTSTS = 0xFFFFFFFFU;
 1292              		.loc 1 1794 3 is_stmt 1 view .LVU360
 1293              		.loc 1 1794 17 is_stmt 0 view .LVU361
 1294 00f0 7B68     		ldr	r3, [r7, #4]
 1295 00f2 4FF0FF32 		mov	r2, #-1
 1296 00f6 5A61     		str	r2, [r3, #20]
1795:Drivers/STM32F4xx_HAL_Driver/Src/stm32f4xx_ll_usb.c ****   USB_EnableGlobalInt(USBx);
 1297              		.loc 1 1795 3 is_stmt 1 view .LVU362
 1298 00f8 7868     		ldr	r0, [r7, #4]
 1299 00fa FFF7FEFF 		bl	USB_EnableGlobalInt
 1300              	.LVL100:
1796:Drivers/STM32F4xx_HAL_Driver/Src/stm32f4xx_ll_usb.c ****   return HAL_OK;  
 1301              		.loc 1 1796 3 view .LVU363
 1302              		.loc 1 1796 10 is_stmt 0 view .LVU364
 1303 00fe 0023     		movs	r3, #0
1797:Drivers/STM32F4xx_HAL_Driver/Src/stm32f4xx_ll_usb.c **** }
 1304              		.loc 1 1797 1 view .LVU365
 1305 0100 1846     		mov	r0, r3
 1306 0102 1837     		adds	r7, r7, #24
 1307              	.LCFI26:
 1308              		.cfi_def_cfa_offset 8
 1309 0104 BD46     		mov	sp, r7
 1310              	.LCFI27:
 1311              		.cfi_def_cfa_register 13
 1312              	.LVL101:
 1313              		.loc 1 1797 1 view .LVU366
 1314              		@ sp needed
 1315 0106 80BD     		pop	{r7, pc}
 1316              		.cfi_endproc
 1317              	.LFE170:
 1319              		.section	.text.USB_CoreReset,"ax",%progbits
 1320              		.align	1
 1321              		.syntax unified
 1322              		.thumb
 1323              		.thumb_func
 1324              		.fpu fpv4-sp-d16
 1326              	USB_CoreReset:
 1327              	.LVL102:
ARM GAS  C:\Users\gx\AppData\Local\Temp\ccXSZ03x.s 			page 56


 1328              	.LFB158:
1195:Drivers/STM32F4xx_HAL_Driver/Src/stm32f4xx_ll_usb.c ****   uint32_t count = 0U;
 1329              		.loc 1 1195 1 is_stmt 1 view -0
 1330              		.cfi_startproc
 1331              		@ args = 0, pretend = 0, frame = 0
 1332              		@ frame_needed = 0, uses_anonymous_args = 0
 1333              		@ link register save eliminated.
1196:Drivers/STM32F4xx_HAL_Driver/Src/stm32f4xx_ll_usb.c **** 
 1334              		.loc 1 1196 3 view .LVU368
1196:Drivers/STM32F4xx_HAL_Driver/Src/stm32f4xx_ll_usb.c **** 
 1335              		.loc 1 1196 12 is_stmt 0 view .LVU369
 1336 0000 0023     		movs	r3, #0
 1337              	.LVL103:
 1338              	.L57:
1199:Drivers/STM32F4xx_HAL_Driver/Src/stm32f4xx_ll_usb.c ****   {
 1339              		.loc 1 1199 3 is_stmt 1 view .LVU370
1201:Drivers/STM32F4xx_HAL_Driver/Src/stm32f4xx_ll_usb.c ****     {
 1340              		.loc 1 1201 5 view .LVU371
1201:Drivers/STM32F4xx_HAL_Driver/Src/stm32f4xx_ll_usb.c ****     {
 1341              		.loc 1 1201 8 is_stmt 0 view .LVU372
 1342 0002 0133     		adds	r3, r3, #1
 1343              	.LVL104:
1201:Drivers/STM32F4xx_HAL_Driver/Src/stm32f4xx_ll_usb.c ****     {
 1344              		.loc 1 1201 8 view .LVU373
 1345 0004 0C4A     		ldr	r2, .L61
 1346 0006 9342     		cmp	r3, r2
 1347 0008 11D8     		bhi	.L59
1206:Drivers/STM32F4xx_HAL_Driver/Src/stm32f4xx_ll_usb.c ****   
 1348              		.loc 1 1206 9 is_stmt 1 view .LVU374
1206:Drivers/STM32F4xx_HAL_Driver/Src/stm32f4xx_ll_usb.c ****   
 1349              		.loc 1 1206 15 is_stmt 0 view .LVU375
 1350 000a 0269     		ldr	r2, [r0, #16]
1206:Drivers/STM32F4xx_HAL_Driver/Src/stm32f4xx_ll_usb.c ****   
 1351              		.loc 1 1206 3 view .LVU376
 1352 000c 002A     		cmp	r2, #0
 1353 000e F8DA     		bge	.L57
1209:Drivers/STM32F4xx_HAL_Driver/Src/stm32f4xx_ll_usb.c ****   USBx->GRSTCTL |= USB_OTG_GRSTCTL_CSRST;
 1354              		.loc 1 1209 3 is_stmt 1 view .LVU377
 1355              	.LVL105:
1210:Drivers/STM32F4xx_HAL_Driver/Src/stm32f4xx_ll_usb.c **** 
 1356              		.loc 1 1210 3 view .LVU378
1210:Drivers/STM32F4xx_HAL_Driver/Src/stm32f4xx_ll_usb.c **** 
 1357              		.loc 1 1210 17 is_stmt 0 view .LVU379
 1358 0010 0369     		ldr	r3, [r0, #16]
 1359 0012 43F00103 		orr	r3, r3, #1
 1360 0016 0361     		str	r3, [r0, #16]
1209:Drivers/STM32F4xx_HAL_Driver/Src/stm32f4xx_ll_usb.c ****   USBx->GRSTCTL |= USB_OTG_GRSTCTL_CSRST;
 1361              		.loc 1 1209 9 view .LVU380
 1362 0018 0023     		movs	r3, #0
 1363              	.LVL106:
 1364              	.L58:
1212:Drivers/STM32F4xx_HAL_Driver/Src/stm32f4xx_ll_usb.c ****   {
 1365              		.loc 1 1212 3 is_stmt 1 view .LVU381
1214:Drivers/STM32F4xx_HAL_Driver/Src/stm32f4xx_ll_usb.c ****     {
 1366              		.loc 1 1214 5 view .LVU382
1214:Drivers/STM32F4xx_HAL_Driver/Src/stm32f4xx_ll_usb.c ****     {
 1367              		.loc 1 1214 8 is_stmt 0 view .LVU383
ARM GAS  C:\Users\gx\AppData\Local\Temp\ccXSZ03x.s 			page 57


 1368 001a 0133     		adds	r3, r3, #1
 1369              	.LVL107:
1214:Drivers/STM32F4xx_HAL_Driver/Src/stm32f4xx_ll_usb.c ****     {
 1370              		.loc 1 1214 8 view .LVU384
 1371 001c 064A     		ldr	r2, .L61
 1372 001e 9342     		cmp	r3, r2
 1373 0020 07D8     		bhi	.L60
1219:Drivers/STM32F4xx_HAL_Driver/Src/stm32f4xx_ll_usb.c ****   
 1374              		.loc 1 1219 9 is_stmt 1 view .LVU385
1219:Drivers/STM32F4xx_HAL_Driver/Src/stm32f4xx_ll_usb.c ****   
 1375              		.loc 1 1219 15 is_stmt 0 view .LVU386
 1376 0022 0269     		ldr	r2, [r0, #16]
1219:Drivers/STM32F4xx_HAL_Driver/Src/stm32f4xx_ll_usb.c ****   
 1377              		.loc 1 1219 3 view .LVU387
 1378 0024 12F0010F 		tst	r2, #1
 1379 0028 F7D1     		bne	.L58
1221:Drivers/STM32F4xx_HAL_Driver/Src/stm32f4xx_ll_usb.c **** }
 1380              		.loc 1 1221 10 view .LVU388
 1381 002a 0020     		movs	r0, #0
 1382              	.LVL108:
1221:Drivers/STM32F4xx_HAL_Driver/Src/stm32f4xx_ll_usb.c **** }
 1383              		.loc 1 1221 10 view .LVU389
 1384 002c 7047     		bx	lr
 1385              	.LVL109:
 1386              	.L59:
1203:Drivers/STM32F4xx_HAL_Driver/Src/stm32f4xx_ll_usb.c ****     }
 1387              		.loc 1 1203 14 view .LVU390
 1388 002e 0320     		movs	r0, #3
 1389              	.LVL110:
1203:Drivers/STM32F4xx_HAL_Driver/Src/stm32f4xx_ll_usb.c ****     }
 1390              		.loc 1 1203 14 view .LVU391
 1391 0030 7047     		bx	lr
 1392              	.LVL111:
 1393              	.L60:
1216:Drivers/STM32F4xx_HAL_Driver/Src/stm32f4xx_ll_usb.c ****     }
 1394              		.loc 1 1216 14 view .LVU392
 1395 0032 0320     		movs	r0, #3
 1396              	.LVL112:
1222:Drivers/STM32F4xx_HAL_Driver/Src/stm32f4xx_ll_usb.c **** 
 1397              		.loc 1 1222 1 view .LVU393
 1398 0034 7047     		bx	lr
 1399              	.L62:
 1400 0036 00BF     		.align	2
 1401              	.L61:
 1402 0038 400D0300 		.word	200000
 1403              		.cfi_endproc
 1404              	.LFE158:
 1406              		.section	.text.USB_CoreInit,"ax",%progbits
 1407              		.align	1
 1408              		.global	USB_CoreInit
 1409              		.syntax unified
 1410              		.thumb
 1411              		.thumb_func
 1412              		.fpu fpv4-sp-d16
 1414              	USB_CoreInit:
 1415              	.LVL113:
 1416              	.LFB126:
ARM GAS  C:\Users\gx\AppData\Local\Temp\ccXSZ03x.s 			page 58


 104:Drivers/STM32F4xx_HAL_Driver/Src/stm32f4xx_ll_usb.c ****   if (cfg.phy_itface == USB_OTG_ULPI_PHY)
 1417              		.loc 1 104 1 is_stmt 1 view -0
 1418              		.cfi_startproc
 1419              		@ args = 56, pretend = 16, frame = 0
 1420              		@ frame_needed = 0, uses_anonymous_args = 0
 104:Drivers/STM32F4xx_HAL_Driver/Src/stm32f4xx_ll_usb.c ****   if (cfg.phy_itface == USB_OTG_ULPI_PHY)
 1421              		.loc 1 104 1 is_stmt 0 view .LVU395
 1422 0000 84B0     		sub	sp, sp, #16
 1423              	.LCFI28:
 1424              		.cfi_def_cfa_offset 16
 1425 0002 10B5     		push	{r4, lr}
 1426              	.LCFI29:
 1427              		.cfi_def_cfa_offset 24
 1428              		.cfi_offset 4, -24
 1429              		.cfi_offset 14, -20
 1430 0004 0446     		mov	r4, r0
 1431 0006 03A8     		add	r0, sp, #12
 1432              	.LVL114:
 104:Drivers/STM32F4xx_HAL_Driver/Src/stm32f4xx_ll_usb.c ****   if (cfg.phy_itface == USB_OTG_ULPI_PHY)
 1433              		.loc 1 104 1 view .LVU396
 1434 0008 80E80E00 		stm	r0, {r1, r2, r3}
 105:Drivers/STM32F4xx_HAL_Driver/Src/stm32f4xx_ll_usb.c ****   {
 1435              		.loc 1 105 3 is_stmt 1 view .LVU397
 105:Drivers/STM32F4xx_HAL_Driver/Src/stm32f4xx_ll_usb.c ****   {
 1436              		.loc 1 105 10 is_stmt 0 view .LVU398
 1437 000c 089B     		ldr	r3, [sp, #32]
 105:Drivers/STM32F4xx_HAL_Driver/Src/stm32f4xx_ll_usb.c ****   {
 1438              		.loc 1 105 6 view .LVU399
 1439 000e 012B     		cmp	r3, #1
 1440 0010 20D1     		bne	.L64
 108:Drivers/STM32F4xx_HAL_Driver/Src/stm32f4xx_ll_usb.c **** 
 1441              		.loc 1 108 5 is_stmt 1 view .LVU400
 108:Drivers/STM32F4xx_HAL_Driver/Src/stm32f4xx_ll_usb.c **** 
 1442              		.loc 1 108 17 is_stmt 0 view .LVU401
 1443 0012 A36B     		ldr	r3, [r4, #56]
 1444 0014 23F48033 		bic	r3, r3, #65536
 1445 0018 A363     		str	r3, [r4, #56]
 111:Drivers/STM32F4xx_HAL_Driver/Src/stm32f4xx_ll_usb.c ****    
 1446              		.loc 1 111 5 is_stmt 1 view .LVU402
 111:Drivers/STM32F4xx_HAL_Driver/Src/stm32f4xx_ll_usb.c ****    
 1447              		.loc 1 111 19 is_stmt 0 view .LVU403
 1448 001a E368     		ldr	r3, [r4, #12]
 1449 001c 23F48403 		bic	r3, r3, #4325376
 1450 0020 23F04003 		bic	r3, r3, #64
 1451 0024 E360     		str	r3, [r4, #12]
 114:Drivers/STM32F4xx_HAL_Driver/Src/stm32f4xx_ll_usb.c ****     if(cfg.use_external_vbus == 1U)
 1452              		.loc 1 114 5 is_stmt 1 view .LVU404
 114:Drivers/STM32F4xx_HAL_Driver/Src/stm32f4xx_ll_usb.c ****     if(cfg.use_external_vbus == 1U)
 1453              		.loc 1 114 19 is_stmt 0 view .LVU405
 1454 0026 E368     		ldr	r3, [r4, #12]
 1455 0028 23F44013 		bic	r3, r3, #3145728
 1456 002c E360     		str	r3, [r4, #12]
 115:Drivers/STM32F4xx_HAL_Driver/Src/stm32f4xx_ll_usb.c ****     {
 1457              		.loc 1 115 5 is_stmt 1 view .LVU406
 115:Drivers/STM32F4xx_HAL_Driver/Src/stm32f4xx_ll_usb.c ****     {
 1458              		.loc 1 115 11 is_stmt 0 view .LVU407
 1459 002e 0F9B     		ldr	r3, [sp, #60]
ARM GAS  C:\Users\gx\AppData\Local\Temp\ccXSZ03x.s 			page 59


 115:Drivers/STM32F4xx_HAL_Driver/Src/stm32f4xx_ll_usb.c ****     {
 1460              		.loc 1 115 7 view .LVU408
 1461 0030 012B     		cmp	r3, #1
 1462 0032 0AD0     		beq	.L69
 1463              	.L65:
 120:Drivers/STM32F4xx_HAL_Driver/Src/stm32f4xx_ll_usb.c ****   }
 1464              		.loc 1 120 5 is_stmt 1 view .LVU409
 1465 0034 2046     		mov	r0, r4
 1466 0036 FFF7FEFF 		bl	USB_CoreReset
 1467              	.LVL115:
 1468              	.L66:
 134:Drivers/STM32F4xx_HAL_Driver/Src/stm32f4xx_ll_usb.c ****   {
 1469              		.loc 1 134 3 view .LVU410
 134:Drivers/STM32F4xx_HAL_Driver/Src/stm32f4xx_ll_usb.c ****   {
 1470              		.loc 1 134 9 is_stmt 0 view .LVU411
 1471 003a 069B     		ldr	r3, [sp, #24]
 134:Drivers/STM32F4xx_HAL_Driver/Src/stm32f4xx_ll_usb.c ****   {
 1472              		.loc 1 134 5 view .LVU412
 1473 003c 012B     		cmp	r3, #1
 1474 003e 14D0     		beq	.L70
 1475              	.L67:
 140:Drivers/STM32F4xx_HAL_Driver/Src/stm32f4xx_ll_usb.c **** }
 1476              		.loc 1 140 3 is_stmt 1 view .LVU413
 141:Drivers/STM32F4xx_HAL_Driver/Src/stm32f4xx_ll_usb.c **** 
 1477              		.loc 1 141 1 is_stmt 0 view .LVU414
 1478 0040 0020     		movs	r0, #0
 1479 0042 BDE81040 		pop	{r4, lr}
 1480              	.LCFI30:
 1481              		.cfi_remember_state
 1482              		.cfi_restore 14
 1483              		.cfi_restore 4
 1484              		.cfi_def_cfa_offset 16
 1485              	.LVL116:
 141:Drivers/STM32F4xx_HAL_Driver/Src/stm32f4xx_ll_usb.c **** 
 1486              		.loc 1 141 1 view .LVU415
 1487 0046 04B0     		add	sp, sp, #16
 1488              	.LCFI31:
 1489              		.cfi_def_cfa_offset 0
 1490 0048 7047     		bx	lr
 1491              	.LVL117:
 1492              	.L69:
 1493              	.LCFI32:
 1494              		.cfi_restore_state
 117:Drivers/STM32F4xx_HAL_Driver/Src/stm32f4xx_ll_usb.c ****     }
 1495              		.loc 1 117 7 is_stmt 1 view .LVU416
 117:Drivers/STM32F4xx_HAL_Driver/Src/stm32f4xx_ll_usb.c ****     }
 1496              		.loc 1 117 21 is_stmt 0 view .LVU417
 1497 004a E368     		ldr	r3, [r4, #12]
 1498 004c 43F48013 		orr	r3, r3, #1048576
 1499 0050 E360     		str	r3, [r4, #12]
 1500 0052 EFE7     		b	.L65
 1501              	.L64:
 125:Drivers/STM32F4xx_HAL_Driver/Src/stm32f4xx_ll_usb.c ****     
 1502              		.loc 1 125 5 is_stmt 1 view .LVU418
 125:Drivers/STM32F4xx_HAL_Driver/Src/stm32f4xx_ll_usb.c ****     
 1503              		.loc 1 125 19 is_stmt 0 view .LVU419
 1504 0054 E368     		ldr	r3, [r4, #12]
ARM GAS  C:\Users\gx\AppData\Local\Temp\ccXSZ03x.s 			page 60


 1505 0056 43F04003 		orr	r3, r3, #64
 1506 005a E360     		str	r3, [r4, #12]
 128:Drivers/STM32F4xx_HAL_Driver/Src/stm32f4xx_ll_usb.c ****     
 1507              		.loc 1 128 5 is_stmt 1 view .LVU420
 1508 005c 2046     		mov	r0, r4
 1509 005e FFF7FEFF 		bl	USB_CoreReset
 1510              	.LVL118:
 131:Drivers/STM32F4xx_HAL_Driver/Src/stm32f4xx_ll_usb.c ****   }
 1511              		.loc 1 131 5 view .LVU421
 131:Drivers/STM32F4xx_HAL_Driver/Src/stm32f4xx_ll_usb.c ****   }
 1512              		.loc 1 131 17 is_stmt 0 view .LVU422
 1513 0062 4FF48033 		mov	r3, #65536
 1514 0066 A363     		str	r3, [r4, #56]
 1515 0068 E7E7     		b	.L66
 1516              	.L70:
 136:Drivers/STM32F4xx_HAL_Driver/Src/stm32f4xx_ll_usb.c ****     USBx->GAHBCFG |= USB_OTG_GAHBCFG_DMAEN;
 1517              		.loc 1 136 5 is_stmt 1 view .LVU423
 136:Drivers/STM32F4xx_HAL_Driver/Src/stm32f4xx_ll_usb.c ****     USBx->GAHBCFG |= USB_OTG_GAHBCFG_DMAEN;
 1518              		.loc 1 136 19 is_stmt 0 view .LVU424
 1519 006a A368     		ldr	r3, [r4, #8]
 1520 006c 43F00603 		orr	r3, r3, #6
 1521 0070 A360     		str	r3, [r4, #8]
 137:Drivers/STM32F4xx_HAL_Driver/Src/stm32f4xx_ll_usb.c ****   }  
 1522              		.loc 1 137 5 is_stmt 1 view .LVU425
 137:Drivers/STM32F4xx_HAL_Driver/Src/stm32f4xx_ll_usb.c ****   }  
 1523              		.loc 1 137 19 is_stmt 0 view .LVU426
 1524 0072 A368     		ldr	r3, [r4, #8]
 1525 0074 43F02003 		orr	r3, r3, #32
 1526 0078 A360     		str	r3, [r4, #8]
 1527 007a E1E7     		b	.L67
 1528              		.cfi_endproc
 1529              	.LFE126:
 1531              		.section	.text.USB_EnableGlobalInt,"ax",%progbits
 1532              		.align	1
 1533              		.global	USB_EnableGlobalInt
 1534              		.syntax unified
 1535              		.thumb
 1536              		.thumb_func
 1537              		.fpu fpv4-sp-d16
 1539              	USB_EnableGlobalInt:
 1540              	.LVL119:
 1541              	.LFB127:
 150:Drivers/STM32F4xx_HAL_Driver/Src/stm32f4xx_ll_usb.c ****   USBx->GAHBCFG |= USB_OTG_GAHBCFG_GINT;
 1542              		.loc 1 150 1 is_stmt 1 view -0
 1543              		.cfi_startproc
 1544              		@ args = 0, pretend = 0, frame = 0
 1545              		@ frame_needed = 0, uses_anonymous_args = 0
 1546              		@ link register save eliminated.
 151:Drivers/STM32F4xx_HAL_Driver/Src/stm32f4xx_ll_usb.c ****   return HAL_OK;
 1547              		.loc 1 151 3 view .LVU428
 151:Drivers/STM32F4xx_HAL_Driver/Src/stm32f4xx_ll_usb.c ****   return HAL_OK;
 1548              		.loc 1 151 17 is_stmt 0 view .LVU429
 1549 0000 8368     		ldr	r3, [r0, #8]
 1550 0002 43F00103 		orr	r3, r3, #1
 1551 0006 8360     		str	r3, [r0, #8]
 152:Drivers/STM32F4xx_HAL_Driver/Src/stm32f4xx_ll_usb.c **** }
 1552              		.loc 1 152 3 is_stmt 1 view .LVU430
ARM GAS  C:\Users\gx\AppData\Local\Temp\ccXSZ03x.s 			page 61


 153:Drivers/STM32F4xx_HAL_Driver/Src/stm32f4xx_ll_usb.c **** 
 1553              		.loc 1 153 1 is_stmt 0 view .LVU431
 1554 0008 0020     		movs	r0, #0
 1555              	.LVL120:
 153:Drivers/STM32F4xx_HAL_Driver/Src/stm32f4xx_ll_usb.c **** 
 1556              		.loc 1 153 1 view .LVU432
 1557 000a 7047     		bx	lr
 1558              		.cfi_endproc
 1559              	.LFE127:
 1561              		.section	.text.USB_DisableGlobalInt,"ax",%progbits
 1562              		.align	1
 1563              		.global	USB_DisableGlobalInt
 1564              		.syntax unified
 1565              		.thumb
 1566              		.thumb_func
 1567              		.fpu fpv4-sp-d16
 1569              	USB_DisableGlobalInt:
 1570              	.LVL121:
 1571              	.LFB128:
 163:Drivers/STM32F4xx_HAL_Driver/Src/stm32f4xx_ll_usb.c ****   USBx->GAHBCFG &= ~USB_OTG_GAHBCFG_GINT;
 1572              		.loc 1 163 1 is_stmt 1 view -0
 1573              		.cfi_startproc
 1574              		@ args = 0, pretend = 0, frame = 0
 1575              		@ frame_needed = 0, uses_anonymous_args = 0
 1576              		@ link register save eliminated.
 164:Drivers/STM32F4xx_HAL_Driver/Src/stm32f4xx_ll_usb.c ****   return HAL_OK;
 1577              		.loc 1 164 3 view .LVU434
 164:Drivers/STM32F4xx_HAL_Driver/Src/stm32f4xx_ll_usb.c ****   return HAL_OK;
 1578              		.loc 1 164 17 is_stmt 0 view .LVU435
 1579 0000 8368     		ldr	r3, [r0, #8]
 1580 0002 23F00103 		bic	r3, r3, #1
 1581 0006 8360     		str	r3, [r0, #8]
 165:Drivers/STM32F4xx_HAL_Driver/Src/stm32f4xx_ll_usb.c **** }
 1582              		.loc 1 165 3 is_stmt 1 view .LVU436
 166:Drivers/STM32F4xx_HAL_Driver/Src/stm32f4xx_ll_usb.c ****    
 1583              		.loc 1 166 1 is_stmt 0 view .LVU437
 1584 0008 0020     		movs	r0, #0
 1585              	.LVL122:
 166:Drivers/STM32F4xx_HAL_Driver/Src/stm32f4xx_ll_usb.c ****    
 1586              		.loc 1 166 1 view .LVU438
 1587 000a 7047     		bx	lr
 1588              		.cfi_endproc
 1589              	.LFE128:
 1591              		.section	.text.USB_SetCurrentMode,"ax",%progbits
 1592              		.align	1
 1593              		.global	USB_SetCurrentMode
 1594              		.syntax unified
 1595              		.thumb
 1596              		.thumb_func
 1597              		.fpu fpv4-sp-d16
 1599              	USB_SetCurrentMode:
 1600              	.LVL123:
 1601              	.LFB129:
 179:Drivers/STM32F4xx_HAL_Driver/Src/stm32f4xx_ll_usb.c ****   USBx->GUSBCFG &= ~(USB_OTG_GUSBCFG_FHMOD | USB_OTG_GUSBCFG_FDMOD); 
 1602              		.loc 1 179 1 is_stmt 1 view -0
 1603              		.cfi_startproc
 1604              		@ args = 0, pretend = 0, frame = 0
ARM GAS  C:\Users\gx\AppData\Local\Temp\ccXSZ03x.s 			page 62


 1605              		@ frame_needed = 0, uses_anonymous_args = 0
 179:Drivers/STM32F4xx_HAL_Driver/Src/stm32f4xx_ll_usb.c ****   USBx->GUSBCFG &= ~(USB_OTG_GUSBCFG_FHMOD | USB_OTG_GUSBCFG_FDMOD); 
 1606              		.loc 1 179 1 is_stmt 0 view .LVU440
 1607 0000 08B5     		push	{r3, lr}
 1608              	.LCFI33:
 1609              		.cfi_def_cfa_offset 8
 1610              		.cfi_offset 3, -8
 1611              		.cfi_offset 14, -4
 180:Drivers/STM32F4xx_HAL_Driver/Src/stm32f4xx_ll_usb.c ****   
 1612              		.loc 1 180 3 is_stmt 1 view .LVU441
 180:Drivers/STM32F4xx_HAL_Driver/Src/stm32f4xx_ll_usb.c ****   
 1613              		.loc 1 180 17 is_stmt 0 view .LVU442
 1614 0002 C368     		ldr	r3, [r0, #12]
 1615 0004 23F0C043 		bic	r3, r3, #1610612736
 1616 0008 C360     		str	r3, [r0, #12]
 182:Drivers/STM32F4xx_HAL_Driver/Src/stm32f4xx_ll_usb.c ****   {
 1617              		.loc 1 182 3 is_stmt 1 view .LVU443
 182:Drivers/STM32F4xx_HAL_Driver/Src/stm32f4xx_ll_usb.c ****   {
 1618              		.loc 1 182 6 is_stmt 0 view .LVU444
 1619 000a 0129     		cmp	r1, #1
 1620 000c 05D0     		beq	.L77
 186:Drivers/STM32F4xx_HAL_Driver/Src/stm32f4xx_ll_usb.c ****   {
 1621              		.loc 1 186 8 is_stmt 1 view .LVU445
 186:Drivers/STM32F4xx_HAL_Driver/Src/stm32f4xx_ll_usb.c ****   {
 1622              		.loc 1 186 11 is_stmt 0 view .LVU446
 1623 000e 41B9     		cbnz	r1, .L75
 188:Drivers/STM32F4xx_HAL_Driver/Src/stm32f4xx_ll_usb.c ****   }
 1624              		.loc 1 188 5 is_stmt 1 view .LVU447
 188:Drivers/STM32F4xx_HAL_Driver/Src/stm32f4xx_ll_usb.c ****   }
 1625              		.loc 1 188 19 is_stmt 0 view .LVU448
 1626 0010 C368     		ldr	r3, [r0, #12]
 1627 0012 43F08043 		orr	r3, r3, #1073741824
 1628 0016 C360     		str	r3, [r0, #12]
 1629 0018 03E0     		b	.L75
 1630              	.L77:
 184:Drivers/STM32F4xx_HAL_Driver/Src/stm32f4xx_ll_usb.c ****   }
 1631              		.loc 1 184 5 is_stmt 1 view .LVU449
 184:Drivers/STM32F4xx_HAL_Driver/Src/stm32f4xx_ll_usb.c ****   }
 1632              		.loc 1 184 19 is_stmt 0 view .LVU450
 1633 001a C368     		ldr	r3, [r0, #12]
 1634 001c 43F00053 		orr	r3, r3, #536870912
 1635 0020 C360     		str	r3, [r0, #12]
 1636              	.L75:
 190:Drivers/STM32F4xx_HAL_Driver/Src/stm32f4xx_ll_usb.c ****   
 1637              		.loc 1 190 3 is_stmt 1 view .LVU451
 1638 0022 3220     		movs	r0, #50
 1639              	.LVL124:
 190:Drivers/STM32F4xx_HAL_Driver/Src/stm32f4xx_ll_usb.c ****   
 1640              		.loc 1 190 3 is_stmt 0 view .LVU452
 1641 0024 FFF7FEFF 		bl	HAL_Delay
 1642              	.LVL125:
 192:Drivers/STM32F4xx_HAL_Driver/Src/stm32f4xx_ll_usb.c **** }
 1643              		.loc 1 192 3 is_stmt 1 view .LVU453
 193:Drivers/STM32F4xx_HAL_Driver/Src/stm32f4xx_ll_usb.c **** 
 1644              		.loc 1 193 1 is_stmt 0 view .LVU454
 1645 0028 0020     		movs	r0, #0
 1646 002a 08BD     		pop	{r3, pc}
ARM GAS  C:\Users\gx\AppData\Local\Temp\ccXSZ03x.s 			page 63


 1647              		.cfi_endproc
 1648              	.LFE129:
 1650              		.section	.text.USB_FlushTxFifo,"ax",%progbits
 1651              		.align	1
 1652              		.global	USB_FlushTxFifo
 1653              		.syntax unified
 1654              		.thumb
 1655              		.thumb_func
 1656              		.fpu fpv4-sp-d16
 1658              	USB_FlushTxFifo:
 1659              	.LVL126:
 1660              	.LFB131:
 350:Drivers/STM32F4xx_HAL_Driver/Src/stm32f4xx_ll_usb.c ****   uint32_t count = 0;
 1661              		.loc 1 350 1 is_stmt 1 view -0
 1662              		.cfi_startproc
 1663              		@ args = 0, pretend = 0, frame = 0
 1664              		@ frame_needed = 0, uses_anonymous_args = 0
 1665              		@ link register save eliminated.
 351:Drivers/STM32F4xx_HAL_Driver/Src/stm32f4xx_ll_usb.c ****   
 1666              		.loc 1 351 3 view .LVU456
 353:Drivers/STM32F4xx_HAL_Driver/Src/stm32f4xx_ll_usb.c ****   
 1667              		.loc 1 353 3 view .LVU457
 353:Drivers/STM32F4xx_HAL_Driver/Src/stm32f4xx_ll_usb.c ****   
 1668              		.loc 1 353 62 is_stmt 0 view .LVU458
 1669 0000 8901     		lsls	r1, r1, #6
 1670              	.LVL127:
 353:Drivers/STM32F4xx_HAL_Driver/Src/stm32f4xx_ll_usb.c ****   
 1671              		.loc 1 353 45 view .LVU459
 1672 0002 41F02001 		orr	r1, r1, #32
 353:Drivers/STM32F4xx_HAL_Driver/Src/stm32f4xx_ll_usb.c ****   
 1673              		.loc 1 353 17 view .LVU460
 1674 0006 0161     		str	r1, [r0, #16]
 351:Drivers/STM32F4xx_HAL_Driver/Src/stm32f4xx_ll_usb.c ****   
 1675              		.loc 1 351 12 view .LVU461
 1676 0008 0023     		movs	r3, #0
 1677              	.LVL128:
 1678              	.L80:
 355:Drivers/STM32F4xx_HAL_Driver/Src/stm32f4xx_ll_usb.c ****   {
 1679              		.loc 1 355 3 is_stmt 1 view .LVU462
 357:Drivers/STM32F4xx_HAL_Driver/Src/stm32f4xx_ll_usb.c ****     {
 1680              		.loc 1 357 5 view .LVU463
 357:Drivers/STM32F4xx_HAL_Driver/Src/stm32f4xx_ll_usb.c ****     {
 1681              		.loc 1 357 8 is_stmt 0 view .LVU464
 1682 000a 0133     		adds	r3, r3, #1
 1683              	.LVL129:
 357:Drivers/STM32F4xx_HAL_Driver/Src/stm32f4xx_ll_usb.c ****     {
 1684              		.loc 1 357 8 view .LVU465
 1685 000c 054A     		ldr	r2, .L82
 1686 000e 9342     		cmp	r3, r2
 1687 0010 05D8     		bhi	.L81
 362:Drivers/STM32F4xx_HAL_Driver/Src/stm32f4xx_ll_usb.c ****   
 1688              		.loc 1 362 9 is_stmt 1 view .LVU466
 362:Drivers/STM32F4xx_HAL_Driver/Src/stm32f4xx_ll_usb.c ****   
 1689              		.loc 1 362 15 is_stmt 0 view .LVU467
 1690 0012 0269     		ldr	r2, [r0, #16]
 362:Drivers/STM32F4xx_HAL_Driver/Src/stm32f4xx_ll_usb.c ****   
 1691              		.loc 1 362 3 view .LVU468
ARM GAS  C:\Users\gx\AppData\Local\Temp\ccXSZ03x.s 			page 64


 1692 0014 12F0200F 		tst	r2, #32
 1693 0018 F7D1     		bne	.L80
 364:Drivers/STM32F4xx_HAL_Driver/Src/stm32f4xx_ll_usb.c **** }
 1694              		.loc 1 364 10 view .LVU469
 1695 001a 0020     		movs	r0, #0
 1696              	.LVL130:
 364:Drivers/STM32F4xx_HAL_Driver/Src/stm32f4xx_ll_usb.c **** }
 1697              		.loc 1 364 10 view .LVU470
 1698 001c 7047     		bx	lr
 1699              	.LVL131:
 1700              	.L81:
 359:Drivers/STM32F4xx_HAL_Driver/Src/stm32f4xx_ll_usb.c ****     }
 1701              		.loc 1 359 14 view .LVU471
 1702 001e 0320     		movs	r0, #3
 1703              	.LVL132:
 365:Drivers/STM32F4xx_HAL_Driver/Src/stm32f4xx_ll_usb.c **** 
 1704              		.loc 1 365 1 view .LVU472
 1705 0020 7047     		bx	lr
 1706              	.L83:
 1707 0022 00BF     		.align	2
 1708              	.L82:
 1709 0024 400D0300 		.word	200000
 1710              		.cfi_endproc
 1711              	.LFE131:
 1713              		.section	.text.USB_FlushRxFifo,"ax",%progbits
 1714              		.align	1
 1715              		.global	USB_FlushRxFifo
 1716              		.syntax unified
 1717              		.thumb
 1718              		.thumb_func
 1719              		.fpu fpv4-sp-d16
 1721              	USB_FlushRxFifo:
 1722              	.LVL133:
 1723              	.LFB132:
 374:Drivers/STM32F4xx_HAL_Driver/Src/stm32f4xx_ll_usb.c ****   uint32_t count = 0;
 1724              		.loc 1 374 1 is_stmt 1 view -0
 1725              		.cfi_startproc
 1726              		@ args = 0, pretend = 0, frame = 0
 1727              		@ frame_needed = 0, uses_anonymous_args = 0
 1728              		@ link register save eliminated.
 375:Drivers/STM32F4xx_HAL_Driver/Src/stm32f4xx_ll_usb.c ****   
 1729              		.loc 1 375 3 view .LVU474
 377:Drivers/STM32F4xx_HAL_Driver/Src/stm32f4xx_ll_usb.c ****   
 1730              		.loc 1 377 3 view .LVU475
 377:Drivers/STM32F4xx_HAL_Driver/Src/stm32f4xx_ll_usb.c ****   
 1731              		.loc 1 377 17 is_stmt 0 view .LVU476
 1732 0000 1023     		movs	r3, #16
 1733 0002 0361     		str	r3, [r0, #16]
 375:Drivers/STM32F4xx_HAL_Driver/Src/stm32f4xx_ll_usb.c ****   
 1734              		.loc 1 375 12 view .LVU477
 1735 0004 0023     		movs	r3, #0
 1736              	.LVL134:
 1737              	.L86:
 379:Drivers/STM32F4xx_HAL_Driver/Src/stm32f4xx_ll_usb.c ****   {
 1738              		.loc 1 379 3 is_stmt 1 view .LVU478
 381:Drivers/STM32F4xx_HAL_Driver/Src/stm32f4xx_ll_usb.c ****     {
 1739              		.loc 1 381 5 view .LVU479
ARM GAS  C:\Users\gx\AppData\Local\Temp\ccXSZ03x.s 			page 65


 381:Drivers/STM32F4xx_HAL_Driver/Src/stm32f4xx_ll_usb.c ****     {
 1740              		.loc 1 381 8 is_stmt 0 view .LVU480
 1741 0006 0133     		adds	r3, r3, #1
 1742              	.LVL135:
 381:Drivers/STM32F4xx_HAL_Driver/Src/stm32f4xx_ll_usb.c ****     {
 1743              		.loc 1 381 8 view .LVU481
 1744 0008 054A     		ldr	r2, .L88
 1745 000a 9342     		cmp	r3, r2
 1746 000c 05D8     		bhi	.L87
 386:Drivers/STM32F4xx_HAL_Driver/Src/stm32f4xx_ll_usb.c ****   
 1747              		.loc 1 386 9 is_stmt 1 view .LVU482
 386:Drivers/STM32F4xx_HAL_Driver/Src/stm32f4xx_ll_usb.c ****   
 1748              		.loc 1 386 15 is_stmt 0 view .LVU483
 1749 000e 0269     		ldr	r2, [r0, #16]
 386:Drivers/STM32F4xx_HAL_Driver/Src/stm32f4xx_ll_usb.c ****   
 1750              		.loc 1 386 3 view .LVU484
 1751 0010 12F0100F 		tst	r2, #16
 1752 0014 F7D1     		bne	.L86
 388:Drivers/STM32F4xx_HAL_Driver/Src/stm32f4xx_ll_usb.c **** }
 1753              		.loc 1 388 10 view .LVU485
 1754 0016 0020     		movs	r0, #0
 1755              	.LVL136:
 388:Drivers/STM32F4xx_HAL_Driver/Src/stm32f4xx_ll_usb.c **** }
 1756              		.loc 1 388 10 view .LVU486
 1757 0018 7047     		bx	lr
 1758              	.LVL137:
 1759              	.L87:
 383:Drivers/STM32F4xx_HAL_Driver/Src/stm32f4xx_ll_usb.c ****     }
 1760              		.loc 1 383 14 view .LVU487
 1761 001a 0320     		movs	r0, #3
 1762              	.LVL138:
 389:Drivers/STM32F4xx_HAL_Driver/Src/stm32f4xx_ll_usb.c **** 
 1763              		.loc 1 389 1 view .LVU488
 1764 001c 7047     		bx	lr
 1765              	.L89:
 1766 001e 00BF     		.align	2
 1767              	.L88:
 1768 0020 400D0300 		.word	200000
 1769              		.cfi_endproc
 1770              	.LFE132:
 1772              		.section	.text.USB_SetDevSpeed,"ax",%progbits
 1773              		.align	1
 1774              		.global	USB_SetDevSpeed
 1775              		.syntax unified
 1776              		.thumb
 1777              		.thumb_func
 1778              		.fpu fpv4-sp-d16
 1780              	USB_SetDevSpeed:
 1781              	.LVL139:
 1782              	.LFB133:
 404:Drivers/STM32F4xx_HAL_Driver/Src/stm32f4xx_ll_usb.c ****   USBx_DEVICE->DCFG |= speed;
 1783              		.loc 1 404 1 is_stmt 1 view -0
 1784              		.cfi_startproc
 1785              		@ args = 0, pretend = 0, frame = 0
 1786              		@ frame_needed = 0, uses_anonymous_args = 0
 1787              		@ link register save eliminated.
 405:Drivers/STM32F4xx_HAL_Driver/Src/stm32f4xx_ll_usb.c ****   return HAL_OK;
ARM GAS  C:\Users\gx\AppData\Local\Temp\ccXSZ03x.s 			page 66


 1788              		.loc 1 405 3 view .LVU490
 405:Drivers/STM32F4xx_HAL_Driver/Src/stm32f4xx_ll_usb.c ****   return HAL_OK;
 1789              		.loc 1 405 21 is_stmt 0 view .LVU491
 1790 0000 D0F80038 		ldr	r3, [r0, #2048]
 1791 0004 1943     		orrs	r1, r1, r3
 1792              	.LVL140:
 405:Drivers/STM32F4xx_HAL_Driver/Src/stm32f4xx_ll_usb.c ****   return HAL_OK;
 1793              		.loc 1 405 21 view .LVU492
 1794 0006 C0F80018 		str	r1, [r0, #2048]
 406:Drivers/STM32F4xx_HAL_Driver/Src/stm32f4xx_ll_usb.c **** }
 1795              		.loc 1 406 3 is_stmt 1 view .LVU493
 407:Drivers/STM32F4xx_HAL_Driver/Src/stm32f4xx_ll_usb.c **** 
 1796              		.loc 1 407 1 is_stmt 0 view .LVU494
 1797 000a 0020     		movs	r0, #0
 1798              	.LVL141:
 407:Drivers/STM32F4xx_HAL_Driver/Src/stm32f4xx_ll_usb.c **** 
 1799              		.loc 1 407 1 view .LVU495
 1800 000c 7047     		bx	lr
 1801              		.cfi_endproc
 1802              	.LFE133:
 1804              		.section	.text.USB_DevInit,"ax",%progbits
 1805              		.align	1
 1806              		.global	USB_DevInit
 1807              		.syntax unified
 1808              		.thumb
 1809              		.thumb_func
 1810              		.fpu fpv4-sp-d16
 1812              	USB_DevInit:
 1813              	.LVL142:
 1814              	.LFB130:
 204:Drivers/STM32F4xx_HAL_Driver/Src/stm32f4xx_ll_usb.c ****   uint32_t i = 0U;
 1815              		.loc 1 204 1 is_stmt 1 view -0
 1816              		.cfi_startproc
 1817              		@ args = 56, pretend = 16, frame = 0
 1818              		@ frame_needed = 0, uses_anonymous_args = 0
 204:Drivers/STM32F4xx_HAL_Driver/Src/stm32f4xx_ll_usb.c ****   uint32_t i = 0U;
 1819              		.loc 1 204 1 is_stmt 0 view .LVU497
 1820 0000 84B0     		sub	sp, sp, #16
 1821              	.LCFI34:
 1822              		.cfi_def_cfa_offset 16
 1823 0002 2DE97841 		push	{r3, r4, r5, r6, r8, lr}
 1824              	.LCFI35:
 1825              		.cfi_def_cfa_offset 40
 1826              		.cfi_offset 3, -40
 1827              		.cfi_offset 4, -36
 1828              		.cfi_offset 5, -32
 1829              		.cfi_offset 6, -28
 1830              		.cfi_offset 8, -24
 1831              		.cfi_offset 14, -20
 1832 0006 0446     		mov	r4, r0
 1833 0008 07A8     		add	r0, sp, #28
 1834              	.LVL143:
 204:Drivers/STM32F4xx_HAL_Driver/Src/stm32f4xx_ll_usb.c ****   uint32_t i = 0U;
 1835              		.loc 1 204 1 view .LVU498
 1836 000a 80E80E00 		stm	r0, {r1, r2, r3}
 205:Drivers/STM32F4xx_HAL_Driver/Src/stm32f4xx_ll_usb.c **** 
 1837              		.loc 1 205 3 is_stmt 1 view .LVU499
ARM GAS  C:\Users\gx\AppData\Local\Temp\ccXSZ03x.s 			page 67


 1838              	.LVL144:
 222:Drivers/STM32F4xx_HAL_Driver/Src/stm32f4xx_ll_usb.c ****   {
 1839              		.loc 1 222 3 view .LVU500
 222:Drivers/STM32F4xx_HAL_Driver/Src/stm32f4xx_ll_usb.c ****   {
 1840              		.loc 1 222 10 is_stmt 0 view .LVU501
 1841 000e DDF84480 		ldr	r8, [sp, #68]
 222:Drivers/STM32F4xx_HAL_Driver/Src/stm32f4xx_ll_usb.c ****   {
 1842              		.loc 1 222 6 view .LVU502
 1843 0012 B8F1000F 		cmp	r8, #0
 1844 0016 17D1     		bne	.L92
 224:Drivers/STM32F4xx_HAL_Driver/Src/stm32f4xx_ll_usb.c ****   }
 1845              		.loc 1 224 5 is_stmt 1 view .LVU503
 224:Drivers/STM32F4xx_HAL_Driver/Src/stm32f4xx_ll_usb.c ****   }
 1846              		.loc 1 224 17 is_stmt 0 view .LVU504
 1847 0018 A36B     		ldr	r3, [r4, #56]
 1848 001a 43F40013 		orr	r3, r3, #2097152
 1849 001e A363     		str	r3, [r4, #56]
 1850              	.L93:
 234:Drivers/STM32F4xx_HAL_Driver/Src/stm32f4xx_ll_usb.c ****   
 1851              		.loc 1 234 3 is_stmt 1 view .LVU505
 1852 0020 2546     		mov	r5, r4
 234:Drivers/STM32F4xx_HAL_Driver/Src/stm32f4xx_ll_usb.c ****   
 1853              		.loc 1 234 16 is_stmt 0 view .LVU506
 1854 0022 0023     		movs	r3, #0
 1855 0024 C4F8003E 		str	r3, [r4, #3584]
 237:Drivers/STM32F4xx_HAL_Driver/Src/stm32f4xx_ll_usb.c ****   
 1856              		.loc 1 237 3 is_stmt 1 view .LVU507
 237:Drivers/STM32F4xx_HAL_Driver/Src/stm32f4xx_ll_usb.c ****   
 1857              		.loc 1 237 21 is_stmt 0 view .LVU508
 1858 0028 04F50066 		add	r6, r4, #2048
 1859 002c D4F80038 		ldr	r3, [r4, #2048]
 1860 0030 C4F80038 		str	r3, [r4, #2048]
 239:Drivers/STM32F4xx_HAL_Driver/Src/stm32f4xx_ll_usb.c ****   {
 1861              		.loc 1 239 3 is_stmt 1 view .LVU509
 239:Drivers/STM32F4xx_HAL_Driver/Src/stm32f4xx_ll_usb.c ****   {
 1862              		.loc 1 239 9 is_stmt 0 view .LVU510
 1863 0034 0C9B     		ldr	r3, [sp, #48]
 239:Drivers/STM32F4xx_HAL_Driver/Src/stm32f4xx_ll_usb.c ****   {
 1864              		.loc 1 239 5 view .LVU511
 1865 0036 012B     		cmp	r3, #1
 1866 0038 10D1     		bne	.L94
 241:Drivers/STM32F4xx_HAL_Driver/Src/stm32f4xx_ll_usb.c ****     {      
 1867              		.loc 1 241 5 is_stmt 1 view .LVU512
 241:Drivers/STM32F4xx_HAL_Driver/Src/stm32f4xx_ll_usb.c ****     {      
 1868              		.loc 1 241 11 is_stmt 0 view .LVU513
 1869 003a 099B     		ldr	r3, [sp, #36]
 241:Drivers/STM32F4xx_HAL_Driver/Src/stm32f4xx_ll_usb.c ****     {      
 1870              		.loc 1 241 7 view .LVU514
 1871 003c 4BB9     		cbnz	r3, .L95
 244:Drivers/STM32F4xx_HAL_Driver/Src/stm32f4xx_ll_usb.c ****     }
 1872              		.loc 1 244 7 is_stmt 1 view .LVU515
 1873 003e 0021     		movs	r1, #0
 1874 0040 2046     		mov	r0, r4
 1875 0042 FFF7FEFF 		bl	USB_SetDevSpeed
 1876              	.LVL145:
 1877 0046 0DE0     		b	.L96
 1878              	.L92:
ARM GAS  C:\Users\gx\AppData\Local\Temp\ccXSZ03x.s 			page 68


 229:Drivers/STM32F4xx_HAL_Driver/Src/stm32f4xx_ll_usb.c ****   }
 1879              		.loc 1 229 5 view .LVU516
 229:Drivers/STM32F4xx_HAL_Driver/Src/stm32f4xx_ll_usb.c ****   }
 1880              		.loc 1 229 17 is_stmt 0 view .LVU517
 1881 0048 A36B     		ldr	r3, [r4, #56]
 1882 004a 43F40023 		orr	r3, r3, #524288
 1883 004e A363     		str	r3, [r4, #56]
 1884 0050 E6E7     		b	.L93
 1885              	.L95:
 249:Drivers/STM32F4xx_HAL_Driver/Src/stm32f4xx_ll_usb.c ****     }
 1886              		.loc 1 249 7 is_stmt 1 view .LVU518
 1887 0052 0121     		movs	r1, #1
 1888 0054 2046     		mov	r0, r4
 1889 0056 FFF7FEFF 		bl	USB_SetDevSpeed
 1890              	.LVL146:
 1891 005a 03E0     		b	.L96
 1892              	.L94:
 255:Drivers/STM32F4xx_HAL_Driver/Src/stm32f4xx_ll_usb.c ****   }
 1893              		.loc 1 255 5 view .LVU519
 1894 005c 0321     		movs	r1, #3
 1895 005e 2046     		mov	r0, r4
 1896 0060 FFF7FEFF 		bl	USB_SetDevSpeed
 1897              	.LVL147:
 1898              	.L96:
 259:Drivers/STM32F4xx_HAL_Driver/Src/stm32f4xx_ll_usb.c ****   USB_FlushRxFifo(USBx);
 1899              		.loc 1 259 3 view .LVU520
 1900 0064 1021     		movs	r1, #16
 1901 0066 2046     		mov	r0, r4
 1902 0068 FFF7FEFF 		bl	USB_FlushTxFifo
 1903              	.LVL148:
 260:Drivers/STM32F4xx_HAL_Driver/Src/stm32f4xx_ll_usb.c ****   
 1904              		.loc 1 260 3 view .LVU521
 1905 006c 2046     		mov	r0, r4
 1906 006e FFF7FEFF 		bl	USB_FlushRxFifo
 1907              	.LVL149:
 263:Drivers/STM32F4xx_HAL_Driver/Src/stm32f4xx_ll_usb.c ****   USBx_DEVICE->DOEPMSK = 0U;
 1908              		.loc 1 263 3 view .LVU522
 263:Drivers/STM32F4xx_HAL_Driver/Src/stm32f4xx_ll_usb.c ****   USBx_DEVICE->DOEPMSK = 0U;
 1909              		.loc 1 263 24 is_stmt 0 view .LVU523
 1910 0072 0023     		movs	r3, #0
 1911 0074 3361     		str	r3, [r6, #16]
 264:Drivers/STM32F4xx_HAL_Driver/Src/stm32f4xx_ll_usb.c ****   USBx_DEVICE->DAINT = 0xFFFFFFFFU;
 1912              		.loc 1 264 3 is_stmt 1 view .LVU524
 264:Drivers/STM32F4xx_HAL_Driver/Src/stm32f4xx_ll_usb.c ****   USBx_DEVICE->DAINT = 0xFFFFFFFFU;
 1913              		.loc 1 264 24 is_stmt 0 view .LVU525
 1914 0076 7361     		str	r3, [r6, #20]
 265:Drivers/STM32F4xx_HAL_Driver/Src/stm32f4xx_ll_usb.c ****   USBx_DEVICE->DAINTMSK = 0U;
 1915              		.loc 1 265 3 is_stmt 1 view .LVU526
 265:Drivers/STM32F4xx_HAL_Driver/Src/stm32f4xx_ll_usb.c ****   USBx_DEVICE->DAINTMSK = 0U;
 1916              		.loc 1 265 22 is_stmt 0 view .LVU527
 1917 0078 4FF0FF32 		mov	r2, #-1
 1918 007c B261     		str	r2, [r6, #24]
 266:Drivers/STM32F4xx_HAL_Driver/Src/stm32f4xx_ll_usb.c ****   
 1919              		.loc 1 266 3 is_stmt 1 view .LVU528
 266:Drivers/STM32F4xx_HAL_Driver/Src/stm32f4xx_ll_usb.c ****   
 1920              		.loc 1 266 25 is_stmt 0 view .LVU529
 1921 007e F361     		str	r3, [r6, #28]
ARM GAS  C:\Users\gx\AppData\Local\Temp\ccXSZ03x.s 			page 69


 268:Drivers/STM32F4xx_HAL_Driver/Src/stm32f4xx_ll_usb.c ****   {
 1922              		.loc 1 268 3 is_stmt 1 view .LVU530
 268:Drivers/STM32F4xx_HAL_Driver/Src/stm32f4xx_ll_usb.c ****   {
 1923              		.loc 1 268 3 is_stmt 0 view .LVU531
 1924 0080 08E0     		b	.L97
 1925              	.LVL150:
 1926              	.L111:
 272:Drivers/STM32F4xx_HAL_Driver/Src/stm32f4xx_ll_usb.c ****     }
 1927              		.loc 1 272 7 is_stmt 1 view .LVU532
 272:Drivers/STM32F4xx_HAL_Driver/Src/stm32f4xx_ll_usb.c ****     }
 1928              		.loc 1 272 29 is_stmt 0 view .LVU533
 1929 0082 4FF09040 		mov	r0, #1207959552
 1930 0086 C2F80009 		str	r0, [r2, #2304]
 1931              	.L99:
 279:Drivers/STM32F4xx_HAL_Driver/Src/stm32f4xx_ll_usb.c ****     USBx_INEP(i)->DIEPINT  = 0xFFU;
 1932              		.loc 1 279 5 is_stmt 1 discriminator 2 view .LVU534
 279:Drivers/STM32F4xx_HAL_Driver/Src/stm32f4xx_ll_usb.c ****     USBx_INEP(i)->DIEPINT  = 0xFFU;
 1933              		.loc 1 279 28 is_stmt 0 discriminator 2 view .LVU535
 1934 008a 0022     		movs	r2, #0
 1935 008c 0A61     		str	r2, [r1, #16]
 280:Drivers/STM32F4xx_HAL_Driver/Src/stm32f4xx_ll_usb.c ****   }
 1936              		.loc 1 280 5 is_stmt 1 discriminator 2 view .LVU536
 280:Drivers/STM32F4xx_HAL_Driver/Src/stm32f4xx_ll_usb.c ****   }
 1937              		.loc 1 280 28 is_stmt 0 discriminator 2 view .LVU537
 1938 008e FF22     		movs	r2, #255
 1939 0090 8A60     		str	r2, [r1, #8]
 268:Drivers/STM32F4xx_HAL_Driver/Src/stm32f4xx_ll_usb.c ****   {
 1940              		.loc 1 268 39 is_stmt 1 discriminator 2 view .LVU538
 268:Drivers/STM32F4xx_HAL_Driver/Src/stm32f4xx_ll_usb.c ****   {
 1941              		.loc 1 268 40 is_stmt 0 discriminator 2 view .LVU539
 1942 0092 0133     		adds	r3, r3, #1
 1943              	.LVL151:
 1944              	.L97:
 268:Drivers/STM32F4xx_HAL_Driver/Src/stm32f4xx_ll_usb.c ****   {
 1945              		.loc 1 268 16 is_stmt 1 discriminator 1 view .LVU540
 268:Drivers/STM32F4xx_HAL_Driver/Src/stm32f4xx_ll_usb.c ****   {
 1946              		.loc 1 268 23 is_stmt 0 discriminator 1 view .LVU541
 1947 0094 0799     		ldr	r1, [sp, #28]
 268:Drivers/STM32F4xx_HAL_Driver/Src/stm32f4xx_ll_usb.c ****   {
 1948              		.loc 1 268 3 discriminator 1 view .LVU542
 1949 0096 9942     		cmp	r1, r3
 1950 0098 0BD9     		bls	.L110
 270:Drivers/STM32F4xx_HAL_Driver/Src/stm32f4xx_ll_usb.c ****     {
 1951              		.loc 1 270 5 is_stmt 1 view .LVU543
 270:Drivers/STM32F4xx_HAL_Driver/Src/stm32f4xx_ll_usb.c ****     {
 1952              		.loc 1 270 10 is_stmt 0 view .LVU544
 1953 009a 05EB4312 		add	r2, r5, r3, lsl #5
 1954 009e 02F51061 		add	r1, r2, #2304
 270:Drivers/STM32F4xx_HAL_Driver/Src/stm32f4xx_ll_usb.c ****     {
 1955              		.loc 1 270 22 view .LVU545
 1956 00a2 D2F80009 		ldr	r0, [r2, #2304]
 270:Drivers/STM32F4xx_HAL_Driver/Src/stm32f4xx_ll_usb.c ****     {
 1957              		.loc 1 270 8 view .LVU546
 1958 00a6 0028     		cmp	r0, #0
 1959 00a8 EBDB     		blt	.L111
 276:Drivers/STM32F4xx_HAL_Driver/Src/stm32f4xx_ll_usb.c ****     }
 1960              		.loc 1 276 7 is_stmt 1 view .LVU547
ARM GAS  C:\Users\gx\AppData\Local\Temp\ccXSZ03x.s 			page 70


 276:Drivers/STM32F4xx_HAL_Driver/Src/stm32f4xx_ll_usb.c ****     }
 1961              		.loc 1 276 29 is_stmt 0 view .LVU548
 1962 00aa 0020     		movs	r0, #0
 1963 00ac C2F80009 		str	r0, [r2, #2304]
 1964 00b0 EBE7     		b	.L99
 1965              	.L110:
 283:Drivers/STM32F4xx_HAL_Driver/Src/stm32f4xx_ll_usb.c ****   {
 1966              		.loc 1 283 10 view .LVU549
 1967 00b2 0023     		movs	r3, #0
 1968              	.LVL152:
 283:Drivers/STM32F4xx_HAL_Driver/Src/stm32f4xx_ll_usb.c ****   {
 1969              		.loc 1 283 10 view .LVU550
 1970 00b4 08E0     		b	.L101
 1971              	.LVL153:
 1972              	.L113:
 287:Drivers/STM32F4xx_HAL_Driver/Src/stm32f4xx_ll_usb.c ****     }
 1973              		.loc 1 287 7 is_stmt 1 view .LVU551
 287:Drivers/STM32F4xx_HAL_Driver/Src/stm32f4xx_ll_usb.c ****     }
 1974              		.loc 1 287 30 is_stmt 0 view .LVU552
 1975 00b6 4FF0904C 		mov	ip, #1207959552
 1976 00ba C2F800CB 		str	ip, [r2, #2816]
 1977              	.L103:
 294:Drivers/STM32F4xx_HAL_Driver/Src/stm32f4xx_ll_usb.c ****     USBx_OUTEP(i)->DOEPINT  = 0xFFU;
 1978              		.loc 1 294 5 is_stmt 1 discriminator 2 view .LVU553
 294:Drivers/STM32F4xx_HAL_Driver/Src/stm32f4xx_ll_usb.c ****     USBx_OUTEP(i)->DOEPINT  = 0xFFU;
 1979              		.loc 1 294 29 is_stmt 0 discriminator 2 view .LVU554
 1980 00be 0022     		movs	r2, #0
 1981 00c0 0261     		str	r2, [r0, #16]
 295:Drivers/STM32F4xx_HAL_Driver/Src/stm32f4xx_ll_usb.c ****   }
 1982              		.loc 1 295 5 is_stmt 1 discriminator 2 view .LVU555
 295:Drivers/STM32F4xx_HAL_Driver/Src/stm32f4xx_ll_usb.c ****   }
 1983              		.loc 1 295 29 is_stmt 0 discriminator 2 view .LVU556
 1984 00c2 FF22     		movs	r2, #255
 1985 00c4 8260     		str	r2, [r0, #8]
 283:Drivers/STM32F4xx_HAL_Driver/Src/stm32f4xx_ll_usb.c ****   {
 1986              		.loc 1 283 39 is_stmt 1 discriminator 2 view .LVU557
 283:Drivers/STM32F4xx_HAL_Driver/Src/stm32f4xx_ll_usb.c ****   {
 1987              		.loc 1 283 40 is_stmt 0 discriminator 2 view .LVU558
 1988 00c6 0133     		adds	r3, r3, #1
 1989              	.LVL154:
 1990              	.L101:
 283:Drivers/STM32F4xx_HAL_Driver/Src/stm32f4xx_ll_usb.c ****   {
 1991              		.loc 1 283 16 is_stmt 1 discriminator 1 view .LVU559
 283:Drivers/STM32F4xx_HAL_Driver/Src/stm32f4xx_ll_usb.c ****   {
 1992              		.loc 1 283 3 is_stmt 0 discriminator 1 view .LVU560
 1993 00c8 9942     		cmp	r1, r3
 1994 00ca 0DD9     		bls	.L112
 285:Drivers/STM32F4xx_HAL_Driver/Src/stm32f4xx_ll_usb.c ****     {
 1995              		.loc 1 285 5 is_stmt 1 view .LVU561
 285:Drivers/STM32F4xx_HAL_Driver/Src/stm32f4xx_ll_usb.c ****     {
 1996              		.loc 1 285 10 is_stmt 0 view .LVU562
 1997 00cc 05EB4312 		add	r2, r5, r3, lsl #5
 1998 00d0 02F53060 		add	r0, r2, #2816
 285:Drivers/STM32F4xx_HAL_Driver/Src/stm32f4xx_ll_usb.c ****     {
 1999              		.loc 1 285 23 view .LVU563
 2000 00d4 D2F800CB 		ldr	ip, [r2, #2816]
 285:Drivers/STM32F4xx_HAL_Driver/Src/stm32f4xx_ll_usb.c ****     {
ARM GAS  C:\Users\gx\AppData\Local\Temp\ccXSZ03x.s 			page 71


 2001              		.loc 1 285 8 view .LVU564
 2002 00d8 BCF1000F 		cmp	ip, #0
 2003 00dc EBDB     		blt	.L113
 291:Drivers/STM32F4xx_HAL_Driver/Src/stm32f4xx_ll_usb.c ****     }
 2004              		.loc 1 291 7 is_stmt 1 view .LVU565
 291:Drivers/STM32F4xx_HAL_Driver/Src/stm32f4xx_ll_usb.c ****     }
 2005              		.loc 1 291 30 is_stmt 0 view .LVU566
 2006 00de 4FF0000C 		mov	ip, #0
 2007 00e2 C2F800CB 		str	ip, [r2, #2816]
 2008 00e6 EAE7     		b	.L103
 2009              	.L112:
 298:Drivers/STM32F4xx_HAL_Driver/Src/stm32f4xx_ll_usb.c ****   
 2010              		.loc 1 298 3 is_stmt 1 view .LVU567
 298:Drivers/STM32F4xx_HAL_Driver/Src/stm32f4xx_ll_usb.c ****   
 2011              		.loc 1 298 24 is_stmt 0 view .LVU568
 2012 00e8 3369     		ldr	r3, [r6, #16]
 2013              	.LVL155:
 298:Drivers/STM32F4xx_HAL_Driver/Src/stm32f4xx_ll_usb.c ****   
 2014              		.loc 1 298 24 view .LVU569
 2015 00ea 23F48073 		bic	r3, r3, #256
 2016 00ee 3361     		str	r3, [r6, #16]
 300:Drivers/STM32F4xx_HAL_Driver/Src/stm32f4xx_ll_usb.c ****   {
 2017              		.loc 1 300 3 is_stmt 1 view .LVU570
 300:Drivers/STM32F4xx_HAL_Driver/Src/stm32f4xx_ll_usb.c ****   {
 2018              		.loc 1 300 10 is_stmt 0 view .LVU571
 2019 00f0 0A9B     		ldr	r3, [sp, #40]
 300:Drivers/STM32F4xx_HAL_Driver/Src/stm32f4xx_ll_usb.c ****   {
 2020              		.loc 1 300 6 view .LVU572
 2021 00f2 012B     		cmp	r3, #1
 2022 00f4 1BD0     		beq	.L114
 2023              	.L105:
 310:Drivers/STM32F4xx_HAL_Driver/Src/stm32f4xx_ll_usb.c ****   
 2024              		.loc 1 310 3 is_stmt 1 view .LVU573
 310:Drivers/STM32F4xx_HAL_Driver/Src/stm32f4xx_ll_usb.c ****   
 2025              		.loc 1 310 17 is_stmt 0 view .LVU574
 2026 00f6 0022     		movs	r2, #0
 2027 00f8 A261     		str	r2, [r4, #24]
 313:Drivers/STM32F4xx_HAL_Driver/Src/stm32f4xx_ll_usb.c **** 
 2028              		.loc 1 313 3 is_stmt 1 view .LVU575
 313:Drivers/STM32F4xx_HAL_Driver/Src/stm32f4xx_ll_usb.c **** 
 2029              		.loc 1 313 17 is_stmt 0 view .LVU576
 2030 00fa 6FF08042 		mvn	r2, #1073741824
 2031 00fe 6261     		str	r2, [r4, #20]
 316:Drivers/STM32F4xx_HAL_Driver/Src/stm32f4xx_ll_usb.c ****   {
 2032              		.loc 1 316 3 is_stmt 1 view .LVU577
 316:Drivers/STM32F4xx_HAL_Driver/Src/stm32f4xx_ll_usb.c ****   {
 2033              		.loc 1 316 6 is_stmt 0 view .LVU578
 2034 0100 1BB9     		cbnz	r3, .L106
 318:Drivers/STM32F4xx_HAL_Driver/Src/stm32f4xx_ll_usb.c ****   }
 2035              		.loc 1 318 5 is_stmt 1 view .LVU579
 318:Drivers/STM32F4xx_HAL_Driver/Src/stm32f4xx_ll_usb.c ****   }
 2036              		.loc 1 318 19 is_stmt 0 view .LVU580
 2037 0102 A369     		ldr	r3, [r4, #24]
 2038 0104 43F01003 		orr	r3, r3, #16
 2039 0108 A361     		str	r3, [r4, #24]
 2040              	.L106:
 322:Drivers/STM32F4xx_HAL_Driver/Src/stm32f4xx_ll_usb.c ****                     USB_OTG_GINTMSK_ENUMDNEM | USB_OTG_GINTMSK_IEPINT |\
ARM GAS  C:\Users\gx\AppData\Local\Temp\ccXSZ03x.s 			page 72


 2041              		.loc 1 322 3 is_stmt 1 view .LVU581
 322:Drivers/STM32F4xx_HAL_Driver/Src/stm32f4xx_ll_usb.c ****                     USB_OTG_GINTMSK_ENUMDNEM | USB_OTG_GINTMSK_IEPINT |\
 2042              		.loc 1 322 17 is_stmt 0 view .LVU582
 2043 010a A269     		ldr	r2, [r4, #24]
 2044 010c 104B     		ldr	r3, .L116
 2045 010e 1343     		orrs	r3, r3, r2
 2046 0110 A361     		str	r3, [r4, #24]
 327:Drivers/STM32F4xx_HAL_Driver/Src/stm32f4xx_ll_usb.c ****   {
 2047              		.loc 1 327 3 is_stmt 1 view .LVU583
 327:Drivers/STM32F4xx_HAL_Driver/Src/stm32f4xx_ll_usb.c ****   {
 2048              		.loc 1 327 9 is_stmt 0 view .LVU584
 2049 0112 0D9B     		ldr	r3, [sp, #52]
 327:Drivers/STM32F4xx_HAL_Driver/Src/stm32f4xx_ll_usb.c ****   {
 2050              		.loc 1 327 5 view .LVU585
 2051 0114 1BB1     		cbz	r3, .L107
 329:Drivers/STM32F4xx_HAL_Driver/Src/stm32f4xx_ll_usb.c ****   }
 2052              		.loc 1 329 5 is_stmt 1 view .LVU586
 329:Drivers/STM32F4xx_HAL_Driver/Src/stm32f4xx_ll_usb.c ****   }
 2053              		.loc 1 329 19 is_stmt 0 view .LVU587
 2054 0116 A369     		ldr	r3, [r4, #24]
 2055 0118 43F00803 		orr	r3, r3, #8
 2056 011c A361     		str	r3, [r4, #24]
 2057              	.L107:
 332:Drivers/STM32F4xx_HAL_Driver/Src/stm32f4xx_ll_usb.c ****   {
 2058              		.loc 1 332 3 is_stmt 1 view .LVU588
 332:Drivers/STM32F4xx_HAL_Driver/Src/stm32f4xx_ll_usb.c ****   {
 2059              		.loc 1 332 6 is_stmt 0 view .LVU589
 2060 011e B8F1010F 		cmp	r8, #1
 2061 0122 0ED0     		beq	.L115
 2062              	.L108:
 337:Drivers/STM32F4xx_HAL_Driver/Src/stm32f4xx_ll_usb.c **** }
 2063              		.loc 1 337 3 is_stmt 1 view .LVU590
 338:Drivers/STM32F4xx_HAL_Driver/Src/stm32f4xx_ll_usb.c **** 
 2064              		.loc 1 338 1 is_stmt 0 view .LVU591
 2065 0124 0020     		movs	r0, #0
 2066 0126 BDE87841 		pop	{r3, r4, r5, r6, r8, lr}
 2067              	.LCFI36:
 2068              		.cfi_remember_state
 2069              		.cfi_restore 14
 2070              		.cfi_restore 8
 2071              		.cfi_restore 6
 2072              		.cfi_restore 5
 2073              		.cfi_restore 4
 2074              		.cfi_restore 3
 2075              		.cfi_def_cfa_offset 16
 2076              	.LVL156:
 338:Drivers/STM32F4xx_HAL_Driver/Src/stm32f4xx_ll_usb.c **** 
 2077              		.loc 1 338 1 view .LVU592
 2078 012a 04B0     		add	sp, sp, #16
 2079              	.LCFI37:
 2080              		.cfi_def_cfa_offset 0
 2081 012c 7047     		bx	lr
 2082              	.LVL157:
 2083              	.L114:
 2084              	.LCFI38:
 2085              		.cfi_restore_state
 303:Drivers/STM32F4xx_HAL_Driver/Src/stm32f4xx_ll_usb.c ****     USBx_DEVICE->DTHRCTL |= (USB_OTG_DTHRCTL_RXTHREN | USB_OTG_DTHRCTL_ISOTHREN | USB_OTG_DTHRCTL_N
ARM GAS  C:\Users\gx\AppData\Local\Temp\ccXSZ03x.s 			page 73


 2086              		.loc 1 303 5 is_stmt 1 view .LVU593
 303:Drivers/STM32F4xx_HAL_Driver/Src/stm32f4xx_ll_usb.c ****     USBx_DEVICE->DTHRCTL |= (USB_OTG_DTHRCTL_RXTHREN | USB_OTG_DTHRCTL_ISOTHREN | USB_OTG_DTHRCTL_N
 2087              		.loc 1 303 26 is_stmt 0 view .LVU594
 2088 012e 094A     		ldr	r2, .L116+4
 2089 0130 3263     		str	r2, [r6, #48]
 304:Drivers/STM32F4xx_HAL_Driver/Src/stm32f4xx_ll_usb.c ****     
 2090              		.loc 1 304 5 is_stmt 1 view .LVU595
 304:Drivers/STM32F4xx_HAL_Driver/Src/stm32f4xx_ll_usb.c ****     
 2091              		.loc 1 304 26 is_stmt 0 view .LVU596
 2092 0132 326B     		ldr	r2, [r6, #48]
 2093 0134 42F48032 		orr	r2, r2, #65536
 2094 0138 42F00302 		orr	r2, r2, #3
 2095 013c 3263     		str	r2, [r6, #48]
 306:Drivers/STM32F4xx_HAL_Driver/Src/stm32f4xx_ll_usb.c ****   }
 2096              		.loc 1 306 5 is_stmt 1 view .LVU597
 306:Drivers/STM32F4xx_HAL_Driver/Src/stm32f4xx_ll_usb.c ****   }
 2097              		.loc 1 306 6 is_stmt 0 view .LVU598
 2098 013e 326B     		ldr	r2, [r6, #48]
 306:Drivers/STM32F4xx_HAL_Driver/Src/stm32f4xx_ll_usb.c ****   }
 2099              		.loc 1 306 6 view .LVU599
 2100 0140 D9E7     		b	.L105
 2101              	.L115:
 334:Drivers/STM32F4xx_HAL_Driver/Src/stm32f4xx_ll_usb.c ****   }
 2102              		.loc 1 334 5 is_stmt 1 view .LVU600
 334:Drivers/STM32F4xx_HAL_Driver/Src/stm32f4xx_ll_usb.c ****   }
 2103              		.loc 1 334 19 is_stmt 0 view .LVU601
 2104 0142 A369     		ldr	r3, [r4, #24]
 2105 0144 43F08043 		orr	r3, r3, #1073741824
 2106 0148 43F00403 		orr	r3, r3, #4
 2107 014c A361     		str	r3, [r4, #24]
 2108 014e E9E7     		b	.L108
 2109              	.L117:
 2110              		.align	2
 2111              	.L116:
 2112 0150 00383C80 		.word	-2143537152
 2113 0154 00018000 		.word	8388864
 2114              		.cfi_endproc
 2115              	.LFE130:
 2117              		.section	.text.USB_GetDevSpeed,"ax",%progbits
 2118              		.align	1
 2119              		.global	USB_GetDevSpeed
 2120              		.syntax unified
 2121              		.thumb
 2122              		.thumb_func
 2123              		.fpu fpv4-sp-d16
 2125              	USB_GetDevSpeed:
 2126              	.LVL158:
 2127              	.LFB134:
 419:Drivers/STM32F4xx_HAL_Driver/Src/stm32f4xx_ll_usb.c ****   uint8_t speed = 0U;
 2128              		.loc 1 419 1 is_stmt 1 view -0
 2129              		.cfi_startproc
 2130              		@ args = 0, pretend = 0, frame = 0
 2131              		@ frame_needed = 0, uses_anonymous_args = 0
 2132              		@ link register save eliminated.
 420:Drivers/STM32F4xx_HAL_Driver/Src/stm32f4xx_ll_usb.c ****   
 2133              		.loc 1 420 3 view .LVU603
 422:Drivers/STM32F4xx_HAL_Driver/Src/stm32f4xx_ll_usb.c ****   {
ARM GAS  C:\Users\gx\AppData\Local\Temp\ccXSZ03x.s 			page 74


 2134              		.loc 1 422 3 view .LVU604
 422:Drivers/STM32F4xx_HAL_Driver/Src/stm32f4xx_ll_usb.c ****   {
 2135              		.loc 1 422 18 is_stmt 0 view .LVU605
 2136 0000 D0F80838 		ldr	r3, [r0, #2056]
 422:Drivers/STM32F4xx_HAL_Driver/Src/stm32f4xx_ll_usb.c ****   {
 2137              		.loc 1 422 7 view .LVU606
 2138 0004 00F50060 		add	r0, r0, #2048
 2139              	.LVL159:
 422:Drivers/STM32F4xx_HAL_Driver/Src/stm32f4xx_ll_usb.c ****   {
 2140              		.loc 1 422 5 view .LVU607
 2141 0008 13F0060F 		tst	r3, #6
 2142 000c 10D0     		beq	.L120
 426:Drivers/STM32F4xx_HAL_Driver/Src/stm32f4xx_ll_usb.c ****            ((USBx_DEVICE->DSTS & USB_OTG_DSTS_ENUMSPD) == DSTS_ENUMSPD_FS_PHY_48MHZ))
 2143              		.loc 1 426 8 is_stmt 1 view .LVU608
 426:Drivers/STM32F4xx_HAL_Driver/Src/stm32f4xx_ll_usb.c ****            ((USBx_DEVICE->DSTS & USB_OTG_DSTS_ENUMSPD) == DSTS_ENUMSPD_FS_PHY_48MHZ))
 2144              		.loc 1 426 25 is_stmt 0 view .LVU609
 2145 000e 8368     		ldr	r3, [r0, #8]
 426:Drivers/STM32F4xx_HAL_Driver/Src/stm32f4xx_ll_usb.c ****            ((USBx_DEVICE->DSTS & USB_OTG_DSTS_ENUMSPD) == DSTS_ENUMSPD_FS_PHY_48MHZ))
 2146              		.loc 1 426 32 view .LVU610
 2147 0010 03F00603 		and	r3, r3, #6
 426:Drivers/STM32F4xx_HAL_Driver/Src/stm32f4xx_ll_usb.c ****            ((USBx_DEVICE->DSTS & USB_OTG_DSTS_ENUMSPD) == DSTS_ENUMSPD_FS_PHY_48MHZ))
 2148              		.loc 1 426 11 view .LVU611
 2149 0014 022B     		cmp	r3, #2
 2150 0016 0DD0     		beq	.L121
 427:Drivers/STM32F4xx_HAL_Driver/Src/stm32f4xx_ll_usb.c ****   {
 2151              		.loc 1 427 25 discriminator 1 view .LVU612
 2152 0018 8368     		ldr	r3, [r0, #8]
 427:Drivers/STM32F4xx_HAL_Driver/Src/stm32f4xx_ll_usb.c ****   {
 2153              		.loc 1 427 32 discriminator 1 view .LVU613
 2154 001a 03F00603 		and	r3, r3, #6
 426:Drivers/STM32F4xx_HAL_Driver/Src/stm32f4xx_ll_usb.c ****            ((USBx_DEVICE->DSTS & USB_OTG_DSTS_ENUMSPD) == DSTS_ENUMSPD_FS_PHY_48MHZ))
 2155              		.loc 1 426 94 discriminator 1 view .LVU614
 2156 001e 062B     		cmp	r3, #6
 2157 0020 0AD0     		beq	.L122
 431:Drivers/STM32F4xx_HAL_Driver/Src/stm32f4xx_ll_usb.c ****   {
 2158              		.loc 1 431 8 is_stmt 1 view .LVU615
 431:Drivers/STM32F4xx_HAL_Driver/Src/stm32f4xx_ll_usb.c ****   {
 2159              		.loc 1 431 23 is_stmt 0 view .LVU616
 2160 0022 8368     		ldr	r3, [r0, #8]
 431:Drivers/STM32F4xx_HAL_Driver/Src/stm32f4xx_ll_usb.c ****   {
 2161              		.loc 1 431 30 view .LVU617
 2162 0024 03F00603 		and	r3, r3, #6
 431:Drivers/STM32F4xx_HAL_Driver/Src/stm32f4xx_ll_usb.c ****   {
 2163              		.loc 1 431 10 view .LVU618
 2164 0028 042B     		cmp	r3, #4
 2165 002a 07D0     		beq	.L123
 420:Drivers/STM32F4xx_HAL_Driver/Src/stm32f4xx_ll_usb.c ****   
 2166              		.loc 1 420 11 view .LVU619
 2167 002c 0020     		movs	r0, #0
 2168              	.LVL160:
 420:Drivers/STM32F4xx_HAL_Driver/Src/stm32f4xx_ll_usb.c ****   
 2169              		.loc 1 420 11 view .LVU620
 2170 002e 7047     		bx	lr
 2171              	.L120:
 424:Drivers/STM32F4xx_HAL_Driver/Src/stm32f4xx_ll_usb.c ****   }
 2172              		.loc 1 424 11 view .LVU621
 2173 0030 0020     		movs	r0, #0
ARM GAS  C:\Users\gx\AppData\Local\Temp\ccXSZ03x.s 			page 75


 2174 0032 7047     		bx	lr
 2175              	.L121:
 429:Drivers/STM32F4xx_HAL_Driver/Src/stm32f4xx_ll_usb.c ****   }
 2176              		.loc 1 429 11 view .LVU622
 2177 0034 0320     		movs	r0, #3
 2178 0036 7047     		bx	lr
 2179              	.L122:
 2180 0038 0320     		movs	r0, #3
 2181 003a 7047     		bx	lr
 2182              	.L123:
 433:Drivers/STM32F4xx_HAL_Driver/Src/stm32f4xx_ll_usb.c ****   }
 2183              		.loc 1 433 11 view .LVU623
 2184 003c 0220     		movs	r0, #2
 2185              	.LVL161:
 436:Drivers/STM32F4xx_HAL_Driver/Src/stm32f4xx_ll_usb.c **** }
 2186              		.loc 1 436 3 is_stmt 1 view .LVU624
 437:Drivers/STM32F4xx_HAL_Driver/Src/stm32f4xx_ll_usb.c **** 
 2187              		.loc 1 437 1 is_stmt 0 view .LVU625
 2188 003e 7047     		bx	lr
 2189              		.cfi_endproc
 2190              	.LFE134:
 2192              		.section	.text.USB_ActivateEndpoint,"ax",%progbits
 2193              		.align	1
 2194              		.global	USB_ActivateEndpoint
 2195              		.syntax unified
 2196              		.thumb
 2197              		.thumb_func
 2198              		.fpu fpv4-sp-d16
 2200              	USB_ActivateEndpoint:
 2201              	.LVL162:
 2202              	.LFB135:
 446:Drivers/STM32F4xx_HAL_Driver/Src/stm32f4xx_ll_usb.c ****   if (ep->is_in == 1U)
 2203              		.loc 1 446 1 is_stmt 1 view -0
 2204              		.cfi_startproc
 2205              		@ args = 0, pretend = 0, frame = 0
 2206              		@ frame_needed = 0, uses_anonymous_args = 0
 2207              		@ link register save eliminated.
 446:Drivers/STM32F4xx_HAL_Driver/Src/stm32f4xx_ll_usb.c ****   if (ep->is_in == 1U)
 2208              		.loc 1 446 1 is_stmt 0 view .LVU627
 2209 0000 30B4     		push	{r4, r5}
 2210              	.LCFI39:
 2211              		.cfi_def_cfa_offset 8
 2212              		.cfi_offset 4, -8
 2213              		.cfi_offset 5, -4
 447:Drivers/STM32F4xx_HAL_Driver/Src/stm32f4xx_ll_usb.c ****   {
 2214              		.loc 1 447 3 is_stmt 1 view .LVU628
 447:Drivers/STM32F4xx_HAL_Driver/Src/stm32f4xx_ll_usb.c ****   {
 2215              		.loc 1 447 9 is_stmt 0 view .LVU629
 2216 0002 4B78     		ldrb	r3, [r1, #1]	@ zero_extendqisi2
 447:Drivers/STM32F4xx_HAL_Driver/Src/stm32f4xx_ll_usb.c ****   {
 2217              		.loc 1 447 6 view .LVU630
 2218 0004 012B     		cmp	r3, #1
 2219 0006 22D0     		beq	.L128
 459:Drivers/STM32F4xx_HAL_Driver/Src/stm32f4xx_ll_usb.c ****      
 2220              		.loc 1 459 6 is_stmt 1 view .LVU631
 459:Drivers/STM32F4xx_HAL_Driver/Src/stm32f4xx_ll_usb.c ****      
 2221              		.loc 1 459 28 is_stmt 0 view .LVU632
ARM GAS  C:\Users\gx\AppData\Local\Temp\ccXSZ03x.s 			page 76


 2222 0008 D0F81C38 		ldr	r3, [r0, #2076]
 459:Drivers/STM32F4xx_HAL_Driver/Src/stm32f4xx_ll_usb.c ****      
 2223              		.loc 1 459 66 view .LVU633
 2224 000c 0D78     		ldrb	r5, [r1]	@ zero_extendqisi2
 459:Drivers/STM32F4xx_HAL_Driver/Src/stm32f4xx_ll_usb.c ****      
 2225              		.loc 1 459 60 view .LVU634
 2226 000e 0122     		movs	r2, #1
 2227 0010 AA40     		lsls	r2, r2, r5
 459:Drivers/STM32F4xx_HAL_Driver/Src/stm32f4xx_ll_usb.c ****      
 2228              		.loc 1 459 28 view .LVU635
 2229 0012 43EA0243 		orr	r3, r3, r2, lsl #16
 2230 0016 C0F81C38 		str	r3, [r0, #2076]
 461:Drivers/STM32F4xx_HAL_Driver/Src/stm32f4xx_ll_usb.c ****     {
 2231              		.loc 1 461 5 is_stmt 1 view .LVU636
 461:Drivers/STM32F4xx_HAL_Driver/Src/stm32f4xx_ll_usb.c ****     {
 2232              		.loc 1 461 11 is_stmt 0 view .LVU637
 2233 001a 0B78     		ldrb	r3, [r1]	@ zero_extendqisi2
 2234 001c 00EB4310 		add	r0, r0, r3, lsl #5
 2235              	.LVL163:
 461:Drivers/STM32F4xx_HAL_Driver/Src/stm32f4xx_ll_usb.c ****     {
 2236              		.loc 1 461 30 view .LVU638
 2237 0020 D0F8003B 		ldr	r3, [r0, #2816]
 461:Drivers/STM32F4xx_HAL_Driver/Src/stm32f4xx_ll_usb.c ****     {
 2238              		.loc 1 461 8 view .LVU639
 2239 0024 13F4004F 		tst	r3, #32768
 2240 0028 0ED1     		bne	.L126
 463:Drivers/STM32F4xx_HAL_Driver/Src/stm32f4xx_ll_usb.c ****        (USB_OTG_DIEPCTL_SD0PID_SEVNFRM)| (USB_OTG_DOEPCTL_USBAEP));
 2241              		.loc 1 463 7 is_stmt 1 view .LVU640
 463:Drivers/STM32F4xx_HAL_Driver/Src/stm32f4xx_ll_usb.c ****        (USB_OTG_DIEPCTL_SD0PID_SEVNFRM)| (USB_OTG_DOEPCTL_USBAEP));
 2242              		.loc 1 463 36 is_stmt 0 view .LVU641
 2243 002a D0F8003B 		ldr	r3, [r0, #2816]
 463:Drivers/STM32F4xx_HAL_Driver/Src/stm32f4xx_ll_usb.c ****        (USB_OTG_DIEPCTL_SD0PID_SEVNFRM)| (USB_OTG_DOEPCTL_USBAEP));
 2244              		.loc 1 463 43 view .LVU642
 2245 002e 8A68     		ldr	r2, [r1, #8]
 463:Drivers/STM32F4xx_HAL_Driver/Src/stm32f4xx_ll_usb.c ****        (USB_OTG_DIEPCTL_SD0PID_SEVNFRM)| (USB_OTG_DOEPCTL_USBAEP));
 2246              		.loc 1 463 55 view .LVU643
 2247 0030 C2F30A02 		ubfx	r2, r2, #0, #11
 463:Drivers/STM32F4xx_HAL_Driver/Src/stm32f4xx_ll_usb.c ****        (USB_OTG_DIEPCTL_SD0PID_SEVNFRM)| (USB_OTG_DOEPCTL_USBAEP));
 2248              		.loc 1 463 86 view .LVU644
 2249 0034 C978     		ldrb	r1, [r1, #3]	@ zero_extendqisi2
 2250              	.LVL164:
 463:Drivers/STM32F4xx_HAL_Driver/Src/stm32f4xx_ll_usb.c ****        (USB_OTG_DIEPCTL_SD0PID_SEVNFRM)| (USB_OTG_DOEPCTL_USBAEP));
 2251              		.loc 1 463 81 view .LVU645
 2252 0036 42EA8142 		orr	r2, r2, r1, lsl #18
 463:Drivers/STM32F4xx_HAL_Driver/Src/stm32f4xx_ll_usb.c ****        (USB_OTG_DIEPCTL_SD0PID_SEVNFRM)| (USB_OTG_DOEPCTL_USBAEP));
 2253              		.loc 1 463 36 view .LVU646
 2254 003a 1343     		orrs	r3, r3, r2
 2255 003c 43F08053 		orr	r3, r3, #268435456
 2256 0040 43F40043 		orr	r3, r3, #32768
 2257 0044 C0F8003B 		str	r3, [r0, #2816]
 2258              	.L126:
 467:Drivers/STM32F4xx_HAL_Driver/Src/stm32f4xx_ll_usb.c **** }
 2259              		.loc 1 467 3 is_stmt 1 view .LVU647
 468:Drivers/STM32F4xx_HAL_Driver/Src/stm32f4xx_ll_usb.c **** /**
 2260              		.loc 1 468 1 is_stmt 0 view .LVU648
 2261 0048 0020     		movs	r0, #0
 2262 004a 30BC     		pop	{r4, r5}
ARM GAS  C:\Users\gx\AppData\Local\Temp\ccXSZ03x.s 			page 77


 2263              	.LCFI40:
 2264              		.cfi_remember_state
 2265              		.cfi_restore 5
 2266              		.cfi_restore 4
 2267              		.cfi_def_cfa_offset 0
 2268 004c 7047     		bx	lr
 2269              	.LVL165:
 2270              	.L128:
 2271              	.LCFI41:
 2272              		.cfi_restore_state
 449:Drivers/STM32F4xx_HAL_Driver/Src/stm32f4xx_ll_usb.c ****    
 2273              		.loc 1 449 4 is_stmt 1 view .LVU649
 449:Drivers/STM32F4xx_HAL_Driver/Src/stm32f4xx_ll_usb.c ****    
 2274              		.loc 1 449 26 is_stmt 0 view .LVU650
 2275 004e D0F81C28 		ldr	r2, [r0, #2076]
 449:Drivers/STM32F4xx_HAL_Driver/Src/stm32f4xx_ll_usb.c ****    
 2276              		.loc 1 449 64 view .LVU651
 2277 0052 0D78     		ldrb	r5, [r1]	@ zero_extendqisi2
 449:Drivers/STM32F4xx_HAL_Driver/Src/stm32f4xx_ll_usb.c ****    
 2278              		.loc 1 449 58 view .LVU652
 2279 0054 AB40     		lsls	r3, r3, r5
 449:Drivers/STM32F4xx_HAL_Driver/Src/stm32f4xx_ll_usb.c ****    
 2280              		.loc 1 449 51 view .LVU653
 2281 0056 9BB2     		uxth	r3, r3
 449:Drivers/STM32F4xx_HAL_Driver/Src/stm32f4xx_ll_usb.c ****    
 2282              		.loc 1 449 26 view .LVU654
 2283 0058 1343     		orrs	r3, r3, r2
 2284 005a C0F81C38 		str	r3, [r0, #2076]
 451:Drivers/STM32F4xx_HAL_Driver/Src/stm32f4xx_ll_usb.c ****     {
 2285              		.loc 1 451 5 is_stmt 1 view .LVU655
 451:Drivers/STM32F4xx_HAL_Driver/Src/stm32f4xx_ll_usb.c ****     {
 2286              		.loc 1 451 11 is_stmt 0 view .LVU656
 2287 005e 0C78     		ldrb	r4, [r1]	@ zero_extendqisi2
 2288 0060 00EB4410 		add	r0, r0, r4, lsl #5
 2289              	.LVL166:
 451:Drivers/STM32F4xx_HAL_Driver/Src/stm32f4xx_ll_usb.c ****     {
 2290              		.loc 1 451 29 view .LVU657
 2291 0064 D0F80039 		ldr	r3, [r0, #2304]
 451:Drivers/STM32F4xx_HAL_Driver/Src/stm32f4xx_ll_usb.c ****     {
 2292              		.loc 1 451 8 view .LVU658
 2293 0068 13F4004F 		tst	r3, #32768
 2294 006c ECD1     		bne	.L126
 453:Drivers/STM32F4xx_HAL_Driver/Src/stm32f4xx_ll_usb.c ****         ((ep->num) << 22U) | (USB_OTG_DIEPCTL_SD0PID_SEVNFRM) | (USB_OTG_DIEPCTL_USBAEP)); 
 2295              		.loc 1 453 7 is_stmt 1 view .LVU659
 453:Drivers/STM32F4xx_HAL_Driver/Src/stm32f4xx_ll_usb.c ****         ((ep->num) << 22U) | (USB_OTG_DIEPCTL_SD0PID_SEVNFRM) | (USB_OTG_DIEPCTL_USBAEP)); 
 2296              		.loc 1 453 35 is_stmt 0 view .LVU660
 2297 006e D0F80039 		ldr	r3, [r0, #2304]
 453:Drivers/STM32F4xx_HAL_Driver/Src/stm32f4xx_ll_usb.c ****         ((ep->num) << 22U) | (USB_OTG_DIEPCTL_SD0PID_SEVNFRM) | (USB_OTG_DIEPCTL_USBAEP)); 
 2298              		.loc 1 453 42 view .LVU661
 2299 0072 8A68     		ldr	r2, [r1, #8]
 453:Drivers/STM32F4xx_HAL_Driver/Src/stm32f4xx_ll_usb.c ****         ((ep->num) << 22U) | (USB_OTG_DIEPCTL_SD0PID_SEVNFRM) | (USB_OTG_DIEPCTL_USBAEP)); 
 2300              		.loc 1 453 54 view .LVU662
 2301 0074 C2F30A02 		ubfx	r2, r2, #0, #11
 453:Drivers/STM32F4xx_HAL_Driver/Src/stm32f4xx_ll_usb.c ****         ((ep->num) << 22U) | (USB_OTG_DIEPCTL_SD0PID_SEVNFRM) | (USB_OTG_DIEPCTL_USBAEP)); 
 2302              		.loc 1 453 85 view .LVU663
 2303 0078 C978     		ldrb	r1, [r1, #3]	@ zero_extendqisi2
 2304              	.LVL167:
ARM GAS  C:\Users\gx\AppData\Local\Temp\ccXSZ03x.s 			page 78


 453:Drivers/STM32F4xx_HAL_Driver/Src/stm32f4xx_ll_usb.c ****         ((ep->num) << 22U) | (USB_OTG_DIEPCTL_SD0PID_SEVNFRM) | (USB_OTG_DIEPCTL_USBAEP)); 
 2305              		.loc 1 453 80 view .LVU664
 2306 007a 42EA8142 		orr	r2, r2, r1, lsl #18
 453:Drivers/STM32F4xx_HAL_Driver/Src/stm32f4xx_ll_usb.c ****         ((ep->num) << 22U) | (USB_OTG_DIEPCTL_SD0PID_SEVNFRM) | (USB_OTG_DIEPCTL_USBAEP)); 
 2307              		.loc 1 453 100 view .LVU665
 2308 007e 42EA8452 		orr	r2, r2, r4, lsl #22
 453:Drivers/STM32F4xx_HAL_Driver/Src/stm32f4xx_ll_usb.c ****         ((ep->num) << 22U) | (USB_OTG_DIEPCTL_SD0PID_SEVNFRM) | (USB_OTG_DIEPCTL_USBAEP)); 
 2309              		.loc 1 453 35 view .LVU666
 2310 0082 1343     		orrs	r3, r3, r2
 2311 0084 43F08053 		orr	r3, r3, #268435456
 2312 0088 43F40043 		orr	r3, r3, #32768
 2313 008c C0F80039 		str	r3, [r0, #2304]
 2314 0090 DAE7     		b	.L126
 2315              		.cfi_endproc
 2316              	.LFE135:
 2318              		.section	.text.USB_ActivateDedicatedEndpoint,"ax",%progbits
 2319              		.align	1
 2320              		.global	USB_ActivateDedicatedEndpoint
 2321              		.syntax unified
 2322              		.thumb
 2323              		.thumb_func
 2324              		.fpu fpv4-sp-d16
 2326              	USB_ActivateDedicatedEndpoint:
 2327              	.LVL168:
 2328              	.LFB136:
 476:Drivers/STM32F4xx_HAL_Driver/Src/stm32f4xx_ll_usb.c ****   static __IO uint32_t debug = 0U;
 2329              		.loc 1 476 1 is_stmt 1 view -0
 2330              		.cfi_startproc
 2331              		@ args = 0, pretend = 0, frame = 0
 2332              		@ frame_needed = 0, uses_anonymous_args = 0
 2333              		@ link register save eliminated.
 476:Drivers/STM32F4xx_HAL_Driver/Src/stm32f4xx_ll_usb.c ****   static __IO uint32_t debug = 0U;
 2334              		.loc 1 476 1 is_stmt 0 view .LVU668
 2335 0000 70B4     		push	{r4, r5, r6}
 2336              	.LCFI42:
 2337              		.cfi_def_cfa_offset 12
 2338              		.cfi_offset 4, -12
 2339              		.cfi_offset 5, -8
 2340              		.cfi_offset 6, -4
 477:Drivers/STM32F4xx_HAL_Driver/Src/stm32f4xx_ll_usb.c ****   
 2341              		.loc 1 477 3 is_stmt 1 view .LVU669
 480:Drivers/STM32F4xx_HAL_Driver/Src/stm32f4xx_ll_usb.c ****   {
 2342              		.loc 1 480 3 view .LVU670
 480:Drivers/STM32F4xx_HAL_Driver/Src/stm32f4xx_ll_usb.c ****   {
 2343              		.loc 1 480 9 is_stmt 0 view .LVU671
 2344 0002 4B78     		ldrb	r3, [r1, #1]	@ zero_extendqisi2
 480:Drivers/STM32F4xx_HAL_Driver/Src/stm32f4xx_ll_usb.c ****   {
 2345              		.loc 1 480 6 view .LVU672
 2346 0004 012B     		cmp	r3, #1
 2347 0006 39D0     		beq	.L135
 496:Drivers/STM32F4xx_HAL_Driver/Src/stm32f4xx_ll_usb.c ****     {
 2348              		.loc 1 496 5 is_stmt 1 view .LVU673
 496:Drivers/STM32F4xx_HAL_Driver/Src/stm32f4xx_ll_usb.c ****     {
 2349              		.loc 1 496 11 is_stmt 0 view .LVU674
 2350 0008 0D78     		ldrb	r5, [r1]	@ zero_extendqisi2
 2351 000a 00EB4512 		add	r2, r0, r5, lsl #5
 496:Drivers/STM32F4xx_HAL_Driver/Src/stm32f4xx_ll_usb.c ****     {
ARM GAS  C:\Users\gx\AppData\Local\Temp\ccXSZ03x.s 			page 79


 2352              		.loc 1 496 30 view .LVU675
 2353 000e D2F8003B 		ldr	r3, [r2, #2816]
 496:Drivers/STM32F4xx_HAL_Driver/Src/stm32f4xx_ll_usb.c ****     {
 2354              		.loc 1 496 8 view .LVU676
 2355 0012 13F4004F 		tst	r3, #32768
 2356 0016 25D1     		bne	.L133
 498:Drivers/STM32F4xx_HAL_Driver/Src/stm32f4xx_ll_usb.c ****         ((ep->num) << 22U) | (USB_OTG_DOEPCTL_USBAEP));
 2357              		.loc 1 498 7 is_stmt 1 view .LVU677
 498:Drivers/STM32F4xx_HAL_Driver/Src/stm32f4xx_ll_usb.c ****         ((ep->num) << 22U) | (USB_OTG_DOEPCTL_USBAEP));
 2358              		.loc 1 498 36 is_stmt 0 view .LVU678
 2359 0018 D2F8004B 		ldr	r4, [r2, #2816]
 498:Drivers/STM32F4xx_HAL_Driver/Src/stm32f4xx_ll_usb.c ****         ((ep->num) << 22U) | (USB_OTG_DOEPCTL_USBAEP));
 2360              		.loc 1 498 43 view .LVU679
 2361 001c 8B68     		ldr	r3, [r1, #8]
 498:Drivers/STM32F4xx_HAL_Driver/Src/stm32f4xx_ll_usb.c ****         ((ep->num) << 22U) | (USB_OTG_DOEPCTL_USBAEP));
 2362              		.loc 1 498 55 view .LVU680
 2363 001e C3F30A03 		ubfx	r3, r3, #0, #11
 498:Drivers/STM32F4xx_HAL_Driver/Src/stm32f4xx_ll_usb.c ****         ((ep->num) << 22U) | (USB_OTG_DOEPCTL_USBAEP));
 2364              		.loc 1 498 86 view .LVU681
 2365 0022 CE78     		ldrb	r6, [r1, #3]	@ zero_extendqisi2
 498:Drivers/STM32F4xx_HAL_Driver/Src/stm32f4xx_ll_usb.c ****         ((ep->num) << 22U) | (USB_OTG_DOEPCTL_USBAEP));
 2366              		.loc 1 498 81 view .LVU682
 2367 0024 43EA8643 		orr	r3, r3, r6, lsl #18
 498:Drivers/STM32F4xx_HAL_Driver/Src/stm32f4xx_ll_usb.c ****         ((ep->num) << 22U) | (USB_OTG_DOEPCTL_USBAEP));
 2368              		.loc 1 498 101 view .LVU683
 2369 0028 43EA8553 		orr	r3, r3, r5, lsl #22
 498:Drivers/STM32F4xx_HAL_Driver/Src/stm32f4xx_ll_usb.c ****         ((ep->num) << 22U) | (USB_OTG_DOEPCTL_USBAEP));
 2370              		.loc 1 498 36 view .LVU684
 2371 002c 2343     		orrs	r3, r3, r4
 2372 002e 43F40043 		orr	r3, r3, #32768
 2373 0032 C2F8003B 		str	r3, [r2, #2816]
 501:Drivers/STM32F4xx_HAL_Driver/Src/stm32f4xx_ll_usb.c ****       debug = (uint32_t )&USBx_OUTEP(ep->num)->DOEPCTL;
 2374              		.loc 1 501 7 is_stmt 1 view .LVU685
 501:Drivers/STM32F4xx_HAL_Driver/Src/stm32f4xx_ll_usb.c ****       debug = (uint32_t )&USBx_OUTEP(ep->num)->DOEPCTL;
 2375              		.loc 1 501 15 is_stmt 0 view .LVU686
 2376 0036 00F53063 		add	r3, r0, #2816
 501:Drivers/STM32F4xx_HAL_Driver/Src/stm32f4xx_ll_usb.c ****       debug = (uint32_t )&USBx_OUTEP(ep->num)->DOEPCTL;
 2377              		.loc 1 501 13 view .LVU687
 2378 003a 2A4A     		ldr	r2, .L136
 2379 003c 1360     		str	r3, [r2]
 502:Drivers/STM32F4xx_HAL_Driver/Src/stm32f4xx_ll_usb.c ****       debug |= ((ep->maxpacket & USB_OTG_DOEPCTL_MPSIZ ) | (ep->type << 18U) |\
 2380              		.loc 1 502 7 is_stmt 1 view .LVU688
 502:Drivers/STM32F4xx_HAL_Driver/Src/stm32f4xx_ll_usb.c ****       debug |= ((ep->maxpacket & USB_OTG_DOEPCTL_MPSIZ ) | (ep->type << 18U) |\
 2381              		.loc 1 502 27 is_stmt 0 view .LVU689
 2382 003e 0D78     		ldrb	r5, [r1]	@ zero_extendqisi2
 2383 0040 00EB4514 		add	r4, r0, r5, lsl #5
 2384 0044 04F53064 		add	r4, r4, #2816
 502:Drivers/STM32F4xx_HAL_Driver/Src/stm32f4xx_ll_usb.c ****       debug |= ((ep->maxpacket & USB_OTG_DOEPCTL_MPSIZ ) | (ep->type << 18U) |\
 2385              		.loc 1 502 13 view .LVU690
 2386 0048 1460     		str	r4, [r2]
 503:Drivers/STM32F4xx_HAL_Driver/Src/stm32f4xx_ll_usb.c ****         ((ep->num) << 22U) | (USB_OTG_DOEPCTL_USBAEP)); 
 2387              		.loc 1 503 7 is_stmt 1 view .LVU691
 503:Drivers/STM32F4xx_HAL_Driver/Src/stm32f4xx_ll_usb.c ****         ((ep->num) << 22U) | (USB_OTG_DOEPCTL_USBAEP)); 
 2388              		.loc 1 503 20 is_stmt 0 view .LVU692
 2389 004a 8B68     		ldr	r3, [r1, #8]
 503:Drivers/STM32F4xx_HAL_Driver/Src/stm32f4xx_ll_usb.c ****         ((ep->num) << 22U) | (USB_OTG_DOEPCTL_USBAEP)); 
 2390              		.loc 1 503 32 view .LVU693
ARM GAS  C:\Users\gx\AppData\Local\Temp\ccXSZ03x.s 			page 80


 2391 004c C3F30A03 		ubfx	r3, r3, #0, #11
 503:Drivers/STM32F4xx_HAL_Driver/Src/stm32f4xx_ll_usb.c ****         ((ep->num) << 22U) | (USB_OTG_DOEPCTL_USBAEP)); 
 2392              		.loc 1 503 63 view .LVU694
 2393 0050 CC78     		ldrb	r4, [r1, #3]	@ zero_extendqisi2
 503:Drivers/STM32F4xx_HAL_Driver/Src/stm32f4xx_ll_usb.c ****         ((ep->num) << 22U) | (USB_OTG_DOEPCTL_USBAEP)); 
 2394              		.loc 1 503 58 view .LVU695
 2395 0052 43EA8443 		orr	r3, r3, r4, lsl #18
 503:Drivers/STM32F4xx_HAL_Driver/Src/stm32f4xx_ll_usb.c ****         ((ep->num) << 22U) | (USB_OTG_DOEPCTL_USBAEP)); 
 2396              		.loc 1 503 78 view .LVU696
 2397 0056 43EA8553 		orr	r3, r3, r5, lsl #22
 503:Drivers/STM32F4xx_HAL_Driver/Src/stm32f4xx_ll_usb.c ****         ((ep->num) << 22U) | (USB_OTG_DOEPCTL_USBAEP)); 
 2398              		.loc 1 503 13 view .LVU697
 2399 005a 1468     		ldr	r4, [r2]
 2400 005c 2343     		orrs	r3, r3, r4
 2401 005e 43F40043 		orr	r3, r3, #32768
 2402 0062 1360     		str	r3, [r2]
 2403              	.L133:
 507:Drivers/STM32F4xx_HAL_Driver/Src/stm32f4xx_ll_usb.c ****   }
 2404              		.loc 1 507 6 is_stmt 1 view .LVU698
 507:Drivers/STM32F4xx_HAL_Driver/Src/stm32f4xx_ll_usb.c ****   }
 2405              		.loc 1 507 28 is_stmt 0 view .LVU699
 2406 0064 D0F83C38 		ldr	r3, [r0, #2108]
 507:Drivers/STM32F4xx_HAL_Driver/Src/stm32f4xx_ll_usb.c ****   }
 2407              		.loc 1 507 66 view .LVU700
 2408 0068 0978     		ldrb	r1, [r1]	@ zero_extendqisi2
 2409              	.LVL169:
 507:Drivers/STM32F4xx_HAL_Driver/Src/stm32f4xx_ll_usb.c ****   }
 2410              		.loc 1 507 60 view .LVU701
 2411 006a 0122     		movs	r2, #1
 2412 006c 8A40     		lsls	r2, r2, r1
 507:Drivers/STM32F4xx_HAL_Driver/Src/stm32f4xx_ll_usb.c ****   }
 2413              		.loc 1 507 28 view .LVU702
 2414 006e 43EA0243 		orr	r3, r3, r2, lsl #16
 2415 0072 C0F83C38 		str	r3, [r0, #2108]
 2416              	.L132:
 510:Drivers/STM32F4xx_HAL_Driver/Src/stm32f4xx_ll_usb.c **** }
 2417              		.loc 1 510 3 is_stmt 1 view .LVU703
 511:Drivers/STM32F4xx_HAL_Driver/Src/stm32f4xx_ll_usb.c **** /**
 2418              		.loc 1 511 1 is_stmt 0 view .LVU704
 2419 0076 0020     		movs	r0, #0
 2420              	.LVL170:
 511:Drivers/STM32F4xx_HAL_Driver/Src/stm32f4xx_ll_usb.c **** /**
 2421              		.loc 1 511 1 view .LVU705
 2422 0078 70BC     		pop	{r4, r5, r6}
 2423              	.LCFI43:
 2424              		.cfi_remember_state
 2425              		.cfi_restore 6
 2426              		.cfi_restore 5
 2427              		.cfi_restore 4
 2428              		.cfi_def_cfa_offset 0
 2429 007a 7047     		bx	lr
 2430              	.LVL171:
 2431              	.L135:
 2432              	.LCFI44:
 2433              		.cfi_restore_state
 482:Drivers/STM32F4xx_HAL_Driver/Src/stm32f4xx_ll_usb.c ****     {
 2434              		.loc 1 482 5 is_stmt 1 view .LVU706
ARM GAS  C:\Users\gx\AppData\Local\Temp\ccXSZ03x.s 			page 81


 482:Drivers/STM32F4xx_HAL_Driver/Src/stm32f4xx_ll_usb.c ****     {
 2435              		.loc 1 482 11 is_stmt 0 view .LVU707
 2436 007c 0D78     		ldrb	r5, [r1]	@ zero_extendqisi2
 2437 007e 00EB4514 		add	r4, r0, r5, lsl #5
 482:Drivers/STM32F4xx_HAL_Driver/Src/stm32f4xx_ll_usb.c ****     {
 2438              		.loc 1 482 29 view .LVU708
 2439 0082 D4F80039 		ldr	r3, [r4, #2304]
 482:Drivers/STM32F4xx_HAL_Driver/Src/stm32f4xx_ll_usb.c ****     {
 2440              		.loc 1 482 8 view .LVU709
 2441 0086 13F4004F 		tst	r3, #32768
 2442 008a 10D1     		bne	.L131
 484:Drivers/STM32F4xx_HAL_Driver/Src/stm32f4xx_ll_usb.c ****         ((ep->num) << 22U) | (USB_OTG_DIEPCTL_SD0PID_SEVNFRM) | (USB_OTG_DIEPCTL_USBAEP)); 
 2443              		.loc 1 484 7 is_stmt 1 view .LVU710
 484:Drivers/STM32F4xx_HAL_Driver/Src/stm32f4xx_ll_usb.c ****         ((ep->num) << 22U) | (USB_OTG_DIEPCTL_SD0PID_SEVNFRM) | (USB_OTG_DIEPCTL_USBAEP)); 
 2444              		.loc 1 484 35 is_stmt 0 view .LVU711
 2445 008c D4F80039 		ldr	r3, [r4, #2304]
 484:Drivers/STM32F4xx_HAL_Driver/Src/stm32f4xx_ll_usb.c ****         ((ep->num) << 22U) | (USB_OTG_DIEPCTL_SD0PID_SEVNFRM) | (USB_OTG_DIEPCTL_USBAEP)); 
 2446              		.loc 1 484 42 view .LVU712
 2447 0090 8A68     		ldr	r2, [r1, #8]
 484:Drivers/STM32F4xx_HAL_Driver/Src/stm32f4xx_ll_usb.c ****         ((ep->num) << 22U) | (USB_OTG_DIEPCTL_SD0PID_SEVNFRM) | (USB_OTG_DIEPCTL_USBAEP)); 
 2448              		.loc 1 484 54 view .LVU713
 2449 0092 C2F30A02 		ubfx	r2, r2, #0, #11
 484:Drivers/STM32F4xx_HAL_Driver/Src/stm32f4xx_ll_usb.c ****         ((ep->num) << 22U) | (USB_OTG_DIEPCTL_SD0PID_SEVNFRM) | (USB_OTG_DIEPCTL_USBAEP)); 
 2450              		.loc 1 484 85 view .LVU714
 2451 0096 CE78     		ldrb	r6, [r1, #3]	@ zero_extendqisi2
 484:Drivers/STM32F4xx_HAL_Driver/Src/stm32f4xx_ll_usb.c ****         ((ep->num) << 22U) | (USB_OTG_DIEPCTL_SD0PID_SEVNFRM) | (USB_OTG_DIEPCTL_USBAEP)); 
 2452              		.loc 1 484 80 view .LVU715
 2453 0098 42EA8642 		orr	r2, r2, r6, lsl #18
 484:Drivers/STM32F4xx_HAL_Driver/Src/stm32f4xx_ll_usb.c ****         ((ep->num) << 22U) | (USB_OTG_DIEPCTL_SD0PID_SEVNFRM) | (USB_OTG_DIEPCTL_USBAEP)); 
 2454              		.loc 1 484 100 view .LVU716
 2455 009c 42EA8552 		orr	r2, r2, r5, lsl #22
 484:Drivers/STM32F4xx_HAL_Driver/Src/stm32f4xx_ll_usb.c ****         ((ep->num) << 22U) | (USB_OTG_DIEPCTL_SD0PID_SEVNFRM) | (USB_OTG_DIEPCTL_USBAEP)); 
 2456              		.loc 1 484 35 view .LVU717
 2457 00a0 1343     		orrs	r3, r3, r2
 2458 00a2 43F08053 		orr	r3, r3, #268435456
 2459 00a6 43F40043 		orr	r3, r3, #32768
 2460 00aa C4F80039 		str	r3, [r4, #2304]
 2461              	.L131:
 489:Drivers/STM32F4xx_HAL_Driver/Src/stm32f4xx_ll_usb.c ****         ((ep->num) << 22U) | (USB_OTG_DIEPCTL_SD0PID_SEVNFRM) | (USB_OTG_DIEPCTL_USBAEP)); 
 2462              		.loc 1 489 5 is_stmt 1 view .LVU718
 489:Drivers/STM32F4xx_HAL_Driver/Src/stm32f4xx_ll_usb.c ****         ((ep->num) << 22U) | (USB_OTG_DIEPCTL_SD0PID_SEVNFRM) | (USB_OTG_DIEPCTL_USBAEP)); 
 2463              		.loc 1 489 19 is_stmt 0 view .LVU719
 2464 00ae 8B68     		ldr	r3, [r1, #8]
 489:Drivers/STM32F4xx_HAL_Driver/Src/stm32f4xx_ll_usb.c ****         ((ep->num) << 22U) | (USB_OTG_DIEPCTL_SD0PID_SEVNFRM) | (USB_OTG_DIEPCTL_USBAEP)); 
 2465              		.loc 1 489 31 view .LVU720
 2466 00b0 C3F30A03 		ubfx	r3, r3, #0, #11
 489:Drivers/STM32F4xx_HAL_Driver/Src/stm32f4xx_ll_usb.c ****         ((ep->num) << 22U) | (USB_OTG_DIEPCTL_SD0PID_SEVNFRM) | (USB_OTG_DIEPCTL_USBAEP)); 
 2467              		.loc 1 489 62 view .LVU721
 2468 00b4 CA78     		ldrb	r2, [r1, #3]	@ zero_extendqisi2
 489:Drivers/STM32F4xx_HAL_Driver/Src/stm32f4xx_ll_usb.c ****         ((ep->num) << 22U) | (USB_OTG_DIEPCTL_SD0PID_SEVNFRM) | (USB_OTG_DIEPCTL_USBAEP)); 
 2469              		.loc 1 489 57 view .LVU722
 2470 00b6 43EA8243 		orr	r3, r3, r2, lsl #18
 490:Drivers/STM32F4xx_HAL_Driver/Src/stm32f4xx_ll_usb.c ****     
 2471              		.loc 1 490 13 view .LVU723
 2472 00ba 0978     		ldrb	r1, [r1]	@ zero_extendqisi2
 2473              	.LVL172:
 489:Drivers/STM32F4xx_HAL_Driver/Src/stm32f4xx_ll_usb.c ****         ((ep->num) << 22U) | (USB_OTG_DIEPCTL_SD0PID_SEVNFRM) | (USB_OTG_DIEPCTL_USBAEP)); 
ARM GAS  C:\Users\gx\AppData\Local\Temp\ccXSZ03x.s 			page 82


 2474              		.loc 1 489 77 view .LVU724
 2475 00bc 43EA8153 		orr	r3, r3, r1, lsl #22
 489:Drivers/STM32F4xx_HAL_Driver/Src/stm32f4xx_ll_usb.c ****         ((ep->num) << 22U) | (USB_OTG_DIEPCTL_SD0PID_SEVNFRM) | (USB_OTG_DIEPCTL_USBAEP)); 
 2476              		.loc 1 489 12 view .LVU725
 2477 00c0 084A     		ldr	r2, .L136
 2478 00c2 1468     		ldr	r4, [r2]
 2479 00c4 2343     		orrs	r3, r3, r4
 2480 00c6 43F08053 		orr	r3, r3, #268435456
 2481 00ca 43F40043 		orr	r3, r3, #32768
 2482 00ce 1360     		str	r3, [r2]
 492:Drivers/STM32F4xx_HAL_Driver/Src/stm32f4xx_ll_usb.c ****   }
 2483              		.loc 1 492 4 is_stmt 1 view .LVU726
 492:Drivers/STM32F4xx_HAL_Driver/Src/stm32f4xx_ll_usb.c ****   }
 2484              		.loc 1 492 26 is_stmt 0 view .LVU727
 2485 00d0 D0F83C28 		ldr	r2, [r0, #2108]
 492:Drivers/STM32F4xx_HAL_Driver/Src/stm32f4xx_ll_usb.c ****   }
 2486              		.loc 1 492 58 view .LVU728
 2487 00d4 0123     		movs	r3, #1
 2488 00d6 8B40     		lsls	r3, r3, r1
 492:Drivers/STM32F4xx_HAL_Driver/Src/stm32f4xx_ll_usb.c ****   }
 2489              		.loc 1 492 51 view .LVU729
 2490 00d8 9BB2     		uxth	r3, r3
 492:Drivers/STM32F4xx_HAL_Driver/Src/stm32f4xx_ll_usb.c ****   }
 2491              		.loc 1 492 26 view .LVU730
 2492 00da 1343     		orrs	r3, r3, r2
 2493 00dc C0F83C38 		str	r3, [r0, #2108]
 2494 00e0 C9E7     		b	.L132
 2495              	.L137:
 2496 00e2 00BF     		.align	2
 2497              	.L136:
 2498 00e4 00000000 		.word	.LANCHOR0
 2499              		.cfi_endproc
 2500              	.LFE136:
 2502              		.section	.text.USB_DeactivateEndpoint,"ax",%progbits
 2503              		.align	1
 2504              		.global	USB_DeactivateEndpoint
 2505              		.syntax unified
 2506              		.thumb
 2507              		.thumb_func
 2508              		.fpu fpv4-sp-d16
 2510              	USB_DeactivateEndpoint:
 2511              	.LVL173:
 2512              	.LFB137:
 519:Drivers/STM32F4xx_HAL_Driver/Src/stm32f4xx_ll_usb.c ****   uint32_t count = 0U;
 2513              		.loc 1 519 1 is_stmt 1 view -0
 2514              		.cfi_startproc
 2515              		@ args = 0, pretend = 0, frame = 0
 2516              		@ frame_needed = 0, uses_anonymous_args = 0
 519:Drivers/STM32F4xx_HAL_Driver/Src/stm32f4xx_ll_usb.c ****   uint32_t count = 0U;
 2517              		.loc 1 519 1 is_stmt 0 view .LVU732
 2518 0000 38B5     		push	{r3, r4, r5, lr}
 2519              	.LCFI45:
 2520              		.cfi_def_cfa_offset 16
 2521              		.cfi_offset 3, -16
 2522              		.cfi_offset 4, -12
 2523              		.cfi_offset 5, -8
 2524              		.cfi_offset 14, -4
ARM GAS  C:\Users\gx\AppData\Local\Temp\ccXSZ03x.s 			page 83


 2525 0002 0546     		mov	r5, r0
 2526 0004 0C46     		mov	r4, r1
 520:Drivers/STM32F4xx_HAL_Driver/Src/stm32f4xx_ll_usb.c ****   
 2527              		.loc 1 520 3 is_stmt 1 view .LVU733
 2528              	.LVL174:
 523:Drivers/STM32F4xx_HAL_Driver/Src/stm32f4xx_ll_usb.c ****   {
 2529              		.loc 1 523 3 view .LVU734
 523:Drivers/STM32F4xx_HAL_Driver/Src/stm32f4xx_ll_usb.c ****   {
 2530              		.loc 1 523 9 is_stmt 0 view .LVU735
 2531 0006 4B78     		ldrb	r3, [r1, #1]	@ zero_extendqisi2
 523:Drivers/STM32F4xx_HAL_Driver/Src/stm32f4xx_ll_usb.c ****   {
 2532              		.loc 1 523 6 view .LVU736
 2533 0008 012B     		cmp	r3, #1
 2534 000a 36D0     		beq	.L146
 555:Drivers/STM32F4xx_HAL_Driver/Src/stm32f4xx_ll_usb.c ****     
 2535              		.loc 1 555 5 is_stmt 1 view .LVU737
 2536 000c 0B78     		ldrb	r3, [r1]	@ zero_extendqisi2
 555:Drivers/STM32F4xx_HAL_Driver/Src/stm32f4xx_ll_usb.c ****     
 2537              		.loc 1 555 34 is_stmt 0 view .LVU738
 2538 000e 0146     		mov	r1, r0
 2539              	.LVL175:
 555:Drivers/STM32F4xx_HAL_Driver/Src/stm32f4xx_ll_usb.c ****     
 2540              		.loc 1 555 34 view .LVU739
 2541 0010 00EB4313 		add	r3, r0, r3, lsl #5
 2542 0014 D3F8002B 		ldr	r2, [r3, #2816]
 2543 0018 22F40042 		bic	r2, r2, #32768
 2544 001c C3F8002B 		str	r2, [r3, #2816]
 558:Drivers/STM32F4xx_HAL_Driver/Src/stm32f4xx_ll_usb.c ****     
 2545              		.loc 1 558 5 is_stmt 1 view .LVU740
 2546 0020 2378     		ldrb	r3, [r4]	@ zero_extendqisi2
 2547 0022 00EB4313 		add	r3, r0, r3, lsl #5
 558:Drivers/STM32F4xx_HAL_Driver/Src/stm32f4xx_ll_usb.c ****     
 2548              		.loc 1 558 34 is_stmt 0 view .LVU741
 2549 0026 4FF00062 		mov	r2, #134217728
 2550 002a C3F8002B 		str	r2, [r3, #2816]
 561:Drivers/STM32F4xx_HAL_Driver/Src/stm32f4xx_ll_usb.c ****     
 2551              		.loc 1 561 5 is_stmt 1 view .LVU742
 2552 002e 2378     		ldrb	r3, [r4]	@ zero_extendqisi2
 2553 0030 00EB4313 		add	r3, r0, r3, lsl #5
 561:Drivers/STM32F4xx_HAL_Driver/Src/stm32f4xx_ll_usb.c ****     
 2554              		.loc 1 561 34 is_stmt 0 view .LVU743
 2555 0034 4FF08042 		mov	r2, #1073741824
 2556 0038 C3F8002B 		str	r2, [r3, #2816]
 520:Drivers/STM32F4xx_HAL_Driver/Src/stm32f4xx_ll_usb.c ****   
 2557              		.loc 1 520 12 view .LVU744
 2558 003c 0022     		movs	r2, #0
 2559              	.LVL176:
 2560              	.L142:
 563:Drivers/STM32F4xx_HAL_Driver/Src/stm32f4xx_ll_usb.c ****     {
 2561              		.loc 1 563 5 is_stmt 1 view .LVU745
 565:Drivers/STM32F4xx_HAL_Driver/Src/stm32f4xx_ll_usb.c ****       {
 2562              		.loc 1 565 7 view .LVU746
 565:Drivers/STM32F4xx_HAL_Driver/Src/stm32f4xx_ll_usb.c ****       {
 2563              		.loc 1 565 10 is_stmt 0 view .LVU747
 2564 003e 0132     		adds	r2, r2, #1
 2565              	.LVL177:
 565:Drivers/STM32F4xx_HAL_Driver/Src/stm32f4xx_ll_usb.c ****       {
ARM GAS  C:\Users\gx\AppData\Local\Temp\ccXSZ03x.s 			page 84


 2566              		.loc 1 565 10 view .LVU748
 2567 0040 2B4B     		ldr	r3, .L147
 2568 0042 9A42     		cmp	r2, r3
 2569 0044 51D8     		bhi	.L144
 572:Drivers/STM32F4xx_HAL_Driver/Src/stm32f4xx_ll_usb.c ****     
 2570              		.loc 1 572 11 is_stmt 1 view .LVU749
 572:Drivers/STM32F4xx_HAL_Driver/Src/stm32f4xx_ll_usb.c ****     
 2571              		.loc 1 572 13 is_stmt 0 view .LVU750
 2572 0046 2378     		ldrb	r3, [r4]	@ zero_extendqisi2
 2573 0048 01EB4313 		add	r3, r1, r3, lsl #5
 2574 004c 03F53063 		add	r3, r3, #2816
 572:Drivers/STM32F4xx_HAL_Driver/Src/stm32f4xx_ll_usb.c ****     
 2575              		.loc 1 572 32 view .LVU751
 2576 0050 9B68     		ldr	r3, [r3, #8]
 572:Drivers/STM32F4xx_HAL_Driver/Src/stm32f4xx_ll_usb.c ****     
 2577              		.loc 1 572 5 view .LVU752
 2578 0052 13F0100F 		tst	r3, #16
 2579 0056 F2D1     		bne	.L142
 575:Drivers/STM32F4xx_HAL_Driver/Src/stm32f4xx_ll_usb.c ****     
 2580              		.loc 1 575 5 is_stmt 1 view .LVU753
 575:Drivers/STM32F4xx_HAL_Driver/Src/stm32f4xx_ll_usb.c ****     
 2581              		.loc 1 575 23 is_stmt 0 view .LVU754
 2582 0058 D5F80438 		ldr	r3, [r5, #2052]
 2583 005c 43F48063 		orr	r3, r3, #1024
 2584 0060 C5F80438 		str	r3, [r5, #2052]
 578:Drivers/STM32F4xx_HAL_Driver/Src/stm32f4xx_ll_usb.c ****   }
 2585              		.loc 1 578 5 is_stmt 1 view .LVU755
 578:Drivers/STM32F4xx_HAL_Driver/Src/stm32f4xx_ll_usb.c ****   }
 2586              		.loc 1 578 27 is_stmt 0 view .LVU756
 2587 0064 D5F81C38 		ldr	r3, [r5, #2076]
 578:Drivers/STM32F4xx_HAL_Driver/Src/stm32f4xx_ll_usb.c ****   }
 2588              		.loc 1 578 67 view .LVU757
 2589 0068 2178     		ldrb	r1, [r4]	@ zero_extendqisi2
 578:Drivers/STM32F4xx_HAL_Driver/Src/stm32f4xx_ll_usb.c ****   }
 2590              		.loc 1 578 61 view .LVU758
 2591 006a 0122     		movs	r2, #1
 2592              	.LVL178:
 578:Drivers/STM32F4xx_HAL_Driver/Src/stm32f4xx_ll_usb.c ****   }
 2593              		.loc 1 578 61 view .LVU759
 2594 006c 8A40     		lsls	r2, r2, r1
 578:Drivers/STM32F4xx_HAL_Driver/Src/stm32f4xx_ll_usb.c ****   }
 2595              		.loc 1 578 27 view .LVU760
 2596 006e 23EA0243 		bic	r3, r3, r2, lsl #16
 2597 0072 C5F81C38 		str	r3, [r5, #2076]
 580:Drivers/STM32F4xx_HAL_Driver/Src/stm32f4xx_ll_usb.c **** }
 2598              		.loc 1 580 10 view .LVU761
 2599 0076 0020     		movs	r0, #0
 2600              	.LVL179:
 2601              	.L140:
 581:Drivers/STM32F4xx_HAL_Driver/Src/stm32f4xx_ll_usb.c **** 
 2602              		.loc 1 581 1 view .LVU762
 2603 0078 38BD     		pop	{r3, r4, r5, pc}
 2604              	.LVL180:
 2605              	.L146:
 525:Drivers/STM32F4xx_HAL_Driver/Src/stm32f4xx_ll_usb.c ****     
 2606              		.loc 1 525 5 is_stmt 1 view .LVU763
 2607 007a 0B78     		ldrb	r3, [r1]	@ zero_extendqisi2
ARM GAS  C:\Users\gx\AppData\Local\Temp\ccXSZ03x.s 			page 85


 525:Drivers/STM32F4xx_HAL_Driver/Src/stm32f4xx_ll_usb.c ****     
 2608              		.loc 1 525 33 is_stmt 0 view .LVU764
 2609 007c 0146     		mov	r1, r0
 2610              	.LVL181:
 525:Drivers/STM32F4xx_HAL_Driver/Src/stm32f4xx_ll_usb.c ****     
 2611              		.loc 1 525 33 view .LVU765
 2612 007e 00EB4313 		add	r3, r0, r3, lsl #5
 2613 0082 D3F80029 		ldr	r2, [r3, #2304]
 2614 0086 22F40042 		bic	r2, r2, #32768
 2615 008a C3F80029 		str	r2, [r3, #2304]
 528:Drivers/STM32F4xx_HAL_Driver/Src/stm32f4xx_ll_usb.c ****     
 2616              		.loc 1 528 5 is_stmt 1 view .LVU766
 2617 008e 2378     		ldrb	r3, [r4]	@ zero_extendqisi2
 2618 0090 00EB4313 		add	r3, r0, r3, lsl #5
 528:Drivers/STM32F4xx_HAL_Driver/Src/stm32f4xx_ll_usb.c ****     
 2619              		.loc 1 528 33 is_stmt 0 view .LVU767
 2620 0094 4FF00062 		mov	r2, #134217728
 2621 0098 C3F80029 		str	r2, [r3, #2304]
 531:Drivers/STM32F4xx_HAL_Driver/Src/stm32f4xx_ll_usb.c ****     
 2622              		.loc 1 531 5 is_stmt 1 view .LVU768
 2623 009c 2378     		ldrb	r3, [r4]	@ zero_extendqisi2
 2624 009e 00EB4313 		add	r3, r0, r3, lsl #5
 531:Drivers/STM32F4xx_HAL_Driver/Src/stm32f4xx_ll_usb.c ****     
 2625              		.loc 1 531 33 is_stmt 0 view .LVU769
 2626 00a2 4FF08042 		mov	r2, #1073741824
 2627 00a6 C3F80029 		str	r2, [r3, #2304]
 520:Drivers/STM32F4xx_HAL_Driver/Src/stm32f4xx_ll_usb.c ****   
 2628              		.loc 1 520 12 view .LVU770
 2629 00aa 0022     		movs	r2, #0
 2630              	.LVL182:
 2631              	.L141:
 533:Drivers/STM32F4xx_HAL_Driver/Src/stm32f4xx_ll_usb.c ****     {
 2632              		.loc 1 533 5 is_stmt 1 view .LVU771
 535:Drivers/STM32F4xx_HAL_Driver/Src/stm32f4xx_ll_usb.c ****       {
 2633              		.loc 1 535 7 view .LVU772
 535:Drivers/STM32F4xx_HAL_Driver/Src/stm32f4xx_ll_usb.c ****       {
 2634              		.loc 1 535 10 is_stmt 0 view .LVU773
 2635 00ac 0132     		adds	r2, r2, #1
 2636              	.LVL183:
 535:Drivers/STM32F4xx_HAL_Driver/Src/stm32f4xx_ll_usb.c ****       {
 2637              		.loc 1 535 10 view .LVU774
 2638 00ae 104B     		ldr	r3, .L147
 2639 00b0 9A42     		cmp	r2, r3
 2640 00b2 18D8     		bhi	.L143
 542:Drivers/STM32F4xx_HAL_Driver/Src/stm32f4xx_ll_usb.c ****     
 2641              		.loc 1 542 11 is_stmt 1 view .LVU775
 542:Drivers/STM32F4xx_HAL_Driver/Src/stm32f4xx_ll_usb.c ****     
 2642              		.loc 1 542 13 is_stmt 0 view .LVU776
 2643 00b4 2378     		ldrb	r3, [r4]	@ zero_extendqisi2
 2644 00b6 01EB4313 		add	r3, r1, r3, lsl #5
 2645 00ba 03F51063 		add	r3, r3, #2304
 542:Drivers/STM32F4xx_HAL_Driver/Src/stm32f4xx_ll_usb.c ****     
 2646              		.loc 1 542 31 view .LVU777
 2647 00be 9B68     		ldr	r3, [r3, #8]
 542:Drivers/STM32F4xx_HAL_Driver/Src/stm32f4xx_ll_usb.c ****     
 2648              		.loc 1 542 5 view .LVU778
 2649 00c0 13F0804F 		tst	r3, #1073741824
ARM GAS  C:\Users\gx\AppData\Local\Temp\ccXSZ03x.s 			page 86


 2650 00c4 F2D1     		bne	.L141
 546:Drivers/STM32F4xx_HAL_Driver/Src/stm32f4xx_ll_usb.c ****     
 2651              		.loc 1 546 5 is_stmt 1 view .LVU779
 2652 00c6 1021     		movs	r1, #16
 2653 00c8 2846     		mov	r0, r5
 2654              	.LVL184:
 546:Drivers/STM32F4xx_HAL_Driver/Src/stm32f4xx_ll_usb.c ****     
 2655              		.loc 1 546 5 is_stmt 0 view .LVU780
 2656 00ca FFF7FEFF 		bl	USB_FlushTxFifo
 2657              	.LVL185:
 549:Drivers/STM32F4xx_HAL_Driver/Src/stm32f4xx_ll_usb.c ****   
 2658              		.loc 1 549 5 is_stmt 1 view .LVU781
 549:Drivers/STM32F4xx_HAL_Driver/Src/stm32f4xx_ll_usb.c ****   
 2659              		.loc 1 549 27 is_stmt 0 view .LVU782
 2660 00ce D5F81C28 		ldr	r2, [r5, #2076]
 549:Drivers/STM32F4xx_HAL_Driver/Src/stm32f4xx_ll_usb.c ****   
 2661              		.loc 1 549 67 view .LVU783
 2662 00d2 2178     		ldrb	r1, [r4]	@ zero_extendqisi2
 549:Drivers/STM32F4xx_HAL_Driver/Src/stm32f4xx_ll_usb.c ****   
 2663              		.loc 1 549 61 view .LVU784
 2664 00d4 0123     		movs	r3, #1
 2665 00d6 8B40     		lsls	r3, r3, r1
 549:Drivers/STM32F4xx_HAL_Driver/Src/stm32f4xx_ll_usb.c ****   
 2666              		.loc 1 549 54 view .LVU785
 2667 00d8 9BB2     		uxth	r3, r3
 549:Drivers/STM32F4xx_HAL_Driver/Src/stm32f4xx_ll_usb.c ****   
 2668              		.loc 1 549 27 view .LVU786
 2669 00da 22EA0303 		bic	r3, r2, r3
 2670 00de C5F81C38 		str	r3, [r5, #2076]
 580:Drivers/STM32F4xx_HAL_Driver/Src/stm32f4xx_ll_usb.c **** }
 2671              		.loc 1 580 10 view .LVU787
 2672 00e2 0020     		movs	r0, #0
 2673 00e4 C8E7     		b	.L140
 2674              	.LVL186:
 2675              	.L143:
 537:Drivers/STM32F4xx_HAL_Driver/Src/stm32f4xx_ll_usb.c ****       }
 2676              		.loc 1 537 16 view .LVU788
 2677 00e6 0320     		movs	r0, #3
 2678              	.LVL187:
 537:Drivers/STM32F4xx_HAL_Driver/Src/stm32f4xx_ll_usb.c ****       }
 2679              		.loc 1 537 16 view .LVU789
 2680 00e8 C6E7     		b	.L140
 2681              	.LVL188:
 2682              	.L144:
 567:Drivers/STM32F4xx_HAL_Driver/Src/stm32f4xx_ll_usb.c ****       }
 2683              		.loc 1 567 16 view .LVU790
 2684 00ea 0320     		movs	r0, #3
 2685              	.LVL189:
 567:Drivers/STM32F4xx_HAL_Driver/Src/stm32f4xx_ll_usb.c ****       }
 2686              		.loc 1 567 16 view .LVU791
 2687 00ec C4E7     		b	.L140
 2688              	.L148:
 2689 00ee 00BF     		.align	2
 2690              	.L147:
 2691 00f0 400D0300 		.word	200000
 2692              		.cfi_endproc
 2693              	.LFE137:
ARM GAS  C:\Users\gx\AppData\Local\Temp\ccXSZ03x.s 			page 87


 2695              		.section	.text.USB_DeactivateDedicatedEndpoint,"ax",%progbits
 2696              		.align	1
 2697              		.global	USB_DeactivateDedicatedEndpoint
 2698              		.syntax unified
 2699              		.thumb
 2700              		.thumb_func
 2701              		.fpu fpv4-sp-d16
 2703              	USB_DeactivateDedicatedEndpoint:
 2704              	.LVL190:
 2705              	.LFB138:
 590:Drivers/STM32F4xx_HAL_Driver/Src/stm32f4xx_ll_usb.c ****   uint32_t count = 0U;
 2706              		.loc 1 590 1 is_stmt 1 view -0
 2707              		.cfi_startproc
 2708              		@ args = 0, pretend = 0, frame = 0
 2709              		@ frame_needed = 0, uses_anonymous_args = 0
 590:Drivers/STM32F4xx_HAL_Driver/Src/stm32f4xx_ll_usb.c ****   uint32_t count = 0U;
 2710              		.loc 1 590 1 is_stmt 0 view .LVU793
 2711 0000 38B5     		push	{r3, r4, r5, lr}
 2712              	.LCFI46:
 2713              		.cfi_def_cfa_offset 16
 2714              		.cfi_offset 3, -16
 2715              		.cfi_offset 4, -12
 2716              		.cfi_offset 5, -8
 2717              		.cfi_offset 14, -4
 2718 0002 0546     		mov	r5, r0
 2719 0004 0C46     		mov	r4, r1
 591:Drivers/STM32F4xx_HAL_Driver/Src/stm32f4xx_ll_usb.c ****   
 2720              		.loc 1 591 3 is_stmt 1 view .LVU794
 2721              	.LVL191:
 594:Drivers/STM32F4xx_HAL_Driver/Src/stm32f4xx_ll_usb.c ****   {
 2722              		.loc 1 594 3 view .LVU795
 594:Drivers/STM32F4xx_HAL_Driver/Src/stm32f4xx_ll_usb.c ****   {
 2723              		.loc 1 594 9 is_stmt 0 view .LVU796
 2724 0006 4B78     		ldrb	r3, [r1, #1]	@ zero_extendqisi2
 594:Drivers/STM32F4xx_HAL_Driver/Src/stm32f4xx_ll_usb.c ****   {
 2725              		.loc 1 594 6 view .LVU797
 2726 0008 012B     		cmp	r3, #1
 2727 000a 36D0     		beq	.L157
 626:Drivers/STM32F4xx_HAL_Driver/Src/stm32f4xx_ll_usb.c ****     
 2728              		.loc 1 626 5 is_stmt 1 view .LVU798
 2729 000c 0B78     		ldrb	r3, [r1]	@ zero_extendqisi2
 626:Drivers/STM32F4xx_HAL_Driver/Src/stm32f4xx_ll_usb.c ****     
 2730              		.loc 1 626 34 is_stmt 0 view .LVU799
 2731 000e 0146     		mov	r1, r0
 2732              	.LVL192:
 626:Drivers/STM32F4xx_HAL_Driver/Src/stm32f4xx_ll_usb.c ****     
 2733              		.loc 1 626 34 view .LVU800
 2734 0010 00EB4313 		add	r3, r0, r3, lsl #5
 2735 0014 D3F8002B 		ldr	r2, [r3, #2816]
 2736 0018 22F40042 		bic	r2, r2, #32768
 2737 001c C3F8002B 		str	r2, [r3, #2816]
 629:Drivers/STM32F4xx_HAL_Driver/Src/stm32f4xx_ll_usb.c ****     
 2738              		.loc 1 629 5 is_stmt 1 view .LVU801
 2739 0020 2378     		ldrb	r3, [r4]	@ zero_extendqisi2
 2740 0022 00EB4313 		add	r3, r0, r3, lsl #5
 629:Drivers/STM32F4xx_HAL_Driver/Src/stm32f4xx_ll_usb.c ****     
 2741              		.loc 1 629 34 is_stmt 0 view .LVU802
ARM GAS  C:\Users\gx\AppData\Local\Temp\ccXSZ03x.s 			page 88


 2742 0026 4FF00062 		mov	r2, #134217728
 2743 002a C3F8002B 		str	r2, [r3, #2816]
 632:Drivers/STM32F4xx_HAL_Driver/Src/stm32f4xx_ll_usb.c ****     
 2744              		.loc 1 632 5 is_stmt 1 view .LVU803
 2745 002e 2378     		ldrb	r3, [r4]	@ zero_extendqisi2
 2746 0030 00EB4313 		add	r3, r0, r3, lsl #5
 632:Drivers/STM32F4xx_HAL_Driver/Src/stm32f4xx_ll_usb.c ****     
 2747              		.loc 1 632 34 is_stmt 0 view .LVU804
 2748 0034 4FF08042 		mov	r2, #1073741824
 2749 0038 C3F8002B 		str	r2, [r3, #2816]
 591:Drivers/STM32F4xx_HAL_Driver/Src/stm32f4xx_ll_usb.c ****   
 2750              		.loc 1 591 12 view .LVU805
 2751 003c 0022     		movs	r2, #0
 2752              	.LVL193:
 2753              	.L153:
 634:Drivers/STM32F4xx_HAL_Driver/Src/stm32f4xx_ll_usb.c ****     {
 2754              		.loc 1 634 5 is_stmt 1 view .LVU806
 636:Drivers/STM32F4xx_HAL_Driver/Src/stm32f4xx_ll_usb.c ****       {
 2755              		.loc 1 636 7 view .LVU807
 636:Drivers/STM32F4xx_HAL_Driver/Src/stm32f4xx_ll_usb.c ****       {
 2756              		.loc 1 636 10 is_stmt 0 view .LVU808
 2757 003e 0132     		adds	r2, r2, #1
 2758              	.LVL194:
 636:Drivers/STM32F4xx_HAL_Driver/Src/stm32f4xx_ll_usb.c ****       {
 2759              		.loc 1 636 10 view .LVU809
 2760 0040 2B4B     		ldr	r3, .L158
 2761 0042 9A42     		cmp	r2, r3
 2762 0044 51D8     		bhi	.L155
 643:Drivers/STM32F4xx_HAL_Driver/Src/stm32f4xx_ll_usb.c ****     
 2763              		.loc 1 643 11 is_stmt 1 view .LVU810
 643:Drivers/STM32F4xx_HAL_Driver/Src/stm32f4xx_ll_usb.c ****     
 2764              		.loc 1 643 13 is_stmt 0 view .LVU811
 2765 0046 2378     		ldrb	r3, [r4]	@ zero_extendqisi2
 2766 0048 01EB4313 		add	r3, r1, r3, lsl #5
 2767 004c 03F53063 		add	r3, r3, #2816
 643:Drivers/STM32F4xx_HAL_Driver/Src/stm32f4xx_ll_usb.c ****     
 2768              		.loc 1 643 32 view .LVU812
 2769 0050 9B68     		ldr	r3, [r3, #8]
 643:Drivers/STM32F4xx_HAL_Driver/Src/stm32f4xx_ll_usb.c ****     
 2770              		.loc 1 643 5 view .LVU813
 2771 0052 13F0100F 		tst	r3, #16
 2772 0056 F2D1     		bne	.L153
 646:Drivers/STM32F4xx_HAL_Driver/Src/stm32f4xx_ll_usb.c ****     
 2773              		.loc 1 646 5 is_stmt 1 view .LVU814
 646:Drivers/STM32F4xx_HAL_Driver/Src/stm32f4xx_ll_usb.c ****     
 2774              		.loc 1 646 23 is_stmt 0 view .LVU815
 2775 0058 D5F80438 		ldr	r3, [r5, #2052]
 2776 005c 43F48063 		orr	r3, r3, #1024
 2777 0060 C5F80438 		str	r3, [r5, #2052]
 649:Drivers/STM32F4xx_HAL_Driver/Src/stm32f4xx_ll_usb.c ****   }
 2778              		.loc 1 649 5 is_stmt 1 view .LVU816
 649:Drivers/STM32F4xx_HAL_Driver/Src/stm32f4xx_ll_usb.c ****   }
 2779              		.loc 1 649 27 is_stmt 0 view .LVU817
 2780 0064 D5F81C38 		ldr	r3, [r5, #2076]
 649:Drivers/STM32F4xx_HAL_Driver/Src/stm32f4xx_ll_usb.c ****   }
 2781              		.loc 1 649 67 view .LVU818
 2782 0068 2178     		ldrb	r1, [r4]	@ zero_extendqisi2
ARM GAS  C:\Users\gx\AppData\Local\Temp\ccXSZ03x.s 			page 89


 649:Drivers/STM32F4xx_HAL_Driver/Src/stm32f4xx_ll_usb.c ****   }
 2783              		.loc 1 649 61 view .LVU819
 2784 006a 0122     		movs	r2, #1
 2785              	.LVL195:
 649:Drivers/STM32F4xx_HAL_Driver/Src/stm32f4xx_ll_usb.c ****   }
 2786              		.loc 1 649 61 view .LVU820
 2787 006c 8A40     		lsls	r2, r2, r1
 649:Drivers/STM32F4xx_HAL_Driver/Src/stm32f4xx_ll_usb.c ****   }
 2788              		.loc 1 649 27 view .LVU821
 2789 006e 23EA0243 		bic	r3, r3, r2, lsl #16
 2790 0072 C5F81C38 		str	r3, [r5, #2076]
 651:Drivers/STM32F4xx_HAL_Driver/Src/stm32f4xx_ll_usb.c **** 
 2791              		.loc 1 651 10 view .LVU822
 2792 0076 0020     		movs	r0, #0
 2793              	.LVL196:
 2794              	.L151:
 653:Drivers/STM32F4xx_HAL_Driver/Src/stm32f4xx_ll_usb.c **** 
 2795              		.loc 1 653 1 view .LVU823
 2796 0078 38BD     		pop	{r3, r4, r5, pc}
 2797              	.LVL197:
 2798              	.L157:
 596:Drivers/STM32F4xx_HAL_Driver/Src/stm32f4xx_ll_usb.c ****     
 2799              		.loc 1 596 5 is_stmt 1 view .LVU824
 2800 007a 0B78     		ldrb	r3, [r1]	@ zero_extendqisi2
 596:Drivers/STM32F4xx_HAL_Driver/Src/stm32f4xx_ll_usb.c ****     
 2801              		.loc 1 596 33 is_stmt 0 view .LVU825
 2802 007c 0146     		mov	r1, r0
 2803              	.LVL198:
 596:Drivers/STM32F4xx_HAL_Driver/Src/stm32f4xx_ll_usb.c ****     
 2804              		.loc 1 596 33 view .LVU826
 2805 007e 00EB4313 		add	r3, r0, r3, lsl #5
 2806 0082 D3F80029 		ldr	r2, [r3, #2304]
 2807 0086 22F40042 		bic	r2, r2, #32768
 2808 008a C3F80029 		str	r2, [r3, #2304]
 599:Drivers/STM32F4xx_HAL_Driver/Src/stm32f4xx_ll_usb.c ****     
 2809              		.loc 1 599 5 is_stmt 1 view .LVU827
 2810 008e 2378     		ldrb	r3, [r4]	@ zero_extendqisi2
 2811 0090 00EB4313 		add	r3, r0, r3, lsl #5
 599:Drivers/STM32F4xx_HAL_Driver/Src/stm32f4xx_ll_usb.c ****     
 2812              		.loc 1 599 33 is_stmt 0 view .LVU828
 2813 0094 4FF00062 		mov	r2, #134217728
 2814 0098 C3F80029 		str	r2, [r3, #2304]
 602:Drivers/STM32F4xx_HAL_Driver/Src/stm32f4xx_ll_usb.c ****     
 2815              		.loc 1 602 5 is_stmt 1 view .LVU829
 2816 009c 2378     		ldrb	r3, [r4]	@ zero_extendqisi2
 2817 009e 00EB4313 		add	r3, r0, r3, lsl #5
 602:Drivers/STM32F4xx_HAL_Driver/Src/stm32f4xx_ll_usb.c ****     
 2818              		.loc 1 602 33 is_stmt 0 view .LVU830
 2819 00a2 4FF08042 		mov	r2, #1073741824
 2820 00a6 C3F80029 		str	r2, [r3, #2304]
 591:Drivers/STM32F4xx_HAL_Driver/Src/stm32f4xx_ll_usb.c ****   
 2821              		.loc 1 591 12 view .LVU831
 2822 00aa 0022     		movs	r2, #0
 2823              	.LVL199:
 2824              	.L152:
 604:Drivers/STM32F4xx_HAL_Driver/Src/stm32f4xx_ll_usb.c ****     {
 2825              		.loc 1 604 5 is_stmt 1 view .LVU832
ARM GAS  C:\Users\gx\AppData\Local\Temp\ccXSZ03x.s 			page 90


 606:Drivers/STM32F4xx_HAL_Driver/Src/stm32f4xx_ll_usb.c ****       {
 2826              		.loc 1 606 7 view .LVU833
 606:Drivers/STM32F4xx_HAL_Driver/Src/stm32f4xx_ll_usb.c ****       {
 2827              		.loc 1 606 10 is_stmt 0 view .LVU834
 2828 00ac 0132     		adds	r2, r2, #1
 2829              	.LVL200:
 606:Drivers/STM32F4xx_HAL_Driver/Src/stm32f4xx_ll_usb.c ****       {
 2830              		.loc 1 606 10 view .LVU835
 2831 00ae 104B     		ldr	r3, .L158
 2832 00b0 9A42     		cmp	r2, r3
 2833 00b2 18D8     		bhi	.L154
 613:Drivers/STM32F4xx_HAL_Driver/Src/stm32f4xx_ll_usb.c ****     
 2834              		.loc 1 613 11 is_stmt 1 view .LVU836
 613:Drivers/STM32F4xx_HAL_Driver/Src/stm32f4xx_ll_usb.c ****     
 2835              		.loc 1 613 13 is_stmt 0 view .LVU837
 2836 00b4 2378     		ldrb	r3, [r4]	@ zero_extendqisi2
 2837 00b6 01EB4313 		add	r3, r1, r3, lsl #5
 2838 00ba 03F51063 		add	r3, r3, #2304
 613:Drivers/STM32F4xx_HAL_Driver/Src/stm32f4xx_ll_usb.c ****     
 2839              		.loc 1 613 31 view .LVU838
 2840 00be 9B68     		ldr	r3, [r3, #8]
 613:Drivers/STM32F4xx_HAL_Driver/Src/stm32f4xx_ll_usb.c ****     
 2841              		.loc 1 613 5 view .LVU839
 2842 00c0 13F0804F 		tst	r3, #1073741824
 2843 00c4 F2D1     		bne	.L152
 617:Drivers/STM32F4xx_HAL_Driver/Src/stm32f4xx_ll_usb.c ****     
 2844              		.loc 1 617 5 is_stmt 1 view .LVU840
 2845 00c6 1021     		movs	r1, #16
 2846 00c8 2846     		mov	r0, r5
 2847              	.LVL201:
 617:Drivers/STM32F4xx_HAL_Driver/Src/stm32f4xx_ll_usb.c ****     
 2848              		.loc 1 617 5 is_stmt 0 view .LVU841
 2849 00ca FFF7FEFF 		bl	USB_FlushTxFifo
 2850              	.LVL202:
 620:Drivers/STM32F4xx_HAL_Driver/Src/stm32f4xx_ll_usb.c ****   
 2851              		.loc 1 620 5 is_stmt 1 view .LVU842
 620:Drivers/STM32F4xx_HAL_Driver/Src/stm32f4xx_ll_usb.c ****   
 2852              		.loc 1 620 27 is_stmt 0 view .LVU843
 2853 00ce D5F81C28 		ldr	r2, [r5, #2076]
 620:Drivers/STM32F4xx_HAL_Driver/Src/stm32f4xx_ll_usb.c ****   
 2854              		.loc 1 620 67 view .LVU844
 2855 00d2 2178     		ldrb	r1, [r4]	@ zero_extendqisi2
 620:Drivers/STM32F4xx_HAL_Driver/Src/stm32f4xx_ll_usb.c ****   
 2856              		.loc 1 620 61 view .LVU845
 2857 00d4 0123     		movs	r3, #1
 2858 00d6 8B40     		lsls	r3, r3, r1
 620:Drivers/STM32F4xx_HAL_Driver/Src/stm32f4xx_ll_usb.c ****   
 2859              		.loc 1 620 54 view .LVU846
 2860 00d8 9BB2     		uxth	r3, r3
 620:Drivers/STM32F4xx_HAL_Driver/Src/stm32f4xx_ll_usb.c ****   
 2861              		.loc 1 620 27 view .LVU847
 2862 00da 22EA0303 		bic	r3, r2, r3
 2863 00de C5F81C38 		str	r3, [r5, #2076]
 651:Drivers/STM32F4xx_HAL_Driver/Src/stm32f4xx_ll_usb.c **** 
 2864              		.loc 1 651 10 view .LVU848
 2865 00e2 0020     		movs	r0, #0
 2866 00e4 C8E7     		b	.L151
ARM GAS  C:\Users\gx\AppData\Local\Temp\ccXSZ03x.s 			page 91


 2867              	.LVL203:
 2868              	.L154:
 608:Drivers/STM32F4xx_HAL_Driver/Src/stm32f4xx_ll_usb.c ****       }
 2869              		.loc 1 608 16 view .LVU849
 2870 00e6 0320     		movs	r0, #3
 2871              	.LVL204:
 608:Drivers/STM32F4xx_HAL_Driver/Src/stm32f4xx_ll_usb.c ****       }
 2872              		.loc 1 608 16 view .LVU850
 2873 00e8 C6E7     		b	.L151
 2874              	.LVL205:
 2875              	.L155:
 638:Drivers/STM32F4xx_HAL_Driver/Src/stm32f4xx_ll_usb.c ****       }
 2876              		.loc 1 638 16 view .LVU851
 2877 00ea 0320     		movs	r0, #3
 2878              	.LVL206:
 638:Drivers/STM32F4xx_HAL_Driver/Src/stm32f4xx_ll_usb.c ****       }
 2879              		.loc 1 638 16 view .LVU852
 2880 00ec C4E7     		b	.L151
 2881              	.L159:
 2882 00ee 00BF     		.align	2
 2883              	.L158:
 2884 00f0 400D0300 		.word	200000
 2885              		.cfi_endproc
 2886              	.LFE138:
 2888              		.section	.text.USB_EP0StartXfer,"ax",%progbits
 2889              		.align	1
 2890              		.global	USB_EP0StartXfer
 2891              		.syntax unified
 2892              		.thumb
 2893              		.thumb_func
 2894              		.fpu fpv4-sp-d16
 2896              	USB_EP0StartXfer:
 2897              	.LVL207:
 2898              	.LFB140:
 788:Drivers/STM32F4xx_HAL_Driver/Src/stm32f4xx_ll_usb.c ****   /* IN endpoint */
 2899              		.loc 1 788 1 is_stmt 1 view -0
 2900              		.cfi_startproc
 2901              		@ args = 0, pretend = 0, frame = 0
 2902              		@ frame_needed = 0, uses_anonymous_args = 0
 2903              		@ link register save eliminated.
 788:Drivers/STM32F4xx_HAL_Driver/Src/stm32f4xx_ll_usb.c ****   /* IN endpoint */
 2904              		.loc 1 788 1 is_stmt 0 view .LVU854
 2905 0000 30B4     		push	{r4, r5}
 2906              	.LCFI47:
 2907              		.cfi_def_cfa_offset 8
 2908              		.cfi_offset 4, -8
 2909              		.cfi_offset 5, -4
 790:Drivers/STM32F4xx_HAL_Driver/Src/stm32f4xx_ll_usb.c ****   {
 2910              		.loc 1 790 3 is_stmt 1 view .LVU855
 790:Drivers/STM32F4xx_HAL_Driver/Src/stm32f4xx_ll_usb.c ****   {
 2911              		.loc 1 790 9 is_stmt 0 view .LVU856
 2912 0002 4B78     		ldrb	r3, [r1, #1]	@ zero_extendqisi2
 790:Drivers/STM32F4xx_HAL_Driver/Src/stm32f4xx_ll_usb.c ****   {
 2913              		.loc 1 790 6 view .LVU857
 2914 0004 012B     		cmp	r3, #1
 2915 0006 39D0     		beq	.L170
 841:Drivers/STM32F4xx_HAL_Driver/Src/stm32f4xx_ll_usb.c ****     USBx_OUTEP(ep->num)->DOEPTSIZ &= ~(USB_OTG_DOEPTSIZ_PKTCNT); 
ARM GAS  C:\Users\gx\AppData\Local\Temp\ccXSZ03x.s 			page 92


 2916              		.loc 1 841 5 is_stmt 1 view .LVU858
 2917 0008 0B78     		ldrb	r3, [r1]	@ zero_extendqisi2
 841:Drivers/STM32F4xx_HAL_Driver/Src/stm32f4xx_ll_usb.c ****     USBx_OUTEP(ep->num)->DOEPTSIZ &= ~(USB_OTG_DOEPTSIZ_PKTCNT); 
 2918              		.loc 1 841 35 is_stmt 0 view .LVU859
 2919 000a 00EB4313 		add	r3, r0, r3, lsl #5
 2920 000e D3F8104B 		ldr	r4, [r3, #2832]
 2921 0012 E40C     		lsrs	r4, r4, #19
 2922 0014 E404     		lsls	r4, r4, #19
 2923 0016 C3F8104B 		str	r4, [r3, #2832]
 842:Drivers/STM32F4xx_HAL_Driver/Src/stm32f4xx_ll_usb.c ****       
 2924              		.loc 1 842 5 is_stmt 1 view .LVU860
 2925 001a 0B78     		ldrb	r3, [r1]	@ zero_extendqisi2
 842:Drivers/STM32F4xx_HAL_Driver/Src/stm32f4xx_ll_usb.c ****       
 2926              		.loc 1 842 35 is_stmt 0 view .LVU861
 2927 001c 00EB4313 		add	r3, r0, r3, lsl #5
 2928 0020 D3F8104B 		ldr	r4, [r3, #2832]
 2929 0024 24F0FF54 		bic	r4, r4, #534773760
 2930 0028 24F4C014 		bic	r4, r4, #1572864
 2931 002c C3F8104B 		str	r4, [r3, #2832]
 844:Drivers/STM32F4xx_HAL_Driver/Src/stm32f4xx_ll_usb.c ****     {
 2932              		.loc 1 844 5 is_stmt 1 view .LVU862
 844:Drivers/STM32F4xx_HAL_Driver/Src/stm32f4xx_ll_usb.c ****     {
 2933              		.loc 1 844 11 is_stmt 0 view .LVU863
 2934 0030 4B69     		ldr	r3, [r1, #20]
 844:Drivers/STM32F4xx_HAL_Driver/Src/stm32f4xx_ll_usb.c ****     {
 2935              		.loc 1 844 8 view .LVU864
 2936 0032 0BB1     		cbz	r3, .L167
 846:Drivers/STM32F4xx_HAL_Driver/Src/stm32f4xx_ll_usb.c ****     }
 2937              		.loc 1 846 7 is_stmt 1 view .LVU865
 846:Drivers/STM32F4xx_HAL_Driver/Src/stm32f4xx_ll_usb.c ****     }
 2938              		.loc 1 846 24 is_stmt 0 view .LVU866
 2939 0034 8B68     		ldr	r3, [r1, #8]
 846:Drivers/STM32F4xx_HAL_Driver/Src/stm32f4xx_ll_usb.c ****     }
 2940              		.loc 1 846 20 view .LVU867
 2941 0036 4B61     		str	r3, [r1, #20]
 2942              	.L167:
 849:Drivers/STM32F4xx_HAL_Driver/Src/stm32f4xx_ll_usb.c ****     USBx_OUTEP(ep->num)->DOEPTSIZ |= (USB_OTG_DOEPTSIZ_XFRSIZ & (ep->maxpacket)); 
 2943              		.loc 1 849 5 is_stmt 1 view .LVU868
 2944 0038 0B78     		ldrb	r3, [r1]	@ zero_extendqisi2
 849:Drivers/STM32F4xx_HAL_Driver/Src/stm32f4xx_ll_usb.c ****     USBx_OUTEP(ep->num)->DOEPTSIZ |= (USB_OTG_DOEPTSIZ_XFRSIZ & (ep->maxpacket)); 
 2945              		.loc 1 849 35 is_stmt 0 view .LVU869
 2946 003a 00EB4313 		add	r3, r0, r3, lsl #5
 2947 003e D3F8104B 		ldr	r4, [r3, #2832]
 2948 0042 44F40024 		orr	r4, r4, #524288
 2949 0046 C3F8104B 		str	r4, [r3, #2832]
 850:Drivers/STM32F4xx_HAL_Driver/Src/stm32f4xx_ll_usb.c ****     
 2950              		.loc 1 850 5 is_stmt 1 view .LVU870
 2951 004a 0B78     		ldrb	r3, [r1]	@ zero_extendqisi2
 850:Drivers/STM32F4xx_HAL_Driver/Src/stm32f4xx_ll_usb.c ****     
 2952              		.loc 1 850 35 is_stmt 0 view .LVU871
 2953 004c 00EB4313 		add	r3, r0, r3, lsl #5
 2954 0050 D3F8104B 		ldr	r4, [r3, #2832]
 850:Drivers/STM32F4xx_HAL_Driver/Src/stm32f4xx_ll_usb.c ****     
 2955              		.loc 1 850 68 view .LVU872
 2956 0054 8D68     		ldr	r5, [r1, #8]
 850:Drivers/STM32F4xx_HAL_Driver/Src/stm32f4xx_ll_usb.c ****     
 2957              		.loc 1 850 63 view .LVU873
ARM GAS  C:\Users\gx\AppData\Local\Temp\ccXSZ03x.s 			page 93


 2958 0056 C5F31205 		ubfx	r5, r5, #0, #19
 850:Drivers/STM32F4xx_HAL_Driver/Src/stm32f4xx_ll_usb.c ****     
 2959              		.loc 1 850 35 view .LVU874
 2960 005a 2C43     		orrs	r4, r4, r5
 2961 005c C3F8104B 		str	r4, [r3, #2832]
 853:Drivers/STM32F4xx_HAL_Driver/Src/stm32f4xx_ll_usb.c ****     {
 2962              		.loc 1 853 5 is_stmt 1 view .LVU875
 853:Drivers/STM32F4xx_HAL_Driver/Src/stm32f4xx_ll_usb.c ****     {
 2963              		.loc 1 853 8 is_stmt 0 view .LVU876
 2964 0060 012A     		cmp	r2, #1
 2965 0062 76D0     		beq	.L171
 2966              	.LVL208:
 2967              	.L168:
 859:Drivers/STM32F4xx_HAL_Driver/Src/stm32f4xx_ll_usb.c ****   }
 2968              		.loc 1 859 5 is_stmt 1 view .LVU877
 2969 0064 0B78     		ldrb	r3, [r1]	@ zero_extendqisi2
 859:Drivers/STM32F4xx_HAL_Driver/Src/stm32f4xx_ll_usb.c ****   }
 2970              		.loc 1 859 34 is_stmt 0 view .LVU878
 2971 0066 00EB4310 		add	r0, r0, r3, lsl #5
 2972              	.LVL209:
 859:Drivers/STM32F4xx_HAL_Driver/Src/stm32f4xx_ll_usb.c ****   }
 2973              		.loc 1 859 34 view .LVU879
 2974 006a D0F8003B 		ldr	r3, [r0, #2816]
 2975 006e 43F00443 		orr	r3, r3, #-2080374784
 2976 0072 C0F8003B 		str	r3, [r0, #2816]
 2977              	.LVL210:
 2978              	.L166:
 861:Drivers/STM32F4xx_HAL_Driver/Src/stm32f4xx_ll_usb.c **** }
 2979              		.loc 1 861 3 is_stmt 1 view .LVU880
 862:Drivers/STM32F4xx_HAL_Driver/Src/stm32f4xx_ll_usb.c **** 
 2980              		.loc 1 862 1 is_stmt 0 view .LVU881
 2981 0076 0020     		movs	r0, #0
 2982 0078 30BC     		pop	{r4, r5}
 2983              	.LCFI48:
 2984              		.cfi_remember_state
 2985              		.cfi_restore 5
 2986              		.cfi_restore 4
 2987              		.cfi_def_cfa_offset 0
 2988 007a 7047     		bx	lr
 2989              	.LVL211:
 2990              	.L170:
 2991              	.LCFI49:
 2992              		.cfi_restore_state
 793:Drivers/STM32F4xx_HAL_Driver/Src/stm32f4xx_ll_usb.c ****     {
 2993              		.loc 1 793 5 is_stmt 1 view .LVU882
 793:Drivers/STM32F4xx_HAL_Driver/Src/stm32f4xx_ll_usb.c ****     {
 2994              		.loc 1 793 11 is_stmt 0 view .LVU883
 2995 007c 4B69     		ldr	r3, [r1, #20]
 793:Drivers/STM32F4xx_HAL_Driver/Src/stm32f4xx_ll_usb.c ****     {
 2996              		.loc 1 793 8 view .LVU884
 2997 007e 9BBB     		cbnz	r3, .L162
 795:Drivers/STM32F4xx_HAL_Driver/Src/stm32f4xx_ll_usb.c ****       USBx_INEP(ep->num)->DIEPTSIZ |= (USB_OTG_DIEPTSIZ_PKTCNT & (1U << 19U)) ;
 2998              		.loc 1 795 7 is_stmt 1 view .LVU885
 2999 0080 0B78     		ldrb	r3, [r1]	@ zero_extendqisi2
 795:Drivers/STM32F4xx_HAL_Driver/Src/stm32f4xx_ll_usb.c ****       USBx_INEP(ep->num)->DIEPTSIZ |= (USB_OTG_DIEPTSIZ_PKTCNT & (1U << 19U)) ;
 3000              		.loc 1 795 36 is_stmt 0 view .LVU886
 3001 0082 00EB4313 		add	r3, r0, r3, lsl #5
ARM GAS  C:\Users\gx\AppData\Local\Temp\ccXSZ03x.s 			page 94


 3002 0086 D3F81049 		ldr	r4, [r3, #2320]
 3003 008a 24F0FF54 		bic	r4, r4, #534773760
 3004 008e 24F4C014 		bic	r4, r4, #1572864
 3005 0092 C3F81049 		str	r4, [r3, #2320]
 796:Drivers/STM32F4xx_HAL_Driver/Src/stm32f4xx_ll_usb.c ****       USBx_INEP(ep->num)->DIEPTSIZ &= ~(USB_OTG_DIEPTSIZ_XFRSIZ); 
 3006              		.loc 1 796 7 is_stmt 1 view .LVU887
 3007 0096 0B78     		ldrb	r3, [r1]	@ zero_extendqisi2
 796:Drivers/STM32F4xx_HAL_Driver/Src/stm32f4xx_ll_usb.c ****       USBx_INEP(ep->num)->DIEPTSIZ &= ~(USB_OTG_DIEPTSIZ_XFRSIZ); 
 3008              		.loc 1 796 36 is_stmt 0 view .LVU888
 3009 0098 00EB4313 		add	r3, r0, r3, lsl #5
 3010 009c D3F81049 		ldr	r4, [r3, #2320]
 3011 00a0 44F40024 		orr	r4, r4, #524288
 3012 00a4 C3F81049 		str	r4, [r3, #2320]
 797:Drivers/STM32F4xx_HAL_Driver/Src/stm32f4xx_ll_usb.c ****     }
 3013              		.loc 1 797 7 is_stmt 1 view .LVU889
 3014 00a8 0B78     		ldrb	r3, [r1]	@ zero_extendqisi2
 797:Drivers/STM32F4xx_HAL_Driver/Src/stm32f4xx_ll_usb.c ****     }
 3015              		.loc 1 797 36 is_stmt 0 view .LVU890
 3016 00aa 00EB4313 		add	r3, r0, r3, lsl #5
 3017 00ae D3F81049 		ldr	r4, [r3, #2320]
 3018 00b2 E40C     		lsrs	r4, r4, #19
 3019 00b4 E404     		lsls	r4, r4, #19
 3020 00b6 C3F81049 		str	r4, [r3, #2320]
 3021              	.L163:
 819:Drivers/STM32F4xx_HAL_Driver/Src/stm32f4xx_ll_usb.c ****     
 3022              		.loc 1 819 5 is_stmt 1 view .LVU891
 3023 00ba 0B78     		ldrb	r3, [r1]	@ zero_extendqisi2
 819:Drivers/STM32F4xx_HAL_Driver/Src/stm32f4xx_ll_usb.c ****     
 3024              		.loc 1 819 33 is_stmt 0 view .LVU892
 3025 00bc 00EB4313 		add	r3, r0, r3, lsl #5
 3026 00c0 D3F80049 		ldr	r4, [r3, #2304]
 3027 00c4 44F00444 		orr	r4, r4, #-2080374784
 3028 00c8 C3F80049 		str	r4, [r3, #2304]
 821:Drivers/STM32F4xx_HAL_Driver/Src/stm32f4xx_ll_usb.c ****     {
 3029              		.loc 1 821 5 is_stmt 1 view .LVU893
 821:Drivers/STM32F4xx_HAL_Driver/Src/stm32f4xx_ll_usb.c ****     {
 3030              		.loc 1 821 8 is_stmt 0 view .LVU894
 3031 00cc 012A     		cmp	r2, #1
 3032 00ce 39D0     		beq	.L172
 828:Drivers/STM32F4xx_HAL_Driver/Src/stm32f4xx_ll_usb.c ****       {
 3033              		.loc 1 828 7 is_stmt 1 view .LVU895
 828:Drivers/STM32F4xx_HAL_Driver/Src/stm32f4xx_ll_usb.c ****       {
 3034              		.loc 1 828 13 is_stmt 0 view .LVU896
 3035 00d0 4B69     		ldr	r3, [r1, #20]
 828:Drivers/STM32F4xx_HAL_Driver/Src/stm32f4xx_ll_usb.c ****       {
 3036              		.loc 1 828 10 view .LVU897
 3037 00d2 002B     		cmp	r3, #0
 3038 00d4 CFD0     		beq	.L166
 830:Drivers/STM32F4xx_HAL_Driver/Src/stm32f4xx_ll_usb.c ****       }
 3039              		.loc 1 830 9 is_stmt 1 view .LVU898
 830:Drivers/STM32F4xx_HAL_Driver/Src/stm32f4xx_ll_usb.c ****       }
 3040              		.loc 1 830 33 is_stmt 0 view .LVU899
 3041 00d6 D0F83438 		ldr	r3, [r0, #2100]
 830:Drivers/STM32F4xx_HAL_Driver/Src/stm32f4xx_ll_usb.c ****       }
 3042              		.loc 1 830 45 view .LVU900
 3043 00da 0978     		ldrb	r1, [r1]	@ zero_extendqisi2
 3044              	.LVL212:
ARM GAS  C:\Users\gx\AppData\Local\Temp\ccXSZ03x.s 			page 95


 830:Drivers/STM32F4xx_HAL_Driver/Src/stm32f4xx_ll_usb.c ****       }
 3045              		.loc 1 830 39 view .LVU901
 3046 00dc 0122     		movs	r2, #1
 3047              	.LVL213:
 830:Drivers/STM32F4xx_HAL_Driver/Src/stm32f4xx_ll_usb.c ****       }
 3048              		.loc 1 830 39 view .LVU902
 3049 00de 8A40     		lsls	r2, r2, r1
 830:Drivers/STM32F4xx_HAL_Driver/Src/stm32f4xx_ll_usb.c ****       }
 3050              		.loc 1 830 33 view .LVU903
 3051 00e0 1343     		orrs	r3, r3, r2
 3052 00e2 C0F83438 		str	r3, [r0, #2100]
 3053 00e6 C6E7     		b	.L166
 3054              	.LVL214:
 3055              	.L162:
 806:Drivers/STM32F4xx_HAL_Driver/Src/stm32f4xx_ll_usb.c ****       USBx_INEP(ep->num)->DIEPTSIZ &= ~(USB_OTG_DIEPTSIZ_PKTCNT); 
 3056              		.loc 1 806 7 is_stmt 1 view .LVU904
 3057 00e8 0B78     		ldrb	r3, [r1]	@ zero_extendqisi2
 806:Drivers/STM32F4xx_HAL_Driver/Src/stm32f4xx_ll_usb.c ****       USBx_INEP(ep->num)->DIEPTSIZ &= ~(USB_OTG_DIEPTSIZ_PKTCNT); 
 3058              		.loc 1 806 36 is_stmt 0 view .LVU905
 3059 00ea 00EB4313 		add	r3, r0, r3, lsl #5
 3060 00ee D3F81049 		ldr	r4, [r3, #2320]
 3061 00f2 E40C     		lsrs	r4, r4, #19
 3062 00f4 E404     		lsls	r4, r4, #19
 3063 00f6 C3F81049 		str	r4, [r3, #2320]
 807:Drivers/STM32F4xx_HAL_Driver/Src/stm32f4xx_ll_usb.c ****       
 3064              		.loc 1 807 7 is_stmt 1 view .LVU906
 3065 00fa 0B78     		ldrb	r3, [r1]	@ zero_extendqisi2
 807:Drivers/STM32F4xx_HAL_Driver/Src/stm32f4xx_ll_usb.c ****       
 3066              		.loc 1 807 36 is_stmt 0 view .LVU907
 3067 00fc 00EB4313 		add	r3, r0, r3, lsl #5
 3068 0100 D3F81049 		ldr	r4, [r3, #2320]
 3069 0104 24F0FF54 		bic	r4, r4, #534773760
 3070 0108 24F4C014 		bic	r4, r4, #1572864
 3071 010c C3F81049 		str	r4, [r3, #2320]
 809:Drivers/STM32F4xx_HAL_Driver/Src/stm32f4xx_ll_usb.c ****       {
 3072              		.loc 1 809 7 is_stmt 1 view .LVU908
 809:Drivers/STM32F4xx_HAL_Driver/Src/stm32f4xx_ll_usb.c ****       {
 3073              		.loc 1 809 12 is_stmt 0 view .LVU909
 3074 0110 4C69     		ldr	r4, [r1, #20]
 809:Drivers/STM32F4xx_HAL_Driver/Src/stm32f4xx_ll_usb.c ****       {
 3075              		.loc 1 809 27 view .LVU910
 3076 0112 8B68     		ldr	r3, [r1, #8]
 809:Drivers/STM32F4xx_HAL_Driver/Src/stm32f4xx_ll_usb.c ****       {
 3077              		.loc 1 809 9 view .LVU911
 3078 0114 9C42     		cmp	r4, r3
 3079 0116 00D9     		bls	.L164
 811:Drivers/STM32F4xx_HAL_Driver/Src/stm32f4xx_ll_usb.c ****       }
 3080              		.loc 1 811 9 is_stmt 1 view .LVU912
 811:Drivers/STM32F4xx_HAL_Driver/Src/stm32f4xx_ll_usb.c ****       }
 3081              		.loc 1 811 22 is_stmt 0 view .LVU913
 3082 0118 4B61     		str	r3, [r1, #20]
 3083              	.L164:
 813:Drivers/STM32F4xx_HAL_Driver/Src/stm32f4xx_ll_usb.c ****       USBx_INEP(ep->num)->DIEPTSIZ |= (USB_OTG_DIEPTSIZ_XFRSIZ & ep->xfer_len); 
 3084              		.loc 1 813 7 is_stmt 1 view .LVU914
 3085 011a 0B78     		ldrb	r3, [r1]	@ zero_extendqisi2
 813:Drivers/STM32F4xx_HAL_Driver/Src/stm32f4xx_ll_usb.c ****       USBx_INEP(ep->num)->DIEPTSIZ |= (USB_OTG_DIEPTSIZ_XFRSIZ & ep->xfer_len); 
 3086              		.loc 1 813 36 is_stmt 0 view .LVU915
ARM GAS  C:\Users\gx\AppData\Local\Temp\ccXSZ03x.s 			page 96


 3087 011c 00EB4313 		add	r3, r0, r3, lsl #5
 3088 0120 D3F81049 		ldr	r4, [r3, #2320]
 3089 0124 44F40024 		orr	r4, r4, #524288
 3090 0128 C3F81049 		str	r4, [r3, #2320]
 814:Drivers/STM32F4xx_HAL_Driver/Src/stm32f4xx_ll_usb.c ****     
 3091              		.loc 1 814 7 is_stmt 1 view .LVU916
 3092 012c 0B78     		ldrb	r3, [r1]	@ zero_extendqisi2
 814:Drivers/STM32F4xx_HAL_Driver/Src/stm32f4xx_ll_usb.c ****     
 3093              		.loc 1 814 36 is_stmt 0 view .LVU917
 3094 012e 00EB4313 		add	r3, r0, r3, lsl #5
 3095 0132 D3F81049 		ldr	r4, [r3, #2320]
 814:Drivers/STM32F4xx_HAL_Driver/Src/stm32f4xx_ll_usb.c ****     
 3096              		.loc 1 814 68 view .LVU918
 3097 0136 4D69     		ldr	r5, [r1, #20]
 814:Drivers/STM32F4xx_HAL_Driver/Src/stm32f4xx_ll_usb.c ****     
 3098              		.loc 1 814 64 view .LVU919
 3099 0138 C5F31205 		ubfx	r5, r5, #0, #19
 814:Drivers/STM32F4xx_HAL_Driver/Src/stm32f4xx_ll_usb.c ****     
 3100              		.loc 1 814 36 view .LVU920
 3101 013c 2C43     		orrs	r4, r4, r5
 3102 013e C3F81049 		str	r4, [r3, #2320]
 3103 0142 BAE7     		b	.L163
 3104              	.L172:
 823:Drivers/STM32F4xx_HAL_Driver/Src/stm32f4xx_ll_usb.c ****     }
 3105              		.loc 1 823 7 is_stmt 1 view .LVU921
 3106 0144 0B78     		ldrb	r3, [r1]	@ zero_extendqisi2
 3107 0146 00EB4310 		add	r0, r0, r3, lsl #5
 3108              	.LVL215:
 823:Drivers/STM32F4xx_HAL_Driver/Src/stm32f4xx_ll_usb.c ****     }
 3109              		.loc 1 823 50 is_stmt 0 view .LVU922
 3110 014a 0B69     		ldr	r3, [r1, #16]
 823:Drivers/STM32F4xx_HAL_Driver/Src/stm32f4xx_ll_usb.c ****     }
 3111              		.loc 1 823 35 view .LVU923
 3112 014c C0F81439 		str	r3, [r0, #2324]
 3113 0150 91E7     		b	.L166
 3114              	.LVL216:
 3115              	.L171:
 855:Drivers/STM32F4xx_HAL_Driver/Src/stm32f4xx_ll_usb.c ****     }
 3116              		.loc 1 855 7 is_stmt 1 view .LVU924
 855:Drivers/STM32F4xx_HAL_Driver/Src/stm32f4xx_ll_usb.c ****     }
 3117              		.loc 1 855 51 is_stmt 0 view .LVU925
 3118 0152 CA68     		ldr	r2, [r1, #12]
 3119              	.LVL217:
 855:Drivers/STM32F4xx_HAL_Driver/Src/stm32f4xx_ll_usb.c ****     }
 3120              		.loc 1 855 7 view .LVU926
 3121 0154 0B78     		ldrb	r3, [r1]	@ zero_extendqisi2
 3122 0156 00EB4313 		add	r3, r0, r3, lsl #5
 855:Drivers/STM32F4xx_HAL_Driver/Src/stm32f4xx_ll_usb.c ****     }
 3123              		.loc 1 855 36 view .LVU927
 3124 015a C3F8142B 		str	r2, [r3, #2836]
 3125 015e 81E7     		b	.L168
 3126              		.cfi_endproc
 3127              	.LFE140:
 3129              		.section	.text.USB_WritePacket,"ax",%progbits
 3130              		.align	1
 3131              		.global	USB_WritePacket
 3132              		.syntax unified
ARM GAS  C:\Users\gx\AppData\Local\Temp\ccXSZ03x.s 			page 97


 3133              		.thumb
 3134              		.thumb_func
 3135              		.fpu fpv4-sp-d16
 3137              	USB_WritePacket:
 3138              	.LVL218:
 3139              	.LFB141:
 878:Drivers/STM32F4xx_HAL_Driver/Src/stm32f4xx_ll_usb.c ****   uint32_t count32b = 0U , i = 0U;
 3140              		.loc 1 878 1 is_stmt 1 view -0
 3141              		.cfi_startproc
 3142              		@ args = 4, pretend = 0, frame = 0
 3143              		@ frame_needed = 0, uses_anonymous_args = 0
 3144              		@ link register save eliminated.
 878:Drivers/STM32F4xx_HAL_Driver/Src/stm32f4xx_ll_usb.c ****   uint32_t count32b = 0U , i = 0U;
 3145              		.loc 1 878 1 is_stmt 0 view .LVU929
 3146 0000 70B4     		push	{r4, r5, r6}
 3147              	.LCFI50:
 3148              		.cfi_def_cfa_offset 12
 3149              		.cfi_offset 4, -12
 3150              		.cfi_offset 5, -8
 3151              		.cfi_offset 6, -4
 3152 0002 9DF80C40 		ldrb	r4, [sp, #12]	@ zero_extendqisi2
 879:Drivers/STM32F4xx_HAL_Driver/Src/stm32f4xx_ll_usb.c ****   
 3153              		.loc 1 879 3 is_stmt 1 view .LVU930
 3154              	.LVL219:
 881:Drivers/STM32F4xx_HAL_Driver/Src/stm32f4xx_ll_usb.c ****   {
 3155              		.loc 1 881 3 view .LVU931
 881:Drivers/STM32F4xx_HAL_Driver/Src/stm32f4xx_ll_usb.c ****   {
 3156              		.loc 1 881 6 is_stmt 0 view .LVU932
 3157 0006 64B9     		cbnz	r4, .L174
 883:Drivers/STM32F4xx_HAL_Driver/Src/stm32f4xx_ll_usb.c ****     for (i = 0U; i < count32b; i++, src += 4U)
 3158              		.loc 1 883 5 is_stmt 1 view .LVU933
 883:Drivers/STM32F4xx_HAL_Driver/Src/stm32f4xx_ll_usb.c ****     for (i = 0U; i < count32b; i++, src += 4U)
 3159              		.loc 1 883 22 is_stmt 0 view .LVU934
 3160 0008 0333     		adds	r3, r3, #3
 3161              	.LVL220:
 883:Drivers/STM32F4xx_HAL_Driver/Src/stm32f4xx_ll_usb.c ****     for (i = 0U; i < count32b; i++, src += 4U)
 3162              		.loc 1 883 14 view .LVU935
 3163 000a 9D08     		lsrs	r5, r3, #2
 3164              	.LVL221:
 884:Drivers/STM32F4xx_HAL_Driver/Src/stm32f4xx_ll_usb.c ****     {
 3165              		.loc 1 884 5 is_stmt 1 view .LVU936
 3166              	.L175:
 884:Drivers/STM32F4xx_HAL_Driver/Src/stm32f4xx_ll_usb.c ****     {
 3167              		.loc 1 884 18 discriminator 1 view .LVU937
 884:Drivers/STM32F4xx_HAL_Driver/Src/stm32f4xx_ll_usb.c ****     {
 3168              		.loc 1 884 5 is_stmt 0 discriminator 1 view .LVU938
 3169 000c AC42     		cmp	r4, r5
 3170 000e 08D2     		bcs	.L174
 886:Drivers/STM32F4xx_HAL_Driver/Src/stm32f4xx_ll_usb.c ****     }
 3171              		.loc 1 886 7 is_stmt 1 discriminator 3 view .LVU939
 3172 0010 00EB0233 		add	r3, r0, r2, lsl #12
 3173 0014 03F58053 		add	r3, r3, #4096
 886:Drivers/STM32F4xx_HAL_Driver/Src/stm32f4xx_ll_usb.c ****     }
 3174              		.loc 1 886 31 is_stmt 0 discriminator 3 view .LVU940
 3175 0018 51F8046B 		ldr	r6, [r1], #4
 3176              	.LVL222:
 886:Drivers/STM32F4xx_HAL_Driver/Src/stm32f4xx_ll_usb.c ****     }
ARM GAS  C:\Users\gx\AppData\Local\Temp\ccXSZ03x.s 			page 98


 3177              		.loc 1 886 29 discriminator 3 view .LVU941
 3178 001c 1E60     		str	r6, [r3]
 884:Drivers/STM32F4xx_HAL_Driver/Src/stm32f4xx_ll_usb.c ****     {
 3179              		.loc 1 884 32 is_stmt 1 discriminator 3 view .LVU942
 884:Drivers/STM32F4xx_HAL_Driver/Src/stm32f4xx_ll_usb.c ****     {
 3180              		.loc 1 884 33 is_stmt 0 discriminator 3 view .LVU943
 3181 001e 0134     		adds	r4, r4, #1
 3182              	.LVL223:
 884:Drivers/STM32F4xx_HAL_Driver/Src/stm32f4xx_ll_usb.c ****     {
 3183              		.loc 1 884 33 discriminator 3 view .LVU944
 3184 0020 F4E7     		b	.L175
 3185              	.LVL224:
 3186              	.L174:
 889:Drivers/STM32F4xx_HAL_Driver/Src/stm32f4xx_ll_usb.c **** }
 3187              		.loc 1 889 3 is_stmt 1 view .LVU945
 890:Drivers/STM32F4xx_HAL_Driver/Src/stm32f4xx_ll_usb.c **** 
 3188              		.loc 1 890 1 is_stmt 0 view .LVU946
 3189 0022 0020     		movs	r0, #0
 3190              	.LVL225:
 890:Drivers/STM32F4xx_HAL_Driver/Src/stm32f4xx_ll_usb.c **** 
 3191              		.loc 1 890 1 view .LVU947
 3192 0024 70BC     		pop	{r4, r5, r6}
 3193              	.LCFI51:
 3194              		.cfi_restore 6
 3195              		.cfi_restore 5
 3196              		.cfi_restore 4
 3197              		.cfi_def_cfa_offset 0
 3198              	.LVL226:
 890:Drivers/STM32F4xx_HAL_Driver/Src/stm32f4xx_ll_usb.c **** 
 3199              		.loc 1 890 1 view .LVU948
 3200 0026 7047     		bx	lr
 3201              		.cfi_endproc
 3202              	.LFE141:
 3204              		.section	.text.USB_EPStartXfer,"ax",%progbits
 3205              		.align	1
 3206              		.global	USB_EPStartXfer
 3207              		.syntax unified
 3208              		.thumb
 3209              		.thumb_func
 3210              		.fpu fpv4-sp-d16
 3212              	USB_EPStartXfer:
 3213              	.LVL227:
 3214              	.LFB139:
 666:Drivers/STM32F4xx_HAL_Driver/Src/stm32f4xx_ll_usb.c ****   uint16_t pktcnt = 0U;
 3215              		.loc 1 666 1 is_stmt 1 view -0
 3216              		.cfi_startproc
 3217              		@ args = 0, pretend = 0, frame = 0
 3218              		@ frame_needed = 0, uses_anonymous_args = 0
 666:Drivers/STM32F4xx_HAL_Driver/Src/stm32f4xx_ll_usb.c ****   uint16_t pktcnt = 0U;
 3219              		.loc 1 666 1 is_stmt 0 view .LVU950
 3220 0000 70B5     		push	{r4, r5, r6, lr}
 3221              	.LCFI52:
 3222              		.cfi_def_cfa_offset 16
 3223              		.cfi_offset 4, -16
 3224              		.cfi_offset 5, -12
 3225              		.cfi_offset 6, -8
 3226              		.cfi_offset 14, -4
ARM GAS  C:\Users\gx\AppData\Local\Temp\ccXSZ03x.s 			page 99


 3227 0002 82B0     		sub	sp, sp, #8
 3228              	.LCFI53:
 3229              		.cfi_def_cfa_offset 24
 667:Drivers/STM32F4xx_HAL_Driver/Src/stm32f4xx_ll_usb.c ****   
 3230              		.loc 1 667 3 is_stmt 1 view .LVU951
 3231              	.LVL228:
 670:Drivers/STM32F4xx_HAL_Driver/Src/stm32f4xx_ll_usb.c ****   {
 3232              		.loc 1 670 3 view .LVU952
 670:Drivers/STM32F4xx_HAL_Driver/Src/stm32f4xx_ll_usb.c ****   {
 3233              		.loc 1 670 9 is_stmt 0 view .LVU953
 3234 0004 4B78     		ldrb	r3, [r1, #1]	@ zero_extendqisi2
 670:Drivers/STM32F4xx_HAL_Driver/Src/stm32f4xx_ll_usb.c ****   {
 3235              		.loc 1 670 6 view .LVU954
 3236 0006 012B     		cmp	r3, #1
 3237 0008 3ED0     		beq	.L193
 740:Drivers/STM32F4xx_HAL_Driver/Src/stm32f4xx_ll_usb.c ****     USBx_OUTEP(ep->num)->DOEPTSIZ &= ~(USB_OTG_DOEPTSIZ_PKTCNT); 
 3238              		.loc 1 740 5 is_stmt 1 view .LVU955
 3239 000a 0B78     		ldrb	r3, [r1]	@ zero_extendqisi2
 740:Drivers/STM32F4xx_HAL_Driver/Src/stm32f4xx_ll_usb.c ****     USBx_OUTEP(ep->num)->DOEPTSIZ &= ~(USB_OTG_DOEPTSIZ_PKTCNT); 
 3240              		.loc 1 740 35 is_stmt 0 view .LVU956
 3241 000c 00EB4313 		add	r3, r0, r3, lsl #5
 3242 0010 D3F8104B 		ldr	r4, [r3, #2832]
 3243 0014 E40C     		lsrs	r4, r4, #19
 3244 0016 E404     		lsls	r4, r4, #19
 3245 0018 C3F8104B 		str	r4, [r3, #2832]
 741:Drivers/STM32F4xx_HAL_Driver/Src/stm32f4xx_ll_usb.c **** 
 3246              		.loc 1 741 5 is_stmt 1 view .LVU957
 3247 001c 0B78     		ldrb	r3, [r1]	@ zero_extendqisi2
 741:Drivers/STM32F4xx_HAL_Driver/Src/stm32f4xx_ll_usb.c **** 
 3248              		.loc 1 741 35 is_stmt 0 view .LVU958
 3249 001e 00EB4313 		add	r3, r0, r3, lsl #5
 3250 0022 D3F8104B 		ldr	r4, [r3, #2832]
 3251 0026 24F0FF54 		bic	r4, r4, #534773760
 3252 002a 24F4C014 		bic	r4, r4, #1572864
 3253 002e C3F8104B 		str	r4, [r3, #2832]
 743:Drivers/STM32F4xx_HAL_Driver/Src/stm32f4xx_ll_usb.c ****     {
 3254              		.loc 1 743 5 is_stmt 1 view .LVU959
 743:Drivers/STM32F4xx_HAL_Driver/Src/stm32f4xx_ll_usb.c ****     {
 3255              		.loc 1 743 11 is_stmt 0 view .LVU960
 3256 0032 4B69     		ldr	r3, [r1, #20]
 743:Drivers/STM32F4xx_HAL_Driver/Src/stm32f4xx_ll_usb.c ****     {
 3257              		.loc 1 743 8 view .LVU961
 3258 0034 002B     		cmp	r3, #0
 3259 0036 40F0D380 		bne	.L187
 745:Drivers/STM32F4xx_HAL_Driver/Src/stm32f4xx_ll_usb.c ****       USBx_OUTEP(ep->num)->DOEPTSIZ |= (USB_OTG_DOEPTSIZ_PKTCNT & (1U << 19U));
 3260              		.loc 1 745 7 is_stmt 1 view .LVU962
 3261 003a 0B78     		ldrb	r3, [r1]	@ zero_extendqisi2
 745:Drivers/STM32F4xx_HAL_Driver/Src/stm32f4xx_ll_usb.c ****       USBx_OUTEP(ep->num)->DOEPTSIZ |= (USB_OTG_DOEPTSIZ_PKTCNT & (1U << 19U));
 3262              		.loc 1 745 37 is_stmt 0 view .LVU963
 3263 003c 00EB4313 		add	r3, r0, r3, lsl #5
 3264 0040 D3F8104B 		ldr	r4, [r3, #2832]
 745:Drivers/STM32F4xx_HAL_Driver/Src/stm32f4xx_ll_usb.c ****       USBx_OUTEP(ep->num)->DOEPTSIZ |= (USB_OTG_DOEPTSIZ_PKTCNT & (1U << 19U));
 3265              		.loc 1 745 69 view .LVU964
 3266 0044 8D68     		ldr	r5, [r1, #8]
 745:Drivers/STM32F4xx_HAL_Driver/Src/stm32f4xx_ll_usb.c ****       USBx_OUTEP(ep->num)->DOEPTSIZ |= (USB_OTG_DOEPTSIZ_PKTCNT & (1U << 19U));
 3267              		.loc 1 745 65 view .LVU965
 3268 0046 C5F31205 		ubfx	r5, r5, #0, #19
ARM GAS  C:\Users\gx\AppData\Local\Temp\ccXSZ03x.s 			page 100


 745:Drivers/STM32F4xx_HAL_Driver/Src/stm32f4xx_ll_usb.c ****       USBx_OUTEP(ep->num)->DOEPTSIZ |= (USB_OTG_DOEPTSIZ_PKTCNT & (1U << 19U));
 3269              		.loc 1 745 37 view .LVU966
 3270 004a 2C43     		orrs	r4, r4, r5
 3271 004c C3F8104B 		str	r4, [r3, #2832]
 746:Drivers/STM32F4xx_HAL_Driver/Src/stm32f4xx_ll_usb.c ****     }
 3272              		.loc 1 746 7 is_stmt 1 view .LVU967
 3273 0050 0B78     		ldrb	r3, [r1]	@ zero_extendqisi2
 746:Drivers/STM32F4xx_HAL_Driver/Src/stm32f4xx_ll_usb.c ****     }
 3274              		.loc 1 746 37 is_stmt 0 view .LVU968
 3275 0052 00EB4313 		add	r3, r0, r3, lsl #5
 3276 0056 D3F8104B 		ldr	r4, [r3, #2832]
 3277 005a 44F40024 		orr	r4, r4, #524288
 3278 005e C3F8104B 		str	r4, [r3, #2832]
 3279              	.LVL229:
 3280              	.L188:
 755:Drivers/STM32F4xx_HAL_Driver/Src/stm32f4xx_ll_usb.c ****     {
 3281              		.loc 1 755 5 is_stmt 1 view .LVU969
 755:Drivers/STM32F4xx_HAL_Driver/Src/stm32f4xx_ll_usb.c ****     {
 3282              		.loc 1 755 8 is_stmt 0 view .LVU970
 3283 0062 012A     		cmp	r2, #1
 3284 0064 00F0DB80 		beq	.L194
 3285              	.LVL230:
 3286              	.L189:
 760:Drivers/STM32F4xx_HAL_Driver/Src/stm32f4xx_ll_usb.c ****     {
 3287              		.loc 1 760 5 is_stmt 1 view .LVU971
 760:Drivers/STM32F4xx_HAL_Driver/Src/stm32f4xx_ll_usb.c ****     {
 3288              		.loc 1 760 11 is_stmt 0 view .LVU972
 3289 0068 CB78     		ldrb	r3, [r1, #3]	@ zero_extendqisi2
 760:Drivers/STM32F4xx_HAL_Driver/Src/stm32f4xx_ll_usb.c ****     {
 3290              		.loc 1 760 8 view .LVU973
 3291 006a 012B     		cmp	r3, #1
 3292 006c 00F0DE80 		beq	.L195
 3293              	.L190:
 772:Drivers/STM32F4xx_HAL_Driver/Src/stm32f4xx_ll_usb.c ****   }
 3294              		.loc 1 772 5 is_stmt 1 view .LVU974
 3295 0070 0B78     		ldrb	r3, [r1]	@ zero_extendqisi2
 772:Drivers/STM32F4xx_HAL_Driver/Src/stm32f4xx_ll_usb.c ****   }
 3296              		.loc 1 772 34 is_stmt 0 view .LVU975
 3297 0072 00EB4310 		add	r0, r0, r3, lsl #5
 3298              	.LVL231:
 772:Drivers/STM32F4xx_HAL_Driver/Src/stm32f4xx_ll_usb.c ****   }
 3299              		.loc 1 772 34 view .LVU976
 3300 0076 D0F8003B 		ldr	r3, [r0, #2816]
 3301 007a 43F00443 		orr	r3, r3, #-2080374784
 3302 007e C0F8003B 		str	r3, [r0, #2816]
 3303              	.LVL232:
 3304              	.L186:
 774:Drivers/STM32F4xx_HAL_Driver/Src/stm32f4xx_ll_usb.c **** }
 3305              		.loc 1 774 3 is_stmt 1 view .LVU977
 775:Drivers/STM32F4xx_HAL_Driver/Src/stm32f4xx_ll_usb.c **** 
 3306              		.loc 1 775 1 is_stmt 0 view .LVU978
 3307 0082 0020     		movs	r0, #0
 3308 0084 02B0     		add	sp, sp, #8
 3309              	.LCFI54:
 3310              		.cfi_remember_state
 3311              		.cfi_def_cfa_offset 16
 3312              		@ sp needed
ARM GAS  C:\Users\gx\AppData\Local\Temp\ccXSZ03x.s 			page 101


 3313 0086 70BD     		pop	{r4, r5, r6, pc}
 3314              	.LVL233:
 3315              	.L193:
 3316              	.LCFI55:
 3317              		.cfi_restore_state
 673:Drivers/STM32F4xx_HAL_Driver/Src/stm32f4xx_ll_usb.c ****     {
 3318              		.loc 1 673 5 is_stmt 1 view .LVU979
 673:Drivers/STM32F4xx_HAL_Driver/Src/stm32f4xx_ll_usb.c ****     {
 3319              		.loc 1 673 11 is_stmt 0 view .LVU980
 3320 0088 4B69     		ldr	r3, [r1, #20]
 673:Drivers/STM32F4xx_HAL_Driver/Src/stm32f4xx_ll_usb.c ****     {
 3321              		.loc 1 673 8 view .LVU981
 3322 008a 6BBB     		cbnz	r3, .L180
 675:Drivers/STM32F4xx_HAL_Driver/Src/stm32f4xx_ll_usb.c ****       USBx_INEP(ep->num)->DIEPTSIZ |= (USB_OTG_DIEPTSIZ_PKTCNT & (1U << 19U)) ;
 3323              		.loc 1 675 7 is_stmt 1 view .LVU982
 3324 008c 0B78     		ldrb	r3, [r1]	@ zero_extendqisi2
 675:Drivers/STM32F4xx_HAL_Driver/Src/stm32f4xx_ll_usb.c ****       USBx_INEP(ep->num)->DIEPTSIZ |= (USB_OTG_DIEPTSIZ_PKTCNT & (1U << 19U)) ;
 3325              		.loc 1 675 36 is_stmt 0 view .LVU983
 3326 008e 00EB4313 		add	r3, r0, r3, lsl #5
 3327 0092 D3F81049 		ldr	r4, [r3, #2320]
 3328 0096 24F0FF54 		bic	r4, r4, #534773760
 3329 009a 24F4C014 		bic	r4, r4, #1572864
 3330 009e C3F81049 		str	r4, [r3, #2320]
 676:Drivers/STM32F4xx_HAL_Driver/Src/stm32f4xx_ll_usb.c ****       USBx_INEP(ep->num)->DIEPTSIZ &= ~(USB_OTG_DIEPTSIZ_XFRSIZ); 
 3331              		.loc 1 676 7 is_stmt 1 view .LVU984
 3332 00a2 0B78     		ldrb	r3, [r1]	@ zero_extendqisi2
 676:Drivers/STM32F4xx_HAL_Driver/Src/stm32f4xx_ll_usb.c ****       USBx_INEP(ep->num)->DIEPTSIZ &= ~(USB_OTG_DIEPTSIZ_XFRSIZ); 
 3333              		.loc 1 676 36 is_stmt 0 view .LVU985
 3334 00a4 00EB4313 		add	r3, r0, r3, lsl #5
 3335 00a8 D3F81049 		ldr	r4, [r3, #2320]
 3336 00ac 44F40024 		orr	r4, r4, #524288
 3337 00b0 C3F81049 		str	r4, [r3, #2320]
 677:Drivers/STM32F4xx_HAL_Driver/Src/stm32f4xx_ll_usb.c ****     }
 3338              		.loc 1 677 7 is_stmt 1 view .LVU986
 3339 00b4 0B78     		ldrb	r3, [r1]	@ zero_extendqisi2
 677:Drivers/STM32F4xx_HAL_Driver/Src/stm32f4xx_ll_usb.c ****     }
 3340              		.loc 1 677 36 is_stmt 0 view .LVU987
 3341 00b6 00EB4313 		add	r3, r0, r3, lsl #5
 3342 00ba D3F81049 		ldr	r4, [r3, #2320]
 3343 00be E40C     		lsrs	r4, r4, #19
 3344 00c0 E404     		lsls	r4, r4, #19
 3345 00c2 C3F81049 		str	r4, [r3, #2320]
 3346              	.L181:
 698:Drivers/STM32F4xx_HAL_Driver/Src/stm32f4xx_ll_usb.c ****     {
 3347              		.loc 1 698 5 is_stmt 1 view .LVU988
 698:Drivers/STM32F4xx_HAL_Driver/Src/stm32f4xx_ll_usb.c ****     {
 3348              		.loc 1 698 8 is_stmt 0 view .LVU989
 3349 00c6 012A     		cmp	r2, #1
 3350 00c8 54D0     		beq	.L196
 704:Drivers/STM32F4xx_HAL_Driver/Src/stm32f4xx_ll_usb.c ****       {
 3351              		.loc 1 704 7 is_stmt 1 view .LVU990
 704:Drivers/STM32F4xx_HAL_Driver/Src/stm32f4xx_ll_usb.c ****       {
 3352              		.loc 1 704 13 is_stmt 0 view .LVU991
 3353 00ca CB78     		ldrb	r3, [r1, #3]	@ zero_extendqisi2
 704:Drivers/STM32F4xx_HAL_Driver/Src/stm32f4xx_ll_usb.c ****       {
 3354              		.loc 1 704 10 view .LVU992
 3355 00cc 012B     		cmp	r3, #1
ARM GAS  C:\Users\gx\AppData\Local\Temp\ccXSZ03x.s 			page 102


 3356 00ce 57D0     		beq	.L183
 707:Drivers/STM32F4xx_HAL_Driver/Src/stm32f4xx_ll_usb.c ****         {
 3357              		.loc 1 707 9 is_stmt 1 view .LVU993
 707:Drivers/STM32F4xx_HAL_Driver/Src/stm32f4xx_ll_usb.c ****         {
 3358              		.loc 1 707 15 is_stmt 0 view .LVU994
 3359 00d0 4B69     		ldr	r3, [r1, #20]
 707:Drivers/STM32F4xx_HAL_Driver/Src/stm32f4xx_ll_usb.c ****         {
 3360              		.loc 1 707 12 view .LVU995
 3361 00d2 002B     		cmp	r3, #0
 3362 00d4 54D0     		beq	.L183
 709:Drivers/STM32F4xx_HAL_Driver/Src/stm32f4xx_ll_usb.c ****         }
 3363              		.loc 1 709 11 is_stmt 1 view .LVU996
 709:Drivers/STM32F4xx_HAL_Driver/Src/stm32f4xx_ll_usb.c ****         }
 3364              		.loc 1 709 35 is_stmt 0 view .LVU997
 3365 00d6 D0F83438 		ldr	r3, [r0, #2100]
 709:Drivers/STM32F4xx_HAL_Driver/Src/stm32f4xx_ll_usb.c ****         }
 3366              		.loc 1 709 46 view .LVU998
 3367 00da 0E78     		ldrb	r6, [r1]	@ zero_extendqisi2
 709:Drivers/STM32F4xx_HAL_Driver/Src/stm32f4xx_ll_usb.c ****         }
 3368              		.loc 1 709 41 view .LVU999
 3369 00dc 0124     		movs	r4, #1
 3370 00de B440     		lsls	r4, r4, r6
 709:Drivers/STM32F4xx_HAL_Driver/Src/stm32f4xx_ll_usb.c ****         }
 3371              		.loc 1 709 35 view .LVU1000
 3372 00e0 2343     		orrs	r3, r3, r4
 3373 00e2 C0F83438 		str	r3, [r0, #2100]
 3374 00e6 4BE0     		b	.L183
 3375              	.L180:
 686:Drivers/STM32F4xx_HAL_Driver/Src/stm32f4xx_ll_usb.c ****       USBx_INEP(ep->num)->DIEPTSIZ &= ~(USB_OTG_DIEPTSIZ_PKTCNT); 
 3376              		.loc 1 686 7 is_stmt 1 view .LVU1001
 3377 00e8 0B78     		ldrb	r3, [r1]	@ zero_extendqisi2
 686:Drivers/STM32F4xx_HAL_Driver/Src/stm32f4xx_ll_usb.c ****       USBx_INEP(ep->num)->DIEPTSIZ &= ~(USB_OTG_DIEPTSIZ_PKTCNT); 
 3378              		.loc 1 686 36 is_stmt 0 view .LVU1002
 3379 00ea 00EB4313 		add	r3, r0, r3, lsl #5
 3380 00ee D3F81049 		ldr	r4, [r3, #2320]
 3381 00f2 E40C     		lsrs	r4, r4, #19
 3382 00f4 E404     		lsls	r4, r4, #19
 3383 00f6 C3F81049 		str	r4, [r3, #2320]
 687:Drivers/STM32F4xx_HAL_Driver/Src/stm32f4xx_ll_usb.c ****       USBx_INEP(ep->num)->DIEPTSIZ |= (USB_OTG_DIEPTSIZ_PKTCNT & (((ep->xfer_len + ep->maxpacket -1
 3384              		.loc 1 687 7 is_stmt 1 view .LVU1003
 3385 00fa 0B78     		ldrb	r3, [r1]	@ zero_extendqisi2
 687:Drivers/STM32F4xx_HAL_Driver/Src/stm32f4xx_ll_usb.c ****       USBx_INEP(ep->num)->DIEPTSIZ |= (USB_OTG_DIEPTSIZ_PKTCNT & (((ep->xfer_len + ep->maxpacket -1
 3386              		.loc 1 687 36 is_stmt 0 view .LVU1004
 3387 00fc 00EB4313 		add	r3, r0, r3, lsl #5
 3388 0100 D3F81049 		ldr	r4, [r3, #2320]
 3389 0104 24F0FF54 		bic	r4, r4, #534773760
 3390 0108 24F4C014 		bic	r4, r4, #1572864
 3391 010c C3F81049 		str	r4, [r3, #2320]
 688:Drivers/STM32F4xx_HAL_Driver/Src/stm32f4xx_ll_usb.c ****       USBx_INEP(ep->num)->DIEPTSIZ |= (USB_OTG_DIEPTSIZ_XFRSIZ & ep->xfer_len); 
 3392              		.loc 1 688 7 is_stmt 1 view .LVU1005
 3393 0110 0C78     		ldrb	r4, [r1]	@ zero_extendqisi2
 688:Drivers/STM32F4xx_HAL_Driver/Src/stm32f4xx_ll_usb.c ****       USBx_INEP(ep->num)->DIEPTSIZ |= (USB_OTG_DIEPTSIZ_XFRSIZ & ep->xfer_len); 
 3394              		.loc 1 688 36 is_stmt 0 view .LVU1006
 3395 0112 00EB4414 		add	r4, r0, r4, lsl #5
 3396 0116 D4F81059 		ldr	r5, [r4, #2320]
 688:Drivers/STM32F4xx_HAL_Driver/Src/stm32f4xx_ll_usb.c ****       USBx_INEP(ep->num)->DIEPTSIZ |= (USB_OTG_DIEPTSIZ_XFRSIZ & ep->xfer_len); 
 3397              		.loc 1 688 71 view .LVU1007
ARM GAS  C:\Users\gx\AppData\Local\Temp\ccXSZ03x.s 			page 103


 3398 011a 4B69     		ldr	r3, [r1, #20]
 688:Drivers/STM32F4xx_HAL_Driver/Src/stm32f4xx_ll_usb.c ****       USBx_INEP(ep->num)->DIEPTSIZ |= (USB_OTG_DIEPTSIZ_XFRSIZ & ep->xfer_len); 
 3399              		.loc 1 688 86 view .LVU1008
 3400 011c 8E68     		ldr	r6, [r1, #8]
 688:Drivers/STM32F4xx_HAL_Driver/Src/stm32f4xx_ll_usb.c ****       USBx_INEP(ep->num)->DIEPTSIZ |= (USB_OTG_DIEPTSIZ_XFRSIZ & ep->xfer_len); 
 3401              		.loc 1 688 82 view .LVU1009
 3402 011e 3344     		add	r3, r3, r6
 688:Drivers/STM32F4xx_HAL_Driver/Src/stm32f4xx_ll_usb.c ****       USBx_INEP(ep->num)->DIEPTSIZ |= (USB_OTG_DIEPTSIZ_XFRSIZ & ep->xfer_len); 
 3403              		.loc 1 688 98 view .LVU1010
 3404 0120 013B     		subs	r3, r3, #1
 688:Drivers/STM32F4xx_HAL_Driver/Src/stm32f4xx_ll_usb.c ****       USBx_INEP(ep->num)->DIEPTSIZ |= (USB_OTG_DIEPTSIZ_XFRSIZ & ep->xfer_len); 
 3405              		.loc 1 688 102 view .LVU1011
 3406 0122 B3FBF6F3 		udiv	r3, r3, r6
 688:Drivers/STM32F4xx_HAL_Driver/Src/stm32f4xx_ll_usb.c ****       USBx_INEP(ep->num)->DIEPTSIZ |= (USB_OTG_DIEPTSIZ_XFRSIZ & ep->xfer_len); 
 3407              		.loc 1 688 64 view .LVU1012
 3408 0126 4E4E     		ldr	r6, .L198
 3409 0128 06EAC343 		and	r3, r6, r3, lsl #19
 688:Drivers/STM32F4xx_HAL_Driver/Src/stm32f4xx_ll_usb.c ****       USBx_INEP(ep->num)->DIEPTSIZ |= (USB_OTG_DIEPTSIZ_XFRSIZ & ep->xfer_len); 
 3410              		.loc 1 688 36 view .LVU1013
 3411 012c 2B43     		orrs	r3, r3, r5
 3412 012e C4F81039 		str	r3, [r4, #2320]
 689:Drivers/STM32F4xx_HAL_Driver/Src/stm32f4xx_ll_usb.c ****       
 3413              		.loc 1 689 7 is_stmt 1 view .LVU1014
 3414 0132 0B78     		ldrb	r3, [r1]	@ zero_extendqisi2
 689:Drivers/STM32F4xx_HAL_Driver/Src/stm32f4xx_ll_usb.c ****       
 3415              		.loc 1 689 36 is_stmt 0 view .LVU1015
 3416 0134 00EB4313 		add	r3, r0, r3, lsl #5
 3417 0138 D3F81049 		ldr	r4, [r3, #2320]
 689:Drivers/STM32F4xx_HAL_Driver/Src/stm32f4xx_ll_usb.c ****       
 3418              		.loc 1 689 68 view .LVU1016
 3419 013c 4D69     		ldr	r5, [r1, #20]
 689:Drivers/STM32F4xx_HAL_Driver/Src/stm32f4xx_ll_usb.c ****       
 3420              		.loc 1 689 64 view .LVU1017
 3421 013e C5F31205 		ubfx	r5, r5, #0, #19
 689:Drivers/STM32F4xx_HAL_Driver/Src/stm32f4xx_ll_usb.c ****       
 3422              		.loc 1 689 36 view .LVU1018
 3423 0142 2C43     		orrs	r4, r4, r5
 3424 0144 C3F81049 		str	r4, [r3, #2320]
 691:Drivers/STM32F4xx_HAL_Driver/Src/stm32f4xx_ll_usb.c ****       {
 3425              		.loc 1 691 7 is_stmt 1 view .LVU1019
 691:Drivers/STM32F4xx_HAL_Driver/Src/stm32f4xx_ll_usb.c ****       {
 3426              		.loc 1 691 13 is_stmt 0 view .LVU1020
 3427 0148 CB78     		ldrb	r3, [r1, #3]	@ zero_extendqisi2
 691:Drivers/STM32F4xx_HAL_Driver/Src/stm32f4xx_ll_usb.c ****       {
 3428              		.loc 1 691 10 view .LVU1021
 3429 014a 012B     		cmp	r3, #1
 3430 014c BBD1     		bne	.L181
 693:Drivers/STM32F4xx_HAL_Driver/Src/stm32f4xx_ll_usb.c ****         USBx_INEP(ep->num)->DIEPTSIZ |= (USB_OTG_DIEPTSIZ_MULCNT & (1U << 29U)); 
 3431              		.loc 1 693 9 is_stmt 1 view .LVU1022
 3432 014e 0B78     		ldrb	r3, [r1]	@ zero_extendqisi2
 693:Drivers/STM32F4xx_HAL_Driver/Src/stm32f4xx_ll_usb.c ****         USBx_INEP(ep->num)->DIEPTSIZ |= (USB_OTG_DIEPTSIZ_MULCNT & (1U << 29U)); 
 3433              		.loc 1 693 38 is_stmt 0 view .LVU1023
 3434 0150 00EB4313 		add	r3, r0, r3, lsl #5
 3435 0154 D3F81049 		ldr	r4, [r3, #2320]
 3436 0158 24F0C044 		bic	r4, r4, #1610612736
 3437 015c C3F81049 		str	r4, [r3, #2320]
 694:Drivers/STM32F4xx_HAL_Driver/Src/stm32f4xx_ll_usb.c ****       }       
ARM GAS  C:\Users\gx\AppData\Local\Temp\ccXSZ03x.s 			page 104


 3438              		.loc 1 694 9 is_stmt 1 view .LVU1024
 3439 0160 0B78     		ldrb	r3, [r1]	@ zero_extendqisi2
 694:Drivers/STM32F4xx_HAL_Driver/Src/stm32f4xx_ll_usb.c ****       }       
 3440              		.loc 1 694 38 is_stmt 0 view .LVU1025
 3441 0162 00EB4313 		add	r3, r0, r3, lsl #5
 3442 0166 D3F81049 		ldr	r4, [r3, #2320]
 3443 016a 44F00054 		orr	r4, r4, #536870912
 3444 016e C3F81049 		str	r4, [r3, #2320]
 3445 0172 A8E7     		b	.L181
 3446              	.L196:
 700:Drivers/STM32F4xx_HAL_Driver/Src/stm32f4xx_ll_usb.c ****     }
 3447              		.loc 1 700 7 is_stmt 1 view .LVU1026
 3448 0174 0B78     		ldrb	r3, [r1]	@ zero_extendqisi2
 3449 0176 00EB4313 		add	r3, r0, r3, lsl #5
 700:Drivers/STM32F4xx_HAL_Driver/Src/stm32f4xx_ll_usb.c ****     }
 3450              		.loc 1 700 50 is_stmt 0 view .LVU1027
 3451 017a 0C69     		ldr	r4, [r1, #16]
 700:Drivers/STM32F4xx_HAL_Driver/Src/stm32f4xx_ll_usb.c ****     }
 3452              		.loc 1 700 35 view .LVU1028
 3453 017c C3F81449 		str	r4, [r3, #2324]
 3454              	.L183:
 714:Drivers/STM32F4xx_HAL_Driver/Src/stm32f4xx_ll_usb.c ****     {
 3455              		.loc 1 714 5 is_stmt 1 view .LVU1029
 714:Drivers/STM32F4xx_HAL_Driver/Src/stm32f4xx_ll_usb.c ****     {
 3456              		.loc 1 714 11 is_stmt 0 view .LVU1030
 3457 0180 CB78     		ldrb	r3, [r1, #3]	@ zero_extendqisi2
 714:Drivers/STM32F4xx_HAL_Driver/Src/stm32f4xx_ll_usb.c ****     {
 3458              		.loc 1 714 8 view .LVU1031
 3459 0182 012B     		cmp	r3, #1
 3460 0184 13D0     		beq	.L197
 3461              	.L184:
 727:Drivers/STM32F4xx_HAL_Driver/Src/stm32f4xx_ll_usb.c ****     
 3462              		.loc 1 727 5 is_stmt 1 view .LVU1032
 3463 0186 0B78     		ldrb	r3, [r1]	@ zero_extendqisi2
 727:Drivers/STM32F4xx_HAL_Driver/Src/stm32f4xx_ll_usb.c ****     
 3464              		.loc 1 727 33 is_stmt 0 view .LVU1033
 3465 0188 00EB4313 		add	r3, r0, r3, lsl #5
 3466 018c D3F80049 		ldr	r4, [r3, #2304]
 3467 0190 44F00444 		orr	r4, r4, #-2080374784
 3468 0194 C3F80049 		str	r4, [r3, #2304]
 729:Drivers/STM32F4xx_HAL_Driver/Src/stm32f4xx_ll_usb.c ****     {
 3469              		.loc 1 729 5 is_stmt 1 view .LVU1034
 729:Drivers/STM32F4xx_HAL_Driver/Src/stm32f4xx_ll_usb.c ****     {
 3470              		.loc 1 729 11 is_stmt 0 view .LVU1035
 3471 0198 CB78     		ldrb	r3, [r1, #3]	@ zero_extendqisi2
 729:Drivers/STM32F4xx_HAL_Driver/Src/stm32f4xx_ll_usb.c ****     {
 3472              		.loc 1 729 8 view .LVU1036
 3473 019a 012B     		cmp	r3, #1
 3474 019c 7FF471AF 		bne	.L186
 731:Drivers/STM32F4xx_HAL_Driver/Src/stm32f4xx_ll_usb.c ****     }    
 3475              		.loc 1 731 7 is_stmt 1 view .LVU1037
 3476 01a0 0092     		str	r2, [sp]
 3477 01a2 8B8A     		ldrh	r3, [r1, #20]
 3478 01a4 0A78     		ldrb	r2, [r1]	@ zero_extendqisi2
 3479              	.LVL234:
 731:Drivers/STM32F4xx_HAL_Driver/Src/stm32f4xx_ll_usb.c ****     }    
 3480              		.loc 1 731 7 is_stmt 0 view .LVU1038
ARM GAS  C:\Users\gx\AppData\Local\Temp\ccXSZ03x.s 			page 105


 3481 01a6 C968     		ldr	r1, [r1, #12]
 3482              	.LVL235:
 731:Drivers/STM32F4xx_HAL_Driver/Src/stm32f4xx_ll_usb.c ****     }    
 3483              		.loc 1 731 7 view .LVU1039
 3484 01a8 FFF7FEFF 		bl	USB_WritePacket
 3485              	.LVL236:
 731:Drivers/STM32F4xx_HAL_Driver/Src/stm32f4xx_ll_usb.c ****     }    
 3486              		.loc 1 731 7 view .LVU1040
 3487 01ac 69E7     		b	.L186
 3488              	.LVL237:
 3489              	.L197:
 716:Drivers/STM32F4xx_HAL_Driver/Src/stm32f4xx_ll_usb.c ****       {
 3490              		.loc 1 716 7 is_stmt 1 view .LVU1041
 716:Drivers/STM32F4xx_HAL_Driver/Src/stm32f4xx_ll_usb.c ****       {
 3491              		.loc 1 716 23 is_stmt 0 view .LVU1042
 3492 01ae D0F80838 		ldr	r3, [r0, #2056]
 716:Drivers/STM32F4xx_HAL_Driver/Src/stm32f4xx_ll_usb.c ****       {
 3493              		.loc 1 716 10 view .LVU1043
 3494 01b2 13F4807F 		tst	r3, #256
 3495 01b6 09D1     		bne	.L185
 718:Drivers/STM32F4xx_HAL_Driver/Src/stm32f4xx_ll_usb.c ****       }
 3496              		.loc 1 718 9 is_stmt 1 view .LVU1044
 3497 01b8 0B78     		ldrb	r3, [r1]	@ zero_extendqisi2
 718:Drivers/STM32F4xx_HAL_Driver/Src/stm32f4xx_ll_usb.c ****       }
 3498              		.loc 1 718 37 is_stmt 0 view .LVU1045
 3499 01ba 00EB4313 		add	r3, r0, r3, lsl #5
 3500 01be D3F80049 		ldr	r4, [r3, #2304]
 3501 01c2 44F00054 		orr	r4, r4, #536870912
 3502 01c6 C3F80049 		str	r4, [r3, #2304]
 3503 01ca DCE7     		b	.L184
 3504              	.L185:
 722:Drivers/STM32F4xx_HAL_Driver/Src/stm32f4xx_ll_usb.c ****       }
 3505              		.loc 1 722 9 is_stmt 1 view .LVU1046
 3506 01cc 0B78     		ldrb	r3, [r1]	@ zero_extendqisi2
 722:Drivers/STM32F4xx_HAL_Driver/Src/stm32f4xx_ll_usb.c ****       }
 3507              		.loc 1 722 37 is_stmt 0 view .LVU1047
 3508 01ce 00EB4313 		add	r3, r0, r3, lsl #5
 3509 01d2 D3F80049 		ldr	r4, [r3, #2304]
 3510 01d6 44F08054 		orr	r4, r4, #268435456
 3511 01da C3F80049 		str	r4, [r3, #2304]
 3512 01de D2E7     		b	.L184
 3513              	.L187:
 750:Drivers/STM32F4xx_HAL_Driver/Src/stm32f4xx_ll_usb.c ****       USBx_OUTEP(ep->num)->DOEPTSIZ |= (USB_OTG_DOEPTSIZ_PKTCNT & (pktcnt << 19U));
 3514              		.loc 1 750 7 is_stmt 1 view .LVU1048
 750:Drivers/STM32F4xx_HAL_Driver/Src/stm32f4xx_ll_usb.c ****       USBx_OUTEP(ep->num)->DOEPTSIZ |= (USB_OTG_DOEPTSIZ_PKTCNT & (pktcnt << 19U));
 3515              		.loc 1 750 34 is_stmt 0 view .LVU1049
 3516 01e0 8C68     		ldr	r4, [r1, #8]
 750:Drivers/STM32F4xx_HAL_Driver/Src/stm32f4xx_ll_usb.c ****       USBx_OUTEP(ep->num)->DOEPTSIZ |= (USB_OTG_DOEPTSIZ_PKTCNT & (pktcnt << 19U));
 3517              		.loc 1 750 30 view .LVU1050
 3518 01e2 2344     		add	r3, r3, r4
 750:Drivers/STM32F4xx_HAL_Driver/Src/stm32f4xx_ll_usb.c ****       USBx_OUTEP(ep->num)->DOEPTSIZ |= (USB_OTG_DOEPTSIZ_PKTCNT & (pktcnt << 19U));
 3519              		.loc 1 750 46 view .LVU1051
 3520 01e4 013B     		subs	r3, r3, #1
 750:Drivers/STM32F4xx_HAL_Driver/Src/stm32f4xx_ll_usb.c ****       USBx_OUTEP(ep->num)->DOEPTSIZ |= (USB_OTG_DOEPTSIZ_PKTCNT & (pktcnt << 19U));
 3521              		.loc 1 750 50 view .LVU1052
 3522 01e6 B3FBF4F3 		udiv	r3, r3, r4
 3523              	.LVL238:
ARM GAS  C:\Users\gx\AppData\Local\Temp\ccXSZ03x.s 			page 106


 751:Drivers/STM32F4xx_HAL_Driver/Src/stm32f4xx_ll_usb.c ****       USBx_OUTEP(ep->num)->DOEPTSIZ |= (USB_OTG_DOEPTSIZ_XFRSIZ & (ep->maxpacket * pktcnt));
 3524              		.loc 1 751 7 is_stmt 1 view .LVU1053
 3525 01ea 0C78     		ldrb	r4, [r1]	@ zero_extendqisi2
 751:Drivers/STM32F4xx_HAL_Driver/Src/stm32f4xx_ll_usb.c ****       USBx_OUTEP(ep->num)->DOEPTSIZ |= (USB_OTG_DOEPTSIZ_XFRSIZ & (ep->maxpacket * pktcnt));
 3526              		.loc 1 751 37 is_stmt 0 view .LVU1054
 3527 01ec 00EB4414 		add	r4, r0, r4, lsl #5
 3528 01f0 D4F8105B 		ldr	r5, [r4, #2832]
 751:Drivers/STM32F4xx_HAL_Driver/Src/stm32f4xx_ll_usb.c ****       USBx_OUTEP(ep->num)->DOEPTSIZ |= (USB_OTG_DOEPTSIZ_XFRSIZ & (ep->maxpacket * pktcnt));
 3529              		.loc 1 751 65 view .LVU1055
 3530 01f4 1A4E     		ldr	r6, .L198
 3531 01f6 06EAC346 		and	r6, r6, r3, lsl #19
 751:Drivers/STM32F4xx_HAL_Driver/Src/stm32f4xx_ll_usb.c ****       USBx_OUTEP(ep->num)->DOEPTSIZ |= (USB_OTG_DOEPTSIZ_XFRSIZ & (ep->maxpacket * pktcnt));
 3532              		.loc 1 751 37 view .LVU1056
 3533 01fa 3543     		orrs	r5, r5, r6
 3534 01fc C4F8105B 		str	r5, [r4, #2832]
 752:Drivers/STM32F4xx_HAL_Driver/Src/stm32f4xx_ll_usb.c ****     }
 3535              		.loc 1 752 7 is_stmt 1 view .LVU1057
 3536 0200 0C78     		ldrb	r4, [r1]	@ zero_extendqisi2
 752:Drivers/STM32F4xx_HAL_Driver/Src/stm32f4xx_ll_usb.c ****     }
 3537              		.loc 1 752 37 is_stmt 0 view .LVU1058
 3538 0202 00EB4414 		add	r4, r0, r4, lsl #5
 3539 0206 D4F8106B 		ldr	r6, [r4, #2832]
 752:Drivers/STM32F4xx_HAL_Driver/Src/stm32f4xx_ll_usb.c ****     }
 3540              		.loc 1 752 70 view .LVU1059
 3541 020a 8D68     		ldr	r5, [r1, #8]
 752:Drivers/STM32F4xx_HAL_Driver/Src/stm32f4xx_ll_usb.c ****     }
 3542              		.loc 1 752 82 view .LVU1060
 3543 020c 9BB2     		uxth	r3, r3
 752:Drivers/STM32F4xx_HAL_Driver/Src/stm32f4xx_ll_usb.c ****     }
 3544              		.loc 1 752 82 view .LVU1061
 3545 020e 05FB03F3 		mul	r3, r5, r3
 3546              	.LVL239:
 752:Drivers/STM32F4xx_HAL_Driver/Src/stm32f4xx_ll_usb.c ****     }
 3547              		.loc 1 752 65 view .LVU1062
 3548 0212 C3F31203 		ubfx	r3, r3, #0, #19
 752:Drivers/STM32F4xx_HAL_Driver/Src/stm32f4xx_ll_usb.c ****     }
 3549              		.loc 1 752 37 view .LVU1063
 3550 0216 3343     		orrs	r3, r3, r6
 3551 0218 C4F8103B 		str	r3, [r4, #2832]
 3552 021c 21E7     		b	.L188
 3553              	.L194:
 757:Drivers/STM32F4xx_HAL_Driver/Src/stm32f4xx_ll_usb.c ****     }
 3554              		.loc 1 757 7 is_stmt 1 view .LVU1064
 757:Drivers/STM32F4xx_HAL_Driver/Src/stm32f4xx_ll_usb.c ****     }
 3555              		.loc 1 757 50 is_stmt 0 view .LVU1065
 3556 021e CA68     		ldr	r2, [r1, #12]
 3557              	.LVL240:
 757:Drivers/STM32F4xx_HAL_Driver/Src/stm32f4xx_ll_usb.c ****     }
 3558              		.loc 1 757 7 view .LVU1066
 3559 0220 0B78     		ldrb	r3, [r1]	@ zero_extendqisi2
 3560 0222 00EB4313 		add	r3, r0, r3, lsl #5
 757:Drivers/STM32F4xx_HAL_Driver/Src/stm32f4xx_ll_usb.c ****     }
 3561              		.loc 1 757 36 view .LVU1067
 3562 0226 C3F8142B 		str	r2, [r3, #2836]
 3563 022a 1DE7     		b	.L189
 3564              	.L195:
 762:Drivers/STM32F4xx_HAL_Driver/Src/stm32f4xx_ll_usb.c ****       {
ARM GAS  C:\Users\gx\AppData\Local\Temp\ccXSZ03x.s 			page 107


 3565              		.loc 1 762 7 is_stmt 1 view .LVU1068
 762:Drivers/STM32F4xx_HAL_Driver/Src/stm32f4xx_ll_usb.c ****       {
 3566              		.loc 1 762 23 is_stmt 0 view .LVU1069
 3567 022c D0F80838 		ldr	r3, [r0, #2056]
 762:Drivers/STM32F4xx_HAL_Driver/Src/stm32f4xx_ll_usb.c ****       {
 3568              		.loc 1 762 10 view .LVU1070
 3569 0230 13F4807F 		tst	r3, #256
 3570 0234 09D1     		bne	.L191
 764:Drivers/STM32F4xx_HAL_Driver/Src/stm32f4xx_ll_usb.c ****       }
 3571              		.loc 1 764 9 is_stmt 1 view .LVU1071
 3572 0236 0B78     		ldrb	r3, [r1]	@ zero_extendqisi2
 764:Drivers/STM32F4xx_HAL_Driver/Src/stm32f4xx_ll_usb.c ****       }
 3573              		.loc 1 764 38 is_stmt 0 view .LVU1072
 3574 0238 00EB4313 		add	r3, r0, r3, lsl #5
 3575 023c D3F8002B 		ldr	r2, [r3, #2816]
 3576 0240 42F00052 		orr	r2, r2, #536870912
 3577 0244 C3F8002B 		str	r2, [r3, #2816]
 3578 0248 12E7     		b	.L190
 3579              	.L191:
 768:Drivers/STM32F4xx_HAL_Driver/Src/stm32f4xx_ll_usb.c ****       }
 3580              		.loc 1 768 9 is_stmt 1 view .LVU1073
 3581 024a 0B78     		ldrb	r3, [r1]	@ zero_extendqisi2
 768:Drivers/STM32F4xx_HAL_Driver/Src/stm32f4xx_ll_usb.c ****       }
 3582              		.loc 1 768 38 is_stmt 0 view .LVU1074
 3583 024c 00EB4313 		add	r3, r0, r3, lsl #5
 3584 0250 D3F8002B 		ldr	r2, [r3, #2816]
 3585 0254 42F08052 		orr	r2, r2, #268435456
 3586 0258 C3F8002B 		str	r2, [r3, #2816]
 3587 025c 08E7     		b	.L190
 3588              	.L199:
 3589 025e 00BF     		.align	2
 3590              	.L198:
 3591 0260 0000F81F 		.word	536346624
 3592              		.cfi_endproc
 3593              	.LFE139:
 3595              		.section	.text.USB_ReadPacket,"ax",%progbits
 3596              		.align	1
 3597              		.global	USB_ReadPacket
 3598              		.syntax unified
 3599              		.thumb
 3600              		.thumb_func
 3601              		.fpu fpv4-sp-d16
 3603              	USB_ReadPacket:
 3604              	.LVL241:
 3605              	.LFB142:
 906:Drivers/STM32F4xx_HAL_Driver/Src/stm32f4xx_ll_usb.c ****   uint32_t i=0U;
 3606              		.loc 1 906 1 is_stmt 1 view -0
 3607              		.cfi_startproc
 3608              		@ args = 0, pretend = 0, frame = 0
 3609              		@ frame_needed = 0, uses_anonymous_args = 0
 3610              		@ link register save eliminated.
 906:Drivers/STM32F4xx_HAL_Driver/Src/stm32f4xx_ll_usb.c ****   uint32_t i=0U;
 3611              		.loc 1 906 1 is_stmt 0 view .LVU1076
 3612 0000 10B4     		push	{r4}
 3613              	.LCFI56:
 3614              		.cfi_def_cfa_offset 4
 3615              		.cfi_offset 4, -4
ARM GAS  C:\Users\gx\AppData\Local\Temp\ccXSZ03x.s 			page 108


 3616 0002 0446     		mov	r4, r0
 3617 0004 0846     		mov	r0, r1
 3618              	.LVL242:
 907:Drivers/STM32F4xx_HAL_Driver/Src/stm32f4xx_ll_usb.c ****   uint32_t count32b = (len + 3U) / 4U;
 3619              		.loc 1 907 3 is_stmt 1 view .LVU1077
 908:Drivers/STM32F4xx_HAL_Driver/Src/stm32f4xx_ll_usb.c ****   
 3620              		.loc 1 908 3 view .LVU1078
 908:Drivers/STM32F4xx_HAL_Driver/Src/stm32f4xx_ll_usb.c ****   
 3621              		.loc 1 908 28 is_stmt 0 view .LVU1079
 3622 0006 D11C     		adds	r1, r2, #3
 3623              	.LVL243:
 908:Drivers/STM32F4xx_HAL_Driver/Src/stm32f4xx_ll_usb.c ****   
 3624              		.loc 1 908 12 view .LVU1080
 3625 0008 8908     		lsrs	r1, r1, #2
 3626              	.LVL244:
 910:Drivers/STM32F4xx_HAL_Driver/Src/stm32f4xx_ll_usb.c ****   {
 3627              		.loc 1 910 3 is_stmt 1 view .LVU1081
 910:Drivers/STM32F4xx_HAL_Driver/Src/stm32f4xx_ll_usb.c ****   {
 3628              		.loc 1 910 11 is_stmt 0 view .LVU1082
 3629 000a 0023     		movs	r3, #0
 3630              	.LVL245:
 3631              	.L201:
 910:Drivers/STM32F4xx_HAL_Driver/Src/stm32f4xx_ll_usb.c ****   {
 3632              		.loc 1 910 17 is_stmt 1 discriminator 1 view .LVU1083
 910:Drivers/STM32F4xx_HAL_Driver/Src/stm32f4xx_ll_usb.c ****   {
 3633              		.loc 1 910 3 is_stmt 0 discriminator 1 view .LVU1084
 3634 000c 8B42     		cmp	r3, r1
 3635 000e 06D2     		bcs	.L204
 912:Drivers/STM32F4xx_HAL_Driver/Src/stm32f4xx_ll_usb.c ****     
 3636              		.loc 1 912 5 is_stmt 1 discriminator 3 view .LVU1085
 912:Drivers/STM32F4xx_HAL_Driver/Src/stm32f4xx_ll_usb.c ****     
 3637              		.loc 1 912 34 is_stmt 0 discriminator 3 view .LVU1086
 3638 0010 04F58052 		add	r2, r4, #4096
 3639 0014 1268     		ldr	r2, [r2]
 912:Drivers/STM32F4xx_HAL_Driver/Src/stm32f4xx_ll_usb.c ****     
 3640              		.loc 1 912 32 discriminator 3 view .LVU1087
 3641 0016 40F8042B 		str	r2, [r0], #4
 3642              	.LVL246:
 910:Drivers/STM32F4xx_HAL_Driver/Src/stm32f4xx_ll_usb.c ****   {
 3643              		.loc 1 910 31 is_stmt 1 discriminator 3 view .LVU1088
 910:Drivers/STM32F4xx_HAL_Driver/Src/stm32f4xx_ll_usb.c ****   {
 3644              		.loc 1 910 32 is_stmt 0 discriminator 3 view .LVU1089
 3645 001a 0133     		adds	r3, r3, #1
 3646              	.LVL247:
 910:Drivers/STM32F4xx_HAL_Driver/Src/stm32f4xx_ll_usb.c ****   {
 3647              		.loc 1 910 32 discriminator 3 view .LVU1090
 3648 001c F6E7     		b	.L201
 3649              	.L204:
 916:Drivers/STM32F4xx_HAL_Driver/Src/stm32f4xx_ll_usb.c **** 
 3650              		.loc 1 916 1 view .LVU1091
 3651 001e 5DF8044B 		ldr	r4, [sp], #4
 3652              	.LCFI57:
 3653              		.cfi_restore 4
 3654              		.cfi_def_cfa_offset 0
 3655              	.LVL248:
 916:Drivers/STM32F4xx_HAL_Driver/Src/stm32f4xx_ll_usb.c **** 
 3656              		.loc 1 916 1 view .LVU1092
ARM GAS  C:\Users\gx\AppData\Local\Temp\ccXSZ03x.s 			page 109


 3657 0022 7047     		bx	lr
 3658              		.cfi_endproc
 3659              	.LFE142:
 3661              		.section	.text.USB_EPSetStall,"ax",%progbits
 3662              		.align	1
 3663              		.global	USB_EPSetStall
 3664              		.syntax unified
 3665              		.thumb
 3666              		.thumb_func
 3667              		.fpu fpv4-sp-d16
 3669              	USB_EPSetStall:
 3670              	.LVL249:
 3671              	.LFB143:
 925:Drivers/STM32F4xx_HAL_Driver/Src/stm32f4xx_ll_usb.c ****   if (ep->is_in == 1U)
 3672              		.loc 1 925 1 is_stmt 1 view -0
 3673              		.cfi_startproc
 3674              		@ args = 0, pretend = 0, frame = 0
 3675              		@ frame_needed = 0, uses_anonymous_args = 0
 3676              		@ link register save eliminated.
 926:Drivers/STM32F4xx_HAL_Driver/Src/stm32f4xx_ll_usb.c ****   {
 3677              		.loc 1 926 3 view .LVU1094
 926:Drivers/STM32F4xx_HAL_Driver/Src/stm32f4xx_ll_usb.c ****   {
 3678              		.loc 1 926 9 is_stmt 0 view .LVU1095
 3679 0000 4B78     		ldrb	r3, [r1, #1]	@ zero_extendqisi2
 926:Drivers/STM32F4xx_HAL_Driver/Src/stm32f4xx_ll_usb.c ****   {
 3680              		.loc 1 926 6 view .LVU1096
 3681 0002 012B     		cmp	r3, #1
 3682 0004 17D0     		beq	.L210
 936:Drivers/STM32F4xx_HAL_Driver/Src/stm32f4xx_ll_usb.c ****     {
 3683              		.loc 1 936 5 is_stmt 1 view .LVU1097
 936:Drivers/STM32F4xx_HAL_Driver/Src/stm32f4xx_ll_usb.c ****     {
 3684              		.loc 1 936 11 is_stmt 0 view .LVU1098
 3685 0006 0B78     		ldrb	r3, [r1]	@ zero_extendqisi2
 3686 0008 00EB4313 		add	r3, r0, r3, lsl #5
 936:Drivers/STM32F4xx_HAL_Driver/Src/stm32f4xx_ll_usb.c ****     {
 3687              		.loc 1 936 30 view .LVU1099
 3688 000c D3F8002B 		ldr	r2, [r3, #2816]
 936:Drivers/STM32F4xx_HAL_Driver/Src/stm32f4xx_ll_usb.c ****     {
 3689              		.loc 1 936 8 view .LVU1100
 3690 0010 002A     		cmp	r2, #0
 3691 0012 05DB     		blt	.L209
 938:Drivers/STM32F4xx_HAL_Driver/Src/stm32f4xx_ll_usb.c ****     } 
 3692              		.loc 1 938 7 is_stmt 1 view .LVU1101
 938:Drivers/STM32F4xx_HAL_Driver/Src/stm32f4xx_ll_usb.c ****     } 
 3693              		.loc 1 938 36 is_stmt 0 view .LVU1102
 3694 0014 D3F8002B 		ldr	r2, [r3, #2816]
 3695 0018 22F08042 		bic	r2, r2, #1073741824
 3696 001c C3F8002B 		str	r2, [r3, #2816]
 3697              	.L209:
 940:Drivers/STM32F4xx_HAL_Driver/Src/stm32f4xx_ll_usb.c ****   }
 3698              		.loc 1 940 5 is_stmt 1 view .LVU1103
 3699 0020 0B78     		ldrb	r3, [r1]	@ zero_extendqisi2
 940:Drivers/STM32F4xx_HAL_Driver/Src/stm32f4xx_ll_usb.c ****   }
 3700              		.loc 1 940 34 is_stmt 0 view .LVU1104
 3701 0022 00EB4310 		add	r0, r0, r3, lsl #5
 3702              	.LVL250:
 940:Drivers/STM32F4xx_HAL_Driver/Src/stm32f4xx_ll_usb.c ****   }
ARM GAS  C:\Users\gx\AppData\Local\Temp\ccXSZ03x.s 			page 110


 3703              		.loc 1 940 34 view .LVU1105
 3704 0026 D0F8003B 		ldr	r3, [r0, #2816]
 3705 002a 43F40013 		orr	r3, r3, #2097152
 3706 002e C0F8003B 		str	r3, [r0, #2816]
 3707              	.L208:
 942:Drivers/STM32F4xx_HAL_Driver/Src/stm32f4xx_ll_usb.c **** }
 3708              		.loc 1 942 3 is_stmt 1 view .LVU1106
 943:Drivers/STM32F4xx_HAL_Driver/Src/stm32f4xx_ll_usb.c **** 
 3709              		.loc 1 943 1 is_stmt 0 view .LVU1107
 3710 0032 0020     		movs	r0, #0
 3711 0034 7047     		bx	lr
 3712              	.LVL251:
 3713              	.L210:
 928:Drivers/STM32F4xx_HAL_Driver/Src/stm32f4xx_ll_usb.c ****     {
 3714              		.loc 1 928 5 is_stmt 1 view .LVU1108
 928:Drivers/STM32F4xx_HAL_Driver/Src/stm32f4xx_ll_usb.c ****     {
 3715              		.loc 1 928 11 is_stmt 0 view .LVU1109
 3716 0036 0B78     		ldrb	r3, [r1]	@ zero_extendqisi2
 3717 0038 00EB4313 		add	r3, r0, r3, lsl #5
 928:Drivers/STM32F4xx_HAL_Driver/Src/stm32f4xx_ll_usb.c ****     {
 3718              		.loc 1 928 29 view .LVU1110
 3719 003c D3F80029 		ldr	r2, [r3, #2304]
 928:Drivers/STM32F4xx_HAL_Driver/Src/stm32f4xx_ll_usb.c ****     {
 3720              		.loc 1 928 8 view .LVU1111
 3721 0040 002A     		cmp	r2, #0
 3722 0042 05DB     		blt	.L207
 930:Drivers/STM32F4xx_HAL_Driver/Src/stm32f4xx_ll_usb.c ****     } 
 3723              		.loc 1 930 7 is_stmt 1 view .LVU1112
 930:Drivers/STM32F4xx_HAL_Driver/Src/stm32f4xx_ll_usb.c ****     } 
 3724              		.loc 1 930 35 is_stmt 0 view .LVU1113
 3725 0044 D3F80029 		ldr	r2, [r3, #2304]
 3726 0048 22F08042 		bic	r2, r2, #1073741824
 3727 004c C3F80029 		str	r2, [r3, #2304]
 3728              	.L207:
 932:Drivers/STM32F4xx_HAL_Driver/Src/stm32f4xx_ll_usb.c ****   }
 3729              		.loc 1 932 5 is_stmt 1 view .LVU1114
 3730 0050 0B78     		ldrb	r3, [r1]	@ zero_extendqisi2
 932:Drivers/STM32F4xx_HAL_Driver/Src/stm32f4xx_ll_usb.c ****   }
 3731              		.loc 1 932 33 is_stmt 0 view .LVU1115
 3732 0052 00EB4310 		add	r0, r0, r3, lsl #5
 3733              	.LVL252:
 932:Drivers/STM32F4xx_HAL_Driver/Src/stm32f4xx_ll_usb.c ****   }
 3734              		.loc 1 932 33 view .LVU1116
 3735 0056 D0F80039 		ldr	r3, [r0, #2304]
 3736 005a 43F40013 		orr	r3, r3, #2097152
 3737 005e C0F80039 		str	r3, [r0, #2304]
 3738 0062 E6E7     		b	.L208
 3739              		.cfi_endproc
 3740              	.LFE143:
 3742              		.section	.text.USB_EPClearStall,"ax",%progbits
 3743              		.align	1
 3744              		.global	USB_EPClearStall
 3745              		.syntax unified
 3746              		.thumb
 3747              		.thumb_func
 3748              		.fpu fpv4-sp-d16
 3750              	USB_EPClearStall:
ARM GAS  C:\Users\gx\AppData\Local\Temp\ccXSZ03x.s 			page 111


 3751              	.LVL253:
 3752              	.LFB144:
 953:Drivers/STM32F4xx_HAL_Driver/Src/stm32f4xx_ll_usb.c ****   if (ep->is_in == 1U)
 3753              		.loc 1 953 1 is_stmt 1 view -0
 3754              		.cfi_startproc
 3755              		@ args = 0, pretend = 0, frame = 0
 3756              		@ frame_needed = 0, uses_anonymous_args = 0
 3757              		@ link register save eliminated.
 954:Drivers/STM32F4xx_HAL_Driver/Src/stm32f4xx_ll_usb.c ****   {
 3758              		.loc 1 954 3 view .LVU1118
 954:Drivers/STM32F4xx_HAL_Driver/Src/stm32f4xx_ll_usb.c ****   {
 3759              		.loc 1 954 9 is_stmt 0 view .LVU1119
 3760 0000 4B78     		ldrb	r3, [r1, #1]	@ zero_extendqisi2
 954:Drivers/STM32F4xx_HAL_Driver/Src/stm32f4xx_ll_usb.c ****   {
 3761              		.loc 1 954 6 view .LVU1120
 3762 0002 012B     		cmp	r3, #1
 3763 0004 0FD0     		beq	.L214
 964:Drivers/STM32F4xx_HAL_Driver/Src/stm32f4xx_ll_usb.c ****     if (ep->type == EP_TYPE_INTR || ep->type == EP_TYPE_BULK)
 3764              		.loc 1 964 5 is_stmt 1 view .LVU1121
 3765 0006 0B78     		ldrb	r3, [r1]	@ zero_extendqisi2
 964:Drivers/STM32F4xx_HAL_Driver/Src/stm32f4xx_ll_usb.c ****     if (ep->type == EP_TYPE_INTR || ep->type == EP_TYPE_BULK)
 3766              		.loc 1 964 34 is_stmt 0 view .LVU1122
 3767 0008 00EB4313 		add	r3, r0, r3, lsl #5
 3768 000c D3F8002B 		ldr	r2, [r3, #2816]
 3769 0010 22F40012 		bic	r2, r2, #2097152
 3770 0014 C3F8002B 		str	r2, [r3, #2816]
 965:Drivers/STM32F4xx_HAL_Driver/Src/stm32f4xx_ll_usb.c ****     {
 3771              		.loc 1 965 5 is_stmt 1 view .LVU1123
 965:Drivers/STM32F4xx_HAL_Driver/Src/stm32f4xx_ll_usb.c ****     {
 3772              		.loc 1 965 11 is_stmt 0 view .LVU1124
 3773 0018 CB78     		ldrb	r3, [r1, #3]	@ zero_extendqisi2
 965:Drivers/STM32F4xx_HAL_Driver/Src/stm32f4xx_ll_usb.c ****     {
 3774              		.loc 1 965 34 view .LVU1125
 3775 001a 023B     		subs	r3, r3, #2
 3776 001c DBB2     		uxtb	r3, r3
 965:Drivers/STM32F4xx_HAL_Driver/Src/stm32f4xx_ll_usb.c ****     {
 3777              		.loc 1 965 8 view .LVU1126
 3778 001e 012B     		cmp	r3, #1
 3779 0020 19D9     		bls	.L215
 3780              	.LVL254:
 3781              	.L213:
 970:Drivers/STM32F4xx_HAL_Driver/Src/stm32f4xx_ll_usb.c **** }
 3782              		.loc 1 970 3 is_stmt 1 view .LVU1127
 971:Drivers/STM32F4xx_HAL_Driver/Src/stm32f4xx_ll_usb.c **** 
 3783              		.loc 1 971 1 is_stmt 0 view .LVU1128
 3784 0022 0020     		movs	r0, #0
 3785 0024 7047     		bx	lr
 3786              	.LVL255:
 3787              	.L214:
 956:Drivers/STM32F4xx_HAL_Driver/Src/stm32f4xx_ll_usb.c ****     if (ep->type == EP_TYPE_INTR || ep->type == EP_TYPE_BULK)
 3788              		.loc 1 956 5 is_stmt 1 view .LVU1129
 3789 0026 0B78     		ldrb	r3, [r1]	@ zero_extendqisi2
 956:Drivers/STM32F4xx_HAL_Driver/Src/stm32f4xx_ll_usb.c ****     if (ep->type == EP_TYPE_INTR || ep->type == EP_TYPE_BULK)
 3790              		.loc 1 956 33 is_stmt 0 view .LVU1130
 3791 0028 00EB4313 		add	r3, r0, r3, lsl #5
 3792 002c D3F80029 		ldr	r2, [r3, #2304]
 3793 0030 22F40012 		bic	r2, r2, #2097152
ARM GAS  C:\Users\gx\AppData\Local\Temp\ccXSZ03x.s 			page 112


 3794 0034 C3F80029 		str	r2, [r3, #2304]
 957:Drivers/STM32F4xx_HAL_Driver/Src/stm32f4xx_ll_usb.c ****     {
 3795              		.loc 1 957 5 is_stmt 1 view .LVU1131
 957:Drivers/STM32F4xx_HAL_Driver/Src/stm32f4xx_ll_usb.c ****     {
 3796              		.loc 1 957 11 is_stmt 0 view .LVU1132
 3797 0038 CB78     		ldrb	r3, [r1, #3]	@ zero_extendqisi2
 957:Drivers/STM32F4xx_HAL_Driver/Src/stm32f4xx_ll_usb.c ****     {
 3798              		.loc 1 957 34 view .LVU1133
 3799 003a 023B     		subs	r3, r3, #2
 3800 003c DBB2     		uxtb	r3, r3
 957:Drivers/STM32F4xx_HAL_Driver/Src/stm32f4xx_ll_usb.c ****     {
 3801              		.loc 1 957 8 view .LVU1134
 3802 003e 012B     		cmp	r3, #1
 3803 0040 EFD8     		bhi	.L213
 959:Drivers/STM32F4xx_HAL_Driver/Src/stm32f4xx_ll_usb.c ****     }    
 3804              		.loc 1 959 8 is_stmt 1 view .LVU1135
 3805 0042 0B78     		ldrb	r3, [r1]	@ zero_extendqisi2
 959:Drivers/STM32F4xx_HAL_Driver/Src/stm32f4xx_ll_usb.c ****     }    
 3806              		.loc 1 959 36 is_stmt 0 view .LVU1136
 3807 0044 00EB4310 		add	r0, r0, r3, lsl #5
 3808              	.LVL256:
 959:Drivers/STM32F4xx_HAL_Driver/Src/stm32f4xx_ll_usb.c ****     }    
 3809              		.loc 1 959 36 view .LVU1137
 3810 0048 D0F80039 		ldr	r3, [r0, #2304]
 3811 004c 43F08053 		orr	r3, r3, #268435456
 3812 0050 C0F80039 		str	r3, [r0, #2304]
 3813 0054 E5E7     		b	.L213
 3814              	.LVL257:
 3815              	.L215:
 967:Drivers/STM32F4xx_HAL_Driver/Src/stm32f4xx_ll_usb.c ****     }    
 3816              		.loc 1 967 7 is_stmt 1 view .LVU1138
 3817 0056 0B78     		ldrb	r3, [r1]	@ zero_extendqisi2
 967:Drivers/STM32F4xx_HAL_Driver/Src/stm32f4xx_ll_usb.c ****     }    
 3818              		.loc 1 967 36 is_stmt 0 view .LVU1139
 3819 0058 00EB4310 		add	r0, r0, r3, lsl #5
 3820              	.LVL258:
 967:Drivers/STM32F4xx_HAL_Driver/Src/stm32f4xx_ll_usb.c ****     }    
 3821              		.loc 1 967 36 view .LVU1140
 3822 005c D0F8003B 		ldr	r3, [r0, #2816]
 3823 0060 43F08053 		orr	r3, r3, #268435456
 3824 0064 C0F8003B 		str	r3, [r0, #2816]
 3825 0068 DBE7     		b	.L213
 3826              		.cfi_endproc
 3827              	.LFE144:
 3829              		.section	.text.USB_StopDevice,"ax",%progbits
 3830              		.align	1
 3831              		.global	USB_StopDevice
 3832              		.syntax unified
 3833              		.thumb
 3834              		.thumb_func
 3835              		.fpu fpv4-sp-d16
 3837              	USB_StopDevice:
 3838              	.LVL259:
 3839              	.LFB145:
 979:Drivers/STM32F4xx_HAL_Driver/Src/stm32f4xx_ll_usb.c ****   uint32_t i;
 3840              		.loc 1 979 1 is_stmt 1 view -0
 3841              		.cfi_startproc
ARM GAS  C:\Users\gx\AppData\Local\Temp\ccXSZ03x.s 			page 113


 3842              		@ args = 0, pretend = 0, frame = 0
 3843              		@ frame_needed = 0, uses_anonymous_args = 0
 979:Drivers/STM32F4xx_HAL_Driver/Src/stm32f4xx_ll_usb.c ****   uint32_t i;
 3844              		.loc 1 979 1 is_stmt 0 view .LVU1142
 3845 0000 38B5     		push	{r3, r4, r5, lr}
 3846              	.LCFI58:
 3847              		.cfi_def_cfa_offset 16
 3848              		.cfi_offset 3, -16
 3849              		.cfi_offset 4, -12
 3850              		.cfi_offset 5, -8
 3851              		.cfi_offset 14, -4
 3852 0002 0546     		mov	r5, r0
 980:Drivers/STM32F4xx_HAL_Driver/Src/stm32f4xx_ll_usb.c ****   
 3853              		.loc 1 980 3 is_stmt 1 view .LVU1143
 983:Drivers/STM32F4xx_HAL_Driver/Src/stm32f4xx_ll_usb.c ****   {
 3854              		.loc 1 983 3 view .LVU1144
 3855              	.LVL260:
 983:Drivers/STM32F4xx_HAL_Driver/Src/stm32f4xx_ll_usb.c ****   {
 3856              		.loc 1 983 10 is_stmt 0 view .LVU1145
 3857 0004 0022     		movs	r2, #0
 983:Drivers/STM32F4xx_HAL_Driver/Src/stm32f4xx_ll_usb.c ****   {
 3858              		.loc 1 983 3 view .LVU1146
 3859 0006 07E0     		b	.L217
 3860              	.LVL261:
 3861              	.L218:
 985:Drivers/STM32F4xx_HAL_Driver/Src/stm32f4xx_ll_usb.c ****     USBx_OUTEP(i)->DOEPINT  = 0xFFU;
 3862              		.loc 1 985 5 is_stmt 1 discriminator 3 view .LVU1147
 3863 0008 05EB4213 		add	r3, r5, r2, lsl #5
 985:Drivers/STM32F4xx_HAL_Driver/Src/stm32f4xx_ll_usb.c ****     USBx_OUTEP(i)->DOEPINT  = 0xFFU;
 3864              		.loc 1 985 28 is_stmt 0 discriminator 3 view .LVU1148
 3865 000c FF21     		movs	r1, #255
 3866 000e C3F80819 		str	r1, [r3, #2312]
 986:Drivers/STM32F4xx_HAL_Driver/Src/stm32f4xx_ll_usb.c ****   }
 3867              		.loc 1 986 5 is_stmt 1 discriminator 3 view .LVU1149
 986:Drivers/STM32F4xx_HAL_Driver/Src/stm32f4xx_ll_usb.c ****   }
 3868              		.loc 1 986 29 is_stmt 0 discriminator 3 view .LVU1150
 3869 0012 C3F8081B 		str	r1, [r3, #2824]
 983:Drivers/STM32F4xx_HAL_Driver/Src/stm32f4xx_ll_usb.c ****   {
 3870              		.loc 1 983 26 is_stmt 1 discriminator 3 view .LVU1151
 983:Drivers/STM32F4xx_HAL_Driver/Src/stm32f4xx_ll_usb.c ****   {
 3871              		.loc 1 983 27 is_stmt 0 discriminator 3 view .LVU1152
 3872 0016 0132     		adds	r2, r2, #1
 3873              	.LVL262:
 3874              	.L217:
 983:Drivers/STM32F4xx_HAL_Driver/Src/stm32f4xx_ll_usb.c ****   {
 3875              		.loc 1 983 16 is_stmt 1 discriminator 1 view .LVU1153
 983:Drivers/STM32F4xx_HAL_Driver/Src/stm32f4xx_ll_usb.c ****   {
 3876              		.loc 1 983 3 is_stmt 0 discriminator 1 view .LVU1154
 3877 0018 0E2A     		cmp	r2, #14
 3878 001a F5D9     		bls	.L218
 988:Drivers/STM32F4xx_HAL_Driver/Src/stm32f4xx_ll_usb.c ****   
 3879              		.loc 1 988 3 is_stmt 1 view .LVU1155
 988:Drivers/STM32F4xx_HAL_Driver/Src/stm32f4xx_ll_usb.c ****   
 3880              		.loc 1 988 22 is_stmt 0 view .LVU1156
 3881 001c 4FF0FF32 		mov	r2, #-1
 3882              	.LVL263:
 988:Drivers/STM32F4xx_HAL_Driver/Src/stm32f4xx_ll_usb.c ****   
ARM GAS  C:\Users\gx\AppData\Local\Temp\ccXSZ03x.s 			page 114


 3883              		.loc 1 988 22 view .LVU1157
 3884 0020 C5F81828 		str	r2, [r5, #2072]
 991:Drivers/STM32F4xx_HAL_Driver/Src/stm32f4xx_ll_usb.c ****   USBx_DEVICE->DOEPMSK  = 0U;
 3885              		.loc 1 991 3 is_stmt 1 view .LVU1158
 991:Drivers/STM32F4xx_HAL_Driver/Src/stm32f4xx_ll_usb.c ****   USBx_DEVICE->DOEPMSK  = 0U;
 3886              		.loc 1 991 25 is_stmt 0 view .LVU1159
 3887 0024 0024     		movs	r4, #0
 3888 0026 C5F81048 		str	r4, [r5, #2064]
 992:Drivers/STM32F4xx_HAL_Driver/Src/stm32f4xx_ll_usb.c ****   USBx_DEVICE->DAINTMSK = 0U;
 3889              		.loc 1 992 3 is_stmt 1 view .LVU1160
 992:Drivers/STM32F4xx_HAL_Driver/Src/stm32f4xx_ll_usb.c ****   USBx_DEVICE->DAINTMSK = 0U;
 3890              		.loc 1 992 25 is_stmt 0 view .LVU1161
 3891 002a C5F81448 		str	r4, [r5, #2068]
 993:Drivers/STM32F4xx_HAL_Driver/Src/stm32f4xx_ll_usb.c ****   
 3892              		.loc 1 993 3 is_stmt 1 view .LVU1162
 993:Drivers/STM32F4xx_HAL_Driver/Src/stm32f4xx_ll_usb.c ****   
 3893              		.loc 1 993 25 is_stmt 0 view .LVU1163
 3894 002e C5F81C48 		str	r4, [r5, #2076]
 996:Drivers/STM32F4xx_HAL_Driver/Src/stm32f4xx_ll_usb.c ****   USB_FlushTxFifo(USBx ,  0x10U);  
 3895              		.loc 1 996 3 is_stmt 1 view .LVU1164
 3896 0032 2846     		mov	r0, r5
 3897              	.LVL264:
 996:Drivers/STM32F4xx_HAL_Driver/Src/stm32f4xx_ll_usb.c ****   USB_FlushTxFifo(USBx ,  0x10U);  
 3898              		.loc 1 996 3 is_stmt 0 view .LVU1165
 3899 0034 FFF7FEFF 		bl	USB_FlushRxFifo
 3900              	.LVL265:
 997:Drivers/STM32F4xx_HAL_Driver/Src/stm32f4xx_ll_usb.c ****   
 3901              		.loc 1 997 3 is_stmt 1 view .LVU1166
 3902 0038 1021     		movs	r1, #16
 3903 003a 2846     		mov	r0, r5
 3904 003c FFF7FEFF 		bl	USB_FlushTxFifo
 3905              	.LVL266:
 999:Drivers/STM32F4xx_HAL_Driver/Src/stm32f4xx_ll_usb.c **** }
 3906              		.loc 1 999 3 view .LVU1167
1000:Drivers/STM32F4xx_HAL_Driver/Src/stm32f4xx_ll_usb.c **** 
 3907              		.loc 1 1000 1 is_stmt 0 view .LVU1168
 3908 0040 2046     		mov	r0, r4
 3909 0042 38BD     		pop	{r3, r4, r5, pc}
1000:Drivers/STM32F4xx_HAL_Driver/Src/stm32f4xx_ll_usb.c **** 
 3910              		.loc 1 1000 1 view .LVU1169
 3911              		.cfi_endproc
 3912              	.LFE145:
 3914              		.section	.text.USB_SetDevAddress,"ax",%progbits
 3915              		.align	1
 3916              		.global	USB_SetDevAddress
 3917              		.syntax unified
 3918              		.thumb
 3919              		.thumb_func
 3920              		.fpu fpv4-sp-d16
 3922              	USB_SetDevAddress:
 3923              	.LVL267:
 3924              	.LFB146:
1010:Drivers/STM32F4xx_HAL_Driver/Src/stm32f4xx_ll_usb.c ****   USBx_DEVICE->DCFG &= ~ (USB_OTG_DCFG_DAD);
 3925              		.loc 1 1010 1 is_stmt 1 view -0
 3926              		.cfi_startproc
 3927              		@ args = 0, pretend = 0, frame = 0
 3928              		@ frame_needed = 0, uses_anonymous_args = 0
ARM GAS  C:\Users\gx\AppData\Local\Temp\ccXSZ03x.s 			page 115


 3929              		@ link register save eliminated.
1011:Drivers/STM32F4xx_HAL_Driver/Src/stm32f4xx_ll_usb.c ****   USBx_DEVICE->DCFG |= (address << 4U) & USB_OTG_DCFG_DAD ;
 3930              		.loc 1 1011 3 view .LVU1171
1011:Drivers/STM32F4xx_HAL_Driver/Src/stm32f4xx_ll_usb.c ****   USBx_DEVICE->DCFG |= (address << 4U) & USB_OTG_DCFG_DAD ;
 3931              		.loc 1 1011 21 is_stmt 0 view .LVU1172
 3932 0000 D0F80038 		ldr	r3, [r0, #2048]
 3933 0004 23F4FE63 		bic	r3, r3, #2032
 3934 0008 C0F80038 		str	r3, [r0, #2048]
1012:Drivers/STM32F4xx_HAL_Driver/Src/stm32f4xx_ll_usb.c ****   
 3935              		.loc 1 1012 3 is_stmt 1 view .LVU1173
1012:Drivers/STM32F4xx_HAL_Driver/Src/stm32f4xx_ll_usb.c ****   
 3936              		.loc 1 1012 21 is_stmt 0 view .LVU1174
 3937 000c D0F80038 		ldr	r3, [r0, #2048]
1012:Drivers/STM32F4xx_HAL_Driver/Src/stm32f4xx_ll_usb.c ****   
 3938              		.loc 1 1012 33 view .LVU1175
 3939 0010 0901     		lsls	r1, r1, #4
 3940              	.LVL268:
1012:Drivers/STM32F4xx_HAL_Driver/Src/stm32f4xx_ll_usb.c ****   
 3941              		.loc 1 1012 40 view .LVU1176
 3942 0012 01F4FE61 		and	r1, r1, #2032
1012:Drivers/STM32F4xx_HAL_Driver/Src/stm32f4xx_ll_usb.c ****   
 3943              		.loc 1 1012 21 view .LVU1177
 3944 0016 1943     		orrs	r1, r1, r3
 3945 0018 C0F80018 		str	r1, [r0, #2048]
1014:Drivers/STM32F4xx_HAL_Driver/Src/stm32f4xx_ll_usb.c **** }
 3946              		.loc 1 1014 3 is_stmt 1 view .LVU1178
1015:Drivers/STM32F4xx_HAL_Driver/Src/stm32f4xx_ll_usb.c **** 
 3947              		.loc 1 1015 1 is_stmt 0 view .LVU1179
 3948 001c 0020     		movs	r0, #0
 3949              	.LVL269:
1015:Drivers/STM32F4xx_HAL_Driver/Src/stm32f4xx_ll_usb.c **** 
 3950              		.loc 1 1015 1 view .LVU1180
 3951 001e 7047     		bx	lr
 3952              		.cfi_endproc
 3953              	.LFE146:
 3955              		.section	.text.USB_DevConnect,"ax",%progbits
 3956              		.align	1
 3957              		.global	USB_DevConnect
 3958              		.syntax unified
 3959              		.thumb
 3960              		.thumb_func
 3961              		.fpu fpv4-sp-d16
 3963              	USB_DevConnect:
 3964              	.LVL270:
 3965              	.LFB147:
1023:Drivers/STM32F4xx_HAL_Driver/Src/stm32f4xx_ll_usb.c ****   USBx_DEVICE->DCTL &= ~USB_OTG_DCTL_SDIS ;
 3966              		.loc 1 1023 1 is_stmt 1 view -0
 3967              		.cfi_startproc
 3968              		@ args = 0, pretend = 0, frame = 0
 3969              		@ frame_needed = 0, uses_anonymous_args = 0
1023:Drivers/STM32F4xx_HAL_Driver/Src/stm32f4xx_ll_usb.c ****   USBx_DEVICE->DCTL &= ~USB_OTG_DCTL_SDIS ;
 3970              		.loc 1 1023 1 is_stmt 0 view .LVU1182
 3971 0000 08B5     		push	{r3, lr}
 3972              	.LCFI59:
 3973              		.cfi_def_cfa_offset 8
 3974              		.cfi_offset 3, -8
 3975              		.cfi_offset 14, -4
ARM GAS  C:\Users\gx\AppData\Local\Temp\ccXSZ03x.s 			page 116


1024:Drivers/STM32F4xx_HAL_Driver/Src/stm32f4xx_ll_usb.c ****   HAL_Delay(3U);
 3976              		.loc 1 1024 3 is_stmt 1 view .LVU1183
1024:Drivers/STM32F4xx_HAL_Driver/Src/stm32f4xx_ll_usb.c ****   HAL_Delay(3U);
 3977              		.loc 1 1024 21 is_stmt 0 view .LVU1184
 3978 0002 D0F80438 		ldr	r3, [r0, #2052]
 3979 0006 23F00203 		bic	r3, r3, #2
 3980 000a C0F80438 		str	r3, [r0, #2052]
1025:Drivers/STM32F4xx_HAL_Driver/Src/stm32f4xx_ll_usb.c ****   
 3981              		.loc 1 1025 3 is_stmt 1 view .LVU1185
 3982 000e 0320     		movs	r0, #3
 3983              	.LVL271:
1025:Drivers/STM32F4xx_HAL_Driver/Src/stm32f4xx_ll_usb.c ****   
 3984              		.loc 1 1025 3 is_stmt 0 view .LVU1186
 3985 0010 FFF7FEFF 		bl	HAL_Delay
 3986              	.LVL272:
1027:Drivers/STM32F4xx_HAL_Driver/Src/stm32f4xx_ll_usb.c **** }
 3987              		.loc 1 1027 3 is_stmt 1 view .LVU1187
1028:Drivers/STM32F4xx_HAL_Driver/Src/stm32f4xx_ll_usb.c **** 
 3988              		.loc 1 1028 1 is_stmt 0 view .LVU1188
 3989 0014 0020     		movs	r0, #0
 3990 0016 08BD     		pop	{r3, pc}
 3991              		.cfi_endproc
 3992              	.LFE147:
 3994              		.section	.text.USB_DevDisconnect,"ax",%progbits
 3995              		.align	1
 3996              		.global	USB_DevDisconnect
 3997              		.syntax unified
 3998              		.thumb
 3999              		.thumb_func
 4000              		.fpu fpv4-sp-d16
 4002              	USB_DevDisconnect:
 4003              	.LVL273:
 4004              	.LFB148:
1036:Drivers/STM32F4xx_HAL_Driver/Src/stm32f4xx_ll_usb.c ****   USBx_DEVICE->DCTL |= USB_OTG_DCTL_SDIS ;
 4005              		.loc 1 1036 1 is_stmt 1 view -0
 4006              		.cfi_startproc
 4007              		@ args = 0, pretend = 0, frame = 0
 4008              		@ frame_needed = 0, uses_anonymous_args = 0
1036:Drivers/STM32F4xx_HAL_Driver/Src/stm32f4xx_ll_usb.c ****   USBx_DEVICE->DCTL |= USB_OTG_DCTL_SDIS ;
 4009              		.loc 1 1036 1 is_stmt 0 view .LVU1190
 4010 0000 08B5     		push	{r3, lr}
 4011              	.LCFI60:
 4012              		.cfi_def_cfa_offset 8
 4013              		.cfi_offset 3, -8
 4014              		.cfi_offset 14, -4
1037:Drivers/STM32F4xx_HAL_Driver/Src/stm32f4xx_ll_usb.c ****   HAL_Delay(3U);
 4015              		.loc 1 1037 3 is_stmt 1 view .LVU1191
1037:Drivers/STM32F4xx_HAL_Driver/Src/stm32f4xx_ll_usb.c ****   HAL_Delay(3U);
 4016              		.loc 1 1037 21 is_stmt 0 view .LVU1192
 4017 0002 D0F80438 		ldr	r3, [r0, #2052]
 4018 0006 43F00203 		orr	r3, r3, #2
 4019 000a C0F80438 		str	r3, [r0, #2052]
1038:Drivers/STM32F4xx_HAL_Driver/Src/stm32f4xx_ll_usb.c ****   
 4020              		.loc 1 1038 3 is_stmt 1 view .LVU1193
 4021 000e 0320     		movs	r0, #3
 4022              	.LVL274:
1038:Drivers/STM32F4xx_HAL_Driver/Src/stm32f4xx_ll_usb.c ****   
ARM GAS  C:\Users\gx\AppData\Local\Temp\ccXSZ03x.s 			page 117


 4023              		.loc 1 1038 3 is_stmt 0 view .LVU1194
 4024 0010 FFF7FEFF 		bl	HAL_Delay
 4025              	.LVL275:
1040:Drivers/STM32F4xx_HAL_Driver/Src/stm32f4xx_ll_usb.c **** }
 4026              		.loc 1 1040 3 is_stmt 1 view .LVU1195
1041:Drivers/STM32F4xx_HAL_Driver/Src/stm32f4xx_ll_usb.c **** 
 4027              		.loc 1 1041 1 is_stmt 0 view .LVU1196
 4028 0014 0020     		movs	r0, #0
 4029 0016 08BD     		pop	{r3, pc}
 4030              		.cfi_endproc
 4031              	.LFE148:
 4033              		.section	.text.USB_ReadInterrupts,"ax",%progbits
 4034              		.align	1
 4035              		.global	USB_ReadInterrupts
 4036              		.syntax unified
 4037              		.thumb
 4038              		.thumb_func
 4039              		.fpu fpv4-sp-d16
 4041              	USB_ReadInterrupts:
 4042              	.LVL276:
 4043              	.LFB149:
1049:Drivers/STM32F4xx_HAL_Driver/Src/stm32f4xx_ll_usb.c ****   uint32_t v = 0U;
 4044              		.loc 1 1049 1 is_stmt 1 view -0
 4045              		.cfi_startproc
 4046              		@ args = 0, pretend = 0, frame = 0
 4047              		@ frame_needed = 0, uses_anonymous_args = 0
 4048              		@ link register save eliminated.
1050:Drivers/STM32F4xx_HAL_Driver/Src/stm32f4xx_ll_usb.c ****   
 4049              		.loc 1 1050 3 view .LVU1198
1052:Drivers/STM32F4xx_HAL_Driver/Src/stm32f4xx_ll_usb.c ****   v &= USBx->GINTMSK;
 4050              		.loc 1 1052 3 view .LVU1199
1052:Drivers/STM32F4xx_HAL_Driver/Src/stm32f4xx_ll_usb.c ****   v &= USBx->GINTMSK;
 4051              		.loc 1 1052 5 is_stmt 0 view .LVU1200
 4052 0000 4269     		ldr	r2, [r0, #20]
 4053              	.LVL277:
1053:Drivers/STM32F4xx_HAL_Driver/Src/stm32f4xx_ll_usb.c ****   return v;  
 4054              		.loc 1 1053 3 is_stmt 1 view .LVU1201
1053:Drivers/STM32F4xx_HAL_Driver/Src/stm32f4xx_ll_usb.c ****   return v;  
 4055              		.loc 1 1053 12 is_stmt 0 view .LVU1202
 4056 0002 8069     		ldr	r0, [r0, #24]
 4057              	.LVL278:
1054:Drivers/STM32F4xx_HAL_Driver/Src/stm32f4xx_ll_usb.c **** }
 4058              		.loc 1 1054 3 is_stmt 1 view .LVU1203
1055:Drivers/STM32F4xx_HAL_Driver/Src/stm32f4xx_ll_usb.c **** 
 4059              		.loc 1 1055 1 is_stmt 0 view .LVU1204
 4060 0004 1040     		ands	r0, r0, r2
 4061              	.LVL279:
1055:Drivers/STM32F4xx_HAL_Driver/Src/stm32f4xx_ll_usb.c **** 
 4062              		.loc 1 1055 1 view .LVU1205
 4063 0006 7047     		bx	lr
 4064              		.cfi_endproc
 4065              	.LFE149:
 4067              		.section	.text.USB_ReadDevAllOutEpInterrupt,"ax",%progbits
 4068              		.align	1
 4069              		.global	USB_ReadDevAllOutEpInterrupt
 4070              		.syntax unified
 4071              		.thumb
ARM GAS  C:\Users\gx\AppData\Local\Temp\ccXSZ03x.s 			page 118


 4072              		.thumb_func
 4073              		.fpu fpv4-sp-d16
 4075              	USB_ReadDevAllOutEpInterrupt:
 4076              	.LVL280:
 4077              	.LFB150:
1063:Drivers/STM32F4xx_HAL_Driver/Src/stm32f4xx_ll_usb.c ****   uint32_t v;
 4078              		.loc 1 1063 1 is_stmt 1 view -0
 4079              		.cfi_startproc
 4080              		@ args = 0, pretend = 0, frame = 0
 4081              		@ frame_needed = 0, uses_anonymous_args = 0
 4082              		@ link register save eliminated.
1064:Drivers/STM32F4xx_HAL_Driver/Src/stm32f4xx_ll_usb.c ****   v  = USBx_DEVICE->DAINT;
 4083              		.loc 1 1064 3 view .LVU1207
1065:Drivers/STM32F4xx_HAL_Driver/Src/stm32f4xx_ll_usb.c ****   v &= USBx_DEVICE->DAINTMSK;
 4084              		.loc 1 1065 3 view .LVU1208
1065:Drivers/STM32F4xx_HAL_Driver/Src/stm32f4xx_ll_usb.c ****   v &= USBx_DEVICE->DAINTMSK;
 4085              		.loc 1 1065 6 is_stmt 0 view .LVU1209
 4086 0000 D0F81838 		ldr	r3, [r0, #2072]
1065:Drivers/STM32F4xx_HAL_Driver/Src/stm32f4xx_ll_usb.c ****   v &= USBx_DEVICE->DAINTMSK;
 4087              		.loc 1 1065 8 view .LVU1210
 4088 0004 00F50060 		add	r0, r0, #2048
 4089              	.LVL281:
1066:Drivers/STM32F4xx_HAL_Driver/Src/stm32f4xx_ll_usb.c ****   return ((v & 0xffff0000U) >> 16U);
 4090              		.loc 1 1066 3 is_stmt 1 view .LVU1211
1066:Drivers/STM32F4xx_HAL_Driver/Src/stm32f4xx_ll_usb.c ****   return ((v & 0xffff0000U) >> 16U);
 4091              		.loc 1 1066 19 is_stmt 0 view .LVU1212
 4092 0008 C069     		ldr	r0, [r0, #28]
 4093              	.LVL282:
1066:Drivers/STM32F4xx_HAL_Driver/Src/stm32f4xx_ll_usb.c ****   return ((v & 0xffff0000U) >> 16U);
 4094              		.loc 1 1066 5 view .LVU1213
 4095 000a 1840     		ands	r0, r0, r3
 4096              	.LVL283:
1067:Drivers/STM32F4xx_HAL_Driver/Src/stm32f4xx_ll_usb.c **** }
 4097              		.loc 1 1067 3 is_stmt 1 view .LVU1214
1068:Drivers/STM32F4xx_HAL_Driver/Src/stm32f4xx_ll_usb.c **** 
 4098              		.loc 1 1068 1 is_stmt 0 view .LVU1215
 4099 000c 000C     		lsrs	r0, r0, #16
 4100              	.LVL284:
1068:Drivers/STM32F4xx_HAL_Driver/Src/stm32f4xx_ll_usb.c **** 
 4101              		.loc 1 1068 1 view .LVU1216
 4102 000e 7047     		bx	lr
 4103              		.cfi_endproc
 4104              	.LFE150:
 4106              		.section	.text.USB_ReadDevAllInEpInterrupt,"ax",%progbits
 4107              		.align	1
 4108              		.global	USB_ReadDevAllInEpInterrupt
 4109              		.syntax unified
 4110              		.thumb
 4111              		.thumb_func
 4112              		.fpu fpv4-sp-d16
 4114              	USB_ReadDevAllInEpInterrupt:
 4115              	.LVL285:
 4116              	.LFB151:
1076:Drivers/STM32F4xx_HAL_Driver/Src/stm32f4xx_ll_usb.c ****   uint32_t v;
 4117              		.loc 1 1076 1 is_stmt 1 view -0
 4118              		.cfi_startproc
 4119              		@ args = 0, pretend = 0, frame = 0
ARM GAS  C:\Users\gx\AppData\Local\Temp\ccXSZ03x.s 			page 119


 4120              		@ frame_needed = 0, uses_anonymous_args = 0
 4121              		@ link register save eliminated.
1077:Drivers/STM32F4xx_HAL_Driver/Src/stm32f4xx_ll_usb.c ****   v  = USBx_DEVICE->DAINT;
 4122              		.loc 1 1077 3 view .LVU1218
1078:Drivers/STM32F4xx_HAL_Driver/Src/stm32f4xx_ll_usb.c ****   v &= USBx_DEVICE->DAINTMSK;
 4123              		.loc 1 1078 3 view .LVU1219
1078:Drivers/STM32F4xx_HAL_Driver/Src/stm32f4xx_ll_usb.c ****   v &= USBx_DEVICE->DAINTMSK;
 4124              		.loc 1 1078 6 is_stmt 0 view .LVU1220
 4125 0000 D0F81838 		ldr	r3, [r0, #2072]
1078:Drivers/STM32F4xx_HAL_Driver/Src/stm32f4xx_ll_usb.c ****   v &= USBx_DEVICE->DAINTMSK;
 4126              		.loc 1 1078 8 view .LVU1221
 4127 0004 00F50060 		add	r0, r0, #2048
 4128              	.LVL286:
1079:Drivers/STM32F4xx_HAL_Driver/Src/stm32f4xx_ll_usb.c ****   return ((v & 0xFFFFU));
 4129              		.loc 1 1079 3 is_stmt 1 view .LVU1222
1079:Drivers/STM32F4xx_HAL_Driver/Src/stm32f4xx_ll_usb.c ****   return ((v & 0xFFFFU));
 4130              		.loc 1 1079 19 is_stmt 0 view .LVU1223
 4131 0008 C069     		ldr	r0, [r0, #28]
 4132              	.LVL287:
1079:Drivers/STM32F4xx_HAL_Driver/Src/stm32f4xx_ll_usb.c ****   return ((v & 0xFFFFU));
 4133              		.loc 1 1079 5 view .LVU1224
 4134 000a 1840     		ands	r0, r0, r3
 4135              	.LVL288:
1080:Drivers/STM32F4xx_HAL_Driver/Src/stm32f4xx_ll_usb.c **** }
 4136              		.loc 1 1080 3 is_stmt 1 view .LVU1225
1081:Drivers/STM32F4xx_HAL_Driver/Src/stm32f4xx_ll_usb.c **** 
 4137              		.loc 1 1081 1 is_stmt 0 view .LVU1226
 4138 000c 80B2     		uxth	r0, r0
 4139              	.LVL289:
1081:Drivers/STM32F4xx_HAL_Driver/Src/stm32f4xx_ll_usb.c **** 
 4140              		.loc 1 1081 1 view .LVU1227
 4141 000e 7047     		bx	lr
 4142              		.cfi_endproc
 4143              	.LFE151:
 4145              		.section	.text.USB_ReadDevOutEPInterrupt,"ax",%progbits
 4146              		.align	1
 4147              		.global	USB_ReadDevOutEPInterrupt
 4148              		.syntax unified
 4149              		.thumb
 4150              		.thumb_func
 4151              		.fpu fpv4-sp-d16
 4153              	USB_ReadDevOutEPInterrupt:
 4154              	.LVL290:
 4155              	.LFB152:
1091:Drivers/STM32F4xx_HAL_Driver/Src/stm32f4xx_ll_usb.c ****   uint32_t v;
 4156              		.loc 1 1091 1 is_stmt 1 view -0
 4157              		.cfi_startproc
 4158              		@ args = 0, pretend = 0, frame = 0
 4159              		@ frame_needed = 0, uses_anonymous_args = 0
 4160              		@ link register save eliminated.
1092:Drivers/STM32F4xx_HAL_Driver/Src/stm32f4xx_ll_usb.c ****   v  = USBx_OUTEP(epnum)->DOEPINT;
 4161              		.loc 1 1092 3 view .LVU1229
1093:Drivers/STM32F4xx_HAL_Driver/Src/stm32f4xx_ll_usb.c ****   v &= USBx_DEVICE->DOEPMSK;
 4162              		.loc 1 1093 3 view .LVU1230
1093:Drivers/STM32F4xx_HAL_Driver/Src/stm32f4xx_ll_usb.c ****   v &= USBx_DEVICE->DOEPMSK;
 4163              		.loc 1 1093 8 is_stmt 0 view .LVU1231
 4164 0000 00EB4111 		add	r1, r0, r1, lsl #5
ARM GAS  C:\Users\gx\AppData\Local\Temp\ccXSZ03x.s 			page 120


 4165              	.LVL291:
1093:Drivers/STM32F4xx_HAL_Driver/Src/stm32f4xx_ll_usb.c ****   v &= USBx_DEVICE->DOEPMSK;
 4166              		.loc 1 1093 6 view .LVU1232
 4167 0004 D1F8082B 		ldr	r2, [r1, #2824]
 4168              	.LVL292:
1094:Drivers/STM32F4xx_HAL_Driver/Src/stm32f4xx_ll_usb.c ****   return v;
 4169              		.loc 1 1094 3 is_stmt 1 view .LVU1233
1094:Drivers/STM32F4xx_HAL_Driver/Src/stm32f4xx_ll_usb.c ****   return v;
 4170              		.loc 1 1094 8 is_stmt 0 view .LVU1234
 4171 0008 00F50060 		add	r0, r0, #2048
 4172              	.LVL293:
1094:Drivers/STM32F4xx_HAL_Driver/Src/stm32f4xx_ll_usb.c ****   return v;
 4173              		.loc 1 1094 19 view .LVU1235
 4174 000c 4069     		ldr	r0, [r0, #20]
 4175              	.LVL294:
1095:Drivers/STM32F4xx_HAL_Driver/Src/stm32f4xx_ll_usb.c **** }
 4176              		.loc 1 1095 3 is_stmt 1 view .LVU1236
1096:Drivers/STM32F4xx_HAL_Driver/Src/stm32f4xx_ll_usb.c **** 
 4177              		.loc 1 1096 1 is_stmt 0 view .LVU1237
 4178 000e 1040     		ands	r0, r0, r2
 4179              	.LVL295:
1096:Drivers/STM32F4xx_HAL_Driver/Src/stm32f4xx_ll_usb.c **** 
 4180              		.loc 1 1096 1 view .LVU1238
 4181 0010 7047     		bx	lr
 4182              		.cfi_endproc
 4183              	.LFE152:
 4185              		.section	.text.USB_ReadDevInEPInterrupt,"ax",%progbits
 4186              		.align	1
 4187              		.global	USB_ReadDevInEPInterrupt
 4188              		.syntax unified
 4189              		.thumb
 4190              		.thumb_func
 4191              		.fpu fpv4-sp-d16
 4193              	USB_ReadDevInEPInterrupt:
 4194              	.LVL296:
 4195              	.LFB153:
1106:Drivers/STM32F4xx_HAL_Driver/Src/stm32f4xx_ll_usb.c ****   uint32_t v, msk, emp;
 4196              		.loc 1 1106 1 is_stmt 1 view -0
 4197              		.cfi_startproc
 4198              		@ args = 0, pretend = 0, frame = 0
 4199              		@ frame_needed = 0, uses_anonymous_args = 0
 4200              		@ link register save eliminated.
1106:Drivers/STM32F4xx_HAL_Driver/Src/stm32f4xx_ll_usb.c ****   uint32_t v, msk, emp;
 4201              		.loc 1 1106 1 is_stmt 0 view .LVU1240
 4202 0000 10B4     		push	{r4}
 4203              	.LCFI61:
 4204              		.cfi_def_cfa_offset 4
 4205              		.cfi_offset 4, -4
1107:Drivers/STM32F4xx_HAL_Driver/Src/stm32f4xx_ll_usb.c ****   
 4206              		.loc 1 1107 3 is_stmt 1 view .LVU1241
1109:Drivers/STM32F4xx_HAL_Driver/Src/stm32f4xx_ll_usb.c ****   emp = USBx_DEVICE->DIEPEMPMSK;
 4207              		.loc 1 1109 3 view .LVU1242
1109:Drivers/STM32F4xx_HAL_Driver/Src/stm32f4xx_ll_usb.c ****   emp = USBx_DEVICE->DIEPEMPMSK;
 4208              		.loc 1 1109 7 is_stmt 0 view .LVU1243
 4209 0002 D0F81048 		ldr	r4, [r0, #2064]
 4210              	.LVL297:
1110:Drivers/STM32F4xx_HAL_Driver/Src/stm32f4xx_ll_usb.c ****   msk |= ((emp >> epnum) & 0x1U) << 7U;
ARM GAS  C:\Users\gx\AppData\Local\Temp\ccXSZ03x.s 			page 121


 4211              		.loc 1 1110 3 is_stmt 1 view .LVU1244
1110:Drivers/STM32F4xx_HAL_Driver/Src/stm32f4xx_ll_usb.c ****   msk |= ((emp >> epnum) & 0x1U) << 7U;
 4212              		.loc 1 1110 7 is_stmt 0 view .LVU1245
 4213 0006 D0F83438 		ldr	r3, [r0, #2100]
 4214              	.LVL298:
1111:Drivers/STM32F4xx_HAL_Driver/Src/stm32f4xx_ll_usb.c ****   v = USBx_INEP(epnum)->DIEPINT & msk;
 4215              		.loc 1 1111 3 is_stmt 1 view .LVU1246
1111:Drivers/STM32F4xx_HAL_Driver/Src/stm32f4xx_ll_usb.c ****   v = USBx_INEP(epnum)->DIEPINT & msk;
 4216              		.loc 1 1111 16 is_stmt 0 view .LVU1247
 4217 000a CB40     		lsrs	r3, r3, r1
 4218              	.LVL299:
1111:Drivers/STM32F4xx_HAL_Driver/Src/stm32f4xx_ll_usb.c ****   v = USBx_INEP(epnum)->DIEPINT & msk;
 4219              		.loc 1 1111 34 view .LVU1248
 4220 000c DB01     		lsls	r3, r3, #7
 4221 000e DBB2     		uxtb	r3, r3
1111:Drivers/STM32F4xx_HAL_Driver/Src/stm32f4xx_ll_usb.c ****   v = USBx_INEP(epnum)->DIEPINT & msk;
 4222              		.loc 1 1111 7 view .LVU1249
 4223 0010 2343     		orrs	r3, r3, r4
 4224              	.LVL300:
1112:Drivers/STM32F4xx_HAL_Driver/Src/stm32f4xx_ll_usb.c ****   return v;
 4225              		.loc 1 1112 3 is_stmt 1 view .LVU1250
1112:Drivers/STM32F4xx_HAL_Driver/Src/stm32f4xx_ll_usb.c ****   return v;
 4226              		.loc 1 1112 7 is_stmt 0 view .LVU1251
 4227 0012 00EB4110 		add	r0, r0, r1, lsl #5
 4228              	.LVL301:
1112:Drivers/STM32F4xx_HAL_Driver/Src/stm32f4xx_ll_usb.c ****   return v;
 4229              		.loc 1 1112 7 view .LVU1252
 4230 0016 00F51060 		add	r0, r0, #2304
1112:Drivers/STM32F4xx_HAL_Driver/Src/stm32f4xx_ll_usb.c ****   return v;
 4231              		.loc 1 1112 23 view .LVU1253
 4232 001a 8068     		ldr	r0, [r0, #8]
 4233              	.LVL302:
1113:Drivers/STM32F4xx_HAL_Driver/Src/stm32f4xx_ll_usb.c **** }
 4234              		.loc 1 1113 3 is_stmt 1 view .LVU1254
1114:Drivers/STM32F4xx_HAL_Driver/Src/stm32f4xx_ll_usb.c **** 
 4235              		.loc 1 1114 1 is_stmt 0 view .LVU1255
 4236 001c 1840     		ands	r0, r0, r3
 4237              	.LVL303:
1114:Drivers/STM32F4xx_HAL_Driver/Src/stm32f4xx_ll_usb.c **** 
 4238              		.loc 1 1114 1 view .LVU1256
 4239 001e 5DF8044B 		ldr	r4, [sp], #4
 4240              	.LCFI62:
 4241              		.cfi_restore 4
 4242              		.cfi_def_cfa_offset 0
 4243 0022 7047     		bx	lr
 4244              		.cfi_endproc
 4245              	.LFE153:
 4247              		.section	.text.USB_ClearInterrupts,"ax",%progbits
 4248              		.align	1
 4249              		.global	USB_ClearInterrupts
 4250              		.syntax unified
 4251              		.thumb
 4252              		.thumb_func
 4253              		.fpu fpv4-sp-d16
 4255              	USB_ClearInterrupts:
 4256              	.LVL304:
 4257              	.LFB154:
ARM GAS  C:\Users\gx\AppData\Local\Temp\ccXSZ03x.s 			page 122


1123:Drivers/STM32F4xx_HAL_Driver/Src/stm32f4xx_ll_usb.c ****   USBx->GINTSTS |= interrupt; 
 4258              		.loc 1 1123 1 is_stmt 1 view -0
 4259              		.cfi_startproc
 4260              		@ args = 0, pretend = 0, frame = 0
 4261              		@ frame_needed = 0, uses_anonymous_args = 0
 4262              		@ link register save eliminated.
1124:Drivers/STM32F4xx_HAL_Driver/Src/stm32f4xx_ll_usb.c **** }
 4263              		.loc 1 1124 3 view .LVU1258
1124:Drivers/STM32F4xx_HAL_Driver/Src/stm32f4xx_ll_usb.c **** }
 4264              		.loc 1 1124 17 is_stmt 0 view .LVU1259
 4265 0000 4369     		ldr	r3, [r0, #20]
 4266 0002 0B43     		orrs	r3, r3, r1
 4267 0004 4361     		str	r3, [r0, #20]
1125:Drivers/STM32F4xx_HAL_Driver/Src/stm32f4xx_ll_usb.c **** 
 4268              		.loc 1 1125 1 view .LVU1260
 4269 0006 7047     		bx	lr
 4270              		.cfi_endproc
 4271              	.LFE154:
 4273              		.section	.text.USB_GetMode,"ax",%progbits
 4274              		.align	1
 4275              		.global	USB_GetMode
 4276              		.syntax unified
 4277              		.thumb
 4278              		.thumb_func
 4279              		.fpu fpv4-sp-d16
 4281              	USB_GetMode:
 4282              	.LVL305:
 4283              	.LFB155:
1136:Drivers/STM32F4xx_HAL_Driver/Src/stm32f4xx_ll_usb.c ****   return ((USBx->GINTSTS ) & 0x1U);
 4284              		.loc 1 1136 1 is_stmt 1 view -0
 4285              		.cfi_startproc
 4286              		@ args = 0, pretend = 0, frame = 0
 4287              		@ frame_needed = 0, uses_anonymous_args = 0
 4288              		@ link register save eliminated.
1137:Drivers/STM32F4xx_HAL_Driver/Src/stm32f4xx_ll_usb.c **** }
 4289              		.loc 1 1137 3 view .LVU1262
1137:Drivers/STM32F4xx_HAL_Driver/Src/stm32f4xx_ll_usb.c **** }
 4290              		.loc 1 1137 16 is_stmt 0 view .LVU1263
 4291 0000 4069     		ldr	r0, [r0, #20]
 4292              	.LVL306:
1138:Drivers/STM32F4xx_HAL_Driver/Src/stm32f4xx_ll_usb.c **** 
 4293              		.loc 1 1138 1 view .LVU1264
 4294 0002 00F00100 		and	r0, r0, #1
 4295 0006 7047     		bx	lr
 4296              		.cfi_endproc
 4297              	.LFE155:
 4299              		.section	.text.USB_ActivateSetup,"ax",%progbits
 4300              		.align	1
 4301              		.global	USB_ActivateSetup
 4302              		.syntax unified
 4303              		.thumb
 4304              		.thumb_func
 4305              		.fpu fpv4-sp-d16
 4307              	USB_ActivateSetup:
 4308              	.LVL307:
 4309              	.LFB156:
1147:Drivers/STM32F4xx_HAL_Driver/Src/stm32f4xx_ll_usb.c ****   /* Set the MPS of the IN EP based on the enumeration speed */
ARM GAS  C:\Users\gx\AppData\Local\Temp\ccXSZ03x.s 			page 123


 4310              		.loc 1 1147 1 is_stmt 1 view -0
 4311              		.cfi_startproc
 4312              		@ args = 0, pretend = 0, frame = 0
 4313              		@ frame_needed = 0, uses_anonymous_args = 0
 4314              		@ link register save eliminated.
1149:Drivers/STM32F4xx_HAL_Driver/Src/stm32f4xx_ll_usb.c ****   
 4315              		.loc 1 1149 3 view .LVU1266
1149:Drivers/STM32F4xx_HAL_Driver/Src/stm32f4xx_ll_usb.c ****   
 4316              		.loc 1 1149 26 is_stmt 0 view .LVU1267
 4317 0000 D0F80039 		ldr	r3, [r0, #2304]
 4318 0004 23F4FF63 		bic	r3, r3, #2040
 4319 0008 23F00703 		bic	r3, r3, #7
 4320 000c C0F80039 		str	r3, [r0, #2304]
1151:Drivers/STM32F4xx_HAL_Driver/Src/stm32f4xx_ll_usb.c ****   {
 4321              		.loc 1 1151 3 is_stmt 1 view .LVU1268
1151:Drivers/STM32F4xx_HAL_Driver/Src/stm32f4xx_ll_usb.c ****   {
 4322              		.loc 1 1151 7 is_stmt 0 view .LVU1269
 4323 0010 00F50063 		add	r3, r0, #2048
1151:Drivers/STM32F4xx_HAL_Driver/Src/stm32f4xx_ll_usb.c ****   {
 4324              		.loc 1 1151 18 view .LVU1270
 4325 0014 9A68     		ldr	r2, [r3, #8]
1151:Drivers/STM32F4xx_HAL_Driver/Src/stm32f4xx_ll_usb.c ****   {
 4326              		.loc 1 1151 25 view .LVU1271
 4327 0016 02F00602 		and	r2, r2, #6
1151:Drivers/STM32F4xx_HAL_Driver/Src/stm32f4xx_ll_usb.c ****   {
 4328              		.loc 1 1151 5 view .LVU1272
 4329 001a 042A     		cmp	r2, #4
 4330 001c 05D0     		beq	.L235
 4331              	.L234:
1155:Drivers/STM32F4xx_HAL_Driver/Src/stm32f4xx_ll_usb.c **** 
 4332              		.loc 1 1155 3 is_stmt 1 view .LVU1273
1155:Drivers/STM32F4xx_HAL_Driver/Src/stm32f4xx_ll_usb.c **** 
 4333              		.loc 1 1155 21 is_stmt 0 view .LVU1274
 4334 001e 5A68     		ldr	r2, [r3, #4]
 4335 0020 42F48072 		orr	r2, r2, #256
 4336 0024 5A60     		str	r2, [r3, #4]
1157:Drivers/STM32F4xx_HAL_Driver/Src/stm32f4xx_ll_usb.c **** }
 4337              		.loc 1 1157 3 is_stmt 1 view .LVU1275
1158:Drivers/STM32F4xx_HAL_Driver/Src/stm32f4xx_ll_usb.c **** 
 4338              		.loc 1 1158 1 is_stmt 0 view .LVU1276
 4339 0026 0020     		movs	r0, #0
 4340              	.LVL308:
1158:Drivers/STM32F4xx_HAL_Driver/Src/stm32f4xx_ll_usb.c **** 
 4341              		.loc 1 1158 1 view .LVU1277
 4342 0028 7047     		bx	lr
 4343              	.LVL309:
 4344              	.L235:
1153:Drivers/STM32F4xx_HAL_Driver/Src/stm32f4xx_ll_usb.c ****   }
 4345              		.loc 1 1153 5 is_stmt 1 view .LVU1278
1153:Drivers/STM32F4xx_HAL_Driver/Src/stm32f4xx_ll_usb.c ****   }
 4346              		.loc 1 1153 28 is_stmt 0 view .LVU1279
 4347 002a D0F80029 		ldr	r2, [r0, #2304]
 4348 002e 42F00302 		orr	r2, r2, #3
 4349 0032 C0F80029 		str	r2, [r0, #2304]
 4350 0036 F2E7     		b	.L234
 4351              		.cfi_endproc
 4352              	.LFE156:
ARM GAS  C:\Users\gx\AppData\Local\Temp\ccXSZ03x.s 			page 124


 4354              		.section	.text.USB_EP0_OutStart,"ax",%progbits
 4355              		.align	1
 4356              		.global	USB_EP0_OutStart
 4357              		.syntax unified
 4358              		.thumb
 4359              		.thumb_func
 4360              		.fpu fpv4-sp-d16
 4362              	USB_EP0_OutStart:
 4363              	.LVL310:
 4364              	.LFB157:
1172:Drivers/STM32F4xx_HAL_Driver/Src/stm32f4xx_ll_usb.c ****   USBx_OUTEP(0U)->DOEPTSIZ = 0U;
 4365              		.loc 1 1172 1 is_stmt 1 view -0
 4366              		.cfi_startproc
 4367              		@ args = 0, pretend = 0, frame = 0
 4368              		@ frame_needed = 0, uses_anonymous_args = 0
 4369              		@ link register save eliminated.
1172:Drivers/STM32F4xx_HAL_Driver/Src/stm32f4xx_ll_usb.c ****   USBx_OUTEP(0U)->DOEPTSIZ = 0U;
 4370              		.loc 1 1172 1 is_stmt 0 view .LVU1281
 4371 0000 10B4     		push	{r4}
 4372              	.LCFI63:
 4373              		.cfi_def_cfa_offset 4
 4374              		.cfi_offset 4, -4
1173:Drivers/STM32F4xx_HAL_Driver/Src/stm32f4xx_ll_usb.c ****   USBx_OUTEP(0U)->DOEPTSIZ |= (USB_OTG_DOEPTSIZ_PKTCNT & (1U << 19U)) ;
 4375              		.loc 1 1173 3 is_stmt 1 view .LVU1282
1173:Drivers/STM32F4xx_HAL_Driver/Src/stm32f4xx_ll_usb.c ****   USBx_OUTEP(0U)->DOEPTSIZ |= (USB_OTG_DOEPTSIZ_PKTCNT & (1U << 19U)) ;
 4376              		.loc 1 1173 28 is_stmt 0 view .LVU1283
 4377 0002 0024     		movs	r4, #0
 4378 0004 C0F8104B 		str	r4, [r0, #2832]
1174:Drivers/STM32F4xx_HAL_Driver/Src/stm32f4xx_ll_usb.c ****   USBx_OUTEP(0U)->DOEPTSIZ |= (3U * 8U);
 4379              		.loc 1 1174 3 is_stmt 1 view .LVU1284
1174:Drivers/STM32F4xx_HAL_Driver/Src/stm32f4xx_ll_usb.c ****   USBx_OUTEP(0U)->DOEPTSIZ |= (3U * 8U);
 4380              		.loc 1 1174 28 is_stmt 0 view .LVU1285
 4381 0008 D0F8104B 		ldr	r4, [r0, #2832]
 4382 000c 44F40024 		orr	r4, r4, #524288
 4383 0010 C0F8104B 		str	r4, [r0, #2832]
1175:Drivers/STM32F4xx_HAL_Driver/Src/stm32f4xx_ll_usb.c ****   USBx_OUTEP(0U)->DOEPTSIZ |=  USB_OTG_DOEPTSIZ_STUPCNT;  
 4384              		.loc 1 1175 3 is_stmt 1 view .LVU1286
1175:Drivers/STM32F4xx_HAL_Driver/Src/stm32f4xx_ll_usb.c ****   USBx_OUTEP(0U)->DOEPTSIZ |=  USB_OTG_DOEPTSIZ_STUPCNT;  
 4385              		.loc 1 1175 28 is_stmt 0 view .LVU1287
 4386 0014 D0F8104B 		ldr	r4, [r0, #2832]
 4387 0018 44F01804 		orr	r4, r4, #24
 4388 001c C0F8104B 		str	r4, [r0, #2832]
1176:Drivers/STM32F4xx_HAL_Driver/Src/stm32f4xx_ll_usb.c ****   
 4389              		.loc 1 1176 3 is_stmt 1 view .LVU1288
1176:Drivers/STM32F4xx_HAL_Driver/Src/stm32f4xx_ll_usb.c ****   
 4390              		.loc 1 1176 28 is_stmt 0 view .LVU1289
 4391 0020 D0F8104B 		ldr	r4, [r0, #2832]
 4392 0024 44F0C044 		orr	r4, r4, #1610612736
 4393 0028 C0F8104B 		str	r4, [r0, #2832]
1178:Drivers/STM32F4xx_HAL_Driver/Src/stm32f4xx_ll_usb.c ****   {
 4394              		.loc 1 1178 3 is_stmt 1 view .LVU1290
1178:Drivers/STM32F4xx_HAL_Driver/Src/stm32f4xx_ll_usb.c ****   {
 4395              		.loc 1 1178 6 is_stmt 0 view .LVU1291
 4396 002c 0129     		cmp	r1, #1
 4397 002e 03D0     		beq	.L239
 4398              	.L237:
1185:Drivers/STM32F4xx_HAL_Driver/Src/stm32f4xx_ll_usb.c **** }
ARM GAS  C:\Users\gx\AppData\Local\Temp\ccXSZ03x.s 			page 125


 4399              		.loc 1 1185 3 is_stmt 1 view .LVU1292
1186:Drivers/STM32F4xx_HAL_Driver/Src/stm32f4xx_ll_usb.c **** 
 4400              		.loc 1 1186 1 is_stmt 0 view .LVU1293
 4401 0030 0020     		movs	r0, #0
 4402              	.LVL311:
1186:Drivers/STM32F4xx_HAL_Driver/Src/stm32f4xx_ll_usb.c **** 
 4403              		.loc 1 1186 1 view .LVU1294
 4404 0032 5DF8044B 		ldr	r4, [sp], #4
 4405              	.LCFI64:
 4406              		.cfi_remember_state
 4407              		.cfi_restore 4
 4408              		.cfi_def_cfa_offset 0
 4409 0036 7047     		bx	lr
 4410              	.LVL312:
 4411              	.L239:
 4412              	.LCFI65:
 4413              		.cfi_restore_state
1180:Drivers/STM32F4xx_HAL_Driver/Src/stm32f4xx_ll_usb.c ****     /* EP enable */
 4414              		.loc 1 1180 5 is_stmt 1 view .LVU1295
1180:Drivers/STM32F4xx_HAL_Driver/Src/stm32f4xx_ll_usb.c ****     /* EP enable */
 4415              		.loc 1 1180 29 is_stmt 0 view .LVU1296
 4416 0038 C0F8142B 		str	r2, [r0, #2836]
1182:Drivers/STM32F4xx_HAL_Driver/Src/stm32f4xx_ll_usb.c ****   }
 4417              		.loc 1 1182 5 is_stmt 1 view .LVU1297
1182:Drivers/STM32F4xx_HAL_Driver/Src/stm32f4xx_ll_usb.c ****   }
 4418              		.loc 1 1182 29 is_stmt 0 view .LVU1298
 4419 003c 4FF08023 		mov	r3, #-2147450880
 4420 0040 C0F8003B 		str	r3, [r0, #2816]
 4421 0044 F4E7     		b	.L237
 4422              		.cfi_endproc
 4423              	.LFE157:
 4425              		.section	.text.USB_InitFSLSPClkSel,"ax",%progbits
 4426              		.align	1
 4427              		.global	USB_InitFSLSPClkSel
 4428              		.syntax unified
 4429              		.thumb
 4430              		.thumb_func
 4431              		.fpu fpv4-sp-d16
 4433              	USB_InitFSLSPClkSel:
 4434              	.LVL313:
 4435              	.LFB160:
1323:Drivers/STM32F4xx_HAL_Driver/Src/stm32f4xx_ll_usb.c ****   USBx_HOST->HCFG &= ~(USB_OTG_HCFG_FSLSPCS);
 4436              		.loc 1 1323 1 is_stmt 1 view -0
 4437              		.cfi_startproc
 4438              		@ args = 0, pretend = 0, frame = 0
 4439              		@ frame_needed = 0, uses_anonymous_args = 0
 4440              		@ link register save eliminated.
1323:Drivers/STM32F4xx_HAL_Driver/Src/stm32f4xx_ll_usb.c ****   USBx_HOST->HCFG &= ~(USB_OTG_HCFG_FSLSPCS);
 4441              		.loc 1 1323 1 is_stmt 0 view .LVU1300
 4442 0000 10B4     		push	{r4}
 4443              	.LCFI66:
 4444              		.cfi_def_cfa_offset 4
 4445              		.cfi_offset 4, -4
1324:Drivers/STM32F4xx_HAL_Driver/Src/stm32f4xx_ll_usb.c ****   USBx_HOST->HCFG |= (freq & USB_OTG_HCFG_FSLSPCS);
 4446              		.loc 1 1324 3 is_stmt 1 view .LVU1301
1324:Drivers/STM32F4xx_HAL_Driver/Src/stm32f4xx_ll_usb.c ****   USBx_HOST->HCFG |= (freq & USB_OTG_HCFG_FSLSPCS);
 4447              		.loc 1 1324 19 is_stmt 0 view .LVU1302
ARM GAS  C:\Users\gx\AppData\Local\Temp\ccXSZ03x.s 			page 126


 4448 0002 00F58064 		add	r4, r0, #1024
 4449 0006 D0F80034 		ldr	r3, [r0, #1024]
 4450 000a 23F00303 		bic	r3, r3, #3
 4451 000e C0F80034 		str	r3, [r0, #1024]
1325:Drivers/STM32F4xx_HAL_Driver/Src/stm32f4xx_ll_usb.c ****   
 4452              		.loc 1 1325 3 is_stmt 1 view .LVU1303
1325:Drivers/STM32F4xx_HAL_Driver/Src/stm32f4xx_ll_usb.c ****   
 4453              		.loc 1 1325 19 is_stmt 0 view .LVU1304
 4454 0012 D0F80034 		ldr	r3, [r0, #1024]
1325:Drivers/STM32F4xx_HAL_Driver/Src/stm32f4xx_ll_usb.c ****   
 4455              		.loc 1 1325 28 view .LVU1305
 4456 0016 01F00302 		and	r2, r1, #3
1325:Drivers/STM32F4xx_HAL_Driver/Src/stm32f4xx_ll_usb.c ****   
 4457              		.loc 1 1325 19 view .LVU1306
 4458 001a 1343     		orrs	r3, r3, r2
 4459 001c C0F80034 		str	r3, [r0, #1024]
1327:Drivers/STM32F4xx_HAL_Driver/Src/stm32f4xx_ll_usb.c ****   {
 4460              		.loc 1 1327 3 is_stmt 1 view .LVU1307
1327:Drivers/STM32F4xx_HAL_Driver/Src/stm32f4xx_ll_usb.c ****   {
 4461              		.loc 1 1327 6 is_stmt 0 view .LVU1308
 4462 0020 0129     		cmp	r1, #1
 4463 0022 05D0     		beq	.L244
1331:Drivers/STM32F4xx_HAL_Driver/Src/stm32f4xx_ll_usb.c ****   {
 4464              		.loc 1 1331 8 is_stmt 1 view .LVU1309
1331:Drivers/STM32F4xx_HAL_Driver/Src/stm32f4xx_ll_usb.c ****   {
 4465              		.loc 1 1331 11 is_stmt 0 view .LVU1310
 4466 0024 0229     		cmp	r1, #2
 4467 0026 07D0     		beq	.L245
 4468              	.L242:
1335:Drivers/STM32F4xx_HAL_Driver/Src/stm32f4xx_ll_usb.c **** }
 4469              		.loc 1 1335 3 is_stmt 1 view .LVU1311
1336:Drivers/STM32F4xx_HAL_Driver/Src/stm32f4xx_ll_usb.c **** 
 4470              		.loc 1 1336 1 is_stmt 0 view .LVU1312
 4471 0028 0020     		movs	r0, #0
 4472              	.LVL314:
1336:Drivers/STM32F4xx_HAL_Driver/Src/stm32f4xx_ll_usb.c **** 
 4473              		.loc 1 1336 1 view .LVU1313
 4474 002a 5DF8044B 		ldr	r4, [sp], #4
 4475              	.LCFI67:
 4476              		.cfi_remember_state
 4477              		.cfi_restore 4
 4478              		.cfi_def_cfa_offset 0
 4479              	.LVL315:
1336:Drivers/STM32F4xx_HAL_Driver/Src/stm32f4xx_ll_usb.c **** 
 4480              		.loc 1 1336 1 view .LVU1314
 4481 002e 7047     		bx	lr
 4482              	.LVL316:
 4483              	.L244:
 4484              	.LCFI68:
 4485              		.cfi_restore_state
1329:Drivers/STM32F4xx_HAL_Driver/Src/stm32f4xx_ll_usb.c ****   }
 4486              		.loc 1 1329 5 is_stmt 1 view .LVU1315
1329:Drivers/STM32F4xx_HAL_Driver/Src/stm32f4xx_ll_usb.c ****   }
 4487              		.loc 1 1329 21 is_stmt 0 view .LVU1316
 4488 0030 4BF68033 		movw	r3, #48000
 4489 0034 6360     		str	r3, [r4, #4]
 4490 0036 F7E7     		b	.L242
ARM GAS  C:\Users\gx\AppData\Local\Temp\ccXSZ03x.s 			page 127


 4491              	.L245:
1333:Drivers/STM32F4xx_HAL_Driver/Src/stm32f4xx_ll_usb.c ****   } 
 4492              		.loc 1 1333 5 is_stmt 1 view .LVU1317
1333:Drivers/STM32F4xx_HAL_Driver/Src/stm32f4xx_ll_usb.c ****   } 
 4493              		.loc 1 1333 21 is_stmt 0 view .LVU1318
 4494 0038 41F27073 		movw	r3, #6000
 4495 003c 6360     		str	r3, [r4, #4]
 4496 003e F3E7     		b	.L242
 4497              		.cfi_endproc
 4498              	.LFE160:
 4500              		.section	.text.USB_ResetPort,"ax",%progbits
 4501              		.align	1
 4502              		.global	USB_ResetPort
 4503              		.syntax unified
 4504              		.thumb
 4505              		.thumb_func
 4506              		.fpu fpv4-sp-d16
 4508              	USB_ResetPort:
 4509              	.LVL317:
 4510              	.LFB161:
1346:Drivers/STM32F4xx_HAL_Driver/Src/stm32f4xx_ll_usb.c ****   __IO uint32_t hprt0;
 4511              		.loc 1 1346 1 is_stmt 1 view -0
 4512              		.cfi_startproc
 4513              		@ args = 0, pretend = 0, frame = 8
 4514              		@ frame_needed = 0, uses_anonymous_args = 0
1346:Drivers/STM32F4xx_HAL_Driver/Src/stm32f4xx_ll_usb.c ****   __IO uint32_t hprt0;
 4515              		.loc 1 1346 1 is_stmt 0 view .LVU1320
 4516 0000 10B5     		push	{r4, lr}
 4517              	.LCFI69:
 4518              		.cfi_def_cfa_offset 8
 4519              		.cfi_offset 4, -8
 4520              		.cfi_offset 14, -4
 4521 0002 82B0     		sub	sp, sp, #8
 4522              	.LCFI70:
 4523              		.cfi_def_cfa_offset 16
 4524 0004 0446     		mov	r4, r0
1347:Drivers/STM32F4xx_HAL_Driver/Src/stm32f4xx_ll_usb.c ****   
 4525              		.loc 1 1347 3 is_stmt 1 view .LVU1321
1349:Drivers/STM32F4xx_HAL_Driver/Src/stm32f4xx_ll_usb.c ****   
 4526              		.loc 1 1349 3 view .LVU1322
1349:Drivers/STM32F4xx_HAL_Driver/Src/stm32f4xx_ll_usb.c ****   
 4527              		.loc 1 1349 11 is_stmt 0 view .LVU1323
 4528 0006 D0F84034 		ldr	r3, [r0, #1088]
1349:Drivers/STM32F4xx_HAL_Driver/Src/stm32f4xx_ll_usb.c ****   
 4529              		.loc 1 1349 9 view .LVU1324
 4530 000a 0193     		str	r3, [sp, #4]
1351:Drivers/STM32F4xx_HAL_Driver/Src/stm32f4xx_ll_usb.c ****     USB_OTG_HPRT_PENCHNG | USB_OTG_HPRT_POCCHNG );
 4531              		.loc 1 1351 3 is_stmt 1 view .LVU1325
1351:Drivers/STM32F4xx_HAL_Driver/Src/stm32f4xx_ll_usb.c ****     USB_OTG_HPRT_PENCHNG | USB_OTG_HPRT_POCCHNG );
 4532              		.loc 1 1351 9 is_stmt 0 view .LVU1326
 4533 000c 019B     		ldr	r3, [sp, #4]
 4534 000e 23F02E03 		bic	r3, r3, #46
 4535 0012 0193     		str	r3, [sp, #4]
1354:Drivers/STM32F4xx_HAL_Driver/Src/stm32f4xx_ll_usb.c ****   HAL_Delay (10U);                                /* See Note #1 */
 4536              		.loc 1 1354 3 is_stmt 1 view .LVU1327
1354:Drivers/STM32F4xx_HAL_Driver/Src/stm32f4xx_ll_usb.c ****   HAL_Delay (10U);                                /* See Note #1 */
 4537              		.loc 1 1354 35 is_stmt 0 view .LVU1328
ARM GAS  C:\Users\gx\AppData\Local\Temp\ccXSZ03x.s 			page 128


 4538 0014 019B     		ldr	r3, [sp, #4]
 4539 0016 43F48073 		orr	r3, r3, #256
1354:Drivers/STM32F4xx_HAL_Driver/Src/stm32f4xx_ll_usb.c ****   HAL_Delay (10U);                                /* See Note #1 */
 4540              		.loc 1 1354 14 view .LVU1329
 4541 001a C0F84034 		str	r3, [r0, #1088]
1355:Drivers/STM32F4xx_HAL_Driver/Src/stm32f4xx_ll_usb.c ****   USBx_HPRT0 = ((~USB_OTG_HPRT_PRST) & hprt0); 
 4542              		.loc 1 1355 3 is_stmt 1 view .LVU1330
 4543 001e 0A20     		movs	r0, #10
 4544              	.LVL318:
1355:Drivers/STM32F4xx_HAL_Driver/Src/stm32f4xx_ll_usb.c ****   USBx_HPRT0 = ((~USB_OTG_HPRT_PRST) & hprt0); 
 4545              		.loc 1 1355 3 is_stmt 0 view .LVU1331
 4546 0020 FFF7FEFF 		bl	HAL_Delay
 4547              	.LVL319:
1356:Drivers/STM32F4xx_HAL_Driver/Src/stm32f4xx_ll_usb.c ****   return HAL_OK;
 4548              		.loc 1 1356 3 is_stmt 1 view .LVU1332
1356:Drivers/STM32F4xx_HAL_Driver/Src/stm32f4xx_ll_usb.c ****   return HAL_OK;
 4549              		.loc 1 1356 38 is_stmt 0 view .LVU1333
 4550 0024 019B     		ldr	r3, [sp, #4]
 4551 0026 23F48073 		bic	r3, r3, #256
1356:Drivers/STM32F4xx_HAL_Driver/Src/stm32f4xx_ll_usb.c ****   return HAL_OK;
 4552              		.loc 1 1356 14 view .LVU1334
 4553 002a C4F84034 		str	r3, [r4, #1088]
1357:Drivers/STM32F4xx_HAL_Driver/Src/stm32f4xx_ll_usb.c **** }
 4554              		.loc 1 1357 3 is_stmt 1 view .LVU1335
1358:Drivers/STM32F4xx_HAL_Driver/Src/stm32f4xx_ll_usb.c **** 
 4555              		.loc 1 1358 1 is_stmt 0 view .LVU1336
 4556 002e 0020     		movs	r0, #0
 4557 0030 02B0     		add	sp, sp, #8
 4558              	.LCFI71:
 4559              		.cfi_def_cfa_offset 8
 4560              		@ sp needed
 4561 0032 10BD     		pop	{r4, pc}
1358:Drivers/STM32F4xx_HAL_Driver/Src/stm32f4xx_ll_usb.c **** 
 4562              		.loc 1 1358 1 view .LVU1337
 4563              		.cfi_endproc
 4564              	.LFE161:
 4566              		.section	.text.USB_DriveVbus,"ax",%progbits
 4567              		.align	1
 4568              		.global	USB_DriveVbus
 4569              		.syntax unified
 4570              		.thumb
 4571              		.thumb_func
 4572              		.fpu fpv4-sp-d16
 4574              	USB_DriveVbus:
 4575              	.LVL320:
 4576              	.LFB162:
1369:Drivers/STM32F4xx_HAL_Driver/Src/stm32f4xx_ll_usb.c ****   __IO uint32_t hprt0;
 4577              		.loc 1 1369 1 is_stmt 1 view -0
 4578              		.cfi_startproc
 4579              		@ args = 0, pretend = 0, frame = 8
 4580              		@ frame_needed = 0, uses_anonymous_args = 0
 4581              		@ link register save eliminated.
1369:Drivers/STM32F4xx_HAL_Driver/Src/stm32f4xx_ll_usb.c ****   __IO uint32_t hprt0;
 4582              		.loc 1 1369 1 is_stmt 0 view .LVU1339
 4583 0000 82B0     		sub	sp, sp, #8
 4584              	.LCFI72:
 4585              		.cfi_def_cfa_offset 8
ARM GAS  C:\Users\gx\AppData\Local\Temp\ccXSZ03x.s 			page 129


1370:Drivers/STM32F4xx_HAL_Driver/Src/stm32f4xx_ll_usb.c **** 
 4586              		.loc 1 1370 3 is_stmt 1 view .LVU1340
1372:Drivers/STM32F4xx_HAL_Driver/Src/stm32f4xx_ll_usb.c ****   hprt0 &= ~(USB_OTG_HPRT_PENA    | USB_OTG_HPRT_PCDET |\
 4587              		.loc 1 1372 3 view .LVU1341
1372:Drivers/STM32F4xx_HAL_Driver/Src/stm32f4xx_ll_usb.c ****   hprt0 &= ~(USB_OTG_HPRT_PENA    | USB_OTG_HPRT_PCDET |\
 4588              		.loc 1 1372 11 is_stmt 0 view .LVU1342
 4589 0002 D0F84034 		ldr	r3, [r0, #1088]
1372:Drivers/STM32F4xx_HAL_Driver/Src/stm32f4xx_ll_usb.c ****   hprt0 &= ~(USB_OTG_HPRT_PENA    | USB_OTG_HPRT_PCDET |\
 4590              		.loc 1 1372 9 view .LVU1343
 4591 0006 0193     		str	r3, [sp, #4]
1373:Drivers/STM32F4xx_HAL_Driver/Src/stm32f4xx_ll_usb.c ****                          USB_OTG_HPRT_PENCHNG | USB_OTG_HPRT_POCCHNG );
 4592              		.loc 1 1373 3 is_stmt 1 view .LVU1344
1373:Drivers/STM32F4xx_HAL_Driver/Src/stm32f4xx_ll_usb.c ****                          USB_OTG_HPRT_PENCHNG | USB_OTG_HPRT_POCCHNG );
 4593              		.loc 1 1373 9 is_stmt 0 view .LVU1345
 4594 0008 019B     		ldr	r3, [sp, #4]
 4595 000a 23F02E03 		bic	r3, r3, #46
 4596 000e 0193     		str	r3, [sp, #4]
1376:Drivers/STM32F4xx_HAL_Driver/Src/stm32f4xx_ll_usb.c ****   {
 4597              		.loc 1 1376 3 is_stmt 1 view .LVU1346
1376:Drivers/STM32F4xx_HAL_Driver/Src/stm32f4xx_ll_usb.c ****   {
 4598              		.loc 1 1376 15 is_stmt 0 view .LVU1347
 4599 0010 019B     		ldr	r3, [sp, #4]
1376:Drivers/STM32F4xx_HAL_Driver/Src/stm32f4xx_ll_usb.c ****   {
 4600              		.loc 1 1376 6 view .LVU1348
 4601 0012 13F4805F 		tst	r3, #4096
 4602 0016 01D1     		bne	.L249
1376:Drivers/STM32F4xx_HAL_Driver/Src/stm32f4xx_ll_usb.c ****   {
 4603              		.loc 1 1376 43 discriminator 1 view .LVU1349
 4604 0018 0129     		cmp	r1, #1
 4605 001a 0CD0     		beq	.L252
 4606              	.L249:
1380:Drivers/STM32F4xx_HAL_Driver/Src/stm32f4xx_ll_usb.c ****   {
 4607              		.loc 1 1380 3 is_stmt 1 view .LVU1350
1380:Drivers/STM32F4xx_HAL_Driver/Src/stm32f4xx_ll_usb.c ****   {
 4608              		.loc 1 1380 15 is_stmt 0 view .LVU1351
 4609 001c 019B     		ldr	r3, [sp, #4]
1380:Drivers/STM32F4xx_HAL_Driver/Src/stm32f4xx_ll_usb.c ****   {
 4610              		.loc 1 1380 6 view .LVU1352
 4611 001e 13F4805F 		tst	r3, #4096
 4612 0022 05D0     		beq	.L250
1380:Drivers/STM32F4xx_HAL_Driver/Src/stm32f4xx_ll_usb.c ****   {
 4613              		.loc 1 1380 58 discriminator 1 view .LVU1353
 4614 0024 21B9     		cbnz	r1, .L250
1382:Drivers/STM32F4xx_HAL_Driver/Src/stm32f4xx_ll_usb.c ****   }
 4615              		.loc 1 1382 5 is_stmt 1 view .LVU1354
1382:Drivers/STM32F4xx_HAL_Driver/Src/stm32f4xx_ll_usb.c ****   }
 4616              		.loc 1 1382 40 is_stmt 0 view .LVU1355
 4617 0026 019B     		ldr	r3, [sp, #4]
 4618 0028 23F48053 		bic	r3, r3, #4096
1382:Drivers/STM32F4xx_HAL_Driver/Src/stm32f4xx_ll_usb.c ****   }
 4619              		.loc 1 1382 16 view .LVU1356
 4620 002c C0F84034 		str	r3, [r0, #1088]
 4621              	.L250:
1384:Drivers/STM32F4xx_HAL_Driver/Src/stm32f4xx_ll_usb.c **** }
 4622              		.loc 1 1384 3 is_stmt 1 view .LVU1357
1385:Drivers/STM32F4xx_HAL_Driver/Src/stm32f4xx_ll_usb.c **** 
 4623              		.loc 1 1385 1 is_stmt 0 view .LVU1358
ARM GAS  C:\Users\gx\AppData\Local\Temp\ccXSZ03x.s 			page 130


 4624 0030 0020     		movs	r0, #0
 4625              	.LVL321:
1385:Drivers/STM32F4xx_HAL_Driver/Src/stm32f4xx_ll_usb.c **** 
 4626              		.loc 1 1385 1 view .LVU1359
 4627 0032 02B0     		add	sp, sp, #8
 4628              	.LCFI73:
 4629              		.cfi_remember_state
 4630              		.cfi_def_cfa_offset 0
 4631              		@ sp needed
 4632 0034 7047     		bx	lr
 4633              	.LVL322:
 4634              	.L252:
 4635              	.LCFI74:
 4636              		.cfi_restore_state
1378:Drivers/STM32F4xx_HAL_Driver/Src/stm32f4xx_ll_usb.c ****   }
 4637              		.loc 1 1378 5 is_stmt 1 view .LVU1360
1378:Drivers/STM32F4xx_HAL_Driver/Src/stm32f4xx_ll_usb.c ****   }
 4638              		.loc 1 1378 37 is_stmt 0 view .LVU1361
 4639 0036 019B     		ldr	r3, [sp, #4]
 4640 0038 43F48053 		orr	r3, r3, #4096
1378:Drivers/STM32F4xx_HAL_Driver/Src/stm32f4xx_ll_usb.c ****   }
 4641              		.loc 1 1378 16 view .LVU1362
 4642 003c C0F84034 		str	r3, [r0, #1088]
 4643 0040 ECE7     		b	.L249
 4644              		.cfi_endproc
 4645              	.LFE162:
 4647              		.section	.text.USB_HostInit,"ax",%progbits
 4648              		.align	1
 4649              		.global	USB_HostInit
 4650              		.syntax unified
 4651              		.thumb
 4652              		.thumb_func
 4653              		.fpu fpv4-sp-d16
 4655              	USB_HostInit:
 4656              	.LVL323:
 4657              	.LFB159:
1234:Drivers/STM32F4xx_HAL_Driver/Src/stm32f4xx_ll_usb.c ****   uint32_t i;
 4658              		.loc 1 1234 1 is_stmt 1 view -0
 4659              		.cfi_startproc
 4660              		@ args = 56, pretend = 16, frame = 0
 4661              		@ frame_needed = 0, uses_anonymous_args = 0
1234:Drivers/STM32F4xx_HAL_Driver/Src/stm32f4xx_ll_usb.c ****   uint32_t i;
 4662              		.loc 1 1234 1 is_stmt 0 view .LVU1364
 4663 0000 84B0     		sub	sp, sp, #16
 4664              	.LCFI75:
 4665              		.cfi_def_cfa_offset 16
 4666 0002 38B5     		push	{r3, r4, r5, lr}
 4667              	.LCFI76:
 4668              		.cfi_def_cfa_offset 32
 4669              		.cfi_offset 3, -32
 4670              		.cfi_offset 4, -28
 4671              		.cfi_offset 5, -24
 4672              		.cfi_offset 14, -20
 4673 0004 0446     		mov	r4, r0
 4674 0006 05A8     		add	r0, sp, #20
 4675              	.LVL324:
1234:Drivers/STM32F4xx_HAL_Driver/Src/stm32f4xx_ll_usb.c ****   uint32_t i;
ARM GAS  C:\Users\gx\AppData\Local\Temp\ccXSZ03x.s 			page 131


 4676              		.loc 1 1234 1 view .LVU1365
 4677 0008 80E80E00 		stm	r0, {r1, r2, r3}
1235:Drivers/STM32F4xx_HAL_Driver/Src/stm32f4xx_ll_usb.c ****   
 4678              		.loc 1 1235 3 is_stmt 1 view .LVU1366
1238:Drivers/STM32F4xx_HAL_Driver/Src/stm32f4xx_ll_usb.c ****   
 4679              		.loc 1 1238 3 view .LVU1367
 4680 000c 2546     		mov	r5, r4
1238:Drivers/STM32F4xx_HAL_Driver/Src/stm32f4xx_ll_usb.c ****   
 4681              		.loc 1 1238 16 is_stmt 0 view .LVU1368
 4682 000e 0023     		movs	r3, #0
 4683 0010 C4F8003E 		str	r3, [r4, #3584]
1245:Drivers/STM32F4xx_HAL_Driver/Src/stm32f4xx_ll_usb.c ****   USBx->GCCFG &=~ (USB_OTG_GCCFG_VBUSBSEN);
 4684              		.loc 1 1245 3 is_stmt 1 view .LVU1369
1245:Drivers/STM32F4xx_HAL_Driver/Src/stm32f4xx_ll_usb.c ****   USBx->GCCFG &=~ (USB_OTG_GCCFG_VBUSBSEN);
 4685              		.loc 1 1245 15 is_stmt 0 view .LVU1370
 4686 0014 A36B     		ldr	r3, [r4, #56]
 4687 0016 23F48023 		bic	r3, r3, #262144
 4688 001a A363     		str	r3, [r4, #56]
1246:Drivers/STM32F4xx_HAL_Driver/Src/stm32f4xx_ll_usb.c ****   USBx->GCCFG |= USB_OTG_GCCFG_NOVBUSSENS;
 4689              		.loc 1 1246 3 is_stmt 1 view .LVU1371
1246:Drivers/STM32F4xx_HAL_Driver/Src/stm32f4xx_ll_usb.c ****   USBx->GCCFG |= USB_OTG_GCCFG_NOVBUSSENS;
 4690              		.loc 1 1246 15 is_stmt 0 view .LVU1372
 4691 001c A36B     		ldr	r3, [r4, #56]
 4692 001e 23F40023 		bic	r3, r3, #524288
 4693 0022 A363     		str	r3, [r4, #56]
1247:Drivers/STM32F4xx_HAL_Driver/Src/stm32f4xx_ll_usb.c **** #endif /* STM32F446xx || STM32F469xx || STM32F479xx || STM32F412Zx || STM32F412Rx || STM32F412Vx ||
 4694              		.loc 1 1247 3 is_stmt 1 view .LVU1373
1247:Drivers/STM32F4xx_HAL_Driver/Src/stm32f4xx_ll_usb.c **** #endif /* STM32F446xx || STM32F469xx || STM32F479xx || STM32F412Zx || STM32F412Rx || STM32F412Vx ||
 4695              		.loc 1 1247 15 is_stmt 0 view .LVU1374
 4696 0024 A36B     		ldr	r3, [r4, #56]
 4697 0026 43F40013 		orr	r3, r3, #2097152
 4698 002a A363     		str	r3, [r4, #56]
1251:Drivers/STM32F4xx_HAL_Driver/Src/stm32f4xx_ll_usb.c ****      (USBx != USB_OTG_FS))
 4699              		.loc 1 1251 3 is_stmt 1 view .LVU1375
1251:Drivers/STM32F4xx_HAL_Driver/Src/stm32f4xx_ll_usb.c ****      (USBx != USB_OTG_FS))
 4700              		.loc 1 1251 10 is_stmt 0 view .LVU1376
 4701 002c 079B     		ldr	r3, [sp, #28]
1251:Drivers/STM32F4xx_HAL_Driver/Src/stm32f4xx_ll_usb.c ****      (USBx != USB_OTG_FS))
 4702              		.loc 1 1251 5 view .LVU1377
 4703 002e 032B     		cmp	r3, #3
 4704 0030 1BD0     		beq	.L262
 4705              	.L254:
1258:Drivers/STM32F4xx_HAL_Driver/Src/stm32f4xx_ll_usb.c ****   }
 4706              		.loc 1 1258 5 is_stmt 1 view .LVU1378
1258:Drivers/STM32F4xx_HAL_Driver/Src/stm32f4xx_ll_usb.c ****   }
 4707              		.loc 1 1258 21 is_stmt 0 view .LVU1379
 4708 0032 D4F80034 		ldr	r3, [r4, #1024]
 4709 0036 23F00403 		bic	r3, r3, #4
 4710 003a C4F80034 		str	r3, [r4, #1024]
 4711              	.L255:
1262:Drivers/STM32F4xx_HAL_Driver/Src/stm32f4xx_ll_usb.c ****   USB_FlushRxFifo(USBx);
 4712              		.loc 1 1262 3 is_stmt 1 view .LVU1380
 4713 003e 1021     		movs	r1, #16
 4714 0040 2046     		mov	r0, r4
 4715 0042 FFF7FEFF 		bl	USB_FlushTxFifo
 4716              	.LVL325:
1263:Drivers/STM32F4xx_HAL_Driver/Src/stm32f4xx_ll_usb.c **** 
ARM GAS  C:\Users\gx\AppData\Local\Temp\ccXSZ03x.s 			page 132


 4717              		.loc 1 1263 3 view .LVU1381
 4718 0046 2046     		mov	r0, r4
 4719 0048 FFF7FEFF 		bl	USB_FlushRxFifo
 4720              	.LVL326:
1266:Drivers/STM32F4xx_HAL_Driver/Src/stm32f4xx_ll_usb.c ****   {
 4721              		.loc 1 1266 3 view .LVU1382
1266:Drivers/STM32F4xx_HAL_Driver/Src/stm32f4xx_ll_usb.c ****   {
 4722              		.loc 1 1266 10 is_stmt 0 view .LVU1383
 4723 004c 0022     		movs	r2, #0
 4724              	.LVL327:
 4725              	.L256:
1266:Drivers/STM32F4xx_HAL_Driver/Src/stm32f4xx_ll_usb.c ****   {
 4726              		.loc 1 1266 16 is_stmt 1 discriminator 1 view .LVU1384
1266:Drivers/STM32F4xx_HAL_Driver/Src/stm32f4xx_ll_usb.c ****   {
 4727              		.loc 1 1266 23 is_stmt 0 discriminator 1 view .LVU1385
 4728 004e 069B     		ldr	r3, [sp, #24]
1266:Drivers/STM32F4xx_HAL_Driver/Src/stm32f4xx_ll_usb.c ****   {
 4729              		.loc 1 1266 3 discriminator 1 view .LVU1386
 4730 0050 9342     		cmp	r3, r2
 4731 0052 14D9     		bls	.L263
1268:Drivers/STM32F4xx_HAL_Driver/Src/stm32f4xx_ll_usb.c ****     USBx_HC(i)->HCINTMSK = 0U;
 4732              		.loc 1 1268 5 is_stmt 1 discriminator 3 view .LVU1387
 4733 0054 05EB4213 		add	r3, r5, r2, lsl #5
1268:Drivers/STM32F4xx_HAL_Driver/Src/stm32f4xx_ll_usb.c ****     USBx_HC(i)->HCINTMSK = 0U;
 4734              		.loc 1 1268 23 is_stmt 0 discriminator 3 view .LVU1388
 4735 0058 4FF0FF31 		mov	r1, #-1
 4736 005c C3F80815 		str	r1, [r3, #1288]
1269:Drivers/STM32F4xx_HAL_Driver/Src/stm32f4xx_ll_usb.c ****   }
 4737              		.loc 1 1269 5 is_stmt 1 discriminator 3 view .LVU1389
1269:Drivers/STM32F4xx_HAL_Driver/Src/stm32f4xx_ll_usb.c ****   }
 4738              		.loc 1 1269 26 is_stmt 0 discriminator 3 view .LVU1390
 4739 0060 0021     		movs	r1, #0
 4740 0062 C3F80C15 		str	r1, [r3, #1292]
1266:Drivers/STM32F4xx_HAL_Driver/Src/stm32f4xx_ll_usb.c ****   {
 4741              		.loc 1 1266 39 is_stmt 1 discriminator 3 view .LVU1391
1266:Drivers/STM32F4xx_HAL_Driver/Src/stm32f4xx_ll_usb.c ****   {
 4742              		.loc 1 1266 40 is_stmt 0 discriminator 3 view .LVU1392
 4743 0066 0132     		adds	r2, r2, #1
 4744              	.LVL328:
1266:Drivers/STM32F4xx_HAL_Driver/Src/stm32f4xx_ll_usb.c ****   {
 4745              		.loc 1 1266 40 discriminator 3 view .LVU1393
 4746 0068 F1E7     		b	.L256
 4747              	.LVL329:
 4748              	.L262:
1251:Drivers/STM32F4xx_HAL_Driver/Src/stm32f4xx_ll_usb.c ****      (USBx != USB_OTG_FS))
 4749              		.loc 1 1251 39 discriminator 1 view .LVU1394
 4750 006a B4F1A04F 		cmp	r4, #1342177280
 4751 006e E0D0     		beq	.L254
1254:Drivers/STM32F4xx_HAL_Driver/Src/stm32f4xx_ll_usb.c ****   }
 4752              		.loc 1 1254 5 is_stmt 1 view .LVU1395
1254:Drivers/STM32F4xx_HAL_Driver/Src/stm32f4xx_ll_usb.c ****   }
 4753              		.loc 1 1254 21 is_stmt 0 view .LVU1396
 4754 0070 D4F80034 		ldr	r3, [r4, #1024]
 4755 0074 43F00403 		orr	r3, r3, #4
 4756 0078 C4F80034 		str	r3, [r4, #1024]
 4757 007c DFE7     		b	.L255
 4758              	.LVL330:
ARM GAS  C:\Users\gx\AppData\Local\Temp\ccXSZ03x.s 			page 133


 4759              	.L263:
1273:Drivers/STM32F4xx_HAL_Driver/Src/stm32f4xx_ll_usb.c ****   
 4760              		.loc 1 1273 3 is_stmt 1 view .LVU1397
 4761 007e 0121     		movs	r1, #1
 4762 0080 2046     		mov	r0, r4
 4763 0082 FFF7FEFF 		bl	USB_DriveVbus
 4764              	.LVL331:
1275:Drivers/STM32F4xx_HAL_Driver/Src/stm32f4xx_ll_usb.c ****   
 4765              		.loc 1 1275 3 view .LVU1398
 4766 0086 C820     		movs	r0, #200
 4767 0088 FFF7FEFF 		bl	HAL_Delay
 4768              	.LVL332:
1278:Drivers/STM32F4xx_HAL_Driver/Src/stm32f4xx_ll_usb.c ****   
 4769              		.loc 1 1278 3 view .LVU1399
1278:Drivers/STM32F4xx_HAL_Driver/Src/stm32f4xx_ll_usb.c ****   
 4770              		.loc 1 1278 17 is_stmt 0 view .LVU1400
 4771 008c 0023     		movs	r3, #0
 4772 008e A361     		str	r3, [r4, #24]
1281:Drivers/STM32F4xx_HAL_Driver/Src/stm32f4xx_ll_usb.c ****   
 4773              		.loc 1 1281 3 is_stmt 1 view .LVU1401
1281:Drivers/STM32F4xx_HAL_Driver/Src/stm32f4xx_ll_usb.c ****   
 4774              		.loc 1 1281 17 is_stmt 0 view .LVU1402
 4775 0090 4FF0FF33 		mov	r3, #-1
 4776 0094 6361     		str	r3, [r4, #20]
1283:Drivers/STM32F4xx_HAL_Driver/Src/stm32f4xx_ll_usb.c ****   {
 4777              		.loc 1 1283 3 is_stmt 1 view .LVU1403
1283:Drivers/STM32F4xx_HAL_Driver/Src/stm32f4xx_ll_usb.c ****   {
 4778              		.loc 1 1283 5 is_stmt 0 view .LVU1404
 4779 0096 B4F1A04F 		cmp	r4, #1342177280
 4780 009a 17D0     		beq	.L264
1293:Drivers/STM32F4xx_HAL_Driver/Src/stm32f4xx_ll_usb.c ****     USBx->DIEPTXF0_HNPTXFSIZ = (uint32_t )(((0x100U << 16U)& USB_OTG_NPTXFD) | 0x200U);
 4781              		.loc 1 1293 5 is_stmt 1 view .LVU1405
1293:Drivers/STM32F4xx_HAL_Driver/Src/stm32f4xx_ll_usb.c ****     USBx->DIEPTXF0_HNPTXFSIZ = (uint32_t )(((0x100U << 16U)& USB_OTG_NPTXFD) | 0x200U);
 4782              		.loc 1 1293 20 is_stmt 0 view .LVU1406
 4783 009c 4FF40073 		mov	r3, #512
 4784 00a0 6362     		str	r3, [r4, #36]
1294:Drivers/STM32F4xx_HAL_Driver/Src/stm32f4xx_ll_usb.c ****     USBx->HPTXFSIZ = (uint32_t )(((0xE0U << 16U)& USB_OTG_HPTXFSIZ_PTXFD) | 0x300U);
 4785              		.loc 1 1294 5 is_stmt 1 view .LVU1407
1294:Drivers/STM32F4xx_HAL_Driver/Src/stm32f4xx_ll_usb.c ****     USBx->HPTXFSIZ = (uint32_t )(((0xE0U << 16U)& USB_OTG_HPTXFSIZ_PTXFD) | 0x300U);
 4786              		.loc 1 1294 30 is_stmt 0 view .LVU1408
 4787 00a2 03F18073 		add	r3, r3, #16777216
 4788 00a6 A362     		str	r3, [r4, #40]
1295:Drivers/STM32F4xx_HAL_Driver/Src/stm32f4xx_ll_usb.c ****   }
 4789              		.loc 1 1295 5 is_stmt 1 view .LVU1409
1295:Drivers/STM32F4xx_HAL_Driver/Src/stm32f4xx_ll_usb.c ****   }
 4790              		.loc 1 1295 20 is_stmt 0 view .LVU1410
 4791 00a8 0D4B     		ldr	r3, .L265
 4792 00aa C4F80031 		str	r3, [r4, #256]
 4793              	.L259:
1299:Drivers/STM32F4xx_HAL_Driver/Src/stm32f4xx_ll_usb.c ****   {
 4794              		.loc 1 1299 3 is_stmt 1 view .LVU1411
1299:Drivers/STM32F4xx_HAL_Driver/Src/stm32f4xx_ll_usb.c ****   {
 4795              		.loc 1 1299 10 is_stmt 0 view .LVU1412
 4796 00ae 089B     		ldr	r3, [sp, #32]
1299:Drivers/STM32F4xx_HAL_Driver/Src/stm32f4xx_ll_usb.c ****   {
 4797              		.loc 1 1299 6 view .LVU1413
 4798 00b0 1BB9     		cbnz	r3, .L260
ARM GAS  C:\Users\gx\AppData\Local\Temp\ccXSZ03x.s 			page 134


1301:Drivers/STM32F4xx_HAL_Driver/Src/stm32f4xx_ll_usb.c ****   }
 4799              		.loc 1 1301 5 is_stmt 1 view .LVU1414
1301:Drivers/STM32F4xx_HAL_Driver/Src/stm32f4xx_ll_usb.c ****   }
 4800              		.loc 1 1301 19 is_stmt 0 view .LVU1415
 4801 00b2 A369     		ldr	r3, [r4, #24]
 4802 00b4 43F01003 		orr	r3, r3, #16
 4803 00b8 A361     		str	r3, [r4, #24]
 4804              	.L260:
1305:Drivers/STM32F4xx_HAL_Driver/Src/stm32f4xx_ll_usb.c ****                     USB_OTG_GINTMSK_SOFM             |USB_OTG_GINTSTS_DISCINT|\
 4805              		.loc 1 1305 3 is_stmt 1 view .LVU1416
1305:Drivers/STM32F4xx_HAL_Driver/Src/stm32f4xx_ll_usb.c ****                     USB_OTG_GINTMSK_SOFM             |USB_OTG_GINTSTS_DISCINT|\
 4806              		.loc 1 1305 17 is_stmt 0 view .LVU1417
 4807 00ba A269     		ldr	r2, [r4, #24]
 4808 00bc 094B     		ldr	r3, .L265+4
 4809 00be 1343     		orrs	r3, r3, r2
 4810 00c0 A361     		str	r3, [r4, #24]
1309:Drivers/STM32F4xx_HAL_Driver/Src/stm32f4xx_ll_usb.c **** }
 4811              		.loc 1 1309 3 is_stmt 1 view .LVU1418
1310:Drivers/STM32F4xx_HAL_Driver/Src/stm32f4xx_ll_usb.c **** 
 4812              		.loc 1 1310 1 is_stmt 0 view .LVU1419
 4813 00c2 0020     		movs	r0, #0
 4814 00c4 BDE83840 		pop	{r3, r4, r5, lr}
 4815              	.LCFI77:
 4816              		.cfi_remember_state
 4817              		.cfi_restore 14
 4818              		.cfi_restore 5
 4819              		.cfi_restore 4
 4820              		.cfi_restore 3
 4821              		.cfi_def_cfa_offset 16
 4822              	.LVL333:
1310:Drivers/STM32F4xx_HAL_Driver/Src/stm32f4xx_ll_usb.c **** 
 4823              		.loc 1 1310 1 view .LVU1420
 4824 00c8 04B0     		add	sp, sp, #16
 4825              	.LCFI78:
 4826              		.cfi_def_cfa_offset 0
 4827 00ca 7047     		bx	lr
 4828              	.LVL334:
 4829              	.L264:
 4830              	.LCFI79:
 4831              		.cfi_restore_state
1286:Drivers/STM32F4xx_HAL_Driver/Src/stm32f4xx_ll_usb.c ****     USBx->DIEPTXF0_HNPTXFSIZ = (uint32_t )(((0x60U << 16U)& USB_OTG_NPTXFD) | 0x80U);
 4832              		.loc 1 1286 5 is_stmt 1 view .LVU1421
1286:Drivers/STM32F4xx_HAL_Driver/Src/stm32f4xx_ll_usb.c ****     USBx->DIEPTXF0_HNPTXFSIZ = (uint32_t )(((0x60U << 16U)& USB_OTG_NPTXFD) | 0x80U);
 4833              		.loc 1 1286 20 is_stmt 0 view .LVU1422
 4834 00cc 8023     		movs	r3, #128
 4835 00ce 6362     		str	r3, [r4, #36]
1287:Drivers/STM32F4xx_HAL_Driver/Src/stm32f4xx_ll_usb.c ****     USBx->HPTXFSIZ = (uint32_t )(((0x40U << 16U)& USB_OTG_HPTXFSIZ_PTXFD) | 0xE0U);
 4836              		.loc 1 1287 5 is_stmt 1 view .LVU1423
1287:Drivers/STM32F4xx_HAL_Driver/Src/stm32f4xx_ll_usb.c ****     USBx->HPTXFSIZ = (uint32_t )(((0x40U << 16U)& USB_OTG_HPTXFSIZ_PTXFD) | 0xE0U);
 4837              		.loc 1 1287 30 is_stmt 0 view .LVU1424
 4838 00d0 03F5C003 		add	r3, r3, #6291456
 4839 00d4 A362     		str	r3, [r4, #40]
1288:Drivers/STM32F4xx_HAL_Driver/Src/stm32f4xx_ll_usb.c ****   }
 4840              		.loc 1 1288 5 is_stmt 1 view .LVU1425
1288:Drivers/STM32F4xx_HAL_Driver/Src/stm32f4xx_ll_usb.c ****   }
 4841              		.loc 1 1288 20 is_stmt 0 view .LVU1426
 4842 00d6 044B     		ldr	r3, .L265+8
ARM GAS  C:\Users\gx\AppData\Local\Temp\ccXSZ03x.s 			page 135


 4843 00d8 C4F80031 		str	r3, [r4, #256]
 4844 00dc E7E7     		b	.L259
 4845              	.L266:
 4846 00de 00BF     		.align	2
 4847              	.L265:
 4848 00e0 0003E000 		.word	14680832
 4849 00e4 080020A3 		.word	-1558183928
 4850 00e8 E0004000 		.word	4194528
 4851              		.cfi_endproc
 4852              	.LFE159:
 4854              		.section	.text.USB_GetHostSpeed,"ax",%progbits
 4855              		.align	1
 4856              		.global	USB_GetHostSpeed
 4857              		.syntax unified
 4858              		.thumb
 4859              		.thumb_func
 4860              		.fpu fpv4-sp-d16
 4862              	USB_GetHostSpeed:
 4863              	.LVL335:
 4864              	.LFB163:
1397:Drivers/STM32F4xx_HAL_Driver/Src/stm32f4xx_ll_usb.c ****   __IO uint32_t hprt0;
 4865              		.loc 1 1397 1 is_stmt 1 view -0
 4866              		.cfi_startproc
 4867              		@ args = 0, pretend = 0, frame = 8
 4868              		@ frame_needed = 0, uses_anonymous_args = 0
 4869              		@ link register save eliminated.
1397:Drivers/STM32F4xx_HAL_Driver/Src/stm32f4xx_ll_usb.c ****   __IO uint32_t hprt0;
 4870              		.loc 1 1397 1 is_stmt 0 view .LVU1428
 4871 0000 82B0     		sub	sp, sp, #8
 4872              	.LCFI80:
 4873              		.cfi_def_cfa_offset 8
1398:Drivers/STM32F4xx_HAL_Driver/Src/stm32f4xx_ll_usb.c ****   
 4874              		.loc 1 1398 3 is_stmt 1 view .LVU1429
1400:Drivers/STM32F4xx_HAL_Driver/Src/stm32f4xx_ll_usb.c ****   return ((hprt0 & USB_OTG_HPRT_PSPD) >> 17U);
 4875              		.loc 1 1400 3 view .LVU1430
1400:Drivers/STM32F4xx_HAL_Driver/Src/stm32f4xx_ll_usb.c ****   return ((hprt0 & USB_OTG_HPRT_PSPD) >> 17U);
 4876              		.loc 1 1400 11 is_stmt 0 view .LVU1431
 4877 0002 D0F84034 		ldr	r3, [r0, #1088]
1400:Drivers/STM32F4xx_HAL_Driver/Src/stm32f4xx_ll_usb.c ****   return ((hprt0 & USB_OTG_HPRT_PSPD) >> 17U);
 4878              		.loc 1 1400 9 view .LVU1432
 4879 0006 0193     		str	r3, [sp, #4]
1401:Drivers/STM32F4xx_HAL_Driver/Src/stm32f4xx_ll_usb.c **** }
 4880              		.loc 1 1401 3 is_stmt 1 view .LVU1433
1401:Drivers/STM32F4xx_HAL_Driver/Src/stm32f4xx_ll_usb.c **** }
 4881              		.loc 1 1401 39 is_stmt 0 view .LVU1434
 4882 0008 0198     		ldr	r0, [sp, #4]
 4883              	.LVL336:
1402:Drivers/STM32F4xx_HAL_Driver/Src/stm32f4xx_ll_usb.c **** 
 4884              		.loc 1 1402 1 view .LVU1435
 4885 000a C0F34140 		ubfx	r0, r0, #17, #2
 4886 000e 02B0     		add	sp, sp, #8
 4887              	.LCFI81:
 4888              		.cfi_def_cfa_offset 0
 4889              		@ sp needed
 4890 0010 7047     		bx	lr
 4891              		.cfi_endproc
 4892              	.LFE163:
ARM GAS  C:\Users\gx\AppData\Local\Temp\ccXSZ03x.s 			page 136


 4894              		.section	.text.USB_GetCurrentFrame,"ax",%progbits
 4895              		.align	1
 4896              		.global	USB_GetCurrentFrame
 4897              		.syntax unified
 4898              		.thumb
 4899              		.thumb_func
 4900              		.fpu fpv4-sp-d16
 4902              	USB_GetCurrentFrame:
 4903              	.LVL337:
 4904              	.LFB164:
1410:Drivers/STM32F4xx_HAL_Driver/Src/stm32f4xx_ll_usb.c ****   return (USBx_HOST->HFNUM & USB_OTG_HFNUM_FRNUM);
 4905              		.loc 1 1410 1 is_stmt 1 view -0
 4906              		.cfi_startproc
 4907              		@ args = 0, pretend = 0, frame = 0
 4908              		@ frame_needed = 0, uses_anonymous_args = 0
 4909              		@ link register save eliminated.
1411:Drivers/STM32F4xx_HAL_Driver/Src/stm32f4xx_ll_usb.c **** }
 4910              		.loc 1 1411 3 view .LVU1437
1411:Drivers/STM32F4xx_HAL_Driver/Src/stm32f4xx_ll_usb.c **** }
 4911              		.loc 1 1411 11 is_stmt 0 view .LVU1438
 4912 0000 00F58060 		add	r0, r0, #1024
 4913              	.LVL338:
1411:Drivers/STM32F4xx_HAL_Driver/Src/stm32f4xx_ll_usb.c **** }
 4914              		.loc 1 1411 20 view .LVU1439
 4915 0004 8068     		ldr	r0, [r0, #8]
 4916              	.LVL339:
1412:Drivers/STM32F4xx_HAL_Driver/Src/stm32f4xx_ll_usb.c **** 
 4917              		.loc 1 1412 1 view .LVU1440
 4918 0006 80B2     		uxth	r0, r0
 4919 0008 7047     		bx	lr
 4920              		.cfi_endproc
 4921              	.LFE164:
 4923              		.section	.text.USB_HC_Init,"ax",%progbits
 4924              		.align	1
 4925              		.global	USB_HC_Init
 4926              		.syntax unified
 4927              		.thumb
 4928              		.thumb_func
 4929              		.fpu fpv4-sp-d16
 4931              	USB_HC_Init:
 4932              	.LVL340:
 4933              	.LFB165:
1445:Drivers/STM32F4xx_HAL_Driver/Src/stm32f4xx_ll_usb.c ****     
 4934              		.loc 1 1445 1 is_stmt 1 view -0
 4935              		.cfi_startproc
 4936              		@ args = 12, pretend = 0, frame = 0
 4937              		@ frame_needed = 0, uses_anonymous_args = 0
1445:Drivers/STM32F4xx_HAL_Driver/Src/stm32f4xx_ll_usb.c ****     
 4938              		.loc 1 1445 1 is_stmt 0 view .LVU1442
 4939 0000 70B5     		push	{r4, r5, r6, lr}
 4940              	.LCFI82:
 4941              		.cfi_def_cfa_offset 16
 4942              		.cfi_offset 4, -16
 4943              		.cfi_offset 5, -12
 4944              		.cfi_offset 6, -8
 4945              		.cfi_offset 14, -4
 4946 0002 9DF81440 		ldrb	r4, [sp, #20]	@ zero_extendqisi2
ARM GAS  C:\Users\gx\AppData\Local\Temp\ccXSZ03x.s 			page 137


1448:Drivers/STM32F4xx_HAL_Driver/Src/stm32f4xx_ll_usb.c ****   
 4947              		.loc 1 1448 3 is_stmt 1 view .LVU1443
 4948 0006 00EB4115 		add	r5, r0, r1, lsl #5
 4949 000a 05F5A066 		add	r6, r5, #1280
1448:Drivers/STM32F4xx_HAL_Driver/Src/stm32f4xx_ll_usb.c ****   
 4950              		.loc 1 1448 26 is_stmt 0 view .LVU1444
 4951 000e 4FF0FF3C 		mov	ip, #-1
 4952 0012 C6F808C0 		str	ip, [r6, #8]
1451:Drivers/STM32F4xx_HAL_Driver/Src/stm32f4xx_ll_usb.c ****   {
 4953              		.loc 1 1451 3 is_stmt 1 view .LVU1445
 4954 0016 032C     		cmp	r4, #3
 4955 0018 22D8     		bhi	.L271
 4956 001a DFE804F0 		tbb	[pc, r4]
 4957              	.L273:
 4958 001e 02       		.byte	(.L274-.L273)/2
 4959 001f 57       		.byte	(.L275-.L273)/2
 4960 0020 02       		.byte	(.L274-.L273)/2
 4961 0021 1A       		.byte	(.L272-.L273)/2
 4962              		.p2align 1
 4963              	.L274:
1456:Drivers/STM32F4xx_HAL_Driver/Src/stm32f4xx_ll_usb.c ****                                 USB_OTG_HCINTMSK_STALLM |\
 4964              		.loc 1 1456 5 view .LVU1446
1456:Drivers/STM32F4xx_HAL_Driver/Src/stm32f4xx_ll_usb.c ****                                 USB_OTG_HCINTMSK_STALLM |\
 4965              		.loc 1 1456 31 is_stmt 0 view .LVU1447
 4966 0022 40F29D4C 		movw	ip, #1181
 4967 0026 C6F80CC0 		str	ip, [r6, #12]
1463:Drivers/STM32F4xx_HAL_Driver/Src/stm32f4xx_ll_usb.c ****     {
 4968              		.loc 1 1463 5 is_stmt 1 view .LVU1448
1463:Drivers/STM32F4xx_HAL_Driver/Src/stm32f4xx_ll_usb.c ****     {
 4969              		.loc 1 1463 8 is_stmt 0 view .LVU1449
 4970 002a 12F0800F 		tst	r2, #128
 4971 002e 09D1     		bne	.L281
1469:Drivers/STM32F4xx_HAL_Driver/Src/stm32f4xx_ll_usb.c ****       {
 4972              		.loc 1 1469 7 is_stmt 1 view .LVU1450
1469:Drivers/STM32F4xx_HAL_Driver/Src/stm32f4xx_ll_usb.c ****       {
 4973              		.loc 1 1469 9 is_stmt 0 view .LVU1451
 4974 0030 B0F1A04F 		cmp	r0, #1342177280
 4975 0034 14D0     		beq	.L271
1471:Drivers/STM32F4xx_HAL_Driver/Src/stm32f4xx_ll_usb.c ****       }
 4976              		.loc 1 1471 9 is_stmt 1 view .LVU1452
1471:Drivers/STM32F4xx_HAL_Driver/Src/stm32f4xx_ll_usb.c ****       }
 4977              		.loc 1 1471 35 is_stmt 0 view .LVU1453
 4978 0036 D6F80CC0 		ldr	ip, [r6, #12]
 4979 003a 4CF0600C 		orr	ip, ip, #96
 4980 003e C6F80CC0 		str	ip, [r6, #12]
 4981 0042 0DE0     		b	.L271
 4982              	.L281:
1465:Drivers/STM32F4xx_HAL_Driver/Src/stm32f4xx_ll_usb.c ****     } 
 4983              		.loc 1 1465 7 is_stmt 1 view .LVU1454
1465:Drivers/STM32F4xx_HAL_Driver/Src/stm32f4xx_ll_usb.c ****     } 
 4984              		.loc 1 1465 33 is_stmt 0 view .LVU1455
 4985 0044 D6F80CC0 		ldr	ip, [r6, #12]
 4986 0048 4CF4807C 		orr	ip, ip, #256
 4987 004c C6F80CC0 		str	ip, [r6, #12]
 4988 0050 06E0     		b	.L271
 4989              	.L272:
1478:Drivers/STM32F4xx_HAL_Driver/Src/stm32f4xx_ll_usb.c ****                                 USB_OTG_HCINTMSK_STALLM |\
ARM GAS  C:\Users\gx\AppData\Local\Temp\ccXSZ03x.s 			page 138


 4990              		.loc 1 1478 5 is_stmt 1 view .LVU1456
1478:Drivers/STM32F4xx_HAL_Driver/Src/stm32f4xx_ll_usb.c ****                                 USB_OTG_HCINTMSK_STALLM |\
 4991              		.loc 1 1478 31 is_stmt 0 view .LVU1457
 4992 0052 40F29D6C 		movw	ip, #1693
 4993 0056 C6F80CC0 		str	ip, [r6, #12]
1486:Drivers/STM32F4xx_HAL_Driver/Src/stm32f4xx_ll_usb.c ****     {
 4994              		.loc 1 1486 5 is_stmt 1 view .LVU1458
1486:Drivers/STM32F4xx_HAL_Driver/Src/stm32f4xx_ll_usb.c ****     {
 4995              		.loc 1 1486 8 is_stmt 0 view .LVU1459
 4996 005a 12F0800F 		tst	r2, #128
 4997 005e 2ED1     		bne	.L282
 4998              	.L271:
1507:Drivers/STM32F4xx_HAL_Driver/Src/stm32f4xx_ll_usb.c ****   
 4999              		.loc 1 1507 3 is_stmt 1 view .LVU1460
1507:Drivers/STM32F4xx_HAL_Driver/Src/stm32f4xx_ll_usb.c ****   
 5000              		.loc 1 1507 23 is_stmt 0 view .LVU1461
 5001 0060 00F5806E 		add	lr, r0, #1024
 5002 0064 D0F81864 		ldr	r6, [r0, #1048]
1507:Drivers/STM32F4xx_HAL_Driver/Src/stm32f4xx_ll_usb.c ****   
 5003              		.loc 1 1507 29 view .LVU1462
 5004 0068 4FF0010C 		mov	ip, #1
 5005 006c 0CFA01F1 		lsl	r1, ip, r1
 5006              	.LVL341:
1507:Drivers/STM32F4xx_HAL_Driver/Src/stm32f4xx_ll_usb.c ****   
 5007              		.loc 1 1507 23 view .LVU1463
 5008 0070 3143     		orrs	r1, r1, r6
 5009 0072 C0F81814 		str	r1, [r0, #1048]
1510:Drivers/STM32F4xx_HAL_Driver/Src/stm32f4xx_ll_usb.c ****   
 5010              		.loc 1 1510 3 is_stmt 1 view .LVU1464
1510:Drivers/STM32F4xx_HAL_Driver/Src/stm32f4xx_ll_usb.c ****   
 5011              		.loc 1 1510 17 is_stmt 0 view .LVU1465
 5012 0076 8169     		ldr	r1, [r0, #24]
 5013 0078 41F00071 		orr	r1, r1, #33554432
 5014 007c 8161     		str	r1, [r0, #24]
1513:Drivers/STM32F4xx_HAL_Driver/Src/stm32f4xx_ll_usb.c ****                              (((epnum & 0x7FU)<< 11U) & USB_OTG_HCCHAR_EPNUM)|\
 5015              		.loc 1 1513 3 is_stmt 1 view .LVU1466
1513:Drivers/STM32F4xx_HAL_Driver/Src/stm32f4xx_ll_usb.c ****                              (((epnum & 0x7FU)<< 11U) & USB_OTG_HCCHAR_EPNUM)|\
 5016              		.loc 1 1513 44 is_stmt 0 view .LVU1467
 5017 007e 9B05     		lsls	r3, r3, #22
 5018              	.LVL342:
1513:Drivers/STM32F4xx_HAL_Driver/Src/stm32f4xx_ll_usb.c ****                              (((epnum & 0x7FU)<< 11U) & USB_OTG_HCCHAR_EPNUM)|\
 5019              		.loc 1 1513 52 view .LVU1468
 5020 0080 03F0FE53 		and	r3, r3, #532676608
1514:Drivers/STM32F4xx_HAL_Driver/Src/stm32f4xx_ll_usb.c ****                              ((((epnum & 0x80U) == 0x80U)<< 15U) & USB_OTG_HCCHAR_EPDIR)|\
 5021              		.loc 1 1514 47 view .LVU1469
 5022 0084 D102     		lsls	r1, r2, #11
1514:Drivers/STM32F4xx_HAL_Driver/Src/stm32f4xx_ll_usb.c ****                              ((((epnum & 0x80U) == 0x80U)<< 15U) & USB_OTG_HCCHAR_EPDIR)|\
 5023              		.loc 1 1514 55 view .LVU1470
 5024 0086 01F4F041 		and	r1, r1, #30720
1513:Drivers/STM32F4xx_HAL_Driver/Src/stm32f4xx_ll_usb.c ****                              (((epnum & 0x7FU)<< 11U) & USB_OTG_HCCHAR_EPNUM)|\
 5025              		.loc 1 1513 75 view .LVU1471
 5026 008a 0B43     		orrs	r3, r3, r1
1515:Drivers/STM32F4xx_HAL_Driver/Src/stm32f4xx_ll_usb.c ****                              (((speed == USB_OTG_SPEED_LOW)<< 17U) & USB_OTG_HCCHAR_LSDEV)|\
 5027              		.loc 1 1515 49 view .LVU1472
 5028 008c 52B2     		sxtb	r2, r2
1515:Drivers/STM32F4xx_HAL_Driver/Src/stm32f4xx_ll_usb.c ****                              (((speed == USB_OTG_SPEED_LOW)<< 17U) & USB_OTG_HCCHAR_LSDEV)|\
 5029              		.loc 1 1515 66 view .LVU1473
ARM GAS  C:\Users\gx\AppData\Local\Temp\ccXSZ03x.s 			page 139


 5030 008e 02F40042 		and	r2, r2, #32768
 5031              	.LVL343:
1514:Drivers/STM32F4xx_HAL_Driver/Src/stm32f4xx_ll_usb.c ****                              ((((epnum & 0x80U) == 0x80U)<< 15U) & USB_OTG_HCCHAR_EPDIR)|\
 5032              		.loc 1 1514 78 view .LVU1474
 5033 0092 1343     		orrs	r3, r3, r2
1516:Drivers/STM32F4xx_HAL_Driver/Src/stm32f4xx_ll_usb.c ****                              ((ep_type << 18U) & USB_OTG_HCCHAR_EPTYP)|\
 5034              		.loc 1 1516 68 view .LVU1475
 5035 0094 9DF81020 		ldrb	r2, [sp, #16]	@ zero_extendqisi2
 5036 0098 022A     		cmp	r2, #2
 5037 009a 25D0     		beq	.L283
 5038 009c 0022     		movs	r2, #0
 5039              	.L277:
1515:Drivers/STM32F4xx_HAL_Driver/Src/stm32f4xx_ll_usb.c ****                              (((speed == USB_OTG_SPEED_LOW)<< 17U) & USB_OTG_HCCHAR_LSDEV)|\
 5040              		.loc 1 1515 89 view .LVU1476
 5041 009e 1343     		orrs	r3, r3, r2
1517:Drivers/STM32F4xx_HAL_Driver/Src/stm32f4xx_ll_usb.c ****                              (mps & USB_OTG_HCCHAR_MPSIZ));
 5042              		.loc 1 1517 40 view .LVU1477
 5043 00a0 A204     		lsls	r2, r4, #18
1517:Drivers/STM32F4xx_HAL_Driver/Src/stm32f4xx_ll_usb.c ****                              (mps & USB_OTG_HCCHAR_MPSIZ));
 5044              		.loc 1 1517 48 view .LVU1478
 5045 00a2 02F44022 		and	r2, r2, #786432
1516:Drivers/STM32F4xx_HAL_Driver/Src/stm32f4xx_ll_usb.c ****                              ((ep_type << 18U) & USB_OTG_HCCHAR_EPTYP)|\
 5046              		.loc 1 1516 91 view .LVU1479
 5047 00a6 1343     		orrs	r3, r3, r2
1518:Drivers/STM32F4xx_HAL_Driver/Src/stm32f4xx_ll_usb.c ****     
 5048              		.loc 1 1518 35 view .LVU1480
 5049 00a8 BDF81820 		ldrh	r2, [sp, #24]
 5050 00ac C2F30A02 		ubfx	r2, r2, #0, #11
1517:Drivers/STM32F4xx_HAL_Driver/Src/stm32f4xx_ll_usb.c ****                              (mps & USB_OTG_HCCHAR_MPSIZ));
 5051              		.loc 1 1517 71 view .LVU1481
 5052 00b0 1343     		orrs	r3, r3, r2
1513:Drivers/STM32F4xx_HAL_Driver/Src/stm32f4xx_ll_usb.c ****                              (((epnum & 0x7FU)<< 11U) & USB_OTG_HCCHAR_EPNUM)|\
 5053              		.loc 1 1513 27 view .LVU1482
 5054 00b2 C5F80035 		str	r3, [r5, #1280]
1520:Drivers/STM32F4xx_HAL_Driver/Src/stm32f4xx_ll_usb.c ****   {
 5055              		.loc 1 1520 3 is_stmt 1 view .LVU1483
1520:Drivers/STM32F4xx_HAL_Driver/Src/stm32f4xx_ll_usb.c ****   {
 5056              		.loc 1 1520 6 is_stmt 0 view .LVU1484
 5057 00b6 032C     		cmp	r4, #3
 5058 00b8 19D0     		beq	.L284
 5059              	.L278:
1525:Drivers/STM32F4xx_HAL_Driver/Src/stm32f4xx_ll_usb.c **** }
 5060              		.loc 1 1525 3 is_stmt 1 view .LVU1485
1526:Drivers/STM32F4xx_HAL_Driver/Src/stm32f4xx_ll_usb.c **** 
 5061              		.loc 1 1526 1 is_stmt 0 view .LVU1486
 5062 00ba 0020     		movs	r0, #0
 5063              	.LVL344:
1526:Drivers/STM32F4xx_HAL_Driver/Src/stm32f4xx_ll_usb.c **** 
 5064              		.loc 1 1526 1 view .LVU1487
 5065 00bc 70BD     		pop	{r4, r5, r6, pc}
 5066              	.LVL345:
 5067              	.L282:
1488:Drivers/STM32F4xx_HAL_Driver/Src/stm32f4xx_ll_usb.c ****     }
 5068              		.loc 1 1488 7 is_stmt 1 view .LVU1488
1488:Drivers/STM32F4xx_HAL_Driver/Src/stm32f4xx_ll_usb.c ****     }
 5069              		.loc 1 1488 33 is_stmt 0 view .LVU1489
 5070 00be D6F80CC0 		ldr	ip, [r6, #12]
ARM GAS  C:\Users\gx\AppData\Local\Temp\ccXSZ03x.s 			page 140


 5071 00c2 4CF4807C 		orr	ip, ip, #256
 5072 00c6 C6F80CC0 		str	ip, [r6, #12]
 5073 00ca C9E7     		b	.L271
 5074              	.L275:
1494:Drivers/STM32F4xx_HAL_Driver/Src/stm32f4xx_ll_usb.c ****                                 USB_OTG_HCINTMSK_ACKM   |\
 5075              		.loc 1 1494 5 is_stmt 1 view .LVU1490
1494:Drivers/STM32F4xx_HAL_Driver/Src/stm32f4xx_ll_usb.c ****                                 USB_OTG_HCINTMSK_ACKM   |\
 5076              		.loc 1 1494 31 is_stmt 0 view .LVU1491
 5077 00cc 40F2252C 		movw	ip, #549
 5078 00d0 C6F80CC0 		str	ip, [r6, #12]
1499:Drivers/STM32F4xx_HAL_Driver/Src/stm32f4xx_ll_usb.c ****     {
 5079              		.loc 1 1499 5 is_stmt 1 view .LVU1492
1499:Drivers/STM32F4xx_HAL_Driver/Src/stm32f4xx_ll_usb.c ****     {
 5080              		.loc 1 1499 8 is_stmt 0 view .LVU1493
 5081 00d4 12F0800F 		tst	r2, #128
 5082 00d8 C2D0     		beq	.L271
1501:Drivers/STM32F4xx_HAL_Driver/Src/stm32f4xx_ll_usb.c ****     }
 5083              		.loc 1 1501 7 is_stmt 1 view .LVU1494
1501:Drivers/STM32F4xx_HAL_Driver/Src/stm32f4xx_ll_usb.c ****     }
 5084              		.loc 1 1501 33 is_stmt 0 view .LVU1495
 5085 00da D6F80CC0 		ldr	ip, [r6, #12]
 5086 00de 4CF4C07C 		orr	ip, ip, #384
 5087 00e2 C6F80CC0 		str	ip, [r6, #12]
 5088 00e6 BBE7     		b	.L271
 5089              	.LVL346:
 5090              	.L283:
1516:Drivers/STM32F4xx_HAL_Driver/Src/stm32f4xx_ll_usb.c ****                              ((ep_type << 18U) & USB_OTG_HCCHAR_EPTYP)|\
 5091              		.loc 1 1516 68 view .LVU1496
 5092 00e8 4FF40032 		mov	r2, #131072
 5093 00ec D7E7     		b	.L277
 5094              	.L284:
1522:Drivers/STM32F4xx_HAL_Driver/Src/stm32f4xx_ll_usb.c ****   }
 5095              		.loc 1 1522 5 is_stmt 1 view .LVU1497
1522:Drivers/STM32F4xx_HAL_Driver/Src/stm32f4xx_ll_usb.c ****   }
 5096              		.loc 1 1522 29 is_stmt 0 view .LVU1498
 5097 00ee D5F80035 		ldr	r3, [r5, #1280]
 5098 00f2 43F00053 		orr	r3, r3, #536870912
 5099 00f6 C5F80035 		str	r3, [r5, #1280]
 5100 00fa DEE7     		b	.L278
 5101              		.cfi_endproc
 5102              	.LFE165:
 5104              		.section	.bss.debug.10009,"aw",%nobits
 5105              		.align	2
 5106              		.set	.LANCHOR0,. + 0
 5109              	debug.10009:
 5110 0000 00000000 		.space	4
 5111              		.text
 5112              	.Letext0:
 5113              		.file 2 "c:\\program files (x86)\\gnu arm embedded toolchain\\9 2020-q2-update\\arm-none-eabi\\inc
 5114              		.file 3 "c:\\program files (x86)\\gnu arm embedded toolchain\\9 2020-q2-update\\arm-none-eabi\\inc
 5115              		.file 4 "Drivers/CMSIS/Include/core_cm4.h"
 5116              		.file 5 "Drivers/CMSIS/Device/ST/STM32F4xx/Include/system_stm32f4xx.h"
 5117              		.file 6 "Drivers/CMSIS/Device/ST/STM32F4xx/Include/stm32f407xx.h"
 5118              		.file 7 "c:\\program files (x86)\\gnu arm embedded toolchain\\9 2020-q2-update\\lib\\gcc\\arm-none
 5119              		.file 8 "c:\\program files (x86)\\gnu arm embedded toolchain\\9 2020-q2-update\\arm-none-eabi\\inc
 5120              		.file 9 "c:\\program files (x86)\\gnu arm embedded toolchain\\9 2020-q2-update\\arm-none-eabi\\inc
 5121              		.file 10 "c:\\program files (x86)\\gnu arm embedded toolchain\\9 2020-q2-update\\arm-none-eabi\\in
ARM GAS  C:\Users\gx\AppData\Local\Temp\ccXSZ03x.s 			page 141


 5122              		.file 11 "Drivers/CMSIS/Device/ST/STM32F4xx/Include/stm32f4xx.h"
 5123              		.file 12 "Drivers/STM32F4xx_HAL_Driver/Inc/stm32f4xx_hal_def.h"
 5124              		.file 13 "Drivers/STM32F4xx_HAL_Driver/Inc/stm32f4xx_ll_usb.h"
 5125              		.file 14 "Drivers/STM32F4xx_HAL_Driver/Inc/stm32f4xx_hal.h"
ARM GAS  C:\Users\gx\AppData\Local\Temp\ccXSZ03x.s 			page 142


DEFINED SYMBOLS
                            *ABS*:00000000 stm32f4xx_ll_usb.c
C:\Users\gx\AppData\Local\Temp\ccXSZ03x.s:18     .text.USB_HC_StartXfer:00000000 $t
C:\Users\gx\AppData\Local\Temp\ccXSZ03x.s:26     .text.USB_HC_StartXfer:00000000 USB_HC_StartXfer
C:\Users\gx\AppData\Local\Temp\ccXSZ03x.s:933    .text.USB_DoPing:00000000 USB_DoPing
C:\Users\gx\AppData\Local\Temp\ccXSZ03x.s:425    .text.USB_HC_StartXfer:000001e4 $d
C:\Users\gx\AppData\Local\Temp\ccXSZ03x.s:429    .text.USB_HC_StartXfer:000001f4 $t
C:\Users\gx\AppData\Local\Temp\ccXSZ03x.s:3137   .text.USB_WritePacket:00000000 USB_WritePacket
C:\Users\gx\AppData\Local\Temp\ccXSZ03x.s:547    .text.USB_HC_StartXfer:0000026c $d
C:\Users\gx\AppData\Local\Temp\ccXSZ03x.s:552    .text.USB_HC_ReadInterrupt:00000000 $t
C:\Users\gx\AppData\Local\Temp\ccXSZ03x.s:559    .text.USB_HC_ReadInterrupt:00000000 USB_HC_ReadInterrupt
C:\Users\gx\AppData\Local\Temp\ccXSZ03x.s:611    .text.USB_HC_Halt:00000000 $t
C:\Users\gx\AppData\Local\Temp\ccXSZ03x.s:618    .text.USB_HC_Halt:00000000 USB_HC_Halt
C:\Users\gx\AppData\Local\Temp\ccXSZ03x.s:926    .text.USB_DoPing:00000000 $t
C:\Users\gx\AppData\Local\Temp\ccXSZ03x.s:1054   .text.USB_DoPing:00000070 $d
C:\Users\gx\AppData\Local\Temp\ccXSZ03x.s:1059   .text.USB_StopHost:00000000 $t
C:\Users\gx\AppData\Local\Temp\ccXSZ03x.s:1066   .text.USB_StopHost:00000000 USB_StopHost
C:\Users\gx\AppData\Local\Temp\ccXSZ03x.s:1569   .text.USB_DisableGlobalInt:00000000 USB_DisableGlobalInt
C:\Users\gx\AppData\Local\Temp\ccXSZ03x.s:1658   .text.USB_FlushTxFifo:00000000 USB_FlushTxFifo
C:\Users\gx\AppData\Local\Temp\ccXSZ03x.s:1721   .text.USB_FlushRxFifo:00000000 USB_FlushRxFifo
C:\Users\gx\AppData\Local\Temp\ccXSZ03x.s:1539   .text.USB_EnableGlobalInt:00000000 USB_EnableGlobalInt
C:\Users\gx\AppData\Local\Temp\ccXSZ03x.s:1320   .text.USB_CoreReset:00000000 $t
C:\Users\gx\AppData\Local\Temp\ccXSZ03x.s:1326   .text.USB_CoreReset:00000000 USB_CoreReset
C:\Users\gx\AppData\Local\Temp\ccXSZ03x.s:1402   .text.USB_CoreReset:00000038 $d
C:\Users\gx\AppData\Local\Temp\ccXSZ03x.s:1407   .text.USB_CoreInit:00000000 $t
C:\Users\gx\AppData\Local\Temp\ccXSZ03x.s:1414   .text.USB_CoreInit:00000000 USB_CoreInit
C:\Users\gx\AppData\Local\Temp\ccXSZ03x.s:1532   .text.USB_EnableGlobalInt:00000000 $t
C:\Users\gx\AppData\Local\Temp\ccXSZ03x.s:1562   .text.USB_DisableGlobalInt:00000000 $t
C:\Users\gx\AppData\Local\Temp\ccXSZ03x.s:1592   .text.USB_SetCurrentMode:00000000 $t
C:\Users\gx\AppData\Local\Temp\ccXSZ03x.s:1599   .text.USB_SetCurrentMode:00000000 USB_SetCurrentMode
C:\Users\gx\AppData\Local\Temp\ccXSZ03x.s:1651   .text.USB_FlushTxFifo:00000000 $t
C:\Users\gx\AppData\Local\Temp\ccXSZ03x.s:1709   .text.USB_FlushTxFifo:00000024 $d
C:\Users\gx\AppData\Local\Temp\ccXSZ03x.s:1714   .text.USB_FlushRxFifo:00000000 $t
C:\Users\gx\AppData\Local\Temp\ccXSZ03x.s:1768   .text.USB_FlushRxFifo:00000020 $d
C:\Users\gx\AppData\Local\Temp\ccXSZ03x.s:1773   .text.USB_SetDevSpeed:00000000 $t
C:\Users\gx\AppData\Local\Temp\ccXSZ03x.s:1780   .text.USB_SetDevSpeed:00000000 USB_SetDevSpeed
C:\Users\gx\AppData\Local\Temp\ccXSZ03x.s:1805   .text.USB_DevInit:00000000 $t
C:\Users\gx\AppData\Local\Temp\ccXSZ03x.s:1812   .text.USB_DevInit:00000000 USB_DevInit
C:\Users\gx\AppData\Local\Temp\ccXSZ03x.s:2112   .text.USB_DevInit:00000150 $d
C:\Users\gx\AppData\Local\Temp\ccXSZ03x.s:2118   .text.USB_GetDevSpeed:00000000 $t
C:\Users\gx\AppData\Local\Temp\ccXSZ03x.s:2125   .text.USB_GetDevSpeed:00000000 USB_GetDevSpeed
C:\Users\gx\AppData\Local\Temp\ccXSZ03x.s:2193   .text.USB_ActivateEndpoint:00000000 $t
C:\Users\gx\AppData\Local\Temp\ccXSZ03x.s:2200   .text.USB_ActivateEndpoint:00000000 USB_ActivateEndpoint
C:\Users\gx\AppData\Local\Temp\ccXSZ03x.s:2319   .text.USB_ActivateDedicatedEndpoint:00000000 $t
C:\Users\gx\AppData\Local\Temp\ccXSZ03x.s:2326   .text.USB_ActivateDedicatedEndpoint:00000000 USB_ActivateDedicatedEndpoint
C:\Users\gx\AppData\Local\Temp\ccXSZ03x.s:2498   .text.USB_ActivateDedicatedEndpoint:000000e4 $d
C:\Users\gx\AppData\Local\Temp\ccXSZ03x.s:2503   .text.USB_DeactivateEndpoint:00000000 $t
C:\Users\gx\AppData\Local\Temp\ccXSZ03x.s:2510   .text.USB_DeactivateEndpoint:00000000 USB_DeactivateEndpoint
C:\Users\gx\AppData\Local\Temp\ccXSZ03x.s:2691   .text.USB_DeactivateEndpoint:000000f0 $d
C:\Users\gx\AppData\Local\Temp\ccXSZ03x.s:2696   .text.USB_DeactivateDedicatedEndpoint:00000000 $t
C:\Users\gx\AppData\Local\Temp\ccXSZ03x.s:2703   .text.USB_DeactivateDedicatedEndpoint:00000000 USB_DeactivateDedicatedEndpoint
C:\Users\gx\AppData\Local\Temp\ccXSZ03x.s:2884   .text.USB_DeactivateDedicatedEndpoint:000000f0 $d
C:\Users\gx\AppData\Local\Temp\ccXSZ03x.s:2889   .text.USB_EP0StartXfer:00000000 $t
C:\Users\gx\AppData\Local\Temp\ccXSZ03x.s:2896   .text.USB_EP0StartXfer:00000000 USB_EP0StartXfer
C:\Users\gx\AppData\Local\Temp\ccXSZ03x.s:3130   .text.USB_WritePacket:00000000 $t
C:\Users\gx\AppData\Local\Temp\ccXSZ03x.s:3205   .text.USB_EPStartXfer:00000000 $t
C:\Users\gx\AppData\Local\Temp\ccXSZ03x.s:3212   .text.USB_EPStartXfer:00000000 USB_EPStartXfer
ARM GAS  C:\Users\gx\AppData\Local\Temp\ccXSZ03x.s 			page 143


C:\Users\gx\AppData\Local\Temp\ccXSZ03x.s:3591   .text.USB_EPStartXfer:00000260 $d
C:\Users\gx\AppData\Local\Temp\ccXSZ03x.s:3596   .text.USB_ReadPacket:00000000 $t
C:\Users\gx\AppData\Local\Temp\ccXSZ03x.s:3603   .text.USB_ReadPacket:00000000 USB_ReadPacket
C:\Users\gx\AppData\Local\Temp\ccXSZ03x.s:3662   .text.USB_EPSetStall:00000000 $t
C:\Users\gx\AppData\Local\Temp\ccXSZ03x.s:3669   .text.USB_EPSetStall:00000000 USB_EPSetStall
C:\Users\gx\AppData\Local\Temp\ccXSZ03x.s:3743   .text.USB_EPClearStall:00000000 $t
C:\Users\gx\AppData\Local\Temp\ccXSZ03x.s:3750   .text.USB_EPClearStall:00000000 USB_EPClearStall
C:\Users\gx\AppData\Local\Temp\ccXSZ03x.s:3830   .text.USB_StopDevice:00000000 $t
C:\Users\gx\AppData\Local\Temp\ccXSZ03x.s:3837   .text.USB_StopDevice:00000000 USB_StopDevice
C:\Users\gx\AppData\Local\Temp\ccXSZ03x.s:3915   .text.USB_SetDevAddress:00000000 $t
C:\Users\gx\AppData\Local\Temp\ccXSZ03x.s:3922   .text.USB_SetDevAddress:00000000 USB_SetDevAddress
C:\Users\gx\AppData\Local\Temp\ccXSZ03x.s:3956   .text.USB_DevConnect:00000000 $t
C:\Users\gx\AppData\Local\Temp\ccXSZ03x.s:3963   .text.USB_DevConnect:00000000 USB_DevConnect
C:\Users\gx\AppData\Local\Temp\ccXSZ03x.s:3995   .text.USB_DevDisconnect:00000000 $t
C:\Users\gx\AppData\Local\Temp\ccXSZ03x.s:4002   .text.USB_DevDisconnect:00000000 USB_DevDisconnect
C:\Users\gx\AppData\Local\Temp\ccXSZ03x.s:4034   .text.USB_ReadInterrupts:00000000 $t
C:\Users\gx\AppData\Local\Temp\ccXSZ03x.s:4041   .text.USB_ReadInterrupts:00000000 USB_ReadInterrupts
C:\Users\gx\AppData\Local\Temp\ccXSZ03x.s:4068   .text.USB_ReadDevAllOutEpInterrupt:00000000 $t
C:\Users\gx\AppData\Local\Temp\ccXSZ03x.s:4075   .text.USB_ReadDevAllOutEpInterrupt:00000000 USB_ReadDevAllOutEpInterrupt
C:\Users\gx\AppData\Local\Temp\ccXSZ03x.s:4107   .text.USB_ReadDevAllInEpInterrupt:00000000 $t
C:\Users\gx\AppData\Local\Temp\ccXSZ03x.s:4114   .text.USB_ReadDevAllInEpInterrupt:00000000 USB_ReadDevAllInEpInterrupt
C:\Users\gx\AppData\Local\Temp\ccXSZ03x.s:4146   .text.USB_ReadDevOutEPInterrupt:00000000 $t
C:\Users\gx\AppData\Local\Temp\ccXSZ03x.s:4153   .text.USB_ReadDevOutEPInterrupt:00000000 USB_ReadDevOutEPInterrupt
C:\Users\gx\AppData\Local\Temp\ccXSZ03x.s:4186   .text.USB_ReadDevInEPInterrupt:00000000 $t
C:\Users\gx\AppData\Local\Temp\ccXSZ03x.s:4193   .text.USB_ReadDevInEPInterrupt:00000000 USB_ReadDevInEPInterrupt
C:\Users\gx\AppData\Local\Temp\ccXSZ03x.s:4248   .text.USB_ClearInterrupts:00000000 $t
C:\Users\gx\AppData\Local\Temp\ccXSZ03x.s:4255   .text.USB_ClearInterrupts:00000000 USB_ClearInterrupts
C:\Users\gx\AppData\Local\Temp\ccXSZ03x.s:4274   .text.USB_GetMode:00000000 $t
C:\Users\gx\AppData\Local\Temp\ccXSZ03x.s:4281   .text.USB_GetMode:00000000 USB_GetMode
C:\Users\gx\AppData\Local\Temp\ccXSZ03x.s:4300   .text.USB_ActivateSetup:00000000 $t
C:\Users\gx\AppData\Local\Temp\ccXSZ03x.s:4307   .text.USB_ActivateSetup:00000000 USB_ActivateSetup
C:\Users\gx\AppData\Local\Temp\ccXSZ03x.s:4355   .text.USB_EP0_OutStart:00000000 $t
C:\Users\gx\AppData\Local\Temp\ccXSZ03x.s:4362   .text.USB_EP0_OutStart:00000000 USB_EP0_OutStart
C:\Users\gx\AppData\Local\Temp\ccXSZ03x.s:4426   .text.USB_InitFSLSPClkSel:00000000 $t
C:\Users\gx\AppData\Local\Temp\ccXSZ03x.s:4433   .text.USB_InitFSLSPClkSel:00000000 USB_InitFSLSPClkSel
C:\Users\gx\AppData\Local\Temp\ccXSZ03x.s:4501   .text.USB_ResetPort:00000000 $t
C:\Users\gx\AppData\Local\Temp\ccXSZ03x.s:4508   .text.USB_ResetPort:00000000 USB_ResetPort
C:\Users\gx\AppData\Local\Temp\ccXSZ03x.s:4567   .text.USB_DriveVbus:00000000 $t
C:\Users\gx\AppData\Local\Temp\ccXSZ03x.s:4574   .text.USB_DriveVbus:00000000 USB_DriveVbus
C:\Users\gx\AppData\Local\Temp\ccXSZ03x.s:4648   .text.USB_HostInit:00000000 $t
C:\Users\gx\AppData\Local\Temp\ccXSZ03x.s:4655   .text.USB_HostInit:00000000 USB_HostInit
C:\Users\gx\AppData\Local\Temp\ccXSZ03x.s:4848   .text.USB_HostInit:000000e0 $d
C:\Users\gx\AppData\Local\Temp\ccXSZ03x.s:4855   .text.USB_GetHostSpeed:00000000 $t
C:\Users\gx\AppData\Local\Temp\ccXSZ03x.s:4862   .text.USB_GetHostSpeed:00000000 USB_GetHostSpeed
C:\Users\gx\AppData\Local\Temp\ccXSZ03x.s:4895   .text.USB_GetCurrentFrame:00000000 $t
C:\Users\gx\AppData\Local\Temp\ccXSZ03x.s:4902   .text.USB_GetCurrentFrame:00000000 USB_GetCurrentFrame
C:\Users\gx\AppData\Local\Temp\ccXSZ03x.s:4924   .text.USB_HC_Init:00000000 $t
C:\Users\gx\AppData\Local\Temp\ccXSZ03x.s:4931   .text.USB_HC_Init:00000000 USB_HC_Init
C:\Users\gx\AppData\Local\Temp\ccXSZ03x.s:4958   .text.USB_HC_Init:0000001e $d
C:\Users\gx\AppData\Local\Temp\ccXSZ03x.s:4962   .text.USB_HC_Init:00000022 $t
C:\Users\gx\AppData\Local\Temp\ccXSZ03x.s:5105   .bss.debug.10009:00000000 $d
C:\Users\gx\AppData\Local\Temp\ccXSZ03x.s:5109   .bss.debug.10009:00000000 debug.10009

UNDEFINED SYMBOLS
HAL_Delay
